; Listing generated by Microsoft (R) Optimizing Compiler Version 19.28.29336.0 

	TITLE	C:\Develop\OPOS-CCO\zDeviceMonitor\DeviceMonitor.cpp
	.686P
	.XMM
	include listing.inc
	.model	flat

INCLUDELIB LIBCMT
INCLUDELIB OLDNAMES

PUBLIC	?Release@?$CComObject@VCOPOSDeviceMonitor@@@ATL@@WIM@AGKXZ ; [thunk]:ATL::CComObject<COPOSDeviceMonitor>::Release`adjustor{140}'
PUBLIC	?QueryInterface@?$CComObject@VCOPOSDeviceMonitor@@@ATL@@WJA@AGJABU_GUID@@PAPAX@Z ; [thunk]:ATL::CComObject<COPOSDeviceMonitor>::QueryInterface`adjustor{144}'
PUBLIC	?AddRef@?$CComObject@VCOPOSDeviceMonitor@@@ATL@@WJA@AGKXZ ; [thunk]:ATL::CComObject<COPOSDeviceMonitor>::AddRef`adjustor{144}'
PUBLIC	?Release@?$CComObject@VCOPOSDeviceMonitor@@@ATL@@WJA@AGKXZ ; [thunk]:ATL::CComObject<COPOSDeviceMonitor>::Release`adjustor{144}'
PUBLIC	?QueryInterface@?$CComObject@VCOPOSDeviceMonitor@@@ATL@@WJE@AGJABU_GUID@@PAPAX@Z ; [thunk]:ATL::CComObject<COPOSDeviceMonitor>::QueryInterface`adjustor{148}'
PUBLIC	?AddRef@?$CComObject@VCOPOSDeviceMonitor@@@ATL@@WJE@AGKXZ ; [thunk]:ATL::CComObject<COPOSDeviceMonitor>::AddRef`adjustor{148}'
PUBLIC	?Release@?$CComObject@VCOPOSDeviceMonitor@@@ATL@@WJE@AGKXZ ; [thunk]:ATL::CComObject<COPOSDeviceMonitor>::Release`adjustor{148}'
PUBLIC	?QueryInterface@?$CComObject@VCOPOSDeviceMonitor@@@ATL@@WJI@AGJABU_GUID@@PAPAX@Z ; [thunk]:ATL::CComObject<COPOSDeviceMonitor>::QueryInterface`adjustor{152}'
PUBLIC	?AddRef@?$CComObject@VCOPOSDeviceMonitor@@@ATL@@WJI@AGKXZ ; [thunk]:ATL::CComObject<COPOSDeviceMonitor>::AddRef`adjustor{152}'
PUBLIC	?Release@?$CComObject@VCOPOSDeviceMonitor@@@ATL@@WJI@AGKXZ ; [thunk]:ATL::CComObject<COPOSDeviceMonitor>::Release`adjustor{152}'
PUBLIC	?QueryInterface@?$CComObject@VCOPOSDeviceMonitor@@@ATL@@WJM@AGJABU_GUID@@PAPAX@Z ; [thunk]:ATL::CComObject<COPOSDeviceMonitor>::QueryInterface`adjustor{156}'
PUBLIC	?AddRef@?$CComObject@VCOPOSDeviceMonitor@@@ATL@@WJM@AGKXZ ; [thunk]:ATL::CComObject<COPOSDeviceMonitor>::AddRef`adjustor{156}'
PUBLIC	?Release@?$CComObject@VCOPOSDeviceMonitor@@@ATL@@WJM@AGKXZ ; [thunk]:ATL::CComObject<COPOSDeviceMonitor>::Release`adjustor{156}'
PUBLIC	?QueryInterface@?$CComObject@VCOPOSDeviceMonitor@@@ATL@@WKA@AGJABU_GUID@@PAPAX@Z ; [thunk]:ATL::CComObject<COPOSDeviceMonitor>::QueryInterface`adjustor{160}'
PUBLIC	?AddRef@?$CComObject@VCOPOSDeviceMonitor@@@ATL@@WKA@AGKXZ ; [thunk]:ATL::CComObject<COPOSDeviceMonitor>::AddRef`adjustor{160}'
PUBLIC	?Release@?$CComObject@VCOPOSDeviceMonitor@@@ATL@@WKA@AGKXZ ; [thunk]:ATL::CComObject<COPOSDeviceMonitor>::Release`adjustor{160}'
PUBLIC	?AddRef@?$CComObject@VCOPOSDeviceMonitor@@@ATL@@WKI@AGKXZ ; [thunk]:ATL::CComObject<COPOSDeviceMonitor>::AddRef`adjustor{168}'
PUBLIC	?Release@?$CComObject@VCOPOSDeviceMonitor@@@ATL@@WKI@AGKXZ ; [thunk]:ATL::CComObject<COPOSDeviceMonitor>::Release`adjustor{168}'
PUBLIC	?AddRef@?$CComObject@VCOPOSDeviceMonitor@@@ATL@@WLE@AGKXZ ; [thunk]:ATL::CComObject<COPOSDeviceMonitor>::AddRef`adjustor{180}'
PUBLIC	?Release@?$CComObject@VCOPOSDeviceMonitor@@@ATL@@WLE@AGKXZ ; [thunk]:ATL::CComObject<COPOSDeviceMonitor>::Release`adjustor{180}'
PUBLIC	??_E?$CComContainedObject@VCOPOSDeviceMonitor@@@ATL@@W3AEPAXI@Z ; [thunk]:ATL::CComContainedObject<COPOSDeviceMonitor>::`vector deleting destructor'
PUBLIC	??_E?$CComContainedObject@VCOPOSDeviceMonitor@@@ATL@@WEM@AEPAXI@Z ; [thunk]:ATL::CComContainedObject<COPOSDeviceMonitor>::`vector deleting destructor'
PUBLIC	?QueryInterface@?$CComContainedObject@VCOPOSDeviceMonitor@@@ATL@@WHA@AGJABU_GUID@@PAPAX@Z ; [thunk]:ATL::CComContainedObject<COPOSDeviceMonitor>::QueryInterface`adjustor{112}'
PUBLIC	?AddRef@?$CComContainedObject@VCOPOSDeviceMonitor@@@ATL@@WHA@AGKXZ ; [thunk]:ATL::CComContainedObject<COPOSDeviceMonitor>::AddRef`adjustor{112}'
PUBLIC	?Release@?$CComContainedObject@VCOPOSDeviceMonitor@@@ATL@@WHA@AGKXZ ; [thunk]:ATL::CComContainedObject<COPOSDeviceMonitor>::Release`adjustor{112}'
PUBLIC	?QueryInterface@?$CComContainedObject@VCOPOSDeviceMonitor@@@ATL@@WHE@AGJABU_GUID@@PAPAX@Z ; [thunk]:ATL::CComContainedObject<COPOSDeviceMonitor>::QueryInterface`adjustor{116}'
PUBLIC	?AddRef@?$CComContainedObject@VCOPOSDeviceMonitor@@@ATL@@WHE@AGKXZ ; [thunk]:ATL::CComContainedObject<COPOSDeviceMonitor>::AddRef`adjustor{116}'
PUBLIC	?Release@?$CComContainedObject@VCOPOSDeviceMonitor@@@ATL@@WHE@AGKXZ ; [thunk]:ATL::CComContainedObject<COPOSDeviceMonitor>::Release`adjustor{116}'
PUBLIC	?QueryInterface@?$CComContainedObject@VCOPOSDeviceMonitor@@@ATL@@WHI@AGJABU_GUID@@PAPAX@Z ; [thunk]:ATL::CComContainedObject<COPOSDeviceMonitor>::QueryInterface`adjustor{120}'
PUBLIC	?AddRef@?$CComContainedObject@VCOPOSDeviceMonitor@@@ATL@@WHI@AGKXZ ; [thunk]:ATL::CComContainedObject<COPOSDeviceMonitor>::AddRef`adjustor{120}'
PUBLIC	?Release@?$CComContainedObject@VCOPOSDeviceMonitor@@@ATL@@WHI@AGKXZ ; [thunk]:ATL::CComContainedObject<COPOSDeviceMonitor>::Release`adjustor{120}'
PUBLIC	?QueryInterface@?$CComContainedObject@VCOPOSDeviceMonitor@@@ATL@@WHM@AGJABU_GUID@@PAPAX@Z ; [thunk]:ATL::CComContainedObject<COPOSDeviceMonitor>::QueryInterface`adjustor{124}'
PUBLIC	?AddRef@?$CComContainedObject@VCOPOSDeviceMonitor@@@ATL@@WHM@AGKXZ ; [thunk]:ATL::CComContainedObject<COPOSDeviceMonitor>::AddRef`adjustor{124}'
PUBLIC	?Release@?$CComContainedObject@VCOPOSDeviceMonitor@@@ATL@@WHM@AGKXZ ; [thunk]:ATL::CComContainedObject<COPOSDeviceMonitor>::Release`adjustor{124}'
PUBLIC	?QueryInterface@?$CComContainedObject@VCOPOSDeviceMonitor@@@ATL@@WIA@AGJABU_GUID@@PAPAX@Z ; [thunk]:ATL::CComContainedObject<COPOSDeviceMonitor>::QueryInterface`adjustor{128}'
PUBLIC	?AddRef@?$CComContainedObject@VCOPOSDeviceMonitor@@@ATL@@WIA@AGKXZ ; [thunk]:ATL::CComContainedObject<COPOSDeviceMonitor>::AddRef`adjustor{128}'
PUBLIC	?Release@?$CComContainedObject@VCOPOSDeviceMonitor@@@ATL@@WIA@AGKXZ ; [thunk]:ATL::CComContainedObject<COPOSDeviceMonitor>::Release`adjustor{128}'
PUBLIC	?QueryInterface@?$CComContainedObject@VCOPOSDeviceMonitor@@@ATL@@WIE@AGJABU_GUID@@PAPAX@Z ; [thunk]:ATL::CComContainedObject<COPOSDeviceMonitor>::QueryInterface`adjustor{132}'
PUBLIC	?AddRef@?$CComContainedObject@VCOPOSDeviceMonitor@@@ATL@@WIE@AGKXZ ; [thunk]:ATL::CComContainedObject<COPOSDeviceMonitor>::AddRef`adjustor{132}'
PUBLIC	?Release@?$CComContainedObject@VCOPOSDeviceMonitor@@@ATL@@WIE@AGKXZ ; [thunk]:ATL::CComContainedObject<COPOSDeviceMonitor>::Release`adjustor{132}'
PUBLIC	?QueryInterface@?$CComContainedObject@VCOPOSDeviceMonitor@@@ATL@@WII@AGJABU_GUID@@PAPAX@Z ; [thunk]:ATL::CComContainedObject<COPOSDeviceMonitor>::QueryInterface`adjustor{136}'
PUBLIC	?AddRef@?$CComContainedObject@VCOPOSDeviceMonitor@@@ATL@@WII@AGKXZ ; [thunk]:ATL::CComContainedObject<COPOSDeviceMonitor>::AddRef`adjustor{136}'
PUBLIC	?Release@?$CComContainedObject@VCOPOSDeviceMonitor@@@ATL@@WII@AGKXZ ; [thunk]:ATL::CComContainedObject<COPOSDeviceMonitor>::Release`adjustor{136}'
PUBLIC	?QueryInterface@?$CComContainedObject@VCOPOSDeviceMonitor@@@ATL@@WIM@AGJABU_GUID@@PAPAX@Z ; [thunk]:ATL::CComContainedObject<COPOSDeviceMonitor>::QueryInterface`adjustor{140}'
PUBLIC	?AddRef@?$CComContainedObject@VCOPOSDeviceMonitor@@@ATL@@WIM@AGKXZ ; [thunk]:ATL::CComContainedObject<COPOSDeviceMonitor>::AddRef`adjustor{140}'
PUBLIC	?Release@?$CComContainedObject@VCOPOSDeviceMonitor@@@ATL@@WIM@AGKXZ ; [thunk]:ATL::CComContainedObject<COPOSDeviceMonitor>::Release`adjustor{140}'
PUBLIC	?QueryInterface@?$CComContainedObject@VCOPOSDeviceMonitor@@@ATL@@WJA@AGJABU_GUID@@PAPAX@Z ; [thunk]:ATL::CComContainedObject<COPOSDeviceMonitor>::QueryInterface`adjustor{144}'
PUBLIC	?AddRef@?$CComContainedObject@VCOPOSDeviceMonitor@@@ATL@@WJA@AGKXZ ; [thunk]:ATL::CComContainedObject<COPOSDeviceMonitor>::AddRef`adjustor{144}'
PUBLIC	?Release@?$CComContainedObject@VCOPOSDeviceMonitor@@@ATL@@WJA@AGKXZ ; [thunk]:ATL::CComContainedObject<COPOSDeviceMonitor>::Release`adjustor{144}'
PUBLIC	?QueryInterface@?$CComContainedObject@VCOPOSDeviceMonitor@@@ATL@@WJE@AGJABU_GUID@@PAPAX@Z ; [thunk]:ATL::CComContainedObject<COPOSDeviceMonitor>::QueryInterface`adjustor{148}'
PUBLIC	?AddRef@?$CComContainedObject@VCOPOSDeviceMonitor@@@ATL@@WJE@AGKXZ ; [thunk]:ATL::CComContainedObject<COPOSDeviceMonitor>::AddRef`adjustor{148}'
PUBLIC	?Release@?$CComContainedObject@VCOPOSDeviceMonitor@@@ATL@@WJE@AGKXZ ; [thunk]:ATL::CComContainedObject<COPOSDeviceMonitor>::Release`adjustor{148}'
PUBLIC	?QueryInterface@?$CComContainedObject@VCOPOSDeviceMonitor@@@ATL@@WJI@AGJABU_GUID@@PAPAX@Z ; [thunk]:ATL::CComContainedObject<COPOSDeviceMonitor>::QueryInterface`adjustor{152}'
PUBLIC	?AddRef@?$CComContainedObject@VCOPOSDeviceMonitor@@@ATL@@WJI@AGKXZ ; [thunk]:ATL::CComContainedObject<COPOSDeviceMonitor>::AddRef`adjustor{152}'
PUBLIC	?Release@?$CComContainedObject@VCOPOSDeviceMonitor@@@ATL@@WJI@AGKXZ ; [thunk]:ATL::CComContainedObject<COPOSDeviceMonitor>::Release`adjustor{152}'
PUBLIC	?QueryInterface@?$CComContainedObject@VCOPOSDeviceMonitor@@@ATL@@WJM@AGJABU_GUID@@PAPAX@Z ; [thunk]:ATL::CComContainedObject<COPOSDeviceMonitor>::QueryInterface`adjustor{156}'
PUBLIC	?AddRef@?$CComContainedObject@VCOPOSDeviceMonitor@@@ATL@@WJM@AGKXZ ; [thunk]:ATL::CComContainedObject<COPOSDeviceMonitor>::AddRef`adjustor{156}'
PUBLIC	?Release@?$CComContainedObject@VCOPOSDeviceMonitor@@@ATL@@WJM@AGKXZ ; [thunk]:ATL::CComContainedObject<COPOSDeviceMonitor>::Release`adjustor{156}'
PUBLIC	?QueryInterface@?$CComContainedObject@VCOPOSDeviceMonitor@@@ATL@@WKA@AGJABU_GUID@@PAPAX@Z ; [thunk]:ATL::CComContainedObject<COPOSDeviceMonitor>::QueryInterface`adjustor{160}'
PUBLIC	?AddRef@?$CComContainedObject@VCOPOSDeviceMonitor@@@ATL@@WKA@AGKXZ ; [thunk]:ATL::CComContainedObject<COPOSDeviceMonitor>::AddRef`adjustor{160}'
PUBLIC	?Release@?$CComContainedObject@VCOPOSDeviceMonitor@@@ATL@@WKA@AGKXZ ; [thunk]:ATL::CComContainedObject<COPOSDeviceMonitor>::Release`adjustor{160}'
PUBLIC	?AddRef@?$CComContainedObject@VCOPOSDeviceMonitor@@@ATL@@WKI@AGKXZ ; [thunk]:ATL::CComContainedObject<COPOSDeviceMonitor>::AddRef`adjustor{168}'
PUBLIC	?Release@?$CComContainedObject@VCOPOSDeviceMonitor@@@ATL@@WKI@AGKXZ ; [thunk]:ATL::CComContainedObject<COPOSDeviceMonitor>::Release`adjustor{168}'
PUBLIC	?AddRef@?$CComContainedObject@VCOPOSDeviceMonitor@@@ATL@@WLE@AGKXZ ; [thunk]:ATL::CComContainedObject<COPOSDeviceMonitor>::AddRef`adjustor{180}'
PUBLIC	?Release@?$CComContainedObject@VCOPOSDeviceMonitor@@@ATL@@WLE@AGKXZ ; [thunk]:ATL::CComContainedObject<COPOSDeviceMonitor>::Release`adjustor{180}'
PUBLIC	?m_bInitFailed@CAtlBaseModule@ATL@@2_NA		; ATL::CAtlBaseModule::m_bInitFailed
PUBLIC	?CreateInstance@CComClassFactory@ATL@@UAGJPAUIUnknown@@ABU_GUID@@PAPAX@Z ; ATL::CComClassFactory::CreateInstance
PUBLIC	?LockServer@CComClassFactory@ATL@@UAGJH@Z	; ATL::CComClassFactory::LockServer
PUBLIC	??_7CComClassFactory@ATL@@6B@			; ATL::CComClassFactory::`vftable'
PUBLIC	??_GCComClassFactory@ATL@@UAEPAXI@Z		; ATL::CComClassFactory::`scalar deleting destructor'
PUBLIC	?_entries@?1??_GetEntries@CComClassFactory@ATL@@SGPBU_ATL_INTMAP_ENTRY@3@XZ@4QBU43@B ; `ATL::CComClassFactory::_GetEntries'::`2'::_entries
PUBLIC	__GUID_00000001_0000_0000_c000_000000000046
PUBLIC	?s_Claim@?7??GetIDsOfNames@CComTypeInfoHolder@ATL@@QAEJABU_GUID@@PAPA_WIKPAJ@Z@4PA_WA ; `ATL::CComTypeInfoHolder::GetIDsOfNames'::`8'::s_Claim
PUBLIC	?s_Release@?7??GetIDsOfNames@CComTypeInfoHolder@ATL@@QAEJABU_GUID@@PAPA_WIKPAJ@Z@4PA_WA ; `ATL::CComTypeInfoHolder::GetIDsOfNames'::`8'::s_Release
PUBLIC	?WM_ATLGETHOST@ATL@@3IA				; ATL::WM_ATLGETHOST
PUBLIC	?WM_ATLGETCONTROL@ATL@@3IA			; ATL::WM_ATLGETCONTROL
PUBLIC	_IID_IOPOSDeviceMonitor_1_16
PUBLIC	?GetWindowProc@?$CWindowImplBaseT@VCWindow@ATL@@V?$CWinTraits@$0FGAAAAAA@$0A@@2@@ATL@@UAEP6GJPAUHWND__@@IIJ@ZXZ ; ATL::CWindowImplBaseT<ATL::CWindow,ATL::CWinTraits<1442840576,0> >::GetWindowProc
PUBLIC	?StartWindowProc@?$CWindowImplBaseT@VCWindow@ATL@@V?$CWinTraits@$0FGAAAAAA@$0A@@2@@ATL@@SGJPAUHWND__@@IIJ@Z ; ATL::CWindowImplBaseT<ATL::CWindow,ATL::CWinTraits<1442840576,0> >::StartWindowProc
PUBLIC	?OnFinalMessage@?$CWindowImplBaseT@VCWindow@ATL@@V?$CWinTraits@$0FGAAAAAA@$0A@@2@@ATL@@UAEXPAUHWND__@@@Z ; ATL::CWindowImplBaseT<ATL::CWindow,ATL::CWinTraits<1442840576,0> >::OnFinalMessage
PUBLIC	_IID_IOPOSDeviceMonitor
PUBLIC	_LIBID_OposDeviceMonitor_CCO
PUBLIC	_DIID__IOPOSDeviceMonitorEvents
PUBLIC	_CLSID_OPOSDeviceMonitor
PUBLIC	??_C@_1BK@BIGILECK@?$AAA?$AAd?$AAv?$AAa?$AAp?$AAi?$AA3?$AA2?$AA?4?$AAd?$AAl?$AAl@ ; `string'
PUBLIC	?GetTypeInfoCount@?$IDispatchImpl@UIOPOSDeviceMonitor@@$1?IID_IOPOSDeviceMonitor@@3U_GUID@@B$1?LIBID_OposDeviceMonitor_CCO@@3U3@B$00$0A@VCComTypeInfoHolder@ATL@@@ATL@@UAGJPAI@Z ; ATL::IDispatchImpl<IOPOSDeviceMonitor,&IID_IOPOSDeviceMonitor,&LIBID_OposDeviceMonitor_CCO,1,0,ATL::CComTypeInfoHolder>::GetTypeInfoCount
PUBLIC	?GetTypeInfo@?$IDispatchImpl@UIOPOSDeviceMonitor@@$1?IID_IOPOSDeviceMonitor@@3U_GUID@@B$1?LIBID_OposDeviceMonitor_CCO@@3U3@B$00$0A@VCComTypeInfoHolder@ATL@@@ATL@@UAGJIKPAPAUITypeInfo@@@Z ; ATL::IDispatchImpl<IOPOSDeviceMonitor,&IID_IOPOSDeviceMonitor,&LIBID_OposDeviceMonitor_CCO,1,0,ATL::CComTypeInfoHolder>::GetTypeInfo
PUBLIC	__GUID_00000114_0000_0000_c000_000000000046
PUBLIC	?GetIDsOfNames@?$IDispatchImpl@UIOPOSDeviceMonitor@@$1?IID_IOPOSDeviceMonitor@@3U_GUID@@B$1?LIBID_OposDeviceMonitor_CCO@@3U3@B$00$0A@VCComTypeInfoHolder@ATL@@@ATL@@UAGJABU_GUID@@PAPA_WIKPAJ@Z ; ATL::IDispatchImpl<IOPOSDeviceMonitor,&IID_IOPOSDeviceMonitor,&LIBID_OposDeviceMonitor_CCO,1,0,ATL::CComTypeInfoHolder>::GetIDsOfNames
PUBLIC	??_C@_0BI@MNCFCPFK@RegCreateKeyTransactedW@	; `string'
PUBLIC	?Invoke@?$IDispatchImpl@UIOPOSDeviceMonitor@@$1?IID_IOPOSDeviceMonitor@@3U_GUID@@B$1?LIBID_OposDeviceMonitor_CCO@@3U3@B$00$0A@VCComTypeInfoHolder@ATL@@@ATL@@UAGJJABU_GUID@@KGPAUtagDISPPARAMS@@PAUtagVARIANT@@PAUtagEXCEPINFO@@PAI@Z ; ATL::IDispatchImpl<IOPOSDeviceMonitor,&IID_IOPOSDeviceMonitor,&LIBID_OposDeviceMonitor_CCO,1,0,ATL::CComTypeInfoHolder>::Invoke
PUBLIC	?_tih@?$IDispatchImpl@UIOPOSDeviceMonitor@@$1?IID_IOPOSDeviceMonitor@@3U_GUID@@B$1?LIBID_OposDeviceMonitor_CCO@@3U3@B$00$0A@VCComTypeInfoHolder@ATL@@@ATL@@1VCComTypeInfoHolder@2@A ; ATL::IDispatchImpl<IOPOSDeviceMonitor,&IID_IOPOSDeviceMonitor,&LIBID_OposDeviceMonitor_CCO,1,0,ATL::CComTypeInfoHolder>::_tih
PUBLIC	_LIBID_ATLLib
PUBLIC	?CreateControlWindow@?$CComControl@VCOPOSDeviceMonitor@@V?$CWindowImpl@VCOPOSDeviceMonitor@@VCWindow@ATL@@V?$CWinTraits@$0FGAAAAAA@$0A@@3@@ATL@@@ATL@@UAEPAUHWND__@@PAU3@AAUtagRECT@@@Z ; ATL::CComControl<COPOSDeviceMonitor,ATL::CWindowImpl<COPOSDeviceMonitor,ATL::CWindow,ATL::CWinTraits<1442840576,0> > >::CreateControlWindow
PUBLIC	?ControlQueryInterface@?$CComControl@VCOPOSDeviceMonitor@@V?$CWindowImpl@VCOPOSDeviceMonitor@@VCWindow@ATL@@V?$CWinTraits@$0FGAAAAAA@$0A@@3@@ATL@@@ATL@@UAEJABU_GUID@@PAPAX@Z ; ATL::CComControl<COPOSDeviceMonitor,ATL::CWindowImpl<COPOSDeviceMonitor,ATL::CWindow,ATL::CWinTraits<1442840576,0> > >::ControlQueryInterface
PUBLIC	?GetClassID@?$IPersistStreamInitImpl@VCOPOSDeviceMonitor@@@ATL@@UAGJPAU_GUID@@@Z ; ATL::IPersistStreamInitImpl<COPOSDeviceMonitor>::GetClassID
PUBLIC	?IsDirty@?$IPersistStreamInitImpl@VCOPOSDeviceMonitor@@@ATL@@UAGJXZ ; ATL::IPersistStreamInitImpl<COPOSDeviceMonitor>::IsDirty
PUBLIC	?Load@?$IPersistStreamInitImpl@VCOPOSDeviceMonitor@@@ATL@@UAGJPAUIStream@@@Z ; ATL::IPersistStreamInitImpl<COPOSDeviceMonitor>::Load
PUBLIC	?Save@?$IPersistStreamInitImpl@VCOPOSDeviceMonitor@@@ATL@@UAGJPAUIStream@@H@Z ; ATL::IPersistStreamInitImpl<COPOSDeviceMonitor>::Save
PUBLIC	?GetSizeMax@?$IPersistStreamInitImpl@VCOPOSDeviceMonitor@@@ATL@@UAGJPAT_ULARGE_INTEGER@@@Z ; ATL::IPersistStreamInitImpl<COPOSDeviceMonitor>::GetSizeMax
PUBLIC	?InitNew@?$IPersistStreamInitImpl@VCOPOSDeviceMonitor@@@ATL@@UAGJXZ ; ATL::IPersistStreamInitImpl<COPOSDeviceMonitor>::InitNew
PUBLIC	?GetControlInfo@?$IOleControlImpl@VCOPOSDeviceMonitor@@@ATL@@UAGJPAUtagCONTROLINFO@@@Z ; ATL::IOleControlImpl<COPOSDeviceMonitor>::GetControlInfo
PUBLIC	?OnMnemonic@?$IOleControlImpl@VCOPOSDeviceMonitor@@@ATL@@UAGJPAUtagMSG@@@Z ; ATL::IOleControlImpl<COPOSDeviceMonitor>::OnMnemonic
PUBLIC	?OnAmbientPropertyChange@?$IOleControlImpl@VCOPOSDeviceMonitor@@@ATL@@UAGJJ@Z ; ATL::IOleControlImpl<COPOSDeviceMonitor>::OnAmbientPropertyChange
PUBLIC	?SetClientSite@?$IOleObjectImpl@VCOPOSDeviceMonitor@@@ATL@@UAGJPAUIOleClientSite@@@Z ; ATL::IOleObjectImpl<COPOSDeviceMonitor>::SetClientSite
PUBLIC	?GetClientSite@?$IOleObjectImpl@VCOPOSDeviceMonitor@@@ATL@@UAGJPAPAUIOleClientSite@@@Z ; ATL::IOleObjectImpl<COPOSDeviceMonitor>::GetClientSite
PUBLIC	?SetHostNames@?$IOleObjectImpl@VCOPOSDeviceMonitor@@@ATL@@UAGJPB_W0@Z ; ATL::IOleObjectImpl<COPOSDeviceMonitor>::SetHostNames
PUBLIC	__GUID_b196b287_bab4_101a_b69c_00aa00341d07
PUBLIC	?Close@?$IOleObjectImpl@VCOPOSDeviceMonitor@@@ATL@@UAGJK@Z ; ATL::IOleObjectImpl<COPOSDeviceMonitor>::Close
PUBLIC	?SetMoniker@?$IOleObjectImpl@VCOPOSDeviceMonitor@@@ATL@@UAGJKPAUIMoniker@@@Z ; ATL::IOleObjectImpl<COPOSDeviceMonitor>::SetMoniker
PUBLIC	___pobjMapEntryFirst
PUBLIC	___pobjMapEntryLast
PUBLIC	?GetMoniker@?$IOleObjectImpl@VCOPOSDeviceMonitor@@@ATL@@UAGJKKPAPAUIMoniker@@@Z ; ATL::IOleObjectImpl<COPOSDeviceMonitor>::GetMoniker
PUBLIC	?InitFromData@?$IOleObjectImpl@VCOPOSDeviceMonitor@@@ATL@@UAGJPAUIDataObject@@HK@Z ; ATL::IOleObjectImpl<COPOSDeviceMonitor>::InitFromData
PUBLIC	?GetClipboardData@?$IOleObjectImpl@VCOPOSDeviceMonitor@@@ATL@@UAGJKPAPAUIDataObject@@@Z ; ATL::IOleObjectImpl<COPOSDeviceMonitor>::GetClipboardData
PUBLIC	?_pPerfRegFunc@ATL@@3P6AJPAUHINSTANCE__@@@ZA	; ATL::_pPerfRegFunc
PUBLIC	?_pPerfUnRegFunc@ATL@@3P6AJXZA			; ATL::_pPerfUnRegFunc
PUBLIC	__GUID_b196b285_bab4_101a_b69c_00aa00341d07
PUBLIC	?_AtlRegisterPerUser@ATL@@3_NA			; ATL::_AtlRegisterPerUser
PUBLIC	?DoVerb@?$IOleObjectImpl@VCOPOSDeviceMonitor@@@ATL@@UAGJJPAUtagMSG@@PAUIOleClientSite@@JPAUHWND__@@PBUtagRECT@@@Z ; ATL::IOleObjectImpl<COPOSDeviceMonitor>::DoVerb
PUBLIC	?EnumVerbs@?$IOleObjectImpl@VCOPOSDeviceMonitor@@@ATL@@UAGJPAPAUIEnumOLEVERB@@@Z ; ATL::IOleObjectImpl<COPOSDeviceMonitor>::EnumVerbs
PUBLIC	?Update@?$IOleObjectImpl@VCOPOSDeviceMonitor@@@ATL@@UAGJXZ ; ATL::IOleObjectImpl<COPOSDeviceMonitor>::Update
PUBLIC	?IsUpToDate@?$IOleObjectImpl@VCOPOSDeviceMonitor@@@ATL@@UAGJXZ ; ATL::IOleObjectImpl<COPOSDeviceMonitor>::IsUpToDate
PUBLIC	?GetUserClassID@?$IOleObjectImpl@VCOPOSDeviceMonitor@@@ATL@@UAGJPAU_GUID@@@Z ; ATL::IOleObjectImpl<COPOSDeviceMonitor>::GetUserClassID
PUBLIC	?GetUserType@?$IOleObjectImpl@VCOPOSDeviceMonitor@@@ATL@@UAGJKPAPA_W@Z ; ATL::IOleObjectImpl<COPOSDeviceMonitor>::GetUserType
PUBLIC	?SetExtent@?$IOleObjectImpl@VCOPOSDeviceMonitor@@@ATL@@UAGJKPAUtagSIZE@@@Z ; ATL::IOleObjectImpl<COPOSDeviceMonitor>::SetExtent
PUBLIC	?GetExtent@?$IOleObjectImpl@VCOPOSDeviceMonitor@@@ATL@@UAGJKPAUtagSIZE@@@Z ; ATL::IOleObjectImpl<COPOSDeviceMonitor>::GetExtent
PUBLIC	?Advise@?$IOleObjectImpl@VCOPOSDeviceMonitor@@@ATL@@UAGJPAUIAdviseSink@@PAK@Z ; ATL::IOleObjectImpl<COPOSDeviceMonitor>::Advise
PUBLIC	?Unadvise@?$IOleObjectImpl@VCOPOSDeviceMonitor@@@ATL@@UAGJK@Z ; ATL::IOleObjectImpl<COPOSDeviceMonitor>::Unadvise
PUBLIC	?EnumAdvise@?$IOleObjectImpl@VCOPOSDeviceMonitor@@@ATL@@UAGJPAPAUIEnumSTATDATA@@@Z ; ATL::IOleObjectImpl<COPOSDeviceMonitor>::EnumAdvise
PUBLIC	?GetMiscStatus@?$IOleObjectImpl@VCOPOSDeviceMonitor@@@ATL@@UAGJKPAK@Z ; ATL::IOleObjectImpl<COPOSDeviceMonitor>::GetMiscStatus
PUBLIC	?SetColorScheme@?$IOleObjectImpl@VCOPOSDeviceMonitor@@@ATL@@UAGJPAUtagLOGPALETTE@@@Z ; ATL::IOleObjectImpl<COPOSDeviceMonitor>::SetColorScheme
PUBLIC	?GetWindow@?$IOleInPlaceActiveObjectImpl@VCOPOSDeviceMonitor@@@ATL@@UAGJPAPAUHWND__@@@Z ; ATL::IOleInPlaceActiveObjectImpl<COPOSDeviceMonitor>::GetWindow
PUBLIC	?ContextSensitiveHelp@?$IOleInPlaceActiveObjectImpl@VCOPOSDeviceMonitor@@@ATL@@UAGJH@Z ; ATL::IOleInPlaceActiveObjectImpl<COPOSDeviceMonitor>::ContextSensitiveHelp
PUBLIC	?TranslateAcceleratorW@?$IOleInPlaceActiveObjectImpl@VCOPOSDeviceMonitor@@@ATL@@UAGJPAUtagMSG@@@Z ; ATL::IOleInPlaceActiveObjectImpl<COPOSDeviceMonitor>::TranslateAcceleratorW
PUBLIC	?OnFrameWindowActivate@?$IOleInPlaceActiveObjectImpl@VCOPOSDeviceMonitor@@@ATL@@UAGJH@Z ; ATL::IOleInPlaceActiveObjectImpl<COPOSDeviceMonitor>::OnFrameWindowActivate
PUBLIC	?OnDocWindowActivate@?$IOleInPlaceActiveObjectImpl@VCOPOSDeviceMonitor@@@ATL@@UAGJH@Z ; ATL::IOleInPlaceActiveObjectImpl<COPOSDeviceMonitor>::OnDocWindowActivate
PUBLIC	?ResizeBorder@?$IOleInPlaceActiveObjectImpl@VCOPOSDeviceMonitor@@@ATL@@UAGJPBUtagRECT@@PAUIOleInPlaceUIWindow@@H@Z ; ATL::IOleInPlaceActiveObjectImpl<COPOSDeviceMonitor>::ResizeBorder
PUBLIC	?EnableModeless@?$IOleInPlaceActiveObjectImpl@VCOPOSDeviceMonitor@@@ATL@@UAGJH@Z ; ATL::IOleInPlaceActiveObjectImpl<COPOSDeviceMonitor>::EnableModeless
PUBLIC	?Draw@?$IViewObjectExImpl@VCOPOSDeviceMonitor@@@ATL@@UAGJKJPAXPAUtagDVTARGETDEVICE@@PAUHDC__@@2PBU_RECTL@@3P6GHK@ZK@Z ; ATL::IViewObjectExImpl<COPOSDeviceMonitor>::Draw
PUBLIC	?GetColorSet@?$IViewObjectExImpl@VCOPOSDeviceMonitor@@@ATL@@UAGJKJPAXPAUtagDVTARGETDEVICE@@PAUHDC__@@PAPAUtagLOGPALETTE@@@Z ; ATL::IViewObjectExImpl<COPOSDeviceMonitor>::GetColorSet
PUBLIC	?Freeze@?$IViewObjectExImpl@VCOPOSDeviceMonitor@@@ATL@@UAGJKJPAXPAK@Z ; ATL::IViewObjectExImpl<COPOSDeviceMonitor>::Freeze
PUBLIC	?Unfreeze@?$IViewObjectExImpl@VCOPOSDeviceMonitor@@@ATL@@UAGJK@Z ; ATL::IViewObjectExImpl<COPOSDeviceMonitor>::Unfreeze
PUBLIC	?SetAdvise@?$IViewObjectExImpl@VCOPOSDeviceMonitor@@@ATL@@UAGJKKPAUIAdviseSink@@@Z ; ATL::IViewObjectExImpl<COPOSDeviceMonitor>::SetAdvise
PUBLIC	?GetAdvise@?$IViewObjectExImpl@VCOPOSDeviceMonitor@@@ATL@@UAGJPAK0PAPAUIAdviseSink@@@Z ; ATL::IViewObjectExImpl<COPOSDeviceMonitor>::GetAdvise
PUBLIC	?GetExtent@?$IViewObjectExImpl@VCOPOSDeviceMonitor@@@ATL@@UAGJKJPAUtagDVTARGETDEVICE@@PAUtagSIZE@@@Z ; ATL::IViewObjectExImpl<COPOSDeviceMonitor>::GetExtent
PUBLIC	?GetRect@?$IViewObjectExImpl@VCOPOSDeviceMonitor@@@ATL@@UAGJKPAU_RECTL@@@Z ; ATL::IViewObjectExImpl<COPOSDeviceMonitor>::GetRect
PUBLIC	?GetViewStatus@?$IViewObjectExImpl@VCOPOSDeviceMonitor@@@ATL@@UAGJPAK@Z ; ATL::IViewObjectExImpl<COPOSDeviceMonitor>::GetViewStatus
PUBLIC	?QueryHitPoint@?$IViewObjectExImpl@VCOPOSDeviceMonitor@@@ATL@@UAGJKPBUtagRECT@@UtagPOINT@@JPAK@Z ; ATL::IViewObjectExImpl<COPOSDeviceMonitor>::QueryHitPoint
PUBLIC	?QueryHitRect@?$IViewObjectExImpl@VCOPOSDeviceMonitor@@@ATL@@UAGJKPBUtagRECT@@0JPAK@Z ; ATL::IViewObjectExImpl<COPOSDeviceMonitor>::QueryHitRect
PUBLIC	?GetNaturalExtent@?$IViewObjectExImpl@VCOPOSDeviceMonitor@@@ATL@@UAGJKJPAUtagDVTARGETDEVICE@@PAUHDC__@@PAUtagExtentInfo@@PAUtagSIZE@@@Z ; ATL::IViewObjectExImpl<COPOSDeviceMonitor>::GetNaturalExtent
PUBLIC	?GetWindow@?$IOleInPlaceObjectWindowlessImpl@VCOPOSDeviceMonitor@@@ATL@@UAGJPAPAUHWND__@@@Z ; ATL::IOleInPlaceObjectWindowlessImpl<COPOSDeviceMonitor>::GetWindow
PUBLIC	?ContextSensitiveHelp@?$IOleInPlaceObjectWindowlessImpl@VCOPOSDeviceMonitor@@@ATL@@UAGJH@Z ; ATL::IOleInPlaceObjectWindowlessImpl<COPOSDeviceMonitor>::ContextSensitiveHelp
PUBLIC	?InPlaceDeactivate@?$IOleInPlaceObjectWindowlessImpl@VCOPOSDeviceMonitor@@@ATL@@UAGJXZ ; ATL::IOleInPlaceObjectWindowlessImpl<COPOSDeviceMonitor>::InPlaceDeactivate
PUBLIC	?UIDeactivate@?$IOleInPlaceObjectWindowlessImpl@VCOPOSDeviceMonitor@@@ATL@@UAGJXZ ; ATL::IOleInPlaceObjectWindowlessImpl<COPOSDeviceMonitor>::UIDeactivate
PUBLIC	?SetObjectRects@?$IOleInPlaceObjectWindowlessImpl@VCOPOSDeviceMonitor@@@ATL@@UAGJPBUtagRECT@@0@Z ; ATL::IOleInPlaceObjectWindowlessImpl<COPOSDeviceMonitor>::SetObjectRects
PUBLIC	?ReactivateAndUndo@?$IOleInPlaceObjectWindowlessImpl@VCOPOSDeviceMonitor@@@ATL@@UAGJXZ ; ATL::IOleInPlaceObjectWindowlessImpl<COPOSDeviceMonitor>::ReactivateAndUndo
PUBLIC	?OnWindowMessage@?$IOleInPlaceObjectWindowlessImpl@VCOPOSDeviceMonitor@@@ATL@@UAGJIIJPAJ@Z ; ATL::IOleInPlaceObjectWindowlessImpl<COPOSDeviceMonitor>::OnWindowMessage
PUBLIC	?GetDropTarget@?$IOleInPlaceObjectWindowlessImpl@VCOPOSDeviceMonitor@@@ATL@@UAGJPAPAUIDropTarget@@@Z ; ATL::IOleInPlaceObjectWindowlessImpl<COPOSDeviceMonitor>::GetDropTarget
PUBLIC	?EnumConnectionPoints@?$IConnectionPointContainerImpl@VCOPOSDeviceMonitor@@@ATL@@UAGJPAPAUIEnumConnectionPoints@@@Z ; ATL::IConnectionPointContainerImpl<COPOSDeviceMonitor>::EnumConnectionPoints
PUBLIC	?FindConnectionPoint@?$IConnectionPointContainerImpl@VCOPOSDeviceMonitor@@@ATL@@UAGJABU_GUID@@PAPAUIConnectionPoint@@@Z ; ATL::IConnectionPointContainerImpl<COPOSDeviceMonitor>::FindConnectionPoint
PUBLIC	?GetClassID@?$IPersistStorageImpl@VCOPOSDeviceMonitor@@@ATL@@UAGJPAU_GUID@@@Z ; ATL::IPersistStorageImpl<COPOSDeviceMonitor>::GetClassID
PUBLIC	?IsDirty@?$IPersistStorageImpl@VCOPOSDeviceMonitor@@@ATL@@UAGJXZ ; ATL::IPersistStorageImpl<COPOSDeviceMonitor>::IsDirty
PUBLIC	?InitNew@?$IPersistStorageImpl@VCOPOSDeviceMonitor@@@ATL@@UAGJPAUIStorage@@@Z ; ATL::IPersistStorageImpl<COPOSDeviceMonitor>::InitNew
PUBLIC	?Load@?$IPersistStorageImpl@VCOPOSDeviceMonitor@@@ATL@@UAGJPAUIStorage@@@Z ; ATL::IPersistStorageImpl<COPOSDeviceMonitor>::Load
PUBLIC	?Save@?$IPersistStorageImpl@VCOPOSDeviceMonitor@@@ATL@@UAGJPAUIStorage@@H@Z ; ATL::IPersistStorageImpl<COPOSDeviceMonitor>::Save
PUBLIC	?SaveCompleted@?$IPersistStorageImpl@VCOPOSDeviceMonitor@@@ATL@@UAGJPAUIStorage@@@Z ; ATL::IPersistStorageImpl<COPOSDeviceMonitor>::SaveCompleted
PUBLIC	?HandsOffStorage@?$IPersistStorageImpl@VCOPOSDeviceMonitor@@@ATL@@UAGJXZ ; ATL::IPersistStorageImpl<COPOSDeviceMonitor>::HandsOffStorage
PUBLIC	?GetPages@?$ISpecifyPropertyPagesImpl@VCOPOSDeviceMonitor@@@ATL@@UAGJPAUtagCAUUID@@@Z ; ATL::ISpecifyPropertyPagesImpl<COPOSDeviceMonitor>::GetPages
PUBLIC	?QuickActivate@?$IQuickActivateImpl@VCOPOSDeviceMonitor@@@ATL@@UAGJPAUtagQACONTAINER@@PAUtagQACONTROL@@@Z ; ATL::IQuickActivateImpl<COPOSDeviceMonitor>::QuickActivate
PUBLIC	?SetContentExtent@?$IQuickActivateImpl@VCOPOSDeviceMonitor@@@ATL@@UAGJPAUtagSIZE@@@Z ; ATL::IQuickActivateImpl<COPOSDeviceMonitor>::SetContentExtent
PUBLIC	?GetContentExtent@?$IQuickActivateImpl@VCOPOSDeviceMonitor@@@ATL@@UAGJPAUtagSIZE@@@Z ; ATL::IQuickActivateImpl<COPOSDeviceMonitor>::GetContentExtent
PUBLIC	?GetData@?$IDataObjectImpl@VCOPOSDeviceMonitor@@@ATL@@UAGJPAUtagFORMATETC@@PAUtagSTGMEDIUM@@@Z ; ATL::IDataObjectImpl<COPOSDeviceMonitor>::GetData
PUBLIC	?GetDataHere@?$IDataObjectImpl@VCOPOSDeviceMonitor@@@ATL@@UAGJPAUtagFORMATETC@@PAUtagSTGMEDIUM@@@Z ; ATL::IDataObjectImpl<COPOSDeviceMonitor>::GetDataHere
PUBLIC	?QueryGetData@?$IDataObjectImpl@VCOPOSDeviceMonitor@@@ATL@@UAGJPAUtagFORMATETC@@@Z ; ATL::IDataObjectImpl<COPOSDeviceMonitor>::QueryGetData
PUBLIC	?GetCanonicalFormatEtc@?$IDataObjectImpl@VCOPOSDeviceMonitor@@@ATL@@UAGJPAUtagFORMATETC@@0@Z ; ATL::IDataObjectImpl<COPOSDeviceMonitor>::GetCanonicalFormatEtc
PUBLIC	?SetData@?$IDataObjectImpl@VCOPOSDeviceMonitor@@@ATL@@UAGJPAUtagFORMATETC@@PAUtagSTGMEDIUM@@H@Z ; ATL::IDataObjectImpl<COPOSDeviceMonitor>::SetData
PUBLIC	?EnumFormatEtc@?$IDataObjectImpl@VCOPOSDeviceMonitor@@@ATL@@UAGJKPAPAUIEnumFORMATETC@@@Z ; ATL::IDataObjectImpl<COPOSDeviceMonitor>::EnumFormatEtc
PUBLIC	?DAdvise@?$IDataObjectImpl@VCOPOSDeviceMonitor@@@ATL@@UAGJPAUtagFORMATETC@@KPAUIAdviseSink@@PAK@Z ; ATL::IDataObjectImpl<COPOSDeviceMonitor>::DAdvise
PUBLIC	?DUnadvise@?$IDataObjectImpl@VCOPOSDeviceMonitor@@@ATL@@UAGJK@Z ; ATL::IDataObjectImpl<COPOSDeviceMonitor>::DUnadvise
PUBLIC	?EnumDAdvise@?$IDataObjectImpl@VCOPOSDeviceMonitor@@@ATL@@UAGJPAPAUIEnumSTATDATA@@@Z ; ATL::IDataObjectImpl<COPOSDeviceMonitor>::EnumDAdvise
PUBLIC	?GetClassInfoW@?$IProvideClassInfo2Impl@$1?CLSID_OPOSDeviceMonitor@@3U_GUID@@B$1?DIID__IOPOSDeviceMonitorEvents@@3U2@B$1?LIBID_OposDeviceMonitor_CCO@@3U2@B$00$0A@VCComTypeInfoHolder@ATL@@@ATL@@UAGJPAPAUITypeInfo@@@Z ; ATL::IProvideClassInfo2Impl<&CLSID_OPOSDeviceMonitor,&DIID__IOPOSDeviceMonitorEvents,&LIBID_OposDeviceMonitor_CCO,1,0,ATL::CComTypeInfoHolder>::GetClassInfoW
PUBLIC	?GetGUID@?$IProvideClassInfo2Impl@$1?CLSID_OPOSDeviceMonitor@@3U_GUID@@B$1?DIID__IOPOSDeviceMonitorEvents@@3U2@B$1?LIBID_OposDeviceMonitor_CCO@@3U2@B$00$0A@VCComTypeInfoHolder@ATL@@@ATL@@UAGJKPAU_GUID@@@Z ; ATL::IProvideClassInfo2Impl<&CLSID_OPOSDeviceMonitor,&DIID__IOPOSDeviceMonitorEvents,&LIBID_OposDeviceMonitor_CCO,1,0,ATL::CComTypeInfoHolder>::GetGUID
PUBLIC	?_tih@?$IProvideClassInfo2Impl@$1?CLSID_OPOSDeviceMonitor@@3U_GUID@@B$1?DIID__IOPOSDeviceMonitorEvents@@3U2@B$1?LIBID_OposDeviceMonitor_CCO@@3U2@B$00$0A@VCComTypeInfoHolder@ATL@@@ATL@@1VCComTypeInfoHolder@2@A ; ATL::IProvideClassInfo2Impl<&CLSID_OPOSDeviceMonitor,&DIID__IOPOSDeviceMonitorEvents,&LIBID_OposDeviceMonitor_CCO,1,0,ATL::CComTypeInfoHolder>::_tih
PUBLIC	?FAccessAllowed@?$IObjectSafetyImpl@VCOPOSDeviceMonitor@@$02@ATL@@MAEHXZ ; ATL::IObjectSafetyImpl<COPOSDeviceMonitor,3>::FAccessAllowed
PUBLIC	?GetInterfaceSafetyOptions@?$IObjectSafetyImpl@VCOPOSDeviceMonitor@@$02@ATL@@UAGJABU_GUID@@PAK1@Z ; ATL::IObjectSafetyImpl<COPOSDeviceMonitor,3>::GetInterfaceSafetyOptions
PUBLIC	?SetInterfaceSafetyOptions@?$IObjectSafetyImpl@VCOPOSDeviceMonitor@@$02@ATL@@UAGJABU_GUID@@KK@Z ; ATL::IObjectSafetyImpl<COPOSDeviceMonitor,3>::SetInterfaceSafetyOptions
PUBLIC	?_LocCPQueryInterface@?$IConnectionPointImpl@VCOPOSDeviceMonitor@@$1?IID_IPropertyNotifySink@@3U_GUID@@BVCComDynamicUnkArray@ATL@@@ATL@@UAGJABU_GUID@@PAPAX@Z ; ATL::IConnectionPointImpl<COPOSDeviceMonitor,&IID_IPropertyNotifySink,ATL::CComDynamicUnkArray>::_LocCPQueryInterface
PUBLIC	?GetConnectionInterface@?$IConnectionPointImpl@VCOPOSDeviceMonitor@@$1?IID_IPropertyNotifySink@@3U_GUID@@BVCComDynamicUnkArray@ATL@@@ATL@@UAGJPAU_GUID@@@Z ; ATL::IConnectionPointImpl<COPOSDeviceMonitor,&IID_IPropertyNotifySink,ATL::CComDynamicUnkArray>::GetConnectionInterface
PUBLIC	?GetConnectionPointContainer@?$IConnectionPointImpl@VCOPOSDeviceMonitor@@$1?IID_IPropertyNotifySink@@3U_GUID@@BVCComDynamicUnkArray@ATL@@@ATL@@UAGJPAPAUIConnectionPointContainer@@@Z ; ATL::IConnectionPointImpl<COPOSDeviceMonitor,&IID_IPropertyNotifySink,ATL::CComDynamicUnkArray>::GetConnectionPointContainer
PUBLIC	?Advise@?$IConnectionPointImpl@VCOPOSDeviceMonitor@@$1?IID_IPropertyNotifySink@@3U_GUID@@BVCComDynamicUnkArray@ATL@@@ATL@@UAGJPAUIUnknown@@PAK@Z ; ATL::IConnectionPointImpl<COPOSDeviceMonitor,&IID_IPropertyNotifySink,ATL::CComDynamicUnkArray>::Advise
PUBLIC	?Unadvise@?$IConnectionPointImpl@VCOPOSDeviceMonitor@@$1?IID_IPropertyNotifySink@@3U_GUID@@BVCComDynamicUnkArray@ATL@@@ATL@@UAGJK@Z ; ATL::IConnectionPointImpl<COPOSDeviceMonitor,&IID_IPropertyNotifySink,ATL::CComDynamicUnkArray>::Unadvise
PUBLIC	?EnumConnections@?$IConnectionPointImpl@VCOPOSDeviceMonitor@@$1?IID_IPropertyNotifySink@@3U_GUID@@BVCComDynamicUnkArray@ATL@@@ATL@@UAGJPAPAUIEnumConnections@@@Z ; ATL::IConnectionPointImpl<COPOSDeviceMonitor,&IID_IPropertyNotifySink,ATL::CComDynamicUnkArray>::EnumConnections
PUBLIC	?GetObjectDescription@?$CComCoClass@VCOPOSDeviceMonitor@@$1?CLSID_OPOSDeviceMonitor@@3U_GUID@@B@ATL@@SGPB_WXZ ; ATL::CComCoClass<COPOSDeviceMonitor,&CLSID_OPOSDeviceMonitor>::GetObjectDescription
PUBLIC	?_LocCPQueryInterface@?$IConnectionPointImpl@VCOPOSDeviceMonitor@@$1?DIID__IOPOSDeviceMonitorEvents@@3U_GUID@@BVCComDynamicUnkArray@ATL@@@ATL@@UAGJABU_GUID@@PAPAX@Z ; ATL::IConnectionPointImpl<COPOSDeviceMonitor,&DIID__IOPOSDeviceMonitorEvents,ATL::CComDynamicUnkArray>::_LocCPQueryInterface
PUBLIC	?GetConnectionInterface@?$IConnectionPointImpl@VCOPOSDeviceMonitor@@$1?DIID__IOPOSDeviceMonitorEvents@@3U_GUID@@BVCComDynamicUnkArray@ATL@@@ATL@@UAGJPAU_GUID@@@Z ; ATL::IConnectionPointImpl<COPOSDeviceMonitor,&DIID__IOPOSDeviceMonitorEvents,ATL::CComDynamicUnkArray>::GetConnectionInterface
PUBLIC	?GetConnectionPointContainer@?$IConnectionPointImpl@VCOPOSDeviceMonitor@@$1?DIID__IOPOSDeviceMonitorEvents@@3U_GUID@@BVCComDynamicUnkArray@ATL@@@ATL@@UAGJPAPAUIConnectionPointContainer@@@Z ; ATL::IConnectionPointImpl<COPOSDeviceMonitor,&DIID__IOPOSDeviceMonitorEvents,ATL::CComDynamicUnkArray>::GetConnectionPointContainer
PUBLIC	?Advise@?$IConnectionPointImpl@VCOPOSDeviceMonitor@@$1?DIID__IOPOSDeviceMonitorEvents@@3U_GUID@@BVCComDynamicUnkArray@ATL@@@ATL@@UAGJPAUIUnknown@@PAK@Z ; ATL::IConnectionPointImpl<COPOSDeviceMonitor,&DIID__IOPOSDeviceMonitorEvents,ATL::CComDynamicUnkArray>::Advise
PUBLIC	?Unadvise@?$IConnectionPointImpl@VCOPOSDeviceMonitor@@$1?DIID__IOPOSDeviceMonitorEvents@@3U_GUID@@BVCComDynamicUnkArray@ATL@@@ATL@@UAGJK@Z ; ATL::IConnectionPointImpl<COPOSDeviceMonitor,&DIID__IOPOSDeviceMonitorEvents,ATL::CComDynamicUnkArray>::Unadvise
PUBLIC	?EnumConnections@?$IConnectionPointImpl@VCOPOSDeviceMonitor@@$1?DIID__IOPOSDeviceMonitorEvents@@3U_GUID@@BVCComDynamicUnkArray@ATL@@@ATL@@UAGJPAPAUIEnumConnections@@@Z ; ATL::IConnectionPointImpl<COPOSDeviceMonitor,&DIID__IOPOSDeviceMonitorEvents,ATL::CComDynamicUnkArray>::EnumConnections
PUBLIC	__GUID_a6bc3ac0_dbaa_11ce_9de3_00aa004bb851
PUBLIC	?UpdateRegistry@COPOSDeviceMonitor@@SGJH@Z	; COPOSDeviceMonitor::UpdateRegistry
PUBLIC	?ProcessWindowMessage@COPOSDeviceMonitor@@UAEHPAUHWND__@@IIJAAJK@Z ; COPOSDeviceMonitor::ProcessWindowMessage
PUBLIC	__GUID_0000010c_0000_0000_c000_000000000046
PUBLIC	?SOData@COPOSDeviceMonitor@@MAGJJ@Z		; COPOSDeviceMonitor::SOData
PUBLIC	?SODirectIO@COPOSDeviceMonitor@@MAGJJPAJPAPA_W@Z ; COPOSDeviceMonitor::SODirectIO
PUBLIC	?SOError@COPOSDeviceMonitor@@MAGJJJJPAJ@Z	; COPOSDeviceMonitor::SOError
PUBLIC	?SOOutputCompleteDummy@COPOSDeviceMonitor@@MAGJJ@Z ; COPOSDeviceMonitor::SOOutputCompleteDummy
PUBLIC	?SOStatusUpdate@COPOSDeviceMonitor@@MAGJJ@Z	; COPOSDeviceMonitor::SOStatusUpdate
PUBLIC	?_pAtlModule@ATL@@3PAVCAtlModule@1@A		; ATL::_pAtlModule
PUBLIC	?m_libid@CAtlModule@ATL@@2U_GUID@@A		; ATL::CAtlModule::m_libid
PUBLIC	?Lock@CAtlModule@ATL@@UAEJXZ			; ATL::CAtlModule::Lock
PUBLIC	?Unlock@CAtlModule@ATL@@UAEJXZ			; ATL::CAtlModule::Unlock
PUBLIC	?GetLockCount@CAtlModule@ATL@@UAEJXZ		; ATL::CAtlModule::GetLockCount
PUBLIC	?GetGITPtr@CAtlModule@ATL@@UAEJPAPAUIGlobalInterfaceTable@@@Z ; ATL::CAtlModule::GetGITPtr
PUBLIC	__GUID_00000146_0000_0000_c000_000000000046
PUBLIC	?_entries@?1??_GetEntries@COPOSDeviceMonitor@@SGPBU_ATL_INTMAP_ENTRY@ATL@@XZ@4QBU34@B ; `COPOSDeviceMonitor::_GetEntries'::`2'::_entries
PUBLIC	??_C@_1CA@ONGMEOAB@?$AAa?$AAt?$AAl?$AAT?$AAr?$AAa?$AAc?$AAe?$AAG?$AAe?$AAn?$AAe?$AAr?$AAa?$AAl@ ; `string'
PUBLIC	?_pModule@ATL@@3PAVCComModule@1@A		; ATL::_pModule
PUBLIC	?AddCommonRGSReplacements@?$CAtlModuleT@VCComModule@ATL@@@ATL@@UAEJPAUIRegistrarBase@@@Z ; ATL::CAtlModuleT<ATL::CComModule>::AddCommonRGSReplacements
PUBLIC	__GUID_cf51ed10_62fe_11cf_bf86_00a0c9034836
PUBLIC	__GUID_0000010a_0000_0000_c000_000000000046
PUBLIC	??_C@_1BI@MAFGHOEE@?$AAa?$AAt?$AAl?$AAT?$AAr?$AAa?$AAc?$AAe?$AAC?$AAO?$AAM@ ; `string'
PUBLIC	__GUID_b196b283_bab4_101a_b69c_00aa00341d07
PUBLIC	__GUID_cb5bdc81_93c1_11cf_8f20_00805f2cd064
PUBLIC	?pPropMap@?1??GetPropertyMap@COPOSDeviceMonitor@@SAPBUATL_PROPMAP_ENTRY@ATL@@XZ@4QBU34@B ; `COPOSDeviceMonitor::GetPropertyMap'::`2'::pPropMap
PUBLIC	??_C@_17DGDADEHL@?$AA_?$AAc?$AAx@		; `string'
PUBLIC	??_C@_17IOIMFDBO@?$AA_?$AAc?$AAy@		; `string'
PUBLIC	?_entries@?1??GetConnMap@COPOSDeviceMonitor@@SAPBU_ATL_CONNMAP_ENTRY@ATL@@PAH@Z@4QBU34@B ; `COPOSDeviceMonitor::GetConnMap'::`2'::_entries
PUBLIC	?$TSS0@?1??GetConnMap@COPOSDeviceMonitor@@SAPBU_ATL_CONNMAP_ENTRY@ATL@@PAH@Z@4HA ; `COPOSDeviceMonitor::GetConnMap'::`2'::$TSS0
PUBLIC	??_C@_1BG@FPLJJEMF@?$AAa?$AAt?$AAl?$AAT?$AAr?$AAa?$AAc?$AAe?$AAQ?$AAI@ ; `string'
PUBLIC	?UpdateRegistryFromResourceD@CComModule@ATL@@UAGJPB_WHPAU_ATL_REGMAP_ENTRY@2@@Z ; ATL::CComModule::UpdateRegistryFromResourceD
PUBLIC	?UpdateRegistryFromResourceD@CComModule@ATL@@UAGJIHPAU_ATL_REGMAP_ENTRY@2@@Z ; ATL::CComModule::UpdateRegistryFromResourceD
PUBLIC	?UpdateRegistryFromResource@CComModule@ATL@@UAGJPB_WHPAU_ATL_REGMAP_ENTRY@2@@Z ; ATL::CComModule::UpdateRegistryFromResource
PUBLIC	?UpdateRegistryFromResource@CComModule@ATL@@UAGJIHPAU_ATL_REGMAP_ENTRY@2@@Z ; ATL::CComModule::UpdateRegistryFromResource
PUBLIC	??_C@_1CE@NIAEAIDK@?$AAa?$AAt?$AAl?$AAT?$AAr?$AAa?$AAc?$AAe?$AAR?$AAe?$AAg?$AAi?$AAs?$AAt?$AAr@ ; `string'
PUBLIC	??_C@_1CC@BNHGJFNK@?$AAa?$AAt?$AAl?$AAT?$AAr?$AAa?$AAc?$AAe?$AAR?$AAe?$AAf?$AAc?$AAo?$AAu?$AAn@ ; `string'
PUBLIC	??_7CComModule@ATL@@6B@				; ATL::CComModule::`vftable'
PUBLIC	??_GCComModule@ATL@@UAEPAXI@Z			; ATL::CComModule::`scalar deleting destructor'
PUBLIC	?CreateInstance@?$CComCreator@V?$CComObjectCached@VCComClassFactory@ATL@@@ATL@@@ATL@@SGJPAXABU_GUID@@PAPAX@Z ; ATL::CComCreator<ATL::CComObjectCached<ATL::CComClassFactory> >::CreateInstance
PUBLIC	??_C@_1CE@NAJDPMNB@?$AAa?$AAt?$AAl?$AAT?$AAr?$AAa?$AAc?$AAe?$AAW?$AAi?$AAn?$AAd?$AAo?$AAw?$AAi@ ; `string'
PUBLIC	?CreateInstance@?$CComCreator2@V?$CComCreator@V?$CComObject@VCOPOSDeviceMonitor@@@ATL@@@ATL@@V?$CComCreator@V?$CComAggObject@VCOPOSDeviceMonitor@@@ATL@@@2@@ATL@@SGJPAXABU_GUID@@PAPAX@Z ; ATL::CComCreator2<ATL::CComCreator<ATL::CComObject<COPOSDeviceMonitor> >,ATL::CComCreator<ATL::CComAggObject<COPOSDeviceMonitor> > >::CreateInstance
PUBLIC	??_C@_1CC@IMNJGBED@?$AAa?$AAt?$AAl?$AAT?$AAr?$AAa?$AAc?$AAe?$AAC?$AAo?$AAn?$AAt?$AAr?$AAo?$AAl@ ; `string'
PUBLIC	__GUID_922eada0_3424_11cf_b670_00aa004cd6d8
PUBLIC	?AddRef@?$CComObjectCached@VCComClassFactory@ATL@@@ATL@@UAGKXZ ; ATL::CComObjectCached<ATL::CComClassFactory>::AddRef
PUBLIC	__GUID_9c2cad80_3424_11cf_b670_00aa004cd6d8
PUBLIC	?Release@?$CComObjectCached@VCComClassFactory@ATL@@@ATL@@UAGKXZ ; ATL::CComObjectCached<ATL::CComClassFactory>::Release
PUBLIC	?QueryInterface@?$CComObjectCached@VCComClassFactory@ATL@@@ATL@@UAGJABU_GUID@@PAPAX@Z ; ATL::CComObjectCached<ATL::CComClassFactory>::QueryInterface
PUBLIC	__GUID_00000119_0000_0000_c000_000000000046
PUBLIC	??_7?$CComObjectCached@VCComClassFactory@ATL@@@ATL@@6B@ ; ATL::CComObjectCached<ATL::CComClassFactory>::`vftable'
PUBLIC	??_C@_1CA@OMOMONMN@?$AAa?$AAt?$AAl?$AAT?$AAr?$AAa?$AAc?$AAe?$AAH?$AAo?$AAs?$AAt?$AAi?$AAn?$AAg@ ; `string'
PUBLIC	__GUID_b196b289_bab4_101a_b69c_00aa00341d07
PUBLIC	??_G?$CComObjectCached@VCComClassFactory@ATL@@@ATL@@UAEPAXI@Z ; ATL::CComObjectCached<ATL::CComClassFactory>::`scalar deleting destructor'
PUBLIC	__GUID_00000000_0000_0000_c000_000000000046
PUBLIC	__GUID_00020400_0000_0000_c000_000000000046
PUBLIC	??_C@_1CE@PGFMOFKI@?$AAS?$AAt?$AAa?$AAt?$AAu?$AAs?$AAU?$AAp?$AAd?$AAa?$AAt?$AAe?$AAE?$AAv?$AAe@ ; `string'
PUBLIC	??_C@_1CC@JNJJDOOH@?$AAa?$AAt?$AAl?$AAT?$AAr?$AAa?$AAc?$AAe?$AAD?$AAB?$AAC?$AAl?$AAi?$AAe?$AAn@ ; `string'
PUBLIC	??_C@_1BG@LODEBHDD@?$AAE?$AAr?$AAr?$AAo?$AAr?$AAE?$AAv?$AAe?$AAn?$AAt@ ; `string'
PUBLIC	??_C@_1BM@CBGEBBBJ@?$AAD?$AAi?$AAr?$AAe?$AAc?$AAt?$AAI?$AAO?$AAE?$AAv?$AAe?$AAn?$AAt@ ; `string'
PUBLIC	??_C@_1BE@IEBMACEM@?$AAD?$AAa?$AAt?$AAa?$AAE?$AAv?$AAe?$AAn?$AAt@ ; `string'
PUBLIC	__GUID_b196b286_bab4_101a_b69c_00aa00341d07
PUBLIC	??_C@_1CG@MNMMIOOI@?$AAa?$AAt?$AAl?$AAT?$AAr?$AAa?$AAc?$AAe?$AAD?$AAB?$AAP?$AAr?$AAo?$AAv?$AAi@ ; `string'
PUBLIC	?_pAtlAutoThreadModule@ATL@@3PAUIAtlAutoThreadModule@1@A ; ATL::_pAtlAutoThreadModule
PUBLIC	??_C@_1BO@EFPHNHHN@?$AAa?$AAt?$AAl?$AAT?$AAr?$AAa?$AAc?$AAe?$AAS?$AAn?$AAa?$AAp?$AAi?$AAn@ ; `string'
PUBLIC	__GUID_00000117_0000_0000_c000_000000000046
PUBLIC	??_C@_1CA@DMHPIODO@?$AAa?$AAt?$AAl?$AAT?$AAr?$AAa?$AAc?$AAe?$AAN?$AAo?$AAt?$AAI?$AAm?$AAp?$AAl@ ; `string'
PUBLIC	??_C@_1CG@KFEEMCDH@?$AAa?$AAt?$AAl?$AAT?$AAr?$AAa?$AAc?$AAe?$AAA?$AAl?$AAl?$AAo?$AAc?$AAa?$AAt@ ; `string'
PUBLIC	?vszContents@?6??Save@?$IPersistStorageImpl@VCOPOSDeviceMonitor@@@ATL@@UAGJPAUIStorage@@H@Z@4PB_WB ; `ATL::IPersistStorageImpl<COPOSDeviceMonitor>::Save'::`7'::vszContents
PUBLIC	??_C@_1BC@ENICKDH@?$AAC?$AAo?$AAn?$AAt?$AAe?$AAn?$AAt?$AAs@ ; `string'
PUBLIC	??_C@_1CE@IMMADNAP@?$AAa?$AAt?$AAl?$AAT?$AAr?$AAa?$AAc?$AAe?$AAE?$AAx?$AAc?$AAe?$AAp?$AAt?$AAi@ ; `string'
PUBLIC	?Next@?$CComEnumImpl@UIEnumConnectionPoints@@$1?_GUID_b196b285_bab4_101a_b69c_00aa00341d07@@3U__s_GUID@@BPAUIConnectionPoint@@V?$_CopyInterface@UIConnectionPoint@@@ATL@@@ATL@@UAGJKPAPAUIConnectionPoint@@PAK@Z ; ATL::CComEnumImpl<IEnumConnectionPoints,&_GUID_b196b285_bab4_101a_b69c_00aa00341d07,IConnectionPoint *,ATL::_CopyInterface<IConnectionPoint> >::Next
PUBLIC	?Skip@?$CComEnumImpl@UIEnumConnectionPoints@@$1?_GUID_b196b285_bab4_101a_b69c_00aa00341d07@@3U__s_GUID@@BPAUIConnectionPoint@@V?$_CopyInterface@UIConnectionPoint@@@ATL@@@ATL@@UAGJK@Z ; ATL::CComEnumImpl<IEnumConnectionPoints,&_GUID_b196b285_bab4_101a_b69c_00aa00341d07,IConnectionPoint *,ATL::_CopyInterface<IConnectionPoint> >::Skip
PUBLIC	?Reset@?$CComEnumImpl@UIEnumConnectionPoints@@$1?_GUID_b196b285_bab4_101a_b69c_00aa00341d07@@3U__s_GUID@@BPAUIConnectionPoint@@V?$_CopyInterface@UIConnectionPoint@@@ATL@@@ATL@@UAGJXZ ; ATL::CComEnumImpl<IEnumConnectionPoints,&_GUID_b196b285_bab4_101a_b69c_00aa00341d07,IConnectionPoint *,ATL::_CopyInterface<IConnectionPoint> >::Reset
PUBLIC	??_C@_1BK@NCJHOFCL@?$AAa?$AAt?$AAl?$AAT?$AAr?$AAa?$AAc?$AAe?$AAT?$AAi?$AAm?$AAe@ ; `string'
PUBLIC	?Clone@?$CComEnumImpl@UIEnumConnectionPoints@@$1?_GUID_b196b285_bab4_101a_b69c_00aa00341d07@@3U__s_GUID@@BPAUIConnectionPoint@@V?$_CopyInterface@UIConnectionPoint@@@ATL@@@ATL@@UAGJPAPAUIEnumConnectionPoints@@@Z ; ATL::CComEnumImpl<IEnumConnectionPoints,&_GUID_b196b285_bab4_101a_b69c_00aa00341d07,IConnectionPoint *,ATL::_CopyInterface<IConnectionPoint> >::Clone
PUBLIC	??_C@_1BM@GIKLHLFD@?$AAa?$AAt?$AAl?$AAT?$AAr?$AAa?$AAc?$AAe?$AAC?$AAa?$AAc?$AAh?$AAe@ ; `string'
PUBLIC	?AddRef@?$CComObject@V?$CComEnum@UIEnumConnectionPoints@@$1?_GUID_b196b285_bab4_101a_b69c_00aa00341d07@@3U__s_GUID@@BPAUIConnectionPoint@@V?$_CopyInterface@UIConnectionPoint@@@ATL@@VCComSingleThreadModel@6@@ATL@@@ATL@@UAGKXZ ; ATL::CComObject<ATL::CComEnum<IEnumConnectionPoints,&_GUID_b196b285_bab4_101a_b69c_00aa00341d07,IConnectionPoint *,ATL::_CopyInterface<IConnectionPoint>,ATL::CComSingleThreadModel> >::AddRef
PUBLIC	?Release@?$CComObject@V?$CComEnum@UIEnumConnectionPoints@@$1?_GUID_b196b285_bab4_101a_b69c_00aa00341d07@@3U__s_GUID@@BPAUIConnectionPoint@@V?$_CopyInterface@UIConnectionPoint@@@ATL@@VCComSingleThreadModel@6@@ATL@@@ATL@@UAGKXZ ; ATL::CComObject<ATL::CComEnum<IEnumConnectionPoints,&_GUID_b196b285_bab4_101a_b69c_00aa00341d07,IConnectionPoint *,ATL::_CopyInterface<IConnectionPoint>,ATL::CComSingleThreadModel> >::Release
PUBLIC	?QueryInterface@?$CComObject@V?$CComEnum@UIEnumConnectionPoints@@$1?_GUID_b196b285_bab4_101a_b69c_00aa00341d07@@3U__s_GUID@@BPAUIConnectionPoint@@V?$_CopyInterface@UIConnectionPoint@@@ATL@@VCComSingleThreadModel@6@@ATL@@@ATL@@UAGJABU_GUID@@PAPAX@Z ; ATL::CComObject<ATL::CComEnum<IEnumConnectionPoints,&_GUID_b196b285_bab4_101a_b69c_00aa00341d07,IConnectionPoint *,ATL::_CopyInterface<IConnectionPoint>,ATL::CComSingleThreadModel> >::QueryInterface
PUBLIC	??_7?$CComObject@V?$CComEnum@UIEnumConnectionPoints@@$1?_GUID_b196b285_bab4_101a_b69c_00aa00341d07@@3U__s_GUID@@BPAUIConnectionPoint@@V?$_CopyInterface@UIConnectionPoint@@@ATL@@VCComSingleThreadModel@6@@ATL@@@ATL@@6B@ ; ATL::CComObject<ATL::CComEnum<IEnumConnectionPoints,&_GUID_b196b285_bab4_101a_b69c_00aa00341d07,IConnectionPoint *,ATL::_CopyInterface<IConnectionPoint>,ATL::CComSingleThreadModel> >::`vftable'
PUBLIC	??_G?$CComObject@V?$CComEnum@UIEnumConnectionPoints@@$1?_GUID_b196b285_bab4_101a_b69c_00aa00341d07@@3U__s_GUID@@BPAUIConnectionPoint@@V?$_CopyInterface@UIConnectionPoint@@@ATL@@VCComSingleThreadModel@6@@ATL@@@ATL@@UAEPAXI@Z ; ATL::CComObject<ATL::CComEnum<IEnumConnectionPoints,&_GUID_b196b285_bab4_101a_b69c_00aa00341d07,IConnectionPoint *,ATL::_CopyInterface<IConnectionPoint>,ATL::CComSingleThreadModel> >::`scalar deleting destructor'
PUBLIC	??_C@_1CA@PBPHANCD@?$AAa?$AAt?$AAl?$AAT?$AAr?$AAa?$AAc?$AAe?$AAS?$AAt?$AAe?$AAn?$AAc?$AAi?$AAl@ ; `string'
PUBLIC	??_C@_1BO@GMLILNDJ@?$AAa?$AAt?$AAl?$AAT?$AAr?$AAa?$AAc?$AAe?$AAS?$AAt?$AAr?$AAi?$AAn?$AAg@ ; `string'
PUBLIC	??_C@_1BI@OKDLCIEM@?$AAa?$AAt?$AAl?$AAT?$AAr?$AAa?$AAc?$AAe?$AAM?$AAa?$AAp@ ; `string'
PUBLIC	??_C@_1BK@DMHCKHHD@?$AAa?$AAt?$AAl?$AAT?$AAr?$AAa?$AAc?$AAe?$AAU?$AAt?$AAi?$AAl@ ; `string'
PUBLIC	??_C@_1CC@DMMBNCFG@?$AAa?$AAt?$AAl?$AAT?$AAr?$AAa?$AAc?$AAe?$AAS?$AAe?$AAc?$AAu?$AAr?$AAi?$AAt@ ; `string'
PUBLIC	??_C@_1BK@OPAPOCAL@?$AAa?$AAt?$AAl?$AAT?$AAr?$AAa?$AAc?$AAe?$AAS?$AAy?$AAn?$AAc@ ; `string'
PUBLIC	??_C@_1BM@FHAEDBFK@?$AAa?$AAt?$AAl?$AAT?$AAr?$AAa?$AAc?$AAe?$AAI?$AAS?$AAA?$AAP?$AAI@ ; `string'
PUBLIC	??_C@_1M@KANJNLFF@?$AAC?$AAL?$AAS?$AAI?$AAD@	; `string'
PUBLIC	??_C@_1M@EJNEECMJ@?$AAA?$AAp?$AAp?$AAI?$AAD@	; `string'
PUBLIC	?chDirSep@ATL@@3_WB				; ATL::chDirSep
PUBLIC	?chRightBracket@ATL@@3_WB			; ATL::chRightBracket
PUBLIC	?chLeftBracket@ATL@@3_WB			; ATL::chLeftBracket
PUBLIC	?chQuote@ATL@@3_WB				; ATL::chQuote
PUBLIC	?chEquals@ATL@@3_WB				; ATL::chEquals
PUBLIC	?szStringVal@ATL@@3QB_WB			; ATL::szStringVal
PUBLIC	??_C@_13HADIAKP@?$AAS@				; `string'
PUBLIC	?multiszStringVal@ATL@@3QB_WB			; ATL::multiszStringVal
PUBLIC	??_C@_13LHMFKAAD@?$AAM@				; `string'
PUBLIC	?szDwordVal@ATL@@3QB_WB				; ATL::szDwordVal
PUBLIC	??_C@_13MKMNOPIJ@?$AAD@				; `string'
PUBLIC	?szBinaryVal@ATL@@3QB_WB			; ATL::szBinaryVal
PUBLIC	??_C@_13OPKGLAFF@?$AAB@				; `string'
PUBLIC	?szValToken@ATL@@3QB_WB				; ATL::szValToken
PUBLIC	??_C@_17LLMMEOJD@?$AAV?$AAa?$AAl@		; `string'
PUBLIC	?szForceRemove@ATL@@3QB_WB			; ATL::szForceRemove
PUBLIC	??_C@_1BI@JFAIJMHL@?$AAF?$AAo?$AAr?$AAc?$AAe?$AAR?$AAe?$AAm?$AAo?$AAv?$AAe@ ; `string'
PUBLIC	?szNoRemove@ATL@@3QB_WB				; ATL::szNoRemove
PUBLIC	??_C@_1BC@GCKHIPE@?$AAN?$AAo?$AAR?$AAe?$AAm?$AAo?$AAv?$AAe@ ; `string'
PUBLIC	?szDelete@ATL@@3QB_WB				; ATL::szDelete
PUBLIC	??_C@_1O@JDLOHAN@?$AAD?$AAe?$AAl?$AAe?$AAt?$AAe@ ; `string'
PUBLIC	__GUID_0000010e_0000_0000_c000_000000000046
PUBLIC	__GUID_b196b288_bab4_101a_b69c_00aa00341d07
PUBLIC	?rgszNeverDelete@CRegParser@ATL@@1QBQB_WB	; ATL::CRegParser::rgszNeverDelete
PUBLIC	?QueryInterface@CRegObject@ATL@@UAGJABU_GUID@@PAPAX@Z ; ATL::CRegObject::QueryInterface
PUBLIC	?AddRef@CRegObject@ATL@@UAGKXZ			; ATL::CRegObject::AddRef
PUBLIC	?Release@CRegObject@ATL@@UAGKXZ			; ATL::CRegObject::Release
PUBLIC	?AddReplacement@CRegObject@ATL@@UAGJPB_W0@Z	; ATL::CRegObject::AddReplacement
PUBLIC	?ClearReplacements@CRegObject@ATL@@UAGJXZ	; ATL::CRegObject::ClearReplacements
PUBLIC	??_7CRegObject@ATL@@6B@				; ATL::CRegObject::`vftable'
PUBLIC	??_GCRegObject@ATL@@UAEPAXI@Z			; ATL::CRegObject::`scalar deleting destructor'
PUBLIC	__GUID_00000113_0000_0000_c000_000000000046
PUBLIC	__GUID_1c2056cc_5ef4_101b_8bc8_00aa003e3b29
PUBLIC	??_C@_1CK@OEKPKBNA@?$AAC?$AAo?$AAm?$AAp?$AAo?$AAn?$AAe?$AAn?$AAt?$AA?5?$AAC?$AAa?$AAt?$AAe?$AAg@ ; `string'
PUBLIC	??_C@_1BC@NKMMNMGL@?$AAF?$AAi?$AAl?$AAe?$AAT?$AAy?$AAp?$AAe@ ; `string'
PUBLIC	??_C@_1BE@EKPAFMCP@?$AAI?$AAn?$AAt?$AAe?$AAr?$AAf?$AAa?$AAc?$AAe@ ; `string'
PUBLIC	??_C@_1BC@MAICEHGI@?$AAH?$AAa?$AAr?$AAd?$AAw?$AAa?$AAr?$AAe@ ; `string'
PUBLIC	??_C@_19HLLLM@?$AAM?$AAi?$AAm?$AAe@		; `string'
PUBLIC	??_C@_17OMAOINJK@?$AAS?$AAA?$AAM@		; `string'
PUBLIC	??_C@_1BC@IBECJAAI@?$AAS?$AAE?$AAC?$AAU?$AAR?$AAI?$AAT?$AAY@ ; `string'
PUBLIC	??_C@_1O@GBFINDKL@?$AAS?$AAY?$AAS?$AAT?$AAE?$AAM@ ; `string'
PUBLIC	??_C@_1BC@EAHCMADO@?$AAS?$AAo?$AAf?$AAt?$AAw?$AAa?$AAr?$AAe@ ; `string'
PUBLIC	??_C@_1BA@JIHHIEDE@?$AAT?$AAy?$AAp?$AAe?$AAL?$AAi?$AAb@ ; `string'
PUBLIC	?map@?1??HKeyFromString@CRegParser@ATL@@KAPAUHKEY__@@PA_W@Z@4QBUkeymap@?1??123@KAPAU4@0@Z@B ; `ATL::CRegParser::HKeyFromString'::`2'::map
PUBLIC	??_C@_19NCHLBIN@?$AAH?$AAK?$AAC?$AAR@		; `string'
PUBLIC	??_C@_19JAPAIJDE@?$AAH?$AAK?$AAC?$AAU@		; `string'
PUBLIC	??_C@_19PEALEEJB@?$AAH?$AAK?$AAL?$AAM@		; `string'
PUBLIC	??_C@_17PJOJPMPB@?$AAH?$AAK?$AAU@		; `string'
PUBLIC	??_C@_19PNBHMJPL@?$AAH?$AAK?$AAP?$AAD@		; `string'
PUBLIC	??_C@_19GFFAIJHG@?$AAH?$AAK?$AAD?$AAD@		; `string'
PUBLIC	??_C@_19OFICIBHH@?$AAH?$AAK?$AAC?$AAC@		; `string'
PUBLIC	??_C@_1CE@PACHPJFI@?$AAH?$AAK?$AAE?$AAY?$AA_?$AAC?$AAL?$AAA?$AAS?$AAS?$AAE?$AAS?$AA_?$AAR?$AAO@ ; `string'
PUBLIC	??_C@_1CE@HLHNCBPM@?$AAH?$AAK?$AAE?$AAY?$AA_?$AAC?$AAU?$AAR?$AAR?$AAE?$AAN?$AAT?$AA_?$AAU?$AAS@ ; `string'
PUBLIC	??_C@_1CG@GFBEANJL@?$AAH?$AAK?$AAE?$AAY?$AA_?$AAL?$AAO?$AAC?$AAA?$AAL?$AA_?$AAM?$AAA?$AAC?$AAH@ ; `string'
PUBLIC	??_C@_1BG@BGODANIO@?$AAH?$AAK?$AAE?$AAY?$AA_?$AAU?$AAS?$AAE?$AAR?$AAS@ ; `string'
PUBLIC	??_C@_1CM@KHNNAOIC@?$AAH?$AAK?$AAE?$AAY?$AA_?$AAP?$AAE?$AAR?$AAF?$AAO?$AAR?$AAM?$AAA?$AAN?$AAC@ ; `string'
PUBLIC	??_C@_1BM@HAGMMHIA@?$AAH?$AAK?$AAE?$AAY?$AA_?$AAD?$AAY?$AAN?$AA_?$AAD?$AAA?$AAT?$AAA@ ; `string'
PUBLIC	??_C@_1CI@BBJOACGG@?$AAH?$AAK?$AAE?$AAY?$AA_?$AAC?$AAU?$AAR?$AAR?$AAE?$AAN?$AAT?$AA_?$AAC?$AAO@ ; `string'
PUBLIC	__GUID_00000109_0000_0000_c000_000000000046
PUBLIC	__GUID_7fd52380_4e07_101b_ae2d_08002b2ec713
PUBLIC	__GUID_00000112_0000_0000_c000_000000000046
PUBLIC	__GUID_3af24292_0c96_11ce_a0cf_00aa00600ab8
PUBLIC	__GUID_00000127_0000_0000_c000_000000000046
PUBLIC	__GUID_0000010d_0000_0000_c000_000000000046
PUBLIC	??_C@_1EA@NHKLICFA@?$AAH?$AAK?$AAC?$AAU?$AA?$AN?$AA?6?$AA?$HL?$AA?7?$AAS?$AAo?$AAf?$AAt?$AAw?$AAa?$AAr@ ; `string'
PUBLIC	??_C@_1BE@LJOLIMEM@?$AA?$AN?$AA?6?$AA?7?$AA?$HN?$AA?$AN?$AA?6?$AA?$HN?$AA?$AN?$AA?6@ ; `string'
PUBLIC	??_C@_1M@PPPPCDEP@?$AAA?$AAP?$AAP?$AAI?$AAD@	; `string'
PUBLIC	??_C@_1O@MNLDABAF@?$AAM?$AAo?$AAd?$AAu?$AAl?$AAe@ ; `string'
PUBLIC	??_C@_1BG@JBACFMF@?$AAM?$AAo?$AAd?$AAu?$AAl?$AAe?$AA_?$AAR?$AAa?$AAw@ ; `string'
PUBLIC	??_C@_1BC@KAILKFFG@?$AAR?$AAE?$AAG?$AAI?$AAS?$AAT?$AAR?$AAY@ ; `string'
PUBLIC	?_OptionsStorage@?1??__local_stdio_printf_options@@9@4_KA ; `__local_stdio_printf_options'::`2'::_OptionsStorage
PUBLIC	?AddRef@?$CComAggObject@VCOPOSDeviceMonitor@@@ATL@@UAGKXZ ; ATL::CComAggObject<COPOSDeviceMonitor>::AddRef
PUBLIC	?Release@?$CComAggObject@VCOPOSDeviceMonitor@@@ATL@@UAGKXZ ; ATL::CComAggObject<COPOSDeviceMonitor>::Release
PUBLIC	??_C@_11LOCGONAA@@				; `string'
PUBLIC	?QueryInterface@?$CComAggObject@VCOPOSDeviceMonitor@@@ATL@@UAGJABU_GUID@@PAPAX@Z ; ATL::CComAggObject<COPOSDeviceMonitor>::QueryInterface
PUBLIC	?AddRef@?$CComContainedObject@VCOPOSDeviceMonitor@@@ATL@@UAGKXZ ; ATL::CComContainedObject<COPOSDeviceMonitor>::AddRef
PUBLIC	?Release@?$CComContainedObject@VCOPOSDeviceMonitor@@@ATL@@UAGKXZ ; ATL::CComContainedObject<COPOSDeviceMonitor>::Release
PUBLIC	?QueryInterface@?$CComContainedObject@VCOPOSDeviceMonitor@@@ATL@@UAGJABU_GUID@@PAPAX@Z ; ATL::CComContainedObject<COPOSDeviceMonitor>::QueryInterface
PUBLIC	??_7?$CComContainedObject@VCOPOSDeviceMonitor@@@ATL@@6B?$IDispatchImpl@UIOPOSDeviceMonitor@@$1?IID_IOPOSDeviceMonitor@@3U_GUID@@B$1?LIBID_OposDeviceMonitor_CCO@@3U3@B$00$0A@VCComTypeInfoHolder@ATL@@@1@@ ; ATL::CComContainedObject<COPOSDeviceMonitor>::`vftable'
PUBLIC	??_7?$CComContainedObject@VCOPOSDeviceMonitor@@@ATL@@6BCComControlBase@1@@ ; ATL::CComContainedObject<COPOSDeviceMonitor>::`vftable'
PUBLIC	??_7?$CComContainedObject@VCOPOSDeviceMonitor@@@ATL@@6B?$CWindowImpl@VCOPOSDeviceMonitor@@VCWindow@ATL@@V?$CWinTraits@$0FGAAAAAA@$0A@@3@@1@@ ; ATL::CComContainedObject<COPOSDeviceMonitor>::`vftable'
PUBLIC	??_7?$CComContainedObject@VCOPOSDeviceMonitor@@@ATL@@6B?$IPersistStreamInitImpl@VCOPOSDeviceMonitor@@@1@@ ; ATL::CComContainedObject<COPOSDeviceMonitor>::`vftable'
PUBLIC	??_7?$CComContainedObject@VCOPOSDeviceMonitor@@@ATL@@6B?$IOleControlImpl@VCOPOSDeviceMonitor@@@1@@ ; ATL::CComContainedObject<COPOSDeviceMonitor>::`vftable'
PUBLIC	??_7?$CComContainedObject@VCOPOSDeviceMonitor@@@ATL@@6B?$IOleObjectImpl@VCOPOSDeviceMonitor@@@1@@ ; ATL::CComContainedObject<COPOSDeviceMonitor>::`vftable'
PUBLIC	??_7?$CComContainedObject@VCOPOSDeviceMonitor@@@ATL@@6B?$IOleInPlaceActiveObjectImpl@VCOPOSDeviceMonitor@@@1@@ ; ATL::CComContainedObject<COPOSDeviceMonitor>::`vftable'
PUBLIC	??_7?$CComContainedObject@VCOPOSDeviceMonitor@@@ATL@@6B?$IViewObjectExImpl@VCOPOSDeviceMonitor@@@1@@ ; ATL::CComContainedObject<COPOSDeviceMonitor>::`vftable'
PUBLIC	??_7?$CComContainedObject@VCOPOSDeviceMonitor@@@ATL@@6B?$IOleInPlaceObjectWindowlessImpl@VCOPOSDeviceMonitor@@@1@@ ; ATL::CComContainedObject<COPOSDeviceMonitor>::`vftable'
PUBLIC	??_7?$CComContainedObject@VCOPOSDeviceMonitor@@@ATL@@6B?$IConnectionPointContainerImpl@VCOPOSDeviceMonitor@@@1@@ ; ATL::CComContainedObject<COPOSDeviceMonitor>::`vftable'
PUBLIC	??_7?$CComContainedObject@VCOPOSDeviceMonitor@@@ATL@@6B?$IPersistStorageImpl@VCOPOSDeviceMonitor@@@1@@ ; ATL::CComContainedObject<COPOSDeviceMonitor>::`vftable'
PUBLIC	??_7?$CComContainedObject@VCOPOSDeviceMonitor@@@ATL@@6B?$ISpecifyPropertyPagesImpl@VCOPOSDeviceMonitor@@@1@@ ; ATL::CComContainedObject<COPOSDeviceMonitor>::`vftable'
PUBLIC	??_7?$CComContainedObject@VCOPOSDeviceMonitor@@@ATL@@6B?$IQuickActivateImpl@VCOPOSDeviceMonitor@@@1@@ ; ATL::CComContainedObject<COPOSDeviceMonitor>::`vftable'
PUBLIC	??_7?$CComContainedObject@VCOPOSDeviceMonitor@@@ATL@@6B?$IDataObjectImpl@VCOPOSDeviceMonitor@@@1@@ ; ATL::CComContainedObject<COPOSDeviceMonitor>::`vftable'
PUBLIC	??_7?$CComContainedObject@VCOPOSDeviceMonitor@@@ATL@@6B?$IProvideClassInfo2Impl@$1?CLSID_OPOSDeviceMonitor@@3U_GUID@@B$1?DIID__IOPOSDeviceMonitorEvents@@3U2@B$1?LIBID_OposDeviceMonitor_CCO@@3U2@B$00$0A@VCComTypeInfoHolder@ATL@@@1@@ ; ATL::CComContainedObject<COPOSDeviceMonitor>::`vftable'
PUBLIC	??_7?$CComContainedObject@VCOPOSDeviceMonitor@@@ATL@@6B?$IObjectSafetyImpl@VCOPOSDeviceMonitor@@$02@1@@ ; ATL::CComContainedObject<COPOSDeviceMonitor>::`vftable'
PUBLIC	??_7?$CComContainedObject@VCOPOSDeviceMonitor@@@ATL@@6B?$IPropertyNotifySinkCP@VCOPOSDeviceMonitor@@VCComDynamicUnkArray@ATL@@@1@@ ; ATL::CComContainedObject<COPOSDeviceMonitor>::`vftable'
PUBLIC	??_7?$CComContainedObject@VCOPOSDeviceMonitor@@@ATL@@6B?$CProxy_IOPOSEvents@VCOPOSDeviceMonitor@@@@@ ; ATL::CComContainedObject<COPOSDeviceMonitor>::`vftable'
PUBLIC	??_7?$CComAggObject@VCOPOSDeviceMonitor@@@ATL@@6B@ ; ATL::CComAggObject<COPOSDeviceMonitor>::`vftable'
PUBLIC	??_G?$CComAggObject@VCOPOSDeviceMonitor@@@ATL@@UAEPAXI@Z ; ATL::CComAggObject<COPOSDeviceMonitor>::`scalar deleting destructor'
PUBLIC	?AddRef@?$CComObject@VCOPOSDeviceMonitor@@@ATL@@UAGKXZ ; ATL::CComObject<COPOSDeviceMonitor>::AddRef
PUBLIC	?Release@?$CComObject@VCOPOSDeviceMonitor@@@ATL@@UAGKXZ ; ATL::CComObject<COPOSDeviceMonitor>::Release
PUBLIC	?QueryInterface@?$CComObject@VCOPOSDeviceMonitor@@@ATL@@UAGJABU_GUID@@PAPAX@Z ; ATL::CComObject<COPOSDeviceMonitor>::QueryInterface
PUBLIC	??_7?$CComObject@VCOPOSDeviceMonitor@@@ATL@@6B?$IDispatchImpl@UIOPOSDeviceMonitor@@$1?IID_IOPOSDeviceMonitor@@3U_GUID@@B$1?LIBID_OposDeviceMonitor_CCO@@3U3@B$00$0A@VCComTypeInfoHolder@ATL@@@1@@ ; ATL::CComObject<COPOSDeviceMonitor>::`vftable'
PUBLIC	??_7?$CComObject@VCOPOSDeviceMonitor@@@ATL@@6BCComControlBase@1@@ ; ATL::CComObject<COPOSDeviceMonitor>::`vftable'
PUBLIC	??_7?$CComObject@VCOPOSDeviceMonitor@@@ATL@@6B?$CWindowImpl@VCOPOSDeviceMonitor@@VCWindow@ATL@@V?$CWinTraits@$0FGAAAAAA@$0A@@3@@1@@ ; ATL::CComObject<COPOSDeviceMonitor>::`vftable'
PUBLIC	??_7?$CComObject@VCOPOSDeviceMonitor@@@ATL@@6B?$IPersistStreamInitImpl@VCOPOSDeviceMonitor@@@1@@ ; ATL::CComObject<COPOSDeviceMonitor>::`vftable'
PUBLIC	??_7?$CComObject@VCOPOSDeviceMonitor@@@ATL@@6B?$IOleControlImpl@VCOPOSDeviceMonitor@@@1@@ ; ATL::CComObject<COPOSDeviceMonitor>::`vftable'
PUBLIC	??_7?$CComObject@VCOPOSDeviceMonitor@@@ATL@@6B?$IOleObjectImpl@VCOPOSDeviceMonitor@@@1@@ ; ATL::CComObject<COPOSDeviceMonitor>::`vftable'
PUBLIC	??_7?$CComObject@VCOPOSDeviceMonitor@@@ATL@@6B?$IOleInPlaceActiveObjectImpl@VCOPOSDeviceMonitor@@@1@@ ; ATL::CComObject<COPOSDeviceMonitor>::`vftable'
PUBLIC	??_7?$CComObject@VCOPOSDeviceMonitor@@@ATL@@6B?$IViewObjectExImpl@VCOPOSDeviceMonitor@@@1@@ ; ATL::CComObject<COPOSDeviceMonitor>::`vftable'
PUBLIC	??_7?$CComObject@VCOPOSDeviceMonitor@@@ATL@@6B?$IOleInPlaceObjectWindowlessImpl@VCOPOSDeviceMonitor@@@1@@ ; ATL::CComObject<COPOSDeviceMonitor>::`vftable'
PUBLIC	??_7?$CComObject@VCOPOSDeviceMonitor@@@ATL@@6B?$IConnectionPointContainerImpl@VCOPOSDeviceMonitor@@@1@@ ; ATL::CComObject<COPOSDeviceMonitor>::`vftable'
PUBLIC	??_7?$CComObject@VCOPOSDeviceMonitor@@@ATL@@6B?$IPersistStorageImpl@VCOPOSDeviceMonitor@@@1@@ ; ATL::CComObject<COPOSDeviceMonitor>::`vftable'
PUBLIC	??_7?$CComObject@VCOPOSDeviceMonitor@@@ATL@@6B?$ISpecifyPropertyPagesImpl@VCOPOSDeviceMonitor@@@1@@ ; ATL::CComObject<COPOSDeviceMonitor>::`vftable'
PUBLIC	??_7?$CComObject@VCOPOSDeviceMonitor@@@ATL@@6B?$IQuickActivateImpl@VCOPOSDeviceMonitor@@@1@@ ; ATL::CComObject<COPOSDeviceMonitor>::`vftable'
PUBLIC	??_7?$CComObject@VCOPOSDeviceMonitor@@@ATL@@6B?$IDataObjectImpl@VCOPOSDeviceMonitor@@@1@@ ; ATL::CComObject<COPOSDeviceMonitor>::`vftable'
PUBLIC	??_7?$CComObject@VCOPOSDeviceMonitor@@@ATL@@6B?$IProvideClassInfo2Impl@$1?CLSID_OPOSDeviceMonitor@@3U_GUID@@B$1?DIID__IOPOSDeviceMonitorEvents@@3U2@B$1?LIBID_OposDeviceMonitor_CCO@@3U2@B$00$0A@VCComTypeInfoHolder@ATL@@@1@@ ; ATL::CComObject<COPOSDeviceMonitor>::`vftable'
PUBLIC	??_7?$CComObject@VCOPOSDeviceMonitor@@@ATL@@6B?$IObjectSafetyImpl@VCOPOSDeviceMonitor@@$02@1@@ ; ATL::CComObject<COPOSDeviceMonitor>::`vftable'
PUBLIC	??_7?$CComObject@VCOPOSDeviceMonitor@@@ATL@@6B?$IPropertyNotifySinkCP@VCOPOSDeviceMonitor@@VCComDynamicUnkArray@ATL@@@1@@ ; ATL::CComObject<COPOSDeviceMonitor>::`vftable'
PUBLIC	??_7?$CComObject@VCOPOSDeviceMonitor@@@ATL@@6B?$CProxy_IOPOSEvents@VCOPOSDeviceMonitor@@@@@ ; ATL::CComObject<COPOSDeviceMonitor>::`vftable'
PUBLIC	_CLSID_Registrar
PUBLIC	_IID_IRegistrar
PUBLIC	??_C@_1O@GBFKGNEO@?$AAA?$AAT?$AAL?$AA?3?$AA?$CF?$AAp@ ; `string'
PUBLIC	_IID_IDocHostUIHandlerDispatch
PUBLIC	??_C@_1BA@PICGEGJB@?$AAD?$AAI?$AAS?$AAP?$AAL?$AAA?$AAY@ ; `string'
PUBLIC	_IID_IAxWinHostWindow
PUBLIC	__GUID_9bfbbc02_eff1_101a_84ed_00aa00341d07
PUBLIC	?wc@?1??GetWndClassInfo@?$CWindowImpl@VCOPOSDeviceMonitor@@VCWindow@ATL@@V?$CWinTraits@$0FGAAAAAA@$0A@@3@@ATL@@SAAAU_ATL_WNDCLASSINFOW@3@XZ@4U43@A ; `ATL::CWindowImpl<COPOSDeviceMonitor,ATL::CWindow,ATL::CWinTraits<1442840576,0> >::GetWndClassInfo'::`2'::wc
PUBLIC	__GUID_b196b284_bab4_101a_b69c_00aa00341d07
PUBLIC	_IID_IAxWinHostWindowLic
PUBLIC	?_entries@?1??_GetEntries@?$CComEnum@UIEnumConnectionPoints@@$1?_GUID_b196b285_bab4_101a_b69c_00aa00341d07@@3U__s_GUID@@BPAUIConnectionPoint@@V?$_CopyInterface@UIConnectionPoint@@@ATL@@VCComSingleThreadModel@6@@ATL@@SGPBU_ATL_INTMAP_ENTRY@3@XZ@4QBU43@B ; `ATL::CComEnum<IEnumConnectionPoints,&_GUID_b196b285_bab4_101a_b69c_00aa00341d07,IConnectionPoint *,ATL::_CopyInterface<IConnectionPoint>,ATL::CComSingleThreadModel>::_GetEntries'::`2'::_entries
PUBLIC	_IID_IAxWinAmbientDispatch
PUBLIC	__GUID_00020412_0000_0000_c000_000000000046
PUBLIC	__GUID_00020401_0000_0000_c000_000000000046
PUBLIC	?OnDrawAdvanced@CComControlBase@ATL@@UAEJAAUATL_DRAWINFO@@@Z ; ATL::CComControlBase::OnDrawAdvanced
PUBLIC	_IID_IAxWinAmbientDispatchEx
PUBLIC	_IID_IInternalConnection
PUBLIC	?Next@?$CComEnumImpl@UIEnumConnections@@$1?_GUID_b196b287_bab4_101a_b69c_00aa00341d07@@3U__s_GUID@@BUtagCONNECTDATA@@V?$_Copy@UtagCONNECTDATA@@@ATL@@@ATL@@UAGJKPAUtagCONNECTDATA@@PAK@Z ; ATL::CComEnumImpl<IEnumConnections,&_GUID_b196b287_bab4_101a_b69c_00aa00341d07,tagCONNECTDATA,ATL::_Copy<tagCONNECTDATA> >::Next
PUBLIC	?Skip@?$CComEnumImpl@UIEnumConnections@@$1?_GUID_b196b287_bab4_101a_b69c_00aa00341d07@@3U__s_GUID@@BUtagCONNECTDATA@@V?$_Copy@UtagCONNECTDATA@@@ATL@@@ATL@@UAGJK@Z ; ATL::CComEnumImpl<IEnumConnections,&_GUID_b196b287_bab4_101a_b69c_00aa00341d07,tagCONNECTDATA,ATL::_Copy<tagCONNECTDATA> >::Skip
PUBLIC	?Reset@?$CComEnumImpl@UIEnumConnections@@$1?_GUID_b196b287_bab4_101a_b69c_00aa00341d07@@3U__s_GUID@@BUtagCONNECTDATA@@V?$_Copy@UtagCONNECTDATA@@@ATL@@@ATL@@UAGJXZ ; ATL::CComEnumImpl<IEnumConnections,&_GUID_b196b287_bab4_101a_b69c_00aa00341d07,tagCONNECTDATA,ATL::_Copy<tagCONNECTDATA> >::Reset
PUBLIC	?rcDefault@CWindow@ATL@@2UtagRECT@@A		; ATL::CWindow::rcDefault
PUBLIC	?Clone@?$CComEnumImpl@UIEnumConnections@@$1?_GUID_b196b287_bab4_101a_b69c_00aa00341d07@@3U__s_GUID@@BUtagCONNECTDATA@@V?$_Copy@UtagCONNECTDATA@@@ATL@@@ATL@@UAGJPAPAUIEnumConnections@@@Z ; ATL::CComEnumImpl<IEnumConnections,&_GUID_b196b287_bab4_101a_b69c_00aa00341d07,tagCONNECTDATA,ATL::_Copy<tagCONNECTDATA> >::Clone
PUBLIC	?AddRef@?$CComObject@V?$CComEnum@UIEnumConnections@@$1?_GUID_b196b287_bab4_101a_b69c_00aa00341d07@@3U__s_GUID@@BUtagCONNECTDATA@@V?$_Copy@UtagCONNECTDATA@@@ATL@@VCComSingleThreadModel@6@@ATL@@@ATL@@UAGKXZ ; ATL::CComObject<ATL::CComEnum<IEnumConnections,&_GUID_b196b287_bab4_101a_b69c_00aa00341d07,tagCONNECTDATA,ATL::_Copy<tagCONNECTDATA>,ATL::CComSingleThreadModel> >::AddRef
PUBLIC	?Release@?$CComObject@V?$CComEnum@UIEnumConnections@@$1?_GUID_b196b287_bab4_101a_b69c_00aa00341d07@@3U__s_GUID@@BUtagCONNECTDATA@@V?$_Copy@UtagCONNECTDATA@@@ATL@@VCComSingleThreadModel@6@@ATL@@@ATL@@UAGKXZ ; ATL::CComObject<ATL::CComEnum<IEnumConnections,&_GUID_b196b287_bab4_101a_b69c_00aa00341d07,tagCONNECTDATA,ATL::_Copy<tagCONNECTDATA>,ATL::CComSingleThreadModel> >::Release
PUBLIC	?QueryInterface@?$CComObject@V?$CComEnum@UIEnumConnections@@$1?_GUID_b196b287_bab4_101a_b69c_00aa00341d07@@3U__s_GUID@@BUtagCONNECTDATA@@V?$_Copy@UtagCONNECTDATA@@@ATL@@VCComSingleThreadModel@6@@ATL@@@ATL@@UAGJABU_GUID@@PAPAX@Z ; ATL::CComObject<ATL::CComEnum<IEnumConnections,&_GUID_b196b287_bab4_101a_b69c_00aa00341d07,tagCONNECTDATA,ATL::_Copy<tagCONNECTDATA>,ATL::CComSingleThreadModel> >::QueryInterface
PUBLIC	??_7?$CComObject@V?$CComEnum@UIEnumConnections@@$1?_GUID_b196b287_bab4_101a_b69c_00aa00341d07@@3U__s_GUID@@BUtagCONNECTDATA@@V?$_Copy@UtagCONNECTDATA@@@ATL@@VCComSingleThreadModel@6@@ATL@@@ATL@@6B@ ; ATL::CComObject<ATL::CComEnum<IEnumConnections,&_GUID_b196b287_bab4_101a_b69c_00aa00341d07,tagCONNECTDATA,ATL::_Copy<tagCONNECTDATA>,ATL::CComSingleThreadModel> >::`vftable'
PUBLIC	??_G?$CComObject@V?$CComEnum@UIEnumConnections@@$1?_GUID_b196b287_bab4_101a_b69c_00aa00341d07@@3U__s_GUID@@BUtagCONNECTDATA@@V?$_Copy@UtagCONNECTDATA@@@ATL@@VCComSingleThreadModel@6@@ATL@@@ATL@@UAEPAXI@Z ; ATL::CComObject<ATL::CComEnum<IEnumConnections,&_GUID_b196b287_bab4_101a_b69c_00aa00341d07,tagCONNECTDATA,ATL::_Copy<tagCONNECTDATA>,ATL::CComSingleThreadModel> >::`scalar deleting destructor'
PUBLIC	__GUID_55980ba0_35aa_11cf_b671_00aa004cd6d8
PUBLIC	__GUID_b196b28b_bab4_101a_b69c_00aa00341d07
PUBLIC	?_entries@?1??_GetEntries@?$CComEnum@UIEnumConnections@@$1?_GUID_b196b287_bab4_101a_b69c_00aa00341d07@@3U__s_GUID@@BUtagCONNECTDATA@@V?$_Copy@UtagCONNECTDATA@@@ATL@@VCComSingleThreadModel@6@@ATL@@SGPBU_ATL_INTMAP_ENTRY@3@XZ@4QBU43@B ; `ATL::CComEnum<IEnumConnections,&_GUID_b196b287_bab4_101a_b69c_00aa00341d07,tagCONNECTDATA,ATL::_Copy<tagCONNECTDATA>,ATL::CComSingleThreadModel>::_GetEntries'::`2'::_entries
PUBLIC	?ObjectMain@CComObjectRootBase@ATL@@SGX_N@Z	; ATL::CComObjectRootBase::ObjectMain
PUBLIC	?GetCategoryMap@CComObjectRootBase@ATL@@SAPBU_ATL_CATMAP_ENTRY@2@XZ ; ATL::CComObjectRootBase::GetCategoryMap
PUBLIC	??_E?$CComObject@VCOPOSDeviceMonitor@@@ATL@@W3AEPAXI@Z ; [thunk]:ATL::CComObject<COPOSDeviceMonitor>::`vector deleting destructor'
PUBLIC	??_E?$CComObject@VCOPOSDeviceMonitor@@@ATL@@WEM@AEPAXI@Z ; [thunk]:ATL::CComObject<COPOSDeviceMonitor>::`vector deleting destructor'
PUBLIC	?QueryInterface@?$CComObject@VCOPOSDeviceMonitor@@@ATL@@WHA@AGJABU_GUID@@PAPAX@Z ; [thunk]:ATL::CComObject<COPOSDeviceMonitor>::QueryInterface`adjustor{112}'
PUBLIC	?AddRef@?$CComObject@VCOPOSDeviceMonitor@@@ATL@@WHA@AGKXZ ; [thunk]:ATL::CComObject<COPOSDeviceMonitor>::AddRef`adjustor{112}'
PUBLIC	?Release@?$CComObject@VCOPOSDeviceMonitor@@@ATL@@WHA@AGKXZ ; [thunk]:ATL::CComObject<COPOSDeviceMonitor>::Release`adjustor{112}'
PUBLIC	?QueryInterface@?$CComObject@VCOPOSDeviceMonitor@@@ATL@@WHE@AGJABU_GUID@@PAPAX@Z ; [thunk]:ATL::CComObject<COPOSDeviceMonitor>::QueryInterface`adjustor{116}'
PUBLIC	?AddRef@?$CComObject@VCOPOSDeviceMonitor@@@ATL@@WHE@AGKXZ ; [thunk]:ATL::CComObject<COPOSDeviceMonitor>::AddRef`adjustor{116}'
PUBLIC	?Release@?$CComObject@VCOPOSDeviceMonitor@@@ATL@@WHE@AGKXZ ; [thunk]:ATL::CComObject<COPOSDeviceMonitor>::Release`adjustor{116}'
PUBLIC	?QueryInterface@?$CComObject@VCOPOSDeviceMonitor@@@ATL@@WHI@AGJABU_GUID@@PAPAX@Z ; [thunk]:ATL::CComObject<COPOSDeviceMonitor>::QueryInterface`adjustor{120}'
PUBLIC	?AddRef@?$CComObject@VCOPOSDeviceMonitor@@@ATL@@WHI@AGKXZ ; [thunk]:ATL::CComObject<COPOSDeviceMonitor>::AddRef`adjustor{120}'
PUBLIC	?Release@?$CComObject@VCOPOSDeviceMonitor@@@ATL@@WHI@AGKXZ ; [thunk]:ATL::CComObject<COPOSDeviceMonitor>::Release`adjustor{120}'
PUBLIC	?QueryInterface@?$CComObject@VCOPOSDeviceMonitor@@@ATL@@WHM@AGJABU_GUID@@PAPAX@Z ; [thunk]:ATL::CComObject<COPOSDeviceMonitor>::QueryInterface`adjustor{124}'
PUBLIC	?AddRef@?$CComObject@VCOPOSDeviceMonitor@@@ATL@@WHM@AGKXZ ; [thunk]:ATL::CComObject<COPOSDeviceMonitor>::AddRef`adjustor{124}'
PUBLIC	?Release@?$CComObject@VCOPOSDeviceMonitor@@@ATL@@WHM@AGKXZ ; [thunk]:ATL::CComObject<COPOSDeviceMonitor>::Release`adjustor{124}'
PUBLIC	?QueryInterface@?$CComObject@VCOPOSDeviceMonitor@@@ATL@@WIA@AGJABU_GUID@@PAPAX@Z ; [thunk]:ATL::CComObject<COPOSDeviceMonitor>::QueryInterface`adjustor{128}'
PUBLIC	?AddRef@?$CComObject@VCOPOSDeviceMonitor@@@ATL@@WIA@AGKXZ ; [thunk]:ATL::CComObject<COPOSDeviceMonitor>::AddRef`adjustor{128}'
PUBLIC	?Release@?$CComObject@VCOPOSDeviceMonitor@@@ATL@@WIA@AGKXZ ; [thunk]:ATL::CComObject<COPOSDeviceMonitor>::Release`adjustor{128}'
PUBLIC	?QueryInterface@?$CComObject@VCOPOSDeviceMonitor@@@ATL@@WIE@AGJABU_GUID@@PAPAX@Z ; [thunk]:ATL::CComObject<COPOSDeviceMonitor>::QueryInterface`adjustor{132}'
PUBLIC	?AddRef@?$CComObject@VCOPOSDeviceMonitor@@@ATL@@WIE@AGKXZ ; [thunk]:ATL::CComObject<COPOSDeviceMonitor>::AddRef`adjustor{132}'
PUBLIC	?Release@?$CComObject@VCOPOSDeviceMonitor@@@ATL@@WIE@AGKXZ ; [thunk]:ATL::CComObject<COPOSDeviceMonitor>::Release`adjustor{132}'
PUBLIC	?QueryInterface@?$CComObject@VCOPOSDeviceMonitor@@@ATL@@WII@AGJABU_GUID@@PAPAX@Z ; [thunk]:ATL::CComObject<COPOSDeviceMonitor>::QueryInterface`adjustor{136}'
PUBLIC	?AddRef@?$CComObject@VCOPOSDeviceMonitor@@@ATL@@WII@AGKXZ ; [thunk]:ATL::CComObject<COPOSDeviceMonitor>::AddRef`adjustor{136}'
PUBLIC	?Release@?$CComObject@VCOPOSDeviceMonitor@@@ATL@@WII@AGKXZ ; [thunk]:ATL::CComObject<COPOSDeviceMonitor>::Release`adjustor{136}'
PUBLIC	?QueryInterface@?$CComObject@VCOPOSDeviceMonitor@@@ATL@@WIM@AGJABU_GUID@@PAPAX@Z ; [thunk]:ATL::CComObject<COPOSDeviceMonitor>::QueryInterface`adjustor{140}'
PUBLIC	?AddRef@?$CComObject@VCOPOSDeviceMonitor@@@ATL@@WIM@AGKXZ ; [thunk]:ATL::CComObject<COPOSDeviceMonitor>::AddRef`adjustor{140}'
EXTRN	__purecall:PROC
EXTRN	?_AtlBaseModule@ATL@@3VCAtlBaseModule@1@A:BYTE	; ATL::_AtlBaseModule
EXTRN	??_ECComClassFactory@ATL@@UAEPAXI@Z:PROC	; ATL::CComClassFactory::`vector deleting destructor'
EXTRN	__Init_thread_epoch:DWORD
EXTRN	_IID_IPropertyNotifySink:BYTE
EXTRN	___ImageBase:BYTE
EXTRN	?FreezeEvents@COPOSDeviceMonitor@@MAGJH@Z:PROC	; COPOSDeviceMonitor::FreezeEvents
EXTRN	?OnDraw@COPOSDeviceMonitor@@MAEJAAUATL_DRAWINFO@@@Z:PROC ; COPOSDeviceMonitor::OnDraw
EXTRN	?SOProcessID@COPOSDeviceMonitor@@UAGJPAJ@Z:PROC	; COPOSDeviceMonitor::SOProcessID
EXTRN	?get_OpenResult@COPOSDeviceMonitor@@UAGJPAJ@Z:PROC ; COPOSDeviceMonitor::get_OpenResult
EXTRN	?get_AutoDisable@COPOSDeviceMonitor@@UAGJPAF@Z:PROC ; COPOSDeviceMonitor::get_AutoDisable
EXTRN	?put_AutoDisable@COPOSDeviceMonitor@@UAGJF@Z:PROC ; COPOSDeviceMonitor::put_AutoDisable
EXTRN	?get_BinaryConversion@COPOSDeviceMonitor@@UAGJPAJ@Z:PROC ; COPOSDeviceMonitor::get_BinaryConversion
EXTRN	?put_BinaryConversion@COPOSDeviceMonitor@@UAGJJ@Z:PROC ; COPOSDeviceMonitor::put_BinaryConversion
EXTRN	?get_CapPowerReporting@COPOSDeviceMonitor@@UAGJPAJ@Z:PROC ; COPOSDeviceMonitor::get_CapPowerReporting
EXTRN	?get_CheckHealthText@COPOSDeviceMonitor@@UAGJPAPA_W@Z:PROC ; COPOSDeviceMonitor::get_CheckHealthText
EXTRN	?get_Claimed@COPOSDeviceMonitor@@UAGJPAF@Z:PROC	; COPOSDeviceMonitor::get_Claimed
EXTRN	?get_DataCount@COPOSDeviceMonitor@@UAGJPAJ@Z:PROC ; COPOSDeviceMonitor::get_DataCount
EXTRN	?get_DataEventEnabled@COPOSDeviceMonitor@@UAGJPAF@Z:PROC ; COPOSDeviceMonitor::get_DataEventEnabled
EXTRN	?put_DataEventEnabled@COPOSDeviceMonitor@@UAGJF@Z:PROC ; COPOSDeviceMonitor::put_DataEventEnabled
EXTRN	?get_DeviceEnabled@COPOSDeviceMonitor@@UAGJPAF@Z:PROC ; COPOSDeviceMonitor::get_DeviceEnabled
EXTRN	?put_DeviceEnabled@COPOSDeviceMonitor@@UAGJF@Z:PROC ; COPOSDeviceMonitor::put_DeviceEnabled
EXTRN	?get_FreezeEvents@COPOSDeviceMonitor@@UAGJPAF@Z:PROC ; COPOSDeviceMonitor::get_FreezeEvents
EXTRN	?put_FreezeEvents@COPOSDeviceMonitor@@UAGJF@Z:PROC ; COPOSDeviceMonitor::put_FreezeEvents
EXTRN	?get_PowerNotify@COPOSDeviceMonitor@@UAGJPAJ@Z:PROC ; COPOSDeviceMonitor::get_PowerNotify
EXTRN	?put_PowerNotify@COPOSDeviceMonitor@@UAGJJ@Z:PROC ; COPOSDeviceMonitor::put_PowerNotify
EXTRN	?get_PowerState@COPOSDeviceMonitor@@UAGJPAJ@Z:PROC ; COPOSDeviceMonitor::get_PowerState
EXTRN	?get_ResultCode@COPOSDeviceMonitor@@UAGJPAJ@Z:PROC ; COPOSDeviceMonitor::get_ResultCode
EXTRN	?get_ResultCodeExtended@COPOSDeviceMonitor@@UAGJPAJ@Z:PROC ; COPOSDeviceMonitor::get_ResultCodeExtended
EXTRN	?get_State@COPOSDeviceMonitor@@UAGJPAJ@Z:PROC	; COPOSDeviceMonitor::get_State
EXTRN	?get_ControlObjectDescription@COPOSDeviceMonitor@@UAGJPAPA_W@Z:PROC ; COPOSDeviceMonitor::get_ControlObjectDescription
EXTRN	?get_ControlObjectVersion@COPOSDeviceMonitor@@UAGJPAJ@Z:PROC ; COPOSDeviceMonitor::get_ControlObjectVersion
EXTRN	?get_ServiceObjectDescription@COPOSDeviceMonitor@@UAGJPAPA_W@Z:PROC ; COPOSDeviceMonitor::get_ServiceObjectDescription
EXTRN	?get_ServiceObjectVersion@COPOSDeviceMonitor@@UAGJPAJ@Z:PROC ; COPOSDeviceMonitor::get_ServiceObjectVersion
EXTRN	?get_DeviceDescription@COPOSDeviceMonitor@@UAGJPAPA_W@Z:PROC ; COPOSDeviceMonitor::get_DeviceDescription
EXTRN	?get_DeviceName@COPOSDeviceMonitor@@UAGJPAPA_W@Z:PROC ; COPOSDeviceMonitor::get_DeviceName
EXTRN	?get_CapStatisticsReporting@COPOSDeviceMonitor@@UAGJPAF@Z:PROC ; COPOSDeviceMonitor::get_CapStatisticsReporting
EXTRN	?get_CapUpdateStatistics@COPOSDeviceMonitor@@UAGJPAF@Z:PROC ; COPOSDeviceMonitor::get_CapUpdateStatistics
EXTRN	?get_CapCompareFirmwareVersion@COPOSDeviceMonitor@@UAGJPAF@Z:PROC ; COPOSDeviceMonitor::get_CapCompareFirmwareVersion
EXTRN	?get_CapUpdateFirmware@COPOSDeviceMonitor@@UAGJPAF@Z:PROC ; COPOSDeviceMonitor::get_CapUpdateFirmware
EXTRN	?CheckHealth@COPOSDeviceMonitor@@UAGJJPAJ@Z:PROC ; COPOSDeviceMonitor::CheckHealth
EXTRN	?ClaimDevice@COPOSDeviceMonitor@@UAGJJPAJ@Z:PROC ; COPOSDeviceMonitor::ClaimDevice
EXTRN	?ClearInput@COPOSDeviceMonitor@@UAGJPAJ@Z:PROC	; COPOSDeviceMonitor::ClearInput
EXTRN	?Close@COPOSDeviceMonitor@@UAGJPAJ@Z:PROC	; COPOSDeviceMonitor::Close
EXTRN	?DirectIO@COPOSDeviceMonitor@@UAGJJPAJPAPA_W0@Z:PROC ; COPOSDeviceMonitor::DirectIO
EXTRN	?Open@COPOSDeviceMonitor@@UAGJPA_WPAJ@Z:PROC	; COPOSDeviceMonitor::Open
EXTRN	?ReleaseDevice@COPOSDeviceMonitor@@UAGJPAJ@Z:PROC ; COPOSDeviceMonitor::ReleaseDevice
EXTRN	?ResetStatistics@COPOSDeviceMonitor@@UAGJPA_WPAJ@Z:PROC ; COPOSDeviceMonitor::ResetStatistics
EXTRN	?RetrieveStatistics@COPOSDeviceMonitor@@UAGJPAPA_WPAJ@Z:PROC ; COPOSDeviceMonitor::RetrieveStatistics
EXTRN	?UpdateStatistics@COPOSDeviceMonitor@@UAGJPA_WPAJ@Z:PROC ; COPOSDeviceMonitor::UpdateStatistics
EXTRN	?CompareFirmwareVersion@COPOSDeviceMonitor@@UAGJPA_WPAJ1@Z:PROC ; COPOSDeviceMonitor::CompareFirmwareVersion
EXTRN	?UpdateFirmware@COPOSDeviceMonitor@@UAGJPA_WPAJ@Z:PROC ; COPOSDeviceMonitor::UpdateFirmware
EXTRN	?ClearInputProperties@COPOSDeviceMonitor@@UAGJPAJ@Z:PROC ; COPOSDeviceMonitor::ClearInputProperties
EXTRN	?get_DeviceData@COPOSDeviceMonitor@@UAGJPAPA_W@Z:PROC ; COPOSDeviceMonitor::get_DeviceData
EXTRN	?get_DeviceList@COPOSDeviceMonitor@@UAGJPAPA_W@Z:PROC ; COPOSDeviceMonitor::get_DeviceList
EXTRN	?get_MonitoringDeviceList@COPOSDeviceMonitor@@UAGJPAPA_W@Z:PROC ; COPOSDeviceMonitor::get_MonitoringDeviceList
EXTRN	?AddMonitoringDevice@COPOSDeviceMonitor@@UAGJPA_WJJJJPAJ@Z:PROC ; COPOSDeviceMonitor::AddMonitoringDevice
EXTRN	?ClearMonitoringDevice@COPOSDeviceMonitor@@UAGJPAJ@Z:PROC ; COPOSDeviceMonitor::ClearMonitoringDevice
EXTRN	?DeleteMonitoringDevice@COPOSDeviceMonitor@@UAGJPA_WPAJ@Z:PROC ; COPOSDeviceMonitor::DeleteMonitoringDevice
EXTRN	?GetDeviceValue@COPOSDeviceMonitor@@UAGJPA_WPAJ1@Z:PROC ; COPOSDeviceMonitor::GetDeviceValue
EXTRN	??_ECComModule@ATL@@UAEPAXI@Z:PROC		; ATL::CComModule::`vector deleting destructor'
EXTRN	??_E?$CComObjectCached@VCComClassFactory@ATL@@@ATL@@UAEPAXI@Z:PROC ; ATL::CComObjectCached<ATL::CComClassFactory>::`vector deleting destructor'
EXTRN	??_E?$CComObject@V?$CComEnum@UIEnumConnectionPoints@@$1?_GUID_b196b285_bab4_101a_b69c_00aa00341d07@@3U__s_GUID@@BPAUIConnectionPoint@@V?$_CopyInterface@UIConnectionPoint@@@ATL@@VCComSingleThreadModel@6@@ATL@@@ATL@@UAEPAXI@Z:PROC ; ATL::CComObject<ATL::CComEnum<IEnumConnectionPoints,&_GUID_b196b285_bab4_101a_b69c_00aa00341d07,IConnectionPoint *,ATL::_CopyInterface<IConnectionPoint>,ATL::CComSingleThreadModel> >::`vector deleting destructor'
EXTRN	?nothrow@std@@3Unothrow_t@1@B:BYTE		; std::nothrow
EXTRN	_GUID_NULL:BYTE
EXTRN	_CLSID_StdGlobalInterfaceTable:BYTE
EXTRN	??_ECRegObject@ATL@@UAEPAXI@Z:PROC		; ATL::CRegObject::`vector deleting destructor'
EXTRN	??_E?$CComAggObject@VCOPOSDeviceMonitor@@@ATL@@UAEPAXI@Z:PROC ; ATL::CComAggObject<COPOSDeviceMonitor>::`vector deleting destructor'
EXTRN	??_E?$CComObject@V?$CComEnum@UIEnumConnections@@$1?_GUID_b196b287_bab4_101a_b69c_00aa00341d07@@3U__s_GUID@@BUtagCONNECTDATA@@V?$_Copy@UtagCONNECTDATA@@@ATL@@VCComSingleThreadModel@6@@ATL@@@ATL@@UAEPAXI@Z:PROC ; ATL::CComObject<ATL::CComEnum<IEnumConnections,&_GUID_b196b287_bab4_101a_b69c_00aa00341d07,tagCONNECTDATA,ATL::_Copy<tagCONNECTDATA>,ATL::CComSingleThreadModel> >::`vector deleting destructor'
EXTRN	_IID_IDispatch:BYTE
;	COMDAT ?m_bInitFailed@CAtlBaseModule@ATL@@2_NA
_BSS	SEGMENT
?m_bInitFailed@CAtlBaseModule@ATL@@2_NA DB 01H DUP (?)	; ATL::CAtlBaseModule::m_bInitFailed
_BSS	ENDS
;	COMDAT ?WM_ATLGETHOST@ATL@@3IA
_BSS	SEGMENT
?WM_ATLGETHOST@ATL@@3IA DD 01H DUP (?)			; ATL::WM_ATLGETHOST
_BSS	ENDS
;	COMDAT ?WM_ATLGETCONTROL@ATL@@3IA
_BSS	SEGMENT
?WM_ATLGETCONTROL@ATL@@3IA DD 01H DUP (?)		; ATL::WM_ATLGETCONTROL
_BSS	ENDS
;	COMDAT ?_pPerfRegFunc@ATL@@3P6AJPAUHINSTANCE__@@@ZA
_BSS	SEGMENT
?_pPerfRegFunc@ATL@@3P6AJPAUHINSTANCE__@@@ZA DD 01H DUP (?) ; ATL::_pPerfRegFunc
_BSS	ENDS
;	COMDAT ?_pPerfUnRegFunc@ATL@@3P6AJXZA
_BSS	SEGMENT
?_pPerfUnRegFunc@ATL@@3P6AJXZA DD 01H DUP (?)		; ATL::_pPerfUnRegFunc
_BSS	ENDS
;	COMDAT ?_AtlRegisterPerUser@ATL@@3_NA
_BSS	SEGMENT
?_AtlRegisterPerUser@ATL@@3_NA DB 01H DUP (?)		; ATL::_AtlRegisterPerUser
_BSS	ENDS
;	COMDAT ?_pAtlModule@ATL@@3PAVCAtlModule@1@A
_BSS	SEGMENT
?_pAtlModule@ATL@@3PAVCAtlModule@1@A DD 01H DUP (?)	; ATL::_pAtlModule
_BSS	ENDS
;	COMDAT ?m_libid@CAtlModule@ATL@@2U_GUID@@A
_BSS	SEGMENT
?m_libid@CAtlModule@ATL@@2U_GUID@@A DB 010H DUP (?)	; ATL::CAtlModule::m_libid
_BSS	ENDS
;	COMDAT ?_pModule@ATL@@3PAVCComModule@1@A
_BSS	SEGMENT
?_pModule@ATL@@3PAVCComModule@1@A DD 01H DUP (?)	; ATL::_pModule
_BSS	ENDS
;	COMDAT ?_entries@?1??GetConnMap@COPOSDeviceMonitor@@SAPBU_ATL_CONNMAP_ENTRY@ATL@@PAH@Z@4QBU34@B
_BSS	SEGMENT
?_entries@?1??GetConnMap@COPOSDeviceMonitor@@SAPBU_ATL_CONNMAP_ENTRY@ATL@@PAH@Z@4QBU34@B DD 03H DUP (?) ; `COPOSDeviceMonitor::GetConnMap'::`2'::_entries
_BSS	ENDS
;	COMDAT ?$TSS0@?1??GetConnMap@COPOSDeviceMonitor@@SAPBU_ATL_CONNMAP_ENTRY@ATL@@PAH@Z@4HA
_BSS	SEGMENT
?$TSS0@?1??GetConnMap@COPOSDeviceMonitor@@SAPBU_ATL_CONNMAP_ENTRY@ATL@@PAH@Z@4HA DD 01H DUP (?) ; `COPOSDeviceMonitor::GetConnMap'::`2'::$TSS0
_BSS	ENDS
;	COMDAT ?_pAtlAutoThreadModule@ATL@@3PAUIAtlAutoThreadModule@1@A
_BSS	SEGMENT
?_pAtlAutoThreadModule@ATL@@3PAUIAtlAutoThreadModule@1@A DD 01H DUP (?) ; ATL::_pAtlAutoThreadModule
_BSS	ENDS
;	COMDAT ?_OptionsStorage@?1??__local_stdio_printf_options@@9@4_KA
_BSS	SEGMENT
?_OptionsStorage@?1??__local_stdio_printf_options@@9@4_KA DQ 01H DUP (?) ; `__local_stdio_printf_options'::`2'::_OptionsStorage
_BSS	ENDS
;	COMDAT ?_entries@?1??_GetEntries@?$CComEnum@UIEnumConnections@@$1?_GUID_b196b287_bab4_101a_b69c_00aa00341d07@@3U__s_GUID@@BUtagCONNECTDATA@@V?$_Copy@UtagCONNECTDATA@@@ATL@@VCComSingleThreadModel@6@@ATL@@SGPBU_ATL_INTMAP_ENTRY@3@XZ@4QBU43@B
CONST	SEGMENT
?_entries@?1??_GetEntries@?$CComEnum@UIEnumConnections@@$1?_GUID_b196b287_bab4_101a_b69c_00aa00341d07@@3U__s_GUID@@BUtagCONNECTDATA@@V?$_Copy@UtagCONNECTDATA@@@ATL@@VCComSingleThreadModel@6@@ATL@@SGPBU_ATL_INTMAP_ENTRY@3@XZ@4QBU43@B DD FLAT:__GUID_b196b287_bab4_101a_b69c_00aa00341d07 ; `ATL::CComEnum<IEnumConnections,&_GUID_b196b287_bab4_101a_b69c_00aa00341d07,tagCONNECTDATA,ATL::_Copy<tagCONNECTDATA>,ATL::CComSingleThreadModel>::_GetEntries'::`2'::_entries
	DD	00H
	DD	01H
	DD	00H
	DD	00H
	DD	00H
CONST	ENDS
;	COMDAT __GUID_b196b28b_bab4_101a_b69c_00aa00341d07
CONST	SEGMENT
__GUID_b196b28b_bab4_101a_b69c_00aa00341d07 DD 0b196b28bH
	DW	0bab4H
	DW	0101aH
	DB	0b6H
	DB	09cH
	DB	00H
	DB	0aaH
	DB	00H
	DB	034H
	DB	01dH
	DB	07H
CONST	ENDS
;	COMDAT __GUID_55980ba0_35aa_11cf_b671_00aa004cd6d8
CONST	SEGMENT
__GUID_55980ba0_35aa_11cf_b671_00aa004cd6d8 DD 055980ba0H
	DW	035aaH
	DW	011cfH
	DB	0b6H
	DB	071H
	DB	00H
	DB	0aaH
	DB	00H
	DB	04cH
	DB	0d6H
	DB	0d8H
CONST	ENDS
;	COMDAT ??_7?$CComObject@V?$CComEnum@UIEnumConnections@@$1?_GUID_b196b287_bab4_101a_b69c_00aa00341d07@@3U__s_GUID@@BUtagCONNECTDATA@@V?$_Copy@UtagCONNECTDATA@@@ATL@@VCComSingleThreadModel@6@@ATL@@@ATL@@6B@
CONST	SEGMENT
??_7?$CComObject@V?$CComEnum@UIEnumConnections@@$1?_GUID_b196b287_bab4_101a_b69c_00aa00341d07@@3U__s_GUID@@BUtagCONNECTDATA@@V?$_Copy@UtagCONNECTDATA@@@ATL@@VCComSingleThreadModel@6@@ATL@@@ATL@@6B@ DD FLAT:?QueryInterface@?$CComObject@V?$CComEnum@UIEnumConnections@@$1?_GUID_b196b287_bab4_101a_b69c_00aa00341d07@@3U__s_GUID@@BUtagCONNECTDATA@@V?$_Copy@UtagCONNECTDATA@@@ATL@@VCComSingleThreadModel@6@@ATL@@@ATL@@UAGJABU_GUID@@PAPAX@Z ; ATL::CComObject<ATL::CComEnum<IEnumConnections,&_GUID_b196b287_bab4_101a_b69c_00aa00341d07,tagCONNECTDATA,ATL::_Copy<tagCONNECTDATA>,ATL::CComSingleThreadModel> >::`vftable'
	DD	FLAT:?AddRef@?$CComObject@V?$CComEnum@UIEnumConnections@@$1?_GUID_b196b287_bab4_101a_b69c_00aa00341d07@@3U__s_GUID@@BUtagCONNECTDATA@@V?$_Copy@UtagCONNECTDATA@@@ATL@@VCComSingleThreadModel@6@@ATL@@@ATL@@UAGKXZ
	DD	FLAT:?Release@?$CComObject@V?$CComEnum@UIEnumConnections@@$1?_GUID_b196b287_bab4_101a_b69c_00aa00341d07@@3U__s_GUID@@BUtagCONNECTDATA@@V?$_Copy@UtagCONNECTDATA@@@ATL@@VCComSingleThreadModel@6@@ATL@@@ATL@@UAGKXZ
	DD	FLAT:?Next@?$CComEnumImpl@UIEnumConnections@@$1?_GUID_b196b287_bab4_101a_b69c_00aa00341d07@@3U__s_GUID@@BUtagCONNECTDATA@@V?$_Copy@UtagCONNECTDATA@@@ATL@@@ATL@@UAGJKPAUtagCONNECTDATA@@PAK@Z
	DD	FLAT:?Skip@?$CComEnumImpl@UIEnumConnections@@$1?_GUID_b196b287_bab4_101a_b69c_00aa00341d07@@3U__s_GUID@@BUtagCONNECTDATA@@V?$_Copy@UtagCONNECTDATA@@@ATL@@@ATL@@UAGJK@Z
	DD	FLAT:?Reset@?$CComEnumImpl@UIEnumConnections@@$1?_GUID_b196b287_bab4_101a_b69c_00aa00341d07@@3U__s_GUID@@BUtagCONNECTDATA@@V?$_Copy@UtagCONNECTDATA@@@ATL@@@ATL@@UAGJXZ
	DD	FLAT:?Clone@?$CComEnumImpl@UIEnumConnections@@$1?_GUID_b196b287_bab4_101a_b69c_00aa00341d07@@3U__s_GUID@@BUtagCONNECTDATA@@V?$_Copy@UtagCONNECTDATA@@@ATL@@@ATL@@UAGJPAPAUIEnumConnections@@@Z
	DD	FLAT:??_E?$CComObject@V?$CComEnum@UIEnumConnections@@$1?_GUID_b196b287_bab4_101a_b69c_00aa00341d07@@3U__s_GUID@@BUtagCONNECTDATA@@V?$_Copy@UtagCONNECTDATA@@@ATL@@VCComSingleThreadModel@6@@ATL@@@ATL@@UAEPAXI@Z
CONST	ENDS
;	COMDAT ?rcDefault@CWindow@ATL@@2UtagRECT@@A
_DATA	SEGMENT
?rcDefault@CWindow@ATL@@2UtagRECT@@A DD 080000000H	; ATL::CWindow::rcDefault
	DD	080000000H
	DD	00H
	DD	00H
_DATA	ENDS
;	COMDAT _IID_IInternalConnection
CONST	SEGMENT
_IID_IInternalConnection DD 072ad0770H
	DW	06a9fH
	DW	011d1H
	DB	0bcH
	DB	0ecH
	DB	00H
	DB	060H
	DB	08H
	DB	08fH
	DB	044H
	DB	04eH
CONST	ENDS
;	COMDAT _IID_IAxWinAmbientDispatchEx
CONST	SEGMENT
_IID_IAxWinAmbientDispatchEx DD 0b2d0778bH
	DW	0ac99H
	DW	04c58H
	DB	0a5H
	DB	0c8H
	DB	0e7H
	DB	072H
	DB	04eH
	DB	053H
	DB	016H
	DB	0b5H
CONST	ENDS
;	COMDAT __GUID_00020401_0000_0000_c000_000000000046
CONST	SEGMENT
__GUID_00020401_0000_0000_c000_000000000046 DD 020401H
	DW	00H
	DW	00H
	DB	0c0H
	DB	00H
	DB	00H
	DB	00H
	DB	00H
	DB	00H
	DB	00H
	DB	046H
CONST	ENDS
;	COMDAT __GUID_00020412_0000_0000_c000_000000000046
CONST	SEGMENT
__GUID_00020412_0000_0000_c000_000000000046 DD 020412H
	DW	00H
	DW	00H
	DB	0c0H
	DB	00H
	DB	00H
	DB	00H
	DB	00H
	DB	00H
	DB	00H
	DB	046H
CONST	ENDS
;	COMDAT _IID_IAxWinAmbientDispatch
CONST	SEGMENT
_IID_IAxWinAmbientDispatch DD 0b6ea2051H
	DW	048aH
	DW	011d1H
	DB	082H
	DB	0b9H
	DB	00H
	DB	0c0H
	DB	04fH
	DB	0b9H
	DB	094H
	DB	02eH
CONST	ENDS
;	COMDAT ?_entries@?1??_GetEntries@?$CComEnum@UIEnumConnectionPoints@@$1?_GUID_b196b285_bab4_101a_b69c_00aa00341d07@@3U__s_GUID@@BPAUIConnectionPoint@@V?$_CopyInterface@UIConnectionPoint@@@ATL@@VCComSingleThreadModel@6@@ATL@@SGPBU_ATL_INTMAP_ENTRY@3@XZ@4QBU43@B
CONST	SEGMENT
?_entries@?1??_GetEntries@?$CComEnum@UIEnumConnectionPoints@@$1?_GUID_b196b285_bab4_101a_b69c_00aa00341d07@@3U__s_GUID@@BPAUIConnectionPoint@@V?$_CopyInterface@UIConnectionPoint@@@ATL@@VCComSingleThreadModel@6@@ATL@@SGPBU_ATL_INTMAP_ENTRY@3@XZ@4QBU43@B DD FLAT:__GUID_b196b285_bab4_101a_b69c_00aa00341d07 ; `ATL::CComEnum<IEnumConnectionPoints,&_GUID_b196b285_bab4_101a_b69c_00aa00341d07,IConnectionPoint *,ATL::_CopyInterface<IConnectionPoint>,ATL::CComSingleThreadModel>::_GetEntries'::`2'::_entries
	DD	00H
	DD	01H
	DD	00H
	DD	00H
	DD	00H
CONST	ENDS
;	COMDAT _IID_IAxWinHostWindowLic
CONST	SEGMENT
_IID_IAxWinHostWindowLic DD 03935bda8H
	DW	04ed9H
	DW	0495cH
	DB	086H
	DB	050H
	DB	0e0H
	DB	01fH
	DB	0c1H
	DB	0e3H
	DB	08aH
	DB	04bH
CONST	ENDS
;	COMDAT __GUID_b196b284_bab4_101a_b69c_00aa00341d07
CONST	SEGMENT
__GUID_b196b284_bab4_101a_b69c_00aa00341d07 DD 0b196b284H
	DW	0bab4H
	DW	0101aH
	DB	0b6H
	DB	09cH
	DB	00H
	DB	0aaH
	DB	00H
	DB	034H
	DB	01dH
	DB	07H
CONST	ENDS
;	COMDAT ?wc@?1??GetWndClassInfo@?$CWindowImpl@VCOPOSDeviceMonitor@@VCWindow@ATL@@V?$CWinTraits@$0FGAAAAAA@$0A@@3@@ATL@@SAAAU_ATL_WNDCLASSINFOW@3@XZ@4U43@A
_DATA	SEGMENT
?wc@?1??GetWndClassInfo@?$CWindowImpl@VCOPOSDeviceMonitor@@VCWindow@ATL@@V?$CWinTraits@$0FGAAAAAA@$0A@@3@@ATL@@SAAAU_ATL_WNDCLASSINFOW@3@XZ@4U43@A DD 030H ; `ATL::CWindowImpl<COPOSDeviceMonitor,ATL::CWindow,ATL::CWinTraits<1442840576,0> >::GetWndClassInfo'::`2'::wc
	DD	0bH
	DD	FLAT:?StartWindowProc@?$CWindowImplBaseT@VCWindow@ATL@@V?$CWinTraits@$0FGAAAAAA@$0A@@2@@ATL@@SGJPAUHWND__@@IIJ@Z
	DD	00H
	DD	00H
	DD	00H
	DD	00H
	DD	00H
	DD	06H
	DD	00H
	DD	00H
	DD	00H
	DD	00H
	DD	00H
	DD	07f00H
	DD	01H
	DW	00H
	DB	00H, 00H
	ORG $+72
_DATA	ENDS
;	COMDAT __GUID_9bfbbc02_eff1_101a_84ed_00aa00341d07
CONST	SEGMENT
__GUID_9bfbbc02_eff1_101a_84ed_00aa00341d07 DD 09bfbbc02H
	DW	0eff1H
	DW	0101aH
	DB	084H
	DB	0edH
	DB	00H
	DB	0aaH
	DB	00H
	DB	034H
	DB	01dH
	DB	07H
CONST	ENDS
;	COMDAT _IID_IAxWinHostWindow
CONST	SEGMENT
_IID_IAxWinHostWindow DD 0b6ea2050H
	DW	048aH
	DW	011d1H
	DB	082H
	DB	0b9H
	DB	00H
	DB	0c0H
	DB	04fH
	DB	0b9H
	DB	094H
	DB	02eH
CONST	ENDS
;	COMDAT ??_C@_1BA@PICGEGJB@?$AAD?$AAI?$AAS?$AAP?$AAL?$AAA?$AAY@
CONST	SEGMENT
??_C@_1BA@PICGEGJB@?$AAD?$AAI?$AAS?$AAP?$AAL?$AAA?$AAY@ DB 'D', 00H, 'I', 00H
	DB	'S', 00H, 'P', 00H, 'L', 00H, 'A', 00H, 'Y', 00H, 00H, 00H ; `string'
CONST	ENDS
;	COMDAT _IID_IDocHostUIHandlerDispatch
CONST	SEGMENT
_IID_IDocHostUIHandlerDispatch DD 0425b5af0H
	DW	065f1H
	DW	011d1H
	DB	096H
	DB	011H
	DB	00H
	DB	00H
	DB	0f8H
	DB	01eH
	DB	0dH
	DB	0dH
CONST	ENDS
;	COMDAT ??_C@_1O@GBFKGNEO@?$AAA?$AAT?$AAL?$AA?3?$AA?$CF?$AAp@
CONST	SEGMENT
??_C@_1O@GBFKGNEO@?$AAA?$AAT?$AAL?$AA?3?$AA?$CF?$AAp@ DB 'A', 00H, 'T', 00H
	DB	'L', 00H, ':', 00H, '%', 00H, 'p', 00H, 00H, 00H ; `string'
CONST	ENDS
;	COMDAT _IID_IRegistrar
CONST	SEGMENT
_IID_IRegistrar DD 044ec053bH
	DW	0400fH
	DW	011d0H
	DB	09dH
	DB	0cdH
	DB	00H
	DB	0a0H
	DB	0c9H
	DB	03H
	DB	091H
	DB	0d3H
CONST	ENDS
;	COMDAT _CLSID_Registrar
CONST	SEGMENT
_CLSID_Registrar DD 044ec053aH
	DW	0400fH
	DW	011d0H
	DB	09dH
	DB	0cdH
	DB	00H
	DB	0a0H
	DB	0c9H
	DB	03H
	DB	091H
	DB	0d3H
CONST	ENDS
;	COMDAT ??_7?$CComObject@VCOPOSDeviceMonitor@@@ATL@@6B?$CProxy_IOPOSEvents@VCOPOSDeviceMonitor@@@@@
CONST	SEGMENT
??_7?$CComObject@VCOPOSDeviceMonitor@@@ATL@@6B?$CProxy_IOPOSEvents@VCOPOSDeviceMonitor@@@@@ DD FLAT:?_LocCPQueryInterface@?$IConnectionPointImpl@VCOPOSDeviceMonitor@@$1?DIID__IOPOSDeviceMonitorEvents@@3U_GUID@@BVCComDynamicUnkArray@ATL@@@ATL@@UAGJABU_GUID@@PAPAX@Z ; ATL::CComObject<COPOSDeviceMonitor>::`vftable'
	DD	FLAT:?AddRef@?$CComObject@VCOPOSDeviceMonitor@@@ATL@@WLE@AGKXZ
	DD	FLAT:?Release@?$CComObject@VCOPOSDeviceMonitor@@@ATL@@WLE@AGKXZ
	DD	FLAT:?GetConnectionInterface@?$IConnectionPointImpl@VCOPOSDeviceMonitor@@$1?DIID__IOPOSDeviceMonitorEvents@@3U_GUID@@BVCComDynamicUnkArray@ATL@@@ATL@@UAGJPAU_GUID@@@Z
	DD	FLAT:?GetConnectionPointContainer@?$IConnectionPointImpl@VCOPOSDeviceMonitor@@$1?DIID__IOPOSDeviceMonitorEvents@@3U_GUID@@BVCComDynamicUnkArray@ATL@@@ATL@@UAGJPAPAUIConnectionPointContainer@@@Z
	DD	FLAT:?Advise@?$IConnectionPointImpl@VCOPOSDeviceMonitor@@$1?DIID__IOPOSDeviceMonitorEvents@@3U_GUID@@BVCComDynamicUnkArray@ATL@@@ATL@@UAGJPAUIUnknown@@PAK@Z
	DD	FLAT:?Unadvise@?$IConnectionPointImpl@VCOPOSDeviceMonitor@@$1?DIID__IOPOSDeviceMonitorEvents@@3U_GUID@@BVCComDynamicUnkArray@ATL@@@ATL@@UAGJK@Z
	DD	FLAT:?EnumConnections@?$IConnectionPointImpl@VCOPOSDeviceMonitor@@$1?DIID__IOPOSDeviceMonitorEvents@@3U_GUID@@BVCComDynamicUnkArray@ATL@@@ATL@@UAGJPAPAUIEnumConnections@@@Z
CONST	ENDS
;	COMDAT ??_7?$CComObject@VCOPOSDeviceMonitor@@@ATL@@6B?$IPropertyNotifySinkCP@VCOPOSDeviceMonitor@@VCComDynamicUnkArray@ATL@@@1@@
CONST	SEGMENT
??_7?$CComObject@VCOPOSDeviceMonitor@@@ATL@@6B?$IPropertyNotifySinkCP@VCOPOSDeviceMonitor@@VCComDynamicUnkArray@ATL@@@1@@ DD FLAT:?_LocCPQueryInterface@?$IConnectionPointImpl@VCOPOSDeviceMonitor@@$1?IID_IPropertyNotifySink@@3U_GUID@@BVCComDynamicUnkArray@ATL@@@ATL@@UAGJABU_GUID@@PAPAX@Z ; ATL::CComObject<COPOSDeviceMonitor>::`vftable'
	DD	FLAT:?AddRef@?$CComObject@VCOPOSDeviceMonitor@@@ATL@@WKI@AGKXZ
	DD	FLAT:?Release@?$CComObject@VCOPOSDeviceMonitor@@@ATL@@WKI@AGKXZ
	DD	FLAT:?GetConnectionInterface@?$IConnectionPointImpl@VCOPOSDeviceMonitor@@$1?IID_IPropertyNotifySink@@3U_GUID@@BVCComDynamicUnkArray@ATL@@@ATL@@UAGJPAU_GUID@@@Z
	DD	FLAT:?GetConnectionPointContainer@?$IConnectionPointImpl@VCOPOSDeviceMonitor@@$1?IID_IPropertyNotifySink@@3U_GUID@@BVCComDynamicUnkArray@ATL@@@ATL@@UAGJPAPAUIConnectionPointContainer@@@Z
	DD	FLAT:?Advise@?$IConnectionPointImpl@VCOPOSDeviceMonitor@@$1?IID_IPropertyNotifySink@@3U_GUID@@BVCComDynamicUnkArray@ATL@@@ATL@@UAGJPAUIUnknown@@PAK@Z
	DD	FLAT:?Unadvise@?$IConnectionPointImpl@VCOPOSDeviceMonitor@@$1?IID_IPropertyNotifySink@@3U_GUID@@BVCComDynamicUnkArray@ATL@@@ATL@@UAGJK@Z
	DD	FLAT:?EnumConnections@?$IConnectionPointImpl@VCOPOSDeviceMonitor@@$1?IID_IPropertyNotifySink@@3U_GUID@@BVCComDynamicUnkArray@ATL@@@ATL@@UAGJPAPAUIEnumConnections@@@Z
CONST	ENDS
;	COMDAT ??_7?$CComObject@VCOPOSDeviceMonitor@@@ATL@@6B?$IObjectSafetyImpl@VCOPOSDeviceMonitor@@$02@1@@
CONST	SEGMENT
??_7?$CComObject@VCOPOSDeviceMonitor@@@ATL@@6B?$IObjectSafetyImpl@VCOPOSDeviceMonitor@@$02@1@@ DD FLAT:?QueryInterface@?$CComObject@VCOPOSDeviceMonitor@@@ATL@@WKA@AGJABU_GUID@@PAPAX@Z ; ATL::CComObject<COPOSDeviceMonitor>::`vftable'
	DD	FLAT:?AddRef@?$CComObject@VCOPOSDeviceMonitor@@@ATL@@WKA@AGKXZ
	DD	FLAT:?Release@?$CComObject@VCOPOSDeviceMonitor@@@ATL@@WKA@AGKXZ
	DD	FLAT:?GetInterfaceSafetyOptions@?$IObjectSafetyImpl@VCOPOSDeviceMonitor@@$02@ATL@@UAGJABU_GUID@@PAK1@Z
	DD	FLAT:?SetInterfaceSafetyOptions@?$IObjectSafetyImpl@VCOPOSDeviceMonitor@@$02@ATL@@UAGJABU_GUID@@KK@Z
	DD	FLAT:?FAccessAllowed@?$IObjectSafetyImpl@VCOPOSDeviceMonitor@@$02@ATL@@MAEHXZ
CONST	ENDS
;	COMDAT ??_7?$CComObject@VCOPOSDeviceMonitor@@@ATL@@6B?$IProvideClassInfo2Impl@$1?CLSID_OPOSDeviceMonitor@@3U_GUID@@B$1?DIID__IOPOSDeviceMonitorEvents@@3U2@B$1?LIBID_OposDeviceMonitor_CCO@@3U2@B$00$0A@VCComTypeInfoHolder@ATL@@@1@@
CONST	SEGMENT
??_7?$CComObject@VCOPOSDeviceMonitor@@@ATL@@6B?$IProvideClassInfo2Impl@$1?CLSID_OPOSDeviceMonitor@@3U_GUID@@B$1?DIID__IOPOSDeviceMonitorEvents@@3U2@B$1?LIBID_OposDeviceMonitor_CCO@@3U2@B$00$0A@VCComTypeInfoHolder@ATL@@@1@@ DD FLAT:?QueryInterface@?$CComObject@VCOPOSDeviceMonitor@@@ATL@@WJM@AGJABU_GUID@@PAPAX@Z ; ATL::CComObject<COPOSDeviceMonitor>::`vftable'
	DD	FLAT:?AddRef@?$CComObject@VCOPOSDeviceMonitor@@@ATL@@WJM@AGKXZ
	DD	FLAT:?Release@?$CComObject@VCOPOSDeviceMonitor@@@ATL@@WJM@AGKXZ
	DD	FLAT:?GetClassInfoW@?$IProvideClassInfo2Impl@$1?CLSID_OPOSDeviceMonitor@@3U_GUID@@B$1?DIID__IOPOSDeviceMonitorEvents@@3U2@B$1?LIBID_OposDeviceMonitor_CCO@@3U2@B$00$0A@VCComTypeInfoHolder@ATL@@@ATL@@UAGJPAPAUITypeInfo@@@Z
	DD	FLAT:?GetGUID@?$IProvideClassInfo2Impl@$1?CLSID_OPOSDeviceMonitor@@3U_GUID@@B$1?DIID__IOPOSDeviceMonitorEvents@@3U2@B$1?LIBID_OposDeviceMonitor_CCO@@3U2@B$00$0A@VCComTypeInfoHolder@ATL@@@ATL@@UAGJKPAU_GUID@@@Z
CONST	ENDS
;	COMDAT ??_7?$CComObject@VCOPOSDeviceMonitor@@@ATL@@6B?$IDataObjectImpl@VCOPOSDeviceMonitor@@@1@@
CONST	SEGMENT
??_7?$CComObject@VCOPOSDeviceMonitor@@@ATL@@6B?$IDataObjectImpl@VCOPOSDeviceMonitor@@@1@@ DD FLAT:?QueryInterface@?$CComObject@VCOPOSDeviceMonitor@@@ATL@@WJI@AGJABU_GUID@@PAPAX@Z ; ATL::CComObject<COPOSDeviceMonitor>::`vftable'
	DD	FLAT:?AddRef@?$CComObject@VCOPOSDeviceMonitor@@@ATL@@WJI@AGKXZ
	DD	FLAT:?Release@?$CComObject@VCOPOSDeviceMonitor@@@ATL@@WJI@AGKXZ
	DD	FLAT:?GetData@?$IDataObjectImpl@VCOPOSDeviceMonitor@@@ATL@@UAGJPAUtagFORMATETC@@PAUtagSTGMEDIUM@@@Z
	DD	FLAT:?GetDataHere@?$IDataObjectImpl@VCOPOSDeviceMonitor@@@ATL@@UAGJPAUtagFORMATETC@@PAUtagSTGMEDIUM@@@Z
	DD	FLAT:?QueryGetData@?$IDataObjectImpl@VCOPOSDeviceMonitor@@@ATL@@UAGJPAUtagFORMATETC@@@Z
	DD	FLAT:?GetCanonicalFormatEtc@?$IDataObjectImpl@VCOPOSDeviceMonitor@@@ATL@@UAGJPAUtagFORMATETC@@0@Z
	DD	FLAT:?SetData@?$IDataObjectImpl@VCOPOSDeviceMonitor@@@ATL@@UAGJPAUtagFORMATETC@@PAUtagSTGMEDIUM@@H@Z
	DD	FLAT:?EnumFormatEtc@?$IDataObjectImpl@VCOPOSDeviceMonitor@@@ATL@@UAGJKPAPAUIEnumFORMATETC@@@Z
	DD	FLAT:?DAdvise@?$IDataObjectImpl@VCOPOSDeviceMonitor@@@ATL@@UAGJPAUtagFORMATETC@@KPAUIAdviseSink@@PAK@Z
	DD	FLAT:?DUnadvise@?$IDataObjectImpl@VCOPOSDeviceMonitor@@@ATL@@UAGJK@Z
	DD	FLAT:?EnumDAdvise@?$IDataObjectImpl@VCOPOSDeviceMonitor@@@ATL@@UAGJPAPAUIEnumSTATDATA@@@Z
CONST	ENDS
;	COMDAT ??_7?$CComObject@VCOPOSDeviceMonitor@@@ATL@@6B?$IQuickActivateImpl@VCOPOSDeviceMonitor@@@1@@
CONST	SEGMENT
??_7?$CComObject@VCOPOSDeviceMonitor@@@ATL@@6B?$IQuickActivateImpl@VCOPOSDeviceMonitor@@@1@@ DD FLAT:?QueryInterface@?$CComObject@VCOPOSDeviceMonitor@@@ATL@@WJE@AGJABU_GUID@@PAPAX@Z ; ATL::CComObject<COPOSDeviceMonitor>::`vftable'
	DD	FLAT:?AddRef@?$CComObject@VCOPOSDeviceMonitor@@@ATL@@WJE@AGKXZ
	DD	FLAT:?Release@?$CComObject@VCOPOSDeviceMonitor@@@ATL@@WJE@AGKXZ
	DD	FLAT:?QuickActivate@?$IQuickActivateImpl@VCOPOSDeviceMonitor@@@ATL@@UAGJPAUtagQACONTAINER@@PAUtagQACONTROL@@@Z
	DD	FLAT:?SetContentExtent@?$IQuickActivateImpl@VCOPOSDeviceMonitor@@@ATL@@UAGJPAUtagSIZE@@@Z
	DD	FLAT:?GetContentExtent@?$IQuickActivateImpl@VCOPOSDeviceMonitor@@@ATL@@UAGJPAUtagSIZE@@@Z
CONST	ENDS
;	COMDAT ??_7?$CComObject@VCOPOSDeviceMonitor@@@ATL@@6B?$ISpecifyPropertyPagesImpl@VCOPOSDeviceMonitor@@@1@@
CONST	SEGMENT
??_7?$CComObject@VCOPOSDeviceMonitor@@@ATL@@6B?$ISpecifyPropertyPagesImpl@VCOPOSDeviceMonitor@@@1@@ DD FLAT:?QueryInterface@?$CComObject@VCOPOSDeviceMonitor@@@ATL@@WJA@AGJABU_GUID@@PAPAX@Z ; ATL::CComObject<COPOSDeviceMonitor>::`vftable'
	DD	FLAT:?AddRef@?$CComObject@VCOPOSDeviceMonitor@@@ATL@@WJA@AGKXZ
	DD	FLAT:?Release@?$CComObject@VCOPOSDeviceMonitor@@@ATL@@WJA@AGKXZ
	DD	FLAT:?GetPages@?$ISpecifyPropertyPagesImpl@VCOPOSDeviceMonitor@@@ATL@@UAGJPAUtagCAUUID@@@Z
CONST	ENDS
;	COMDAT ??_7?$CComObject@VCOPOSDeviceMonitor@@@ATL@@6B?$IPersistStorageImpl@VCOPOSDeviceMonitor@@@1@@
CONST	SEGMENT
??_7?$CComObject@VCOPOSDeviceMonitor@@@ATL@@6B?$IPersistStorageImpl@VCOPOSDeviceMonitor@@@1@@ DD FLAT:?QueryInterface@?$CComObject@VCOPOSDeviceMonitor@@@ATL@@WIM@AGJABU_GUID@@PAPAX@Z ; ATL::CComObject<COPOSDeviceMonitor>::`vftable'
	DD	FLAT:?AddRef@?$CComObject@VCOPOSDeviceMonitor@@@ATL@@WIM@AGKXZ
	DD	FLAT:?Release@?$CComObject@VCOPOSDeviceMonitor@@@ATL@@WIM@AGKXZ
	DD	FLAT:?GetClassID@?$IPersistStorageImpl@VCOPOSDeviceMonitor@@@ATL@@UAGJPAU_GUID@@@Z
	DD	FLAT:?IsDirty@?$IPersistStorageImpl@VCOPOSDeviceMonitor@@@ATL@@UAGJXZ
	DD	FLAT:?InitNew@?$IPersistStorageImpl@VCOPOSDeviceMonitor@@@ATL@@UAGJPAUIStorage@@@Z
	DD	FLAT:?Load@?$IPersistStorageImpl@VCOPOSDeviceMonitor@@@ATL@@UAGJPAUIStorage@@@Z
	DD	FLAT:?Save@?$IPersistStorageImpl@VCOPOSDeviceMonitor@@@ATL@@UAGJPAUIStorage@@H@Z
	DD	FLAT:?SaveCompleted@?$IPersistStorageImpl@VCOPOSDeviceMonitor@@@ATL@@UAGJPAUIStorage@@@Z
	DD	FLAT:?HandsOffStorage@?$IPersistStorageImpl@VCOPOSDeviceMonitor@@@ATL@@UAGJXZ
CONST	ENDS
;	COMDAT ??_7?$CComObject@VCOPOSDeviceMonitor@@@ATL@@6B?$IConnectionPointContainerImpl@VCOPOSDeviceMonitor@@@1@@
CONST	SEGMENT
??_7?$CComObject@VCOPOSDeviceMonitor@@@ATL@@6B?$IConnectionPointContainerImpl@VCOPOSDeviceMonitor@@@1@@ DD FLAT:?QueryInterface@?$CComObject@VCOPOSDeviceMonitor@@@ATL@@WII@AGJABU_GUID@@PAPAX@Z ; ATL::CComObject<COPOSDeviceMonitor>::`vftable'
	DD	FLAT:?AddRef@?$CComObject@VCOPOSDeviceMonitor@@@ATL@@WII@AGKXZ
	DD	FLAT:?Release@?$CComObject@VCOPOSDeviceMonitor@@@ATL@@WII@AGKXZ
	DD	FLAT:?EnumConnectionPoints@?$IConnectionPointContainerImpl@VCOPOSDeviceMonitor@@@ATL@@UAGJPAPAUIEnumConnectionPoints@@@Z
	DD	FLAT:?FindConnectionPoint@?$IConnectionPointContainerImpl@VCOPOSDeviceMonitor@@@ATL@@UAGJABU_GUID@@PAPAUIConnectionPoint@@@Z
CONST	ENDS
;	COMDAT ??_7?$CComObject@VCOPOSDeviceMonitor@@@ATL@@6B?$IOleInPlaceObjectWindowlessImpl@VCOPOSDeviceMonitor@@@1@@
CONST	SEGMENT
??_7?$CComObject@VCOPOSDeviceMonitor@@@ATL@@6B?$IOleInPlaceObjectWindowlessImpl@VCOPOSDeviceMonitor@@@1@@ DD FLAT:?QueryInterface@?$CComObject@VCOPOSDeviceMonitor@@@ATL@@WIE@AGJABU_GUID@@PAPAX@Z ; ATL::CComObject<COPOSDeviceMonitor>::`vftable'
	DD	FLAT:?AddRef@?$CComObject@VCOPOSDeviceMonitor@@@ATL@@WIE@AGKXZ
	DD	FLAT:?Release@?$CComObject@VCOPOSDeviceMonitor@@@ATL@@WIE@AGKXZ
	DD	FLAT:?GetWindow@?$IOleInPlaceObjectWindowlessImpl@VCOPOSDeviceMonitor@@@ATL@@UAGJPAPAUHWND__@@@Z
	DD	FLAT:?ContextSensitiveHelp@?$IOleInPlaceObjectWindowlessImpl@VCOPOSDeviceMonitor@@@ATL@@UAGJH@Z
	DD	FLAT:?InPlaceDeactivate@?$IOleInPlaceObjectWindowlessImpl@VCOPOSDeviceMonitor@@@ATL@@UAGJXZ
	DD	FLAT:?UIDeactivate@?$IOleInPlaceObjectWindowlessImpl@VCOPOSDeviceMonitor@@@ATL@@UAGJXZ
	DD	FLAT:?SetObjectRects@?$IOleInPlaceObjectWindowlessImpl@VCOPOSDeviceMonitor@@@ATL@@UAGJPBUtagRECT@@0@Z
	DD	FLAT:?ReactivateAndUndo@?$IOleInPlaceObjectWindowlessImpl@VCOPOSDeviceMonitor@@@ATL@@UAGJXZ
	DD	FLAT:?OnWindowMessage@?$IOleInPlaceObjectWindowlessImpl@VCOPOSDeviceMonitor@@@ATL@@UAGJIIJPAJ@Z
	DD	FLAT:?GetDropTarget@?$IOleInPlaceObjectWindowlessImpl@VCOPOSDeviceMonitor@@@ATL@@UAGJPAPAUIDropTarget@@@Z
CONST	ENDS
;	COMDAT ??_7?$CComObject@VCOPOSDeviceMonitor@@@ATL@@6B?$IViewObjectExImpl@VCOPOSDeviceMonitor@@@1@@
CONST	SEGMENT
??_7?$CComObject@VCOPOSDeviceMonitor@@@ATL@@6B?$IViewObjectExImpl@VCOPOSDeviceMonitor@@@1@@ DD FLAT:?QueryInterface@?$CComObject@VCOPOSDeviceMonitor@@@ATL@@WIA@AGJABU_GUID@@PAPAX@Z ; ATL::CComObject<COPOSDeviceMonitor>::`vftable'
	DD	FLAT:?AddRef@?$CComObject@VCOPOSDeviceMonitor@@@ATL@@WIA@AGKXZ
	DD	FLAT:?Release@?$CComObject@VCOPOSDeviceMonitor@@@ATL@@WIA@AGKXZ
	DD	FLAT:?Draw@?$IViewObjectExImpl@VCOPOSDeviceMonitor@@@ATL@@UAGJKJPAXPAUtagDVTARGETDEVICE@@PAUHDC__@@2PBU_RECTL@@3P6GHK@ZK@Z
	DD	FLAT:?GetColorSet@?$IViewObjectExImpl@VCOPOSDeviceMonitor@@@ATL@@UAGJKJPAXPAUtagDVTARGETDEVICE@@PAUHDC__@@PAPAUtagLOGPALETTE@@@Z
	DD	FLAT:?Freeze@?$IViewObjectExImpl@VCOPOSDeviceMonitor@@@ATL@@UAGJKJPAXPAK@Z
	DD	FLAT:?Unfreeze@?$IViewObjectExImpl@VCOPOSDeviceMonitor@@@ATL@@UAGJK@Z
	DD	FLAT:?SetAdvise@?$IViewObjectExImpl@VCOPOSDeviceMonitor@@@ATL@@UAGJKKPAUIAdviseSink@@@Z
	DD	FLAT:?GetAdvise@?$IViewObjectExImpl@VCOPOSDeviceMonitor@@@ATL@@UAGJPAK0PAPAUIAdviseSink@@@Z
	DD	FLAT:?GetExtent@?$IViewObjectExImpl@VCOPOSDeviceMonitor@@@ATL@@UAGJKJPAUtagDVTARGETDEVICE@@PAUtagSIZE@@@Z
	DD	FLAT:?GetRect@?$IViewObjectExImpl@VCOPOSDeviceMonitor@@@ATL@@UAGJKPAU_RECTL@@@Z
	DD	FLAT:?GetViewStatus@?$IViewObjectExImpl@VCOPOSDeviceMonitor@@@ATL@@UAGJPAK@Z
	DD	FLAT:?QueryHitPoint@?$IViewObjectExImpl@VCOPOSDeviceMonitor@@@ATL@@UAGJKPBUtagRECT@@UtagPOINT@@JPAK@Z
	DD	FLAT:?QueryHitRect@?$IViewObjectExImpl@VCOPOSDeviceMonitor@@@ATL@@UAGJKPBUtagRECT@@0JPAK@Z
	DD	FLAT:?GetNaturalExtent@?$IViewObjectExImpl@VCOPOSDeviceMonitor@@@ATL@@UAGJKJPAUtagDVTARGETDEVICE@@PAUHDC__@@PAUtagExtentInfo@@PAUtagSIZE@@@Z
CONST	ENDS
;	COMDAT ??_7?$CComObject@VCOPOSDeviceMonitor@@@ATL@@6B?$IOleInPlaceActiveObjectImpl@VCOPOSDeviceMonitor@@@1@@
CONST	SEGMENT
??_7?$CComObject@VCOPOSDeviceMonitor@@@ATL@@6B?$IOleInPlaceActiveObjectImpl@VCOPOSDeviceMonitor@@@1@@ DD FLAT:?QueryInterface@?$CComObject@VCOPOSDeviceMonitor@@@ATL@@WHM@AGJABU_GUID@@PAPAX@Z ; ATL::CComObject<COPOSDeviceMonitor>::`vftable'
	DD	FLAT:?AddRef@?$CComObject@VCOPOSDeviceMonitor@@@ATL@@WHM@AGKXZ
	DD	FLAT:?Release@?$CComObject@VCOPOSDeviceMonitor@@@ATL@@WHM@AGKXZ
	DD	FLAT:?GetWindow@?$IOleInPlaceActiveObjectImpl@VCOPOSDeviceMonitor@@@ATL@@UAGJPAPAUHWND__@@@Z
	DD	FLAT:?ContextSensitiveHelp@?$IOleInPlaceActiveObjectImpl@VCOPOSDeviceMonitor@@@ATL@@UAGJH@Z
	DD	FLAT:?TranslateAcceleratorW@?$IOleInPlaceActiveObjectImpl@VCOPOSDeviceMonitor@@@ATL@@UAGJPAUtagMSG@@@Z
	DD	FLAT:?OnFrameWindowActivate@?$IOleInPlaceActiveObjectImpl@VCOPOSDeviceMonitor@@@ATL@@UAGJH@Z
	DD	FLAT:?OnDocWindowActivate@?$IOleInPlaceActiveObjectImpl@VCOPOSDeviceMonitor@@@ATL@@UAGJH@Z
	DD	FLAT:?ResizeBorder@?$IOleInPlaceActiveObjectImpl@VCOPOSDeviceMonitor@@@ATL@@UAGJPBUtagRECT@@PAUIOleInPlaceUIWindow@@H@Z
	DD	FLAT:?EnableModeless@?$IOleInPlaceActiveObjectImpl@VCOPOSDeviceMonitor@@@ATL@@UAGJH@Z
CONST	ENDS
;	COMDAT ??_7?$CComObject@VCOPOSDeviceMonitor@@@ATL@@6B?$IOleObjectImpl@VCOPOSDeviceMonitor@@@1@@
CONST	SEGMENT
??_7?$CComObject@VCOPOSDeviceMonitor@@@ATL@@6B?$IOleObjectImpl@VCOPOSDeviceMonitor@@@1@@ DD FLAT:?QueryInterface@?$CComObject@VCOPOSDeviceMonitor@@@ATL@@WHI@AGJABU_GUID@@PAPAX@Z ; ATL::CComObject<COPOSDeviceMonitor>::`vftable'
	DD	FLAT:?AddRef@?$CComObject@VCOPOSDeviceMonitor@@@ATL@@WHI@AGKXZ
	DD	FLAT:?Release@?$CComObject@VCOPOSDeviceMonitor@@@ATL@@WHI@AGKXZ
	DD	FLAT:?SetClientSite@?$IOleObjectImpl@VCOPOSDeviceMonitor@@@ATL@@UAGJPAUIOleClientSite@@@Z
	DD	FLAT:?GetClientSite@?$IOleObjectImpl@VCOPOSDeviceMonitor@@@ATL@@UAGJPAPAUIOleClientSite@@@Z
	DD	FLAT:?SetHostNames@?$IOleObjectImpl@VCOPOSDeviceMonitor@@@ATL@@UAGJPB_W0@Z
	DD	FLAT:?Close@?$IOleObjectImpl@VCOPOSDeviceMonitor@@@ATL@@UAGJK@Z
	DD	FLAT:?SetMoniker@?$IOleObjectImpl@VCOPOSDeviceMonitor@@@ATL@@UAGJKPAUIMoniker@@@Z
	DD	FLAT:?GetMoniker@?$IOleObjectImpl@VCOPOSDeviceMonitor@@@ATL@@UAGJKKPAPAUIMoniker@@@Z
	DD	FLAT:?InitFromData@?$IOleObjectImpl@VCOPOSDeviceMonitor@@@ATL@@UAGJPAUIDataObject@@HK@Z
	DD	FLAT:?GetClipboardData@?$IOleObjectImpl@VCOPOSDeviceMonitor@@@ATL@@UAGJKPAPAUIDataObject@@@Z
	DD	FLAT:?DoVerb@?$IOleObjectImpl@VCOPOSDeviceMonitor@@@ATL@@UAGJJPAUtagMSG@@PAUIOleClientSite@@JPAUHWND__@@PBUtagRECT@@@Z
	DD	FLAT:?EnumVerbs@?$IOleObjectImpl@VCOPOSDeviceMonitor@@@ATL@@UAGJPAPAUIEnumOLEVERB@@@Z
	DD	FLAT:?Update@?$IOleObjectImpl@VCOPOSDeviceMonitor@@@ATL@@UAGJXZ
	DD	FLAT:?IsUpToDate@?$IOleObjectImpl@VCOPOSDeviceMonitor@@@ATL@@UAGJXZ
	DD	FLAT:?GetUserClassID@?$IOleObjectImpl@VCOPOSDeviceMonitor@@@ATL@@UAGJPAU_GUID@@@Z
	DD	FLAT:?GetUserType@?$IOleObjectImpl@VCOPOSDeviceMonitor@@@ATL@@UAGJKPAPA_W@Z
	DD	FLAT:?SetExtent@?$IOleObjectImpl@VCOPOSDeviceMonitor@@@ATL@@UAGJKPAUtagSIZE@@@Z
	DD	FLAT:?GetExtent@?$IOleObjectImpl@VCOPOSDeviceMonitor@@@ATL@@UAGJKPAUtagSIZE@@@Z
	DD	FLAT:?Advise@?$IOleObjectImpl@VCOPOSDeviceMonitor@@@ATL@@UAGJPAUIAdviseSink@@PAK@Z
	DD	FLAT:?Unadvise@?$IOleObjectImpl@VCOPOSDeviceMonitor@@@ATL@@UAGJK@Z
	DD	FLAT:?EnumAdvise@?$IOleObjectImpl@VCOPOSDeviceMonitor@@@ATL@@UAGJPAPAUIEnumSTATDATA@@@Z
	DD	FLAT:?GetMiscStatus@?$IOleObjectImpl@VCOPOSDeviceMonitor@@@ATL@@UAGJKPAK@Z
	DD	FLAT:?SetColorScheme@?$IOleObjectImpl@VCOPOSDeviceMonitor@@@ATL@@UAGJPAUtagLOGPALETTE@@@Z
CONST	ENDS
;	COMDAT ??_7?$CComObject@VCOPOSDeviceMonitor@@@ATL@@6B?$IOleControlImpl@VCOPOSDeviceMonitor@@@1@@
CONST	SEGMENT
??_7?$CComObject@VCOPOSDeviceMonitor@@@ATL@@6B?$IOleControlImpl@VCOPOSDeviceMonitor@@@1@@ DD FLAT:?QueryInterface@?$CComObject@VCOPOSDeviceMonitor@@@ATL@@WHE@AGJABU_GUID@@PAPAX@Z ; ATL::CComObject<COPOSDeviceMonitor>::`vftable'
	DD	FLAT:?AddRef@?$CComObject@VCOPOSDeviceMonitor@@@ATL@@WHE@AGKXZ
	DD	FLAT:?Release@?$CComObject@VCOPOSDeviceMonitor@@@ATL@@WHE@AGKXZ
	DD	FLAT:?GetControlInfo@?$IOleControlImpl@VCOPOSDeviceMonitor@@@ATL@@UAGJPAUtagCONTROLINFO@@@Z
	DD	FLAT:?OnMnemonic@?$IOleControlImpl@VCOPOSDeviceMonitor@@@ATL@@UAGJPAUtagMSG@@@Z
	DD	FLAT:?OnAmbientPropertyChange@?$IOleControlImpl@VCOPOSDeviceMonitor@@@ATL@@UAGJJ@Z
	DD	FLAT:?FreezeEvents@COPOSDeviceMonitor@@MAGJH@Z
CONST	ENDS
;	COMDAT ??_7?$CComObject@VCOPOSDeviceMonitor@@@ATL@@6B?$IPersistStreamInitImpl@VCOPOSDeviceMonitor@@@1@@
CONST	SEGMENT
??_7?$CComObject@VCOPOSDeviceMonitor@@@ATL@@6B?$IPersistStreamInitImpl@VCOPOSDeviceMonitor@@@1@@ DD FLAT:?QueryInterface@?$CComObject@VCOPOSDeviceMonitor@@@ATL@@WHA@AGJABU_GUID@@PAPAX@Z ; ATL::CComObject<COPOSDeviceMonitor>::`vftable'
	DD	FLAT:?AddRef@?$CComObject@VCOPOSDeviceMonitor@@@ATL@@WHA@AGKXZ
	DD	FLAT:?Release@?$CComObject@VCOPOSDeviceMonitor@@@ATL@@WHA@AGKXZ
	DD	FLAT:?GetClassID@?$IPersistStreamInitImpl@VCOPOSDeviceMonitor@@@ATL@@UAGJPAU_GUID@@@Z
	DD	FLAT:?IsDirty@?$IPersistStreamInitImpl@VCOPOSDeviceMonitor@@@ATL@@UAGJXZ
	DD	FLAT:?Load@?$IPersistStreamInitImpl@VCOPOSDeviceMonitor@@@ATL@@UAGJPAUIStream@@@Z
	DD	FLAT:?Save@?$IPersistStreamInitImpl@VCOPOSDeviceMonitor@@@ATL@@UAGJPAUIStream@@H@Z
	DD	FLAT:?GetSizeMax@?$IPersistStreamInitImpl@VCOPOSDeviceMonitor@@@ATL@@UAGJPAT_ULARGE_INTEGER@@@Z
	DD	FLAT:?InitNew@?$IPersistStreamInitImpl@VCOPOSDeviceMonitor@@@ATL@@UAGJXZ
CONST	ENDS
;	COMDAT ??_7?$CComObject@VCOPOSDeviceMonitor@@@ATL@@6B?$CWindowImpl@VCOPOSDeviceMonitor@@VCWindow@ATL@@V?$CWinTraits@$0FGAAAAAA@$0A@@3@@1@@
CONST	SEGMENT
??_7?$CComObject@VCOPOSDeviceMonitor@@@ATL@@6B?$CWindowImpl@VCOPOSDeviceMonitor@@VCWindow@ATL@@V?$CWinTraits@$0FGAAAAAA@$0A@@3@@1@@ DD FLAT:?ProcessWindowMessage@COPOSDeviceMonitor@@UAEHPAUHWND__@@IIJAAJK@Z ; ATL::CComObject<COPOSDeviceMonitor>::`vftable'
	DD	FLAT:??_E?$CComObject@VCOPOSDeviceMonitor@@@ATL@@WEM@AEPAXI@Z
	DD	FLAT:?GetWindowProc@?$CWindowImplBaseT@VCWindow@ATL@@V?$CWinTraits@$0FGAAAAAA@$0A@@2@@ATL@@UAEP6GJPAUHWND__@@IIJ@ZXZ
	DD	FLAT:?OnFinalMessage@?$CWindowImplBaseT@VCWindow@ATL@@V?$CWinTraits@$0FGAAAAAA@$0A@@2@@ATL@@UAEXPAUHWND__@@@Z
CONST	ENDS
;	COMDAT ??_7?$CComObject@VCOPOSDeviceMonitor@@@ATL@@6BCComControlBase@1@@
CONST	SEGMENT
??_7?$CComObject@VCOPOSDeviceMonitor@@@ATL@@6BCComControlBase@1@@ DD FLAT:??_E?$CComObject@VCOPOSDeviceMonitor@@@ATL@@W3AEPAXI@Z ; ATL::CComObject<COPOSDeviceMonitor>::`vftable'
	DD	FLAT:?CreateControlWindow@?$CComControl@VCOPOSDeviceMonitor@@V?$CWindowImpl@VCOPOSDeviceMonitor@@VCWindow@ATL@@V?$CWinTraits@$0FGAAAAAA@$0A@@3@@ATL@@@ATL@@UAEPAUHWND__@@PAU3@AAUtagRECT@@@Z
	DD	FLAT:?ControlQueryInterface@?$CComControl@VCOPOSDeviceMonitor@@V?$CWindowImpl@VCOPOSDeviceMonitor@@VCWindow@ATL@@V?$CWinTraits@$0FGAAAAAA@$0A@@3@@ATL@@@ATL@@UAEJABU_GUID@@PAPAX@Z
	DD	FLAT:?OnDrawAdvanced@CComControlBase@ATL@@UAEJAAUATL_DRAWINFO@@@Z
	DD	FLAT:?OnDraw@COPOSDeviceMonitor@@MAEJAAUATL_DRAWINFO@@@Z
CONST	ENDS
;	COMDAT ??_7?$CComObject@VCOPOSDeviceMonitor@@@ATL@@6B?$IDispatchImpl@UIOPOSDeviceMonitor@@$1?IID_IOPOSDeviceMonitor@@3U_GUID@@B$1?LIBID_OposDeviceMonitor_CCO@@3U3@B$00$0A@VCComTypeInfoHolder@ATL@@@1@@
CONST	SEGMENT
??_7?$CComObject@VCOPOSDeviceMonitor@@@ATL@@6B?$IDispatchImpl@UIOPOSDeviceMonitor@@$1?IID_IOPOSDeviceMonitor@@3U_GUID@@B$1?LIBID_OposDeviceMonitor_CCO@@3U3@B$00$0A@VCComTypeInfoHolder@ATL@@@1@@ DD FLAT:?QueryInterface@?$CComObject@VCOPOSDeviceMonitor@@@ATL@@UAGJABU_GUID@@PAPAX@Z ; ATL::CComObject<COPOSDeviceMonitor>::`vftable'
	DD	FLAT:?AddRef@?$CComObject@VCOPOSDeviceMonitor@@@ATL@@UAGKXZ
	DD	FLAT:?Release@?$CComObject@VCOPOSDeviceMonitor@@@ATL@@UAGKXZ
	DD	FLAT:?GetTypeInfoCount@?$IDispatchImpl@UIOPOSDeviceMonitor@@$1?IID_IOPOSDeviceMonitor@@3U_GUID@@B$1?LIBID_OposDeviceMonitor_CCO@@3U3@B$00$0A@VCComTypeInfoHolder@ATL@@@ATL@@UAGJPAI@Z
	DD	FLAT:?GetTypeInfo@?$IDispatchImpl@UIOPOSDeviceMonitor@@$1?IID_IOPOSDeviceMonitor@@3U_GUID@@B$1?LIBID_OposDeviceMonitor_CCO@@3U3@B$00$0A@VCComTypeInfoHolder@ATL@@@ATL@@UAGJIKPAPAUITypeInfo@@@Z
	DD	FLAT:?GetIDsOfNames@?$IDispatchImpl@UIOPOSDeviceMonitor@@$1?IID_IOPOSDeviceMonitor@@3U_GUID@@B$1?LIBID_OposDeviceMonitor_CCO@@3U3@B$00$0A@VCComTypeInfoHolder@ATL@@@ATL@@UAGJABU_GUID@@PAPA_WIKPAJ@Z
	DD	FLAT:?Invoke@?$IDispatchImpl@UIOPOSDeviceMonitor@@$1?IID_IOPOSDeviceMonitor@@3U_GUID@@B$1?LIBID_OposDeviceMonitor_CCO@@3U3@B$00$0A@VCComTypeInfoHolder@ATL@@@ATL@@UAGJJABU_GUID@@KGPAUtagDISPPARAMS@@PAUtagVARIANT@@PAUtagEXCEPINFO@@PAI@Z
	DD	FLAT:?SOData@COPOSDeviceMonitor@@MAGJJ@Z
	DD	FLAT:?SODirectIO@COPOSDeviceMonitor@@MAGJJPAJPAPA_W@Z
	DD	FLAT:?SOError@COPOSDeviceMonitor@@MAGJJJJPAJ@Z
	DD	FLAT:?SOOutputCompleteDummy@COPOSDeviceMonitor@@MAGJJ@Z
	DD	FLAT:?SOStatusUpdate@COPOSDeviceMonitor@@MAGJJ@Z
	DD	FLAT:?SOProcessID@COPOSDeviceMonitor@@UAGJPAJ@Z
	DD	FLAT:?get_OpenResult@COPOSDeviceMonitor@@UAGJPAJ@Z
	DD	FLAT:?get_AutoDisable@COPOSDeviceMonitor@@UAGJPAF@Z
	DD	FLAT:?put_AutoDisable@COPOSDeviceMonitor@@UAGJF@Z
	DD	FLAT:?get_BinaryConversion@COPOSDeviceMonitor@@UAGJPAJ@Z
	DD	FLAT:?put_BinaryConversion@COPOSDeviceMonitor@@UAGJJ@Z
	DD	FLAT:?get_CapPowerReporting@COPOSDeviceMonitor@@UAGJPAJ@Z
	DD	FLAT:?get_CheckHealthText@COPOSDeviceMonitor@@UAGJPAPA_W@Z
	DD	FLAT:?get_Claimed@COPOSDeviceMonitor@@UAGJPAF@Z
	DD	FLAT:?get_DataCount@COPOSDeviceMonitor@@UAGJPAJ@Z
	DD	FLAT:?get_DataEventEnabled@COPOSDeviceMonitor@@UAGJPAF@Z
	DD	FLAT:?put_DataEventEnabled@COPOSDeviceMonitor@@UAGJF@Z
	DD	FLAT:?get_DeviceEnabled@COPOSDeviceMonitor@@UAGJPAF@Z
	DD	FLAT:?put_DeviceEnabled@COPOSDeviceMonitor@@UAGJF@Z
	DD	FLAT:?get_FreezeEvents@COPOSDeviceMonitor@@UAGJPAF@Z
	DD	FLAT:?put_FreezeEvents@COPOSDeviceMonitor@@UAGJF@Z
	DD	FLAT:?get_PowerNotify@COPOSDeviceMonitor@@UAGJPAJ@Z
	DD	FLAT:?put_PowerNotify@COPOSDeviceMonitor@@UAGJJ@Z
	DD	FLAT:?get_PowerState@COPOSDeviceMonitor@@UAGJPAJ@Z
	DD	FLAT:?get_ResultCode@COPOSDeviceMonitor@@UAGJPAJ@Z
	DD	FLAT:?get_ResultCodeExtended@COPOSDeviceMonitor@@UAGJPAJ@Z
	DD	FLAT:?get_State@COPOSDeviceMonitor@@UAGJPAJ@Z
	DD	FLAT:?get_ControlObjectDescription@COPOSDeviceMonitor@@UAGJPAPA_W@Z
	DD	FLAT:?get_ControlObjectVersion@COPOSDeviceMonitor@@UAGJPAJ@Z
	DD	FLAT:?get_ServiceObjectDescription@COPOSDeviceMonitor@@UAGJPAPA_W@Z
	DD	FLAT:?get_ServiceObjectVersion@COPOSDeviceMonitor@@UAGJPAJ@Z
	DD	FLAT:?get_DeviceDescription@COPOSDeviceMonitor@@UAGJPAPA_W@Z
	DD	FLAT:?get_DeviceName@COPOSDeviceMonitor@@UAGJPAPA_W@Z
	DD	FLAT:?get_CapStatisticsReporting@COPOSDeviceMonitor@@UAGJPAF@Z
	DD	FLAT:?get_CapUpdateStatistics@COPOSDeviceMonitor@@UAGJPAF@Z
	DD	FLAT:?get_CapCompareFirmwareVersion@COPOSDeviceMonitor@@UAGJPAF@Z
	DD	FLAT:?get_CapUpdateFirmware@COPOSDeviceMonitor@@UAGJPAF@Z
	DD	FLAT:?CheckHealth@COPOSDeviceMonitor@@UAGJJPAJ@Z
	DD	FLAT:?ClaimDevice@COPOSDeviceMonitor@@UAGJJPAJ@Z
	DD	FLAT:?ClearInput@COPOSDeviceMonitor@@UAGJPAJ@Z
	DD	FLAT:?Close@COPOSDeviceMonitor@@UAGJPAJ@Z
	DD	FLAT:?DirectIO@COPOSDeviceMonitor@@UAGJJPAJPAPA_W0@Z
	DD	FLAT:?Open@COPOSDeviceMonitor@@UAGJPA_WPAJ@Z
	DD	FLAT:?ReleaseDevice@COPOSDeviceMonitor@@UAGJPAJ@Z
	DD	FLAT:?ResetStatistics@COPOSDeviceMonitor@@UAGJPA_WPAJ@Z
	DD	FLAT:?RetrieveStatistics@COPOSDeviceMonitor@@UAGJPAPA_WPAJ@Z
	DD	FLAT:?UpdateStatistics@COPOSDeviceMonitor@@UAGJPA_WPAJ@Z
	DD	FLAT:?CompareFirmwareVersion@COPOSDeviceMonitor@@UAGJPA_WPAJ1@Z
	DD	FLAT:?UpdateFirmware@COPOSDeviceMonitor@@UAGJPA_WPAJ@Z
	DD	FLAT:?ClearInputProperties@COPOSDeviceMonitor@@UAGJPAJ@Z
	DD	FLAT:?get_DeviceData@COPOSDeviceMonitor@@UAGJPAPA_W@Z
	DD	FLAT:?get_DeviceList@COPOSDeviceMonitor@@UAGJPAPA_W@Z
	DD	FLAT:?get_MonitoringDeviceList@COPOSDeviceMonitor@@UAGJPAPA_W@Z
	DD	FLAT:?AddMonitoringDevice@COPOSDeviceMonitor@@UAGJPA_WJJJJPAJ@Z
	DD	FLAT:?ClearMonitoringDevice@COPOSDeviceMonitor@@UAGJPAJ@Z
	DD	FLAT:?DeleteMonitoringDevice@COPOSDeviceMonitor@@UAGJPA_WPAJ@Z
	DD	FLAT:?GetDeviceValue@COPOSDeviceMonitor@@UAGJPA_WPAJ1@Z
CONST	ENDS
;	COMDAT ??_7?$CComAggObject@VCOPOSDeviceMonitor@@@ATL@@6B@
CONST	SEGMENT
??_7?$CComAggObject@VCOPOSDeviceMonitor@@@ATL@@6B@ DD FLAT:?QueryInterface@?$CComAggObject@VCOPOSDeviceMonitor@@@ATL@@UAGJABU_GUID@@PAPAX@Z ; ATL::CComAggObject<COPOSDeviceMonitor>::`vftable'
	DD	FLAT:?AddRef@?$CComAggObject@VCOPOSDeviceMonitor@@@ATL@@UAGKXZ
	DD	FLAT:?Release@?$CComAggObject@VCOPOSDeviceMonitor@@@ATL@@UAGKXZ
	DD	FLAT:??_E?$CComAggObject@VCOPOSDeviceMonitor@@@ATL@@UAEPAXI@Z
CONST	ENDS
;	COMDAT ??_7?$CComContainedObject@VCOPOSDeviceMonitor@@@ATL@@6B?$CProxy_IOPOSEvents@VCOPOSDeviceMonitor@@@@@
CONST	SEGMENT
??_7?$CComContainedObject@VCOPOSDeviceMonitor@@@ATL@@6B?$CProxy_IOPOSEvents@VCOPOSDeviceMonitor@@@@@ DD FLAT:?_LocCPQueryInterface@?$IConnectionPointImpl@VCOPOSDeviceMonitor@@$1?DIID__IOPOSDeviceMonitorEvents@@3U_GUID@@BVCComDynamicUnkArray@ATL@@@ATL@@UAGJABU_GUID@@PAPAX@Z ; ATL::CComContainedObject<COPOSDeviceMonitor>::`vftable'
	DD	FLAT:?AddRef@?$CComContainedObject@VCOPOSDeviceMonitor@@@ATL@@WLE@AGKXZ
	DD	FLAT:?Release@?$CComContainedObject@VCOPOSDeviceMonitor@@@ATL@@WLE@AGKXZ
	DD	FLAT:?GetConnectionInterface@?$IConnectionPointImpl@VCOPOSDeviceMonitor@@$1?DIID__IOPOSDeviceMonitorEvents@@3U_GUID@@BVCComDynamicUnkArray@ATL@@@ATL@@UAGJPAU_GUID@@@Z
	DD	FLAT:?GetConnectionPointContainer@?$IConnectionPointImpl@VCOPOSDeviceMonitor@@$1?DIID__IOPOSDeviceMonitorEvents@@3U_GUID@@BVCComDynamicUnkArray@ATL@@@ATL@@UAGJPAPAUIConnectionPointContainer@@@Z
	DD	FLAT:?Advise@?$IConnectionPointImpl@VCOPOSDeviceMonitor@@$1?DIID__IOPOSDeviceMonitorEvents@@3U_GUID@@BVCComDynamicUnkArray@ATL@@@ATL@@UAGJPAUIUnknown@@PAK@Z
	DD	FLAT:?Unadvise@?$IConnectionPointImpl@VCOPOSDeviceMonitor@@$1?DIID__IOPOSDeviceMonitorEvents@@3U_GUID@@BVCComDynamicUnkArray@ATL@@@ATL@@UAGJK@Z
	DD	FLAT:?EnumConnections@?$IConnectionPointImpl@VCOPOSDeviceMonitor@@$1?DIID__IOPOSDeviceMonitorEvents@@3U_GUID@@BVCComDynamicUnkArray@ATL@@@ATL@@UAGJPAPAUIEnumConnections@@@Z
CONST	ENDS
;	COMDAT ??_7?$CComContainedObject@VCOPOSDeviceMonitor@@@ATL@@6B?$IPropertyNotifySinkCP@VCOPOSDeviceMonitor@@VCComDynamicUnkArray@ATL@@@1@@
CONST	SEGMENT
??_7?$CComContainedObject@VCOPOSDeviceMonitor@@@ATL@@6B?$IPropertyNotifySinkCP@VCOPOSDeviceMonitor@@VCComDynamicUnkArray@ATL@@@1@@ DD FLAT:?_LocCPQueryInterface@?$IConnectionPointImpl@VCOPOSDeviceMonitor@@$1?IID_IPropertyNotifySink@@3U_GUID@@BVCComDynamicUnkArray@ATL@@@ATL@@UAGJABU_GUID@@PAPAX@Z ; ATL::CComContainedObject<COPOSDeviceMonitor>::`vftable'
	DD	FLAT:?AddRef@?$CComContainedObject@VCOPOSDeviceMonitor@@@ATL@@WKI@AGKXZ
	DD	FLAT:?Release@?$CComContainedObject@VCOPOSDeviceMonitor@@@ATL@@WKI@AGKXZ
	DD	FLAT:?GetConnectionInterface@?$IConnectionPointImpl@VCOPOSDeviceMonitor@@$1?IID_IPropertyNotifySink@@3U_GUID@@BVCComDynamicUnkArray@ATL@@@ATL@@UAGJPAU_GUID@@@Z
	DD	FLAT:?GetConnectionPointContainer@?$IConnectionPointImpl@VCOPOSDeviceMonitor@@$1?IID_IPropertyNotifySink@@3U_GUID@@BVCComDynamicUnkArray@ATL@@@ATL@@UAGJPAPAUIConnectionPointContainer@@@Z
	DD	FLAT:?Advise@?$IConnectionPointImpl@VCOPOSDeviceMonitor@@$1?IID_IPropertyNotifySink@@3U_GUID@@BVCComDynamicUnkArray@ATL@@@ATL@@UAGJPAUIUnknown@@PAK@Z
	DD	FLAT:?Unadvise@?$IConnectionPointImpl@VCOPOSDeviceMonitor@@$1?IID_IPropertyNotifySink@@3U_GUID@@BVCComDynamicUnkArray@ATL@@@ATL@@UAGJK@Z
	DD	FLAT:?EnumConnections@?$IConnectionPointImpl@VCOPOSDeviceMonitor@@$1?IID_IPropertyNotifySink@@3U_GUID@@BVCComDynamicUnkArray@ATL@@@ATL@@UAGJPAPAUIEnumConnections@@@Z
CONST	ENDS
;	COMDAT ??_7?$CComContainedObject@VCOPOSDeviceMonitor@@@ATL@@6B?$IObjectSafetyImpl@VCOPOSDeviceMonitor@@$02@1@@
CONST	SEGMENT
??_7?$CComContainedObject@VCOPOSDeviceMonitor@@@ATL@@6B?$IObjectSafetyImpl@VCOPOSDeviceMonitor@@$02@1@@ DD FLAT:?QueryInterface@?$CComContainedObject@VCOPOSDeviceMonitor@@@ATL@@WKA@AGJABU_GUID@@PAPAX@Z ; ATL::CComContainedObject<COPOSDeviceMonitor>::`vftable'
	DD	FLAT:?AddRef@?$CComContainedObject@VCOPOSDeviceMonitor@@@ATL@@WKA@AGKXZ
	DD	FLAT:?Release@?$CComContainedObject@VCOPOSDeviceMonitor@@@ATL@@WKA@AGKXZ
	DD	FLAT:?GetInterfaceSafetyOptions@?$IObjectSafetyImpl@VCOPOSDeviceMonitor@@$02@ATL@@UAGJABU_GUID@@PAK1@Z
	DD	FLAT:?SetInterfaceSafetyOptions@?$IObjectSafetyImpl@VCOPOSDeviceMonitor@@$02@ATL@@UAGJABU_GUID@@KK@Z
	DD	FLAT:?FAccessAllowed@?$IObjectSafetyImpl@VCOPOSDeviceMonitor@@$02@ATL@@MAEHXZ
CONST	ENDS
;	COMDAT ??_7?$CComContainedObject@VCOPOSDeviceMonitor@@@ATL@@6B?$IProvideClassInfo2Impl@$1?CLSID_OPOSDeviceMonitor@@3U_GUID@@B$1?DIID__IOPOSDeviceMonitorEvents@@3U2@B$1?LIBID_OposDeviceMonitor_CCO@@3U2@B$00$0A@VCComTypeInfoHolder@ATL@@@1@@
CONST	SEGMENT
??_7?$CComContainedObject@VCOPOSDeviceMonitor@@@ATL@@6B?$IProvideClassInfo2Impl@$1?CLSID_OPOSDeviceMonitor@@3U_GUID@@B$1?DIID__IOPOSDeviceMonitorEvents@@3U2@B$1?LIBID_OposDeviceMonitor_CCO@@3U2@B$00$0A@VCComTypeInfoHolder@ATL@@@1@@ DD FLAT:?QueryInterface@?$CComContainedObject@VCOPOSDeviceMonitor@@@ATL@@WJM@AGJABU_GUID@@PAPAX@Z ; ATL::CComContainedObject<COPOSDeviceMonitor>::`vftable'
	DD	FLAT:?AddRef@?$CComContainedObject@VCOPOSDeviceMonitor@@@ATL@@WJM@AGKXZ
	DD	FLAT:?Release@?$CComContainedObject@VCOPOSDeviceMonitor@@@ATL@@WJM@AGKXZ
	DD	FLAT:?GetClassInfoW@?$IProvideClassInfo2Impl@$1?CLSID_OPOSDeviceMonitor@@3U_GUID@@B$1?DIID__IOPOSDeviceMonitorEvents@@3U2@B$1?LIBID_OposDeviceMonitor_CCO@@3U2@B$00$0A@VCComTypeInfoHolder@ATL@@@ATL@@UAGJPAPAUITypeInfo@@@Z
	DD	FLAT:?GetGUID@?$IProvideClassInfo2Impl@$1?CLSID_OPOSDeviceMonitor@@3U_GUID@@B$1?DIID__IOPOSDeviceMonitorEvents@@3U2@B$1?LIBID_OposDeviceMonitor_CCO@@3U2@B$00$0A@VCComTypeInfoHolder@ATL@@@ATL@@UAGJKPAU_GUID@@@Z
CONST	ENDS
;	COMDAT ??_7?$CComContainedObject@VCOPOSDeviceMonitor@@@ATL@@6B?$IDataObjectImpl@VCOPOSDeviceMonitor@@@1@@
CONST	SEGMENT
??_7?$CComContainedObject@VCOPOSDeviceMonitor@@@ATL@@6B?$IDataObjectImpl@VCOPOSDeviceMonitor@@@1@@ DD FLAT:?QueryInterface@?$CComContainedObject@VCOPOSDeviceMonitor@@@ATL@@WJI@AGJABU_GUID@@PAPAX@Z ; ATL::CComContainedObject<COPOSDeviceMonitor>::`vftable'
	DD	FLAT:?AddRef@?$CComContainedObject@VCOPOSDeviceMonitor@@@ATL@@WJI@AGKXZ
	DD	FLAT:?Release@?$CComContainedObject@VCOPOSDeviceMonitor@@@ATL@@WJI@AGKXZ
	DD	FLAT:?GetData@?$IDataObjectImpl@VCOPOSDeviceMonitor@@@ATL@@UAGJPAUtagFORMATETC@@PAUtagSTGMEDIUM@@@Z
	DD	FLAT:?GetDataHere@?$IDataObjectImpl@VCOPOSDeviceMonitor@@@ATL@@UAGJPAUtagFORMATETC@@PAUtagSTGMEDIUM@@@Z
	DD	FLAT:?QueryGetData@?$IDataObjectImpl@VCOPOSDeviceMonitor@@@ATL@@UAGJPAUtagFORMATETC@@@Z
	DD	FLAT:?GetCanonicalFormatEtc@?$IDataObjectImpl@VCOPOSDeviceMonitor@@@ATL@@UAGJPAUtagFORMATETC@@0@Z
	DD	FLAT:?SetData@?$IDataObjectImpl@VCOPOSDeviceMonitor@@@ATL@@UAGJPAUtagFORMATETC@@PAUtagSTGMEDIUM@@H@Z
	DD	FLAT:?EnumFormatEtc@?$IDataObjectImpl@VCOPOSDeviceMonitor@@@ATL@@UAGJKPAPAUIEnumFORMATETC@@@Z
	DD	FLAT:?DAdvise@?$IDataObjectImpl@VCOPOSDeviceMonitor@@@ATL@@UAGJPAUtagFORMATETC@@KPAUIAdviseSink@@PAK@Z
	DD	FLAT:?DUnadvise@?$IDataObjectImpl@VCOPOSDeviceMonitor@@@ATL@@UAGJK@Z
	DD	FLAT:?EnumDAdvise@?$IDataObjectImpl@VCOPOSDeviceMonitor@@@ATL@@UAGJPAPAUIEnumSTATDATA@@@Z
CONST	ENDS
;	COMDAT ??_7?$CComContainedObject@VCOPOSDeviceMonitor@@@ATL@@6B?$IQuickActivateImpl@VCOPOSDeviceMonitor@@@1@@
CONST	SEGMENT
??_7?$CComContainedObject@VCOPOSDeviceMonitor@@@ATL@@6B?$IQuickActivateImpl@VCOPOSDeviceMonitor@@@1@@ DD FLAT:?QueryInterface@?$CComContainedObject@VCOPOSDeviceMonitor@@@ATL@@WJE@AGJABU_GUID@@PAPAX@Z ; ATL::CComContainedObject<COPOSDeviceMonitor>::`vftable'
	DD	FLAT:?AddRef@?$CComContainedObject@VCOPOSDeviceMonitor@@@ATL@@WJE@AGKXZ
	DD	FLAT:?Release@?$CComContainedObject@VCOPOSDeviceMonitor@@@ATL@@WJE@AGKXZ
	DD	FLAT:?QuickActivate@?$IQuickActivateImpl@VCOPOSDeviceMonitor@@@ATL@@UAGJPAUtagQACONTAINER@@PAUtagQACONTROL@@@Z
	DD	FLAT:?SetContentExtent@?$IQuickActivateImpl@VCOPOSDeviceMonitor@@@ATL@@UAGJPAUtagSIZE@@@Z
	DD	FLAT:?GetContentExtent@?$IQuickActivateImpl@VCOPOSDeviceMonitor@@@ATL@@UAGJPAUtagSIZE@@@Z
CONST	ENDS
;	COMDAT ??_7?$CComContainedObject@VCOPOSDeviceMonitor@@@ATL@@6B?$ISpecifyPropertyPagesImpl@VCOPOSDeviceMonitor@@@1@@
CONST	SEGMENT
??_7?$CComContainedObject@VCOPOSDeviceMonitor@@@ATL@@6B?$ISpecifyPropertyPagesImpl@VCOPOSDeviceMonitor@@@1@@ DD FLAT:?QueryInterface@?$CComContainedObject@VCOPOSDeviceMonitor@@@ATL@@WJA@AGJABU_GUID@@PAPAX@Z ; ATL::CComContainedObject<COPOSDeviceMonitor>::`vftable'
	DD	FLAT:?AddRef@?$CComContainedObject@VCOPOSDeviceMonitor@@@ATL@@WJA@AGKXZ
	DD	FLAT:?Release@?$CComContainedObject@VCOPOSDeviceMonitor@@@ATL@@WJA@AGKXZ
	DD	FLAT:?GetPages@?$ISpecifyPropertyPagesImpl@VCOPOSDeviceMonitor@@@ATL@@UAGJPAUtagCAUUID@@@Z
CONST	ENDS
;	COMDAT ??_7?$CComContainedObject@VCOPOSDeviceMonitor@@@ATL@@6B?$IPersistStorageImpl@VCOPOSDeviceMonitor@@@1@@
CONST	SEGMENT
??_7?$CComContainedObject@VCOPOSDeviceMonitor@@@ATL@@6B?$IPersistStorageImpl@VCOPOSDeviceMonitor@@@1@@ DD FLAT:?QueryInterface@?$CComContainedObject@VCOPOSDeviceMonitor@@@ATL@@WIM@AGJABU_GUID@@PAPAX@Z ; ATL::CComContainedObject<COPOSDeviceMonitor>::`vftable'
	DD	FLAT:?AddRef@?$CComContainedObject@VCOPOSDeviceMonitor@@@ATL@@WIM@AGKXZ
	DD	FLAT:?Release@?$CComContainedObject@VCOPOSDeviceMonitor@@@ATL@@WIM@AGKXZ
	DD	FLAT:?GetClassID@?$IPersistStorageImpl@VCOPOSDeviceMonitor@@@ATL@@UAGJPAU_GUID@@@Z
	DD	FLAT:?IsDirty@?$IPersistStorageImpl@VCOPOSDeviceMonitor@@@ATL@@UAGJXZ
	DD	FLAT:?InitNew@?$IPersistStorageImpl@VCOPOSDeviceMonitor@@@ATL@@UAGJPAUIStorage@@@Z
	DD	FLAT:?Load@?$IPersistStorageImpl@VCOPOSDeviceMonitor@@@ATL@@UAGJPAUIStorage@@@Z
	DD	FLAT:?Save@?$IPersistStorageImpl@VCOPOSDeviceMonitor@@@ATL@@UAGJPAUIStorage@@H@Z
	DD	FLAT:?SaveCompleted@?$IPersistStorageImpl@VCOPOSDeviceMonitor@@@ATL@@UAGJPAUIStorage@@@Z
	DD	FLAT:?HandsOffStorage@?$IPersistStorageImpl@VCOPOSDeviceMonitor@@@ATL@@UAGJXZ
CONST	ENDS
;	COMDAT ??_7?$CComContainedObject@VCOPOSDeviceMonitor@@@ATL@@6B?$IConnectionPointContainerImpl@VCOPOSDeviceMonitor@@@1@@
CONST	SEGMENT
??_7?$CComContainedObject@VCOPOSDeviceMonitor@@@ATL@@6B?$IConnectionPointContainerImpl@VCOPOSDeviceMonitor@@@1@@ DD FLAT:?QueryInterface@?$CComContainedObject@VCOPOSDeviceMonitor@@@ATL@@WII@AGJABU_GUID@@PAPAX@Z ; ATL::CComContainedObject<COPOSDeviceMonitor>::`vftable'
	DD	FLAT:?AddRef@?$CComContainedObject@VCOPOSDeviceMonitor@@@ATL@@WII@AGKXZ
	DD	FLAT:?Release@?$CComContainedObject@VCOPOSDeviceMonitor@@@ATL@@WII@AGKXZ
	DD	FLAT:?EnumConnectionPoints@?$IConnectionPointContainerImpl@VCOPOSDeviceMonitor@@@ATL@@UAGJPAPAUIEnumConnectionPoints@@@Z
	DD	FLAT:?FindConnectionPoint@?$IConnectionPointContainerImpl@VCOPOSDeviceMonitor@@@ATL@@UAGJABU_GUID@@PAPAUIConnectionPoint@@@Z
CONST	ENDS
;	COMDAT ??_7?$CComContainedObject@VCOPOSDeviceMonitor@@@ATL@@6B?$IOleInPlaceObjectWindowlessImpl@VCOPOSDeviceMonitor@@@1@@
CONST	SEGMENT
??_7?$CComContainedObject@VCOPOSDeviceMonitor@@@ATL@@6B?$IOleInPlaceObjectWindowlessImpl@VCOPOSDeviceMonitor@@@1@@ DD FLAT:?QueryInterface@?$CComContainedObject@VCOPOSDeviceMonitor@@@ATL@@WIE@AGJABU_GUID@@PAPAX@Z ; ATL::CComContainedObject<COPOSDeviceMonitor>::`vftable'
	DD	FLAT:?AddRef@?$CComContainedObject@VCOPOSDeviceMonitor@@@ATL@@WIE@AGKXZ
	DD	FLAT:?Release@?$CComContainedObject@VCOPOSDeviceMonitor@@@ATL@@WIE@AGKXZ
	DD	FLAT:?GetWindow@?$IOleInPlaceObjectWindowlessImpl@VCOPOSDeviceMonitor@@@ATL@@UAGJPAPAUHWND__@@@Z
	DD	FLAT:?ContextSensitiveHelp@?$IOleInPlaceObjectWindowlessImpl@VCOPOSDeviceMonitor@@@ATL@@UAGJH@Z
	DD	FLAT:?InPlaceDeactivate@?$IOleInPlaceObjectWindowlessImpl@VCOPOSDeviceMonitor@@@ATL@@UAGJXZ
	DD	FLAT:?UIDeactivate@?$IOleInPlaceObjectWindowlessImpl@VCOPOSDeviceMonitor@@@ATL@@UAGJXZ
	DD	FLAT:?SetObjectRects@?$IOleInPlaceObjectWindowlessImpl@VCOPOSDeviceMonitor@@@ATL@@UAGJPBUtagRECT@@0@Z
	DD	FLAT:?ReactivateAndUndo@?$IOleInPlaceObjectWindowlessImpl@VCOPOSDeviceMonitor@@@ATL@@UAGJXZ
	DD	FLAT:?OnWindowMessage@?$IOleInPlaceObjectWindowlessImpl@VCOPOSDeviceMonitor@@@ATL@@UAGJIIJPAJ@Z
	DD	FLAT:?GetDropTarget@?$IOleInPlaceObjectWindowlessImpl@VCOPOSDeviceMonitor@@@ATL@@UAGJPAPAUIDropTarget@@@Z
CONST	ENDS
;	COMDAT ??_7?$CComContainedObject@VCOPOSDeviceMonitor@@@ATL@@6B?$IViewObjectExImpl@VCOPOSDeviceMonitor@@@1@@
CONST	SEGMENT
??_7?$CComContainedObject@VCOPOSDeviceMonitor@@@ATL@@6B?$IViewObjectExImpl@VCOPOSDeviceMonitor@@@1@@ DD FLAT:?QueryInterface@?$CComContainedObject@VCOPOSDeviceMonitor@@@ATL@@WIA@AGJABU_GUID@@PAPAX@Z ; ATL::CComContainedObject<COPOSDeviceMonitor>::`vftable'
	DD	FLAT:?AddRef@?$CComContainedObject@VCOPOSDeviceMonitor@@@ATL@@WIA@AGKXZ
	DD	FLAT:?Release@?$CComContainedObject@VCOPOSDeviceMonitor@@@ATL@@WIA@AGKXZ
	DD	FLAT:?Draw@?$IViewObjectExImpl@VCOPOSDeviceMonitor@@@ATL@@UAGJKJPAXPAUtagDVTARGETDEVICE@@PAUHDC__@@2PBU_RECTL@@3P6GHK@ZK@Z
	DD	FLAT:?GetColorSet@?$IViewObjectExImpl@VCOPOSDeviceMonitor@@@ATL@@UAGJKJPAXPAUtagDVTARGETDEVICE@@PAUHDC__@@PAPAUtagLOGPALETTE@@@Z
	DD	FLAT:?Freeze@?$IViewObjectExImpl@VCOPOSDeviceMonitor@@@ATL@@UAGJKJPAXPAK@Z
	DD	FLAT:?Unfreeze@?$IViewObjectExImpl@VCOPOSDeviceMonitor@@@ATL@@UAGJK@Z
	DD	FLAT:?SetAdvise@?$IViewObjectExImpl@VCOPOSDeviceMonitor@@@ATL@@UAGJKKPAUIAdviseSink@@@Z
	DD	FLAT:?GetAdvise@?$IViewObjectExImpl@VCOPOSDeviceMonitor@@@ATL@@UAGJPAK0PAPAUIAdviseSink@@@Z
	DD	FLAT:?GetExtent@?$IViewObjectExImpl@VCOPOSDeviceMonitor@@@ATL@@UAGJKJPAUtagDVTARGETDEVICE@@PAUtagSIZE@@@Z
	DD	FLAT:?GetRect@?$IViewObjectExImpl@VCOPOSDeviceMonitor@@@ATL@@UAGJKPAU_RECTL@@@Z
	DD	FLAT:?GetViewStatus@?$IViewObjectExImpl@VCOPOSDeviceMonitor@@@ATL@@UAGJPAK@Z
	DD	FLAT:?QueryHitPoint@?$IViewObjectExImpl@VCOPOSDeviceMonitor@@@ATL@@UAGJKPBUtagRECT@@UtagPOINT@@JPAK@Z
	DD	FLAT:?QueryHitRect@?$IViewObjectExImpl@VCOPOSDeviceMonitor@@@ATL@@UAGJKPBUtagRECT@@0JPAK@Z
	DD	FLAT:?GetNaturalExtent@?$IViewObjectExImpl@VCOPOSDeviceMonitor@@@ATL@@UAGJKJPAUtagDVTARGETDEVICE@@PAUHDC__@@PAUtagExtentInfo@@PAUtagSIZE@@@Z
CONST	ENDS
;	COMDAT ??_7?$CComContainedObject@VCOPOSDeviceMonitor@@@ATL@@6B?$IOleInPlaceActiveObjectImpl@VCOPOSDeviceMonitor@@@1@@
CONST	SEGMENT
??_7?$CComContainedObject@VCOPOSDeviceMonitor@@@ATL@@6B?$IOleInPlaceActiveObjectImpl@VCOPOSDeviceMonitor@@@1@@ DD FLAT:?QueryInterface@?$CComContainedObject@VCOPOSDeviceMonitor@@@ATL@@WHM@AGJABU_GUID@@PAPAX@Z ; ATL::CComContainedObject<COPOSDeviceMonitor>::`vftable'
	DD	FLAT:?AddRef@?$CComContainedObject@VCOPOSDeviceMonitor@@@ATL@@WHM@AGKXZ
	DD	FLAT:?Release@?$CComContainedObject@VCOPOSDeviceMonitor@@@ATL@@WHM@AGKXZ
	DD	FLAT:?GetWindow@?$IOleInPlaceActiveObjectImpl@VCOPOSDeviceMonitor@@@ATL@@UAGJPAPAUHWND__@@@Z
	DD	FLAT:?ContextSensitiveHelp@?$IOleInPlaceActiveObjectImpl@VCOPOSDeviceMonitor@@@ATL@@UAGJH@Z
	DD	FLAT:?TranslateAcceleratorW@?$IOleInPlaceActiveObjectImpl@VCOPOSDeviceMonitor@@@ATL@@UAGJPAUtagMSG@@@Z
	DD	FLAT:?OnFrameWindowActivate@?$IOleInPlaceActiveObjectImpl@VCOPOSDeviceMonitor@@@ATL@@UAGJH@Z
	DD	FLAT:?OnDocWindowActivate@?$IOleInPlaceActiveObjectImpl@VCOPOSDeviceMonitor@@@ATL@@UAGJH@Z
	DD	FLAT:?ResizeBorder@?$IOleInPlaceActiveObjectImpl@VCOPOSDeviceMonitor@@@ATL@@UAGJPBUtagRECT@@PAUIOleInPlaceUIWindow@@H@Z
	DD	FLAT:?EnableModeless@?$IOleInPlaceActiveObjectImpl@VCOPOSDeviceMonitor@@@ATL@@UAGJH@Z
CONST	ENDS
;	COMDAT ??_7?$CComContainedObject@VCOPOSDeviceMonitor@@@ATL@@6B?$IOleObjectImpl@VCOPOSDeviceMonitor@@@1@@
CONST	SEGMENT
??_7?$CComContainedObject@VCOPOSDeviceMonitor@@@ATL@@6B?$IOleObjectImpl@VCOPOSDeviceMonitor@@@1@@ DD FLAT:?QueryInterface@?$CComContainedObject@VCOPOSDeviceMonitor@@@ATL@@WHI@AGJABU_GUID@@PAPAX@Z ; ATL::CComContainedObject<COPOSDeviceMonitor>::`vftable'
	DD	FLAT:?AddRef@?$CComContainedObject@VCOPOSDeviceMonitor@@@ATL@@WHI@AGKXZ
	DD	FLAT:?Release@?$CComContainedObject@VCOPOSDeviceMonitor@@@ATL@@WHI@AGKXZ
	DD	FLAT:?SetClientSite@?$IOleObjectImpl@VCOPOSDeviceMonitor@@@ATL@@UAGJPAUIOleClientSite@@@Z
	DD	FLAT:?GetClientSite@?$IOleObjectImpl@VCOPOSDeviceMonitor@@@ATL@@UAGJPAPAUIOleClientSite@@@Z
	DD	FLAT:?SetHostNames@?$IOleObjectImpl@VCOPOSDeviceMonitor@@@ATL@@UAGJPB_W0@Z
	DD	FLAT:?Close@?$IOleObjectImpl@VCOPOSDeviceMonitor@@@ATL@@UAGJK@Z
	DD	FLAT:?SetMoniker@?$IOleObjectImpl@VCOPOSDeviceMonitor@@@ATL@@UAGJKPAUIMoniker@@@Z
	DD	FLAT:?GetMoniker@?$IOleObjectImpl@VCOPOSDeviceMonitor@@@ATL@@UAGJKKPAPAUIMoniker@@@Z
	DD	FLAT:?InitFromData@?$IOleObjectImpl@VCOPOSDeviceMonitor@@@ATL@@UAGJPAUIDataObject@@HK@Z
	DD	FLAT:?GetClipboardData@?$IOleObjectImpl@VCOPOSDeviceMonitor@@@ATL@@UAGJKPAPAUIDataObject@@@Z
	DD	FLAT:?DoVerb@?$IOleObjectImpl@VCOPOSDeviceMonitor@@@ATL@@UAGJJPAUtagMSG@@PAUIOleClientSite@@JPAUHWND__@@PBUtagRECT@@@Z
	DD	FLAT:?EnumVerbs@?$IOleObjectImpl@VCOPOSDeviceMonitor@@@ATL@@UAGJPAPAUIEnumOLEVERB@@@Z
	DD	FLAT:?Update@?$IOleObjectImpl@VCOPOSDeviceMonitor@@@ATL@@UAGJXZ
	DD	FLAT:?IsUpToDate@?$IOleObjectImpl@VCOPOSDeviceMonitor@@@ATL@@UAGJXZ
	DD	FLAT:?GetUserClassID@?$IOleObjectImpl@VCOPOSDeviceMonitor@@@ATL@@UAGJPAU_GUID@@@Z
	DD	FLAT:?GetUserType@?$IOleObjectImpl@VCOPOSDeviceMonitor@@@ATL@@UAGJKPAPA_W@Z
	DD	FLAT:?SetExtent@?$IOleObjectImpl@VCOPOSDeviceMonitor@@@ATL@@UAGJKPAUtagSIZE@@@Z
	DD	FLAT:?GetExtent@?$IOleObjectImpl@VCOPOSDeviceMonitor@@@ATL@@UAGJKPAUtagSIZE@@@Z
	DD	FLAT:?Advise@?$IOleObjectImpl@VCOPOSDeviceMonitor@@@ATL@@UAGJPAUIAdviseSink@@PAK@Z
	DD	FLAT:?Unadvise@?$IOleObjectImpl@VCOPOSDeviceMonitor@@@ATL@@UAGJK@Z
	DD	FLAT:?EnumAdvise@?$IOleObjectImpl@VCOPOSDeviceMonitor@@@ATL@@UAGJPAPAUIEnumSTATDATA@@@Z
	DD	FLAT:?GetMiscStatus@?$IOleObjectImpl@VCOPOSDeviceMonitor@@@ATL@@UAGJKPAK@Z
	DD	FLAT:?SetColorScheme@?$IOleObjectImpl@VCOPOSDeviceMonitor@@@ATL@@UAGJPAUtagLOGPALETTE@@@Z
CONST	ENDS
;	COMDAT ??_7?$CComContainedObject@VCOPOSDeviceMonitor@@@ATL@@6B?$IOleControlImpl@VCOPOSDeviceMonitor@@@1@@
CONST	SEGMENT
??_7?$CComContainedObject@VCOPOSDeviceMonitor@@@ATL@@6B?$IOleControlImpl@VCOPOSDeviceMonitor@@@1@@ DD FLAT:?QueryInterface@?$CComContainedObject@VCOPOSDeviceMonitor@@@ATL@@WHE@AGJABU_GUID@@PAPAX@Z ; ATL::CComContainedObject<COPOSDeviceMonitor>::`vftable'
	DD	FLAT:?AddRef@?$CComContainedObject@VCOPOSDeviceMonitor@@@ATL@@WHE@AGKXZ
	DD	FLAT:?Release@?$CComContainedObject@VCOPOSDeviceMonitor@@@ATL@@WHE@AGKXZ
	DD	FLAT:?GetControlInfo@?$IOleControlImpl@VCOPOSDeviceMonitor@@@ATL@@UAGJPAUtagCONTROLINFO@@@Z
	DD	FLAT:?OnMnemonic@?$IOleControlImpl@VCOPOSDeviceMonitor@@@ATL@@UAGJPAUtagMSG@@@Z
	DD	FLAT:?OnAmbientPropertyChange@?$IOleControlImpl@VCOPOSDeviceMonitor@@@ATL@@UAGJJ@Z
	DD	FLAT:?FreezeEvents@COPOSDeviceMonitor@@MAGJH@Z
CONST	ENDS
;	COMDAT ??_7?$CComContainedObject@VCOPOSDeviceMonitor@@@ATL@@6B?$IPersistStreamInitImpl@VCOPOSDeviceMonitor@@@1@@
CONST	SEGMENT
??_7?$CComContainedObject@VCOPOSDeviceMonitor@@@ATL@@6B?$IPersistStreamInitImpl@VCOPOSDeviceMonitor@@@1@@ DD FLAT:?QueryInterface@?$CComContainedObject@VCOPOSDeviceMonitor@@@ATL@@WHA@AGJABU_GUID@@PAPAX@Z ; ATL::CComContainedObject<COPOSDeviceMonitor>::`vftable'
	DD	FLAT:?AddRef@?$CComContainedObject@VCOPOSDeviceMonitor@@@ATL@@WHA@AGKXZ
	DD	FLAT:?Release@?$CComContainedObject@VCOPOSDeviceMonitor@@@ATL@@WHA@AGKXZ
	DD	FLAT:?GetClassID@?$IPersistStreamInitImpl@VCOPOSDeviceMonitor@@@ATL@@UAGJPAU_GUID@@@Z
	DD	FLAT:?IsDirty@?$IPersistStreamInitImpl@VCOPOSDeviceMonitor@@@ATL@@UAGJXZ
	DD	FLAT:?Load@?$IPersistStreamInitImpl@VCOPOSDeviceMonitor@@@ATL@@UAGJPAUIStream@@@Z
	DD	FLAT:?Save@?$IPersistStreamInitImpl@VCOPOSDeviceMonitor@@@ATL@@UAGJPAUIStream@@H@Z
	DD	FLAT:?GetSizeMax@?$IPersistStreamInitImpl@VCOPOSDeviceMonitor@@@ATL@@UAGJPAT_ULARGE_INTEGER@@@Z
	DD	FLAT:?InitNew@?$IPersistStreamInitImpl@VCOPOSDeviceMonitor@@@ATL@@UAGJXZ
CONST	ENDS
;	COMDAT ??_7?$CComContainedObject@VCOPOSDeviceMonitor@@@ATL@@6B?$CWindowImpl@VCOPOSDeviceMonitor@@VCWindow@ATL@@V?$CWinTraits@$0FGAAAAAA@$0A@@3@@1@@
CONST	SEGMENT
??_7?$CComContainedObject@VCOPOSDeviceMonitor@@@ATL@@6B?$CWindowImpl@VCOPOSDeviceMonitor@@VCWindow@ATL@@V?$CWinTraits@$0FGAAAAAA@$0A@@3@@1@@ DD FLAT:?ProcessWindowMessage@COPOSDeviceMonitor@@UAEHPAUHWND__@@IIJAAJK@Z ; ATL::CComContainedObject<COPOSDeviceMonitor>::`vftable'
	DD	FLAT:??_E?$CComContainedObject@VCOPOSDeviceMonitor@@@ATL@@WEM@AEPAXI@Z
	DD	FLAT:?GetWindowProc@?$CWindowImplBaseT@VCWindow@ATL@@V?$CWinTraits@$0FGAAAAAA@$0A@@2@@ATL@@UAEP6GJPAUHWND__@@IIJ@ZXZ
	DD	FLAT:?OnFinalMessage@?$CWindowImplBaseT@VCWindow@ATL@@V?$CWinTraits@$0FGAAAAAA@$0A@@2@@ATL@@UAEXPAUHWND__@@@Z
CONST	ENDS
;	COMDAT ??_7?$CComContainedObject@VCOPOSDeviceMonitor@@@ATL@@6BCComControlBase@1@@
CONST	SEGMENT
??_7?$CComContainedObject@VCOPOSDeviceMonitor@@@ATL@@6BCComControlBase@1@@ DD FLAT:??_E?$CComContainedObject@VCOPOSDeviceMonitor@@@ATL@@W3AEPAXI@Z ; ATL::CComContainedObject<COPOSDeviceMonitor>::`vftable'
	DD	FLAT:?CreateControlWindow@?$CComControl@VCOPOSDeviceMonitor@@V?$CWindowImpl@VCOPOSDeviceMonitor@@VCWindow@ATL@@V?$CWinTraits@$0FGAAAAAA@$0A@@3@@ATL@@@ATL@@UAEPAUHWND__@@PAU3@AAUtagRECT@@@Z
	DD	FLAT:?ControlQueryInterface@?$CComControl@VCOPOSDeviceMonitor@@V?$CWindowImpl@VCOPOSDeviceMonitor@@VCWindow@ATL@@V?$CWinTraits@$0FGAAAAAA@$0A@@3@@ATL@@@ATL@@UAEJABU_GUID@@PAPAX@Z
	DD	FLAT:?OnDrawAdvanced@CComControlBase@ATL@@UAEJAAUATL_DRAWINFO@@@Z
	DD	FLAT:?OnDraw@COPOSDeviceMonitor@@MAEJAAUATL_DRAWINFO@@@Z
CONST	ENDS
;	COMDAT ??_7?$CComContainedObject@VCOPOSDeviceMonitor@@@ATL@@6B?$IDispatchImpl@UIOPOSDeviceMonitor@@$1?IID_IOPOSDeviceMonitor@@3U_GUID@@B$1?LIBID_OposDeviceMonitor_CCO@@3U3@B$00$0A@VCComTypeInfoHolder@ATL@@@1@@
CONST	SEGMENT
??_7?$CComContainedObject@VCOPOSDeviceMonitor@@@ATL@@6B?$IDispatchImpl@UIOPOSDeviceMonitor@@$1?IID_IOPOSDeviceMonitor@@3U_GUID@@B$1?LIBID_OposDeviceMonitor_CCO@@3U3@B$00$0A@VCComTypeInfoHolder@ATL@@@1@@ DD FLAT:?QueryInterface@?$CComContainedObject@VCOPOSDeviceMonitor@@@ATL@@UAGJABU_GUID@@PAPAX@Z ; ATL::CComContainedObject<COPOSDeviceMonitor>::`vftable'
	DD	FLAT:?AddRef@?$CComContainedObject@VCOPOSDeviceMonitor@@@ATL@@UAGKXZ
	DD	FLAT:?Release@?$CComContainedObject@VCOPOSDeviceMonitor@@@ATL@@UAGKXZ
	DD	FLAT:?GetTypeInfoCount@?$IDispatchImpl@UIOPOSDeviceMonitor@@$1?IID_IOPOSDeviceMonitor@@3U_GUID@@B$1?LIBID_OposDeviceMonitor_CCO@@3U3@B$00$0A@VCComTypeInfoHolder@ATL@@@ATL@@UAGJPAI@Z
	DD	FLAT:?GetTypeInfo@?$IDispatchImpl@UIOPOSDeviceMonitor@@$1?IID_IOPOSDeviceMonitor@@3U_GUID@@B$1?LIBID_OposDeviceMonitor_CCO@@3U3@B$00$0A@VCComTypeInfoHolder@ATL@@@ATL@@UAGJIKPAPAUITypeInfo@@@Z
	DD	FLAT:?GetIDsOfNames@?$IDispatchImpl@UIOPOSDeviceMonitor@@$1?IID_IOPOSDeviceMonitor@@3U_GUID@@B$1?LIBID_OposDeviceMonitor_CCO@@3U3@B$00$0A@VCComTypeInfoHolder@ATL@@@ATL@@UAGJABU_GUID@@PAPA_WIKPAJ@Z
	DD	FLAT:?Invoke@?$IDispatchImpl@UIOPOSDeviceMonitor@@$1?IID_IOPOSDeviceMonitor@@3U_GUID@@B$1?LIBID_OposDeviceMonitor_CCO@@3U3@B$00$0A@VCComTypeInfoHolder@ATL@@@ATL@@UAGJJABU_GUID@@KGPAUtagDISPPARAMS@@PAUtagVARIANT@@PAUtagEXCEPINFO@@PAI@Z
	DD	FLAT:?SOData@COPOSDeviceMonitor@@MAGJJ@Z
	DD	FLAT:?SODirectIO@COPOSDeviceMonitor@@MAGJJPAJPAPA_W@Z
	DD	FLAT:?SOError@COPOSDeviceMonitor@@MAGJJJJPAJ@Z
	DD	FLAT:?SOOutputCompleteDummy@COPOSDeviceMonitor@@MAGJJ@Z
	DD	FLAT:?SOStatusUpdate@COPOSDeviceMonitor@@MAGJJ@Z
	DD	FLAT:?SOProcessID@COPOSDeviceMonitor@@UAGJPAJ@Z
	DD	FLAT:?get_OpenResult@COPOSDeviceMonitor@@UAGJPAJ@Z
	DD	FLAT:?get_AutoDisable@COPOSDeviceMonitor@@UAGJPAF@Z
	DD	FLAT:?put_AutoDisable@COPOSDeviceMonitor@@UAGJF@Z
	DD	FLAT:?get_BinaryConversion@COPOSDeviceMonitor@@UAGJPAJ@Z
	DD	FLAT:?put_BinaryConversion@COPOSDeviceMonitor@@UAGJJ@Z
	DD	FLAT:?get_CapPowerReporting@COPOSDeviceMonitor@@UAGJPAJ@Z
	DD	FLAT:?get_CheckHealthText@COPOSDeviceMonitor@@UAGJPAPA_W@Z
	DD	FLAT:?get_Claimed@COPOSDeviceMonitor@@UAGJPAF@Z
	DD	FLAT:?get_DataCount@COPOSDeviceMonitor@@UAGJPAJ@Z
	DD	FLAT:?get_DataEventEnabled@COPOSDeviceMonitor@@UAGJPAF@Z
	DD	FLAT:?put_DataEventEnabled@COPOSDeviceMonitor@@UAGJF@Z
	DD	FLAT:?get_DeviceEnabled@COPOSDeviceMonitor@@UAGJPAF@Z
	DD	FLAT:?put_DeviceEnabled@COPOSDeviceMonitor@@UAGJF@Z
	DD	FLAT:?get_FreezeEvents@COPOSDeviceMonitor@@UAGJPAF@Z
	DD	FLAT:?put_FreezeEvents@COPOSDeviceMonitor@@UAGJF@Z
	DD	FLAT:?get_PowerNotify@COPOSDeviceMonitor@@UAGJPAJ@Z
	DD	FLAT:?put_PowerNotify@COPOSDeviceMonitor@@UAGJJ@Z
	DD	FLAT:?get_PowerState@COPOSDeviceMonitor@@UAGJPAJ@Z
	DD	FLAT:?get_ResultCode@COPOSDeviceMonitor@@UAGJPAJ@Z
	DD	FLAT:?get_ResultCodeExtended@COPOSDeviceMonitor@@UAGJPAJ@Z
	DD	FLAT:?get_State@COPOSDeviceMonitor@@UAGJPAJ@Z
	DD	FLAT:?get_ControlObjectDescription@COPOSDeviceMonitor@@UAGJPAPA_W@Z
	DD	FLAT:?get_ControlObjectVersion@COPOSDeviceMonitor@@UAGJPAJ@Z
	DD	FLAT:?get_ServiceObjectDescription@COPOSDeviceMonitor@@UAGJPAPA_W@Z
	DD	FLAT:?get_ServiceObjectVersion@COPOSDeviceMonitor@@UAGJPAJ@Z
	DD	FLAT:?get_DeviceDescription@COPOSDeviceMonitor@@UAGJPAPA_W@Z
	DD	FLAT:?get_DeviceName@COPOSDeviceMonitor@@UAGJPAPA_W@Z
	DD	FLAT:?get_CapStatisticsReporting@COPOSDeviceMonitor@@UAGJPAF@Z
	DD	FLAT:?get_CapUpdateStatistics@COPOSDeviceMonitor@@UAGJPAF@Z
	DD	FLAT:?get_CapCompareFirmwareVersion@COPOSDeviceMonitor@@UAGJPAF@Z
	DD	FLAT:?get_CapUpdateFirmware@COPOSDeviceMonitor@@UAGJPAF@Z
	DD	FLAT:?CheckHealth@COPOSDeviceMonitor@@UAGJJPAJ@Z
	DD	FLAT:?ClaimDevice@COPOSDeviceMonitor@@UAGJJPAJ@Z
	DD	FLAT:?ClearInput@COPOSDeviceMonitor@@UAGJPAJ@Z
	DD	FLAT:?Close@COPOSDeviceMonitor@@UAGJPAJ@Z
	DD	FLAT:?DirectIO@COPOSDeviceMonitor@@UAGJJPAJPAPA_W0@Z
	DD	FLAT:?Open@COPOSDeviceMonitor@@UAGJPA_WPAJ@Z
	DD	FLAT:?ReleaseDevice@COPOSDeviceMonitor@@UAGJPAJ@Z
	DD	FLAT:?ResetStatistics@COPOSDeviceMonitor@@UAGJPA_WPAJ@Z
	DD	FLAT:?RetrieveStatistics@COPOSDeviceMonitor@@UAGJPAPA_WPAJ@Z
	DD	FLAT:?UpdateStatistics@COPOSDeviceMonitor@@UAGJPA_WPAJ@Z
	DD	FLAT:?CompareFirmwareVersion@COPOSDeviceMonitor@@UAGJPA_WPAJ1@Z
	DD	FLAT:?UpdateFirmware@COPOSDeviceMonitor@@UAGJPA_WPAJ@Z
	DD	FLAT:?ClearInputProperties@COPOSDeviceMonitor@@UAGJPAJ@Z
	DD	FLAT:?get_DeviceData@COPOSDeviceMonitor@@UAGJPAPA_W@Z
	DD	FLAT:?get_DeviceList@COPOSDeviceMonitor@@UAGJPAPA_W@Z
	DD	FLAT:?get_MonitoringDeviceList@COPOSDeviceMonitor@@UAGJPAPA_W@Z
	DD	FLAT:?AddMonitoringDevice@COPOSDeviceMonitor@@UAGJPA_WJJJJPAJ@Z
	DD	FLAT:?ClearMonitoringDevice@COPOSDeviceMonitor@@UAGJPAJ@Z
	DD	FLAT:?DeleteMonitoringDevice@COPOSDeviceMonitor@@UAGJPA_WPAJ@Z
	DD	FLAT:?GetDeviceValue@COPOSDeviceMonitor@@UAGJPA_WPAJ1@Z
CONST	ENDS
;	COMDAT ??_C@_11LOCGONAA@@
CONST	SEGMENT
??_C@_11LOCGONAA@@ DB 00H, 00H				; `string'
CONST	ENDS
;	COMDAT ??_C@_1BC@KAILKFFG@?$AAR?$AAE?$AAG?$AAI?$AAS?$AAT?$AAR?$AAY@
CONST	SEGMENT
??_C@_1BC@KAILKFFG@?$AAR?$AAE?$AAG?$AAI?$AAS?$AAT?$AAR?$AAY@ DB 'R', 00H, 'E'
	DB	00H, 'G', 00H, 'I', 00H, 'S', 00H, 'T', 00H, 'R', 00H, 'Y', 00H
	DB	00H, 00H					; `string'
CONST	ENDS
;	COMDAT ??_C@_1BG@JBACFMF@?$AAM?$AAo?$AAd?$AAu?$AAl?$AAe?$AA_?$AAR?$AAa?$AAw@
CONST	SEGMENT
??_C@_1BG@JBACFMF@?$AAM?$AAo?$AAd?$AAu?$AAl?$AAe?$AA_?$AAR?$AAa?$AAw@ DB 'M'
	DB	00H, 'o', 00H, 'd', 00H, 'u', 00H, 'l', 00H, 'e', 00H, '_', 00H
	DB	'R', 00H, 'a', 00H, 'w', 00H, 00H, 00H	; `string'
CONST	ENDS
;	COMDAT ??_C@_1O@MNLDABAF@?$AAM?$AAo?$AAd?$AAu?$AAl?$AAe@
CONST	SEGMENT
??_C@_1O@MNLDABAF@?$AAM?$AAo?$AAd?$AAu?$AAl?$AAe@ DB 'M', 00H, 'o', 00H, 'd'
	DB	00H, 'u', 00H, 'l', 00H, 'e', 00H, 00H, 00H	; `string'
CONST	ENDS
;	COMDAT ??_C@_1M@PPPPCDEP@?$AAA?$AAP?$AAP?$AAI?$AAD@
CONST	SEGMENT
??_C@_1M@PPPPCDEP@?$AAA?$AAP?$AAP?$AAI?$AAD@ DB 'A', 00H, 'P', 00H, 'P', 00H
	DB	'I', 00H, 'D', 00H, 00H, 00H			; `string'
CONST	ENDS
;	COMDAT ??_C@_1BE@LJOLIMEM@?$AA?$AN?$AA?6?$AA?7?$AA?$HN?$AA?$AN?$AA?6?$AA?$HN?$AA?$AN?$AA?6@
CONST	SEGMENT
??_C@_1BE@LJOLIMEM@?$AA?$AN?$AA?6?$AA?7?$AA?$HN?$AA?$AN?$AA?6?$AA?$HN?$AA?$AN?$AA?6@ DB 0dH
	DB	00H, 0aH, 00H, 09H, 00H, '}', 00H, 0dH, 00H, 0aH, 00H, '}', 00H
	DB	0dH, 00H, 0aH, 00H, 00H, 00H			; `string'
CONST	ENDS
;	COMDAT ??_C@_1EA@NHKLICFA@?$AAH?$AAK?$AAC?$AAU?$AA?$AN?$AA?6?$AA?$HL?$AA?7?$AAS?$AAo?$AAf?$AAt?$AAw?$AAa?$AAr@
CONST	SEGMENT
??_C@_1EA@NHKLICFA@?$AAH?$AAK?$AAC?$AAU?$AA?$AN?$AA?6?$AA?$HL?$AA?7?$AAS?$AAo?$AAf?$AAt?$AAw?$AAa?$AAr@ DB 'H'
	DB	00H, 'K', 00H, 'C', 00H, 'U', 00H, 0dH, 00H, 0aH, 00H, '{', 00H
	DB	09H, 00H, 'S', 00H, 'o', 00H, 'f', 00H, 't', 00H, 'w', 00H, 'a'
	DB	00H, 'r', 00H, 'e', 00H, 0dH, 00H, 0aH, 00H, 09H, 00H, '{', 00H
	DB	0dH, 00H, 0aH, 00H, 09H, 00H, 09H, 00H, 'C', 00H, 'l', 00H, 'a'
	DB	00H, 's', 00H, 's', 00H, 'e', 00H, 's', 00H, 00H, 00H ; `string'
CONST	ENDS
;	COMDAT __GUID_0000010d_0000_0000_c000_000000000046
CONST	SEGMENT
__GUID_0000010d_0000_0000_c000_000000000046 DD 010dH
	DW	00H
	DW	00H
	DB	0c0H
	DB	00H
	DB	00H
	DB	00H
	DB	00H
	DB	00H
	DB	00H
	DB	046H
CONST	ENDS
;	COMDAT __GUID_00000127_0000_0000_c000_000000000046
CONST	SEGMENT
__GUID_00000127_0000_0000_c000_000000000046 DD 0127H
	DW	00H
	DW	00H
	DB	0c0H
	DB	00H
	DB	00H
	DB	00H
	DB	00H
	DB	00H
	DB	00H
	DB	046H
CONST	ENDS
;	COMDAT __GUID_3af24292_0c96_11ce_a0cf_00aa00600ab8
CONST	SEGMENT
__GUID_3af24292_0c96_11ce_a0cf_00aa00600ab8 DD 03af24292H
	DW	0c96H
	DW	011ceH
	DB	0a0H
	DB	0cfH
	DB	00H
	DB	0aaH
	DB	00H
	DB	060H
	DB	0aH
	DB	0b8H
CONST	ENDS
;	COMDAT __GUID_00000112_0000_0000_c000_000000000046
CONST	SEGMENT
__GUID_00000112_0000_0000_c000_000000000046 DD 0112H
	DW	00H
	DW	00H
	DB	0c0H
	DB	00H
	DB	00H
	DB	00H
	DB	00H
	DB	00H
	DB	00H
	DB	046H
CONST	ENDS
;	COMDAT __GUID_7fd52380_4e07_101b_ae2d_08002b2ec713
CONST	SEGMENT
__GUID_7fd52380_4e07_101b_ae2d_08002b2ec713 DD 07fd52380H
	DW	04e07H
	DW	0101bH
	DB	0aeH
	DB	02dH
	DB	08H
	DB	00H
	DB	02bH
	DB	02eH
	DB	0c7H
	DB	013H
CONST	ENDS
;	COMDAT __GUID_00000109_0000_0000_c000_000000000046
CONST	SEGMENT
__GUID_00000109_0000_0000_c000_000000000046 DD 0109H
	DW	00H
	DW	00H
	DB	0c0H
	DB	00H
	DB	00H
	DB	00H
	DB	00H
	DB	00H
	DB	00H
	DB	046H
CONST	ENDS
;	COMDAT ??_C@_1CI@BBJOACGG@?$AAH?$AAK?$AAE?$AAY?$AA_?$AAC?$AAU?$AAR?$AAR?$AAE?$AAN?$AAT?$AA_?$AAC?$AAO@
CONST	SEGMENT
??_C@_1CI@BBJOACGG@?$AAH?$AAK?$AAE?$AAY?$AA_?$AAC?$AAU?$AAR?$AAR?$AAE?$AAN?$AAT?$AA_?$AAC?$AAO@ DB 'H'
	DB	00H, 'K', 00H, 'E', 00H, 'Y', 00H, '_', 00H, 'C', 00H, 'U', 00H
	DB	'R', 00H, 'R', 00H, 'E', 00H, 'N', 00H, 'T', 00H, '_', 00H, 'C'
	DB	00H, 'O', 00H, 'N', 00H, 'F', 00H, 'I', 00H, 'G', 00H, 00H, 00H ; `string'
CONST	ENDS
;	COMDAT ??_C@_1BM@HAGMMHIA@?$AAH?$AAK?$AAE?$AAY?$AA_?$AAD?$AAY?$AAN?$AA_?$AAD?$AAA?$AAT?$AAA@
CONST	SEGMENT
??_C@_1BM@HAGMMHIA@?$AAH?$AAK?$AAE?$AAY?$AA_?$AAD?$AAY?$AAN?$AA_?$AAD?$AAA?$AAT?$AAA@ DB 'H'
	DB	00H, 'K', 00H, 'E', 00H, 'Y', 00H, '_', 00H, 'D', 00H, 'Y', 00H
	DB	'N', 00H, '_', 00H, 'D', 00H, 'A', 00H, 'T', 00H, 'A', 00H, 00H
	DB	00H						; `string'
CONST	ENDS
;	COMDAT ??_C@_1CM@KHNNAOIC@?$AAH?$AAK?$AAE?$AAY?$AA_?$AAP?$AAE?$AAR?$AAF?$AAO?$AAR?$AAM?$AAA?$AAN?$AAC@
CONST	SEGMENT
??_C@_1CM@KHNNAOIC@?$AAH?$AAK?$AAE?$AAY?$AA_?$AAP?$AAE?$AAR?$AAF?$AAO?$AAR?$AAM?$AAA?$AAN?$AAC@ DB 'H'
	DB	00H, 'K', 00H, 'E', 00H, 'Y', 00H, '_', 00H, 'P', 00H, 'E', 00H
	DB	'R', 00H, 'F', 00H, 'O', 00H, 'R', 00H, 'M', 00H, 'A', 00H, 'N'
	DB	00H, 'C', 00H, 'E', 00H, '_', 00H, 'D', 00H, 'A', 00H, 'T', 00H
	DB	'A', 00H, 00H, 00H				; `string'
CONST	ENDS
;	COMDAT ??_C@_1BG@BGODANIO@?$AAH?$AAK?$AAE?$AAY?$AA_?$AAU?$AAS?$AAE?$AAR?$AAS@
CONST	SEGMENT
??_C@_1BG@BGODANIO@?$AAH?$AAK?$AAE?$AAY?$AA_?$AAU?$AAS?$AAE?$AAR?$AAS@ DB 'H'
	DB	00H, 'K', 00H, 'E', 00H, 'Y', 00H, '_', 00H, 'U', 00H, 'S', 00H
	DB	'E', 00H, 'R', 00H, 'S', 00H, 00H, 00H	; `string'
CONST	ENDS
;	COMDAT ??_C@_1CG@GFBEANJL@?$AAH?$AAK?$AAE?$AAY?$AA_?$AAL?$AAO?$AAC?$AAA?$AAL?$AA_?$AAM?$AAA?$AAC?$AAH@
CONST	SEGMENT
??_C@_1CG@GFBEANJL@?$AAH?$AAK?$AAE?$AAY?$AA_?$AAL?$AAO?$AAC?$AAA?$AAL?$AA_?$AAM?$AAA?$AAC?$AAH@ DB 'H'
	DB	00H, 'K', 00H, 'E', 00H, 'Y', 00H, '_', 00H, 'L', 00H, 'O', 00H
	DB	'C', 00H, 'A', 00H, 'L', 00H, '_', 00H, 'M', 00H, 'A', 00H, 'C'
	DB	00H, 'H', 00H, 'I', 00H, 'N', 00H, 'E', 00H, 00H, 00H ; `string'
CONST	ENDS
;	COMDAT ??_C@_1CE@HLHNCBPM@?$AAH?$AAK?$AAE?$AAY?$AA_?$AAC?$AAU?$AAR?$AAR?$AAE?$AAN?$AAT?$AA_?$AAU?$AAS@
CONST	SEGMENT
??_C@_1CE@HLHNCBPM@?$AAH?$AAK?$AAE?$AAY?$AA_?$AAC?$AAU?$AAR?$AAR?$AAE?$AAN?$AAT?$AA_?$AAU?$AAS@ DB 'H'
	DB	00H, 'K', 00H, 'E', 00H, 'Y', 00H, '_', 00H, 'C', 00H, 'U', 00H
	DB	'R', 00H, 'R', 00H, 'E', 00H, 'N', 00H, 'T', 00H, '_', 00H, 'U'
	DB	00H, 'S', 00H, 'E', 00H, 'R', 00H, 00H, 00H	; `string'
CONST	ENDS
;	COMDAT ??_C@_1CE@PACHPJFI@?$AAH?$AAK?$AAE?$AAY?$AA_?$AAC?$AAL?$AAA?$AAS?$AAS?$AAE?$AAS?$AA_?$AAR?$AAO@
CONST	SEGMENT
??_C@_1CE@PACHPJFI@?$AAH?$AAK?$AAE?$AAY?$AA_?$AAC?$AAL?$AAA?$AAS?$AAS?$AAE?$AAS?$AA_?$AAR?$AAO@ DB 'H'
	DB	00H, 'K', 00H, 'E', 00H, 'Y', 00H, '_', 00H, 'C', 00H, 'L', 00H
	DB	'A', 00H, 'S', 00H, 'S', 00H, 'E', 00H, 'S', 00H, '_', 00H, 'R'
	DB	00H, 'O', 00H, 'O', 00H, 'T', 00H, 00H, 00H	; `string'
CONST	ENDS
;	COMDAT ??_C@_19OFICIBHH@?$AAH?$AAK?$AAC?$AAC@
CONST	SEGMENT
??_C@_19OFICIBHH@?$AAH?$AAK?$AAC?$AAC@ DB 'H', 00H, 'K', 00H, 'C', 00H, 'C'
	DB	00H, 00H, 00H				; `string'
CONST	ENDS
;	COMDAT ??_C@_19GFFAIJHG@?$AAH?$AAK?$AAD?$AAD@
CONST	SEGMENT
??_C@_19GFFAIJHG@?$AAH?$AAK?$AAD?$AAD@ DB 'H', 00H, 'K', 00H, 'D', 00H, 'D'
	DB	00H, 00H, 00H				; `string'
CONST	ENDS
;	COMDAT ??_C@_19PNBHMJPL@?$AAH?$AAK?$AAP?$AAD@
CONST	SEGMENT
??_C@_19PNBHMJPL@?$AAH?$AAK?$AAP?$AAD@ DB 'H', 00H, 'K', 00H, 'P', 00H, 'D'
	DB	00H, 00H, 00H				; `string'
CONST	ENDS
;	COMDAT ??_C@_17PJOJPMPB@?$AAH?$AAK?$AAU@
CONST	SEGMENT
??_C@_17PJOJPMPB@?$AAH?$AAK?$AAU@ DB 'H', 00H, 'K', 00H, 'U', 00H, 00H, 00H ; `string'
CONST	ENDS
;	COMDAT ??_C@_19PEALEEJB@?$AAH?$AAK?$AAL?$AAM@
CONST	SEGMENT
??_C@_19PEALEEJB@?$AAH?$AAK?$AAL?$AAM@ DB 'H', 00H, 'K', 00H, 'L', 00H, 'M'
	DB	00H, 00H, 00H				; `string'
CONST	ENDS
;	COMDAT ??_C@_19JAPAIJDE@?$AAH?$AAK?$AAC?$AAU@
CONST	SEGMENT
??_C@_19JAPAIJDE@?$AAH?$AAK?$AAC?$AAU@ DB 'H', 00H, 'K', 00H, 'C', 00H, 'U'
	DB	00H, 00H, 00H				; `string'
CONST	ENDS
;	COMDAT ??_C@_19NCHLBIN@?$AAH?$AAK?$AAC?$AAR@
CONST	SEGMENT
??_C@_19NCHLBIN@?$AAH?$AAK?$AAC?$AAR@ DB 'H', 00H, 'K', 00H, 'C', 00H, 'R'
	DB	00H, 00H, 00H				; `string'
CONST	ENDS
;	COMDAT ?map@?1??HKeyFromString@CRegParser@ATL@@KAPAUHKEY__@@PA_W@Z@4QBUkeymap@?1??123@KAPAU4@0@Z@B
CONST	SEGMENT
?map@?1??HKeyFromString@CRegParser@ATL@@KAPAUHKEY__@@PA_W@Z@4QBUkeymap@?1??123@KAPAU4@0@Z@B DD FLAT:??_C@_19NCHLBIN@?$AAH?$AAK?$AAC?$AAR@ ; `ATL::CRegParser::HKeyFromString'::`2'::map
	DD	080000000H
	DD	FLAT:??_C@_19JAPAIJDE@?$AAH?$AAK?$AAC?$AAU@
	DD	080000001H
	DD	FLAT:??_C@_19PEALEEJB@?$AAH?$AAK?$AAL?$AAM@
	DD	080000002H
	DD	FLAT:??_C@_17PJOJPMPB@?$AAH?$AAK?$AAU@
	DD	080000003H
	DD	FLAT:??_C@_19PNBHMJPL@?$AAH?$AAK?$AAP?$AAD@
	DD	080000004H
	DD	FLAT:??_C@_19GFFAIJHG@?$AAH?$AAK?$AAD?$AAD@
	DD	080000006H
	DD	FLAT:??_C@_19OFICIBHH@?$AAH?$AAK?$AAC?$AAC@
	DD	080000005H
	DD	FLAT:??_C@_1CE@PACHPJFI@?$AAH?$AAK?$AAE?$AAY?$AA_?$AAC?$AAL?$AAA?$AAS?$AAS?$AAE?$AAS?$AA_?$AAR?$AAO@
	DD	080000000H
	DD	FLAT:??_C@_1CE@HLHNCBPM@?$AAH?$AAK?$AAE?$AAY?$AA_?$AAC?$AAU?$AAR?$AAR?$AAE?$AAN?$AAT?$AA_?$AAU?$AAS@
	DD	080000001H
	DD	FLAT:??_C@_1CG@GFBEANJL@?$AAH?$AAK?$AAE?$AAY?$AA_?$AAL?$AAO?$AAC?$AAA?$AAL?$AA_?$AAM?$AAA?$AAC?$AAH@
	DD	080000002H
	DD	FLAT:??_C@_1BG@BGODANIO@?$AAH?$AAK?$AAE?$AAY?$AA_?$AAU?$AAS?$AAE?$AAR?$AAS@
	DD	080000003H
	DD	FLAT:??_C@_1CM@KHNNAOIC@?$AAH?$AAK?$AAE?$AAY?$AA_?$AAP?$AAE?$AAR?$AAF?$AAO?$AAR?$AAM?$AAA?$AAN?$AAC@
	DD	080000004H
	DD	FLAT:??_C@_1BM@HAGMMHIA@?$AAH?$AAK?$AAE?$AAY?$AA_?$AAD?$AAY?$AAN?$AA_?$AAD?$AAA?$AAT?$AAA@
	DD	080000006H
	DD	FLAT:??_C@_1CI@BBJOACGG@?$AAH?$AAK?$AAE?$AAY?$AA_?$AAC?$AAU?$AAR?$AAR?$AAE?$AAN?$AAT?$AA_?$AAC?$AAO@
	DD	080000005H
CONST	ENDS
;	COMDAT ??_C@_1BA@JIHHIEDE@?$AAT?$AAy?$AAp?$AAe?$AAL?$AAi?$AAb@
CONST	SEGMENT
??_C@_1BA@JIHHIEDE@?$AAT?$AAy?$AAp?$AAe?$AAL?$AAi?$AAb@ DB 'T', 00H, 'y', 00H
	DB	'p', 00H, 'e', 00H, 'L', 00H, 'i', 00H, 'b', 00H, 00H, 00H ; `string'
CONST	ENDS
;	COMDAT ??_C@_1BC@EAHCMADO@?$AAS?$AAo?$AAf?$AAt?$AAw?$AAa?$AAr?$AAe@
CONST	SEGMENT
??_C@_1BC@EAHCMADO@?$AAS?$AAo?$AAf?$AAt?$AAw?$AAa?$AAr?$AAe@ DB 'S', 00H, 'o'
	DB	00H, 'f', 00H, 't', 00H, 'w', 00H, 'a', 00H, 'r', 00H, 'e', 00H
	DB	00H, 00H					; `string'
CONST	ENDS
;	COMDAT ??_C@_1O@GBFINDKL@?$AAS?$AAY?$AAS?$AAT?$AAE?$AAM@
CONST	SEGMENT
??_C@_1O@GBFINDKL@?$AAS?$AAY?$AAS?$AAT?$AAE?$AAM@ DB 'S', 00H, 'Y', 00H, 'S'
	DB	00H, 'T', 00H, 'E', 00H, 'M', 00H, 00H, 00H	; `string'
CONST	ENDS
;	COMDAT ??_C@_1BC@IBECJAAI@?$AAS?$AAE?$AAC?$AAU?$AAR?$AAI?$AAT?$AAY@
CONST	SEGMENT
??_C@_1BC@IBECJAAI@?$AAS?$AAE?$AAC?$AAU?$AAR?$AAI?$AAT?$AAY@ DB 'S', 00H, 'E'
	DB	00H, 'C', 00H, 'U', 00H, 'R', 00H, 'I', 00H, 'T', 00H, 'Y', 00H
	DB	00H, 00H					; `string'
CONST	ENDS
;	COMDAT ??_C@_17OMAOINJK@?$AAS?$AAA?$AAM@
CONST	SEGMENT
??_C@_17OMAOINJK@?$AAS?$AAA?$AAM@ DB 'S', 00H, 'A', 00H, 'M', 00H, 00H, 00H ; `string'
CONST	ENDS
;	COMDAT ??_C@_19HLLLM@?$AAM?$AAi?$AAm?$AAe@
CONST	SEGMENT
??_C@_19HLLLM@?$AAM?$AAi?$AAm?$AAe@ DB 'M', 00H, 'i', 00H, 'm', 00H, 'e', 00H
	DB	00H, 00H					; `string'
CONST	ENDS
;	COMDAT ??_C@_1BC@MAICEHGI@?$AAH?$AAa?$AAr?$AAd?$AAw?$AAa?$AAr?$AAe@
CONST	SEGMENT
??_C@_1BC@MAICEHGI@?$AAH?$AAa?$AAr?$AAd?$AAw?$AAa?$AAr?$AAe@ DB 'H', 00H, 'a'
	DB	00H, 'r', 00H, 'd', 00H, 'w', 00H, 'a', 00H, 'r', 00H, 'e', 00H
	DB	00H, 00H					; `string'
CONST	ENDS
;	COMDAT ??_C@_1BE@EKPAFMCP@?$AAI?$AAn?$AAt?$AAe?$AAr?$AAf?$AAa?$AAc?$AAe@
CONST	SEGMENT
??_C@_1BE@EKPAFMCP@?$AAI?$AAn?$AAt?$AAe?$AAr?$AAf?$AAa?$AAc?$AAe@ DB 'I', 00H
	DB	'n', 00H, 't', 00H, 'e', 00H, 'r', 00H, 'f', 00H, 'a', 00H, 'c'
	DB	00H, 'e', 00H, 00H, 00H			; `string'
CONST	ENDS
;	COMDAT ??_C@_1BC@NKMMNMGL@?$AAF?$AAi?$AAl?$AAe?$AAT?$AAy?$AAp?$AAe@
CONST	SEGMENT
??_C@_1BC@NKMMNMGL@?$AAF?$AAi?$AAl?$AAe?$AAT?$AAy?$AAp?$AAe@ DB 'F', 00H, 'i'
	DB	00H, 'l', 00H, 'e', 00H, 'T', 00H, 'y', 00H, 'p', 00H, 'e', 00H
	DB	00H, 00H					; `string'
CONST	ENDS
;	COMDAT ??_C@_1CK@OEKPKBNA@?$AAC?$AAo?$AAm?$AAp?$AAo?$AAn?$AAe?$AAn?$AAt?$AA?5?$AAC?$AAa?$AAt?$AAe?$AAg@
CONST	SEGMENT
??_C@_1CK@OEKPKBNA@?$AAC?$AAo?$AAm?$AAp?$AAo?$AAn?$AAe?$AAn?$AAt?$AA?5?$AAC?$AAa?$AAt?$AAe?$AAg@ DB 'C'
	DB	00H, 'o', 00H, 'm', 00H, 'p', 00H, 'o', 00H, 'n', 00H, 'e', 00H
	DB	'n', 00H, 't', 00H, ' ', 00H, 'C', 00H, 'a', 00H, 't', 00H, 'e'
	DB	00H, 'g', 00H, 'o', 00H, 'r', 00H, 'i', 00H, 'e', 00H, 's', 00H
	DB	00H, 00H					; `string'
CONST	ENDS
;	COMDAT __GUID_1c2056cc_5ef4_101b_8bc8_00aa003e3b29
CONST	SEGMENT
__GUID_1c2056cc_5ef4_101b_8bc8_00aa003e3b29 DD 01c2056ccH
	DW	05ef4H
	DW	0101bH
	DB	08bH
	DB	0c8H
	DB	00H
	DB	0aaH
	DB	00H
	DB	03eH
	DB	03bH
	DB	029H
CONST	ENDS
;	COMDAT __GUID_00000113_0000_0000_c000_000000000046
CONST	SEGMENT
__GUID_00000113_0000_0000_c000_000000000046 DD 0113H
	DW	00H
	DW	00H
	DB	0c0H
	DB	00H
	DB	00H
	DB	00H
	DB	00H
	DB	00H
	DB	00H
	DB	046H
CONST	ENDS
;	COMDAT ??_7CRegObject@ATL@@6B@
CONST	SEGMENT
??_7CRegObject@ATL@@6B@ DD FLAT:?QueryInterface@CRegObject@ATL@@UAGJABU_GUID@@PAPAX@Z ; ATL::CRegObject::`vftable'
	DD	FLAT:?AddRef@CRegObject@ATL@@UAGKXZ
	DD	FLAT:?Release@CRegObject@ATL@@UAGKXZ
	DD	FLAT:?AddReplacement@CRegObject@ATL@@UAGJPB_W0@Z
	DD	FLAT:?ClearReplacements@CRegObject@ATL@@UAGJXZ
	DD	FLAT:??_ECRegObject@ATL@@UAEPAXI@Z
CONST	ENDS
;	COMDAT ?rgszNeverDelete@CRegParser@ATL@@1QBQB_WB
CONST	SEGMENT
?rgszNeverDelete@CRegParser@ATL@@1QBQB_WB DD FLAT:??_C@_1M@EJNEECMJ@?$AAA?$AAp?$AAp?$AAI?$AAD@ ; ATL::CRegParser::rgszNeverDelete
	DD	FLAT:??_C@_1M@KANJNLFF@?$AAC?$AAL?$AAS?$AAI?$AAD@
	DD	FLAT:??_C@_1CK@OEKPKBNA@?$AAC?$AAo?$AAm?$AAp?$AAo?$AAn?$AAe?$AAn?$AAt?$AA?5?$AAC?$AAa?$AAt?$AAe?$AAg@
	DD	FLAT:??_C@_1BC@NKMMNMGL@?$AAF?$AAi?$AAl?$AAe?$AAT?$AAy?$AAp?$AAe@
	DD	FLAT:??_C@_1BE@EKPAFMCP@?$AAI?$AAn?$AAt?$AAe?$AAr?$AAf?$AAa?$AAc?$AAe@
	DD	FLAT:??_C@_1BC@MAICEHGI@?$AAH?$AAa?$AAr?$AAd?$AAw?$AAa?$AAr?$AAe@
	DD	FLAT:??_C@_19HLLLM@?$AAM?$AAi?$AAm?$AAe@
	DD	FLAT:??_C@_17OMAOINJK@?$AAS?$AAA?$AAM@
	DD	FLAT:??_C@_1BC@IBECJAAI@?$AAS?$AAE?$AAC?$AAU?$AAR?$AAI?$AAT?$AAY@
	DD	FLAT:??_C@_1O@GBFINDKL@?$AAS?$AAY?$AAS?$AAT?$AAE?$AAM@
	DD	FLAT:??_C@_1BC@EAHCMADO@?$AAS?$AAo?$AAf?$AAt?$AAw?$AAa?$AAr?$AAe@
	DD	FLAT:??_C@_1BA@JIHHIEDE@?$AAT?$AAy?$AAp?$AAe?$AAL?$AAi?$AAb@
CONST	ENDS
;	COMDAT __GUID_b196b288_bab4_101a_b69c_00aa00341d07
CONST	SEGMENT
__GUID_b196b288_bab4_101a_b69c_00aa00341d07 DD 0b196b288H
	DW	0bab4H
	DW	0101aH
	DB	0b6H
	DB	09cH
	DB	00H
	DB	0aaH
	DB	00H
	DB	034H
	DB	01dH
	DB	07H
CONST	ENDS
;	COMDAT __GUID_0000010e_0000_0000_c000_000000000046
CONST	SEGMENT
__GUID_0000010e_0000_0000_c000_000000000046 DD 010eH
	DW	00H
	DW	00H
	DB	0c0H
	DB	00H
	DB	00H
	DB	00H
	DB	00H
	DB	00H
	DB	00H
	DB	046H
CONST	ENDS
;	COMDAT ??_C@_1O@JDLOHAN@?$AAD?$AAe?$AAl?$AAe?$AAt?$AAe@
CONST	SEGMENT
??_C@_1O@JDLOHAN@?$AAD?$AAe?$AAl?$AAe?$AAt?$AAe@ DB 'D', 00H, 'e', 00H, 'l'
	DB	00H, 'e', 00H, 't', 00H, 'e', 00H, 00H, 00H	; `string'
CONST	ENDS
;	COMDAT ?szDelete@ATL@@3QB_WB
CONST	SEGMENT
?szDelete@ATL@@3QB_WB DD FLAT:??_C@_1O@JDLOHAN@?$AAD?$AAe?$AAl?$AAe?$AAt?$AAe@ ; ATL::szDelete
CONST	ENDS
;	COMDAT ??_C@_1BC@GCKHIPE@?$AAN?$AAo?$AAR?$AAe?$AAm?$AAo?$AAv?$AAe@
CONST	SEGMENT
??_C@_1BC@GCKHIPE@?$AAN?$AAo?$AAR?$AAe?$AAm?$AAo?$AAv?$AAe@ DB 'N', 00H, 'o'
	DB	00H, 'R', 00H, 'e', 00H, 'm', 00H, 'o', 00H, 'v', 00H, 'e', 00H
	DB	00H, 00H					; `string'
CONST	ENDS
;	COMDAT ?szNoRemove@ATL@@3QB_WB
CONST	SEGMENT
?szNoRemove@ATL@@3QB_WB DD FLAT:??_C@_1BC@GCKHIPE@?$AAN?$AAo?$AAR?$AAe?$AAm?$AAo?$AAv?$AAe@ ; ATL::szNoRemove
CONST	ENDS
;	COMDAT ??_C@_1BI@JFAIJMHL@?$AAF?$AAo?$AAr?$AAc?$AAe?$AAR?$AAe?$AAm?$AAo?$AAv?$AAe@
CONST	SEGMENT
??_C@_1BI@JFAIJMHL@?$AAF?$AAo?$AAr?$AAc?$AAe?$AAR?$AAe?$AAm?$AAo?$AAv?$AAe@ DB 'F'
	DB	00H, 'o', 00H, 'r', 00H, 'c', 00H, 'e', 00H, 'R', 00H, 'e', 00H
	DB	'm', 00H, 'o', 00H, 'v', 00H, 'e', 00H, 00H, 00H ; `string'
CONST	ENDS
;	COMDAT ?szForceRemove@ATL@@3QB_WB
CONST	SEGMENT
?szForceRemove@ATL@@3QB_WB DD FLAT:??_C@_1BI@JFAIJMHL@?$AAF?$AAo?$AAr?$AAc?$AAe?$AAR?$AAe?$AAm?$AAo?$AAv?$AAe@ ; ATL::szForceRemove
CONST	ENDS
;	COMDAT ??_C@_17LLMMEOJD@?$AAV?$AAa?$AAl@
CONST	SEGMENT
??_C@_17LLMMEOJD@?$AAV?$AAa?$AAl@ DB 'V', 00H, 'a', 00H, 'l', 00H, 00H, 00H ; `string'
CONST	ENDS
;	COMDAT ?szValToken@ATL@@3QB_WB
CONST	SEGMENT
?szValToken@ATL@@3QB_WB DD FLAT:??_C@_17LLMMEOJD@?$AAV?$AAa?$AAl@ ; ATL::szValToken
CONST	ENDS
;	COMDAT ??_C@_13OPKGLAFF@?$AAB@
CONST	SEGMENT
??_C@_13OPKGLAFF@?$AAB@ DB 'B', 00H, 00H, 00H		; `string'
CONST	ENDS
;	COMDAT ?szBinaryVal@ATL@@3QB_WB
CONST	SEGMENT
?szBinaryVal@ATL@@3QB_WB DD FLAT:??_C@_13OPKGLAFF@?$AAB@ ; ATL::szBinaryVal
CONST	ENDS
;	COMDAT ??_C@_13MKMNOPIJ@?$AAD@
CONST	SEGMENT
??_C@_13MKMNOPIJ@?$AAD@ DB 'D', 00H, 00H, 00H		; `string'
CONST	ENDS
;	COMDAT ?szDwordVal@ATL@@3QB_WB
CONST	SEGMENT
?szDwordVal@ATL@@3QB_WB DD FLAT:??_C@_13MKMNOPIJ@?$AAD@	; ATL::szDwordVal
CONST	ENDS
;	COMDAT ??_C@_13LHMFKAAD@?$AAM@
CONST	SEGMENT
??_C@_13LHMFKAAD@?$AAM@ DB 'M', 00H, 00H, 00H		; `string'
CONST	ENDS
;	COMDAT ?multiszStringVal@ATL@@3QB_WB
CONST	SEGMENT
?multiszStringVal@ATL@@3QB_WB DD FLAT:??_C@_13LHMFKAAD@?$AAM@ ; ATL::multiszStringVal
CONST	ENDS
;	COMDAT ??_C@_13HADIAKP@?$AAS@
CONST	SEGMENT
??_C@_13HADIAKP@?$AAS@ DB 'S', 00H, 00H, 00H		; `string'
CONST	ENDS
;	COMDAT ?szStringVal@ATL@@3QB_WB
CONST	SEGMENT
?szStringVal@ATL@@3QB_WB DD FLAT:??_C@_13HADIAKP@?$AAS@	; ATL::szStringVal
CONST	ENDS
;	COMDAT ?chEquals@ATL@@3_WB
CONST	SEGMENT
?chEquals@ATL@@3_WB DW 03dH				; ATL::chEquals
CONST	ENDS
;	COMDAT ?chQuote@ATL@@3_WB
CONST	SEGMENT
?chQuote@ATL@@3_WB DW 027H				; ATL::chQuote
CONST	ENDS
;	COMDAT ?chLeftBracket@ATL@@3_WB
CONST	SEGMENT
?chLeftBracket@ATL@@3_WB DW 07bH			; ATL::chLeftBracket
CONST	ENDS
;	COMDAT ?chRightBracket@ATL@@3_WB
CONST	SEGMENT
?chRightBracket@ATL@@3_WB DW 07dH			; ATL::chRightBracket
CONST	ENDS
;	COMDAT ?chDirSep@ATL@@3_WB
CONST	SEGMENT
?chDirSep@ATL@@3_WB DW 05cH				; ATL::chDirSep
CONST	ENDS
;	COMDAT ??_C@_1M@EJNEECMJ@?$AAA?$AAp?$AAp?$AAI?$AAD@
CONST	SEGMENT
??_C@_1M@EJNEECMJ@?$AAA?$AAp?$AAp?$AAI?$AAD@ DB 'A', 00H, 'p', 00H, 'p', 00H
	DB	'I', 00H, 'D', 00H, 00H, 00H			; `string'
CONST	ENDS
;	COMDAT ??_C@_1M@KANJNLFF@?$AAC?$AAL?$AAS?$AAI?$AAD@
CONST	SEGMENT
??_C@_1M@KANJNLFF@?$AAC?$AAL?$AAS?$AAI?$AAD@ DB 'C', 00H, 'L', 00H, 'S', 00H
	DB	'I', 00H, 'D', 00H, 00H, 00H			; `string'
CONST	ENDS
;	COMDAT ??_C@_1BM@FHAEDBFK@?$AAa?$AAt?$AAl?$AAT?$AAr?$AAa?$AAc?$AAe?$AAI?$AAS?$AAA?$AAP?$AAI@
CONST	SEGMENT
??_C@_1BM@FHAEDBFK@?$AAa?$AAt?$AAl?$AAT?$AAr?$AAa?$AAc?$AAe?$AAI?$AAS?$AAA?$AAP?$AAI@ DB 'a'
	DB	00H, 't', 00H, 'l', 00H, 'T', 00H, 'r', 00H, 'a', 00H, 'c', 00H
	DB	'e', 00H, 'I', 00H, 'S', 00H, 'A', 00H, 'P', 00H, 'I', 00H, 00H
	DB	00H						; `string'
CONST	ENDS
;	COMDAT ??_C@_1BK@OPAPOCAL@?$AAa?$AAt?$AAl?$AAT?$AAr?$AAa?$AAc?$AAe?$AAS?$AAy?$AAn?$AAc@
CONST	SEGMENT
??_C@_1BK@OPAPOCAL@?$AAa?$AAt?$AAl?$AAT?$AAr?$AAa?$AAc?$AAe?$AAS?$AAy?$AAn?$AAc@ DB 'a'
	DB	00H, 't', 00H, 'l', 00H, 'T', 00H, 'r', 00H, 'a', 00H, 'c', 00H
	DB	'e', 00H, 'S', 00H, 'y', 00H, 'n', 00H, 'c', 00H, 00H, 00H ; `string'
CONST	ENDS
;	COMDAT ??_C@_1CC@DMMBNCFG@?$AAa?$AAt?$AAl?$AAT?$AAr?$AAa?$AAc?$AAe?$AAS?$AAe?$AAc?$AAu?$AAr?$AAi?$AAt@
CONST	SEGMENT
??_C@_1CC@DMMBNCFG@?$AAa?$AAt?$AAl?$AAT?$AAr?$AAa?$AAc?$AAe?$AAS?$AAe?$AAc?$AAu?$AAr?$AAi?$AAt@ DB 'a'
	DB	00H, 't', 00H, 'l', 00H, 'T', 00H, 'r', 00H, 'a', 00H, 'c', 00H
	DB	'e', 00H, 'S', 00H, 'e', 00H, 'c', 00H, 'u', 00H, 'r', 00H, 'i'
	DB	00H, 't', 00H, 'y', 00H, 00H, 00H		; `string'
CONST	ENDS
;	COMDAT ??_C@_1BK@DMHCKHHD@?$AAa?$AAt?$AAl?$AAT?$AAr?$AAa?$AAc?$AAe?$AAU?$AAt?$AAi?$AAl@
CONST	SEGMENT
??_C@_1BK@DMHCKHHD@?$AAa?$AAt?$AAl?$AAT?$AAr?$AAa?$AAc?$AAe?$AAU?$AAt?$AAi?$AAl@ DB 'a'
	DB	00H, 't', 00H, 'l', 00H, 'T', 00H, 'r', 00H, 'a', 00H, 'c', 00H
	DB	'e', 00H, 'U', 00H, 't', 00H, 'i', 00H, 'l', 00H, 00H, 00H ; `string'
CONST	ENDS
;	COMDAT ??_C@_1BI@OKDLCIEM@?$AAa?$AAt?$AAl?$AAT?$AAr?$AAa?$AAc?$AAe?$AAM?$AAa?$AAp@
CONST	SEGMENT
??_C@_1BI@OKDLCIEM@?$AAa?$AAt?$AAl?$AAT?$AAr?$AAa?$AAc?$AAe?$AAM?$AAa?$AAp@ DB 'a'
	DB	00H, 't', 00H, 'l', 00H, 'T', 00H, 'r', 00H, 'a', 00H, 'c', 00H
	DB	'e', 00H, 'M', 00H, 'a', 00H, 'p', 00H, 00H, 00H ; `string'
CONST	ENDS
;	COMDAT ??_C@_1BO@GMLILNDJ@?$AAa?$AAt?$AAl?$AAT?$AAr?$AAa?$AAc?$AAe?$AAS?$AAt?$AAr?$AAi?$AAn?$AAg@
CONST	SEGMENT
??_C@_1BO@GMLILNDJ@?$AAa?$AAt?$AAl?$AAT?$AAr?$AAa?$AAc?$AAe?$AAS?$AAt?$AAr?$AAi?$AAn?$AAg@ DB 'a'
	DB	00H, 't', 00H, 'l', 00H, 'T', 00H, 'r', 00H, 'a', 00H, 'c', 00H
	DB	'e', 00H, 'S', 00H, 't', 00H, 'r', 00H, 'i', 00H, 'n', 00H, 'g'
	DB	00H, 00H, 00H				; `string'
CONST	ENDS
;	COMDAT ??_C@_1CA@PBPHANCD@?$AAa?$AAt?$AAl?$AAT?$AAr?$AAa?$AAc?$AAe?$AAS?$AAt?$AAe?$AAn?$AAc?$AAi?$AAl@
CONST	SEGMENT
??_C@_1CA@PBPHANCD@?$AAa?$AAt?$AAl?$AAT?$AAr?$AAa?$AAc?$AAe?$AAS?$AAt?$AAe?$AAn?$AAc?$AAi?$AAl@ DB 'a'
	DB	00H, 't', 00H, 'l', 00H, 'T', 00H, 'r', 00H, 'a', 00H, 'c', 00H
	DB	'e', 00H, 'S', 00H, 't', 00H, 'e', 00H, 'n', 00H, 'c', 00H, 'i'
	DB	00H, 'l', 00H, 00H, 00H			; `string'
CONST	ENDS
;	COMDAT ??_7?$CComObject@V?$CComEnum@UIEnumConnectionPoints@@$1?_GUID_b196b285_bab4_101a_b69c_00aa00341d07@@3U__s_GUID@@BPAUIConnectionPoint@@V?$_CopyInterface@UIConnectionPoint@@@ATL@@VCComSingleThreadModel@6@@ATL@@@ATL@@6B@
CONST	SEGMENT
??_7?$CComObject@V?$CComEnum@UIEnumConnectionPoints@@$1?_GUID_b196b285_bab4_101a_b69c_00aa00341d07@@3U__s_GUID@@BPAUIConnectionPoint@@V?$_CopyInterface@UIConnectionPoint@@@ATL@@VCComSingleThreadModel@6@@ATL@@@ATL@@6B@ DD FLAT:?QueryInterface@?$CComObject@V?$CComEnum@UIEnumConnectionPoints@@$1?_GUID_b196b285_bab4_101a_b69c_00aa00341d07@@3U__s_GUID@@BPAUIConnectionPoint@@V?$_CopyInterface@UIConnectionPoint@@@ATL@@VCComSingleThreadModel@6@@ATL@@@ATL@@UAGJABU_GUID@@PAPAX@Z ; ATL::CComObject<ATL::CComEnum<IEnumConnectionPoints,&_GUID_b196b285_bab4_101a_b69c_00aa00341d07,IConnectionPoint *,ATL::_CopyInterface<IConnectionPoint>,ATL::CComSingleThreadModel> >::`vftable'
	DD	FLAT:?AddRef@?$CComObject@V?$CComEnum@UIEnumConnectionPoints@@$1?_GUID_b196b285_bab4_101a_b69c_00aa00341d07@@3U__s_GUID@@BPAUIConnectionPoint@@V?$_CopyInterface@UIConnectionPoint@@@ATL@@VCComSingleThreadModel@6@@ATL@@@ATL@@UAGKXZ
	DD	FLAT:?Release@?$CComObject@V?$CComEnum@UIEnumConnectionPoints@@$1?_GUID_b196b285_bab4_101a_b69c_00aa00341d07@@3U__s_GUID@@BPAUIConnectionPoint@@V?$_CopyInterface@UIConnectionPoint@@@ATL@@VCComSingleThreadModel@6@@ATL@@@ATL@@UAGKXZ
	DD	FLAT:?Next@?$CComEnumImpl@UIEnumConnectionPoints@@$1?_GUID_b196b285_bab4_101a_b69c_00aa00341d07@@3U__s_GUID@@BPAUIConnectionPoint@@V?$_CopyInterface@UIConnectionPoint@@@ATL@@@ATL@@UAGJKPAPAUIConnectionPoint@@PAK@Z
	DD	FLAT:?Skip@?$CComEnumImpl@UIEnumConnectionPoints@@$1?_GUID_b196b285_bab4_101a_b69c_00aa00341d07@@3U__s_GUID@@BPAUIConnectionPoint@@V?$_CopyInterface@UIConnectionPoint@@@ATL@@@ATL@@UAGJK@Z
	DD	FLAT:?Reset@?$CComEnumImpl@UIEnumConnectionPoints@@$1?_GUID_b196b285_bab4_101a_b69c_00aa00341d07@@3U__s_GUID@@BPAUIConnectionPoint@@V?$_CopyInterface@UIConnectionPoint@@@ATL@@@ATL@@UAGJXZ
	DD	FLAT:?Clone@?$CComEnumImpl@UIEnumConnectionPoints@@$1?_GUID_b196b285_bab4_101a_b69c_00aa00341d07@@3U__s_GUID@@BPAUIConnectionPoint@@V?$_CopyInterface@UIConnectionPoint@@@ATL@@@ATL@@UAGJPAPAUIEnumConnectionPoints@@@Z
	DD	FLAT:??_E?$CComObject@V?$CComEnum@UIEnumConnectionPoints@@$1?_GUID_b196b285_bab4_101a_b69c_00aa00341d07@@3U__s_GUID@@BPAUIConnectionPoint@@V?$_CopyInterface@UIConnectionPoint@@@ATL@@VCComSingleThreadModel@6@@ATL@@@ATL@@UAEPAXI@Z
CONST	ENDS
;	COMDAT ??_C@_1BM@GIKLHLFD@?$AAa?$AAt?$AAl?$AAT?$AAr?$AAa?$AAc?$AAe?$AAC?$AAa?$AAc?$AAh?$AAe@
CONST	SEGMENT
??_C@_1BM@GIKLHLFD@?$AAa?$AAt?$AAl?$AAT?$AAr?$AAa?$AAc?$AAe?$AAC?$AAa?$AAc?$AAh?$AAe@ DB 'a'
	DB	00H, 't', 00H, 'l', 00H, 'T', 00H, 'r', 00H, 'a', 00H, 'c', 00H
	DB	'e', 00H, 'C', 00H, 'a', 00H, 'c', 00H, 'h', 00H, 'e', 00H, 00H
	DB	00H						; `string'
CONST	ENDS
;	COMDAT ??_C@_1BK@NCJHOFCL@?$AAa?$AAt?$AAl?$AAT?$AAr?$AAa?$AAc?$AAe?$AAT?$AAi?$AAm?$AAe@
CONST	SEGMENT
??_C@_1BK@NCJHOFCL@?$AAa?$AAt?$AAl?$AAT?$AAr?$AAa?$AAc?$AAe?$AAT?$AAi?$AAm?$AAe@ DB 'a'
	DB	00H, 't', 00H, 'l', 00H, 'T', 00H, 'r', 00H, 'a', 00H, 'c', 00H
	DB	'e', 00H, 'T', 00H, 'i', 00H, 'm', 00H, 'e', 00H, 00H, 00H ; `string'
CONST	ENDS
;	COMDAT ??_C@_1CE@IMMADNAP@?$AAa?$AAt?$AAl?$AAT?$AAr?$AAa?$AAc?$AAe?$AAE?$AAx?$AAc?$AAe?$AAp?$AAt?$AAi@
CONST	SEGMENT
??_C@_1CE@IMMADNAP@?$AAa?$AAt?$AAl?$AAT?$AAr?$AAa?$AAc?$AAe?$AAE?$AAx?$AAc?$AAe?$AAp?$AAt?$AAi@ DB 'a'
	DB	00H, 't', 00H, 'l', 00H, 'T', 00H, 'r', 00H, 'a', 00H, 'c', 00H
	DB	'e', 00H, 'E', 00H, 'x', 00H, 'c', 00H, 'e', 00H, 'p', 00H, 't'
	DB	00H, 'i', 00H, 'o', 00H, 'n', 00H, 00H, 00H	; `string'
CONST	ENDS
;	COMDAT ??_C@_1BC@ENICKDH@?$AAC?$AAo?$AAn?$AAt?$AAe?$AAn?$AAt?$AAs@
CONST	SEGMENT
??_C@_1BC@ENICKDH@?$AAC?$AAo?$AAn?$AAt?$AAe?$AAn?$AAt?$AAs@ DB 'C', 00H, 'o'
	DB	00H, 'n', 00H, 't', 00H, 'e', 00H, 'n', 00H, 't', 00H, 's', 00H
	DB	00H, 00H					; `string'
CONST	ENDS
;	COMDAT ?vszContents@?6??Save@?$IPersistStorageImpl@VCOPOSDeviceMonitor@@@ATL@@UAGJPAUIStorage@@H@Z@4PB_WB
_DATA	SEGMENT
?vszContents@?6??Save@?$IPersistStorageImpl@VCOPOSDeviceMonitor@@@ATL@@UAGJPAUIStorage@@H@Z@4PB_WB DD FLAT:??_C@_1BC@ENICKDH@?$AAC?$AAo?$AAn?$AAt?$AAe?$AAn?$AAt?$AAs@ ; `ATL::IPersistStorageImpl<COPOSDeviceMonitor>::Save'::`7'::vszContents
_DATA	ENDS
;	COMDAT ??_C@_1CG@KFEEMCDH@?$AAa?$AAt?$AAl?$AAT?$AAr?$AAa?$AAc?$AAe?$AAA?$AAl?$AAl?$AAo?$AAc?$AAa?$AAt@
CONST	SEGMENT
??_C@_1CG@KFEEMCDH@?$AAa?$AAt?$AAl?$AAT?$AAr?$AAa?$AAc?$AAe?$AAA?$AAl?$AAl?$AAo?$AAc?$AAa?$AAt@ DB 'a'
	DB	00H, 't', 00H, 'l', 00H, 'T', 00H, 'r', 00H, 'a', 00H, 'c', 00H
	DB	'e', 00H, 'A', 00H, 'l', 00H, 'l', 00H, 'o', 00H, 'c', 00H, 'a'
	DB	00H, 't', 00H, 'i', 00H, 'o', 00H, 'n', 00H, 00H, 00H ; `string'
CONST	ENDS
;	COMDAT ??_C@_1CA@DMHPIODO@?$AAa?$AAt?$AAl?$AAT?$AAr?$AAa?$AAc?$AAe?$AAN?$AAo?$AAt?$AAI?$AAm?$AAp?$AAl@
CONST	SEGMENT
??_C@_1CA@DMHPIODO@?$AAa?$AAt?$AAl?$AAT?$AAr?$AAa?$AAc?$AAe?$AAN?$AAo?$AAt?$AAI?$AAm?$AAp?$AAl@ DB 'a'
	DB	00H, 't', 00H, 'l', 00H, 'T', 00H, 'r', 00H, 'a', 00H, 'c', 00H
	DB	'e', 00H, 'N', 00H, 'o', 00H, 't', 00H, 'I', 00H, 'm', 00H, 'p'
	DB	00H, 'l', 00H, 00H, 00H			; `string'
CONST	ENDS
;	COMDAT __GUID_00000117_0000_0000_c000_000000000046
CONST	SEGMENT
__GUID_00000117_0000_0000_c000_000000000046 DD 0117H
	DW	00H
	DW	00H
	DB	0c0H
	DB	00H
	DB	00H
	DB	00H
	DB	00H
	DB	00H
	DB	00H
	DB	046H
CONST	ENDS
;	COMDAT ??_C@_1BO@EFPHNHHN@?$AAa?$AAt?$AAl?$AAT?$AAr?$AAa?$AAc?$AAe?$AAS?$AAn?$AAa?$AAp?$AAi?$AAn@
CONST	SEGMENT
??_C@_1BO@EFPHNHHN@?$AAa?$AAt?$AAl?$AAT?$AAr?$AAa?$AAc?$AAe?$AAS?$AAn?$AAa?$AAp?$AAi?$AAn@ DB 'a'
	DB	00H, 't', 00H, 'l', 00H, 'T', 00H, 'r', 00H, 'a', 00H, 'c', 00H
	DB	'e', 00H, 'S', 00H, 'n', 00H, 'a', 00H, 'p', 00H, 'i', 00H, 'n'
	DB	00H, 00H, 00H				; `string'
CONST	ENDS
;	COMDAT ??_C@_1CG@MNMMIOOI@?$AAa?$AAt?$AAl?$AAT?$AAr?$AAa?$AAc?$AAe?$AAD?$AAB?$AAP?$AAr?$AAo?$AAv?$AAi@
CONST	SEGMENT
??_C@_1CG@MNMMIOOI@?$AAa?$AAt?$AAl?$AAT?$AAr?$AAa?$AAc?$AAe?$AAD?$AAB?$AAP?$AAr?$AAo?$AAv?$AAi@ DB 'a'
	DB	00H, 't', 00H, 'l', 00H, 'T', 00H, 'r', 00H, 'a', 00H, 'c', 00H
	DB	'e', 00H, 'D', 00H, 'B', 00H, 'P', 00H, 'r', 00H, 'o', 00H, 'v'
	DB	00H, 'i', 00H, 'd', 00H, 'e', 00H, 'r', 00H, 00H, 00H ; `string'
CONST	ENDS
;	COMDAT __GUID_b196b286_bab4_101a_b69c_00aa00341d07
CONST	SEGMENT
__GUID_b196b286_bab4_101a_b69c_00aa00341d07 DD 0b196b286H
	DW	0bab4H
	DW	0101aH
	DB	0b6H
	DB	09cH
	DB	00H
	DB	0aaH
	DB	00H
	DB	034H
	DB	01dH
	DB	07H
CONST	ENDS
;	COMDAT ??_C@_1BE@IEBMACEM@?$AAD?$AAa?$AAt?$AAa?$AAE?$AAv?$AAe?$AAn?$AAt@
CONST	SEGMENT
??_C@_1BE@IEBMACEM@?$AAD?$AAa?$AAt?$AAa?$AAE?$AAv?$AAe?$AAn?$AAt@ DB 'D', 00H
	DB	'a', 00H, 't', 00H, 'a', 00H, 'E', 00H, 'v', 00H, 'e', 00H, 'n'
	DB	00H, 't', 00H, 00H, 00H			; `string'
CONST	ENDS
;	COMDAT ??_C@_1BM@CBGEBBBJ@?$AAD?$AAi?$AAr?$AAe?$AAc?$AAt?$AAI?$AAO?$AAE?$AAv?$AAe?$AAn?$AAt@
CONST	SEGMENT
??_C@_1BM@CBGEBBBJ@?$AAD?$AAi?$AAr?$AAe?$AAc?$AAt?$AAI?$AAO?$AAE?$AAv?$AAe?$AAn?$AAt@ DB 'D'
	DB	00H, 'i', 00H, 'r', 00H, 'e', 00H, 'c', 00H, 't', 00H, 'I', 00H
	DB	'O', 00H, 'E', 00H, 'v', 00H, 'e', 00H, 'n', 00H, 't', 00H, 00H
	DB	00H						; `string'
CONST	ENDS
;	COMDAT ??_C@_1BG@LODEBHDD@?$AAE?$AAr?$AAr?$AAo?$AAr?$AAE?$AAv?$AAe?$AAn?$AAt@
CONST	SEGMENT
??_C@_1BG@LODEBHDD@?$AAE?$AAr?$AAr?$AAo?$AAr?$AAE?$AAv?$AAe?$AAn?$AAt@ DB 'E'
	DB	00H, 'r', 00H, 'r', 00H, 'o', 00H, 'r', 00H, 'E', 00H, 'v', 00H
	DB	'e', 00H, 'n', 00H, 't', 00H, 00H, 00H	; `string'
CONST	ENDS
;	COMDAT ??_C@_1CC@JNJJDOOH@?$AAa?$AAt?$AAl?$AAT?$AAr?$AAa?$AAc?$AAe?$AAD?$AAB?$AAC?$AAl?$AAi?$AAe?$AAn@
CONST	SEGMENT
??_C@_1CC@JNJJDOOH@?$AAa?$AAt?$AAl?$AAT?$AAr?$AAa?$AAc?$AAe?$AAD?$AAB?$AAC?$AAl?$AAi?$AAe?$AAn@ DB 'a'
	DB	00H, 't', 00H, 'l', 00H, 'T', 00H, 'r', 00H, 'a', 00H, 'c', 00H
	DB	'e', 00H, 'D', 00H, 'B', 00H, 'C', 00H, 'l', 00H, 'i', 00H, 'e'
	DB	00H, 'n', 00H, 't', 00H, 00H, 00H		; `string'
CONST	ENDS
;	COMDAT ??_C@_1CE@PGFMOFKI@?$AAS?$AAt?$AAa?$AAt?$AAu?$AAs?$AAU?$AAp?$AAd?$AAa?$AAt?$AAe?$AAE?$AAv?$AAe@
CONST	SEGMENT
??_C@_1CE@PGFMOFKI@?$AAS?$AAt?$AAa?$AAt?$AAu?$AAs?$AAU?$AAp?$AAd?$AAa?$AAt?$AAe?$AAE?$AAv?$AAe@ DB 'S'
	DB	00H, 't', 00H, 'a', 00H, 't', 00H, 'u', 00H, 's', 00H, 'U', 00H
	DB	'p', 00H, 'd', 00H, 'a', 00H, 't', 00H, 'e', 00H, 'E', 00H, 'v'
	DB	00H, 'e', 00H, 'n', 00H, 't', 00H, 00H, 00H	; `string'
CONST	ENDS
;	COMDAT __GUID_00020400_0000_0000_c000_000000000046
CONST	SEGMENT
__GUID_00020400_0000_0000_c000_000000000046 DD 020400H
	DW	00H
	DW	00H
	DB	0c0H
	DB	00H
	DB	00H
	DB	00H
	DB	00H
	DB	00H
	DB	00H
	DB	046H
CONST	ENDS
;	COMDAT __GUID_00000000_0000_0000_c000_000000000046
CONST	SEGMENT
__GUID_00000000_0000_0000_c000_000000000046 DD 00H
	DW	00H
	DW	00H
	DB	0c0H
	DB	00H
	DB	00H
	DB	00H
	DB	00H
	DB	00H
	DB	00H
	DB	046H
CONST	ENDS
;	COMDAT __GUID_b196b289_bab4_101a_b69c_00aa00341d07
CONST	SEGMENT
__GUID_b196b289_bab4_101a_b69c_00aa00341d07 DD 0b196b289H
	DW	0bab4H
	DW	0101aH
	DB	0b6H
	DB	09cH
	DB	00H
	DB	0aaH
	DB	00H
	DB	034H
	DB	01dH
	DB	07H
CONST	ENDS
;	COMDAT ??_C@_1CA@OMOMONMN@?$AAa?$AAt?$AAl?$AAT?$AAr?$AAa?$AAc?$AAe?$AAH?$AAo?$AAs?$AAt?$AAi?$AAn?$AAg@
CONST	SEGMENT
??_C@_1CA@OMOMONMN@?$AAa?$AAt?$AAl?$AAT?$AAr?$AAa?$AAc?$AAe?$AAH?$AAo?$AAs?$AAt?$AAi?$AAn?$AAg@ DB 'a'
	DB	00H, 't', 00H, 'l', 00H, 'T', 00H, 'r', 00H, 'a', 00H, 'c', 00H
	DB	'e', 00H, 'H', 00H, 'o', 00H, 's', 00H, 't', 00H, 'i', 00H, 'n'
	DB	00H, 'g', 00H, 00H, 00H			; `string'
CONST	ENDS
;	COMDAT ??_7?$CComObjectCached@VCComClassFactory@ATL@@@ATL@@6B@
CONST	SEGMENT
??_7?$CComObjectCached@VCComClassFactory@ATL@@@ATL@@6B@ DD FLAT:?QueryInterface@?$CComObjectCached@VCComClassFactory@ATL@@@ATL@@UAGJABU_GUID@@PAPAX@Z ; ATL::CComObjectCached<ATL::CComClassFactory>::`vftable'
	DD	FLAT:?AddRef@?$CComObjectCached@VCComClassFactory@ATL@@@ATL@@UAGKXZ
	DD	FLAT:?Release@?$CComObjectCached@VCComClassFactory@ATL@@@ATL@@UAGKXZ
	DD	FLAT:?CreateInstance@CComClassFactory@ATL@@UAGJPAUIUnknown@@ABU_GUID@@PAPAX@Z
	DD	FLAT:?LockServer@CComClassFactory@ATL@@UAGJH@Z
	DD	FLAT:??_E?$CComObjectCached@VCComClassFactory@ATL@@@ATL@@UAEPAXI@Z
CONST	ENDS
;	COMDAT __GUID_00000119_0000_0000_c000_000000000046
CONST	SEGMENT
__GUID_00000119_0000_0000_c000_000000000046 DD 0119H
	DW	00H
	DW	00H
	DB	0c0H
	DB	00H
	DB	00H
	DB	00H
	DB	00H
	DB	00H
	DB	00H
	DB	046H
CONST	ENDS
;	COMDAT __GUID_9c2cad80_3424_11cf_b670_00aa004cd6d8
CONST	SEGMENT
__GUID_9c2cad80_3424_11cf_b670_00aa004cd6d8 DD 09c2cad80H
	DW	03424H
	DW	011cfH
	DB	0b6H
	DB	070H
	DB	00H
	DB	0aaH
	DB	00H
	DB	04cH
	DB	0d6H
	DB	0d8H
CONST	ENDS
;	COMDAT __GUID_922eada0_3424_11cf_b670_00aa004cd6d8
CONST	SEGMENT
__GUID_922eada0_3424_11cf_b670_00aa004cd6d8 DD 0922eada0H
	DW	03424H
	DW	011cfH
	DB	0b6H
	DB	070H
	DB	00H
	DB	0aaH
	DB	00H
	DB	04cH
	DB	0d6H
	DB	0d8H
CONST	ENDS
;	COMDAT ??_C@_1CC@IMNJGBED@?$AAa?$AAt?$AAl?$AAT?$AAr?$AAa?$AAc?$AAe?$AAC?$AAo?$AAn?$AAt?$AAr?$AAo?$AAl@
CONST	SEGMENT
??_C@_1CC@IMNJGBED@?$AAa?$AAt?$AAl?$AAT?$AAr?$AAa?$AAc?$AAe?$AAC?$AAo?$AAn?$AAt?$AAr?$AAo?$AAl@ DB 'a'
	DB	00H, 't', 00H, 'l', 00H, 'T', 00H, 'r', 00H, 'a', 00H, 'c', 00H
	DB	'e', 00H, 'C', 00H, 'o', 00H, 'n', 00H, 't', 00H, 'r', 00H, 'o'
	DB	00H, 'l', 00H, 's', 00H, 00H, 00H		; `string'
CONST	ENDS
;	COMDAT ??_C@_1CE@NAJDPMNB@?$AAa?$AAt?$AAl?$AAT?$AAr?$AAa?$AAc?$AAe?$AAW?$AAi?$AAn?$AAd?$AAo?$AAw?$AAi@
CONST	SEGMENT
??_C@_1CE@NAJDPMNB@?$AAa?$AAt?$AAl?$AAT?$AAr?$AAa?$AAc?$AAe?$AAW?$AAi?$AAn?$AAd?$AAo?$AAw?$AAi@ DB 'a'
	DB	00H, 't', 00H, 'l', 00H, 'T', 00H, 'r', 00H, 'a', 00H, 'c', 00H
	DB	'e', 00H, 'W', 00H, 'i', 00H, 'n', 00H, 'd', 00H, 'o', 00H, 'w'
	DB	00H, 'i', 00H, 'n', 00H, 'g', 00H, 00H, 00H	; `string'
CONST	ENDS
;	COMDAT ??_7CComModule@ATL@@6B@
CONST	SEGMENT
??_7CComModule@ATL@@6B@ DD FLAT:??_ECComModule@ATL@@UAEPAXI@Z ; ATL::CComModule::`vftable'
	DD	FLAT:?Lock@CAtlModule@ATL@@UAEJXZ
	DD	FLAT:?Unlock@CAtlModule@ATL@@UAEJXZ
	DD	FLAT:?GetLockCount@CAtlModule@ATL@@UAEJXZ
	DD	FLAT:?GetGITPtr@CAtlModule@ATL@@UAEJPAPAUIGlobalInterfaceTable@@@Z
	DD	FLAT:?AddCommonRGSReplacements@?$CAtlModuleT@VCComModule@ATL@@@ATL@@UAEJPAUIRegistrarBase@@@Z
	DD	FLAT:?UpdateRegistryFromResourceD@CComModule@ATL@@UAGJIHPAU_ATL_REGMAP_ENTRY@2@@Z
	DD	FLAT:?UpdateRegistryFromResourceD@CComModule@ATL@@UAGJPB_WHPAU_ATL_REGMAP_ENTRY@2@@Z
	DD	FLAT:?UpdateRegistryFromResource@CComModule@ATL@@UAGJIHPAU_ATL_REGMAP_ENTRY@2@@Z
	DD	FLAT:?UpdateRegistryFromResource@CComModule@ATL@@UAGJPB_WHPAU_ATL_REGMAP_ENTRY@2@@Z
CONST	ENDS
;	COMDAT ??_C@_1CC@BNHGJFNK@?$AAa?$AAt?$AAl?$AAT?$AAr?$AAa?$AAc?$AAe?$AAR?$AAe?$AAf?$AAc?$AAo?$AAu?$AAn@
CONST	SEGMENT
??_C@_1CC@BNHGJFNK@?$AAa?$AAt?$AAl?$AAT?$AAr?$AAa?$AAc?$AAe?$AAR?$AAe?$AAf?$AAc?$AAo?$AAu?$AAn@ DB 'a'
	DB	00H, 't', 00H, 'l', 00H, 'T', 00H, 'r', 00H, 'a', 00H, 'c', 00H
	DB	'e', 00H, 'R', 00H, 'e', 00H, 'f', 00H, 'c', 00H, 'o', 00H, 'u'
	DB	00H, 'n', 00H, 't', 00H, 00H, 00H		; `string'
CONST	ENDS
;	COMDAT ??_C@_1CE@NIAEAIDK@?$AAa?$AAt?$AAl?$AAT?$AAr?$AAa?$AAc?$AAe?$AAR?$AAe?$AAg?$AAi?$AAs?$AAt?$AAr@
CONST	SEGMENT
??_C@_1CE@NIAEAIDK@?$AAa?$AAt?$AAl?$AAT?$AAr?$AAa?$AAc?$AAe?$AAR?$AAe?$AAg?$AAi?$AAs?$AAt?$AAr@ DB 'a'
	DB	00H, 't', 00H, 'l', 00H, 'T', 00H, 'r', 00H, 'a', 00H, 'c', 00H
	DB	'e', 00H, 'R', 00H, 'e', 00H, 'g', 00H, 'i', 00H, 's', 00H, 't'
	DB	00H, 'r', 00H, 'a', 00H, 'r', 00H, 00H, 00H	; `string'
CONST	ENDS
;	COMDAT ??_C@_1BG@FPLJJEMF@?$AAa?$AAt?$AAl?$AAT?$AAr?$AAa?$AAc?$AAe?$AAQ?$AAI@
CONST	SEGMENT
??_C@_1BG@FPLJJEMF@?$AAa?$AAt?$AAl?$AAT?$AAr?$AAa?$AAc?$AAe?$AAQ?$AAI@ DB 'a'
	DB	00H, 't', 00H, 'l', 00H, 'T', 00H, 'r', 00H, 'a', 00H, 'c', 00H
	DB	'e', 00H, 'Q', 00H, 'I', 00H, 00H, 00H	; `string'
CONST	ENDS
;	COMDAT ??_C@_17IOIMFDBO@?$AA_?$AAc?$AAy@
CONST	SEGMENT
??_C@_17IOIMFDBO@?$AA_?$AAc?$AAy@ DB '_', 00H, 'c', 00H, 'y', 00H, 00H, 00H ; `string'
CONST	ENDS
;	COMDAT ??_C@_17DGDADEHL@?$AA_?$AAc?$AAx@
CONST	SEGMENT
??_C@_17DGDADEHL@?$AA_?$AAc?$AAx@ DB '_', 00H, 'c', 00H, 'x', 00H, 00H, 00H ; `string'
CONST	ENDS
;	COMDAT ?pPropMap@?1??GetPropertyMap@COPOSDeviceMonitor@@SAPBUATL_PROPMAP_ENTRY@ATL@@XZ@4QBU34@B
CONST	SEGMENT
?pPropMap@?1??GetPropertyMap@COPOSDeviceMonitor@@SAPBUATL_PROPMAP_ENTRY@ATL@@XZ@4QBU34@B DD FLAT:??_C@_17DGDADEHL@?$AA_?$AAc?$AAx@ ; `COPOSDeviceMonitor::GetPropertyMap'::`2'::pPropMap
	DD	FLAT:_GUID_NULL
	DD	00H
	DD	00H
	DD	00H
	DD	00H
	DD	028H
	DD	04H
	DW	013H
	ORG $+2
	DD	FLAT:??_C@_17IOIMFDBO@?$AA_?$AAc?$AAy@
	DD	FLAT:_GUID_NULL
	DD	00H
	DD	00H
	DD	00H
	DD	00H
	DD	02cH
	DD	04H
	DW	013H
	ORG $+2
	DD	00H
	DD	00H
	DD	FLAT:_GUID_NULL
	DD	00H
	DD	00H
	DD	00H
	DD	00H
	DD	00H
	DW	00H
	ORG $+2
CONST	ENDS
;	COMDAT __GUID_cb5bdc81_93c1_11cf_8f20_00805f2cd064
CONST	SEGMENT
__GUID_cb5bdc81_93c1_11cf_8f20_00805f2cd064 DD 0cb5bdc81H
	DW	093c1H
	DW	011cfH
	DB	08fH
	DB	020H
	DB	00H
	DB	080H
	DB	05fH
	DB	02cH
	DB	0d0H
	DB	064H
CONST	ENDS
;	COMDAT __GUID_b196b283_bab4_101a_b69c_00aa00341d07
CONST	SEGMENT
__GUID_b196b283_bab4_101a_b69c_00aa00341d07 DD 0b196b283H
	DW	0bab4H
	DW	0101aH
	DB	0b6H
	DB	09cH
	DB	00H
	DB	0aaH
	DB	00H
	DB	034H
	DB	01dH
	DB	07H
CONST	ENDS
;	COMDAT ??_C@_1BI@MAFGHOEE@?$AAa?$AAt?$AAl?$AAT?$AAr?$AAa?$AAc?$AAe?$AAC?$AAO?$AAM@
CONST	SEGMENT
??_C@_1BI@MAFGHOEE@?$AAa?$AAt?$AAl?$AAT?$AAr?$AAa?$AAc?$AAe?$AAC?$AAO?$AAM@ DB 'a'
	DB	00H, 't', 00H, 'l', 00H, 'T', 00H, 'r', 00H, 'a', 00H, 'c', 00H
	DB	'e', 00H, 'C', 00H, 'O', 00H, 'M', 00H, 00H, 00H ; `string'
CONST	ENDS
;	COMDAT __GUID_0000010a_0000_0000_c000_000000000046
CONST	SEGMENT
__GUID_0000010a_0000_0000_c000_000000000046 DD 010aH
	DW	00H
	DW	00H
	DB	0c0H
	DB	00H
	DB	00H
	DB	00H
	DB	00H
	DB	00H
	DB	00H
	DB	046H
CONST	ENDS
;	COMDAT __GUID_cf51ed10_62fe_11cf_bf86_00a0c9034836
CONST	SEGMENT
__GUID_cf51ed10_62fe_11cf_bf86_00a0c9034836 DD 0cf51ed10H
	DW	062feH
	DW	011cfH
	DB	0bfH
	DB	086H
	DB	00H
	DB	0a0H
	DB	0c9H
	DB	03H
	DB	048H
	DB	036H
CONST	ENDS
;	COMDAT ??_C@_1CA@ONGMEOAB@?$AAa?$AAt?$AAl?$AAT?$AAr?$AAa?$AAc?$AAe?$AAG?$AAe?$AAn?$AAe?$AAr?$AAa?$AAl@
CONST	SEGMENT
??_C@_1CA@ONGMEOAB@?$AAa?$AAt?$AAl?$AAT?$AAr?$AAa?$AAc?$AAe?$AAG?$AAe?$AAn?$AAe?$AAr?$AAa?$AAl@ DB 'a'
	DB	00H, 't', 00H, 'l', 00H, 'T', 00H, 'r', 00H, 'a', 00H, 'c', 00H
	DB	'e', 00H, 'G', 00H, 'e', 00H, 'n', 00H, 'e', 00H, 'r', 00H, 'a'
	DB	00H, 'l', 00H, 00H, 00H			; `string'
CONST	ENDS
;	COMDAT ?_entries@?1??_GetEntries@COPOSDeviceMonitor@@SGPBU_ATL_INTMAP_ENTRY@ATL@@XZ@4QBU34@B
CONST	SEGMENT
?_entries@?1??_GetEntries@COPOSDeviceMonitor@@SGPBU_ATL_INTMAP_ENTRY@ATL@@XZ@4QBU34@B DD FLAT:_IID_IDispatch ; `COPOSDeviceMonitor::_GetEntries'::`2'::_entries
	DD	00H
	DD	01H
	DD	FLAT:_IID_IOPOSDeviceMonitor
	DD	00H
	DD	01H
	DD	FLAT:_IID_IOPOSDeviceMonitor_1_16
	DD	00H
	DD	01H
	DD	FLAT:__GUID_3af24292_0c96_11ce_a0cf_00aa00600ab8
	DD	080H
	DD	01H
	DD	FLAT:__GUID_00000127_0000_0000_c000_000000000046
	DD	080H
	DD	01H
	DD	FLAT:__GUID_0000010d_0000_0000_c000_000000000046
	DD	080H
	DD	01H
	DD	FLAT:__GUID_1c2056cc_5ef4_101b_8bc8_00aa003e3b29
	DD	084H
	DD	01H
	DD	FLAT:__GUID_00000113_0000_0000_c000_000000000046
	DD	084H
	DD	01H
	DD	FLAT:__GUID_00000114_0000_0000_c000_000000000046
	DD	084H
	DD	01H
	DD	FLAT:__GUID_00000117_0000_0000_c000_000000000046
	DD	07cH
	DD	01H
	DD	FLAT:__GUID_b196b288_bab4_101a_b69c_00aa00341d07
	DD	074H
	DD	01H
	DD	FLAT:__GUID_00000112_0000_0000_c000_000000000046
	DD	078H
	DD	01H
	DD	FLAT:__GUID_7fd52380_4e07_101b_ae2d_08002b2ec713
	DD	070H
	DD	01H
	DD	FLAT:__GUID_0000010c_0000_0000_c000_000000000046
	DD	070H
	DD	01H
	DD	FLAT:__GUID_b196b284_bab4_101a_b69c_00aa00341d07
	DD	088H
	DD	01H
	DD	FLAT:__GUID_b196b28b_bab4_101a_b69c_00aa00341d07
	DD	090H
	DD	01H
	DD	FLAT:__GUID_cf51ed10_62fe_11cf_bf86_00a0c9034836
	DD	094H
	DD	01H
	DD	FLAT:__GUID_0000010a_0000_0000_c000_000000000046
	DD	08cH
	DD	01H
	DD	FLAT:__GUID_0000010e_0000_0000_c000_000000000046
	DD	098H
	DD	01H
	DD	FLAT:__GUID_b196b283_bab4_101a_b69c_00aa00341d07
	DD	09cH
	DD	01H
	DD	FLAT:__GUID_a6bc3ac0_dbaa_11ce_9de3_00aa004bb851
	DD	09cH
	DD	01H
	DD	FLAT:__GUID_cb5bdc81_93c1_11cf_8f20_00805f2cd064
	DD	0a0H
	DD	01H
	DD	FLAT:__GUID_b196b284_bab4_101a_b69c_00aa00341d07
	DD	088H
	DD	01H
	DD	00H
	DD	00H
	DD	00H
CONST	ENDS
;	COMDAT __GUID_00000146_0000_0000_c000_000000000046
CONST	SEGMENT
__GUID_00000146_0000_0000_c000_000000000046 DD 0146H
	DW	00H
	DW	00H
	DB	0c0H
	DB	00H
	DB	00H
	DB	00H
	DB	00H
	DB	00H
	DB	00H
	DB	046H
CONST	ENDS
;	COMDAT __GUID_0000010c_0000_0000_c000_000000000046
CONST	SEGMENT
__GUID_0000010c_0000_0000_c000_000000000046 DD 010cH
	DW	00H
	DW	00H
	DB	0c0H
	DB	00H
	DB	00H
	DB	00H
	DB	00H
	DB	00H
	DB	00H
	DB	046H
CONST	ENDS
;	COMDAT __GUID_a6bc3ac0_dbaa_11ce_9de3_00aa004bb851
CONST	SEGMENT
__GUID_a6bc3ac0_dbaa_11ce_9de3_00aa004bb851 DD 0a6bc3ac0H
	DW	0dbaaH
	DW	011ceH
	DB	09dH
	DB	0e3H
	DB	00H
	DB	0aaH
	DB	00H
	DB	04bH
	DB	0b8H
	DB	051H
CONST	ENDS
;	COMDAT ?_tih@?$IProvideClassInfo2Impl@$1?CLSID_OPOSDeviceMonitor@@3U_GUID@@B$1?DIID__IOPOSDeviceMonitorEvents@@3U2@B$1?LIBID_OposDeviceMonitor_CCO@@3U2@B$00$0A@VCComTypeInfoHolder@ATL@@@ATL@@1VCComTypeInfoHolder@2@A
_DATA	SEGMENT
?_tih@?$IProvideClassInfo2Impl@$1?CLSID_OPOSDeviceMonitor@@3U_GUID@@B$1?DIID__IOPOSDeviceMonitorEvents@@3U2@B$1?LIBID_OposDeviceMonitor_CCO@@3U2@B$00$0A@VCComTypeInfoHolder@ATL@@@ATL@@1VCComTypeInfoHolder@2@A DD FLAT:_CLSID_OPOSDeviceMonitor ; ATL::IProvideClassInfo2Impl<&CLSID_OPOSDeviceMonitor,&DIID__IOPOSDeviceMonitorEvents,&LIBID_OposDeviceMonitor_CCO,1,0,ATL::CComTypeInfoHolder>::_tih
	DD	FLAT:_LIBID_OposDeviceMonitor_CCO
	DW	01H
	DW	00H
	DD	00H
	DD	00H
	DD	00H
	DD	00H
_DATA	ENDS
;	COMDAT __GUID_b196b285_bab4_101a_b69c_00aa00341d07
CONST	SEGMENT
__GUID_b196b285_bab4_101a_b69c_00aa00341d07 DD 0b196b285H
	DW	0bab4H
	DW	0101aH
	DB	0b6H
	DB	09cH
	DB	00H
	DB	0aaH
	DB	00H
	DB	034H
	DB	01dH
	DB	07H
CONST	ENDS
;	COMDAT ___pobjMapEntryLast
ATL$__z	SEGMENT
___pobjMapEntryLast DD 00H
ATL$__z	ENDS
;	COMDAT ___pobjMapEntryFirst
ATL$__a	SEGMENT
___pobjMapEntryFirst DD 00H
ATL$__a	ENDS
;	COMDAT __GUID_b196b287_bab4_101a_b69c_00aa00341d07
CONST	SEGMENT
__GUID_b196b287_bab4_101a_b69c_00aa00341d07 DD 0b196b287H
	DW	0bab4H
	DW	0101aH
	DB	0b6H
	DB	09cH
	DB	00H
	DB	0aaH
	DB	00H
	DB	034H
	DB	01dH
	DB	07H
CONST	ENDS
;	COMDAT _LIBID_ATLLib
CONST	SEGMENT
_LIBID_ATLLib DD 044ec0535H
	DW	0400fH
	DW	011d0H
	DB	09dH
	DB	0cdH
	DB	00H
	DB	0a0H
	DB	0c9H
	DB	03H
	DB	091H
	DB	0d3H
CONST	ENDS
;	COMDAT ?_tih@?$IDispatchImpl@UIOPOSDeviceMonitor@@$1?IID_IOPOSDeviceMonitor@@3U_GUID@@B$1?LIBID_OposDeviceMonitor_CCO@@3U3@B$00$0A@VCComTypeInfoHolder@ATL@@@ATL@@1VCComTypeInfoHolder@2@A
_DATA	SEGMENT
?_tih@?$IDispatchImpl@UIOPOSDeviceMonitor@@$1?IID_IOPOSDeviceMonitor@@3U_GUID@@B$1?LIBID_OposDeviceMonitor_CCO@@3U3@B$00$0A@VCComTypeInfoHolder@ATL@@@ATL@@1VCComTypeInfoHolder@2@A DD FLAT:_IID_IOPOSDeviceMonitor ; ATL::IDispatchImpl<IOPOSDeviceMonitor,&IID_IOPOSDeviceMonitor,&LIBID_OposDeviceMonitor_CCO,1,0,ATL::CComTypeInfoHolder>::_tih
	DD	FLAT:_LIBID_OposDeviceMonitor_CCO
	DW	01H
	DW	00H
	DD	00H
	DD	00H
	DD	00H
	DD	00H
_DATA	ENDS
;	COMDAT ??_C@_0BI@MNCFCPFK@RegCreateKeyTransactedW@
CONST	SEGMENT
??_C@_0BI@MNCFCPFK@RegCreateKeyTransactedW@ DB 'RegCreateKeyTransactedW', 00H ; `string'
CONST	ENDS
;	COMDAT __GUID_00000114_0000_0000_c000_000000000046
CONST	SEGMENT
__GUID_00000114_0000_0000_c000_000000000046 DD 0114H
	DW	00H
	DW	00H
	DB	0c0H
	DB	00H
	DB	00H
	DB	00H
	DB	00H
	DB	00H
	DB	00H
	DB	046H
CONST	ENDS
;	COMDAT ??_C@_1BK@BIGILECK@?$AAA?$AAd?$AAv?$AAa?$AAp?$AAi?$AA3?$AA2?$AA?4?$AAd?$AAl?$AAl@
CONST	SEGMENT
??_C@_1BK@BIGILECK@?$AAA?$AAd?$AAv?$AAa?$AAp?$AAi?$AA3?$AA2?$AA?4?$AAd?$AAl?$AAl@ DB 'A'
	DB	00H, 'd', 00H, 'v', 00H, 'a', 00H, 'p', 00H, 'i', 00H, '3', 00H
	DB	'2', 00H, '.', 00H, 'd', 00H, 'l', 00H, 'l', 00H, 00H, 00H ; `string'
CONST	ENDS
;	COMDAT _CLSID_OPOSDeviceMonitor
CONST	SEGMENT
_CLSID_OPOSDeviceMonitor DD 0ccb90382H
	DW	0b81eH
	DW	011d2H
	DB	0abH
	DB	074H
	DB	00H
	DB	040H
	DB	05H
	DB	04cH
	DB	037H
	DB	019H
CONST	ENDS
;	COMDAT _DIID__IOPOSDeviceMonitorEvents
CONST	SEGMENT
_DIID__IOPOSDeviceMonitorEvents DD 0ccb90383H
	DW	0b81eH
	DW	011d2H
	DB	0abH
	DB	074H
	DB	00H
	DB	040H
	DB	05H
	DB	04cH
	DB	037H
	DB	019H
CONST	ENDS
;	COMDAT _LIBID_OposDeviceMonitor_CCO
CONST	SEGMENT
_LIBID_OposDeviceMonitor_CCO DD 0ccb90380H
	DW	0b81eH
	DW	011d2H
	DB	0abH
	DB	074H
	DB	00H
	DB	040H
	DB	05H
	DB	04cH
	DB	037H
	DB	019H
CONST	ENDS
;	COMDAT _IID_IOPOSDeviceMonitor
CONST	SEGMENT
_IID_IOPOSDeviceMonitor DD 0ccb91381H
	DW	0b81eH
	DW	011d2H
	DB	0abH
	DB	074H
	DB	00H
	DB	040H
	DB	05H
	DB	04cH
	DB	037H
	DB	019H
CONST	ENDS
;	COMDAT _IID_IOPOSDeviceMonitor_1_16
CONST	SEGMENT
_IID_IOPOSDeviceMonitor_1_16 DD 0ccb90381H
	DW	0b81eH
	DW	011d2H
	DB	0abH
	DB	074H
	DB	00H
	DB	040H
	DB	05H
	DB	04cH
	DB	037H
	DB	019H
CONST	ENDS
;	COMDAT ?s_Release@?7??GetIDsOfNames@CComTypeInfoHolder@ATL@@QAEJABU_GUID@@PAPA_WIKPAJ@Z@4PA_WA
_DATA	SEGMENT
?s_Release@?7??GetIDsOfNames@CComTypeInfoHolder@ATL@@QAEJABU_GUID@@PAPA_WIKPAJ@Z@4PA_WA DB 'R'
	DB	00H, 'e', 00H, 'l', 00H, 'e', 00H, 'a', 00H, 's', 00H, 'e', 00H
	DB	'D', 00H, 'e', 00H, 'v', 00H, 'i', 00H, 'c', 00H, 'e', 00H, 00H
	DB	00H						; `ATL::CComTypeInfoHolder::GetIDsOfNames'::`8'::s_Release
_DATA	ENDS
;	COMDAT ?s_Claim@?7??GetIDsOfNames@CComTypeInfoHolder@ATL@@QAEJABU_GUID@@PAPA_WIKPAJ@Z@4PA_WA
_DATA	SEGMENT
?s_Claim@?7??GetIDsOfNames@CComTypeInfoHolder@ATL@@QAEJABU_GUID@@PAPA_WIKPAJ@Z@4PA_WA DB 'C'
	DB	00H, 'l', 00H, 'a', 00H, 'i', 00H, 'm', 00H, 'D', 00H, 'e', 00H
	DB	'v', 00H, 'i', 00H, 'c', 00H, 'e', 00H, 00H, 00H ; `ATL::CComTypeInfoHolder::GetIDsOfNames'::`8'::s_Claim
_DATA	ENDS
;	COMDAT __GUID_00000001_0000_0000_c000_000000000046
CONST	SEGMENT
__GUID_00000001_0000_0000_c000_000000000046 DD 01H
	DW	00H
	DW	00H
	DB	0c0H
	DB	00H
	DB	00H
	DB	00H
	DB	00H
	DB	00H
	DB	00H
	DB	046H
CONST	ENDS
;	COMDAT ?_entries@?1??_GetEntries@CComClassFactory@ATL@@SGPBU_ATL_INTMAP_ENTRY@3@XZ@4QBU43@B
CONST	SEGMENT
?_entries@?1??_GetEntries@CComClassFactory@ATL@@SGPBU_ATL_INTMAP_ENTRY@3@XZ@4QBU43@B DD FLAT:__GUID_00000001_0000_0000_c000_000000000046 ; `ATL::CComClassFactory::_GetEntries'::`2'::_entries
	DD	00H
	DD	01H
	DD	00H
	DD	00H
	DD	00H
CONST	ENDS
;	COMDAT ??_7CComClassFactory@ATL@@6B@
CONST	SEGMENT
??_7CComClassFactory@ATL@@6B@ DD FLAT:__purecall	; ATL::CComClassFactory::`vftable'
	DD	FLAT:__purecall
	DD	FLAT:__purecall
	DD	FLAT:?CreateInstance@CComClassFactory@ATL@@UAGJPAUIUnknown@@ABU_GUID@@PAPAX@Z
	DD	FLAT:?LockServer@CComClassFactory@ATL@@UAGJH@Z
	DD	FLAT:??_ECComClassFactory@ATL@@UAEPAXI@Z
CONST	ENDS
PUBLIC	??_H@YGXPAXIIP6EPAX0@Z@Z			; `vector constructor iterator'
PUBLIC	??_I@YGXPAXIIP6EX0@Z@Z				; `vector destructor iterator'
PUBLIC	_InlineIsEqualGUID
PUBLIC	_DllGetClassObject@12
PUBLIC	_DllCanUnloadNow@0
PUBLIC	?AtlThrowImpl@ATL@@YGXJ@Z			; ATL::AtlThrowImpl
PUBLIC	___local_stdio_printf_options
PUBLIC	__vswprintf_s_l
PUBLIC	_swprintf_s
PUBLIC	??$AtlMultiply@H@ATL@@YAJPAHHH@Z		; ATL::AtlMultiply<int>
PUBLIC	??$AtlMultiply@I@ATL@@YAJPAIII@Z		; ATL::AtlMultiply<unsigned int>
PUBLIC	??$AtlMultiply@K@ATL@@YAJPAKKK@Z		; ATL::AtlMultiply<unsigned long>
PUBLIC	?AtlCoTaskMemCAlloc@ATL@@YAPAXKK@Z		; ATL::AtlCoTaskMemCAlloc
PUBLIC	?AtlCoTaskMemRecalloc@ATL@@YAPAXPAXKK@Z		; ATL::AtlCoTaskMemRecalloc
PUBLIC	?memcpy_s@Checked@ATL@@YAXPAXIPBXI@Z		; ATL::Checked::memcpy_s
PUBLIC	?_AtlVerifyStackAvailable@_ATL_SAFE_ALLOCA_IMPL@ATL@@YA_NK@Z ; ATL::_ATL_SAFE_ALLOCA_IMPL::_AtlVerifyStackAvailable
PUBLIC	??$AtlAdd@K@ATL@@YAJPAKKK@Z			; ATL::AtlAdd<unsigned long>
PUBLIC	?ocscpy_s@@YA_NPA_WIPB_W@Z			; ocscpy_s
PUBLIC	?Allocate@?$CAtlSafeAllocBufferManager@VCCRTAllocator@ATL@@@_ATL_SAFE_ALLOCA_IMPL@ATL@@QAEPAXK@Z ; ATL::_ATL_SAFE_ALLOCA_IMPL::CAtlSafeAllocBufferManager<ATL::CCRTAllocator>::Allocate
PUBLIC	?_AtlRaiseException@ATL@@YAXKK@Z		; ATL::_AtlRaiseException
PUBLIC	?AtlCrtErrorCheck@ATL@@YAHH@Z			; ATL::AtlCrtErrorCheck
PUBLIC	?wcscpy_s@Checked@ATL@@YAXPA_WIPB_W@Z		; ATL::Checked::wcscpy_s
PUBLIC	?_AtlInitializeCriticalSectionEx@ATL@@YAHPAU_RTL_CRITICAL_SECTION@@KK@Z ; ATL::_AtlInitializeCriticalSectionEx
PUBLIC	?Init@CComCriticalSection@ATL@@QAEJXZ		; ATL::CComCriticalSection::Init
PUBLIC	_DllRegisterServer@0
PUBLIC	_DllUnregisterServer@0
PUBLIC	?AtlHresultFromLastError@ATL@@YAJXZ		; ATL::AtlHresultFromLastError
PUBLIC	?AtlHresultFromWin32@ATL@@YAJK@Z		; ATL::AtlHresultFromWin32
PUBLIC	?AtlComQIPtrAssign2@ATL@@YAXPAPAUIUnknown@@PAU2@ABU_GUID@@@Z ; ATL::AtlComQIPtrAssign2
PUBLIC	?AtlInternalOleLoadFromStream@ATL@@YAJPAUIStream@@ABU_GUID@@PAPAXTClassesAllowedInStream@1@K@Z ; ATL::AtlInternalOleLoadFromStream
PUBLIC	?GetProperty@?$CComPtr@UIDispatch@@@ATL@@SAJPAUIDispatch@@JPAUtagVARIANT@@@Z ; ATL::CComPtr<IDispatch>::GetProperty
PUBLIC	??4?$CComPtr@UIUnknown@@@ATL@@QAEPAUIUnknown@@PAU2@@Z ; ATL::CComPtr<IUnknown>::operator=
PUBLIC	?WriteToStream@CComBSTR@ATL@@QAEJPAUIStream@@@Z	; ATL::CComBSTR::WriteToStream
PUBLIC	?ReadFromStream@CComBSTR@ATL@@QAEJPAUIStream@@@Z ; ATL::CComBSTR::ReadFromStream
PUBLIC	??1CComVariant@ATL@@QAE@XZ			; ATL::CComVariant::~CComVariant
PUBLIC	?WriteToStream@CComVariant@ATL@@QAEJPAUIStream@@@Z ; ATL::CComVariant::WriteToStream
PUBLIC	?WriteToStream@CComVariant@ATL@@QAEJPAUIStream@@G@Z ; ATL::CComVariant::WriteToStream
PUBLIC	?ReadFromStream@CComVariant@ATL@@QAEJPAUIStream@@GTClassesAllowedInStream@2@K@Z ; ATL::CComVariant::ReadFromStream
PUBLIC	?GetSizeMax@CComVariant@ATL@@QBEJPAT_ULARGE_INTEGER@@@Z ; ATL::CComVariant::GetSizeMax
PUBLIC	??$AtlAdd@_K@ATL@@YAJPA_K_K1@Z			; ATL::AtlAdd<unsigned __int64>
PUBLIC	?RegCreateKeyExW@CAtlTransactionManager@ATL@@QAEJPAUHKEY__@@PB_WKPA_WKKQAU_SECURITY_ATTRIBUTES@@PAPAU3@PAK@Z ; ATL::CAtlTransactionManager::RegCreateKeyExW
PUBLIC	?RegOpenKeyExW@CAtlTransactionManager@ATL@@QAEJPAUHKEY__@@PB_WKKPAPAU3@@Z ; ATL::CAtlTransactionManager::RegOpenKeyExW
PUBLIC	?RegDeleteKeyW@CAtlTransactionManager@ATL@@QAEJPAUHKEY__@@PB_W@Z ; ATL::CAtlTransactionManager::RegDeleteKeyW
PUBLIC	?Add@?$CSimpleArray@GV?$CSimpleArrayEqualHelper@G@ATL@@@ATL@@QAEHABG@Z ; ATL::CSimpleArray<unsigned short,ATL::CSimpleArrayEqualHelper<unsigned short> >::Add
PUBLIC	?RemoveAll@?$CSimpleArray@GV?$CSimpleArrayEqualHelper@G@ATL@@@ATL@@QAEXXZ ; ATL::CSimpleArray<unsigned short,ATL::CSimpleArrayEqualHelper<unsigned short> >::RemoveAll
PUBLIC	??A?$CSimpleArray@GV?$CSimpleArrayEqualHelper@G@ATL@@@ATL@@QAEAAGH@Z ; ATL::CSimpleArray<unsigned short,ATL::CSimpleArrayEqualHelper<unsigned short> >::operator[]
PUBLIC	?AtlInternalQueryInterface@ATL@@YGJPAXPBU_ATL_INTMAP_ENTRY@1@ABU_GUID@@PAPAX@Z ; ATL::AtlInternalQueryInterface
PUBLIC	?AtlComModuleGetClassObject@ATL@@YGJPAU_ATL_COM_MODULE70@1@ABU_GUID@@1PAPAX@Z ; ATL::AtlComModuleGetClassObject
PUBLIC	?AtlRegisterClassCategoriesHelper@ATL@@YGJABU_GUID@@PBU_ATL_CATMAP_ENTRY@1@H@Z ; ATL::AtlRegisterClassCategoriesHelper
PUBLIC	?AtlLoadTypeLib@ATL@@YGJPAUHINSTANCE__@@PB_WPAPA_WPAPAUITypeLib@@@Z ; ATL::AtlLoadTypeLib
PUBLIC	?AtlRegisterTypeLib@ATL@@YGJPAUHINSTANCE__@@PB_W@Z ; ATL::AtlRegisterTypeLib
PUBLIC	?AtlUnRegisterTypeLib@ATL@@YGJPAUHINSTANCE__@@PB_W@Z ; ATL::AtlUnRegisterTypeLib
PUBLIC	?AtlComModuleRegisterServer@ATL@@YGJPAU_ATL_COM_MODULE70@1@HPBU_GUID@@@Z ; ATL::AtlComModuleRegisterServer
PUBLIC	?AtlComModuleUnregisterServer@ATL@@YGJPAU_ATL_COM_MODULE70@1@HPBU_GUID@@@Z ; ATL::AtlComModuleUnregisterServer
PUBLIC	?AtlWinModuleInit@ATL@@YGJPAU_ATL_WIN_MODULE70@1@@Z ; ATL::AtlWinModuleInit
PUBLIC	?AtlWinModuleTerm@ATL@@YGJPAU_ATL_WIN_MODULE70@1@PAUHINSTANCE__@@@Z ; ATL::AtlWinModuleTerm
PUBLIC	?AtlWinModuleAddCreateWndData@ATL@@YGXPAU_ATL_WIN_MODULE70@1@PAU_AtlCreateWndData@1@PAX@Z ; ATL::AtlWinModuleAddCreateWndData
PUBLIC	?AtlWinModuleExtractCreateWndData@ATL@@YGPAXPAU_ATL_WIN_MODULE70@1@@Z ; ATL::AtlWinModuleExtractCreateWndData
PUBLIC	?InlineIsEqualUnknown@ATL@@YGHABU_GUID@@@Z	; ATL::InlineIsEqualUnknown
PUBLIC	?SetStringValue@CRegKey@ATL@@QAEJPB_W0K@Z	; ATL::CRegKey::SetStringValue
PUBLIC	?SetMultiStringValue@CRegKey@ATL@@QAEJPB_W0@Z	; ATL::CRegKey::SetMultiStringValue
PUBLIC	?Open@CRegKey@ATL@@QAEJPAUHKEY__@@PB_WK@Z	; ATL::CRegKey::Open
PUBLIC	?Close@CRegKey@ATL@@QAEJXZ			; ATL::CRegKey::Close
PUBLIC	?DeleteSubKey@CRegKey@ATL@@QAEJPB_W@Z		; ATL::CRegKey::DeleteSubKey
PUBLIC	?RecurseDeleteKey@CRegKey@ATL@@QAEJPB_W@Z	; ATL::CRegKey::RecurseDeleteKey
PUBLIC	??0CAtlComModule@ATL@@QAE@XZ			; ATL::CAtlComModule::CAtlComModule
PUBLIC	?Term@CAtlComModule@ATL@@QAEXXZ			; ATL::CAtlComModule::Term
PUBLIC	??0CAtlWinModule@ATL@@QAE@XZ			; ATL::CAtlWinModule::CAtlWinModule
PUBLIC	??0CAtlModule@ATL@@QAE@XZ			; ATL::CAtlModule::CAtlModule
PUBLIC	?Term@CAtlModule@ATL@@QAEXXZ			; ATL::CAtlModule::Term
PUBLIC	??1CAtlModule@ATL@@UAE@XZ			; ATL::CAtlModule::~CAtlModule
PUBLIC	?AddTermFunc@CAtlModule@ATL@@QAEJP6GXK@ZK@Z	; ATL::CAtlModule::AddTermFunc
PUBLIC	?UpdateRegistryFromResource@CAtlModule@ATL@@QAGJPB_WHPAU_ATL_REGMAP_ENTRY@2@@Z ; ATL::CAtlModule::UpdateRegistryFromResource
PUBLIC	?UpdateRegistryFromResource@CAtlModule@ATL@@QAGJIHPAU_ATL_REGMAP_ENTRY@2@@Z ; ATL::CAtlModule::UpdateRegistryFromResource
PUBLIC	?EscapeSingleQuote@CAtlModule@ATL@@SAXPA_WIPB_W@Z ; ATL::CAtlModule::EscapeSingleQuote
PUBLIC	?RegisterServer@?$CAtlModuleT@VCComModule@ATL@@@ATL@@QAEJHPBU_GUID@@@Z ; ATL::CAtlModuleT<ATL::CComModule>::RegisterServer
PUBLIC	?UnregisterServer@?$CAtlModuleT@VCComModule@ATL@@@ATL@@QAEJHPBU_GUID@@@Z ; ATL::CAtlModuleT<ATL::CComModule>::UnregisterServer
PUBLIC	?Init@CComModule@ATL@@QAEJPAU_ATL_OBJMAP_ENTRY30@2@PAUHINSTANCE__@@PBU_GUID@@@Z ; ATL::CComModule::Init
PUBLIC	?Term@CComModule@ATL@@QAEXXZ			; ATL::CComModule::Term
PUBLIC	?GetClassObject@CComModule@ATL@@QAEJABU_GUID@@0PAPAX@Z ; ATL::CComModule::GetClassObject
PUBLIC	?RegisterServer@CComModule@ATL@@QAEJHPBU_GUID@@@Z ; ATL::CComModule::RegisterServer
PUBLIC	?UnregisterServer@CComModule@ATL@@QAEJHPBU_GUID@@@Z ; ATL::CComModule::UnregisterServer
PUBLIC	?Add@?$CSimpleMap@PA_WPA_WVCExpansionVectorEqualHelper@ATL@@@ATL@@QAEHABQA_W0@Z ; ATL::CSimpleMap<wchar_t *,wchar_t *,ATL::CExpansionVectorEqualHelper>::Add
PUBLIC	?RemoveAll@?$CSimpleMap@PA_WPA_WVCExpansionVectorEqualHelper@ATL@@@ATL@@QAEXXZ ; ATL::CSimpleMap<wchar_t *,wchar_t *,ATL::CExpansionVectorEqualHelper>::RemoveAll
PUBLIC	?Lookup@?$CSimpleMap@PA_WPA_WVCExpansionVectorEqualHelper@ATL@@@ATL@@QBEPA_WABQA_W@Z ; ATL::CSimpleMap<wchar_t *,wchar_t *,ATL::CExpansionVectorEqualHelper>::Lookup
PUBLIC	?GetKeyAt@?$CSimpleMap@PA_WPA_WVCExpansionVectorEqualHelper@ATL@@@ATL@@QBEAAPA_WH@Z ; ATL::CSimpleMap<wchar_t *,wchar_t *,ATL::CExpansionVectorEqualHelper>::GetKeyAt
PUBLIC	?GetValueAt@?$CSimpleMap@PA_WPA_WVCExpansionVectorEqualHelper@ATL@@@ATL@@QBEAAPA_WH@Z ; ATL::CSimpleMap<wchar_t *,wchar_t *,ATL::CExpansionVectorEqualHelper>::GetValueAt
PUBLIC	?FindKey@?$CSimpleMap@PA_WPA_WVCExpansionVectorEqualHelper@ATL@@@ATL@@QBEHABQA_W@Z ; ATL::CSimpleMap<wchar_t *,wchar_t *,ATL::CExpansionVectorEqualHelper>::FindKey
PUBLIC	?InternalSetAtIndex@?$CSimpleMap@PA_WPA_WVCExpansionVectorEqualHelper@ATL@@@ATL@@QAEXHABQA_W0@Z ; ATL::CSimpleMap<wchar_t *,wchar_t *,ATL::CExpansionVectorEqualHelper>::InternalSetAtIndex
PUBLIC	?Add@CExpansionVector@ATL@@QAEHPB_W0@Z		; ATL::CExpansionVector::Add
PUBLIC	?ClearReplacements@CExpansionVector@ATL@@QAEJXZ	; ATL::CExpansionVector::ClearReplacements
PUBLIC	?PreProcessBuffer@CRegParser@ATL@@QAEJPA_WPAPA_W@Z ; ATL::CRegParser::PreProcessBuffer
PUBLIC	?RegisterBuffer@CRegParser@ATL@@QAEJPA_WH@Z	; ATL::CRegParser::RegisterBuffer
PUBLIC	?SkipWhiteSpace@CRegParser@ATL@@IAEXXZ		; ATL::CRegParser::SkipWhiteSpace
PUBLIC	?NextToken@CRegParser@ATL@@IAEJPA_W@Z		; ATL::CRegParser::NextToken
PUBLIC	?AddValue@CRegParser@ATL@@IAEJAAVCRegKey@2@PB_WPA_W@Z ; ATL::CRegParser::AddValue
PUBLIC	?CanForceRemoveKey@CRegParser@ATL@@IAEHPB_W@Z	; ATL::CRegParser::CanForceRemoveKey
PUBLIC	?HasSubKeys@CRegParser@ATL@@IAEHPAUHKEY__@@@Z	; ATL::CRegParser::HasSubKeys
PUBLIC	?RegisterSubkeys@CRegParser@ATL@@IAEJPA_WPAUHKEY__@@HH@Z ; ATL::CRegParser::RegisterSubkeys
PUBLIC	?IsSpace@CRegParser@ATL@@IAEH_W@Z		; ATL::CRegParser::IsSpace
PUBLIC	?SkipAssignment@CRegParser@ATL@@IAEJPA_W@Z	; ATL::CRegParser::SkipAssignment
PUBLIC	?EndOfVar@CRegParser@ATL@@IAEHXZ		; ATL::CRegParser::EndOfVar
PUBLIC	?StrChrW@CRegParser@ATL@@KAPA_WPA_W_W@Z		; ATL::CRegParser::StrChrW
PUBLIC	?HKeyFromString@CRegParser@ATL@@KAPAUHKEY__@@PA_W@Z ; ATL::CRegParser::HKeyFromString
PUBLIC	?ChToByte@CRegParser@ATL@@KAE_W@Z		; ATL::CRegParser::ChToByte
PUBLIC	?VTFromRegType@CRegParser@ATL@@KAHPB_WAAG@Z	; ATL::CRegParser::VTFromRegType
PUBLIC	??0CParseBuffer@CRegParser@ATL@@QAE@H@Z		; ATL::CRegParser::CParseBuffer::CParseBuffer
PUBLIC	?Append@CParseBuffer@CRegParser@ATL@@QAEHPB_WH@Z ; ATL::CRegParser::CParseBuffer::Append
PUBLIC	?AddString@CParseBuffer@CRegParser@ATL@@QAEHPB_W@Z ; ATL::CRegParser::CParseBuffer::AddString
PUBLIC	??1CRegObject@ATL@@UAE@XZ			; ATL::CRegObject::~CRegObject
PUBLIC	?ResourceRegisterSz@CRegObject@ATL@@QAGJPB_W00@Z ; ATL::CRegObject::ResourceRegisterSz
PUBLIC	?ResourceUnregisterSz@CRegObject@ATL@@QAGJPB_W00@Z ; ATL::CRegObject::ResourceUnregisterSz
PUBLIC	?RegisterFromResource@CRegObject@ATL@@IAEJPB_W00H@Z ; ATL::CRegObject::RegisterFromResource
PUBLIC	?Allocate@?$CTempBuffer@_W$0EAA@VCCRTAllocator@ATL@@@ATL@@QAEPA_WI@Z ; ATL::CTempBuffer<wchar_t,1024,ATL::CCRTAllocator>::Allocate
PUBLIC	?AllocateHeap@?$CTempBuffer@_W$0EAA@VCCRTAllocator@ATL@@@ATL@@AAEXI@Z ; ATL::CTempBuffer<wchar_t,1024,ATL::CCRTAllocator>::AllocateHeap
PUBLIC	?FreeHeap@?$CTempBuffer@_W$0EAA@VCCRTAllocator@ATL@@@ATL@@AAEXXZ ; ATL::CTempBuffer<wchar_t,1024,ATL::CCRTAllocator>::FreeHeap
PUBLIC	?Allocate@?$CTempBuffer@_W$0BAA@VCCRTAllocator@ATL@@@ATL@@QAEPA_WI@Z ; ATL::CTempBuffer<wchar_t,256,ATL::CCRTAllocator>::Allocate
PUBLIC	?AllocateHeap@?$CTempBuffer@_W$0BAA@VCCRTAllocator@ATL@@@ATL@@AAEXI@Z ; ATL::CTempBuffer<wchar_t,256,ATL::CCRTAllocator>::AllocateHeap
PUBLIC	?FreeHeap@?$CTempBuffer@_W$0BAA@VCCRTAllocator@ATL@@@ATL@@AAEXXZ ; ATL::CTempBuffer<wchar_t,256,ATL::CCRTAllocator>::FreeHeap
PUBLIC	?Allocate@?$CTempBuffer@E$0BAA@VCCRTAllocator@ATL@@@ATL@@QAEPAEI@Z ; ATL::CTempBuffer<unsigned char,256,ATL::CCRTAllocator>::Allocate
PUBLIC	?AllocateHeap@?$CTempBuffer@E$0BAA@VCCRTAllocator@ATL@@@ATL@@AAEXI@Z ; ATL::CTempBuffer<unsigned char,256,ATL::CCRTAllocator>::AllocateHeap
PUBLIC	?FreeHeap@?$CTempBuffer@E$0BAA@VCCRTAllocator@ATL@@@ATL@@AAEXXZ ; ATL::CTempBuffer<unsigned char,256,ATL::CCRTAllocator>::FreeHeap
PUBLIC	?Init@CDynamicStdCallThunk2@ATL@@QAEHKPAX@Z	; ATL::CDynamicStdCallThunk2::Init
PUBLIC	?IsEqualObject@?$CComPtrBase@UITypeInfo@@@ATL@@QAE_NPAUIUnknown@@@Z ; ATL::CComPtrBase<ITypeInfo>::IsEqualObject
PUBLIC	??1?$CComObjectRootEx@VCComMultiThreadModel@ATL@@@ATL@@QAE@XZ ; ATL::CComObjectRootEx<ATL::CComMultiThreadModel>::~CComObjectRootEx<ATL::CComMultiThreadModel>
PUBLIC	?_AtlInitialConstruct@?$CComObjectRootEx@VCComMultiThreadModel@ATL@@@ATL@@QAEJXZ ; ATL::CComObjectRootEx<ATL::CComMultiThreadModel>::_AtlInitialConstruct
PUBLIC	??1CComClassFactory@ATL@@UAE@XZ			; ATL::CComClassFactory::~CComClassFactory
PUBLIC	??0stringdispid@CComTypeInfoHolder@ATL@@QAE@XZ	; ATL::CComTypeInfoHolder::stringdispid::stringdispid
PUBLIC	??1stringdispid@CComTypeInfoHolder@ATL@@QAE@XZ	; ATL::CComTypeInfoHolder::stringdispid::~stringdispid
PUBLIC	??_Estringdispid@CComTypeInfoHolder@ATL@@QAEPAXI@Z ; ATL::CComTypeInfoHolder::stringdispid::`vector deleting destructor'
PUBLIC	?GetTI@CComTypeInfoHolder@ATL@@QAEJKPAPAUITypeInfo@@@Z ; ATL::CComTypeInfoHolder::GetTI
PUBLIC	?GetTI@CComTypeInfoHolder@ATL@@QAEJK@Z		; ATL::CComTypeInfoHolder::GetTI
PUBLIC	?Cleanup@CComTypeInfoHolder@ATL@@SGXK@Z		; ATL::CComTypeInfoHolder::Cleanup
PUBLIC	?GetIDsOfNames@CComTypeInfoHolder@ATL@@QAEJABU_GUID@@PAPA_WIKPAJ@Z ; ATL::CComTypeInfoHolder::GetIDsOfNames
PUBLIC	?Invoke@CComTypeInfoHolder@ATL@@QAEJPAUIDispatch@@JABU_GUID@@KGPAUtagDISPPARAMS@@PAUtagVARIANT@@PAUtagEXCEPINFO@@PAI@Z ; ATL::CComTypeInfoHolder::Invoke
PUBLIC	?LoadNameCache@CComTypeInfoHolder@ATL@@QAEJPAUITypeInfo@@@Z ; ATL::CComTypeInfoHolder::LoadNameCache
PUBLIC	??$?4UITypeInfo2@@@?$CComPtr@UITypeInfo@@@ATL@@QAEPAUITypeInfo@@ABV?$CComPtr@UITypeInfo2@@@1@@Z ; ATL::CComPtr<ITypeInfo>::operator=<ITypeInfo2>
PUBLIC	?copy@?$_Copy@UtagCONNECTDATA@@@ATL@@SAJPAUtagCONNECTDATA@@PBU3@@Z ; ATL::_Copy<tagCONNECTDATA>::copy
PUBLIC	?Add@CComDynamicUnkArray@ATL@@QAEKPAUIUnknown@@@Z ; ATL::CComDynamicUnkArray::Add
PUBLIC	?Remove@CComDynamicUnkArray@ATL@@QAEHK@Z	; ATL::CComDynamicUnkArray::Remove
PUBLIC	?GetCookie@CComDynamicUnkArray@ATL@@QAGKPAPAUIUnknown@@@Z ; ATL::CComDynamicUnkArray::GetCookie
PUBLIC	?GetUnknown@CComDynamicUnkArray@ATL@@QAGPAUIUnknown@@K@Z ; ATL::CComDynamicUnkArray::GetUnknown
PUBLIC	?GetAt@CComDynamicUnkArray@ATL@@QAEPAUIUnknown@@H@Z ; ATL::CComDynamicUnkArray::GetAt
PUBLIC	?AtlWinModuleRegisterClassExW@ATL@@YGGPAU_ATL_WIN_MODULE70@1@PBUtagWNDCLASSEXW@@@Z ; ATL::AtlWinModuleRegisterClassExW
PUBLIC	?AtlCreateTargetDC@ATL@@YGPAUHDC__@@PAU2@PAUtagDVTARGETDEVICE@@@Z ; ATL::AtlCreateTargetDC
PUBLIC	?AtlHiMetricToPixel@ATL@@YGXPBUtagSIZE@@PAU2@@Z	; ATL::AtlHiMetricToPixel
PUBLIC	??0_ATL_MSG@ATL@@QAE@PAUHWND__@@IIJH@Z		; ATL::_ATL_MSG::_ATL_MSG
PUBLIC	?Register@_ATL_WNDCLASSINFOW@ATL@@QAEGPAP6GJPAUHWND__@@IIJ@Z@Z ; ATL::_ATL_WNDCLASSINFOW::Register
PUBLIC	?DefaultReflectionHandler@?$CWindowImplRoot@VCWindow@ATL@@@ATL@@SAHPAUHWND__@@IIJAAJ@Z ; ATL::CWindowImplRoot<ATL::CWindow>::DefaultReflectionHandler
PUBLIC	?WindowProc@?$CWindowImplBaseT@VCWindow@ATL@@V?$CWinTraits@$0FGAAAAAA@$0A@@2@@ATL@@SGJPAUHWND__@@IIJ@Z ; ATL::CWindowImplBaseT<ATL::CWindow,ATL::CWinTraits<1442840576,0> >::WindowProc
PUBLIC	?atlCreate@?$CWindowImplBaseT@VCWindow@ATL@@V?$CWinTraits@$0FGAAAAAA@$0A@@2@@ATL@@QAEPAUHWND__@@PAU3@V_U_RECT@2@PB_WKKV_U_MENUorID@2@GPAX@Z ; ATL::CWindowImplBaseT<ATL::CWindow,ATL::CWinTraits<1442840576,0> >::atlCreate
PUBLIC	?IsEqualObject@?$CComPtrBase@UIOleClientSite@@@ATL@@QAE_NPAUIUnknown@@@Z ; ATL::CComPtrBase<IOleClientSite>::IsEqualObject
PUBLIC	??4?$CComPtr@UIOleClientSite@@@ATL@@QAEPAUIOleClientSite@@PAU2@@Z ; ATL::CComPtr<IOleClientSite>::operator=
PUBLIC	??4?$CComPtr@UIAdviseSink@@@ATL@@QAEPAUIAdviseSink@@PAU2@@Z ; ATL::CComPtr<IAdviseSink>::operator=
PUBLIC	??$AtlModuleRegisterWndClassInfoT@VAtlModuleRegisterWndClassInfoParamW@ATL@@@ATL@@YAGPAU_ATL_BASE_MODULE70@0@PAU_ATL_WIN_MODULE70@0@PAU_ATL_WNDCLASSINFOW@0@PAP6GJPAUHWND__@@IIJ@ZVAtlModuleRegisterWndClassInfoParamW@0@@Z ; ATL::AtlModuleRegisterWndClassInfoT<ATL::AtlModuleRegisterWndClassInfoParamW>
PUBLIC	?GetZoomInfo@CComControlBase@ATL@@QAEXAAUATL_DRAWINFO@@@Z ; ATL::CComControlBase::GetZoomInfo
PUBLIC	?SendOnDataChange@CComControlBase@ATL@@QAEJK@Z	; ATL::CComControlBase::SendOnDataChange
PUBLIC	?OnSetFocus@CComControlBase@ATL@@QAEJIIJAAH@Z	; ATL::CComControlBase::OnSetFocus
PUBLIC	?OnKillFocus@CComControlBase@ATL@@QAEJIIJAAH@Z	; ATL::CComControlBase::OnKillFocus
PUBLIC	?OnMouseActivate@CComControlBase@ATL@@QAEJIIJAAH@Z ; ATL::CComControlBase::OnMouseActivate
PUBLIC	?GetAmbientLocaleID@CComControlBase@ATL@@QAEJAAK@Z ; ATL::CComControlBase::GetAmbientLocaleID
PUBLIC	?GetAmbientUserMode@CComControlBase@ATL@@QAEJAAH@Z ; ATL::CComControlBase::GetAmbientUserMode
PUBLIC	?DoesVerbUIActivate@CComControlBase@ATL@@QAEHJ@Z ; ATL::CComControlBase::DoesVerbUIActivate
PUBLIC	?DoesVerbActivate@CComControlBase@ATL@@QAEHJ@Z	; ATL::CComControlBase::DoesVerbActivate
PUBLIC	?SetControlFocus@CComControlBase@ATL@@QAEHH@Z	; ATL::CComControlBase::SetControlFocus
PUBLIC	?IQuickActivate_QuickActivate@CComControlBase@ATL@@QAEJPAUtagQACONTAINER@@PAUtagQACONTROL@@@Z ; ATL::CComControlBase::IQuickActivate_QuickActivate
PUBLIC	?DoVerbProperties@CComControlBase@ATL@@QAEJPBUtagRECT@@PAUHWND__@@@Z ; ATL::CComControlBase::DoVerbProperties
PUBLIC	?InPlaceActivate@CComControlBase@ATL@@QAEJJPBUtagRECT@@@Z ; ATL::CComControlBase::InPlaceActivate
PUBLIC	?IOleObject_SetClientSite@CComControlBase@ATL@@QAEJPAUIOleClientSite@@@Z ; ATL::CComControlBase::IOleObject_SetClientSite
PUBLIC	?IOleObject_GetClientSite@CComControlBase@ATL@@QAEJPAPAUIOleClientSite@@@Z ; ATL::CComControlBase::IOleObject_GetClientSite
PUBLIC	?IOleObject_Advise@CComControlBase@ATL@@QAEJPAUIAdviseSink@@PAK@Z ; ATL::CComControlBase::IOleObject_Advise
PUBLIC	?IOleObject_Close@CComControlBase@ATL@@QAEJK@Z	; ATL::CComControlBase::IOleObject_Close
PUBLIC	?IOleObject_SetExtent@CComControlBase@ATL@@QAEJKPAUtagSIZE@@@Z ; ATL::CComControlBase::IOleObject_SetExtent
PUBLIC	?IOleInPlaceObject_InPlaceDeactivate@CComControlBase@ATL@@QAEJXZ ; ATL::CComControlBase::IOleInPlaceObject_InPlaceDeactivate
PUBLIC	?IOleInPlaceObject_UIDeactivate@CComControlBase@ATL@@QAEJXZ ; ATL::CComControlBase::IOleInPlaceObject_UIDeactivate
PUBLIC	?IOleInPlaceObject_SetObjectRects@CComControlBase@ATL@@QAEJPBUtagRECT@@0@Z ; ATL::CComControlBase::IOleInPlaceObject_SetObjectRects
PUBLIC	?IViewObject_Draw@CComControlBase@ATL@@QAEJKJPAXPAUtagDVTARGETDEVICE@@PAUHDC__@@2PBU_RECTL@@3@Z ; ATL::CComControlBase::IViewObject_Draw
PUBLIC	?IDataObject_GetData@CComControlBase@ATL@@QAEJPAUtagFORMATETC@@PAUtagSTGMEDIUM@@@Z ; ATL::CComControlBase::IDataObject_GetData
PUBLIC	?FireViewChange@CComControlBase@ATL@@QAEJXZ	; ATL::CComControlBase::FireViewChange
PUBLIC	?OnPaint@CComControlBase@ATL@@QAEJIIJAAH@Z	; ATL::CComControlBase::OnPaint
PUBLIC	??0?$CComQIPtr@UIOleControlSite@@$1?_GUID_b196b289_bab4_101a_b69c_00aa00341d07@@3U__s_GUID@@B@ATL@@QAE@PAUIUnknown@@@Z ; ATL::CComQIPtr<IOleControlSite,&_GUID_b196b289_bab4_101a_b69c_00aa00341d07>::CComQIPtr<IOleControlSite,&_GUID_b196b289_bab4_101a_b69c_00aa00341d07>
PUBLIC	??0OposVariant@@QAE@XZ				; OposVariant::OposVariant
PUBLIC	??1OposVariant@@QAE@XZ				; OposVariant::~OposVariant
PUBLIC	?atlCreate@?$CWindowImpl@VCOPOSDeviceMonitor@@VCWindow@ATL@@V?$CWinTraits@$0FGAAAAAA@$0A@@3@@ATL@@QAEPAUHWND__@@PAU3@V_U_RECT@2@PB_WKKV_U_MENUorID@2@PAX@Z ; ATL::CWindowImpl<COPOSDeviceMonitor,ATL::CWindow,ATL::CWinTraits<1442840576,0> >::atlCreate
PUBLIC	?ProcessWindowMessage@?$CComControl@VCOPOSDeviceMonitor@@V?$CWindowImpl@VCOPOSDeviceMonitor@@VCWindow@ATL@@V?$CWinTraits@$0FGAAAAAA@$0A@@3@@ATL@@@ATL@@UAEHPAUHWND__@@IIJAAJK@Z ; ATL::CComControl<COPOSDeviceMonitor,ATL::CWindowImpl<COPOSDeviceMonitor,ATL::CWindow,ATL::CWinTraits<1442840576,0> > >::ProcessWindowMessage
PUBLIC	?IPersistStreamInit_Load@?$IPersistStreamInitImpl@VCOPOSDeviceMonitor@@@ATL@@QAEJPAUIStream@@PBUATL_PROPMAP_ENTRY@2@@Z ; ATL::IPersistStreamInitImpl<COPOSDeviceMonitor>::IPersistStreamInit_Load
PUBLIC	?IPersistStreamInit_Save@?$IPersistStreamInitImpl@VCOPOSDeviceMonitor@@@ATL@@QAEJPAUIStream@@HPBUATL_PROPMAP_ENTRY@2@@Z ; ATL::IPersistStreamInitImpl<COPOSDeviceMonitor>::IPersistStreamInit_Save
PUBLIC	?DoVerbPrimary@?$IOleObjectImpl@VCOPOSDeviceMonitor@@@ATL@@QAEJPBUtagRECT@@PAUHWND__@@@Z ; ATL::IOleObjectImpl<COPOSDeviceMonitor>::DoVerbPrimary
PUBLIC	?DoVerbInPlaceActivate@?$IOleObjectImpl@VCOPOSDeviceMonitor@@@ATL@@QAEJPBUtagRECT@@PAUHWND__@@@Z ; ATL::IOleObjectImpl<COPOSDeviceMonitor>::DoVerbInPlaceActivate
PUBLIC	?DoVerbUIActivate@?$IOleObjectImpl@VCOPOSDeviceMonitor@@@ATL@@QAEJPBUtagRECT@@PAUHWND__@@@Z ; ATL::IOleObjectImpl<COPOSDeviceMonitor>::DoVerbUIActivate
PUBLIC	?DoVerbHide@?$IOleObjectImpl@VCOPOSDeviceMonitor@@@ATL@@QAEJPBUtagRECT@@PAUHWND__@@@Z ; ATL::IOleObjectImpl<COPOSDeviceMonitor>::DoVerbHide
PUBLIC	?IPSI_GetIPersistStreamInit@?$IPersistStorageImpl@VCOPOSDeviceMonitor@@@ATL@@AAEPAUIPersistStreamInit@@XZ ; ATL::IPersistStorageImpl<COPOSDeviceMonitor>::IPSI_GetIPersistStreamInit
PUBLIC	?GetPagesHelper@?$ISpecifyPropertyPagesImpl@VCOPOSDeviceMonitor@@@ATL@@IAEJPAUtagCAUUID@@PBUATL_PROPMAP_ENTRY@2@@Z ; ATL::ISpecifyPropertyPagesImpl<COPOSDeviceMonitor>::GetPagesHelper
PUBLIC	?Fire_DataEvent@?$CProxy_IOPOSEvents@VCOPOSDeviceMonitor@@@@QAEXJ@Z ; CProxy_IOPOSEvents<COPOSDeviceMonitor>::Fire_DataEvent
PUBLIC	?Fire_DirectIOEvent@?$CProxy_IOPOSEvents@VCOPOSDeviceMonitor@@@@QAEXJPAJPAPA_W@Z ; CProxy_IOPOSEvents<COPOSDeviceMonitor>::Fire_DirectIOEvent
PUBLIC	?Fire_ErrorEvent@?$CProxy_IOPOSEvents@VCOPOSDeviceMonitor@@@@QAEXJJJPAJ@Z ; CProxy_IOPOSEvents<COPOSDeviceMonitor>::Fire_ErrorEvent
PUBLIC	?Fire_StatusUpdateEvent@?$CProxy_IOPOSEvents@VCOPOSDeviceMonitor@@@@QAEXJ@Z ; CProxy_IOPOSEvents<COPOSDeviceMonitor>::Fire_StatusUpdateEvent
PUBLIC	?FireTheEvent@?$CProxy_IOPOSEvents@VCOPOSDeviceMonitor@@@@IAEXPAVOposVariant@@IAAJPB_WJ@Z ; CProxy_IOPOSEvents<COPOSDeviceMonitor>::FireTheEvent
PUBLIC	?GetConnMap@COPOSDeviceMonitor@@SAPBU_ATL_CONNMAP_ENTRY@ATL@@PAH@Z ; COPOSDeviceMonitor::GetConnMap
PUBLIC	?DoEvent@COPOSDeviceMonitor@@IAEXIIJ@Z		; COPOSDeviceMonitor::DoEvent
PUBLIC	_DllMain@12
PUBLIC	?CreateInstance@?$CComCreator@V?$CComObject@VCOPOSDeviceMonitor@@@ATL@@@ATL@@SGJPAXABU_GUID@@PAPAX@Z ; ATL::CComCreator<ATL::CComObject<COPOSDeviceMonitor> >::CreateInstance
PUBLIC	?CreateInstance@?$CComCreator@V?$CComAggObject@VCOPOSDeviceMonitor@@@ATL@@@ATL@@SGJPAXABU_GUID@@PAPAX@Z ; ATL::CComCreator<ATL::CComAggObject<COPOSDeviceMonitor> >::CreateInstance
PUBLIC	??1?$CComObjectCached@VCComClassFactory@ATL@@@ATL@@UAE@XZ ; ATL::CComObjectCached<ATL::CComClassFactory>::~CComObjectCached<ATL::CComClassFactory>
PUBLIC	??1?$CComEnumImpl@UIEnumConnectionPoints@@$1?_GUID_b196b285_bab4_101a_b69c_00aa00341d07@@3U__s_GUID@@BPAUIConnectionPoint@@V?$_CopyInterface@UIConnectionPoint@@@ATL@@@ATL@@UAE@XZ ; ATL::CComEnumImpl<IEnumConnectionPoints,&_GUID_b196b285_bab4_101a_b69c_00aa00341d07,IConnectionPoint *,ATL::_CopyInterface<IConnectionPoint> >::~CComEnumImpl<IEnumConnectionPoints,&_GUID_b196b285_bab4_101a_b69c_00aa00341d07,IConnectionPoint *,ATL::_CopyInterface<IConnectionPoint> >
PUBLIC	?Init@?$CComEnumImpl@UIEnumConnectionPoints@@$1?_GUID_b196b285_bab4_101a_b69c_00aa00341d07@@3U__s_GUID@@BPAUIConnectionPoint@@V?$_CopyInterface@UIConnectionPoint@@@ATL@@@ATL@@QAEJPAPAUIConnectionPoint@@0PAUIUnknown@@W4CComEnumFlags@2@@Z ; ATL::CComEnumImpl<IEnumConnectionPoints,&_GUID_b196b285_bab4_101a_b69c_00aa00341d07,IConnectionPoint *,ATL::_CopyInterface<IConnectionPoint> >::Init
PUBLIC	??0?$CComObject@V?$CComEnum@UIEnumConnectionPoints@@$1?_GUID_b196b285_bab4_101a_b69c_00aa00341d07@@3U__s_GUID@@BPAUIConnectionPoint@@V?$_CopyInterface@UIConnectionPoint@@@ATL@@VCComSingleThreadModel@6@@ATL@@@ATL@@QAE@PAX@Z ; ATL::CComObject<ATL::CComEnum<IEnumConnectionPoints,&_GUID_b196b285_bab4_101a_b69c_00aa00341d07,IConnectionPoint *,ATL::_CopyInterface<IConnectionPoint>,ATL::CComSingleThreadModel> >::CComObject<ATL::CComEnum<IEnumConnectionPoints,&_GUID_b196b285_bab4_101a_b69c_00aa00341d07,IConnectionPoint *,ATL::_CopyInterface<IConnectionPoint>,ATL::CComSingleThreadModel> >
PUBLIC	??1?$CComObject@V?$CComEnum@UIEnumConnectionPoints@@$1?_GUID_b196b285_bab4_101a_b69c_00aa00341d07@@3U__s_GUID@@BPAUIConnectionPoint@@V?$_CopyInterface@UIConnectionPoint@@@ATL@@VCComSingleThreadModel@6@@ATL@@@ATL@@UAE@XZ ; ATL::CComObject<ATL::CComEnum<IEnumConnectionPoints,&_GUID_b196b285_bab4_101a_b69c_00aa00341d07,IConnectionPoint *,ATL::_CopyInterface<IConnectionPoint>,ATL::CComSingleThreadModel> >::~CComObject<ATL::CComEnum<IEnumConnectionPoints,&_GUID_b196b285_bab4_101a_b69c_00aa00341d07,IConnectionPoint *,ATL::_CopyInterface<IConnectionPoint>,ATL::CComSingleThreadModel> >
PUBLIC	?CreateInstance@?$CComObject@V?$CComEnum@UIEnumConnectionPoints@@$1?_GUID_b196b285_bab4_101a_b69c_00aa00341d07@@3U__s_GUID@@BPAUIConnectionPoint@@V?$_CopyInterface@UIConnectionPoint@@@ATL@@VCComSingleThreadModel@6@@ATL@@@ATL@@SGJPAPAV12@@Z ; ATL::CComObject<ATL::CComEnum<IEnumConnectionPoints,&_GUID_b196b285_bab4_101a_b69c_00aa00341d07,IConnectionPoint *,ATL::_CopyInterface<IConnectionPoint>,ATL::CComSingleThreadModel> >::CreateInstance
PUBLIC	??$AtlMultiplyThrow@I@ATL@@YAIII@Z		; ATL::AtlMultiplyThrow<unsigned int>
PUBLIC	??$AtlAddThrow@K@ATL@@YAKKK@Z			; ATL::AtlAddThrow<unsigned long>
PUBLIC	??0?$CComAggObject@VCOPOSDeviceMonitor@@@ATL@@QAE@PAX@Z ; ATL::CComAggObject<COPOSDeviceMonitor>::CComAggObject<COPOSDeviceMonitor>
PUBLIC	??1?$CComAggObject@VCOPOSDeviceMonitor@@@ATL@@UAE@XZ ; ATL::CComAggObject<COPOSDeviceMonitor>::~CComAggObject<COPOSDeviceMonitor>
PUBLIC	??0?$CComContainedObject@VCOPOSDeviceMonitor@@@ATL@@QAE@PAX@Z ; ATL::CComContainedObject<COPOSDeviceMonitor>::CComContainedObject<COPOSDeviceMonitor>
PUBLIC	??_G?$CComContainedObject@VCOPOSDeviceMonitor@@@ATL@@UAEPAXI@Z ; ATL::CComContainedObject<COPOSDeviceMonitor>::`scalar deleting destructor'
PUBLIC	??0?$CComObject@VCOPOSDeviceMonitor@@@ATL@@QAE@PAX@Z ; ATL::CComObject<COPOSDeviceMonitor>::CComObject<COPOSDeviceMonitor>
PUBLIC	??1?$CComObject@VCOPOSDeviceMonitor@@@ATL@@UAE@XZ ; ATL::CComObject<COPOSDeviceMonitor>::~CComObject<COPOSDeviceMonitor>
PUBLIC	??_G?$CComObject@VCOPOSDeviceMonitor@@@ATL@@UAEPAXI@Z ; ATL::CComObject<COPOSDeviceMonitor>::`scalar deleting destructor'
PUBLIC	??1?$CComEnumImpl@UIEnumConnections@@$1?_GUID_b196b287_bab4_101a_b69c_00aa00341d07@@3U__s_GUID@@BUtagCONNECTDATA@@V?$_Copy@UtagCONNECTDATA@@@ATL@@@ATL@@UAE@XZ ; ATL::CComEnumImpl<IEnumConnections,&_GUID_b196b287_bab4_101a_b69c_00aa00341d07,tagCONNECTDATA,ATL::_Copy<tagCONNECTDATA> >::~CComEnumImpl<IEnumConnections,&_GUID_b196b287_bab4_101a_b69c_00aa00341d07,tagCONNECTDATA,ATL::_Copy<tagCONNECTDATA> >
PUBLIC	?Init@?$CComEnumImpl@UIEnumConnections@@$1?_GUID_b196b287_bab4_101a_b69c_00aa00341d07@@3U__s_GUID@@BUtagCONNECTDATA@@V?$_Copy@UtagCONNECTDATA@@@ATL@@@ATL@@QAEJPAUtagCONNECTDATA@@0PAUIUnknown@@W4CComEnumFlags@2@@Z ; ATL::CComEnumImpl<IEnumConnections,&_GUID_b196b287_bab4_101a_b69c_00aa00341d07,tagCONNECTDATA,ATL::_Copy<tagCONNECTDATA> >::Init
PUBLIC	??0?$CComObject@V?$CComEnum@UIEnumConnections@@$1?_GUID_b196b287_bab4_101a_b69c_00aa00341d07@@3U__s_GUID@@BUtagCONNECTDATA@@V?$_Copy@UtagCONNECTDATA@@@ATL@@VCComSingleThreadModel@6@@ATL@@@ATL@@QAE@PAX@Z ; ATL::CComObject<ATL::CComEnum<IEnumConnections,&_GUID_b196b287_bab4_101a_b69c_00aa00341d07,tagCONNECTDATA,ATL::_Copy<tagCONNECTDATA>,ATL::CComSingleThreadModel> >::CComObject<ATL::CComEnum<IEnumConnections,&_GUID_b196b287_bab4_101a_b69c_00aa00341d07,tagCONNECTDATA,ATL::_Copy<tagCONNECTDATA>,ATL::CComSingleThreadModel> >
PUBLIC	??1?$CComObject@V?$CComEnum@UIEnumConnections@@$1?_GUID_b196b287_bab4_101a_b69c_00aa00341d07@@3U__s_GUID@@BUtagCONNECTDATA@@V?$_Copy@UtagCONNECTDATA@@@ATL@@VCComSingleThreadModel@6@@ATL@@@ATL@@UAE@XZ ; ATL::CComObject<ATL::CComEnum<IEnumConnections,&_GUID_b196b287_bab4_101a_b69c_00aa00341d07,tagCONNECTDATA,ATL::_Copy<tagCONNECTDATA>,ATL::CComSingleThreadModel> >::~CComObject<ATL::CComEnum<IEnumConnections,&_GUID_b196b287_bab4_101a_b69c_00aa00341d07,tagCONNECTDATA,ATL::_Copy<tagCONNECTDATA>,ATL::CComSingleThreadModel> >
PUBLIC	?CreateInstance@?$CComObject@V?$CComEnum@UIEnumConnections@@$1?_GUID_b196b287_bab4_101a_b69c_00aa00341d07@@3U__s_GUID@@BUtagCONNECTDATA@@V?$_Copy@UtagCONNECTDATA@@@ATL@@VCComSingleThreadModel@6@@ATL@@@ATL@@SGJPAPAV12@@Z ; ATL::CComObject<ATL::CComEnum<IEnumConnections,&_GUID_b196b287_bab4_101a_b69c_00aa00341d07,tagCONNECTDATA,ATL::_Copy<tagCONNECTDATA>,ATL::CComSingleThreadModel> >::CreateInstance
PUBLIC	?copy@?$_CopyInterface@UIConnectionPoint@@@ATL@@SAJPAPAUIConnectionPoint@@PBQAU3@@Z ; ATL::_CopyInterface<IConnectionPoint>::copy
PUBLIC	?atlTraceGeneral@ATL@@3V?$CTraceCategoryEx@$00$0A@@1@A ; ATL::atlTraceGeneral
PUBLIC	?atlTraceCOM@ATL@@3V?$CTraceCategoryEx@$01$0A@@1@A ; ATL::atlTraceCOM
PUBLIC	?atlTraceQI@ATL@@3V?$CTraceCategoryEx@$03$0A@@1@A ; ATL::atlTraceQI
PUBLIC	?atlTraceRegistrar@ATL@@3V?$CTraceCategoryEx@$07$0A@@1@A ; ATL::atlTraceRegistrar
PUBLIC	?atlTraceRefcount@ATL@@3V?$CTraceCategoryEx@$0BA@$0A@@1@A ; ATL::atlTraceRefcount
PUBLIC	?atlTraceWindowing@ATL@@3V?$CTraceCategoryEx@$0CA@$0A@@1@A ; ATL::atlTraceWindowing
PUBLIC	?atlTraceControls@ATL@@3V?$CTraceCategoryEx@$0EA@$0A@@1@A ; ATL::atlTraceControls
PUBLIC	?atlTraceHosting@ATL@@3V?$CTraceCategoryEx@$0IA@$0A@@1@A ; ATL::atlTraceHosting
PUBLIC	?atlTraceDBClient@ATL@@3V?$CTraceCategoryEx@$0BAA@$0A@@1@A ; ATL::atlTraceDBClient
PUBLIC	?atlTraceDBProvider@ATL@@3V?$CTraceCategoryEx@$0CAA@$0A@@1@A ; ATL::atlTraceDBProvider
PUBLIC	?atlTraceSnapin@ATL@@3V?$CTraceCategoryEx@$0EAA@$0A@@1@A ; ATL::atlTraceSnapin
PUBLIC	?atlTraceNotImpl@ATL@@3V?$CTraceCategoryEx@$0IAA@$0A@@1@A ; ATL::atlTraceNotImpl
PUBLIC	?atlTraceAllocation@ATL@@3V?$CTraceCategoryEx@$0BAAA@$0A@@1@A ; ATL::atlTraceAllocation
PUBLIC	?atlTraceException@ATL@@3V?$CTraceCategoryEx@$0CAAA@$0A@@1@A ; ATL::atlTraceException
PUBLIC	?atlTraceTime@ATL@@3V?$CTraceCategoryEx@$0EAAA@$0A@@1@A ; ATL::atlTraceTime
PUBLIC	?atlTraceCache@ATL@@3V?$CTraceCategoryEx@$0IAAA@$0A@@1@A ; ATL::atlTraceCache
PUBLIC	?atlTraceStencil@ATL@@3V?$CTraceCategoryEx@$0BAAAA@$0A@@1@A ; ATL::atlTraceStencil
PUBLIC	?atlTraceString@ATL@@3V?$CTraceCategoryEx@$0CAAAA@$0A@@1@A ; ATL::atlTraceString
PUBLIC	?atlTraceMap@ATL@@3V?$CTraceCategoryEx@$0EAAAA@$0A@@1@A ; ATL::atlTraceMap
PUBLIC	?atlTraceUtil@ATL@@3V?$CTraceCategoryEx@$0IAAAA@$0A@@1@A ; ATL::atlTraceUtil
PUBLIC	?atlTraceSecurity@ATL@@3V?$CTraceCategoryEx@$0BAAAAA@$0A@@1@A ; ATL::atlTraceSecurity
PUBLIC	?atlTraceSync@ATL@@3V?$CTraceCategoryEx@$0CAAAAA@$0A@@1@A ; ATL::atlTraceSync
PUBLIC	?atlTraceISAPI@ATL@@3V?$CTraceCategoryEx@$0EAAAAA@$0A@@1@A ; ATL::atlTraceISAPI
PUBLIC	??_C@_0BG@EKFFMJIO@RegOpenKeyTransactedW@	; `string'
PUBLIC	??_C@_0BI@HAKLOOGP@RegDeleteKeyTransactedW@	; `string'
PUBLIC	?_AtlComModule@ATL@@3VCAtlComModule@1@A		; ATL::_AtlComModule
PUBLIC	?_AtlWinModule@ATL@@3VCAtlWinModule@1@A		; ATL::_AtlWinModule
PUBLIC	?pfnRegDeleteKeyEx@?1??DeleteSubKey@CRegKey@ATL@@QAEJPB_W@Z@4P6GJPAUHKEY__@@0KK@ZA ; `ATL::CRegKey::DeleteSubKey'::`2'::pfnRegDeleteKeyEx
PUBLIC	?bInitialized@?1??DeleteSubKey@CRegKey@ATL@@QAEJPB_W@Z@4_NA ; `ATL::CRegKey::DeleteSubKey'::`2'::bInitialized
PUBLIC	??_C@_0BA@LILAPHGE@RegDeleteKeyExW@		; `string'
PUBLIC	??_C@_19ILOCMLCJ@?$AA?4?$AAt?$AAl?$AAb@		; `string'
PUBLIC	__GUID_0002e012_0000_0000_c000_000000000046
PUBLIC	??_C@_1O@FHBGLCIO@?$AAC?$AAL?$AAS?$AAI?$AAD?$AA?2@ ; `string'
PUBLIC	??_C@_1CK@IFBKBFAA@?$AA?2?$AAR?$AAe?$AAq?$AAu?$AAi?$AAr?$AAe?$AAd?$AA?5?$AAC?$AAa?$AAt?$AAe?$AAg@ ; `string'
PUBLIC	??_C@_1DA@BIHALFED@?$AA?2?$AAI?$AAm?$AAp?$AAl?$AAe?$AAm?$AAe?$AAn?$AAt?$AAe?$AAd?$AA?5?$AAC?$AAa@ ; `string'
PUBLIC	??_C@_1BK@EDKOLFBJ@?$AAO?$AAL?$AAE?$AAA?$AAU?$AAT?$AA3?$AA2?$AA?4?$AAD?$AAL?$AAL@ ; `string'
PUBLIC	??_C@_0BJ@CNLFOMHB@UnRegisterTypeLibForUser@	; `string'
PUBLIC	??_C@_0BH@LBOMMKPJ@RegisterTypeLibForUser@	; `string'
PUBLIC	?_Module@@3VCComModule@ATL@@A			; _Module
PUBLIC	?pConnMap@?$IConnectionPointContainerImpl@VCOPOSDeviceMonitor@@@ATL@@0PBU_ATL_CONNMAP_ENTRY@2@B ; ATL::IConnectionPointContainerImpl<COPOSDeviceMonitor>::pConnMap
EXTRN	??3@YAXPAXI@Z:PROC				; operator delete
EXTRN	??_V@YAXPAX@Z:PROC				; operator delete[]
EXTRN	??_V@YAXPAXI@Z:PROC				; operator delete[]
EXTRN	_atexit:PROC
EXTRN	___report_rangecheckfailure:PROC
EXTRN	__Init_thread_header:PROC
EXTRN	__Init_thread_footer:PROC
EXTRN	__invalid_parameter_noinfo:PROC
EXTRN	__errno:PROC
EXTRN	_calloc:PROC
EXTRN	_free:PROC
EXTRN	_malloc:PROC
EXTRN	__recalloc:PROC
EXTRN	??2@YAPAXIABUnothrow_t@std@@@Z:PROC		; operator new
EXTRN	??_U@YAPAXIABUnothrow_t@std@@@Z:PROC		; operator new[]
EXTRN	__resetstkoflw:PROC
EXTRN	_wcsstr:PROC
EXTRN	_wcscat_s:PROC
EXTRN	_wcscpy_s:PROC
EXTRN	_wcsncpy_s:PROC
EXTRN	__imp__EncodePointer@4:PROC
EXTRN	__imp__DecodePointer@4:PROC
EXTRN	__imp__RaiseException@16:PROC
EXTRN	__imp__GetLastError@0:PROC
EXTRN	__imp__SetLastError@4:PROC
EXTRN	__imp__EnterCriticalSection@4:PROC
EXTRN	__imp__LeaveCriticalSection@4:PROC
EXTRN	__imp__InitializeCriticalSectionEx@12:PROC
EXTRN	__imp__DeleteCriticalSection@4:PROC
EXTRN	__imp__ResetEvent@4:PROC
EXTRN	__imp__ReleaseMutex@4:PROC
EXTRN	__imp__WaitForSingleObject@8:PROC
EXTRN	__imp__Sleep@4:PROC
EXTRN	__imp__GetCurrentThreadId@0:PROC
EXTRN	__imp__DisableThreadLibraryCalls@4:PROC
EXTRN	__imp__FreeLibrary@4:PROC
EXTRN	__imp__GetModuleFileNameW@12:PROC
EXTRN	__imp__GetModuleHandleW@4:PROC
EXTRN	__imp__GetProcAddress@8:PROC
EXTRN	__imp__LoadLibraryExW@12:PROC
EXTRN	__imp__LoadResource@8:PROC
EXTRN	__imp__SizeofResource@8:PROC
EXTRN	__imp__FindResourceW@12:PROC
EXTRN	__imp__GlobalAlloc@8:PROC
EXTRN	__imp__GlobalUnlock@4:PROC
EXTRN	__imp__GlobalLock@4:PROC
EXTRN	__imp__MulDiv@12:PROC
EXTRN	__imp__lstrcmpiW@8:PROC
EXTRN	__imp__CloseMetaFile@4:PROC
EXTRN	__imp__CreateDCW@16:PROC
EXTRN	__imp__CreateMetaFileW@4:PROC
EXTRN	__imp__CreateRectRgnIndirect@4:PROC
EXTRN	__imp__DeleteDC@4:PROC
EXTRN	__imp__DeleteMetaFile@4:PROC
EXTRN	__imp__GetDeviceCaps@8:PROC
EXTRN	__imp__RestoreDC@8:PROC
EXTRN	__imp__SaveDC@4:PROC
EXTRN	__imp__SetMapMode@8:PROC
EXTRN	__imp__LPtoDP@12:PROC
EXTRN	__imp__SetViewportOrgEx@16:PROC
EXTRN	__imp__SetWindowExtEx@16:PROC
EXTRN	__imp__SetWindowOrgEx@16:PROC
EXTRN	__imp__PostMessageW@16:PROC
EXTRN	__imp__DefWindowProcW@16:PROC
EXTRN	__imp__CallWindowProcW@20:PROC
EXTRN	__imp__UnregisterClassW@8:PROC
EXTRN	__imp__RegisterClassExW@4:PROC
EXTRN	__imp__GetClassInfoExW@12:PROC
EXTRN	__imp__CreateWindowExW@48:PROC
EXTRN	__imp__IsWindow@4:PROC
EXTRN	__imp__IsChild@8:PROC
EXTRN	__imp__DestroyWindow@4:PROC
EXTRN	__imp__ShowWindow@8:PROC
EXTRN	__imp__SetWindowPos@28:PROC
EXTRN	__imp__CharNextW@4:PROC
EXTRN	__imp__SetFocus@4:PROC
EXTRN	__imp__GetFocus@0:PROC
EXTRN	__imp__GetKeyState@4:PROC
EXTRN	__imp__GetDC@4:PROC
EXTRN	__imp__ReleaseDC@8:PROC
EXTRN	__imp__BeginPaint@8:PROC
EXTRN	__imp__EndPaint@8:PROC
EXTRN	__imp__SetWindowRgn@12:PROC
EXTRN	__imp__InvalidateRect@12:PROC
EXTRN	__imp__GetClientRect@8:PROC
EXTRN	__imp__IntersectRect@12:PROC
EXTRN	__imp__UnionRect@12:PROC
EXTRN	__imp__OffsetRect@12:PROC
EXTRN	__imp__EqualRect@8:PROC
EXTRN	__imp__PtInRect@12:PROC
EXTRN	__imp__GetWindowLongW@8:PROC
EXTRN	__imp__SetWindowLongW@12:PROC
EXTRN	__imp__GetParent@4:PROC
EXTRN	__imp__LoadCursorW@8:PROC
EXTRN	__imp__MultiByteToWideChar@24:PROC
EXTRN	__imp__RegCloseKey@4:PROC
EXTRN	__imp__RegCreateKeyExW@36:PROC
EXTRN	__imp__RegDeleteKeyW@8:PROC
EXTRN	__imp__RegDeleteValueW@8:PROC
EXTRN	__imp__RegEnumKeyExW@32:PROC
EXTRN	__imp__RegOpenKeyExW@20:PROC
EXTRN	__imp__RegQueryInfoKeyW@48:PROC
EXTRN	__imp__RegSetValueExW@24:PROC
EXTRN	__imp__CoCreateInstance@20:PROC
EXTRN	__imp__StringFromGUID2@12:PROC
EXTRN	__imp__CoTaskMemAlloc@4:PROC
EXTRN	__imp__CoTaskMemRealloc@8:PROC
EXTRN	__imp__CoTaskMemFree@4:PROC
EXTRN	__imp__ReadClassStm@8:PROC
EXTRN	__imp__WriteClassStm@8:PROC
EXTRN	__imp__CreateDataAdviseHolder@4:PROC
EXTRN	__imp__SysAllocString@4:PROC
EXTRN	__imp__SysFreeString@4:PROC
EXTRN	__imp__SysStringLen@4:PROC
EXTRN	__imp__SysStringByteLen@4:PROC
EXTRN	__imp__SysAllocStringByteLen@8:PROC
EXTRN	__imp__VariantInit@4:PROC
EXTRN	__imp__VariantClear@4:PROC
EXTRN	__imp__VariantChangeType@16:PROC
EXTRN	__imp__VarUI4FromStr@16:PROC
EXTRN	__imp__LoadTypeLib@8:PROC
EXTRN	__imp__LoadRegTypeLib@20:PROC
EXTRN	__imp__RegisterTypeLib@12:PROC
EXTRN	__imp__UnRegisterTypeLib@20:PROC
EXTRN	__imp__OleSaveToStream@8:PROC
EXTRN	__imp__CreateOleAdviseHolder@4:PROC
EXTRN	__imp__OleRegGetUserType@12:PROC
EXTRN	__imp__OleRegGetMiscStatus@12:PROC
EXTRN	__imp__OleRegEnumVerbs@8:PROC
EXTRN	___stdio_common_vswprintf_s:PROC
EXTRN	__imp__OleCreatePropertyFrame@44:PROC
EXTRN	_AtlThunk_AllocateData@0:PROC
EXTRN	_AtlThunk_InitData@12:PROC
EXTRN	_AtlThunk_DataToCode@4:PROC
EXTRN	?SetLONG@OposVariant@@QAEXJ@Z:PROC		; OposVariant::SetLONG
EXTRN	?SetLONG_Ptr@OposVariant@@QAEXPAJAAJ@Z:PROC	; OposVariant::SetLONG_Ptr
EXTRN	?SetBSTR_InOutPtr@OposVariant@@QAE_NPAPA_WAAJ@Z:PROC ; OposVariant::SetBSTR_InOutPtr
EXTRN	??0OposDispParms@@QAE@PAVOposVariant@@H@Z:PROC	; OposDispParms::OposDispParms
EXTRN	??1OposDispParms@@QAE@XZ:PROC			; OposDispParms::~OposDispParms
EXTRN	??0COPOSDeviceMonitor@@QAE@XZ:PROC		; COPOSDeviceMonitor::COPOSDeviceMonitor
EXTRN	?FinalConstruct@COPOSDeviceMonitor@@QAEJXZ:PROC	; COPOSDeviceMonitor::FinalConstruct
EXTRN	??1COPOSDeviceMonitor@@UAE@XZ:PROC		; COPOSDeviceMonitor::~COPOSDeviceMonitor
EXTRN	??_E?$CComContainedObject@VCOPOSDeviceMonitor@@@ATL@@UAEPAXI@Z:PROC ; ATL::CComContainedObject<COPOSDeviceMonitor>::`vector deleting destructor'
EXTRN	??_E?$CComObject@VCOPOSDeviceMonitor@@@ATL@@UAEPAXI@Z:PROC ; ATL::CComObject<COPOSDeviceMonitor>::`vector deleting destructor'
EXTRN	@__security_check_cookie@4:PROC
EXTRN	__SEH_prolog4_GS:PROC
EXTRN	__alloca_probe_16:PROC
EXTRN	__chkstk:PROC
EXTRN	__except_handler4:PROC
EXTRN	_memcmp:PROC
EXTRN	_memcpy:PROC
EXTRN	_memset:PROC
EXTRN	_CLSID_StdComponentCategoriesMgr:BYTE
EXTRN	___security_cookie:DWORD
EXTRN	__tls_array:DWORD
EXTRN	__tls_index:DWORD
;	COMDAT ?atlTraceGeneral@ATL@@3V?$CTraceCategoryEx@$00$0A@@1@A
_BSS	SEGMENT
?atlTraceGeneral@ATL@@3V?$CTraceCategoryEx@$00$0A@@1@A DD 01H DUP (?) ; ATL::atlTraceGeneral
_BSS	ENDS
;	COMDAT ?atlTraceCOM@ATL@@3V?$CTraceCategoryEx@$01$0A@@1@A
_BSS	SEGMENT
?atlTraceCOM@ATL@@3V?$CTraceCategoryEx@$01$0A@@1@A DD 01H DUP (?) ; ATL::atlTraceCOM
_BSS	ENDS
;	COMDAT ?atlTraceQI@ATL@@3V?$CTraceCategoryEx@$03$0A@@1@A
_BSS	SEGMENT
?atlTraceQI@ATL@@3V?$CTraceCategoryEx@$03$0A@@1@A DD 01H DUP (?) ; ATL::atlTraceQI
_BSS	ENDS
;	COMDAT ?atlTraceRegistrar@ATL@@3V?$CTraceCategoryEx@$07$0A@@1@A
_BSS	SEGMENT
?atlTraceRegistrar@ATL@@3V?$CTraceCategoryEx@$07$0A@@1@A DD 01H DUP (?) ; ATL::atlTraceRegistrar
_BSS	ENDS
;	COMDAT ?atlTraceRefcount@ATL@@3V?$CTraceCategoryEx@$0BA@$0A@@1@A
_BSS	SEGMENT
?atlTraceRefcount@ATL@@3V?$CTraceCategoryEx@$0BA@$0A@@1@A DD 01H DUP (?) ; ATL::atlTraceRefcount
_BSS	ENDS
;	COMDAT ?atlTraceWindowing@ATL@@3V?$CTraceCategoryEx@$0CA@$0A@@1@A
_BSS	SEGMENT
?atlTraceWindowing@ATL@@3V?$CTraceCategoryEx@$0CA@$0A@@1@A DD 01H DUP (?) ; ATL::atlTraceWindowing
_BSS	ENDS
;	COMDAT ?atlTraceControls@ATL@@3V?$CTraceCategoryEx@$0EA@$0A@@1@A
_BSS	SEGMENT
?atlTraceControls@ATL@@3V?$CTraceCategoryEx@$0EA@$0A@@1@A DD 01H DUP (?) ; ATL::atlTraceControls
_BSS	ENDS
;	COMDAT ?atlTraceHosting@ATL@@3V?$CTraceCategoryEx@$0IA@$0A@@1@A
_BSS	SEGMENT
?atlTraceHosting@ATL@@3V?$CTraceCategoryEx@$0IA@$0A@@1@A DD 01H DUP (?) ; ATL::atlTraceHosting
_BSS	ENDS
;	COMDAT ?atlTraceDBClient@ATL@@3V?$CTraceCategoryEx@$0BAA@$0A@@1@A
_BSS	SEGMENT
?atlTraceDBClient@ATL@@3V?$CTraceCategoryEx@$0BAA@$0A@@1@A DD 01H DUP (?) ; ATL::atlTraceDBClient
_BSS	ENDS
;	COMDAT ?atlTraceDBProvider@ATL@@3V?$CTraceCategoryEx@$0CAA@$0A@@1@A
_BSS	SEGMENT
?atlTraceDBProvider@ATL@@3V?$CTraceCategoryEx@$0CAA@$0A@@1@A DD 01H DUP (?) ; ATL::atlTraceDBProvider
_BSS	ENDS
;	COMDAT ?atlTraceSnapin@ATL@@3V?$CTraceCategoryEx@$0EAA@$0A@@1@A
_BSS	SEGMENT
?atlTraceSnapin@ATL@@3V?$CTraceCategoryEx@$0EAA@$0A@@1@A DD 01H DUP (?) ; ATL::atlTraceSnapin
_BSS	ENDS
;	COMDAT ?atlTraceNotImpl@ATL@@3V?$CTraceCategoryEx@$0IAA@$0A@@1@A
_BSS	SEGMENT
?atlTraceNotImpl@ATL@@3V?$CTraceCategoryEx@$0IAA@$0A@@1@A DD 01H DUP (?) ; ATL::atlTraceNotImpl
_BSS	ENDS
;	COMDAT ?atlTraceAllocation@ATL@@3V?$CTraceCategoryEx@$0BAAA@$0A@@1@A
_BSS	SEGMENT
?atlTraceAllocation@ATL@@3V?$CTraceCategoryEx@$0BAAA@$0A@@1@A DD 01H DUP (?) ; ATL::atlTraceAllocation
_BSS	ENDS
;	COMDAT ?atlTraceException@ATL@@3V?$CTraceCategoryEx@$0CAAA@$0A@@1@A
_BSS	SEGMENT
?atlTraceException@ATL@@3V?$CTraceCategoryEx@$0CAAA@$0A@@1@A DD 01H DUP (?) ; ATL::atlTraceException
_BSS	ENDS
;	COMDAT ?atlTraceTime@ATL@@3V?$CTraceCategoryEx@$0EAAA@$0A@@1@A
_BSS	SEGMENT
?atlTraceTime@ATL@@3V?$CTraceCategoryEx@$0EAAA@$0A@@1@A DD 01H DUP (?) ; ATL::atlTraceTime
_BSS	ENDS
;	COMDAT ?atlTraceCache@ATL@@3V?$CTraceCategoryEx@$0IAAA@$0A@@1@A
_BSS	SEGMENT
?atlTraceCache@ATL@@3V?$CTraceCategoryEx@$0IAAA@$0A@@1@A DD 01H DUP (?) ; ATL::atlTraceCache
_BSS	ENDS
;	COMDAT ?atlTraceStencil@ATL@@3V?$CTraceCategoryEx@$0BAAAA@$0A@@1@A
_BSS	SEGMENT
?atlTraceStencil@ATL@@3V?$CTraceCategoryEx@$0BAAAA@$0A@@1@A DD 01H DUP (?) ; ATL::atlTraceStencil
_BSS	ENDS
;	COMDAT ?atlTraceString@ATL@@3V?$CTraceCategoryEx@$0CAAAA@$0A@@1@A
_BSS	SEGMENT
?atlTraceString@ATL@@3V?$CTraceCategoryEx@$0CAAAA@$0A@@1@A DD 01H DUP (?) ; ATL::atlTraceString
_BSS	ENDS
;	COMDAT ?atlTraceMap@ATL@@3V?$CTraceCategoryEx@$0EAAAA@$0A@@1@A
_BSS	SEGMENT
?atlTraceMap@ATL@@3V?$CTraceCategoryEx@$0EAAAA@$0A@@1@A DD 01H DUP (?) ; ATL::atlTraceMap
_BSS	ENDS
;	COMDAT ?atlTraceUtil@ATL@@3V?$CTraceCategoryEx@$0IAAAA@$0A@@1@A
_BSS	SEGMENT
?atlTraceUtil@ATL@@3V?$CTraceCategoryEx@$0IAAAA@$0A@@1@A DD 01H DUP (?) ; ATL::atlTraceUtil
_BSS	ENDS
;	COMDAT ?atlTraceSecurity@ATL@@3V?$CTraceCategoryEx@$0BAAAAA@$0A@@1@A
_BSS	SEGMENT
?atlTraceSecurity@ATL@@3V?$CTraceCategoryEx@$0BAAAAA@$0A@@1@A DD 01H DUP (?) ; ATL::atlTraceSecurity
_BSS	ENDS
;	COMDAT ?atlTraceSync@ATL@@3V?$CTraceCategoryEx@$0CAAAAA@$0A@@1@A
_BSS	SEGMENT
?atlTraceSync@ATL@@3V?$CTraceCategoryEx@$0CAAAAA@$0A@@1@A DD 01H DUP (?) ; ATL::atlTraceSync
_BSS	ENDS
;	COMDAT ?atlTraceISAPI@ATL@@3V?$CTraceCategoryEx@$0EAAAAA@$0A@@1@A
_BSS	SEGMENT
?atlTraceISAPI@ATL@@3V?$CTraceCategoryEx@$0EAAAAA@$0A@@1@A DD 01H DUP (?) ; ATL::atlTraceISAPI
_BSS	ENDS
;	COMDAT ?_AtlComModule@ATL@@3VCAtlComModule@1@A
_BSS	SEGMENT
?_AtlComModule@ATL@@3VCAtlComModule@1@A DB 028H DUP (?)	; ATL::_AtlComModule
_BSS	ENDS
;	COMDAT ?_AtlWinModule@ATL@@3VCAtlWinModule@1@A
_BSS	SEGMENT
?_AtlWinModule@ATL@@3VCAtlWinModule@1@A DB 02cH DUP (?)	; ATL::_AtlWinModule
_BSS	ENDS
;	COMDAT ?pfnRegDeleteKeyEx@?1??DeleteSubKey@CRegKey@ATL@@QAEJPB_W@Z@4P6GJPAUHKEY__@@0KK@ZA
_BSS	SEGMENT
?pfnRegDeleteKeyEx@?1??DeleteSubKey@CRegKey@ATL@@QAEJPB_W@Z@4P6GJPAUHKEY__@@0KK@ZA DD 01H DUP (?) ; `ATL::CRegKey::DeleteSubKey'::`2'::pfnRegDeleteKeyEx
_BSS	ENDS
;	COMDAT ?bInitialized@?1??DeleteSubKey@CRegKey@ATL@@QAEJPB_W@Z@4_NA
_BSS	SEGMENT
?bInitialized@?1??DeleteSubKey@CRegKey@ATL@@QAEJPB_W@Z@4_NA DB 01H DUP (?) ; `ATL::CRegKey::DeleteSubKey'::`2'::bInitialized
_BSS	ENDS
_BSS	SEGMENT
?_Module@@3VCComModule@ATL@@A DB 030H DUP (?)		; _Module
_BSS	ENDS
;	COMDAT ?pConnMap@?$IConnectionPointContainerImpl@VCOPOSDeviceMonitor@@@ATL@@0PBU_ATL_CONNMAP_ENTRY@2@B
_BSS	SEGMENT
?pConnMap@?$IConnectionPointContainerImpl@VCOPOSDeviceMonitor@@@ATL@@0PBU_ATL_CONNMAP_ENTRY@2@B DD 01H DUP (?) ; ATL::IConnectionPointContainerImpl<COPOSDeviceMonitor>::pConnMap
_BSS	ENDS
;	COMDAT CRT$XCU
CRT$XCU	SEGMENT
?_AtlComModule$initializer$@ATL@@3P6AXXZA DD FLAT:??__E_AtlComModule@ATL@@YAXXZ ; ATL::_AtlComModule$initializer$
CRT$XCU	ENDS
_DATA	SEGMENT
?ObjectMap@@3PAU_ATL_OBJMAP_ENTRY30@ATL@@A DD FLAT:_CLSID_OPOSDeviceMonitor ; ObjectMap
	DD	FLAT:?UpdateRegistry@COPOSDeviceMonitor@@SGJH@Z
	DD	FLAT:?CreateInstance@?$CComCreator@V?$CComObjectCached@VCComClassFactory@ATL@@@ATL@@@ATL@@SGJPAXABU_GUID@@PAPAX@Z
	DD	FLAT:?CreateInstance@?$CComCreator2@V?$CComCreator@V?$CComObject@VCOPOSDeviceMonitor@@@ATL@@@ATL@@V?$CComCreator@V?$CComAggObject@VCOPOSDeviceMonitor@@@ATL@@@2@@ATL@@SGJPAXABU_GUID@@PAPAX@Z
	DD	00H
	DD	00H
	DD	FLAT:?GetObjectDescription@?$CComCoClass@VCOPOSDeviceMonitor@@$1?CLSID_OPOSDeviceMonitor@@3U_GUID@@B@ATL@@SGPB_WXZ
	DD	FLAT:?GetCategoryMap@CComObjectRootBase@ATL@@SAPBU_ATL_CATMAP_ENTRY@2@XZ
	DD	FLAT:?ObjectMain@CComObjectRootBase@ATL@@SGX_N@Z
	DD	00H
	DD	00H
	DD	00H
	DD	00H
	DD	00H
	DD	00H
	DD	00H
	DD	00H
	ORG $+4
_DATA	ENDS
;	COMDAT ??_C@_0BH@LBOMMKPJ@RegisterTypeLibForUser@
CONST	SEGMENT
??_C@_0BH@LBOMMKPJ@RegisterTypeLibForUser@ DB 'RegisterTypeLibForUser', 00H ; `string'
CONST	ENDS
;	COMDAT ??_C@_0BJ@CNLFOMHB@UnRegisterTypeLibForUser@
CONST	SEGMENT
??_C@_0BJ@CNLFOMHB@UnRegisterTypeLibForUser@ DB 'UnRegisterTypeLibForUser'
	DB	00H						; `string'
CONST	ENDS
;	COMDAT ??_C@_1BK@EDKOLFBJ@?$AAO?$AAL?$AAE?$AAA?$AAU?$AAT?$AA3?$AA2?$AA?4?$AAD?$AAL?$AAL@
CONST	SEGMENT
??_C@_1BK@EDKOLFBJ@?$AAO?$AAL?$AAE?$AAA?$AAU?$AAT?$AA3?$AA2?$AA?4?$AAD?$AAL?$AAL@ DB 'O'
	DB	00H, 'L', 00H, 'E', 00H, 'A', 00H, 'U', 00H, 'T', 00H, '3', 00H
	DB	'2', 00H, '.', 00H, 'D', 00H, 'L', 00H, 'L', 00H, 00H, 00H ; `string'
CONST	ENDS
;	COMDAT ??_C@_1DA@BIHALFED@?$AA?2?$AAI?$AAm?$AAp?$AAl?$AAe?$AAm?$AAe?$AAn?$AAt?$AAe?$AAd?$AA?5?$AAC?$AAa@
CONST	SEGMENT
??_C@_1DA@BIHALFED@?$AA?2?$AAI?$AAm?$AAp?$AAl?$AAe?$AAm?$AAe?$AAn?$AAt?$AAe?$AAd?$AA?5?$AAC?$AAa@ DB '\'
	DB	00H, 'I', 00H, 'm', 00H, 'p', 00H, 'l', 00H, 'e', 00H, 'm', 00H
	DB	'e', 00H, 'n', 00H, 't', 00H, 'e', 00H, 'd', 00H, ' ', 00H, 'C'
	DB	00H, 'a', 00H, 't', 00H, 'e', 00H, 'g', 00H, 'o', 00H, 'r', 00H
	DB	'i', 00H, 'e', 00H, 's', 00H, 00H, 00H	; `string'
CONST	ENDS
;	COMDAT ??_C@_1CK@IFBKBFAA@?$AA?2?$AAR?$AAe?$AAq?$AAu?$AAi?$AAr?$AAe?$AAd?$AA?5?$AAC?$AAa?$AAt?$AAe?$AAg@
CONST	SEGMENT
??_C@_1CK@IFBKBFAA@?$AA?2?$AAR?$AAe?$AAq?$AAu?$AAi?$AAr?$AAe?$AAd?$AA?5?$AAC?$AAa?$AAt?$AAe?$AAg@ DB '\'
	DB	00H, 'R', 00H, 'e', 00H, 'q', 00H, 'u', 00H, 'i', 00H, 'r', 00H
	DB	'e', 00H, 'd', 00H, ' ', 00H, 'C', 00H, 'a', 00H, 't', 00H, 'e'
	DB	00H, 'g', 00H, 'o', 00H, 'r', 00H, 'i', 00H, 'e', 00H, 's', 00H
	DB	00H, 00H					; `string'
CONST	ENDS
;	COMDAT ??_C@_1O@FHBGLCIO@?$AAC?$AAL?$AAS?$AAI?$AAD?$AA?2@
CONST	SEGMENT
??_C@_1O@FHBGLCIO@?$AAC?$AAL?$AAS?$AAI?$AAD?$AA?2@ DB 'C', 00H, 'L', 00H, 'S'
	DB	00H, 'I', 00H, 'D', 00H, '\', 00H, 00H, 00H	; `string'
CONST	ENDS
;	COMDAT __GUID_0002e012_0000_0000_c000_000000000046
CONST	SEGMENT
__GUID_0002e012_0000_0000_c000_000000000046 DD 02e012H
	DW	00H
	DW	00H
	DB	0c0H
	DB	00H
	DB	00H
	DB	00H
	DB	00H
	DB	00H
	DB	00H
	DB	046H
CONST	ENDS
;	COMDAT ??_C@_19ILOCMLCJ@?$AA?4?$AAt?$AAl?$AAb@
CONST	SEGMENT
??_C@_19ILOCMLCJ@?$AA?4?$AAt?$AAl?$AAb@ DB '.', 00H, 't', 00H, 'l', 00H, 'b'
	DB	00H, 00H, 00H				; `string'
CONST	ENDS
;	COMDAT ??_C@_0BA@LILAPHGE@RegDeleteKeyExW@
CONST	SEGMENT
??_C@_0BA@LILAPHGE@RegDeleteKeyExW@ DB 'RegDeleteKeyExW', 00H ; `string'
CONST	ENDS
;	COMDAT ??_C@_0BI@HAKLOOGP@RegDeleteKeyTransactedW@
CONST	SEGMENT
??_C@_0BI@HAKLOOGP@RegDeleteKeyTransactedW@ DB 'RegDeleteKeyTransactedW', 00H ; `string'
CONST	ENDS
;	COMDAT ??_C@_0BG@EKFFMJIO@RegOpenKeyTransactedW@
CONST	SEGMENT
??_C@_0BG@EKFFMJIO@RegOpenKeyTransactedW@ DB 'RegOpenKeyTransactedW', 00H ; `string'
CONST	ENDS
;	COMDAT xdata$x
xdata$x	SEGMENT
__sehtable$?_AtlVerifyStackAvailable@_ATL_SAFE_ALLOCA_IMPL@ATL@@YA_NK@Z DD 0ffffffe4H
	DD	00H
	DD	0ffffffccH
	DD	00H
	DD	0fffffffeH
	DD	FLAT:$LN13@AtlVerifyS
	DD	FLAT:$LN8@AtlVerifyS
xdata$x	ENDS
;	COMDAT CRT$XCU
CRT$XCU	SEGMENT
?_AtlWinModule$initializer$@ATL@@3P6AXXZA DD FLAT:??__E_AtlWinModule@ATL@@YAXXZ ; ATL::_AtlWinModule$initializer$
CRT$XCU	ENDS
CRT$XCU	SEGMENT
?_Module$initializer$@@3P6AXXZA DD FLAT:??__E_Module@@YAXXZ ; _Module$initializer$
CRT$XCU	ENDS
;	COMDAT CRT$XCU
CRT$XCU	SEGMENT
??pConnMap$initializer$@?$IConnectionPointContainerImpl@VCOPOSDeviceMonitor@@@ATL@@0P6AXXZA@@3P6AXXZA DD FLAT:??__E?pConnMap@?$IConnectionPointContainerImpl@VCOPOSDeviceMonitor@@@ATL@@0PBU_ATL_CONNMAP_ENTRY@2@B@@YAXXZ ; ??pConnMap$initializer$@?$IConnectionPointContainerImpl@VCOPOSDeviceMonitor@@@ATL@@0P6AXXZA@@3P6AXXZA
CRT$XCU	ENDS
; Function compile flags: /Odsp
;	COMDAT ?Release@?$CComContainedObject@VCOPOSDeviceMonitor@@@ATL@@WLE@AGKXZ
_TEXT	SEGMENT
?Release@?$CComContainedObject@VCOPOSDeviceMonitor@@@ATL@@WLE@AGKXZ PROC ; [thunk]:ATL::CComContainedObject<COPOSDeviceMonitor>::Release`adjustor{180}', COMDAT
  00000	81 6c 24 04 b4
	00 00 00	 sub	 DWORD PTR [esp+4], 180	; 000000b4H
  00008	e9 00 00 00 00	 jmp	 ?Release@?$CComContainedObject@VCOPOSDeviceMonitor@@@ATL@@UAGKXZ ; ATL::CComContainedObject<COPOSDeviceMonitor>::Release
?Release@?$CComContainedObject@VCOPOSDeviceMonitor@@@ATL@@WLE@AGKXZ ENDP ; [thunk]:ATL::CComContainedObject<COPOSDeviceMonitor>::Release`adjustor{180}'
_TEXT	ENDS
; Function compile flags: /Odsp
;	COMDAT ?AddRef@?$CComContainedObject@VCOPOSDeviceMonitor@@@ATL@@WLE@AGKXZ
_TEXT	SEGMENT
?AddRef@?$CComContainedObject@VCOPOSDeviceMonitor@@@ATL@@WLE@AGKXZ PROC ; [thunk]:ATL::CComContainedObject<COPOSDeviceMonitor>::AddRef`adjustor{180}', COMDAT
  00000	81 6c 24 04 b4
	00 00 00	 sub	 DWORD PTR [esp+4], 180	; 000000b4H
  00008	e9 00 00 00 00	 jmp	 ?AddRef@?$CComContainedObject@VCOPOSDeviceMonitor@@@ATL@@UAGKXZ ; ATL::CComContainedObject<COPOSDeviceMonitor>::AddRef
?AddRef@?$CComContainedObject@VCOPOSDeviceMonitor@@@ATL@@WLE@AGKXZ ENDP ; [thunk]:ATL::CComContainedObject<COPOSDeviceMonitor>::AddRef`adjustor{180}'
_TEXT	ENDS
; Function compile flags: /Odsp
;	COMDAT ?Release@?$CComContainedObject@VCOPOSDeviceMonitor@@@ATL@@WKI@AGKXZ
_TEXT	SEGMENT
?Release@?$CComContainedObject@VCOPOSDeviceMonitor@@@ATL@@WKI@AGKXZ PROC ; [thunk]:ATL::CComContainedObject<COPOSDeviceMonitor>::Release`adjustor{168}', COMDAT
  00000	81 6c 24 04 a8
	00 00 00	 sub	 DWORD PTR [esp+4], 168	; 000000a8H
  00008	e9 00 00 00 00	 jmp	 ?Release@?$CComContainedObject@VCOPOSDeviceMonitor@@@ATL@@UAGKXZ ; ATL::CComContainedObject<COPOSDeviceMonitor>::Release
?Release@?$CComContainedObject@VCOPOSDeviceMonitor@@@ATL@@WKI@AGKXZ ENDP ; [thunk]:ATL::CComContainedObject<COPOSDeviceMonitor>::Release`adjustor{168}'
_TEXT	ENDS
; Function compile flags: /Odsp
;	COMDAT ?AddRef@?$CComContainedObject@VCOPOSDeviceMonitor@@@ATL@@WKI@AGKXZ
_TEXT	SEGMENT
?AddRef@?$CComContainedObject@VCOPOSDeviceMonitor@@@ATL@@WKI@AGKXZ PROC ; [thunk]:ATL::CComContainedObject<COPOSDeviceMonitor>::AddRef`adjustor{168}', COMDAT
  00000	81 6c 24 04 a8
	00 00 00	 sub	 DWORD PTR [esp+4], 168	; 000000a8H
  00008	e9 00 00 00 00	 jmp	 ?AddRef@?$CComContainedObject@VCOPOSDeviceMonitor@@@ATL@@UAGKXZ ; ATL::CComContainedObject<COPOSDeviceMonitor>::AddRef
?AddRef@?$CComContainedObject@VCOPOSDeviceMonitor@@@ATL@@WKI@AGKXZ ENDP ; [thunk]:ATL::CComContainedObject<COPOSDeviceMonitor>::AddRef`adjustor{168}'
_TEXT	ENDS
; Function compile flags: /Odsp
;	COMDAT ?Release@?$CComContainedObject@VCOPOSDeviceMonitor@@@ATL@@WKA@AGKXZ
_TEXT	SEGMENT
?Release@?$CComContainedObject@VCOPOSDeviceMonitor@@@ATL@@WKA@AGKXZ PROC ; [thunk]:ATL::CComContainedObject<COPOSDeviceMonitor>::Release`adjustor{160}', COMDAT
  00000	81 6c 24 04 a0
	00 00 00	 sub	 DWORD PTR [esp+4], 160	; 000000a0H
  00008	e9 00 00 00 00	 jmp	 ?Release@?$CComContainedObject@VCOPOSDeviceMonitor@@@ATL@@UAGKXZ ; ATL::CComContainedObject<COPOSDeviceMonitor>::Release
?Release@?$CComContainedObject@VCOPOSDeviceMonitor@@@ATL@@WKA@AGKXZ ENDP ; [thunk]:ATL::CComContainedObject<COPOSDeviceMonitor>::Release`adjustor{160}'
_TEXT	ENDS
; Function compile flags: /Odsp
;	COMDAT ?AddRef@?$CComContainedObject@VCOPOSDeviceMonitor@@@ATL@@WKA@AGKXZ
_TEXT	SEGMENT
?AddRef@?$CComContainedObject@VCOPOSDeviceMonitor@@@ATL@@WKA@AGKXZ PROC ; [thunk]:ATL::CComContainedObject<COPOSDeviceMonitor>::AddRef`adjustor{160}', COMDAT
  00000	81 6c 24 04 a0
	00 00 00	 sub	 DWORD PTR [esp+4], 160	; 000000a0H
  00008	e9 00 00 00 00	 jmp	 ?AddRef@?$CComContainedObject@VCOPOSDeviceMonitor@@@ATL@@UAGKXZ ; ATL::CComContainedObject<COPOSDeviceMonitor>::AddRef
?AddRef@?$CComContainedObject@VCOPOSDeviceMonitor@@@ATL@@WKA@AGKXZ ENDP ; [thunk]:ATL::CComContainedObject<COPOSDeviceMonitor>::AddRef`adjustor{160}'
_TEXT	ENDS
; Function compile flags: /Odsp
;	COMDAT ?QueryInterface@?$CComContainedObject@VCOPOSDeviceMonitor@@@ATL@@WKA@AGJABU_GUID@@PAPAX@Z
_TEXT	SEGMENT
?QueryInterface@?$CComContainedObject@VCOPOSDeviceMonitor@@@ATL@@WKA@AGJABU_GUID@@PAPAX@Z PROC ; [thunk]:ATL::CComContainedObject<COPOSDeviceMonitor>::QueryInterface`adjustor{160}', COMDAT
  00000	81 6c 24 04 a0
	00 00 00	 sub	 DWORD PTR [esp+4], 160	; 000000a0H
  00008	e9 00 00 00 00	 jmp	 ?QueryInterface@?$CComContainedObject@VCOPOSDeviceMonitor@@@ATL@@UAGJABU_GUID@@PAPAX@Z ; ATL::CComContainedObject<COPOSDeviceMonitor>::QueryInterface
?QueryInterface@?$CComContainedObject@VCOPOSDeviceMonitor@@@ATL@@WKA@AGJABU_GUID@@PAPAX@Z ENDP ; [thunk]:ATL::CComContainedObject<COPOSDeviceMonitor>::QueryInterface`adjustor{160}'
_TEXT	ENDS
; Function compile flags: /Odsp
;	COMDAT ?Release@?$CComContainedObject@VCOPOSDeviceMonitor@@@ATL@@WJM@AGKXZ
_TEXT	SEGMENT
?Release@?$CComContainedObject@VCOPOSDeviceMonitor@@@ATL@@WJM@AGKXZ PROC ; [thunk]:ATL::CComContainedObject<COPOSDeviceMonitor>::Release`adjustor{156}', COMDAT
  00000	81 6c 24 04 9c
	00 00 00	 sub	 DWORD PTR [esp+4], 156	; 0000009cH
  00008	e9 00 00 00 00	 jmp	 ?Release@?$CComContainedObject@VCOPOSDeviceMonitor@@@ATL@@UAGKXZ ; ATL::CComContainedObject<COPOSDeviceMonitor>::Release
?Release@?$CComContainedObject@VCOPOSDeviceMonitor@@@ATL@@WJM@AGKXZ ENDP ; [thunk]:ATL::CComContainedObject<COPOSDeviceMonitor>::Release`adjustor{156}'
_TEXT	ENDS
; Function compile flags: /Odsp
;	COMDAT ?AddRef@?$CComContainedObject@VCOPOSDeviceMonitor@@@ATL@@WJM@AGKXZ
_TEXT	SEGMENT
?AddRef@?$CComContainedObject@VCOPOSDeviceMonitor@@@ATL@@WJM@AGKXZ PROC ; [thunk]:ATL::CComContainedObject<COPOSDeviceMonitor>::AddRef`adjustor{156}', COMDAT
  00000	81 6c 24 04 9c
	00 00 00	 sub	 DWORD PTR [esp+4], 156	; 0000009cH
  00008	e9 00 00 00 00	 jmp	 ?AddRef@?$CComContainedObject@VCOPOSDeviceMonitor@@@ATL@@UAGKXZ ; ATL::CComContainedObject<COPOSDeviceMonitor>::AddRef
?AddRef@?$CComContainedObject@VCOPOSDeviceMonitor@@@ATL@@WJM@AGKXZ ENDP ; [thunk]:ATL::CComContainedObject<COPOSDeviceMonitor>::AddRef`adjustor{156}'
_TEXT	ENDS
; Function compile flags: /Odsp
;	COMDAT ?QueryInterface@?$CComContainedObject@VCOPOSDeviceMonitor@@@ATL@@WJM@AGJABU_GUID@@PAPAX@Z
_TEXT	SEGMENT
?QueryInterface@?$CComContainedObject@VCOPOSDeviceMonitor@@@ATL@@WJM@AGJABU_GUID@@PAPAX@Z PROC ; [thunk]:ATL::CComContainedObject<COPOSDeviceMonitor>::QueryInterface`adjustor{156}', COMDAT
  00000	81 6c 24 04 9c
	00 00 00	 sub	 DWORD PTR [esp+4], 156	; 0000009cH
  00008	e9 00 00 00 00	 jmp	 ?QueryInterface@?$CComContainedObject@VCOPOSDeviceMonitor@@@ATL@@UAGJABU_GUID@@PAPAX@Z ; ATL::CComContainedObject<COPOSDeviceMonitor>::QueryInterface
?QueryInterface@?$CComContainedObject@VCOPOSDeviceMonitor@@@ATL@@WJM@AGJABU_GUID@@PAPAX@Z ENDP ; [thunk]:ATL::CComContainedObject<COPOSDeviceMonitor>::QueryInterface`adjustor{156}'
_TEXT	ENDS
; Function compile flags: /Odsp
;	COMDAT ?Release@?$CComContainedObject@VCOPOSDeviceMonitor@@@ATL@@WJI@AGKXZ
_TEXT	SEGMENT
?Release@?$CComContainedObject@VCOPOSDeviceMonitor@@@ATL@@WJI@AGKXZ PROC ; [thunk]:ATL::CComContainedObject<COPOSDeviceMonitor>::Release`adjustor{152}', COMDAT
  00000	81 6c 24 04 98
	00 00 00	 sub	 DWORD PTR [esp+4], 152	; 00000098H
  00008	e9 00 00 00 00	 jmp	 ?Release@?$CComContainedObject@VCOPOSDeviceMonitor@@@ATL@@UAGKXZ ; ATL::CComContainedObject<COPOSDeviceMonitor>::Release
?Release@?$CComContainedObject@VCOPOSDeviceMonitor@@@ATL@@WJI@AGKXZ ENDP ; [thunk]:ATL::CComContainedObject<COPOSDeviceMonitor>::Release`adjustor{152}'
_TEXT	ENDS
; Function compile flags: /Odsp
;	COMDAT ?AddRef@?$CComContainedObject@VCOPOSDeviceMonitor@@@ATL@@WJI@AGKXZ
_TEXT	SEGMENT
?AddRef@?$CComContainedObject@VCOPOSDeviceMonitor@@@ATL@@WJI@AGKXZ PROC ; [thunk]:ATL::CComContainedObject<COPOSDeviceMonitor>::AddRef`adjustor{152}', COMDAT
  00000	81 6c 24 04 98
	00 00 00	 sub	 DWORD PTR [esp+4], 152	; 00000098H
  00008	e9 00 00 00 00	 jmp	 ?AddRef@?$CComContainedObject@VCOPOSDeviceMonitor@@@ATL@@UAGKXZ ; ATL::CComContainedObject<COPOSDeviceMonitor>::AddRef
?AddRef@?$CComContainedObject@VCOPOSDeviceMonitor@@@ATL@@WJI@AGKXZ ENDP ; [thunk]:ATL::CComContainedObject<COPOSDeviceMonitor>::AddRef`adjustor{152}'
_TEXT	ENDS
; Function compile flags: /Odsp
;	COMDAT ?QueryInterface@?$CComContainedObject@VCOPOSDeviceMonitor@@@ATL@@WJI@AGJABU_GUID@@PAPAX@Z
_TEXT	SEGMENT
?QueryInterface@?$CComContainedObject@VCOPOSDeviceMonitor@@@ATL@@WJI@AGJABU_GUID@@PAPAX@Z PROC ; [thunk]:ATL::CComContainedObject<COPOSDeviceMonitor>::QueryInterface`adjustor{152}', COMDAT
  00000	81 6c 24 04 98
	00 00 00	 sub	 DWORD PTR [esp+4], 152	; 00000098H
  00008	e9 00 00 00 00	 jmp	 ?QueryInterface@?$CComContainedObject@VCOPOSDeviceMonitor@@@ATL@@UAGJABU_GUID@@PAPAX@Z ; ATL::CComContainedObject<COPOSDeviceMonitor>::QueryInterface
?QueryInterface@?$CComContainedObject@VCOPOSDeviceMonitor@@@ATL@@WJI@AGJABU_GUID@@PAPAX@Z ENDP ; [thunk]:ATL::CComContainedObject<COPOSDeviceMonitor>::QueryInterface`adjustor{152}'
_TEXT	ENDS
; Function compile flags: /Odsp
;	COMDAT ?Release@?$CComContainedObject@VCOPOSDeviceMonitor@@@ATL@@WJE@AGKXZ
_TEXT	SEGMENT
?Release@?$CComContainedObject@VCOPOSDeviceMonitor@@@ATL@@WJE@AGKXZ PROC ; [thunk]:ATL::CComContainedObject<COPOSDeviceMonitor>::Release`adjustor{148}', COMDAT
  00000	81 6c 24 04 94
	00 00 00	 sub	 DWORD PTR [esp+4], 148	; 00000094H
  00008	e9 00 00 00 00	 jmp	 ?Release@?$CComContainedObject@VCOPOSDeviceMonitor@@@ATL@@UAGKXZ ; ATL::CComContainedObject<COPOSDeviceMonitor>::Release
?Release@?$CComContainedObject@VCOPOSDeviceMonitor@@@ATL@@WJE@AGKXZ ENDP ; [thunk]:ATL::CComContainedObject<COPOSDeviceMonitor>::Release`adjustor{148}'
_TEXT	ENDS
; Function compile flags: /Odsp
;	COMDAT ?AddRef@?$CComContainedObject@VCOPOSDeviceMonitor@@@ATL@@WJE@AGKXZ
_TEXT	SEGMENT
?AddRef@?$CComContainedObject@VCOPOSDeviceMonitor@@@ATL@@WJE@AGKXZ PROC ; [thunk]:ATL::CComContainedObject<COPOSDeviceMonitor>::AddRef`adjustor{148}', COMDAT
  00000	81 6c 24 04 94
	00 00 00	 sub	 DWORD PTR [esp+4], 148	; 00000094H
  00008	e9 00 00 00 00	 jmp	 ?AddRef@?$CComContainedObject@VCOPOSDeviceMonitor@@@ATL@@UAGKXZ ; ATL::CComContainedObject<COPOSDeviceMonitor>::AddRef
?AddRef@?$CComContainedObject@VCOPOSDeviceMonitor@@@ATL@@WJE@AGKXZ ENDP ; [thunk]:ATL::CComContainedObject<COPOSDeviceMonitor>::AddRef`adjustor{148}'
_TEXT	ENDS
; Function compile flags: /Odsp
;	COMDAT ?QueryInterface@?$CComContainedObject@VCOPOSDeviceMonitor@@@ATL@@WJE@AGJABU_GUID@@PAPAX@Z
_TEXT	SEGMENT
?QueryInterface@?$CComContainedObject@VCOPOSDeviceMonitor@@@ATL@@WJE@AGJABU_GUID@@PAPAX@Z PROC ; [thunk]:ATL::CComContainedObject<COPOSDeviceMonitor>::QueryInterface`adjustor{148}', COMDAT
  00000	81 6c 24 04 94
	00 00 00	 sub	 DWORD PTR [esp+4], 148	; 00000094H
  00008	e9 00 00 00 00	 jmp	 ?QueryInterface@?$CComContainedObject@VCOPOSDeviceMonitor@@@ATL@@UAGJABU_GUID@@PAPAX@Z ; ATL::CComContainedObject<COPOSDeviceMonitor>::QueryInterface
?QueryInterface@?$CComContainedObject@VCOPOSDeviceMonitor@@@ATL@@WJE@AGJABU_GUID@@PAPAX@Z ENDP ; [thunk]:ATL::CComContainedObject<COPOSDeviceMonitor>::QueryInterface`adjustor{148}'
_TEXT	ENDS
; Function compile flags: /Odsp
;	COMDAT ?Release@?$CComContainedObject@VCOPOSDeviceMonitor@@@ATL@@WJA@AGKXZ
_TEXT	SEGMENT
?Release@?$CComContainedObject@VCOPOSDeviceMonitor@@@ATL@@WJA@AGKXZ PROC ; [thunk]:ATL::CComContainedObject<COPOSDeviceMonitor>::Release`adjustor{144}', COMDAT
  00000	81 6c 24 04 90
	00 00 00	 sub	 DWORD PTR [esp+4], 144	; 00000090H
  00008	e9 00 00 00 00	 jmp	 ?Release@?$CComContainedObject@VCOPOSDeviceMonitor@@@ATL@@UAGKXZ ; ATL::CComContainedObject<COPOSDeviceMonitor>::Release
?Release@?$CComContainedObject@VCOPOSDeviceMonitor@@@ATL@@WJA@AGKXZ ENDP ; [thunk]:ATL::CComContainedObject<COPOSDeviceMonitor>::Release`adjustor{144}'
_TEXT	ENDS
; Function compile flags: /Odsp
;	COMDAT ?AddRef@?$CComContainedObject@VCOPOSDeviceMonitor@@@ATL@@WJA@AGKXZ
_TEXT	SEGMENT
?AddRef@?$CComContainedObject@VCOPOSDeviceMonitor@@@ATL@@WJA@AGKXZ PROC ; [thunk]:ATL::CComContainedObject<COPOSDeviceMonitor>::AddRef`adjustor{144}', COMDAT
  00000	81 6c 24 04 90
	00 00 00	 sub	 DWORD PTR [esp+4], 144	; 00000090H
  00008	e9 00 00 00 00	 jmp	 ?AddRef@?$CComContainedObject@VCOPOSDeviceMonitor@@@ATL@@UAGKXZ ; ATL::CComContainedObject<COPOSDeviceMonitor>::AddRef
?AddRef@?$CComContainedObject@VCOPOSDeviceMonitor@@@ATL@@WJA@AGKXZ ENDP ; [thunk]:ATL::CComContainedObject<COPOSDeviceMonitor>::AddRef`adjustor{144}'
_TEXT	ENDS
; Function compile flags: /Odsp
;	COMDAT ?QueryInterface@?$CComContainedObject@VCOPOSDeviceMonitor@@@ATL@@WJA@AGJABU_GUID@@PAPAX@Z
_TEXT	SEGMENT
?QueryInterface@?$CComContainedObject@VCOPOSDeviceMonitor@@@ATL@@WJA@AGJABU_GUID@@PAPAX@Z PROC ; [thunk]:ATL::CComContainedObject<COPOSDeviceMonitor>::QueryInterface`adjustor{144}', COMDAT
  00000	81 6c 24 04 90
	00 00 00	 sub	 DWORD PTR [esp+4], 144	; 00000090H
  00008	e9 00 00 00 00	 jmp	 ?QueryInterface@?$CComContainedObject@VCOPOSDeviceMonitor@@@ATL@@UAGJABU_GUID@@PAPAX@Z ; ATL::CComContainedObject<COPOSDeviceMonitor>::QueryInterface
?QueryInterface@?$CComContainedObject@VCOPOSDeviceMonitor@@@ATL@@WJA@AGJABU_GUID@@PAPAX@Z ENDP ; [thunk]:ATL::CComContainedObject<COPOSDeviceMonitor>::QueryInterface`adjustor{144}'
_TEXT	ENDS
; Function compile flags: /Odsp
;	COMDAT ?Release@?$CComContainedObject@VCOPOSDeviceMonitor@@@ATL@@WIM@AGKXZ
_TEXT	SEGMENT
?Release@?$CComContainedObject@VCOPOSDeviceMonitor@@@ATL@@WIM@AGKXZ PROC ; [thunk]:ATL::CComContainedObject<COPOSDeviceMonitor>::Release`adjustor{140}', COMDAT
  00000	81 6c 24 04 8c
	00 00 00	 sub	 DWORD PTR [esp+4], 140	; 0000008cH
  00008	e9 00 00 00 00	 jmp	 ?Release@?$CComContainedObject@VCOPOSDeviceMonitor@@@ATL@@UAGKXZ ; ATL::CComContainedObject<COPOSDeviceMonitor>::Release
?Release@?$CComContainedObject@VCOPOSDeviceMonitor@@@ATL@@WIM@AGKXZ ENDP ; [thunk]:ATL::CComContainedObject<COPOSDeviceMonitor>::Release`adjustor{140}'
_TEXT	ENDS
; Function compile flags: /Odsp
;	COMDAT ?AddRef@?$CComContainedObject@VCOPOSDeviceMonitor@@@ATL@@WIM@AGKXZ
_TEXT	SEGMENT
?AddRef@?$CComContainedObject@VCOPOSDeviceMonitor@@@ATL@@WIM@AGKXZ PROC ; [thunk]:ATL::CComContainedObject<COPOSDeviceMonitor>::AddRef`adjustor{140}', COMDAT
  00000	81 6c 24 04 8c
	00 00 00	 sub	 DWORD PTR [esp+4], 140	; 0000008cH
  00008	e9 00 00 00 00	 jmp	 ?AddRef@?$CComContainedObject@VCOPOSDeviceMonitor@@@ATL@@UAGKXZ ; ATL::CComContainedObject<COPOSDeviceMonitor>::AddRef
?AddRef@?$CComContainedObject@VCOPOSDeviceMonitor@@@ATL@@WIM@AGKXZ ENDP ; [thunk]:ATL::CComContainedObject<COPOSDeviceMonitor>::AddRef`adjustor{140}'
_TEXT	ENDS
; Function compile flags: /Odsp
;	COMDAT ?QueryInterface@?$CComContainedObject@VCOPOSDeviceMonitor@@@ATL@@WIM@AGJABU_GUID@@PAPAX@Z
_TEXT	SEGMENT
?QueryInterface@?$CComContainedObject@VCOPOSDeviceMonitor@@@ATL@@WIM@AGJABU_GUID@@PAPAX@Z PROC ; [thunk]:ATL::CComContainedObject<COPOSDeviceMonitor>::QueryInterface`adjustor{140}', COMDAT
  00000	81 6c 24 04 8c
	00 00 00	 sub	 DWORD PTR [esp+4], 140	; 0000008cH
  00008	e9 00 00 00 00	 jmp	 ?QueryInterface@?$CComContainedObject@VCOPOSDeviceMonitor@@@ATL@@UAGJABU_GUID@@PAPAX@Z ; ATL::CComContainedObject<COPOSDeviceMonitor>::QueryInterface
?QueryInterface@?$CComContainedObject@VCOPOSDeviceMonitor@@@ATL@@WIM@AGJABU_GUID@@PAPAX@Z ENDP ; [thunk]:ATL::CComContainedObject<COPOSDeviceMonitor>::QueryInterface`adjustor{140}'
_TEXT	ENDS
; Function compile flags: /Odsp
;	COMDAT ?Release@?$CComContainedObject@VCOPOSDeviceMonitor@@@ATL@@WII@AGKXZ
_TEXT	SEGMENT
?Release@?$CComContainedObject@VCOPOSDeviceMonitor@@@ATL@@WII@AGKXZ PROC ; [thunk]:ATL::CComContainedObject<COPOSDeviceMonitor>::Release`adjustor{136}', COMDAT
  00000	81 6c 24 04 88
	00 00 00	 sub	 DWORD PTR [esp+4], 136	; 00000088H
  00008	e9 00 00 00 00	 jmp	 ?Release@?$CComContainedObject@VCOPOSDeviceMonitor@@@ATL@@UAGKXZ ; ATL::CComContainedObject<COPOSDeviceMonitor>::Release
?Release@?$CComContainedObject@VCOPOSDeviceMonitor@@@ATL@@WII@AGKXZ ENDP ; [thunk]:ATL::CComContainedObject<COPOSDeviceMonitor>::Release`adjustor{136}'
_TEXT	ENDS
; Function compile flags: /Odsp
;	COMDAT ?AddRef@?$CComContainedObject@VCOPOSDeviceMonitor@@@ATL@@WII@AGKXZ
_TEXT	SEGMENT
?AddRef@?$CComContainedObject@VCOPOSDeviceMonitor@@@ATL@@WII@AGKXZ PROC ; [thunk]:ATL::CComContainedObject<COPOSDeviceMonitor>::AddRef`adjustor{136}', COMDAT
  00000	81 6c 24 04 88
	00 00 00	 sub	 DWORD PTR [esp+4], 136	; 00000088H
  00008	e9 00 00 00 00	 jmp	 ?AddRef@?$CComContainedObject@VCOPOSDeviceMonitor@@@ATL@@UAGKXZ ; ATL::CComContainedObject<COPOSDeviceMonitor>::AddRef
?AddRef@?$CComContainedObject@VCOPOSDeviceMonitor@@@ATL@@WII@AGKXZ ENDP ; [thunk]:ATL::CComContainedObject<COPOSDeviceMonitor>::AddRef`adjustor{136}'
_TEXT	ENDS
; Function compile flags: /Odsp
;	COMDAT ?QueryInterface@?$CComContainedObject@VCOPOSDeviceMonitor@@@ATL@@WII@AGJABU_GUID@@PAPAX@Z
_TEXT	SEGMENT
?QueryInterface@?$CComContainedObject@VCOPOSDeviceMonitor@@@ATL@@WII@AGJABU_GUID@@PAPAX@Z PROC ; [thunk]:ATL::CComContainedObject<COPOSDeviceMonitor>::QueryInterface`adjustor{136}', COMDAT
  00000	81 6c 24 04 88
	00 00 00	 sub	 DWORD PTR [esp+4], 136	; 00000088H
  00008	e9 00 00 00 00	 jmp	 ?QueryInterface@?$CComContainedObject@VCOPOSDeviceMonitor@@@ATL@@UAGJABU_GUID@@PAPAX@Z ; ATL::CComContainedObject<COPOSDeviceMonitor>::QueryInterface
?QueryInterface@?$CComContainedObject@VCOPOSDeviceMonitor@@@ATL@@WII@AGJABU_GUID@@PAPAX@Z ENDP ; [thunk]:ATL::CComContainedObject<COPOSDeviceMonitor>::QueryInterface`adjustor{136}'
_TEXT	ENDS
; Function compile flags: /Odsp
;	COMDAT ?Release@?$CComContainedObject@VCOPOSDeviceMonitor@@@ATL@@WIE@AGKXZ
_TEXT	SEGMENT
?Release@?$CComContainedObject@VCOPOSDeviceMonitor@@@ATL@@WIE@AGKXZ PROC ; [thunk]:ATL::CComContainedObject<COPOSDeviceMonitor>::Release`adjustor{132}', COMDAT
  00000	81 6c 24 04 84
	00 00 00	 sub	 DWORD PTR [esp+4], 132	; 00000084H
  00008	e9 00 00 00 00	 jmp	 ?Release@?$CComContainedObject@VCOPOSDeviceMonitor@@@ATL@@UAGKXZ ; ATL::CComContainedObject<COPOSDeviceMonitor>::Release
?Release@?$CComContainedObject@VCOPOSDeviceMonitor@@@ATL@@WIE@AGKXZ ENDP ; [thunk]:ATL::CComContainedObject<COPOSDeviceMonitor>::Release`adjustor{132}'
_TEXT	ENDS
; Function compile flags: /Odsp
;	COMDAT ?AddRef@?$CComContainedObject@VCOPOSDeviceMonitor@@@ATL@@WIE@AGKXZ
_TEXT	SEGMENT
?AddRef@?$CComContainedObject@VCOPOSDeviceMonitor@@@ATL@@WIE@AGKXZ PROC ; [thunk]:ATL::CComContainedObject<COPOSDeviceMonitor>::AddRef`adjustor{132}', COMDAT
  00000	81 6c 24 04 84
	00 00 00	 sub	 DWORD PTR [esp+4], 132	; 00000084H
  00008	e9 00 00 00 00	 jmp	 ?AddRef@?$CComContainedObject@VCOPOSDeviceMonitor@@@ATL@@UAGKXZ ; ATL::CComContainedObject<COPOSDeviceMonitor>::AddRef
?AddRef@?$CComContainedObject@VCOPOSDeviceMonitor@@@ATL@@WIE@AGKXZ ENDP ; [thunk]:ATL::CComContainedObject<COPOSDeviceMonitor>::AddRef`adjustor{132}'
_TEXT	ENDS
; Function compile flags: /Odsp
;	COMDAT ?QueryInterface@?$CComContainedObject@VCOPOSDeviceMonitor@@@ATL@@WIE@AGJABU_GUID@@PAPAX@Z
_TEXT	SEGMENT
?QueryInterface@?$CComContainedObject@VCOPOSDeviceMonitor@@@ATL@@WIE@AGJABU_GUID@@PAPAX@Z PROC ; [thunk]:ATL::CComContainedObject<COPOSDeviceMonitor>::QueryInterface`adjustor{132}', COMDAT
  00000	81 6c 24 04 84
	00 00 00	 sub	 DWORD PTR [esp+4], 132	; 00000084H
  00008	e9 00 00 00 00	 jmp	 ?QueryInterface@?$CComContainedObject@VCOPOSDeviceMonitor@@@ATL@@UAGJABU_GUID@@PAPAX@Z ; ATL::CComContainedObject<COPOSDeviceMonitor>::QueryInterface
?QueryInterface@?$CComContainedObject@VCOPOSDeviceMonitor@@@ATL@@WIE@AGJABU_GUID@@PAPAX@Z ENDP ; [thunk]:ATL::CComContainedObject<COPOSDeviceMonitor>::QueryInterface`adjustor{132}'
_TEXT	ENDS
; Function compile flags: /Odsp
;	COMDAT ?Release@?$CComContainedObject@VCOPOSDeviceMonitor@@@ATL@@WIA@AGKXZ
_TEXT	SEGMENT
?Release@?$CComContainedObject@VCOPOSDeviceMonitor@@@ATL@@WIA@AGKXZ PROC ; [thunk]:ATL::CComContainedObject<COPOSDeviceMonitor>::Release`adjustor{128}', COMDAT
  00000	81 6c 24 04 80
	00 00 00	 sub	 DWORD PTR [esp+4], 128	; 00000080H
  00008	e9 00 00 00 00	 jmp	 ?Release@?$CComContainedObject@VCOPOSDeviceMonitor@@@ATL@@UAGKXZ ; ATL::CComContainedObject<COPOSDeviceMonitor>::Release
?Release@?$CComContainedObject@VCOPOSDeviceMonitor@@@ATL@@WIA@AGKXZ ENDP ; [thunk]:ATL::CComContainedObject<COPOSDeviceMonitor>::Release`adjustor{128}'
_TEXT	ENDS
; Function compile flags: /Odsp
;	COMDAT ?AddRef@?$CComContainedObject@VCOPOSDeviceMonitor@@@ATL@@WIA@AGKXZ
_TEXT	SEGMENT
?AddRef@?$CComContainedObject@VCOPOSDeviceMonitor@@@ATL@@WIA@AGKXZ PROC ; [thunk]:ATL::CComContainedObject<COPOSDeviceMonitor>::AddRef`adjustor{128}', COMDAT
  00000	81 6c 24 04 80
	00 00 00	 sub	 DWORD PTR [esp+4], 128	; 00000080H
  00008	e9 00 00 00 00	 jmp	 ?AddRef@?$CComContainedObject@VCOPOSDeviceMonitor@@@ATL@@UAGKXZ ; ATL::CComContainedObject<COPOSDeviceMonitor>::AddRef
?AddRef@?$CComContainedObject@VCOPOSDeviceMonitor@@@ATL@@WIA@AGKXZ ENDP ; [thunk]:ATL::CComContainedObject<COPOSDeviceMonitor>::AddRef`adjustor{128}'
_TEXT	ENDS
; Function compile flags: /Odsp
;	COMDAT ?QueryInterface@?$CComContainedObject@VCOPOSDeviceMonitor@@@ATL@@WIA@AGJABU_GUID@@PAPAX@Z
_TEXT	SEGMENT
?QueryInterface@?$CComContainedObject@VCOPOSDeviceMonitor@@@ATL@@WIA@AGJABU_GUID@@PAPAX@Z PROC ; [thunk]:ATL::CComContainedObject<COPOSDeviceMonitor>::QueryInterface`adjustor{128}', COMDAT
  00000	81 6c 24 04 80
	00 00 00	 sub	 DWORD PTR [esp+4], 128	; 00000080H
  00008	e9 00 00 00 00	 jmp	 ?QueryInterface@?$CComContainedObject@VCOPOSDeviceMonitor@@@ATL@@UAGJABU_GUID@@PAPAX@Z ; ATL::CComContainedObject<COPOSDeviceMonitor>::QueryInterface
?QueryInterface@?$CComContainedObject@VCOPOSDeviceMonitor@@@ATL@@WIA@AGJABU_GUID@@PAPAX@Z ENDP ; [thunk]:ATL::CComContainedObject<COPOSDeviceMonitor>::QueryInterface`adjustor{128}'
_TEXT	ENDS
; Function compile flags: /Odsp
;	COMDAT ?Release@?$CComContainedObject@VCOPOSDeviceMonitor@@@ATL@@WHM@AGKXZ
_TEXT	SEGMENT
?Release@?$CComContainedObject@VCOPOSDeviceMonitor@@@ATL@@WHM@AGKXZ PROC ; [thunk]:ATL::CComContainedObject<COPOSDeviceMonitor>::Release`adjustor{124}', COMDAT
  00000	83 6c 24 04 7c	 sub	 DWORD PTR [esp+4], 124	; 0000007cH
  00005	e9 00 00 00 00	 jmp	 ?Release@?$CComContainedObject@VCOPOSDeviceMonitor@@@ATL@@UAGKXZ ; ATL::CComContainedObject<COPOSDeviceMonitor>::Release
?Release@?$CComContainedObject@VCOPOSDeviceMonitor@@@ATL@@WHM@AGKXZ ENDP ; [thunk]:ATL::CComContainedObject<COPOSDeviceMonitor>::Release`adjustor{124}'
_TEXT	ENDS
; Function compile flags: /Odsp
;	COMDAT ?AddRef@?$CComContainedObject@VCOPOSDeviceMonitor@@@ATL@@WHM@AGKXZ
_TEXT	SEGMENT
?AddRef@?$CComContainedObject@VCOPOSDeviceMonitor@@@ATL@@WHM@AGKXZ PROC ; [thunk]:ATL::CComContainedObject<COPOSDeviceMonitor>::AddRef`adjustor{124}', COMDAT
  00000	83 6c 24 04 7c	 sub	 DWORD PTR [esp+4], 124	; 0000007cH
  00005	e9 00 00 00 00	 jmp	 ?AddRef@?$CComContainedObject@VCOPOSDeviceMonitor@@@ATL@@UAGKXZ ; ATL::CComContainedObject<COPOSDeviceMonitor>::AddRef
?AddRef@?$CComContainedObject@VCOPOSDeviceMonitor@@@ATL@@WHM@AGKXZ ENDP ; [thunk]:ATL::CComContainedObject<COPOSDeviceMonitor>::AddRef`adjustor{124}'
_TEXT	ENDS
; Function compile flags: /Odsp
;	COMDAT ?QueryInterface@?$CComContainedObject@VCOPOSDeviceMonitor@@@ATL@@WHM@AGJABU_GUID@@PAPAX@Z
_TEXT	SEGMENT
?QueryInterface@?$CComContainedObject@VCOPOSDeviceMonitor@@@ATL@@WHM@AGJABU_GUID@@PAPAX@Z PROC ; [thunk]:ATL::CComContainedObject<COPOSDeviceMonitor>::QueryInterface`adjustor{124}', COMDAT
  00000	83 6c 24 04 7c	 sub	 DWORD PTR [esp+4], 124	; 0000007cH
  00005	e9 00 00 00 00	 jmp	 ?QueryInterface@?$CComContainedObject@VCOPOSDeviceMonitor@@@ATL@@UAGJABU_GUID@@PAPAX@Z ; ATL::CComContainedObject<COPOSDeviceMonitor>::QueryInterface
?QueryInterface@?$CComContainedObject@VCOPOSDeviceMonitor@@@ATL@@WHM@AGJABU_GUID@@PAPAX@Z ENDP ; [thunk]:ATL::CComContainedObject<COPOSDeviceMonitor>::QueryInterface`adjustor{124}'
_TEXT	ENDS
; Function compile flags: /Odsp
;	COMDAT ?Release@?$CComContainedObject@VCOPOSDeviceMonitor@@@ATL@@WHI@AGKXZ
_TEXT	SEGMENT
?Release@?$CComContainedObject@VCOPOSDeviceMonitor@@@ATL@@WHI@AGKXZ PROC ; [thunk]:ATL::CComContainedObject<COPOSDeviceMonitor>::Release`adjustor{120}', COMDAT
  00000	83 6c 24 04 78	 sub	 DWORD PTR [esp+4], 120	; 00000078H
  00005	e9 00 00 00 00	 jmp	 ?Release@?$CComContainedObject@VCOPOSDeviceMonitor@@@ATL@@UAGKXZ ; ATL::CComContainedObject<COPOSDeviceMonitor>::Release
?Release@?$CComContainedObject@VCOPOSDeviceMonitor@@@ATL@@WHI@AGKXZ ENDP ; [thunk]:ATL::CComContainedObject<COPOSDeviceMonitor>::Release`adjustor{120}'
_TEXT	ENDS
; Function compile flags: /Odsp
;	COMDAT ?AddRef@?$CComContainedObject@VCOPOSDeviceMonitor@@@ATL@@WHI@AGKXZ
_TEXT	SEGMENT
?AddRef@?$CComContainedObject@VCOPOSDeviceMonitor@@@ATL@@WHI@AGKXZ PROC ; [thunk]:ATL::CComContainedObject<COPOSDeviceMonitor>::AddRef`adjustor{120}', COMDAT
  00000	83 6c 24 04 78	 sub	 DWORD PTR [esp+4], 120	; 00000078H
  00005	e9 00 00 00 00	 jmp	 ?AddRef@?$CComContainedObject@VCOPOSDeviceMonitor@@@ATL@@UAGKXZ ; ATL::CComContainedObject<COPOSDeviceMonitor>::AddRef
?AddRef@?$CComContainedObject@VCOPOSDeviceMonitor@@@ATL@@WHI@AGKXZ ENDP ; [thunk]:ATL::CComContainedObject<COPOSDeviceMonitor>::AddRef`adjustor{120}'
_TEXT	ENDS
; Function compile flags: /Odsp
;	COMDAT ?QueryInterface@?$CComContainedObject@VCOPOSDeviceMonitor@@@ATL@@WHI@AGJABU_GUID@@PAPAX@Z
