 Opos_Internals

 Timestamp is 600f7b1c (Tue Jan 26 11:14:52 2021)

 Preferred load address is 10000000

 Start         Length     Name                   Class
 0001:00000000 000006d0H .text$di                CODE
 0001:000006d0 00085900H .text$mn                CODE
 0001:00085fd0 000001c0H .text$x                 CODE
 0001:00086190 000000a0H .text$yd                CODE
 0002:00000000 000001d4H .idata$5                DATA
 0002:000001d4 00000008H .00cfg                  DATA
 0002:000001dc 00000004H .CRT$XCA                DATA
 0002:000001e0 00000004H .CRT$XCL                DATA
 0002:000001e4 00000068H .CRT$XCU                DATA
 0002:0000024c 00000004H .CRT$XCZ                DATA
 0002:00000250 00000004H .CRT$XIA                DATA
 0002:00000254 0000000cH .CRT$XIC                DATA
 0002:00000260 00000004H .CRT$XIZ                DATA
 0002:00000264 00000004H .CRT$XPA                DATA
 0002:00000268 00000008H .CRT$XPX                DATA
 0002:00000270 00000004H .CRT$XPXA               DATA
 0002:00000274 00000004H .CRT$XPZ                DATA
 0002:00000278 00000004H .CRT$XTA                DATA
 0002:0000027c 00000004H .CRT$XTZ                DATA
 0002:00000280 00000000H .gfids$y                DATA
 0002:00000280 00024740H .rdata                  DATA
 0002:000249c0 00000004H .rdata$CastGuardVftablesA DATA
 0002:000249c4 00000004H .rdata$CastGuardVftablesC DATA
 0002:000249c8 0000033cH .rdata$r                DATA
 0002:00024d04 00000044H .rdata$sxdata           DATA
 0002:00024d48 000003dcH .rdata$zzzdbg           DATA
 0002:00025124 00000004H .rtc$IAA                DATA
 0002:00025128 00000008H .rtc$IMZ                DATA
 0002:00025130 00000004H .rtc$IZZ                DATA
 0002:00025134 00000004H .rtc$TAA                DATA
 0002:00025138 00000008H .rtc$TMZ                DATA
 0002:00025140 00000008H .rtc$TZZ                DATA
 0002:00025148 00000d2cH .xdata$x                DATA
 0002:00025e74 00000004H ATL$__a                 DATA
 0002:00025e78 00000008H ATL$__z                 DATA
 0002:00025e80 000000acH .edata                  DATA
 0002:00025f2c 00000064H .idata$2                DATA
 0002:00025f90 00000014H .idata$3                DATA
 0002:00025fa4 000001d4H .idata$4                DATA
 0002:00026178 000007e2H .idata$6                DATA
 0003:00000000 00000910H .data                   DATA
 0003:00000910 00000138H .data$r                 DATA
 0003:00000a48 00003544H .bss                    DATA
 0004:00000000 00000140H .rsrc$01                DATA
 0004:00000140 000166f8H .rsrc$02                DATA

  Address         Publics by Value              Rva+Base       Lib:Object

 0000:00000000       ___enclave_config          00000000     <absolute>
 0000:00000000       ___guard_fids_count        00000000     <absolute>
 0000:00000000       ___guard_longjmp_count     00000000     <absolute>
 0000:00000000       ___guard_iat_count         00000000     <absolute>
 0000:00000000       ___arm64x_redirection_metadata_count 00000000     <absolute>
 0000:00000000       ___x64_code_ranges_to_entry_points 00000000     <absolute>
 0000:00000000       ___dynamic_value_reloc_table 00000000     <absolute>
 0000:00000000       ___arm64x_extra_rfe_table  00000000     <absolute>
 0000:00000000       ___arm64x_extra_rfe_table_size 00000000     <absolute>
 0000:00000000       ___guard_fids_table        00000000     <absolute>
 0000:00000000       ___AbsoluteZero            00000000     <absolute>
 0000:00000000       ___guard_iat_table         00000000     <absolute>
 0000:00000000       ___guard_longjmp_table     00000000     <absolute>
 0000:00000000       ___volatile_metadata       00000000     <absolute>
 0000:00000000       ___x64_code_ranges_to_entry_points_count 00000000     <absolute>
 0000:00000000       ___hybrid_code_map         00000000     <absolute>
 0000:00000000       ___arm64x_native_entrypoint 00000000     <absolute>
 0000:00000000       ___hybrid_code_map_count   00000000     <absolute>
 0000:00000000       ___arm64x_redirection_metadata 00000000     <absolute>
 0000:00000000       ___hybrid_auxiliary_iat    00000000     <absolute>
 0000:00000000       ___guard_eh_cont_count     00000000     <absolute>
 0000:00000000       __except_list              00000000     <absolute>
 0000:00000000       ___guard_eh_cont_table     00000000     <absolute>
 0000:00000011       ___safe_se_handler_count   00000011     <absolute>
 0000:00000100       ___guard_flags             00000100     <absolute>
 0000:00000000       ___ImageBase               10000000     <linker-defined>
 0001:000006d0       ??$AtlMultiply@I@ATL@@YAJPAIII@Z 100016d0 f i StdAfx.obj
 0001:00000730       ??0?$CHeapPtr@_WVCCRTAllocator@ATL@@@ATL@@QAE@XZ 10001730 f i StdAfx.obj
 0001:00000760       ??0?$CHeapPtrBase@_WVCCRTAllocator@ATL@@@ATL@@IAE@XZ 10001760 f i StdAfx.obj
 0001:00000780       ??0?$CSimpleArray@GV?$CSimpleArrayEqualHelper@G@ATL@@@ATL@@QAE@XZ 10001780 f i StdAfx.obj
 0001:000007c0       ??0?$CTraceCategoryEx@$00$0A@@ATL@@QAE@PB_W@Z 100017c0 f i StdAfx.obj
 0001:000007f0       ??0?$CTraceCategoryEx@$01$0A@@ATL@@QAE@PB_W@Z 100017f0 f i StdAfx.obj
 0001:00000820       ??0?$CTraceCategoryEx@$03$0A@@ATL@@QAE@PB_W@Z 10001820 f i StdAfx.obj
 0001:00000850       ??0?$CTraceCategoryEx@$07$0A@@ATL@@QAE@PB_W@Z 10001850 f i StdAfx.obj
 0001:00000880       ??0?$CTraceCategoryEx@$0BA@$0A@@ATL@@QAE@PB_W@Z 10001880 f i StdAfx.obj
 0001:000008b0       ??0?$CTraceCategoryEx@$0BAA@$0A@@ATL@@QAE@PB_W@Z 100018b0 f i StdAfx.obj
 0001:000008f0       ??0?$CTraceCategoryEx@$0BAAA@$0A@@ATL@@QAE@PB_W@Z 100018f0 f i StdAfx.obj
 0001:00000930       ??0?$CTraceCategoryEx@$0BAAAA@$0A@@ATL@@QAE@PB_W@Z 10001930 f i StdAfx.obj
 0001:00000970       ??0?$CTraceCategoryEx@$0BAAAAA@$0A@@ATL@@QAE@PB_W@Z 10001970 f i StdAfx.obj
 0001:000009b0       ??0?$CTraceCategoryEx@$0CA@$0A@@ATL@@QAE@PB_W@Z 100019b0 f i StdAfx.obj
 0001:000009e0       ??0?$CTraceCategoryEx@$0CAA@$0A@@ATL@@QAE@PB_W@Z 100019e0 f i StdAfx.obj
 0001:00000a20       ??0?$CTraceCategoryEx@$0CAAA@$0A@@ATL@@QAE@PB_W@Z 10001a20 f i StdAfx.obj
 0001:00000a60       ??0?$CTraceCategoryEx@$0CAAAA@$0A@@ATL@@QAE@PB_W@Z 10001a60 f i StdAfx.obj
 0001:00000aa0       ??0?$CTraceCategoryEx@$0CAAAAA@$0A@@ATL@@QAE@PB_W@Z 10001aa0 f i StdAfx.obj
 0001:00000ae0       ??0?$CTraceCategoryEx@$0EA@$0A@@ATL@@QAE@PB_W@Z 10001ae0 f i StdAfx.obj
 0001:00000b10       ??0?$CTraceCategoryEx@$0EAA@$0A@@ATL@@QAE@PB_W@Z 10001b10 f i StdAfx.obj
 0001:00000b50       ??0?$CTraceCategoryEx@$0EAAA@$0A@@ATL@@QAE@PB_W@Z 10001b50 f i StdAfx.obj
 0001:00000b90       ??0?$CTraceCategoryEx@$0EAAAA@$0A@@ATL@@QAE@PB_W@Z 10001b90 f i StdAfx.obj
 0001:00000bd0       ??0?$CTraceCategoryEx@$0EAAAAA@$0A@@ATL@@QAE@PB_W@Z 10001bd0 f i StdAfx.obj
 0001:00000c10       ??0?$CTraceCategoryEx@$0IA@$0A@@ATL@@QAE@PB_W@Z 10001c10 f i StdAfx.obj
 0001:00000c50       ??0?$CTraceCategoryEx@$0IAA@$0A@@ATL@@QAE@PB_W@Z 10001c50 f i StdAfx.obj
 0001:00000c90       ??0?$CTraceCategoryEx@$0IAAA@$0A@@ATL@@QAE@PB_W@Z 10001c90 f i StdAfx.obj
 0001:00000cd0       ??0?$CTraceCategoryEx@$0IAAAA@$0A@@ATL@@QAE@PB_W@Z 10001cd0 f i StdAfx.obj
 0001:00000d10       ??0CAtlComModule@ATL@@QAE@XZ 10001d10 f i StdAfx.obj
 0001:00000df0       ??0CAtlWinModule@ATL@@QAE@XZ 10001df0 f i StdAfx.obj
 0001:00000e80       ??0CComCriticalSection@ATL@@QAE@XZ 10001e80 f i StdAfx.obj
 0001:00000eb0       ??0CPreserveLastError@ATL@@QAE@XZ 10001eb0 f i StdAfx.obj
 0001:00000ef0       ??0CTraceFileAndLineInfo@ATL@@QAE@PBDH@Z 10001ef0 f i StdAfx.obj
 0001:00000f20       ??0_ATL_COM_MODULE70@ATL@@QAE@XZ 10001f20 f i StdAfx.obj
 0001:00000f50       ??0_ATL_WIN_MODULE70@ATL@@QAE@XZ 10001f50 f i StdAfx.obj
 0001:00000f90       ??1?$CHeapPtr@_WVCCRTAllocator@ATL@@@ATL@@QAE@XZ 10001f90 f i StdAfx.obj
 0001:00000fc0       ??1?$CHeapPtrBase@_WVCCRTAllocator@ATL@@@ATL@@QAE@XZ 10001fc0 f i StdAfx.obj
 0001:00000ff0       ??1?$CSimpleArray@GV?$CSimpleArrayEqualHelper@G@ATL@@@ATL@@QAE@XZ 10001ff0 f i StdAfx.obj
 0001:00001020       ??1CAtlComModule@ATL@@QAE@XZ 10002020 f i StdAfx.obj
 0001:00001050       ??1CAtlWinModule@ATL@@QAE@XZ 10002050 f i StdAfx.obj
 0001:00001080       ??1CComBSTR@ATL@@QAE@XZ    10002080 f i StdAfx.obj
 0001:000010c0       ??1CComCriticalSection@ATL@@QAE@XZ 100020c0 f i StdAfx.obj
 0001:000010e0       ??1CPreserveLastError@ATL@@QAE@XZ 100020e0 f i StdAfx.obj
 0001:00001120       ??1_ATL_COM_MODULE70@ATL@@QAE@XZ 10002120 f i StdAfx.obj
 0001:00001150       ??1_ATL_WIN_MODULE70@ATL@@QAE@XZ 10002150 f i StdAfx.obj
 0001:00001190       ??1stringdispid@CComTypeInfoHolder@ATL@@QAE@XZ 10002190 f i StdAfx.obj
 0001:000011c0       ??A?$CSimpleArray@GV?$CSimpleArrayEqualHelper@G@ATL@@@ATL@@QAEAAGH@Z 100021c0 f i StdAfx.obj
 0001:00001240       ??B?$CHeapPtrBase@_WVCCRTAllocator@ATL@@@ATL@@QBEPA_WXZ 10002240 f i StdAfx.obj
 0001:00001260       ??B?$CTraceCategoryEx@$01$0A@@ATL@@QAEIXZ 10002260 f i StdAfx.obj
 0001:00001280       ??B?$CTraceCategoryEx@$0CA@$0A@@ATL@@QAEIXZ 10002280 f i StdAfx.obj
 0001:000012a0       ??RCTraceFileAndLineInfo@ATL@@QBAXHIPB_WZZ 100022a0 f i StdAfx.obj
 0001:00001340       ??_Estringdispid@CComTypeInfoHolder@ATL@@QAEPAXI@Z 10002340 f i StdAfx.obj
 0001:000013d0       ??_H@YGXPAXIIP6EPAX0@Z@Z   100023d0 f i StdAfx.obj
 0001:00001440       ??_I@YGXPAXIIP6EX0@Z@Z     10002440 f i StdAfx.obj
 0001:000014c0       ?Allocate@?$CHeapPtr@_WVCCRTAllocator@ATL@@@ATL@@QAE_NI@Z 100024c0 f i StdAfx.obj
 0001:00001550       ?Allocate@CCRTAllocator@ATL@@SAPAXI@Z 10002550 f i StdAfx.obj
 0001:00001570       ?AllocateBytes@?$CHeapPtrBase@_WVCCRTAllocator@ATL@@@ATL@@QAE_NI@Z 10002570 f i StdAfx.obj
 0001:000015e0       ?AtlWinModuleInit@ATL@@YGJPAU_ATL_WIN_MODULE70@1@@Z 100025e0 f i StdAfx.obj
 0001:000016b0       ?AtlWinModuleTerm@ATL@@YGJPAU_ATL_WIN_MODULE70@1@PAUHINSTANCE__@@@Z 100026b0 f i StdAfx.obj
 0001:00001770       ?Free@?$CHeapPtrBase@_WVCCRTAllocator@ATL@@@ATL@@QAEXXZ 10002770 f i StdAfx.obj
 0001:000017b0       ?Free@CCRTAllocator@ATL@@SAXPAX@Z 100027b0 f i StdAfx.obj
 0001:000017d0       ?GetCategoryName@CTrace@ATL@@CAPA_WI@Z 100027d0 f i StdAfx.obj
 0001:00001820       ?GetModuleInstance@CAtlBaseModule@ATL@@QAEPAUHINSTANCE__@@XZ 10002820 f i StdAfx.obj
 0001:00001840       ?GetSize@?$CSimpleArray@GV?$CSimpleArrayEqualHelper@G@ATL@@@ATL@@QBEHXZ 10002840 f i StdAfx.obj
 0001:00001860       ?Init@CComCriticalSection@ATL@@QAEJXZ 10002860 f i StdAfx.obj
 0001:000018c0       ?RegisterCategory@CTrace@ATL@@SAXPB_WI@Z 100028c0 f i StdAfx.obj
 0001:00001950       ?RemoveAll@?$CSimpleArray@GV?$CSimpleArrayEqualHelper@G@ATL@@@ATL@@QAEXXZ 10002950 f i StdAfx.obj
 0001:000019d0       ?Term@CAtlComModule@ATL@@QAEXXZ 100029d0 f i StdAfx.obj
 0001:00001a90       ?Term@CAtlWinModule@ATL@@QAEXXZ 10002a90 f i StdAfx.obj
 0001:00001ac0       ?Term@CComCriticalSection@ATL@@QAEJXZ 10002ac0 f i StdAfx.obj
 0001:00001b00       ?TraceV@CTrace@ATL@@CAXPBDHIIPB_W@Z 10002b00 f i StdAfx.obj
 0001:00001d80       ?TraceV@CTrace@ATL@@SAXPBDHIIPB_WPAD@Z 10002d80 f i StdAfx.obj
 0001:00001ec0       ?_AtlInitializeCriticalSectionEx@ATL@@YAHPAU_RTL_CRITICAL_SECTION@@KK@Z 10002ec0 f i StdAfx.obj
 0001:00001ef0       ?_AtlRaiseException@ATL@@YAXKK@Z 10002ef0 f i StdAfx.obj
 0001:00001f20       _HRESULT_FROM_WIN32        10002f20 f i StdAfx.obj
 0001:00001f60       ___local_stdio_printf_options 10002f60 f i StdAfx.obj
 0001:00001f70       __vswprintf_s_l            10002f70 f i StdAfx.obj
 0001:00001fe0       _swprintf_s                10002fe0 f i StdAfx.obj
 0001:00002170       _DllGetClassObject@12      10003170 f   OposInternals.obj
 0001:000021a0       _DllCanUnloadNow@0         100031a0 f   OposInternals.obj
 0001:000021e0       _DllRegisterServer@0       100031e0 f   OposInternals.obj
 0001:00002200       _DllUnregisterServer@0     10003200 f   OposInternals.obj
 0001:00002390       _DllMain@12                10003390 f   OposInternals.obj
 0001:000023f0       ??$?2PA_W@?$Wrapper@PA_W@?$CSimpleMap@PA_WPA_WVCExpansionVectorEqualHelper@ATL@@@ATL@@SAPAXIPAPA_W@Z 100033f0 f i OposInternals.obj
 0001:00002400       ??$AtlMultiply@K@ATL@@YAJPAKKK@Z 10003400 f i OposInternals.obj
 0001:00002460       ??$AtlMultiplyThrow@I@ATL@@YAIII@Z 10003460 f i OposInternals.obj
 0001:000024e0       ??0?$CAtlModuleT@VCComModule@ATL@@@ATL@@QAE@XZ 100034e0 f i OposInternals.obj
 0001:00002510       ??0?$CAtlSafeAllocBufferManager@VCCRTAllocator@ATL@@@_ATL_SAFE_ALLOCA_IMPL@ATL@@QAE@XZ 10003510 f i OposInternals.obj
 0001:00002530       ??0?$CAutoVectorPtr@_W@ATL@@QAE@XZ 10003530 f i OposInternals.obj
 0001:00002550       ??0?$CComCritSecLock@VCComCriticalSection@ATL@@@ATL@@QAE@AAVCComCriticalSection@1@_N@Z 10003550 f i OposInternals.obj
 0001:000025b0       ??0?$CComPtr@UICatRegister@@@ATL@@QAE@XZ 100035b0 f i OposInternals.obj
 0001:000025e0       ??0?$CComPtr@UITypeLib@@@ATL@@QAE@XZ 100035e0 f i OposInternals.obj
 0001:00002610       ??0?$CComPtrBase@UICatRegister@@@ATL@@IAE@XZ 10003610 f i OposInternals.obj
 0001:00002630       ??0?$CComPtrBase@UITypeLib@@@ATL@@IAE@XZ 10003630 f i OposInternals.obj
 0001:00002650       ??0?$CSimpleMap@PA_WPA_WVCExpansionVectorEqualHelper@ATL@@@ATL@@QAE@XZ 10003650 f i OposInternals.obj
 0001:00002690       ??0?$CTempBuffer@E$0BAA@VCCRTAllocator@ATL@@@ATL@@QAE@XZ 10003690 f i OposInternals.obj
 0001:000026b0       ??0?$CTempBuffer@_W$0BAA@VCCRTAllocator@ATL@@@ATL@@QAE@XZ 100036b0 f i OposInternals.obj
 0001:000026d0       ??0?$CTempBuffer@_W$0EAA@VCCRTAllocator@ATL@@@ATL@@QAE@XZ 100036d0 f i OposInternals.obj
 0001:000026f0       ??0?$Wrapper@PA_W@?$CSimpleMap@PA_WPA_WVCExpansionVectorEqualHelper@ATL@@@ATL@@QAE@ABQA_W@Z 100036f0 f i OposInternals.obj
 0001:00002720       ??0CAtlModule@ATL@@QAE@XZ  10003720 f i OposInternals.obj
 0001:00002840       ??0CComBSTR@ATL@@QAE@XZ    10003840 f i OposInternals.obj
 0001:00002860       ??0CComModule@ATL@@QAE@XZ  10003860 f i OposInternals.obj
 0001:000028d0       ??0CExpansionVector@ATL@@QAE@XZ 100038d0 f i OposInternals.obj
 0001:00002900       ??0CParseBuffer@CRegParser@ATL@@QAE@H@Z 10003900 f i OposInternals.obj
 0001:00002970       ??0CRegKey@ATL@@QAE@PAUHKEY__@@@Z 10003970 f i OposInternals.obj
 0001:000029b0       ??0CRegKey@ATL@@QAE@PAVCAtlTransactionManager@1@@Z 100039b0 f i OposInternals.obj
 0001:000029f0       ??0CRegObject@ATL@@QAE@XZ  100039f0 f i OposInternals.obj
 0001:00002a30       ??0CRegParser@ATL@@QAE@PAVCRegObject@1@@Z 10003a30 f i OposInternals.obj
 0001:00002a60       ??0IRegistrarBase@@QAE@XZ  10003a60 f i OposInternals.obj
 0001:00002a90       ??0IUnknown@@QAE@XZ        10003a90 f i OposInternals.obj
 0001:00002ab0       ??0_ATL_MODULE70@ATL@@QAE@XZ 10003ab0 f i OposInternals.obj
 0001:00002ae0       ??1?$CAtlModuleT@VCComModule@ATL@@@ATL@@UAE@XZ 10003ae0 f i OposInternals.obj
 0001:00002b10       ??1?$CAtlSafeAllocBufferManager@VCCRTAllocator@ATL@@@_ATL_SAFE_ALLOCA_IMPL@ATL@@QAE@XZ 10003b10 f i OposInternals.obj
 0001:00002b60       ??1?$CAutoVectorPtr@_W@ATL@@QAE@XZ 10003b60 f i OposInternals.obj
 0001:00002b90       ??1?$CComCritSecLock@VCComCriticalSection@ATL@@@ATL@@QAE@XZ 10003b90 f i OposInternals.obj
 0001:00002bc0       ??1?$CComPtr@UICatRegister@@@ATL@@QAE@XZ 10003bc0 f i OposInternals.obj
 0001:00002bf0       ??1?$CComPtr@UITypeLib@@@ATL@@QAE@XZ 10003bf0 f i OposInternals.obj
 0001:00002c20       ??1?$CComPtrBase@UICatRegister@@@ATL@@QAE@XZ 10003c20 f i OposInternals.obj
 0001:00002c70       ??1?$CComPtrBase@UITypeLib@@@ATL@@QAE@XZ 10003c70 f i OposInternals.obj
 0001:00002cc0       ??1?$CSimpleMap@PA_WPA_WVCExpansionVectorEqualHelper@ATL@@@ATL@@QAE@XZ 10003cc0 f i OposInternals.obj
 0001:00002cf0       ??1?$CTempBuffer@E$0BAA@VCCRTAllocator@ATL@@@ATL@@QAE@XZ 10003cf0 f i OposInternals.obj
 0001:00002d30       ??1?$CTempBuffer@_W$0BAA@VCCRTAllocator@ATL@@@ATL@@QAE@XZ 10003d30 f i OposInternals.obj
 0001:00002d70       ??1?$CTempBuffer@_W$0EAA@VCCRTAllocator@ATL@@@ATL@@QAE@XZ 10003d70 f i OposInternals.obj
 0001:00002db0       ??1CAtlModule@ATL@@UAE@XZ  10003db0 f i OposInternals.obj
 0001:00002de0       ??1CComModule@ATL@@UAE@XZ  10003de0 f i OposInternals.obj
 0001:00002e10       ??1CExpansionVector@ATL@@QAE@XZ 10003e10 f i OposInternals.obj
 0001:00002e40       ??1CParseBuffer@CRegParser@ATL@@QAE@XZ 10003e40 f i OposInternals.obj
 0001:00002e80       ??1CRegKey@ATL@@QAE@XZ     10003e80 f i OposInternals.obj
 0001:00002eb0       ??1CRegObject@ATL@@UAE@XZ  10003eb0 f i OposInternals.obj
 0001:00002ef0       ??1_ATL_MODULE70@ATL@@QAE@XZ 10003ef0 f i OposInternals.obj
 0001:00002f20       ??7CComBSTR@ATL@@QBE_NXZ   10003f20 f i OposInternals.obj
 0001:00002f60       ??8CComBSTR@ATL@@QBE_NH@Z  10003f60 f i OposInternals.obj
 0001:00002fc0       ??9CComBSTR@ATL@@QBE_NH@Z  10003fc0 f i OposInternals.obj
 0001:00003010       ??B?$CComPtrBase@UITypeLib@@@ATL@@QBEPAUITypeLib@@XZ 10004010 f i OposInternals.obj
 0001:00003030       ??B?$CTempBuffer@E$0BAA@VCCRTAllocator@ATL@@@ATL@@QBEPAEXZ 10004030 f i OposInternals.obj
 0001:00003050       ??B?$CTempBuffer@_W$0BAA@VCCRTAllocator@ATL@@@ATL@@QBEPA_WXZ 10004050 f i OposInternals.obj
 0001:00003070       ??B?$CTempBuffer@_W$0EAA@VCCRTAllocator@ATL@@@ATL@@QBEPA_WXZ 10004070 f i OposInternals.obj
 0001:00003090       ??B?$CTraceCategoryEx@$00$0A@@ATL@@QAEIXZ 10004090 f i OposInternals.obj
 0001:000030b0       ??B?$CTraceCategoryEx@$07$0A@@ATL@@QAEIXZ 100040b0 f i OposInternals.obj
 0001:000030d0       ??B?$CTraceCategoryEx@$0CAAA@$0A@@ATL@@QAEIXZ 100040d0 f i OposInternals.obj
 0001:000030f0       ??BCComBSTR@ATL@@QBEPA_WXZ 100040f0 f i OposInternals.obj
 0001:00003110       ??BCRegKey@ATL@@QBEPAUHKEY__@@XZ 10004110 f i OposInternals.obj
 0001:00003130       ??C?$CComPtrBase@UICatRegister@@@ATL@@QBEPAV?$_NoAddRefReleaseOnCComPtr@UICatRegister@@@1@XZ 10004130 f i OposInternals.obj
 0001:00003180       ??C?$CComPtrBase@UITypeLib@@@ATL@@QBEPAV?$_NoAddRefReleaseOnCComPtr@UITypeLib@@@1@XZ 10004180 f i OposInternals.obj
 0001:000031d0       ??I?$CComPtrBase@UICatRegister@@@ATL@@QAEPAPAUICatRegister@@XZ 100041d0 f i OposInternals.obj
 0001:00003220       ??I?$CComPtrBase@UITypeLib@@@ATL@@QAEPAPAUITypeLib@@XZ 10004220 f i OposInternals.obj
 0001:00003270       ??ICComBSTR@ATL@@QAEPAPA_WXZ 10004270 f i OposInternals.obj
 0001:00003290       ??_ECComModule@ATL@@UAEPAXI@Z 10004290 f i OposInternals.obj
 0001:00003290       ??_GCComModule@ATL@@UAEPAXI@Z 10004290 f i OposInternals.obj
 0001:000032d0       ??_ECRegObject@ATL@@UAEPAXI@Z 100042d0 f i OposInternals.obj
 0001:000032d0       ??_GCRegObject@ATL@@UAEPAXI@Z 100042d0 f i OposInternals.obj
 0001:00003310       ?Add@?$CSimpleMap@PA_WPA_WVCExpansionVectorEqualHelper@ATL@@@ATL@@QAEHABQA_W0@Z 10004310 f i OposInternals.obj
 0001:000033d0       ?Add@CExpansionVector@ATL@@QAEHPB_W0@Z 100043d0 f i OposInternals.obj
 0001:00003660       ?AddChar@CParseBuffer@CRegParser@ATL@@QAEHPB_W@Z 10004660 f i OposInternals.obj
 0001:000036a0       ?AddCommonRGSReplacements@?$CAtlModuleT@VCComModule@ATL@@@ATL@@UAEJPAUIRegistrarBase@@@Z 100046a0 f i OposInternals.obj
 0001:000036f0       ?AddRef@CRegObject@ATL@@UAGKXZ 100046f0 f i OposInternals.obj
 0001:00003740       ?AddReplacement@CRegObject@ATL@@UAGJPB_W0@Z 10004740 f i OposInternals.obj
 0001:00003850       ?AddString@CParseBuffer@CRegParser@ATL@@QAEHPB_W@Z 10004850 f i OposInternals.obj
 0001:00003940       ?AddValue@CRegParser@ATL@@IAEJAAVCRegKey@2@PB_WPA_W@Z 10004940 f i OposInternals.obj
 0001:000040d0       ?Allocate@?$CTempBuffer@E$0BAA@VCCRTAllocator@ATL@@@ATL@@QAEPAEI@Z 100050d0 f i OposInternals.obj
 0001:00004110       ?Allocate@?$CTempBuffer@_W$0BAA@VCCRTAllocator@ATL@@@ATL@@QAEPA_WI@Z 10005110 f i OposInternals.obj
 0001:00004150       ?Allocate@?$CTempBuffer@_W$0EAA@VCCRTAllocator@ATL@@@ATL@@QAEPA_WI@Z 10005150 f i OposInternals.obj
 0001:00004190       ?AllocateBytes@?$CTempBuffer@E$0BAA@VCCRTAllocator@ATL@@@ATL@@QAEPAEI@Z 10005190 f i OposInternals.obj
 0001:00004210       ?AllocateBytes@?$CTempBuffer@_W$0BAA@VCCRTAllocator@ATL@@@ATL@@QAEPA_WI@Z 10005210 f i OposInternals.obj
 0001:00004290       ?AllocateBytes@?$CTempBuffer@_W$0EAA@VCCRTAllocator@ATL@@@ATL@@QAEPA_WI@Z 10005290 f i OposInternals.obj
 0001:00004310       ?AllocateHeap@?$CTempBuffer@E$0BAA@VCCRTAllocator@ATL@@@ATL@@AAEXI@Z 10005310 f i OposInternals.obj
 0001:00004360       ?AllocateHeap@?$CTempBuffer@_W$0BAA@VCCRTAllocator@ATL@@@ATL@@AAEXI@Z 10005360 f i OposInternals.obj
 0001:000043b0       ?AllocateHeap@?$CTempBuffer@_W$0EAA@VCCRTAllocator@ATL@@@ATL@@AAEXI@Z 100053b0 f i OposInternals.obj
 0001:00004400       ?Append@CParseBuffer@CRegParser@ATL@@QAEHPB_WH@Z 10005400 f i OposInternals.obj
 0001:000045a0       ?AtlCallTermFunc@ATL@@YGXPAU_ATL_MODULE70@1@@Z 100055a0 f i OposInternals.obj
 0001:00004640       ?AtlCoTaskMemCAlloc@ATL@@YAPAXKK@Z 10005640 f i OposInternals.obj
 0001:000046d0       ?AtlCoTaskMemRecalloc@ATL@@YAPAXPAXKK@Z 100056d0 f i OposInternals.obj
 0001:00004770       ?AtlComModuleGetClassObject@ATL@@YGJPAU_ATL_COM_MODULE70@1@ABU_GUID@@1PAPAX@Z 10005770 f i OposInternals.obj
 0001:00004a00       ?AtlComModuleRegisterServer@ATL@@YGJPAU_ATL_COM_MODULE70@1@HPBU_GUID@@@Z 10005a00 f i OposInternals.obj
 0001:00004b90       ?AtlComModuleUnregisterServer@ATL@@YGJPAU_ATL_COM_MODULE70@1@HPBU_GUID@@@Z 10005b90 f i OposInternals.obj
 0001:00004cc0       ?AtlCrtErrorCheck@ATL@@YAHH@Z 10005cc0 f i OposInternals.obj
 0001:00004d90       ?AtlGetPerUserRegistration@ATL@@YGJPA_N@Z 10005d90 f i OposInternals.obj
 0001:00004dc0       ?AtlHresultFromLastError@ATL@@YAJXZ 10005dc0 f i OposInternals.obj
 0001:00004e00       ?AtlHresultFromWin32@ATL@@YAJK@Z 10005e00 f i OposInternals.obj
 0001:00004e20       ?AtlLoadTypeLib@ATL@@YGJPAUHINSTANCE__@@PB_WPAPA_WPAPAUITypeLib@@@Z 10005e20 f i OposInternals.obj
 0001:00005280       ?AtlRegisterClassCategoriesHelper@ATL@@YGJABU_GUID@@PBU_ATL_CATMAP_ENTRY@1@H@Z 10006280 f i OposInternals.obj
 0001:00005960       ?AtlRegisterTypeLib@ATL@@YGJPAUHINSTANCE__@@PB_W@Z 10006960 f i OposInternals.obj
 0001:00005ca0       ?AtlThrowImpl@ATL@@YGXJ@Z  10006ca0 f i OposInternals.obj
 0001:00005d50       ?AtlUnRegisterTypeLib@ATL@@YGJPAUHINSTANCE__@@PB_W@Z 10006d50 f i OposInternals.obj
 0001:00005f60       ?Attach@?$CAutoVectorPtr@_W@ATL@@QAEXPA_W@Z 10006f60 f i OposInternals.obj
 0001:00005fc0       ?Attach@CRegKey@ATL@@QAEXPAUHKEY__@@@Z 10006fc0 f i OposInternals.obj
 0001:00006030       ?CanForceRemoveKey@CRegParser@ATL@@IAEHPB_W@Z 10007030 f i OposInternals.obj
 0001:000060a0       ?ChToByte@CRegParser@ATL@@KAE_W@Z 100070a0 f i OposInternals.obj
 0001:000061c0       ?ClearReplacements@CExpansionVector@ATL@@QAEJXZ 100071c0 f i OposInternals.obj
 0001:00006250       ?ClearReplacements@CRegObject@ATL@@UAGJXZ 10007250 f i OposInternals.obj
 0001:000062a0       ?Close@CRegKey@ATL@@QAEJXZ 100072a0 f i OposInternals.obj
 0001:00006310       ?Decrement@CComMultiThreadModel@ATL@@SGKPAJ@Z 10007310 f i OposInternals.obj
 0001:00006330       ?DeleteSubKey@CRegKey@ATL@@QAEJPB_W@Z 10007330 f i OposInternals.obj
 0001:00006440       ?DeleteValue@CRegKey@ATL@@QAEJPB_W@Z 10007440 f i OposInternals.obj
 0001:000064b0       ?Detach@?$CAutoVectorPtr@_W@ATL@@QAEPA_WXZ 100074b0 f i OposInternals.obj
 0001:000064e0       ?Detach@CParseBuffer@CRegParser@ATL@@QAEPA_WXZ 100074e0 f i OposInternals.obj
 0001:00006530       ?Detach@CRegKey@ATL@@QAEPAUHKEY__@@XZ 10007530 f i OposInternals.obj
 0001:00006580       ?EndOfVar@CRegParser@ATL@@IAEHXZ 10007580 f i OposInternals.obj
 0001:000065f0       ?EscapeSingleQuote@CAtlModule@ATL@@SAXPA_WIPB_W@Z 100075f0 f i OposInternals.obj
 0001:000066a0       ?FinalConstruct@CRegObject@ATL@@QAEJXZ 100076a0 f i OposInternals.obj
 0001:000066d0       ?FindKey@?$CSimpleMap@PA_WPA_WVCExpansionVectorEqualHelper@ATL@@@ATL@@QBEHABQA_W@Z 100076d0 f i OposInternals.obj
 0001:00006740       ?Free@?$CAutoVectorPtr@_W@ATL@@QAEXXZ 10007740 f i OposInternals.obj
 0001:00006790       ?FreeHeap@?$CTempBuffer@E$0BAA@VCCRTAllocator@ATL@@@ATL@@AAEXXZ 10007790 f i OposInternals.obj
 0001:000067c0       ?FreeHeap@?$CTempBuffer@_W$0BAA@VCCRTAllocator@ATL@@@ATL@@AAEXXZ 100077c0 f i OposInternals.obj
 0001:000067f0       ?FreeHeap@?$CTempBuffer@_W$0EAA@VCCRTAllocator@ATL@@@ATL@@AAEXXZ 100077f0 f i OposInternals.obj
 0001:00006820       ?GenerateError@CRegParser@ATL@@IAEJI@Z 10007820 f i OposInternals.obj
 0001:00006840       ?GetAppId@?$CAtlModuleT@VCComModule@ATL@@@ATL@@SAPB_WXZ 10007840 f i OposInternals.obj
 0001:00006850       ?GetClassObject@CComModule@ATL@@QAEJABU_GUID@@0PAPAX@Z 10007850 f i OposInternals.obj
 0001:00006a50       ?GetGITPtr@CAtlModule@ATL@@UAEJPAPAUIGlobalInterfaceTable@@@Z 10007a50 f i OposInternals.obj
 0001:00006b50       ?GetKeyAt@?$CSimpleMap@PA_WPA_WVCExpansionVectorEqualHelper@ATL@@@ATL@@QBEAAPA_WH@Z 10007b50 f i OposInternals.obj
 0001:00006bd0       ?GetLockCount@CAtlModule@ATL@@UAEJXZ 10007bd0 f i OposInternals.obj
 0001:00006bf0       ?GetSize@?$CSimpleMap@PA_WPA_WVCExpansionVectorEqualHelper@ATL@@@ATL@@QBEHXZ 10007bf0 f i OposInternals.obj
 0001:00006c10       ?GetValueAt@?$CSimpleMap@PA_WPA_WVCExpansionVectorEqualHelper@ATL@@@ATL@@QBEAAPA_WH@Z 10007c10 f i OposInternals.obj
 0001:00006c90       ?HKeyFromString@CRegParser@ATL@@KAPAUHKEY__@@PA_W@Z 10007c90 f i OposInternals.obj
 0001:00006d00       ?HasSubKeys@CRegParser@ATL@@IAEHPAUHKEY__@@@Z 10007d00 f i OposInternals.obj
 0001:00006e10       ?Increment@CComMultiThreadModel@ATL@@SGKPAJ@Z 10007e10 f i OposInternals.obj
 0001:00006e30       ?Init@CComFakeCriticalSection@ATL@@QAEJXZ 10007e30 f i OposInternals.obj
 0001:00006e50       ?Init@CComModule@ATL@@QAEJPAU_ATL_OBJMAP_ENTRY30@2@PAUHINSTANCE__@@PBU_GUID@@@Z 10007e50 f i OposInternals.obj
 0001:00006f40       ?InitLibId@?$CAtlModuleT@VCComModule@ATL@@@ATL@@SAXXZ 10007f40 f i OposInternals.obj
 0001:00006f50       ?InternalSetAtIndex@?$CSimpleMap@PA_WPA_WVCExpansionVectorEqualHelper@ATL@@@ATL@@QAEXHABQA_W0@Z 10007f50 f i OposInternals.obj
 0001:00006ff0       ?IsEqualKey@CExpansionVectorEqualHelper@ATL@@SA_NQA_W0@Z 10007ff0 f i OposInternals.obj
 0001:00007020       ?IsSpace@CRegParser@ATL@@IAEH_W@Z 10008020 f i OposInternals.obj
 0001:00007090       ?Length@CComBSTR@ATL@@QBEIXZ 10008090 f i OposInternals.obj
 0001:000070d0       ?Lock@?$CComCritSecLock@VCComCriticalSection@ATL@@@ATL@@QAEJXZ 100080d0 f i OposInternals.obj
 0001:00007180       ?Lock@CAtlModule@ATL@@UAEJXZ 10008180 f i OposInternals.obj
 0001:000071b0       ?Lock@CComCriticalSection@ATL@@QAEJXZ 100081b0 f i OposInternals.obj
 0001:000071f0       ?Lock@CComFakeCriticalSection@ATL@@QAEJXZ 100081f0 f i OposInternals.obj
 0001:00007210       ?Lookup@?$CSimpleMap@PA_WPA_WVCExpansionVectorEqualHelper@ATL@@@ATL@@QBEPA_WABQA_W@Z 10008210 f i OposInternals.obj
 0001:00007260       ?NextToken@CRegParser@ATL@@IAEJPA_W@Z 10008260 f i OposInternals.obj
 0001:00007500       ?OLE2CT_EX@@YAPB_WPB_WI@Z  10008500 f i OposInternals.obj
 0001:00007510       ?OLE2T_EX@@YAPA_WPA_WI@Z   10008510 f i OposInternals.obj
 0001:00007520       ?Open@CRegKey@ATL@@QAEJPAUHKEY__@@PB_WK@Z 10008520 f i OposInternals.obj
 0001:00007670       ?PreProcessBuffer@CRegParser@ATL@@QAEJPA_WPAPA_W@Z 10008670 f i OposInternals.obj
 0001:00007bb0       ?QueryInterface@CRegObject@ATL@@UAGJABU_GUID@@PAPAX@Z 10008bb0 f i OposInternals.obj
 0001:00007c00       ?RecurseDeleteKey@CRegKey@ATL@@QAEJPB_W@Z 10008c00 f i OposInternals.obj
 0001:00007de0       ?RegCreateKeyExW@CAtlTransactionManager@ATL@@QAEJPAUHKEY__@@PB_WKPA_WKKQAU_SECURITY_ATTRIBUTES@@PAPAU3@PAK@Z 10008de0 f i OposInternals.obj
 0001:00007f10       ?RegDeleteKeyW@CAtlTransactionManager@ATL@@QAEJPAUHKEY__@@PB_W@Z 10008f10 f i OposInternals.obj
 0001:00008010       ?RegOpenKeyExW@CAtlTransactionManager@ATL@@QAEJPAUHKEY__@@PB_WKKPAPAU3@@Z 10009010 f i OposInternals.obj
 0001:00008120       ?RegisterBuffer@CRegParser@ATL@@QAEJPA_WH@Z 10009120 f i OposInternals.obj
 0001:00008450       ?RegisterFromResource@CRegObject@ATL@@IAEJPB_W00H@Z 10009450 f i OposInternals.obj
 0001:000087e0       ?RegisterServer@?$CAtlModuleT@VCComModule@ATL@@@ATL@@QAEJHPBU_GUID@@@Z 100097e0 f i OposInternals.obj
 0001:00008860       ?RegisterServer@CAtlComModule@ATL@@QAEJHPBU_GUID@@@Z 10009860 f i OposInternals.obj
 0001:00008890       ?RegisterServer@CComModule@ATL@@QAEJHPBU_GUID@@@Z 10009890 f i OposInternals.obj
 0001:00008970       ?RegisterSubkeys@CRegParser@ATL@@IAEJPA_WPAUHKEY__@@HH@Z 10009970 f i OposInternals.obj
 0001:00009490       ?Release@CRegObject@ATL@@UAGKXZ 1000a490 f i OposInternals.obj
 0001:000094d0       ?RemoveAll@?$CSimpleMap@PA_WPA_WVCExpansionVectorEqualHelper@ATL@@@ATL@@QAEXXZ 1000a4d0 f i OposInternals.obj
 0001:00009560       ?ResourceRegister@CRegObject@ATL@@QAGJPB_WI0@Z 1000a560 f i OposInternals.obj
 0001:00009640       ?ResourceRegisterSz@CRegObject@ATL@@QAGJPB_W00@Z 1000a640 f i OposInternals.obj
 0001:00009740       ?ResourceUnregister@CRegObject@ATL@@QAGJPB_WI0@Z 1000a740 f i OposInternals.obj
 0001:00009820       ?ResourceUnregisterSz@CRegObject@ATL@@QAGJPB_W00@Z 1000a820 f i OposInternals.obj
 0001:00009920       ?SetDWORDValue@CRegKey@ATL@@QAEJPB_WK@Z 1000a920 f i OposInternals.obj
 0001:000099a0       ?SetMultiStringValue@CRegKey@ATL@@QAEJPB_W0@Z 1000a9a0 f i OposInternals.obj
 0001:00009ac0       ?SetStringValue@CRegKey@ATL@@QAEJPB_W0K@Z 1000aac0 f i OposInternals.obj
 0001:00009bf0       ?SkipAssignment@CRegParser@ATL@@IAEJPA_W@Z 1000abf0 f i OposInternals.obj
 0001:00009cd0       ?SkipWhiteSpace@CRegParser@ATL@@IAEXXZ 1000acd0 f i OposInternals.obj
 0001:00009d20       ?StrChrW@CRegParser@ATL@@KAPA_WPA_W_W@Z 1000ad20 f i OposInternals.obj
 0001:00009d90       ?StrFromMap@CRegObject@ATL@@QAEPB_WPA_W@Z 1000ad90 f i OposInternals.obj
 0001:00009e20       ?T2COLE_EX@@YAPB_WPB_WI@Z  1000ae20 f i OposInternals.obj
 0001:00009e30       ?T2OLE_EX@@YAPA_WPA_WI@Z   1000ae30 f i OposInternals.obj
 0001:00009e40       ?Term@CAtlModule@ATL@@QAEXXZ 1000ae40 f i OposInternals.obj
 0001:00009ef0       ?Term@CComModule@ATL@@QAEXXZ 1000aef0 f i OposInternals.obj
 0001:00009fe0       ?Unlock@?$CComCritSecLock@VCComCriticalSection@ATL@@@ATL@@QAEXXZ 1000afe0 f i OposInternals.obj
 0001:0000a050       ?Unlock@CAtlModule@ATL@@UAEJXZ 1000b050 f i OposInternals.obj
 0001:0000a080       ?Unlock@CComCriticalSection@ATL@@QAEJXZ 1000b080 f i OposInternals.obj
 0001:0000a0c0       ?Unlock@CComFakeCriticalSection@ATL@@QAEJXZ 1000b0c0 f i OposInternals.obj
 0001:0000a0e0       ?UnregisterServer@?$CAtlModuleT@VCComModule@ATL@@@ATL@@QAEJHPBU_GUID@@@Z 1000b0e0 f i OposInternals.obj
 0001:0000a150       ?UnregisterServer@CAtlComModule@ATL@@QAEJHPBU_GUID@@@Z 1000b150 f i OposInternals.obj
 0001:0000a180       ?UnregisterServer@CComModule@ATL@@QAEJHPBU_GUID@@@Z 1000b180 f i OposInternals.obj
 0001:0000a260       ?UpdateRegistryFromResource@CAtlModule@ATL@@QAGJIHPAU_ATL_REGMAP_ENTRY@2@@Z 1000b260 f i OposInternals.obj
 0001:0000a730       ?UpdateRegistryFromResource@CAtlModule@ATL@@QAGJPB_WHPAU_ATL_REGMAP_ENTRY@2@@Z 1000b730 f i OposInternals.obj
 0001:0000ac20       ?UpdateRegistryFromResource@CComModule@ATL@@UAGJIHPAU_ATL_REGMAP_ENTRY@2@@Z 1000bc20 f i OposInternals.obj
 0001:0000ac50       ?UpdateRegistryFromResource@CComModule@ATL@@UAGJPB_WHPAU_ATL_REGMAP_ENTRY@2@@Z 1000bc50 f i OposInternals.obj
 0001:0000ac80       ?UpdateRegistryFromResourceD@CComModule@ATL@@UAGJIHPAU_ATL_REGMAP_ENTRY@2@@Z 1000bc80 f i OposInternals.obj
 0001:0000ac90       ?UpdateRegistryFromResourceD@CComModule@ATL@@UAGJPB_WHPAU_ATL_REGMAP_ENTRY@2@@Z 1000bc90 f i OposInternals.obj
 0001:0000aca0       ?VTFromRegType@CRegParser@ATL@@KAHPB_WAAG@Z 1000bca0 f i OposInternals.obj
 0001:0000ad80       ?_AtlGetConversionACP@ATL@@YGIXZ 1000bd80 f i OposInternals.obj
 0001:0000ad90       ?atlCreate@CRegKey@ATL@@QAEJPAUHKEY__@@PB_WPA_WKKPAU_SECURITY_ATTRIBUTES@@PAK@Z 1000bd90 f i OposInternals.obj
 0001:0000aef0       ?memcpy_s@Checked@ATL@@YAXPAXIPBXI@Z 1000bef0 f i OposInternals.obj
 0001:0000af20       ?ocscpy_s@@YA_NPA_WIPB_W@Z 1000bf20 f i OposInternals.obj
 0001:0000af80       ?ocslen@@YAHPB_W@Z         1000bf80 f i OposInternals.obj
 0001:0000afb0       ?tcsncpy_s@Checked@ATL@@YAHPA_WIPB_WI@Z 1000bfb0 f i OposInternals.obj
 0001:0000afe0       ?wcscat_s@Checked@ATL@@YAXPA_WIPB_W@Z 1000bfe0 f i OposInternals.obj
 0001:0000b010       ?wcscpy_s@Checked@ATL@@YAXPA_WIPB_W@Z 1000c010 f i OposInternals.obj
 0001:0000b040       ?wcsncpy_s@Checked@ATL@@YAHPA_WIPB_WI@Z 1000c040 f i OposInternals.obj
 0001:0000b070       ?wcsstr@@YAPA_WPA_WPB_W@Z  1000c070 f i OposInternals.obj
 0001:0000b090       _InlineIsEqualGUID         1000c090 f i OposInternals.obj
 0001:0000b130       _IsEqualGUID               1000c130 f i OposInternals.obj
 0001:0000b172       _DecodePointer@4           1000c172 f   kernel32:KERNEL32.dll
 0001:0000b178       _RaiseException@16         1000c178 f   kernel32:KERNEL32.dll
 0001:0000b17e       _GetLastError@0            1000c17e f   kernel32:KERNEL32.dll
 0001:0000b184       _SetLastError@4            1000c184 f   kernel32:KERNEL32.dll
 0001:0000b18a       _InitializeCriticalSectionEx@12 1000c18a f   kernel32:KERNEL32.dll
 0001:0000b190       _DeleteCriticalSection@4   1000c190 f   kernel32:KERNEL32.dll
 0001:0000b196       _EncodePointer@4           1000c196 f   kernel32:KERNEL32.dll
 0001:0000b19c       _EnterCriticalSection@4    1000c19c f   kernel32:KERNEL32.dll
 0001:0000b1a2       _LeaveCriticalSection@4    1000c1a2 f   kernel32:KERNEL32.dll
 0001:0000b1a8       _DisableThreadLibraryCalls@4 1000c1a8 f   kernel32:KERNEL32.dll
 0001:0000b1ae       _FreeLibrary@4             1000c1ae f   kernel32:KERNEL32.dll
 0001:0000b1b4       _GetModuleFileNameW@12     1000c1b4 f   kernel32:KERNEL32.dll
 0001:0000b1ba       _GetModuleHandleW@4        1000c1ba f   kernel32:KERNEL32.dll
 0001:0000b1c0       _GetProcAddress@8          1000c1c0 f   kernel32:KERNEL32.dll
 0001:0000b1c6       _LoadLibraryExW@12         1000c1c6 f   kernel32:KERNEL32.dll
 0001:0000b1cc       _LoadResource@8            1000c1cc f   kernel32:KERNEL32.dll
 0001:0000b1d2       _SizeofResource@8          1000c1d2 f   kernel32:KERNEL32.dll
 0001:0000b1d8       _FindResourceW@12          1000c1d8 f   kernel32:KERNEL32.dll
 0001:0000b1de       _lstrcmpiW@8               1000c1de f   kernel32:KERNEL32.dll
 0001:0000b1e4       _MultiByteToWideChar@24    1000c1e4 f   kernel32:KERNEL32.dll
 0001:0000b1ea       _UnregisterClassW@8        1000c1ea f   user32:USER32.dll
 0001:0000b1f0       _CharNextW@4               1000c1f0 f   user32:USER32.dll
 0001:0000b1f6       _RegCloseKey@4             1000c1f6 f   advapi32:ADVAPI32.dll
 0001:0000b1fc       _RegCreateKeyExW@36        1000c1fc f   advapi32:ADVAPI32.dll
 0001:0000b202       _RegDeleteKeyW@8           1000c202 f   advapi32:ADVAPI32.dll
 0001:0000b208       _RegDeleteValueW@8         1000c208 f   advapi32:ADVAPI32.dll
 0001:0000b20e       _RegEnumKeyExW@32          1000c20e f   advapi32:ADVAPI32.dll
 0001:0000b214       _RegOpenKeyExW@20          1000c214 f   advapi32:ADVAPI32.dll
 0001:0000b21a       _RegQueryInfoKeyW@48       1000c21a f   advapi32:ADVAPI32.dll
 0001:0000b220       _RegSetValueExW@24         1000c220 f   advapi32:ADVAPI32.dll
 0001:0000b226       _CoCreateInstance@20       1000c226 f   ole32:ole32.dll
 0001:0000b22c       _StringFromGUID2@12        1000c22c f   ole32:ole32.dll
 0001:0000b232       _CoTaskMemAlloc@4          1000c232 f   ole32:ole32.dll
 0001:0000b238       _CoTaskMemRealloc@8        1000c238 f   ole32:ole32.dll
 0001:0000b23e       _CoTaskMemFree@4           1000c23e f   ole32:ole32.dll
 0001:0000b244       _SysFreeString@4           1000c244 f   oleaut32:OLEAUT32.dll
 0001:0000b24a       _SysAllocString@4          1000c24a f   oleaut32:OLEAUT32.dll
 0001:0000b250       _SysStringLen@4            1000c250 f   oleaut32:OLEAUT32.dll
 0001:0000b256       _VarUI4FromStr@16          1000c256 f   oleaut32:OLEAUT32.dll
 0001:0000b25c       _LoadTypeLib@8             1000c25c f   oleaut32:OLEAUT32.dll
 0001:0000b262       _RegisterTypeLib@12        1000c262 f   oleaut32:OLEAUT32.dll
 0001:0000b268       _UnRegisterTypeLib@20      1000c268 f   oleaut32:OLEAUT32.dll
 0001:0000b26e       ??$?2PAUHINSTANCE__@@@Wrapper@?$CSimpleArray@PAUHINSTANCE__@@V?$CSimpleArrayEqualHelper@PAUHINSTANCE__@@@ATL@@@ATL@@SAPAXIPAPAUHINSTANCE__@@@Z 1000c26e f i atls:atlbase.obj
 0001:0000b276       ??0?$CSimpleArray@PAUHINSTANCE__@@V?$CSimpleArrayEqualHelper@PAUHINSTANCE__@@@ATL@@@ATL@@QAE@XZ 1000c276 f i atls:atlbase.obj
 0001:0000b283       ??0CAtlBaseModule@ATL@@QAE@XZ 1000c283 f   atls:atlbase.obj
 0001:0000b2d6       ??0Wrapper@?$CSimpleArray@PAUHINSTANCE__@@V?$CSimpleArrayEqualHelper@PAUHINSTANCE__@@@ATL@@@ATL@@QAE@ABQAUHINSTANCE__@@@Z 1000c2d6 f i atls:atlbase.obj
 0001:0000b2e6       ??0_ATL_BASE_MODULE70@ATL@@QAE@XZ 1000c2e6 f i atls:atlbase.obj
 0001:0000b309       ??1?$CSimpleArray@PAUHINSTANCE__@@V?$CSimpleArrayEqualHelper@PAUHINSTANCE__@@@ATL@@@ATL@@QAE@XZ 1000c309 f i atls:atlbase.obj
 0001:0000b30e       ??1CAtlBaseModule@ATL@@QAE@XZ 1000c30e f   atls:atlbase.obj
 0001:0000b324       ??1_ATL_BASE_MODULE70@ATL@@QAE@XZ 1000c324 f i atls:atlbase.obj
 0001:0000b32c       ??A?$CSimpleArray@PAUHINSTANCE__@@V?$CSimpleArrayEqualHelper@PAUHINSTANCE__@@@ATL@@@ATL@@QAEAAPAUHINSTANCE__@@H@Z 1000c32c f i atls:atlbase.obj
 0001:0000b351       ?Add@?$CSimpleArray@PAUHINSTANCE__@@V?$CSimpleArrayEqualHelper@PAUHINSTANCE__@@@ATL@@@ATL@@QAEHABQAUHINSTANCE__@@@Z 1000c351 f i atls:atlbase.obj
 0001:0000b3d3       ?AddResourceInstance@CAtlBaseModule@ATL@@QAE_NPAUHINSTANCE__@@@Z 1000c3d3 f   atls:atlbase.obj
 0001:0000b406       ?GetHInstanceAt@CAtlBaseModule@ATL@@QAEPAUHINSTANCE__@@H@Z 1000c406 f   atls:atlbase.obj
 0001:0000b44b       ?GetSize@?$CSimpleArray@PAUHINSTANCE__@@V?$CSimpleArrayEqualHelper@PAUHINSTANCE__@@@ATL@@@ATL@@QBEHXZ 1000c44b f i atls:atlbase.obj
 0001:0000b44f       ?InternalSetAtIndex@?$CSimpleArray@PAUHINSTANCE__@@V?$CSimpleArrayEqualHelper@PAUHINSTANCE__@@@ATL@@@ATL@@QAEXHABQAUHINSTANCE__@@@Z 1000c44f f i atls:atlbase.obj
 0001:0000b469       ?RemoveAll@?$CSimpleArray@PAUHINSTANCE__@@V?$CSimpleArrayEqualHelper@PAUHINSTANCE__@@@ATL@@@ATL@@QAEXXZ 1000c469 f i atls:atlbase.obj
 0001:0000b486       ?RemoveAt@?$CSimpleArray@PAUHINSTANCE__@@V?$CSimpleArrayEqualHelper@PAUHINSTANCE__@@@ATL@@@ATL@@QAEHH@Z 1000c486 f i atls:atlbase.obj
 0001:0000b4d4       ?RemoveResourceInstance@CAtlBaseModule@ATL@@QAE_NPAUHINSTANCE__@@@Z 1000c4d4 f   atls:atlbase.obj
 0001:0000b531       ?memmove_s@Checked@ATL@@YAXPAXIPBXI@Z 1000c531 f i atls:atlbase.obj
 0001:0000b5d0       ??3@YAXPAXI@Z              1000c5d0 f   LIBCMTD:delete_scalar_size.obj
 0001:0000b5f0       ??_V@YAXPAXI@Z             1000c5f0 f   LIBCMTD:delete_array_size.obj
 0001:0000b610       ?configure_argv@__scrt_narrow_argv_policy@@SAHXZ 1000c610 f i LIBCMTD:utility.obj
 0001:0000b6c0       ?initialize_environment@__scrt_narrow_environment_policy@@SAHXZ 1000c6c0 f i LIBCMTD:utility.obj
 0001:0000b740       _NtCurrentTeb              1000c740 f i LIBCMTD:utility.obj
 0001:0000b750       ___scrt_acquire_startup_lock 1000c750 f   LIBCMTD:utility.obj
 0001:0000b7a0       ___scrt_dllmain_after_initialize_c 1000c7a0 f   LIBCMTD:utility.obj
 0001:0000b7d0       ___scrt_dllmain_before_initialize_c 1000c7d0 f   LIBCMTD:utility.obj
 0001:0000b7f0       ___scrt_dllmain_crt_thread_attach 1000c7f0 f   LIBCMTD:utility.obj
 0001:0000b820       ___scrt_dllmain_crt_thread_detach 1000c820 f   LIBCMTD:utility.obj
 0001:0000b840       ___scrt_dllmain_exception_filter 1000c840 f   LIBCMTD:utility.obj
 0001:0000b890       ___scrt_dllmain_uninitialize_c 1000c890 f   LIBCMTD:utility.obj
 0001:0000b8c0       ___scrt_dllmain_uninitialize_critical 1000c8c0 f   LIBCMTD:utility.obj
 0001:0000b8e0       ___scrt_initialize_crt     1000c8e0 f   LIBCMTD:utility.obj
 0001:0000b930       ___scrt_initialize_onexit_tables 1000c930 f   LIBCMTD:utility.obj
 0001:0000ba10       ___scrt_is_nonwritable_in_current_image 1000ca10 f   LIBCMTD:utility.obj
 0001:0000bb40       ___scrt_release_startup_lock 1000cb40 f   LIBCMTD:utility.obj
 0001:0000bb70       ___scrt_uninitialize_crt   1000cb70 f   LIBCMTD:utility.obj
 0001:0000bbb0       __onexit                   1000cbb0 f   LIBCMTD:utility.obj
 0001:0000bc20       _at_quick_exit             1000cc20 f   LIBCMTD:utility.obj
 0001:0000bc60       _atexit                    1000cc60 f   LIBCMTD:utility.obj
 0001:0000bc90       @_RTC_AllocaHelper@12      1000cc90 f   LIBCMTD:stack.obj
 0001:0000bcd0       @_RTC_CheckStackVars2@12   1000ccd0 f   LIBCMTD:stack.obj
 0001:0000bdb0       @_RTC_CheckStackVars@8     1000cdb0 f   LIBCMTD:stack.obj
 0001:0000be10       __RTC_CheckEsp             1000ce10 f   LIBCMTD:stack.obj
 0001:0000be50       @__security_check_cookie@4 1000ce50 f   LIBCMTD:secchk.obj
 0001:0000be70       __CRT_RTC_INIT             1000ce70 f   LIBCMTD:init.obj
 0001:0000be80       __CRT_RTC_INITW            1000ce80 f   LIBCMTD:init.obj
 0001:0000be90       __RTC_InitBase             1000ce90 f   LIBCMTD:init.obj
 0001:0000bec0       __RTC_Shutdown             1000cec0 f   LIBCMTD:init.obj
 0001:0000bee0       ??3@YAXPAX@Z               1000cee0 f   LIBCMTD:delete_scalar.obj
 0001:0000bf00       ??_V@YAXPAX@Z              1000cf00 f   LIBCMTD:delete_array.obj
 0001:0000bf20       ___raise_securityfailure   1000cf20 f   LIBCMTD:gs_report.obj
 0001:0000bf50       ___report_gsfailure        1000cf50 f   LIBCMTD:gs_report.obj
 0001:0000c060       ___report_rangecheckfailure 1000d060 f   LIBCMTD:gs_report.obj
 0001:0000c070       ___report_securityfailure  1000d070 f   LIBCMTD:gs_report.obj
 0001:0000c150       ___report_securityfailureEx 1000d150 f   LIBCMTD:gs_report.obj
 0001:0000c280       ??_U@YAPAXIABUnothrow_t@std@@@Z 1000d280 f   LIBCMTD:new_array_nothrow.obj
 0001:0000c2a0       __alloca_probe             1000d2a0 f   LIBCMTD:chkstk.obj
 0001:0000c2a0       __chkstk                   1000d2a0 f   LIBCMTD:chkstk.obj
 0001:0000c7a0       __CRT_INIT@12              1000d7a0 f   LIBCMTD:dll_dllmain.obj
 0001:0000c7c0       __DllMainCRTStartup@12     1000d7c0 f   LIBCMTD:dll_dllmain.obj
 0001:0000c7f0       @_guard_check_icall_nop@4  1000d7f0 f i LIBCMTD:guard_support.obj
 0001:0000c800       _ReadNoFence               1000d800 f i LIBCMTD:guard_support.obj
 0001:0000c820       _ReadPointerNoFence        1000d820 f i LIBCMTD:guard_support.obj
 0001:0000c840       ___castguard_check_failure_debugbreak 1000d840 f i LIBCMTD:guard_support.obj
 0001:0000c860       ___castguard_check_failure_fastfail 1000d860 f i LIBCMTD:guard_support.obj
 0001:0000c880       ___castguard_check_failure_nop 1000d880 f i LIBCMTD:guard_support.obj
 0001:0000c890       ___castguard_check_failure_os_handled 1000d890 f i LIBCMTD:guard_support.obj
 0001:0000c910       ___castguard_slow_path_check_debugbreak 1000d910 f i LIBCMTD:guard_support.obj
 0001:0000c940       ___castguard_slow_path_check_fastfail 1000d940 f i LIBCMTD:guard_support.obj
 0001:0000c980       ___castguard_slow_path_check_nop 1000d980 f i LIBCMTD:guard_support.obj
 0001:0000c990       ___castguard_slow_path_check_os_handled 1000d990 f i LIBCMTD:guard_support.obj
 0001:0000ca30       __guard_icall_checks_enforced 1000da30 f i LIBCMTD:guard_support.obj
 0001:0000ca60       ___isa_available_init      1000da60 f   LIBCMTD:cpu_disp.obj
 0001:0000cda0       __get_startup_argv_mode    1000dda0 f   LIBCMTD:argv_mode.obj
 0001:0000cdb0       ___scrt_is_ucrt_dll_in_use 1000ddb0 f   LIBCMTD:ucrt_detection.obj
 0001:0000cde0       ___scrt_fastfail           1000dde0 f   LIBCMTD:utility_desktop.obj
 0001:0000cf20       ___scrt_get_show_window_mode 1000df20 f   LIBCMTD:utility_desktop.obj
 0001:0000cf60       ___scrt_initialize_mta     1000df60 f   LIBCMTD:utility_desktop.obj
 0001:0000cf70       ___scrt_initialize_winrt   1000df70 f   LIBCMTD:utility_desktop.obj
 0001:0000cf80       ___scrt_is_managed_app     1000df80 f   LIBCMTD:utility_desktop.obj
 0001:0000d010       ___scrt_set_unhandled_exception_filter 1000e010 f   LIBCMTD:utility_desktop.obj
 0001:0000d020       ___scrt_stub_for_initialize_mta 1000e020 f   LIBCMTD:utility_desktop.obj
 0001:0000d020       ___scrt_exe_initialize_mta 1000e020 f   LIBCMTD:utility_desktop.obj
 0001:0000d030       ___scrt_unhandled_exception_filter@4 1000e030 f   LIBCMTD:utility_desktop.obj
 0001:0000d0b0       __crt_debugger_hook        1000e0b0 f   LIBCMTD:utility_desktop.obj
 0001:0000d150       ?_RTC_AllocaFailure@@YAXPAXPAU_RTC_ALLOCA_NODE@@H@Z 1000e150 f   LIBCMTD:error.obj
 0001:0000d240       ?_RTC_Failure@@YAXPAXH@Z   1000e240 f   LIBCMTD:error.obj
 0001:0000d290       ?_RTC_StackFailure@@YAXPAXPBD@Z 1000e290 f   LIBCMTD:error.obj
 0001:0000d650       __RTC_UninitUse            1000e650 f   LIBCMTD:error.obj
 0001:0000d700       __vsprintf_s_l             1000e700 f i LIBCMTD:error.obj
 0001:0000d730       _sprintf_s                 1000e730 f i LIBCMTD:error.obj
 0001:0000d750       ?_RTC_GetErrorFunc@@YAP6AHHPBDH00ZZPBX@Z 1000e750 f   LIBCMTD:userapi.obj
 0001:0000d760       ?_RTC_GetErrorFuncW@@YAP6AHHPB_WH00ZZPBX@Z 1000e760 f   LIBCMTD:userapi.obj
 0001:0000d770       __RTC_GetErrDesc           1000e770 f   LIBCMTD:userapi.obj
 0001:0000d790       __RTC_NumErrors            1000e790 f   LIBCMTD:userapi.obj
 0001:0000d7a0       __RTC_SetErrorFunc         1000e7a0 f   LIBCMTD:userapi.obj
 0001:0000d7c0       __RTC_SetErrorFuncW        1000e7c0 f   LIBCMTD:userapi.obj
 0001:0000d7e0       __RTC_SetErrorType         1000e7e0 f   LIBCMTD:userapi.obj
 0001:0000d810       ??2@YAPAXIABUnothrow_t@std@@@Z 1000e810 f   LIBCMTD:new_scalar_nothrow.obj
 0001:0000d910       ___security_init_cookie    1000e910 f   LIBCMTD:gs_support.obj
 0001:0000d990       ?__scrt_initialize_type_info@@YAXXZ 1000e990 f   LIBCMTD:tncleanup.obj
 0001:0000d9a0       ?__scrt_uninitialize_type_info@@YAXXZ 1000e9a0 f   LIBCMTD:tncleanup.obj
 0001:0000d9c0       ___local_stdio_scanf_options 1000e9c0 f i LIBCMTD:default_local_stdio_options.obj
 0001:0000d9d0       ___scrt_initialize_default_local_stdio_options 1000e9d0 f   LIBCMTD:default_local_stdio_options.obj
 0001:0000da10       ___scrt_get_dyn_tls_init_callback 1000ea10 f   LIBCMTD:dyn_tls_init.obj
 0001:0000da20       __RTC_Initialize           1000ea20 f   LIBCMTD:initsect.obj
 0001:0000da50       __RTC_Terminate            1000ea50 f   LIBCMTD:initsect.obj
 0001:0000df00       ?_RTC_GetSrcLine@@YAHPAEPA_WKPAH1K@Z 1000ef00 f   LIBCMTD:pdblkup.obj
 0001:0000e280       __except_handler4_noexcept 1000f280 f   LIBCMTD:chandler4_noexcept.obj
 0001:0000e2e0       ??2@YAPAXI@Z               1000f2e0 f   LIBCMTD:new_scalar.obj
 0001:0000e330       ??0bad_alloc@std@@AAE@QBD@Z 1000f330 f i LIBCMTD:throw_bad_alloc.obj
 0001:0000e360       ??0bad_alloc@std@@QAE@ABV01@@Z 1000f360 f i LIBCMTD:throw_bad_alloc.obj
 0001:0000e390       ??0bad_alloc@std@@QAE@XZ   1000f390 f i LIBCMTD:throw_bad_alloc.obj
 0001:0000e3c0       ??0bad_array_new_length@std@@QAE@ABV01@@Z 1000f3c0 f i LIBCMTD:throw_bad_alloc.obj
 0001:0000e3f0       ??0bad_array_new_length@std@@QAE@XZ 1000f3f0 f i LIBCMTD:throw_bad_alloc.obj
 0001:0000e420       ??0exception@std@@QAE@ABV01@@Z 1000f420 f i LIBCMTD:throw_bad_alloc.obj
 0001:0000e460       ??0exception@std@@QAE@QBDH@Z 1000f460 f i LIBCMTD:throw_bad_alloc.obj
 0001:0000e490       ??1bad_alloc@std@@UAE@XZ   1000f490 f i LIBCMTD:throw_bad_alloc.obj
 0001:0000e4b0       ??1bad_array_new_length@std@@UAE@XZ 1000f4b0 f i LIBCMTD:throw_bad_alloc.obj
 0001:0000e4d0       ??1exception@std@@UAE@XZ   1000f4d0 f i LIBCMTD:throw_bad_alloc.obj
 0001:0000e500       ??_Ebad_alloc@std@@UAEPAXI@Z 1000f500 f i LIBCMTD:throw_bad_alloc.obj
 0001:0000e500       ??_Gbad_alloc@std@@UAEPAXI@Z 1000f500 f i LIBCMTD:throw_bad_alloc.obj
 0001:0000e530       ??_Ebad_array_new_length@std@@UAEPAXI@Z 1000f530 f i LIBCMTD:throw_bad_alloc.obj
 0001:0000e530       ??_Gbad_array_new_length@std@@UAEPAXI@Z 1000f530 f i LIBCMTD:throw_bad_alloc.obj
 0001:0000e560       ??_Gexception@std@@UAEPAXI@Z 1000f560 f i LIBCMTD:throw_bad_alloc.obj
 0001:0000e560       ??_Eexception@std@@UAEPAXI@Z 1000f560 f i LIBCMTD:throw_bad_alloc.obj
 0001:0000e590       ?__scrt_throw_std_bad_alloc@@YAXXZ 1000f590 f   LIBCMTD:throw_bad_alloc.obj
 0001:0000e5b0       ?__scrt_throw_std_bad_array_new_length@@YAXXZ 1000f5b0 f   LIBCMTD:throw_bad_alloc.obj
 0001:0000e5d0       ?what@exception@std@@UBEPBDXZ 1000f5d0 f i LIBCMTD:throw_bad_alloc.obj
 0001:0000e600       ??1type_info@@UAE@XZ       1000f600 f   LIBCMTD:std_type_info_static.obj
 0001:0000e620       ??_Gtype_info@@UAEPAXI@Z   1000f620 f i LIBCMTD:std_type_info_static.obj
 0001:0000e620       ??_Etype_info@@UAEPAXI@Z   1000f620 f i LIBCMTD:std_type_info_static.obj
 0001:0000e650       _memset                    1000f650 f   libvcruntimed:memset.obj
 0001:0000e960       _memcmp                    1000f960 f   libvcruntimed:memcmp.obj
 0001:0000f230       _memcpy                    10010230 f   libvcruntimed:memcpy.obj
 0001:0000f7b0       _wcsstr                    100107b0 f   libvcruntimed:wcsstr.obj
 0001:0000fc80       _memmove                   10010c80 f   libvcruntimed:memmove.obj
 0001:00010200       ___vcrt_initialize         10011200 f   libvcruntimed:initialization.obj
 0001:00010240       ___vcrt_thread_attach      10011240 f   libvcruntimed:initialization.obj
 0001:00010260       ___vcrt_thread_detach      10011260 f   libvcruntimed:initialization.obj
 0001:00010280       ___vcrt_uninitialize       10011280 f   libvcruntimed:initialization.obj
 0001:000102a0       ___vcrt_uninitialize_critical 100112a0 f   libvcruntimed:initialization.obj
 0001:00010320       __except_handler4          10011320 f   libvcruntimed:chandler4.obj
 0001:00010510       ___DestructExceptionObject 10011510 f   libvcruntimed:ehhelpers.obj
 0001:00010630       ?_CallMemberFunction0@@YGXQAX0@Z 10011630 f i libvcruntimed:ehhelpers.obj
 0001:000106d0       ?raw_name@type_info@@QBEPBDXZ 100116d0 f i libvcruntimed:ehhelpers.obj
 0001:000106f0       __IsExceptionObjectToBeDestroyed 100116f0 f   libvcruntimed:ehhelpers.obj
 0001:00010730       __SetWinRTOutOfMemoryExceptionCallback 10011730 f   libvcruntimed:ehhelpers.obj
 0001:00010740       ___AdjustPointer           10011740 f   libvcruntimed:ehhelpers.obj
 0001:00010790       ___FrameUnwindFilter       10011790 f   libvcruntimed:ehhelpers.obj
 0001:00010820       ___GetPlatformExceptionInfo 10011820 f   libvcruntimed:ehhelpers.obj
 0001:000108a0       ___current_exception       100118a0 f   libvcruntimed:ehhelpers.obj
 0001:000108b0       ___current_exception_context 100118b0 f   libvcruntimed:ehhelpers.obj
 0001:000108c0       ___processing_throw        100118c0 f   libvcruntimed:ehhelpers.obj
 0001:000108d0       ___std_terminate           100118d0 f   libvcruntimed:ehhelpers.obj
 0001:000108e0       __is_exception_typeof      100118e0 f   libvcruntimed:ehhelpers.obj
 0001:000109c0       ??$?0AAViterator@TryBlockMap@__FrameHandler3@@AAV012@$0A@@?$pair@Viterator@TryBlockMap@__FrameHandler3@@V123@@std@@QAE@AAViterator@TryBlockMap@__FrameHandler3@@0@Z 100119c0 f i libvcruntimed:trnsctrl.obj
 0001:00010a10       ??$forward@AAViterator@TryBlockMap@__FrameHandler3@@@std@@YAAAViterator@TryBlockMap@__FrameHandler3@@AAV123@@Z 10011a10 f i libvcruntimed:trnsctrl.obj
 0001:00010a20       ??0iterator@TryBlockMap@__FrameHandler3@@QAE@AAV12@I@Z 10011a20 f i libvcruntimed:trnsctrl.obj
 0001:00010a50       ?GetRangeOfTrysToCheck@__FrameHandler3@@SA?AU?$pair@Viterator@TryBlockMap@__FrameHandler3@@V123@@std@@AAVTryBlockMap@1@HPAXPBU_s_FuncInfo@@H@Z 10011a50 f   libvcruntimed:trnsctrl.obj
 0001:00010b30       ?_CallCatchBlock2@@YAPAXPAUEHRegistrationNode@@PBU_s_FuncInfo@@PAXHK@Z 10011b30 f   libvcruntimed:trnsctrl.obj
 0001:00010ba0       ?_CallSETranslator@@YAHPAUEHExceptionRecord@@PAUEHRegistrationNode@@PAX2PBU_s_FuncInfo@@H1@Z 10011ba0 f   libvcruntimed:trnsctrl.obj
 0001:00010ca0       ?_JumpToContinuation@@YGXPAXPAUEHRegistrationNode@@@Z 10011ca0 f   libvcruntimed:trnsctrl.obj
 0001:00010ce0       ?_UnwindNestedFrames@@YGXPAUEHRegistrationNode@@PAUEHExceptionRecord@@@Z 10011ce0 f   libvcruntimed:trnsctrl.obj
 0001:00010d40       __CatchGuardHandler        10011d40 f   libvcruntimed:trnsctrl.obj
 0001:00010d90       __CreateFrameInfo          10011d90 f   libvcruntimed:trnsctrl.obj
 0001:00010dc0       __FindAndUnlinkFrame       10011dc0 f   libvcruntimed:trnsctrl.obj
 0001:00010e30       __TranslatorGuardHandler   10011e30 f   libvcruntimed:trnsctrl.obj
 0001:00010ee0       ___CxxFrameHandler         10011ee0 f   libvcruntimed:trnsctrl.obj
 0001:00010f20       ___CxxFrameHandler2        10011f20 f   libvcruntimed:trnsctrl.obj
 0001:00010f60       ___CxxFrameHandler3        10011f60 f   libvcruntimed:trnsctrl.obj
 0001:00010fa0       ___CxxLongjmpUnwind@4      10011fa0 f   libvcruntimed:trnsctrl.obj
 0001:00011000       ??$?RD@__crt_internal_free_policy@@QBEXQBD@Z 10012000 f i libvcruntimed:std_type_info.obj
 0001:00011020       ??$?RX@__crt_internal_free_policy@@QBEXQBX@Z 10012020 f i libvcruntimed:std_type_info.obj
 0001:00011040       ??$__crt_interlocked_compare_exchange_pointer@$$CBDPAD$$T@@YAPBDPDSBDQAD$$T@Z 10012040 f i libvcruntimed:std_type_info.obj
 0001:00011060       ??$__crt_interlocked_read_pointer@$$CBD@@YAPBDPDSBD@Z 10012060 f i libvcruntimed:std_type_info.obj
 0001:00011080       ??0?$__crt_unique_heap_ptr@DU__crt_internal_free_policy@@@@QAE@QAD@Z 10012080 f i libvcruntimed:std_type_info.obj
 0001:000110a0       ??0?$__crt_unique_heap_ptr@XU__crt_internal_free_policy@@@@QAE@QAX@Z 100120a0 f i libvcruntimed:std_type_info.obj
 0001:000110c0       ??1?$__crt_unique_heap_ptr@DU__crt_internal_free_policy@@@@QAE@XZ 100120c0 f i libvcruntimed:std_type_info.obj
 0001:000110e0       ??1?$__crt_unique_heap_ptr@XU__crt_internal_free_policy@@@@QAE@XZ 100120e0 f i libvcruntimed:std_type_info.obj
 0001:00011100       ??B?$__crt_unique_heap_ptr@DU__crt_internal_free_policy@@@@QBE_NXZ 10012100 f i libvcruntimed:std_type_info.obj
 0001:00011120       ??B?$__crt_unique_heap_ptr@XU__crt_internal_free_policy@@@@QBE_NXZ 10012120 f i libvcruntimed:std_type_info.obj
 0001:000111b0       ?__crt_interlocked_read_32@@YAHPDH@Z 100121b0 f i libvcruntimed:std_type_info.obj
 0001:000111d0       ?detach@?$__crt_unique_heap_ptr@XU__crt_internal_free_policy@@@@QAEPAXXZ 100121d0 f i libvcruntimed:std_type_info.obj
 0001:00011200       ?get@?$__crt_unique_heap_ptr@DU__crt_internal_free_policy@@@@QBEPADXZ 10012200 f i libvcruntimed:std_type_info.obj
 0001:00011210       ?get@?$__crt_unique_heap_ptr@XU__crt_internal_free_policy@@@@QBEPAXXZ 10012210 f i libvcruntimed:std_type_info.obj
 0001:00011220       ?is_valid@?$__crt_unique_heap_ptr@DU__crt_internal_free_policy@@@@QBE_NXZ 10012220 f i libvcruntimed:std_type_info.obj
 0001:00011250       ?is_valid@?$__crt_unique_heap_ptr@XU__crt_internal_free_policy@@@@QBE_NXZ 10012250 f i libvcruntimed:std_type_info.obj
 0001:00011280       ?release@?$__crt_unique_heap_ptr@DU__crt_internal_free_policy@@@@QAEXXZ 10012280 f i libvcruntimed:std_type_info.obj
 0001:000112b0       ?release@?$__crt_unique_heap_ptr@XU__crt_internal_free_policy@@@@QAEXXZ 100122b0 f i libvcruntimed:std_type_info.obj
 0001:000112e0       ___std_type_info_compare   100122e0 f   libvcruntimed:std_type_info.obj
 0001:00011310       ___std_type_info_destroy_list 10012310 f   libvcruntimed:std_type_info.obj
 0001:00011350       ___std_type_info_hash      10012350 f   libvcruntimed:std_type_info.obj
 0001:000113b0       ___std_type_info_name      100123b0 f   libvcruntimed:std_type_info.obj
 0001:00011590       ___vcrt_GetModuleFileNameW 10012590 f   libvcruntimed:winapi_thunks.obj
 0001:000115b0       ___vcrt_GetModuleHandleW   100125b0 f   libvcruntimed:winapi_thunks.obj
 0001:000115c0       ___vcrt_LoadLibraryExW     100125c0 f   libvcruntimed:winapi_thunks.obj
 0001:000115e0       ??$?RD@__crt_public_free_policy@@QBEXQBD@Z 100125e0 f i libvcruntimed:std_exception.obj
 0001:00011600       ??0?$__crt_unique_heap_ptr@DU__crt_public_free_policy@@@@QAE@QAD@Z 10012600 f i libvcruntimed:std_exception.obj
 0001:00011620       ??1?$__crt_unique_heap_ptr@DU__crt_public_free_policy@@@@QAE@XZ 10012620 f i libvcruntimed:std_exception.obj
 0001:00011640       ??B?$__crt_unique_heap_ptr@DU__crt_public_free_policy@@@@QBE_NXZ 10012640 f i libvcruntimed:std_exception.obj
 0001:00011660       ?detach@?$__crt_unique_heap_ptr@DU__crt_public_free_policy@@@@QAEPADXZ 10012660 f i libvcruntimed:std_exception.obj
 0001:00011690       ?get@?$__crt_unique_heap_ptr@DU__crt_public_free_policy@@@@QBEPADXZ 10012690 f i libvcruntimed:std_exception.obj
 0001:000116a0       ?is_valid@?$__crt_unique_heap_ptr@DU__crt_public_free_policy@@@@QBE_NXZ 100126a0 f i libvcruntimed:std_exception.obj
 0001:000116d0       ?release@?$__crt_unique_heap_ptr@DU__crt_public_free_policy@@@@QAEXXZ 100126d0 f i libvcruntimed:std_exception.obj
 0001:00011700       ___std_exception_copy      10012700 f   libvcruntimed:std_exception.obj
 0001:000117f0       ___std_exception_destroy   100127f0 f   libvcruntimed:std_exception.obj
 0001:00011820       __CxxThrowException@8      10012820 f   libvcruntimed:throw.obj
 0001:000118d0       ??$?RU__vcrt_ptd@@@__crt_internal_free_policy@@QBEXQBU__vcrt_ptd@@@Z 100128d0 f i libvcruntimed:per_thread_data.obj
 0001:000118f0       ??0?$__crt_unique_heap_ptr@U__vcrt_ptd@@U__crt_internal_free_policy@@@@QAE@QAU__vcrt_ptd@@@Z 100128f0 f i libvcruntimed:per_thread_data.obj
 0001:00011930       ??1?$__crt_unique_heap_ptr@U__vcrt_ptd@@U__crt_internal_free_policy@@@@QAE@XZ 10012930 f i libvcruntimed:per_thread_data.obj
 0001:00011970       ??B?$__crt_unique_heap_ptr@U__vcrt_ptd@@U__crt_internal_free_policy@@@@QBE_NXZ 10012970 f i libvcruntimed:per_thread_data.obj
 0001:00011990       ?detach@?$__crt_unique_heap_ptr@U__vcrt_ptd@@U__crt_internal_free_policy@@@@QAEPAU__vcrt_ptd@@XZ 10012990 f i libvcruntimed:per_thread_data.obj
 0001:000119c0       ?get@?$__crt_unique_heap_ptr@U__vcrt_ptd@@U__crt_internal_free_policy@@@@QBEPAU__vcrt_ptd@@XZ 100129c0 f i libvcruntimed:per_thread_data.obj
 0001:000119d0       ?is_valid@?$__crt_unique_heap_ptr@U__vcrt_ptd@@U__crt_internal_free_policy@@@@QBE_NXZ 100129d0 f i libvcruntimed:per_thread_data.obj
 0001:00011a00       ?release@?$__crt_unique_heap_ptr@U__vcrt_ptd@@U__crt_internal_free_policy@@@@QAEXXZ 10012a00 f i libvcruntimed:per_thread_data.obj
 0001:00011a60       ___vcrt_freefls@4          10012a60 f   libvcruntimed:per_thread_data.obj
 0001:00011a90       ___vcrt_freeptd            10012a90 f   libvcruntimed:per_thread_data.obj
 0001:00011af0       ___vcrt_getptd             10012af0 f   libvcruntimed:per_thread_data.obj
 0001:00011b10       ___vcrt_getptd_noexit      10012b10 f   libvcruntimed:per_thread_data.obj
 0001:00011c70       ___vcrt_getptd_noinit      10012c70 f   libvcruntimed:per_thread_data.obj
 0001:00011cd0       ___vcrt_initialize_ptd     10012cd0 f   libvcruntimed:per_thread_data.obj
 0001:00011d20       ___vcrt_uninitialize_ptd   10012d20 f   libvcruntimed:per_thread_data.obj
 0001:00011d50       ___vcrt_initialize_locks   10012d50 f   libvcruntimed:locks.obj
 0001:00011db0       ___vcrt_lock               10012db0 f   libvcruntimed:locks.obj
 0001:00011dd0       ___vcrt_uninitialize_locks 10012dd0 f   libvcruntimed:locks.obj
 0001:00011e20       ___vcrt_unlock             10012e20 f   libvcruntimed:locks.obj
 0001:00011e40       __local_unwind4            10012e40 f   libvcruntimed:exsup4.obj
 0001:00011f14       __seh_longjmp_unwind4@4    10012f14 f   libvcruntimed:exsup4.obj
 0001:00011f3c       @_EH4_CallFilterFunc@8     10012f3c f   libvcruntimed:exsup4.obj
 0001:00011f54       @_EH4_TransferToHandler@8  10012f54 f   libvcruntimed:exsup4.obj
 0001:00011f70       @_EH4_GlobalUnwind2@8      10012f70 f   libvcruntimed:exsup4.obj
 0001:00011f8c       @_EH4_LocalUnwind@16       10012f8c f   libvcruntimed:exsup4.obj
 0001:00011fc0       ___except_validate_context_record 10012fc0 f   libvcruntimed:jbcxrval.obj
 0001:00012010       ___except_validate_jump_buffer 10013010 f   libvcruntimed:jbcxrval.obj
 0001:00012030       ___except_validate_jump_buffer_common 10013030 f i libvcruntimed:jbcxrval.obj
 0001:00012c00       ??$TypeMatchHelper@V__FrameHandler3@@@@YAHPBU_s_HandlerType@@PBU_s_CatchableType@@PBU_s_ThrowInfo@@@Z 10013c00 f i libvcruntimed:frame.obj
 0001:00012ce0       ??$__InternalCxxFrameHandler@V__FrameHandler3@@@@YA?AW4_EXCEPTION_DISPOSITION@@PAUEHExceptionRecord@@PAUEHRegistrationNode@@PAU_CONTEXT@@PAXPBU_s_FuncInfo@@H1E@Z 10013ce0 f i libvcruntimed:frame.obj
 0001:00012ea0       ??0HandlerMap@__FrameHandler3@@QAE@PBU_s_TryBlockMapEntry@@II@Z 10013ea0 f i libvcruntimed:frame.obj
 0001:00012ed0       ??0TryBlockMap@__FrameHandler3@@QAE@PBU_s_FuncInfo@@I@Z 10013ed0 f i libvcruntimed:frame.obj
 0001:00012f00       ??0bad_exception@std@@QAE@ABV01@@Z 10013f00 f i libvcruntimed:frame.obj
 0001:00012f30       ??0bad_exception@std@@QAE@XZ 10013f30 f i libvcruntimed:frame.obj
 0001:00012f60       ??0iterator@HandlerMap@__FrameHandler3@@QAE@AAV12@I@Z 10013f60 f i libvcruntimed:frame.obj
 0001:00012f90       ??1bad_exception@std@@UAE@XZ 10013f90 f i libvcruntimed:frame.obj
 0001:00012fb0       ??8iterator@HandlerMap@__FrameHandler3@@QBE_NABV012@@Z 10013fb0 f i libvcruntimed:frame.obj
 0001:00012fe0       ??8type_info@@QBE_NABV0@@Z 10013fe0 f i libvcruntimed:frame.obj
 0001:00013020       ??9iterator@HandlerMap@__FrameHandler3@@QBE_NABV012@@Z 10014020 f i libvcruntimed:frame.obj
 0001:00013060       ??Diterator@HandlerMap@__FrameHandler3@@QAE?BU_s_HandlerType@@XZ 10014060 f i libvcruntimed:frame.obj
 0001:000130a0       ??Diterator@TryBlockMap@__FrameHandler3@@QAE?BU_s_TryBlockMapEntry@@XZ 100140a0 f i libvcruntimed:frame.obj
 0001:000130f0       ??Eiterator@HandlerMap@__FrameHandler3@@QAEAAV012@XZ 100140f0 f i libvcruntimed:frame.obj
 0001:00013110       ??Eiterator@TryBlockMap@__FrameHandler3@@QAEAAV012@XZ 10014110 f i libvcruntimed:frame.obj
 0001:00013130       ??Miterator@TryBlockMap@__FrameHandler3@@QBE_NABV012@@Z 10014130 f i libvcruntimed:frame.obj
 0001:00013160       ??_Gbad_exception@std@@UAEPAXI@Z 10014160 f i libvcruntimed:frame.obj
 0001:00013160       ??_Ebad_exception@std@@UAEPAXI@Z 10014160 f i libvcruntimed:frame.obj
 0001:00013190       ?BuildCatchObject@__FrameHandler3@@SAXPAUEHExceptionRecord@@PAXPBU_s_HandlerType@@PBU_s_CatchableType@@@Z 10014190 f   libvcruntimed:frame.obj
 0001:000131b0       ?BuildCatchObjectHelper@__FrameHandler3@@SAHPAUEHExceptionRecord@@PAXPBU_s_HandlerType@@PBU_s_CatchableType@@@Z 100141b0 f   libvcruntimed:frame.obj
 0001:00013550       ?FrameUnwindToEmptyState@__FrameHandler3@@SAXPAUEHRegistrationNode@@PAXPBU_s_FuncInfo@@@Z 10014550 f   libvcruntimed:frame.obj
 0001:00013570       ?FrameUnwindToState@__FrameHandler3@@SAXPAUEHRegistrationNode@@PAXPBU_s_FuncInfo@@H@Z 10014570 f   libvcruntimed:frame.obj
 0001:000136f0       ?GetMaxState@__FrameHandler3@@SAHPAXPBU_s_FuncInfo@@@Z 100146f0 f i libvcruntimed:frame.obj
 0001:00013810       ?TypeMatch@__FrameHandler3@@SAHPBU_s_HandlerType@@PBU_s_CatchableType@@PBU_s_ThrowInfo@@@Z 10014810 f   libvcruntimed:frame.obj
 0001:00013830       ?_CallMemberFunction1@@YGXQAX00@Z 10014830 f i libvcruntimed:frame.obj
 0001:00013860       ?_CallMemberFunction2@@YGXQAX00H@Z 10014860 f i libvcruntimed:frame.obj
 0001:00013890       ?begin@HandlerMap@__FrameHandler3@@QAE?AViterator@12@XZ 10014890 f i libvcruntimed:frame.obj
 0001:000138b0       ?end@HandlerMap@__FrameHandler3@@QAE?AViterator@12@XZ 100148b0 f i libvcruntimed:frame.obj
 0001:000138e0       ?getESTypes@__FrameHandler3@@SAPBU_s_ESTypeList@@PBU_s_FuncInfo@@@Z 100148e0 f i libvcruntimed:frame.obj
 0001:000138f0       ?getLastEntry@HandlerMap@__FrameHandler3@@QAEPBU_s_HandlerType@@XZ 100148f0 f i libvcruntimed:frame.obj
 0001:00013910       ?getMagicNum@__FrameHandler3@@SAIPBU_s_FuncInfo@@@Z 10014910 f i libvcruntimed:frame.obj
 0001:00013920       ?getNumTryBlocks@TryBlockMap@__FrameHandler3@@QAEIXZ 10014920 f i libvcruntimed:frame.obj
 0001:00013940       ?isEHs@__FrameHandler3@@SA_NPBU_s_FuncInfo@@@Z 10014940 f i libvcruntimed:frame.obj
 0001:00013970       ?isNoExcept@__FrameHandler3@@SA_NPBU_s_FuncInfo@@@Z 10014970 f i libvcruntimed:frame.obj
 0001:000139a0       ___BuildCatchObject        100149a0 f   libvcruntimed:frame.obj
 0001:000139c0       ___BuildCatchObjectHelper  100149c0 f   libvcruntimed:frame.obj
 0001:000139e0       ___TypeMatch               100149e0 f   libvcruntimed:frame.obj
 0001:00013a00       ___vcrt_EncodePointer      10014a00 f i libvcruntimed:frame.obj
 0001:00013a10       __CallSettingFrame@12      10014a10 f   libvcruntimed:lowhelpr.obj
 0001:00013a37       __NLG_Return               10014a37     libvcruntimed:lowhelpr.obj
 0001:00013a60       ??$?0$00@DName@@QAE@PBDU?$StringLifeSelector@$00@@@Z 10014a60 f i libvcruntimed:undname.obj
 0001:00013ab0       ??$?0$00@pcharNode@@QAE@PBDHU?$StringLifeSelector@$00@@@Z 10014ab0 f i libvcruntimed:undname.obj
 0001:00013af0       ??$?0$01@DName@@QAE@PBDU?$StringLifeSelector@$01@@@Z 10014af0 f i libvcruntimed:undname.obj
 0001:00013b40       ??$?0$01@pcharNode@@QAE@PBDHU?$StringLifeSelector@$01@@@Z 10014b40 f i libvcruntimed:undname.obj
 0001:00013bc0       ??$?0$0A@@DName@@QAE@PBDU?$StringLifeSelector@$0A@@@@Z 10014bc0 f i libvcruntimed:undname.obj
 0001:00013c10       ??$?0$0A@@pcharNode@@QAE@PBDHU?$StringLifeSelector@$0A@@@@Z 10014c10 f i libvcruntimed:undname.obj
 0001:00013c90       ??$?0_K$0A@@?$optional@_K@std@@QAE@$$QA_K@Z 10014c90 f i libvcruntimed:undname.obj
 0001:00013cd0       ??$?0_K@?$_Optional_construct_base@_K@std@@QAE@Uin_place_t@1@$$QA_K@Z 10014cd0 f i libvcruntimed:undname.obj
 0001:00013d00       ??$?0_K@?$_Optional_destruct_base@_K$00@std@@QAE@Uin_place_t@1@$$QA_K@Z 10014d00 f i libvcruntimed:undname.obj
 0001:00013d30       ??$append@VDNameNode@@@DName@@AAEXPBVDNameNode@@@Z 10014d30 f i libvcruntimed:undname.obj
 0001:00013dc0       ??$append@VDNameStatusNode@@@DName@@AAEXPBVDNameStatusNode@@@Z 10014dc0 f i libvcruntimed:undname.obj
 0001:00013e50       ??$append@VcharNode@@@DName@@AAEXPBVcharNode@@@Z 10014e50 f i libvcruntimed:undname.obj
 0001:00013ee0       ??$append@VpDNameNode@@@DName@@AAEXPBVpDNameNode@@@Z 10014ee0 f i libvcruntimed:undname.obj
 0001:00013f70       ??$append@VpcharNode@@@DName@@AAEXPBVpcharNode@@@Z 10014f70 f i libvcruntimed:undname.obj
 0001:00014000       ??$doPchar@$00@DName@@AAEXPBDH@Z 10015000 f i libvcruntimed:undname.obj
 0001:00014110       ??$doPchar@$01@DName@@AAEXPBDH@Z 10015110 f i libvcruntimed:undname.obj
 0001:00014220       ??$doPchar@$0A@@DName@@AAEXPBDH@Z 10015220 f i libvcruntimed:undname.obj
 0001:00014330       ??$forward@_K@std@@YA$$QA_KAA_K@Z 10015330 f i libvcruntimed:undname.obj
 0001:00014340       ??$size@D$04@std@@YAIAAY04$$CBD@Z 10015340 f i libvcruntimed:undname.obj
 0001:00014350       ??$size@D$0EB@@std@@YAIAAY0EB@$$CBD@Z 10015350 f i libvcruntimed:undname.obj
 0001:00014360       ??0?$_Optional_construct_base@_K@std@@QAE@XZ 10015360 f i libvcruntimed:undname.obj
 0001:00014380       ??0?$_Optional_destruct_base@_K$00@std@@QAE@XZ 10015380 f i libvcruntimed:undname.obj
 0001:000143a0       ??0?$optional@_K@std@@QAE@XZ 100153a0 f i libvcruntimed:undname.obj
 0001:000143c0       ??0Block@_HeapManager@@QAE@XZ 100153c0 f i libvcruntimed:undname.obj
 0001:000143e0       ??0DName@@QAE@AAPBDD@Z     100153e0 f   libvcruntimed:undname.obj
 0001:00014550       ??0DName@@QAE@ABUStringLiteral@@@Z 10015550 f   libvcruntimed:undname.obj
 0001:000145a0       ??0DName@@QAE@ABV0@@Z      100155a0 f i libvcruntimed:undname.obj
 0001:000145d0       ??0DName@@QAE@D@Z          100155d0 f   libvcruntimed:undname.obj
 0001:00014600       ??0DName@@QAE@PAV0@@Z      10015600 f   libvcruntimed:undname.obj
 0001:000146b0       ??0DName@@QAE@W4DNameStatus@@@Z 100156b0 f   libvcruntimed:undname.obj
 0001:00014750       ??0DName@@QAE@XZ           10015750 f i libvcruntimed:undname.obj
 0001:00014780       ??0DName@@QAE@_J@Z         10015780 f   libvcruntimed:undname.obj
 0001:00014870       ??0DName@@QAE@_K@Z         10015870 f   libvcruntimed:undname.obj
 0001:00014920       ??0DNameNode@@IAE@XZ       10015920 f i libvcruntimed:undname.obj
 0001:00014940       ??0Replicator@@QAE@XZ      10015940 f i libvcruntimed:undname.obj
 0001:00014980       ??0UnDecorator@@QAE@PBDP6APADJ@ZK@Z 10015980 f i libvcruntimed:undname.obj
 0001:00014a00       ??0_Nontrivial_dummy_type@std@@QAE@XZ 10015a00 f i libvcruntimed:undname.obj
 0001:00014a10       ??0charNode@@QAE@D@Z       10015a10 f i libvcruntimed:undname.obj
 0001:00014a40       ??0pDNameNode@@QAE@PAVDName@@@Z 10015a40 f   libvcruntimed:undname.obj
 0001:00014aa0       ??0pairNode@@QAE@PBVDNameNode@@0@Z 10015aa0 f i libvcruntimed:undname.obj
 0001:00014b00       ??2@YAPAXIAAV_HeapManager@@H@Z 10015b00 f   libvcruntimed:undname.obj
 0001:00014b40       ??4DName@@QAEAAV0@ABUStringLiteral@@@Z 10015b40 f   libvcruntimed:undname.obj
 0001:00014b80       ??4DName@@QAEAAV0@ABV0@@Z  10015b80 f   libvcruntimed:undname.obj
 0001:00014bb0       ??4DName@@QAEAAV0@D@Z      10015bb0 f i libvcruntimed:undname.obj
 0001:00014be0       ??4DName@@QAEAAV0@PAV0@@Z  10015be0 f   libvcruntimed:undname.obj
 0001:00014c80       ??4DName@@QAEAAV0@W4DNameStatus@@@Z 10015c80 f   libvcruntimed:undname.obj
 0001:00014d00       ??AReplicator@@QBE?AVDName@@H@Z 10015d00 f   libvcruntimed:undname.obj
 0001:00014d70       ??B?$optional@_K@std@@QBE_NXZ 10015d70 f i libvcruntimed:undname.obj
 0001:00014d90       ??D?$optional@_K@std@@QGAEAA_KXZ 10015d90 f i libvcruntimed:undname.obj
 0001:00014da0       ??H@YA?AVDName@@ABUStringLiteral@@ABV0@@Z 10015da0 f i libvcruntimed:undname.obj
 0001:00014dd0       ??H@YA?AVDName@@DABV0@@Z   10015dd0 f i libvcruntimed:undname.obj
 0001:00014e00       ??H@YA?AVDName@@W4DNameStatus@@ABV0@@Z 10015e00 f i libvcruntimed:undname.obj
 0001:00014e30       ??HDName@@QBE?AV0@ABUStringLiteral@@@Z 10015e30 f   libvcruntimed:undname.obj
 0001:00014e70       ??HDName@@QBE?AV0@ABV0@@Z  10015e70 f   libvcruntimed:undname.obj
 0001:00014eb0       ??HDName@@QBE?AV0@D@Z      10015eb0 f   libvcruntimed:undname.obj
 0001:00014ef0       ??HDName@@QBE?AV0@PAV0@@Z  10015ef0 f   libvcruntimed:undname.obj
 0001:00014f30       ??HDName@@QBE?AV0@W4DNameStatus@@@Z 10015f30 f   libvcruntimed:undname.obj
 0001:00014f70       ??HStringLiteral@@QBE?AU0@H@Z 10015f70 f i libvcruntimed:undname.obj
 0001:00014fa0       ??YDName@@QAEAAV0@ABUStringLiteral@@@Z 10015fa0 f   libvcruntimed:undname.obj
 0001:00015040       ??YDName@@QAEAAV0@ABV0@@Z  10016040 f   libvcruntimed:undname.obj
 0001:000150e0       ??YDName@@QAEAAV0@D@Z      100160e0 f   libvcruntimed:undname.obj
 0001:00015160       ??YDName@@QAEAAV0@PAV0@@Z  10016160 f   libvcruntimed:undname.obj
 0001:00015210       ??YDName@@QAEAAV0@W4DNameStatus@@@Z 10016210 f   libvcruntimed:undname.obj
 0001:00015270       ??YReplicator@@QAEAAV0@ABVDName@@@Z 10016270 f   libvcruntimed:undname.obj
 0001:00015300       ??_5DName@@QAEAAV0@ABV0@@Z 10016300 f   libvcruntimed:undname.obj
 0001:00015360       ??__K_l@@YA?AUStringLiteral@@PBDI@Z 10016360 f i libvcruntimed:undname.obj
 0001:00015380       ?Constructor@_HeapManager@@QAEXP6APAXI@ZP6AXPAX@Z@Z 10016380 f i libvcruntimed:undname.obj
 0001:000153c0       ?Destructor@_HeapManager@@QAEXXZ 100163c0 f i libvcruntimed:undname.obj
 0001:00015430       ?UScore@UnDecorator@@SA?AUStringLiteral@@W4Tokens@@@Z 10016430 f   libvcruntimed:undname.obj
 0001:00015480       ?composeDeclaration@UnDecorator@@CA?AVDName@@ABV2@@Z 10016480 f i libvcruntimed:undname.obj
 0001:000173f0       ?dbGetString@DName@@QBEPADXZ 100183f0 f   libvcruntimed:undname.obj
 0001:00017410       ?doAccessSpecifiers@UnDecorator@@SAHXZ 10018410 f i libvcruntimed:undname.obj
 0001:00017440       ?doAllocationLanguage@UnDecorator@@SAHXZ 10018440 f i libvcruntimed:undname.obj
 0001:00017470       ?doAllocationModel@UnDecorator@@SAHXZ 10018470 f i libvcruntimed:undname.obj
 0001:000174a0       ?doEcsu@UnDecorator@@SAHXZ 100184a0 f i libvcruntimed:undname.obj
 0001:000174d0       ?doEllipsis@UnDecorator@@SAHXZ 100184d0 f i libvcruntimed:undname.obj
 0001:00017500       ?doFunctionReturns@UnDecorator@@SAHXZ 10018500 f i libvcruntimed:undname.obj
 0001:00017530       ?doMSKeywords@UnDecorator@@SAHXZ 10018530 f i libvcruntimed:undname.obj
 0001:00017560       ?doMemberTypes@UnDecorator@@SAHXZ 10018560 f i libvcruntimed:undname.obj
 0001:00017590       ?doNameOnly@UnDecorator@@SAHXZ 10018590 f i libvcruntimed:undname.obj
 0001:000175a0       ?doNoIdentCharCheck@UnDecorator@@SAHXZ 100185a0 f i libvcruntimed:undname.obj
 0001:000175b0       ?doPchar@DName@@AAEXD@Z    100185b0 f   libvcruntimed:undname.obj
 0001:00017620       ?doPtr64@UnDecorator@@SAHXZ 10018620 f i libvcruntimed:undname.obj
 0001:00017650       ?doRestrictionSpec@UnDecorator@@SAHXZ 10018650 f i libvcruntimed:undname.obj
 0001:00017680       ?doThisTypes@UnDecorator@@SAHXZ 10018680 f i libvcruntimed:undname.obj
 0001:000176b0       ?doThrowTypes@UnDecorator@@SAHXZ 100186b0 f i libvcruntimed:undname.obj
 0001:000176e0       ?doTypeOnly@UnDecorator@@SAHXZ 100186e0 f i libvcruntimed:undname.obj
 0001:000176f0       ?doUnderScore@UnDecorator@@SAHXZ 100186f0 f i libvcruntimed:undname.obj
 0001:00017720       ?getArgumentList@UnDecorator@@CA?AVDName@@XZ 10018720 f   libvcruntimed:undname.obj
 0001:00017870       ?getArgumentTypes@UnDecorator@@CA?AVDName@@XZ 10018870 f   libvcruntimed:undname.obj
 0001:00017a80       ?getArrayObject@UnDecorator@@CA?AVDName@@XZ 10018a80 f   libvcruntimed:undname.obj
 0001:00017b60       ?getArrayType@UnDecorator@@CA?AVDName@@ABV2@@Z 10018b60 f i libvcruntimed:undname.obj
 0001:00017e00       ?getBasedType@UnDecorator@@CA?AVDName@@XZ 10018e00 f   libvcruntimed:undname.obj
 0001:00017ef0       ?getBasicDataType@UnDecorator@@CA?AVDName@@ABV2@@Z 10018ef0 f   libvcruntimed:undname.obj
 0001:00018800       ?getCHPEName@UnDecorator@@QAEPADPADH@Z 10019800 f i libvcruntimed:undname.obj
 0001:00018960       ?getCallIndex@UnDecorator@@CA?AVDName@@XZ 10019960 f i libvcruntimed:undname.obj
 0001:00018980       ?getCallingConvention@UnDecorator@@CA?AVDName@@XZ 10019980 f   libvcruntimed:undname.obj
 0001:00018bc0       ?getDataIndirectType@UnDecorator@@CA?AVDName@@ABV2@W4IndirectionKind@@0H@Z 10019bc0 f   libvcruntimed:undname.obj
 0001:000194e0       ?getDataIndirectType@UnDecorator@@CA?AVDName@@XZ 1001a4e0 f i libvcruntimed:undname.obj
 0001:00019520       ?getDataType@UnDecorator@@CA?AVDName@@PAV2@@Z 1001a520 f   libvcruntimed:undname.obj
 0001:00019660       ?getDecoratedName@UnDecorator@@CA?AVDName@@XZ 1001a660 f   libvcruntimed:undname.obj
 0001:00019aa0       ?getDimension@UnDecorator@@CA?AVDName@@_N@Z 1001aaa0 f   libvcruntimed:undname.obj
 0001:00019d00       ?getDispatchTarget@UnDecorator@@CA?AVDName@@XZ 1001ad00 f   libvcruntimed:undname.obj
 0001:00019da0       ?getDisplacement@UnDecorator@@CA?AVDName@@XZ 1001ada0 f i libvcruntimed:undname.obj
 0001:00019dc0       ?getECSUDataType@UnDecorator@@CA?AVDName@@XZ 1001adc0 f   libvcruntimed:undname.obj
 0001:0001a020       ?getECSUName@UnDecorator@@CA?AVDName@@XZ 1001b020 f i libvcruntimed:undname.obj
 0001:0001a040       ?getEnumType@UnDecorator@@CA?AVDName@@XZ 1001b040 f i libvcruntimed:undname.obj
 0001:0001a1f0       ?getExtendedDataIndirectType@UnDecorator@@CA?AVDName@@AAW4IndirectionKind@@AA_NH@Z 1001b1f0 f   libvcruntimed:undname.obj
 0001:0001a440       ?getExternalDataType@UnDecorator@@CA?AVDName@@ABV2@@Z 1001b440 f i libvcruntimed:undname.obj
 0001:0001a4e0       ?getFloatingPoint@UnDecorator@@CA?AVDName@@H@Z 1001b4e0 f   libvcruntimed:undname.obj
 0001:0001a690       ?getFunctionIndirectType@UnDecorator@@CA?AVDName@@ABV2@@Z 1001b690 f   libvcruntimed:undname.obj
 0001:0001ab70       ?getGuardNumber@UnDecorator@@CA?AVDName@@XZ 1001bb70 f i libvcruntimed:undname.obj
 0001:0001ab90       ?getLastChar@DName@@QBEDXZ 1001bb90 f i libvcruntimed:undname.obj
 0001:0001abd0       ?getLastChar@DNameStatusNode@@UBEDXZ 1001bbd0 f i libvcruntimed:undname.obj
 0001:0001ac00       ?getLastChar@charNode@@UBEDXZ 1001bc00 f i libvcruntimed:undname.obj
 0001:0001ac20       ?getLastChar@pDNameNode@@UBEDXZ 1001bc20 f i libvcruntimed:undname.obj
 0001:0001ac50       ?getLastChar@pairNode@@UBEDXZ 1001bc50 f i libvcruntimed:undname.obj
 0001:0001acc0       ?getLastChar@pcharNode@@UBEDXZ 1001bcc0 f i libvcruntimed:undname.obj
 0001:0001ad00       ?getLexicalFrame@UnDecorator@@CA?AVDName@@XZ 1001bd00 f i libvcruntimed:undname.obj
 0001:0001ad40       ?getMemoryWithBuffer@_HeapManager@@QAEPAXI@Z 1001bd40 f   libvcruntimed:undname.obj
 0001:0001ae30       ?getMemoryWithoutBuffer@_HeapManager@@QAEPAXI@Z 1001be30 f   libvcruntimed:undname.obj
 0001:0001ae70       ?getNoexcept@UnDecorator@@CA?AVDName@@XZ 1001be70 f   libvcruntimed:undname.obj
 0001:0001aef0       ?getNumberOfDimensions@UnDecorator@@CAHXZ 1001bef0 f   libvcruntimed:undname.obj
 0001:0001aff0       ?getOperatorName@UnDecorator@@CA?AVDName@@_NPA_N@Z 1001bff0 f i libvcruntimed:undname.obj
 0001:0001bae0       ?getPointerType@UnDecorator@@CA?AVDName@@ABV2@0@Z 1001cae0 f i libvcruntimed:undname.obj
 0001:0001bb00       ?getPointerTypeArray@UnDecorator@@CA?AVDName@@ABV2@0@Z 1001cb00 f i libvcruntimed:undname.obj
 0001:0001bb20       ?getPrimaryDataType@UnDecorator@@CA?AVDName@@ABV2@@Z 1001cb20 f   libvcruntimed:undname.obj
 0001:0001bfb0       ?getPtrRefDataType@UnDecorator@@CA?AVDName@@ABV2@H@Z 1001cfb0 f   libvcruntimed:undname.obj
 0001:0001c260       ?getPtrRefType@UnDecorator@@CA?AVDName@@ABV2@0W4IndirectionKind@@@Z 1001d260 f   libvcruntimed:undname.obj
 0001:0001c3e0       ?getReferenceType@UnDecorator@@CA?AVDName@@ABV2@0W4IndirectionKind@@@Z 1001d3e0 f i libvcruntimed:undname.obj
 0001:0001c400       ?getRestrictionSpec@UnDecorator@@CA?AVDName@@XZ 1001d400 f   libvcruntimed:undname.obj
 0001:0001c5c0       ?getReturnType@UnDecorator@@CA?AVDName@@PAV2@@Z 1001d5c0 f   libvcruntimed:undname.obj
 0001:0001c610       ?getScope@UnDecorator@@CA?AVDName@@XZ 1001d610 f   libvcruntimed:undname.obj
 0001:0001cba0       ?getScopedName@UnDecorator@@CA?AVDName@@XZ 1001dba0 f   libvcruntimed:undname.obj
 0001:0001ccf0       ?getSignedDimension@UnDecorator@@CA?AVDName@@XZ 1001dcf0 f   libvcruntimed:undname.obj
 0001:0001cd70       ?getStorageConvention@UnDecorator@@CA?AVDName@@XZ 1001dd70 f i libvcruntimed:undname.obj
 0001:0001cd90       ?getString@DName@@QBEPADPAD0@Z 1001dd90 f i libvcruntimed:undname.obj
 0001:0001cdf0       ?getString@DName@@QBEPADPADH@Z 1001ddf0 f i libvcruntimed:undname.obj
 0001:0001ce80       ?getString@DNameStatusNode@@UBEPADPAD0@Z 1001de80 f i libvcruntimed:undname.obj
 0001:0001cec0       ?getString@charNode@@UBEPADPAD0@Z 1001dec0 f i libvcruntimed:undname.obj
 0001:0001cef0       ?getString@pDNameNode@@UBEPADPAD0@Z 1001def0 f i libvcruntimed:undname.obj
 0001:0001cf30       ?getString@pairNode@@UBEPADPAD0@Z 1001df30 f i libvcruntimed:undname.obj
 0001:0001cfc0       ?getString@pcharNode@@UBEPADPAD0@Z 1001dfc0 f i libvcruntimed:undname.obj
 0001:0001cff0       ?getStringEncoding@UnDecorator@@CA?AVDName@@W4PrefixKind@@H@Z 1001dff0 f   libvcruntimed:undname.obj
 0001:0001d100       ?getStringHelper@@YAPADPADPBD1H@Z 1001e100 f i libvcruntimed:undname.obj
 0001:0001d140       ?getStringObject@UnDecorator@@CA?AVDName@@XZ 1001e140 f   libvcruntimed:undname.obj
 0001:0001d1f0       ?getSymbolName@UnDecorator@@CA?AVDName@@XZ 1001e1f0 f i libvcruntimed:undname.obj
 0001:0001d280       ?getTemplateArgumentList@UnDecorator@@CA?AVDName@@XZ 1001e280 f   libvcruntimed:undname.obj
 0001:0001d570       ?getTemplateName@UnDecorator@@CA?AVDName@@_N@Z 1001e570 f   libvcruntimed:undname.obj
 0001:0001d730       ?getTemplateNonTypeArgument@UnDecorator@@CA?AVDName@@XZ 1001e730 f   libvcruntimed:undname.obj
 0001:0001dc70       ?getTemplateTypeArgument@UnDecorator@@CA?AVDName@@XZ 1001ec70 f   libvcruntimed:undname.obj
 0001:0001de10       ?getThisType@UnDecorator@@CA?AVDName@@XZ 1001ee10 f i libvcruntimed:undname.obj
 0001:0001de50       ?getThrowTypes@UnDecorator@@CA?AVDName@@XZ 1001ee50 f   libvcruntimed:undname.obj
 0001:0001de90       ?getTypeEncoding@UnDecorator@@CAHXZ 1001ee90 f i libvcruntimed:undname.obj
 0001:0001e950       ?getUndecoratedName@UnDecorator@@QAEPADPADH@Z 1001f950 f i libvcruntimed:undname.obj
 0001:0001eab0       ?getVCallThunkType@UnDecorator@@CA?AVDName@@XZ 1001fab0 f i libvcruntimed:undname.obj
 0001:0001eb30       ?getValue@UnDecorator@@CA?AV?$optional@_K@std@@XZ 1001fb30 f   libvcruntimed:undname.obj
 0001:0001ebf0       ?getValueObject@UnDecorator@@CA?AVDName@@XZ 1001fbf0 f   libvcruntimed:undname.obj
 0001:0001edb0       ?getVbTableType@UnDecorator@@CA?AVDName@@ABV2@@Z 1001fdb0 f i libvcruntimed:undname.obj
 0001:0001edd0       ?getVdispMapType@UnDecorator@@CA?AVDName@@ABV2@@Z 1001fdd0 f i libvcruntimed:undname.obj
 0001:0001ee60       ?getVfTableType@UnDecorator@@CA?AVDName@@ABV2@@Z 1001fe60 f i libvcruntimed:undname.obj
 0001:0001f060       ?getZName@UnDecorator@@CA?AVDName@@_N0@Z 10020060 f   libvcruntimed:undname.obj
 0001:0001f3a0       ?haveTemplateParameters@UnDecorator@@SAHXZ 100203a0 f i libvcruntimed:undname.obj
 0001:0001f3b0       ?isArray@DName@@QBEHXZ     100203b0 f i libvcruntimed:undname.obj
 0001:0001f3d0       ?isComArray@DName@@QBEHXZ  100203d0 f i libvcruntimed:undname.obj
 0001:0001f3f0       ?isEmpty@DName@@QBEHXZ     100203f0 f i libvcruntimed:undname.obj
 0001:0001f420       ?isFull@Replicator@@QBEHXZ 10020420 f i libvcruntimed:undname.obj
 0001:0001f450       ?isNoTE@DName@@QBEHXZ      10020450 f i libvcruntimed:undname.obj
 0001:0001f470       ?isPinPtr@DName@@QBEHXZ    10020470 f i libvcruntimed:undname.obj
 0001:0001f490       ?isPtrRef@DName@@QBEHXZ    10020490 f i libvcruntimed:undname.obj
 0001:0001f4b0       ?isUDC@DName@@QBEHXZ       100204b0 f i libvcruntimed:undname.obj
 0001:0001f4f0       ?isUDTThunk@DName@@QBEHXZ  100204f0 f i libvcruntimed:undname.obj
 0001:0001f530       ?isVCallThunk@DName@@QBEHXZ 10020530 f i libvcruntimed:undname.obj
 0001:0001f550       ?isValid@DName@@QBEHXZ     10020550 f i libvcruntimed:undname.obj
 0001:0001f590       ?length@DName@@QBEHXZ      10020590 f i libvcruntimed:undname.obj
 0001:0001f5d0       ?length@DNameStatusNode@@UBEHXZ 100205d0 f i libvcruntimed:undname.obj
 0001:0001f5f0       ?length@charNode@@UBEHXZ   100205f0 f i libvcruntimed:undname.obj
 0001:0001f600       ?length@pDNameNode@@UBEHXZ 10020600 f i libvcruntimed:undname.obj
 0001:0001f630       ?length@pairNode@@UBEHXZ   10020630 f i libvcruntimed:undname.obj
 0001:0001f6a0       ?length@pcharNode@@UBEHXZ  100206a0 f i libvcruntimed:undname.obj
 0001:0001f6c0       ?make@DNameStatusNode@@SAPBV1@W4DNameStatus@@@Z 100206c0 f i libvcruntimed:undname.obj
 0001:0001f6f0       ?parseDecoratedName@UnDecorator@@CA?AVDName@@XZ 100206f0 f   libvcruntimed:undname.obj
 0001:0001f880       ?raw_length@DNameStatusNode@@UBEHXZ 10020880 f i libvcruntimed:undname.obj
 0001:0001f8a0       ?raw_length@charNode@@UBEHXZ 100208a0 f i libvcruntimed:undname.obj
 0001:0001f8c0       ?raw_length@pDNameNode@@UBEHXZ 100208c0 f i libvcruntimed:undname.obj
 0001:0001f8d0       ?raw_length@pairNode@@UBEHXZ 100208d0 f i libvcruntimed:undname.obj
 0001:0001f8f0       ?raw_length@pcharNode@@UBEHXZ 100208f0 f i libvcruntimed:undname.obj
 0001:0001f910       ?setIsArray@DName@@QAEXXZ  10020910 f i libvcruntimed:undname.obj
 0001:0001f930       ?setIsComArray@DName@@QAEXXZ 10020930 f i libvcruntimed:undname.obj
 0001:0001f950       ?setIsNoTE@DName@@QAEXXZ   10020950 f i libvcruntimed:undname.obj
 0001:0001f970       ?setIsPinPtr@DName@@QAEXXZ 10020970 f i libvcruntimed:undname.obj
 0001:0001f990       ?setIsUDC@DName@@QAEXXZ    10020990 f i libvcruntimed:undname.obj
 0001:0001f9c0       ?setIsVCallThunk@DName@@QAEXXZ 100209c0 f i libvcruntimed:undname.obj
 0001:0001f9e0       ?setPtrRef@DName@@QAEAAV1@XZ 100209e0 f i libvcruntimed:undname.obj
 0001:0001fa00       ?status@DName@@QBE?AW4DNameStatus@@XZ 10020a00 f i libvcruntimed:undname.obj
 0001:0001fb00       ___unDName                 10020b00 f   libvcruntimed:undname.obj
 0001:0001fb30       ___unDNameEx               10020b30 f   libvcruntimed:undname.obj
 0001:0001fc00       _unDNameGenerateCHPE       10020c00 f   libvcruntimed:undname.obj
 0001:0001fc60       ??$__crt_interlocked_exchange_pointer@UHINSTANCE__@@PAU1@@@YAPAUHINSTANCE__@@PDSAU0@QAU0@@Z 10020c60 f i libvcruntimed:winapi_downlevel.obj
 0001:0001fc70       ??$__crt_interlocked_exchange_pointer@UHINSTANCE__@@PAX@@YAPAUHINSTANCE__@@PDSAU0@QAX@Z 10020c70 f i libvcruntimed:winapi_downlevel.obj
 0001:0001fc80       ??$__crt_interlocked_exchange_pointer@XPAX@@YAPAXPDSAXQAX@Z 10020c80 f i libvcruntimed:winapi_downlevel.obj
 0001:0001fc90       ??$__crt_interlocked_read_pointer@UHINSTANCE__@@@@YAPAUHINSTANCE__@@PDSAU0@@Z 10020c90 f i libvcruntimed:winapi_downlevel.obj
 0001:0001fcb0       ??$__crt_interlocked_read_pointer@X@@YAPAXPDSAX@Z 10020cb0 f i libvcruntimed:winapi_downlevel.obj
 0001:00020080       ___vcrt_FlsAlloc           10021080 f   libvcruntimed:winapi_downlevel.obj
 0001:000200c0       ___vcrt_FlsFree            100210c0 f   libvcruntimed:winapi_downlevel.obj
 0001:00020100       ___vcrt_FlsGetValue        10021100 f   libvcruntimed:winapi_downlevel.obj
 0001:00020140       ___vcrt_FlsSetValue        10021140 f   libvcruntimed:winapi_downlevel.obj
 0001:00020190       ___vcrt_InitializeCriticalSectionEx 10021190 f   libvcruntimed:winapi_downlevel.obj
 0001:000201e0       __global_unwind2           100211e0 f   libvcruntimed:exsup.obj
 0001:00020246       __local_unwind2            10021246 f   libvcruntimed:exsup.obj
 0001:000202ca       __abnormal_termination     100212ca f   libvcruntimed:exsup.obj
 0001:000202f0       __NLG_Notify1              100212f0 f   libvcruntimed:exsup.obj
 0001:000202fc       __NLG_Notify               100212fc f   libvcruntimed:exsup.obj
 0001:00020313       __NLG_Dispatch2            10021313     libvcruntimed:exsup.obj
 0001:00020313       __NLG_Dispatch             10021313     libvcruntimed:exsup.obj
 0001:0002031b       __NLG_Call                 1002131b f   libvcruntimed:exsup.obj
 0001:0002031d       __NLG_Return2              1002131d     libvcruntimed:exsup.obj
 0001:00020350       __get_unexpected           10021350 f   libvcruntimed:unexpected.obj
 0001:00020370       _set_unexpected            10021370 f   libvcruntimed:unexpected.obj
 0001:000203a0       _unexpected                100213a0 f   libvcruntimed:unexpected.obj
 0001:000203e0       ?GetCurrentState@__FrameHandler3@@SAHPAUEHRegistrationNode@@PAXPBU_s_FuncInfo@@@Z 100213e0 f   libvcruntimed:ehstate.obj
 0001:00020410       ?SetState@__FrameHandler3@@SAXPAUEHRegistrationNode@@PBU_s_FuncInfo@@H@Z 10021410 f   libvcruntimed:ehstate.obj
 0001:00020420       ??$__crt_interlocked_exchange_pointer@$$A6AXXZP6AXXZ@@YAP6AXXZPDS6AXXZQ6AXXZ@Z 10021420 f i libvcruntimed:purevirt.obj
 0001:00020430       ??$__crt_interlocked_read_pointer@$$A6AXXZ@@YAP6AXXZPDS6AXXZ@Z 10021430 f i libvcruntimed:purevirt.obj
 0001:00020450       __get_purecall_handler     10021450 f   libvcruntimed:purevirt.obj
 0001:00020470       __purecall                 10021470 f   libvcruntimed:purevirt.obj
 0001:000204a0       __set_purecall_handler     100214a0 f   libvcruntimed:purevirt.obj
 0001:000204c0       _free                      100214c0 f   libucrtd:free.obj
 0001:000204f0       _malloc                    100214f0 f   libucrtd:malloc.obj
 0001:00020510       ??$?RU?$__crt_report_hook_node@D@@@__crt_internal_free_policy@@QBEXQBU?$__crt_report_hook_node@D@@@Z 10021510 f i libucrtd:dbgrpt.obj
 0001:00020530       ??$?RU?$__crt_report_hook_node@_W@@@__crt_internal_free_policy@@QBEXQBU?$__crt_report_hook_node@_W@@@Z 10021530 f i libucrtd:dbgrpt.obj
 0001:00021320       ??$get_module_file_name@AAPAUHINSTANCE__@@AAY0BAF@DK@?$__crt_char_traits@D@@SAKAAPAUHINSTANCE__@@AAY0BAF@D$$QAK@Z 10022320 f i libucrtd:dbgrpt.obj
 0001:00021340       ??$get_module_file_name@AAPAUHINSTANCE__@@AAY0BAF@_WK@?$__crt_char_traits@_W@@SAKAAPAUHINSTANCE__@@AAY0BAF@_W$$QAK@Z 10022340 f i libucrtd:dbgrpt.obj
 0001:00021360       ??$tcscpy_s@AAY0BAF@DIPBD@?$__crt_char_traits@D@@SAHAAY0BAF@D$$QAI$$QAPBD@Z 10022360 f i libucrtd:dbgrpt.obj
 0001:00021380       ??$tcscpy_s@AAY0BAF@_WIPB_W@?$__crt_char_traits@_W@@SAHAAY0BAF@_W$$QAI$$QAPB_W@Z 10022380 f i libucrtd:dbgrpt.obj
 0001:000213a0       ??$tcslen@AAY0BAF@D@?$__crt_char_traits@D@@SAIAAY0BAF@D@Z 100223a0 f i libucrtd:dbgrpt.obj
 0001:000213c0       ??$tcslen@AAY0BAF@_W@?$__crt_char_traits@_W@@SAIAAY0BAF@_W@Z 100223c0 f i libucrtd:dbgrpt.obj
 0001:000213e0       ??$tcslen@ABQBD@?$__crt_char_traits@D@@SAIABQBD@Z 100223e0 f i libucrtd:dbgrpt.obj
 0001:00021400       ??$tcslen@ABQB_W@?$__crt_char_traits@_W@@SAIABQB_W@Z 10022400 f i libucrtd:dbgrpt.obj
 0001:00021500       ??0?$__crt_unique_heap_ptr@U?$__crt_report_hook_node@D@@U__crt_internal_free_policy@@@@QAE@QAU?$__crt_report_hook_node@D@@@Z 10022500 f i libucrtd:dbgrpt.obj
 0001:00021520       ??0?$__crt_unique_heap_ptr@U?$__crt_report_hook_node@_W@@U__crt_internal_free_policy@@@@QAE@QAU?$__crt_report_hook_node@_W@@@Z 10022520 f i libucrtd:dbgrpt.obj
 0001:00021540       ??1?$__crt_unique_heap_ptr@U?$__crt_report_hook_node@D@@U__crt_internal_free_policy@@@@QAE@XZ 10022540 f i libucrtd:dbgrpt.obj
 0001:00021560       ??1?$__crt_unique_heap_ptr@U?$__crt_report_hook_node@_W@@U__crt_internal_free_policy@@@@QAE@XZ 10022560 f i libucrtd:dbgrpt.obj
 0001:00021580       ??B?$__crt_unique_heap_ptr@U?$__crt_report_hook_node@D@@U__crt_internal_free_policy@@@@QBE_NXZ 10022580 f i libucrtd:dbgrpt.obj
 0001:000215a0       ??B?$__crt_unique_heap_ptr@U?$__crt_report_hook_node@_W@@U__crt_internal_free_policy@@@@QBE_NXZ 100225a0 f i libucrtd:dbgrpt.obj
 0001:00021ae0       ?detach@?$__crt_unique_heap_ptr@U?$__crt_report_hook_node@D@@U__crt_internal_free_policy@@@@QAEPAU?$__crt_report_hook_node@D@@XZ 10022ae0 f i libucrtd:dbgrpt.obj
 0001:00021b10       ?detach@?$__crt_unique_heap_ptr@U?$__crt_report_hook_node@_W@@U__crt_internal_free_policy@@@@QAEPAU?$__crt_report_hook_node@_W@@XZ 10022b10 f i libucrtd:dbgrpt.obj
 0001:00021b40       ?get@?$__crt_unique_heap_ptr@U?$__crt_report_hook_node@D@@U__crt_internal_free_policy@@@@QBEPAU?$__crt_report_hook_node@D@@XZ 10022b40 f i libucrtd:dbgrpt.obj
 0001:00021b60       ?get@?$__crt_unique_heap_ptr@U?$__crt_report_hook_node@_W@@U__crt_internal_free_policy@@@@QBEPAU?$__crt_report_hook_node@_W@@XZ 10022b60 f i libucrtd:dbgrpt.obj
 0001:00021be0       ?is_valid@?$__crt_unique_heap_ptr@U?$__crt_report_hook_node@D@@U__crt_internal_free_policy@@@@QBE_NXZ 10022be0 f i libucrtd:dbgrpt.obj
 0001:00021c10       ?is_valid@?$__crt_unique_heap_ptr@U?$__crt_report_hook_node@_W@@U__crt_internal_free_policy@@@@QBE_NXZ 10022c10 f i libucrtd:dbgrpt.obj
 0001:00021c40       ?release@?$__crt_unique_heap_ptr@U?$__crt_report_hook_node@D@@U__crt_internal_free_policy@@@@QAEXXZ 10022c40 f i libucrtd:dbgrpt.obj
 0001:00021c70       ?release@?$__crt_unique_heap_ptr@U?$__crt_report_hook_node@_W@@U__crt_internal_free_policy@@@@QAEXXZ 10022c70 f i libucrtd:dbgrpt.obj
 0001:00021ca0       __CrtDbgReport             10022ca0 f   libucrtd:dbgrpt.obj
 0001:00021cf0       __CrtDbgReportW            10022cf0 f   libucrtd:dbgrpt.obj
 0001:00021d40       __CrtSetReportHook2        10022d40 f   libucrtd:dbgrpt.obj
 0001:00021d60       __CrtSetReportHookW2       10022d60 f   libucrtd:dbgrpt.obj
 0001:00021d80       ___acrt_MessageWindowA     10022d80 f   libucrtd:dbgrpt.obj
 0001:00021db0       ___acrt_MessageWindowW     10022db0 f   libucrtd:dbgrpt.obj
 0001:00021de0       __invoke_watson_if_error   10022de0 f i libucrtd:dbgrpt.obj
 0001:00021e10       __invoke_watson_if_oneof   10022e10 f i libucrtd:dbgrpt.obj
 0001:00021e50       __snwprintf_s              10022e50 f i libucrtd:dbgrpt.obj
 0001:00021e90       __vsnwprintf_s_l           10022e90 f i libucrtd:dbgrpt.obj
 0001:00022210       _wcscpy_s                  10023210 f   libucrtd:wcscpy_s.obj
 0001:00022f30       ??1?$__crt_simd_cleanup_guard@$00@@QAE@XZ 10023f30 f i libucrtd:strnlen.obj
 0001:00022f40       ??1?$__crt_simd_cleanup_guard@$0A@@@QAE@XZ 10023f40 f i libucrtd:strnlen.obj
 0001:00022f50       ?compare_equals@?$__crt_simd_traits@$00E@@SA?AT__m256i@@T2@0@Z 10023f50 f i libucrtd:strnlen.obj
 0001:00022f90       ?compare_equals@?$__crt_simd_traits@$00G@@SA?AT__m256i@@T2@0@Z 10023f90 f i libucrtd:strnlen.obj
 0001:00022fd0       ?compare_equals@?$__crt_simd_traits@$0A@E@@SA?AT__m128i@@T2@0@Z 10023fd0 f i libucrtd:strnlen.obj
 0001:00023010       ?compare_equals@?$__crt_simd_traits@$0A@G@@SA?AT__m128i@@T2@0@Z 10024010 f i libucrtd:strnlen.obj
 0001:00023050       ?compute_byte_mask@?$__crt_simd_pack_traits@$00@@SAHT__m256i@@@Z 10024050 f i libucrtd:strnlen.obj
 0001:00023080       ?compute_byte_mask@?$__crt_simd_pack_traits@$0A@@@SAHT__m128i@@@Z 10024080 f i libucrtd:strnlen.obj
 0001:000230b0       ?get_zero_pack@?$__crt_simd_pack_traits@$00@@SA?AT__m256i@@XZ 100240b0 f i libucrtd:strnlen.obj
 0001:000230e0       ?get_zero_pack@?$__crt_simd_pack_traits@$0A@@@SA?AT__m128i@@XZ 100240e0 f i libucrtd:strnlen.obj
 0001:00023110       _strnlen                   10024110 f   libucrtd:strnlen.obj
 0001:00023130       _wcslen                    10024130 f   libucrtd:strnlen.obj
 0001:00023150       _wcsnlen                   10024150 f   libucrtd:strnlen.obj
 0001:00023170       ??$?0ABV?$stream_output_adapter@D@__crt_stdio_output@@AB_KABQBDABQAU__crt_locale_pointers@@ABQAD@?$format_validation_base@DV?$stream_output_adapter@D@__crt_stdio_output@@@__crt_stdio_output@@IAE@ABV?$stream_output_adapter@D@1@AB_KABQBDABQAU__crt_locale_pointers@@ABQAD@Z 10024170 f i libucrtd:output.obj
 0001:000231a0       ??$?0ABV?$stream_output_adapter@D@__crt_stdio_output@@AB_KABQBDABQAU__crt_locale_pointers@@ABQAD@?$positional_parameter_base@DV?$stream_output_adapter@D@__crt_stdio_output@@@__crt_stdio_output@@IAE@ABV?$stream_output_adapter@D@1@AB_KABQBDABQAU__crt_locale_pointers@@ABQAD@Z 100241a0 f i libucrtd:output.obj
 0001:00023220       ??$?0ABV?$stream_output_adapter@D@__crt_stdio_output@@AB_KABQBDABQAU__crt_locale_pointers@@ABQAD@?$standard_base@DV?$stream_output_adapter@D@__crt_stdio_output@@@__crt_stdio_output@@IAE@ABV?$stream_output_adapter@D@1@AB_KABQBDABQAU__crt_locale_pointers@@ABQAD@Z 10024220 f i libucrtd:output.obj
 0001:00023270       ??$?0ABV?$stream_output_adapter@_W@__crt_stdio_output@@AB_KABQB_WABQAU__crt_locale_pointers@@ABQAD@?$format_validation_base@_WV?$stream_output_adapter@_W@__crt_stdio_output@@@__crt_stdio_output@@IAE@ABV?$stream_output_adapter@_W@1@AB_KABQB_WABQAU__crt_locale_pointers@@ABQAD@Z 10024270 f i libucrtd:output.obj
 0001:000232a0       ??$?0ABV?$stream_output_adapter@_W@__crt_stdio_output@@AB_KABQB_WABQAU__crt_locale_pointers@@ABQAD@?$positional_parameter_base@_WV?$stream_output_adapter@_W@__crt_stdio_output@@@__crt_stdio_output@@IAE@ABV?$stream_output_adapter@_W@1@AB_KABQB_WABQAU__crt_locale_pointers@@ABQAD@Z 100242a0 f i libucrtd:output.obj
 0001:00023320       ??$?0ABV?$stream_output_adapter@_W@__crt_stdio_output@@AB_KABQB_WABQAU__crt_locale_pointers@@ABQAD@?$standard_base@_WV?$stream_output_adapter@_W@__crt_stdio_output@@@__crt_stdio_output@@IAE@ABV?$stream_output_adapter@_W@1@AB_KABQB_WABQAU__crt_locale_pointers@@ABQAD@Z 10024320 f i libucrtd:output.obj
 0001:00023370       ??$?0ABV?$string_output_adapter@D@__crt_stdio_output@@AB_KABQBDABQAU__crt_locale_pointers@@ABQAD@?$format_validation_base@DV?$string_output_adapter@D@__crt_stdio_output@@@__crt_stdio_output@@IAE@ABV?$string_output_adapter@D@1@AB_KABQBDABQAU__crt_locale_pointers@@ABQAD@Z 10024370 f i libucrtd:output.obj
 0001:000233a0       ??$?0ABV?$string_output_adapter@D@__crt_stdio_output@@AB_KABQBDABQAU__crt_locale_pointers@@ABQAD@?$positional_parameter_base@DV?$string_output_adapter@D@__crt_stdio_output@@@__crt_stdio_output@@IAE@ABV?$string_output_adapter@D@1@AB_KABQBDABQAU__crt_locale_pointers@@ABQAD@Z 100243a0 f i libucrtd:output.obj
 0001:00023420       ??$?0ABV?$string_output_adapter@D@__crt_stdio_output@@AB_KABQBDABQAU__crt_locale_pointers@@ABQAD@?$standard_base@DV?$string_output_adapter@D@__crt_stdio_output@@@__crt_stdio_output@@IAE@ABV?$string_output_adapter@D@1@AB_KABQBDABQAU__crt_locale_pointers@@ABQAD@Z 10024420 f i libucrtd:output.obj
 0001:00023470       ??$?0ABV?$string_output_adapter@_W@__crt_stdio_output@@AB_KABQB_WABQAU__crt_locale_pointers@@ABQAD@?$format_validation_base@_WV?$string_output_adapter@_W@__crt_stdio_output@@@__crt_stdio_output@@IAE@ABV?$string_output_adapter@_W@1@AB_KABQB_WABQAU__crt_locale_pointers@@ABQAD@Z 10024470 f i libucrtd:output.obj
 0001:000234a0       ??$?0ABV?$string_output_adapter@_W@__crt_stdio_output@@AB_KABQB_WABQAU__crt_locale_pointers@@ABQAD@?$positional_parameter_base@_WV?$string_output_adapter@_W@__crt_stdio_output@@@__crt_stdio_output@@IAE@ABV?$string_output_adapter@_W@1@AB_KABQB_WABQAU__crt_locale_pointers@@ABQAD@Z 100244a0 f i libucrtd:output.obj
 0001:00023520       ??$?0ABV?$string_output_adapter@_W@__crt_stdio_output@@AB_KABQB_WABQAU__crt_locale_pointers@@ABQAD@?$standard_base@_WV?$string_output_adapter@_W@__crt_stdio_output@@@__crt_stdio_output@@IAE@ABV?$string_output_adapter@_W@1@AB_KABQB_WABQAU__crt_locale_pointers@@ABQAD@Z 10024520 f i libucrtd:output.obj
 0001:00023a50       ??$__crt_interlocked_read@J@@YAJPDJ@Z 10024a50 f i libucrtd:output.obj
 0001:000267f0       ??$count@D@formatting_buffer@__crt_stdio_output@@QBEIXZ 100277f0 f i libucrtd:output.obj
 0001:00026830       ??$count@_W@formatting_buffer@__crt_stdio_output@@QBEIXZ 10027830 f i libucrtd:output.obj
 0001:00026870       ??$data@D@formatting_buffer@__crt_stdio_output@@QAEPADXZ 10027870 f i libucrtd:output.obj
 0001:000268b0       ??$data@_W@formatting_buffer@__crt_stdio_output@@QAEPA_WXZ 100278b0 f i libucrtd:output.obj
 0001:000268f0       ??$ensure_buffer_is_big_enough@D@formatting_buffer@__crt_stdio_output@@QAE_NI@Z 100278f0 f i libucrtd:output.obj
 0001:000269d0       ??$ensure_buffer_is_big_enough@_W@formatting_buffer@__crt_stdio_output@@QAE_NI@Z 100279d0 f i libucrtd:output.obj
 0001:00026ac0       ??$extract_argument_from_va_list@C_J@?$positional_parameter_base@DV?$stream_output_adapter@D@__crt_stdio_output@@@__crt_stdio_output@@IAE_NAA_J@Z 10027ac0 f i libucrtd:output.obj
 0001:00026c00       ??$extract_argument_from_va_list@C_J@?$positional_parameter_base@DV?$string_output_adapter@D@__crt_stdio_output@@@__crt_stdio_output@@IAE_NAA_J@Z 10027c00 f i libucrtd:output.obj
 0001:00026d40       ??$extract_argument_from_va_list@C_J@?$positional_parameter_base@_WV?$stream_output_adapter@_W@__crt_stdio_output@@@__crt_stdio_output@@IAE_NAA_J@Z 10027d40 f i libucrtd:output.obj
 0001:00026e80       ??$extract_argument_from_va_list@C_J@?$positional_parameter_base@_WV?$string_output_adapter@_W@__crt_stdio_output@@@__crt_stdio_output@@IAE_NAA_J@Z 10027e80 f i libucrtd:output.obj
 0001:00026fc0       ??$extract_argument_from_va_list@C_J@?$standard_base@DV?$stream_output_adapter@D@__crt_stdio_output@@@__crt_stdio_output@@IAE_NAA_J@Z 10027fc0 f i libucrtd:output.obj
 0001:00026ff0       ??$extract_argument_from_va_list@C_J@?$standard_base@DV?$string_output_adapter@D@__crt_stdio_output@@@__crt_stdio_output@@IAE_NAA_J@Z 10027ff0 f i libucrtd:output.obj
 0001:00027020       ??$extract_argument_from_va_list@C_J@?$standard_base@_WV?$stream_output_adapter@_W@__crt_stdio_output@@@__crt_stdio_output@@IAE_NAA_J@Z 10028020 f i libucrtd:output.obj
 0001:00027050       ??$extract_argument_from_va_list@C_J@?$standard_base@_WV?$string_output_adapter@_W@__crt_stdio_output@@@__crt_stdio_output@@IAE_NAA_J@Z 10028050 f i libucrtd:output.obj
 0001:00027080       ??$extract_argument_from_va_list@E_J@?$positional_parameter_base@DV?$stream_output_adapter@D@__crt_stdio_output@@@__crt_stdio_output@@IAE_NAA_J@Z 10028080 f i libucrtd:output.obj
 0001:000271c0       ??$extract_argument_from_va_list@E_J@?$positional_parameter_base@DV?$string_output_adapter@D@__crt_stdio_output@@@__crt_stdio_output@@IAE_NAA_J@Z 100281c0 f i libucrtd:output.obj
 0001:00027300       ??$extract_argument_from_va_list@E_J@?$positional_parameter_base@_WV?$stream_output_adapter@_W@__crt_stdio_output@@@__crt_stdio_output@@IAE_NAA_J@Z 10028300 f i libucrtd:output.obj
 0001:00027440       ??$extract_argument_from_va_list@E_J@?$positional_parameter_base@_WV?$string_output_adapter@_W@__crt_stdio_output@@@__crt_stdio_output@@IAE_NAA_J@Z 10028440 f i libucrtd:output.obj
 0001:00027580       ??$extract_argument_from_va_list@E_J@?$standard_base@DV?$stream_output_adapter@D@__crt_stdio_output@@@__crt_stdio_output@@IAE_NAA_J@Z 10028580 f i libucrtd:output.obj
 0001:000275b0       ??$extract_argument_from_va_list@E_J@?$standard_base@DV?$string_output_adapter@D@__crt_stdio_output@@@__crt_stdio_output@@IAE_NAA_J@Z 100285b0 f i libucrtd:output.obj
 0001:000275e0       ??$extract_argument_from_va_list@E_J@?$standard_base@_WV?$stream_output_adapter@_W@__crt_stdio_output@@@__crt_stdio_output@@IAE_NAA_J@Z 100285e0 f i libucrtd:output.obj
 0001:00027610       ??$extract_argument_from_va_list@E_J@?$standard_base@_WV?$string_output_adapter@_W@__crt_stdio_output@@@__crt_stdio_output@@IAE_NAA_J@Z 10028610 f i libucrtd:output.obj
 0001:00027640       ??$extract_argument_from_va_list@F_J@?$positional_parameter_base@DV?$stream_output_adapter@D@__crt_stdio_output@@@__crt_stdio_output@@IAE_NAA_J@Z 10028640 f i libucrtd:output.obj
 0001:00027770       ??$extract_argument_from_va_list@F_J@?$positional_parameter_base@DV?$string_output_adapter@D@__crt_stdio_output@@@__crt_stdio_output@@IAE_NAA_J@Z 10028770 f i libucrtd:output.obj
 0001:000278a0       ??$extract_argument_from_va_list@F_J@?$positional_parameter_base@_WV?$stream_output_adapter@_W@__crt_stdio_output@@@__crt_stdio_output@@IAE_NAA_J@Z 100288a0 f i libucrtd:output.obj
 0001:000279d0       ??$extract_argument_from_va_list@F_J@?$positional_parameter_base@_WV?$string_output_adapter@_W@__crt_stdio_output@@@__crt_stdio_output@@IAE_NAA_J@Z 100289d0 f i libucrtd:output.obj
 0001:00027b00       ??$extract_argument_from_va_list@F_J@?$standard_base@DV?$stream_output_adapter@D@__crt_stdio_output@@@__crt_stdio_output@@IAE_NAA_J@Z 10028b00 f i libucrtd:output.obj
 0001:00027b30       ??$extract_argument_from_va_list@F_J@?$standard_base@DV?$string_output_adapter@D@__crt_stdio_output@@@__crt_stdio_output@@IAE_NAA_J@Z 10028b30 f i libucrtd:output.obj
 0001:00027b60       ??$extract_argument_from_va_list@F_J@?$standard_base@_WV?$stream_output_adapter@_W@__crt_stdio_output@@@__crt_stdio_output@@IAE_NAA_J@Z 10028b60 f i libucrtd:output.obj
 0001:00027b90       ??$extract_argument_from_va_list@F_J@?$standard_base@_WV?$string_output_adapter@_W@__crt_stdio_output@@@__crt_stdio_output@@IAE_NAA_J@Z 10028b90 f i libucrtd:output.obj
 0001:00027bc0       ??$extract_argument_from_va_list@GD@?$positional_parameter_base@DV?$stream_output_adapter@D@__crt_stdio_output@@@__crt_stdio_output@@IAE_NAAD@Z 10028bc0 f i libucrtd:output.obj
 0001:00027cf0       ??$extract_argument_from_va_list@GD@?$positional_parameter_base@DV?$string_output_adapter@D@__crt_stdio_output@@@__crt_stdio_output@@IAE_NAAD@Z 10028cf0 f i libucrtd:output.obj
 0001:00027e20       ??$extract_argument_from_va_list@GD@?$standard_base@DV?$stream_output_adapter@D@__crt_stdio_output@@@__crt_stdio_output@@IAE_NAAD@Z 10028e20 f i libucrtd:output.obj
 0001:00027e50       ??$extract_argument_from_va_list@GD@?$standard_base@DV?$string_output_adapter@D@__crt_stdio_output@@@__crt_stdio_output@@IAE_NAAD@Z 10028e50 f i libucrtd:output.obj
 0001:00027e80       ??$extract_argument_from_va_list@G_J@?$positional_parameter_base@DV?$stream_output_adapter@D@__crt_stdio_output@@@__crt_stdio_output@@IAE_NAA_J@Z 10028e80 f i libucrtd:output.obj
 0001:00027fc0       ??$extract_argument_from_va_list@G_J@?$positional_parameter_base@DV?$string_output_adapter@D@__crt_stdio_output@@@__crt_stdio_output@@IAE_NAA_J@Z 10028fc0 f i libucrtd:output.obj
 0001:00028100       ??$extract_argument_from_va_list@G_J@?$positional_parameter_base@_WV?$stream_output_adapter@_W@__crt_stdio_output@@@__crt_stdio_output@@IAE_NAA_J@Z 10029100 f i libucrtd:output.obj
 0001:00028240       ??$extract_argument_from_va_list@G_J@?$positional_parameter_base@_WV?$string_output_adapter@_W@__crt_stdio_output@@@__crt_stdio_output@@IAE_NAA_J@Z 10029240 f i libucrtd:output.obj
 0001:00028380       ??$extract_argument_from_va_list@G_J@?$standard_base@DV?$stream_output_adapter@D@__crt_stdio_output@@@__crt_stdio_output@@IAE_NAA_J@Z 10029380 f i libucrtd:output.obj
 0001:000283b0       ??$extract_argument_from_va_list@G_J@?$standard_base@DV?$string_output_adapter@D@__crt_stdio_output@@@__crt_stdio_output@@IAE_NAA_J@Z 100293b0 f i libucrtd:output.obj
 0001:000283e0       ??$extract_argument_from_va_list@G_J@?$standard_base@_WV?$stream_output_adapter@_W@__crt_stdio_output@@@__crt_stdio_output@@IAE_NAA_J@Z 100293e0 f i libucrtd:output.obj
 0001:00028410       ??$extract_argument_from_va_list@G_J@?$standard_base@_WV?$string_output_adapter@_W@__crt_stdio_output@@@__crt_stdio_output@@IAE_NAA_J@Z 10029410 f i libucrtd:output.obj
 0001:00028440       ??$extract_argument_from_va_list@H_J@?$positional_parameter_base@DV?$stream_output_adapter@D@__crt_stdio_output@@@__crt_stdio_output@@IAE_NAA_J@Z 10029440 f i libucrtd:output.obj
 0001:00028570       ??$extract_argument_from_va_list@H_J@?$positional_parameter_base@DV?$string_output_adapter@D@__crt_stdio_output@@@__crt_stdio_output@@IAE_NAA_J@Z 10029570 f i libucrtd:output.obj
 0001:000286a0       ??$extract_argument_from_va_list@H_J@?$positional_parameter_base@_WV?$stream_output_adapter@_W@__crt_stdio_output@@@__crt_stdio_output@@IAE_NAA_J@Z 100296a0 f i libucrtd:output.obj
 0001:000287d0       ??$extract_argument_from_va_list@H_J@?$positional_parameter_base@_WV?$string_output_adapter@_W@__crt_stdio_output@@@__crt_stdio_output@@IAE_NAA_J@Z 100297d0 f i libucrtd:output.obj
 0001:00028900       ??$extract_argument_from_va_list@H_J@?$standard_base@DV?$stream_output_adapter@D@__crt_stdio_output@@@__crt_stdio_output@@IAE_NAA_J@Z 10029900 f i libucrtd:output.obj
 0001:00028930       ??$extract_argument_from_va_list@H_J@?$standard_base@DV?$string_output_adapter@D@__crt_stdio_output@@@__crt_stdio_output@@IAE_NAA_J@Z 10029930 f i libucrtd:output.obj
 0001:00028960       ??$extract_argument_from_va_list@H_J@?$standard_base@_WV?$stream_output_adapter@_W@__crt_stdio_output@@@__crt_stdio_output@@IAE_NAA_J@Z 10029960 f i libucrtd:output.obj
 0001:00028990       ??$extract_argument_from_va_list@H_J@?$standard_base@_WV?$string_output_adapter@_W@__crt_stdio_output@@@__crt_stdio_output@@IAE_NAA_J@Z 10029990 f i libucrtd:output.obj
 0001:000289c0       ??$extract_argument_from_va_list@I_J@?$positional_parameter_base@DV?$stream_output_adapter@D@__crt_stdio_output@@@__crt_stdio_output@@IAE_NAA_J@Z 100299c0 f i libucrtd:output.obj
 0001:00028af0       ??$extract_argument_from_va_list@I_J@?$positional_parameter_base@DV?$string_output_adapter@D@__crt_stdio_output@@@__crt_stdio_output@@IAE_NAA_J@Z 10029af0 f i libucrtd:output.obj
 0001:00028c20       ??$extract_argument_from_va_list@I_J@?$positional_parameter_base@_WV?$stream_output_adapter@_W@__crt_stdio_output@@@__crt_stdio_output@@IAE_NAA_J@Z 10029c20 f i libucrtd:output.obj
 0001:00028d50       ??$extract_argument_from_va_list@I_J@?$positional_parameter_base@_WV?$string_output_adapter@_W@__crt_stdio_output@@@__crt_stdio_output@@IAE_NAA_J@Z 10029d50 f i libucrtd:output.obj
 0001:00028e80       ??$extract_argument_from_va_list@I_J@?$standard_base@DV?$stream_output_adapter@D@__crt_stdio_output@@@__crt_stdio_output@@IAE_NAA_J@Z 10029e80 f i libucrtd:output.obj
 0001:00028eb0       ??$extract_argument_from_va_list@I_J@?$standard_base@DV?$string_output_adapter@D@__crt_stdio_output@@@__crt_stdio_output@@IAE_NAA_J@Z 10029eb0 f i libucrtd:output.obj
 0001:00028ee0       ??$extract_argument_from_va_list@I_J@?$standard_base@_WV?$stream_output_adapter@_W@__crt_stdio_output@@@__crt_stdio_output@@IAE_NAA_J@Z 10029ee0 f i libucrtd:output.obj
 0001:00028f10       ??$extract_argument_from_va_list@I_J@?$standard_base@_WV?$string_output_adapter@_W@__crt_stdio_output@@@__crt_stdio_output@@IAE_NAA_J@Z 10029f10 f i libucrtd:output.obj
 0001:00028f40       ??$extract_argument_from_va_list@PADPAD@?$positional_parameter_base@DV?$stream_output_adapter@D@__crt_stdio_output@@@__crt_stdio_output@@IAE_NAAPAD@Z 10029f40 f i libucrtd:output.obj
 0001:00029070       ??$extract_argument_from_va_list@PADPAD@?$positional_parameter_base@DV?$string_output_adapter@D@__crt_stdio_output@@@__crt_stdio_output@@IAE_NAAPAD@Z 1002a070 f i libucrtd:output.obj
 0001:000291a0       ??$extract_argument_from_va_list@PADPAD@?$positional_parameter_base@_WV?$stream_output_adapter@_W@__crt_stdio_output@@@__crt_stdio_output@@IAE_NAAPAD@Z 1002a1a0 f i libucrtd:output.obj
 0001:000292d0       ??$extract_argument_from_va_list@PADPAD@?$positional_parameter_base@_WV?$string_output_adapter@_W@__crt_stdio_output@@@__crt_stdio_output@@IAE_NAAPAD@Z 1002a2d0 f i libucrtd:output.obj
 0001:00029400       ??$extract_argument_from_va_list@PADPAD@?$standard_base@DV?$stream_output_adapter@D@__crt_stdio_output@@@__crt_stdio_output@@IAE_NAAPAD@Z 1002a400 f i libucrtd:output.obj
 0001:00029430       ??$extract_argument_from_va_list@PADPAD@?$standard_base@DV?$string_output_adapter@D@__crt_stdio_output@@@__crt_stdio_output@@IAE_NAAPAD@Z 1002a430 f i libucrtd:output.obj
 0001:00029460       ??$extract_argument_from_va_list@PADPAD@?$standard_base@_WV?$stream_output_adapter@_W@__crt_stdio_output@@@__crt_stdio_output@@IAE_NAAPAD@Z 1002a460 f i libucrtd:output.obj
 0001:00029490       ??$extract_argument_from_va_list@PADPAD@?$standard_base@_WV?$string_output_adapter@_W@__crt_stdio_output@@@__crt_stdio_output@@IAE_NAAPAD@Z 1002a490 f i libucrtd:output.obj
 0001:000294c0       ??$extract_argument_from_va_list@PAUansi_string@?1??type_case_Z@?$output_processor@DV?$stream_output_adapter@D@__crt_stdio_output@@V?$format_validation_base@DV?$stream_output_adapter@D@__crt_stdio_output@@@2@@__crt_stdio_output@@AAE_NXZ@PAU1?1??234@AAE_NXZ@@?$standard_base@DV?$stream_output_adapter@D@__crt_stdio_output@@@__crt_stdio_output@@IAE_NAAPAUansi_string@?1??type_case_Z@?$output_processor@DV?$stream_output_adapter@D@__crt_stdio_output@@V?$format_validation_base@DV?$stream_output_adapter@D@__crt_stdio_output@@@2@@1@AAE_NXZ@@Z 1002a4c0 f i libucrtd:output.obj
 0001:000294f0       ??$extract_argument_from_va_list@PAUansi_string@?1??type_case_Z@?$output_processor@DV?$stream_output_adapter@D@__crt_stdio_output@@V?$positional_parameter_base@DV?$stream_output_adapter@D@__crt_stdio_output@@@2@@__crt_stdio_output@@AAE_NXZ@PAU1?1??234@AAE_NXZ@@?$positional_parameter_base@DV?$stream_output_adapter@D@__crt_stdio_output@@@__crt_stdio_output@@IAE_NAAPAUansi_string@?1??type_case_Z@?$output_processor@DV?$stream_output_adapter@D@__crt_stdio_output@@V?$positional_parameter_base@DV?$stream_output_adapter@D@__crt_stdio_output@@@2@@1@AAE_NXZ@@Z 1002a4f0 f i libucrtd:output.obj
 0001:00029620       ??$extract_argument_from_va_list@PAUansi_string@?1??type_case_Z@?$output_processor@DV?$stream_output_adapter@D@__crt_stdio_output@@V?$positional_parameter_base@DV?$stream_output_adapter@D@__crt_stdio_output@@@2@@__crt_stdio_output@@AAE_NXZ@PAU1?1??234@AAE_NXZ@@?$standard_base@DV?$stream_output_adapter@D@__crt_stdio_output@@@__crt_stdio_output@@IAE_NAAPAUansi_string@?1??type_case_Z@?$output_processor@DV?$stream_output_adapter@D@__crt_stdio_output@@V?$positional_parameter_base@DV?$stream_output_adapter@D@__crt_stdio_output@@@2@@1@AAE_NXZ@@Z 1002a620 f i libucrtd:output.obj
 0001:00029650       ??$extract_argument_from_va_list@PAUansi_string@?1??type_case_Z@?$output_processor@DV?$stream_output_adapter@D@__crt_stdio_output@@V?$standard_base@DV?$stream_output_adapter@D@__crt_stdio_output@@@2@@__crt_stdio_output@@AAE_NXZ@PAU1?1??234@AAE_NXZ@@?$standard_base@DV?$stream_output_adapter@D@__crt_stdio_output@@@__crt_stdio_output@@IAE_NAAPAUansi_string@?1??type_case_Z@?$output_processor@DV?$stream_output_adapter@D@__crt_stdio_output@@V?$standard_base@DV?$stream_output_adapter@D@__crt_stdio_output@@@2@@1@AAE_NXZ@@Z 1002a650 f i libucrtd:output.obj
 0001:00029680       ??$extract_argument_from_va_list@PAUansi_string@?1??type_case_Z@?$output_processor@DV?$string_output_adapter@D@__crt_stdio_output@@V?$format_validation_base@DV?$string_output_adapter@D@__crt_stdio_output@@@2@@__crt_stdio_output@@AAE_NXZ@PAU1?1??234@AAE_NXZ@@?$standard_base@DV?$string_output_adapter@D@__crt_stdio_output@@@__crt_stdio_output@@IAE_NAAPAUansi_string@?1??type_case_Z@?$output_processor@DV?$string_output_adapter@D@__crt_stdio_output@@V?$format_validation_base@DV?$string_output_adapter@D@__crt_stdio_output@@@2@@1@AAE_NXZ@@Z 1002a680 f i libucrtd:output.obj
 0001:000296b0       ??$extract_argument_from_va_list@PAUansi_string@?1??type_case_Z@?$output_processor@DV?$string_output_adapter@D@__crt_stdio_output@@V?$positional_parameter_base@DV?$string_output_adapter@D@__crt_stdio_output@@@2@@__crt_stdio_output@@AAE_NXZ@PAU1?1??234@AAE_NXZ@@?$positional_parameter_base@DV?$string_output_adapter@D@__crt_stdio_output@@@__crt_stdio_output@@IAE_NAAPAUansi_string@?1??type_case_Z@?$output_processor@DV?$string_output_adapter@D@__crt_stdio_output@@V?$positional_parameter_base@DV?$string_output_adapter@D@__crt_stdio_output@@@2@@1@AAE_NXZ@@Z 1002a6b0 f i libucrtd:output.obj
 0001:000297e0       ??$extract_argument_from_va_list@PAUansi_string@?1??type_case_Z@?$output_processor@DV?$string_output_adapter@D@__crt_stdio_output@@V?$positional_parameter_base@DV?$string_output_adapter@D@__crt_stdio_output@@@2@@__crt_stdio_output@@AAE_NXZ@PAU1?1??234@AAE_NXZ@@?$standard_base@DV?$string_output_adapter@D@__crt_stdio_output@@@__crt_stdio_output@@IAE_NAAPAUansi_string@?1??type_case_Z@?$output_processor@DV?$string_output_adapter@D@__crt_stdio_output@@V?$positional_parameter_base@DV?$string_output_adapter@D@__crt_stdio_output@@@2@@1@AAE_NXZ@@Z 1002a7e0 f i libucrtd:output.obj
 0001:00029810       ??$extract_argument_from_va_list@PAUansi_string@?1??type_case_Z@?$output_processor@DV?$string_output_adapter@D@__crt_stdio_output@@V?$standard_base@DV?$string_output_adapter@D@__crt_stdio_output@@@2@@__crt_stdio_output@@AAE_NXZ@PAU1?1??234@AAE_NXZ@@?$standard_base@DV?$string_output_adapter@D@__crt_stdio_output@@@__crt_stdio_output@@IAE_NAAPAUansi_string@?1??type_case_Z@?$output_processor@DV?$string_output_adapter@D@__crt_stdio_output@@V?$standard_base@DV?$string_output_adapter@D@__crt_stdio_output@@@2@@1@AAE_NXZ@@Z 1002a810 f i libucrtd:output.obj
 0001:00029840       ??$extract_argument_from_va_list@PAUansi_string@?1??type_case_Z@?$output_processor@_WV?$stream_output_adapter@_W@__crt_stdio_output@@V?$format_validation_base@_WV?$stream_output_adapter@_W@__crt_stdio_output@@@2@@__crt_stdio_output@@AAE_NXZ@PAU1?1??234@AAE_NXZ@@?$standard_base@_WV?$stream_output_adapter@_W@__crt_stdio_output@@@__crt_stdio_output@@IAE_NAAPAUansi_string@?1??type_case_Z@?$output_processor@_WV?$stream_output_adapter@_W@__crt_stdio_output@@V?$format_validation_base@_WV?$stream_output_adapter@_W@__crt_stdio_output@@@2@@1@AAE_NXZ@@Z 1002a840 f i libucrtd:output.obj
 0001:00029870       ??$extract_argument_from_va_list@PAUansi_string@?1??type_case_Z@?$output_processor@_WV?$stream_output_adapter@_W@__crt_stdio_output@@V?$positional_parameter_base@_WV?$stream_output_adapter@_W@__crt_stdio_output@@@2@@__crt_stdio_output@@AAE_NXZ@PAU1?1??234@AAE_NXZ@@?$positional_parameter_base@_WV?$stream_output_adapter@_W@__crt_stdio_output@@@__crt_stdio_output@@IAE_NAAPAUansi_string@?1??type_case_Z@?$output_processor@_WV?$stream_output_adapter@_W@__crt_stdio_output@@V?$positional_parameter_base@_WV?$stream_output_adapter@_W@__crt_stdio_output@@@2@@1@AAE_NXZ@@Z 1002a870 f i libucrtd:output.obj
 0001:000299a0       ??$extract_argument_from_va_list@PAUansi_string@?1??type_case_Z@?$output_processor@_WV?$stream_output_adapter@_W@__crt_stdio_output@@V?$positional_parameter_base@_WV?$stream_output_adapter@_W@__crt_stdio_output@@@2@@__crt_stdio_output@@AAE_NXZ@PAU1?1??234@AAE_NXZ@@?$standard_base@_WV?$stream_output_adapter@_W@__crt_stdio_output@@@__crt_stdio_output@@IAE_NAAPAUansi_string@?1??type_case_Z@?$output_processor@_WV?$stream_output_adapter@_W@__crt_stdio_output@@V?$positional_parameter_base@_WV?$stream_output_adapter@_W@__crt_stdio_output@@@2@@1@AAE_NXZ@@Z 1002a9a0 f i libucrtd:output.obj
 0001:000299d0       ??$extract_argument_from_va_list@PAUansi_string@?1??type_case_Z@?$output_processor@_WV?$stream_output_adapter@_W@__crt_stdio_output@@V?$standard_base@_WV?$stream_output_adapter@_W@__crt_stdio_output@@@2@@__crt_stdio_output@@AAE_NXZ@PAU1?1??234@AAE_NXZ@@?$standard_base@_WV?$stream_output_adapter@_W@__crt_stdio_output@@@__crt_stdio_output@@IAE_NAAPAUansi_string@?1??type_case_Z@?$output_processor@_WV?$stream_output_adapter@_W@__crt_stdio_output@@V?$standard_base@_WV?$stream_output_adapter@_W@__crt_stdio_output@@@2@@1@AAE_NXZ@@Z 1002a9d0 f i libucrtd:output.obj
 0001:00029a00       ??$extract_argument_from_va_list@PAUansi_string@?1??type_case_Z@?$output_processor@_WV?$string_output_adapter@_W@__crt_stdio_output@@V?$format_validation_base@_WV?$string_output_adapter@_W@__crt_stdio_output@@@2@@__crt_stdio_output@@AAE_NXZ@PAU1?1??234@AAE_NXZ@@?$standard_base@_WV?$string_output_adapter@_W@__crt_stdio_output@@@__crt_stdio_output@@IAE_NAAPAUansi_string@?1??type_case_Z@?$output_processor@_WV?$string_output_adapter@_W@__crt_stdio_output@@V?$format_validation_base@_WV?$string_output_adapter@_W@__crt_stdio_output@@@2@@1@AAE_NXZ@@Z 1002aa00 f i libucrtd:output.obj
 0001:00029a30       ??$extract_argument_from_va_list@PAUansi_string@?1??type_case_Z@?$output_processor@_WV?$string_output_adapter@_W@__crt_stdio_output@@V?$positional_parameter_base@_WV?$string_output_adapter@_W@__crt_stdio_output@@@2@@__crt_stdio_output@@AAE_NXZ@PAU1?1??234@AAE_NXZ@@?$positional_parameter_base@_WV?$string_output_adapter@_W@__crt_stdio_output@@@__crt_stdio_output@@IAE_NAAPAUansi_string@?1??type_case_Z@?$output_processor@_WV?$string_output_adapter@_W@__crt_stdio_output@@V?$positional_parameter_base@_WV?$string_output_adapter@_W@__crt_stdio_output@@@2@@1@AAE_NXZ@@Z 1002aa30 f i libucrtd:output.obj
 0001:00029b60       ??$extract_argument_from_va_list@PAUansi_string@?1??type_case_Z@?$output_processor@_WV?$string_output_adapter@_W@__crt_stdio_output@@V?$positional_parameter_base@_WV?$string_output_adapter@_W@__crt_stdio_output@@@2@@__crt_stdio_output@@AAE_NXZ@PAU1?1??234@AAE_NXZ@@?$standard_base@_WV?$string_output_adapter@_W@__crt_stdio_output@@@__crt_stdio_output@@IAE_NAAPAUansi_string@?1??type_case_Z@?$output_processor@_WV?$string_output_adapter@_W@__crt_stdio_output@@V?$positional_parameter_base@_WV?$string_output_adapter@_W@__crt_stdio_output@@@2@@1@AAE_NXZ@@Z 1002ab60 f i libucrtd:output.obj
 0001:00029b90       ??$extract_argument_from_va_list@PAUansi_string@?1??type_case_Z@?$output_processor@_WV?$string_output_adapter@_W@__crt_stdio_output@@V?$standard_base@_WV?$string_output_adapter@_W@__crt_stdio_output@@@2@@__crt_stdio_output@@AAE_NXZ@PAU1?1??234@AAE_NXZ@@?$standard_base@_WV?$string_output_adapter@_W@__crt_stdio_output@@@__crt_stdio_output@@IAE_NAAPAUansi_string@?1??type_case_Z@?$output_processor@_WV?$string_output_adapter@_W@__crt_stdio_output@@V?$standard_base@_WV?$string_output_adapter@_W@__crt_stdio_output@@@2@@1@AAE_NXZ@@Z 1002ab90 f i libucrtd:output.obj
 0001:00029bc0       ??$extract_argument_from_va_list@PAXPAX@?$positional_parameter_base@DV?$stream_output_adapter@D@__crt_stdio_output@@@__crt_stdio_output@@IAE_NAAPAX@Z 1002abc0 f i libucrtd:output.obj
 0001:00029cf0       ??$extract_argument_from_va_list@PAXPAX@?$positional_parameter_base@DV?$string_output_adapter@D@__crt_stdio_output@@@__crt_stdio_output@@IAE_NAAPAX@Z 1002acf0 f i libucrtd:output.obj
 0001:00029e20       ??$extract_argument_from_va_list@PAXPAX@?$positional_parameter_base@_WV?$stream_output_adapter@_W@__crt_stdio_output@@@__crt_stdio_output@@IAE_NAAPAX@Z 1002ae20 f i libucrtd:output.obj
 0001:00029f50       ??$extract_argument_from_va_list@PAXPAX@?$positional_parameter_base@_WV?$string_output_adapter@_W@__crt_stdio_output@@@__crt_stdio_output@@IAE_NAAPAX@Z 1002af50 f i libucrtd:output.obj
 0001:0002a080       ??$extract_argument_from_va_list@PAXPAX@?$standard_base@DV?$stream_output_adapter@D@__crt_stdio_output@@@__crt_stdio_output@@IAE_NAAPAX@Z 1002b080 f i libucrtd:output.obj
 0001:0002a0b0       ??$extract_argument_from_va_list@PAXPAX@?$standard_base@DV?$string_output_adapter@D@__crt_stdio_output@@@__crt_stdio_output@@IAE_NAAPAX@Z 1002b0b0 f i libucrtd:output.obj
 0001:0002a0e0       ??$extract_argument_from_va_list@PAXPAX@?$standard_base@_WV?$stream_output_adapter@_W@__crt_stdio_output@@@__crt_stdio_output@@IAE_NAAPAX@Z 1002b0e0 f i libucrtd:output.obj
 0001:0002a110       ??$extract_argument_from_va_list@PAXPAX@?$standard_base@_WV?$string_output_adapter@_W@__crt_stdio_output@@@__crt_stdio_output@@IAE_NAAPAX@Z 1002b110 f i libucrtd:output.obj
 0001:0002a140       ??$extract_argument_from_va_list@U_CRT_DOUBLE@@U1@@?$positional_parameter_base@DV?$stream_output_adapter@D@__crt_stdio_output@@@__crt_stdio_output@@IAE_NAAU_CRT_DOUBLE@@@Z 1002b140 f i libucrtd:output.obj
 0001:0002a2a0       ??$extract_argument_from_va_list@U_CRT_DOUBLE@@U1@@?$positional_parameter_base@DV?$string_output_adapter@D@__crt_stdio_output@@@__crt_stdio_output@@IAE_NAAU_CRT_DOUBLE@@@Z 1002b2a0 f i libucrtd:output.obj
 0001:0002a400       ??$extract_argument_from_va_list@U_CRT_DOUBLE@@U1@@?$positional_parameter_base@_WV?$stream_output_adapter@_W@__crt_stdio_output@@@__crt_stdio_output@@IAE_NAAU_CRT_DOUBLE@@@Z 1002b400 f i libucrtd:output.obj
 0001:0002a560       ??$extract_argument_from_va_list@U_CRT_DOUBLE@@U1@@?$positional_parameter_base@_WV?$string_output_adapter@_W@__crt_stdio_output@@@__crt_stdio_output@@IAE_NAAU_CRT_DOUBLE@@@Z 1002b560 f i libucrtd:output.obj
 0001:0002a6c0       ??$extract_argument_from_va_list@U_CRT_DOUBLE@@U1@@?$standard_base@DV?$stream_output_adapter@D@__crt_stdio_output@@@__crt_stdio_output@@IAE_NAAU_CRT_DOUBLE@@@Z 1002b6c0 f i libucrtd:output.obj
 0001:0002a710       ??$extract_argument_from_va_list@U_CRT_DOUBLE@@U1@@?$standard_base@DV?$string_output_adapter@D@__crt_stdio_output@@@__crt_stdio_output@@IAE_NAAU_CRT_DOUBLE@@@Z 1002b710 f i libucrtd:output.obj
 0001:0002a760       ??$extract_argument_from_va_list@U_CRT_DOUBLE@@U1@@?$standard_base@_WV?$stream_output_adapter@_W@__crt_stdio_output@@@__crt_stdio_output@@IAE_NAAU_CRT_DOUBLE@@@Z 1002b760 f i libucrtd:output.obj
 0001:0002a7b0       ??$extract_argument_from_va_list@U_CRT_DOUBLE@@U1@@?$standard_base@_WV?$string_output_adapter@_W@__crt_stdio_output@@@__crt_stdio_output@@IAE_NAAU_CRT_DOUBLE@@@Z 1002b7b0 f i libucrtd:output.obj
 0001:0002a800       ??$extract_argument_from_va_list@_J_J@?$positional_parameter_base@DV?$stream_output_adapter@D@__crt_stdio_output@@@__crt_stdio_output@@IAE_NAA_J@Z 1002b800 f i libucrtd:output.obj
 0001:0002a930       ??$extract_argument_from_va_list@_J_J@?$positional_parameter_base@DV?$string_output_adapter@D@__crt_stdio_output@@@__crt_stdio_output@@IAE_NAA_J@Z 1002b930 f i libucrtd:output.obj
 0001:0002aa60       ??$extract_argument_from_va_list@_J_J@?$positional_parameter_base@_WV?$stream_output_adapter@_W@__crt_stdio_output@@@__crt_stdio_output@@IAE_NAA_J@Z 1002ba60 f i libucrtd:output.obj
 0001:0002ab90       ??$extract_argument_from_va_list@_J_J@?$positional_parameter_base@_WV?$string_output_adapter@_W@__crt_stdio_output@@@__crt_stdio_output@@IAE_NAA_J@Z 1002bb90 f i libucrtd:output.obj
 0001:0002acc0       ??$extract_argument_from_va_list@_J_J@?$standard_base@DV?$stream_output_adapter@D@__crt_stdio_output@@@__crt_stdio_output@@IAE_NAA_J@Z 1002bcc0 f i libucrtd:output.obj
 0001:0002acf0       ??$extract_argument_from_va_list@_J_J@?$standard_base@DV?$string_output_adapter@D@__crt_stdio_output@@@__crt_stdio_output@@IAE_NAA_J@Z 1002bcf0 f i libucrtd:output.obj
 0001:0002ad20       ??$extract_argument_from_va_list@_J_J@?$standard_base@_WV?$stream_output_adapter@_W@__crt_stdio_output@@@__crt_stdio_output@@IAE_NAA_J@Z 1002bd20 f i libucrtd:output.obj
 0001:0002ad50       ??$extract_argument_from_va_list@_J_J@?$standard_base@_WV?$string_output_adapter@_W@__crt_stdio_output@@@__crt_stdio_output@@IAE_NAA_J@Z 1002bd50 f i libucrtd:output.obj
 0001:0002ad80       ??$extract_argument_from_va_list@_K_J@?$positional_parameter_base@DV?$stream_output_adapter@D@__crt_stdio_output@@@__crt_stdio_output@@IAE_NAA_J@Z 1002bd80 f i libucrtd:output.obj
 0001:0002aeb0       ??$extract_argument_from_va_list@_K_J@?$positional_parameter_base@DV?$string_output_adapter@D@__crt_stdio_output@@@__crt_stdio_output@@IAE_NAA_J@Z 1002beb0 f i libucrtd:output.obj
 0001:0002afe0       ??$extract_argument_from_va_list@_K_J@?$positional_parameter_base@_WV?$stream_output_adapter@_W@__crt_stdio_output@@@__crt_stdio_output@@IAE_NAA_J@Z 1002bfe0 f i libucrtd:output.obj
 0001:0002b110       ??$extract_argument_from_va_list@_K_J@?$positional_parameter_base@_WV?$string_output_adapter@_W@__crt_stdio_output@@@__crt_stdio_output@@IAE_NAA_J@Z 1002c110 f i libucrtd:output.obj
 0001:0002b240       ??$extract_argument_from_va_list@_K_J@?$standard_base@DV?$stream_output_adapter@D@__crt_stdio_output@@@__crt_stdio_output@@IAE_NAA_J@Z 1002c240 f i libucrtd:output.obj
 0001:0002b270       ??$extract_argument_from_va_list@_K_J@?$standard_base@DV?$string_output_adapter@D@__crt_stdio_output@@@__crt_stdio_output@@IAE_NAA_J@Z 1002c270 f i libucrtd:output.obj
 0001:0002b2a0       ??$extract_argument_from_va_list@_K_J@?$standard_base@_WV?$stream_output_adapter@_W@__crt_stdio_output@@@__crt_stdio_output@@IAE_NAA_J@Z 1002c2a0 f i libucrtd:output.obj
 0001:0002b2d0       ??$extract_argument_from_va_list@_K_J@?$standard_base@_WV?$string_output_adapter@_W@__crt_stdio_output@@@__crt_stdio_output@@IAE_NAA_J@Z 1002c2d0 f i libucrtd:output.obj
 0001:0002b300       ??$extract_argument_from_va_list@_W_W@?$positional_parameter_base@DV?$stream_output_adapter@D@__crt_stdio_output@@@__crt_stdio_output@@IAE_NAA_W@Z 1002c300 f i libucrtd:output.obj
 0001:0002b430       ??$extract_argument_from_va_list@_W_W@?$positional_parameter_base@DV?$string_output_adapter@D@__crt_stdio_output@@@__crt_stdio_output@@IAE_NAA_W@Z 1002c430 f i libucrtd:output.obj
 0001:0002b560       ??$extract_argument_from_va_list@_W_W@?$positional_parameter_base@_WV?$stream_output_adapter@_W@__crt_stdio_output@@@__crt_stdio_output@@IAE_NAA_W@Z 1002c560 f i libucrtd:output.obj
 0001:0002b690       ??$extract_argument_from_va_list@_W_W@?$positional_parameter_base@_WV?$string_output_adapter@_W@__crt_stdio_output@@@__crt_stdio_output@@IAE_NAA_W@Z 1002c690 f i libucrtd:output.obj
 0001:0002b7c0       ??$extract_argument_from_va_list@_W_W@?$standard_base@DV?$stream_output_adapter@D@__crt_stdio_output@@@__crt_stdio_output@@IAE_NAA_W@Z 1002c7c0 f i libucrtd:output.obj
 0001:0002b7f0       ??$extract_argument_from_va_list@_W_W@?$standard_base@DV?$string_output_adapter@D@__crt_stdio_output@@@__crt_stdio_output@@IAE_NAA_W@Z 1002c7f0 f i libucrtd:output.obj
 0001:0002b820       ??$extract_argument_from_va_list@_W_W@?$standard_base@_WV?$stream_output_adapter@_W@__crt_stdio_output@@@__crt_stdio_output@@IAE_NAA_W@Z 1002c820 f i libucrtd:output.obj
 0001:0002b850       ??$extract_argument_from_va_list@_W_W@?$standard_base@_WV?$string_output_adapter@_W@__crt_stdio_output@@@__crt_stdio_output@@IAE_NAA_W@Z 1002c850 f i libucrtd:output.obj
 0001:0002b880       ??$get_parameter_type@D@?$positional_parameter_base@DV?$stream_output_adapter@D@__crt_stdio_output@@@__crt_stdio_output@@CA?AW4parameter_type@01@PAD@Z 1002c880 f i libucrtd:output.obj
 0001:0002b890       ??$get_parameter_type@D@?$positional_parameter_base@DV?$string_output_adapter@D@__crt_stdio_output@@@__crt_stdio_output@@CA?AW4parameter_type@01@PAD@Z 1002c890 f i libucrtd:output.obj
 0001:0002b8a0       ??$get_parameter_type@D@?$positional_parameter_base@_WV?$stream_output_adapter@_W@__crt_stdio_output@@@__crt_stdio_output@@CA?AW4parameter_type@01@PAD@Z 1002c8a0 f i libucrtd:output.obj
 0001:0002b8b0       ??$get_parameter_type@D@?$positional_parameter_base@_WV?$string_output_adapter@_W@__crt_stdio_output@@@__crt_stdio_output@@CA?AW4parameter_type@01@PAD@Z 1002c8b0 f i libucrtd:output.obj
 0001:0002b8c0       ??$get_parameter_type@Uansi_string@?1??type_case_Z@?$output_processor@DV?$stream_output_adapter@D@__crt_stdio_output@@V?$positional_parameter_base@DV?$stream_output_adapter@D@__crt_stdio_output@@@2@@__crt_stdio_output@@AAE_NXZ@@?$positional_parameter_base@DV?$stream_output_adapter@D@__crt_stdio_output@@@__crt_stdio_output@@CA?AW4parameter_type@01@PAUansi_string@?1??type_case_Z@?$output_processor@DV?$stream_output_adapter@D@__crt_stdio_output@@V?$positional_parameter_base@DV?$stream_output_adapter@D@__crt_stdio_output@@@2@@1@AAE_NXZ@@Z 1002c8c0 f i libucrtd:output.obj
 0001:0002b8d0       ??$get_parameter_type@Uansi_string@?1??type_case_Z@?$output_processor@DV?$string_output_adapter@D@__crt_stdio_output@@V?$positional_parameter_base@DV?$string_output_adapter@D@__crt_stdio_output@@@2@@__crt_stdio_output@@AAE_NXZ@@?$positional_parameter_base@DV?$string_output_adapter@D@__crt_stdio_output@@@__crt_stdio_output@@CA?AW4parameter_type@01@PAUansi_string@?1??type_case_Z@?$output_processor@DV?$string_output_adapter@D@__crt_stdio_output@@V?$positional_parameter_base@DV?$string_output_adapter@D@__crt_stdio_output@@@2@@1@AAE_NXZ@@Z 1002c8d0 f i libucrtd:output.obj
 0001:0002b8e0       ??$get_parameter_type@Uansi_string@?1??type_case_Z@?$output_processor@_WV?$stream_output_adapter@_W@__crt_stdio_output@@V?$positional_parameter_base@_WV?$stream_output_adapter@_W@__crt_stdio_output@@@2@@__crt_stdio_output@@AAE_NXZ@@?$positional_parameter_base@_WV?$stream_output_adapter@_W@__crt_stdio_output@@@__crt_stdio_output@@CA?AW4parameter_type@01@PAUansi_string@?1??type_case_Z@?$output_processor@_WV?$stream_output_adapter@_W@__crt_stdio_output@@V?$positional_parameter_base@_WV?$stream_output_adapter@_W@__crt_stdio_output@@@2@@1@AAE_NXZ@@Z 1002c8e0 f i libucrtd:output.obj
 0001:0002b8f0       ??$get_parameter_type@Uansi_string@?1??type_case_Z@?$output_processor@_WV?$string_output_adapter@_W@__crt_stdio_output@@V?$positional_parameter_base@_WV?$string_output_adapter@_W@__crt_stdio_output@@@2@@__crt_stdio_output@@AAE_NXZ@@?$positional_parameter_base@_WV?$string_output_adapter@_W@__crt_stdio_output@@@__crt_stdio_output@@CA?AW4parameter_type@01@PAUansi_string@?1??type_case_Z@?$output_processor@_WV?$string_output_adapter@_W@__crt_stdio_output@@V?$positional_parameter_base@_WV?$string_output_adapter@_W@__crt_stdio_output@@@2@@1@AAE_NXZ@@Z 1002c8f0 f i libucrtd:output.obj
 0001:0002b900       ??$get_parameter_type@X@?$positional_parameter_base@DV?$stream_output_adapter@D@__crt_stdio_output@@@__crt_stdio_output@@CA?AW4parameter_type@01@PAX@Z 1002c900 f i libucrtd:output.obj
 0001:0002b910       ??$get_parameter_type@X@?$positional_parameter_base@DV?$string_output_adapter@D@__crt_stdio_output@@@__crt_stdio_output@@CA?AW4parameter_type@01@PAX@Z 1002c910 f i libucrtd:output.obj
 0001:0002b920       ??$get_parameter_type@X@?$positional_parameter_base@_WV?$stream_output_adapter@_W@__crt_stdio_output@@@__crt_stdio_output@@CA?AW4parameter_type@01@PAX@Z 1002c920 f i libucrtd:output.obj
 0001:0002b930       ??$get_parameter_type@X@?$positional_parameter_base@_WV?$string_output_adapter@_W@__crt_stdio_output@@@__crt_stdio_output@@CA?AW4parameter_type@01@PAX@Z 1002c930 f i libucrtd:output.obj
 0001:0002b940       ??$is_character_specifier@D@?$positional_parameter_base@DV?$stream_output_adapter@D@__crt_stdio_output@@@__crt_stdio_output@@CA_ND@Z 1002c940 f i libucrtd:output.obj
 0001:0002b970       ??$is_character_specifier@D@?$positional_parameter_base@DV?$string_output_adapter@D@__crt_stdio_output@@@__crt_stdio_output@@CA_ND@Z 1002c970 f i libucrtd:output.obj
 0001:0002b9a0       ??$is_character_specifier@_W@?$positional_parameter_base@_WV?$stream_output_adapter@_W@__crt_stdio_output@@@__crt_stdio_output@@CA_N_W@Z 1002c9a0 f i libucrtd:output.obj
 0001:0002b9d0       ??$is_character_specifier@_W@?$positional_parameter_base@_WV?$string_output_adapter@_W@__crt_stdio_output@@@__crt_stdio_output@@CA_N_W@Z 1002c9d0 f i libucrtd:output.obj
 0001:0002ba00       ??$is_integral_specifier@D@?$positional_parameter_base@DV?$stream_output_adapter@D@__crt_stdio_output@@@__crt_stdio_output@@CA_ND@Z 1002ca00 f i libucrtd:output.obj
 0001:0002ba60       ??$is_integral_specifier@D@?$positional_parameter_base@DV?$string_output_adapter@D@__crt_stdio_output@@@__crt_stdio_output@@CA_ND@Z 1002ca60 f i libucrtd:output.obj
 0001:0002bac0       ??$is_integral_specifier@_W@?$positional_parameter_base@_WV?$stream_output_adapter@_W@__crt_stdio_output@@@__crt_stdio_output@@CA_N_W@Z 1002cac0 f i libucrtd:output.obj
 0001:0002bb20       ??$is_integral_specifier@_W@?$positional_parameter_base@_WV?$string_output_adapter@_W@__crt_stdio_output@@@__crt_stdio_output@@CA_N_W@Z 1002cb20 f i libucrtd:output.obj
 0001:0002bb80       ??$is_pointer_specifier@D@?$positional_parameter_base@DV?$stream_output_adapter@D@__crt_stdio_output@@@__crt_stdio_output@@CA_ND@Z 1002cb80 f i libucrtd:output.obj
 0001:0002bbb0       ??$is_pointer_specifier@D@?$positional_parameter_base@DV?$string_output_adapter@D@__crt_stdio_output@@@__crt_stdio_output@@CA_ND@Z 1002cbb0 f i libucrtd:output.obj
 0001:0002bbe0       ??$is_pointer_specifier@_W@?$positional_parameter_base@_WV?$stream_output_adapter@_W@__crt_stdio_output@@@__crt_stdio_output@@CA_N_W@Z 1002cbe0 f i libucrtd:output.obj
 0001:0002bc10       ??$is_pointer_specifier@_W@?$positional_parameter_base@_WV?$string_output_adapter@_W@__crt_stdio_output@@@__crt_stdio_output@@CA_N_W@Z 1002cc10 f i libucrtd:output.obj
 0001:0002bc40       ??$is_string_specifier@D@?$positional_parameter_base@DV?$stream_output_adapter@D@__crt_stdio_output@@@__crt_stdio_output@@CA_ND@Z 1002cc40 f i libucrtd:output.obj
 0001:0002bc70       ??$is_string_specifier@D@?$positional_parameter_base@DV?$string_output_adapter@D@__crt_stdio_output@@@__crt_stdio_output@@CA_ND@Z 1002cc70 f i libucrtd:output.obj
 0001:0002bca0       ??$is_string_specifier@_W@?$positional_parameter_base@_WV?$stream_output_adapter@_W@__crt_stdio_output@@@__crt_stdio_output@@CA_N_W@Z 1002cca0 f i libucrtd:output.obj
 0001:0002bcd0       ??$is_string_specifier@_W@?$positional_parameter_base@_WV?$string_output_adapter@_W@__crt_stdio_output@@@__crt_stdio_output@@CA_N_W@Z 1002ccd0 f i libucrtd:output.obj
 0001:0002bd00       ??$is_wide_character_specifier@D@__crt_stdio_output@@YA_N_KDW4length_modifier@0@@Z 1002cd00 f i libucrtd:output.obj
 0001:0002bd80       ??$is_wide_character_specifier@_W@__crt_stdio_output@@YA_N_K_WW4length_modifier@0@@Z 1002cd80 f i libucrtd:output.obj
 0001:0002be40       ??$peek_va_arg@C@__crt_stdio_output@@YACPAD@Z 1002ce40 f i libucrtd:output.obj
 0001:0002be60       ??$peek_va_arg@E@__crt_stdio_output@@YAEPAD@Z 1002ce60 f i libucrtd:output.obj
 0001:0002be80       ??$peek_va_arg@F@__crt_stdio_output@@YAFPAD@Z 1002ce80 f i libucrtd:output.obj
 0001:0002bea0       ??$peek_va_arg@G@__crt_stdio_output@@YAGPAD@Z 1002cea0 f i libucrtd:output.obj
 0001:0002bec0       ??$peek_va_arg@H@__crt_stdio_output@@YAHPAD@Z 1002cec0 f i libucrtd:output.obj
 0001:0002bee0       ??$peek_va_arg@I@__crt_stdio_output@@YAIPAD@Z 1002cee0 f i libucrtd:output.obj
 0001:0002bf00       ??$peek_va_arg@PAD@__crt_stdio_output@@YAPADPAD@Z 1002cf00 f i libucrtd:output.obj
 0001:0002bf20       ??$peek_va_arg@PAUansi_string@?1??type_case_Z@?$output_processor@DV?$stream_output_adapter@D@__crt_stdio_output@@V?$positional_parameter_base@DV?$stream_output_adapter@D@__crt_stdio_output@@@2@@__crt_stdio_output@@AAE_NXZ@@__crt_stdio_output@@YAPAUansi_string@?1??type_case_Z@?$output_processor@DV?$stream_output_adapter@D@__crt_stdio_output@@V?$positional_parameter_base@DV?$stream_output_adapter@D@__crt_stdio_output@@@2@@0@AAE_NXZ@PAD@Z 1002cf20 f i libucrtd:output.obj
 0001:0002bf40       ??$peek_va_arg@PAUansi_string@?1??type_case_Z@?$output_processor@DV?$string_output_adapter@D@__crt_stdio_output@@V?$positional_parameter_base@DV?$string_output_adapter@D@__crt_stdio_output@@@2@@__crt_stdio_output@@AAE_NXZ@@__crt_stdio_output@@YAPAUansi_string@?1??type_case_Z@?$output_processor@DV?$string_output_adapter@D@__crt_stdio_output@@V?$positional_parameter_base@DV?$string_output_adapter@D@__crt_stdio_output@@@2@@0@AAE_NXZ@PAD@Z 1002cf40 f i libucrtd:output.obj
 0001:0002bf60       ??$peek_va_arg@PAUansi_string@?1??type_case_Z@?$output_processor@_WV?$stream_output_adapter@_W@__crt_stdio_output@@V?$positional_parameter_base@_WV?$stream_output_adapter@_W@__crt_stdio_output@@@2@@__crt_stdio_output@@AAE_NXZ@@__crt_stdio_output@@YAPAUansi_string@?1??type_case_Z@?$output_processor@_WV?$stream_output_adapter@_W@__crt_stdio_output@@V?$positional_parameter_base@_WV?$stream_output_adapter@_W@__crt_stdio_output@@@2@@0@AAE_NXZ@PAD@Z 1002cf60 f i libucrtd:output.obj
 0001:0002bf80       ??$peek_va_arg@PAUansi_string@?1??type_case_Z@?$output_processor@_WV?$string_output_adapter@_W@__crt_stdio_output@@V?$positional_parameter_base@_WV?$string_output_adapter@_W@__crt_stdio_output@@@2@@__crt_stdio_output@@AAE_NXZ@@__crt_stdio_output@@YAPAUansi_string@?1??type_case_Z@?$output_processor@_WV?$string_output_adapter@_W@__crt_stdio_output@@V?$positional_parameter_base@_WV?$string_output_adapter@_W@__crt_stdio_output@@@2@@0@AAE_NXZ@PAD@Z 1002cf80 f i libucrtd:output.obj
 0001:0002bfa0       ??$peek_va_arg@PAX@__crt_stdio_output@@YAPAXPAD@Z 1002cfa0 f i libucrtd:output.obj
 0001:0002bfc0       ??$peek_va_arg@U_CRT_DOUBLE@@@__crt_stdio_output@@YA?AU_CRT_DOUBLE@@PAD@Z 1002cfc0 f i libucrtd:output.obj
 0001:0002bfe0       ??$peek_va_arg@_J@__crt_stdio_output@@YA_JPAD@Z 1002cfe0 f i libucrtd:output.obj
 0001:0002c000       ??$peek_va_arg@_K@__crt_stdio_output@@YA_KPAD@Z 1002d000 f i libucrtd:output.obj
 0001:0002c020       ??$peek_va_arg@_W@__crt_stdio_output@@YA_WPAD@Z 1002d020 f i libucrtd:output.obj
 0001:0002c040       ??$puttc_nolock@ABDPAU_iobuf@@@?$__crt_char_traits@D@@SAHABD$$QAPAU_iobuf@@@Z 1002d040 f i libucrtd:output.obj
 0001:0002c060       ??$puttc_nolock@AB_WPAU_iobuf@@@?$__crt_char_traits@_W@@SAGAB_W$$QAPAU_iobuf@@@Z 1002d060 f i libucrtd:output.obj
 0001:0002c080       ??$read_va_arg@C@__crt_stdio_output@@YACAAPAD@Z 1002d080 f i libucrtd:output.obj
 0001:0002c0a0       ??$read_va_arg@E@__crt_stdio_output@@YAEAAPAD@Z 1002d0a0 f i libucrtd:output.obj
 0001:0002c0c0       ??$read_va_arg@F@__crt_stdio_output@@YAFAAPAD@Z 1002d0c0 f i libucrtd:output.obj
 0001:0002c0e0       ??$read_va_arg@G@__crt_stdio_output@@YAGAAPAD@Z 1002d0e0 f i libucrtd:output.obj
 0001:0002c100       ??$read_va_arg@H@__crt_stdio_output@@YAHAAPAD@Z 1002d100 f i libucrtd:output.obj
 0001:0002c120       ??$read_va_arg@I@__crt_stdio_output@@YAIAAPAD@Z 1002d120 f i libucrtd:output.obj
 0001:0002c140       ??$read_va_arg@PAD@__crt_stdio_output@@YAPADAAPAD@Z 1002d140 f i libucrtd:output.obj
 0001:0002c160       ??$read_va_arg@PAUansi_string@?1??type_case_Z@?$output_processor@DV?$stream_output_adapter@D@__crt_stdio_output@@V?$format_validation_base@DV?$stream_output_adapter@D@__crt_stdio_output@@@2@@__crt_stdio_output@@AAE_NXZ@@__crt_stdio_output@@YAPAUansi_string@?1??type_case_Z@?$output_processor@DV?$stream_output_adapter@D@__crt_stdio_output@@V?$format_validation_base@DV?$stream_output_adapter@D@__crt_stdio_output@@@2@@0@AAE_NXZ@AAPAD@Z 1002d160 f i libucrtd:output.obj
 0001:0002c180       ??$read_va_arg@PAUansi_string@?1??type_case_Z@?$output_processor@DV?$stream_output_adapter@D@__crt_stdio_output@@V?$positional_parameter_base@DV?$stream_output_adapter@D@__crt_stdio_output@@@2@@__crt_stdio_output@@AAE_NXZ@@__crt_stdio_output@@YAPAUansi_string@?1??type_case_Z@?$output_processor@DV?$stream_output_adapter@D@__crt_stdio_output@@V?$positional_parameter_base@DV?$stream_output_adapter@D@__crt_stdio_output@@@2@@0@AAE_NXZ@AAPAD@Z 1002d180 f i libucrtd:output.obj
 0001:0002c1a0       ??$read_va_arg@PAUansi_string@?1??type_case_Z@?$output_processor@DV?$stream_output_adapter@D@__crt_stdio_output@@V?$standard_base@DV?$stream_output_adapter@D@__crt_stdio_output@@@2@@__crt_stdio_output@@AAE_NXZ@@__crt_stdio_output@@YAPAUansi_string@?1??type_case_Z@?$output_processor@DV?$stream_output_adapter@D@__crt_stdio_output@@V?$standard_base@DV?$stream_output_adapter@D@__crt_stdio_output@@@2@@0@AAE_NXZ@AAPAD@Z 1002d1a0 f i libucrtd:output.obj
 0001:0002c1c0       ??$read_va_arg@PAUansi_string@?1??type_case_Z@?$output_processor@DV?$string_output_adapter@D@__crt_stdio_output@@V?$format_validation_base@DV?$string_output_adapter@D@__crt_stdio_output@@@2@@__crt_stdio_output@@AAE_NXZ@@__crt_stdio_output@@YAPAUansi_string@?1??type_case_Z@?$output_processor@DV?$string_output_adapter@D@__crt_stdio_output@@V?$format_validation_base@DV?$string_output_adapter@D@__crt_stdio_output@@@2@@0@AAE_NXZ@AAPAD@Z 1002d1c0 f i libucrtd:output.obj
 0001:0002c1e0       ??$read_va_arg@PAUansi_string@?1??type_case_Z@?$output_processor@DV?$string_output_adapter@D@__crt_stdio_output@@V?$positional_parameter_base@DV?$string_output_adapter@D@__crt_stdio_output@@@2@@__crt_stdio_output@@AAE_NXZ@@__crt_stdio_output@@YAPAUansi_string@?1??type_case_Z@?$output_processor@DV?$string_output_adapter@D@__crt_stdio_output@@V?$positional_parameter_base@DV?$string_output_adapter@D@__crt_stdio_output@@@2@@0@AAE_NXZ@AAPAD@Z 1002d1e0 f i libucrtd:output.obj
 0001:0002c200       ??$read_va_arg@PAUansi_string@?1??type_case_Z@?$output_processor@DV?$string_output_adapter@D@__crt_stdio_output@@V?$standard_base@DV?$string_output_adapter@D@__crt_stdio_output@@@2@@__crt_stdio_output@@AAE_NXZ@@__crt_stdio_output@@YAPAUansi_string@?1??type_case_Z@?$output_processor@DV?$string_output_adapter@D@__crt_stdio_output@@V?$standard_base@DV?$string_output_adapter@D@__crt_stdio_output@@@2@@0@AAE_NXZ@AAPAD@Z 1002d200 f i libucrtd:output.obj
 0001:0002c220       ??$read_va_arg@PAUansi_string@?1??type_case_Z@?$output_processor@_WV?$stream_output_adapter@_W@__crt_stdio_output@@V?$format_validation_base@_WV?$stream_output_adapter@_W@__crt_stdio_output@@@2@@__crt_stdio_output@@AAE_NXZ@@__crt_stdio_output@@YAPAUansi_string@?1??type_case_Z@?$output_processor@_WV?$stream_output_adapter@_W@__crt_stdio_output@@V?$format_validation_base@_WV?$stream_output_adapter@_W@__crt_stdio_output@@@2@@0@AAE_NXZ@AAPAD@Z 1002d220 f i libucrtd:output.obj
 0001:0002c240       ??$read_va_arg@PAUansi_string@?1??type_case_Z@?$output_processor@_WV?$stream_output_adapter@_W@__crt_stdio_output@@V?$positional_parameter_base@_WV?$stream_output_adapter@_W@__crt_stdio_output@@@2@@__crt_stdio_output@@AAE_NXZ@@__crt_stdio_output@@YAPAUansi_string@?1??type_case_Z@?$output_processor@_WV?$stream_output_adapter@_W@__crt_stdio_output@@V?$positional_parameter_base@_WV?$stream_output_adapter@_W@__crt_stdio_output@@@2@@0@AAE_NXZ@AAPAD@Z 1002d240 f i libucrtd:output.obj
 0001:0002c260       ??$read_va_arg@PAUansi_string@?1??type_case_Z@?$output_processor@_WV?$stream_output_adapter@_W@__crt_stdio_output@@V?$standard_base@_WV?$stream_output_adapter@_W@__crt_stdio_output@@@2@@__crt_stdio_output@@AAE_NXZ@@__crt_stdio_output@@YAPAUansi_string@?1??type_case_Z@?$output_processor@_WV?$stream_output_adapter@_W@__crt_stdio_output@@V?$standard_base@_WV?$stream_output_adapter@_W@__crt_stdio_output@@@2@@0@AAE_NXZ@AAPAD@Z 1002d260 f i libucrtd:output.obj
 0001:0002c280       ??$read_va_arg@PAUansi_string@?1??type_case_Z@?$output_processor@_WV?$string_output_adapter@_W@__crt_stdio_output@@V?$format_validation_base@_WV?$string_output_adapter@_W@__crt_stdio_output@@@2@@__crt_stdio_output@@AAE_NXZ@@__crt_stdio_output@@YAPAUansi_string@?1??type_case_Z@?$output_processor@_WV?$string_output_adapter@_W@__crt_stdio_output@@V?$format_validation_base@_WV?$string_output_adapter@_W@__crt_stdio_output@@@2@@0@AAE_NXZ@AAPAD@Z 1002d280 f i libucrtd:output.obj
 0001:0002c2a0       ??$read_va_arg@PAUansi_string@?1??type_case_Z@?$output_processor@_WV?$string_output_adapter@_W@__crt_stdio_output@@V?$positional_parameter_base@_WV?$string_output_adapter@_W@__crt_stdio_output@@@2@@__crt_stdio_output@@AAE_NXZ@@__crt_stdio_output@@YAPAUansi_string@?1??type_case_Z@?$output_processor@_WV?$string_output_adapter@_W@__crt_stdio_output@@V?$positional_parameter_base@_WV?$string_output_adapter@_W@__crt_stdio_output@@@2@@0@AAE_NXZ@AAPAD@Z 1002d2a0 f i libucrtd:output.obj
 0001:0002c2c0       ??$read_va_arg@PAUansi_string@?1??type_case_Z@?$output_processor@_WV?$string_output_adapter@_W@__crt_stdio_output@@V?$standard_base@_WV?$string_output_adapter@_W@__crt_stdio_output@@@2@@__crt_stdio_output@@AAE_NXZ@@__crt_stdio_output@@YAPAUansi_string@?1??type_case_Z@?$output_processor@_WV?$string_output_adapter@_W@__crt_stdio_output@@V?$standard_base@_WV?$string_output_adapter@_W@__crt_stdio_output@@@2@@0@AAE_NXZ@AAPAD@Z 1002d2c0 f i libucrtd:output.obj
 0001:0002c2e0       ??$read_va_arg@PAX@__crt_stdio_output@@YAPAXAAPAD@Z 1002d2e0 f i libucrtd:output.obj
 0001:0002c300       ??$read_va_arg@U_CRT_DOUBLE@@@__crt_stdio_output@@YA?AU_CRT_DOUBLE@@AAPAD@Z 1002d300 f i libucrtd:output.obj
 0001:0002c320       ??$read_va_arg@_J@__crt_stdio_output@@YA_JAAPAD@Z 1002d320 f i libucrtd:output.obj
 0001:0002c340       ??$read_va_arg@_K@__crt_stdio_output@@YA_KAAPAD@Z 1002d340 f i libucrtd:output.obj
 0001:0002c360       ??$read_va_arg@_W@__crt_stdio_output@@YA_WAAPAD@Z 1002d360 f i libucrtd:output.obj
 0001:0002c380       ??$scratch_count@D@formatting_buffer@__crt_stdio_output@@QBEIXZ 1002d380 f i libucrtd:output.obj
 0001:0002c3a0       ??$scratch_data@D@formatting_buffer@__crt_stdio_output@@QAEPADXZ 1002d3a0 f i libucrtd:output.obj
 0001:0002c3f0       ??$tcstol@AAPBDPAPADH@?$__crt_char_traits@D@@SAJAAPBD$$QAPAPAD$$QAH@Z 1002d3f0 f i libucrtd:output.obj
 0001:0002c420       ??$tcstol@AAPB_WPAPA_WH@?$__crt_char_traits@_W@@SAJAAPB_W$$QAPAPA_W$$QAH@Z 1002d420 f i libucrtd:output.obj
 0001:0002c450       ??$tcstol@PBDPAPADH@?$__crt_char_traits@D@@SAJ$$QAPBD$$QAPAPAD$$QAH@Z 1002d450 f i libucrtd:output.obj
 0001:0002c480       ??$tcstol@PB_WPAPA_WH@?$__crt_char_traits@_W@@SAJ$$QAPB_W$$QAPAPA_W$$QAH@Z 1002d480 f i libucrtd:output.obj
 0001:0002c4b0       ??$type_case_integer_parse_into_buffer@I@?$output_processor@DV?$stream_output_adapter@D@__crt_stdio_output@@V?$format_validation_base@DV?$stream_output_adapter@D@__crt_stdio_output@@@2@@__crt_stdio_output@@AAEXII_N@Z 1002d4b0 f i libucrtd:output.obj
 0001:0002c580       ??$type_case_integer_parse_into_buffer@I@?$output_processor@DV?$stream_output_adapter@D@__crt_stdio_output@@V?$positional_parameter_base@DV?$stream_output_adapter@D@__crt_stdio_output@@@2@@__crt_stdio_output@@AAEXII_N@Z 1002d580 f i libucrtd:output.obj
 0001:0002c650       ??$type_case_integer_parse_into_buffer@I@?$output_processor@DV?$stream_output_adapter@D@__crt_stdio_output@@V?$standard_base@DV?$stream_output_adapter@D@__crt_stdio_output@@@2@@__crt_stdio_output@@AAEXII_N@Z 1002d650 f i libucrtd:output.obj
 0001:0002c720       ??$type_case_integer_parse_into_buffer@I@?$output_processor@DV?$string_output_adapter@D@__crt_stdio_output@@V?$format_validation_base@DV?$string_output_adapter@D@__crt_stdio_output@@@2@@__crt_stdio_output@@AAEXII_N@Z 1002d720 f i libucrtd:output.obj
 0001:0002c7f0       ??$type_case_integer_parse_into_buffer@I@?$output_processor@DV?$string_output_adapter@D@__crt_stdio_output@@V?$positional_parameter_base@DV?$string_output_adapter@D@__crt_stdio_output@@@2@@__crt_stdio_output@@AAEXII_N@Z 1002d7f0 f i libucrtd:output.obj
 0001:0002c8c0       ??$type_case_integer_parse_into_buffer@I@?$output_processor@DV?$string_output_adapter@D@__crt_stdio_output@@V?$standard_base@DV?$string_output_adapter@D@__crt_stdio_output@@@2@@__crt_stdio_output@@AAEXII_N@Z 1002d8c0 f i libucrtd:output.obj
 0001:0002c990       ??$type_case_integer_parse_into_buffer@I@?$output_processor@_WV?$stream_output_adapter@_W@__crt_stdio_output@@V?$format_validation_base@_WV?$stream_output_adapter@_W@__crt_stdio_output@@@2@@__crt_stdio_output@@AAEXII_N@Z 1002d990 f i libucrtd:output.obj
 0001:0002ca70       ??$type_case_integer_parse_into_buffer@I@?$output_processor@_WV?$stream_output_adapter@_W@__crt_stdio_output@@V?$positional_parameter_base@_WV?$stream_output_adapter@_W@__crt_stdio_output@@@2@@__crt_stdio_output@@AAEXII_N@Z 1002da70 f i libucrtd:output.obj
 0001:0002cb50       ??$type_case_integer_parse_into_buffer@I@?$output_processor@_WV?$stream_output_adapter@_W@__crt_stdio_output@@V?$standard_base@_WV?$stream_output_adapter@_W@__crt_stdio_output@@@2@@__crt_stdio_output@@AAEXII_N@Z 1002db50 f i libucrtd:output.obj
 0001:0002cc30       ??$type_case_integer_parse_into_buffer@I@?$output_processor@_WV?$string_output_adapter@_W@__crt_stdio_output@@V?$format_validation_base@_WV?$string_output_adapter@_W@__crt_stdio_output@@@2@@__crt_stdio_output@@AAEXII_N@Z 1002dc30 f i libucrtd:output.obj
 0001:0002cd10       ??$type_case_integer_parse_into_buffer@I@?$output_processor@_WV?$string_output_adapter@_W@__crt_stdio_output@@V?$positional_parameter_base@_WV?$string_output_adapter@_W@__crt_stdio_output@@@2@@__crt_stdio_output@@AAEXII_N@Z 1002dd10 f i libucrtd:output.obj
 0001:0002cdf0       ??$type_case_integer_parse_into_buffer@I@?$output_processor@_WV?$string_output_adapter@_W@__crt_stdio_output@@V?$standard_base@_WV?$string_output_adapter@_W@__crt_stdio_output@@@2@@__crt_stdio_output@@AAEXII_N@Z 1002ddf0 f i libucrtd:output.obj
 0001:0002ced0       ??$type_case_integer_parse_into_buffer@_K@?$output_processor@DV?$stream_output_adapter@D@__crt_stdio_output@@V?$format_validation_base@DV?$stream_output_adapter@D@__crt_stdio_output@@@2@@__crt_stdio_output@@AAEX_KI_N@Z 1002ded0 f i libucrtd:output.obj
 0001:0002cfc0       ??$type_case_integer_parse_into_buffer@_K@?$output_processor@DV?$stream_output_adapter@D@__crt_stdio_output@@V?$positional_parameter_base@DV?$stream_output_adapter@D@__crt_stdio_output@@@2@@__crt_stdio_output@@AAEX_KI_N@Z 1002dfc0 f i libucrtd:output.obj
 0001:0002d0b0       ??$type_case_integer_parse_into_buffer@_K@?$output_processor@DV?$stream_output_adapter@D@__crt_stdio_output@@V?$standard_base@DV?$stream_output_adapter@D@__crt_stdio_output@@@2@@__crt_stdio_output@@AAEX_KI_N@Z 1002e0b0 f i libucrtd:output.obj
 0001:0002d1a0       ??$type_case_integer_parse_into_buffer@_K@?$output_processor@DV?$string_output_adapter@D@__crt_stdio_output@@V?$format_validation_base@DV?$string_output_adapter@D@__crt_stdio_output@@@2@@__crt_stdio_output@@AAEX_KI_N@Z 1002e1a0 f i libucrtd:output.obj
 0001:0002d290       ??$type_case_integer_parse_into_buffer@_K@?$output_processor@DV?$string_output_adapter@D@__crt_stdio_output@@V?$positional_parameter_base@DV?$string_output_adapter@D@__crt_stdio_output@@@2@@__crt_stdio_output@@AAEX_KI_N@Z 1002e290 f i libucrtd:output.obj
 0001:0002d380       ??$type_case_integer_parse_into_buffer@_K@?$output_processor@DV?$string_output_adapter@D@__crt_stdio_output@@V?$standard_base@DV?$string_output_adapter@D@__crt_stdio_output@@@2@@__crt_stdio_output@@AAEX_KI_N@Z 1002e380 f i libucrtd:output.obj
 0001:0002d470       ??$type_case_integer_parse_into_buffer@_K@?$output_processor@_WV?$stream_output_adapter@_W@__crt_stdio_output@@V?$format_validation_base@_WV?$stream_output_adapter@_W@__crt_stdio_output@@@2@@__crt_stdio_output@@AAEX_KI_N@Z 1002e470 f i libucrtd:output.obj
 0001:0002d570       ??$type_case_integer_parse_into_buffer@_K@?$output_processor@_WV?$stream_output_adapter@_W@__crt_stdio_output@@V?$positional_parameter_base@_WV?$stream_output_adapter@_W@__crt_stdio_output@@@2@@__crt_stdio_output@@AAEX_KI_N@Z 1002e570 f i libucrtd:output.obj
 0001:0002d670       ??$type_case_integer_parse_into_buffer@_K@?$output_processor@_WV?$stream_output_adapter@_W@__crt_stdio_output@@V?$standard_base@_WV?$stream_output_adapter@_W@__crt_stdio_output@@@2@@__crt_stdio_output@@AAEX_KI_N@Z 1002e670 f i libucrtd:output.obj
 0001:0002d770       ??$type_case_integer_parse_into_buffer@_K@?$output_processor@_WV?$string_output_adapter@_W@__crt_stdio_output@@V?$format_validation_base@_WV?$string_output_adapter@_W@__crt_stdio_output@@@2@@__crt_stdio_output@@AAEX_KI_N@Z 1002e770 f i libucrtd:output.obj
 0001:0002d870       ??$type_case_integer_parse_into_buffer@_K@?$output_processor@_WV?$string_output_adapter@_W@__crt_stdio_output@@V?$positional_parameter_base@_WV?$string_output_adapter@_W@__crt_stdio_output@@@2@@__crt_stdio_output@@AAEX_KI_N@Z 1002e870 f i libucrtd:output.obj
 0001:0002d970       ??$type_case_integer_parse_into_buffer@_K@?$output_processor@_WV?$string_output_adapter@_W@__crt_stdio_output@@V?$standard_base@_WV?$string_output_adapter@_W@__crt_stdio_output@@@2@@__crt_stdio_output@@AAEX_KI_N@Z 1002e970 f i libucrtd:output.obj
 0001:0002da70       ??$write_multiple_characters@V?$stream_output_adapter@D@__crt_stdio_output@@D@__crt_stdio_output@@YAXABV?$stream_output_adapter@D@0@DHQAH@Z 1002ea70 f i libucrtd:output.obj
 0001:0002dac0       ??$write_multiple_characters@V?$stream_output_adapter@_W@__crt_stdio_output@@D@__crt_stdio_output@@YAXABV?$stream_output_adapter@_W@0@DHQAH@Z 1002eac0 f i libucrtd:output.obj
 0001:0002db10       ??$write_multiple_characters@V?$string_output_adapter@D@__crt_stdio_output@@D@__crt_stdio_output@@YAXABV?$string_output_adapter@D@0@DHQAH@Z 1002eb10 f i libucrtd:output.obj
 0001:0002db60       ??$write_multiple_characters@V?$string_output_adapter@_W@__crt_stdio_output@@D@__crt_stdio_output@@YAXABV?$string_output_adapter@_W@0@DHQAH@Z 1002eb60 f i libucrtd:output.obj
 0001:0002deb0       ??0?$common_data@D@__crt_stdio_output@@IAE@XZ 1002eeb0 f i libucrtd:output.obj
 0001:0002df60       ??0?$common_data@_W@__crt_stdio_output@@IAE@XZ 1002ef60 f i libucrtd:output.obj
 0001:0002e010       ??0?$output_adapter_data@DV?$stream_output_adapter@D@__crt_stdio_output@@@__crt_stdio_output@@IAE@ABV?$stream_output_adapter@D@1@_KQBDQAU__crt_locale_pointers@@QAD@Z 1002f010 f i libucrtd:output.obj
 0001:0002e070       ??0?$output_adapter_data@DV?$string_output_adapter@D@__crt_stdio_output@@@__crt_stdio_output@@IAE@ABV?$string_output_adapter@D@1@_KQBDQAU__crt_locale_pointers@@QAD@Z 1002f070 f i libucrtd:output.obj
 0001:0002e0d0       ??0?$output_adapter_data@_WV?$stream_output_adapter@_W@__crt_stdio_output@@@__crt_stdio_output@@IAE@ABV?$stream_output_adapter@_W@1@_KQB_WQAU__crt_locale_pointers@@QAD@Z 1002f0d0 f i libucrtd:output.obj
 0001:0002e130       ??0?$output_adapter_data@_WV?$string_output_adapter@_W@__crt_stdio_output@@@__crt_stdio_output@@IAE@ABV?$string_output_adapter@_W@1@_KQB_WQAU__crt_locale_pointers@@QAD@Z 1002f130 f i libucrtd:output.obj
 0001:0002e190       ??0?$output_processor@DV?$stream_output_adapter@D@__crt_stdio_output@@V?$format_validation_base@DV?$stream_output_adapter@D@__crt_stdio_output@@@2@@__crt_stdio_output@@QAE@ABV?$stream_output_adapter@D@1@_KQBDQAU__crt_locale_pointers@@QAD@Z 1002f190 f i libucrtd:output.obj
 0001:0002e1c0       ??0?$output_processor@DV?$stream_output_adapter@D@__crt_stdio_output@@V?$positional_parameter_base@DV?$stream_output_adapter@D@__crt_stdio_output@@@2@@__crt_stdio_output@@QAE@ABV?$stream_output_adapter@D@1@_KQBDQAU__crt_locale_pointers@@QAD@Z 1002f1c0 f i libucrtd:output.obj
 0001:0002e1f0       ??0?$output_processor@DV?$stream_output_adapter@D@__crt_stdio_output@@V?$standard_base@DV?$stream_output_adapter@D@__crt_stdio_output@@@2@@__crt_stdio_output@@QAE@ABV?$stream_output_adapter@D@1@_KQBDQAU__crt_locale_pointers@@QAD@Z 1002f1f0 f i libucrtd:output.obj
 0001:0002e220       ??0?$output_processor@DV?$string_output_adapter@D@__crt_stdio_output@@V?$format_validation_base@DV?$string_output_adapter@D@__crt_stdio_output@@@2@@__crt_stdio_output@@QAE@ABV?$string_output_adapter@D@1@_KQBDQAU__crt_locale_pointers@@QAD@Z 1002f220 f i libucrtd:output.obj
 0001:0002e250       ??0?$output_processor@DV?$string_output_adapter@D@__crt_stdio_output@@V?$positional_parameter_base@DV?$string_output_adapter@D@__crt_stdio_output@@@2@@__crt_stdio_output@@QAE@ABV?$string_output_adapter@D@1@_KQBDQAU__crt_locale_pointers@@QAD@Z 1002f250 f i libucrtd:output.obj
 0001:0002e280       ??0?$output_processor@DV?$string_output_adapter@D@__crt_stdio_output@@V?$standard_base@DV?$string_output_adapter@D@__crt_stdio_output@@@2@@__crt_stdio_output@@QAE@ABV?$string_output_adapter@D@1@_KQBDQAU__crt_locale_pointers@@QAD@Z 1002f280 f i libucrtd:output.obj
 0001:0002e2b0       ??0?$output_processor@_WV?$stream_output_adapter@_W@__crt_stdio_output@@V?$format_validation_base@_WV?$stream_output_adapter@_W@__crt_stdio_output@@@2@@__crt_stdio_output@@QAE@ABV?$stream_output_adapter@_W@1@_KQB_WQAU__crt_locale_pointers@@QAD@Z 1002f2b0 f i libucrtd:output.obj
 0001:0002e2e0       ??0?$output_processor@_WV?$stream_output_adapter@_W@__crt_stdio_output@@V?$positional_parameter_base@_WV?$stream_output_adapter@_W@__crt_stdio_output@@@2@@__crt_stdio_output@@QAE@ABV?$stream_output_adapter@_W@1@_KQB_WQAU__crt_locale_pointers@@QAD@Z 1002f2e0 f i libucrtd:output.obj
 0001:0002e310       ??0?$output_processor@_WV?$stream_output_adapter@_W@__crt_stdio_output@@V?$standard_base@_WV?$stream_output_adapter@_W@__crt_stdio_output@@@2@@__crt_stdio_output@@QAE@ABV?$stream_output_adapter@_W@1@_KQB_WQAU__crt_locale_pointers@@QAD@Z 1002f310 f i libucrtd:output.obj
 0001:0002e340       ??0?$output_processor@_WV?$string_output_adapter@_W@__crt_stdio_output@@V?$format_validation_base@_WV?$string_output_adapter@_W@__crt_stdio_output@@@2@@__crt_stdio_output@@QAE@ABV?$string_output_adapter@_W@1@_KQB_WQAU__crt_locale_pointers@@QAD@Z 1002f340 f i libucrtd:output.obj
 0001:0002e370       ??0?$output_processor@_WV?$string_output_adapter@_W@__crt_stdio_output@@V?$positional_parameter_base@_WV?$string_output_adapter@_W@__crt_stdio_output@@@2@@__crt_stdio_output@@QAE@ABV?$string_output_adapter@_W@1@_KQB_WQAU__crt_locale_pointers@@QAD@Z 1002f370 f i libucrtd:output.obj
 0001:0002e3a0       ??0?$output_processor@_WV?$string_output_adapter@_W@__crt_stdio_output@@V?$standard_base@_WV?$string_output_adapter@_W@__crt_stdio_output@@@2@@__crt_stdio_output@@QAE@ABV?$string_output_adapter@_W@1@_KQB_WQAU__crt_locale_pointers@@QAD@Z 1002f3a0 f i libucrtd:output.obj
 0001:0002e3d0       ??0?$stream_output_adapter@D@__crt_stdio_output@@QAE@QAU_iobuf@@@Z 1002f3d0 f i libucrtd:output.obj
 0001:0002e3f0       ??0?$stream_output_adapter@_W@__crt_stdio_output@@QAE@QAU_iobuf@@@Z 1002f3f0 f i libucrtd:output.obj
 0001:0002e410       ??0?$string_output_adapter@D@__crt_stdio_output@@QAE@QAU?$string_output_adapter_context@D@1@@Z 1002f410 f i libucrtd:output.obj
 0001:0002e430       ??0?$string_output_adapter@_W@__crt_stdio_output@@QAE@QAU?$string_output_adapter_context@_W@1@@Z 1002f430 f i libucrtd:output.obj
 0001:0002e450       ??0_LocaleUpdate@@QAE@QAU__crt_locale_pointers@@@Z 1002f450 f i libucrtd:output.obj
 0001:0002e520       ??0__acrt_stdio_temporary_buffering_guard@@QAE@QAU_iobuf@@@Z 1002f520 f i libucrtd:output.obj
 0001:0002e550       ??0__crt_deferred_errno_cache@@QAE@XZ 1002f550 f i libucrtd:output.obj
 0001:0002e570       ??0__crt_errno_guard@@QAE@QAH@Z 1002f570 f i libucrtd:output.obj
 0001:0002e5a0       ??0__crt_stdio_stream@@QAE@QAU_iobuf@@@Z 1002f5a0 f i libucrtd:output.obj
 0001:0002e5c0       ??0formatting_buffer@__crt_stdio_output@@QAE@XZ 1002f5c0 f i libucrtd:output.obj
 0001:0002e5f0       ??1?$common_data@D@__crt_stdio_output@@QAE@XZ 1002f5f0 f i libucrtd:output.obj
 0001:0002e610       ??1?$common_data@_W@__crt_stdio_output@@QAE@XZ 1002f610 f i libucrtd:output.obj
 0001:0002e630       ??1?$format_validation_base@DV?$stream_output_adapter@D@__crt_stdio_output@@@__crt_stdio_output@@QAE@XZ 1002f630 f i libucrtd:output.obj
 0001:0002e650       ??1?$format_validation_base@DV?$string_output_adapter@D@__crt_stdio_output@@@__crt_stdio_output@@QAE@XZ 1002f650 f i libucrtd:output.obj
 0001:0002e670       ??1?$format_validation_base@_WV?$stream_output_adapter@_W@__crt_stdio_output@@@__crt_stdio_output@@QAE@XZ 1002f670 f i libucrtd:output.obj
 0001:0002e690       ??1?$format_validation_base@_WV?$string_output_adapter@_W@__crt_stdio_output@@@__crt_stdio_output@@QAE@XZ 1002f690 f i libucrtd:output.obj
 0001:0002e6b0       ??1?$output_adapter_data@DV?$stream_output_adapter@D@__crt_stdio_output@@@__crt_stdio_output@@QAE@XZ 1002f6b0 f i libucrtd:output.obj
 0001:0002e6d0       ??1?$output_adapter_data@DV?$string_output_adapter@D@__crt_stdio_output@@@__crt_stdio_output@@QAE@XZ 1002f6d0 f i libucrtd:output.obj
 0001:0002e6f0       ??1?$output_adapter_data@_WV?$stream_output_adapter@_W@__crt_stdio_output@@@__crt_stdio_output@@QAE@XZ 1002f6f0 f i libucrtd:output.obj
 0001:0002e710       ??1?$output_adapter_data@_WV?$string_output_adapter@_W@__crt_stdio_output@@@__crt_stdio_output@@QAE@XZ 1002f710 f i libucrtd:output.obj
 0001:0002e730       ??1?$output_processor@DV?$stream_output_adapter@D@__crt_stdio_output@@V?$format_validation_base@DV?$stream_output_adapter@D@__crt_stdio_output@@@2@@__crt_stdio_output@@QAE@XZ 1002f730 f i libucrtd:output.obj
 0001:0002e750       ??1?$output_processor@DV?$stream_output_adapter@D@__crt_stdio_output@@V?$positional_parameter_base@DV?$stream_output_adapter@D@__crt_stdio_output@@@2@@__crt_stdio_output@@QAE@XZ 1002f750 f i libucrtd:output.obj
 0001:0002e770       ??1?$output_processor@DV?$stream_output_adapter@D@__crt_stdio_output@@V?$standard_base@DV?$stream_output_adapter@D@__crt_stdio_output@@@2@@__crt_stdio_output@@QAE@XZ 1002f770 f i libucrtd:output.obj
 0001:0002e790       ??1?$output_processor@DV?$string_output_adapter@D@__crt_stdio_output@@V?$format_validation_base@DV?$string_output_adapter@D@__crt_stdio_output@@@2@@__crt_stdio_output@@QAE@XZ 1002f790 f i libucrtd:output.obj
 0001:0002e7b0       ??1?$output_processor@DV?$string_output_adapter@D@__crt_stdio_output@@V?$positional_parameter_base@DV?$string_output_adapter@D@__crt_stdio_output@@@2@@__crt_stdio_output@@QAE@XZ 1002f7b0 f i libucrtd:output.obj
 0001:0002e7d0       ??1?$output_processor@DV?$string_output_adapter@D@__crt_stdio_output@@V?$standard_base@DV?$string_output_adapter@D@__crt_stdio_output@@@2@@__crt_stdio_output@@QAE@XZ 1002f7d0 f i libucrtd:output.obj
 0001:0002e7f0       ??1?$output_processor@_WV?$stream_output_adapter@_W@__crt_stdio_output@@V?$format_validation_base@_WV?$stream_output_adapter@_W@__crt_stdio_output@@@2@@__crt_stdio_output@@QAE@XZ 1002f7f0 f i libucrtd:output.obj
 0001:0002e810       ??1?$output_processor@_WV?$stream_output_adapter@_W@__crt_stdio_output@@V?$positional_parameter_base@_WV?$stream_output_adapter@_W@__crt_stdio_output@@@2@@__crt_stdio_output@@QAE@XZ 1002f810 f i libucrtd:output.obj
 0001:0002e830       ??1?$output_processor@_WV?$stream_output_adapter@_W@__crt_stdio_output@@V?$standard_base@_WV?$stream_output_adapter@_W@__crt_stdio_output@@@2@@__crt_stdio_output@@QAE@XZ 1002f830 f i libucrtd:output.obj
 0001:0002e850       ??1?$output_processor@_WV?$string_output_adapter@_W@__crt_stdio_output@@V?$format_validation_base@_WV?$string_output_adapter@_W@__crt_stdio_output@@@2@@__crt_stdio_output@@QAE@XZ 1002f850 f i libucrtd:output.obj
 0001:0002e870       ??1?$output_processor@_WV?$string_output_adapter@_W@__crt_stdio_output@@V?$positional_parameter_base@_WV?$string_output_adapter@_W@__crt_stdio_output@@@2@@__crt_stdio_output@@QAE@XZ 1002f870 f i libucrtd:output.obj
 0001:0002e890       ??1?$output_processor@_WV?$string_output_adapter@_W@__crt_stdio_output@@V?$standard_base@_WV?$string_output_adapter@_W@__crt_stdio_output@@@2@@__crt_stdio_output@@QAE@XZ 1002f890 f i libucrtd:output.obj
 0001:0002e8b0       ??1?$positional_parameter_base@DV?$stream_output_adapter@D@__crt_stdio_output@@@__crt_stdio_output@@QAE@XZ 1002f8b0 f i libucrtd:output.obj
 0001:0002e8d0       ??1?$positional_parameter_base@DV?$string_output_adapter@D@__crt_stdio_output@@@__crt_stdio_output@@QAE@XZ 1002f8d0 f i libucrtd:output.obj
 0001:0002e8f0       ??1?$positional_parameter_base@_WV?$stream_output_adapter@_W@__crt_stdio_output@@@__crt_stdio_output@@QAE@XZ 1002f8f0 f i libucrtd:output.obj
 0001:0002e910       ??1?$positional_parameter_base@_WV?$string_output_adapter@_W@__crt_stdio_output@@@__crt_stdio_output@@QAE@XZ 1002f910 f i libucrtd:output.obj
 0001:0002e930       ??1?$standard_base@DV?$stream_output_adapter@D@__crt_stdio_output@@@__crt_stdio_output@@QAE@XZ 1002f930 f i libucrtd:output.obj
 0001:0002e950       ??1?$standard_base@DV?$string_output_adapter@D@__crt_stdio_output@@@__crt_stdio_output@@QAE@XZ 1002f950 f i libucrtd:output.obj
 0001:0002e970       ??1?$standard_base@_WV?$stream_output_adapter@_W@__crt_stdio_output@@@__crt_stdio_output@@QAE@XZ 1002f970 f i libucrtd:output.obj
 0001:0002e990       ??1?$standard_base@_WV?$string_output_adapter@_W@__crt_stdio_output@@@__crt_stdio_output@@QAE@XZ 1002f990 f i libucrtd:output.obj
 0001:0002e9b0       ??1_LocaleUpdate@@QAE@XZ   1002f9b0 f i libucrtd:output.obj
 0001:0002e9e0       ??1__acrt_stdio_temporary_buffering_guard@@QAE@XZ 1002f9e0 f i libucrtd:output.obj
 0001:0002ea10       ??1__crt_errno_guard@@QAE@XZ 1002fa10 f i libucrtd:output.obj
 0001:0002ea40       ??1formatting_buffer@__crt_stdio_output@@QAE@XZ 1002fa40 f i libucrtd:output.obj
 0001:0002ea60       ??4?$__crt_unique_heap_ptr@DU__crt_internal_free_policy@@@@QAEAAV0@$$QAV0@@Z 1002fa60 f i libucrtd:output.obj
 0001:0002ea90       ??A?$spectre_mitigated_lookup_table@Ustate_transition_pair@__crt_stdio_output@@$0IA@@__crt_stdio_output@@QBEABUstate_transition_pair@1@I@Z 1002fa90 f i libucrtd:output.obj
 0001:0002eab0       ??C__crt_stdio_stream@@QBEPAU__crt_stdio_stream_data@@XZ 1002fab0 f i libucrtd:output.obj
 0001:0002f1f0       ?GetLocaleT@_LocaleUpdate@@QAEPAU__crt_locale_pointers@@XZ 100301f0 f i libucrtd:output.obj
 0001:0002f210       ?adjust_hexit@?$output_processor@DV?$stream_output_adapter@D@__crt_stdio_output@@V?$format_validation_base@DV?$stream_output_adapter@D@__crt_stdio_output@@@2@@__crt_stdio_output@@CADH_N@Z 10030210 f i libucrtd:output.obj
 0001:0002f250       ?adjust_hexit@?$output_processor@DV?$stream_output_adapter@D@__crt_stdio_output@@V?$positional_parameter_base@DV?$stream_output_adapter@D@__crt_stdio_output@@@2@@__crt_stdio_output@@CADH_N@Z 10030250 f i libucrtd:output.obj
 0001:0002f290       ?adjust_hexit@?$output_processor@DV?$stream_output_adapter@D@__crt_stdio_output@@V?$standard_base@DV?$stream_output_adapter@D@__crt_stdio_output@@@2@@__crt_stdio_output@@CADH_N@Z 10030290 f i libucrtd:output.obj
 0001:0002f2d0       ?adjust_hexit@?$output_processor@DV?$string_output_adapter@D@__crt_stdio_output@@V?$format_validation_base@DV?$string_output_adapter@D@__crt_stdio_output@@@2@@__crt_stdio_output@@CADH_N@Z 100302d0 f i libucrtd:output.obj
 0001:0002f310       ?adjust_hexit@?$output_processor@DV?$string_output_adapter@D@__crt_stdio_output@@V?$positional_parameter_base@DV?$string_output_adapter@D@__crt_stdio_output@@@2@@__crt_stdio_output@@CADH_N@Z 10030310 f i libucrtd:output.obj
 0001:0002f350       ?adjust_hexit@?$output_processor@DV?$string_output_adapter@D@__crt_stdio_output@@V?$standard_base@DV?$string_output_adapter@D@__crt_stdio_output@@@2@@__crt_stdio_output@@CADH_N@Z 10030350 f i libucrtd:output.obj
 0001:0002f390       ?adjust_hexit@?$output_processor@_WV?$stream_output_adapter@_W@__crt_stdio_output@@V?$format_validation_base@_WV?$stream_output_adapter@_W@__crt_stdio_output@@@2@@__crt_stdio_output@@CADH_N@Z 10030390 f i libucrtd:output.obj
 0001:0002f3d0       ?adjust_hexit@?$output_processor@_WV?$stream_output_adapter@_W@__crt_stdio_output@@V?$positional_parameter_base@_WV?$stream_output_adapter@_W@__crt_stdio_output@@@2@@__crt_stdio_output@@CADH_N@Z 100303d0 f i libucrtd:output.obj
 0001:0002f410       ?adjust_hexit@?$output_processor@_WV?$stream_output_adapter@_W@__crt_stdio_output@@V?$standard_base@_WV?$stream_output_adapter@_W@__crt_stdio_output@@@2@@__crt_stdio_output@@CADH_N@Z 10030410 f i libucrtd:output.obj
 0001:0002f450       ?adjust_hexit@?$output_processor@_WV?$string_output_adapter@_W@__crt_stdio_output@@V?$format_validation_base@_WV?$string_output_adapter@_W@__crt_stdio_output@@@2@@__crt_stdio_output@@CADH_N@Z 10030450 f i libucrtd:output.obj
 0001:0002f490       ?adjust_hexit@?$output_processor@_WV?$string_output_adapter@_W@__crt_stdio_output@@V?$positional_parameter_base@_WV?$string_output_adapter@_W@__crt_stdio_output@@@2@@__crt_stdio_output@@CADH_N@Z 10030490 f i libucrtd:output.obj
 0001:0002f4d0       ?adjust_hexit@?$output_processor@_WV?$string_output_adapter@_W@__crt_stdio_output@@V?$standard_base@_WV?$string_output_adapter@_W@__crt_stdio_output@@@2@@__crt_stdio_output@@CADH_N@Z 100304d0 f i libucrtd:output.obj
 0001:0002f510       ?advance_to_next_pass@?$positional_parameter_base@DV?$stream_output_adapter@D@__crt_stdio_output@@@__crt_stdio_output@@IAE_NXZ 10030510 f i libucrtd:output.obj
 0001:0002f5b0       ?advance_to_next_pass@?$positional_parameter_base@DV?$string_output_adapter@D@__crt_stdio_output@@@__crt_stdio_output@@IAE_NXZ 100305b0 f i libucrtd:output.obj
 0001:0002f650       ?advance_to_next_pass@?$positional_parameter_base@_WV?$stream_output_adapter@_W@__crt_stdio_output@@@__crt_stdio_output@@IAE_NXZ 10030650 f i libucrtd:output.obj
 0001:0002f6f0       ?advance_to_next_pass@?$positional_parameter_base@_WV?$string_output_adapter@_W@__crt_stdio_output@@@__crt_stdio_output@@IAE_NXZ 100306f0 f i libucrtd:output.obj
 0001:0002f790       ?advance_to_next_pass@?$standard_base@DV?$stream_output_adapter@D@__crt_stdio_output@@@__crt_stdio_output@@IAE_NXZ 10030790 f i libucrtd:output.obj
 0001:0002f7e0       ?advance_to_next_pass@?$standard_base@DV?$string_output_adapter@D@__crt_stdio_output@@@__crt_stdio_output@@IAE_NXZ 100307e0 f i libucrtd:output.obj
 0001:0002f830       ?advance_to_next_pass@?$standard_base@_WV?$stream_output_adapter@_W@__crt_stdio_output@@@__crt_stdio_output@@IAE_NXZ 10030830 f i libucrtd:output.obj
 0001:0002f880       ?advance_to_next_pass@?$standard_base@_WV?$string_output_adapter@_W@__crt_stdio_output@@@__crt_stdio_output@@IAE_NXZ 10030880 f i libucrtd:output.obj
 0001:0002f8d0       ?crop_zeroes@__crt_stdio_output@@YAXPADQAU__crt_locale_pointers@@@Z 100308d0 f i libucrtd:output.obj
 0001:0002f9d0       ?find_next_state@?$output_processor@DV?$stream_output_adapter@D@__crt_stdio_output@@V?$format_validation_base@DV?$stream_output_adapter@D@__crt_stdio_output@@@2@@__crt_stdio_output@@ABE?AW4state@2@DW432@@Z 100309d0 f i libucrtd:output.obj
 0001:0002fa40       ?find_next_state@?$output_processor@DV?$stream_output_adapter@D@__crt_stdio_output@@V?$positional_parameter_base@DV?$stream_output_adapter@D@__crt_stdio_output@@@2@@__crt_stdio_output@@ABE?AW4state@2@DW432@@Z 10030a40 f i libucrtd:output.obj
 0001:0002fab0       ?find_next_state@?$output_processor@DV?$stream_output_adapter@D@__crt_stdio_output@@V?$standard_base@DV?$stream_output_adapter@D@__crt_stdio_output@@@2@@__crt_stdio_output@@ABE?AW4state@2@DW432@@Z 10030ab0 f i libucrtd:output.obj
 0001:0002fb20       ?find_next_state@?$output_processor@DV?$string_output_adapter@D@__crt_stdio_output@@V?$format_validation_base@DV?$string_output_adapter@D@__crt_stdio_output@@@2@@__crt_stdio_output@@ABE?AW4state@2@DW432@@Z 10030b20 f i libucrtd:output.obj
 0001:0002fb90       ?find_next_state@?$output_processor@DV?$string_output_adapter@D@__crt_stdio_output@@V?$positional_parameter_base@DV?$string_output_adapter@D@__crt_stdio_output@@@2@@__crt_stdio_output@@ABE?AW4state@2@DW432@@Z 10030b90 f i libucrtd:output.obj
 0001:0002fc00       ?find_next_state@?$output_processor@DV?$string_output_adapter@D@__crt_stdio_output@@V?$standard_base@DV?$string_output_adapter@D@__crt_stdio_output@@@2@@__crt_stdio_output@@ABE?AW4state@2@DW432@@Z 10030c00 f i libucrtd:output.obj
 0001:0002fc70       ?find_next_state@?$output_processor@_WV?$stream_output_adapter@_W@__crt_stdio_output@@V?$format_validation_base@_WV?$stream_output_adapter@_W@__crt_stdio_output@@@2@@__crt_stdio_output@@ABE?AW4state@2@_WW432@@Z 10030c70 f i libucrtd:output.obj
 0001:0002fce0       ?find_next_state@?$output_processor@_WV?$stream_output_adapter@_W@__crt_stdio_output@@V?$positional_parameter_base@_WV?$stream_output_adapter@_W@__crt_stdio_output@@@2@@__crt_stdio_output@@ABE?AW4state@2@_WW432@@Z 10030ce0 f i libucrtd:output.obj
 0001:0002fd50       ?find_next_state@?$output_processor@_WV?$stream_output_adapter@_W@__crt_stdio_output@@V?$standard_base@_WV?$stream_output_adapter@_W@__crt_stdio_output@@@2@@__crt_stdio_output@@ABE?AW4state@2@_WW432@@Z 10030d50 f i libucrtd:output.obj
 0001:0002fdc0       ?find_next_state@?$output_processor@_WV?$string_output_adapter@_W@__crt_stdio_output@@V?$format_validation_base@_WV?$string_output_adapter@_W@__crt_stdio_output@@@2@@__crt_stdio_output@@ABE?AW4state@2@_WW432@@Z 10030dc0 f i libucrtd:output.obj
 0001:0002fe30       ?find_next_state@?$output_processor@_WV?$string_output_adapter@_W@__crt_stdio_output@@V?$positional_parameter_base@_WV?$string_output_adapter@_W@__crt_stdio_output@@@2@@__crt_stdio_output@@ABE?AW4state@2@_WW432@@Z 10030e30 f i libucrtd:output.obj
 0001:0002fea0       ?find_next_state@?$output_processor@_WV?$string_output_adapter@_W@__crt_stdio_output@@V?$standard_base@_WV?$string_output_adapter@_W@__crt_stdio_output@@@2@@__crt_stdio_output@@ABE?AW4state@2@_WW432@@Z 10030ea0 f i libucrtd:output.obj
 0001:0002ff10       ?force_decimal_point@__crt_stdio_output@@YAXPADQAU__crt_locale_pointers@@@Z 10030f10 f i libucrtd:output.obj
 0001:0002ffe0       ?get@__crt_deferred_errno_cache@@QAEAAHXZ 10030fe0 f i libucrtd:output.obj
 0001:00030010       ?get_flags@__crt_stdio_stream@@QBEJXZ 10031010 f i libucrtd:output.obj
 0001:00030030       ?get_parameter_type@?$positional_parameter_base@DV?$stream_output_adapter@D@__crt_stdio_output@@@__crt_stdio_output@@CA?AW4parameter_type@12@F@Z 10031030 f i libucrtd:output.obj
 0001:00030040       ?get_parameter_type@?$positional_parameter_base@DV?$stream_output_adapter@D@__crt_stdio_output@@@__crt_stdio_output@@CA?AW4parameter_type@12@G@Z 10031040 f i libucrtd:output.obj
 0001:00030050       ?get_parameter_type@?$positional_parameter_base@DV?$stream_output_adapter@D@__crt_stdio_output@@@__crt_stdio_output@@CA?AW4parameter_type@12@H@Z 10031050 f i libucrtd:output.obj
 0001:00030060       ?get_parameter_type@?$positional_parameter_base@DV?$stream_output_adapter@D@__crt_stdio_output@@@__crt_stdio_output@@CA?AW4parameter_type@12@I@Z 10031060 f i libucrtd:output.obj
 0001:00030070       ?get_parameter_type@?$positional_parameter_base@DV?$stream_output_adapter@D@__crt_stdio_output@@@__crt_stdio_output@@CA?AW4parameter_type@12@U_CRT_DOUBLE@@@Z 10031070 f i libucrtd:output.obj
 0001:00030080       ?get_parameter_type@?$positional_parameter_base@DV?$stream_output_adapter@D@__crt_stdio_output@@@__crt_stdio_output@@CA?AW4parameter_type@12@_J@Z 10031080 f i libucrtd:output.obj
 0001:00030090       ?get_parameter_type@?$positional_parameter_base@DV?$stream_output_adapter@D@__crt_stdio_output@@@__crt_stdio_output@@CA?AW4parameter_type@12@_K@Z 10031090 f i libucrtd:output.obj
 0001:000300a0       ?get_parameter_type@?$positional_parameter_base@DV?$stream_output_adapter@D@__crt_stdio_output@@@__crt_stdio_output@@CA?AW4parameter_type@12@_W@Z 100310a0 f i libucrtd:output.obj
 0001:000300b0       ?get_parameter_type@?$positional_parameter_base@DV?$string_output_adapter@D@__crt_stdio_output@@@__crt_stdio_output@@CA?AW4parameter_type@12@F@Z 100310b0 f i libucrtd:output.obj
 0001:000300c0       ?get_parameter_type@?$positional_parameter_base@DV?$string_output_adapter@D@__crt_stdio_output@@@__crt_stdio_output@@CA?AW4parameter_type@12@G@Z 100310c0 f i libucrtd:output.obj
 0001:000300d0       ?get_parameter_type@?$positional_parameter_base@DV?$string_output_adapter@D@__crt_stdio_output@@@__crt_stdio_output@@CA?AW4parameter_type@12@H@Z 100310d0 f i libucrtd:output.obj
 0001:000300e0       ?get_parameter_type@?$positional_parameter_base@DV?$string_output_adapter@D@__crt_stdio_output@@@__crt_stdio_output@@CA?AW4parameter_type@12@I@Z 100310e0 f i libucrtd:output.obj
 0001:000300f0       ?get_parameter_type@?$positional_parameter_base@DV?$string_output_adapter@D@__crt_stdio_output@@@__crt_stdio_output@@CA?AW4parameter_type@12@U_CRT_DOUBLE@@@Z 100310f0 f i libucrtd:output.obj
 0001:00030100       ?get_parameter_type@?$positional_parameter_base@DV?$string_output_adapter@D@__crt_stdio_output@@@__crt_stdio_output@@CA?AW4parameter_type@12@_J@Z 10031100 f i libucrtd:output.obj
 0001:00030110       ?get_parameter_type@?$positional_parameter_base@DV?$string_output_adapter@D@__crt_stdio_output@@@__crt_stdio_output@@CA?AW4parameter_type@12@_K@Z 10031110 f i libucrtd:output.obj
 0001:00030120       ?get_parameter_type@?$positional_parameter_base@DV?$string_output_adapter@D@__crt_stdio_output@@@__crt_stdio_output@@CA?AW4parameter_type@12@_W@Z 10031120 f i libucrtd:output.obj
 0001:00030130       ?get_parameter_type@?$positional_parameter_base@_WV?$stream_output_adapter@_W@__crt_stdio_output@@@__crt_stdio_output@@CA?AW4parameter_type@12@F@Z 10031130 f i libucrtd:output.obj
 0001:00030140       ?get_parameter_type@?$positional_parameter_base@_WV?$stream_output_adapter@_W@__crt_stdio_output@@@__crt_stdio_output@@CA?AW4parameter_type@12@G@Z 10031140 f i libucrtd:output.obj
 0001:00030150       ?get_parameter_type@?$positional_parameter_base@_WV?$stream_output_adapter@_W@__crt_stdio_output@@@__crt_stdio_output@@CA?AW4parameter_type@12@H@Z 10031150 f i libucrtd:output.obj
 0001:00030160       ?get_parameter_type@?$positional_parameter_base@_WV?$stream_output_adapter@_W@__crt_stdio_output@@@__crt_stdio_output@@CA?AW4parameter_type@12@I@Z 10031160 f i libucrtd:output.obj
 0001:00030170       ?get_parameter_type@?$positional_parameter_base@_WV?$stream_output_adapter@_W@__crt_stdio_output@@@__crt_stdio_output@@CA?AW4parameter_type@12@U_CRT_DOUBLE@@@Z 10031170 f i libucrtd:output.obj
 0001:00030180       ?get_parameter_type@?$positional_parameter_base@_WV?$stream_output_adapter@_W@__crt_stdio_output@@@__crt_stdio_output@@CA?AW4parameter_type@12@_J@Z 10031180 f i libucrtd:output.obj
 0001:00030190       ?get_parameter_type@?$positional_parameter_base@_WV?$stream_output_adapter@_W@__crt_stdio_output@@@__crt_stdio_output@@CA?AW4parameter_type@12@_K@Z 10031190 f i libucrtd:output.obj
 0001:000301a0       ?get_parameter_type@?$positional_parameter_base@_WV?$stream_output_adapter@_W@__crt_stdio_output@@@__crt_stdio_output@@CA?AW4parameter_type@12@_W@Z 100311a0 f i libucrtd:output.obj
 0001:000301b0       ?get_parameter_type@?$positional_parameter_base@_WV?$string_output_adapter@_W@__crt_stdio_output@@@__crt_stdio_output@@CA?AW4parameter_type@12@F@Z 100311b0 f i libucrtd:output.obj
 0001:000301c0       ?get_parameter_type@?$positional_parameter_base@_WV?$string_output_adapter@_W@__crt_stdio_output@@@__crt_stdio_output@@CA?AW4parameter_type@12@G@Z 100311c0 f i libucrtd:output.obj
 0001:000301d0       ?get_parameter_type@?$positional_parameter_base@_WV?$string_output_adapter@_W@__crt_stdio_output@@@__crt_stdio_output@@CA?AW4parameter_type@12@H@Z 100311d0 f i libucrtd:output.obj
 0001:000301e0       ?get_parameter_type@?$positional_parameter_base@_WV?$string_output_adapter@_W@__crt_stdio_output@@@__crt_stdio_output@@CA?AW4parameter_type@12@I@Z 100311e0 f i libucrtd:output.obj
 0001:000301f0       ?get_parameter_type@?$positional_parameter_base@_WV?$string_output_adapter@_W@__crt_stdio_output@@@__crt_stdio_output@@CA?AW4parameter_type@12@U_CRT_DOUBLE@@@Z 100311f0 f i libucrtd:output.obj
 0001:00030200       ?get_parameter_type@?$positional_parameter_base@_WV?$string_output_adapter@_W@__crt_stdio_output@@@__crt_stdio_output@@CA?AW4parameter_type@12@_J@Z 10031200 f i libucrtd:output.obj
 0001:00030210       ?get_parameter_type@?$positional_parameter_base@_WV?$string_output_adapter@_W@__crt_stdio_output@@@__crt_stdio_output@@CA?AW4parameter_type@12@_K@Z 10031210 f i libucrtd:output.obj
 0001:00030220       ?get_parameter_type@?$positional_parameter_base@_WV?$string_output_adapter@_W@__crt_stdio_output@@@__crt_stdio_output@@CA?AW4parameter_type@12@_W@Z 10031220 f i libucrtd:output.obj
 0001:00030230       ?has_flag@?$output_processor@DV?$stream_output_adapter@D@__crt_stdio_output@@V?$format_validation_base@DV?$stream_output_adapter@D@__crt_stdio_output@@@2@@__crt_stdio_output@@ABE_NI@Z 10031230 f i libucrtd:output.obj
 0001:00030260       ?has_flag@?$output_processor@DV?$stream_output_adapter@D@__crt_stdio_output@@V?$positional_parameter_base@DV?$stream_output_adapter@D@__crt_stdio_output@@@2@@__crt_stdio_output@@ABE_NI@Z 10031260 f i libucrtd:output.obj
 0001:00030290       ?has_flag@?$output_processor@DV?$stream_output_adapter@D@__crt_stdio_output@@V?$standard_base@DV?$stream_output_adapter@D@__crt_stdio_output@@@2@@__crt_stdio_output@@ABE_NI@Z 10031290 f i libucrtd:output.obj
 0001:000302c0       ?has_flag@?$output_processor@DV?$string_output_adapter@D@__crt_stdio_output@@V?$format_validation_base@DV?$string_output_adapter@D@__crt_stdio_output@@@2@@__crt_stdio_output@@ABE_NI@Z 100312c0 f i libucrtd:output.obj
 0001:000302f0       ?has_flag@?$output_processor@DV?$string_output_adapter@D@__crt_stdio_output@@V?$positional_parameter_base@DV?$string_output_adapter@D@__crt_stdio_output@@@2@@__crt_stdio_output@@ABE_NI@Z 100312f0 f i libucrtd:output.obj
 0001:00030320       ?has_flag@?$output_processor@DV?$string_output_adapter@D@__crt_stdio_output@@V?$standard_base@DV?$string_output_adapter@D@__crt_stdio_output@@@2@@__crt_stdio_output@@ABE_NI@Z 10031320 f i libucrtd:output.obj
 0001:00030350       ?has_flag@?$output_processor@_WV?$stream_output_adapter@_W@__crt_stdio_output@@V?$format_validation_base@_WV?$stream_output_adapter@_W@__crt_stdio_output@@@2@@__crt_stdio_output@@ABE_NI@Z 10031350 f i libucrtd:output.obj
 0001:00030380       ?has_flag@?$output_processor@_WV?$stream_output_adapter@_W@__crt_stdio_output@@V?$positional_parameter_base@_WV?$stream_output_adapter@_W@__crt_stdio_output@@@2@@__crt_stdio_output@@ABE_NI@Z 10031380 f i libucrtd:output.obj
 0001:000303b0       ?has_flag@?$output_processor@_WV?$stream_output_adapter@_W@__crt_stdio_output@@V?$standard_base@_WV?$stream_output_adapter@_W@__crt_stdio_output@@@2@@__crt_stdio_output@@ABE_NI@Z 100313b0 f i libucrtd:output.obj
 0001:000303e0       ?has_flag@?$output_processor@_WV?$string_output_adapter@_W@__crt_stdio_output@@V?$format_validation_base@_WV?$string_output_adapter@_W@__crt_stdio_output@@@2@@__crt_stdio_output@@ABE_NI@Z 100313e0 f i libucrtd:output.obj
 0001:00030410       ?has_flag@?$output_processor@_WV?$string_output_adapter@_W@__crt_stdio_output@@V?$positional_parameter_base@_WV?$string_output_adapter@_W@__crt_stdio_output@@@2@@__crt_stdio_output@@ABE_NI@Z 10031410 f i libucrtd:output.obj
 0001:00030440       ?has_flag@?$output_processor@_WV?$string_output_adapter@_W@__crt_stdio_output@@V?$standard_base@_WV?$string_output_adapter@_W@__crt_stdio_output@@@2@@__crt_stdio_output@@ABE_NI@Z 10031440 f i libucrtd:output.obj
 0001:00030470       ?is_positional_parameter_reappearance_consistent@?$positional_parameter_base@DV?$stream_output_adapter@D@__crt_stdio_output@@@__crt_stdio_output@@AAE_NABUparameter_data@12@W4parameter_type@12@DW4length_modifier@2@@Z 10031470 f i libucrtd:output.obj
 0001:000306a0       ?is_positional_parameter_reappearance_consistent@?$positional_parameter_base@DV?$string_output_adapter@D@__crt_stdio_output@@@__crt_stdio_output@@AAE_NABUparameter_data@12@W4parameter_type@12@DW4length_modifier@2@@Z 100316a0 f i libucrtd:output.obj
 0001:000308d0       ?is_positional_parameter_reappearance_consistent@?$positional_parameter_base@_WV?$stream_output_adapter@_W@__crt_stdio_output@@@__crt_stdio_output@@AAE_NABUparameter_data@12@W4parameter_type@12@_WW4length_modifier@2@@Z 100318d0 f i libucrtd:output.obj
 0001:00030b00       ?is_positional_parameter_reappearance_consistent@?$positional_parameter_base@_WV?$string_output_adapter@_W@__crt_stdio_output@@@__crt_stdio_output@@AAE_NABUparameter_data@12@W4parameter_type@12@_WW4length_modifier@2@@Z 10031b00 f i libucrtd:output.obj
 0001:00030d30       ?is_string_backed@__crt_stdio_stream@@QBE_NXZ 10031d30 f i libucrtd:output.obj
 0001:00030d70       ?narrow_null_string@?$output_processor@DV?$stream_output_adapter@D@__crt_stdio_output@@V?$format_validation_base@DV?$stream_output_adapter@D@__crt_stdio_output@@@2@@__crt_stdio_output@@CAPADXZ 10031d70 f i libucrtd:output.obj
 0001:00030d80       ?narrow_null_string@?$output_processor@DV?$stream_output_adapter@D@__crt_stdio_output@@V?$positional_parameter_base@DV?$stream_output_adapter@D@__crt_stdio_output@@@2@@__crt_stdio_output@@CAPADXZ 10031d80 f i libucrtd:output.obj
 0001:00030d90       ?narrow_null_string@?$output_processor@DV?$stream_output_adapter@D@__crt_stdio_output@@V?$standard_base@DV?$stream_output_adapter@D@__crt_stdio_output@@@2@@__crt_stdio_output@@CAPADXZ 10031d90 f i libucrtd:output.obj
 0001:00030da0       ?narrow_null_string@?$output_processor@DV?$string_output_adapter@D@__crt_stdio_output@@V?$format_validation_base@DV?$string_output_adapter@D@__crt_stdio_output@@@2@@__crt_stdio_output@@CAPADXZ 10031da0 f i libucrtd:output.obj
 0001:00030db0       ?narrow_null_string@?$output_processor@DV?$string_output_adapter@D@__crt_stdio_output@@V?$positional_parameter_base@DV?$string_output_adapter@D@__crt_stdio_output@@@2@@__crt_stdio_output@@CAPADXZ 10031db0 f i libucrtd:output.obj
 0001:00030dc0       ?narrow_null_string@?$output_processor@DV?$string_output_adapter@D@__crt_stdio_output@@V?$standard_base@DV?$string_output_adapter@D@__crt_stdio_output@@@2@@__crt_stdio_output@@CAPADXZ 10031dc0 f i libucrtd:output.obj
 0001:00030dd0       ?narrow_null_string@?$output_processor@_WV?$stream_output_adapter@_W@__crt_stdio_output@@V?$format_validation_base@_WV?$stream_output_adapter@_W@__crt_stdio_output@@@2@@__crt_stdio_output@@CAPADXZ 10031dd0 f i libucrtd:output.obj
 0001:00030de0       ?narrow_null_string@?$output_processor@_WV?$stream_output_adapter@_W@__crt_stdio_output@@V?$positional_parameter_base@_WV?$stream_output_adapter@_W@__crt_stdio_output@@@2@@__crt_stdio_output@@CAPADXZ 10031de0 f i libucrtd:output.obj
 0001:00030df0       ?narrow_null_string@?$output_processor@_WV?$stream_output_adapter@_W@__crt_stdio_output@@V?$standard_base@_WV?$stream_output_adapter@_W@__crt_stdio_output@@@2@@__crt_stdio_output@@CAPADXZ 10031df0 f i libucrtd:output.obj
 0001:00030e00       ?narrow_null_string@?$output_processor@_WV?$string_output_adapter@_W@__crt_stdio_output@@V?$format_validation_base@_WV?$string_output_adapter@_W@__crt_stdio_output@@@2@@__crt_stdio_output@@CAPADXZ 10031e00 f i libucrtd:output.obj
 0001:00030e10       ?narrow_null_string@?$output_processor@_WV?$string_output_adapter@_W@__crt_stdio_output@@V?$positional_parameter_base@_WV?$string_output_adapter@_W@__crt_stdio_output@@@2@@__crt_stdio_output@@CAPADXZ 10031e10 f i libucrtd:output.obj
 0001:00030e20       ?narrow_null_string@?$output_processor@_WV?$string_output_adapter@_W@__crt_stdio_output@@V?$standard_base@_WV?$string_output_adapter@_W@__crt_stdio_output@@@2@@__crt_stdio_output@@CAPADXZ 10031e20 f i libucrtd:output.obj
 0001:00030e30       ?parse_int_from_format_string@?$output_processor@DV?$stream_output_adapter@D@__crt_stdio_output@@V?$format_validation_base@DV?$stream_output_adapter@D@__crt_stdio_output@@@2@@__crt_stdio_output@@AAE_NQAH@Z 10031e30 f i libucrtd:output.obj
 0001:00030ef0       ?parse_int_from_format_string@?$output_processor@DV?$stream_output_adapter@D@__crt_stdio_output@@V?$positional_parameter_base@DV?$stream_output_adapter@D@__crt_stdio_output@@@2@@__crt_stdio_output@@AAE_NQAH@Z 10031ef0 f i libucrtd:output.obj
 0001:00030fb0       ?parse_int_from_format_string@?$output_processor@DV?$stream_output_adapter@D@__crt_stdio_output@@V?$standard_base@DV?$stream_output_adapter@D@__crt_stdio_output@@@2@@__crt_stdio_output@@AAE_NQAH@Z 10031fb0 f i libucrtd:output.obj
 0001:00031070       ?parse_int_from_format_string@?$output_processor@DV?$string_output_adapter@D@__crt_stdio_output@@V?$format_validation_base@DV?$string_output_adapter@D@__crt_stdio_output@@@2@@__crt_stdio_output@@AAE_NQAH@Z 10032070 f i libucrtd:output.obj
 0001:00031130       ?parse_int_from_format_string@?$output_processor@DV?$string_output_adapter@D@__crt_stdio_output@@V?$positional_parameter_base@DV?$string_output_adapter@D@__crt_stdio_output@@@2@@__crt_stdio_output@@AAE_NQAH@Z 10032130 f i libucrtd:output.obj
 0001:000311f0       ?parse_int_from_format_string@?$output_processor@DV?$string_output_adapter@D@__crt_stdio_output@@V?$standard_base@DV?$string_output_adapter@D@__crt_stdio_output@@@2@@__crt_stdio_output@@AAE_NQAH@Z 100321f0 f i libucrtd:output.obj
 0001:000312b0       ?parse_int_from_format_string@?$output_processor@_WV?$stream_output_adapter@_W@__crt_stdio_output@@V?$format_validation_base@_WV?$stream_output_adapter@_W@__crt_stdio_output@@@2@@__crt_stdio_output@@AAE_NQAH@Z 100322b0 f i libucrtd:output.obj
 0001:00031370       ?parse_int_from_format_string@?$output_processor@_WV?$stream_output_adapter@_W@__crt_stdio_output@@V?$positional_parameter_base@_WV?$stream_output_adapter@_W@__crt_stdio_output@@@2@@__crt_stdio_output@@AAE_NQAH@Z 10032370 f i libucrtd:output.obj
 0001:00031430       ?parse_int_from_format_string@?$output_processor@_WV?$stream_output_adapter@_W@__crt_stdio_output@@V?$standard_base@_WV?$stream_output_adapter@_W@__crt_stdio_output@@@2@@__crt_stdio_output@@AAE_NQAH@Z 10032430 f i libucrtd:output.obj
 0001:000314f0       ?parse_int_from_format_string@?$output_processor@_WV?$string_output_adapter@_W@__crt_stdio_output@@V?$format_validation_base@_WV?$string_output_adapter@_W@__crt_stdio_output@@@2@@__crt_stdio_output@@AAE_NQAH@Z 100324f0 f i libucrtd:output.obj
 0001:000315b0       ?parse_int_from_format_string@?$output_processor@_WV?$string_output_adapter@_W@__crt_stdio_output@@V?$positional_parameter_base@_WV?$string_output_adapter@_W@__crt_stdio_output@@@2@@__crt_stdio_output@@AAE_NQAH@Z 100325b0 f i libucrtd:output.obj
 0001:00031670       ?parse_int_from_format_string@?$output_processor@_WV?$string_output_adapter@_W@__crt_stdio_output@@V?$standard_base@_WV?$string_output_adapter@_W@__crt_stdio_output@@@2@@__crt_stdio_output@@AAE_NQAH@Z 10032670 f i libucrtd:output.obj
 0001:00031730       ?process@?$output_processor@DV?$stream_output_adapter@D@__crt_stdio_output@@V?$format_validation_base@DV?$stream_output_adapter@D@__crt_stdio_output@@@2@@__crt_stdio_output@@QAEHXZ 10032730 f i libucrtd:output.obj
 0001:000319e0       ?process@?$output_processor@DV?$stream_output_adapter@D@__crt_stdio_output@@V?$positional_parameter_base@DV?$stream_output_adapter@D@__crt_stdio_output@@@2@@__crt_stdio_output@@QAEHXZ 100329e0 f i libucrtd:output.obj
 0001:00031c90       ?process@?$output_processor@DV?$stream_output_adapter@D@__crt_stdio_output@@V?$standard_base@DV?$stream_output_adapter@D@__crt_stdio_output@@@2@@__crt_stdio_output@@QAEHXZ 10032c90 f i libucrtd:output.obj
 0001:00031f40       ?process@?$output_processor@DV?$string_output_adapter@D@__crt_stdio_output@@V?$format_validation_base@DV?$string_output_adapter@D@__crt_stdio_output@@@2@@__crt_stdio_output@@QAEHXZ 10032f40 f i libucrtd:output.obj
 0001:000321f0       ?process@?$output_processor@DV?$string_output_adapter@D@__crt_stdio_output@@V?$positional_parameter_base@DV?$string_output_adapter@D@__crt_stdio_output@@@2@@__crt_stdio_output@@QAEHXZ 100331f0 f i libucrtd:output.obj
 0001:000324a0       ?process@?$output_processor@DV?$string_output_adapter@D@__crt_stdio_output@@V?$standard_base@DV?$string_output_adapter@D@__crt_stdio_output@@@2@@__crt_stdio_output@@QAEHXZ 100334a0 f i libucrtd:output.obj
 0001:00032750       ?process@?$output_processor@_WV?$stream_output_adapter@_W@__crt_stdio_output@@V?$format_validation_base@_WV?$stream_output_adapter@_W@__crt_stdio_output@@@2@@__crt_stdio_output@@QAEHXZ 10033750 f i libucrtd:output.obj
 0001:00032a00       ?process@?$output_processor@_WV?$stream_output_adapter@_W@__crt_stdio_output@@V?$positional_parameter_base@_WV?$stream_output_adapter@_W@__crt_stdio_output@@@2@@__crt_stdio_output@@QAEHXZ 10033a00 f i libucrtd:output.obj
 0001:00032cb0       ?process@?$output_processor@_WV?$stream_output_adapter@_W@__crt_stdio_output@@V?$standard_base@_WV?$stream_output_adapter@_W@__crt_stdio_output@@@2@@__crt_stdio_output@@QAEHXZ 10033cb0 f i libucrtd:output.obj
 0001:00032f60       ?process@?$output_processor@_WV?$string_output_adapter@_W@__crt_stdio_output@@V?$format_validation_base@_WV?$string_output_adapter@_W@__crt_stdio_output@@@2@@__crt_stdio_output@@QAEHXZ 10033f60 f i libucrtd:output.obj
 0001:00033210       ?process@?$output_processor@_WV?$string_output_adapter@_W@__crt_stdio_output@@V?$positional_parameter_base@_WV?$string_output_adapter@_W@__crt_stdio_output@@@2@@__crt_stdio_output@@QAEHXZ 10034210 f i libucrtd:output.obj
 0001:000334c0       ?process@?$output_processor@_WV?$string_output_adapter@_W@__crt_stdio_output@@V?$standard_base@_WV?$string_output_adapter@_W@__crt_stdio_output@@@2@@__crt_stdio_output@@QAEHXZ 100344c0 f i libucrtd:output.obj
 0001:00033770       ?public_stream@__crt_stdio_stream@@QBEPAU_iobuf@@XZ 10034770 f i libucrtd:output.obj
 0001:00033790       ?set_flag@?$output_processor@DV?$stream_output_adapter@D@__crt_stdio_output@@V?$format_validation_base@DV?$stream_output_adapter@D@__crt_stdio_output@@@2@@__crt_stdio_output@@AAEXI@Z 10034790 f i libucrtd:output.obj
 0001:000337b0       ?set_flag@?$output_processor@DV?$stream_output_adapter@D@__crt_stdio_output@@V?$positional_parameter_base@DV?$stream_output_adapter@D@__crt_stdio_output@@@2@@__crt_stdio_output@@AAEXI@Z 100347b0 f i libucrtd:output.obj
 0001:000337d0       ?set_flag@?$output_processor@DV?$stream_output_adapter@D@__crt_stdio_output@@V?$standard_base@DV?$stream_output_adapter@D@__crt_stdio_output@@@2@@__crt_stdio_output@@AAEXI@Z 100347d0 f i libucrtd:output.obj
 0001:000337f0       ?set_flag@?$output_processor@DV?$string_output_adapter@D@__crt_stdio_output@@V?$format_validation_base@DV?$string_output_adapter@D@__crt_stdio_output@@@2@@__crt_stdio_output@@AAEXI@Z 100347f0 f i libucrtd:output.obj
 0001:00033810       ?set_flag@?$output_processor@DV?$string_output_adapter@D@__crt_stdio_output@@V?$positional_parameter_base@DV?$string_output_adapter@D@__crt_stdio_output@@@2@@__crt_stdio_output@@AAEXI@Z 10034810 f i libucrtd:output.obj
 0001:00033830       ?set_flag@?$output_processor@DV?$string_output_adapter@D@__crt_stdio_output@@V?$standard_base@DV?$string_output_adapter@D@__crt_stdio_output@@@2@@__crt_stdio_output@@AAEXI@Z 10034830 f i libucrtd:output.obj
 0001:00033850       ?set_flag@?$output_processor@_WV?$stream_output_adapter@_W@__crt_stdio_output@@V?$format_validation_base@_WV?$stream_output_adapter@_W@__crt_stdio_output@@@2@@__crt_stdio_output@@AAEXI@Z 10034850 f i libucrtd:output.obj
 0001:00033870       ?set_flag@?$output_processor@_WV?$stream_output_adapter@_W@__crt_stdio_output@@V?$positional_parameter_base@_WV?$stream_output_adapter@_W@__crt_stdio_output@@@2@@__crt_stdio_output@@AAEXI@Z 10034870 f i libucrtd:output.obj
 0001:00033890       ?set_flag@?$output_processor@_WV?$stream_output_adapter@_W@__crt_stdio_output@@V?$standard_base@_WV?$stream_output_adapter@_W@__crt_stdio_output@@@2@@__crt_stdio_output@@AAEXI@Z 10034890 f i libucrtd:output.obj
 0001:000338b0       ?set_flag@?$output_processor@_WV?$string_output_adapter@_W@__crt_stdio_output@@V?$format_validation_base@_WV?$string_output_adapter@_W@__crt_stdio_output@@@2@@__crt_stdio_output@@AAEXI@Z 100348b0 f i libucrtd:output.obj
 0001:000338d0       ?set_flag@?$output_processor@_WV?$string_output_adapter@_W@__crt_stdio_output@@V?$positional_parameter_base@_WV?$string_output_adapter@_W@__crt_stdio_output@@@2@@__crt_stdio_output@@AAEXI@Z 100348d0 f i libucrtd:output.obj
 0001:000338f0       ?set_flag@?$output_processor@_WV?$string_output_adapter@_W@__crt_stdio_output@@V?$standard_base@_WV?$string_output_adapter@_W@__crt_stdio_output@@@2@@__crt_stdio_output@@AAEXI@Z 100348f0 f i libucrtd:output.obj
 0001:00033910       ?should_format@?$positional_parameter_base@DV?$stream_output_adapter@D@__crt_stdio_output@@@__crt_stdio_output@@IAE_NXZ 10034910 f i libucrtd:output.obj
 0001:00033950       ?should_format@?$positional_parameter_base@DV?$string_output_adapter@D@__crt_stdio_output@@@__crt_stdio_output@@IAE_NXZ 10034950 f i libucrtd:output.obj
 0001:00033990       ?should_format@?$positional_parameter_base@_WV?$stream_output_adapter@_W@__crt_stdio_output@@@__crt_stdio_output@@IAE_NXZ 10034990 f i libucrtd:output.obj
 0001:000339d0       ?should_format@?$positional_parameter_base@_WV?$string_output_adapter@_W@__crt_stdio_output@@@__crt_stdio_output@@IAE_NXZ 100349d0 f i libucrtd:output.obj
 0001:00033a10       ?should_format@?$standard_base@DV?$stream_output_adapter@D@__crt_stdio_output@@@__crt_stdio_output@@IAE_NXZ 10034a10 f i libucrtd:output.obj
 0001:00033a20       ?should_format@?$standard_base@DV?$string_output_adapter@D@__crt_stdio_output@@@__crt_stdio_output@@IAE_NXZ 10034a20 f i libucrtd:output.obj
 0001:00033a30       ?should_format@?$standard_base@_WV?$stream_output_adapter@_W@__crt_stdio_output@@@__crt_stdio_output@@IAE_NXZ 10034a30 f i libucrtd:output.obj
 0001:00033a40       ?should_format@?$standard_base@_WV?$string_output_adapter@_W@__crt_stdio_output@@@__crt_stdio_output@@IAE_NXZ 10034a40 f i libucrtd:output.obj
 0001:00033a50       ?should_skip_normal_state_processing@?$positional_parameter_base@DV?$stream_output_adapter@D@__crt_stdio_output@@@__crt_stdio_output@@IAE_NXZ 10034a50 f i libucrtd:output.obj
 0001:00033aa0       ?should_skip_normal_state_processing@?$positional_parameter_base@DV?$string_output_adapter@D@__crt_stdio_output@@@__crt_stdio_output@@IAE_NXZ 10034aa0 f i libucrtd:output.obj
 0001:00033af0       ?should_skip_normal_state_processing@?$positional_parameter_base@_WV?$stream_output_adapter@_W@__crt_stdio_output@@@__crt_stdio_output@@IAE_NXZ 10034af0 f i libucrtd:output.obj
 0001:00033b40       ?should_skip_normal_state_processing@?$positional_parameter_base@_WV?$string_output_adapter@_W@__crt_stdio_output@@@__crt_stdio_output@@IAE_NXZ 10034b40 f i libucrtd:output.obj
 0001:00033b90       ?should_skip_normal_state_processing@?$standard_base@DV?$stream_output_adapter@D@__crt_stdio_output@@@__crt_stdio_output@@IAE_NXZ 10034b90 f i libucrtd:output.obj
 0001:00033ba0       ?should_skip_normal_state_processing@?$standard_base@DV?$string_output_adapter@D@__crt_stdio_output@@@__crt_stdio_output@@IAE_NXZ 10034ba0 f i libucrtd:output.obj
 0001:00033bb0       ?should_skip_normal_state_processing@?$standard_base@_WV?$stream_output_adapter@_W@__crt_stdio_output@@@__crt_stdio_output@@IAE_NXZ 10034bb0 f i libucrtd:output.obj
 0001:00033bc0       ?should_skip_normal_state_processing@?$standard_base@_WV?$string_output_adapter@_W@__crt_stdio_output@@@__crt_stdio_output@@IAE_NXZ 10034bc0 f i libucrtd:output.obj
 0001:00033bd0       ?should_skip_type_state_output@?$positional_parameter_base@DV?$stream_output_adapter@D@__crt_stdio_output@@@__crt_stdio_output@@IBE_NXZ 10034bd0 f i libucrtd:output.obj
 0001:00033c10       ?should_skip_type_state_output@?$positional_parameter_base@DV?$string_output_adapter@D@__crt_stdio_output@@@__crt_stdio_output@@IBE_NXZ 10034c10 f i libucrtd:output.obj
 0001:00033c50       ?should_skip_type_state_output@?$positional_parameter_base@_WV?$stream_output_adapter@_W@__crt_stdio_output@@@__crt_stdio_output@@IBE_NXZ 10034c50 f i libucrtd:output.obj
 0001:00033c90       ?should_skip_type_state_output@?$positional_parameter_base@_WV?$string_output_adapter@_W@__crt_stdio_output@@@__crt_stdio_output@@IBE_NXZ 10034c90 f i libucrtd:output.obj
 0001:00033cd0       ?should_skip_type_state_output@?$standard_base@DV?$stream_output_adapter@D@__crt_stdio_output@@@__crt_stdio_output@@IBE_NXZ 10034cd0 f i libucrtd:output.obj
 0001:00033ce0       ?should_skip_type_state_output@?$standard_base@DV?$string_output_adapter@D@__crt_stdio_output@@@__crt_stdio_output@@IBE_NXZ 10034ce0 f i libucrtd:output.obj
 0001:00033cf0       ?should_skip_type_state_output@?$standard_base@_WV?$stream_output_adapter@_W@__crt_stdio_output@@@__crt_stdio_output@@IBE_NXZ 10034cf0 f i libucrtd:output.obj
 0001:00033d00       ?should_skip_type_state_output@?$standard_base@_WV?$string_output_adapter@_W@__crt_stdio_output@@@__crt_stdio_output@@IBE_NXZ 10034d00 f i libucrtd:output.obj
 0001:00033d10       ?state_case_dot@?$output_processor@DV?$stream_output_adapter@D@__crt_stdio_output@@V?$format_validation_base@DV?$stream_output_adapter@D@__crt_stdio_output@@@2@@__crt_stdio_output@@AAE_NXZ 10034d10 f i libucrtd:output.obj
 0001:00033d30       ?state_case_dot@?$output_processor@DV?$stream_output_adapter@D@__crt_stdio_output@@V?$positional_parameter_base@DV?$stream_output_adapter@D@__crt_stdio_output@@@2@@__crt_stdio_output@@AAE_NXZ 10034d30 f i libucrtd:output.obj
 0001:00033d50       ?state_case_dot@?$output_processor@DV?$stream_output_adapter@D@__crt_stdio_output@@V?$standard_base@DV?$stream_output_adapter@D@__crt_stdio_output@@@2@@__crt_stdio_output@@AAE_NXZ 10034d50 f i libucrtd:output.obj
 0001:00033d70       ?state_case_dot@?$output_processor@DV?$string_output_adapter@D@__crt_stdio_output@@V?$format_validation_base@DV?$string_output_adapter@D@__crt_stdio_output@@@2@@__crt_stdio_output@@AAE_NXZ 10034d70 f i libucrtd:output.obj
 0001:00033d90       ?state_case_dot@?$output_processor@DV?$string_output_adapter@D@__crt_stdio_output@@V?$positional_parameter_base@DV?$string_output_adapter@D@__crt_stdio_output@@@2@@__crt_stdio_output@@AAE_NXZ 10034d90 f i libucrtd:output.obj
 0001:00033db0       ?state_case_dot@?$output_processor@DV?$string_output_adapter@D@__crt_stdio_output@@V?$standard_base@DV?$string_output_adapter@D@__crt_stdio_output@@@2@@__crt_stdio_output@@AAE_NXZ 10034db0 f i libucrtd:output.obj
 0001:00033dd0       ?state_case_dot@?$output_processor@_WV?$stream_output_adapter@_W@__crt_stdio_output@@V?$format_validation_base@_WV?$stream_output_adapter@_W@__crt_stdio_output@@@2@@__crt_stdio_output@@AAE_NXZ 10034dd0 f i libucrtd:output.obj
 0001:00033df0       ?state_case_dot@?$output_processor@_WV?$stream_output_adapter@_W@__crt_stdio_output@@V?$positional_parameter_base@_WV?$stream_output_adapter@_W@__crt_stdio_output@@@2@@__crt_stdio_output@@AAE_NXZ 10034df0 f i libucrtd:output.obj
 0001:00033e10       ?state_case_dot@?$output_processor@_WV?$stream_output_adapter@_W@__crt_stdio_output@@V?$standard_base@_WV?$stream_output_adapter@_W@__crt_stdio_output@@@2@@__crt_stdio_output@@AAE_NXZ 10034e10 f i libucrtd:output.obj
 0001:00033e30       ?state_case_dot@?$output_processor@_WV?$string_output_adapter@_W@__crt_stdio_output@@V?$format_validation_base@_WV?$string_output_adapter@_W@__crt_stdio_output@@@2@@__crt_stdio_output@@AAE_NXZ 10034e30 f i libucrtd:output.obj
 0001:00033e50       ?state_case_dot@?$output_processor@_WV?$string_output_adapter@_W@__crt_stdio_output@@V?$positional_parameter_base@_WV?$string_output_adapter@_W@__crt_stdio_output@@@2@@__crt_stdio_output@@AAE_NXZ 10034e50 f i libucrtd:output.obj
 0001:00033e70       ?state_case_dot@?$output_processor@_WV?$string_output_adapter@_W@__crt_stdio_output@@V?$standard_base@_WV?$string_output_adapter@_W@__crt_stdio_output@@@2@@__crt_stdio_output@@AAE_NXZ 10034e70 f i libucrtd:output.obj
 0001:00033e90       ?state_case_flag@?$output_processor@DV?$stream_output_adapter@D@__crt_stdio_output@@V?$format_validation_base@DV?$stream_output_adapter@D@__crt_stdio_output@@@2@@__crt_stdio_output@@AAE_NXZ 10034e90 f i libucrtd:output.obj
 0001:00033f40       ?state_case_flag@?$output_processor@DV?$stream_output_adapter@D@__crt_stdio_output@@V?$positional_parameter_base@DV?$stream_output_adapter@D@__crt_stdio_output@@@2@@__crt_stdio_output@@AAE_NXZ 10034f40 f i libucrtd:output.obj
 0001:00033ff0       ?state_case_flag@?$output_processor@DV?$stream_output_adapter@D@__crt_stdio_output@@V?$standard_base@DV?$stream_output_adapter@D@__crt_stdio_output@@@2@@__crt_stdio_output@@AAE_NXZ 10034ff0 f i libucrtd:output.obj
 0001:000340a0       ?state_case_flag@?$output_processor@DV?$string_output_adapter@D@__crt_stdio_output@@V?$format_validation_base@DV?$string_output_adapter@D@__crt_stdio_output@@@2@@__crt_stdio_output@@AAE_NXZ 100350a0 f i libucrtd:output.obj
 0001:00034150       ?state_case_flag@?$output_processor@DV?$string_output_adapter@D@__crt_stdio_output@@V?$positional_parameter_base@DV?$string_output_adapter@D@__crt_stdio_output@@@2@@__crt_stdio_output@@AAE_NXZ 10035150 f i libucrtd:output.obj
 0001:00034200       ?state_case_flag@?$output_processor@DV?$string_output_adapter@D@__crt_stdio_output@@V?$standard_base@DV?$string_output_adapter@D@__crt_stdio_output@@@2@@__crt_stdio_output@@AAE_NXZ 10035200 f i libucrtd:output.obj
 0001:000342b0       ?state_case_flag@?$output_processor@_WV?$stream_output_adapter@_W@__crt_stdio_output@@V?$format_validation_base@_WV?$stream_output_adapter@_W@__crt_stdio_output@@@2@@__crt_stdio_output@@AAE_NXZ 100352b0 f i libucrtd:output.obj
 0001:00034360       ?state_case_flag@?$output_processor@_WV?$stream_output_adapter@_W@__crt_stdio_output@@V?$positional_parameter_base@_WV?$stream_output_adapter@_W@__crt_stdio_output@@@2@@__crt_stdio_output@@AAE_NXZ 10035360 f i libucrtd:output.obj
 0001:00034410       ?state_case_flag@?$output_processor@_WV?$stream_output_adapter@_W@__crt_stdio_output@@V?$standard_base@_WV?$stream_output_adapter@_W@__crt_stdio_output@@@2@@__crt_stdio_output@@AAE_NXZ 10035410 f i libucrtd:output.obj
 0001:000344c0       ?state_case_flag@?$output_processor@_WV?$string_output_adapter@_W@__crt_stdio_output@@V?$format_validation_base@_WV?$string_output_adapter@_W@__crt_stdio_output@@@2@@__crt_stdio_output@@AAE_NXZ 100354c0 f i libucrtd:output.obj
 0001:00034570       ?state_case_flag@?$output_processor@_WV?$string_output_adapter@_W@__crt_stdio_output@@V?$positional_parameter_base@_WV?$string_output_adapter@_W@__crt_stdio_output@@@2@@__crt_stdio_output@@AAE_NXZ 10035570 f i libucrtd:output.obj
 0001:00034620       ?state_case_flag@?$output_processor@_WV?$string_output_adapter@_W@__crt_stdio_output@@V?$standard_base@_WV?$string_output_adapter@_W@__crt_stdio_output@@@2@@__crt_stdio_output@@AAE_NXZ 10035620 f i libucrtd:output.obj
 0001:000346d0       ?state_case_normal@?$output_processor@DV?$stream_output_adapter@D@__crt_stdio_output@@V?$format_validation_base@DV?$stream_output_adapter@D@__crt_stdio_output@@@2@@__crt_stdio_output@@AAE_NXZ 100356d0 f i libucrtd:output.obj
 0001:00034780       ?state_case_normal@?$output_processor@DV?$stream_output_adapter@D@__crt_stdio_output@@V?$positional_parameter_base@DV?$stream_output_adapter@D@__crt_stdio_output@@@2@@__crt_stdio_output@@AAE_NXZ 10035780 f i libucrtd:output.obj
 0001:00034830       ?state_case_normal@?$output_processor@DV?$stream_output_adapter@D@__crt_stdio_output@@V?$standard_base@DV?$stream_output_adapter@D@__crt_stdio_output@@@2@@__crt_stdio_output@@AAE_NXZ 10035830 f i libucrtd:output.obj
 0001:000348e0       ?state_case_normal@?$output_processor@DV?$string_output_adapter@D@__crt_stdio_output@@V?$format_validation_base@DV?$string_output_adapter@D@__crt_stdio_output@@@2@@__crt_stdio_output@@AAE_NXZ 100358e0 f i libucrtd:output.obj
 0001:00034990       ?state_case_normal@?$output_processor@DV?$string_output_adapter@D@__crt_stdio_output@@V?$positional_parameter_base@DV?$string_output_adapter@D@__crt_stdio_output@@@2@@__crt_stdio_output@@AAE_NXZ 10035990 f i libucrtd:output.obj
 0001:00034a40       ?state_case_normal@?$output_processor@DV?$string_output_adapter@D@__crt_stdio_output@@V?$standard_base@DV?$string_output_adapter@D@__crt_stdio_output@@@2@@__crt_stdio_output@@AAE_NXZ 10035a40 f i libucrtd:output.obj
 0001:00034af0       ?state_case_normal@?$output_processor@_WV?$stream_output_adapter@_W@__crt_stdio_output@@V?$format_validation_base@_WV?$stream_output_adapter@_W@__crt_stdio_output@@@2@@__crt_stdio_output@@AAE_NXZ 10035af0 f i libucrtd:output.obj
 0001:00034ba0       ?state_case_normal@?$output_processor@_WV?$stream_output_adapter@_W@__crt_stdio_output@@V?$positional_parameter_base@_WV?$stream_output_adapter@_W@__crt_stdio_output@@@2@@__crt_stdio_output@@AAE_NXZ 10035ba0 f i libucrtd:output.obj
 0001:00034c50       ?state_case_normal@?$output_processor@_WV?$stream_output_adapter@_W@__crt_stdio_output@@V?$standard_base@_WV?$stream_output_adapter@_W@__crt_stdio_output@@@2@@__crt_stdio_output@@AAE_NXZ 10035c50 f i libucrtd:output.obj
 0001:00034d00       ?state_case_normal@?$output_processor@_WV?$string_output_adapter@_W@__crt_stdio_output@@V?$format_validation_base@_WV?$string_output_adapter@_W@__crt_stdio_output@@@2@@__crt_stdio_output@@AAE_NXZ 10035d00 f i libucrtd:output.obj
 0001:00034db0       ?state_case_normal@?$output_processor@_WV?$string_output_adapter@_W@__crt_stdio_output@@V?$positional_parameter_base@_WV?$string_output_adapter@_W@__crt_stdio_output@@@2@@__crt_stdio_output@@AAE_NXZ 10035db0 f i libucrtd:output.obj
 0001:00034e60       ?state_case_normal@?$output_processor@_WV?$string_output_adapter@_W@__crt_stdio_output@@V?$standard_base@_WV?$string_output_adapter@_W@__crt_stdio_output@@@2@@__crt_stdio_output@@AAE_NXZ 10035e60 f i libucrtd:output.obj
 0001:00034f10       ?state_case_normal_common@?$output_processor@DV?$stream_output_adapter@D@__crt_stdio_output@@V?$format_validation_base@DV?$stream_output_adapter@D@__crt_stdio_output@@@2@@__crt_stdio_output@@AAE_NXZ 10035f10 f i libucrtd:output.obj
 0001:00034f60       ?state_case_normal_common@?$output_processor@DV?$stream_output_adapter@D@__crt_stdio_output@@V?$positional_parameter_base@DV?$stream_output_adapter@D@__crt_stdio_output@@@2@@__crt_stdio_output@@AAE_NXZ 10035f60 f i libucrtd:output.obj
 0001:00034fb0       ?state_case_normal_common@?$output_processor@DV?$stream_output_adapter@D@__crt_stdio_output@@V?$standard_base@DV?$stream_output_adapter@D@__crt_stdio_output@@@2@@__crt_stdio_output@@AAE_NXZ 10035fb0 f i libucrtd:output.obj
 0001:00035000       ?state_case_normal_common@?$output_processor@DV?$string_output_adapter@D@__crt_stdio_output@@V?$format_validation_base@DV?$string_output_adapter@D@__crt_stdio_output@@@2@@__crt_stdio_output@@AAE_NXZ 10036000 f i libucrtd:output.obj
 0001:00035050       ?state_case_normal_common@?$output_processor@DV?$string_output_adapter@D@__crt_stdio_output@@V?$positional_parameter_base@DV?$string_output_adapter@D@__crt_stdio_output@@@2@@__crt_stdio_output@@AAE_NXZ 10036050 f i libucrtd:output.obj
 0001:000350a0       ?state_case_normal_common@?$output_processor@DV?$string_output_adapter@D@__crt_stdio_output@@V?$standard_base@DV?$string_output_adapter@D@__crt_stdio_output@@@2@@__crt_stdio_output@@AAE_NXZ 100360a0 f i libucrtd:output.obj
 0001:000350f0       ?state_case_normal_common@?$output_processor@_WV?$stream_output_adapter@_W@__crt_stdio_output@@V?$format_validation_base@_WV?$stream_output_adapter@_W@__crt_stdio_output@@@2@@__crt_stdio_output@@AAE_NXZ 100360f0 f i libucrtd:output.obj
 0001:00035140       ?state_case_normal_common@?$output_processor@_WV?$stream_output_adapter@_W@__crt_stdio_output@@V?$positional_parameter_base@_WV?$stream_output_adapter@_W@__crt_stdio_output@@@2@@__crt_stdio_output@@AAE_NXZ 10036140 f i libucrtd:output.obj
 0001:00035190       ?state_case_normal_common@?$output_processor@_WV?$stream_output_adapter@_W@__crt_stdio_output@@V?$standard_base@_WV?$stream_output_adapter@_W@__crt_stdio_output@@@2@@__crt_stdio_output@@AAE_NXZ 10036190 f i libucrtd:output.obj
 0001:000351e0       ?state_case_normal_common@?$output_processor@_WV?$string_output_adapter@_W@__crt_stdio_output@@V?$format_validation_base@_WV?$string_output_adapter@_W@__crt_stdio_output@@@2@@__crt_stdio_output@@AAE_NXZ 100361e0 f i libucrtd:output.obj
 0001:00035230       ?state_case_normal_common@?$output_processor@_WV?$string_output_adapter@_W@__crt_stdio_output@@V?$positional_parameter_base@_WV?$string_output_adapter@_W@__crt_stdio_output@@@2@@__crt_stdio_output@@AAE_NXZ 10036230 f i libucrtd:output.obj
 0001:00035280       ?state_case_normal_common@?$output_processor@_WV?$string_output_adapter@_W@__crt_stdio_output@@V?$standard_base@_WV?$string_output_adapter@_W@__crt_stdio_output@@@2@@__crt_stdio_output@@AAE_NXZ 10036280 f i libucrtd:output.obj
 0001:000352d0       ?state_case_normal_tchar@?$output_processor@DV?$stream_output_adapter@D@__crt_stdio_output@@V?$format_validation_base@DV?$stream_output_adapter@D@__crt_stdio_output@@@2@@__crt_stdio_output@@AAE_ND@Z 100362d0 f i libucrtd:output.obj
 0001:000353d0       ?state_case_normal_tchar@?$output_processor@DV?$stream_output_adapter@D@__crt_stdio_output@@V?$positional_parameter_base@DV?$stream_output_adapter@D@__crt_stdio_output@@@2@@__crt_stdio_output@@AAE_ND@Z 100363d0 f i libucrtd:output.obj
 0001:000354d0       ?state_case_normal_tchar@?$output_processor@DV?$stream_output_adapter@D@__crt_stdio_output@@V?$standard_base@DV?$stream_output_adapter@D@__crt_stdio_output@@@2@@__crt_stdio_output@@AAE_ND@Z 100364d0 f i libucrtd:output.obj
 0001:000355d0       ?state_case_normal_tchar@?$output_processor@DV?$string_output_adapter@D@__crt_stdio_output@@V?$format_validation_base@DV?$string_output_adapter@D@__crt_stdio_output@@@2@@__crt_stdio_output@@AAE_ND@Z 100365d0 f i libucrtd:output.obj
 0001:000356d0       ?state_case_normal_tchar@?$output_processor@DV?$string_output_adapter@D@__crt_stdio_output@@V?$positional_parameter_base@DV?$string_output_adapter@D@__crt_stdio_output@@@2@@__crt_stdio_output@@AAE_ND@Z 100366d0 f i libucrtd:output.obj
 0001:000357d0       ?state_case_normal_tchar@?$output_processor@DV?$string_output_adapter@D@__crt_stdio_output@@V?$standard_base@DV?$string_output_adapter@D@__crt_stdio_output@@@2@@__crt_stdio_output@@AAE_ND@Z 100367d0 f i libucrtd:output.obj
 0001:000358d0       ?state_case_normal_tchar@?$output_processor@_WV?$stream_output_adapter@_W@__crt_stdio_output@@V?$format_validation_base@_WV?$stream_output_adapter@_W@__crt_stdio_output@@@2@@__crt_stdio_output@@AAE_N_W@Z 100368d0 f i libucrtd:output.obj
 0001:000358f0       ?state_case_normal_tchar@?$output_processor@_WV?$stream_output_adapter@_W@__crt_stdio_output@@V?$positional_parameter_base@_WV?$stream_output_adapter@_W@__crt_stdio_output@@@2@@__crt_stdio_output@@AAE_N_W@Z 100368f0 f i libucrtd:output.obj
 0001:00035910       ?state_case_normal_tchar@?$output_processor@_WV?$stream_output_adapter@_W@__crt_stdio_output@@V?$standard_base@_WV?$stream_output_adapter@_W@__crt_stdio_output@@@2@@__crt_stdio_output@@AAE_N_W@Z 10036910 f i libucrtd:output.obj
 0001:00035930       ?state_case_normal_tchar@?$output_processor@_WV?$string_output_adapter@_W@__crt_stdio_output@@V?$format_validation_base@_WV?$string_output_adapter@_W@__crt_stdio_output@@@2@@__crt_stdio_output@@AAE_N_W@Z 10036930 f i libucrtd:output.obj
 0001:00035950       ?state_case_normal_tchar@?$output_processor@_WV?$string_output_adapter@_W@__crt_stdio_output@@V?$positional_parameter_base@_WV?$string_output_adapter@_W@__crt_stdio_output@@@2@@__crt_stdio_output@@AAE_N_W@Z 10036950 f i libucrtd:output.obj
 0001:00035970       ?state_case_normal_tchar@?$output_processor@_WV?$string_output_adapter@_W@__crt_stdio_output@@V?$standard_base@_WV?$string_output_adapter@_W@__crt_stdio_output@@@2@@__crt_stdio_output@@AAE_N_W@Z 10036970 f i libucrtd:output.obj
 0001:00035990       ?state_case_percent@?$output_processor@DV?$stream_output_adapter@D@__crt_stdio_output@@V?$format_validation_base@DV?$stream_output_adapter@D@__crt_stdio_output@@@2@@__crt_stdio_output@@AAE_NXZ 10036990 f i libucrtd:output.obj
 0001:000359e0       ?state_case_percent@?$output_processor@DV?$stream_output_adapter@D@__crt_stdio_output@@V?$positional_parameter_base@DV?$stream_output_adapter@D@__crt_stdio_output@@@2@@__crt_stdio_output@@AAE_NXZ 100369e0 f i libucrtd:output.obj
 0001:00035a30       ?state_case_percent@?$output_processor@DV?$stream_output_adapter@D@__crt_stdio_output@@V?$standard_base@DV?$stream_output_adapter@D@__crt_stdio_output@@@2@@__crt_stdio_output@@AAE_NXZ 10036a30 f i libucrtd:output.obj
 0001:00035a80       ?state_case_percent@?$output_processor@DV?$string_output_adapter@D@__crt_stdio_output@@V?$format_validation_base@DV?$string_output_adapter@D@__crt_stdio_output@@@2@@__crt_stdio_output@@AAE_NXZ 10036a80 f i libucrtd:output.obj
 0001:00035ad0       ?state_case_percent@?$output_processor@DV?$string_output_adapter@D@__crt_stdio_output@@V?$positional_parameter_base@DV?$string_output_adapter@D@__crt_stdio_output@@@2@@__crt_stdio_output@@AAE_NXZ 10036ad0 f i libucrtd:output.obj
 0001:00035b20       ?state_case_percent@?$output_processor@DV?$string_output_adapter@D@__crt_stdio_output@@V?$standard_base@DV?$string_output_adapter@D@__crt_stdio_output@@@2@@__crt_stdio_output@@AAE_NXZ 10036b20 f i libucrtd:output.obj
 0001:00035b70       ?state_case_percent@?$output_processor@_WV?$stream_output_adapter@_W@__crt_stdio_output@@V?$format_validation_base@_WV?$stream_output_adapter@_W@__crt_stdio_output@@@2@@__crt_stdio_output@@AAE_NXZ 10036b70 f i libucrtd:output.obj
 0001:00035bc0       ?state_case_percent@?$output_processor@_WV?$stream_output_adapter@_W@__crt_stdio_output@@V?$positional_parameter_base@_WV?$stream_output_adapter@_W@__crt_stdio_output@@@2@@__crt_stdio_output@@AAE_NXZ 10036bc0 f i libucrtd:output.obj
 0001:00035c10       ?state_case_percent@?$output_processor@_WV?$stream_output_adapter@_W@__crt_stdio_output@@V?$standard_base@_WV?$stream_output_adapter@_W@__crt_stdio_output@@@2@@__crt_stdio_output@@AAE_NXZ 10036c10 f i libucrtd:output.obj
 0001:00035c60       ?state_case_percent@?$output_processor@_WV?$string_output_adapter@_W@__crt_stdio_output@@V?$format_validation_base@_WV?$string_output_adapter@_W@__crt_stdio_output@@@2@@__crt_stdio_output@@AAE_NXZ 10036c60 f i libucrtd:output.obj
 0001:00035cb0       ?state_case_percent@?$output_processor@_WV?$string_output_adapter@_W@__crt_stdio_output@@V?$positional_parameter_base@_WV?$string_output_adapter@_W@__crt_stdio_output@@@2@@__crt_stdio_output@@AAE_NXZ 10036cb0 f i libucrtd:output.obj
 0001:00035d00       ?state_case_percent@?$output_processor@_WV?$string_output_adapter@_W@__crt_stdio_output@@V?$standard_base@_WV?$string_output_adapter@_W@__crt_stdio_output@@@2@@__crt_stdio_output@@AAE_NXZ 10036d00 f i libucrtd:output.obj
 0001:00035d50       ?state_case_precision@?$output_processor@DV?$stream_output_adapter@D@__crt_stdio_output@@V?$format_validation_base@DV?$stream_output_adapter@D@__crt_stdio_output@@@2@@__crt_stdio_output@@AAE_NXZ 10036d50 f i libucrtd:output.obj
 0001:00035dc0       ?state_case_precision@?$output_processor@DV?$stream_output_adapter@D@__crt_stdio_output@@V?$positional_parameter_base@DV?$stream_output_adapter@D@__crt_stdio_output@@@2@@__crt_stdio_output@@AAE_NXZ 10036dc0 f i libucrtd:output.obj
 0001:00035e30       ?state_case_precision@?$output_processor@DV?$stream_output_adapter@D@__crt_stdio_output@@V?$standard_base@DV?$stream_output_adapter@D@__crt_stdio_output@@@2@@__crt_stdio_output@@AAE_NXZ 10036e30 f i libucrtd:output.obj
 0001:00035ea0       ?state_case_precision@?$output_processor@DV?$string_output_adapter@D@__crt_stdio_output@@V?$format_validation_base@DV?$string_output_adapter@D@__crt_stdio_output@@@2@@__crt_stdio_output@@AAE_NXZ 10036ea0 f i libucrtd:output.obj
 0001:00035f10       ?state_case_precision@?$output_processor@DV?$string_output_adapter@D@__crt_stdio_output@@V?$positional_parameter_base@DV?$string_output_adapter@D@__crt_stdio_output@@@2@@__crt_stdio_output@@AAE_NXZ 10036f10 f i libucrtd:output.obj
 0001:00035f80       ?state_case_precision@?$output_processor@DV?$string_output_adapter@D@__crt_stdio_output@@V?$standard_base@DV?$string_output_adapter@D@__crt_stdio_output@@@2@@__crt_stdio_output@@AAE_NXZ 10036f80 f i libucrtd:output.obj
 0001:00035ff0       ?state_case_precision@?$output_processor@_WV?$stream_output_adapter@_W@__crt_stdio_output@@V?$format_validation_base@_WV?$stream_output_adapter@_W@__crt_stdio_output@@@2@@__crt_stdio_output@@AAE_NXZ 10036ff0 f i libucrtd:output.obj
 0001:00036060       ?state_case_precision@?$output_processor@_WV?$stream_output_adapter@_W@__crt_stdio_output@@V?$positional_parameter_base@_WV?$stream_output_adapter@_W@__crt_stdio_output@@@2@@__crt_stdio_output@@AAE_NXZ 10037060 f i libucrtd:output.obj
 0001:000360d0       ?state_case_precision@?$output_processor@_WV?$stream_output_adapter@_W@__crt_stdio_output@@V?$standard_base@_WV?$stream_output_adapter@_W@__crt_stdio_output@@@2@@__crt_stdio_output@@AAE_NXZ 100370d0 f i libucrtd:output.obj
 0001:00036140       ?state_case_precision@?$output_processor@_WV?$string_output_adapter@_W@__crt_stdio_output@@V?$format_validation_base@_WV?$string_output_adapter@_W@__crt_stdio_output@@@2@@__crt_stdio_output@@AAE_NXZ 10037140 f i libucrtd:output.obj
 0001:000361b0       ?state_case_precision@?$output_processor@_WV?$string_output_adapter@_W@__crt_stdio_output@@V?$positional_parameter_base@_WV?$string_output_adapter@_W@__crt_stdio_output@@@2@@__crt_stdio_output@@AAE_NXZ 100371b0 f i libucrtd:output.obj
 0001:00036220       ?state_case_precision@?$output_processor@_WV?$string_output_adapter@_W@__crt_stdio_output@@V?$standard_base@_WV?$string_output_adapter@_W@__crt_stdio_output@@@2@@__crt_stdio_output@@AAE_NXZ 10037220 f i libucrtd:output.obj
 0001:00036290       ?state_case_size@?$output_processor@DV?$stream_output_adapter@D@__crt_stdio_output@@V?$format_validation_base@DV?$stream_output_adapter@D@__crt_stdio_output@@@2@@__crt_stdio_output@@AAE_NXZ 10037290 f i libucrtd:output.obj
 0001:00036660       ?state_case_size@?$output_processor@DV?$stream_output_adapter@D@__crt_stdio_output@@V?$positional_parameter_base@DV?$stream_output_adapter@D@__crt_stdio_output@@@2@@__crt_stdio_output@@AAE_NXZ 10037660 f i libucrtd:output.obj
 0001:00036a30       ?state_case_size@?$output_processor@DV?$stream_output_adapter@D@__crt_stdio_output@@V?$standard_base@DV?$stream_output_adapter@D@__crt_stdio_output@@@2@@__crt_stdio_output@@AAE_NXZ 10037a30 f i libucrtd:output.obj
 0001:00036e00       ?state_case_size@?$output_processor@DV?$string_output_adapter@D@__crt_stdio_output@@V?$format_validation_base@DV?$string_output_adapter@D@__crt_stdio_output@@@2@@__crt_stdio_output@@AAE_NXZ 10037e00 f i libucrtd:output.obj
 0001:000371d0       ?state_case_size@?$output_processor@DV?$string_output_adapter@D@__crt_stdio_output@@V?$positional_parameter_base@DV?$string_output_adapter@D@__crt_stdio_output@@@2@@__crt_stdio_output@@AAE_NXZ 100381d0 f i libucrtd:output.obj
 0001:000375a0       ?state_case_size@?$output_processor@DV?$string_output_adapter@D@__crt_stdio_output@@V?$standard_base@DV?$string_output_adapter@D@__crt_stdio_output@@@2@@__crt_stdio_output@@AAE_NXZ 100385a0 f i libucrtd:output.obj
 0001:00037970       ?state_case_size@?$output_processor@_WV?$stream_output_adapter@_W@__crt_stdio_output@@V?$format_validation_base@_WV?$stream_output_adapter@_W@__crt_stdio_output@@@2@@__crt_stdio_output@@AAE_NXZ 10038970 f i libucrtd:output.obj
 0001:00037d40       ?state_case_size@?$output_processor@_WV?$stream_output_adapter@_W@__crt_stdio_output@@V?$positional_parameter_base@_WV?$stream_output_adapter@_W@__crt_stdio_output@@@2@@__crt_stdio_output@@AAE_NXZ 10038d40 f i libucrtd:output.obj
 0001:00038110       ?state_case_size@?$output_processor@_WV?$stream_output_adapter@_W@__crt_stdio_output@@V?$standard_base@_WV?$stream_output_adapter@_W@__crt_stdio_output@@@2@@__crt_stdio_output@@AAE_NXZ 10039110 f i libucrtd:output.obj
 0001:000384e0       ?state_case_size@?$output_processor@_WV?$string_output_adapter@_W@__crt_stdio_output@@V?$format_validation_base@_WV?$string_output_adapter@_W@__crt_stdio_output@@@2@@__crt_stdio_output@@AAE_NXZ 100394e0 f i libucrtd:output.obj
 0001:000388b0       ?state_case_size@?$output_processor@_WV?$string_output_adapter@_W@__crt_stdio_output@@V?$positional_parameter_base@_WV?$string_output_adapter@_W@__crt_stdio_output@@@2@@__crt_stdio_output@@AAE_NXZ 100398b0 f i libucrtd:output.obj
 0001:00038c80       ?state_case_size@?$output_processor@_WV?$string_output_adapter@_W@__crt_stdio_output@@V?$standard_base@_WV?$string_output_adapter@_W@__crt_stdio_output@@@2@@__crt_stdio_output@@AAE_NXZ 10039c80 f i libucrtd:output.obj
 0001:00039050       ?state_case_type@?$output_processor@DV?$stream_output_adapter@D@__crt_stdio_output@@V?$format_validation_base@DV?$stream_output_adapter@D@__crt_stdio_output@@@2@@__crt_stdio_output@@AAE_NXZ 1003a050 f i libucrtd:output.obj
 0001:00039400       ?state_case_type@?$output_processor@DV?$stream_output_adapter@D@__crt_stdio_output@@V?$positional_parameter_base@DV?$stream_output_adapter@D@__crt_stdio_output@@@2@@__crt_stdio_output@@AAE_NXZ 1003a400 f i libucrtd:output.obj
 0001:000397b0       ?state_case_type@?$output_processor@DV?$stream_output_adapter@D@__crt_stdio_output@@V?$standard_base@DV?$stream_output_adapter@D@__crt_stdio_output@@@2@@__crt_stdio_output@@AAE_NXZ 1003a7b0 f i libucrtd:output.obj
 0001:00039b60       ?state_case_type@?$output_processor@DV?$string_output_adapter@D@__crt_stdio_output@@V?$format_validation_base@DV?$string_output_adapter@D@__crt_stdio_output@@@2@@__crt_stdio_output@@AAE_NXZ 1003ab60 f i libucrtd:output.obj
 0001:00039f10       ?state_case_type@?$output_processor@DV?$string_output_adapter@D@__crt_stdio_output@@V?$positional_parameter_base@DV?$string_output_adapter@D@__crt_stdio_output@@@2@@__crt_stdio_output@@AAE_NXZ 1003af10 f i libucrtd:output.obj
 0001:0003a2c0       ?state_case_type@?$output_processor@DV?$string_output_adapter@D@__crt_stdio_output@@V?$standard_base@DV?$string_output_adapter@D@__crt_stdio_output@@@2@@__crt_stdio_output@@AAE_NXZ 1003b2c0 f i libucrtd:output.obj
 0001:0003a670       ?state_case_type@?$output_processor@_WV?$stream_output_adapter@_W@__crt_stdio_output@@V?$format_validation_base@_WV?$stream_output_adapter@_W@__crt_stdio_output@@@2@@__crt_stdio_output@@AAE_NXZ 1003b670 f i libucrtd:output.obj
 0001:0003aa50       ?state_case_type@?$output_processor@_WV?$stream_output_adapter@_W@__crt_stdio_output@@V?$positional_parameter_base@_WV?$stream_output_adapter@_W@__crt_stdio_output@@@2@@__crt_stdio_output@@AAE_NXZ 1003ba50 f i libucrtd:output.obj
 0001:0003ae30       ?state_case_type@?$output_processor@_WV?$stream_output_adapter@_W@__crt_stdio_output@@V?$standard_base@_WV?$stream_output_adapter@_W@__crt_stdio_output@@@2@@__crt_stdio_output@@AAE_NXZ 1003be30 f i libucrtd:output.obj
 0001:0003b210       ?state_case_type@?$output_processor@_WV?$string_output_adapter@_W@__crt_stdio_output@@V?$format_validation_base@_WV?$string_output_adapter@_W@__crt_stdio_output@@@2@@__crt_stdio_output@@AAE_NXZ 1003c210 f i libucrtd:output.obj
 0001:0003b5f0       ?state_case_type@?$output_processor@_WV?$string_output_adapter@_W@__crt_stdio_output@@V?$positional_parameter_base@_WV?$string_output_adapter@_W@__crt_stdio_output@@@2@@__crt_stdio_output@@AAE_NXZ 1003c5f0 f i libucrtd:output.obj
 0001:0003b9d0       ?state_case_type@?$output_processor@_WV?$string_output_adapter@_W@__crt_stdio_output@@V?$standard_base@_WV?$string_output_adapter@_W@__crt_stdio_output@@@2@@__crt_stdio_output@@AAE_NXZ 1003c9d0 f i libucrtd:output.obj
 0001:0003bdb0       ?state_case_width@?$output_processor@DV?$stream_output_adapter@D@__crt_stdio_output@@V?$format_validation_base@DV?$stream_output_adapter@D@__crt_stdio_output@@@2@@__crt_stdio_output@@AAE_NXZ 1003cdb0 f i libucrtd:output.obj
 0001:0003be30       ?state_case_width@?$output_processor@DV?$stream_output_adapter@D@__crt_stdio_output@@V?$positional_parameter_base@DV?$stream_output_adapter@D@__crt_stdio_output@@@2@@__crt_stdio_output@@AAE_NXZ 1003ce30 f i libucrtd:output.obj
 0001:0003beb0       ?state_case_width@?$output_processor@DV?$stream_output_adapter@D@__crt_stdio_output@@V?$standard_base@DV?$stream_output_adapter@D@__crt_stdio_output@@@2@@__crt_stdio_output@@AAE_NXZ 1003ceb0 f i libucrtd:output.obj
 0001:0003bf30       ?state_case_width@?$output_processor@DV?$string_output_adapter@D@__crt_stdio_output@@V?$format_validation_base@DV?$string_output_adapter@D@__crt_stdio_output@@@2@@__crt_stdio_output@@AAE_NXZ 1003cf30 f i libucrtd:output.obj
 0001:0003bfb0       ?state_case_width@?$output_processor@DV?$string_output_adapter@D@__crt_stdio_output@@V?$positional_parameter_base@DV?$string_output_adapter@D@__crt_stdio_output@@@2@@__crt_stdio_output@@AAE_NXZ 1003cfb0 f i libucrtd:output.obj
 0001:0003c030       ?state_case_width@?$output_processor@DV?$string_output_adapter@D@__crt_stdio_output@@V?$standard_base@DV?$string_output_adapter@D@__crt_stdio_output@@@2@@__crt_stdio_output@@AAE_NXZ 1003d030 f i libucrtd:output.obj
 0001:0003c0b0       ?state_case_width@?$output_processor@_WV?$stream_output_adapter@_W@__crt_stdio_output@@V?$format_validation_base@_WV?$stream_output_adapter@_W@__crt_stdio_output@@@2@@__crt_stdio_output@@AAE_NXZ 1003d0b0 f i libucrtd:output.obj
 0001:0003c130       ?state_case_width@?$output_processor@_WV?$stream_output_adapter@_W@__crt_stdio_output@@V?$positional_parameter_base@_WV?$stream_output_adapter@_W@__crt_stdio_output@@@2@@__crt_stdio_output@@AAE_NXZ 1003d130 f i libucrtd:output.obj
 0001:0003c1b0       ?state_case_width@?$output_processor@_WV?$stream_output_adapter@_W@__crt_stdio_output@@V?$standard_base@_WV?$stream_output_adapter@_W@__crt_stdio_output@@@2@@__crt_stdio_output@@AAE_NXZ 1003d1b0 f i libucrtd:output.obj
 0001:0003c230       ?state_case_width@?$output_processor@_WV?$string_output_adapter@_W@__crt_stdio_output@@V?$format_validation_base@_WV?$string_output_adapter@_W@__crt_stdio_output@@@2@@__crt_stdio_output@@AAE_NXZ 1003d230 f i libucrtd:output.obj
 0001:0003c2b0       ?state_case_width@?$output_processor@_WV?$string_output_adapter@_W@__crt_stdio_output@@V?$positional_parameter_base@_WV?$string_output_adapter@_W@__crt_stdio_output@@@2@@__crt_stdio_output@@AAE_NXZ 1003d2b0 f i libucrtd:output.obj
 0001:0003c330       ?state_case_width@?$output_processor@_WV?$string_output_adapter@_W@__crt_stdio_output@@V?$standard_base@_WV?$string_output_adapter@_W@__crt_stdio_output@@@2@@__crt_stdio_output@@AAE_NXZ 1003d330 f i libucrtd:output.obj
 0001:0003c3b0       ?state_count@?$format_validation_base@DV?$stream_output_adapter@D@__crt_stdio_output@@@__crt_stdio_output@@KAIXZ 1003d3b0 f i libucrtd:output.obj
 0001:0003c3c0       ?state_count@?$format_validation_base@DV?$string_output_adapter@D@__crt_stdio_output@@@__crt_stdio_output@@KAIXZ 1003d3c0 f i libucrtd:output.obj
 0001:0003c3d0       ?state_count@?$format_validation_base@_WV?$stream_output_adapter@_W@__crt_stdio_output@@@__crt_stdio_output@@KAIXZ 1003d3d0 f i libucrtd:output.obj
 0001:0003c3e0       ?state_count@?$format_validation_base@_WV?$string_output_adapter@_W@__crt_stdio_output@@@__crt_stdio_output@@KAIXZ 1003d3e0 f i libucrtd:output.obj
 0001:0003c3f0       ?state_count@?$standard_base@DV?$stream_output_adapter@D@__crt_stdio_output@@@__crt_stdio_output@@KAIXZ 1003d3f0 f i libucrtd:output.obj
 0001:0003c400       ?state_count@?$standard_base@DV?$string_output_adapter@D@__crt_stdio_output@@@__crt_stdio_output@@KAIXZ 1003d400 f i libucrtd:output.obj
 0001:0003c410       ?state_count@?$standard_base@_WV?$stream_output_adapter@_W@__crt_stdio_output@@@__crt_stdio_output@@KAIXZ 1003d410 f i libucrtd:output.obj
 0001:0003c420       ?state_count@?$standard_base@_WV?$string_output_adapter@_W@__crt_stdio_output@@@__crt_stdio_output@@KAIXZ 1003d420 f i libucrtd:output.obj
 0001:0003c430       ?state_transition_table@?$format_validation_base@DV?$stream_output_adapter@D@__crt_stdio_output@@@__crt_stdio_output@@KAABV?$spectre_mitigated_lookup_table@Ustate_transition_pair@__crt_stdio_output@@$0IA@@2@XZ 1003d430 f i libucrtd:output.obj
 0001:0003c440       ?state_transition_table@?$format_validation_base@DV?$string_output_adapter@D@__crt_stdio_output@@@__crt_stdio_output@@KAABV?$spectre_mitigated_lookup_table@Ustate_transition_pair@__crt_stdio_output@@$0IA@@2@XZ 1003d440 f i libucrtd:output.obj
 0001:0003c450       ?state_transition_table@?$format_validation_base@_WV?$stream_output_adapter@_W@__crt_stdio_output@@@__crt_stdio_output@@KAABV?$spectre_mitigated_lookup_table@Ustate_transition_pair@__crt_stdio_output@@$0IA@@2@XZ 1003d450 f i libucrtd:output.obj
 0001:0003c460       ?state_transition_table@?$format_validation_base@_WV?$string_output_adapter@_W@__crt_stdio_output@@@__crt_stdio_output@@KAABV?$spectre_mitigated_lookup_table@Ustate_transition_pair@__crt_stdio_output@@$0IA@@2@XZ 1003d460 f i libucrtd:output.obj
 0001:0003c470       ?state_transition_table@?$standard_base@DV?$stream_output_adapter@D@__crt_stdio_output@@@__crt_stdio_output@@KAABV?$spectre_mitigated_lookup_table@Ustate_transition_pair@__crt_stdio_output@@$0IA@@2@XZ 1003d470 f i libucrtd:output.obj
 0001:0003c480       ?state_transition_table@?$standard_base@DV?$string_output_adapter@D@__crt_stdio_output@@@__crt_stdio_output@@KAABV?$spectre_mitigated_lookup_table@Ustate_transition_pair@__crt_stdio_output@@$0IA@@2@XZ 1003d480 f i libucrtd:output.obj
 0001:0003c490       ?state_transition_table@?$standard_base@_WV?$stream_output_adapter@_W@__crt_stdio_output@@@__crt_stdio_output@@KAABV?$spectre_mitigated_lookup_table@Ustate_transition_pair@__crt_stdio_output@@$0IA@@2@XZ 1003d490 f i libucrtd:output.obj
 0001:0003c4a0       ?state_transition_table@?$standard_base@_WV?$string_output_adapter@_W@__crt_stdio_output@@@__crt_stdio_output@@KAABV?$spectre_mitigated_lookup_table@Ustate_transition_pair@__crt_stdio_output@@$0IA@@2@XZ 1003d4a0 f i libucrtd:output.obj
 0001:0003c4b0       ?tchar_string@?$common_data@D@__crt_stdio_output@@IAEAAPADD@Z 1003d4b0 f i libucrtd:output.obj
 0001:0003c4d0       ?tchar_string@?$common_data@D@__crt_stdio_output@@IAEAAPADXZ 1003d4d0 f i libucrtd:output.obj
 0001:0003c4f0       ?tchar_string@?$common_data@_W@__crt_stdio_output@@IAEAAPA_WXZ 1003d4f0 f i libucrtd:output.obj
 0001:0003c510       ?tchar_string@?$common_data@_W@__crt_stdio_output@@IAEAAPA_W_W@Z 1003d510 f i libucrtd:output.obj
 0001:0003c530       ?to_integer_size@__crt_stdio_output@@YAIW4length_modifier@1@@Z 1003d530 f i libucrtd:output.obj
 0001:0003c5d0       ?type_case_X@?$output_processor@DV?$stream_output_adapter@D@__crt_stdio_output@@V?$format_validation_base@DV?$stream_output_adapter@D@__crt_stdio_output@@@2@@__crt_stdio_output@@AAE_NXZ 1003d5d0 f i libucrtd:output.obj
 0001:0003c5f0       ?type_case_X@?$output_processor@DV?$stream_output_adapter@D@__crt_stdio_output@@V?$positional_parameter_base@DV?$stream_output_adapter@D@__crt_stdio_output@@@2@@__crt_stdio_output@@AAE_NXZ 1003d5f0 f i libucrtd:output.obj
 0001:0003c610       ?type_case_X@?$output_processor@DV?$stream_output_adapter@D@__crt_stdio_output@@V?$standard_base@DV?$stream_output_adapter@D@__crt_stdio_output@@@2@@__crt_stdio_output@@AAE_NXZ 1003d610 f i libucrtd:output.obj
 0001:0003c630       ?type_case_X@?$output_processor@DV?$string_output_adapter@D@__crt_stdio_output@@V?$format_validation_base@DV?$string_output_adapter@D@__crt_stdio_output@@@2@@__crt_stdio_output@@AAE_NXZ 1003d630 f i libucrtd:output.obj
 0001:0003c650       ?type_case_X@?$output_processor@DV?$string_output_adapter@D@__crt_stdio_output@@V?$positional_parameter_base@DV?$string_output_adapter@D@__crt_stdio_output@@@2@@__crt_stdio_output@@AAE_NXZ 1003d650 f i libucrtd:output.obj
 0001:0003c670       ?type_case_X@?$output_processor@DV?$string_output_adapter@D@__crt_stdio_output@@V?$standard_base@DV?$string_output_adapter@D@__crt_stdio_output@@@2@@__crt_stdio_output@@AAE_NXZ 1003d670 f i libucrtd:output.obj
 0001:0003c690       ?type_case_X@?$output_processor@_WV?$stream_output_adapter@_W@__crt_stdio_output@@V?$format_validation_base@_WV?$stream_output_adapter@_W@__crt_stdio_output@@@2@@__crt_stdio_output@@AAE_NXZ 1003d690 f i libucrtd:output.obj
 0001:0003c6b0       ?type_case_X@?$output_processor@_WV?$stream_output_adapter@_W@__crt_stdio_output@@V?$positional_parameter_base@_WV?$stream_output_adapter@_W@__crt_stdio_output@@@2@@__crt_stdio_output@@AAE_NXZ 1003d6b0 f i libucrtd:output.obj
 0001:0003c6d0       ?type_case_X@?$output_processor@_WV?$stream_output_adapter@_W@__crt_stdio_output@@V?$standard_base@_WV?$stream_output_adapter@_W@__crt_stdio_output@@@2@@__crt_stdio_output@@AAE_NXZ 1003d6d0 f i libucrtd:output.obj
 0001:0003c6f0       ?type_case_X@?$output_processor@_WV?$string_output_adapter@_W@__crt_stdio_output@@V?$format_validation_base@_WV?$string_output_adapter@_W@__crt_stdio_output@@@2@@__crt_stdio_output@@AAE_NXZ 1003d6f0 f i libucrtd:output.obj
 0001:0003c710       ?type_case_X@?$output_processor@_WV?$string_output_adapter@_W@__crt_stdio_output@@V?$positional_parameter_base@_WV?$string_output_adapter@_W@__crt_stdio_output@@@2@@__crt_stdio_output@@AAE_NXZ 1003d710 f i libucrtd:output.obj
 0001:0003c730       ?type_case_X@?$output_processor@_WV?$string_output_adapter@_W@__crt_stdio_output@@V?$standard_base@_WV?$string_output_adapter@_W@__crt_stdio_output@@@2@@__crt_stdio_output@@AAE_NXZ 1003d730 f i libucrtd:output.obj
 0001:0003c750       ?type_case_Z@?$output_processor@DV?$stream_output_adapter@D@__crt_stdio_output@@V?$format_validation_base@DV?$stream_output_adapter@D@__crt_stdio_output@@@2@@__crt_stdio_output@@AAE_NXZ 1003d750 f i libucrtd:output.obj
 0001:0003c840       ?type_case_Z@?$output_processor@DV?$stream_output_adapter@D@__crt_stdio_output@@V?$positional_parameter_base@DV?$stream_output_adapter@D@__crt_stdio_output@@@2@@__crt_stdio_output@@AAE_NXZ 1003d840 f i libucrtd:output.obj
 0001:0003c930       ?type_case_Z@?$output_processor@DV?$stream_output_adapter@D@__crt_stdio_output@@V?$standard_base@DV?$stream_output_adapter@D@__crt_stdio_output@@@2@@__crt_stdio_output@@AAE_NXZ 1003d930 f i libucrtd:output.obj
 0001:0003ca20       ?type_case_Z@?$output_processor@DV?$string_output_adapter@D@__crt_stdio_output@@V?$format_validation_base@DV?$string_output_adapter@D@__crt_stdio_output@@@2@@__crt_stdio_output@@AAE_NXZ 1003da20 f i libucrtd:output.obj
 0001:0003cb10       ?type_case_Z@?$output_processor@DV?$string_output_adapter@D@__crt_stdio_output@@V?$positional_parameter_base@DV?$string_output_adapter@D@__crt_stdio_output@@@2@@__crt_stdio_output@@AAE_NXZ 1003db10 f i libucrtd:output.obj
 0001:0003cc00       ?type_case_Z@?$output_processor@DV?$string_output_adapter@D@__crt_stdio_output@@V?$standard_base@DV?$string_output_adapter@D@__crt_stdio_output@@@2@@__crt_stdio_output@@AAE_NXZ 1003dc00 f i libucrtd:output.obj
 0001:0003ccf0       ?type_case_Z@?$output_processor@_WV?$stream_output_adapter@_W@__crt_stdio_output@@V?$format_validation_base@_WV?$stream_output_adapter@_W@__crt_stdio_output@@@2@@__crt_stdio_output@@AAE_NXZ 1003dcf0 f i libucrtd:output.obj
 0001:0003cde0       ?type_case_Z@?$output_processor@_WV?$stream_output_adapter@_W@__crt_stdio_output@@V?$positional_parameter_base@_WV?$stream_output_adapter@_W@__crt_stdio_output@@@2@@__crt_stdio_output@@AAE_NXZ 1003dde0 f i libucrtd:output.obj
 0001:0003ced0       ?type_case_Z@?$output_processor@_WV?$stream_output_adapter@_W@__crt_stdio_output@@V?$standard_base@_WV?$stream_output_adapter@_W@__crt_stdio_output@@@2@@__crt_stdio_output@@AAE_NXZ 1003ded0 f i libucrtd:output.obj
 0001:0003cfc0       ?type_case_Z@?$output_processor@_WV?$string_output_adapter@_W@__crt_stdio_output@@V?$format_validation_base@_WV?$string_output_adapter@_W@__crt_stdio_output@@@2@@__crt_stdio_output@@AAE_NXZ 1003dfc0 f i libucrtd:output.obj
 0001:0003d0b0       ?type_case_Z@?$output_processor@_WV?$string_output_adapter@_W@__crt_stdio_output@@V?$positional_parameter_base@_WV?$string_output_adapter@_W@__crt_stdio_output@@@2@@__crt_stdio_output@@AAE_NXZ 1003e0b0 f i libucrtd:output.obj
 0001:0003d1a0       ?type_case_Z@?$output_processor@_WV?$string_output_adapter@_W@__crt_stdio_output@@V?$standard_base@_WV?$string_output_adapter@_W@__crt_stdio_output@@@2@@__crt_stdio_output@@AAE_NXZ 1003e1a0 f i libucrtd:output.obj
 0001:0003d290       ?type_case_a@?$output_processor@DV?$stream_output_adapter@D@__crt_stdio_output@@V?$format_validation_base@DV?$stream_output_adapter@D@__crt_stdio_output@@@2@@__crt_stdio_output@@AAE_NXZ 1003e290 f i libucrtd:output.obj
 0001:0003d500       ?type_case_a@?$output_processor@DV?$stream_output_adapter@D@__crt_stdio_output@@V?$positional_parameter_base@DV?$stream_output_adapter@D@__crt_stdio_output@@@2@@__crt_stdio_output@@AAE_NXZ 1003e500 f i libucrtd:output.obj
 0001:0003d770       ?type_case_a@?$output_processor@DV?$stream_output_adapter@D@__crt_stdio_output@@V?$standard_base@DV?$stream_output_adapter@D@__crt_stdio_output@@@2@@__crt_stdio_output@@AAE_NXZ 1003e770 f i libucrtd:output.obj
 0001:0003d9e0       ?type_case_a@?$output_processor@DV?$string_output_adapter@D@__crt_stdio_output@@V?$format_validation_base@DV?$string_output_adapter@D@__crt_stdio_output@@@2@@__crt_stdio_output@@AAE_NXZ 1003e9e0 f i libucrtd:output.obj
 0001:0003dc50       ?type_case_a@?$output_processor@DV?$string_output_adapter@D@__crt_stdio_output@@V?$positional_parameter_base@DV?$string_output_adapter@D@__crt_stdio_output@@@2@@__crt_stdio_output@@AAE_NXZ 1003ec50 f i libucrtd:output.obj
 0001:0003dec0       ?type_case_a@?$output_processor@DV?$string_output_adapter@D@__crt_stdio_output@@V?$standard_base@DV?$string_output_adapter@D@__crt_stdio_output@@@2@@__crt_stdio_output@@AAE_NXZ 1003eec0 f i libucrtd:output.obj
 0001:0003e130       ?type_case_a@?$output_processor@_WV?$stream_output_adapter@_W@__crt_stdio_output@@V?$format_validation_base@_WV?$stream_output_adapter@_W@__crt_stdio_output@@@2@@__crt_stdio_output@@AAE_NXZ 1003f130 f i libucrtd:output.obj
 0001:0003e3a0       ?type_case_a@?$output_processor@_WV?$stream_output_adapter@_W@__crt_stdio_output@@V?$positional_parameter_base@_WV?$stream_output_adapter@_W@__crt_stdio_output@@@2@@__crt_stdio_output@@AAE_NXZ 1003f3a0 f i libucrtd:output.obj
 0001:0003e610       ?type_case_a@?$output_processor@_WV?$stream_output_adapter@_W@__crt_stdio_output@@V?$standard_base@_WV?$stream_output_adapter@_W@__crt_stdio_output@@@2@@__crt_stdio_output@@AAE_NXZ 1003f610 f i libucrtd:output.obj
 0001:0003e880       ?type_case_a@?$output_processor@_WV?$string_output_adapter@_W@__crt_stdio_output@@V?$format_validation_base@_WV?$string_output_adapter@_W@__crt_stdio_output@@@2@@__crt_stdio_output@@AAE_NXZ 1003f880 f i libucrtd:output.obj
 0001:0003eaf0       ?type_case_a@?$output_processor@_WV?$string_output_adapter@_W@__crt_stdio_output@@V?$positional_parameter_base@_WV?$string_output_adapter@_W@__crt_stdio_output@@@2@@__crt_stdio_output@@AAE_NXZ 1003faf0 f i libucrtd:output.obj
 0001:0003ed60       ?type_case_a@?$output_processor@_WV?$string_output_adapter@_W@__crt_stdio_output@@V?$standard_base@_WV?$string_output_adapter@_W@__crt_stdio_output@@@2@@__crt_stdio_output@@AAE_NXZ 1003fd60 f i libucrtd:output.obj
 0001:0003efd0       ?type_case_c@?$output_processor@DV?$stream_output_adapter@D@__crt_stdio_output@@V?$format_validation_base@DV?$stream_output_adapter@D@__crt_stdio_output@@@2@@__crt_stdio_output@@AAE_NXZ 1003ffd0 f i libucrtd:output.obj
 0001:0003eff0       ?type_case_c@?$output_processor@DV?$stream_output_adapter@D@__crt_stdio_output@@V?$positional_parameter_base@DV?$stream_output_adapter@D@__crt_stdio_output@@@2@@__crt_stdio_output@@AAE_NXZ 1003fff0 f i libucrtd:output.obj
 0001:0003f010       ?type_case_c@?$output_processor@DV?$stream_output_adapter@D@__crt_stdio_output@@V?$standard_base@DV?$stream_output_adapter@D@__crt_stdio_output@@@2@@__crt_stdio_output@@AAE_NXZ 10040010 f i libucrtd:output.obj
 0001:0003f030       ?type_case_c@?$output_processor@DV?$string_output_adapter@D@__crt_stdio_output@@V?$format_validation_base@DV?$string_output_adapter@D@__crt_stdio_output@@@2@@__crt_stdio_output@@AAE_NXZ 10040030 f i libucrtd:output.obj
 0001:0003f050       ?type_case_c@?$output_processor@DV?$string_output_adapter@D@__crt_stdio_output@@V?$positional_parameter_base@DV?$string_output_adapter@D@__crt_stdio_output@@@2@@__crt_stdio_output@@AAE_NXZ 10040050 f i libucrtd:output.obj
 0001:0003f070       ?type_case_c@?$output_processor@DV?$string_output_adapter@D@__crt_stdio_output@@V?$standard_base@DV?$string_output_adapter@D@__crt_stdio_output@@@2@@__crt_stdio_output@@AAE_NXZ 10040070 f i libucrtd:output.obj
 0001:0003f090       ?type_case_c@?$output_processor@_WV?$stream_output_adapter@_W@__crt_stdio_output@@V?$format_validation_base@_WV?$stream_output_adapter@_W@__crt_stdio_output@@@2@@__crt_stdio_output@@AAE_NXZ 10040090 f i libucrtd:output.obj
 0001:0003f0b0       ?type_case_c@?$output_processor@_WV?$stream_output_adapter@_W@__crt_stdio_output@@V?$positional_parameter_base@_WV?$stream_output_adapter@_W@__crt_stdio_output@@@2@@__crt_stdio_output@@AAE_NXZ 100400b0 f i libucrtd:output.obj
 0001:0003f0d0       ?type_case_c@?$output_processor@_WV?$stream_output_adapter@_W@__crt_stdio_output@@V?$standard_base@_WV?$stream_output_adapter@_W@__crt_stdio_output@@@2@@__crt_stdio_output@@AAE_NXZ 100400d0 f i libucrtd:output.obj
 0001:0003f0f0       ?type_case_c@?$output_processor@_WV?$string_output_adapter@_W@__crt_stdio_output@@V?$format_validation_base@_WV?$string_output_adapter@_W@__crt_stdio_output@@@2@@__crt_stdio_output@@AAE_NXZ 100400f0 f i libucrtd:output.obj
 0001:0003f110       ?type_case_c@?$output_processor@_WV?$string_output_adapter@_W@__crt_stdio_output@@V?$positional_parameter_base@_WV?$string_output_adapter@_W@__crt_stdio_output@@@2@@__crt_stdio_output@@AAE_NXZ 10040110 f i libucrtd:output.obj
 0001:0003f130       ?type_case_c@?$output_processor@_WV?$string_output_adapter@_W@__crt_stdio_output@@V?$standard_base@_WV?$string_output_adapter@_W@__crt_stdio_output@@@2@@__crt_stdio_output@@AAE_NXZ 10040130 f i libucrtd:output.obj
 0001:0003f150       ?type_case_c_tchar@?$output_processor@DV?$stream_output_adapter@D@__crt_stdio_output@@V?$format_validation_base@DV?$stream_output_adapter@D@__crt_stdio_output@@@2@@__crt_stdio_output@@AAE_ND@Z 10040150 f i libucrtd:output.obj
 0001:0003f260       ?type_case_c_tchar@?$output_processor@DV?$stream_output_adapter@D@__crt_stdio_output@@V?$positional_parameter_base@DV?$stream_output_adapter@D@__crt_stdio_output@@@2@@__crt_stdio_output@@AAE_ND@Z 10040260 f i libucrtd:output.obj
 0001:0003f370       ?type_case_c_tchar@?$output_processor@DV?$stream_output_adapter@D@__crt_stdio_output@@V?$standard_base@DV?$stream_output_adapter@D@__crt_stdio_output@@@2@@__crt_stdio_output@@AAE_ND@Z 10040370 f i libucrtd:output.obj
 0001:0003f480       ?type_case_c_tchar@?$output_processor@DV?$string_output_adapter@D@__crt_stdio_output@@V?$format_validation_base@DV?$string_output_adapter@D@__crt_stdio_output@@@2@@__crt_stdio_output@@AAE_ND@Z 10040480 f i libucrtd:output.obj
 0001:0003f590       ?type_case_c_tchar@?$output_processor@DV?$string_output_adapter@D@__crt_stdio_output@@V?$positional_parameter_base@DV?$string_output_adapter@D@__crt_stdio_output@@@2@@__crt_stdio_output@@AAE_ND@Z 10040590 f i libucrtd:output.obj
 0001:0003f6a0       ?type_case_c_tchar@?$output_processor@DV?$string_output_adapter@D@__crt_stdio_output@@V?$standard_base@DV?$string_output_adapter@D@__crt_stdio_output@@@2@@__crt_stdio_output@@AAE_ND@Z 100406a0 f i libucrtd:output.obj
 0001:0003f7b0       ?type_case_c_tchar@?$output_processor@_WV?$stream_output_adapter@_W@__crt_stdio_output@@V?$format_validation_base@_WV?$stream_output_adapter@_W@__crt_stdio_output@@@2@@__crt_stdio_output@@AAE_N_W@Z 100407b0 f i libucrtd:output.obj
 0001:0003f8b0       ?type_case_c_tchar@?$output_processor@_WV?$stream_output_adapter@_W@__crt_stdio_output@@V?$positional_parameter_base@_WV?$stream_output_adapter@_W@__crt_stdio_output@@@2@@__crt_stdio_output@@AAE_N_W@Z 100408b0 f i libucrtd:output.obj
 0001:0003f9b0       ?type_case_c_tchar@?$output_processor@_WV?$stream_output_adapter@_W@__crt_stdio_output@@V?$standard_base@_WV?$stream_output_adapter@_W@__crt_stdio_output@@@2@@__crt_stdio_output@@AAE_N_W@Z 100409b0 f i libucrtd:output.obj
 0001:0003fab0       ?type_case_c_tchar@?$output_processor@_WV?$string_output_adapter@_W@__crt_stdio_output@@V?$format_validation_base@_WV?$string_output_adapter@_W@__crt_stdio_output@@@2@@__crt_stdio_output@@AAE_N_W@Z 10040ab0 f i libucrtd:output.obj
 0001:0003fbb0       ?type_case_c_tchar@?$output_processor@_WV?$string_output_adapter@_W@__crt_stdio_output@@V?$positional_parameter_base@_WV?$string_output_adapter@_W@__crt_stdio_output@@@2@@__crt_stdio_output@@AAE_N_W@Z 10040bb0 f i libucrtd:output.obj
 0001:0003fcb0       ?type_case_c_tchar@?$output_processor@_WV?$string_output_adapter@_W@__crt_stdio_output@@V?$standard_base@_WV?$string_output_adapter@_W@__crt_stdio_output@@@2@@__crt_stdio_output@@AAE_N_W@Z 10040cb0 f i libucrtd:output.obj
 0001:0003fdb0       ?type_case_d@?$output_processor@DV?$stream_output_adapter@D@__crt_stdio_output@@V?$format_validation_base@DV?$stream_output_adapter@D@__crt_stdio_output@@@2@@__crt_stdio_output@@AAE_NXZ 10040db0 f i libucrtd:output.obj
 0001:0003fde0       ?type_case_d@?$output_processor@DV?$stream_output_adapter@D@__crt_stdio_output@@V?$positional_parameter_base@DV?$stream_output_adapter@D@__crt_stdio_output@@@2@@__crt_stdio_output@@AAE_NXZ 10040de0 f i libucrtd:output.obj
 0001:0003fe10       ?type_case_d@?$output_processor@DV?$stream_output_adapter@D@__crt_stdio_output@@V?$standard_base@DV?$stream_output_adapter@D@__crt_stdio_output@@@2@@__crt_stdio_output@@AAE_NXZ 10040e10 f i libucrtd:output.obj
 0001:0003fe40       ?type_case_d@?$output_processor@DV?$string_output_adapter@D@__crt_stdio_output@@V?$format_validation_base@DV?$string_output_adapter@D@__crt_stdio_output@@@2@@__crt_stdio_output@@AAE_NXZ 10040e40 f i libucrtd:output.obj
 0001:0003fe70       ?type_case_d@?$output_processor@DV?$string_output_adapter@D@__crt_stdio_output@@V?$positional_parameter_base@DV?$string_output_adapter@D@__crt_stdio_output@@@2@@__crt_stdio_output@@AAE_NXZ 10040e70 f i libucrtd:output.obj
 0001:0003fea0       ?type_case_d@?$output_processor@DV?$string_output_adapter@D@__crt_stdio_output@@V?$standard_base@DV?$string_output_adapter@D@__crt_stdio_output@@@2@@__crt_stdio_output@@AAE_NXZ 10040ea0 f i libucrtd:output.obj
 0001:0003fed0       ?type_case_d@?$output_processor@_WV?$stream_output_adapter@_W@__crt_stdio_output@@V?$format_validation_base@_WV?$stream_output_adapter@_W@__crt_stdio_output@@@2@@__crt_stdio_output@@AAE_NXZ 10040ed0 f i libucrtd:output.obj
 0001:0003ff00       ?type_case_d@?$output_processor@_WV?$stream_output_adapter@_W@__crt_stdio_output@@V?$positional_parameter_base@_WV?$stream_output_adapter@_W@__crt_stdio_output@@@2@@__crt_stdio_output@@AAE_NXZ 10040f00 f i libucrtd:output.obj
 0001:0003ff30       ?type_case_d@?$output_processor@_WV?$stream_output_adapter@_W@__crt_stdio_output@@V?$standard_base@_WV?$stream_output_adapter@_W@__crt_stdio_output@@@2@@__crt_stdio_output@@AAE_NXZ 10040f30 f i libucrtd:output.obj
 0001:0003ff60       ?type_case_d@?$output_processor@_WV?$string_output_adapter@_W@__crt_stdio_output@@V?$format_validation_base@_WV?$string_output_adapter@_W@__crt_stdio_output@@@2@@__crt_stdio_output@@AAE_NXZ 10040f60 f i libucrtd:output.obj
 0001:0003ff90       ?type_case_d@?$output_processor@_WV?$string_output_adapter@_W@__crt_stdio_output@@V?$positional_parameter_base@_WV?$string_output_adapter@_W@__crt_stdio_output@@@2@@__crt_stdio_output@@AAE_NXZ 10040f90 f i libucrtd:output.obj
 0001:0003ffc0       ?type_case_d@?$output_processor@_WV?$string_output_adapter@_W@__crt_stdio_output@@V?$standard_base@_WV?$string_output_adapter@_W@__crt_stdio_output@@@2@@__crt_stdio_output@@AAE_NXZ 10040fc0 f i libucrtd:output.obj
 0001:0003fff0       ?type_case_integer@?$output_processor@DV?$stream_output_adapter@D@__crt_stdio_output@@V?$format_validation_base@DV?$stream_output_adapter@D@__crt_stdio_output@@@2@@__crt_stdio_output@@AAE_NI_N@Z 10040ff0 f i libucrtd:output.obj
 0001:00040340       ?type_case_integer@?$output_processor@DV?$stream_output_adapter@D@__crt_stdio_output@@V?$positional_parameter_base@DV?$stream_output_adapter@D@__crt_stdio_output@@@2@@__crt_stdio_output@@AAE_NI_N@Z 10041340 f i libucrtd:output.obj
 0001:00040690       ?type_case_integer@?$output_processor@DV?$stream_output_adapter@D@__crt_stdio_output@@V?$standard_base@DV?$stream_output_adapter@D@__crt_stdio_output@@@2@@__crt_stdio_output@@AAE_NI_N@Z 10041690 f i libucrtd:output.obj
 0001:000409e0       ?type_case_integer@?$output_processor@DV?$string_output_adapter@D@__crt_stdio_output@@V?$format_validation_base@DV?$string_output_adapter@D@__crt_stdio_output@@@2@@__crt_stdio_output@@AAE_NI_N@Z 100419e0 f i libucrtd:output.obj
 0001:00040d30       ?type_case_integer@?$output_processor@DV?$string_output_adapter@D@__crt_stdio_output@@V?$positional_parameter_base@DV?$string_output_adapter@D@__crt_stdio_output@@@2@@__crt_stdio_output@@AAE_NI_N@Z 10041d30 f i libucrtd:output.obj
 0001:00041080       ?type_case_integer@?$output_processor@DV?$string_output_adapter@D@__crt_stdio_output@@V?$standard_base@DV?$string_output_adapter@D@__crt_stdio_output@@@2@@__crt_stdio_output@@AAE_NI_N@Z 10042080 f i libucrtd:output.obj
 0001:000413d0       ?type_case_integer@?$output_processor@_WV?$stream_output_adapter@_W@__crt_stdio_output@@V?$format_validation_base@_WV?$stream_output_adapter@_W@__crt_stdio_output@@@2@@__crt_stdio_output@@AAE_NI_N@Z 100423d0 f i libucrtd:output.obj
 0001:00041720       ?type_case_integer@?$output_processor@_WV?$stream_output_adapter@_W@__crt_stdio_output@@V?$positional_parameter_base@_WV?$stream_output_adapter@_W@__crt_stdio_output@@@2@@__crt_stdio_output@@AAE_NI_N@Z 10042720 f i libucrtd:output.obj
 0001:00041a70       ?type_case_integer@?$output_processor@_WV?$stream_output_adapter@_W@__crt_stdio_output@@V?$standard_base@_WV?$stream_output_adapter@_W@__crt_stdio_output@@@2@@__crt_stdio_output@@AAE_NI_N@Z 10042a70 f i libucrtd:output.obj
 0001:00041dc0       ?type_case_integer@?$output_processor@_WV?$string_output_adapter@_W@__crt_stdio_output@@V?$format_validation_base@_WV?$string_output_adapter@_W@__crt_stdio_output@@@2@@__crt_stdio_output@@AAE_NI_N@Z 10042dc0 f i libucrtd:output.obj
 0001:00042110       ?type_case_integer@?$output_processor@_WV?$string_output_adapter@_W@__crt_stdio_output@@V?$positional_parameter_base@_WV?$string_output_adapter@_W@__crt_stdio_output@@@2@@__crt_stdio_output@@AAE_NI_N@Z 10043110 f i libucrtd:output.obj
 0001:00042460       ?type_case_integer@?$output_processor@_WV?$string_output_adapter@_W@__crt_stdio_output@@V?$standard_base@_WV?$string_output_adapter@_W@__crt_stdio_output@@@2@@__crt_stdio_output@@AAE_NI_N@Z 10043460 f i libucrtd:output.obj
 0001:000427b0       ?type_case_n@?$output_processor@DV?$stream_output_adapter@D@__crt_stdio_output@@V?$format_validation_base@DV?$stream_output_adapter@D@__crt_stdio_output@@@2@@__crt_stdio_output@@AAE_NXZ 100437b0 f i libucrtd:output.obj
 0001:000429a0       ?type_case_n@?$output_processor@DV?$stream_output_adapter@D@__crt_stdio_output@@V?$positional_parameter_base@DV?$stream_output_adapter@D@__crt_stdio_output@@@2@@__crt_stdio_output@@AAE_NXZ 100439a0 f i libucrtd:output.obj
 0001:00042b90       ?type_case_n@?$output_processor@DV?$stream_output_adapter@D@__crt_stdio_output@@V?$standard_base@DV?$stream_output_adapter@D@__crt_stdio_output@@@2@@__crt_stdio_output@@AAE_NXZ 10043b90 f i libucrtd:output.obj
 0001:00042d80       ?type_case_n@?$output_processor@DV?$string_output_adapter@D@__crt_stdio_output@@V?$format_validation_base@DV?$string_output_adapter@D@__crt_stdio_output@@@2@@__crt_stdio_output@@AAE_NXZ 10043d80 f i libucrtd:output.obj
 0001:00042f70       ?type_case_n@?$output_processor@DV?$string_output_adapter@D@__crt_stdio_output@@V?$positional_parameter_base@DV?$string_output_adapter@D@__crt_stdio_output@@@2@@__crt_stdio_output@@AAE_NXZ 10043f70 f i libucrtd:output.obj
 0001:00043160       ?type_case_n@?$output_processor@DV?$string_output_adapter@D@__crt_stdio_output@@V?$standard_base@DV?$string_output_adapter@D@__crt_stdio_output@@@2@@__crt_stdio_output@@AAE_NXZ 10044160 f i libucrtd:output.obj
 0001:00043350       ?type_case_n@?$output_processor@_WV?$stream_output_adapter@_W@__crt_stdio_output@@V?$format_validation_base@_WV?$stream_output_adapter@_W@__crt_stdio_output@@@2@@__crt_stdio_output@@AAE_NXZ 10044350 f i libucrtd:output.obj
 0001:00043540       ?type_case_n@?$output_processor@_WV?$stream_output_adapter@_W@__crt_stdio_output@@V?$positional_parameter_base@_WV?$stream_output_adapter@_W@__crt_stdio_output@@@2@@__crt_stdio_output@@AAE_NXZ 10044540 f i libucrtd:output.obj
 0001:00043730       ?type_case_n@?$output_processor@_WV?$stream_output_adapter@_W@__crt_stdio_output@@V?$standard_base@_WV?$stream_output_adapter@_W@__crt_stdio_output@@@2@@__crt_stdio_output@@AAE_NXZ 10044730 f i libucrtd:output.obj
 0001:00043920       ?type_case_n@?$output_processor@_WV?$string_output_adapter@_W@__crt_stdio_output@@V?$format_validation_base@_WV?$string_output_adapter@_W@__crt_stdio_output@@@2@@__crt_stdio_output@@AAE_NXZ 10044920 f i libucrtd:output.obj
 0001:00043b10       ?type_case_n@?$output_processor@_WV?$string_output_adapter@_W@__crt_stdio_output@@V?$positional_parameter_base@_WV?$string_output_adapter@_W@__crt_stdio_output@@@2@@__crt_stdio_output@@AAE_NXZ 10044b10 f i libucrtd:output.obj
 0001:00043d00       ?type_case_n@?$output_processor@_WV?$string_output_adapter@_W@__crt_stdio_output@@V?$standard_base@_WV?$string_output_adapter@_W@__crt_stdio_output@@@2@@__crt_stdio_output@@AAE_NXZ 10044d00 f i libucrtd:output.obj
 0001:00043ef0       ?type_case_o@?$output_processor@DV?$stream_output_adapter@D@__crt_stdio_output@@V?$format_validation_base@DV?$stream_output_adapter@D@__crt_stdio_output@@@2@@__crt_stdio_output@@AAE_NXZ 10044ef0 f i libucrtd:output.obj
 0001:00043f30       ?type_case_o@?$output_processor@DV?$stream_output_adapter@D@__crt_stdio_output@@V?$positional_parameter_base@DV?$stream_output_adapter@D@__crt_stdio_output@@@2@@__crt_stdio_output@@AAE_NXZ 10044f30 f i libucrtd:output.obj
 0001:00043f70       ?type_case_o@?$output_processor@DV?$stream_output_adapter@D@__crt_stdio_output@@V?$standard_base@DV?$stream_output_adapter@D@__crt_stdio_output@@@2@@__crt_stdio_output@@AAE_NXZ 10044f70 f i libucrtd:output.obj
 0001:00043fb0       ?type_case_o@?$output_processor@DV?$string_output_adapter@D@__crt_stdio_output@@V?$format_validation_base@DV?$string_output_adapter@D@__crt_stdio_output@@@2@@__crt_stdio_output@@AAE_NXZ 10044fb0 f i libucrtd:output.obj
 0001:00043ff0       ?type_case_o@?$output_processor@DV?$string_output_adapter@D@__crt_stdio_output@@V?$positional_parameter_base@DV?$string_output_adapter@D@__crt_stdio_output@@@2@@__crt_stdio_output@@AAE_NXZ 10044ff0 f i libucrtd:output.obj
 0001:00044030       ?type_case_o@?$output_processor@DV?$string_output_adapter@D@__crt_stdio_output@@V?$standard_base@DV?$string_output_adapter@D@__crt_stdio_output@@@2@@__crt_stdio_output@@AAE_NXZ 10045030 f i libucrtd:output.obj
 0001:00044070       ?type_case_o@?$output_processor@_WV?$stream_output_adapter@_W@__crt_stdio_output@@V?$format_validation_base@_WV?$stream_output_adapter@_W@__crt_stdio_output@@@2@@__crt_stdio_output@@AAE_NXZ 10045070 f i libucrtd:output.obj
 0001:000440b0       ?type_case_o@?$output_processor@_WV?$stream_output_adapter@_W@__crt_stdio_output@@V?$positional_parameter_base@_WV?$stream_output_adapter@_W@__crt_stdio_output@@@2@@__crt_stdio_output@@AAE_NXZ 100450b0 f i libucrtd:output.obj
 0001:000440f0       ?type_case_o@?$output_processor@_WV?$stream_output_adapter@_W@__crt_stdio_output@@V?$standard_base@_WV?$stream_output_adapter@_W@__crt_stdio_output@@@2@@__crt_stdio_output@@AAE_NXZ 100450f0 f i libucrtd:output.obj
 0001:00044130       ?type_case_o@?$output_processor@_WV?$string_output_adapter@_W@__crt_stdio_output@@V?$format_validation_base@_WV?$string_output_adapter@_W@__crt_stdio_output@@@2@@__crt_stdio_output@@AAE_NXZ 10045130 f i libucrtd:output.obj
 0001:00044170       ?type_case_o@?$output_processor@_WV?$string_output_adapter@_W@__crt_stdio_output@@V?$positional_parameter_base@_WV?$string_output_adapter@_W@__crt_stdio_output@@@2@@__crt_stdio_output@@AAE_NXZ 10045170 f i libucrtd:output.obj
 0001:000441b0       ?type_case_o@?$output_processor@_WV?$string_output_adapter@_W@__crt_stdio_output@@V?$standard_base@_WV?$string_output_adapter@_W@__crt_stdio_output@@@2@@__crt_stdio_output@@AAE_NXZ 100451b0 f i libucrtd:output.obj
 0001:000441f0       ?type_case_p@?$output_processor@DV?$stream_output_adapter@D@__crt_stdio_output@@V?$format_validation_base@DV?$stream_output_adapter@D@__crt_stdio_output@@@2@@__crt_stdio_output@@AAE_NXZ 100451f0 f i libucrtd:output.obj
 0001:00044220       ?type_case_p@?$output_processor@DV?$stream_output_adapter@D@__crt_stdio_output@@V?$positional_parameter_base@DV?$stream_output_adapter@D@__crt_stdio_output@@@2@@__crt_stdio_output@@AAE_NXZ 10045220 f i libucrtd:output.obj
 0001:00044250       ?type_case_p@?$output_processor@DV?$stream_output_adapter@D@__crt_stdio_output@@V?$standard_base@DV?$stream_output_adapter@D@__crt_stdio_output@@@2@@__crt_stdio_output@@AAE_NXZ 10045250 f i libucrtd:output.obj
 0001:00044280       ?type_case_p@?$output_processor@DV?$string_output_adapter@D@__crt_stdio_output@@V?$format_validation_base@DV?$string_output_adapter@D@__crt_stdio_output@@@2@@__crt_stdio_output@@AAE_NXZ 10045280 f i libucrtd:output.obj
 0001:000442b0       ?type_case_p@?$output_processor@DV?$string_output_adapter@D@__crt_stdio_output@@V?$positional_parameter_base@DV?$string_output_adapter@D@__crt_stdio_output@@@2@@__crt_stdio_output@@AAE_NXZ 100452b0 f i libucrtd:output.obj
 0001:000442e0       ?type_case_p@?$output_processor@DV?$string_output_adapter@D@__crt_stdio_output@@V?$standard_base@DV?$string_output_adapter@D@__crt_stdio_output@@@2@@__crt_stdio_output@@AAE_NXZ 100452e0 f i libucrtd:output.obj
 0001:00044310       ?type_case_p@?$output_processor@_WV?$stream_output_adapter@_W@__crt_stdio_output@@V?$format_validation_base@_WV?$stream_output_adapter@_W@__crt_stdio_output@@@2@@__crt_stdio_output@@AAE_NXZ 10045310 f i libucrtd:output.obj
 0001:00044340       ?type_case_p@?$output_processor@_WV?$stream_output_adapter@_W@__crt_stdio_output@@V?$positional_parameter_base@_WV?$stream_output_adapter@_W@__crt_stdio_output@@@2@@__crt_stdio_output@@AAE_NXZ 10045340 f i libucrtd:output.obj
 0001:00044370       ?type_case_p@?$output_processor@_WV?$stream_output_adapter@_W@__crt_stdio_output@@V?$standard_base@_WV?$stream_output_adapter@_W@__crt_stdio_output@@@2@@__crt_stdio_output@@AAE_NXZ 10045370 f i libucrtd:output.obj
 0001:000443a0       ?type_case_p@?$output_processor@_WV?$string_output_adapter@_W@__crt_stdio_output@@V?$format_validation_base@_WV?$string_output_adapter@_W@__crt_stdio_output@@@2@@__crt_stdio_output@@AAE_NXZ 100453a0 f i libucrtd:output.obj
 0001:000443d0       ?type_case_p@?$output_processor@_WV?$string_output_adapter@_W@__crt_stdio_output@@V?$positional_parameter_base@_WV?$string_output_adapter@_W@__crt_stdio_output@@@2@@__crt_stdio_output@@AAE_NXZ 100453d0 f i libucrtd:output.obj
 0001:00044400       ?type_case_p@?$output_processor@_WV?$string_output_adapter@_W@__crt_stdio_output@@V?$standard_base@_WV?$string_output_adapter@_W@__crt_stdio_output@@@2@@__crt_stdio_output@@AAE_NXZ 10045400 f i libucrtd:output.obj
 0001:00044430       ?type_case_s@?$output_processor@DV?$stream_output_adapter@D@__crt_stdio_output@@V?$format_validation_base@DV?$stream_output_adapter@D@__crt_stdio_output@@@2@@__crt_stdio_output@@AAE_NXZ 10045430 f i libucrtd:output.obj
 0001:00044520       ?type_case_s@?$output_processor@DV?$stream_output_adapter@D@__crt_stdio_output@@V?$positional_parameter_base@DV?$stream_output_adapter@D@__crt_stdio_output@@@2@@__crt_stdio_output@@AAE_NXZ 10045520 f i libucrtd:output.obj
 0001:00044610       ?type_case_s@?$output_processor@DV?$stream_output_adapter@D@__crt_stdio_output@@V?$standard_base@DV?$stream_output_adapter@D@__crt_stdio_output@@@2@@__crt_stdio_output@@AAE_NXZ 10045610 f i libucrtd:output.obj
 0001:00044700       ?type_case_s@?$output_processor@DV?$string_output_adapter@D@__crt_stdio_output@@V?$format_validation_base@DV?$string_output_adapter@D@__crt_stdio_output@@@2@@__crt_stdio_output@@AAE_NXZ 10045700 f i libucrtd:output.obj
 0001:000447f0       ?type_case_s@?$output_processor@DV?$string_output_adapter@D@__crt_stdio_output@@V?$positional_parameter_base@DV?$string_output_adapter@D@__crt_stdio_output@@@2@@__crt_stdio_output@@AAE_NXZ 100457f0 f i libucrtd:output.obj
 0001:000448e0       ?type_case_s@?$output_processor@DV?$string_output_adapter@D@__crt_stdio_output@@V?$standard_base@DV?$string_output_adapter@D@__crt_stdio_output@@@2@@__crt_stdio_output@@AAE_NXZ 100458e0 f i libucrtd:output.obj
 0001:000449d0       ?type_case_s@?$output_processor@_WV?$stream_output_adapter@_W@__crt_stdio_output@@V?$format_validation_base@_WV?$stream_output_adapter@_W@__crt_stdio_output@@@2@@__crt_stdio_output@@AAE_NXZ 100459d0 f i libucrtd:output.obj
 0001:00044ac0       ?type_case_s@?$output_processor@_WV?$stream_output_adapter@_W@__crt_stdio_output@@V?$positional_parameter_base@_WV?$stream_output_adapter@_W@__crt_stdio_output@@@2@@__crt_stdio_output@@AAE_NXZ 10045ac0 f i libucrtd:output.obj
 0001:00044bb0       ?type_case_s@?$output_processor@_WV?$stream_output_adapter@_W@__crt_stdio_output@@V?$standard_base@_WV?$stream_output_adapter@_W@__crt_stdio_output@@@2@@__crt_stdio_output@@AAE_NXZ 10045bb0 f i libucrtd:output.obj
 0001:00044ca0       ?type_case_s@?$output_processor@_WV?$string_output_adapter@_W@__crt_stdio_output@@V?$format_validation_base@_WV?$string_output_adapter@_W@__crt_stdio_output@@@2@@__crt_stdio_output@@AAE_NXZ 10045ca0 f i libucrtd:output.obj
 0001:00044d90       ?type_case_s@?$output_processor@_WV?$string_output_adapter@_W@__crt_stdio_output@@V?$positional_parameter_base@_WV?$string_output_adapter@_W@__crt_stdio_output@@@2@@__crt_stdio_output@@AAE_NXZ 10045d90 f i libucrtd:output.obj
 0001:00044e80       ?type_case_s@?$output_processor@_WV?$string_output_adapter@_W@__crt_stdio_output@@V?$standard_base@_WV?$string_output_adapter@_W@__crt_stdio_output@@@2@@__crt_stdio_output@@AAE_NXZ 10045e80 f i libucrtd:output.obj
 0001:00044f70       ?type_case_s_compute_narrow_string_length@?$output_processor@DV?$stream_output_adapter@D@__crt_stdio_output@@V?$format_validation_base@DV?$stream_output_adapter@D@__crt_stdio_output@@@2@@__crt_stdio_output@@ABEHHD@Z 10045f70 f i libucrtd:output.obj
 0001:00044fa0       ?type_case_s_compute_narrow_string_length@?$output_processor@DV?$stream_output_adapter@D@__crt_stdio_output@@V?$positional_parameter_base@DV?$stream_output_adapter@D@__crt_stdio_output@@@2@@__crt_stdio_output@@ABEHHD@Z 10045fa0 f i libucrtd:output.obj
 0001:00044fd0       ?type_case_s_compute_narrow_string_length@?$output_processor@DV?$stream_output_adapter@D@__crt_stdio_output@@V?$standard_base@DV?$stream_output_adapter@D@__crt_stdio_output@@@2@@__crt_stdio_output@@ABEHHD@Z 10045fd0 f i libucrtd:output.obj
 0001:00045000       ?type_case_s_compute_narrow_string_length@?$output_processor@DV?$string_output_adapter@D@__crt_stdio_output@@V?$format_validation_base@DV?$string_output_adapter@D@__crt_stdio_output@@@2@@__crt_stdio_output@@ABEHHD@Z 10046000 f i libucrtd:output.obj
 0001:00045030       ?type_case_s_compute_narrow_string_length@?$output_processor@DV?$string_output_adapter@D@__crt_stdio_output@@V?$positional_parameter_base@DV?$string_output_adapter@D@__crt_stdio_output@@@2@@__crt_stdio_output@@ABEHHD@Z 10046030 f i libucrtd:output.obj
 0001:00045060       ?type_case_s_compute_narrow_string_length@?$output_processor@DV?$string_output_adapter@D@__crt_stdio_output@@V?$standard_base@DV?$string_output_adapter@D@__crt_stdio_output@@@2@@__crt_stdio_output@@ABEHHD@Z 10046060 f i libucrtd:output.obj
 0001:00045090       ?type_case_s_compute_narrow_string_length@?$output_processor@_WV?$stream_output_adapter@_W@__crt_stdio_output@@V?$format_validation_base@_WV?$stream_output_adapter@_W@__crt_stdio_output@@@2@@__crt_stdio_output@@ABEHH_W@Z 10046090 f i libucrtd:output.obj
 0001:00045100       ?type_case_s_compute_narrow_string_length@?$output_processor@_WV?$stream_output_adapter@_W@__crt_stdio_output@@V?$positional_parameter_base@_WV?$stream_output_adapter@_W@__crt_stdio_output@@@2@@__crt_stdio_output@@ABEHH_W@Z 10046100 f i libucrtd:output.obj
 0001:00045170       ?type_case_s_compute_narrow_string_length@?$output_processor@_WV?$stream_output_adapter@_W@__crt_stdio_output@@V?$standard_base@_WV?$stream_output_adapter@_W@__crt_stdio_output@@@2@@__crt_stdio_output@@ABEHH_W@Z 10046170 f i libucrtd:output.obj
 0001:000451e0       ?type_case_s_compute_narrow_string_length@?$output_processor@_WV?$string_output_adapter@_W@__crt_stdio_output@@V?$format_validation_base@_WV?$string_output_adapter@_W@__crt_stdio_output@@@2@@__crt_stdio_output@@ABEHH_W@Z 100461e0 f i libucrtd:output.obj
 0001:00045250       ?type_case_s_compute_narrow_string_length@?$output_processor@_WV?$string_output_adapter@_W@__crt_stdio_output@@V?$positional_parameter_base@_WV?$string_output_adapter@_W@__crt_stdio_output@@@2@@__crt_stdio_output@@ABEHH_W@Z 10046250 f i libucrtd:output.obj
 0001:000452c0       ?type_case_s_compute_narrow_string_length@?$output_processor@_WV?$string_output_adapter@_W@__crt_stdio_output@@V?$standard_base@_WV?$string_output_adapter@_W@__crt_stdio_output@@@2@@__crt_stdio_output@@ABEHH_W@Z 100462c0 f i libucrtd:output.obj
 0001:00045330       ?type_case_u@?$output_processor@DV?$stream_output_adapter@D@__crt_stdio_output@@V?$format_validation_base@DV?$stream_output_adapter@D@__crt_stdio_output@@@2@@__crt_stdio_output@@AAE_NXZ 10046330 f i libucrtd:output.obj
 0001:00045350       ?type_case_u@?$output_processor@DV?$stream_output_adapter@D@__crt_stdio_output@@V?$positional_parameter_base@DV?$stream_output_adapter@D@__crt_stdio_output@@@2@@__crt_stdio_output@@AAE_NXZ 10046350 f i libucrtd:output.obj
 0001:00045370       ?type_case_u@?$output_processor@DV?$stream_output_adapter@D@__crt_stdio_output@@V?$standard_base@DV?$stream_output_adapter@D@__crt_stdio_output@@@2@@__crt_stdio_output@@AAE_NXZ 10046370 f i libucrtd:output.obj
 0001:00045390       ?type_case_u@?$output_processor@DV?$string_output_adapter@D@__crt_stdio_output@@V?$format_validation_base@DV?$string_output_adapter@D@__crt_stdio_output@@@2@@__crt_stdio_output@@AAE_NXZ 10046390 f i libucrtd:output.obj
 0001:000453b0       ?type_case_u@?$output_processor@DV?$string_output_adapter@D@__crt_stdio_output@@V?$positional_parameter_base@DV?$string_output_adapter@D@__crt_stdio_output@@@2@@__crt_stdio_output@@AAE_NXZ 100463b0 f i libucrtd:output.obj
 0001:000453d0       ?type_case_u@?$output_processor@DV?$string_output_adapter@D@__crt_stdio_output@@V?$standard_base@DV?$string_output_adapter@D@__crt_stdio_output@@@2@@__crt_stdio_output@@AAE_NXZ 100463d0 f i libucrtd:output.obj
 0001:000453f0       ?type_case_u@?$output_processor@_WV?$stream_output_adapter@_W@__crt_stdio_output@@V?$format_validation_base@_WV?$stream_output_adapter@_W@__crt_stdio_output@@@2@@__crt_stdio_output@@AAE_NXZ 100463f0 f i libucrtd:output.obj
 0001:00045410       ?type_case_u@?$output_processor@_WV?$stream_output_adapter@_W@__crt_stdio_output@@V?$positional_parameter_base@_WV?$stream_output_adapter@_W@__crt_stdio_output@@@2@@__crt_stdio_output@@AAE_NXZ 10046410 f i libucrtd:output.obj
 0001:00045430       ?type_case_u@?$output_processor@_WV?$stream_output_adapter@_W@__crt_stdio_output@@V?$standard_base@_WV?$stream_output_adapter@_W@__crt_stdio_output@@@2@@__crt_stdio_output@@AAE_NXZ 10046430 f i libucrtd:output.obj
 0001:00045450       ?type_case_u@?$output_processor@_WV?$string_output_adapter@_W@__crt_stdio_output@@V?$format_validation_base@_WV?$string_output_adapter@_W@__crt_stdio_output@@@2@@__crt_stdio_output@@AAE_NXZ 10046450 f i libucrtd:output.obj
 0001:00045470       ?type_case_u@?$output_processor@_WV?$string_output_adapter@_W@__crt_stdio_output@@V?$positional_parameter_base@_WV?$string_output_adapter@_W@__crt_stdio_output@@@2@@__crt_stdio_output@@AAE_NXZ 10046470 f i libucrtd:output.obj
 0001:00045490       ?type_case_u@?$output_processor@_WV?$string_output_adapter@_W@__crt_stdio_output@@V?$standard_base@_WV?$string_output_adapter@_W@__crt_stdio_output@@@2@@__crt_stdio_output@@AAE_NXZ 10046490 f i libucrtd:output.obj
 0001:000454b0       ?type_case_x@?$output_processor@DV?$stream_output_adapter@D@__crt_stdio_output@@V?$format_validation_base@DV?$stream_output_adapter@D@__crt_stdio_output@@@2@@__crt_stdio_output@@AAE_NXZ 100464b0 f i libucrtd:output.obj
 0001:000454d0       ?type_case_x@?$output_processor@DV?$stream_output_adapter@D@__crt_stdio_output@@V?$positional_parameter_base@DV?$stream_output_adapter@D@__crt_stdio_output@@@2@@__crt_stdio_output@@AAE_NXZ 100464d0 f i libucrtd:output.obj
 0001:000454f0       ?type_case_x@?$output_processor@DV?$stream_output_adapter@D@__crt_stdio_output@@V?$standard_base@DV?$stream_output_adapter@D@__crt_stdio_output@@@2@@__crt_stdio_output@@AAE_NXZ 100464f0 f i libucrtd:output.obj
 0001:00045510       ?type_case_x@?$output_processor@DV?$string_output_adapter@D@__crt_stdio_output@@V?$format_validation_base@DV?$string_output_adapter@D@__crt_stdio_output@@@2@@__crt_stdio_output@@AAE_NXZ 10046510 f i libucrtd:output.obj
 0001:00045530       ?type_case_x@?$output_processor@DV?$string_output_adapter@D@__crt_stdio_output@@V?$positional_parameter_base@DV?$string_output_adapter@D@__crt_stdio_output@@@2@@__crt_stdio_output@@AAE_NXZ 10046530 f i libucrtd:output.obj
 0001:00045550       ?type_case_x@?$output_processor@DV?$string_output_adapter@D@__crt_stdio_output@@V?$standard_base@DV?$string_output_adapter@D@__crt_stdio_output@@@2@@__crt_stdio_output@@AAE_NXZ 10046550 f i libucrtd:output.obj
 0001:00045570       ?type_case_x@?$output_processor@_WV?$stream_output_adapter@_W@__crt_stdio_output@@V?$format_validation_base@_WV?$stream_output_adapter@_W@__crt_stdio_output@@@2@@__crt_stdio_output@@AAE_NXZ 10046570 f i libucrtd:output.obj
 0001:00045590       ?type_case_x@?$output_processor@_WV?$stream_output_adapter@_W@__crt_stdio_output@@V?$positional_parameter_base@_WV?$stream_output_adapter@_W@__crt_stdio_output@@@2@@__crt_stdio_output@@AAE_NXZ 10046590 f i libucrtd:output.obj
 0001:000455b0       ?type_case_x@?$output_processor@_WV?$stream_output_adapter@_W@__crt_stdio_output@@V?$standard_base@_WV?$stream_output_adapter@_W@__crt_stdio_output@@@2@@__crt_stdio_output@@AAE_NXZ 100465b0 f i libucrtd:output.obj
 0001:000455d0       ?type_case_x@?$output_processor@_WV?$string_output_adapter@_W@__crt_stdio_output@@V?$format_validation_base@_WV?$string_output_adapter@_W@__crt_stdio_output@@@2@@__crt_stdio_output@@AAE_NXZ 100465d0 f i libucrtd:output.obj
 0001:000455f0       ?type_case_x@?$output_processor@_WV?$string_output_adapter@_W@__crt_stdio_output@@V?$positional_parameter_base@_WV?$string_output_adapter@_W@__crt_stdio_output@@@2@@__crt_stdio_output@@AAE_NXZ 100465f0 f i libucrtd:output.obj
 0001:00045610       ?type_case_x@?$output_processor@_WV?$string_output_adapter@_W@__crt_stdio_output@@V?$standard_base@_WV?$string_output_adapter@_W@__crt_stdio_output@@@2@@__crt_stdio_output@@AAE_NXZ 10046610 f i libucrtd:output.obj
 0001:00045630       ?unset_flag@?$output_processor@DV?$stream_output_adapter@D@__crt_stdio_output@@V?$format_validation_base@DV?$stream_output_adapter@D@__crt_stdio_output@@@2@@__crt_stdio_output@@AAEXI@Z 10046630 f i libucrtd:output.obj
 0001:00045650       ?unset_flag@?$output_processor@DV?$stream_output_adapter@D@__crt_stdio_output@@V?$positional_parameter_base@DV?$stream_output_adapter@D@__crt_stdio_output@@@2@@__crt_stdio_output@@AAEXI@Z 10046650 f i libucrtd:output.obj
 0001:00045670       ?unset_flag@?$output_processor@DV?$stream_output_adapter@D@__crt_stdio_output@@V?$standard_base@DV?$stream_output_adapter@D@__crt_stdio_output@@@2@@__crt_stdio_output@@AAEXI@Z 10046670 f i libucrtd:output.obj
 0001:00045690       ?unset_flag@?$output_processor@DV?$string_output_adapter@D@__crt_stdio_output@@V?$format_validation_base@DV?$string_output_adapter@D@__crt_stdio_output@@@2@@__crt_stdio_output@@AAEXI@Z 10046690 f i libucrtd:output.obj
 0001:000456b0       ?unset_flag@?$output_processor@DV?$string_output_adapter@D@__crt_stdio_output@@V?$positional_parameter_base@DV?$string_output_adapter@D@__crt_stdio_output@@@2@@__crt_stdio_output@@AAEXI@Z 100466b0 f i libucrtd:output.obj
 0001:000456d0       ?unset_flag@?$output_processor@DV?$string_output_adapter@D@__crt_stdio_output@@V?$standard_base@DV?$string_output_adapter@D@__crt_stdio_output@@@2@@__crt_stdio_output@@AAEXI@Z 100466d0 f i libucrtd:output.obj
 0001:000456f0       ?unset_flag@?$output_processor@_WV?$stream_output_adapter@_W@__crt_stdio_output@@V?$format_validation_base@_WV?$stream_output_adapter@_W@__crt_stdio_output@@@2@@__crt_stdio_output@@AAEXI@Z 100466f0 f i libucrtd:output.obj
 0001:00045710       ?unset_flag@?$output_processor@_WV?$stream_output_adapter@_W@__crt_stdio_output@@V?$positional_parameter_base@_WV?$stream_output_adapter@_W@__crt_stdio_output@@@2@@__crt_stdio_output@@AAEXI@Z 10046710 f i libucrtd:output.obj
 0001:00045730       ?unset_flag@?$output_processor@_WV?$stream_output_adapter@_W@__crt_stdio_output@@V?$standard_base@_WV?$stream_output_adapter@_W@__crt_stdio_output@@@2@@__crt_stdio_output@@AAEXI@Z 10046730 f i libucrtd:output.obj
 0001:00045750       ?unset_flag@?$output_processor@_WV?$string_output_adapter@_W@__crt_stdio_output@@V?$format_validation_base@_WV?$string_output_adapter@_W@__crt_stdio_output@@@2@@__crt_stdio_output@@AAEXI@Z 10046750 f i libucrtd:output.obj
 0001:00045770       ?unset_flag@?$output_processor@_WV?$string_output_adapter@_W@__crt_stdio_output@@V?$positional_parameter_base@_WV?$string_output_adapter@_W@__crt_stdio_output@@@2@@__crt_stdio_output@@AAEXI@Z 10046770 f i libucrtd:output.obj
 0001:00045790       ?unset_flag@?$output_processor@_WV?$string_output_adapter@_W@__crt_stdio_output@@V?$standard_base@_WV?$string_output_adapter@_W@__crt_stdio_output@@@2@@__crt_stdio_output@@AAEXI@Z 10046790 f i libucrtd:output.obj
 0001:000457b0       ?update_field_width@?$positional_parameter_base@DV?$stream_output_adapter@D@__crt_stdio_output@@@__crt_stdio_output@@IAE_NXZ 100467b0 f i libucrtd:output.obj
 0001:00045930       ?update_field_width@?$positional_parameter_base@DV?$string_output_adapter@D@__crt_stdio_output@@@__crt_stdio_output@@IAE_NXZ 10046930 f i libucrtd:output.obj
 0001:00045ab0       ?update_field_width@?$positional_parameter_base@_WV?$stream_output_adapter@_W@__crt_stdio_output@@@__crt_stdio_output@@IAE_NXZ 10046ab0 f i libucrtd:output.obj
 0001:00045c30       ?update_field_width@?$positional_parameter_base@_WV?$string_output_adapter@_W@__crt_stdio_output@@@__crt_stdio_output@@IAE_NXZ 10046c30 f i libucrtd:output.obj
 0001:00045db0       ?update_field_width@?$standard_base@DV?$stream_output_adapter@D@__crt_stdio_output@@@__crt_stdio_output@@IAE_NXZ 10046db0 f i libucrtd:output.obj
 0001:00045de0       ?update_field_width@?$standard_base@DV?$string_output_adapter@D@__crt_stdio_output@@@__crt_stdio_output@@IAE_NXZ 10046de0 f i libucrtd:output.obj
 0001:00045e10       ?update_field_width@?$standard_base@_WV?$stream_output_adapter@_W@__crt_stdio_output@@@__crt_stdio_output@@IAE_NXZ 10046e10 f i libucrtd:output.obj
 0001:00045e40       ?update_field_width@?$standard_base@_WV?$string_output_adapter@_W@__crt_stdio_output@@@__crt_stdio_output@@IAE_NXZ 10046e40 f i libucrtd:output.obj
 0001:00045e70       ?update_precision@?$positional_parameter_base@DV?$stream_output_adapter@D@__crt_stdio_output@@@__crt_stdio_output@@IAE_NXZ 10046e70 f i libucrtd:output.obj
 0001:00045ff0       ?update_precision@?$positional_parameter_base@DV?$string_output_adapter@D@__crt_stdio_output@@@__crt_stdio_output@@IAE_NXZ 10046ff0 f i libucrtd:output.obj
 0001:00046170       ?update_precision@?$positional_parameter_base@_WV?$stream_output_adapter@_W@__crt_stdio_output@@@__crt_stdio_output@@IAE_NXZ 10047170 f i libucrtd:output.obj
 0001:000462f0       ?update_precision@?$positional_parameter_base@_WV?$string_output_adapter@_W@__crt_stdio_output@@@__crt_stdio_output@@IAE_NXZ 100472f0 f i libucrtd:output.obj
 0001:00046470       ?update_precision@?$standard_base@DV?$stream_output_adapter@D@__crt_stdio_output@@@__crt_stdio_output@@IAE_NXZ 10047470 f i libucrtd:output.obj
 0001:000464a0       ?update_precision@?$standard_base@DV?$string_output_adapter@D@__crt_stdio_output@@@__crt_stdio_output@@IAE_NXZ 100474a0 f i libucrtd:output.obj
 0001:000464d0       ?update_precision@?$standard_base@_WV?$stream_output_adapter@_W@__crt_stdio_output@@@__crt_stdio_output@@IAE_NXZ 100474d0 f i libucrtd:output.obj
 0001:00046500       ?update_precision@?$standard_base@_WV?$string_output_adapter@_W@__crt_stdio_output@@@__crt_stdio_output@@IAE_NXZ 10047500 f i libucrtd:output.obj
 0001:00046530       ?valid@__crt_stdio_stream@@QBE_NXZ 10047530 f i libucrtd:output.obj
 0001:00046560       ?validate@?$stream_output_adapter@D@__crt_stdio_output@@QBE_NXZ 10047560 f i libucrtd:output.obj
 0001:00046610       ?validate@?$stream_output_adapter@_W@__crt_stdio_output@@QBE_NXZ 10047610 f i libucrtd:output.obj
 0001:000466c0       ?validate@?$string_output_adapter@D@__crt_stdio_output@@QBE_NXZ 100476c0 f i libucrtd:output.obj
 0001:00046750       ?validate@?$string_output_adapter@_W@__crt_stdio_output@@QBE_NXZ 10047750 f i libucrtd:output.obj
 0001:000467e0       ?validate_and_store_parameter_data@?$positional_parameter_base@DV?$stream_output_adapter@D@__crt_stdio_output@@@__crt_stdio_output@@AAE_NAAUparameter_data@12@W4parameter_type@12@DW4length_modifier@2@@Z 100477e0 f i libucrtd:output.obj
 0001:000468b0       ?validate_and_store_parameter_data@?$positional_parameter_base@DV?$string_output_adapter@D@__crt_stdio_output@@@__crt_stdio_output@@AAE_NAAUparameter_data@12@W4parameter_type@12@DW4length_modifier@2@@Z 100478b0 f i libucrtd:output.obj
 0001:00046980       ?validate_and_store_parameter_data@?$positional_parameter_base@_WV?$stream_output_adapter@_W@__crt_stdio_output@@@__crt_stdio_output@@AAE_NAAUparameter_data@12@W4parameter_type@12@_WW4length_modifier@2@@Z 10047980 f i libucrtd:output.obj
 0001:00046a60       ?validate_and_store_parameter_data@?$positional_parameter_base@_WV?$string_output_adapter@_W@__crt_stdio_output@@@__crt_stdio_output@@AAE_NAAUparameter_data@12@W4parameter_type@12@_WW4length_modifier@2@@Z 10047a60 f i libucrtd:output.obj
 0001:00046b40       ?validate_and_update_state_at_beginning_of_format_character@?$positional_parameter_base@DV?$stream_output_adapter@D@__crt_stdio_output@@@__crt_stdio_output@@IAE_NXZ 10047b40 f i libucrtd:output.obj
 0001:00046d60       ?validate_and_update_state_at_beginning_of_format_character@?$positional_parameter_base@DV?$string_output_adapter@D@__crt_stdio_output@@@__crt_stdio_output@@IAE_NXZ 10047d60 f i libucrtd:output.obj
 0001:00046f80       ?validate_and_update_state_at_beginning_of_format_character@?$positional_parameter_base@_WV?$stream_output_adapter@_W@__crt_stdio_output@@@__crt_stdio_output@@IAE_NXZ 10047f80 f i libucrtd:output.obj
 0001:000471a0       ?validate_and_update_state_at_beginning_of_format_character@?$positional_parameter_base@_WV?$string_output_adapter@_W@__crt_stdio_output@@@__crt_stdio_output@@IAE_NXZ 100481a0 f i libucrtd:output.obj
 0001:000473c0       ?validate_and_update_state_at_beginning_of_format_character@?$standard_base@DV?$stream_output_adapter@D@__crt_stdio_output@@@__crt_stdio_output@@IAE_NXZ 100483c0 f i libucrtd:output.obj
 0001:000473d0       ?validate_and_update_state_at_beginning_of_format_character@?$standard_base@DV?$string_output_adapter@D@__crt_stdio_output@@@__crt_stdio_output@@IAE_NXZ 100483d0 f i libucrtd:output.obj
 0001:000473e0       ?validate_and_update_state_at_beginning_of_format_character@?$standard_base@_WV?$stream_output_adapter@_W@__crt_stdio_output@@@__crt_stdio_output@@IAE_NXZ 100483e0 f i libucrtd:output.obj
 0001:000473f0       ?validate_and_update_state_at_beginning_of_format_character@?$standard_base@_WV?$string_output_adapter@_W@__crt_stdio_output@@@__crt_stdio_output@@IAE_NXZ 100483f0 f i libucrtd:output.obj
 0001:00047400       ?validate_and_update_state_at_end_of_format_string@?$format_validation_base@DV?$stream_output_adapter@D@__crt_stdio_output@@@__crt_stdio_output@@IBE_NXZ 10048400 f i libucrtd:output.obj
 0001:000474a0       ?validate_and_update_state_at_end_of_format_string@?$format_validation_base@DV?$string_output_adapter@D@__crt_stdio_output@@@__crt_stdio_output@@IBE_NXZ 100484a0 f i libucrtd:output.obj
 0001:00047540       ?validate_and_update_state_at_end_of_format_string@?$format_validation_base@_WV?$stream_output_adapter@_W@__crt_stdio_output@@@__crt_stdio_output@@IBE_NXZ 10048540 f i libucrtd:output.obj
 0001:000475e0       ?validate_and_update_state_at_end_of_format_string@?$format_validation_base@_WV?$string_output_adapter@_W@__crt_stdio_output@@@__crt_stdio_output@@IBE_NXZ 100485e0 f i libucrtd:output.obj
 0001:00047680       ?validate_and_update_state_at_end_of_format_string@?$positional_parameter_base@DV?$stream_output_adapter@D@__crt_stdio_output@@@__crt_stdio_output@@IAE_NXZ 10048680 f i libucrtd:output.obj
 0001:00047820       ?validate_and_update_state_at_end_of_format_string@?$positional_parameter_base@DV?$string_output_adapter@D@__crt_stdio_output@@@__crt_stdio_output@@IAE_NXZ 10048820 f i libucrtd:output.obj
 0001:000479c0       ?validate_and_update_state_at_end_of_format_string@?$positional_parameter_base@_WV?$stream_output_adapter@_W@__crt_stdio_output@@@__crt_stdio_output@@IAE_NXZ 100489c0 f i libucrtd:output.obj
 0001:00047b60       ?validate_and_update_state_at_end_of_format_string@?$positional_parameter_base@_WV?$string_output_adapter@_W@__crt_stdio_output@@@__crt_stdio_output@@IAE_NXZ 10048b60 f i libucrtd:output.obj
 0001:00047d00       ?validate_and_update_state_at_end_of_format_string@?$standard_base@DV?$stream_output_adapter@D@__crt_stdio_output@@@__crt_stdio_output@@IBE_NXZ 10048d00 f i libucrtd:output.obj
 0001:00047d10       ?validate_and_update_state_at_end_of_format_string@?$standard_base@DV?$string_output_adapter@D@__crt_stdio_output@@@__crt_stdio_output@@IBE_NXZ 10048d10 f i libucrtd:output.obj
 0001:00047d20       ?validate_and_update_state_at_end_of_format_string@?$standard_base@_WV?$stream_output_adapter@_W@__crt_stdio_output@@@__crt_stdio_output@@IBE_NXZ 10048d20 f i libucrtd:output.obj
 0001:00047d30       ?validate_and_update_state_at_end_of_format_string@?$standard_base@_WV?$string_output_adapter@_W@__crt_stdio_output@@@__crt_stdio_output@@IBE_NXZ 10048d30 f i libucrtd:output.obj
 0001:00047d40       ?validate_state_for_type_case_a@?$positional_parameter_base@DV?$stream_output_adapter@D@__crt_stdio_output@@@__crt_stdio_output@@IAE_NXZ 10048d40 f i libucrtd:output.obj
 0001:00047e30       ?validate_state_for_type_case_a@?$positional_parameter_base@DV?$string_output_adapter@D@__crt_stdio_output@@@__crt_stdio_output@@IAE_NXZ 10048e30 f i libucrtd:output.obj
 0001:00047f20       ?validate_state_for_type_case_a@?$positional_parameter_base@_WV?$stream_output_adapter@_W@__crt_stdio_output@@@__crt_stdio_output@@IAE_NXZ 10048f20 f i libucrtd:output.obj
 0001:00048010       ?validate_state_for_type_case_a@?$positional_parameter_base@_WV?$string_output_adapter@_W@__crt_stdio_output@@@__crt_stdio_output@@IAE_NXZ 10049010 f i libucrtd:output.obj
 0001:00048100       ?validate_state_for_type_case_a@?$standard_base@DV?$stream_output_adapter@D@__crt_stdio_output@@@__crt_stdio_output@@IBE_NXZ 10049100 f i libucrtd:output.obj
 0001:00048110       ?validate_state_for_type_case_a@?$standard_base@DV?$string_output_adapter@D@__crt_stdio_output@@@__crt_stdio_output@@IBE_NXZ 10049110 f i libucrtd:output.obj
 0001:00048120       ?validate_state_for_type_case_a@?$standard_base@_WV?$stream_output_adapter@_W@__crt_stdio_output@@@__crt_stdio_output@@IBE_NXZ 10049120 f i libucrtd:output.obj
 0001:00048130       ?validate_state_for_type_case_a@?$standard_base@_WV?$string_output_adapter@_W@__crt_stdio_output@@@__crt_stdio_output@@IBE_NXZ 10049130 f i libucrtd:output.obj
 0001:00048140       ?validate_stream_is_ansi_if_required@?$__acrt_stdio_char_traits@D@@SA_NQAU_iobuf@@@Z 10049140 f i libucrtd:output.obj
 0001:00048270       ?validate_stream_is_ansi_if_required@?$__acrt_stdio_char_traits@_W@@SA_NQAU_iobuf@@@Z 10049270 f i libucrtd:output.obj
 0001:00048280       ?wide_null_string@?$output_processor@DV?$stream_output_adapter@D@__crt_stdio_output@@V?$format_validation_base@DV?$stream_output_adapter@D@__crt_stdio_output@@@2@@__crt_stdio_output@@CAPA_WXZ 10049280 f i libucrtd:output.obj
 0001:00048290       ?wide_null_string@?$output_processor@DV?$stream_output_adapter@D@__crt_stdio_output@@V?$positional_parameter_base@DV?$stream_output_adapter@D@__crt_stdio_output@@@2@@__crt_stdio_output@@CAPA_WXZ 10049290 f i libucrtd:output.obj
 0001:000482a0       ?wide_null_string@?$output_processor@DV?$stream_output_adapter@D@__crt_stdio_output@@V?$standard_base@DV?$stream_output_adapter@D@__crt_stdio_output@@@2@@__crt_stdio_output@@CAPA_WXZ 100492a0 f i libucrtd:output.obj
 0001:000482b0       ?wide_null_string@?$output_processor@DV?$string_output_adapter@D@__crt_stdio_output@@V?$format_validation_base@DV?$string_output_adapter@D@__crt_stdio_output@@@2@@__crt_stdio_output@@CAPA_WXZ 100492b0 f i libucrtd:output.obj
 0001:000482c0       ?wide_null_string@?$output_processor@DV?$string_output_adapter@D@__crt_stdio_output@@V?$positional_parameter_base@DV?$string_output_adapter@D@__crt_stdio_output@@@2@@__crt_stdio_output@@CAPA_WXZ 100492c0 f i libucrtd:output.obj
 0001:000482d0       ?wide_null_string@?$output_processor@DV?$string_output_adapter@D@__crt_stdio_output@@V?$standard_base@DV?$string_output_adapter@D@__crt_stdio_output@@@2@@__crt_stdio_output@@CAPA_WXZ 100492d0 f i libucrtd:output.obj
 0001:000482e0       ?wide_null_string@?$output_processor@_WV?$stream_output_adapter@_W@__crt_stdio_output@@V?$format_validation_base@_WV?$stream_output_adapter@_W@__crt_stdio_output@@@2@@__crt_stdio_output@@CAPA_WXZ 100492e0 f i libucrtd:output.obj
 0001:000482f0       ?wide_null_string@?$output_processor@_WV?$stream_output_adapter@_W@__crt_stdio_output@@V?$positional_parameter_base@_WV?$stream_output_adapter@_W@__crt_stdio_output@@@2@@__crt_stdio_output@@CAPA_WXZ 100492f0 f i libucrtd:output.obj
 0001:00048300       ?wide_null_string@?$output_processor@_WV?$stream_output_adapter@_W@__crt_stdio_output@@V?$standard_base@_WV?$stream_output_adapter@_W@__crt_stdio_output@@@2@@__crt_stdio_output@@CAPA_WXZ 10049300 f i libucrtd:output.obj
 0001:00048310       ?wide_null_string@?$output_processor@_WV?$string_output_adapter@_W@__crt_stdio_output@@V?$format_validation_base@_WV?$string_output_adapter@_W@__crt_stdio_output@@@2@@__crt_stdio_output@@CAPA_WXZ 10049310 f i libucrtd:output.obj
 0001:00048320       ?wide_null_string@?$output_processor@_WV?$string_output_adapter@_W@__crt_stdio_output@@V?$positional_parameter_base@_WV?$string_output_adapter@_W@__crt_stdio_output@@@2@@__crt_stdio_output@@CAPA_WXZ 10049320 f i libucrtd:output.obj
 0001:00048330       ?wide_null_string@?$output_processor@_WV?$string_output_adapter@_W@__crt_stdio_output@@V?$standard_base@_WV?$string_output_adapter@_W@__crt_stdio_output@@@2@@__crt_stdio_output@@CAPA_WXZ 10049330 f i libucrtd:output.obj
 0001:00048340       ?write_character@?$output_adapter_common@DV?$stream_output_adapter@D@__crt_stdio_output@@@__crt_stdio_output@@QBEXDQAH@Z 10049340 f i libucrtd:output.obj
 0001:00048380       ?write_character@?$output_adapter_common@_WV?$stream_output_adapter@_W@__crt_stdio_output@@@__crt_stdio_output@@QBEX_WQAH@Z 10049380 f i libucrtd:output.obj
 0001:000483c0       ?write_character@?$string_output_adapter@D@__crt_stdio_output@@QBE_NDQAH@Z 100493c0 f i libucrtd:output.obj
 0001:00048450       ?write_character@?$string_output_adapter@_W@__crt_stdio_output@@QBE_N_WQAH@Z 10049450 f i libucrtd:output.obj
 0001:000484f0       ?write_character_without_count_update@?$stream_output_adapter@D@__crt_stdio_output@@QBE_ND@Z 100494f0 f i libucrtd:output.obj
 0001:00048560       ?write_character_without_count_update@?$stream_output_adapter@_W@__crt_stdio_output@@QBE_N_W@Z 10049560 f i libucrtd:output.obj
 0001:000485d0       ?write_stored_string_tchar@?$output_processor@DV?$stream_output_adapter@D@__crt_stdio_output@@V?$format_validation_base@DV?$stream_output_adapter@D@__crt_stdio_output@@@2@@__crt_stdio_output@@AAE_ND@Z 100495d0 f i libucrtd:output.obj
 0001:000486f0       ?write_stored_string_tchar@?$output_processor@DV?$stream_output_adapter@D@__crt_stdio_output@@V?$positional_parameter_base@DV?$stream_output_adapter@D@__crt_stdio_output@@@2@@__crt_stdio_output@@AAE_ND@Z 100496f0 f i libucrtd:output.obj
 0001:00048810       ?write_stored_string_tchar@?$output_processor@DV?$stream_output_adapter@D@__crt_stdio_output@@V?$standard_base@DV?$stream_output_adapter@D@__crt_stdio_output@@@2@@__crt_stdio_output@@AAE_ND@Z 10049810 f i libucrtd:output.obj
 0001:00048930       ?write_stored_string_tchar@?$output_processor@DV?$string_output_adapter@D@__crt_stdio_output@@V?$format_validation_base@DV?$string_output_adapter@D@__crt_stdio_output@@@2@@__crt_stdio_output@@AAE_ND@Z 10049930 f i libucrtd:output.obj
 0001:00048a50       ?write_stored_string_tchar@?$output_processor@DV?$string_output_adapter@D@__crt_stdio_output@@V?$positional_parameter_base@DV?$string_output_adapter@D@__crt_stdio_output@@@2@@__crt_stdio_output@@AAE_ND@Z 10049a50 f i libucrtd:output.obj
 0001:00048b70       ?write_stored_string_tchar@?$output_processor@DV?$string_output_adapter@D@__crt_stdio_output@@V?$standard_base@DV?$string_output_adapter@D@__crt_stdio_output@@@2@@__crt_stdio_output@@AAE_ND@Z 10049b70 f i libucrtd:output.obj
 0001:00048c90       ?write_stored_string_tchar@?$output_processor@_WV?$stream_output_adapter@_W@__crt_stdio_output@@V?$format_validation_base@_WV?$stream_output_adapter@_W@__crt_stdio_output@@@2@@__crt_stdio_output@@AAE_N_W@Z 10049c90 f i libucrtd:output.obj
 0001:00048d80       ?write_stored_string_tchar@?$output_processor@_WV?$stream_output_adapter@_W@__crt_stdio_output@@V?$positional_parameter_base@_WV?$stream_output_adapter@_W@__crt_stdio_output@@@2@@__crt_stdio_output@@AAE_N_W@Z 10049d80 f i libucrtd:output.obj
 0001:00048e70       ?write_stored_string_tchar@?$output_processor@_WV?$stream_output_adapter@_W@__crt_stdio_output@@V?$standard_base@_WV?$stream_output_adapter@_W@__crt_stdio_output@@@2@@__crt_stdio_output@@AAE_N_W@Z 10049e70 f i libucrtd:output.obj
 0001:00048f60       ?write_stored_string_tchar@?$output_processor@_WV?$string_output_adapter@_W@__crt_stdio_output@@V?$format_validation_base@_WV?$string_output_adapter@_W@__crt_stdio_output@@@2@@__crt_stdio_output@@AAE_N_W@Z 10049f60 f i libucrtd:output.obj
 0001:00049050       ?write_stored_string_tchar@?$output_processor@_WV?$string_output_adapter@_W@__crt_stdio_output@@V?$positional_parameter_base@_WV?$string_output_adapter@_W@__crt_stdio_output@@@2@@__crt_stdio_output@@AAE_N_W@Z 1004a050 f i libucrtd:output.obj
 0001:00049140       ?write_stored_string_tchar@?$output_processor@_WV?$string_output_adapter@_W@__crt_stdio_output@@V?$standard_base@_WV?$string_output_adapter@_W@__crt_stdio_output@@@2@@__crt_stdio_output@@AAE_N_W@Z 1004a140 f i libucrtd:output.obj
 0001:00049230       ?write_string@?$stream_output_adapter@D@__crt_stdio_output@@QBEXQBDHQAHAAV__crt_deferred_errno_cache@@@Z 1004a230 f i libucrtd:output.obj
 0001:00049290       ?write_string@?$stream_output_adapter@_W@__crt_stdio_output@@QBEXQB_WHQAHAAV__crt_deferred_errno_cache@@@Z 1004a290 f i libucrtd:output.obj
 0001:000492f0       ?write_string@?$string_output_adapter@D@__crt_stdio_output@@QBEXQBDHQAHAAV__crt_deferred_errno_cache@@@Z 1004a2f0 f i libucrtd:output.obj
 0001:000493f0       ?write_string@?$string_output_adapter@_W@__crt_stdio_output@@QBEXQB_WHQAHAAV__crt_deferred_errno_cache@@@Z 1004a3f0 f i libucrtd:output.obj
 0001:00049500       ?write_string_impl@?$output_adapter_common@DV?$stream_output_adapter@D@__crt_stdio_output@@@__crt_stdio_output@@IBEXQBDHQAHAAV__crt_deferred_errno_cache@@@Z 1004a500 f i libucrtd:output.obj
 0001:000495a0       ?write_string_impl@?$output_adapter_common@_WV?$stream_output_adapter@_W@__crt_stdio_output@@@__crt_stdio_output@@IBEXQB_WHQAHAAV__crt_deferred_errno_cache@@@Z 1004a5a0 f i libucrtd:output.obj
 0001:00049640       ___acrt_disable_global_locale_sync 1004a640 f i libucrtd:output.obj
 0001:00049660       ___acrt_enable_global_locale_sync 1004a660 f i libucrtd:output.obj
 0001:00049680       ___acrt_isleadbyte_l_noupdate 1004a680 f i libucrtd:output.obj
 0001:000496a0       ___acrt_locale_changed     1004a6a0 f i libucrtd:output.obj
 0001:000496d0       ___acrt_locale_get_ctype_array_value 1004a6d0 f i libucrtd:output.obj
 0001:00049700       ___stdio_common_vfprintf   1004a700 f   libucrtd:output.obj
 0001:00049730       ___stdio_common_vfprintf_p 1004a730 f   libucrtd:output.obj
 0001:00049760       ___stdio_common_vfprintf_s 1004a760 f   libucrtd:output.obj
 0001:00049790       ___stdio_common_vfwprintf  1004a790 f   libucrtd:output.obj
 0001:000497c0       ___stdio_common_vfwprintf_p 1004a7c0 f   libucrtd:output.obj
 0001:000497f0       ___stdio_common_vfwprintf_s 1004a7f0 f   libucrtd:output.obj
 0001:00049820       ___stdio_common_vsnprintf_s 1004a820 f   libucrtd:output.obj
 0001:00049850       ___stdio_common_vsnwprintf_s 1004a850 f   libucrtd:output.obj
 0001:00049880       ___stdio_common_vsprintf   1004a880 f   libucrtd:output.obj
 0001:000498b0       ___stdio_common_vsprintf_p 1004a8b0 f   libucrtd:output.obj
 0001:000498e0       ___stdio_common_vsprintf_s 1004a8e0 f   libucrtd:output.obj
 0001:00049910       ___stdio_common_vswprintf  1004a910 f   libucrtd:output.obj
 0001:00049940       ___stdio_common_vswprintf_p 1004a940 f   libucrtd:output.obj
 0001:00049970       ___stdio_common_vswprintf_s 1004a970 f   libucrtd:output.obj
 0001:000499a0       __ctype_fast_check_internal 1004a9a0 f i libucrtd:output.obj
 0001:000499c0       __isdigit_fast_internal    1004a9c0 f i libucrtd:output.obj
 0001:000499e0       __tolower_fast_internal    1004a9e0 f i libucrtd:output.obj
 0001:00049a00       ??$__crt_fast_decode_pointer@P6AXPB_W00II@Z@@YAP6AXPB_W00II@ZQ6AX000II@Z@Z 1004aa00 f i libucrtd:invalid_parameter.obj
 0001:00049a30       ??$__crt_fast_encode_pointer@P6AXPB_W00II@Z@@YAP6AXPB_W00II@ZQ6AX000II@Z@Z 1004aa30 f i libucrtd:invalid_parameter.obj
 0001:00049a60       ??$initialize_from_array@$$BY00Q6AXPB_W00II@Z@?$dual_state_global@P6AXPB_W00II@Z@__crt_state_management@@QAAXAAY00Q6AXPB_W00II@Z@Z 1004aa60 f i libucrtd:invalid_parameter.obj
 0001:00049ab0       ?__crt_rotate_pointer_value@@YAIIH@Z 1004aab0 f i libucrtd:invalid_parameter.obj
 0001:00049ac0       ?dangerous_get_state_array@?$dual_state_global@P6AXPB_W00II@Z@__crt_state_management@@QAEPAP6AXPB_W00II@ZXZ 1004aac0 f i libucrtd:invalid_parameter.obj
 0001:00049ad0       ?get_current_state_index@__crt_state_management@@YAIXZ 1004aad0 f i libucrtd:invalid_parameter.obj
 0001:00049ae0       ?value@?$dual_state_global@P6AXPB_W00II@Z@__crt_state_management@@QAEAAP6AXPB_W00II@ZXZ 1004aae0 f i libucrtd:invalid_parameter.obj
 0001:00049b00       ___acrt_call_reportfault   1004ab00 f   libucrtd:invalid_parameter.obj
 0001:00049c60       ___acrt_initialize_invalid_parameter_handler 1004ac60 f   libucrtd:invalid_parameter.obj
 0001:00049c90       __get_invalid_parameter_handler 1004ac90 f   libucrtd:invalid_parameter.obj
 0001:00049cb0       __get_thread_local_invalid_parameter_handler 1004acb0 f   libucrtd:invalid_parameter.obj
 0001:00049ce0       __invalid_parameter        1004ace0 f   libucrtd:invalid_parameter.obj
 0001:00049da0       __invalid_parameter_noinfo 1004ada0 f   libucrtd:invalid_parameter.obj
 0001:00049dc0       __invalid_parameter_noinfo_noreturn 1004adc0 f   libucrtd:invalid_parameter.obj
 0001:00049df0       __invoke_watson            1004adf0 f   libucrtd:invalid_parameter.obj
 0001:00049e30       __set_invalid_parameter_handler 1004ae30 f   libucrtd:invalid_parameter.obj
 0001:00049e80       __set_thread_local_invalid_parameter_handler 1004ae80 f   libucrtd:invalid_parameter.obj
 0001:00049eb0       ___acrt_errno_from_os_error 1004aeb0 f   libucrtd:errno.obj
 0001:00049f30       ___acrt_errno_map_os_error 1004af30 f   libucrtd:errno.obj
 0001:00049f60       ___doserrno                1004af60 f   libucrtd:errno.obj
 0001:00049f90       __errno                    1004af90 f   libucrtd:errno.obj
 0001:00049fc0       __get_doserrno             1004afc0 f   libucrtd:errno.obj
 0001:0004a050       __get_errno                1004b050 f   libucrtd:errno.obj
 0001:0004a0e0       __set_doserrno             1004b0e0 f   libucrtd:errno.obj
 0001:0004a110       __set_errno                1004b110 f   libucrtd:errno.obj
 0001:0004a140       __recalloc                 1004b140 f   libucrtd:recalloc.obj
 0001:0004a170       __recalloc_base            1004b170 f   libucrtd:recalloc.obj
 0001:0004a630       _wcscat_s                  1004b630 f   libucrtd:wcscat_s.obj
 0001:0004aa80       _wcsncpy_s                 1004ba80 f   libucrtd:wcsncpy_s.obj
 0001:0004aaf0       __seh_filter_dll           1004baf0 f   libucrtd:exception_filter.obj
 0001:0004ab20       __seh_filter_exe           1004bb20 f   libucrtd:exception_filter.obj
 0001:0004ad30       ??$?B$$A6GXPAXK0@Z@__crt_fast_encoded_nullptr_t@@QBEP6GXPAXK0@ZXZ 1004bd30 f i libucrtd:exit.obj
 0001:0004ae10       ??$__crt_fast_decode_pointer@P6GXPAXK0@Z@@YAP6GXPAXK0@ZQ6GX0K0@Z@Z 1004be10 f i libucrtd:exit.obj
 0001:0004ae40       ??$__crt_fast_encode_pointer@P6GXPAXK0@Z@@YAP6GXPAXK0@ZQ6GX0K0@Z@Z 1004be40 f i libucrtd:exit.obj
 0001:0004ae70       ??$__crt_get_proc_address@P6GXI@Z@@YAP6GXI@ZQAUHINSTANCE__@@QBD@Z 1004be70 f i libucrtd:exit.obj
 0001:0004af00       ??0?$__crt_unique_handle_t@U__crt_hmodule_traits@@@@QAE@QAUHINSTANCE__@@@Z 1004bf00 f i libucrtd:exit.obj
 0001:0004af20       ??1?$__crt_unique_handle_t@U__crt_hmodule_traits@@@@QAE@XZ 1004bf20 f i libucrtd:exit.obj
 0001:0004b0e0       ?__acrt_select_exit_lock@@YA?AW4__acrt_lock_id@@XZ 1004c0e0 f i libucrtd:exit.obj
 0001:0004b0f0       ?__crt_fast_encode_pointer@@YA?AU__crt_fast_encoded_nullptr_t@@$$T@Z 1004c0f0 f i libucrtd:exit.obj
 0001:0004b120       ?close@?$__crt_unique_handle_t@U__crt_hmodule_traits@@@@QAEXXZ 1004c120 f i libucrtd:exit.obj
 0001:0004b160       ?close@__crt_hmodule_traits@@SA_NPAUHINSTANCE__@@@Z 1004c160 f i libucrtd:exit.obj
 0001:0004b250       ?get@?$__crt_unique_handle_t@U__crt_hmodule_traits@@@@QBEPAUHINSTANCE__@@XZ 1004c250 f i libucrtd:exit.obj
 0001:0004b270       ?get_address_of@?$__crt_unique_handle_t@U__crt_hmodule_traits@@@@QAEPAPAUHINSTANCE__@@XZ 1004c270 f i libucrtd:exit.obj
 0001:0004b280       ?get_invalid_value@__crt_hmodule_traits@@SAPAUHINSTANCE__@@XZ 1004c280 f i libucrtd:exit.obj
 0001:0004b400       __Exit                     1004c400 f   libucrtd:exit.obj
 0001:0004b420       ___acrt_initialize_thread_local_exit_callback 1004c420 f   libucrtd:exit.obj
 0001:0004b430       __c_exit                   1004c430 f   libucrtd:exit.obj
 0001:0004b450       __cexit                    1004c450 f   libucrtd:exit.obj
 0001:0004b470       __exit                     1004c470 f   libucrtd:exit.obj
 0001:0004b490       __is_c_termination_complete 1004c490 f   libucrtd:exit.obj
 0001:0004b4b0       __register_thread_local_exe_atexit_callback 1004c4b0 f   libucrtd:exit.obj
 0001:0004b4f0       _exit                      1004c4f0 f   libucrtd:exit.obj
 0001:0004b510       _quick_exit                1004c510 f   libucrtd:exit.obj
 0001:0004b530       ??$?RE@__crt_internal_free_policy@@QBEXQBE@Z 1004c530 f i libucrtd:argv_parsing.obj
 0001:0004b550       ??$?RPAD@__crt_internal_free_policy@@QBEXQBQAD@Z 1004c550 f i libucrtd:argv_parsing.obj
 0001:0004b570       ??$?RPA_W@__crt_internal_free_policy@@QBEXQBQA_W@Z 1004c570 f i libucrtd:argv_parsing.obj
 0001:0004bad0       ??$get_module_file_name@$$TAAY0BAF@DH@?$__crt_char_traits@D@@SAK$$QA$$TAAY0BAF@D$$QAH@Z 1004cad0 f i libucrtd:argv_parsing.obj
 0001:0004baf0       ??$get_module_file_name@$$TAAY0BAF@_WH@?$__crt_char_traits@_W@@SAK$$QA$$TAAY0BAF@_W$$QAH@Z 1004caf0 f i libucrtd:argv_parsing.obj
 0001:0004c210       ??$set_program_name@PAD@?$__crt_char_traits@D@@SAX$$QAPAD@Z 1004d210 f i libucrtd:argv_parsing.obj
 0001:0004c230       ??$set_program_name@PA_W@?$__crt_char_traits@_W@@SAX$$QAPA_W@Z 1004d230 f i libucrtd:argv_parsing.obj
 0001:0004c290       ??0?$__crt_unique_heap_ptr@EU__crt_internal_free_policy@@@@QAE@QAE@Z 1004d290 f i libucrtd:argv_parsing.obj
 0001:0004c2b0       ??0?$__crt_unique_heap_ptr@PADU__crt_internal_free_policy@@@@QAE@QAPAD@Z 1004d2b0 f i libucrtd:argv_parsing.obj
 0001:0004c2d0       ??0?$__crt_unique_heap_ptr@PA_WU__crt_internal_free_policy@@@@QAE@QAPA_W@Z 1004d2d0 f i libucrtd:argv_parsing.obj
 0001:0004c2f0       ??1?$__crt_unique_heap_ptr@EU__crt_internal_free_policy@@@@QAE@XZ 1004d2f0 f i libucrtd:argv_parsing.obj
 0001:0004c310       ??1?$__crt_unique_heap_ptr@PADU__crt_internal_free_policy@@@@QAE@XZ 1004d310 f i libucrtd:argv_parsing.obj
 0001:0004c330       ??1?$__crt_unique_heap_ptr@PA_WU__crt_internal_free_policy@@@@QAE@XZ 1004d330 f i libucrtd:argv_parsing.obj
 0001:0004c350       ??B?$__crt_unique_heap_ptr@EU__crt_internal_free_policy@@@@QBE_NXZ 1004d350 f i libucrtd:argv_parsing.obj
 0001:0004c410       ?detach@?$__crt_unique_heap_ptr@EU__crt_internal_free_policy@@@@QAEPAEXZ 1004d410 f i libucrtd:argv_parsing.obj
 0001:0004c440       ?detach@?$__crt_unique_heap_ptr@PADU__crt_internal_free_policy@@@@QAEPAPADXZ 1004d440 f i libucrtd:argv_parsing.obj
 0001:0004c470       ?detach@?$__crt_unique_heap_ptr@PA_WU__crt_internal_free_policy@@@@QAEPAPA_WXZ 1004d470 f i libucrtd:argv_parsing.obj
 0001:0004c500       ?get@?$__crt_unique_heap_ptr@EU__crt_internal_free_policy@@@@QBEPAEXZ 1004d500 f i libucrtd:argv_parsing.obj
 0001:0004c520       ?get@?$__crt_unique_heap_ptr@PADU__crt_internal_free_policy@@@@QBEPAPADXZ 1004d520 f i libucrtd:argv_parsing.obj
 0001:0004c540       ?get@?$__crt_unique_heap_ptr@PA_WU__crt_internal_free_policy@@@@QBEPAPA_WXZ 1004d540 f i libucrtd:argv_parsing.obj
 0001:0004c560       ?get_address_of@?$__crt_unique_heap_ptr@PADU__crt_internal_free_policy@@@@QAEPAPAPADXZ 1004d560 f i libucrtd:argv_parsing.obj
 0001:0004c570       ?get_address_of@?$__crt_unique_heap_ptr@PA_WU__crt_internal_free_policy@@@@QAEPAPAPA_WXZ 1004d570 f i libucrtd:argv_parsing.obj
 0001:0004c5c0       ?is_valid@?$__crt_unique_heap_ptr@EU__crt_internal_free_policy@@@@QBE_NXZ 1004d5c0 f i libucrtd:argv_parsing.obj
 0001:0004c5f0       ?release@?$__crt_unique_heap_ptr@EU__crt_internal_free_policy@@@@QAEXXZ 1004d5f0 f i libucrtd:argv_parsing.obj
 0001:0004c620       ?release@?$__crt_unique_heap_ptr@PADU__crt_internal_free_policy@@@@QAEXXZ 1004d620 f i libucrtd:argv_parsing.obj
 0001:0004c650       ?release@?$__crt_unique_heap_ptr@PA_WU__crt_internal_free_policy@@@@QAEXXZ 1004d650 f i libucrtd:argv_parsing.obj
 0001:0004c6c0       ___acrt_allocate_buffer_for_argv 1004d6c0 f   libucrtd:argv_parsing.obj
 0001:0004c780       __configure_narrow_argv    1004d780 f   libucrtd:argv_parsing.obj
 0001:0004c7a0       __configure_wide_argv      1004d7a0 f   libucrtd:argv_parsing.obj
 0001:0004c7c0       __set_pgmptr               1004d7c0 f i libucrtd:argv_parsing.obj
 0001:0004c7d0       __set_wpgmptr              1004d7d0 f i libucrtd:argv_parsing.obj
 0001:0004c7df       ??$?R_W@__crt_internal_free_policy@@QBEXQB_W@Z 1004d7df f i libucrtd:environment_initialization.obj
 0001:0004cc48       ??$get_environment_from_os@$$V@?$__crt_char_traits@D@@SAPADXZ 1004dc48 f i libucrtd:environment_initialization.obj
 0001:0004cc4d       ??$get_environment_from_os@$$V@?$__crt_char_traits@_W@@SAPA_WXZ 1004dc4d f i libucrtd:environment_initialization.obj
 0001:0004cd76       ??$set_variable_in_environment_nolock@PADH@?$__crt_char_traits@D@@SAH$$QAPAD$$QAH@Z 1004dd76 f i libucrtd:environment_initialization.obj
 0001:0004cd8e       ??$set_variable_in_environment_nolock@PA_WH@?$__crt_char_traits@_W@@SAH$$QAPA_W$$QAH@Z 1004dd8e f i libucrtd:environment_initialization.obj
 0001:0004cda6       ??$tcscpy_s@PADABIAAPAD@?$__crt_char_traits@D@@SAH$$QAPADABIAAPAD@Z 1004dda6 f i libucrtd:environment_initialization.obj
 0001:0004cdc4       ??$tcscpy_s@PA_WABIAAPA_W@?$__crt_char_traits@_W@@SAH$$QAPA_WABIAAPA_W@Z 1004ddc4 f i libucrtd:environment_initialization.obj
 0001:0004cde2       ??$tcslen@AAPAD@?$__crt_char_traits@D@@SAIAAPAD@Z 1004dde2 f i libucrtd:environment_initialization.obj
 0001:0004cdfa       ??$tcslen@AAPA_W@?$__crt_char_traits@_W@@SAIAAPA_W@Z 1004ddfa f i libucrtd:environment_initialization.obj
 0001:0004ce18       ??$uninitialize@A6AXAAPAPAD@Z@?$dual_state_global@PAPAD@__crt_state_management@@QAEXA6AXAAPAPAD@Z@Z 1004de18 f i libucrtd:environment_initialization.obj
 0001:0004ce41       ??$uninitialize@A6AXAAPAPA_W@Z@?$dual_state_global@PAPA_W@__crt_state_management@@QAEXA6AXAAPAPA_W@Z@Z 1004de41 f i libucrtd:environment_initialization.obj
 0001:0004cea0       ??0?$__crt_unique_heap_ptr@_WU__crt_internal_free_policy@@@@QAE@QA_W@Z 1004dea0 f i libucrtd:environment_initialization.obj
 0001:0004ceb0       ??1?$__crt_unique_heap_ptr@_WU__crt_internal_free_policy@@@@QAE@XZ 1004deb0 f i libucrtd:environment_initialization.obj
 0001:0004cec5       ??B?$__crt_unique_heap_ptr@PADU__crt_internal_free_policy@@@@QBE_NXZ 1004dec5 f i libucrtd:environment_initialization.obj
 0001:0004cecc       ??B?$__crt_unique_heap_ptr@PA_WU__crt_internal_free_policy@@@@QBE_NXZ 1004decc f i libucrtd:environment_initialization.obj
 0001:0004ced3       ??B?$__crt_unique_heap_ptr@_WU__crt_internal_free_policy@@@@QBE_NXZ 1004ded3 f i libucrtd:environment_initialization.obj
 0001:0004ceda       ?__crt_compute_required_transform_buffer_count@@YAIIQBD@Z 1004deda f i libucrtd:environment_initialization.obj
 0001:0004cef6       ?__crt_compute_required_transform_buffer_count@@YAIIQB_W@Z 1004def6 f i libucrtd:environment_initialization.obj
 0001:0004cf14       ?__crt_transform_string@@YAIIQBDQA_WI@Z 1004df14 f i libucrtd:environment_initialization.obj
 0001:0004cf33       ?__crt_transform_string@@YAIIQB_WQADI@Z 1004df33 f i libucrtd:environment_initialization.obj
 0001:0004cf55       ?detach@?$__crt_unique_heap_ptr@DU__crt_internal_free_policy@@@@QAEPADXZ 1004df55 f i libucrtd:environment_initialization.obj
 0001:0004cf5b       ?detach@?$__crt_unique_heap_ptr@_WU__crt_internal_free_policy@@@@QAEPA_WXZ 1004df5b f i libucrtd:environment_initialization.obj
 0001:0004cf61       ?get@?$__crt_unique_heap_ptr@_WU__crt_internal_free_policy@@@@QBEPA_WXZ 1004df61 f i libucrtd:environment_initialization.obj
 0001:0004cf88       ?initialize@?$dual_state_global@PAPAD@__crt_state_management@@QAEXQAPAD@Z 1004df88 f i libucrtd:environment_initialization.obj
 0001:0004cfae       ?initialize@?$dual_state_global@PAPA_W@__crt_state_management@@QAEXQAPA_W@Z 1004dfae f i libucrtd:environment_initialization.obj
 0001:0004cfd4       ?is_valid@?$__crt_unique_heap_ptr@PADU__crt_internal_free_policy@@@@QBE_NXZ 1004dfd4 f i libucrtd:environment_initialization.obj
 0001:0004cfdb       ?is_valid@?$__crt_unique_heap_ptr@PA_WU__crt_internal_free_policy@@@@QBE_NXZ 1004dfdb f i libucrtd:environment_initialization.obj
 0001:0004cfe2       ?is_valid@?$__crt_unique_heap_ptr@_WU__crt_internal_free_policy@@@@QBE_NXZ 1004dfe2 f i libucrtd:environment_initialization.obj
 0001:0004cff1       ?release@?$__crt_unique_heap_ptr@_WU__crt_internal_free_policy@@@@QAEXXZ 1004dff1 f i libucrtd:environment_initialization.obj
 0001:0004d006       ?value@?$dual_state_global@PAPAD@__crt_state_management@@QAEAAPAPADXZ 1004e006 f i libucrtd:environment_initialization.obj
 0001:0004d009       ?value@?$dual_state_global@PAPA_W@__crt_state_management@@QAEAAPAPA_WXZ 1004e009 f i libucrtd:environment_initialization.obj
 0001:0004d00c       ___dcrt_get_or_create_narrow_environment_nolock 1004e00c f   libucrtd:environment_initialization.obj
 0001:0004d011       ___dcrt_get_or_create_wide_environment_nolock 1004e011 f   libucrtd:environment_initialization.obj
 0001:0004d016       ___dcrt_uninitialize_environments_nolock 1004e016 f   libucrtd:environment_initialization.obj
 0001:0004d04d       ___p__environ              1004e04d f   libucrtd:environment_initialization.obj
 0001:0004d053       ___p__wenviron             1004e053 f   libucrtd:environment_initialization.obj
 0001:0004d059       __get_initial_narrow_environment 1004e059 f   libucrtd:environment_initialization.obj
 0001:0004d06d       __get_initial_wide_environment 1004e06d f   libucrtd:environment_initialization.obj
 0001:0004d081       __initialize_narrow_environment 1004e081 f   libucrtd:environment_initialization.obj
 0001:0004d086       __initialize_wide_environment 1004e086 f   libucrtd:environment_initialization.obj
 0001:0004d090       ??$?B$$A6AXXZ@__crt_fast_encoded_nullptr_t@@QBEP6AXXZXZ 1004e090 f i libucrtd:onexit.obj
 0001:0004d0b0       ??$?BP6AXXZ@__crt_fast_encoded_nullptr_t@@QBEPAP6AXXZXZ 1004e0b0 f i libucrtd:onexit.obj
 0001:0004d0d0       ??$?RP6AXXZ@__crt_internal_free_policy@@QBEXQBQ6AXXZ@Z 1004e0d0 f i libucrtd:onexit.obj
 0001:0004d290       ??$__crt_fast_decode_pointer@P6AXXZ@@YAP6AXXZQ6AXXZ@Z 1004e290 f i libucrtd:onexit.obj
 0001:0004d2c0       ??$__crt_fast_decode_pointer@PAP6AXXZ@@YAPAP6AXXZQAP6AXXZ@Z 1004e2c0 f i libucrtd:onexit.obj
 0001:0004d2f0       ??$__crt_fast_encode_pointer@P6AHXZ@@YAP6AHXZQ6AHXZ@Z 1004e2f0 f i libucrtd:onexit.obj
 0001:0004d320       ??$__crt_fast_encode_pointer@P6AXXZ@@YAP6AXXZQ6AXXZ@Z 1004e320 f i libucrtd:onexit.obj
 0001:0004d350       ??$__crt_fast_encode_pointer@PAP6AXXZ@@YAPAP6AXXZQAP6AXXZ@Z 1004e350 f i libucrtd:onexit.obj
 0001:0004d450       ??0?$__crt_unique_heap_ptr@P6AXXZU__crt_internal_free_policy@@@@QAE@QAP6AXXZ@Z 1004e450 f i libucrtd:onexit.obj
 0001:0004d470       ??1?$__crt_unique_heap_ptr@P6AXXZU__crt_internal_free_policy@@@@QAE@XZ 1004e470 f i libucrtd:onexit.obj
 0001:0004d490       ??1scoped_global_state_reset@__crt_state_management@@QAE@XZ 1004e490 f i libucrtd:onexit.obj
 0001:0004d900       ?detach@?$__crt_unique_heap_ptr@P6AXXZU__crt_internal_free_policy@@@@QAEPAP6AXXZXZ 1004e900 f i libucrtd:onexit.obj
 0001:0004d930       ?release@?$__crt_unique_heap_ptr@P6AXXZU__crt_internal_free_policy@@@@QAEXXZ 1004e930 f i libucrtd:onexit.obj
 0001:0004d960       __crt_at_quick_exit        1004e960 f   libucrtd:onexit.obj
 0001:0004d980       __crt_atexit               1004e980 f   libucrtd:onexit.obj
 0001:0004d9a0       __execute_onexit_table     1004e9a0 f   libucrtd:onexit.obj
 0001:0004d9d0       __initialize_onexit_table  1004e9d0 f   libucrtd:onexit.obj
 0001:0004da30       __register_onexit_function 1004ea30 f   libucrtd:onexit.obj
 0001:0004dc70       ??$?BX@__crt_fast_encoded_nullptr_t@@QBEPAXXZ 1004ec70 f i libucrtd:initialization.obj
 0001:0004dc90       ??$__crt_fast_encode_pointer@PAX@@YAPAXQAX@Z 1004ec90 f i libucrtd:initialization.obj
 0001:0004dd50       ?initialize@?$dual_state_global@PAU__crt_locale_data@@@__crt_state_management@@QAEXQAU__crt_locale_data@@@Z 1004ed50 f i libucrtd:initialization.obj
 0001:0004dd90       ___acrt_initialize         1004ed90 f   libucrtd:initialization.obj
 0001:0004ddb0       ___acrt_thread_attach      1004edb0 f   libucrtd:initialization.obj
 0001:0004ddd0       ___acrt_thread_detach      1004edd0 f   libucrtd:initialization.obj
 0001:0004dde0       ___acrt_uninitialize       1004ede0 f   libucrtd:initialization.obj
 0001:0004de00       ___acrt_uninitialize_critical 1004ee00 f   libucrtd:initialization.obj
 0001:0004f670       __CrtCheckMemory           10050670 f   libucrtd:debug_heap.obj
 0001:0004f800       __CrtDoForAllClientObjects 10050800 f   libucrtd:debug_heap.obj
 0001:0004f950       __CrtDumpMemoryLeaks       10050950 f   libucrtd:debug_heap.obj
 0001:0004f9f0       __CrtGetAllocHook          100509f0 f   libucrtd:debug_heap.obj
 0001:0004fa00       __CrtGetDumpClient         10050a00 f   libucrtd:debug_heap.obj
 0001:0004fa10       __CrtIsMemoryBlock         10050a10 f   libucrtd:debug_heap.obj
 0001:0004fb60       __CrtIsValidHeapPointer    10050b60 f   libucrtd:debug_heap.obj
 0001:0004fb90       __CrtIsValidPointer        10050b90 f   libucrtd:debug_heap.obj
 0001:0004fbc0       __CrtMemCheckpoint         10050bc0 f   libucrtd:debug_heap.obj
 0001:0004fdf0       __CrtMemDifference         10050df0 f   libucrtd:debug_heap.obj
 0001:00050060       __CrtMemDumpAllObjectsSince 10051060 f   libucrtd:debug_heap.obj
 0001:00050100       __CrtMemDumpStatistics     10051100 f   libucrtd:debug_heap.obj
 0001:00050230       __CrtReportBlockType       10051230 f   libucrtd:debug_heap.obj
 0001:00050260       __CrtSetAllocHook          10051260 f   libucrtd:debug_heap.obj
 0001:00050280       __CrtSetBreakAlloc         10051280 f   libucrtd:debug_heap.obj
 0001:000502a0       __CrtSetDbgBlockType       100512a0 f   libucrtd:debug_heap.obj
 0001:00050380       __CrtSetDbgFlag            10051380 f   libucrtd:debug_heap.obj
 0001:000504f0       __CrtSetDumpClient         100514f0 f   libucrtd:debug_heap.obj
 0001:00050510       ___acrt_get_locale_data_prefix 10051510 f i libucrtd:debug_heap.obj
 0001:00050530       ___p__crtBreakAlloc        10051530 f   libucrtd:debug_heap.obj
 0001:00050540       ___p__crtDbgFlag           10051540 f   libucrtd:debug_heap.obj
 0001:00050550       __aligned_free_dbg         10051550 f   libucrtd:debug_heap.obj
 0001:00050600       __aligned_malloc_dbg       10051600 f   libucrtd:debug_heap.obj
 0001:00050630       __aligned_msize_dbg        10051630 f   libucrtd:debug_heap.obj
 0001:00050760       __aligned_offset_malloc_dbg 10051760 f   libucrtd:debug_heap.obj
 0001:00050940       __aligned_offset_realloc_dbg 10051940 f   libucrtd:debug_heap.obj
 0001:00050c50       __aligned_offset_recalloc_dbg 10051c50 f   libucrtd:debug_heap.obj
 0001:00050d10       __aligned_realloc_dbg      10051d10 f   libucrtd:debug_heap.obj
 0001:00050d40       __aligned_recalloc_dbg     10051d40 f   libucrtd:debug_heap.obj
 0001:00050d70       __calloc_dbg               10051d70 f   libucrtd:debug_heap.obj
 0001:00050de0       __chvalidchk_l             10051de0 f i libucrtd:debug_heap.obj
 0001:00050e00       __expand_dbg               10051e00 f   libucrtd:debug_heap.obj
 0001:00050f30       __free_dbg                 10051f30 f   libucrtd:debug_heap.obj
 0001:00050fe0       __ischartype_l             10051fe0 f i libucrtd:debug_heap.obj
 0001:00051060       __malloc_dbg               10052060 f   libucrtd:debug_heap.obj
 0001:00051080       __msize_dbg                10052080 f   libucrtd:debug_heap.obj
 0001:00051210       __realloc_dbg              10052210 f   libucrtd:debug_heap.obj
 0001:000512b0       __recalloc_dbg             100522b0 f   libucrtd:debug_heap.obj
 0001:00051360       __initterm                 10052360 f   libucrtd:initterm.obj
 0001:000513b0       __initterm_e               100523b0 f   libucrtd:initterm.obj
 0001:00051440       __get_terminate            10052440 f   libucrtd:terminate.obj
 0001:00051460       _set_terminate             10052460 f   libucrtd:terminate.obj
 0001:00051490       _terminate                 10052490 f   libucrtd:terminate.obj
 0001:00051830       _strcpy_s                  10052830 f   libucrtd:strcpy_s.obj
 0001:00051c60       _strcat_s                  10052c60 f   libucrtd:strcat_s.obj
 0001:000525c0       __makepath                 100535c0 f   libucrtd:makepath.obj
 0001:000525f0       __makepath_s               100535f0 f   libucrtd:makepath.obj
 0001:00052620       __wmakepath                10053620 f   libucrtd:makepath.obj
 0001:00052650       __wmakepath_s              10053650 f   libucrtd:makepath.obj
 0001:00053fa0       ??$tcsncpy_s@AAPADIAAPBDABI@?$__crt_char_traits@D@@SAHAAPAD$$QAIAAPBDABI@Z 10054fa0 f i libucrtd:splitpath.obj
 0001:00053fd0       ??$tcsncpy_s@AAPADIAAPBDH@?$__crt_char_traits@D@@SAHAAPAD$$QAIAAPBD$$QAH@Z 10054fd0 f i libucrtd:splitpath.obj
 0001:00054000       ??$tcsncpy_s@AAPA_WIAAPB_WABI@?$__crt_char_traits@_W@@SAHAAPA_W$$QAIAAPB_WABI@Z 10055000 f i libucrtd:splitpath.obj
 0001:00054030       ??$tcsncpy_s@AAPA_WIAAPB_WH@?$__crt_char_traits@_W@@SAHAAPA_W$$QAIAAPB_W$$QAH@Z 10055030 f i libucrtd:splitpath.obj
 0001:00054270       __splitpath                10055270 f   libucrtd:splitpath.obj
 0001:000542a0       __splitpath_s              100552a0 f   libucrtd:splitpath.obj
 0001:000542f0       __wsplitpath               100552f0 f   libucrtd:splitpath.obj
 0001:00054320       __wsplitpath_s             10055320 f   libucrtd:splitpath.obj
 0001:00054370       ??$?B$$A6AHI@Z@__crt_fast_encoded_nullptr_t@@QBEP6AHI@ZXZ 10055370 f i libucrtd:new_handler.obj
 0001:00054390       ??$__crt_fast_decode_pointer@P6AHI@Z@@YAP6AHI@ZQ6AHI@Z@Z 10055390 f i libucrtd:new_handler.obj
 0001:000543c0       ??$__crt_fast_encode_pointer@P6AHI@Z@@YAP6AHI@ZQ6AHI@Z@Z 100553c0 f i libucrtd:new_handler.obj
 0001:000543f0       ?_set_new_handler@@YAP6AHI@ZH@Z 100553f0 f   libucrtd:new_handler.obj
 0001:00054450       ?initialize@?$dual_state_global@P6AHI@Z@__crt_state_management@@QAEXQ6AHI@Z@Z 10055450 f i libucrtd:new_handler.obj
 0001:00054490       ?value@?$dual_state_global@P6AHI@Z@__crt_state_management@@QAEAAP6AHI@ZXZ 10055490 f i libucrtd:new_handler.obj
 0001:000544b0       ___acrt_initialize_new_handler 100554b0 f   libucrtd:new_handler.obj
 0001:000544d0       __callnewh                 100554d0 f   libucrtd:new_handler.obj
 0001:00054510       __query_new_handler        10055510 f   libucrtd:new_handler.obj
 0001:000545a0       __set_new_handler          100555a0 f   libucrtd:new_handler.obj
 0001:00054650       __set_abort_behavior       10055650 f   libucrtd:abort.obj
 0001:00054680       _abort                     10055680 f   libucrtd:abort.obj
 0001:000546f0       _strcmp                    100556f0 f   libucrtd:strcmp.obj
 0001:00054780       _strlen                    10055780 f   libucrtd:strlen.obj
 0001:00054810       ??$is_overflow_condition@K@__crt_strtox@@YA_NIK@Z 10055810 f i libucrtd:atox.obj
 0001:00054870       ??$is_overflow_condition@_K@__crt_strtox@@YA_NI_K@Z 10055870 f i libucrtd:atox.obj
 0001:00054900       ??$make_c_string_character_source@D$$T@__crt_strtox@@YA?AV?$c_string_character_source@D@0@QBD$$T@Z 10055900 f i libucrtd:atox.obj
 0001:00054920       ??$make_c_string_character_source@_W$$T@__crt_strtox@@YA?AV?$c_string_character_source@_W@0@QB_W$$T@Z 10055920 f i libucrtd:atox.obj
 0001:00054940       ??$parse_integer@KV?$c_string_character_source@D@__crt_strtox@@@__crt_strtox@@YAKQAU__crt_locale_pointers@@V?$c_string_character_source@D@0@H_N@Z 10055940 f i libucrtd:atox.obj
 0001:00054cb0       ??$parse_integer@KV?$c_string_character_source@_W@__crt_strtox@@@__crt_strtox@@YAKQAU__crt_locale_pointers@@V?$c_string_character_source@_W@0@H_N@Z 10055cb0 f i libucrtd:atox.obj
 0001:00055020       ??$parse_integer@_KV?$c_string_character_source@D@__crt_strtox@@@__crt_strtox@@YA_KQAU__crt_locale_pointers@@V?$c_string_character_source@D@0@H_N@Z 10056020 f i libucrtd:atox.obj
 0001:00055440       ??$parse_integer@_KV?$c_string_character_source@_W@__crt_strtox@@@__crt_strtox@@YA_KQAU__crt_locale_pointers@@V?$c_string_character_source@_W@0@H_N@Z 10056440 f i libucrtd:atox.obj
 0001:00055870       ??$parse_integer_from_string@JD$$T@__crt_strtox@@YAJQBD$$THQAU__crt_locale_pointers@@@Z 10056870 f i libucrtd:atox.obj
 0001:000558b0       ??$parse_integer_from_string@J_W$$T@__crt_strtox@@YAJQB_W$$THQAU__crt_locale_pointers@@@Z 100568b0 f i libucrtd:atox.obj
 0001:000558f0       ??$parse_integer_from_string@_JD$$T@__crt_strtox@@YA_JQBD$$THQAU__crt_locale_pointers@@@Z 100568f0 f i libucrtd:atox.obj
 0001:00055930       ??$parse_integer_from_string@_J_W$$T@__crt_strtox@@YA_JQB_W$$THQAU__crt_locale_pointers@@@Z 10056930 f i libucrtd:atox.obj
 0001:00055970       ??0?$c_string_character_source@D@__crt_strtox@@QAE@QBDQAPBD@Z 10056970 f i libucrtd:atox.obj
 0001:000559b0       ??0?$c_string_character_source@_W@__crt_strtox@@QAE@QB_WQAPB_W@Z 100569b0 f i libucrtd:atox.obj
 0001:000559f0       ??1?$c_string_character_source@D@__crt_strtox@@QAE@XZ 100569f0 f i libucrtd:atox.obj
 0001:00055a20       ??1?$c_string_character_source@_W@__crt_strtox@@QAE@XZ 10056a20 f i libucrtd:atox.obj
 0001:00055a50       ?get@?$c_string_character_source@D@__crt_strtox@@QAEDXZ 10056a50 f i libucrtd:atox.obj
 0001:00055a80       ?get@?$c_string_character_source@_W@__crt_strtox@@QAE_WXZ 10056a80 f i libucrtd:atox.obj
 0001:00055ab0       ?is_space@__crt_strtox@@YA_NDQAU__crt_locale_pointers@@@Z 10056ab0 f i libucrtd:atox.obj
 0001:00055af0       ?is_space@__crt_strtox@@YA_N_WPAU__crt_locale_pointers@@@Z 10056af0 f i libucrtd:atox.obj
 0001:00055b20       ?maximum_signed_value@__crt_strtox@@YAJK@Z 10056b20 f i libucrtd:atox.obj
 0001:00055b30       ?maximum_signed_value@__crt_strtox@@YA_J_K@Z 10056b30 f i libucrtd:atox.obj
 0001:00055b40       ?minimum_signed_value@__crt_strtox@@YAJK@Z 10056b40 f i libucrtd:atox.obj
 0001:00055b50       ?minimum_signed_value@__crt_strtox@@YA_J_K@Z 10056b50 f i libucrtd:atox.obj
 0001:00055b60       ?parse_digit@__crt_strtox@@YAID@Z 10056b60 f i libucrtd:atox.obj
 0001:00055bc0       ?parse_digit@__crt_strtox@@YAI_W@Z 10056bc0 f i libucrtd:atox.obj
 0001:00055c10       ?restore_state@?$c_string_character_source@D@__crt_strtox@@QAE_NQBD@Z 10056c10 f i libucrtd:atox.obj
 0001:00055c30       ?restore_state@?$c_string_character_source@_W@__crt_strtox@@QAE_NQB_W@Z 10056c30 f i libucrtd:atox.obj
 0001:00055c50       ?save_state@?$c_string_character_source@D@__crt_strtox@@QBEPBDXZ 10056c50 f i libucrtd:atox.obj
 0001:00055c70       ?save_state@?$c_string_character_source@_W@__crt_strtox@@QBEPB_WXZ 10056c70 f i libucrtd:atox.obj
 0001:00055c90       ?unget@?$c_string_character_source@D@__crt_strtox@@QAEXD@Z 10056c90 f i libucrtd:atox.obj
 0001:00055d40       ?unget@?$c_string_character_source@_W@__crt_strtox@@QAEX_W@Z 10056d40 f i libucrtd:atox.obj
 0001:00055df0       ?validate@?$c_string_character_source@D@__crt_strtox@@QBE_NXZ 10056df0 f i libucrtd:atox.obj
 0001:00055e80       ?validate@?$c_string_character_source@_W@__crt_strtox@@QBE_NXZ 10056e80 f i libucrtd:atox.obj
 0001:00055f10       ?wide_character_to_digit@__crt_strtox@@YAH_W@Z 10056f10 f i libucrtd:atox.obj
 0001:00056240       ___ascii_iswalpha          10057240 f i libucrtd:atox.obj
 0001:00056280       ___ascii_toupper           10057280 f i libucrtd:atox.obj
 0001:000562a0       ___ascii_towupper          100572a0 f i libucrtd:atox.obj
 0001:000562c0       __atoi64                   100572c0 f   libucrtd:atox.obj
 0001:000562e0       __atoi64_l                 100572e0 f   libucrtd:atox.obj
 0001:00056300       __atoi_l                   10057300 f   libucrtd:atox.obj
 0001:00056320       __atol_l                   10057320 f   libucrtd:atox.obj
 0001:00056340       __atoll_l                  10057340 f   libucrtd:atox.obj
 0001:00056360       __wtoi                     10057360 f   libucrtd:atox.obj
 0001:00056380       __wtoi64                   10057380 f   libucrtd:atox.obj
 0001:000563a0       __wtoi64_l                 100573a0 f   libucrtd:atox.obj
 0001:000563c0       __wtoi_l                   100573c0 f   libucrtd:atox.obj
 0001:000563e0       __wtol                     100573e0 f   libucrtd:atox.obj
 0001:00056400       __wtol_l                   10057400 f   libucrtd:atox.obj
 0001:00056420       __wtoll                    10057420 f   libucrtd:atox.obj
 0001:00056440       __wtoll_l                  10057440 f   libucrtd:atox.obj
 0001:00056460       _atoi                      10057460 f   libucrtd:atox.obj
 0001:00056480       _atol                      10057480 f   libucrtd:atox.obj
 0001:000564a0       _atoll                     100574a0 f   libucrtd:atox.obj
 0001:000564c0       _strncmp                   100574c0 f   libucrtd:strncmp.obj
 0001:00056540       _wcsncmp                   10057540 f   libucrtd:wcsncmp.obj
 0001:000565a0       __CrtGetReportHook         100575a0 f   libucrtd:dbgrptt.obj
 0001:000565b0       __CrtSetReportFile         100575b0 f   libucrtd:dbgrptt.obj
 0001:000566b0       __CrtSetReportHook         100576b0 f   libucrtd:dbgrptt.obj
 0001:000566d0       __CrtSetReportMode         100576d0 f   libucrtd:dbgrptt.obj
 0001:00056810       __VCrtDbgReportA           10057810 f   libucrtd:dbgrptt.obj
 0001:00057090       __VCrtDbgReportW           10058090 f   libucrtd:dbgrptt.obj
 0001:00057a40       __snprintf_s               10058a40 f i libucrtd:dbgrptt.obj
 0001:00057a80       __vsnprintf_s              10058a80 f i libucrtd:dbgrptt.obj
 0001:00057ab0       __vsnprintf_s_l            10058ab0 f i libucrtd:dbgrptt.obj
 0001:00057c40       ??$__acrt_wcs_to_mbs_cp@U__crt_win32_buffer_no_resizing@@@@YAHQB_WAAV?$__crt_win32_buffer@DU__crt_win32_buffer_no_resizing@@@@I@Z 10058c40 f i libucrtd:getmodulefilenamea.obj
 0001:00057c70       ??0?$__crt_win32_buffer@DU__crt_win32_buffer_no_resizing@@@@QAE@QADI@Z 10058c70 f i libucrtd:getmodulefilenamea.obj
 0001:00057cc0       ??1?$__crt_win32_buffer@DU__crt_win32_buffer_no_resizing@@@@QAE@XZ 10058cc0 f i libucrtd:getmodulefilenamea.obj
 0001:00057d30       ?__acrt_get_utf8_acp_compatibility_codepage@@YAIXZ 10058d30 f i libucrtd:getmodulefilenamea.obj
 0001:00057dc0       ?_deallocate@?$__crt_win32_buffer@DU__crt_win32_buffer_no_resizing@@@@AAEXXZ 10058dc0 f i libucrtd:getmodulefilenamea.obj
 0001:00057e00       ?allocate@?$__crt_win32_buffer@DU__crt_win32_buffer_no_resizing@@@@QAEHI@Z 10058e00 f i libucrtd:getmodulefilenamea.obj
 0001:00057e70       ?allocate@__crt_win32_buffer_no_resizing@@SAHQAPAXIABV__crt_win32_buffer_empty_debug_info@@@Z 10058e70 f i libucrtd:getmodulefilenamea.obj
 0001:00057e90       ?capacity@?$__crt_win32_buffer@DU__crt_win32_buffer_no_resizing@@@@QBEIXZ 10058e90 f i libucrtd:getmodulefilenamea.obj
 0001:00057eb0       ?data@?$__crt_win32_buffer@DU__crt_win32_buffer_no_resizing@@@@QAEPADXZ 10058eb0 f i libucrtd:getmodulefilenamea.obj
 0001:00057ed0       ?deallocate@__crt_win32_buffer_no_resizing@@SAXQAXABV__crt_win32_buffer_empty_debug_info@@@Z 10058ed0 f i libucrtd:getmodulefilenamea.obj
 0001:00057ee0       ?debug_info@?$__crt_win32_buffer@DU__crt_win32_buffer_no_resizing@@@@QBEABV__crt_win32_buffer_empty_debug_info@@XZ 10058ee0 f i libucrtd:getmodulefilenamea.obj
 0001:00057ef0       ?set_to_nullptr@?$__crt_win32_buffer@DU__crt_win32_buffer_no_resizing@@@@QAEXXZ 10058ef0 f i libucrtd:getmodulefilenamea.obj
 0001:00057f30       ?size@?$__crt_win32_buffer@DU__crt_win32_buffer_no_resizing@@@@QAEXI@Z 10058f30 f i libucrtd:getmodulefilenamea.obj
 0001:00057f50       ?size@?$__crt_win32_buffer@DU__crt_win32_buffer_no_resizing@@@@QBEIXZ 10058f50 f i libucrtd:getmodulefilenamea.obj
 0001:00057f70       ___acrt_GetModuleFileNameA 10058f70 f   libucrtd:getmodulefilenamea.obj
 0001:00058250       ??$message_box@$$TABQBDABQBDK@?$__crt_char_traits@D@@SAH$$QA$$TABQBD1$$QAK@Z 10059250 f i libucrtd:crtmbox.obj
 0001:00058280       ??$message_box@$$TABQB_WABQB_WK@?$__crt_char_traits@_W@@SAH$$QA$$TABQB_W1$$QAK@Z 10059280 f i libucrtd:crtmbox.obj
 0001:000582b0       ??$message_box@PAUHWND__@@ABQBDABQBDABI@?$__crt_char_traits@D@@SAH$$QAPAUHWND__@@ABQBD1ABI@Z 100592b0 f i libucrtd:crtmbox.obj
 0001:000582e0       ??$message_box@PAUHWND__@@ABQB_WABQB_WABI@?$__crt_char_traits@_W@@SAH$$QAPAUHWND__@@ABQB_W1ABI@Z 100592e0 f i libucrtd:crtmbox.obj
 0001:00058310       ??$output_debug_string@ABQBD@?$__crt_char_traits@D@@SAXABQBD@Z 10059310 f i libucrtd:crtmbox.obj
 0001:00058330       ??$output_debug_string@ABQB_W@?$__crt_char_traits@_W@@SAXABQB_W@Z 10059330 f i libucrtd:crtmbox.obj
 0001:00058350       ___acrt_show_narrow_message_box 10059350 f   libucrtd:crtmbox.obj
 0001:00058370       ___acrt_show_wide_message_box 10059370 f   libucrtd:crtmbox.obj
 0001:00058390       ___acrt_initialize_locks   10059390 f   libucrtd:locks.obj
 0001:000583f0       ___acrt_lock               100593f0 f   libucrtd:locks.obj
 0001:00058410       ___acrt_uninitialize_locks 10059410 f   libucrtd:locks.obj
 0001:00058460       ___acrt_unlock             10059460 f   libucrtd:locks.obj
 0001:00058480       __lock_locales             10059480 f   libucrtd:locks.obj
 0001:000584a0       __unlock_locales           100594a0 f   libucrtd:locks.obj
 0001:000584c0       ??$?B$$A6AXH@Z@__crt_fast_encoded_nullptr_t@@QBEP6AXH@ZXZ 100594c0 f i libucrtd:signal.obj
 0001:000585b0       ??$__crt_fast_decode_pointer@P6AXH@Z@@YAP6AXH@ZQ6AXH@Z@Z 100595b0 f i libucrtd:signal.obj
 0001:000585e0       ??$__crt_fast_encode_pointer@P6AXH@Z@@YAP6AXH@ZQ6AXH@Z@Z 100595e0 f i libucrtd:signal.obj
 0001:00058890       ?initialize@?$dual_state_global@P6AXH@Z@__crt_state_management@@QAEXQ6AXH@Z@Z 10059890 f i libucrtd:signal.obj
 0001:000589d0       ?value@?$dual_state_global@P6AXH@Z@__crt_state_management@@QAEAAP6AXH@ZXZ 100599d0 f i libucrtd:signal.obj
 0001:000589f0       ___acrt_get_sigabrt_handler 100599f0 f   libucrtd:signal.obj
 0001:00058a10       ___acrt_initialize_signal_handlers 10059a10 f   libucrtd:signal.obj
 0001:00058a50       ___fpecode                 10059a50 f   libucrtd:signal.obj
 0001:00058a60       ___pxcptinfoptrs           10059a60 f   libucrtd:signal.obj
 0001:00058a70       _raise                     10059a70 f   libucrtd:signal.obj
 0001:00058e40       _signal                    10059e40 f   libucrtd:signal.obj
 0001:000590c0       __CrtGetDebugFillThreshold 1005a0c0 f   libucrtd:debug_fill_threshold.obj
 0001:000590d0       __CrtSetDebugFillThreshold 1005a0d0 f   libucrtd:debug_fill_threshold.obj
 0001:000590f0       ??$make_c_string_character_source@DPAPAD@__crt_strtox@@YA?AV?$c_string_character_source@D@0@QBDQAPAD@Z 1005a0f0 f i libucrtd:strtox.obj
 0001:00059110       ??$make_c_string_character_source@_WPAPA_W@__crt_strtox@@YA?AV?$c_string_character_source@_W@0@QB_WQAPA_W@Z 1005a110 f i libucrtd:strtox.obj
 0001:00059130       ??$parse_integer_from_string@JDPAPAD@__crt_strtox@@YAJQBDQAPADHQAU__crt_locale_pointers@@@Z 1005a130 f i libucrtd:strtox.obj
 0001:00059170       ??$parse_integer_from_string@J_WPAPA_W@__crt_strtox@@YAJQB_WQAPA_WHQAU__crt_locale_pointers@@@Z 1005a170 f i libucrtd:strtox.obj
 0001:000591b0       ??$parse_integer_from_string@KDPAPAD@__crt_strtox@@YAKQBDQAPADHQAU__crt_locale_pointers@@@Z 1005a1b0 f i libucrtd:strtox.obj
 0001:000591f0       ??$parse_integer_from_string@K_WPAPA_W@__crt_strtox@@YAKQB_WQAPA_WHQAU__crt_locale_pointers@@@Z 1005a1f0 f i libucrtd:strtox.obj
 0001:00059230       ??$parse_integer_from_string@_JDPAPAD@__crt_strtox@@YA_JQBDQAPADHQAU__crt_locale_pointers@@@Z 1005a230 f i libucrtd:strtox.obj
 0001:00059270       ??$parse_integer_from_string@_J_WPAPA_W@__crt_strtox@@YA_JQB_WQAPA_WHQAU__crt_locale_pointers@@@Z 1005a270 f i libucrtd:strtox.obj
 0001:000592b0       ??$parse_integer_from_string@_KDPAPAD@__crt_strtox@@YA_KQBDQAPADHQAU__crt_locale_pointers@@@Z 1005a2b0 f i libucrtd:strtox.obj
 0001:000592f0       ??$parse_integer_from_string@_K_WPAPA_W@__crt_strtox@@YA_KQB_WQAPA_WHQAU__crt_locale_pointers@@@Z 1005a2f0 f i libucrtd:strtox.obj
 0001:00059330       __strtoi64                 1005a330 f   libucrtd:strtox.obj
 0001:00059350       __strtoi64_l               1005a350 f   libucrtd:strtox.obj
 0001:00059370       __strtoimax_l              1005a370 f   libucrtd:strtox.obj
 0001:00059390       __strtol_l                 1005a390 f   libucrtd:strtox.obj
 0001:000593b0       __strtoll_l                1005a3b0 f   libucrtd:strtox.obj
 0001:000593d0       __strtoui64                1005a3d0 f   libucrtd:strtox.obj
 0001:000593f0       __strtoui64_l              1005a3f0 f   libucrtd:strtox.obj
 0001:00059410       __strtoul_l                1005a410 f   libucrtd:strtox.obj
 0001:00059430       __strtoull_l               1005a430 f   libucrtd:strtox.obj
 0001:00059450       __strtoumax_l              1005a450 f   libucrtd:strtox.obj
 0001:00059470       __wcstoi64                 1005a470 f   libucrtd:strtox.obj
 0001:00059490       __wcstoi64_l               1005a490 f   libucrtd:strtox.obj
 0001:000594b0       __wcstoimax_l              1005a4b0 f   libucrtd:strtox.obj
 0001:000594d0       __wcstol_l                 1005a4d0 f   libucrtd:strtox.obj
 0001:000594f0       __wcstoll_l                1005a4f0 f   libucrtd:strtox.obj
 0001:00059510       __wcstoui64                1005a510 f   libucrtd:strtox.obj
 0001:00059530       __wcstoui64_l              1005a530 f   libucrtd:strtox.obj
 0001:00059550       __wcstoul_l                1005a550 f   libucrtd:strtox.obj
 0001:00059570       __wcstoull_l               1005a570 f   libucrtd:strtox.obj
 0001:00059590       __wcstoumax_l              1005a590 f   libucrtd:strtox.obj
 0001:000595b0       _strtoimax                 1005a5b0 f   libucrtd:strtox.obj
 0001:000595d0       _strtol                    1005a5d0 f   libucrtd:strtox.obj
 0001:000595f0       _strtoll                   1005a5f0 f   libucrtd:strtox.obj
 0001:00059610       _strtoul                   1005a610 f   libucrtd:strtox.obj
 0001:00059630       _strtoull                  1005a630 f   libucrtd:strtox.obj
 0001:00059650       _strtoumax                 1005a650 f   libucrtd:strtox.obj
 0001:00059670       _wcstoimax                 1005a670 f   libucrtd:strtox.obj
 0001:00059690       _wcstol                    1005a690 f   libucrtd:strtox.obj
 0001:000596b0       _wcstoll                   1005a6b0 f   libucrtd:strtox.obj
 0001:000596d0       _wcstoul                   1005a6d0 f   libucrtd:strtox.obj
 0001:000596f0       _wcstoull                  1005a6f0 f   libucrtd:strtox.obj
 0001:00059710       _wcstoumax                 1005a710 f   libucrtd:strtox.obj
 0001:00059730       __mbtowc_l                 1005a730 f   libucrtd:mbtowc.obj
 0001:00059a50       _mbtowc                    1005aa50 f   libucrtd:mbtowc.obj
 0001:00059a70       __wctomb_l                 1005aa70 f   libucrtd:wctomb.obj
 0001:00059af0       __wctomb_s_l               1005aaf0 f   libucrtd:wctomb.obj
 0001:00059eb0       _wctomb                    1005aeb0 f   libucrtd:wctomb.obj
 0001:00059f00       _wctomb_s                  1005af00 f   libucrtd:wctomb.obj
 0001:00059f30       ??$?RU__acrt_ptd@@@__crt_internal_free_policy@@QBEXQBU__acrt_ptd@@@Z 1005af30 f i libucrtd:per_thread_data.obj
 0001:0005a3e0       ??0?$__crt_unique_heap_ptr@U__acrt_ptd@@U__crt_internal_free_policy@@@@QAE@QAU__acrt_ptd@@@Z 1005b3e0 f i libucrtd:per_thread_data.obj
 0001:0005a400       ??0__crt_scoped_get_last_error_reset@@QAE@XZ 1005b400 f i libucrtd:per_thread_data.obj
 0001:0005a420       ??1?$__crt_unique_heap_ptr@U__acrt_ptd@@U__crt_internal_free_policy@@@@QAE@XZ 1005b420 f i libucrtd:per_thread_data.obj
 0001:0005a440       ??1__crt_scoped_get_last_error_reset@@QAE@XZ 1005b440 f i libucrtd:per_thread_data.obj
 0001:0005a460       ??B?$__crt_unique_heap_ptr@U__acrt_ptd@@U__crt_internal_free_policy@@@@QBE_NXZ 1005b460 f i libucrtd:per_thread_data.obj
 0001:0005a740       ?dangerous_get_state_array@?$dual_state_global@PAU__crt_locale_data@@@__crt_state_management@@QAEPAPAU__crt_locale_data@@XZ 1005b740 f i libucrtd:per_thread_data.obj
 0001:0005a8c0       ?detach@?$__crt_unique_heap_ptr@U__acrt_ptd@@U__crt_internal_free_policy@@@@QAEPAU__acrt_ptd@@XZ 1005b8c0 f i libucrtd:per_thread_data.obj
 0001:0005a8f0       ?get@?$__crt_unique_heap_ptr@U__acrt_ptd@@U__crt_internal_free_policy@@@@QBEPAU__acrt_ptd@@XZ 1005b8f0 f i libucrtd:per_thread_data.obj
 0001:0005a910       ?get_current_state_index@__crt_state_management@@YAIABV__crt_scoped_get_last_error_reset@@@Z 1005b910 f i libucrtd:per_thread_data.obj
 0001:0005aa80       ?is_valid@?$__crt_unique_heap_ptr@U__acrt_ptd@@U__crt_internal_free_policy@@@@QBE_NXZ 1005ba80 f i libucrtd:per_thread_data.obj
 0001:0005aab0       ?release@?$__crt_unique_heap_ptr@U__acrt_ptd@@U__crt_internal_free_policy@@@@QAEXXZ 1005bab0 f i libucrtd:per_thread_data.obj
 0001:0005aba0       ?value@?$dual_state_global@PAU__crt_locale_data@@@__crt_state_management@@QAEAAPAU__crt_locale_data@@XZ 1005bba0 f i libucrtd:per_thread_data.obj
 0001:0005abc0       ___acrt_freeptd            1005bbc0 f   libucrtd:per_thread_data.obj
 0001:0005abf0       ___acrt_getptd             1005bbf0 f   libucrtd:per_thread_data.obj
 0001:0005ac10       ___acrt_getptd_head        1005bc10 f   libucrtd:per_thread_data.obj
 0001:0005ac30       ___acrt_getptd_noexit      1005bc30 f   libucrtd:per_thread_data.obj
 0001:0005ac40       ___acrt_initialize_ptd     1005bc40 f   libucrtd:per_thread_data.obj
 0001:0005ac80       ___acrt_uninitialize_ptd   1005bc80 f   libucrtd:per_thread_data.obj
 0001:0005acb0       ___threadhandle            1005bcb0 f   libucrtd:per_thread_data.obj
 0001:0005acc0       ___threadid                1005bcc0 f   libucrtd:per_thread_data.obj
 0001:0005acd0       ?value@?$dual_state_global@PAU__crt_multibyte_data@@@__crt_state_management@@QAEAAPAU__crt_multibyte_data@@XZ 1005bcd0 f i libucrtd:locale_update.obj
 0001:0005acf0       ___acrt_should_sync_with_global_locale 1005bcf0 f i libucrtd:locale_update.obj
 0001:0005ad20       ___acrt_update_locale_info 1005bd20 f   libucrtd:locale_update.obj
 0001:0005ad60       ___acrt_update_multibyte_info 1005bd60 f   libucrtd:locale_update.obj
 0001:0005ada0       ?__acrt_fp_classify@@YA?AW4__acrt_fp_class@@ABN@Z 1005bda0 f i libucrtd:cvt.obj
 0001:0005aec0       ?__acrt_fp_is_negative@@YA_NABN@Z 1005bec0 f i libucrtd:cvt.obj
 0001:0005c1b0       ?strrchr@@YAPADQADH@Z      1005d1b0 f i libucrtd:cvt.obj
 0001:0005c1d0       ___acrt_fp_format          1005d1d0 f   libucrtd:cvt.obj
 0001:0005c690       __fputwc_nolock            1005d690 f   libucrtd:fputwc.obj
 0001:0005c880       __fputwchar                1005d880 f   libucrtd:fputwc.obj
 0001:0005c8a0       __putwc_nolock             1005d8a0 f   libucrtd:fputwc.obj
 0001:0005c8c0       _fputwc                    1005d8c0 f   libucrtd:fputwc.obj
 0001:0005c9d0       _putwc                     1005d9d0 f   libucrtd:fputwc.obj
 0001:0005c9f0       _putwchar                  1005d9f0 f   libucrtd:fputwc.obj
 0001:0005ca10       ?lowio_handle@__crt_stdio_stream@@QBEHXZ 1005da10 f i libucrtd:fileno.obj
 0001:0005ca30       __fileno                   1005da30 f   libucrtd:fileno.obj
 0001:0005cad0       ??$?RPAU__crt_stdio_stream_data@@@__crt_internal_free_policy@@QBEXQBQAU__crt_stdio_stream_data@@@Z 1005dad0 f i libucrtd:_file.obj
 0001:0005caf0       ??0?$__crt_unique_heap_ptr@PAU__crt_stdio_stream_data@@U__crt_internal_free_policy@@@@QAE@QAPAU__crt_stdio_stream_data@@@Z 1005daf0 f i libucrtd:_file.obj
 0001:0005cb10       ??1?$__crt_unique_heap_ptr@PAU__crt_stdio_stream_data@@U__crt_internal_free_policy@@@@QAE@XZ 1005db10 f i libucrtd:_file.obj
 0001:0005cb30       ?detach@?$__crt_unique_heap_ptr@PAU__crt_stdio_stream_data@@U__crt_internal_free_policy@@@@QAEPAPAU__crt_stdio_stream_data@@XZ 1005db30 f i libucrtd:_file.obj
 0001:0005cb60       ?release@?$__crt_unique_heap_ptr@PAU__crt_stdio_stream_data@@U__crt_internal_free_policy@@@@QAEXXZ 1005db60 f i libucrtd:_file.obj
 0001:0005cb90       ___acrt_initialize_stdio   1005db90 f   libucrtd:_file.obj
 0001:0005cd00       ___acrt_iob_func           1005dd00 f   libucrtd:_file.obj
 0001:0005cd10       ___acrt_uninitialize_stdio 1005dd10 f   libucrtd:_file.obj
 0001:0005cd90       __get_stream_buffer_pointers 1005dd90 f   libucrtd:_file.obj
 0001:0005ce70       __lock_file                1005de70 f   libucrtd:_file.obj
 0001:0005cea0       __unlock_file              1005dea0 f   libucrtd:_file.obj
 0001:0005ced0       __fputc_nolock             1005ded0 f   libucrtd:fputc.obj
 0001:0005cf60       __fputchar                 1005df60 f   libucrtd:fputc.obj
 0001:0005cf80       __putc_nolock              1005df80 f   libucrtd:fputc.obj
 0001:0005cfa0       _fputc                     1005dfa0 f   libucrtd:fputc.obj
 0001:0005d1e0       _putc                      1005e1e0 f   libucrtd:fputc.obj
 0001:0005d200       _putchar                   1005e200 f   libucrtd:fputc.obj
 0001:0005d220       __get_printf_count_output  1005e220 f   libucrtd:printf_count_output.obj
 0001:0005d250       __set_printf_count_output  1005e250 f   libucrtd:printf_count_output.obj
 0001:0005d2b0       ?has_any_buffer@__crt_stdio_stream@@QBE_NXZ 1005e2b0 f i libucrtd:_sftbuf.obj
 0001:0005d2d0       ?has_any_of@__crt_stdio_stream@@QBE_NJ@Z 1005e2d0 f i libucrtd:_sftbuf.obj
 0001:0005d310       ?has_temporary_buffer@__crt_stdio_stream@@QBE_NXZ 1005e310 f i libucrtd:_sftbuf.obj
 0001:0005d330       ?set_flags@__crt_stdio_stream@@QBE_NJ@Z 1005e330 f i libucrtd:_sftbuf.obj
 0001:0005d380       ?unset_flags@__crt_stdio_stream@@QBE_NJ@Z 1005e380 f i libucrtd:_sftbuf.obj
 0001:0005d3d0       ___acrt_should_use_temporary_buffer 1005e3d0 f   libucrtd:_sftbuf.obj
 0001:0005d420       ___acrt_stdio_begin_temporary_buffering_nolock 1005e420 f   libucrtd:_sftbuf.obj
 0001:0005d5d0       ___acrt_stdio_end_temporary_buffering_nolock 1005e5d0 f   libucrtd:_sftbuf.obj
 0001:0005d660       ??$?RU__crt_locale_data@@@__crt_internal_free_policy@@QBEXQBU__crt_locale_data@@@Z 1005e660 f i libucrtd:wsetlocale.obj
 0001:0005d680       ??$?RU__crt_locale_pointers@@@__crt_internal_free_policy@@QBEXQBU__crt_locale_pointers@@@Z 1005e680 f i libucrtd:wsetlocale.obj
 0001:0005d6a0       ??$?RU__crt_multibyte_data@@@__crt_internal_free_policy@@QBEXQBU__crt_multibyte_data@@@Z 1005e6a0 f i libucrtd:wsetlocale.obj
 0001:0005dc90       ??0?$__crt_unique_heap_ptr@U__crt_locale_data@@U__crt_internal_free_policy@@@@QAE@QAU__crt_locale_data@@@Z 1005ec90 f i libucrtd:wsetlocale.obj
 0001:0005dcb0       ??0?$__crt_unique_heap_ptr@U__crt_locale_pointers@@U__crt_internal_free_policy@@@@QAE@QAU__crt_locale_pointers@@@Z 1005ecb0 f i libucrtd:wsetlocale.obj
 0001:0005dcd0       ??0?$__crt_unique_heap_ptr@U__crt_multibyte_data@@U__crt_internal_free_policy@@@@QAE@QAU__crt_multibyte_data@@@Z 1005ecd0 f i libucrtd:wsetlocale.obj
 0001:0005dcf0       ??0_expandlocale_locale_name_cache@@QAE@QA_WIQAU__crt_qualified_locale_data@@@Z 1005ecf0 f i libucrtd:wsetlocale.obj
 0001:0005dd60       ??1?$__crt_unique_heap_ptr@U__crt_locale_data@@U__crt_internal_free_policy@@@@QAE@XZ 1005ed60 f i libucrtd:wsetlocale.obj
 0001:0005dd80       ??1?$__crt_unique_heap_ptr@U__crt_locale_pointers@@U__crt_internal_free_policy@@@@QAE@XZ 1005ed80 f i libucrtd:wsetlocale.obj
 0001:0005dda0       ??1?$__crt_unique_heap_ptr@U__crt_multibyte_data@@U__crt_internal_free_policy@@@@QAE@XZ 1005eda0 f i libucrtd:wsetlocale.obj
 0001:0005ddc0       ??1_expandlocale_locale_name_cache@@QAE@XZ 1005edc0 f i libucrtd:wsetlocale.obj
 0001:0005de20       ??B?$__crt_unique_heap_ptr@U__crt_locale_data@@U__crt_internal_free_policy@@@@QBE_NXZ 1005ee20 f i libucrtd:wsetlocale.obj
 0001:0005de40       ??B?$__crt_unique_heap_ptr@U__crt_locale_pointers@@U__crt_internal_free_policy@@@@QBE_NXZ 1005ee40 f i libucrtd:wsetlocale.obj
 0001:0005de60       ??B?$__crt_unique_heap_ptr@U__crt_multibyte_data@@U__crt_internal_free_policy@@@@QBE_NXZ 1005ee60 f i libucrtd:wsetlocale.obj
 0001:0005e240       ?commit_locale_name@_expandlocale_locale_name_cache@@QAEXQB_WI@Z 1005f240 f i libucrtd:wsetlocale.obj
 0001:0005e2a0       ?commit_locale_name_cache_already_updated@_expandlocale_locale_name_cache@@QAEXQB_WI@Z 1005f2a0 f i libucrtd:wsetlocale.obj
 0001:0005e300       ?detach@?$__crt_unique_heap_ptr@U__crt_locale_data@@U__crt_internal_free_policy@@@@QAEPAU__crt_locale_data@@XZ 1005f300 f i libucrtd:wsetlocale.obj
 0001:0005e330       ?detach@?$__crt_unique_heap_ptr@U__crt_locale_pointers@@U__crt_internal_free_policy@@@@QAEPAU__crt_locale_pointers@@XZ 1005f330 f i libucrtd:wsetlocale.obj
 0001:0005e360       ?detach@?$__crt_unique_heap_ptr@U__crt_multibyte_data@@U__crt_internal_free_policy@@@@QAEPAU__crt_multibyte_data@@XZ 1005f360 f i libucrtd:wsetlocale.obj
 0001:0005e390       ?get@?$__crt_unique_heap_ptr@U__crt_locale_data@@U__crt_internal_free_policy@@@@QBEPAU__crt_locale_data@@XZ 1005f390 f i libucrtd:wsetlocale.obj
 0001:0005e3b0       ?get@?$__crt_unique_heap_ptr@U__crt_locale_pointers@@U__crt_internal_free_policy@@@@QBEPAU__crt_locale_pointers@@XZ 1005f3b0 f i libucrtd:wsetlocale.obj
 0001:0005e3d0       ?get@?$__crt_unique_heap_ptr@U__crt_multibyte_data@@U__crt_internal_free_policy@@@@QBEPAU__crt_multibyte_data@@XZ 1005f3d0 f i libucrtd:wsetlocale.obj
 0001:0005e3f0       ?is_valid@?$__crt_unique_heap_ptr@U__crt_locale_data@@U__crt_internal_free_policy@@@@QBE_NXZ 1005f3f0 f i libucrtd:wsetlocale.obj
 0001:0005e420       ?is_valid@?$__crt_unique_heap_ptr@U__crt_locale_pointers@@U__crt_internal_free_policy@@@@QBE_NXZ 1005f420 f i libucrtd:wsetlocale.obj
 0001:0005e450       ?is_valid@?$__crt_unique_heap_ptr@U__crt_multibyte_data@@U__crt_internal_free_policy@@@@QBE_NXZ 1005f450 f i libucrtd:wsetlocale.obj
 0001:0005e480       ?release@?$__crt_unique_heap_ptr@U__crt_locale_data@@U__crt_internal_free_policy@@@@QAEXXZ 1005f480 f i libucrtd:wsetlocale.obj
 0001:0005e4b0       ?release@?$__crt_unique_heap_ptr@U__crt_locale_pointers@@U__crt_internal_free_policy@@@@QAEXXZ 1005f4b0 f i libucrtd:wsetlocale.obj
 0001:0005e4e0       ?release@?$__crt_unique_heap_ptr@U__crt_multibyte_data@@U__crt_internal_free_policy@@@@QAEXXZ 1005f4e0 f i libucrtd:wsetlocale.obj
 0001:0005e510       ___acrt_copy_locale_name   1005f510 f   libucrtd:wsetlocale.obj
 0001:0005e5b0       ___acrt_set_locale_changed 1005f5b0 f   libucrtd:wsetlocale.obj
 0001:0005e5d0       ___acrt_uninitialize_locale 1005f5d0 f   libucrtd:wsetlocale.obj
 0001:0005e5f0       ___ascii_tolower           1005f5f0 f i libucrtd:wsetlocale.obj
 0001:0005e610       ___ascii_towlower          1005f610 f i libucrtd:wsetlocale.obj
 0001:0005e630       ___lc_lctowcs              1005f630 f   libucrtd:wsetlocale.obj
 0001:0005e6e0       ___lc_wcstolc              1005f6e0 f   libucrtd:wsetlocale.obj
 0001:0005e910       __configthreadlocale       1005f910 f   libucrtd:wsetlocale.obj
 0001:0005ea90       __create_locale            1005fa90 f   libucrtd:wsetlocale.obj
 0001:0005f0d0       __free_locale              100600d0 f   libucrtd:wsetlocale.obj
 0001:0005f200       __get_current_locale       10060200 f   libucrtd:wsetlocale.obj
 0001:0005f2d0       __wcreate_locale           100602d0 f   libucrtd:wsetlocale.obj
 0001:0005f510       __wcscats                  10060510 f   libucrtd:wsetlocale.obj
 0001:0005f590       __wsetlocale               10060590 f   libucrtd:wsetlocale.obj
 0001:00060c80       ___p___mb_cur_max          10061c80 f   libucrtd:nlsdata.obj
 0001:00060f80       ___acrt_initialize_lowio   10061f80 f   libucrtd:ioinit.obj
 0001:00061020       ___acrt_uninitialize_lowio 10062020 f   libucrtd:ioinit.obj
 0001:00061080       __msize                    10062080 f   libucrtd:msize.obj
 0001:000610a0       __msize_base               100620a0 f   libucrtd:msize.obj
 0001:00061140       __realloc_base             10062140 f   libucrtd:realloc_base.obj
 0001:000614e0       ___acrt_get_begin_thread_init_policy 100624e0 f   libucrtd:win_policies.obj
 0001:00061500       ___acrt_get_developer_information_policy 10062500 f   libucrtd:win_policies.obj
 0001:00061520       ___acrt_get_process_end_policy 10062520 f   libucrtd:win_policies.obj
 0001:00061540       ___acrt_get_windowing_model_policy 10062540 f   libucrtd:win_policies.obj
 0001:00061810       ??$__acrt_mbs_to_wcs_cp@U__crt_win32_buffer_internal_dynamic_resizing@@@@YAHQBDAAV?$__crt_win32_buffer@_WU__crt_win32_buffer_internal_dynamic_resizing@@@@I@Z 10062810 f i libucrtd:argv_wildcards.obj
 0001:00061840       ??$__acrt_wcs_to_mbs_cp@U__crt_win32_buffer_internal_dynamic_resizing@@@@YAHQB_WAAV?$__crt_win32_buffer@DU__crt_win32_buffer_internal_dynamic_resizing@@@@I@Z 10062840 f i libucrtd:argv_wildcards.obj
 0001:00062790       ??$tcsncpy_s@AAPADIAAPADABI@?$__crt_char_traits@D@@SAHAAPAD$$QAI0ABI@Z 10063790 f i libucrtd:argv_wildcards.obj
 0001:000627c0       ??$tcsncpy_s@AAPA_WIAAPA_WABI@?$__crt_char_traits@_W@@SAHAAPA_W$$QAI0ABI@Z 100637c0 f i libucrtd:argv_wildcards.obj
 0001:000627f0       ??$tcsncpy_s@PADABIABQBDABI@?$__crt_char_traits@D@@SAH$$QAPADABIABQBD1@Z 100637f0 f i libucrtd:argv_wildcards.obj
 0001:00062820       ??$tcsncpy_s@PADIABQBDABI@?$__crt_char_traits@D@@SAH$$QAPAD$$QAIABQBDABI@Z 10063820 f i libucrtd:argv_wildcards.obj
 0001:00062850       ??$tcsncpy_s@PA_WABIABQB_WABI@?$__crt_char_traits@_W@@SAH$$QAPA_WABIABQB_W1@Z 10063850 f i libucrtd:argv_wildcards.obj
 0001:00062880       ??$tcsncpy_s@PA_WIABQB_WABI@?$__crt_char_traits@_W@@SAH$$QAPA_W$$QAIABQB_WABI@Z 10063880 f i libucrtd:argv_wildcards.obj
 0001:000628b0       ??$tcspbrk@AAPADAAY02$$CBD@?$__crt_char_traits@D@@SAPADAAPADAAY02$$CBD@Z 100638b0 f i libucrtd:argv_wildcards.obj
 0001:000628d0       ??$tcspbrk@AAPA_WAAY02$$CB_W@?$__crt_char_traits@_W@@SAPA_WAAPA_WAAY02$$CB_W@Z 100638d0 f i libucrtd:argv_wildcards.obj
 0001:000628f0       ??0?$__crt_unique_handle_t@U__crt_findfile_traits@@@@QAE@QAX@Z 100638f0 f i libucrtd:argv_wildcards.obj
 0001:00062910       ??0?$__crt_win32_buffer@DU__crt_win32_buffer_internal_dynamic_resizing@@@@QAE@XZ 10063910 f i libucrtd:argv_wildcards.obj
 0001:00062960       ??0?$__crt_win32_buffer@_WU__crt_win32_buffer_internal_dynamic_resizing@@@@QAE@XZ 10063960 f i libucrtd:argv_wildcards.obj
 0001:00062a10       ??1?$__crt_unique_handle_t@U__crt_findfile_traits@@@@QAE@XZ 10063a10 f i libucrtd:argv_wildcards.obj
 0001:00062a30       ??1?$__crt_win32_buffer@DU__crt_win32_buffer_internal_dynamic_resizing@@@@QAE@XZ 10063a30 f i libucrtd:argv_wildcards.obj
 0001:00062a70       ??1?$__crt_win32_buffer@_WU__crt_win32_buffer_internal_dynamic_resizing@@@@QAE@XZ 10063a70 f i libucrtd:argv_wildcards.obj
 0001:00062cd0       ?_deallocate@?$__crt_win32_buffer@DU__crt_win32_buffer_internal_dynamic_resizing@@@@AAEXXZ 10063cd0 f i libucrtd:argv_wildcards.obj
 0001:00062d10       ?_deallocate@?$__crt_win32_buffer@_WU__crt_win32_buffer_internal_dynamic_resizing@@@@AAEXXZ 10063d10 f i libucrtd:argv_wildcards.obj
 0001:00062d50       ?allocate@?$__crt_win32_buffer@DU__crt_win32_buffer_internal_dynamic_resizing@@@@QAEHI@Z 10063d50 f i libucrtd:argv_wildcards.obj
 0001:00062dc0       ?allocate@?$__crt_win32_buffer@_WU__crt_win32_buffer_internal_dynamic_resizing@@@@QAEHI@Z 10063dc0 f i libucrtd:argv_wildcards.obj
 0001:00062e30       ?allocate@__crt_win32_buffer_internal_dynamic_resizing@@SAHQAPAXIABV__crt_win32_buffer_empty_debug_info@@@Z 10063e30 f i libucrtd:argv_wildcards.obj
 0001:00062f70       ?capacity@?$__crt_win32_buffer@DU__crt_win32_buffer_internal_dynamic_resizing@@@@QBEIXZ 10063f70 f i libucrtd:argv_wildcards.obj
 0001:00062f90       ?capacity@?$__crt_win32_buffer@_WU__crt_win32_buffer_internal_dynamic_resizing@@@@QBEIXZ 10063f90 f i libucrtd:argv_wildcards.obj
 0001:00062fb0       ?close@?$__crt_unique_handle_t@U__crt_findfile_traits@@@@QAEXXZ 10063fb0 f i libucrtd:argv_wildcards.obj
 0001:00062ff0       ?close@__crt_findfile_traits@@SA_NPAX@Z 10063ff0 f i libucrtd:argv_wildcards.obj
 0001:00063020       ?data@?$__crt_win32_buffer@DU__crt_win32_buffer_internal_dynamic_resizing@@@@QAEPADXZ 10064020 f i libucrtd:argv_wildcards.obj
 0001:00063040       ?data@?$__crt_win32_buffer@_WU__crt_win32_buffer_internal_dynamic_resizing@@@@QAEPA_WXZ 10064040 f i libucrtd:argv_wildcards.obj
 0001:00063060       ?deallocate@__crt_win32_buffer_internal_dynamic_resizing@@SAXQAXABV__crt_win32_buffer_empty_debug_info@@@Z 10064060 f i libucrtd:argv_wildcards.obj
 0001:00063080       ?debug_info@?$__crt_win32_buffer@DU__crt_win32_buffer_internal_dynamic_resizing@@@@QBEABV__crt_win32_buffer_empty_debug_info@@XZ 10064080 f i libucrtd:argv_wildcards.obj
 0001:00063090       ?debug_info@?$__crt_win32_buffer@_WU__crt_win32_buffer_internal_dynamic_resizing@@@@QBEABV__crt_win32_buffer_empty_debug_info@@XZ 10064090 f i libucrtd:argv_wildcards.obj
 0001:000633a0       ?get@?$__crt_unique_handle_t@U__crt_findfile_traits@@@@QBEPAXXZ 100643a0 f i libucrtd:argv_wildcards.obj
 0001:00063410       ?get_invalid_value@__crt_findfile_traits@@SAPAXXZ 10064410 f i libucrtd:argv_wildcards.obj
 0001:000634a0       ?set_to_nullptr@?$__crt_win32_buffer@DU__crt_win32_buffer_internal_dynamic_resizing@@@@QAEXXZ 100644a0 f i libucrtd:argv_wildcards.obj
 0001:000634e0       ?set_to_nullptr@?$__crt_win32_buffer@_WU__crt_win32_buffer_internal_dynamic_resizing@@@@QAEXXZ 100644e0 f i libucrtd:argv_wildcards.obj
 0001:00063520       ?size@?$__crt_win32_buffer@DU__crt_win32_buffer_internal_dynamic_resizing@@@@QAEXI@Z 10064520 f i libucrtd:argv_wildcards.obj
 0001:00063540       ?size@?$__crt_win32_buffer@_WU__crt_win32_buffer_internal_dynamic_resizing@@@@QAEXI@Z 10064540 f i libucrtd:argv_wildcards.obj
 0001:000635a0       ?strpbrk@@YAPADQADQBD@Z    100645a0 f i libucrtd:argv_wildcards.obj
 0001:000635c0       ?wcspbrk@@YAPA_WPA_WPB_W@Z 100645c0 f i libucrtd:argv_wildcards.obj
 0001:000635e0       ___acrt_expand_narrow_argv_wildcards 100645e0 f   libucrtd:argv_wildcards.obj
 0001:00063600       ___acrt_expand_wide_argv_wildcards 10064600 f   libucrtd:argv_wildcards.obj
 0001:000636e0       ??$initialize_from_array@$$BY10BAA@E@?$dual_state_global@PAE@__crt_state_management@@QAAXAAY10BAA@E@Z 100646e0 f i libucrtd:mbctype.obj
 0001:00063730       ??$initialize_from_array@$$BY10BAB@E@?$dual_state_global@PAE@__crt_state_management@@QAAXAAY10BAB@E@Z 10064730 f i libucrtd:mbctype.obj
 0001:000639a0       ?dangerous_get_state_array@?$dual_state_global@PAE@__crt_state_management@@QAEPAPAEXZ 100649a0 f i libucrtd:mbctype.obj
 0001:000639b0       ?dangerous_get_state_array@?$dual_state_global@PAU__crt_multibyte_data@@@__crt_state_management@@QAEPAPAU__crt_multibyte_data@@XZ 100649b0 f i libucrtd:mbctype.obj
 0001:00063a80       ?initialize@?$dual_state_global@PAU__crt_multibyte_data@@@__crt_state_management@@QAEXQAU__crt_multibyte_data@@@Z 10064a80 f i libucrtd:mbctype.obj
 0001:000641d0       ?value@?$dual_state_global@PAE@__crt_state_management@@QAEAAPAEXZ 100651d0 f i libucrtd:mbctype.obj
 0001:000641f0       ___acrt_initialize_multibyte 100651f0 f   libucrtd:mbctype.obj
 0001:000642a0       ___acrt_update_thread_multibyte_data 100652a0 f   libucrtd:mbctype.obj
 0001:000642c0       ___p__mbcasemap            100652c0 f   libucrtd:mbctype.obj
 0001:000642e0       ___p__mbctype              100652e0 f   libucrtd:mbctype.obj
 0001:00064300       __getmbcp                  10065300 f   libucrtd:mbctype.obj
 0001:00064370       __setmbcp                  10065370 f   libucrtd:mbctype.obj
 0001:000643a0       __setmbcp_nolock           100653a0 f   libucrtd:mbctype.obj
 0001:00064911       __ismbbalnum               10065911 f   libucrtd:ismbbyte.obj
 0001:0006492c       __ismbbalnum_l             1006592c f   libucrtd:ismbbyte.obj
 0001:00064948       __ismbbalpha               10065948 f   libucrtd:ismbbyte.obj
 0001:00064963       __ismbbalpha_l             10065963 f   libucrtd:ismbbyte.obj
 0001:0006497f       __ismbbblank               1006597f f   libucrtd:ismbbyte.obj
 0001:000649a2       __ismbbblank_l             100659a2 f   libucrtd:ismbbyte.obj
 0001:000649c6       __ismbbgraph               100659c6 f   libucrtd:ismbbyte.obj
 0001:000649e1       __ismbbgraph_l             100659e1 f   libucrtd:ismbbyte.obj
 0001:000649fd       __ismbbkalnum              100659fd f   libucrtd:ismbbyte.obj
 0001:00064a15       __ismbbkalnum_l            10065a15 f   libucrtd:ismbbyte.obj
 0001:00064a2e       __ismbbkana                10065a2e f   libucrtd:ismbbyte.obj
 0001:00064a41       __ismbbkana_l              10065a41 f   libucrtd:ismbbyte.obj
 0001:00064a90       __ismbbkprint              10065a90 f   libucrtd:ismbbyte.obj
 0001:00064aa8       __ismbbkprint_l            10065aa8 f   libucrtd:ismbbyte.obj
 0001:00064ac1       __ismbbkpunct              10065ac1 f   libucrtd:ismbbyte.obj
 0001:00064ad9       __ismbbkpunct_l            10065ad9 f   libucrtd:ismbbyte.obj
 0001:00064af2       __ismbblead                10065af2 f   libucrtd:ismbbyte.obj
 0001:00064b0a       __ismbblead_l              10065b0a f   libucrtd:ismbbyte.obj
 0001:00064b23       __ismbbprint               10065b23 f   libucrtd:ismbbyte.obj
 0001:00064b3e       __ismbbprint_l             10065b3e f   libucrtd:ismbbyte.obj
 0001:00064b5a       __ismbbpunct               10065b5a f   libucrtd:ismbbyte.obj
 0001:00064b72       __ismbbpunct_l             10065b72 f   libucrtd:ismbbyte.obj
 0001:00064b8b       __ismbbtrail               10065b8b f   libucrtd:ismbbyte.obj
 0001:00064ba3       __ismbbtrail_l             10065ba3 f   libucrtd:ismbbyte.obj
 0001:00064bc0       ___acrt_initialize_command_line 10065bc0 f   libucrtd:argv_data.obj
 0001:00064be0       ___acrt_uninitialize_command_line 10065be0 f   libucrtd:argv_data.obj
 0001:00064bf0       ___p___argc                10065bf0 f   libucrtd:argv_data.obj
 0001:00064c00       ___p___argv                10065c00 f   libucrtd:argv_data.obj
 0001:00064c10       ___p___wargv               10065c10 f   libucrtd:argv_data.obj
 0001:00064c20       ___p__acmdln               10065c20 f   libucrtd:argv_data.obj
 0001:00064c30       ___p__pgmptr               10065c30 f   libucrtd:argv_data.obj
 0001:00064c40       ___p__wcmdln               10065c40 f   libucrtd:argv_data.obj
 0001:00064c50       ___p__wpgmptr              10065c50 f   libucrtd:argv_data.obj
 0001:00064c60       __get_pgmptr               10065c60 f   libucrtd:argv_data.obj
 0001:00064d70       __get_wpgmptr              10065d70 f   libucrtd:argv_data.obj
 0001:00064f30       ___acrt_MultiByteToWideChar 10065f30 f   libucrtd:multibytetowidechar.obj
 0001:00065030       ___acrt_WideCharToMultiByte 10066030 f   libucrtd:widechartomultibyte.obj
 0001:00065189       ___dcrt_get_narrow_environment_from_os 10066189 f   libucrtd:get_environment_from_os.obj
 0001:0006521b       ___dcrt_get_wide_environment_from_os 1006621b f   libucrtd:get_environment_from_os.obj
 0001:00065bb0       ??$get_or_create_environment_nolock@$$V@?$__crt_char_traits@D@@SAPAPADXZ 10066bb0 f i libucrtd:setenv.obj
 0001:00065bb5       ??$get_or_create_environment_nolock@$$V@?$__crt_char_traits@_W@@SAPAPA_WXZ 10066bb5 f i libucrtd:setenv.obj
 0001:00065bba       ??$set_environment_variable@ABQADQAD@?$__crt_char_traits@D@@SAHABQAD$$QBQAD@Z 10066bba f i libucrtd:setenv.obj
 0001:00065bd2       ??$set_environment_variable@ABQA_WQA_W@?$__crt_char_traits@_W@@SAHABQA_W$$QBQA_W@Z 10066bd2 f i libucrtd:setenv.obj
 0001:00065be9       ??$tcschr@ABQADD@?$__crt_char_traits@D@@SAPADABQAD$$QAD@Z 10066be9 f i libucrtd:setenv.obj
 0001:00065c03       ??$tcschr@ABQA_WD@?$__crt_char_traits@_W@@SAPA_WABQA_W$$QAD@Z 10066c03 f i libucrtd:setenv.obj
 0001:00065c21       ??$tcscpy_s@AAPADABIAAPAD@?$__crt_char_traits@D@@SAHAAPADABI0@Z 10066c21 f i libucrtd:setenv.obj
 0001:00065c3f       ??$tcscpy_s@AAPA_WABIAAPA_W@?$__crt_char_traits@_W@@SAHAAPA_WABI0@Z 10066c3f f i libucrtd:setenv.obj
 0001:00065c5d       ??$tcscpy_s@ABQADABIABQAD@?$__crt_char_traits@D@@SAHABQADABI0@Z 10066c5d f i libucrtd:setenv.obj
 0001:00065c7b       ??$tcscpy_s@ABQA_WABIABQA_W@?$__crt_char_traits@_W@@SAHABQA_WABI0@Z 10066c7b f i libucrtd:setenv.obj
 0001:00065c99       ??$tcslen@ABQAD@?$__crt_char_traits@D@@SAIABQAD@Z 10066c99 f i libucrtd:setenv.obj
 0001:00065cb1       ??$tcslen@ABQA_W@?$__crt_char_traits@_W@@SAIABQA_W@Z 10066cb1 f i libucrtd:setenv.obj
 0001:00065ccf       ??$tcsnicoll@ABQBDAAPADABI@?$__crt_char_traits@D@@SAHABQBDAAPADABI@Z 10066ccf f i libucrtd:setenv.obj
 0001:00065ced       ??$tcsnicoll@ABQB_WAAPA_WABI@?$__crt_char_traits@_W@@SAHABQB_WAAPA_WABI@Z 10066ced f i libucrtd:setenv.obj
 0001:00065d0b       ??$tcsnlen@PADH@?$__crt_char_traits@D@@SAI$$QAPAD$$QAH@Z 10066d0b f i libucrtd:setenv.obj
 0001:00065d23       ??$tcsnlen@PA_WH@?$__crt_char_traits@_W@@SAI$$QAPA_W$$QAH@Z 10066d23 f i libucrtd:setenv.obj
 0001:00065d5f       ?strchr@@YAPADQADH@Z       10066d5f f i libucrtd:setenv.obj
 0001:00065d6a       ?wcschr@@YAPA_WPA_W_W@Z    10066d6a f i libucrtd:setenv.obj
 0001:00065d75       ___dcrt_set_variable_in_narrow_environment_nolock 10066d75 f   libucrtd:setenv.obj
 0001:00065d80       ___dcrt_set_variable_in_wide_environment_nolock 10066d80 f   libucrtd:setenv.obj
 0001:00065db0       ??$?B$$A6GHPA_WKJ@Z@__crt_fast_encoded_nullptr_t@@QBEP6GHPA_WKJ@ZXZ 10066db0 f i libucrtd:winapi_thunks.obj
 0001:00065ea0       ??$__crt_fast_decode_pointer@P6GHPA_WKJ@Z@@YAP6GHPA_WKJ@ZQ6GH0KJ@Z@Z 10066ea0 f i libucrtd:winapi_thunks.obj
 0001:00065ed0       ??$__crt_fast_decode_pointer@PAX@@YAPAXQAX@Z 10066ed0 f i libucrtd:winapi_thunks.obj
 0001:00065f00       ??$__crt_fast_encode_pointer@P6GHPA_WKJ@Z@@YAP6GHPA_WKJ@ZQ6GH0KJ@Z@Z 10066f00 f i libucrtd:winapi_thunks.obj
 0001:00066860       _GetCurrentThreadEffectiveToken 10067860 f i libucrtd:winapi_thunks.obj
 0001:00066870       ___acrt_AppPolicyGetProcessTerminationMethodInternal@4 10067870 f   libucrtd:winapi_thunks.obj
 0001:000668b0       ___acrt_AppPolicyGetShowDeveloperDiagnosticInternal@4 100678b0 f   libucrtd:winapi_thunks.obj
 0001:000668f0       ___acrt_AppPolicyGetThreadInitializationTypeInternal@4 100678f0 f   libucrtd:winapi_thunks.obj
 0001:00066930       ___acrt_AppPolicyGetWindowingModelInternal@4 10067930 f   libucrtd:winapi_thunks.obj
 0001:00066970       ___acrt_AreFileApisANSI@0  10067970 f   libucrtd:winapi_thunks.obj
 0001:000669b0       ___acrt_CompareStringEx@36 100679b0 f   libucrtd:winapi_thunks.obj
 0001:00066a30       ___acrt_EnumSystemLocalesEx@16 10067a30 f   libucrtd:winapi_thunks.obj
 0001:00066a90       ___acrt_FlsAlloc@4         10067a90 f   libucrtd:winapi_thunks.obj
 0001:00066ad0       ___acrt_FlsFree@4          10067ad0 f   libucrtd:winapi_thunks.obj
 0001:00066b10       ___acrt_FlsGetValue@4      10067b10 f   libucrtd:winapi_thunks.obj
 0001:00066b50       ___acrt_FlsSetValue@8      10067b50 f   libucrtd:winapi_thunks.obj
 0001:00066ba0       ___acrt_GetDateFormatEx@28 10067ba0 f   libucrtd:winapi_thunks.obj
 0001:00066c20       ___acrt_GetEnabledXStateFeatures@0 10067c20 f   libucrtd:winapi_thunks.obj
 0001:00066c60       ___acrt_GetLocaleInfoEx@16 10067c60 f   libucrtd:winapi_thunks.obj
 0001:00066cc0       ___acrt_GetSystemTimePreciseAsFileTime@4 10067cc0 f   libucrtd:winapi_thunks.obj
 0001:00066d00       ___acrt_GetTimeFormatEx@24 10067d00 f   libucrtd:winapi_thunks.obj
 0001:00066d70       ___acrt_GetUserDefaultLocaleName@8 10067d70 f   libucrtd:winapi_thunks.obj
 0001:00066dc0       ___acrt_GetXStateFeaturesMask@8 10067dc0 f   libucrtd:winapi_thunks.obj
 0001:00066e00       ___acrt_InitializeCriticalSectionEx@12 10067e00 f   libucrtd:winapi_thunks.obj
 0001:00066e50       ___acrt_IsValidLocaleName@4 10067e50 f   libucrtd:winapi_thunks.obj
 0001:00066ea0       ___acrt_LCIDToLocaleName@16 10067ea0 f   libucrtd:winapi_thunks.obj
 0001:00066f00       ___acrt_LCMapStringEx@36   10067f00 f   libucrtd:winapi_thunks.obj
 0001:00066f80       ___acrt_LocaleNameToLCID@8 10067f80 f   libucrtd:winapi_thunks.obj
 0001:00066fd0       ___acrt_LocateXStateFeature@12 10067fd0 f   libucrtd:winapi_thunks.obj
 0001:00067020       ___acrt_MessageBoxA@16     10068020 f   libucrtd:winapi_thunks.obj
 0001:00067070       ___acrt_MessageBoxW@16     10068070 f   libucrtd:winapi_thunks.obj
 0001:000670c0       ___acrt_RoInitialize@4     100680c0 f   libucrtd:winapi_thunks.obj
 0001:00067100       ___acrt_RoUninitialize@0   10068100 f   libucrtd:winapi_thunks.obj
 0001:00067130       ___acrt_RtlGenRandom@8     10068130 f   libucrtd:winapi_thunks.obj
 0001:00067170       ___acrt_SetThreadStackGuarantee@4 10068170 f   libucrtd:winapi_thunks.obj
 0001:000671b0       ___acrt_can_show_message_box 100681b0 f   libucrtd:winapi_thunks.obj
 0001:000671f0       ___acrt_can_use_vista_locale_apis 100681f0 f   libucrtd:winapi_thunks.obj
 0001:00067220       ___acrt_can_use_xstate_apis 10068220 f   libucrtd:winapi_thunks.obj
 0001:00067250       ___acrt_eagerly_load_locale_apis 10068250 f   libucrtd:winapi_thunks.obj
 0001:00067290       ___acrt_get_parent_window  10068290 f   libucrtd:winapi_thunks.obj
 0001:00067300       ___acrt_initialize_winapi_thunks 10068300 f   libucrtd:winapi_thunks.obj
 0001:00067370       ___acrt_is_interactive     10068370 f   libucrtd:winapi_thunks.obj
 0001:00067420       ___acrt_uninitialize_winapi_thunks 10068420 f   libucrtd:winapi_thunks.obj
 0001:00067490       ___acrt_getheap            10068490 f   libucrtd:heap_handle.obj
 0001:000674d0       ___acrt_initialize_heap    100684d0 f   libucrtd:heap_handle.obj
 0001:00067500       ___acrt_uninitialize_heap  10068500 f   libucrtd:heap_handle.obj
 0001:00067520       __get_heap_handle          10068520 f   libucrtd:heap_handle.obj
 0001:00067560       ___acrt_execute_initializers 10068560 f   libucrtd:shared_initialization.obj
 0001:00067610       ___acrt_execute_uninitializers 10068610 f   libucrtd:shared_initialization.obj
 0001:00067670       ??$__crt_fast_decode_pointer@P6AHPAU_exception@@@Z@@YAP6AHPAU_exception@@@ZQ6AH0@Z@Z 10068670 f i libucrtd:matherr.obj
 0001:000676a0       ??$__crt_fast_encode_pointer@P6AHPAU_exception@@@Z@@YAP6AHPAU_exception@@@ZQ6AH0@Z@Z 100686a0 f i libucrtd:matherr.obj
 0001:000676d0       ?initialize@?$dual_state_global@P6AHPAU_exception@@@Z@__crt_state_management@@QAEXQ6AHPAU_exception@@@Z@Z 100686d0 f i libucrtd:matherr.obj
 0001:00067710       ?value@?$dual_state_global@P6AHPAU_exception@@@Z@__crt_state_management@@QAEAAP6AHPAU_exception@@@ZXZ 10068710 f i libucrtd:matherr.obj
 0001:00067730       ___acrt_has_user_matherr   10068730 f   libucrtd:matherr.obj
 0001:00067770       ___acrt_initialize_user_matherr 10068770 f   libucrtd:matherr.obj
 0001:00067790       ___acrt_invoke_user_matherr 10068790 f   libucrtd:matherr.obj
 0001:000677e0       ___setusermatherr          100687e0 f   libucrtd:matherr.obj
 0001:00067810       __chvalidator              10068810 f   libucrtd:isctype.obj
 0001:00067860       __chvalidator_l            10068860 f   libucrtd:isctype.obj
 0001:000678e0       __isctype                  100688e0 f   libucrtd:isctype.obj
 0001:00067920       __isctype_l                10068920 f   libucrtd:isctype.obj
 0001:00067aa0       __isleadbyte_fast_internal 10068aa0 f i libucrtd:isctype.obj
 0001:00067ad0       __free_base                10068ad0 f   libucrtd:free_base.obj
 0001:00067b80       __expand                   10068b80 f   libucrtd:expand.obj
 0001:00067ba0       __expand_base              10068ba0 f   libucrtd:expand.obj
 0001:00067cd0       ?value@?$dual_state_global@J@__crt_state_management@@QAEAAJXZ 10068cd0 f i libucrtd:new_mode.obj
 0001:00067cf0       __query_new_mode           10068cf0 f   libucrtd:new_mode.obj
 0001:00067d10       __set_new_mode             10068d10 f   libucrtd:new_mode.obj
 0001:00067db0       __CrtDefaultAllocHook      10068db0 f   libucrtd:debug_heap_hook.obj
 0001:00067dbc       __mbsdec                   10068dbc f   libucrtd:mbsdec.obj
 0001:00067dd3       __mbsdec_l                 10068dd3 f   libucrtd:mbsdec.obj
 0001:000682c0       _strncpy_s                 100692c0 f   libucrtd:strncpy_s.obj
 0001:00068490       ___acrt_report_runtime_error 10069490 f   libucrtd:report_runtime_error.obj
 0001:00068680       __query_app_type           10069680 f   libucrtd:report_runtime_error.obj
 0001:00068690       __set_app_type             10069690 f   libucrtd:report_runtime_error.obj
 0001:000686a0       __iswctype_l               100696a0 f   libucrtd:iswctype.obj
 0001:000686c0       _iswctype                  100696c0 f   libucrtd:iswctype.obj
 0001:00069840       __i64toa                   1006a840 f   libucrtd:xtoa.obj
 0001:00069890       __i64toa_s                 1006a890 f   libucrtd:xtoa.obj
 0001:000698e0       __i64tow                   1006a8e0 f   libucrtd:xtoa.obj
 0001:00069930       __i64tow_s                 1006a930 f   libucrtd:xtoa.obj
 0001:00069980       __itoa                     1006a980 f   libucrtd:xtoa.obj
 0001:000699d0       __itoa_s                   1006a9d0 f   libucrtd:xtoa.obj
 0001:00069a20       __itow                     1006aa20 f   libucrtd:xtoa.obj
 0001:00069a70       __itow_s                   1006aa70 f   libucrtd:xtoa.obj
 0001:00069ac0       __ltoa                     1006aac0 f   libucrtd:xtoa.obj
 0001:00069b10       __ltoa_s                   1006ab10 f   libucrtd:xtoa.obj
 0001:00069b60       __ltow                     1006ab60 f   libucrtd:xtoa.obj
 0001:00069bb0       __ltow_s                   1006abb0 f   libucrtd:xtoa.obj
 0001:00069c00       __ui64toa                  1006ac00 f   libucrtd:xtoa.obj
 0001:00069c30       __ui64toa_s                1006ac30 f   libucrtd:xtoa.obj
 0001:00069c60       __ui64tow                  1006ac60 f   libucrtd:xtoa.obj
 0001:00069c90       __ui64tow_s                1006ac90 f   libucrtd:xtoa.obj
 0001:00069cc0       __ultoa                    1006acc0 f   libucrtd:xtoa.obj
 0001:00069cf0       __ultoa_s                  1006acf0 f   libucrtd:xtoa.obj
 0001:00069d20       __ultow                    1006ad20 f   libucrtd:xtoa.obj
 0001:00069d50       __ultow_s                  1006ad50 f   libucrtd:xtoa.obj
 0001:0006a160       __mbstowcs_l               1006b160 f   libucrtd:mbstowcs.obj
 0001:0006a180       __mbstowcs_s_l             1006b180 f   libucrtd:mbstowcs.obj
 0001:0006a540       _mbstowcs                  1006b540 f   libucrtd:mbstowcs.obj
 0001:0006a590       _mbstowcs_s                1006b590 f   libucrtd:mbstowcs.obj
 0001:0006ac80       __wcstombs_l               1006bc80 f   libucrtd:wcstombs.obj
 0001:0006aca0       __wcstombs_s_l             1006bca0 f   libucrtd:wcstombs.obj
 0001:0006b010       _wcstombs                  1006c010 f   libucrtd:wcstombs.obj
 0001:0006b030       _wcstombs_s                1006c030 f   libucrtd:wcstombs.obj
 0001:0006b060       ___acrt_OutputDebugStringA@4 1006c060 f   libucrtd:outputdebugstringa.obj
 0001:0006b0f0       ___iswcsym                 1006c0f0 f i libucrtd:_wctype.obj
 0001:0006b130       ___iswcsymf                1006c130 f i libucrtd:_wctype.obj
 0001:0006b170       __isleadbyte_l             1006c170 f i libucrtd:_wctype.obj
 0001:0006b1c0       __iswalnum_l               1006c1c0 f i libucrtd:_wctype.obj
 0001:0006b1e0       __iswalpha_l               1006c1e0 f i libucrtd:_wctype.obj
 0001:0006b200       __iswblank_l               1006c200 f i libucrtd:_wctype.obj
 0001:0006b240       __iswcntrl_l               1006c240 f i libucrtd:_wctype.obj
 0001:0006b260       __iswcsym_l                1006c260 f i libucrtd:_wctype.obj
 0001:0006b2a0       __iswcsymf_l               1006c2a0 f i libucrtd:_wctype.obj
 0001:0006b2e0       __iswdigit_l               1006c2e0 f i libucrtd:_wctype.obj
 0001:0006b300       __iswgraph_l               1006c300 f i libucrtd:_wctype.obj
 0001:0006b320       __iswlower_l               1006c320 f i libucrtd:_wctype.obj
 0001:0006b340       __iswprint_l               1006c340 f i libucrtd:_wctype.obj
 0001:0006b360       __iswpunct_l               1006c360 f i libucrtd:_wctype.obj
 0001:0006b380       __iswspace_l               1006c380 f i libucrtd:_wctype.obj
 0001:0006b3a0       __iswupper_l               1006c3a0 f i libucrtd:_wctype.obj
 0001:0006b3c0       __iswxdigit_l              1006c3c0 f i libucrtd:_wctype.obj
 0001:0006b3e0       _isleadbyte                1006c3e0 f i libucrtd:_wctype.obj
 0001:0006b400       _iswalnum                  1006c400 f i libucrtd:_wctype.obj
 0001:0006b420       _iswalpha                  1006c420 f i libucrtd:_wctype.obj
 0001:0006b440       _iswascii                  1006c440 f i libucrtd:_wctype.obj
 0001:0006b470       _iswblank                  1006c470 f i libucrtd:_wctype.obj
 0001:0006b4b0       _iswcntrl                  1006c4b0 f i libucrtd:_wctype.obj
 0001:0006b4d0       _iswdigit                  1006c4d0 f i libucrtd:_wctype.obj
 0001:0006b4f0       _iswgraph                  1006c4f0 f i libucrtd:_wctype.obj
 0001:0006b510       _iswlower                  1006c510 f i libucrtd:_wctype.obj
 0001:0006b530       _iswprint                  1006c530 f i libucrtd:_wctype.obj
 0001:0006b550       _iswpunct                  1006c550 f i libucrtd:_wctype.obj
 0001:0006b570       _iswspace                  1006c570 f i libucrtd:_wctype.obj
 0001:0006b590       _iswupper                  1006c590 f i libucrtd:_wctype.obj
 0001:0006b5b0       _iswxdigit                 1006c5b0 f i libucrtd:_wctype.obj
 0001:0006b640       ?__mbrtowc_utf8@__crt_mbstring@@YAIPA_WPBDIPAU_Mbstatet@@@Z 1006c640 f   libucrtd:mbrtowc.obj
 0001:0006b690       ?__mbsrtowcs_utf8@__crt_mbstring@@YAIPA_WPAPBDIPAU_Mbstatet@@@Z 1006c690 f   libucrtd:mbrtowc.obj
 0001:0006bf00       _btowc                     1006cf00 f   libucrtd:mbrtowc.obj
 0001:0006bf70       _mbrlen                    1006cf70 f   libucrtd:mbrtowc.obj
 0001:0006bfc0       _mbrtowc                   1006cfc0 f   libucrtd:mbrtowc.obj
 0001:0006c050       _mbsrtowcs                 1006d050 f   libucrtd:mbrtowc.obj
 0001:0006c070       _mbsrtowcs_s               1006d070 f   libucrtd:mbrtowc.obj
 0001:0006c3c0       ??$?RG@__crt_internal_free_policy@@QBEXQBG@Z 1006d3c0 f i libucrtd:initctype.obj
 0001:0006c3e0       ??$?RJ@__crt_internal_free_policy@@QBEXQBJ@Z 1006d3e0 f i libucrtd:initctype.obj
 0001:0006c400       ??0?$__crt_unique_heap_ptr@GU__crt_internal_free_policy@@@@QAE@QAG@Z 1006d400 f i libucrtd:initctype.obj
 0001:0006c420       ??0?$__crt_unique_heap_ptr@JU__crt_internal_free_policy@@@@QAE@QAJ@Z 1006d420 f i libucrtd:initctype.obj
 0001:0006c440       ??1?$__crt_unique_heap_ptr@GU__crt_internal_free_policy@@@@QAE@XZ 1006d440 f i libucrtd:initctype.obj
 0001:0006c460       ??1?$__crt_unique_heap_ptr@JU__crt_internal_free_policy@@@@QAE@XZ 1006d460 f i libucrtd:initctype.obj
 0001:0006c480       ?detach@?$__crt_unique_heap_ptr@GU__crt_internal_free_policy@@@@QAEPAGXZ 1006d480 f i libucrtd:initctype.obj
 0001:0006c4b0       ?detach@?$__crt_unique_heap_ptr@JU__crt_internal_free_policy@@@@QAEPAJXZ 1006d4b0 f i libucrtd:initctype.obj
 0001:0006c4e0       ?release@?$__crt_unique_heap_ptr@GU__crt_internal_free_policy@@@@QAEXXZ 1006d4e0 f i libucrtd:initctype.obj
 0001:0006c510       ?release@?$__crt_unique_heap_ptr@JU__crt_internal_free_policy@@@@QAEXXZ 1006d510 f i libucrtd:initctype.obj
 0001:0006c540       ____lc_codepage_func       1006d540 f   libucrtd:initctype.obj
 0001:0006c580       ____lc_collate_cp_func     1006d580 f   libucrtd:initctype.obj
 0001:0006c5c0       ____lc_locale_name_func    1006d5c0 f   libucrtd:initctype.obj
 0001:0006c600       ____mb_cur_max_func        1006d600 f   libucrtd:initctype.obj
 0001:0006c640       ____mb_cur_max_l_func      1006d640 f   libucrtd:initctype.obj
 0001:0006c670       ___acrt_locale_initialize_ctype 1006d670 f   libucrtd:initctype.obj
 0001:0006cdf0       ?__c32rtomb_utf8@__crt_mbstring@@YAIPAD_UPAU_Mbstatet@@@Z 1006ddf0 f   libucrtd:c32rtomb.obj
 0001:0006cfd0       ?reset_and_return@__crt_mbstring@@YAIIPAU_Mbstatet@@@Z 1006dfd0 f i libucrtd:c32rtomb.obj
 0001:0006d000       ?return_illegal_sequence@__crt_mbstring@@YAIPAU_Mbstatet@@@Z 1006e000 f i libucrtd:c32rtomb.obj
 0001:0006d030       _c32rtomb                  1006e030 f   libucrtd:c32rtomb.obj
 0001:0006d050       ___acrt_add_locale_ref     1006e050 f   libucrtd:locale_refcounting.obj
 0001:0006d160       ___acrt_free_locale        1006e160 f   libucrtd:locale_refcounting.obj
 0001:0006d430       ___acrt_locale_add_lc_time_reference 1006e430 f   libucrtd:locale_refcounting.obj
 0001:0006d470       ___acrt_locale_free_lc_time_if_unreferenced 1006e470 f   libucrtd:locale_refcounting.obj
 0001:0006d4c0       ___acrt_locale_release_lc_time_reference 1006e4c0 f   libucrtd:locale_refcounting.obj
 0001:0006d4f0       ___acrt_release_locale_ref 1006e4f0 f   libucrtd:locale_refcounting.obj
 0001:0006d600       ___acrt_update_thread_locale_data 1006e600 f   libucrtd:locale_refcounting.obj
 0001:0006d6e0       __updatetlocinfoEx_nolock  1006e6e0 f   libucrtd:locale_refcounting.obj
 0001:0006d860       ___acrt_fp_strflt_to_string 1006e860 f   libucrtd:_fptostr.obj
 0001:0006e220       ??0big_integer@__crt_strtox@@QAE@ABU01@@Z 1006f220 f i libucrtd:cfout.obj
 0001:0006e260       ??0big_integer@__crt_strtox@@QAE@XZ 1006f260 f i libucrtd:cfout.obj
 0001:0006e320       ??4big_integer@__crt_strtox@@QAEAAU01@ABU01@@Z 1006f320 f i libucrtd:cfout.obj
 0001:0006e360       ??8__crt_strtox@@YA_NABUbig_integer@0@0@Z 1006f360 f i libucrtd:cfout.obj
 0001:0006e3c0       ??9__crt_strtox@@YA_NABUbig_integer@0@0@Z 1006f3c0 f i libucrtd:cfout.obj
 0001:0006e400       ?add_carry@__crt_strtox@@YAIAAIII@Z 1006f400 f i libucrtd:cfout.obj
 0001:0006e440       ?add_multiply_carry@__crt_strtox@@YAIAAIIII@Z 1006f440 f i libucrtd:cfout.obj
 0001:0006e480       ?bit_scan_reverse@__crt_strtox@@YAII@Z 1006f480 f i libucrtd:cfout.obj
 0001:0006e4b0       ?count_sequential_high_zeroes@__crt_strtox@@YAII@Z 1006f4b0 f i libucrtd:cfout.obj
 0001:0006e4f0       ?divide@__crt_strtox@@YA_KAAUbig_integer@1@ABU21@@Z 1006f4f0 f i libucrtd:cfout.obj
 0001:0006ef70       ?is_zero@__crt_strtox@@YA_NABUbig_integer@1@@Z 1006ff70 f i libucrtd:cfout.obj
 0001:0006efa0       ?make_big_integer@__crt_strtox@@YA?AUbig_integer@1@_K@Z 1006ffa0 f i libucrtd:cfout.obj
 0001:0006f050       ?make_big_integer_power_of_two@__crt_strtox@@YA?AUbig_integer@1@I@Z 10070050 f i libucrtd:cfout.obj
 0001:0006f100       ?multiply@__crt_strtox@@YA_NAAUbig_integer@1@ABU21@@Z 10070100 f i libucrtd:cfout.obj
 0001:0006f480       ?multiply@__crt_strtox@@YA_NAAUbig_integer@1@I@Z 10070480 f i libucrtd:cfout.obj
 0001:0006f550       ?multiply_64_32@__crt_strtox@@YA_K_KI@Z 10070550 f i libucrtd:cfout.obj
 0001:0006f570       ?multiply_by_power_of_ten@__crt_strtox@@YA_NAAUbig_integer@1@I@Z 10070570 f i libucrtd:cfout.obj
 0001:0006f710       ?multiply_core@__crt_strtox@@YAIQAIII@Z 10070710 f i libucrtd:cfout.obj
 0001:0006f780       ?shift_left@__crt_strtox@@YA_NAAUbig_integer@1@I@Z 10070780 f i libucrtd:cfout.obj
 0001:0006fa60       ___acrt_fltout             10070a60 f   libucrtd:cfout.obj
 0001:0006fe60       ___fpe_flt_rounds          10070e60 f   libucrtd:fegetround.obj
 0001:0006fec0       _fegetround                10070ec0 f   libucrtd:fegetround.obj
 0001:000705c0       ?has_big_buffer@__crt_stdio_stream@@QBE_NXZ 100715c0 f i libucrtd:_flsbuf.obj
 0001:000706c0       ___acrt_stdio_flush_and_write_narrow_nolock 100716c0 f   libucrtd:_flsbuf.obj
 0001:000706f0       ___acrt_stdio_flush_and_write_wide_nolock 100716f0 f   libucrtd:_flsbuf.obj
 0001:00070720       ??0__crt_stdio_stream@@QAE@QAU__crt_stdio_stream_data@@@Z 10071720 f i libucrtd:closeall.obj
 0001:00070740       ?is_in_use@__crt_stdio_stream@@QBE_NXZ 10071740 f i libucrtd:closeall.obj
 0001:00070780       __fcloseall                10071780 f   libucrtd:closeall.obj
 0001:00070e60       ?__acrt_stdio_reset_buffer@@YAXV__crt_stdio_stream@@@Z 10071e60 f i libucrtd:fflush.obj
 0001:00070f60       ?has_all_of@__crt_stdio_stream@@QBE_NJ@Z 10071f60 f i libucrtd:fflush.obj
 0001:00071030       ___acrt_stdio_flush_nolock 10072030 f   libucrtd:fflush.obj
 0001:00071100       __fflush_nolock            10072100 f   libucrtd:fflush.obj
 0001:00071180       __flushall                 10072180 f   libucrtd:fflush.obj
 0001:000711a0       _fflush                    100721a0 f   libucrtd:fflush.obj
 0001:00071210       ?has_crt_buffer@__crt_stdio_stream@@QBE_NXZ 10072210 f i libucrtd:_freebuf.obj
 0001:00071230       ___acrt_stdio_free_buffer_nolock 10072230 f   libucrtd:_freebuf.obj
 0001:000712e0       __isatty                   100722e0 f   libucrtd:isatty.obj
 0001:000713b0       ??$?RUlconv@@@__crt_internal_free_policy@@QBEXQBUlconv@@@Z 100723b0 f i libucrtd:initmon.obj
 0001:000713d0       ??0?$__crt_unique_heap_ptr@Ulconv@@U__crt_internal_free_policy@@@@QAE@QAUlconv@@@Z 100723d0 f i libucrtd:initmon.obj
 0001:000713f0       ??1?$__crt_unique_heap_ptr@Ulconv@@U__crt_internal_free_policy@@@@QAE@XZ 100723f0 f i libucrtd:initmon.obj
 0001:00071410       ?detach@?$__crt_unique_heap_ptr@Ulconv@@U__crt_internal_free_policy@@@@QAEPAUlconv@@XZ 10072410 f i libucrtd:initmon.obj
 0001:00071440       ?release@?$__crt_unique_heap_ptr@Ulconv@@U__crt_internal_free_policy@@@@QAEXXZ 10072440 f i libucrtd:initmon.obj
 0001:00071470       ___acrt_locale_free_monetary 10072470 f   libucrtd:initmon.obj
 0001:00071620       ___acrt_locale_initialize_monetary 10072620 f   libucrtd:initmon.obj
 0001:00071cc0       ___acrt_locale_free_numeric 10072cc0 f   libucrtd:initnum.obj
 0001:00071d70       ___acrt_locale_initialize_numeric 10072d70 f   libucrtd:initnum.obj
 0001:000721c0       ??$?RU__crt_lc_time_data@@@__crt_internal_free_policy@@QBEXQBU__crt_lc_time_data@@@Z 100731c0 f i libucrtd:inittime.obj
 0001:000722a0       ??0?$__crt_unique_heap_ptr@U__crt_lc_time_data@@U__crt_internal_free_policy@@@@QAE@QAU__crt_lc_time_data@@@Z 100732a0 f i libucrtd:inittime.obj
 0001:000722c0       ??1?$__crt_unique_heap_ptr@U__crt_lc_time_data@@U__crt_internal_free_policy@@@@QAE@XZ 100732c0 f i libucrtd:inittime.obj
 0001:000722e0       ??B?$__crt_unique_heap_ptr@U__crt_lc_time_data@@U__crt_internal_free_policy@@@@QBE_NXZ 100732e0 f i libucrtd:inittime.obj
 0001:00072300       ?detach@?$__crt_unique_heap_ptr@U__crt_lc_time_data@@U__crt_internal_free_policy@@@@QAEPAU__crt_lc_time_data@@XZ 10073300 f i libucrtd:inittime.obj
 0001:00072370       ?get@?$__crt_unique_heap_ptr@U__crt_lc_time_data@@U__crt_internal_free_policy@@@@QBEPAU__crt_lc_time_data@@XZ 10073370 f i libucrtd:inittime.obj
 0001:00072840       ?is_valid@?$__crt_unique_heap_ptr@U__crt_lc_time_data@@U__crt_internal_free_policy@@@@QBE_NXZ 10073840 f i libucrtd:inittime.obj
 0001:00072870       ?release@?$__crt_unique_heap_ptr@U__crt_lc_time_data@@U__crt_internal_free_policy@@@@QAEXXZ 10073870 f i libucrtd:inittime.obj
 0001:000728a0       ___acrt_locale_free_time   100738a0 f   libucrtd:inittime.obj
 0001:000729f0       ___acrt_locale_initialize_time 100739f0 f   libucrtd:inittime.obj
 0001:00072a70       ___pctype_func             10073a70 f   libucrtd:ctype.obj
 0001:00072ab0       ___pwctype_func            10073ab0 f   libucrtd:ctype.obj
 0001:00072f90       _wcsncat_s                 10073f90 f   libucrtd:wcsncat_s.obj
 0001:00072fb0       _wcscmp                    10073fb0 f   libucrtd:wcscmp.obj
 0001:00073030       _wcscspn                   10074030 f   libucrtd:wcscspn.obj
 0001:000730a0       _wcspbrk                   100740a0 f   libucrtd:wcspbrk.obj
 0001:00073100       ??0?$__crt_scoped_stack_ptr@_W@@QAE@U?$__crt_scoped_stack_ptr_tag@_W@@@Z 10074100 f i libucrtd:getstringtypea.obj
 0001:00073120       ??0?$__crt_scoped_stack_ptr_tag@_W@@QAE@QA_W@Z 10074120 f i libucrtd:getstringtypea.obj
 0001:00073140       ??1?$__crt_scoped_stack_ptr@_W@@QAE@XZ 10074140 f i libucrtd:getstringtypea.obj
 0001:00073160       ?get@?$__crt_scoped_stack_ptr@_W@@QBEPA_WXZ 10074160 f i libucrtd:getstringtypea.obj
 0001:00073180       __MallocaComputeSize       10074180 f i libucrtd:getstringtypea.obj
 0001:000731b0       __MarkAllocaS              100741b0 f i libucrtd:getstringtypea.obj
 0001:000731e0       ___acrt_GetStringTypeA     100741e0 f   libucrtd:getstringtypea.obj
 0001:00073390       __freea_crt                10074390 f i libucrtd:getstringtypea.obj
 0001:00073f60       ___acrt_get_qualified_locale 10074f60 f   libucrtd:get_qualified_locale.obj
 0001:00074f70       ___acrt_get_qualified_locale_downlevel 10075f70 f   libucrtd:getqloc_downlevel.obj
 0001:00075210       _localeconv                10076210 f   libucrtd:localeconv.obj
 0001:00075250       ??$?RU__crt_lowio_handle_data@@@__crt_internal_free_policy@@QBEXQBU__crt_lowio_handle_data@@@Z 10076250 f i libucrtd:osfinfo.obj
 0001:00075270       ??0?$__crt_unique_heap_ptr@U__crt_lowio_handle_data@@U__crt_internal_free_policy@@@@QAE@QAU__crt_lowio_handle_data@@@Z 10076270 f i libucrtd:osfinfo.obj
 0001:00075290       ??1?$__crt_unique_heap_ptr@U__crt_lowio_handle_data@@U__crt_internal_free_policy@@@@QAE@XZ 10076290 f i libucrtd:osfinfo.obj
 0001:000752b0       ??B?$__crt_unique_heap_ptr@U__crt_lowio_handle_data@@U__crt_internal_free_policy@@@@QBE_NXZ 100762b0 f i libucrtd:osfinfo.obj
 0001:000752d0       ?detach@?$__crt_unique_heap_ptr@U__crt_lowio_handle_data@@U__crt_internal_free_policy@@@@QAEPAU__crt_lowio_handle_data@@XZ 100762d0 f i libucrtd:osfinfo.obj
 0001:00075300       ?get@?$__crt_unique_heap_ptr@U__crt_lowio_handle_data@@U__crt_internal_free_policy@@@@QBEPAU__crt_lowio_handle_data@@XZ 10076300 f i libucrtd:osfinfo.obj
 0001:00075320       ?is_valid@?$__crt_unique_heap_ptr@U__crt_lowio_handle_data@@U__crt_internal_free_policy@@@@QBE_NXZ 10076320 f i libucrtd:osfinfo.obj
 0001:00075350       ?release@?$__crt_unique_heap_ptr@U__crt_lowio_handle_data@@U__crt_internal_free_policy@@@@QAEXXZ 10076350 f i libucrtd:osfinfo.obj
 0001:00075380       ___acrt_lowio_create_handle_array 10076380 f   libucrtd:osfinfo.obj
 0001:000754e0       ___acrt_lowio_destroy_handle_array 100764e0 f   libucrtd:osfinfo.obj
 0001:00075540       ___acrt_lowio_ensure_fh_exists 10076540 f   libucrtd:osfinfo.obj
 0001:000756a0       ___acrt_lowio_lock_fh      100766a0 f   libucrtd:osfinfo.obj
 0001:000756d0       ___acrt_lowio_set_os_handle 100766d0 f   libucrtd:osfinfo.obj
 0001:000757a0       ___acrt_lowio_unlock_fh    100767a0 f   libucrtd:osfinfo.obj
 0001:000757d0       __alloc_osfhnd             100767d0 f   libucrtd:osfinfo.obj
 0001:000759b0       __free_osfhnd              100769b0 f   libucrtd:osfinfo.obj
 0001:00075aa0       __get_osfhandle            10076aa0 f   libucrtd:osfinfo.obj
 0001:00075c20       __open_osfhandle           10076c20 f   libucrtd:osfinfo.obj
 0001:00075e20       __malloc_base              10076e20 f   libucrtd:malloc_base.obj
 0001:00075fd0       _qsort                     10076fd0 f   libucrtd:qsort.obj
 0001:00076660       _strpbrk                   10077660 f   libucrtd:strpbrk.obj
 0001:000766a0       ??B?$__crt_scoped_stack_ptr@_W@@QBE_NXZ 100776a0 f i libucrtd:lcmapstringa.obj
 0001:00076a90       ___acrt_LCMapStringA       10077a90 f   libucrtd:lcmapstringa.obj
 0001:00076b20       __wcsnicoll                10077b20 f   libucrtd:wcsnicol.obj
 0001:00076ce0       __wcsnicoll_l              10077ce0 f   libucrtd:wcsnicol.obj
 0001:00076f30       __strnicoll                10077f30 f   libucrtd:strnicol.obj
 0001:00076f80       __strnicoll_l              10077f80 f   libucrtd:strnicol.obj
 0001:000773a0       ___acrt_SetEnvironmentVariableA 100783a0 f   libucrtd:setenvironmentvariablea.obj
 0001:00077560       ___acrt_DownlevelLCIDToLocaleName 10078560 f   libucrtd:lcidtoname_downlevel.obj
 0001:00077630       ___acrt_DownlevelLocaleNameToLCID 10078630 f   libucrtd:lcidtoname_downlevel.obj
 0001:00077670       __set_error_mode           10078670 f   libucrtd:set_error_mode.obj
 0001:00077730       ___acrt_GetStringTypeW     10078730 f   libucrtd:getstringtypew.obj
 0001:00077750       ?__wcsrtombs_utf8@__crt_mbstring@@YAIPADPAPB_WIPAU_Mbstatet@@@Z 10078750 f   libucrtd:wcrtomb.obj
 0001:00077f30       _wcrtomb                   10078f30 f   libucrtd:wcrtomb.obj
 0001:00077f80       _wcrtomb_s                 10078f80 f   libucrtd:wcrtomb.obj
 0001:000780a0       _wcsrtombs                 100790a0 f   libucrtd:wcrtomb.obj
 0001:000780c0       _wcsrtombs_s               100790c0 f   libucrtd:wcrtomb.obj
 0001:00078410       _wctob                     10079410 f   libucrtd:wcrtomb.obj
 0001:00078490       ?__mbrtoc32_utf8@__crt_mbstring@@YAIPA_UPBDIPAU_Mbstatet@@@Z 10079490 f   libucrtd:mbrtoc32.obj
 0001:00078760       _mbrtoc32                  10079760 f   libucrtd:mbrtoc32.obj
 0001:00078900       ___acrt_GetLocaleInfoA     10079900 f   libucrtd:getlocaleinfoa.obj
 0001:00078cc0       _log10                     10079cc0 f   libucrtd:log10.obj
 0001:00078d10       _ceil                      10079d10 f   libucrtd:ceil_pentium4.obj
 0001:00078d50       __ceil_pentium4            10079d50 f   libucrtd:ceil_pentium4.obj
 0001:00078e30       __controlfp_s              10079e30 f   libucrtd:contrlfp.obj
 0001:00078f20       _fegetenv                  10079f20 f   libucrtd:fegetenv.obj
 0001:00078f40       _fesetenv                  10079f40 f   libucrtd:fesetenv.obj
 0001:00078fb0       _feholdexcept              10079fb0 f   libucrtd:feholdexcept.obj
 0001:00079020       ??$__acrt_fenv_shift_bits@W4__acrt_fenv_abstract_control@@@@YA?AW4__acrt_fenv_abstract_control@@W40@0I@Z 1007a020 f i libucrtd:_fenvutils.obj
 0001:00079040       ??$__acrt_fenv_shift_bits@W4__acrt_fenv_abstract_status@@@@YA?AW4__acrt_fenv_abstract_status@@W40@0I@Z 1007a040 f i libucrtd:_fenvutils.obj
 0001:00079060       ??$__acrt_fenv_translate_bit@W4__acrt_fenv_abstract_control@@W4__acrt_fenv_machine_sse_control@@@@YA?AW4__acrt_fenv_abstract_control@@W4__acrt_fenv_machine_sse_control@@0W40@1@Z 1007a060 f i libucrtd:_fenvutils.obj
 0001:000790a0       ??$__acrt_fenv_translate_bit@W4__acrt_fenv_abstract_control@@W4__acrt_fenv_machine_x87_control@@@@YA?AW4__acrt_fenv_abstract_control@@W4__acrt_fenv_machine_x87_control@@0W40@1@Z 1007a0a0 f i libucrtd:_fenvutils.obj
 0001:000790e0       ??$__acrt_fenv_translate_bit@W4__acrt_fenv_abstract_status@@W4__acrt_fenv_machine_sse_status@@@@YA?AW4__acrt_fenv_abstract_status@@W4__acrt_fenv_machine_sse_status@@0W40@1@Z 1007a0e0 f i libucrtd:_fenvutils.obj
 0001:00079120       ??$__acrt_fenv_translate_bit@W4__acrt_fenv_abstract_status@@W4__acrt_fenv_machine_x87_status@@@@YA?AW4__acrt_fenv_abstract_status@@W4__acrt_fenv_machine_x87_status@@0W40@1@Z 1007a120 f i libucrtd:_fenvutils.obj
 0001:00079160       ??$__acrt_fenv_translate_bit@W4__acrt_fenv_machine_sse_control@@W4__acrt_fenv_abstract_control@@@@YA?AW4__acrt_fenv_machine_sse_control@@W4__acrt_fenv_abstract_control@@0W40@1@Z 1007a160 f i libucrtd:_fenvutils.obj
 0001:000791a0       ??$__acrt_fenv_translate_bit@W4__acrt_fenv_machine_sse_status@@W4__acrt_fenv_abstract_status@@@@YA?AW4__acrt_fenv_machine_sse_status@@W4__acrt_fenv_abstract_status@@0W40@1@Z 1007a1a0 f i libucrtd:_fenvutils.obj
 0001:000791e0       ??$__acrt_fenv_translate_bit@W4__acrt_fenv_machine_x87_control@@W4__acrt_fenv_abstract_control@@@@YA?AW4__acrt_fenv_machine_x87_control@@W4__acrt_fenv_abstract_control@@0W40@1@Z 1007a1e0 f i libucrtd:_fenvutils.obj
 0001:00079220       ??$__acrt_fenv_translate_bit@W4__acrt_fenv_machine_x87_status@@W4__acrt_fenv_abstract_status@@@@YA?AW4__acrt_fenv_machine_x87_status@@W4__acrt_fenv_abstract_status@@0W40@1@Z 1007a220 f i libucrtd:_fenvutils.obj
 0001:00079260       ??$__acrt_fenv_unshift_bits@W4__acrt_fenv_abstract_control@@@@YA?AW4__acrt_fenv_abstract_control@@W40@0I@Z 1007a260 f i libucrtd:_fenvutils.obj
 0001:00079280       ??$__acrt_fenv_unshift_bits@W4__acrt_fenv_abstract_status@@@@YA?AW4__acrt_fenv_abstract_status@@W40@0I@Z 1007a280 f i libucrtd:_fenvutils.obj
 0001:00079cb0       ??I@YA?AW4__acrt_fenv_abstract_control@@W40@0@Z 1007acb0 f i libucrtd:_fenvutils.obj
 0001:00079cc0       ??I@YA?AW4__acrt_fenv_abstract_status@@W40@0@Z 1007acc0 f i libucrtd:_fenvutils.obj
 0001:00079cd0       ??I@YA?AW4__acrt_fenv_machine_sse_control@@W40@0@Z 1007acd0 f i libucrtd:_fenvutils.obj
 0001:00079cf0       ??I@YA?AW4__acrt_fenv_machine_sse_status@@W40@0@Z 1007acf0 f i libucrtd:_fenvutils.obj
 0001:00079d00       ??I@YA?AW4__acrt_fenv_machine_x87_control@@W40@0@Z 1007ad00 f i libucrtd:_fenvutils.obj
 0001:00079d20       ??I@YA?AW4__acrt_fenv_machine_x87_status@@W40@0@Z 1007ad20 f i libucrtd:_fenvutils.obj
 0001:00079d30       ??U@YA?AW4__acrt_fenv_abstract_control@@W40@0@Z 1007ad30 f i libucrtd:_fenvutils.obj
 0001:00079d40       ??U@YA?AW4__acrt_fenv_abstract_status@@W40@0@Z 1007ad40 f i libucrtd:_fenvutils.obj
 0001:00079d50       ??U@YA?AW4__acrt_fenv_machine_sse_control@@W40@0@Z 1007ad50 f i libucrtd:_fenvutils.obj
 0001:00079d70       ??U@YA?AW4__acrt_fenv_machine_x87_control@@W40@0@Z 1007ad70 f i libucrtd:_fenvutils.obj
 0001:00079d90       ??_5@YAAAW4__acrt_fenv_abstract_control@@AAW40@W40@@Z 1007ad90 f i libucrtd:_fenvutils.obj
 0001:00079db0       ??_5@YAAAW4__acrt_fenv_abstract_status@@AAW40@W40@@Z 1007adb0 f i libucrtd:_fenvutils.obj
 0001:00079dd0       ??_5@YAAAW4__acrt_fenv_machine_sse_control@@AAW40@W40@@Z 1007add0 f i libucrtd:_fenvutils.obj
 0001:00079df0       ??_5@YAAAW4__acrt_fenv_machine_sse_status@@AAW40@W40@@Z 1007adf0 f i libucrtd:_fenvutils.obj
 0001:00079e10       ??_5@YAAAW4__acrt_fenv_machine_x87_control@@AAW40@W40@@Z 1007ae10 f i libucrtd:_fenvutils.obj
 0001:00079e30       ??_5@YAAAW4__acrt_fenv_machine_x87_status@@AAW40@W40@@Z 1007ae30 f i libucrtd:_fenvutils.obj
 0001:00079e50       ?__acrt_fenv_shift_abstract_sse_control@@YA?AW4__acrt_fenv_abstract_control@@W41@@Z 1007ae50 f i libucrtd:_fenvutils.obj
 0001:00079e90       ?__acrt_fenv_shift_abstract_sse_status@@YA?AW4__acrt_fenv_abstract_status@@W41@@Z 1007ae90 f i libucrtd:_fenvutils.obj
 0001:00079eb0       ?__acrt_fenv_shift_abstract_x87_control@@YA?AW4__acrt_fenv_abstract_control@@W41@@Z 1007aeb0 f i libucrtd:_fenvutils.obj
 0001:00079ef0       ?__acrt_fenv_shift_abstract_x87_status@@YA?AW4__acrt_fenv_abstract_status@@W41@@Z 1007aef0 f i libucrtd:_fenvutils.obj
 0001:00079f10       ?__acrt_fenv_unshift_abstract_sse_control@@YA?AW4__acrt_fenv_abstract_control@@W41@@Z 1007af10 f i libucrtd:_fenvutils.obj
 0001:00079f50       ?__acrt_fenv_unshift_abstract_sse_status@@YA?AW4__acrt_fenv_abstract_status@@W41@@Z 1007af50 f i libucrtd:_fenvutils.obj
 0001:00079f70       ?__acrt_fenv_unshift_abstract_x87_control@@YA?AW4__acrt_fenv_abstract_control@@W41@@Z 1007af70 f i libucrtd:_fenvutils.obj
 0001:00079fb0       ?__acrt_fenv_unshift_abstract_x87_status@@YA?AW4__acrt_fenv_abstract_status@@W41@@Z 1007afb0 f i libucrtd:_fenvutils.obj
 0001:0007a4e0       ___acrt_fenv_expand_round_control 1007b4e0 f   libucrtd:_fenvutils.obj
 0001:0007a520       ___acrt_fenv_get_common_round_control 1007b520 f   libucrtd:_fenvutils.obj
 0001:0007a580       ___acrt_fenv_get_control   1007b580 f   libucrtd:_fenvutils.obj
 0001:0007a600       ___acrt_fenv_get_fp_status_word_from_exception_mask 1007b600 f   libucrtd:_fenvutils.obj
 0001:0007a640       ___acrt_fenv_get_status    1007b640 f   libucrtd:_fenvutils.obj
 0001:0007a6b0       ___acrt_fenv_set_control   1007b6b0 f   libucrtd:_fenvutils.obj
 0001:0007a6f0       ___acrt_fenv_set_status    1007b6f0 f   libucrtd:_fenvutils.obj
 0001:0007bc90       __utf8_no_of_trailbytes    1007cc90 f i libucrtd:write.obj
 0001:0007bcb0       __write                    1007ccb0 f   libucrtd:write.obj
 0001:0007bf00       __write_nolock             1007cf00 f   libucrtd:write.obj
 0001:0007cac0       __lseek                    1007dac0 f   libucrtd:lseek.obj
 0001:0007cae0       __lseek_nolock             1007dae0 f   libucrtd:lseek.obj
 0001:0007cb00       __lseeki64                 1007db00 f   libucrtd:lseek.obj
 0001:0007cb20       __lseeki64_nolock          1007db20 f   libucrtd:lseek.obj
 0001:0007cb40       ___acrt_stdio_allocate_buffer_nolock 1007db40 f   libucrtd:_getbuf.obj
 0001:0007cc60       __fclose_nolock            1007dc60 f   libucrtd:fclose.obj
 0001:0007cda0       _fclose                    1007dda0 f   libucrtd:fclose.obj
 0001:0007d100       __commit                   1007e100 f   libucrtd:commit.obj
 0001:0007d260       ___ascii_wcsicmp           1007e260 f   libucrtd:wcsicmp.obj
 0001:0007d2d0       __towlower_fast_internal   1007e2d0 f i libucrtd:wcsicmp.obj
 0001:0007d310       __towlower_internal        1007e310 f i libucrtd:wcsicmp.obj
 0001:0007d350       __wcsicmp                  1007e350 f   libucrtd:wcsicmp.obj
 0001:0007d490       __wcsicmp_l                1007e490 f   libucrtd:wcsicmp.obj
 0001:0007d670       ___ascii_wcsnicmp          1007e670 f   libucrtd:wcsnicmp.obj
 0001:0007d700       __wcsnicmp                 1007e700 f   libucrtd:wcsnicmp.obj
 0001:0007d840       __wcsnicmp_l               1007e840 f   libucrtd:wcsnicmp.obj
 0001:0007da40       ___strncnt                 1007ea40 f   libucrtd:strncnt.obj
 0001:0007da90       ___acrt_CompareStringW     1007ea90 f   libucrtd:comparestringw.obj
 0001:0007db40       __strnicmp                 1007eb40 f   libucrtd:strnicmp.obj
 0001:0007dd00       __strnicmp_l               1007ed00 f   libucrtd:strnicmp.obj
 0001:0007e3d0       ___acrt_CompareStringA     1007f3d0 f   libucrtd:comparestringa.obj
 0001:0007e430       ?__c16rtomb_utf8@__crt_mbstring@@YAIPAD_SPAU_Mbstatet@@@Z 1007f430 f   libucrtd:c16rtomb.obj
 0001:0007e630       _c16rtomb                  1007f630 f   libucrtd:c16rtomb.obj
 0001:0007e650       ___acrt_initialize_sse2    1007f650 f   libucrtd:mathfcns.obj
 0001:0007e670       __set_SSE2_enable          1007f670 f   libucrtd:mathfcns.obj
 0001:0007e6c0       __CIlog10                  1007f6c0 f   libucrtd:log10_impl.obj
 0001:0007e6fb       __CIlog10_default          1007f6fb f   libucrtd:log10_impl.obj
 0001:0007e70f       __log10_default            1007f70f     libucrtd:log10_impl.obj
 0001:0007e7d0       __CIlog10_pentium4         1007f7d0 f   libucrtd:log10_pentium4.obj
 0001:0007e7e8       __log10_pentium4           1007f7e8     libucrtd:log10_pentium4.obj
 0001:0007ea60       ___libm_error_support      1007fa60 f   libucrtd:libm_error.obj
 0001:0007f020       ___libm_setusermatherr     10080020 f   libucrtd:libm_error.obj
 0001:0007f060       __ceil_default             10080060 f   libucrtd:ceil.obj
 0001:0007f390       ___control87_2             10080390 f   libucrtd:ieee87.obj
 0001:0007f4c0       ___fpreset_sse2            100804c0 f   libucrtd:ieee87.obj
 0001:0007f830       __clearfp                  10080830 f   libucrtd:ieee87.obj
 0001:0007f880       __control87                10080880 f   libucrtd:ieee87.obj
 0001:0007f930       __controlfp                10080930 f   libucrtd:ieee87.obj
 0001:0007f950       __fpreset                  10080950 f   libucrtd:ieee87.obj
 0001:0007fb10       __set_controlfp            10080b10 f   libucrtd:ieee87.obj
 0001:0007fba0       __statusfp                 10080ba0 f   libucrtd:ieee87.obj
 0001:0007fbf0       __statusfp2                10080bf0 f   libucrtd:ieee87.obj
 0001:0007fd07       __putwch                   10080d07 f   libucrtd:putwch.obj
 0001:0007fd34       __putwch_nolock            10080d34 f   libucrtd:putwch.obj
 0001:00080770       __read                     10081770 f   libucrtd:read.obj
 0001:00080a50       __read_nolock              10081a50 f   libucrtd:read.obj
 0001:000816a0       __close                    100826a0 f   libucrtd:close.obj
 0001:00081820       __close_nolock             10082820 f   libucrtd:close.obj
 0001:00081880       ??$?RU__crt_stdio_stream_data@@@__crt_internal_free_policy@@QBEXQBU__crt_stdio_stream_data@@@Z 10082880 f i libucrtd:stream.obj
 0001:000818a0       ??0?$__crt_unique_heap_ptr@U__crt_stdio_stream_data@@U__crt_internal_free_policy@@@@QAE@QAU__crt_stdio_stream_data@@@Z 100828a0 f i libucrtd:stream.obj
 0001:000818c0       ??0__crt_stdio_stream@@QAE@XZ 100828c0 f i libucrtd:stream.obj
 0001:000818e0       ??1?$__crt_unique_heap_ptr@U__crt_stdio_stream_data@@U__crt_internal_free_policy@@@@QAE@XZ 100828e0 f i libucrtd:stream.obj
 0001:00081900       ?__acrt_stdio_allocate_stream@@YA?AV__crt_stdio_stream@@XZ 10082900 f   libucrtd:stream.obj
 0001:000819f0       ?__acrt_stdio_free_stream@@YAXV__crt_stdio_stream@@@Z 100829f0 f   libucrtd:stream.obj
 0001:00081a70       ?deallocate@__crt_stdio_stream@@QAEXXZ 10082a70 f i libucrtd:stream.obj
 0001:00081a90       ?detach@?$__crt_unique_heap_ptr@U__crt_stdio_stream_data@@U__crt_internal_free_policy@@@@QAEPAU__crt_stdio_stream_data@@XZ 10082a90 f i libucrtd:stream.obj
 0001:00081c00       ?lock@__crt_stdio_stream@@QBEXXZ 10082c00 f i libucrtd:stream.obj
 0001:00081c20       ?release@?$__crt_unique_heap_ptr@U__crt_stdio_stream_data@@U__crt_internal_free_policy@@@@QAEXXZ 10082c20 f i libucrtd:stream.obj
 0001:00081c50       ?try_allocate@__crt_stdio_stream@@QAE_NXZ 10082c50 f i libucrtd:stream.obj
 0001:00081ca0       ?unlock@__crt_stdio_stream@@QBEXXZ 10082ca0 f i libucrtd:stream.obj
 0001:00081cc0       __towlower_l               10082cc0 f   libucrtd:towlower.obj
 0001:00081dc0       _towlower                  10082dc0 f   libucrtd:towlower.obj
 0001:00081de0       ___ascii_strnicmp          10082de0 f   libucrtd:_strnicm.obj
 0001:00081e70       __fFEXP                    10082e70 f   libucrtd:87tran.obj
 0001:00081ec7       __rtinfpopse               10082ec7     libucrtd:87tran.obj
 0001:00081ec9       __rtinfnpopse              10082ec9     libucrtd:87tran.obj
 0001:00081ed9       __fFLN                     10082ed9     libucrtd:87tran.obj
 0001:00081f8e       __rtinfpop                 10082f8e     libucrtd:87tran.obj
 0001:00081f90       __rtinfnpop                10082f90     libucrtd:87tran.obj
 0001:00081fa0       __rtforexpinf              10082fa0 f   libucrtd:87tran.obj
 0001:00081fad       __ffexpm1                  10082fad     libucrtd:87tran.obj
 0001:00082060       __trandisp1                10083060 f   libucrtd:87disp.obj
 0001:000820d5       __trandisp2                100830d5 f   libucrtd:87disp.obj
 0001:0008216f       __rttospopde               1008316f     libucrtd:87disp.obj
 0001:00082174       __rttospop                 10083174     libucrtd:87disp.obj
 0001:00082180       __rtnospop                 10083180 f   libucrtd:87disp.obj
 0001:00082190       __rttosnpop                10083190 f   libucrtd:87disp.obj
 0001:00082191       __rtnospopde               10083191     libucrtd:87disp.obj
 0001:00082198       __rtzeropop                10083198     libucrtd:87disp.obj
 0001:0008219a       __rtzeronpop               1008319a     libucrtd:87disp.obj
 0001:000821a0       __rtzerospop               100831a0 f   libucrtd:87disp.obj
 0001:000821ad       __rtonepop                 100831ad     libucrtd:87disp.obj
 0001:000821b0       __rtonenpop                100831b0 f   libucrtd:87disp.obj
 0001:000821c0       __tosnan1                  100831c0 f   libucrtd:87disp.obj
 0001:000821f0       __nosnan2                  100831f0 f   libucrtd:87disp.obj
 0001:00082200       __tosnan2                  10083200 f   libucrtd:87disp.obj
 0001:00082230       __nan2                     10083230 f   libucrtd:87disp.obj
 0001:00082270       __rtindfpop                10083270 f   libucrtd:87disp.obj
 0001:00082272       __rtindfnpop               10083272     libucrtd:87disp.obj
 0001:00082283       __rttosnpopde              10083283     libucrtd:87disp.obj
 0001:00082290       __rtatan2inf               10083290 f   libucrtd:87disp.obj
 0001:000822ad       __rtchsifneg               100832ad     libucrtd:87disp.obj
 0001:000822c0       ___setfflag                100832c0 f   libucrtd:fp_flags.obj
 0001:000822e0       __twoToTOS                 100832e0 f   libucrtd:common.obj
 0001:000822f5       __load_CW                  100832f5 f   libucrtd:common.obj
 0001:0008230c       __convertTOStoQNaN         1008330c f   libucrtd:common.obj
 0001:00082325       __fload_withFB             10083325 f   libucrtd:common.obj
 0001:00082368       __checkTOS_withFB          10083368 f   libucrtd:common.obj
 0001:0008237e       __fast_exit                1008337e f   libucrtd:common.obj
 0001:0008238b       __math_exit                1008338b f   libucrtd:common.obj
 0001:000823b5       __check_overflow_exit      100833b5 f   libucrtd:common.obj
 0001:000823c9       __check_range_exit         100833c9 f   libucrtd:common.obj
 0001:00082470       __startTwoArgErrorHandling 10083470 f   libucrtd:genexcep.obj
 0001:00082487       __startOneArgErrorHandling 10083487 f   libucrtd:genexcep.obj
 0001:000824d0       __frnd                     100834d0 f   libucrtd:frnd.obj
 0001:000824f0       __errcode                  100834f0 f   libucrtd:fpexcept.obj
 0001:00082560       __except1                  10083560 f   libucrtd:fpexcept.obj
 0001:00082660       __except2                  10083660 f   libucrtd:fpexcept.obj
 0001:000827c0       __handle_exc               100837c0 f   libucrtd:fpexcept.obj
 0001:00082ae0       __handle_qnan2             10083ae0 f   libucrtd:fpexcept.obj
 0001:00082b00       __raise_exc                10083b00 f   libucrtd:fpexcept.obj
 0001:00082b30       __raise_exc_ex             10083b30 f   libucrtd:fpexcept.obj
 0001:000830b0       __raise_excf               100840b0 f   libucrtd:fpexcept.obj
 0001:000830e0       __set_errno_from_matherr   100840e0 f   libucrtd:fpexcept.obj
 0001:00083120       __umatherr                 10084120 f   libucrtd:fpexcept.obj
 0001:000831c0       __add_exp                  100841c0 f   libucrtd:util.obj
 0001:00083200       __decomp                   10084200 f   libucrtd:util.obj
 0001:00083330       __get_exp                  10084330 f   libucrtd:util.obj
 0001:00083360       __set_bexp                 10084360 f   libucrtd:util.obj
 0001:00083390       __set_exp                  10084390 f   libucrtd:util.obj
 0001:000833d0       __sptype                   100843d0 f   libucrtd:util.obj
 0001:00083450       ___clrfp_sse2              10084450 f   libucrtd:fpctrl.obj
 0001:00083490       ___ctrlfp_sse2             10084490 f   libucrtd:fpctrl.obj
 0001:000834f0       ___fclrf_sse2              100844f0 f   libucrtd:fpctrl.obj
 0001:00083510       ___get_fpsr_sse2           10084510 f   libucrtd:fpctrl.obj
 0001:00083540       ___set_fpsr_sse2           10084540 f   libucrtd:fpctrl.obj
 0001:00083620       ___set_statfp_sse2         10084620 f   libucrtd:fpctrl.obj
 0001:00083650       ___statfp_sse2             10084650 f   libucrtd:fpctrl.obj
 0001:00083680       __clrfp                    10084680 f   libucrtd:fpctrl.obj
 0001:000836a0       __ctrlfp                   100846a0 f   libucrtd:fpctrl.obj
 0001:000836d0       __set_statfp               100846d0 f   libucrtd:fpctrl.obj
 0001:00083740       __statfp                   10084740 f   libucrtd:fpctrl.obj
 0001:00083802       ___dcrt_lowio_ensure_console_output_initialized 10084802 f   libucrtd:initcon.obj
 0001:00083821       ___dcrt_terminate_console_output 10084821 f   libucrtd:initcon.obj
 0001:00083838       ___dcrt_write_console      10084838 f   libucrtd:initcon.obj
 0001:00083890       ___acrt_LCMapStringW       10084890 f   libucrtd:lcmapstringw.obj
 0001:000838f0       __d_inttype                100848f0 f   libucrtd:powhlp.obj
 0001:00083980       __powhlp                   10084980 f   libucrtd:powhlp.obj
 0001:00083b20       __87except                 10084b20 f   libucrtd:87except.obj
 0001:00083d10       __chgsign                  10084d10 f   libucrtd:ieeemisc.obj
 0001:00083d50       __chgsignf                 10084d50 f   libucrtd:ieeemisc.obj
 0001:00083d90       __copysign                 10084d90 f   libucrtd:ieeemisc.obj
 0001:00083dd0       __copysignf                10084dd0 f   libucrtd:ieeemisc.obj
 0001:00083e20       __finite                   10084e20 f   libucrtd:ieeemisc.obj
 0001:00083e40       __fpclass                  10084e40 f   libucrtd:ieeemisc.obj
 0001:00083f40       __isnan                    10084f40 f   libucrtd:ieeemisc.obj
 0001:00083f90       __logb                     10084f90 f   libucrtd:ieeemisc.obj
 0001:000840b0       __nextafter                100850b0 f   libucrtd:ieeemisc.obj
 0001:000840e0       __scalb                    100850e0 f   libucrtd:ieeemisc.obj
 0001:00084100       _ldexp                     10085100 f   libucrtd:ldexp.obj
 0001:00084400       _nextafter                 10085400 f   libucrtd:nextafter.obj
 0001:00084430       _nexttoward                10085430 f   libucrtd:nexttoward.obj
 0001:00084860       __d_int                    10085860 f   libucrtd:_test.obj
 0001:00084b10       __dtest                    10085b10 f   libucrtd:_test.obj
 0001:00084c30       __fd_int                   10085c30 f   libucrtd:_test.obj
 0001:00084e10       __fdtest                   10085e10 f   libucrtd:_test.obj
 0001:00084ee0       __fperrraise               10085ee0 f   libucrtd:_test.obj
 0001:00084f10       __ld_int                   10085f10 f   libucrtd:_test.obj
 0001:00084f30       __ldtest                   10085f30 f   libucrtd:_test.obj
 0001:00084f50       ??_4@YAAAW4__acrt_fenv_abstract_status@@AAW40@W40@@Z 10085f50 f i libucrtd:fegetexceptflag.obj
 0001:00084f70       _fegetexceptflag           10085f70 f   libucrtd:fegetexceptflag.obj
 0001:00084fc0       ??S@YA?AW4__acrt_fenv_abstract_status@@W40@@Z 10085fc0 f i libucrtd:fesetexceptflag.obj
 0001:00084fd0       _fesetexceptflag           10085fd0 f   libucrtd:fesetexceptflag.obj
 0001:00085090       _fetestexcept              10086090 f   libucrtd:fetestexcept.obj
 0001:000850b7       _IsDebuggerPresent@0       100860b7 f   kernel32:KERNEL32.dll
 0001:000850bd       _OutputDebugStringW@4      100860bd f   kernel32:KERNEL32.dll
 0001:000850c3       _UnhandledExceptionFilter@4 100860c3 f   kernel32:KERNEL32.dll
 0001:000850c9       _SetUnhandledExceptionFilter@4 100860c9 f   kernel32:KERNEL32.dll
 0001:000850cf       _GetCurrentProcess@0       100860cf f   kernel32:KERNEL32.dll
 0001:000850d5       _TerminateProcess@8        100860d5 f   kernel32:KERNEL32.dll
 0001:000850db       _IsProcessorFeaturePresent@4 100860db f   kernel32:KERNEL32.dll
 0001:000850e1       _GetStartupInfoW@4         100860e1 f   kernel32:KERNEL32.dll
 0001:000850e7       _WideCharToMultiByte@32    100860e7 f   kernel32:KERNEL32.dll
 0001:000850ed       _QueryPerformanceCounter@4 100860ed f   kernel32:KERNEL32.dll
 0001:000850f3       _GetCurrentProcessId@0     100860f3 f   kernel32:KERNEL32.dll
 0001:000850f9       _GetCurrentThreadId@0      100860f9 f   kernel32:KERNEL32.dll
 0001:000850ff       _GetSystemTimeAsFileTime@4 100860ff f   kernel32:KERNEL32.dll
 0001:00085105       _InitializeSListHead@4     10086105 f   kernel32:KERNEL32.dll
 0001:0008510b       _HeapAlloc@12              1008610b f   kernel32:KERNEL32.dll
 0001:00085111       _HeapFree@12               10086111 f   kernel32:KERNEL32.dll
 0001:00085117       _GetProcessHeap@0          10086117 f   kernel32:KERNEL32.dll
 0001:0008511d       _VirtualQuery@12           1008611d f   kernel32:KERNEL32.dll
 0001:00085123       _RtlUnwind@16              10086123 f   kernel32:KERNEL32.dll
 0001:00085129       _InterlockedPushEntrySList@8 10086129 f   kernel32:KERNEL32.dll
 0001:0008512f       _InterlockedFlushSList@4   1008612f f   kernel32:KERNEL32.dll
 0001:00085135       _InitializeCriticalSectionAndSpinCount@8 10086135 f   kernel32:KERNEL32.dll
 0001:0008513b       _TlsAlloc@0                1008613b f   kernel32:KERNEL32.dll
 0001:00085141       _TlsGetValue@4             10086141 f   kernel32:KERNEL32.dll
 0001:00085147       _TlsSetValue@8             10086147 f   kernel32:KERNEL32.dll
 0001:0008514d       _TlsFree@4                 1008614d f   kernel32:KERNEL32.dll
 0001:00085153       _GetModuleHandleExW@12     10086153 f   kernel32:KERNEL32.dll
 0001:00085159       _ExitProcess@4             10086159 f   kernel32:KERNEL32.dll
 0001:0008515f       _HeapValidate@12           1008615f f   kernel32:KERNEL32.dll
 0001:00085165       _GetSystemInfo@4           10086165 f   kernel32:KERNEL32.dll
 0001:0008516b       _GetStdHandle@4            1008616b f   kernel32:KERNEL32.dll
 0001:00085171       _GetFileType@4             10086171 f   kernel32:KERNEL32.dll
 0001:00085177       _WriteFile@20              10086177 f   kernel32:KERNEL32.dll
 0001:0008517d       _WriteConsoleW@20          1008617d f   kernel32:KERNEL32.dll
 0001:00085183       _SetConsoleCtrlHandler@8   10086183 f   kernel32:KERNEL32.dll
 0001:00085189       _GetCurrentThread@0        10086189 f   kernel32:KERNEL32.dll
 0001:0008518f       _HeapSize@12               1008618f f   kernel32:KERNEL32.dll
 0001:00085195       _HeapReAlloc@16            10086195 f   kernel32:KERNEL32.dll
 0001:0008519b       _FindClose@4               1008619b f   kernel32:KERNEL32.dll
 0001:000851a1       _FindFirstFileExW@24       100861a1 f   kernel32:KERNEL32.dll
 0001:000851a7       _FindNextFileW@8           100861a7 f   kernel32:KERNEL32.dll
 0001:000851ad       _IsValidCodePage@4         100861ad f   kernel32:KERNEL32.dll
 0001:000851b3       _GetACP@0                  100861b3 f   kernel32:KERNEL32.dll
 0001:000851b9       _GetOEMCP@0                100861b9 f   kernel32:KERNEL32.dll
 0001:000851bf       _GetCPInfo@8               100861bf f   kernel32:KERNEL32.dll
 0001:000851c5       _GetCommandLineA@0         100861c5 f   kernel32:KERNEL32.dll
 0001:000851cb       _GetCommandLineW@0         100861cb f   kernel32:KERNEL32.dll
 0001:000851d1       _GetEnvironmentStringsW@0  100861d1 f   kernel32:KERNEL32.dll
 0001:000851d7       _FreeEnvironmentStringsW@4 100861d7 f   kernel32:KERNEL32.dll
 0001:000851dd       _SetEnvironmentVariableW@8 100861dd f   kernel32:KERNEL32.dll
 0001:000851e3       _GetDateFormatW@24         100861e3 f   kernel32:KERNEL32.dll
 0001:000851e9       _GetTimeFormatW@24         100861e9 f   kernel32:KERNEL32.dll
 0001:000851ef       _CompareStringW@24         100861ef f   kernel32:KERNEL32.dll
 0001:000851f5       _LCMapStringW@24           100861f5 f   kernel32:KERNEL32.dll
 0001:000851fb       _GetLocaleInfoW@16         100861fb f   kernel32:KERNEL32.dll
 0001:00085201       _IsValidLocale@8           10086201 f   kernel32:KERNEL32.dll
 0001:00085207       _GetUserDefaultLCID@0      10086207 f   kernel32:KERNEL32.dll
 0001:0008520d       _EnumSystemLocalesW@8      1008620d f   kernel32:KERNEL32.dll
 0001:00085213       _HeapQueryInformation@20   10086213 f   kernel32:KERNEL32.dll
 0001:00085219       _GetFileSizeEx@8           10086219 f   kernel32:KERNEL32.dll
 0001:0008521f       _SetFilePointerEx@20       1008621f f   kernel32:KERNEL32.dll
 0001:00085225       _GetStringTypeW@16         10086225 f   kernel32:KERNEL32.dll
 0001:0008522b       _SetStdHandle@8            1008622b f   kernel32:KERNEL32.dll
 0001:00085231       _GetConsoleOutputCP@0      10086231 f   kernel32:KERNEL32.dll
 0001:00085237       _GetConsoleMode@8          10086237 f   kernel32:KERNEL32.dll
 0001:0008523d       _FlushFileBuffers@4        1008623d f   kernel32:KERNEL32.dll
 0001:00085243       _ReadFile@20               10086243 f   kernel32:KERNEL32.dll
 0001:00085249       _ReadConsoleW@20           10086249 f   kernel32:KERNEL32.dll
 0001:0008524f       _CloseHandle@4             1008624f f   kernel32:KERNEL32.dll
 0001:00085255       _CreateFileW@28            10086255 f   kernel32:KERNEL32.dll
 0001:00085260       __FindPESection            10086260 f   LIBCMTD:pesect.obj
 0001:000852e0       __IsNonwritableInCurrentImage 100862e0 f   LIBCMTD:pesect.obj
 0001:00085410       __ValidateImageBase        10086410 f   LIBCMTD:pesect.obj
 0001:00085470       __allshl                   10086470 f   LIBCMTD:llshl.obj
 0001:00085490       __aulldiv                  10086490 f   LIBCMTD:ulldiv.obj
 0001:00085500       __aullrem                  10086500 f   LIBCMTD:ullrem.obj
 0001:00085580       __allmul                   10086580 f   LIBCMTD:llmul.obj
 0001:000855c0       __alldiv                   100865c0 f   LIBCMTD:lldiv.obj
 0001:00085670       __allrem                   10086670 f   LIBCMTD:llrem.obj
 0001:00085730       __aullshr                  10086730 f   LIBCMTD:ullshr.obj
 0001:00085750       __alloca_probe_16          10086750 f   LIBCMTD:alloca16.obj
 0001:00085766       __alloca_probe_8           10086766     LIBCMTD:alloca16.obj
 0001:00085780       __ftoi2                    10086780 f   LIBCMTD:ftol2.obj
 0001:00085780       __ftol2_sse_excpt          10086780     LIBCMTD:ftol2.obj
 0001:00085780       __ftol2_sse                10086780     LIBCMTD:ftol2.obj
 0001:00085800       __ftoui2                   10086800 f   LIBCMTD:ftol2.obj
 0001:000858b0       __ftol2                    100868b0 f   LIBCMTD:ftol2.obj
 0001:00085960       __ftoul2                   10086960 f   LIBCMTD:ftol2.obj
 0001:00085a20       __initialize_default_precision 10086a20 f   LIBCMTD:default_precision.obj
 0001:00085a50       __SEH_prolog4              10086a50 f   LIBCMTD:sehprolg4.obj
 0001:00085a94       __SEH_epilog4              10086a94 f   LIBCMTD:sehprolg4.obj
 0001:00085ab0       _strrchr                   10086ab0 f   libvcruntimed:strrchr.obj
 0001:00085bf0       _strchr                    10086bf0 f   libvcruntimed:strchr.obj
 0001:00085c5e       ___from_strstr_to_strchr   10086c5e     libvcruntimed:strchr.obj
 0001:00085d20       _wcschr                    10086d20 f   libvcruntimed:wcschr.obj
 0001:00085e90       __filter_x86_sse2_floating_point_exception 10086e90 f   LIBCMTD:x86_exception_filter.obj
 0001:00085e90       __filter_x86_sse2_floating_point_exception_default 10086e90 f   LIBCMTD:x86_exception_filter.obj
 0002:00000000       __imp__RegQueryInfoKeyW@48 10088000     advapi32:ADVAPI32.dll
 0002:00000004       __imp__RegOpenKeyExW@20    10088004     advapi32:ADVAPI32.dll
 0002:00000008       __imp__RegEnumKeyExW@32    10088008     advapi32:ADVAPI32.dll
 0002:0000000c       __imp__RegDeleteValueW@8   1008800c     advapi32:ADVAPI32.dll
 0002:00000010       __imp__RegDeleteKeyW@8     10088010     advapi32:ADVAPI32.dll
 0002:00000014       __imp__RegCreateKeyExW@36  10088014     advapi32:ADVAPI32.dll
 0002:00000018       __imp__RegCloseKey@4       10088018     advapi32:ADVAPI32.dll
 0002:0000001c       __imp__RegSetValueExW@24   1008801c     advapi32:ADVAPI32.dll
 0002:00000020       \177ADVAPI32_NULL_THUNK_DATA 10088020     advapi32:ADVAPI32.dll
 0002:00000024       __imp__DisableThreadLibraryCalls@4 10088024     kernel32:KERNEL32.dll
 0002:00000028       __imp__FreeLibrary@4       10088028     kernel32:KERNEL32.dll
 0002:0000002c       __imp__GetModuleFileNameW@12 1008802c     kernel32:KERNEL32.dll
 0002:00000030       __imp__GetModuleHandleW@4  10088030     kernel32:KERNEL32.dll
 0002:00000034       __imp__GetProcAddress@8    10088034     kernel32:KERNEL32.dll
 0002:00000038       __imp__LoadLibraryExW@12   10088038     kernel32:KERNEL32.dll
 0002:0000003c       __imp__LoadResource@8      1008803c     kernel32:KERNEL32.dll
 0002:00000040       __imp__LeaveCriticalSection@4 10088040     kernel32:KERNEL32.dll
 0002:00000044       __imp__FindResourceW@12    10088044     kernel32:KERNEL32.dll
 0002:00000048       __imp__lstrcmpiW@8         10088048     kernel32:KERNEL32.dll
 0002:0000004c       __imp__MultiByteToWideChar@24 1008804c     kernel32:KERNEL32.dll
 0002:00000050       __imp__CloseHandle@4       10088050     kernel32:KERNEL32.dll
 0002:00000054       __imp__ReadConsoleW@20     10088054     kernel32:KERNEL32.dll
 0002:00000058       __imp__ReadFile@20         10088058     kernel32:KERNEL32.dll
 0002:0000005c       __imp__FlushFileBuffers@4  1008805c     kernel32:KERNEL32.dll
 0002:00000060       __imp__EnterCriticalSection@4 10088060     kernel32:KERNEL32.dll
 0002:00000064       __imp__EncodePointer@4     10088064     kernel32:KERNEL32.dll
 0002:00000068       __imp__DeleteCriticalSection@4 10088068     kernel32:KERNEL32.dll
 0002:0000006c       __imp__InitializeCriticalSectionEx@12 1008806c     kernel32:KERNEL32.dll
 0002:00000070       __imp__SetLastError@4      10088070     kernel32:KERNEL32.dll
 0002:00000074       __imp__GetLastError@0      10088074     kernel32:KERNEL32.dll
 0002:00000078       __imp__RaiseException@16   10088078     kernel32:KERNEL32.dll
 0002:0000007c       __imp__SizeofResource@8    1008807c     kernel32:KERNEL32.dll
 0002:00000080       __imp__DecodePointer@4     10088080     kernel32:KERNEL32.dll
 0002:00000084       __imp__GetConsoleMode@8    10088084     kernel32:KERNEL32.dll
 0002:00000088       __imp__GetConsoleOutputCP@0 10088088     kernel32:KERNEL32.dll
 0002:0000008c       __imp__SetStdHandle@8      1008808c     kernel32:KERNEL32.dll
 0002:00000090       __imp__GetStringTypeW@16   10088090     kernel32:KERNEL32.dll
 0002:00000094       __imp__SetFilePointerEx@20 10088094     kernel32:KERNEL32.dll
 0002:00000098       __imp__GetFileSizeEx@8     10088098     kernel32:KERNEL32.dll
 0002:0000009c       __imp__HeapQueryInformation@20 1008809c     kernel32:KERNEL32.dll
 0002:000000a0       __imp__EnumSystemLocalesW@8 100880a0     kernel32:KERNEL32.dll
 0002:000000a4       __imp__GetUserDefaultLCID@0 100880a4     kernel32:KERNEL32.dll
 0002:000000a8       __imp__IsValidLocale@8     100880a8     kernel32:KERNEL32.dll
 0002:000000ac       __imp__GetLocaleInfoW@16   100880ac     kernel32:KERNEL32.dll
 0002:000000b0       __imp__LCMapStringW@24     100880b0     kernel32:KERNEL32.dll
 0002:000000b4       __imp__CompareStringW@24   100880b4     kernel32:KERNEL32.dll
 0002:000000b8       __imp__GetTimeFormatW@24   100880b8     kernel32:KERNEL32.dll
 0002:000000bc       __imp__IsDebuggerPresent@0 100880bc     kernel32:KERNEL32.dll
 0002:000000c0       __imp__OutputDebugStringW@4 100880c0     kernel32:KERNEL32.dll
 0002:000000c4       __imp__UnhandledExceptionFilter@4 100880c4     kernel32:KERNEL32.dll
 0002:000000c8       __imp__SetUnhandledExceptionFilter@4 100880c8     kernel32:KERNEL32.dll
 0002:000000cc       __imp__GetCurrentProcess@0 100880cc     kernel32:KERNEL32.dll
 0002:000000d0       __imp__TerminateProcess@8  100880d0     kernel32:KERNEL32.dll
 0002:000000d4       __imp__IsProcessorFeaturePresent@4 100880d4     kernel32:KERNEL32.dll
 0002:000000d8       __imp__GetStartupInfoW@4   100880d8     kernel32:KERNEL32.dll
 0002:000000dc       __imp__WideCharToMultiByte@32 100880dc     kernel32:KERNEL32.dll
 0002:000000e0       __imp__QueryPerformanceCounter@4 100880e0     kernel32:KERNEL32.dll
 0002:000000e4       __imp__GetCurrentProcessId@0 100880e4     kernel32:KERNEL32.dll
 0002:000000e8       __imp__GetCurrentThreadId@0 100880e8     kernel32:KERNEL32.dll
 0002:000000ec       __imp__GetSystemTimeAsFileTime@4 100880ec     kernel32:KERNEL32.dll
 0002:000000f0       __imp__InitializeSListHead@4 100880f0     kernel32:KERNEL32.dll
 0002:000000f4       __imp__HeapAlloc@12        100880f4     kernel32:KERNEL32.dll
 0002:000000f8       __imp__HeapFree@12         100880f8     kernel32:KERNEL32.dll
 0002:000000fc       __imp__GetProcessHeap@0    100880fc     kernel32:KERNEL32.dll
 0002:00000100       __imp__VirtualQuery@12     10088100     kernel32:KERNEL32.dll
 0002:00000104       __imp__RtlUnwind@16        10088104     kernel32:KERNEL32.dll
 0002:00000108       __imp__InterlockedPushEntrySList@8 10088108     kernel32:KERNEL32.dll
 0002:0000010c       __imp__InterlockedFlushSList@4 1008810c     kernel32:KERNEL32.dll
 0002:00000110       __imp__InitializeCriticalSectionAndSpinCount@8 10088110     kernel32:KERNEL32.dll
 0002:00000114       __imp__TlsAlloc@0          10088114     kernel32:KERNEL32.dll
 0002:00000118       __imp__TlsGetValue@4       10088118     kernel32:KERNEL32.dll
 0002:0000011c       __imp__TlsSetValue@8       1008811c     kernel32:KERNEL32.dll
 0002:00000120       __imp__TlsFree@4           10088120     kernel32:KERNEL32.dll
 0002:00000124       __imp__GetModuleHandleExW@12 10088124     kernel32:KERNEL32.dll
 0002:00000128       __imp__ExitProcess@4       10088128     kernel32:KERNEL32.dll
 0002:0000012c       __imp__HeapValidate@12     1008812c     kernel32:KERNEL32.dll
 0002:00000130       __imp__GetSystemInfo@4     10088130     kernel32:KERNEL32.dll
 0002:00000134       __imp__GetStdHandle@4      10088134     kernel32:KERNEL32.dll
 0002:00000138       __imp__GetFileType@4       10088138     kernel32:KERNEL32.dll
 0002:0000013c       __imp__WriteFile@20        1008813c     kernel32:KERNEL32.dll
 0002:00000140       __imp__WriteConsoleW@20    10088140     kernel32:KERNEL32.dll
 0002:00000144       __imp__SetConsoleCtrlHandler@8 10088144     kernel32:KERNEL32.dll
 0002:00000148       __imp__GetCurrentThread@0  10088148     kernel32:KERNEL32.dll
 0002:0000014c       __imp__HeapSize@12         1008814c     kernel32:KERNEL32.dll
 0002:00000150       __imp__HeapReAlloc@16      10088150     kernel32:KERNEL32.dll
 0002:00000154       __imp__FindClose@4         10088154     kernel32:KERNEL32.dll
 0002:00000158       __imp__FindFirstFileExW@24 10088158     kernel32:KERNEL32.dll
 0002:0000015c       __imp__FindNextFileW@8     1008815c     kernel32:KERNEL32.dll
 0002:00000160       __imp__IsValidCodePage@4   10088160     kernel32:KERNEL32.dll
 0002:00000164       __imp__GetACP@0            10088164     kernel32:KERNEL32.dll
 0002:00000168       __imp__GetOEMCP@0          10088168     kernel32:KERNEL32.dll
 0002:0000016c       __imp__GetCPInfo@8         1008816c     kernel32:KERNEL32.dll
 0002:00000170       __imp__GetCommandLineA@0   10088170     kernel32:KERNEL32.dll
 0002:00000174       __imp__GetCommandLineW@0   10088174     kernel32:KERNEL32.dll
 0002:00000178       __imp__GetEnvironmentStringsW@0 10088178     kernel32:KERNEL32.dll
 0002:0000017c       __imp__FreeEnvironmentStringsW@4 1008817c     kernel32:KERNEL32.dll
 0002:00000180       __imp__SetEnvironmentVariableW@8 10088180     kernel32:KERNEL32.dll
 0002:00000184       __imp__GetDateFormatW@24   10088184     kernel32:KERNEL32.dll
 0002:00000188       __imp__CreateFileW@28      10088188     kernel32:KERNEL32.dll
 0002:0000018c       \177KERNEL32_NULL_THUNK_DATA 1008818c     kernel32:KERNEL32.dll
 0002:00000190       __imp__LoadTypeLib@8       10088190     oleaut32:OLEAUT32.dll
 0002:00000194       __imp__UnRegisterTypeLib@20 10088194     oleaut32:OLEAUT32.dll
 0002:00000198       __imp__SysStringLen@4      10088198     oleaut32:OLEAUT32.dll
 0002:0000019c       __imp__SysAllocString@4    1008819c     oleaut32:OLEAUT32.dll
 0002:000001a0       __imp__SysFreeString@4     100881a0     oleaut32:OLEAUT32.dll
 0002:000001a4       __imp__VarUI4FromStr@16    100881a4     oleaut32:OLEAUT32.dll
 0002:000001a8       __imp__RegisterTypeLib@12  100881a8     oleaut32:OLEAUT32.dll
 0002:000001ac       \177OLEAUT32_NULL_THUNK_DATA 100881ac     oleaut32:OLEAUT32.dll
 0002:000001b0       __imp__UnregisterClassW@8  100881b0     user32:USER32.dll
 0002:000001b4       __imp__CharNextW@4         100881b4     user32:USER32.dll
 0002:000001b8       \177USER32_NULL_THUNK_DATA 100881b8     user32:USER32.dll
 0002:000001bc       __imp__CoTaskMemRealloc@8  100881bc     ole32:ole32.dll
 0002:000001c0       __imp__CoCreateInstance@20 100881c0     ole32:ole32.dll
 0002:000001c4       __imp__StringFromGUID2@12  100881c4     ole32:ole32.dll
 0002:000001c8       __imp__CoTaskMemAlloc@4    100881c8     ole32:ole32.dll
 0002:000001cc       __imp__CoTaskMemFree@4     100881cc     ole32:ole32.dll
 0002:000001d0       \177ole32_NULL_THUNK_DATA  100881d0     ole32:ole32.dll
 0002:000001d4       ___guard_check_icall_fptr  100881d4     LIBCMTD:guard_support.obj
 0002:000001d8       ___guard_xfg_check_icall_fptr 100881d8     LIBCMTD:guard_support.obj
 0002:000001dc       ___xc_a                    100881dc     LIBCMTD:initializers.obj
 0002:0000024c       ___xc_z                    1008824c     LIBCMTD:initializers.obj
 0002:00000250       ___xi_a                    10088250     LIBCMTD:initializers.obj
 0002:00000254       ___acrt_stdio_initializer  10088254     libucrtd:stdio_initializer.obj
 0002:00000258       ___acrt_multibyte_initializer 10088258     libucrtd:multibyte_initializer.obj
 0002:0000025c       ___acrt_tran_sse2_initializer 1008825c     libucrtd:sse2_initializer.obj
 0002:00000260       ___xi_z                    10088260     LIBCMTD:initializers.obj
 0002:00000264       ___xp_a                    10088264     LIBCMTD:initializers.obj
 0002:00000268       ___acrt_locale_terminator  10088268     libucrtd:locale_initializer.obj
 0002:0000026c       ___dcrt_console_output_terminator 1008826c     libucrtd:console_output_initializer.obj
 0002:00000270       ___acrt_stdio_terminator   10088270     libucrtd:stdio_initializer.obj
 0002:00000274       ___xp_z                    10088274     LIBCMTD:initializers.obj
 0002:00000278       ___xt_a                    10088278     LIBCMTD:initializers.obj
 0002:0000027c       ___xt_z                    1008827c     LIBCMTD:initializers.obj
 0002:00000280       _LIBID_ATLLib              10088280     StdAfx.obj
 0002:0000209c       ?chDirSep@ATL@@3_WB        1008a09c     StdAfx.obj
 0002:000020a0       ?chRightBracket@ATL@@3_WB  1008a0a0     StdAfx.obj
 0002:000020a4       ?chLeftBracket@ATL@@3_WB   1008a0a4     StdAfx.obj
 0002:000020a8       ?chQuote@ATL@@3_WB         1008a0a8     StdAfx.obj
 0002:000020ac       ?chEquals@ATL@@3_WB        1008a0ac     StdAfx.obj
 0002:000020b0       ?szStringVal@ATL@@3QB_WB   1008a0b0     StdAfx.obj
 0002:000020b4       ?multiszStringVal@ATL@@3QB_WB 1008a0b4     StdAfx.obj
 0002:000020b8       ?szDwordVal@ATL@@3QB_WB    1008a0b8     StdAfx.obj
 0002:000020bc       ?szBinaryVal@ATL@@3QB_WB   1008a0bc     StdAfx.obj
 0002:000020c0       ?szValToken@ATL@@3QB_WB    1008a0c0     StdAfx.obj
 0002:000020c4       ?szForceRemove@ATL@@3QB_WB 1008a0c4     StdAfx.obj
 0002:000020c8       ?szNoRemove@ATL@@3QB_WB    1008a0c8     StdAfx.obj
 0002:000020cc       ?szDelete@ATL@@3QB_WB      1008a0cc     StdAfx.obj
 0002:000020d0       _CLSID_Registrar           1008a0d0     StdAfx.obj
 0002:000020e0       _IID_IRegistrar            1008a0e0     StdAfx.obj
 0002:000020f0       _IID_IDocHostUIHandlerDispatch 1008a0f0     StdAfx.obj
 0002:00002100       _IID_IAxWinHostWindow      1008a100     StdAfx.obj
 0002:00002110       _IID_IAxWinHostWindowLic   1008a110     StdAfx.obj
 0002:00002120       _IID_IAxWinAmbientDispatch 1008a120     StdAfx.obj
 0002:00002130       _IID_IAxWinAmbientDispatchEx 1008a130     StdAfx.obj
 0002:00002140       _IID_IInternalConnection   1008a140     StdAfx.obj
 0002:00002150       ??_C@_13COJANIEC@?$AA0@    1008a150     StdAfx.obj
 0002:00002154       ??_C@_17CNPHIMPH@?$AA?$CF?$AAl?$AAs@ 1008a154     StdAfx.obj
 0002:00002160       ??_C@_1OE@EFJOHFCD@?$AAC?$AA?3?$AA?2?$AAP?$AAr?$AAo?$AAg?$AAr?$AAa?$AAm?$AA?5?$AAF?$AAi?$AAl?$AAe@ 1008a160     StdAfx.obj
 0002:00002244       ??_C@_1O@LFNDFEBP@?$AA?$CF?$AAl?$AAs?$AA?5?$AA?9?$AA?5@ 1008a244     StdAfx.obj
 0002:00002254       ??_C@_1M@PGKOAACE@?$AA?$CF?$AAu?$AA?5?$AA?9?$AA?5@ 1008a254     StdAfx.obj
 0002:00002260       ??_C@_1O@OAIPCDPO@?$AA?$CF?$AAl?$AAs?$AA?$CF?$AAl?$AAs@ 1008a260     StdAfx.obj
 0002:00002270       ??_C@_17LGGGMOOB@?$AA?$CF?$AAh?$AAs@ 1008a270     StdAfx.obj
 0002:00002278       ??_C@_1EO@EBPPKGOM@?$AAf?$AAa?$AAl?$AAs?$AAe?$AA?5?$AA?$CG?$AA?$CG?$AA?5?$AA?$CC?$AAT?$AAo?$AAo?$AA?5?$AAm@ 1008a278     StdAfx.obj
 0002:000022c8       ??_C@_1OE@DGDFBHKA@?$AAC?$AA?3?$AA?2?$AAP?$AAr?$AAo?$AAg?$AAr?$AAa?$AAm?$AA?5?$AAF?$AAi?$AAl?$AAe@ 1008a2c8     StdAfx.obj
 0002:000023b0       ??_C@_1OC@CIBKFAMP@?$AAC?$AA?3?$AA?2?$AAP?$AAr?$AAo?$AAg?$AAr?$AAa?$AAm?$AA?5?$AAF?$AAi?$AAl?$AAe@ 1008a3b0     StdAfx.obj
 0002:00002498       ??_C@_0HB@KEBNGHII@C?3?2Program?5Files?5?$CIx86?$CJ?2Microsof@ 1008a498     StdAfx.obj
 0002:00002510       ??_C@_1IA@KEEOONGN@?$AAE?$AAR?$AAR?$AAO?$AAR?$AA?5?$AA?3?$AA?5?$AAU?$AAn?$AAa?$AAb?$AAl?$AAe?$AA?5@ 1008a510     StdAfx.obj
 0002:00002590       ??_C@_1IG@OPJAFKJH@?$AAE?$AAR?$AAR?$AAO?$AAR?$AA?5?$AA?3?$AA?5?$AAU?$AAn?$AAa?$AAb?$AAl?$AAe?$AA?5@ 1008a590     StdAfx.obj
 0002:00002618       ??_C@_1EA@JHMKKLFC@?$AAn?$AAI?$AAn?$AAd?$AAe?$AAx?$AA?5?$AA?$DO?$AA?$DN?$AA?5?$AA0?$AA?5?$AA?$CG?$AA?$CG?$AA?5@ 1008a618     StdAfx.obj
 0002:00002658       ??_C@_1OK@FGCLCILL@?$AAC?$AA?3?$AA?2?$AAP?$AAr?$AAo?$AAg?$AAr?$AAa?$AAm?$AA?5?$AAF?$AAi?$AAl?$AAe@ 1008a658     StdAfx.obj
 0002:00002744       ??_C@_1BK@NHECDDNK@?$AAm?$AA_?$AAp?$AAD?$AAa?$AAt?$AAa?$AA?5?$AA?$DN?$AA?$DN?$AA?5?$AA0@ 1008a744     StdAfx.obj
 0002:00004574       _LIBID_OPOSINTERNALSLib    1008c574     OposInternals.obj
 0002:00004588       ??_C@_0HD@ECNMIKGK@C?3?2Program?5Files?5?$CIx86?$CJ?2Microsof@ 1008c588     OposInternals.obj
 0002:000045fc       ??_C@_1CK@DFMKPFAK@?$AAA?$AAt?$AAl?$AAT?$AAh?$AAr?$AAo?$AAw?$AA?3?$AA?5?$AAh?$AAr?$AA?5?$AA?$DN?$AA?5@ 1008c5fc     OposInternals.obj
 0002:00004628       ??_C@_1M@HLGKFCJM@?$AAf?$AAa?$AAl?$AAs?$AAe@ 1008c628     OposInternals.obj
 0002:00004638       ??_C@_1OG@DEDHKNLM@?$AAC?$AA?3?$AA?2?$AAP?$AAr?$AAo?$AAg?$AAr?$AAa?$AAm?$AA?5?$AAF?$AAi?$AAl?$AAe@ 1008c638     OposInternals.obj
 0002:00004720       ??_C@_1BM@GBBOFEAE@?$AA_?$AA_?$AAa?$AAt?$AAl?$AA_?$AAc?$AAo?$AAn?$AAd?$AAV?$AAa?$AAl@ 1008c720     OposInternals.obj
 0002:00004740       ??_C@_1OG@NPBPGCCO@?$AAC?$AA?3?$AA?2?$AAP?$AAr?$AAo?$AAg?$AAr?$AAa?$AAm?$AA?5?$AAF?$AAi?$AAl?$AAe@ 1008c740     OposInternals.obj
 0002:00004828       __GUID_00000000_0000_0000_c000_000000000046 1008c828     OposInternals.obj
 0002:00004838       ??_C@_1BG@ILBPLEEF@?$AAn?$AAN?$AAu?$AAl?$AAl?$AA?5?$AA?$DN?$AA?$DN?$AA?5?$AA0@ 1008c838     OposInternals.obj
 0002:00004850       ??_C@_1PO@GPALOAFP@?$AAC?$AA?3?$AA?2?$AAP?$AAr?$AAo?$AAg?$AAr?$AAa?$AAm?$AA?5?$AAF?$AAi?$AAl?$AAe@ 1008c850     OposInternals.obj
 0002:00004950       ??_C@_1BK@BIGILECK@?$AAA?$AAd?$AAv?$AAa?$AAp?$AAi?$AA3?$AA2?$AA?4?$AAd?$AAl?$AAl@ 1008c950     OposInternals.obj
 0002:0000496c       ??_C@_1BO@KNMGNOCJ@?$AAh?$AAA?$AAd?$AAv?$AAA?$AAP?$AAI?$AA3?$AA2?$AA?5?$AA?$CB?$AA?$DN?$AA?5?$AA0@ 1008c96c     OposInternals.obj
 0002:0000498c       ??_C@_0BG@EKFFMJIO@RegOpenKeyTransactedW@ 1008c98c     OposInternals.obj
 0002:000049a4       ??_C@_0BI@MNCFCPFK@RegCreateKeyTransactedW@ 1008c9a4     OposInternals.obj
 0002:000049bc       ??_C@_0BI@HAKLOOGP@RegDeleteKeyTransactedW@ 1008c9bc     OposInternals.obj
 0002:000049d4       ??_C@_1BG@OHCCAGNO@?$AA?$CB?$AAm?$AA_?$AAb?$AAL?$AAo?$AAc?$AAk?$AAe?$AAd@ 1008c9d4     OposInternals.obj
 0002:000049ec       ??_C@_1BE@NPGJNKLA@?$AAm?$AA_?$AAb?$AAL?$AAo?$AAc?$AAk?$AAe?$AAd@ 1008c9ec     OposInternals.obj
 0002:00004a00       ??_C@_1CC@DNHFMIHP@?$AA_?$AAp?$AAA?$AAt?$AAl?$AAM?$AAo?$AAd?$AAu?$AAl?$AAe?$AA?5?$AA?$DN?$AA?$DN?$AA?5@ 1008ca00     OposInternals.obj
 0002:00004a28       ??_C@_1HK@DFMOIGDB@?$AAE?$AAR?$AAR?$AAO?$AAR?$AA?5?$AA?3?$AA?5?$AAU?$AAn?$AAa?$AAb?$AAl?$AAe?$AA?5@ 1008ca28     OposInternals.obj
 0002:00004aa4       __GUID_00000146_0000_0000_c000_000000000046 1008caa4     OposInternals.obj
 0002:00004ab4       ??_C@_1BG@LENCCAOJ@?$AAp?$AAp?$AAG?$AAI?$AAT?$AA?5?$AA?$CB?$AA?$DN?$AA?5?$AA0@ 1008cab4     OposInternals.obj
 0002:00004acc       ??_C@_1BI@JBLBCKD@?$AAm?$AA_?$AAp?$AAG?$AAI?$AAT?$AA?5?$AA?$CB?$AA?$DN?$AA?5?$AA0@ 1008cacc     OposInternals.obj
 0002:00004ae4       ??_7CComModule@ATL@@6B@    1008cae4     OposInternals.obj
 0002:00004b0c       ??_C@_1BM@NFPICFEL@?$AA_?$AAp?$AAM?$AAo?$AAd?$AAu?$AAl?$AAe?$AA?5?$AA?$DN?$AA?$DN?$AA?5?$AA0@ 1008cb0c     OposInternals.obj
 0002:00004b28       ??_C@_1BI@JPOONHGO@?$AAm?$AA_?$AAh?$AAK?$AAe?$AAy?$AA?5?$AA?$DN?$AA?$DN?$AA?5?$AA0@ 1008cb28     OposInternals.obj
 0002:00004b40       ??_C@_1BI@KCHMLGAI@?$AAm?$AA_?$AAh?$AAK?$AAe?$AAy?$AA?5?$AA?$CB?$AA?$DN?$AA?5?$AA0@ 1008cb40     OposInternals.obj
 0002:00004b58       ??_C@_0BA@LILAPHGE@RegDeleteKeyExW@ 1008cb58     OposInternals.obj
 0002:00004b68       ??_C@_1CA@JAHJEEHI@?$AAh?$AAK?$AAe?$AAy?$AAP?$AAa?$AAr?$AAe?$AAn?$AAt?$AA?5?$AA?$CB?$AA?$DN?$AA?5?$AA0@ 1008cb68     OposInternals.obj
 0002:00004b88       ??_C@_1BG@OMKLFNDM@?$AAl?$AAR?$AAe?$AAs?$AA?5?$AA?$DN?$AA?$DN?$AA?5?$AA0?$AAL@ 1008cb88     OposInternals.obj
 0002:00004ba0       ??_C@_1FG@MAMCHIIA@?$AA?$CI?$AAd?$AAw?$AAT?$AAy?$AAp?$AAe?$AA?5?$AA?$DN?$AA?$DN?$AA?5?$AA?$CI?$AA?5?$AA1?$AAu@ 1008cba0     OposInternals.obj
 0002:00004bf8       ??_C@_1IA@CIKBLAHF@?$AAC?$AAR?$AAe?$AAg?$AAK?$AAe?$AAy?$AA?3?$AA?3?$AAR?$AAe?$AAc?$AAu?$AAr?$AAs@ 1008cbf8     OposInternals.obj
 0002:00004c78       ??_C@_1DO@EIGOLNAA@?$AAl?$AAp?$AAs?$AAz?$AAK?$AAe?$AAy?$AA?5?$AA?$CB?$AA?$DN?$AA?5?$AA0?$AA?5?$AA?$CG?$AA?$CG@ 1008cc78     OposInternals.obj
 0002:00004cb8       ??_C@_1OC@IGDLHBDL@?$AAC?$AA?3?$AA?2?$AAP?$AAr?$AAo?$AAg?$AAr?$AAa?$AAm?$AA?5?$AAF?$AAi?$AAl?$AAe@ 1008ccb8     OposInternals.obj
 0002:00004d9c       ??_C@_1BG@MMFPEKL@?$AAs?$AAz?$AAK?$AAe?$AAy?$AA?5?$AA?$CB?$AA?$DN?$AA?5?$AA0@ 1008cd9c     OposInternals.obj
 0002:00004db4       ??_C@_1BK@LDPHGFPN@?$AAs?$AAz?$AAV?$AAa?$AAl?$AAu?$AAe?$AA?5?$AA?$CB?$AA?$DN?$AA?5?$AA0@ 1008cdb4     OposInternals.obj
 0002:00004dd0       ?rgszNeverDelete@CRegParser@ATL@@1QBQB_WB 1008cdd0     OposInternals.obj
 0002:00004e00       ??_C@_1O@JFMKDNFA@?$AAp?$AA?5?$AA?$CB?$AA?$DN?$AA?5?$AA0@ 1008ce00     OposInternals.obj
 0002:00004e10       ??_7CRegObject@ATL@@6B@    1008ce10     OposInternals.obj
 0002:00004e28       ??_C@_1JM@PMKLGAKF@?$AAs?$AAt?$AAa?$AAt?$AAi?$AAc?$AAa?$AAl?$AAl?$AAy?$AA?5?$AAl?$AAi?$AAn?$AAk@ 1008ce28     OposInternals.obj
 0002:00004ec8       ??_C@_1KC@MLBIPPDL@?$AAL?$AA?$CC?$AAs?$AAt?$AAa?$AAt?$AAi?$AAc?$AAa?$AAl?$AAl?$AAy?$AA?5?$AAl?$AAi@ 1008cec8     OposInternals.obj
 0002:00004f70       ??_C@_0HB@NIKGFAOE@C?3?2Program?5Files?5?$CIx86?$CJ?2Microsof@ 1008cf70     OposInternals.obj
 0002:00004fe4       ??_C@_1DM@JBIDINMA@?$AAF?$AAa?$AAi?$AAl?$AAe?$AAd?$AA?5?$AAt?$AAo?$AA?5?$AAL?$AAo?$AAa?$AAd?$AAL@ 1008cfe4     OposInternals.obj
 0002:00005020       ??_C@_1FE@HJDAOHJE@?$AAF?$AAa?$AAi?$AAl?$AAe?$AAd?$AA?5?$AAt?$AAo?$AA?5?$AAF?$AAi?$AAn?$AAd?$AAR@ 1008d020     OposInternals.obj
 0002:00005078       ??_C@_1FG@BBJFPKL@?$AAF?$AAa?$AAi?$AAl?$AAe?$AAd?$AA?5?$AAt?$AAo?$AA?5?$AAF?$AAi?$AAn?$AAd?$AAR@ 1008d078     OposInternals.obj
 0002:000050d0       ??_C@_1DA@KJKEAFMD@?$AAF?$AAa?$AAi?$AAl?$AAe?$AAd?$AA?5?$AAt?$AAo?$AA?5?$AAL?$AAo?$AAa?$AAd?$AAR@ 1008d0d0     OposInternals.obj
 0002:00005100       ??_C@_1CK@BCPDHANH@?$AAM?$AAa?$AAp?$AA?5?$AAE?$AAn?$AAt?$AAr?$AAy?$AA?5?$AAn?$AAo?$AAt?$AA?5?$AAf@ 1008d100     OposInternals.obj
 0002:00005130       ??_C@_1FI@KMIOGKOO@?$AAB?$AAo?$AAg?$AAu?$AAs?$AA?5?$AAv?$AAa?$AAl?$AAu?$AAe?$AA?5?$AA?$CF?$AAT?$AAc@ 1008d130     OposInternals.obj
 0002:00005188       ?map@?1??HKeyFromString@CRegParser@ATL@@KAPAUHKEY__@@PA_W@Z@4QBUkeymap@?1??123@KAPAU4@0@Z@B 1008d188     OposInternals.obj
 0002:000051f8       ??_C@_19NCHLBIN@?$AAH?$AAK?$AAC?$AAR@ 1008d1f8     OposInternals.obj
 0002:00005204       ??_C@_19JAPAIJDE@?$AAH?$AAK?$AAC?$AAU@ 1008d204     OposInternals.obj
 0002:00005210       ??_C@_19PEALEEJB@?$AAH?$AAK?$AAL?$AAM@ 1008d210     OposInternals.obj
 0002:0000521c       ??_C@_17PJOJPMPB@?$AAH?$AAK?$AAU@ 1008d21c     OposInternals.obj
 0002:00005224       ??_C@_19PNBHMJPL@?$AAH?$AAK?$AAP?$AAD@ 1008d224     OposInternals.obj
 0002:00005230       ??_C@_19GFFAIJHG@?$AAH?$AAK?$AAD?$AAD@ 1008d230     OposInternals.obj
 0002:0000523c       ??_C@_19OFICIBHH@?$AAH?$AAK?$AAC?$AAC@ 1008d23c     OposInternals.obj
 0002:00005248       ??_C@_1CE@PACHPJFI@?$AAH?$AAK?$AAE?$AAY?$AA_?$AAC?$AAL?$AAA?$AAS?$AAS?$AAE?$AAS?$AA_?$AAR?$AAO@ 1008d248     OposInternals.obj
 0002:0000526c       ??_C@_1CE@HLHNCBPM@?$AAH?$AAK?$AAE?$AAY?$AA_?$AAC?$AAU?$AAR?$AAR?$AAE?$AAN?$AAT?$AA_?$AAU?$AAS@ 1008d26c     OposInternals.obj
 0002:00005290       ??_C@_1CG@GFBEANJL@?$AAH?$AAK?$AAE?$AAY?$AA_?$AAL?$AAO?$AAC?$AAA?$AAL?$AA_?$AAM?$AAA?$AAC?$AAH@ 1008d290     OposInternals.obj
 0002:000052b8       ??_C@_1BG@BGODANIO@?$AAH?$AAK?$AAE?$AAY?$AA_?$AAU?$AAS?$AAE?$AAR?$AAS@ 1008d2b8     OposInternals.obj
 0002:000052d0       ??_C@_1CM@KHNNAOIC@?$AAH?$AAK?$AAE?$AAY?$AA_?$AAP?$AAE?$AAR?$AAF?$AAO?$AAR?$AAM?$AAA?$AAN?$AAC@ 1008d2d0     OposInternals.obj
 0002:000052fc       ??_C@_1BM@HAGMMHIA@?$AAH?$AAK?$AAE?$AAY?$AA_?$AAD?$AAY?$AAN?$AA_?$AAD?$AAA?$AAT?$AAA@ 1008d2fc     OposInternals.obj
 0002:00005318       ??_C@_1CI@BBJOACGG@?$AAH?$AAK?$AAE?$AAY?$AA_?$AAC?$AAU?$AAR?$AAR?$AAE?$AAN?$AAT?$AA_?$AAC?$AAO@ 1008d318     OposInternals.obj
 0002:00005340       ??_C@_1EI@CDDJHMMA@?$AAN?$AAe?$AAx?$AAt?$AAT?$AAo?$AAk?$AAe?$AAn?$AA?5?$AA?3?$AA?5?$AAU?$AAn?$AAe@ 1008d340     OposInternals.obj
 0002:00005388       ??_C@_1DA@BDBPEMM@?$AA?$CF?$AAT?$AAs?$AA?5?$AAT?$AAy?$AAp?$AAe?$AA?5?$AAn?$AAo?$AAt?$AA?5?$AAs?$AAu@ 1008d388     OposInternals.obj
 0002:000053b8       ??_C@_1BA@HANLFFFG@?$AAd?$AAe?$AAf?$AAa?$AAu?$AAl?$AAt@ 1008d3b8     OposInternals.obj
 0002:000053c8       ??_C@_1DE@GENBDOHF@?$AAS?$AAe?$AAt?$AAt?$AAi?$AAn?$AAg?$AA?5?$AAV?$AAa?$AAl?$AAu?$AAe?$AA?5?$AA?$CF@ 1008d3c8     OposInternals.obj
 0002:000053fc       ??_C@_1DC@OPMJCKIB@?$AAS?$AAe?$AAt?$AAt?$AAi?$AAn?$AAg?$AA?5?$AAV?$AAa?$AAl?$AAu?$AAe?$AA?5?$AA?$CF@ 1008d3fc     OposInternals.obj
 0002:00005430       ??_C@_1FK@OIDGAAMP@?$AAB?$AAi?$AAn?$AAa?$AAr?$AAy?$AA?5?$AAD?$AAa?$AAt?$AAa?$AA?5?$AAd?$AAo?$AAe@ 1008d430     OposInternals.obj
 0002:0000548c       ??_C@_1CM@LNIALBHN@?$AAS?$AAh?$AAo?$AAu?$AAl?$AAd?$AA?5?$AAn?$AAo?$AAt?$AA?5?$AAb?$AAe?$AA?5?$AAh@ 1008d48c     OposInternals.obj
 0002:000054b8       ??_C@_1BK@ODFKMBGC@?$AAl?$AAp?$AAs?$AAz?$AAR?$AAe?$AAg?$AA?5?$AA?$CB?$AA?$DN?$AA?5?$AA0@ 1008d4b8     OposInternals.obj
 0002:000054d4       ??_C@_1BK@DGLFCBHI@?$AAp?$AAp?$AAs?$AAz?$AAR?$AAe?$AAg?$AA?5?$AA?$CB?$AA?$DN?$AA?5?$AA0@ 1008d4d4     OposInternals.obj
 0002:000054f0       ??_C@_1EA@NHKLICFA@?$AAH?$AAK?$AAC?$AAU?$AA?$AN?$AA?6?$AA?$HL?$AA?7?$AAS?$AAo?$AAf?$AAt?$AAw?$AAa?$AAr@ 1008d4f0     OposInternals.obj
 0002:00005530       ??_C@_1BE@LJOLIMEM@?$AA?$AN?$AA?6?$AA?7?$AA?$HN?$AA?$AN?$AA?6?$AA?$HN?$AA?$AN?$AA?6@ 1008d530     OposInternals.obj
 0002:00005544       ??_C@_1DG@KOLNJMBJ@?$AAE?$AAr?$AAr?$AAo?$AAr?$AA?5?$AAn?$AAo?$AA?5?$AAc?$AAl?$AAo?$AAs?$AAi?$AAn@ 1008d544     OposInternals.obj
 0002:0000557c       ??_C@_19IGGGDNCK@?$AA?$CF?$AAT?$AAs?$AA?6@ 1008d57c     OposInternals.obj
 0002:00005588       ??_C@_1DM@JFHAPNGI@?$AAH?$AAK?$AAe?$AAy?$AAF?$AAr?$AAo?$AAm?$AAS?$AAt?$AAr?$AAi?$AAn?$AAg?$AA?5@ 1008d588     OposInternals.obj
 0002:000055c8       ??_C@_1FE@MCPBFDLN@?$AAS?$AAy?$AAn?$AAt?$AAa?$AAx?$AA?5?$AAe?$AAr?$AAr?$AAo?$AAr?$AA?0?$AA?5?$AAe@ 1008d5c8     OposInternals.obj
 0002:00005620       ??_C@_1EE@EMAKHHOG@?$AAF?$AAa?$AAi?$AAl?$AAe?$AAd?$AA?5?$AAt?$AAo?$AA?5?$AAr?$AAe?$AAg?$AAi?$AAs@ 1008d620     OposInternals.obj
 0002:00005664       ??_C@_1BM@KJDIPNJ@?$AAN?$AAu?$AAm?$AA?5?$AAE?$AAl?$AAs?$AA?5?$AA?$DN?$AA?5?$AA?$CF?$AAd?$AA?6@ 1008d664     OposInternals.obj
 0002:00005680       ??_C@_1BM@BEOOHDFB@?$AAD?$AAe?$AAl?$AAe?$AAt?$AAi?$AAn?$AAg?$AA?5?$AA?$CF?$AAT?$AAs?$AA?6@ 1008d680     OposInternals.obj
 0002:0000569c       ??_C@_1CE@NOBELHPC@?$AAC?$AAr?$AAe?$AAa?$AAt?$AAi?$AAn?$AAg?$AA?5?$AAk?$AAe?$AAy?$AA?5?$AA?$CF?$AAT@ 1008d69c     OposInternals.obj
 0002:000056c0       ??_C@_1CA@MKECKMBH@?$AAO?$AAp?$AAe?$AAn?$AAe?$AAd?$AA?5?$AAK?$AAe?$AAy?$AA?5?$AA?$CF?$AAT?$AAs?$AA?6@ 1008d6c0     OposInternals.obj
 0002:000056e0       ??_C@_1FK@OAJHMKAA@?$AAI?$AAg?$AAn?$AAo?$AAr?$AAi?$AAn?$AAg?$AA?5?$AAO?$AAp?$AAe?$AAn?$AA?5?$AAk@ 1008d6e0     OposInternals.obj
 0002:0000573c       ??_C@_1CM@OHCCCDHD@?$AAE?$AAn?$AAd?$AAi?$AAn?$AAg?$AA?5?$AAR?$AAe?$AAc?$AAo?$AAv?$AAe?$AAr?$AAy@ 1008d73c     OposInternals.obj
 0002:00005768       ??_C@_1FA@ECAJCMBE@?$AAD?$AAe?$AAl?$AAe?$AAt?$AAi?$AAn?$AAg?$AA?5?$AAn?$AAo?$AAn?$AA?9?$AAe?$AAm@ 1008d768     OposInternals.obj
 0002:000057b8       ??_C@_1CE@OGJGDPFE@?$AAD?$AAe?$AAl?$AAe?$AAt?$AAi?$AAn?$AAg?$AA?5?$AAK?$AAe?$AAy?$AA?5?$AA?$CF?$AAT@ 1008d7b8     OposInternals.obj
 0002:000057dc       ??_C@_1DC@HEJCCJC@?$AA0?$AA?5?$AA?$CB?$AA?$DN?$AA?5?$AAp?$AAM?$AAa?$AAp?$AAE?$AAn?$AAt?$AAr?$AAi?$AAe@ 1008d7dc     OposInternals.obj
 0002:00005810       ??_C@_1O@MNLDABAF@?$AAM?$AAo?$AAd?$AAu?$AAl?$AAe@ 1008d810     OposInternals.obj
 0002:00005820       ??_C@_1BG@JBACFMF@?$AAM?$AAo?$AAd?$AAu?$AAl?$AAe?$AA_?$AAR?$AAa?$AAw@ 1008d820     OposInternals.obj
 0002:00005838       ??_C@_1BC@KAILKFFG@?$AAR?$AAE?$AAG?$AAI?$AAS?$AAT?$AAR?$AAY@ 1008d838     OposInternals.obj
 0002:0000584c       ??_C@_11LOCGONAA@@         1008d84c     OposInternals.obj
 0002:00005850       ??_C@_1EC@GOCPDDCL@?$AAp?$AAb?$AAs?$AAt?$AAr?$AAP?$AAa?$AAt?$AAh?$AA?5?$AA?$CB?$AA?$DN?$AA?5?$AA0?$AA?5@ 1008d850     OposInternals.obj
 0002:00005894       ??_C@_1CE@MNLFIKHJ@?$AAh?$AAI?$AAn?$AAs?$AAt?$AAT?$AAy?$AAp?$AAe?$AAL?$AAi?$AAb?$AA?5?$AA?$CB?$AA?$DN@ 1008d894     OposInternals.obj
 0002:000058b8       ??_C@_19ILOCMLCJ@?$AA?4?$AAt?$AAl?$AAb@ 1008d8b8     OposInternals.obj
 0002:000058c4       __GUID_0002e012_0000_0000_c000_000000000046 1008d8c4     OposInternals.obj
 0002:000058d8       ??_C@_1OK@NEECLFPA@?$AA0?$AA?5?$AA?$CG?$AA?$CG?$AA?5?$AAL?$AA?$CC?$AAU?$AAs?$AAe?$AA?5?$AAO?$AAB?$AAJ?$AAE@ 1008d8d8     OposInternals.obj
 0002:000059c4       ??_C@_1CG@IDMIONOG@?$AAp?$AAE?$AAn?$AAt?$AAr?$AAy?$AA?9?$AA?$DO?$AAi?$AAT?$AAy?$AAp?$AAe?$AA?5?$AA?$DN@ 1008d9c4     OposInternals.obj
 0002:000059ec       ??_C@_1O@FHBGLCIO@?$AAC?$AAL?$AAS?$AAI?$AAD?$AA?2@ 1008d9ec     OposInternals.obj
 0002:000059fc       ??_C@_1CK@IFBKBFAA@?$AA?2?$AAR?$AAe?$AAq?$AAu?$AAi?$AAr?$AAe?$AAd?$AA?5?$AAC?$AAa?$AAt?$AAe?$AAg@ 1008d9fc     OposInternals.obj
 0002:00005a28       ??_C@_1DA@BIHALFED@?$AA?2?$AAI?$AAm?$AAp?$AAl?$AAe?$AAm?$AAe?$AAn?$AAt?$AAe?$AAd?$AA?5?$AAC?$AAa@ 1008da28     OposInternals.obj
 0002:00005a58       ??_C@_1BK@EDKOLFBJ@?$AAO?$AAL?$AAE?$AAA?$AAU?$AAT?$AA3?$AA2?$AA?4?$AAD?$AAL?$AAL@ 1008da58     OposInternals.obj
 0002:00005a74       ??_C@_0BJ@CNLFOMHB@UnRegisterTypeLibForUser@ 1008da74     OposInternals.obj
 0002:00005a90       ??_C@_0BH@LBOMMKPJ@RegisterTypeLibForUser@ 1008da90     OposInternals.obj
 0002:00005aa8       ??_C@_1CA@GAOMIJFK@?$AAp?$AAC?$AAo?$AAm?$AAM?$AAo?$AAd?$AAu?$AAl?$AAe?$AA?5?$AA?$CB?$AA?$DN?$AA?5?$AA0@ 1008daa8     OposInternals.obj
 0002:00005ac8       ??_C@_1EA@JIHAIGJA@?$AAp?$AAC?$AAo?$AAm?$AAM?$AAo?$AAd?$AAu?$AAl?$AAe?$AA?9?$AA?$DO?$AAm?$AA_?$AAh@ 1008dac8     OposInternals.obj
 0002:00005b08       ??_C@_1IO@OONIPMJC@?$AAE?$AAR?$AAR?$AAO?$AAR?$AA?5?$AA?3?$AA?5?$AAU?$AAn?$AAa?$AAb?$AAl?$AAe?$AA?5@ 1008db08     OposInternals.obj
 0002:00005b98       ??_C@_1IO@BDEIDBOP@?$AAE?$AAR?$AAR?$AAO?$AAR?$AA?5?$AA?3?$AA?5?$AAU?$AAn?$AAa?$AAb?$AAl?$AAe?$AA?5@ 1008db98     OposInternals.obj
 0002:00005c28       ??_C@_19LMDLLIGP@?$AAp?$AA?$DN?$AA?$DN?$AA0@ 1008dc28     OposInternals.obj
 0002:00005c34       ??_C@_19JHCPJMAL@?$AAp?$AA?$CB?$AA?$DN?$AA0@ 1008dc34     OposInternals.obj
 0002:00005c40       ??_C@_1BC@EMCLECFJ@?$AAm?$AA_?$AAp?$AA?5?$AA?$DN?$AA?$DN?$AA?5?$AA0@ 1008dc40     OposInternals.obj
 0002:00005c54       ??_C@_1M@PPPPCDEP@?$AAA?$AAP?$AAP?$AAI?$AAD@ 1008dc54     OposInternals.obj
 0002:00005c60       _GUID_NULL                 1008dc60     uuid:cguid_i.obj
 0002:00005c70       _CATID_MARSHALER           1008dc70     uuid:cguid_i.obj
 0002:00005c80       _IID_IRpcChannel           1008dc80     uuid:cguid_i.obj
 0002:00005c90       _IID_IRpcStub              1008dc90     uuid:cguid_i.obj
 0002:00005ca0       _IID_IStubManager          1008dca0     uuid:cguid_i.obj
 0002:00005cb0       _IID_IRpcProxy             1008dcb0     uuid:cguid_i.obj
 0002:00005cc0       _IID_IProxyManager         1008dcc0     uuid:cguid_i.obj
 0002:00005cd0       _IID_IPSFactory            1008dcd0     uuid:cguid_i.obj
 0002:00005ce0       _IID_IInternalMoniker      1008dce0     uuid:cguid_i.obj
 0002:00005cf0       _IID_IDfReserved1          1008dcf0     uuid:cguid_i.obj
 0002:00005d00       _IID_IDfReserved2          1008dd00     uuid:cguid_i.obj
 0002:00005d10       _IID_IDfReserved3          1008dd10     uuid:cguid_i.obj
 0002:00005d20       _CLSID_StdMarshal          1008dd20     uuid:cguid_i.obj
 0002:00005d30       _IID_IStub                 1008dd30     uuid:cguid_i.obj
 0002:00005d40       _IID_IProxy                1008dd40     uuid:cguid_i.obj
 0002:00005d50       _IID_IEnumGeneric          1008dd50     uuid:cguid_i.obj
 0002:00005d60       _IID_IEnumHolder           1008dd60     uuid:cguid_i.obj
 0002:00005d70       _IID_IEnumCallback         1008dd70     uuid:cguid_i.obj
 0002:00005d80       _IID_IOleManager           1008dd80     uuid:cguid_i.obj
 0002:00005d90       _IID_IOlePresObj           1008dd90     uuid:cguid_i.obj
 0002:00005da0       _IID_IDebug                1008dda0     uuid:cguid_i.obj
 0002:00005db0       _IID_IDebugStream          1008ddb0     uuid:cguid_i.obj
 0002:00005dc0       _CLSID_PSGenObject         1008ddc0     uuid:cguid_i.obj
 0002:00005dd0       _CLSID_PSClientSite        1008ddd0     uuid:cguid_i.obj
 0002:00005de0       _CLSID_PSClassObject       1008dde0     uuid:cguid_i.obj
 0002:00005df0       _CLSID_PSInPlaceActive     1008ddf0     uuid:cguid_i.obj
 0002:00005e00       _CLSID_PSInPlaceFrame      1008de00     uuid:cguid_i.obj
 0002:00005e10       _CLSID_PSDragDrop          1008de10     uuid:cguid_i.obj
 0002:00005e20       _CLSID_PSBindCtx           1008de20     uuid:cguid_i.obj
 0002:00005e30       _CLSID_PSEnumerators       1008de30     uuid:cguid_i.obj
 0002:00005e40       _CLSID_StaticMetafile      1008de40     uuid:cguid_i.obj
 0002:00005e50       _CLSID_StaticDib           1008de50     uuid:cguid_i.obj
 0002:00005e60       _CLSID_Picture_Metafile    1008de60     uuid:cguid_i.obj
 0002:00005e70       _CLSID_Picture_EnhMetafile 1008de70     uuid:cguid_i.obj
 0002:00005e80       _CLSID_Picture_Dib         1008de80     uuid:cguid_i.obj
 0002:00005e90       _CLSID_DCOMAccessControl   1008de90     uuid:cguid_i.obj
 0002:00005ea0       _CLSID_StdGlobalInterfaceTable 1008dea0     uuid:cguid_i.obj
 0002:00005eb0       _CLSID_ManualResetEvent    1008deb0     uuid:cguid_i.obj
 0002:00005ec0       _CLSID_StdEvent            1008dec0     uuid:cguid_i.obj
 0002:00005ed0       _CLSID_SynchronizeContainer 1008ded0     uuid:cguid_i.obj
 0002:00005ee0       _CLSID_ComBinding          1008dee0     uuid:cguid_i.obj
 0002:00005ef0       _CLSID_StdAsyncActManager  1008def0     uuid:cguid_i.obj
 0002:00005f00       _CLSID_InProcFreeMarshaler 1008df00     uuid:cguid_i.obj
 0002:00005f10       _CLSID_RemoteUnknownPSFactory 1008df10     uuid:cguid_i.obj
 0002:00005f20       _IID_IRichEditOle          1008df20     uuid:cguid_i.obj
 0002:00005f30       _IID_IRichEditOleCallback  1008df30     uuid:cguid_i.obj
 0002:00005f40       _CLSID_AllClasses          1008df40     uuid:cguid_i.obj
 0002:00005f50       _CLSID_LocalMachineClasses 1008df50     uuid:cguid_i.obj
 0002:00005f60       _CLSID_CurrentUserClasses  1008df60     uuid:cguid_i.obj
 0002:00005f70       _CLSID_AddrControl         1008df70     uuid:cguid_i.obj
 0002:00005f80       _CLSID_GlobalOptions       1008df80     uuid:cguid_i.obj
 0002:00005f90       _CLSID_SurrogateManager    1008df90     uuid:cguid_i.obj
 0002:00005fa0       _CLSID_ContextSwitcher     1008dfa0     uuid:cguid_i.obj
 0002:00005fb0       _CLSID_ActivationStore     1008dfb0     uuid:cguid_i.obj
 0002:00005fc0       _IID_IPropertyFrame        1008dfc0     uuid:cguid_i.obj
 0002:00005fd0       _CLSID_CFontPropPage       1008dfd0     uuid:cguid_i.obj
 0002:00005fe0       _CLSID_CColorPropPage      1008dfe0     uuid:cguid_i.obj
 0002:00005ff0       _CLSID_CPicturePropPage    1008dff0     uuid:cguid_i.obj
 0002:00006000       _CLSID_StockFontPage       1008e000     uuid:cguid_i.obj
 0002:00006010       _CLSID_StockColorPage      1008e010     uuid:cguid_i.obj
 0002:00006020       _CLSID_StockPicturePage    1008e020     uuid:cguid_i.obj
 0002:00006030       _CLSID_PersistPropset      1008e030     uuid:cguid_i.obj
 0002:00006040       _CLSID_ConvertVBX          1008e040     uuid:cguid_i.obj
 0002:00006050       _CLSID_StdFont             1008e050     uuid:cguid_i.obj
 0002:00006060       _CLSID_StdPicture          1008e060     uuid:cguid_i.obj
 0002:00006070       _GUID_HIMETRIC             1008e070     uuid:cguid_i.obj
 0002:00006080       _GUID_COLOR                1008e080     uuid:cguid_i.obj
 0002:00006090       _GUID_XPOSPIXEL            1008e090     uuid:cguid_i.obj
 0002:000060a0       _GUID_YPOSPIXEL            1008e0a0     uuid:cguid_i.obj
 0002:000060b0       _GUID_XSIZEPIXEL           1008e0b0     uuid:cguid_i.obj
 0002:000060c0       _GUID_YSIZEPIXEL           1008e0c0     uuid:cguid_i.obj
 0002:000060d0       _GUID_XPOS                 1008e0d0     uuid:cguid_i.obj
 0002:000060e0       _GUID_YPOS                 1008e0e0     uuid:cguid_i.obj
 0002:000060f0       _GUID_XSIZE                1008e0f0     uuid:cguid_i.obj
 0002:00006100       _GUID_YSIZE                1008e100     uuid:cguid_i.obj
 0002:00006110       _GUID_TRISTATE             1008e110     uuid:cguid_i.obj
 0002:00006120       _GUID_OPTIONVALUEEXCLUSIVE 1008e120     uuid:cguid_i.obj
 0002:00006130       _GUID_CHECKVALUEEXCLUSIVE  1008e130     uuid:cguid_i.obj
 0002:00006140       _GUID_FONTNAME             1008e140     uuid:cguid_i.obj
 0002:00006150       _GUID_FONTSIZE             1008e150     uuid:cguid_i.obj
 0002:00006160       _GUID_FONTBOLD             1008e160     uuid:cguid_i.obj
 0002:00006170       _GUID_FONTITALIC           1008e170     uuid:cguid_i.obj
 0002:00006180       _GUID_FONTUNDERSCORE       1008e180     uuid:cguid_i.obj
 0002:00006190       _GUID_FONTSTRIKETHROUGH    1008e190     uuid:cguid_i.obj
 0002:000061a0       _GUID_HANDLE               1008e1a0     uuid:cguid_i.obj
 0002:000061b0       _IID_StdOle                1008e1b0     uuid:cguid_i.obj
 0002:000061c0       _IID_ICursor               1008e1c0     uuid:cguid_i.obj
 0002:000061d0       _IID_ICursorMove           1008e1d0     uuid:cguid_i.obj
 0002:000061e0       _IID_ICursorScroll         1008e1e0     uuid:cguid_i.obj
 0002:000061f0       _IID_ICursorUpdateARow     1008e1f0     uuid:cguid_i.obj
 0002:00006200       _IID_INotifyDBEvents       1008e200     uuid:cguid_i.obj
 0002:00006210       _IID_ICursorFind           1008e210     uuid:cguid_i.obj
 0002:00006220       _IID_IEntryID              1008e220     uuid:cguid_i.obj
 0002:00006230       __GUID_NAMEONLY            1008e230     uuid:cguid_i.obj
 0002:00006240       __DBBMKGUID                1008e240     uuid:cguid_i.obj
 0002:00006250       __DBCIDGUID                1008e250     uuid:cguid_i.obj
 0002:00006260       _IID_IBoundObject          1008e260     uuid:cguid_i.obj
 0002:00006270       _IID_IBoundObjectSite      1008e270     uuid:cguid_i.obj
 0002:00006280       _CLSID_GblComponentCategoriesMgr 1008e280     uuid:cguid_i.obj
 0002:00006290       _CLSID_ThumbnailFCNHandler 1008e290     uuid:cguid_i.obj
 0002:000062a0       _CLSID_ThumbnailUpdater    1008e2a0     uuid:cguid_i.obj
 0002:000062b0       _IID_ICallbackWithNoReentrancyToApplicationSTA 1008e2b0     uuid:cguid_i.obj
 0002:000062c0       _CLSID_TypeLibRegistrationReader 1008e2c0     uuid:cguid_i.obj
 0002:000062d0       _GUID_DEVCLASS_1394        1008e2d0     uuid:cguid_i.obj
 0002:000062e0       _GUID_DEVCLASS_1394DEBUG   1008e2e0     uuid:cguid_i.obj
 0002:000062f0       _GUID_DEVCLASS_61883       1008e2f0     uuid:cguid_i.obj
 0002:00006300       _GUID_DEVCLASS_ADAPTER     1008e300     uuid:cguid_i.obj
 0002:00006310       _GUID_DEVCLASS_APMSUPPORT  1008e310     uuid:cguid_i.obj
 0002:00006320       _GUID_DEVCLASS_AVC         1008e320     uuid:cguid_i.obj
 0002:00006330       _GUID_DEVCLASS_BATTERY     1008e330     uuid:cguid_i.obj
 0002:00006340       _GUID_DEVCLASS_BIOMETRIC   1008e340     uuid:cguid_i.obj
 0002:00006350       _GUID_DEVCLASS_BLUETOOTH   1008e350     uuid:cguid_i.obj
 0002:00006360       _GUID_DEVCLASS_CAMERA      1008e360     uuid:cguid_i.obj
 0002:00006370       _GUID_DEVCLASS_CDROM       1008e370     uuid:cguid_i.obj
 0002:00006380       _GUID_DEVCLASS_COMPUTEACCELERATOR 1008e380     uuid:cguid_i.obj
 0002:00006390       _GUID_DEVCLASS_COMPUTER    1008e390     uuid:cguid_i.obj
 0002:000063a0       _GUID_DEVCLASS_DECODER     1008e3a0     uuid:cguid_i.obj
 0002:000063b0       _GUID_DEVCLASS_DISKDRIVE   1008e3b0     uuid:cguid_i.obj
 0002:000063c0       _GUID_DEVCLASS_DISPLAY     1008e3c0     uuid:cguid_i.obj
 0002:000063d0       _GUID_DEVCLASS_DOT4        1008e3d0     uuid:cguid_i.obj
 0002:000063e0       _GUID_DEVCLASS_DOT4PRINT   1008e3e0     uuid:cguid_i.obj
 0002:000063f0       _GUID_DEVCLASS_EHSTORAGESILO 1008e3f0     uuid:cguid_i.obj
 0002:00006400       _GUID_DEVCLASS_ENUM1394    1008e400     uuid:cguid_i.obj
 0002:00006410       _GUID_DEVCLASS_EXTENSION   1008e410     uuid:cguid_i.obj
 0002:00006420       _GUID_DEVCLASS_FDC         1008e420     uuid:cguid_i.obj
 0002:00006430       _GUID_DEVCLASS_FIRMWARE    1008e430     uuid:cguid_i.obj
 0002:00006440       _GUID_DEVCLASS_FLOPPYDISK  1008e440     uuid:cguid_i.obj
 0002:00006450       _GUID_DEVCLASS_GPS         1008e450     uuid:cguid_i.obj
 0002:00006460       _GUID_DEVCLASS_HDC         1008e460     uuid:cguid_i.obj
 0002:00006470       _GUID_DEVCLASS_HIDCLASS    1008e470     uuid:cguid_i.obj
 0002:00006480       _GUID_DEVCLASS_HOLOGRAPHIC 1008e480     uuid:cguid_i.obj
 0002:00006490       _GUID_DEVCLASS_IMAGE       1008e490     uuid:cguid_i.obj
 0002:000064a0       _GUID_DEVCLASS_INFINIBAND  1008e4a0     uuid:cguid_i.obj
 0002:000064b0       _GUID_DEVCLASS_INFRARED    1008e4b0     uuid:cguid_i.obj
 0002:000064c0       _GUID_DEVCLASS_KEYBOARD    1008e4c0     uuid:cguid_i.obj
 0002:000064d0       _GUID_DEVCLASS_LEGACYDRIVER 1008e4d0     uuid:cguid_i.obj
 0002:000064e0       _GUID_DEVCLASS_MEDIA       1008e4e0     uuid:cguid_i.obj
 0002:000064f0       _GUID_DEVCLASS_MEDIUM_CHANGER 1008e4f0     uuid:cguid_i.obj
 0002:00006500       _GUID_DEVCLASS_MEMORY      1008e500     uuid:cguid_i.obj
 0002:00006510       _GUID_DEVCLASS_MODEM       1008e510     uuid:cguid_i.obj
 0002:00006520       _GUID_DEVCLASS_MONITOR     1008e520     uuid:cguid_i.obj
 0002:00006530       _GUID_DEVCLASS_MOUSE       1008e530     uuid:cguid_i.obj
 0002:00006540       _GUID_DEVCLASS_MTD         1008e540     uuid:cguid_i.obj
 0002:00006550       _GUID_DEVCLASS_MULTIFUNCTION 1008e550     uuid:cguid_i.obj
 0002:00006560       _GUID_DEVCLASS_MULTIPORTSERIAL 1008e560     uuid:cguid_i.obj
 0002:00006570       _GUID_DEVCLASS_NET         1008e570     uuid:cguid_i.obj
 0002:00006580       _GUID_DEVCLASS_NETCLIENT   1008e580     uuid:cguid_i.obj
 0002:00006590       _GUID_DEVCLASS_NETDRIVER   1008e590     uuid:cguid_i.obj
 0002:000065a0       _GUID_DEVCLASS_NETSERVICE  1008e5a0     uuid:cguid_i.obj
 0002:000065b0       _GUID_DEVCLASS_NETTRANS    1008e5b0     uuid:cguid_i.obj
 0002:000065c0       _GUID_DEVCLASS_NODRIVER    1008e5c0     uuid:cguid_i.obj
 0002:000065d0       _GUID_DEVCLASS_PCMCIA      1008e5d0     uuid:cguid_i.obj
 0002:000065e0       _GUID_DEVCLASS_PNPPRINTERS 1008e5e0     uuid:cguid_i.obj
 0002:000065f0       _GUID_DEVCLASS_PORTS       1008e5f0     uuid:cguid_i.obj
 0002:00006600       _GUID_DEVCLASS_PRINTER     1008e600     uuid:cguid_i.obj
 0002:00006610       _GUID_DEVCLASS_PRINTERUPGRADE 1008e610     uuid:cguid_i.obj
 0002:00006620       _GUID_DEVCLASS_PRINTQUEUE  1008e620     uuid:cguid_i.obj
 0002:00006630       _GUID_DEVCLASS_PROCESSOR   1008e630     uuid:cguid_i.obj
 0002:00006640       _GUID_DEVCLASS_SBP2        1008e640     uuid:cguid_i.obj
 0002:00006650       _GUID_DEVCLASS_SCMDISK     1008e650     uuid:cguid_i.obj
 0002:00006660       _GUID_DEVCLASS_SCMVOLUME   1008e660     uuid:cguid_i.obj
 0002:00006670       _GUID_DEVCLASS_SCSIADAPTER 1008e670     uuid:cguid_i.obj
 0002:00006680       _GUID_DEVCLASS_SECURITYACCELERATOR 1008e680     uuid:cguid_i.obj
 0002:00006690       _GUID_DEVCLASS_SENSOR      1008e690     uuid:cguid_i.obj
 0002:000066a0       _GUID_DEVCLASS_SIDESHOW    1008e6a0     uuid:cguid_i.obj
 0002:000066b0       _GUID_DEVCLASS_SMARTCARDREADER 1008e6b0     uuid:cguid_i.obj
 0002:000066c0       _GUID_DEVCLASS_SMRDISK     1008e6c0     uuid:cguid_i.obj
 0002:000066d0       _GUID_DEVCLASS_SMRVOLUME   1008e6d0     uuid:cguid_i.obj
 0002:000066e0       _GUID_DEVCLASS_SOFTWARECOMPONENT 1008e6e0     uuid:cguid_i.obj
 0002:000066f0       _GUID_DEVCLASS_SOUND       1008e6f0     uuid:cguid_i.obj
 0002:00006700       _GUID_DEVCLASS_SYSTEM      1008e700     uuid:cguid_i.obj
 0002:00006710       _GUID_DEVCLASS_TAPEDRIVE   1008e710     uuid:cguid_i.obj
 0002:00006720       _GUID_DEVCLASS_UNKNOWN     1008e720     uuid:cguid_i.obj
 0002:00006730       _GUID_DEVCLASS_UCM         1008e730     uuid:cguid_i.obj
 0002:00006740       _GUID_DEVCLASS_USB         1008e740     uuid:cguid_i.obj
 0002:00006750       _GUID_DEVCLASS_VOLUME      1008e750     uuid:cguid_i.obj
 0002:00006760       _GUID_DEVCLASS_VOLUMESNAPSHOT 1008e760     uuid:cguid_i.obj
 0002:00006770       _GUID_DEVCLASS_WCEUSBS     1008e770     uuid:cguid_i.obj
 0002:00006780       _GUID_DEVCLASS_WPD         1008e780     uuid:cguid_i.obj
 0002:00006790       _GUID_DEVCLASS_FSFILTER_TOP 1008e790     uuid:cguid_i.obj
 0002:000067a0       _GUID_DEVCLASS_FSFILTER_ACTIVITYMONITOR 1008e7a0     uuid:cguid_i.obj
 0002:000067b0       _GUID_DEVCLASS_FSFILTER_UNDELETE 1008e7b0     uuid:cguid_i.obj
 0002:000067c0       _GUID_DEVCLASS_FSFILTER_ANTIVIRUS 1008e7c0     uuid:cguid_i.obj
 0002:000067d0       _GUID_DEVCLASS_FSFILTER_REPLICATION 1008e7d0     uuid:cguid_i.obj
 0002:000067e0       _GUID_DEVCLASS_FSFILTER_CONTINUOUSBACKUP 1008e7e0     uuid:cguid_i.obj
 0002:000067f0       _GUID_DEVCLASS_FSFILTER_CONTENTSCREENER 1008e7f0     uuid:cguid_i.obj
 0002:00006800       _GUID_DEVCLASS_FSFILTER_QUOTAMANAGEMENT 1008e800     uuid:cguid_i.obj
 0002:00006810       _GUID_DEVCLASS_FSFILTER_SYSTEMRECOVERY 1008e810     uuid:cguid_i.obj
 0002:00006820       _GUID_DEVCLASS_FSFILTER_CFSMETADATASERVER 1008e820     uuid:cguid_i.obj
 0002:00006830       _GUID_DEVCLASS_FSFILTER_HSM 1008e830     uuid:cguid_i.obj
 0002:00006840       _GUID_DEVCLASS_FSFILTER_COMPRESSION 1008e840     uuid:cguid_i.obj
 0002:00006850       _GUID_DEVCLASS_FSFILTER_ENCRYPTION 1008e850     uuid:cguid_i.obj
 0002:00006860       _GUID_DEVCLASS_FSFILTER_VIRTUALIZATION 1008e860     uuid:cguid_i.obj
 0002:00006870       _GUID_DEVCLASS_FSFILTER_PHYSICALQUOTAMANAGEMENT 1008e870     uuid:cguid_i.obj
 0002:00006880       _GUID_DEVCLASS_FSFILTER_OPENFILEBACKUP 1008e880     uuid:cguid_i.obj
 0002:00006890       _GUID_DEVCLASS_FSFILTER_SECURITYENHANCER 1008e890     uuid:cguid_i.obj
 0002:000068a0       _GUID_DEVCLASS_FSFILTER_COPYPROTECTION 1008e8a0     uuid:cguid_i.obj
 0002:000068b0       _GUID_DEVCLASS_FSFILTER_BOTTOM 1008e8b0     uuid:cguid_i.obj
 0002:000068c0       _GUID_DEVCLASS_FSFILTER_SYSTEM 1008e8c0     uuid:cguid_i.obj
 0002:000068d0       _GUID_DEVCLASS_FSFILTER_INFRASTRUCTURE 1008e8d0     uuid:cguid_i.obj
 0002:000068e0       _GUID_DEVINTERFACE_DISK    1008e8e0     uuid:cguid_i.obj
 0002:000068f0       _GUID_DEVINTERFACE_CDROM   1008e8f0     uuid:cguid_i.obj
 0002:00006900       _GUID_DEVINTERFACE_PARTITION 1008e900     uuid:cguid_i.obj
 0002:00006910       _GUID_DEVINTERFACE_TAPE    1008e910     uuid:cguid_i.obj
 0002:00006920       _GUID_DEVINTERFACE_WRITEONCEDISK 1008e920     uuid:cguid_i.obj
 0002:00006930       _GUID_DEVINTERFACE_VOLUME  1008e930     uuid:cguid_i.obj
 0002:00006940       _GUID_DEVINTERFACE_MEDIUMCHANGER 1008e940     uuid:cguid_i.obj
 0002:00006950       _GUID_DEVINTERFACE_FLOPPY  1008e950     uuid:cguid_i.obj
 0002:00006960       _GUID_DEVINTERFACE_CDCHANGER 1008e960     uuid:cguid_i.obj
 0002:00006970       _GUID_DEVINTERFACE_STORAGEPORT 1008e970     uuid:cguid_i.obj
 0002:00006980       _GUID_DEVINTERFACE_VMLUN   1008e980     uuid:cguid_i.obj
 0002:00006990       _GUID_DEVINTERFACE_SES     1008e990     uuid:cguid_i.obj
 0002:000069a0       _GUID_DEVINTERFACE_SERVICE_VOLUME 1008e9a0     uuid:cguid_i.obj
 0002:000069b0       _GUID_DEVINTERFACE_HIDDEN_VOLUME 1008e9b0     uuid:cguid_i.obj
 0002:000069c0       _GUID_DEVINTERFACE_UNIFIED_ACCESS_RPMB 1008e9c0     uuid:cguid_i.obj
 0002:000069d0       _GUID_DEVINTERFACE_SCM_PHYSICAL_DEVICE 1008e9d0     uuid:cguid_i.obj
 0002:000069e0       _GUID_SCM_PD_HEALTH_NOTIFICATION 1008e9e0     uuid:cguid_i.obj
 0002:000069f0       _GUID_SCM_PD_PASSTHROUGH_INVDIMM 1008e9f0     uuid:cguid_i.obj
 0002:00006a00       _GUID_DEVINTERFACE_COMPORT 1008ea00     uuid:cguid_i.obj
 0002:00006a10       _GUID_DEVINTERFACE_SERENUM_BUS_ENUMERATOR 1008ea10     uuid:cguid_i.obj
 0002:00006a20       _CLSID_StdURLMoniker       1008ea20     uuid:ieguids.obj
 0002:00006a30       _CLSID_StdURLProtocol      1008ea30     uuid:ieguids.obj
 0002:00006a40       _CLSID_HttpProtocol        1008ea40     uuid:ieguids.obj
 0002:00006a50       _CLSID_FtpProtocol         1008ea50     uuid:ieguids.obj
 0002:00006a60       _CLSID_GopherProtocol      1008ea60     uuid:ieguids.obj
 0002:00006a70       _CLSID_HttpSProtocol       1008ea70     uuid:ieguids.obj
 0002:00006a80       _CLSID_MkProtocol          1008ea80     uuid:ieguids.obj
 0002:00006a90       _CLSID_FileProtocol        1008ea90     uuid:ieguids.obj
 0002:00006aa0       _CLSID_PSUrlMonProxy       1008eaa0     uuid:ieguids.obj
 0002:00006ab0       _CLSID_UrlMkBindCtx        1008eab0     uuid:ieguids.obj
 0002:00006ac0       _CLSID_ResProtocol         1008eac0     uuid:ieguids.obj
 0002:00006ad0       _CLSID_AboutProtocol       1008ead0     uuid:ieguids.obj
 0002:00006ae0       _CLSID_JSProtocol          1008eae0     uuid:ieguids.obj
 0002:00006af0       _CLSID_MailtoProtocol      1008eaf0     uuid:ieguids.obj
 0002:00006b00       _CLSID_TBAuthProtocol      1008eb00     uuid:ieguids.obj
 0002:00006b10       _CLSID_IE4_PROTOCOLS       1008eb10     uuid:ieguids.obj
 0002:00006b20       _IID_IAsyncMoniker         1008eb20     uuid:ieguids.obj
 0002:00006b30       _IID_IBindStatusCallbackHolder 1008eb30     uuid:ieguids.obj
 0002:00006b40       _IID_IAsyncBindCtx         1008eb40     uuid:ieguids.obj
 0002:00006b50       _IID_IBindStatusCallbackMsg 1008eb50     uuid:ieguids.obj
 0002:00006b60       _IID_IDebugRegister        1008eb60     uuid:ieguids.obj
 0002:00006b70       _IID_IDebugOut             1008eb70     uuid:ieguids.obj
 0002:00006b80       _CLSID_StdNotificationMgr  1008eb80     uuid:ieguids.obj
 0002:00006b90       _CLSID_WebCheckDefaultProcess 1008eb90     uuid:ieguids.obj
 0002:00006ba0       _IID_IEnumPropertyMap      1008eba0     uuid:ieguids.obj
 0002:00006bb0       _IID_IPropertyMap          1008ebb0     uuid:ieguids.obj
 0002:00006bc0       _IID_INotification         1008ebc0     uuid:ieguids.obj
 0002:00006bd0       _IID_INotificationMgr      1008ebd0     uuid:ieguids.obj
 0002:00006be0       _IID_INotificationSink     1008ebe0     uuid:ieguids.obj
 0002:00006bf0       _IID_IScheduleGroup        1008ebf0     uuid:ieguids.obj
 0002:00006c00       _IID_INotificationReport   1008ec00     uuid:ieguids.obj
 0002:00006c10       _IID_IEnumNotification     1008ec10     uuid:ieguids.obj
 0002:00006c20       _IID_IEnumScheduleGroup    1008ec20     uuid:ieguids.obj
 0002:00006c30       _IID_IEnumNotificationSinkItem 1008ec30     uuid:ieguids.obj
 0002:00006c40       _IID_INotificationHelper   1008ec40     uuid:ieguids.obj
 0002:00006c50       _IID_INotificationPing     1008ec50     uuid:ieguids.obj
 0002:00006c60       _IID_INotificationRunning  1008ec60     uuid:ieguids.obj
 0002:00006c70       _IID_INotificationProcessMgr0 1008ec70     uuid:ieguids.obj
 0002:00006c80       _IID_IOInet                1008ec80     uuid:ieguids.obj
 0002:00006c90       _IID_IOInetBindInfo        1008ec90     uuid:ieguids.obj
 0002:00006ca0       _IID_IOInetBindClient      1008eca0     uuid:ieguids.obj
 0002:00006cb0       _IID_IOInetProtocolRoot    1008ecb0     uuid:ieguids.obj
 0002:00006cc0       _IID_IOInetProtocol        1008ecc0     uuid:ieguids.obj
 0002:00006cd0       _IID_IOInetProtocolSink    1008ecd0     uuid:ieguids.obj
 0002:00006ce0       _IID_IOInetSession         1008ece0     uuid:ieguids.obj
 0002:00006cf0       _IID_IOInetThreadSwitch    1008ecf0     uuid:ieguids.obj
 0002:00006d00       _IID_IOInetCache           1008ed00     uuid:ieguids.obj
 0002:00006d10       _IID_IOInetPriority        1008ed10     uuid:ieguids.obj
 0002:00006d20       _IID_IOInetProtocolInfo    1008ed20     uuid:ieguids.obj
 0002:00006d30       _CLSID_GLOBAL_BROADCAST    1008ed30     uuid:ieguids.obj
 0002:00006d40       _CLSID_PROCESS_BROADCAST   1008ed40     uuid:ieguids.obj
 0002:00006d50       _CLSID_THREAD_BROADCAST    1008ed50     uuid:ieguids.obj
 0002:00006d60       _CLSID_1                   1008ed60     uuid:ieguids.obj
 0002:00006d70       _CLSID_2                   1008ed70     uuid:ieguids.obj
 0002:00006d80       _CLSID_3                   1008ed80     uuid:ieguids.obj
 0002:00006d90       _CLSID_4                   1008ed90     uuid:ieguids.obj
 0002:00006da0       _CLSID_5                   1008eda0     uuid:ieguids.obj
 0002:00006db0       _CLSID_6                   1008edb0     uuid:ieguids.obj
 0002:00006dc0       _CLSID_7                   1008edc0     uuid:ieguids.obj
 0002:00006dd0       _CLSID_8                   1008edd0     uuid:ieguids.obj
 0002:00006de0       _CLSID_9                   1008ede0     uuid:ieguids.obj
 0002:00006df0       _CLSID_a                   1008edf0     uuid:ieguids.obj
 0002:00006e00       _CLSID_b                   1008ee00     uuid:ieguids.obj
 0002:00006e10       _CLSID_c                   1008ee10     uuid:ieguids.obj
 0002:00006e20       _CLSID_d                   1008ee20     uuid:ieguids.obj
 0002:00006e30       _NOTIFICATIONTYPE_ITEM_START 1008ee30     uuid:ieguids.obj
 0002:00006e40       _NOTIFICATIONTYPE_ITEM_RESTART 1008ee40     uuid:ieguids.obj
 0002:00006e50       _NOTIFICATIONTYPE_ITEM_DONE 1008ee50     uuid:ieguids.obj
 0002:00006e60       _NOTIFICATIONTYPE_GROUP_START 1008ee60     uuid:ieguids.obj
 0002:00006e70       _NOTIFICATIONTYPE_GROUP_RESTART 1008ee70     uuid:ieguids.obj
 0002:00006e80       _NOTIFICATIONTYPE_GROUP_DONE 1008ee80     uuid:ieguids.obj
 0002:00006e90       _NOTIFICATIONTYPE_i6       1008ee90     uuid:ieguids.obj
 0002:00006ea0       _NOTIFICATIONTYPE_i7       1008eea0     uuid:ieguids.obj
 0002:00006eb0       _NOTIFICATIONTYPE_i8       1008eeb0     uuid:ieguids.obj
 0002:00006ec0       _NOTIFICATIONTYPE_i9       1008eec0     uuid:ieguids.obj
 0002:00006ed0       _NOTIFICATIONTYPE_iA       1008eed0     uuid:ieguids.obj
 0002:00006ee0       _NOTIFICATIONTYPE_iB       1008eee0     uuid:ieguids.obj
 0002:00006ef0       _NOTIFICATIONTYPE_iC       1008eef0     uuid:ieguids.obj
 0002:00006f00       _NOTIFICATIONTYPE_iD       1008ef00     uuid:ieguids.obj
 0002:00006f10       _NOTIFICATIONTYPE_iE       1008ef10     uuid:ieguids.obj
 0002:00006f20       _NOTIFICATIONTYPE_iF       1008ef20     uuid:ieguids.obj
 0002:00006f30       _NOTFCOOKIE_SCHEDULE_GROUP_DAILY 1008ef30     uuid:ieguids.obj
 0002:00006f40       _NOTFCOOKIE_SCHEDULE_GROUP_WEEKLY 1008ef40     uuid:ieguids.obj
 0002:00006f50       _NOTFCOOKIE_SCHEDULE_GROUP_MONTHLY 1008ef50     uuid:ieguids.obj
 0002:00006f60       _NOTFCOOKIE_SCHEDULE_GROUP_MANUAL 1008ef60     uuid:ieguids.obj
 0002:00006f70       _NOTIFICATIONTYPE_NULL     1008ef70     uuid:ieguids.obj
 0002:00006f80       _NOTIFICATIONTYPE_ANOUNCMENT 1008ef80     uuid:ieguids.obj
 0002:00006f90       _NOTIFICATIONTYPE_TASK     1008ef90     uuid:ieguids.obj
 0002:00006fa0       _NOTIFICATIONTYPE_ALERT    1008efa0     uuid:ieguids.obj
 0002:00006fb0       _NOTIFICATIONTYPE_INET_IDLE 1008efb0     uuid:ieguids.obj
 0002:00006fc0       _NOTIFICATIONTYPE_INET_OFFLINE 1008efc0     uuid:ieguids.obj
 0002:00006fd0       _NOTIFICATIONTYPE_INET_ONLINE 1008efd0     uuid:ieguids.obj
 0002:00006fe0       _NOTIFICATIONTYPE_TASKS_SUSPEND 1008efe0     uuid:ieguids.obj
 0002:00006ff0       _NOTIFICATIONTYPE_TASKS_RESUME 1008eff0     uuid:ieguids.obj
 0002:00007000       _NOTIFICATIONTYPE_TASKS_ABORT 1008f000     uuid:ieguids.obj
 0002:00007010       _NOTIFICATIONTYPE_TASKS_COMPLETED 1008f010     uuid:ieguids.obj
 0002:00007020       _NOTIFICATIONTYPE_TASKS_PROGRESS 1008f020     uuid:ieguids.obj
 0002:00007030       _NOTIFICATIONTYPE_AGENT_START 1008f030     uuid:ieguids.obj
 0002:00007040       _NOTIFICATIONTYPE_BEGIN_REPORT 1008f040     uuid:ieguids.obj
 0002:00007050       _NOTIFICATIONTYPE_END_REPORT 1008f050     uuid:ieguids.obj
 0002:00007060       _NOTIFICATIONTYPE_AGENT_INIT 1008f060     uuid:ieguids.obj
 0002:00007070       _NOTIFICATIONTYPE_CONNECT_TO_INTERNET 1008f070     uuid:ieguids.obj
 0002:00007080       _NOTIFICATIONTYPE_DISCONNECT_FROM_INTERNET 1008f080     uuid:ieguids.obj
 0002:00007090       _NOTIFICATIONTYPE_CONFIG_CHANGED 1008f090     uuid:ieguids.obj
 0002:000070a0       _NOTIFICATIONTYPE_PROGRESS_REPORT 1008f0a0     uuid:ieguids.obj
 0002:000070b0       _NOTIFICATIONTYPE_USER_IDLE_BEGIN 1008f0b0     uuid:ieguids.obj
 0002:000070c0       _NOTIFICATIONTYPE_USER_IDLE_END 1008f0c0     uuid:ieguids.obj
 0002:000070d0       _NOTIFICATIONTYPE_TASKS_STARTED 1008f0d0     uuid:ieguids.obj
 0002:000070e0       _NOTIFICATIONTYPE_TASKS_ERROR 1008f0e0     uuid:ieguids.obj
 0002:000070f0       _NOTIFICATIONTYPE_d        1008f0f0     uuid:ieguids.obj
 0002:00007100       _NOTIFICATIONTYPE_e        1008f100     uuid:ieguids.obj
 0002:00007110       _NOTIFICATIONTYPE_f        1008f110     uuid:ieguids.obj
 0002:00007120       _NOTIFICATIONTYPE_11       1008f120     uuid:ieguids.obj
 0002:00007130       _NOTIFICATIONTYPE_12       1008f130     uuid:ieguids.obj
 0002:00007140       _NOTIFICATIONTYPE_13       1008f140     uuid:ieguids.obj
 0002:00007150       _NOTIFICATIONTYPE_14       1008f150     uuid:ieguids.obj
 0002:00007160       _NOTIFICATIONTYPE_15       1008f160     uuid:ieguids.obj
 0002:00007170       _NOTIFICATIONTYPE_START_0  1008f170     uuid:ieguids.obj
 0002:00007180       _NOTIFICATIONTYPE_START_1  1008f180     uuid:ieguids.obj
 0002:00007190       _NOTIFICATIONTYPE_START_2  1008f190     uuid:ieguids.obj
 0002:000071a0       _NOTIFICATIONTYPE_START_3  1008f1a0     uuid:ieguids.obj
 0002:000071b0       _NOTIFICATIONTYPE_START_4  1008f1b0     uuid:ieguids.obj
 0002:000071c0       _NOTIFICATIONTYPE_START_5  1008f1c0     uuid:ieguids.obj
 0002:000071d0       _NOTIFICATIONTYPE_START_6  1008f1d0     uuid:ieguids.obj
 0002:000071e0       _NOTIFICATIONTYPE_START_7  1008f1e0     uuid:ieguids.obj
 0002:000071f0       _NOTIFICATIONTYPE_START_8  1008f1f0     uuid:ieguids.obj
 0002:00007200       _NOTIFICATIONTYPE_START_9  1008f200     uuid:ieguids.obj
 0002:00007210       _NOTIFICATIONTYPE_START_A  1008f210     uuid:ieguids.obj
 0002:00007220       _NOTIFICATIONTYPE_START_B  1008f220     uuid:ieguids.obj
 0002:00007230       _NOTIFICATIONTYPE_START_C  1008f230     uuid:ieguids.obj
 0002:00007240       _NOTIFICATIONTYPE_START_D  1008f240     uuid:ieguids.obj
 0002:00007250       _NOTIFICATIONTYPE_START_E  1008f250     uuid:ieguids.obj
 0002:00007260       _NOTIFICATIONTYPE_START_F  1008f260     uuid:ieguids.obj
 0002:00007270       _CLSID_NotificaitonTest1   1008f270     uuid:ieguids.obj
 0002:00007280       _CLSID_NotificaitonTest2   1008f280     uuid:ieguids.obj
 0002:00007290       _CLSID_NotificaitonTest3   1008f290     uuid:ieguids.obj
 0002:000072a0       _CLSID_NotificaitonTest4   1008f2a0     uuid:ieguids.obj
 0002:000072b0       _CLSID_CdlProtocol         1008f2b0     uuid:ieguids.obj
 0002:000072c0       _CLSID_ClassInstallFilter  1008f2c0     uuid:ieguids.obj
 0002:000072d0       _LIBID_Accessibility       1008f2d0     uuid:ieguids.obj
 0002:000072e0       _IID_IAccessible           1008f2e0     uuid:ieguids.obj
 0002:000072f0       _IIS_ControlAccessible     1008f2f0     uuid:ieguids.obj
 0002:00007300       _SID_SContainerDispatch    1008f300     uuid:ieguids.obj
 0002:00007310       _SID_SDataPathBrowser      1008f310     uuid:ieguids.obj
 0002:00007320       _GUID_PathProperty         1008f320     uuid:ieguids.obj
 0002:00007330       _GUID_HasPathProperties    1008f330     uuid:ieguids.obj
 0002:00007340       _CLSID_StdHlink            1008f340     uuid:ieguids.obj
 0002:00007350       _CLSID_StdHlinkBrowseContext 1008f350     uuid:ieguids.obj
 0002:00007360       _OLE_DATAPATH_BMP          1008f360     uuid:ieguids.obj
 0002:00007370       _OLE_DATAPATH_DIB          1008f370     uuid:ieguids.obj
 0002:00007380       _OLE_DATAPATH_WMF          1008f380     uuid:ieguids.obj
 0002:00007390       _OLE_DATAPATH_ENHMF        1008f390     uuid:ieguids.obj
 0002:000073a0       _OLE_DATAPATH_GIF          1008f3a0     uuid:ieguids.obj
 0002:000073b0       _OLE_DATAPATH_JPEG         1008f3b0     uuid:ieguids.obj
 0002:000073c0       _OLE_DATAPATH_TIFF         1008f3c0     uuid:ieguids.obj
 0002:000073d0       _OLE_DATAPATH_XBM          1008f3d0     uuid:ieguids.obj
 0002:000073e0       _OLE_DATAPATH_PCX          1008f3e0     uuid:ieguids.obj
 0002:000073f0       _OLE_DATAPATH_PICT         1008f3f0     uuid:ieguids.obj
 0002:00007400       _OLE_DATAPATH_CGM          1008f400     uuid:ieguids.obj
 0002:00007410       _OLE_DATAPATH_EPS          1008f410     uuid:ieguids.obj
 0002:00007420       _OLE_DATAPATH_COMMONIMAGE  1008f420     uuid:ieguids.obj
 0002:00007430       _OLE_DATAPATH_ALLIMAGE     1008f430     uuid:ieguids.obj
 0002:00007440       _OLE_DATAPATH_AVI          1008f440     uuid:ieguids.obj
 0002:00007450       _OLE_DATAPATH_MPEG         1008f450     uuid:ieguids.obj
 0002:00007460       _OLE_DATAPATH_QUICKTIME    1008f460     uuid:ieguids.obj
 0002:00007470       _OLE_DATAPATH_BASICAUDIO   1008f470     uuid:ieguids.obj
 0002:00007480       _OLE_DATAPATH_MIDI         1008f480     uuid:ieguids.obj
 0002:00007490       _OLE_DATAPATH_WAV          1008f490     uuid:ieguids.obj
 0002:000074a0       _OLE_DATAPATH_RIFF         1008f4a0     uuid:ieguids.obj
 0002:000074b0       _OLE_DATAPATH_SOUND        1008f4b0     uuid:ieguids.obj
 0002:000074c0       _OLE_DATAPATH_VIDEO        1008f4c0     uuid:ieguids.obj
 0002:000074d0       _OLE_DATAPATH_ALLMM        1008f4d0     uuid:ieguids.obj
 0002:000074e0       _OLE_DATAPATH_ANSITEXT     1008f4e0     uuid:ieguids.obj
 0002:000074f0       _OLE_DATAPATH_UNICODE      1008f4f0     uuid:ieguids.obj
 0002:00007500       _OLE_DATAPATH_RTF          1008f500     uuid:ieguids.obj
 0002:00007510       _OLE_DATAPATH_HTML         1008f510     uuid:ieguids.obj
 0002:00007520       _OLE_DATAPATH_POSTSCRIPT   1008f520     uuid:ieguids.obj
 0002:00007530       _OLE_DATAPATH_ALLTEXT      1008f530     uuid:ieguids.obj
 0002:00007540       _OLE_DATAPATH_DIF          1008f540     uuid:ieguids.obj
 0002:00007550       _OLE_DATAPATH_SYLK         1008f550     uuid:ieguids.obj
 0002:00007560       _OLE_DATAPATH_BIFF         1008f560     uuid:ieguids.obj
 0002:00007570       _OLE_DATAPATH_PALETTE      1008f570     uuid:ieguids.obj
 0002:00007580       _OLE_DATAPATH_PENDATA      1008f580     uuid:ieguids.obj
 0002:00007590       _FLAGID_Internet           1008f590     uuid:ieguids.obj
 0002:000075a0       _ARRAYID_PathProperties    1008f5a0     uuid:ieguids.obj
 0002:000075b0       _CLSID_StdComponentCategoriesMgr 1008f5b0     uuid:ieguids.obj
 0002:000075c0       _CATID_Insertable          1008f5c0     uuid:ieguids.obj
 0002:000075d0       _CATID_Control             1008f5d0     uuid:ieguids.obj
 0002:000075e0       _CATID_Programmable        1008f5e0     uuid:ieguids.obj
 0002:000075f0       _CATID_IsShortcut          1008f5f0     uuid:ieguids.obj
 0002:00007600       _CATID_NeverShowExt        1008f600     uuid:ieguids.obj
 0002:00007610       _CATID_DocObject           1008f610     uuid:ieguids.obj
 0002:00007620       _CATID_Printable           1008f620     uuid:ieguids.obj
 0002:00007630       _CATID_RequiresDataPathHost 1008f630     uuid:ieguids.obj
 0002:00007640       _CATID_PersistsToMoniker   1008f640     uuid:ieguids.obj
 0002:00007650       _CATID_PersistsToStorage   1008f650     uuid:ieguids.obj
 0002:00007660       _CATID_PersistsToStreamInit 1008f660     uuid:ieguids.obj
 0002:00007670       _CATID_PersistsToStream    1008f670     uuid:ieguids.obj
 0002:00007680       _CATID_PersistsToMemory    1008f680     uuid:ieguids.obj
 0002:00007690       _CATID_PersistsToFile      1008f690     uuid:ieguids.obj
 0002:000076a0       _CATID_PersistsToPropertyBag 1008f6a0     uuid:ieguids.obj
 0002:000076b0       _CATID_InternetAware       1008f6b0     uuid:ieguids.obj
 0002:000076c0       _CATID_SafeForScripting    1008f6c0     uuid:ieguids.obj
 0002:000076d0       _CATID_SafeForInitializing 1008f6d0     uuid:ieguids.obj
 0002:000076e0       _CATID_DesignTimeUIActivatableControl 1008f6e0     uuid:ieguids.obj
 0002:000076f0       _CATID_AppContainerCompatible 1008f6f0     uuid:ieguids.obj
 0002:00007700       _CATID_ExtensionValidation 1008f700     uuid:ieguids.obj
 0002:00007710       _CLSID_IImgCtx             1008f710     uuid:ieguids.obj
 0002:00007720       _IID_IImgCtx               1008f720     uuid:ieguids.obj
 0002:00007730       _CLSID_IImageDecodeFilter  1008f730     uuid:ieguids.obj
 0002:00007740       _CGID_MSHTML               1008f740     uuid:ieguids.obj
 0002:00007750       _CLSID_MHTMLDocument       1008f750     uuid:ieguids.obj
 0002:00007760       _CLSID_HTADocument         1008f760     uuid:ieguids.obj
 0002:00007770       _CLSID_HTMLApplication     1008f770     uuid:ieguids.obj
 0002:00007780       _CLSID_HTMLPluginDocument  1008f780     uuid:ieguids.obj
 0002:00007790       _CGID_DocHostCommandHandler 1008f790     uuid:ieguids.obj
 0002:000077a0       _SID_SHTMLEditServices     1008f7a0     uuid:ieguids.obj
 0002:000077b0       _CGID_ScriptSite           1008f7b0     uuid:ieguids.obj
 0002:000077c0       _CLSID_IEXMLDocument       1008f7c0     uuid:ieguids.obj
 0002:000077d0       _CLSID_SVGDocument         1008f7d0     uuid:ieguids.obj
 0002:000077e0       _CLSID_XHTMLDocument       1008f7e0     uuid:ieguids.obj
 0002:000077f0       _CLSID_TDC                 1008f7f0     uuid:ieguids.obj
 0002:00007800       _BFID_MONOCHROME           1008f800     uuid:ieguids.obj
 0002:00007810       _BFID_RGB_4                1008f810     uuid:ieguids.obj
 0002:00007820       _BFID_RGB_8                1008f820     uuid:ieguids.obj
 0002:00007830       _BFID_RGB_555              1008f830     uuid:ieguids.obj
 0002:00007840       _BFID_RGB_565              1008f840     uuid:ieguids.obj
 0002:00007850       _BFID_RGB_24               1008f850     uuid:ieguids.obj
 0002:00007860       _BFID_RGB_32               1008f860     uuid:ieguids.obj
 0002:00007870       _BFID_RGBA_32              1008f870     uuid:ieguids.obj
 0002:00007880       _BFID_GRAY_8               1008f880     uuid:ieguids.obj
 0002:00007890       _BFID_GRAY_16              1008f890     uuid:ieguids.obj
 0002:000078a0       _CLSID_IntDitherer         1008f8a0     uuid:ieguids.obj
 0002:000078b0       _IID_IIntDitherer          1008f8b0     uuid:ieguids.obj
 0002:000078c0       _NAMEDTIMER_DRAW           1008f8c0     uuid:ieguids.obj
 0002:000078d0       _CLSID_SoftDistExt         1008f8d0     uuid:ieguids.obj
 0002:000078e0       _CLSID_IActiveXSafetyProvider 1008f8e0     uuid:ieguids.obj
 0002:000078f0       _CLSID_InternetSecurityManager 1008f8f0     uuid:ieguids.obj
 0002:00007900       _CLSID_InternetZoneManager 1008f900     uuid:ieguids.obj
 0002:00007910       _GUID_CUSTOM_LOCALMACHINEZONEUNLOCKED 1008f910     uuid:ieguids.obj
 0002:00007920       _CLSID_PersistentZoneIdentifier 1008f920     uuid:ieguids.obj
 0002:00007930       _CLSID_HTMLLoadOptions     1008f930     uuid:ieguids.obj
 0002:00007940       _CLSID_SubscriptionThrottler 1008f940     uuid:ieguids.obj
 0002:00007950       _CGID_DownloadHost         1008f950     uuid:ieguids.obj
 0002:00007960       _CGID_InternetExplorer     1008f960     uuid:ieguids.obj
 0002:00007970       _SID_SVersionHost          1008f970     uuid:ieguids.obj
 0002:00007980       _CLSID_XFeedsManager       1008f980     uuid:ieguids.obj
 0002:00007990       _OID_INIPropStorage        1008f990     uuid:ieguids.obj
 0002:000079a0       _SID_SNewWindowManagerDown 1008f9a0     uuid:ieguids.obj
 0002:000079b0       _IID_IDocObjectService     1008f9b0     uuid:ieguids.obj
 0002:000079c0       _IID_IOpsProfileSimple     1008f9c0     uuid:ieguids.obj
 0002:000079d0       _IID_ITridentService3      1008f9d0     uuid:ieguids.obj
 0002:000079e0       _IID_ITridentService4      1008f9e0     uuid:ieguids.obj
 0002:000079f0       _IID_ITridentService5      1008f9f0     uuid:ieguids.obj
 0002:00007a00       _UUID_SharedRendertargetData 1008fa00     uuid:ieguids.obj
 0002:00007a10       _GUID_ATLVer30             1008fa10     atls:atlbase.obj
 0002:00007a20       _GUID_ATLVer70             1008fa20     atls:atlbase.obj
 0002:00007a30       _GUID_ATLVer100            1008fa30     atls:atlbase.obj
 0002:00007a40       _GUID_ATLVer110            1008fa40     atls:atlbase.obj
 0002:00007a50       ??_C@_1IC@ONKHOIDK@?$AAE?$AAR?$AAR?$AAO?$AAR?$AA?5?$AA?3?$AA?5?$AAU?$AAn?$AAa?$AAb?$AAl?$AAe?$AA?5@ 1008fa50     atls:atlbase.obj
 0002:00007ad4       ??_C@_13HADIAKP@?$AAS@     1008fad4     atls:stdafx.obj
 0002:00007ad8       ??_C@_13LHMFKAAD@?$AAM@    1008fad8     atls:stdafx.obj
 0002:00007adc       ??_C@_13MKMNOPIJ@?$AAD@    1008fadc     atls:stdafx.obj
 0002:00007ae0       ??_C@_13OPKGLAFF@?$AAB@    1008fae0     atls:stdafx.obj
 0002:00007ae4       ??_C@_17LLMMEOJD@?$AAV?$AAa?$AAl@ 1008fae4     atls:stdafx.obj
 0002:00007aec       ??_C@_1BI@JFAIJMHL@?$AAF?$AAo?$AAr?$AAc?$AAe?$AAR?$AAe?$AAm?$AAo?$AAv?$AAe@ 1008faec     atls:stdafx.obj
 0002:00007b04       ??_C@_1BC@GCKHIPE@?$AAN?$AAo?$AAR?$AAe?$AAm?$AAo?$AAv?$AAe@ 1008fb04     atls:stdafx.obj
 0002:00007b18       ??_C@_1O@JDLOHAN@?$AAD?$AAe?$AAl?$AAe?$AAt?$AAe@ 1008fb18     atls:stdafx.obj
 0002:00007b28       ??_C@_1CA@ONGMEOAB@?$AAa?$AAt?$AAl?$AAT?$AAr?$AAa?$AAc?$AAe?$AAG?$AAe?$AAn?$AAe?$AAr?$AAa?$AAl@ 1008fb28     atls:stdafx.obj
 0002:00007b48       ??_C@_1BI@MAFGHOEE@?$AAa?$AAt?$AAl?$AAT?$AAr?$AAa?$AAc?$AAe?$AAC?$AAO?$AAM@ 1008fb48     atls:stdafx.obj
 0002:00007b60       ??_C@_1BG@FPLJJEMF@?$AAa?$AAt?$AAl?$AAT?$AAr?$AAa?$AAc?$AAe?$AAQ?$AAI@ 1008fb60     atls:stdafx.obj
 0002:00007b78       ??_C@_1CE@NIAEAIDK@?$AAa?$AAt?$AAl?$AAT?$AAr?$AAa?$AAc?$AAe?$AAR?$AAe?$AAg?$AAi?$AAs?$AAt?$AAr@ 1008fb78     atls:stdafx.obj
 0002:00007b9c       ??_C@_1CC@BNHGJFNK@?$AAa?$AAt?$AAl?$AAT?$AAr?$AAa?$AAc?$AAe?$AAR?$AAe?$AAf?$AAc?$AAo?$AAu?$AAn@ 1008fb9c     atls:stdafx.obj
 0002:00007bc0       ??_C@_1CE@NAJDPMNB@?$AAa?$AAt?$AAl?$AAT?$AAr?$AAa?$AAc?$AAe?$AAW?$AAi?$AAn?$AAd?$AAo?$AAw?$AAi@ 1008fbc0     atls:stdafx.obj
 0002:00007be4       ??_C@_1CC@IMNJGBED@?$AAa?$AAt?$AAl?$AAT?$AAr?$AAa?$AAc?$AAe?$AAC?$AAo?$AAn?$AAt?$AAr?$AAo?$AAl@ 1008fbe4     atls:stdafx.obj
 0002:00007c08       ??_C@_1CA@OMOMONMN@?$AAa?$AAt?$AAl?$AAT?$AAr?$AAa?$AAc?$AAe?$AAH?$AAo?$AAs?$AAt?$AAi?$AAn?$AAg@ 1008fc08     atls:stdafx.obj
 0002:00007c28       ??_C@_1CC@JNJJDOOH@?$AAa?$AAt?$AAl?$AAT?$AAr?$AAa?$AAc?$AAe?$AAD?$AAB?$AAC?$AAl?$AAi?$AAe?$AAn@ 1008fc28     atls:stdafx.obj
 0002:00007c4c       ??_C@_1CG@MNMMIOOI@?$AAa?$AAt?$AAl?$AAT?$AAr?$AAa?$AAc?$AAe?$AAD?$AAB?$AAP?$AAr?$AAo?$AAv?$AAi@ 1008fc4c     atls:stdafx.obj
 0002:00007c74       ??_C@_1BO@EFPHNHHN@?$AAa?$AAt?$AAl?$AAT?$AAr?$AAa?$AAc?$AAe?$AAS?$AAn?$AAa?$AAp?$AAi?$AAn@ 1008fc74     atls:stdafx.obj
 0002:00007c94       ??_C@_1CA@DMHPIODO@?$AAa?$AAt?$AAl?$AAT?$AAr?$AAa?$AAc?$AAe?$AAN?$AAo?$AAt?$AAI?$AAm?$AAp?$AAl@ 1008fc94     atls:stdafx.obj
 0002:00007cb4       ??_C@_1CG@KFEEMCDH@?$AAa?$AAt?$AAl?$AAT?$AAr?$AAa?$AAc?$AAe?$AAA?$AAl?$AAl?$AAo?$AAc?$AAa?$AAt@ 1008fcb4     atls:stdafx.obj
 0002:00007cdc       ??_C@_1CE@IMMADNAP@?$AAa?$AAt?$AAl?$AAT?$AAr?$AAa?$AAc?$AAe?$AAE?$AAx?$AAc?$AAe?$AAp?$AAt?$AAi@ 1008fcdc     atls:stdafx.obj
 0002:00007d00       ??_C@_1BK@NCJHOFCL@?$AAa?$AAt?$AAl?$AAT?$AAr?$AAa?$AAc?$AAe?$AAT?$AAi?$AAm?$AAe@ 1008fd00     atls:stdafx.obj
 0002:00007d1c       ??_C@_1BM@GIKLHLFD@?$AAa?$AAt?$AAl?$AAT?$AAr?$AAa?$AAc?$AAe?$AAC?$AAa?$AAc?$AAh?$AAe@ 1008fd1c     atls:stdafx.obj
 0002:00007d38       ??_C@_1CA@PBPHANCD@?$AAa?$AAt?$AAl?$AAT?$AAr?$AAa?$AAc?$AAe?$AAS?$AAt?$AAe?$AAn?$AAc?$AAi?$AAl@ 1008fd38     atls:stdafx.obj
 0002:00007d58       ??_C@_1BO@GMLILNDJ@?$AAa?$AAt?$AAl?$AAT?$AAr?$AAa?$AAc?$AAe?$AAS?$AAt?$AAr?$AAi?$AAn?$AAg@ 1008fd58     atls:stdafx.obj
 0002:00007d78       ??_C@_1BI@OKDLCIEM@?$AAa?$AAt?$AAl?$AAT?$AAr?$AAa?$AAc?$AAe?$AAM?$AAa?$AAp@ 1008fd78     atls:stdafx.obj
 0002:00007d90       ??_C@_1BK@DMHCKHHD@?$AAa?$AAt?$AAl?$AAT?$AAr?$AAa?$AAc?$AAe?$AAU?$AAt?$AAi?$AAl@ 1008fd90     atls:stdafx.obj
 0002:00007dac       ??_C@_1CC@DMMBNCFG@?$AAa?$AAt?$AAl?$AAT?$AAr?$AAa?$AAc?$AAe?$AAS?$AAe?$AAc?$AAu?$AAr?$AAi?$AAt@ 1008fdac     atls:stdafx.obj
 0002:00007dd0       ??_C@_1BK@OPAPOCAL@?$AAa?$AAt?$AAl?$AAT?$AAr?$AAa?$AAc?$AAe?$AAS?$AAy?$AAn?$AAc@ 1008fdd0     atls:stdafx.obj
 0002:00007dec       ??_C@_1BM@FHAEDBFK@?$AAa?$AAt?$AAl?$AAT?$AAr?$AAa?$AAc?$AAe?$AAI?$AAS?$AAA?$AAP?$AAI@ 1008fdec     atls:stdafx.obj
 0002:00007e10       ?nothrow@std@@3Unothrow_t@1@B 1008fe10     LIBCMTD:std_nothrow.obj
 0002:00007e14       __pRawDllMain              1008fe14     LIBCMTD:dll_dllmain.obj
 0002:00007e14       __pDefaultRawDllMain       1008fe14     LIBCMTD:dll_dllmain.obj
 0002:00007eb8       ??_C@_0NN@JMPELKLB@The?5value?5of?5ESP?5was?5not?5proper@ 1008feb8     LIBCMTD:error.obj
 0002:00007f98       ??_C@_0BBN@ELNNILBE@A?5cast?5to?5a?5smaller?5data?5type?5h@ 1008ff98     LIBCMTD:error.obj
 0002:000080b8       ??_C@_0BN@BPOGFMJL@Stack?5memory?5was?5corrupted?$AN?6@ 100900b8     LIBCMTD:error.obj
 0002:000080d8       ??_C@_0DG@DAJCDLPN@A?5local?5variable?5was?5used?5befor@ 100900d8     LIBCMTD:error.obj
 0002:00008110       ??_C@_0CM@JMIDGKLA@Stack?5memory?5around?5_alloca?5was@ 10090110     LIBCMTD:error.obj
 0002:0000813c       ??_C@_0BO@CHIONIOI@Unknown?5Runtime?5Check?5Error?$AN?6@ 1009013c     LIBCMTD:error.obj
 0002:00008160       ??_C@_1GM@CNOOJIHC@?$AAR?$AAu?$AAn?$AAt?$AAi?$AAm?$AAe?$AA?5?$AAC?$AAh?$AAe?$AAc?$AAk?$AA?5?$AAE@ 10090160     LIBCMTD:error.obj
 0002:000081d0       ??_C@_1EA@NFKNIFJP@?$AAR?$AAu?$AAn?$AA?9?$AAT?$AAi?$AAm?$AAe?$AA?5?$AAC?$AAh?$AAe?$AAc?$AAk?$AA?5@ 100901d0     LIBCMTD:error.obj
 0002:00008210       ??_C@_0BB@PFFGGCJP@Unknown?5Filename@ 10090210     LIBCMTD:error.obj
 0002:00008224       ??_C@_0BE@GNBOBNCK@Unknown?5Module?5Name@ 10090224     LIBCMTD:error.obj
 0002:00008238       ??_C@_0CA@IODNCDPG@Run?9Time?5Check?5Failure?5?$CD?$CFd?5?9?5?$CFs@ 10090238     LIBCMTD:error.obj
 0002:00008258       ??_C@_0CG@IAFNJNEE@Stack?5corrupted?5near?5unknown?5va@ 10090258     LIBCMTD:error.obj
 0002:00008280       ??_C@_05MKKEDADM@?$CF?42X?5@ 10090280     LIBCMTD:error.obj
 0002:00008288       ??_C@_0EJ@LJKNEOLN@Stack?5area?5around?5_alloca?5memor@ 10090288     LIBCMTD:error.obj
 0002:000082d4       ??_C@_01EEMJAFIK@?6@       100902d4     LIBCMTD:error.obj
 0002:000082d8       ??_C@_02LLMPMKNF@?$DO?5@   100902d8     LIBCMTD:error.obj
 0002:000082dc       ??_C@_08OMAHNMHJ@?6Data?3?5?$DM@ 100902dc     LIBCMTD:error.obj
 0002:000082e8       ??_C@_0CK@DKGBICFE@?6Allocation?5number?5within?5this?5@ 100902e8     LIBCMTD:error.obj
 0002:00008314       ??_C@_07DFDJCKFN@?6Size?3?5@ 10090314     LIBCMTD:error.obj
 0002:0000831c       ??_C@_0N@MHFFIMFG@?6Address?3?50x@ 1009031c     LIBCMTD:error.obj
 0002:00008330       ??_C@_0EI@CLEPFNGI@Stack?5area?5around?5_alloca?5memor@ 10090330     LIBCMTD:error.obj
 0002:00008378       ??_C@_0BK@ODNDAGKB@?$CFs?$CFs?$CFp?$CFs?$CFzd?$CFs?$CFd?$CFs?$CFs?$CFs?$CFs?$CFs@ 10090378     LIBCMTD:error.obj
 0002:00008394       ??_C@_0DE@OHJBPMBP@A?5variable?5is?5being?5used?5withou@ 10090394     LIBCMTD:error.obj
 0002:000083dc       ??_C@_0BJ@HEGAHDFO@Stack?5pointer?5corruption@ 100903dc     LIBCMTD:userapi.obj
 0002:000083f8       ??_C@_0CK@FEGOIOPB@Cast?5to?5smaller?5type?5causing?5lo@ 100903f8     LIBCMTD:userapi.obj
 0002:00008424       ??_C@_0BI@CIGMDCBH@Stack?5memory?5corruption@ 10090424     LIBCMTD:userapi.obj
 0002:0000843c       ??_C@_0CK@CNLNOEPB@Local?5variable?5used?5before?5init@ 1009043c     LIBCMTD:userapi.obj
 0002:00008468       ??_C@_0BP@OGBCLIBO@Stack?5around?5_alloca?5corrupted@ 10090468     LIBCMTD:userapi.obj
 0002:000084d0       ??_C@_1EI@MLPKHBGE@?$AAa?$AAp?$AAi?$AA?9?$AAm?$AAs?$AA?9?$AAw?$AAi?$AAn?$AA?9?$AAc?$AAo?$AAr?$AAe@ 100904d0     LIBCMTD:pdblkup.obj
 0002:00008518       ??_C@_1BK@JHLNAEJL@?$AAa?$AAd?$AAv?$AAa?$AAp?$AAi?$AA3?$AA2?$AA?4?$AAd?$AAl?$AAl@ 10090518     LIBCMTD:pdblkup.obj
 0002:00008534       ??_C@_0O@COHOBMLB@RegOpenKeyExW@ 10090534     LIBCMTD:pdblkup.obj
 0002:00008544       ??_C@_0BB@GLNAEDBD@RegQueryValueExW@ 10090544     LIBCMTD:pdblkup.obj
 0002:00008558       ??_C@_0M@HLOHPNFA@RegCloseKey@ 10090558     LIBCMTD:pdblkup.obj
 0002:00008568       ??_C@_1HE@EBEAGLFB@?$AAS?$AAO?$AAF?$AAT?$AAW?$AAA?$AAR?$AAE?$AA?2?$AAW?$AAo?$AAw?$AA6?$AA4?$AA3@ 10090568     LIBCMTD:pdblkup.obj
 0002:000085dc       ??_C@_1BG@EABPBLLF@?$AAP?$AAr?$AAo?$AAd?$AAu?$AAc?$AAt?$AAD?$AAi?$AAr@ 100905dc     LIBCMTD:pdblkup.obj
 0002:00008610       ??_C@_1BC@JINFINNJ@?$AAM?$AAS?$AAP?$AAD?$AAB?$AA1?$AA4?$AA0@ 10090610     LIBCMTD:pdblkup.obj
 0002:00008624       ??_C@_0BB@KCIACLNC@PDBOpenValidate5@ 10090624     LIBCMTD:pdblkup.obj
 0002:00008638       ??_C@_01KDCPPGHE@r@        10090638     LIBCMTD:pdblkup.obj
 0002:00008640       ??_7exception@std@@6B@     10090640     LIBCMTD:throw_bad_alloc.obj
 0002:00008648       ??_C@_0BC@EOODALEL@Unknown?5exception@ 10090648     LIBCMTD:throw_bad_alloc.obj
 0002:00008660       ??_7bad_alloc@std@@6B@     10090660     LIBCMTD:throw_bad_alloc.obj
 0002:00008668       ??_C@_0P@GHFPNOJB@bad?5allocation@ 10090668     LIBCMTD:throw_bad_alloc.obj
 0002:0000867c       ??_7bad_array_new_length@std@@6B@ 1009067c     LIBCMTD:throw_bad_alloc.obj
 0002:00008684       ??_C@_0BF@KINCDENJ@bad?5array?5new?5length@ 10090684     LIBCMTD:throw_bad_alloc.obj
 0002:000086a0       ??_7type_info@@6B@         100906a0     LIBCMTD:std_type_info_static.obj
 0002:000086a4       __pDestructExceptionObject 100906a4     libvcruntimed:ehhelpers.obj
 0002:000086a8       ??_C@_0EH@HLGJAEFB@d?3?2agent?2_work?257?2s?2src?2vctools@ 100906a8     libvcruntimed:std_type_info.obj
 0002:000086f0       ??_C@_1FK@OACNEHHA@?$AAt?$AAo?$AA?9?$AA?$DO?$AA_?$AAW?$AAh?$AAa?$AAt?$AA?5?$AA?$DN?$AA?$DN?$AA?5?$AAn?$AAu@ 100906f0     libvcruntimed:std_exception.obj
 0002:00008750       ??_C@_1IO@BBDBDODK@?$AAd?$AA?3?$AA?2?$AAa?$AAg?$AAe?$AAn?$AAt?$AA?2?$AA_?$AAw?$AAo?$AAr?$AAk?$AA?2@ 10090750     libvcruntimed:std_exception.obj
 0002:000087e0       ??_C@_0EP@LNOKHKLD@d?3?2agent?2_work?257?2s?2src?2vctools@ 100907e0     libvcruntimed:per_thread_data.obj
 0002:00008834       ??_7bad_exception@std@@6B@ 10090834     libvcruntimed:frame.obj
 0002:0000883c       ??_C@_0O@DPKOEFFH@bad?5exception@ 1009083c     libvcruntimed:frame.obj
 0002:00008bd0       ??_C@_08EHJDFFNH@__based?$CI@ 10090bd0     libvcruntimed:undname.obj
 0002:00008bdc       ??_C@_07KOLFKCDI@__cdecl@  10090bdc     libvcruntimed:undname.obj
 0002:00008be4       ??_C@_08GHMPAG@__pascal@   10090be4     libvcruntimed:undname.obj
 0002:00008bf0       ??_C@_09IFJBGAPI@__stdcall@ 10090bf0     libvcruntimed:undname.obj
 0002:00008bfc       ??_C@_0L@NPHFGOKO@__thiscall@ 10090bfc     libvcruntimed:undname.obj
 0002:00008c08       ??_C@_0L@JMKHOMEK@__fastcall@ 10090c08     libvcruntimed:undname.obj
 0002:00008c14       ??_C@_0N@BCKKPABJ@__vectorcall@ 10090c14     libvcruntimed:undname.obj
 0002:00008c24       ??_C@_09HIJEGCPM@__clrcall@ 10090c24     libvcruntimed:undname.obj
 0002:00008c30       ??_C@_06GHPCKEAG@__eabi@   10090c30     libvcruntimed:undname.obj
 0002:00008c38       ??_C@_09IOPIDJLG@__swift_1@ 10090c38     libvcruntimed:undname.obj
 0002:00008c44       ??_C@_09KFNFGKHF@__swift_2@ 10090c44     libvcruntimed:undname.obj
 0002:00008c50       ??_C@_07JOMMBBKO@__ptr64@  10090c50     libvcruntimed:undname.obj
 0002:00008c58       ??_C@_0L@PILCLIHE@__restrict@ 10090c58     libvcruntimed:undname.obj
 0002:00008c64       ??_C@_0M@GFIIJFMG@__unaligned@ 10090c64     libvcruntimed:undname.obj
 0002:00008c70       ??_C@_09DHDLOLLB@restrict?$CI@ 10090c70     libvcruntimed:undname.obj
 0002:00008c7a       ??_C@_00CNPNBAHC@@         10090c7a     libvcruntimed:undname.obj
 0002:00008c7c       ??_C@_04NIHEBCM@?5new@     10090c7c     libvcruntimed:undname.obj
 0002:00008c84       ??_C@_07FPCDHGMM@?5delete@ 10090c84     libvcruntimed:undname.obj
 0002:00008c8c       ??_C@_01NEMOKFLO@?$DN@     10090c8c     libvcruntimed:undname.obj
 0002:00008c90       ??_C@_02GPIOPFAK@?$DO?$DO@ 10090c90     libvcruntimed:undname.obj
 0002:00008c94       ??_C@_02FODMEDOG@?$DM?$DM@ 10090c94     libvcruntimed:undname.obj
 0002:00008c98       ??_C@_01DCLJPIOD@?$CB@     10090c98     libvcruntimed:undname.obj
 0002:00008c9c       ??_C@_02EGOFBIJA@?$DN?$DN@ 10090c9c     libvcruntimed:undname.obj
 0002:00008ca0       ??_C@_02FDNJECIE@?$CB?$DN@ 10090ca0     libvcruntimed:undname.obj
 0002:00008ca4       ??_C@_02GPECMEKF@?$FL?$FN@ 10090ca4     libvcruntimed:undname.obj
 0002:00008ca8       ??_C@_08LHJFAFGD@operator@ 10090ca8     libvcruntimed:undname.obj
 0002:00008cb4       ??_C@_02HBOOOICD@?9?$DO@   10090cb4     libvcruntimed:undname.obj
 0002:00008cb8       ??_C@_01NBENCBCI@?$CK@     10090cb8     libvcruntimed:undname.obj
 0002:00008cbc       ??_C@_02ECNGHCIF@?$CL?$CL@ 10090cbc     libvcruntimed:undname.obj
 0002:00008cc0       ??_C@_02BAABKJLB@?9?9@     10090cc0     libvcruntimed:undname.obj
 0002:00008cc4       ??_C@_01JOAMLHOP@?9@       10090cc4     libvcruntimed:undname.obj
 0002:00008cc8       ??_C@_01MIFGBAGJ@?$CL@     10090cc8     libvcruntimed:undname.obj
 0002:00008ccc       ??_C@_01HNPIGOCE@?$CG@     10090ccc     libvcruntimed:undname.obj
 0002:00008cd0       ??_C@_03MNHNFDLC@?9?$DO?$CK@ 10090cd0     libvcruntimed:undname.obj
 0002:00008cd4       ??_C@_01KMDKNFGN@?1@       10090cd4     libvcruntimed:undname.obj
 0002:00008cd8       ??_C@_01FGNFDNOH@?$CF@     10090cd8     libvcruntimed:undname.obj
 0002:00008cdc       ??_C@_01MNNFJEPP@?$DM@     10090cdc     libvcruntimed:undname.obj
 0002:00008ce0       ??_C@_02EHCHHCKH@?$DM?$DN@ 10090ce0     libvcruntimed:undname.obj
 0002:00008ce4       ??_C@_01PPODPGHN@?$DO@     10090ce4     libvcruntimed:undname.obj
 0002:00008ce8       ??_C@_02EEKDKGMJ@?$DO?$DN@ 10090ce8     libvcruntimed:undname.obj
 0002:00008cec       ??_C@_01IHBHIGKO@?0@       10090cec     libvcruntimed:undname.obj
 0002:00008cf0       ??_C@_02HCKGKOFO@?$CI?$CJ@ 10090cf0     libvcruntimed:undname.obj
 0002:00008cf4       ??_C@_01PJKLJHI@?$HO@      10090cf4     libvcruntimed:undname.obj
 0002:00008cf8       ??_C@_01JKBOJNNK@?$FO@     10090cf8     libvcruntimed:undname.obj
 0002:00008cfc       ??_C@_01DNKMNLPK@?$HM@     10090cfc     libvcruntimed:undname.obj
 0002:00008d00       ??_C@_02PPKAJPJL@?$CG?$CG@ 10090d00     libvcruntimed:undname.obj
 0002:00008d04       ??_C@_02NONPIBCD@?$HM?$HM@ 10090d04     libvcruntimed:undname.obj
 0002:00008d08       ??_C@_02FPIMKNGF@?$CK?$DN@ 10090d08     libvcruntimed:undname.obj
 0002:00008d0c       ??_C@_02FOEOMHFC@?$CL?$DN@ 10090d0c     libvcruntimed:undname.obj
 0002:00008d10       ??_C@_02FKMDLLOA@?9?$DN@   10090d10     libvcruntimed:undname.obj
 0002:00008d14       ??_C@_02FJEHGPIO@?1?$DN@   10090d14     libvcruntimed:undname.obj
 0002:00008d18       ??_C@_02FENAOKFI@?$CF?$DN@ 10090d18     libvcruntimed:undname.obj
 0002:00008d1c       ??_C@_03IKFCCPFF@?$DO?$DO?$DN@ 10090d1c     libvcruntimed:undname.obj
 0002:00008d20       ??_C@_03CDNPDDLA@?$DM?$DM?$DN@ 10090d20     libvcruntimed:undname.obj
 0002:00008d24       ??_C@_02FGJGFEAB@?$CG?$DN@ 10090d24     libvcruntimed:undname.obj
 0002:00008d28       ??_C@_02DHLNPPGH@?$HM?$DN@ 10090d28     libvcruntimed:undname.obj
 0002:00008d2c       ??_C@_02MHEGNOJ@?$FO?$DN@  10090d2c     libvcruntimed:undname.obj
 0002:00008d30       ??_C@_09IFPLHPGF@?$GAvftable?8@ 10090d30     libvcruntimed:undname.obj
 0002:00008d3c       ??_C@_09BLBHBJP@?$GAvbtable?8@ 10090d3c     libvcruntimed:undname.obj
 0002:00008d48       ??_C@_07FEEIOKP@?$GAvcall?8@ 10090d48     libvcruntimed:undname.obj
 0002:00008d50       ??_C@_08LLFFHHDJ@?$GAtypeof?8@ 10090d50     libvcruntimed:undname.obj
 0002:00008d5c       ??_C@_0BF@KDPPACIK@?$GAlocal?5static?5guard?8@ 10090d5c     libvcruntimed:undname.obj
 0002:00008d74       ??_C@_08OBABFOLI@?$GAstring?8@ 10090d74     libvcruntimed:undname.obj
 0002:00008d80       ??_C@_0BD@JDLKDPAB@?$GAvbase?5destructor?8@ 10090d80     libvcruntimed:undname.obj
 0002:00008d94       ??_C@_0BN@DEGPLNFK@?$GAvector?5deleting?5destructor?8@ 10090d94     libvcruntimed:undname.obj
 0002:00008db4       ??_C@_0BO@OBMKPJIG@?$GAdefault?5constructor?5closure?8@ 10090db4     libvcruntimed:undname.obj
 0002:00008dd4       ??_C@_0BN@IMDCHIKM@?$GAscalar?5deleting?5destructor?8@ 10090dd4     libvcruntimed:undname.obj
 0002:00008df4       ??_C@_0BO@PFGOCPJJ@?$GAvector?5constructor?5iterator?8@ 10090df4     libvcruntimed:undname.obj
 0002:00008e14       ??_C@_0BN@LFPFMEDL@?$GAvector?5destructor?5iterator?8@ 10090e14     libvcruntimed:undname.obj
 0002:00008e34       ??_C@_0CE@IKBNEHA@?$GAvector?5vbase?5constructor?5itera@ 10090e34     libvcruntimed:undname.obj
 0002:00008e58       ??_C@_0BL@NILFHHPC@?$GAvirtual?5displacement?5map?8@ 10090e58     libvcruntimed:undname.obj
 0002:00008e74       ??_C@_0CB@JONCMFFK@?$GAeh?5vector?5constructor?5iterator@ 10090e74     libvcruntimed:undname.obj
 0002:00008e98       ??_C@_0CA@GCEOPDGL@?$GAeh?5vector?5destructor?5iterator?8@ 10090e98     libvcruntimed:undname.obj
 0002:00008eb8       ??_C@_0CH@OOJPLCPH@?$GAeh?5vector?5vbase?5constructor?5it@ 10090eb8     libvcruntimed:undname.obj
 0002:00008ee0       ??_C@_0BL@LLKPOHJI@?$GAcopy?5constructor?5closure?8@ 10090ee0     libvcruntimed:undname.obj
 0002:00008efc       ??_C@_0BA@KBCDOMBN@?$GAudt?5returning?8@ 10090efc     libvcruntimed:undname.obj
 0002:00008f0c       ??_C@_03KLGMFNMG@?$GAEH@   10090f0c     libvcruntimed:undname.obj
 0002:00008f10       ??_C@_05KHLCHHI@?$GARTTI@  10090f10     libvcruntimed:undname.obj
 0002:00008f18       ??_C@_0BA@KKLDJDLB@?$GAlocal?5vftable?8@ 10090f18     libvcruntimed:undname.obj
 0002:00008f28       ??_C@_0CE@IIHCMGGL@?$GAlocal?5vftable?5constructor?5clos@ 10090f28     libvcruntimed:undname.obj
 0002:00008f4c       ??_C@_06FHBGPFGH@?5new?$FL?$FN@ 10090f4c     libvcruntimed:undname.obj
 0002:00008f54       ??_C@_09LBNFPBCA@?5delete?$FL?$FN@ 10090f54     libvcruntimed:undname.obj
 0002:00008f60       ??_C@_0P@HJKNJFNN@?$GAomni?5callsig?8@ 10090f60     libvcruntimed:undname.obj
 0002:00008f70       ??_C@_0BL@CNOONJFP@?$GAplacement?5delete?5closure?8@ 10090f70     libvcruntimed:undname.obj
 0002:00008f8c       ??_C@_0BN@CKNJLHMB@?$GAplacement?5delete?$FL?$FN?5closure?8@ 10090f8c     libvcruntimed:undname.obj
 0002:00008fac       ??_C@_0CG@CFDHKGGD@?$GAmanaged?5vector?5constructor?5ite@ 10090fac     libvcruntimed:undname.obj
 0002:00008fd4       ??_C@_0CF@IMGKMJNO@?$GAmanaged?5vector?5destructor?5iter@ 10090fd4     libvcruntimed:undname.obj
 0002:00008ffc       ??_C@_0CG@HLDDJMAG@?$GAeh?5vector?5copy?5constructor?5ite@ 10090ffc     libvcruntimed:undname.obj
 0002:00009024       ??_C@_0CM@FCBBDIGB@?$GAeh?5vector?5vbase?5copy?5construct@ 10091024     libvcruntimed:undname.obj
 0002:00009050       ??_C@_0BL@CLIPGLGB@?$GAdynamic?5initializer?5for?5?8@ 10091050     libvcruntimed:undname.obj
 0002:0000906c       ??_C@_0CB@PDBIFEP@?$GAdynamic?5atexit?5destructor?5for?5@ 1009106c     libvcruntimed:undname.obj
 0002:00009090       ??_C@_0CD@CGAJBKEJ@?$GAvector?5copy?5constructor?5iterat@ 10091090     libvcruntimed:undname.obj
 0002:000090b4       ??_C@_0CJ@GJELGAMM@?$GAvector?5vbase?5copy?5constructor?5@ 100910b4     libvcruntimed:undname.obj
 0002:000090e0       ??_C@_0CL@FGIJHLCE@?$GAmanaged?5vector?5copy?5constructo@ 100910e0     libvcruntimed:undname.obj
 0002:0000910c       ??_C@_0BM@PMGGMLDN@?$GAlocal?5static?5thread?5guard?8@ 1009110c     libvcruntimed:undname.obj
 0002:00009128       ??_C@_0N@BDNMDMOL@operator?5?$CC?$CC?5@ 10091128     libvcruntimed:undname.obj
 0002:00009138       ??_C@_0BC@GGEBGALA@operator?5co_await@ 10091138     libvcruntimed:undname.obj
 0002:0000914c       ??_C@_0M@GAAIMMOH@operator?$DM?$DN?$DO@ 1009114c     libvcruntimed:undname.obj
 0002:00009158       ??_C@_0BC@DAFEJGAK@?5Type?5Descriptor?8@ 10091158     libvcruntimed:undname.obj
 0002:0000916c       ??_C@_0BM@LDKODKLH@?5Base?5Class?5Descriptor?5at?5?$CI@ 1009116c     libvcruntimed:undname.obj
 0002:00009188       ??_C@_0BD@LGICGFMM@?5Base?5Class?5Array?8@ 10091188     libvcruntimed:undname.obj
 0002:0000919c       ??_C@_0BN@MECKDCOJ@?5Class?5Hierarchy?5Descriptor?8@ 1009119c     libvcruntimed:undname.obj
 0002:000091bc       ??_C@_0BK@CFCOFLF@?5Complete?5Object?5Locator?8@ 100911bc     libvcruntimed:undname.obj
 0002:000091d8       ??_C@_0BG@JNJLAMPM@?$GAanonymous?5namespace?8@ 100911d8     libvcruntimed:undname.obj
 0002:000091ee       ?in_place@std@@3Uin_place_t@1@B 100911ee     libvcruntimed:undname.obj
 0002:000091f0       ??_C@_04HEJADOOB@CV?3?5@   100911f0     libvcruntimed:undname.obj
 0002:000091f8       ??_C@_03GDILBHBJ@$$h@      100911f8     libvcruntimed:undname.obj
 0002:000091fc       ??_C@_02MOLJINC@?3?3@      100911fc     libvcruntimed:undname.obj
 0002:00009200       ??_C@_0BE@JAEOCHPE@template?9parameter?9@ 10091200     libvcruntimed:undname.obj
 0002:00009214       ??_C@_0BF@LNLGBBNL@?$GAtemplate?9parameter?9@ 10091214     libvcruntimed:undname.obj
 0002:0000922c       ??_C@_0O@KHGCOMHP@generic?9type?9@ 1009122c     libvcruntimed:undname.obj
 0002:0000923c       ??_C@_0P@ODDENDLM@?$GAgeneric?9type?9@ 1009123c     libvcruntimed:undname.obj
 0002:0000924c       ??_C@_02OHHJMEON@?8?8@     1009124c     libvcruntimed:undname.obj
 0002:00009250       ??_C@_0BN@IBLMMFAP@?$GAnon?9type?9template?9parameter@ 10091250     libvcruntimed:undname.obj
 0002:00009270       ??_C@_03DLDNIBIK@?$CFlf@   10091270     libvcruntimed:undname.obj
 0002:00009274       ??_C@_04OFALKAJ@?$DP?$DP_C@ 10091274     libvcruntimed:undname.obj
 0002:0000927c       ??_C@_03KHICJKCI@?4?4?4@   1009127c     libvcruntimed:undname.obj
 0002:00009280       ??_C@_04HIBGFPH@NULL@      10091280     libvcruntimed:undname.obj
 0002:00009288       ??_C@_02DPKJAMEF@?$CFd@    10091288     libvcruntimed:undname.obj
 0002:0000928c       ??_C@_0BK@IHCCFNEL@?$GAtemplate?9type?9parameter?9@ 1009128c     libvcruntimed:undname.obj
 0002:000092a8       ??_C@_0BK@OFCNNNKO@?$GAgeneric?9class?9parameter?9@ 100912a8     libvcruntimed:undname.obj
 0002:000092c4       ??_C@_0BL@NGJBLFIL@?$GAgeneric?9method?9parameter?9@ 100912c4     libvcruntimed:undname.obj
 0002:000092e0       ??_C@_04GKJNKENE@void@     100912e0     libvcruntimed:undname.obj
 0002:000092e8       ??_C@_0BE@EODMJLIF@?$GAtemplate?9parameter@ 100912e8     libvcruntimed:undname.obj
 0002:000092fc       ??_C@_03OPGICMGF@?$HN?8?5@ 100912fc     libvcruntimed:undname.obj
 0002:00009300       ??_C@_02IGFCGPIL@?$HN?8@   10091300     libvcruntimed:undname.obj
 0002:00009304       ??_C@_0N@CBHHHENL@?$GAvtordispex?$HL@ 10091304     libvcruntimed:undname.obj
 0002:00009314       ??_C@_0L@GHPFDFH@?$GAvtordisp?$HL@ 10091314     libvcruntimed:undname.obj
 0002:00009320       ??_C@_0L@HNGCOGAE@?$GAadjustor?$HL@ 10091320     libvcruntimed:undname.obj
 0002:0000932c       ??_C@_0CB@KJDOOODE@?$GAlocal?5static?5destructor?5helper@ 1009132c     libvcruntimed:undname.obj
 0002:00009350       ??_C@_0DB@ILEFOCIJ@?$GAtemplate?5static?5data?5member?5co@ 10091350     libvcruntimed:undname.obj
 0002:00009384       ??_C@_0DA@HGFJFBBE@?$GAtemplate?5static?5data?5member?5de@ 10091384     libvcruntimed:undname.obj
 0002:000093b4       ??_C@_07PGOEDBHP@static?5@ 100913b4     libvcruntimed:undname.obj
 0002:000093bc       ??_C@_08NIEOINHE@virtual?5@ 100913bc     libvcruntimed:undname.obj
 0002:000093c8       ??_C@_09LAPHOOG@private?3?5@ 100913c8     libvcruntimed:undname.obj
 0002:000093d4       ??_C@_0M@GAIFPFIP@protected?3?5@ 100913d4     libvcruntimed:undname.obj
 0002:000093e0       ??_C@_08GPDDCMKI@public?3?5@ 100913e0     libvcruntimed:undname.obj
 0002:000093ec       ??_C@_08KJLFOPNE@?$FLthunk?$FN?3@ 100913ec     libvcruntimed:undname.obj
 0002:000093f8       ??_C@_0M@DHNBOJMP@extern?5?$CCC?$CC?5@ 100913f8     libvcruntimed:undname.obj
 0002:00009404       ??_C@_02KCKGHPCA@?$CJ?5@   10091404     libvcruntimed:undname.obj
 0002:00009408       ??_C@_05CIHEBHNO@char?5@   10091408     libvcruntimed:undname.obj
 0002:00009410       ??_C@_06EHJMALKF@short?5@  10091410     libvcruntimed:undname.obj
 0002:00009418       ??_C@_04LAHKHJMA@int?5@    10091418     libvcruntimed:undname.obj
 0002:00009420       ??_C@_05CJIMAING@long?5@   10091420     libvcruntimed:undname.obj
 0002:00009428       ??_C@_09EBBEKKIH@unsigned?5@ 10091428     libvcruntimed:undname.obj
 0002:00009434       ??_C@_05BEFAKPML@void?5@   10091434     libvcruntimed:undname.obj
 0002:0000943c       ??_C@_09GAIEOBLP@volatile?5@ 1009143c     libvcruntimed:undname.obj
 0002:00009448       ??_C@_08PABEKFH@volatile@  10091448     libvcruntimed:undname.obj
 0002:00009454       ??_C@_0BA@LKIJLKPP@std?3?3nullptr_t?5@ 10091454     libvcruntimed:undname.obj
 0002:00009464       ??_C@_0P@GCOCNKDM@std?3?3nullptr_t@ 10091464     libvcruntimed:undname.obj
 0002:00009474       ??_C@_0L@EGPHHEKN@?$DMellipsis?$DO@ 10091474     libvcruntimed:undname.obj
 0002:00009480       ??_C@_04EENFHACM@?0?4?4?4@ 10091480     libvcruntimed:undname.obj
 0002:00009488       ??_C@_0M@ELJOJFFH@?0?$DMellipsis?$DO@ 10091488     libvcruntimed:undname.obj
 0002:00009494       ??_C@_09DNHFEOJI@?5noexcept@ 10091494     libvcruntimed:undname.obj
 0002:000094a0       ??_C@_03PBJBJNON@cpu@      100914a0     libvcruntimed:undname.obj
 0002:000094a4       ??_C@_03DCBBJBAA@amp@      100914a4     libvcruntimed:undname.obj
 0002:000094a8       ??_C@_02KEGNLNML@?0?5@     100914a8     libvcruntimed:undname.obj
 0002:000094ac       ??_C@_04ENMBGAPA@char@     100914ac     libvcruntimed:undname.obj
 0002:000094b4       ??_C@_05BFKKPKCG@short@    100914b4     libvcruntimed:undname.obj
 0002:000094bc       ??_C@_03JBIPMCLC@int@      100914bc     libvcruntimed:undname.obj
 0002:000094c0       ??_C@_04GOKPGOLB@long@     100914c0     libvcruntimed:undname.obj
 0002:000094c8       ??_C@_05KNFBNCOH@float@    100914c8     libvcruntimed:undname.obj
 0002:000094d0       ??_C@_06BNJCAIGJ@double@   100914d0     libvcruntimed:undname.obj
 0002:000094d8       ??_C@_04DDKJGDCM@bool@     100914d8     libvcruntimed:undname.obj
 0002:000094e0       ??_C@_06EBGKOKIG@__int8@   100914e0     libvcruntimed:undname.obj
 0002:000094e8       ??_C@_07ICFHOGAF@__int16@  100914e8     libvcruntimed:undname.obj
 0002:000094f0       ??_C@_07OFLPPHGP@__int32@  100914f0     libvcruntimed:undname.obj
 0002:000094f8       ??_C@_07LFCOJCAC@__int64@  100914f8     libvcruntimed:undname.obj
 0002:00009500       ??_C@_08GAHOLHEO@__int128@ 10091500     libvcruntimed:undname.obj
 0002:0000950c       ??_C@_09EEKGDCPH@?$DMunknown?$DO@ 1009150c     libvcruntimed:undname.obj
 0002:00009518       ??_C@_07CFHGOPCN@char8_t@  10091518     libvcruntimed:undname.obj
 0002:00009520       ??_C@_08HBIPOFJB@char16_t@ 10091520     libvcruntimed:undname.obj
 0002:0000952c       ??_C@_08IECNCBKG@char32_t@ 1009152c     libvcruntimed:undname.obj
 0002:00009538       ??_C@_07CLGGIAMF@wchar_t@  10091538     libvcruntimed:undname.obj
 0002:00009540       ??_C@_06GCICPBLB@__w64?5@  10091540     libvcruntimed:undname.obj
 0002:00009548       ??_C@_07NFANNNEC@UNKNOWN@  10091548     libvcruntimed:undname.obj
 0002:00009550       ??_C@_07EDHNAJHC@signed?5@ 10091550     libvcruntimed:undname.obj
 0002:00009558       ??_C@_05BNCCCJPP@const@    10091558     libvcruntimed:undname.obj
 0002:00009560       ??_C@_09EFNPDFFP@?5volatile@ 10091560     libvcruntimed:undname.obj
 0002:0000956c       ??_C@_0P@GCIFDJCJ@?$GAunknown?5ecsu?8@ 1009156c     libvcruntimed:undname.obj
 0002:0000957c       ??_C@_06MOJHIBMG@union?5@  1009157c     libvcruntimed:undname.obj
 0002:00009584       ??_C@_07DIBCDNGL@struct?5@ 10091584     libvcruntimed:undname.obj
 0002:0000958c       ??_C@_06LJBABKPM@class?5@  1009158c     libvcruntimed:undname.obj
 0002:00009594       ??_C@_08KOFANOFK@coclass?5@ 10091594     libvcruntimed:undname.obj
 0002:000095a0       ??_C@_0N@DLIEFKNA@cointerface?5@ 100915a0     libvcruntimed:undname.obj
 0002:000095b0       ??_C@_05LJGMCFOG@enum?5@   100915b0     libvcruntimed:undname.obj
 0002:000095b8       ??_C@_06LIJLOJAG@const?5@  100915b8     libvcruntimed:undname.obj
 0002:000095c0       ??_C@_02KJPKDIBN@?$CG?5@   100915c0     libvcruntimed:undname.obj
 0002:000095c4       ??_C@_03PCKGMOPB@?$CG?$CG?5@ 100915c4     libvcruntimed:undname.obj
 0002:000095c8       ??_C@_0M@EALIELKG@cli?3?3array?$DM@ 100915c8     libvcruntimed:undname.obj
 0002:000095d4       ??_C@_0O@GKABPPIF@cli?3?3pin_ptr?$DM@ 100915d4     libvcruntimed:undname.obj
 0002:000095e4       ??_C@_02GOGNNPBN@?$CJ?$FL@ 100915e4     libvcruntimed:undname.obj
 0002:000095e8       ??_C@_06EEGAIFAK@?$HLflat?$HN@ 100915e8     libvcruntimed:undname.obj
 0002:000095f0       ??_C@_05JIBOFOHK@?$HLfor?5@ 100915f0     libvcruntimed:undname.obj
 0002:000095f8       ??_C@_02MDINNEEG@s?5@      100915f8     libvcruntimed:undname.obj
 0002:00009600       ??_7DNameNode@@6B@         10091600     libvcruntimed:undname.obj
 0002:00009614       ??_7charNode@@6B@          10091614     libvcruntimed:undname.obj
 0002:00009628       ??_7pcharNode@@6B@         10091628     libvcruntimed:undname.obj
 0002:0000963c       ??_7pDNameNode@@6B@        1009163c     libvcruntimed:undname.obj
 0002:00009650       ??_7DNameStatusNode@@6B@   10091650     libvcruntimed:undname.obj
 0002:00009664       ??_7pairNode@@6B@          10091664     libvcruntimed:undname.obj
 0002:00009778       ??_C@_04OKOHEJBO@?5?$DP?$DP?5@ 10091778     libvcruntimed:undname.obj
 0002:00009780       ?nodes@?1??make@DNameStatusNode@@SAPBV2@W4DNameStatus@@@Z@4QBV2@B 10091780     libvcruntimed:undname.obj
 0002:000097bc       ??_C@_1DM@KHCHBNEB@?$AAa?$AAp?$AAi?$AA?9?$AAm?$AAs?$AA?9?$AAw?$AAi?$AAn?$AA?9?$AAc?$AAo?$AAr?$AAe@ 100917bc     libvcruntimed:winapi_downlevel.obj
 0002:000097f8       ??_C@_1DK@LPPGFMPP@?$AAa?$AAp?$AAi?$AA?9?$AAm?$AAs?$AA?9?$AAw?$AAi?$AAn?$AA?9?$AAc?$AAo?$AAr?$AAe@ 100917f8     libvcruntimed:winapi_downlevel.obj
 0002:00009834       ??_C@_1BC@GDMECMAK@?$AAk?$AAe?$AAr?$AAn?$AAe?$AAl?$AA3?$AA2@ 10091834     libvcruntimed:winapi_downlevel.obj
 0002:00009848       ??_C@_1BA@PFFKHIOG@?$AAa?$AAp?$AAi?$AA?9?$AAm?$AAs?$AA?9@ 10091848     libvcruntimed:winapi_downlevel.obj
 0002:00009858       ??_C@_1EM@LBIFGLGH@?$AAc?$AAa?$AAc?$AAh?$AAe?$AAd?$AA_?$AAh?$AAa?$AAn?$AAd?$AAl?$AAe?$AA?5?$AA?$DN@ 10091858     libvcruntimed:winapi_downlevel.obj
 0002:000098a8       ??_C@_1KA@OMADIJHE@?$AAd?$AA?3?$AA?2?$AAa?$AAg?$AAe?$AAn?$AAt?$AA?2?$AA_?$AAw?$AAo?$AAr?$AAk?$AA?2@ 100918a8     libvcruntimed:winapi_downlevel.obj
 0002:00009948       ??_C@_1DI@MAHEDLDB@?$AAc?$AAa?$AAc?$AAh?$AAe?$AAd?$AA_?$AAh?$AAa?$AAn?$AAd?$AAl?$AAe?$AA?5?$AA?$DN@ 10091948     libvcruntimed:winapi_downlevel.obj
 0002:00009980       ??_C@_1FC@IBNCGNKL@?$AAc?$AAa?$AAc?$AAh?$AAe?$AAd?$AA_?$AAf?$AAp?$AA?5?$AA?$DN?$AA?$DN?$AA?5?$AAi?$AAn@ 10091980     libvcruntimed:winapi_downlevel.obj
 0002:000099d4       ??_C@_1CI@GDJBAGLP@?$AAc?$AAa?$AAc?$AAh?$AAe?$AAd?$AA_?$AAf?$AAp?$AA?5?$AA?$DN?$AA?$DN?$AA?5?$AAn?$AAe@ 100919d4     libvcruntimed:winapi_downlevel.obj
 0002:00009a04       ??_C@_08KNHFBNJ@FlsAlloc@  10091a04     libvcruntimed:winapi_downlevel.obj
 0002:00009a18       ??_C@_07PEJMOBNF@FlsFree@  10091a18     libvcruntimed:winapi_downlevel.obj
 0002:00009a28       ??_C@_0M@GDNOONDI@FlsGetValue@ 10091a28     libvcruntimed:winapi_downlevel.obj
 0002:00009a3c       ??_C@_0M@JCPCPOEF@FlsSetValue@ 10091a3c     libvcruntimed:winapi_downlevel.obj
 0002:00009a50       ??_C@_0BM@HCFOFFN@InitializeCriticalSectionEx@ 10091a50     libvcruntimed:winapi_downlevel.obj
 0002:00009a78       ??_C@_1BA@GLMCNLEM@?$AAW?$AAa?$AAr?$AAn?$AAi?$AAn?$AAg@ 10091a78     libucrtd:dbgrpt.obj
 0002:00009a88       ??_C@_1M@ILHOPKA@?$AAE?$AAr?$AAr?$AAo?$AAr@ 10091a88     libucrtd:dbgrpt.obj
 0002:00009a94       ??_C@_1CC@CGHMNGDG@?$AAA?$AAs?$AAs?$AAe?$AAr?$AAt?$AAi?$AAo?$AAn?$AA?5?$AAF?$AAa?$AAi?$AAl?$AAe@ 10091a94     libucrtd:dbgrpt.obj
 0002:00009ac0       ??_C@_1OG@PMPPFHAF@?$AA?6?$AA?6?$AAF?$AAo?$AAr?$AA?5?$AAi?$AAn?$AAf?$AAo?$AAr?$AAm?$AAa?$AAt?$AAi@ 10091ac0     libucrtd:dbgrpt.obj
 0002:00009ba8       ??_C@_1MG@LJLILFFD@?$AAD?$AAe?$AAb?$AAu?$AAg?$AA?5?$AA?$CF?$AAl?$AAs?$AA?$CB?$AA?6?$AA?6?$AAP?$AAr?$AAo@ 10091ba8     libucrtd:dbgrpt.obj
 0002:00009c70       ??_C@_1MG@OODCADGL@?$AAD?$AAe?$AAb?$AAu?$AAg?$AA?5?$AA?$CF?$AAl?$AAs?$AA?$CB?$AA?6?$AA?6?$AAP?$AAr?$AAo@ 10091c70     libucrtd:dbgrpt.obj
 0002:00009d38       ??_C@_0BH@DNAGHKFM@?$DMprogram?5name?5unknown?$DO@ 10091d38     libucrtd:dbgrpt.obj
 0002:00009d50       ??_C@_1CO@EAEJAADC@?$AA?$DM?$AAp?$AAr?$AAo?$AAg?$AAr?$AAa?$AAm?$AA?5?$AAn?$AAa?$AAm?$AAe?$AA?5?$AAu@ 10091d50     libucrtd:dbgrpt.obj
 0002:00009d80       ??_C@_1FK@BNNDOGMN@?$AA?$CI?$AA?$CC?$AAT?$AAh?$AAe?$AA?5?$AAh?$AAo?$AAo?$AAk?$AA?5?$AAf?$AAu?$AAn?$AAc@ 10091d80     libucrtd:dbgrpt.obj
 0002:00009de0       ??_C@_1FO@GMJDLAJD@?$AAm?$AAi?$AAn?$AAk?$AAe?$AAr?$AAn?$AAe?$AAl?$AA?2?$AAc?$AAr?$AAt?$AAs?$AA?2@ 10091de0     libucrtd:dbgrpt.obj
 0002:00009e40       ??_C@_0CP@HDJNPEFB@minkernel?2crts?2ucrt?2src?2appcrt?2@ 10091e40     libucrtd:dbgrpt.obj
 0002:00009e70       ??_C@_1HI@OFEHGPPC@?$AAm?$AAo?$AAd?$AAe?$AA?5?$AA?$DN?$AA?$DN?$AA?5?$AA_?$AAC?$AAR?$AAT?$AA_?$AAR?$AAP@ 10091e70     libucrtd:dbgrpt.obj
 0002:00009ee8       ??_C@_1CO@FFNKOJOG@?$AAc?$AAo?$AAm?$AAm?$AAo?$AAn?$AA_?$AAs?$AAe?$AAt?$AA_?$AAr?$AAe?$AAp?$AAo@ 10091ee8     libucrtd:dbgrpt.obj
 0002:00009f18       ??_C@_1CI@ONEHFNHD@?$AAn?$AAe?$AAw?$AA_?$AAh?$AAo?$AAo?$AAk?$AA?5?$AA?$CB?$AA?$DN?$AA?5?$AAn?$AAu?$AAl@ 10091f18     libucrtd:dbgrpt.obj
 0002:00009f44       ??_C@_1CM@EHMOGBJJ@?$AAc?$AAo?$AAm?$AAm?$AAo?$AAn?$AA_?$AAm?$AAe?$AAs?$AAs?$AAa?$AAg?$AAe?$AA_@ 10091f44     libucrtd:dbgrpt.obj
 0002:00009f70       ??_C@_1PE@ECNALGCA@?$AAt?$AAr?$AAa?$AAi?$AAt?$AAs?$AA?3?$AA?3?$AAt?$AAc?$AAs?$AAc?$AAp?$AAy?$AA_@ 10091f70     libucrtd:dbgrpt.obj
 0002:0000a064       ??_C@_1BK@PEDCIPMA@?$AAE?$AAx?$AAp?$AAr?$AAe?$AAs?$AAs?$AAi?$AAo?$AAn?$AA?3?$AA?5@ 10092064     libucrtd:dbgrpt.obj
 0002:0000a080       ??_C@_15IABLJNFO@?$AA?6?$AA?6@ 10092080     libucrtd:dbgrpt.obj
 0002:0000a088       ??_C@_1BA@GLLGCPCK@?$AA?6?$AAL?$AAi?$AAn?$AAe?$AA?3?$AA?5@ 10092088     libucrtd:dbgrpt.obj
 0002:0000a098       ??_C@_1BA@LNHECFIM@?$AA?6?$AAF?$AAi?$AAl?$AAe?$AA?3?$AA?5@ 10092098     libucrtd:dbgrpt.obj
 0002:0000a0a8       ??_C@_17LGKOMLJ@?$AA?4?$AA?4?$AA?4@ 100920a8     libucrtd:dbgrpt.obj
 0002:0000a0b0       ??_C@_1BE@CGCJKGHI@?$AA?6?$AAM?$AAo?$AAd?$AAu?$AAl?$AAe?$AA?3?$AA?5@ 100920b0     libucrtd:dbgrpt.obj
 0002:0000a0c4       ??_C@_1BI@KALLJECN@?$AA?$CI?$AA?$CK?$AA_?$AAe?$AAr?$AAr?$AAn?$AAo?$AA?$CI?$AA?$CJ?$AA?$CJ@ 100920c4     libucrtd:dbgrpt.obj
 0002:0000a0e0       ??_C@_1JM@IBOIJEOO@?$AAw?$AAc?$AAs?$AAc?$AAp?$AAy?$AA_?$AAs?$AA?$CI?$AAm?$AAe?$AAs?$AAs?$AAa?$AAg@ 100920e0     libucrtd:dbgrpt.obj
 0002:0000a180       ??_C@_1FG@BBOLDHGF@?$AA_?$AAC?$AAr?$AAt?$AAD?$AAb?$AAg?$AAR?$AAe?$AAp?$AAo?$AAr?$AAt?$AA?3?$AA?5@ 10092180     libucrtd:dbgrpt.obj
 0002:0000a1d8       ??_C@_1EK@MBDPDCGA@?$AAM?$AAi?$AAc?$AAr?$AAo?$AAs?$AAo?$AAf?$AAt?$AA?5?$AAV?$AAi?$AAs?$AAu?$AAa@ 100921d8     libucrtd:dbgrpt.obj
 0002:0000a228       ??_C@_1GI@BBAEIKL@?$AA?$CI?$AA?$CI?$AAd?$AAe?$AAs?$AAt?$AAi?$AAn?$AAa?$AAt?$AAi?$AAo?$AAn?$AA?$CJ?$AA?$CJ@ 10092228     libucrtd:wcscpy_s.obj
 0002:0000a290       ??_C@_1HI@PBJPCEBC@?$AAm?$AAi?$AAn?$AAk?$AAe?$AAr?$AAn?$AAe?$AAl?$AA?2?$AAc?$AAr?$AAt?$AAs?$AA?2@ 10092290     libucrtd:wcscpy_s.obj
 0002:0000a308       ??_C@_1CA@FHIAGDFH@?$AAc?$AAo?$AAm?$AAm?$AAo?$AAn?$AA_?$AAt?$AAc?$AAs?$AAc?$AAp?$AAy?$AA_?$AAs@ 10092308     libucrtd:wcscpy_s.obj
 0002:0000a328       ??_C@_1CK@EIOKGPJL@?$AA?$CI?$AA?$CI?$AA?$CI?$AAs?$AAo?$AAu?$AAr?$AAc?$AAe?$AA?$CJ?$AA?$CJ?$AA?$CJ?$AA?5?$AA?$CB?$AA?$DN@ 10092328     libucrtd:wcscpy_s.obj
 0002:0000a354       ??_C@_1CI@HCPHDDLE@?$AAB?$AAu?$AAf?$AAf?$AAe?$AAr?$AA?5?$AAi?$AAs?$AA?5?$AAt?$AAo?$AAo?$AA?5?$AAs@ 10092354     libucrtd:wcscpy_s.obj
 0002:0000a37c       ??_C@_1DM@MADKGDLO@?$AA?$CI?$AAL?$AA?$CC?$AAB?$AAu?$AAf?$AAf?$AAe?$AAr?$AA?5?$AAi?$AAs?$AA?5?$AAt?$AAo@ 1009237c     libucrtd:wcscpy_s.obj
 0002:0000a3b8       ?standard_lookup_table_spectre@__crt_stdio_output@@3V?$spectre_mitigated_lookup_table@Ustate_transition_pair@__crt_stdio_output@@$0IA@@1@B 100923b8     libucrtd:output.obj
 0002:0000a7b8       ?format_validation_lookup_table_spectre@__crt_stdio_output@@3V?$spectre_mitigated_lookup_table@Ustate_transition_pair@__crt_stdio_output@@$0IA@@1@B 100927b8     libucrtd:output.obj
 0002:0000abb8       ??_C@_1BDG@MKBKGHOH@?$AA?$CI?$AA?5?$AA?$CI?$AA_?$AAS?$AAt?$AAr?$AAe?$AAa?$AAm?$AA?4?$AAi?$AAs?$AA_?$AAs@ 10092bb8     libucrtd:output.obj
 0002:0000acf0       ??_C@_1GC@LCDLABEA@?$AAm?$AAi?$AAn?$AAk?$AAe?$AAr?$AAn?$AAe?$AAl?$AA?2?$AAc?$AAr?$AAt?$AAs?$AA?2@ 10092cf0     libucrtd:output.obj
 0002:0000ad58       ??_C@_1II@DIIMCJOK@?$AA_?$AA_?$AAa?$AAc?$AAr?$AAt?$AA_?$AAs?$AAt?$AAd?$AAi?$AAo?$AA_?$AAc?$AAh@ 10092d58     libucrtd:output.obj
 0002:0000ade0       ??_C@_1CE@JLIJLEKO@?$AAs?$AAt?$AAr?$AAe?$AAa?$AAm?$AA?5?$AA?$CB?$AA?$DN?$AA?5?$AAn?$AAu?$AAl?$AAl?$AAp@ 10092de0     libucrtd:output.obj
 0002:0000ae08       ??_C@_1GA@MOBAPGIO@?$AAm?$AAi?$AAn?$AAk?$AAe?$AAr?$AAn?$AAe?$AAl?$AA?2?$AAc?$AAr?$AAt?$AAs?$AA?2@ 10092e08     libucrtd:output.obj
 0002:0000ae68       ??_C@_1CA@GELIJBMC@?$AAc?$AAo?$AAm?$AAm?$AAo?$AAn?$AA_?$AAv?$AAf?$AAp?$AAr?$AAi?$AAn?$AAt?$AAf@ 10092e68     libucrtd:output.obj
 0002:0000ae88       ??_C@_1CE@EAKLPBKK@?$AAf?$AAo?$AAr?$AAm?$AAa?$AAt?$AA?5?$AA?$CB?$AA?$DN?$AA?5?$AAn?$AAu?$AAl?$AAl?$AAp@ 10092e88     libucrtd:output.obj
 0002:0000aeac       ??_C@_1CA@PIMGHCEK@?$AAc?$AAo?$AAm?$AAm?$AAo?$AAn?$AA_?$AAv?$AAs?$AAp?$AAr?$AAi?$AAn?$AAt?$AAf@ 10092eac     libucrtd:output.obj
 0002:0000aed0       ??_C@_1EO@EGEEFEFM@?$AAb?$AAu?$AAf?$AAf?$AAe?$AAr?$AA_?$AAc?$AAo?$AAu?$AAn?$AAt?$AA?5?$AA?$DN?$AA?$DN@ 10092ed0     libucrtd:output.obj
 0002:0000af20       ??_C@_1CE@JEILLNB@?$AAc?$AAo?$AAm?$AAm?$AAo?$AAn?$AA_?$AAv?$AAs?$AAp?$AAr?$AAi?$AAn?$AAt?$AAf@ 10092f20     libucrtd:output.obj
 0002:0000af48       ??_C@_1EM@OAFHAOLH@?$AAb?$AAu?$AAf?$AAf?$AAe?$AAr?$AA?5?$AA?$CB?$AA?$DN?$AA?5?$AAn?$AAu?$AAl?$AAl?$AAp@ 10092f48     libucrtd:output.obj
 0002:0000af94       ??_C@_1DA@HPBFKMEB@?$AA?$CI?$AA?$CC?$AAB?$AAu?$AAf?$AAf?$AAe?$AAr?$AA?5?$AAt?$AAo?$AAo?$AA?5?$AAs?$AAm@ 10092f94     libucrtd:output.obj
 0002:0000afc4       ??_C@_1CG@LHFJHFBB@?$AAc?$AAo?$AAm?$AAm?$AAo?$AAn?$AA_?$AAv?$AAs?$AAn?$AAp?$AAr?$AAi?$AAn?$AAt@ 10092fc4     libucrtd:output.obj
 0002:0000afec       ??_C@_1CM@JOIJBMEM@?$AA_?$AAf?$AAo?$AAr?$AAm?$AAa?$AAt?$AA_?$AAi?$AAt?$AA?5?$AA?$CB?$AA?$DN?$AA?5?$AAn@ 10092fec     libucrtd:output.obj
 0002:0000b018       ??_C@_1HA@DMAAKIJP@?$AAm?$AAi?$AAn?$AAk?$AAe?$AAr?$AAn?$AAe?$AAl?$AA?2?$AAc?$AAr?$AAt?$AAs?$AA?2@ 10093018     libucrtd:output.obj
 0002:0000b088       ??_C@_1BNA@OIIAGHJI@?$AA_?$AA_?$AAc?$AAr?$AAt?$AA_?$AAs?$AAt?$AAd?$AAi?$AAo?$AA_?$AAo?$AAu?$AAt@ 10093088     libucrtd:output.obj
 0002:0000b258       ??_C@_1EE@DMAIGNBG@?$AA?$CI?$AA?$CC?$AAI?$AAn?$AAc?$AAo?$AAr?$AAr?$AAe?$AAc?$AAt?$AA?5?$AAf?$AAo?$AAr@ 10093258     libucrtd:output.obj
 0002:0000b2a0       ??_C@_1BLI@EGFICANE@?$AA_?$AA_?$AAc?$AAr?$AAt?$AA_?$AAs?$AAt?$AAd?$AAi?$AAo?$AA_?$AAo?$AAu?$AAt@ 100932a0     libucrtd:output.obj
 0002:0000b458       ??_C@_1BLI@IKDKMDHI@?$AA_?$AA_?$AAc?$AAr?$AAt?$AA_?$AAs?$AAt?$AAd?$AAi?$AAo?$AA_?$AAo?$AAu?$AAt@ 10093458     libucrtd:output.obj
 0002:0000b610       ??_C@_1BKA@DNADAJMC@?$AA_?$AA_?$AAc?$AAr?$AAt?$AA_?$AAs?$AAt?$AAd?$AAi?$AAo?$AA_?$AAo?$AAu?$AAt@ 10093610     libucrtd:output.obj
 0002:0000b7b0       ??_C@_1BNA@HGLCOOBP@?$AA_?$AA_?$AAc?$AAr?$AAt?$AA_?$AAs?$AAt?$AAd?$AAi?$AAo?$AA_?$AAo?$AAu?$AAt@ 100937b0     libucrtd:output.obj
 0002:0000b980       ??_C@_1BLI@FOCNEPKJ@?$AA_?$AA_?$AAc?$AAr?$AAt?$AA_?$AAs?$AAt?$AAd?$AAi?$AAo?$AA_?$AAo?$AAu?$AAt@ 10093980     libucrtd:output.obj
 0002:0000bb38       ??_C@_1BMK@CPBKHDIH@?$AA_?$AA_?$AAc?$AAr?$AAt?$AA_?$AAs?$AAt?$AAd?$AAi?$AAo?$AA_?$AAo?$AAu?$AAt@ 10093b38     libucrtd:output.obj
 0002:0000bd08       ??_C@_1BLC@PMCLHHAE@?$AA_?$AA_?$AAc?$AAr?$AAt?$AA_?$AAs?$AAt?$AAd?$AAi?$AAo?$AA_?$AAo?$AAu?$AAt@ 10093d08     libucrtd:output.obj
 0002:0000bec0       ??_C@_1BLI@EEAAPJD@?$AA_?$AA_?$AAc?$AAr?$AAt?$AA_?$AAs?$AAt?$AAd?$AAi?$AAo?$AA_?$AAo?$AAu?$AAt@ 10093ec0     libucrtd:output.obj
 0002:0000c078       ??_C@_1BKA@IIAAOGBO@?$AA_?$AA_?$AAc?$AAr?$AAt?$AA_?$AAs?$AAt?$AAd?$AAi?$AAo?$AA_?$AAo?$AAu?$AAt@ 10094078     libucrtd:output.obj
 0002:0000c218       ??_C@_1FG@OBJBDPAC@?$AA?$CI?$AA?$CC?$AAN?$AA?5?$AAl?$AAe?$AAn?$AAg?$AAt?$AAh?$AA?5?$AAm?$AAo?$AAd?$AAi@ 10094218     libucrtd:output.obj
 0002:0000c270       ??_C@_1BOA@BMEGDMHF@?$AA_?$AA_?$AAc?$AAr?$AAt?$AA_?$AAs?$AAt?$AAd?$AAi?$AAo?$AA_?$AAo?$AAu?$AAt@ 10094270     libucrtd:output.obj
 0002:0000c450       ??_C@_1EC@GJPNJDCN@?$AA_?$AAl?$AAe?$AAn?$AAg?$AAt?$AAh?$AA?5?$AA?$DN?$AA?$DN?$AA?5?$AAl?$AAe?$AAn?$AAg@ 10094450     libucrtd:output.obj
 0002:0000c494       ??_C@_1DG@CEJKFDMO@?$AAs?$AAt?$AAa?$AAt?$AAe?$AA_?$AAc?$AAa?$AAs?$AAe?$AA_?$AAn?$AAo?$AAr?$AAm@ 10094494     libucrtd:output.obj
 0002:0000c4d0       ??_C@_1BOE@IPKNNOEE@?$AA_?$AA_?$AAc?$AAr?$AAt?$AA_?$AAs?$AAt?$AAd?$AAi?$AAo?$AA_?$AAo?$AAu?$AAt@ 100944d0     libucrtd:output.obj
 0002:0000c6b8       ??_C@_1IC@NLEOMCDL@?$AA_?$AAt?$AAy?$AAp?$AAe?$AA_?$AAi?$AAn?$AAd?$AAe?$AAx?$AA?5?$AA?$DO?$AA?$DN?$AA?5@ 100946b8     libucrtd:output.obj
 0002:0000c740       ??_C@_1BFK@KNCMELHH@?$AA_?$AA_?$AAc?$AAr?$AAt?$AA_?$AAs?$AAt?$AAd?$AAi?$AAo?$AA_?$AAo?$AAu?$AAt@ 10094740     libucrtd:output.obj
 0002:0000c8a0       ??_C@_1FK@BCPANIEK@?$AA?$CI?$AA?$CC?$AAM?$AAi?$AAs?$AAs?$AAi?$AAn?$AAg?$AA?5?$AAp?$AAo?$AAs?$AAi?$AAt@ 100948a0     libucrtd:output.obj
 0002:0000c900       ??_C@_1BEI@IHLBHMLJ@?$AA_?$AA_?$AAc?$AAr?$AAt?$AA_?$AAs?$AAt?$AAd?$AAi?$AAo?$AA_?$AAo?$AAu?$AAt@ 10094900     libucrtd:output.obj
 0002:0000ca48       ??_C@_1BMI@LKDDDFDL@?$AA_?$AA_?$AAc?$AAr?$AAt?$AA_?$AAs?$AAt?$AAd?$AAi?$AAo?$AA_?$AAo?$AAu?$AAt@ 10094a48     libucrtd:output.obj
 0002:0000cc10       ??_C@_1BMM@JGEKEBKL@?$AA_?$AA_?$AAc?$AAr?$AAt?$AA_?$AAs?$AAt?$AAd?$AAi?$AAo?$AA_?$AAo?$AAu?$AAt@ 10094c10     libucrtd:output.obj
 0002:0000cde0       ??_C@_1BEO@ODGKIOAL@?$AA_?$AA_?$AAc?$AAr?$AAt?$AA_?$AAs?$AAt?$AAd?$AAi?$AAo?$AA_?$AAo?$AAu?$AAt@ 10094de0     libucrtd:output.obj
 0002:0000cf30       ??_C@_1BDM@GFCGMNL@?$AA_?$AA_?$AAc?$AAr?$AAt?$AA_?$AAs?$AAt?$AAd?$AAi?$AAo?$AA_?$AAo?$AAu?$AAt@ 10094f30     libucrtd:output.obj
 0002:0000d070       ??_C@_1BMI@KBPJOJJI@?$AA_?$AA_?$AAc?$AAr?$AAt?$AA_?$AAs?$AAt?$AAd?$AAi?$AAo?$AA_?$AAo?$AAu?$AAt@ 10095070     libucrtd:output.obj
 0002:0000d238       ??_C@_1BMM@PGHHMNDM@?$AA_?$AA_?$AAc?$AAr?$AAt?$AA_?$AAs?$AAt?$AAd?$AAi?$AAo?$AA_?$AAo?$AAu?$AAt@ 10095238     libucrtd:output.obj
 0002:0000d404       ??_C@_1CI@DDKMNCPP@?$AA_?$AAc?$AAo?$AAn?$AAt?$AAe?$AAx?$AAt?$AA?5?$AA?$CB?$AA?$DN?$AA?5?$AAn?$AAu?$AAl@ 10095404     libucrtd:output.obj
 0002:0000d430       ??_C@_1HK@IIPGOADH@?$AA_?$AA_?$AAc?$AAr?$AAt?$AA_?$AAs?$AAt?$AAd?$AAi?$AAo?$AA_?$AAo?$AAu?$AAt@ 10095430     libucrtd:output.obj
 0002:0000d4b0       ??_C@_1BLA@MEDMHIOH@?$AA_?$AA_?$AAc?$AAr?$AAt?$AA_?$AAs?$AAt?$AAd?$AAi?$AAo?$AA_?$AAo?$AAu?$AAt@ 100954b0     libucrtd:output.obj
 0002:0000d660       ??_C@_1BLE@LCKPBJON@?$AA_?$AA_?$AAc?$AAr?$AAt?$AA_?$AAs?$AAt?$AAd?$AAi?$AAo?$AA_?$AAo?$AAu?$AAt@ 10095660     libucrtd:output.obj
 0002:0000d818       ??_C@_1HE@IACOMEJF@?$AA_?$AA_?$AAc?$AAr?$AAt?$AA_?$AAs?$AAt?$AAd?$AAi?$AAo?$AA_?$AAo?$AAu?$AAt@ 10095818     libucrtd:output.obj
 0002:0000d890       ??_C@_1BOA@CBIEMBEE@?$AA_?$AA_?$AAc?$AAr?$AAt?$AA_?$AAs?$AAt?$AAd?$AAi?$AAo?$AA_?$AAo?$AAu?$AAt@ 10095890     libucrtd:output.obj
 0002:0000da70       ??_C@_1BOE@NLICFINO@?$AA_?$AA_?$AAc?$AAr?$AAt?$AA_?$AAs?$AAt?$AAd?$AAi?$AAo?$AA_?$AAo?$AAu?$AAt@ 10095a70     libucrtd:output.obj
 0002:0000dc58       ??_C@_1BFK@IOIDDMPJ@?$AA_?$AA_?$AAc?$AAr?$AAt?$AA_?$AAs?$AAt?$AAd?$AAi?$AAo?$AA_?$AAo?$AAu?$AAt@ 10095c58     libucrtd:output.obj
 0002:0000ddb8       ??_C@_1BEI@JNJAFAD@?$AA_?$AA_?$AAc?$AAr?$AAt?$AA_?$AAs?$AAt?$AAd?$AAi?$AAo?$AA_?$AAo?$AAu?$AAt@ 10095db8     libucrtd:output.obj
 0002:0000df00       ??_C@_1BMI@PKGBOKJK@?$AA_?$AA_?$AAc?$AAr?$AAt?$AA_?$AAs?$AAt?$AAd?$AAi?$AAo?$AA_?$AAo?$AAu?$AAt@ 10095f00     libucrtd:output.obj
 0002:0000e0c8       ??_C@_1BMM@BLBJDDIA@?$AA_?$AA_?$AAc?$AAr?$AAt?$AA_?$AAs?$AAt?$AAd?$AAi?$AAo?$AA_?$AAo?$AAu?$AAt@ 100960c8     libucrtd:output.obj
 0002:0000e298       ??_C@_1BEO@JEHLMMKB@?$AA_?$AA_?$AAc?$AAr?$AAt?$AA_?$AAs?$AAt?$AAd?$AAi?$AAo?$AA_?$AAo?$AAu?$AAt@ 10096298     libucrtd:output.obj
 0002:0000e3e8       ??_C@_1BDM@FDOLKCHK@?$AA_?$AA_?$AAc?$AAr?$AAt?$AA_?$AAs?$AAt?$AAd?$AAi?$AAo?$AA_?$AAo?$AAu?$AAt@ 100963e8     libucrtd:output.obj
 0002:0000e528       ??_C@_1BNK@ONPHCEAM@?$AA_?$AA_?$AAc?$AAr?$AAt?$AA_?$AAs?$AAt?$AAd?$AAi?$AAo?$AA_?$AAo?$AAu?$AAt@ 10096528     libucrtd:output.obj
 0002:0000e708       ??_C@_1BNO@LMMLJOOJ@?$AA_?$AA_?$AAc?$AAr?$AAt?$AA_?$AAs?$AAt?$AAd?$AAi?$AAo?$AA_?$AAo?$AAu?$AAt@ 10096708     libucrtd:output.obj
 0002:0000e8e8       ??_C@_1GC@BNMHNGKM@?$AA_?$AAs?$AAt?$AAa?$AAt?$AAe?$AA?5?$AA?$DN?$AA?$DN?$AA?5?$AAs?$AAt?$AAa?$AAt?$AAe@ 100968e8     libucrtd:output.obj
 0002:0000e950       ??_C@_1BEC@FNIGNBHI@?$AA_?$AA_?$AAc?$AAr?$AAt?$AA_?$AAs?$AAt?$AAd?$AAi?$AAo?$AA_?$AAo?$AAu?$AAt@ 10096950     libucrtd:output.obj
 0002:0000ea98       ??_C@_1BMC@DAENMDAD@?$AA_?$AA_?$AAc?$AAr?$AAt?$AA_?$AAs?$AAt?$AAd?$AAi?$AAo?$AA_?$AAo?$AAu?$AAt@ 10096a98     libucrtd:output.obj
 0002:0000ec60       ??_C@_1BMG@KOENKAMB@?$AA_?$AA_?$AAc?$AAr?$AAt?$AA_?$AAs?$AAt?$AAd?$AAi?$AAo?$AA_?$AAo?$AAu?$AAt@ 10096c60     libucrtd:output.obj
 0002:0000ee28       ??_C@_1BDG@PLANJEFE@?$AA_?$AA_?$AAc?$AAr?$AAt?$AA_?$AAs?$AAt?$AAd?$AAi?$AAo?$AA_?$AAo?$AAu?$AAt@ 10096e28     libucrtd:output.obj
 0002:0000ef60       ??_C@_1BMI@DNMDMAAN@?$AA_?$AA_?$AAc?$AAr?$AAt?$AA_?$AAs?$AAt?$AAd?$AAi?$AAo?$AA_?$AAo?$AAu?$AAt@ 10096f60     libucrtd:output.obj
 0002:0000f128       ??_C@_1BMM@JHGFKAND@?$AA_?$AA_?$AAc?$AAr?$AAt?$AA_?$AAs?$AAt?$AAd?$AAi?$AAo?$AA_?$AAo?$AAu?$AAt@ 10097128     libucrtd:output.obj
 0002:0000f2f4       ??_C@_1CA@ONEGMNAN@?$AA_?$AAs?$AAt?$AAr?$AAe?$AAa?$AAm?$AA?4?$AAv?$AAa?$AAl?$AAi?$AAd?$AA?$CI?$AA?$CJ@ 100972f4     libucrtd:output.obj
 0002:0000f318       ??_C@_1HK@MPBCDOK@?$AA_?$AA_?$AAc?$AAr?$AAt?$AA_?$AAs?$AAt?$AAd?$AAi?$AAo?$AA_?$AAo?$AAu?$AAt@ 10097318     libucrtd:output.obj
 0002:0000f398       ??_C@_1BLA@GJNGKGIK@?$AA_?$AA_?$AAc?$AAr?$AAt?$AA_?$AAs?$AAt?$AAd?$AAi?$AAo?$AA_?$AAo?$AAu?$AAt@ 10097398     libucrtd:output.obj
 0002:0000f548       ??_C@_1BLE@PAACOKDK@?$AA_?$AA_?$AAc?$AAr?$AAt?$AA_?$AAs?$AAt?$AAd?$AAi?$AAo?$AA_?$AAo?$AAu?$AAt@ 10097548     libucrtd:output.obj
 0002:0000f700       ??_C@_1HE@FGKHNBNL@?$AA_?$AA_?$AAc?$AAr?$AAt?$AA_?$AAs?$AAt?$AAd?$AAi?$AAo?$AA_?$AAo?$AAu?$AAt@ 10097700     libucrtd:output.obj
 0002:0000f778       ??_C@_1BEC@NDOOKIMC@?$AA_?$AA_?$AAc?$AAr?$AAt?$AA_?$AAs?$AAt?$AAd?$AAi?$AAo?$AA_?$AAo?$AAu?$AAt@ 10097778     libucrtd:output.obj
 0002:0000f8c0       ??_C@_1EK@PNGFDECN@?$AA?$CI?$AA?$CC?$AA?8?$AAn?$AA?8?$AA?5?$AAf?$AAo?$AAr?$AAm?$AAa?$AAt?$AA?5?$AAs?$AAp@ 100978c0     libucrtd:output.obj
 0002:0000f910       ??_C@_1BNI@OPBGCNOB@?$AA_?$AA_?$AAc?$AAr?$AAt?$AA_?$AAs?$AAt?$AAd?$AAi?$AAo?$AA_?$AAo?$AAu?$AAt@ 10097910     libucrtd:output.obj
 0002:0000fae8       ??_C@_1EO@GHKFGFKL@?$AA?$CI?$AA?$CC?$AAI?$AAn?$AAv?$AAa?$AAl?$AAi?$AAd?$AA?5?$AAi?$AAn?$AAt?$AAe?$AAg@ 10097ae8     libucrtd:output.obj
 0002:0000fb38       ??_C@_1JC@PMCLKCOC@?$AAp?$AAr?$AAe?$AAc?$AAi?$AAs?$AAi?$AAo?$AAn?$AA_?$AAi?$AAn?$AAd?$AAe?$AAx@ 10097b38     libucrtd:output.obj
 0002:0000fbd0       ??_C@_1BAG@GKCGGKOF@?$AA_?$AA_?$AAc?$AAr?$AAt?$AA_?$AAs?$AAt?$AAd?$AAi?$AAo?$AA_?$AAo?$AAu?$AAt@ 10097bd0     libucrtd:output.obj
 0002:0000fcd8       ??_C@_1IC@KGDNLBNC@?$AAw?$AAi?$AAd?$AAt?$AAh?$AA_?$AAi?$AAn?$AAd?$AAe?$AAx?$AA?5?$AA?$DO?$AA?$DN?$AA?5@ 10097cd8     libucrtd:output.obj
 0002:0000fd60       ??_C@_1BAK@CDLANFGA@?$AA_?$AA_?$AAc?$AAr?$AAt?$AA_?$AAs?$AAt?$AAd?$AAi?$AAo?$AA_?$AAo?$AAu?$AAt@ 10097d60     libucrtd:output.obj
 0002:0000fe70       ??_C@_1BDG@KOLEFKPF@?$AA_?$AA_?$AAc?$AAr?$AAt?$AA_?$AAs?$AAt?$AAd?$AAi?$AAo?$AA_?$AAo?$AAu?$AAt@ 10097e70     libucrtd:output.obj
 0002:0000ffa8       ??_C@_1BMA@CBPCAOAB@?$AA_?$AA_?$AAc?$AAr?$AAt?$AA_?$AAs?$AAt?$AAd?$AAi?$AAo?$AA_?$AAo?$AAu?$AAt@ 10097fa8     libucrtd:output.obj
 0002:00010168       ??_C@_1PK@KBJLALII@?$AA_?$AA_?$AAc?$AAr?$AAt?$AA_?$AAs?$AAt?$AAd?$AAi?$AAo?$AA_?$AAo?$AAu?$AAt@ 10098168     libucrtd:output.obj
 0002:00010268       ??_C@_1PO@PODEJAGE@?$AA_?$AA_?$AAc?$AAr?$AAt?$AA_?$AAs?$AAt?$AAd?$AAi?$AAo?$AA_?$AAo?$AAu?$AAt@ 10098268     libucrtd:output.obj
 0002:00010368       ??_C@_1BMA@IHIBOLMD@?$AA_?$AA_?$AAc?$AAr?$AAt?$AA_?$AAs?$AAt?$AAd?$AAi?$AAo?$AA_?$AAo?$AAu?$AAt@ 10098368     libucrtd:output.obj
 0002:00010528       ??_C@_1BKI@CJEIGDAI@?$AA_?$AA_?$AAc?$AAr?$AAt?$AA_?$AAs?$AAt?$AAd?$AAi?$AAo?$AA_?$AAo?$AAu?$AAt@ 10098528     libucrtd:output.obj
 0002:000106d0       ??_C@_1BNI@IMOCDBNE@?$AA_?$AA_?$AAc?$AAr?$AAt?$AA_?$AAs?$AAt?$AAd?$AAi?$AAo?$AA_?$AAo?$AAu?$AAt@ 100986d0     libucrtd:output.obj
 0002:000108a8       ??_C@_1BAG@DOFNHDMF@?$AA_?$AA_?$AAc?$AAr?$AAt?$AA_?$AAs?$AAt?$AAd?$AAi?$AAo?$AA_?$AAo?$AAu?$AAt@ 100988a8     libucrtd:output.obj
 0002:000109b0       ??_C@_1BAK@DALINHHB@?$AA_?$AA_?$AAc?$AAr?$AAt?$AA_?$AAs?$AAt?$AAd?$AAi?$AAo?$AA_?$AAo?$AAu?$AAt@ 100989b0     libucrtd:output.obj
 0002:00010ac0       ??_C@_1BMA@GACGPGHN@?$AA_?$AA_?$AAc?$AAr?$AAt?$AA_?$AAs?$AAt?$AAd?$AAi?$AAo?$AA_?$AAo?$AAu?$AAt@ 10098ac0     libucrtd:output.obj
 0002:00010c80       ??_C@_1PK@KBJECIEM@?$AA_?$AA_?$AAc?$AAr?$AAt?$AA_?$AAs?$AAt?$AAd?$AAi?$AAo?$AA_?$AAo?$AAu?$AAt@ 10098c80     libucrtd:output.obj
 0002:00010d80       ??_C@_1PO@LKIIANED@?$AA_?$AA_?$AAc?$AAr?$AAt?$AA_?$AAs?$AAt?$AAd?$AAi?$AAo?$AA_?$AAo?$AAu?$AAt@ 10098d80     libucrtd:output.obj
 0002:00010e80       ??_C@_1BNC@DONELHFF@?$AA_?$AA_?$AAc?$AAr?$AAt?$AA_?$AAs?$AAt?$AAd?$AAi?$AAo?$AA_?$AAo?$AAu?$AAt@ 10098e80     libucrtd:output.obj
 0002:00011058       ??_C@_1BLK@BGFMMAPO@?$AA_?$AA_?$AAc?$AAr?$AAt?$AA_?$AAs?$AAt?$AAd?$AAi?$AAo?$AA_?$AAo?$AAu?$AAt@ 10099058     libucrtd:output.obj
 0002:00011218       ??_C@_1BMA@PGOJAHFP@?$AA_?$AA_?$AAc?$AAr?$AAt?$AA_?$AAs?$AAt?$AAd?$AAi?$AAo?$AA_?$AAo?$AAu?$AAt@ 10099218     libucrtd:output.obj
 0002:000113d8       ??_C@_1BKI@NDKBCDGP@?$AA_?$AA_?$AAc?$AAr?$AAt?$AA_?$AAs?$AAt?$AAd?$AAi?$AAo?$AA_?$AAo?$AAu?$AAt@ 100993d8     libucrtd:output.obj
 0002:00011580       ??_C@_1O@CEDCILHN@?$AA?$CI?$AAn?$AAu?$AAl?$AAl?$AA?$CJ@ 10099580     libucrtd:output.obj
 0002:00011590       ??_C@_06OJHGLDPL@?$CInull?$CJ@ 10099590     libucrtd:output.obj
 0002:00011598       ??_C@_1BOE@LIBLDKPN@?$AA_?$AA_?$AAc?$AAr?$AAt?$AA_?$AAs?$AAt?$AAd?$AAi?$AAo?$AA_?$AAo?$AAu?$AAt@ 10099598     libucrtd:output.obj
 0002:00011780       ??_C@_1LO@HECDHMMI@?$AAi?$AAs?$AA_?$AAp?$AAo?$AAs?$AAi?$AAt?$AAi?$AAo?$AAn?$AAa?$AAl?$AA_?$AAp@ 10099780     libucrtd:output.obj
 0002:00011840       ??_C@_1BCI@OBMMNJKK@?$AA_?$AA_?$AAc?$AAr?$AAt?$AA_?$AAs?$AAt?$AAd?$AAi?$AAo?$AA_?$AAo?$AAu?$AAt@ 10099840     libucrtd:output.obj
 0002:00011968       ??_C@_1FE@IAFJEKN@?$AA_?$AAt?$AAy?$AAp?$AAe?$AA_?$AAi?$AAn?$AAd?$AAe?$AAx?$AA?5?$AA?$DO?$AA?$DN?$AA?5@ 10099968     libucrtd:output.obj
 0002:000119c0       ??_C@_1BCC@GJLKCHIG@?$AA_?$AA_?$AAc?$AAr?$AAt?$AA_?$AAs?$AAt?$AAd?$AAi?$AAo?$AA_?$AAo?$AAu?$AAt@ 100999c0     libucrtd:output.obj
 0002:00011ae8       ??_C@_1BMM@KBPMKFBC@?$AA_?$AA_?$AAc?$AAr?$AAt?$AA_?$AAs?$AAt?$AAd?$AAi?$AAo?$AA_?$AAo?$AAu?$AAt@ 10099ae8     libucrtd:output.obj
 0002:00011cb4       ??_C@_1CK@LGDCECDH@?$AA_?$AAf?$AAo?$AAr?$AAm?$AAa?$AAt?$AA_?$AAc?$AAh?$AAa?$AAr?$AA?5?$AA?$CB?$AA?$DN@ 10099cb4     libucrtd:output.obj
 0002:00011ce0       ??_C@_1BNI@EDCGAPJB@?$AA_?$AA_?$AAc?$AAr?$AAt?$AA_?$AAs?$AAt?$AAd?$AAi?$AAo?$AA_?$AAo?$AAu?$AAt@ 10099ce0     libucrtd:output.obj
 0002:00011eb8       ??_C@_1BBM@CBBAFMPJ@?$AA_?$AA_?$AAc?$AAr?$AAt?$AA_?$AAs?$AAt?$AAd?$AAi?$AAo?$AA_?$AAo?$AAu?$AAt@ 10099eb8     libucrtd:output.obj
 0002:00011fd8       ??_C@_1BBG@KIHCHFIM@?$AA_?$AA_?$AAc?$AAr?$AAt?$AA_?$AAs?$AAt?$AAd?$AAi?$AAo?$AA_?$AAo?$AAu?$AAt@ 10099fd8     libucrtd:output.obj
 0002:000120f0       ??_C@_1BMM@MBMBCJIF@?$AA_?$AA_?$AAc?$AAr?$AAt?$AA_?$AAs?$AAt?$AAd?$AAi?$AAo?$AA_?$AAo?$AAu?$AAt@ 1009a0f0     libucrtd:output.obj
 0002:000122c0       ??_C@_1BLE@IFBJPNFE@?$AA_?$AA_?$AAc?$AAr?$AAt?$AA_?$AAs?$AAt?$AAd?$AAi?$AAo?$AA_?$AAo?$AAu?$AAt@ 1009a2c0     libucrtd:output.obj
 0002:00012478       ??_C@_1BMA@FANDDEHK@?$AA_?$AA_?$AAc?$AAr?$AAt?$AA_?$AAs?$AAt?$AAd?$AAi?$AAo?$AA_?$AAo?$AAu?$AAt@ 1009a478     libucrtd:output.obj
 0002:00012638       ??_C@_1BOE@OMDELMGH@?$AA_?$AA_?$AAc?$AAr?$AAt?$AA_?$AAs?$AAt?$AAd?$AAi?$AAo?$AA_?$AAo?$AAu?$AAt@ 1009a638     libucrtd:output.obj
 0002:00012820       ??_C@_1BCI@ILAANKJG@?$AA_?$AA_?$AAc?$AAr?$AAt?$AA_?$AAs?$AAt?$AAd?$AAi?$AAo?$AA_?$AAo?$AAu?$AAt@ 1009a820     libucrtd:output.obj
 0002:00012948       ??_C@_1BCC@PDNLFIHK@?$AA_?$AA_?$AAc?$AAr?$AAt?$AA_?$AAs?$AAt?$AAd?$AAi?$AAo?$AA_?$AAo?$AAu?$AAt@ 1009a948     libucrtd:output.obj
 0002:00012a70       ??_C@_1BMM@CMKPNHDJ@?$AA_?$AA_?$AAc?$AAr?$AAt?$AA_?$AAs?$AAt?$AAd?$AAi?$AAo?$AA_?$AAo?$AAu?$AAt@ 1009aa70     libucrtd:output.obj
 0002:00012c40       ??_C@_1BNI@EJPCEBAG@?$AA_?$AA_?$AAc?$AAr?$AAt?$AA_?$AAs?$AAt?$AAd?$AAi?$AAo?$AA_?$AAo?$AAu?$AAt@ 1009ac40     libucrtd:output.obj
 0002:00012e18       ??_C@_1BBM@LLHBCDAF@?$AA_?$AA_?$AAc?$AAr?$AAt?$AA_?$AAs?$AAt?$AAd?$AAi?$AAo?$AA_?$AAo?$AAu?$AAt@ 1009ae18     libucrtd:output.obj
 0002:00012f38       ??_C@_1BBG@JLLDGFML@?$AA_?$AA_?$AAc?$AAr?$AAt?$AA_?$AAs?$AAt?$AAd?$AAi?$AAo?$AA_?$AAo?$AAu?$AAt@ 1009af38     libucrtd:output.obj
 0002:00013050       ??_C@_1BNO@ILHNHKFA@?$AA_?$AA_?$AAc?$AAr?$AAt?$AA_?$AAs?$AAt?$AAd?$AAi?$AAo?$AA_?$AAo?$AAu?$AAt@ 1009b050     libucrtd:output.obj
 0002:00013230       ??_C@_1BMG@JJPLEEHI@?$AA_?$AA_?$AAc?$AAr?$AAt?$AA_?$AAs?$AAt?$AAd?$AAi?$AAo?$AA_?$AAo?$AAu?$AAt@ 1009b230     libucrtd:output.obj
 0002:000133f8       ??_C@_1BNC@BAMNIOCM@?$AA_?$AA_?$AAc?$AAr?$AAt?$AA_?$AAs?$AAt?$AAd?$AAi?$AAo?$AA_?$AAo?$AAu?$AAt@ 1009b3f8     libucrtd:output.obj
 0002:000135d0       ??_C@_1BMM@KANDEEGK@?$AA_?$AA_?$AAc?$AAr?$AAt?$AA_?$AAs?$AAt?$AAd?$AAi?$AAo?$AA_?$AAo?$AAu?$AAt@ 1009b5d0     libucrtd:output.obj
 0002:000137a0       ??_C@_1BLE@MHLEAOID@?$AA_?$AA_?$AAc?$AAr?$AAt?$AA_?$AAs?$AAt?$AAd?$AAi?$AAo?$AA_?$AAo?$AAu?$AAt@ 1009b7a0     libucrtd:output.obj
 0002:00013958       ??_C@_1BMA@MEBEEDJE@?$AA_?$AA_?$AAc?$AAr?$AAt?$AA_?$AAs?$AAt?$AAd?$AAi?$AAo?$AA_?$AAo?$AAu?$AAt@ 1009b958     libucrtd:output.obj
 0002:00013b18       ??_C@_1BCA@HCPCJFGA@?$AA_?$AA_?$AAc?$AAr?$AAt?$AA_?$AAs?$AAt?$AAd?$AAi?$AAo?$AA_?$AAo?$AAu?$AAt@ 1009bb18     libucrtd:output.obj
 0002:00013c38       ??_C@_0DI@KIFBHMNO@minkernel?2crts?2ucrt?2inc?2corecrt@ 1009bc38     libucrtd:output.obj
 0002:00013c70       ??_C@_1BBE@IBPNPIIM@?$AA_?$AA_?$AAc?$AAr?$AAt?$AA_?$AAs?$AAt?$AAd?$AAi?$AAo?$AA_?$AAo?$AAu?$AAt@ 1009bc70     libucrtd:output.obj
 0002:00013d88       ??_C@_1BCA@FCGNBIN@?$AA_?$AA_?$AAc?$AAr?$AAt?$AA_?$AAs?$AAt?$AAd?$AAi?$AAo?$AA_?$AAo?$AAu?$AAt@ 1009bd88     libucrtd:output.obj
 0002:00013ea8       ??_C@_1BBE@FLKADCDA@?$AA_?$AA_?$AAc?$AAr?$AAt?$AA_?$AAs?$AAt?$AAd?$AAi?$AAo?$AA_?$AAo?$AAu?$AAt@ 1009bea8     libucrtd:output.obj
 0002:00013fc0       ??_C@_1BMK@JGIBNIA@?$AA_?$AA_?$AAc?$AAr?$AAt?$AA_?$AAs?$AAt?$AAd?$AAi?$AAo?$AA_?$AAo?$AAu?$AAt@ 1009bfc0     libucrtd:output.obj
 0002:00014190       ??_C@_1BLC@INKIGOCN@?$AA_?$AA_?$AAc?$AAr?$AAt?$AA_?$AAs?$AAt?$AAd?$AAi?$AAo?$AA_?$AAo?$AAu?$AAt@ 1009c190     libucrtd:output.obj
 0002:00014348       ??_C@_1BNK@KHNJGCCP@?$AA_?$AA_?$AAc?$AAr?$AAt?$AA_?$AAs?$AAt?$AAd?$AAi?$AAo?$AA_?$AAo?$AAu?$AAt@ 1009c348     libucrtd:output.obj
 0002:00014528       ??_C@_1BNO@OHFFMOOJ@?$AA_?$AA_?$AAc?$AAr?$AAt?$AA_?$AAs?$AAt?$AAd?$AAi?$AAo?$AA_?$AAo?$AAu?$AAt@ 1009c528     libucrtd:output.obj
 0002:00014708       ??_C@_1BMC@FAGJFBLI@?$AA_?$AA_?$AAc?$AAr?$AAt?$AA_?$AAs?$AAt?$AAd?$AAi?$AAo?$AA_?$AAo?$AAu?$AAt@ 1009c708     libucrtd:output.obj
 0002:000148d0       ??_C@_1BMG@CGPDIFDK@?$AA_?$AA_?$AAc?$AAr?$AAt?$AA_?$AAs?$AAt?$AAd?$AAi?$AAo?$AA_?$AAo?$AAu?$AAt@ 1009c8d0     libucrtd:output.obj
 0002:00014a98       ??_C@_1BNC@OHPDPPJK@?$AA_?$AA_?$AAc?$AAr?$AAt?$AA_?$AAs?$AAt?$AAd?$AAi?$AAo?$AA_?$AAo?$AAu?$AAt@ 1009ca98     libucrtd:output.obj
 0002:00014c70       ??_C@_1BLK@FOLFMPJH@?$AA_?$AA_?$AAc?$AAr?$AAt?$AA_?$AAs?$AAt?$AAd?$AAi?$AAo?$AA_?$AAo?$AAu?$AAt@ 1009cc70     libucrtd:output.obj
 0002:00014e30       ??_C@_1BNO@NAODCKFA@?$AA_?$AA_?$AAc?$AAr?$AAt?$AA_?$AAs?$AAt?$AAd?$AAi?$AAo?$AA_?$AAo?$AAu?$AAt@ 1009ce30     libucrtd:output.obj
 0002:00015010       ??_C@_1BMG@BBEFGBID@?$AA_?$AA_?$AAc?$AAr?$AAt?$AA_?$AAs?$AAt?$AAd?$AAi?$AAo?$AA_?$AAo?$AAu?$AAt@ 1009d010     libucrtd:output.obj
 0002:000151d8       ??_C@_1BNC@JPKLPOHO@?$AA_?$AA_?$AAc?$AAr?$AAt?$AA_?$AAs?$AAt?$AAd?$AAi?$AAo?$AA_?$AAo?$AAu?$AAt@ 1009d1d8     libucrtd:output.obj
 0002:00015518       ??_C@_1CE@JMFACANE@?$AAr?$AAe?$AAs?$AAu?$AAl?$AAt?$AA?5?$AA?$CB?$AA?$DN?$AA?5?$AAn?$AAu?$AAl?$AAl?$AAp@ 1009d518     libucrtd:errno.obj
 0002:00015540       ??_C@_1FM@MJJGEFKM@?$AAm?$AAi?$AAn?$AAk?$AAe?$AAr?$AAn?$AAe?$AAl?$AA?2?$AAc?$AAr?$AAt?$AAs?$AA?2@ 1009d540     libucrtd:errno.obj
 0002:0001559c       ??_C@_1BG@KCMPBBDK@?$AA_?$AAg?$AAe?$AAt?$AA_?$AAe?$AAr?$AAr?$AAn?$AAo@ 1009d59c     libucrtd:errno.obj
 0002:000155b4       ??_C@_1BM@INIPHHDD@?$AA_?$AAg?$AAe?$AAt?$AA_?$AAd?$AAo?$AAs?$AAe?$AAr?$AAr?$AAn?$AAo@ 1009d5b4     libucrtd:errno.obj
 0002:000155d0       ??_C@_1CA@EOJJMFA@?$AAc?$AAo?$AAm?$AAm?$AAo?$AAn?$AA_?$AAt?$AAc?$AAs?$AAc?$AAa?$AAt?$AA_?$AAs@ 1009d5d0     libucrtd:wcscat_s.obj
 0002:000155f0       ??_C@_1DM@FHLMIEG@?$AAS?$AAt?$AAr?$AAi?$AAn?$AAg?$AA?5?$AAi?$AAs?$AA?5?$AAn?$AAo?$AAt?$AA?5?$AAn@ 1009d5f0     libucrtd:wcscat_s.obj
 0002:00015630       ??_C@_1FA@MJKDNFFB@?$AA?$CI?$AAL?$AA?$CC?$AAS?$AAt?$AAr?$AAi?$AAn?$AAg?$AA?5?$AAi?$AAs?$AA?5?$AAn?$AAo@ 1009d630     libucrtd:wcscat_s.obj
 0002:00015680       ??_C@_1CC@CHNFGJIC@?$AAc?$AAo?$AAm?$AAm?$AAo?$AAn?$AA_?$AAt?$AAc?$AAs?$AAn?$AAc?$AAp?$AAy?$AA_@ 1009d680     libucrtd:wcsncpy_s.obj
 0002:000156a8       ___acrt_exception_action_table 1009d6a8     libucrtd:exception_filter.obj
 0002:00015738       ___acrt_signal_action_table_count 1009d738     libucrtd:exception_filter.obj
 0002:0001573c       ___acrt_signal_action_table_size 1009d73c     libucrtd:exception_filter.obj
 0002:00015740       ___acrt_signal_action_first_fpe_index 1009d740     libucrtd:exception_filter.obj
 0002:00015744       ___acrt_signal_action_fpe_count 1009d744     libucrtd:exception_filter.obj
 0002:00015748       _RtlNtPathSeperatorString  1009d748     libucrtd:exit.obj
 0002:00015750       ??_C@_13FPGAJAPJ@?$AA?2@   1009d750     libucrtd:exit.obj
 0002:00015754       _RtlDosPathSeperatorsString 1009d754     libucrtd:exit.obj
 0002:0001575c       ??_C@_15MNCACJLI@?$AA?2?$AA?1@ 1009d75c     libucrtd:exit.obj
 0002:00015764       _RtlAlternateDosPathSeperatorString 1009d764     libucrtd:exit.obj
 0002:0001576c       ??_C@_13CGOKJPIL@?$AA?1@   1009d76c     libucrtd:exit.obj
 0002:00015770       ??_C@_1BI@BGOHAHKC@?$AAm?$AAs?$AAc?$AAo?$AAr?$AAe?$AAe?$AA?4?$AAd?$AAl?$AAl@ 1009d770     libucrtd:exit.obj
 0002:00015788       ??_C@_0P@MIGLKIOC@CorExitProcess@ 1009d788     libucrtd:exit.obj
 0002:00015798       ??_C@_0DI@KNDIGDEP@minkernel?2crts?2ucrt?2src?2appcrt?2@ 1009d798     libucrtd:argv_parsing.obj
 0002:000157d0       ??_C@_1JO@PGBIJBAM@?$AAm?$AAo?$AAd?$AAe?$AA?5?$AA?$DN?$AA?$DN?$AA?5?$AA_?$AAc?$AAr?$AAt?$AA_?$AAa?$AAr@ 1009d7d0     libucrtd:argv_parsing.obj
 0002:00015870       ??_C@_1HA@JMLCANEE@?$AAm?$AAi?$AAn?$AAk?$AAe?$AAr?$AAn?$AAe?$AAl?$AA?2?$AAc?$AAr?$AAt?$AAs?$AA?2@ 1009d870     libucrtd:argv_parsing.obj
 0002:000158e0       ??_C@_1CM@LHOJELIC@?$AAc?$AAo?$AAm?$AAm?$AAo?$AAn?$AA_?$AAc?$AAo?$AAn?$AAf?$AAi?$AAg?$AAu?$AAr@ 1009d8e0     libucrtd:argv_parsing.obj
 0002:00015910       ??_C@_0EG@LEHKHOEH@minkernel?2crts?2ucrt?2src?2desktop@ 1009d910     libucrtd:environment_initialization.obj
 0002:00015958       ??_C@_1IM@IMOFFPLG@?$AAm?$AAi?$AAn?$AAk?$AAe?$AAr?$AAn?$AAe?$AAl?$AA?2?$AAc?$AAr?$AAt?$AAs?$AA?2@ 1009d958     libucrtd:environment_initialization.obj
 0002:000159e4       ??_C@_1CG@MNNNBNAK@?$AAc?$AAr?$AAe?$AAa?$AAt?$AAe?$AA_?$AAe?$AAn?$AAv?$AAi?$AAr?$AAo?$AAn?$AAm@ 1009d9e4     libucrtd:environment_initialization.obj
 0002:00015a10       ??_C@_1HI@OOPIFFGA@?$AAt?$AAr?$AAa?$AAi?$AAt?$AAs?$AA?3?$AA?3?$AAt?$AAc?$AAs?$AAc?$AAp?$AAy?$AA_@ 1009da10     libucrtd:environment_initialization.obj
 0002:00015a88       ??_C@_0DC@NBHMIIKL@minkernel?2crts?2ucrt?2src?2appcrt?2@ 1009da88     libucrtd:onexit.obj
 0002:00015b54       ??_C@_04HJMOFLDF@Free@     1009db54     libucrtd:debug_heap.obj
 0002:00015b5c       ??_C@_06EFAGIKOH@Normal@   1009db5c     libucrtd:debug_heap.obj
 0002:00015b64       ??_C@_03OGPFLFLO@CRT@      1009db64     libucrtd:debug_heap.obj
 0002:00015b68       ??_C@_06KMEJCCGM@Ignore@   1009db68     libucrtd:debug_heap.obj
 0002:00015b70       ??_C@_06PJIGMIJB@Client@   1009db70     libucrtd:debug_heap.obj
 0002:00015b78       ??_C@_1CE@LJFEPPMP@?$AA_?$AAC?$AAr?$AAt?$AAC?$AAh?$AAe?$AAc?$AAk?$AAM?$AAe?$AAm?$AAo?$AAr?$AAy@ 1009db78     libucrtd:debug_heap.obj
 0002:00015ba0       ??_C@_1GG@OCLHPJPK@?$AAm?$AAi?$AAn?$AAk?$AAe?$AAr?$AAn?$AAe?$AAl?$AA?2?$AAc?$AAr?$AAt?$AAs?$AA?2@ 1009dba0     libucrtd:debug_heap.obj
 0002:00015c08       ??_C@_0DF@BBEGIFEK@Client?5hook?5allocation?5failure?5@ 1009dc08     libucrtd:debug_heap.obj
 0002:00015c40       ??_C@_0CB@CCLOLAHO@Client?5hook?5allocation?5failure?4@ 1009dc40     libucrtd:debug_heap.obj
 0002:00015c64       ??_C@_02DKCKIIND@?$CFs@    1009dc64     libucrtd:debug_heap.obj
 0002:00015c68       ??_C@_0DC@JEMAGEKG@Error?3?5memory?5allocation?3?5bad?5m@ 1009dc68     libucrtd:debug_heap.obj
 0002:00015c9c       ??_C@_0DI@KKJPDPGM@Client?5hook?5re?9allocation?5failu@ 1009dc9c     libucrtd:debug_heap.obj
 0002:00015cd4       ??_C@_0CE@DOFMDOL@Client?5hook?5re?9allocation?5failu@ 1009dcd4     libucrtd:debug_heap.obj
 0002:00015cf8       ??_C@_0FA@EFEIGJKG@Error?3?5memory?5allocation?3?5bad?5m@ 1009dcf8     libucrtd:debug_heap.obj
 0002:00015d48       ??_C@_0EM@LGFLMAGJ@The?5Block?5at?50x?$CFp?5was?5allocated@ 1009dd48     libucrtd:debug_heap.obj
 0002:00015d94       ??_C@_1DM@DEDLGNML@?$AA_?$AAC?$AAr?$AAt?$AAI?$AAs?$AAV?$AAa?$AAl?$AAi?$AAd?$AAH?$AAe?$AAa?$AAp@ 1009dd94     libucrtd:debug_heap.obj
 0002:00015dd0       ??_C@_1PC@MCGKJLN@?$AAo?$AAl?$AAd?$AA_?$AAh?$AAe?$AAa?$AAd?$AA?9?$AA?$DO?$AA_?$AAl?$AAi?$AAn?$AAe@ 1009ddd0     libucrtd:debug_heap.obj
 0002:00015ec4       ??_C@_0DA@HFBKENN@Error?3?5possible?5heap?5corruption@ 1009dec4     libucrtd:debug_heap.obj
 0002:00015ef8       ??_C@_1JM@MCMEPJEP@?$AAr?$AAe?$AAa?$AAl?$AAl?$AAo?$AAc?$AAa?$AAt?$AAi?$AAo?$AAn?$AA_?$AAi?$AAs@ 1009def8     libucrtd:debug_heap.obj
 0002:00015f94       ??_C@_1DM@LNOPKAIJ@?$AA_?$AA_?$AAa?$AAc?$AAr?$AAt?$AA_?$AAl?$AAa?$AAs?$AAt?$AA_?$AAb?$AAl?$AAo@ 1009df94     libucrtd:debug_heap.obj
 0002:00015fd0       ??_C@_1DO@HABCJBHO@?$AA_?$AA_?$AAa?$AAc?$AAr?$AAt?$AA_?$AAf?$AAi?$AAr?$AAs?$AAt?$AA_?$AAb?$AAl@ 1009dfd0     libucrtd:debug_heap.obj
 0002:00016010       ??_C@_1CC@CKEAHJPH@?$AAb?$AAl?$AAo?$AAc?$AAk?$AA?5?$AA?$CB?$AA?$DN?$AA?5?$AAn?$AAu?$AAl?$AAl?$AAp?$AAt@ 1009e010     libucrtd:debug_heap.obj
 0002:00016034       ??_C@_1BI@HAPNGHDP@?$AA_?$AAe?$AAx?$AAp?$AAa?$AAn?$AAd?$AA_?$AAd?$AAb?$AAg@ 1009e034     libucrtd:debug_heap.obj
 0002:00016050       ??_C@_0EJ@HEIBCIMJ@The?5Block?5at?50x?$CFp?5was?5allocated@ 1009e050     libucrtd:debug_heap.obj
 0002:0001609c       ??_C@_0BL@KEIPLFAC@Client?5hook?5free?5failure?4?6@ 1009e09c     libucrtd:debug_heap.obj
 0002:000160b8       ??_C@_1FA@KDNEBILF@?$AAi?$AAs?$AA_?$AAb?$AAl?$AAo?$AAc?$AAk?$AA_?$AAt?$AAy?$AAp?$AAe?$AA_?$AAv@ 1009e0b8     libucrtd:debug_heap.obj
 0002:00016108       ??_C@_0KI@JGFOHMEB@HEAP?5CORRUPTION?5DETECTED?3?5befor@ 1009e108     libucrtd:debug_heap.obj
 0002:000161b0       ??_C@_0IK@PJCGLBOB@HEAP?5CORRUPTION?5DETECTED?3?5befor@ 1009e1b0     libucrtd:debug_heap.obj
 0002:00016240       ??_C@_0KE@MBMNHHHN@HEAP?5CORRUPTION?5DETECTED?3?5after@ 1009e240     libucrtd:debug_heap.obj
 0002:000162e8       ??_C@_0IG@LEMBDCJK@HEAP?5CORRUPTION?5DETECTED?3?5after@ 1009e2e8     libucrtd:debug_heap.obj
 0002:00016370       ??_C@_1OK@GFEOEJAF@?$AAh?$AAe?$AAa?$AAd?$AAe?$AAr?$AA?9?$AA?$DO?$AA_?$AAl?$AAi?$AAn?$AAe?$AA_?$AAn@ 1009e370     libucrtd:debug_heap.obj
 0002:00016460       ??_C@_1ME@GFALMLNA@?$AAh?$AAe?$AAa?$AAd?$AAe?$AAr?$AA?9?$AA?$DO?$AA_?$AAb?$AAl?$AAo?$AAc?$AAk?$AA_@ 1009e460     libucrtd:debug_heap.obj
 0002:00016524       ??_C@_1DI@ILNOPEPI@?$AA_?$AA_?$AAa?$AAc?$AAr?$AAt?$AA_?$AAl?$AAa?$AAs?$AAt?$AA_?$AAb?$AAl?$AAo@ 1009e524     libucrtd:debug_heap.obj
 0002:0001655c       ??_C@_1DK@KEHFGDIJ@?$AA_?$AA_?$AAa?$AAc?$AAr?$AAt?$AA_?$AAf?$AAi?$AAr?$AAs?$AAt?$AA_?$AAb?$AAl@ 1009e55c     libucrtd:debug_heap.obj
 0002:00016598       ??_C@_1BG@MBKOGDLD@?$AA_?$AAm?$AAs?$AAi?$AAz?$AAe?$AA_?$AAd?$AAb?$AAg@ 1009e598     libucrtd:debug_heap.obj
 0002:000165b0       ??_C@_07OHKEFPKJ@DAMAGED@  1009e5b0     libucrtd:debug_heap.obj
 0002:000165b8       ??_C@_0KA@IHNJJKPL@HEAP?5CORRUPTION?5DETECTED?3?5on?5to@ 1009e5b8     libucrtd:debug_heap.obj
 0002:00016658       ??_C@_0IC@BBJIOOJH@HEAP?5CORRUPTION?5DETECTED?3?5on?5to@ 1009e658     libucrtd:debug_heap.obj
 0002:000166e0       ??_C@_0EG@DGJMPDBH@?$CFhs?5located?5at?50x?$CFp?5is?5?$CFIu?5byte@ 1009e6e0     libucrtd:debug_heap.obj
 0002:00016728       ??_C@_0CI@JMLBEDHJ@?$CFhs?5located?5at?50x?$CFp?5is?5?$CFIu?5byte@ 1009e728     libucrtd:debug_heap.obj
 0002:00016750       ??_C@_0EG@GPFHANHO@Cycle?5in?5block?5list?5detected?5wh@ 1009e750     libucrtd:debug_heap.obj
 0002:00016798       ??_C@_0BJ@ELMAOCAJ@Heap?5validation?5failed?4?6@ 1009e798     libucrtd:debug_heap.obj
 0002:000167b8       ??_C@_1IE@BBIFDGEB@?$AAn?$AAe?$AAw?$AA_?$AAb?$AAi?$AAt?$AAs?$AA?5?$AA?$DN?$AA?$DN?$AA?5?$AA_?$AAC?$AAR@ 1009e7b8     libucrtd:debug_heap.obj
 0002:0001683c       ??_C@_1BO@GJFDNMNF@?$AA_?$AAC?$AAr?$AAt?$AAS?$AAe?$AAt?$AAD?$AAb?$AAg?$AAF?$AAl?$AAa?$AAg@ 1009e83c     libucrtd:debug_heap.obj
 0002:0001685c       ??_C@_1CI@CEIBPAIA@?$AAc?$AAa?$AAl?$AAl?$AAb?$AAa?$AAc?$AAk?$AA?5?$AA?$CB?$AA?$DN?$AA?5?$AAn?$AAu?$AAl@ 1009e85c     libucrtd:debug_heap.obj
 0002:00016884       ??_C@_1DE@GJCKCKEC@?$AA_?$AAC?$AAr?$AAt?$AAD?$AAo?$AAF?$AAo?$AAr?$AAA?$AAl?$AAl?$AAC?$AAl?$AAi@ 1009e884     libucrtd:debug_heap.obj
 0002:000168b8       ??_C@_1CC@BBKMONGA@?$AAs?$AAt?$AAa?$AAt?$AAe?$AA?5?$AA?$CB?$AA?$DN?$AA?5?$AAn?$AAu?$AAl?$AAl?$AAp?$AAt@ 1009e8b8     libucrtd:debug_heap.obj
 0002:000168dc       ??_C@_1CE@NJJKELF@?$AA_?$AAC?$AAr?$AAt?$AAM?$AAe?$AAm?$AAC?$AAh?$AAe?$AAc?$AAk?$AAp?$AAo?$AAi@ 1009e8dc     libucrtd:debug_heap.obj
 0002:00016900       ??_C@_0DP@LEFMFBOD@Bad?5memory?5block?5found?5at?50x?$CFp?4@ 1009e900     libucrtd:debug_heap.obj
 0002:00016940       ??_C@_0CB@EAAIGELO@Bad?5memory?5block?5found?5at?50x?$CFp?4@ 1009e940     libucrtd:debug_heap.obj
 0002:00016964       ??_C@_1CE@PDIENACM@?$AA_?$AAC?$AAr?$AAt?$AAM?$AAe?$AAm?$AAD?$AAi?$AAf?$AAf?$AAe?$AAr?$AAe?$AAn@ 1009e964     libucrtd:debug_heap.obj
 0002:00016988       ??_C@_1CK@FFKLBHMD@?$AAo?$AAl?$AAd?$AA_?$AAs?$AAt?$AAa?$AAt?$AAe?$AA?5?$AA?$CB?$AA?$DN?$AA?5?$AAn?$AAu@ 1009e988     libucrtd:debug_heap.obj
 0002:000169b4       ??_C@_1CK@NJPPHDJP@?$AAn?$AAe?$AAw?$AA_?$AAs?$AAt?$AAa?$AAt?$AAe?$AA?5?$AA?$CB?$AA?$DN?$AA?5?$AAn?$AAu@ 1009e9b4     libucrtd:debug_heap.obj
 0002:000169e0       ??_C@_1CC@DIJAHFFJ@?$AAp?$AAr?$AAi?$AAn?$AAt?$AA_?$AAb?$AAl?$AAo?$AAc?$AAk?$AA_?$AAd?$AAa?$AAt@ 1009e9e0     libucrtd:debug_heap.obj
 0002:00016a04       ??_C@_0BA@HJBKCELP@?5Data?3?5?$DM?$CFs?$DO?5?$CFs?6@ 1009ea04     libucrtd:debug_heap.obj
 0002:00016a14       ??_C@_0BE@KCIPKCIA@Dumping?5objects?5?9?$DO?6@ 1009ea14     libucrtd:debug_heap.obj
 0002:00016a28       ??_C@_0BE@OIEFNFL@?$CDFile?5Error?$CD?$CI?$CFd?$CJ?5?3?5@ 1009ea28     libucrtd:debug_heap.obj
 0002:00016a3c       ??_C@_0L@JMEFFCCJ@?$CFhs?$CI?$CFd?$CJ?5?3?5@ 1009ea3c     libucrtd:debug_heap.obj
 0002:00016a48       ??_C@_06PKLGBFGM@?$HL?$CFld?$HN?5@ 1009ea48     libucrtd:debug_heap.obj
 0002:00016a50       ??_C@_0DD@GHNAAKBB@client?5block?5at?50x?$CFp?0?5subtype?5?$CF@ 1009ea50     libucrtd:debug_heap.obj
 0002:00016a84       ??_C@_0CH@FAGDDGPN@normal?5block?5at?50x?$CFp?0?5?$CFIu?5bytes@ 1009ea84     libucrtd:debug_heap.obj
 0002:00016aac       ??_C@_0DA@MDLBNIBM@crt?5block?5at?50x?$CFp?0?5subtype?5?$CFx?0?5@ 1009eaac     libucrtd:debug_heap.obj
 0002:00016adc       ??_C@_0BH@GFGKJDCO@Object?5dump?5complete?4?6@ 1009eadc     libucrtd:debug_heap.obj
 0002:00016af4       ??_C@_0BI@JBFPOEJA@Detected?5memory?5leaks?$CB?6@ 1009eaf4     libucrtd:debug_heap.obj
 0002:00016b0c       ??_C@_1CM@MPNIBKGK@?$AA_?$AAC?$AAr?$AAt?$AAM?$AAe?$AAm?$AAD?$AAu?$AAm?$AAp?$AAS?$AAt?$AAa?$AAt@ 1009eb0c     libucrtd:debug_heap.obj
 0002:00016b38       ??_C@_0BO@DACNIABB@?$CFId?5bytes?5in?5?$CFId?5?$CFhs?5Blocks?4?6@ 1009eb38     libucrtd:debug_heap.obj
 0002:00016b58       ??_C@_0CB@BLHDAFNE@Largest?5number?5used?3?5?$CFId?5bytes?4@ 1009eb58     libucrtd:debug_heap.obj
 0002:00016b7c       ??_C@_0BP@DEDHGGGI@Total?5allocations?3?5?$CFId?5bytes?4?6@ 1009eb7c     libucrtd:debug_heap.obj
 0002:00016b9c       ??_C@_1CM@JKMDHENJ@?$AAI?$AAS?$AA_?$AA2?$AA_?$AAP?$AAO?$AAW?$AA_?$AAN?$AA?$CI?$AAa?$AAl?$AAi?$AAg@ 1009eb9c     libucrtd:debug_heap.obj
 0002:00016bc8       ??_C@_1DG@DONCJBBJ@?$AA_?$AAa?$AAl?$AAi?$AAg?$AAn?$AAe?$AAd?$AA_?$AAo?$AAf?$AAf?$AAs?$AAe?$AAt@ 1009ebc8     libucrtd:debug_heap.obj
 0002:00016c00       ??_C@_1DK@LFLKFPDA@?$AAo?$AAf?$AAf?$AAs?$AAe?$AAt?$AA?5?$AA?$DN?$AA?$DN?$AA?5?$AA0?$AA?5?$AA?$HM?$AA?$HM?$AA?5@ 1009ec00     libucrtd:debug_heap.obj
 0002:00016c40       ??_C@_0EI@NDNJMAJK@The?5block?5at?50x?$CFp?5was?5not?5alloc@ 1009ec40     libucrtd:debug_heap.obj
 0002:00016c88       ??_C@_0DL@PGHMMKNE@Damage?5before?50x?$CFp?5which?5was?5al@ 1009ec88     libucrtd:debug_heap.obj
 0002:00016cc4       ??_C@_1DI@NINIKFFK@?$AA_?$AAa?$AAl?$AAi?$AAg?$AAn?$AAe?$AAd?$AA_?$AAo?$AAf?$AAf?$AAs?$AAe?$AAt@ 1009ecc4     libucrtd:debug_heap.obj
 0002:00016cfc       ??_C@_1CG@CEGMHIMN@?$AA_?$AAa?$AAl?$AAi?$AAg?$AAn?$AAe?$AAd?$AA_?$AAm?$AAs?$AAi?$AAz?$AAe?$AA_@ 1009ecfc     libucrtd:debug_heap.obj
 0002:00016d28       ??_C@_0EF@PGELACII@The?5block?5at?50x?$CFp?5was?5not?5alloc@ 1009ed28     libucrtd:debug_heap.obj
 0002:00016d70       ??_C@_1GE@IHIGNC@?$AA?$CI?$AA?$CI?$AAr?$AAe?$AAs?$AAu?$AAl?$AAt?$AA_?$AAb?$AAu?$AAf?$AAf?$AAe?$AAr@ 1009ed70     libucrtd:makepath.obj
 0002:00016dd8       ??_C@_1GO@CPMBDHKK@?$AAm?$AAi?$AAn?$AAk?$AAe?$AAr?$AAn?$AAe?$AAl?$AA?2?$AAc?$AAr?$AAt?$AAs?$AA?2@ 1009edd8     libucrtd:makepath.obj
 0002:00016e48       ??_C@_1CE@GNNMAAIL@?$AAc?$AAo?$AAm?$AAm?$AAo?$AAn?$AA_?$AAm?$AAa?$AAk?$AAe?$AAp?$AAa?$AAt?$AAh@ 1009ee48     libucrtd:makepath.obj
 0002:00016e6c       ??_C@_1CI@KGHCCPCN@?$AAc?$AAl?$AAe?$AAa?$AAn?$AAu?$AAp?$AA_?$AAa?$AAf?$AAt?$AAe?$AAr?$AA_?$AAe@ 1009ee6c     libucrtd:makepath.obj
 0002:00016e98       ??_C@_1HA@BEJINBHO@?$AAm?$AAi?$AAn?$AAk?$AAe?$AAr?$AAn?$AAe?$AAl?$AA?2?$AAc?$AAr?$AAt?$AAs?$AA?2@ 1009ee98     libucrtd:splitpath.obj
 0002:00016f08       ??_C@_1DE@EEECINKG@?$AAc?$AAo?$AAm?$AAm?$AAo?$AAn?$AA_?$AAs?$AAp?$AAl?$AAi?$AAt?$AAp?$AAa?$AAt@ 1009ef08     libucrtd:splitpath.obj
 0002:00016f3c       ??_C@_1CC@LLFJPCJO@?$AAn?$AAe?$AAw?$AA_?$AAh?$AAa?$AAn?$AAd?$AAl?$AAe?$AAr?$AA?5?$AA?$DN?$AA?$DN?$AA?5@ 1009ef3c     libucrtd:new_handler.obj
 0002:00016f60       ??_C@_1GI@GALDAPMM@?$AAm?$AAi?$AAn?$AAk?$AAe?$AAr?$AAn?$AAe?$AAl?$AA?2?$AAc?$AAr?$AAt?$AAs?$AA?2@ 1009ef60     libucrtd:new_handler.obj
 0002:00016fc8       ??_C@_1DA@LLLMNMKI@?$AAa?$AAb?$AAo?$AAr?$AAt?$AA?$CI?$AA?$CJ?$AA?5?$AAh?$AAa?$AAs?$AA?5?$AAb?$AAe?$AAe@ 1009efc8     libucrtd:abort.obj
 0002:00016ff8       __Fenv1                    1009eff8     libucrtd:atox.obj
 0002:00017000       ??_C@_1GE@DPGDJKLM@?$AAm?$AAi?$AAn?$AAk?$AAe?$AAr?$AAn?$AAe?$AAl?$AA?2?$AAc?$AAr?$AAt?$AAs?$AA?2@ 1009f000     libucrtd:atox.obj
 0002:00017068       ??_C@_1EO@MLJCKPIB@?$AAb?$AAa?$AAs?$AAe?$AA?5?$AA?$DN?$AA?$DN?$AA?5?$AA0?$AA?5?$AA?$HM?$AA?$HM?$AA?5?$AA?$CI?$AA2@ 1009f068     libucrtd:atox.obj
 0002:000170b8       ??_C@_1DI@BANODKFL@?$AA_?$AA_?$AAc?$AAr?$AAt?$AA_?$AAs?$AAt?$AAr?$AAt?$AAo?$AAx?$AA?3?$AA?3?$AAp@ 1009f0b8     libucrtd:atox.obj
 0002:000170f0       ??_C@_1CM@GJENOOEJ@?$AAc?$AA?5?$AA?$DN?$AA?$DN?$AA?5?$AA?8?$AA?2?$AA0?$AA?8?$AA?5?$AA?$HM?$AA?$HM?$AA?5?$AA?$CK?$AA_@ 1009f0f0     libucrtd:atox.obj
 0002:00017120       ??_C@_1HA@CONLANFI@?$AA_?$AA_?$AAc?$AAr?$AAt?$AA_?$AAs?$AAt?$AAr?$AAt?$AAo?$AAx?$AA?3?$AA?3?$AAc@ 1009f120     libucrtd:atox.obj
 0002:00017190       ??_C@_1BM@PNEBBBDO@?$AA_?$AAp?$AA?5?$AA?$CB?$AA?$DN?$AA?5?$AAn?$AAu?$AAl?$AAl?$AAp?$AAt?$AAr@ 1009f190     libucrtd:atox.obj
 0002:000171b0       ??_C@_1HG@FCDBLOEG@?$AA_?$AA_?$AAc?$AAr?$AAt?$AA_?$AAs?$AAt?$AAr?$AAt?$AAo?$AAx?$AA?3?$AA?3?$AAc@ 1009f1b0     libucrtd:atox.obj
 0002:00017228       ??_C@_1GK@MNHIDABG@?$AA_?$AA_?$AAc?$AAr?$AAt?$AA_?$AAs?$AAt?$AAr?$AAt?$AAo?$AAx?$AA?3?$AA?3?$AAc@ 1009f228     libucrtd:atox.obj
 0002:00017298       ??_C@_1HA@MKKIHBHP@?$AA_?$AA_?$AAc?$AAr?$AAt?$AA_?$AAs?$AAt?$AAr?$AAt?$AAo?$AAx?$AA?3?$AA?3?$AAc@ 1009f298     libucrtd:atox.obj
 0002:00017308       ??_C@_1FA@IFFFOLDJ@?$AAn?$AAR?$AAp?$AAt?$AAT?$AAy?$AAp?$AAe?$AA?5?$AA?$DO?$AA?$DN?$AA?5?$AA0?$AA?5?$AA?$CG@ 1009f308     libucrtd:dbgrptt.obj
 0002:00017358       ??_C@_1GA@LFAOKOOP@?$AAm?$AAi?$AAn?$AAk?$AAe?$AAr?$AAn?$AAe?$AAl?$AA?2?$AAc?$AAr?$AAt?$AAs?$AA?2@ 1009f358     libucrtd:dbgrptt.obj
 0002:000173b8       ??_C@_1CE@FIHIECNJ@?$AA_?$AAC?$AAr?$AAt?$AAS?$AAe?$AAt?$AAR?$AAe?$AAp?$AAo?$AAr?$AAt?$AAM?$AAo@ 1009f3b8     libucrtd:dbgrptt.obj
 0002:000173e0       ??_C@_1NK@LOFHIHFC@?$AAf?$AAM?$AAo?$AAd?$AAe?$AA?5?$AA?$DN?$AA?$DN?$AA?5?$AA_?$AAC?$AAR?$AAT?$AAD?$AAB@ 1009f3e0     libucrtd:dbgrptt.obj
 0002:000174bc       ??_C@_1CE@IKKEDCME@?$AA_?$AAC?$AAr?$AAt?$AAS?$AAe?$AAt?$AAR?$AAe?$AAp?$AAo?$AAr?$AAt?$AAF?$AAi@ 1009f4bc     libucrtd:dbgrptt.obj
 0002:000174e0       ??_C@_1CA@KHJHLKA@?$AA_?$AAV?$AAC?$AAr?$AAt?$AAD?$AAb?$AAg?$AAR?$AAe?$AAp?$AAo?$AAr?$AAt?$AAA@ 1009f4e0     libucrtd:dbgrptt.obj
 0002:00017500       ??_C@_1FA@JPHJBHEM@?$AA_?$AAi?$AAt?$AAo?$AAa?$AA_?$AAs?$AA?$CI?$AAn?$AAL?$AAi?$AAn?$AAe?$AA?0?$AA?5@ 1009f500     libucrtd:dbgrptt.obj
 0002:00017550       ??_C@_0CG@BNGLOCEO@Second?5Chance?5Assertion?5Failed?3@ 1009f550     libucrtd:dbgrptt.obj
 0002:00017578       ??_C@_0P@DFJNDPOP@?$DMfile?5unknown?$DO@ 1009f578     libucrtd:dbgrptt.obj
 0002:00017588       ??_C@_07BHGABMGB@?0?5Line?5@ 1009f588     libucrtd:dbgrptt.obj
 0002:00017590       ??_C@_1JI@GAALPGBM@?$AAs?$AAt?$AAr?$AAc?$AAp?$AAy?$AA_?$AAs?$AA?$CI?$AAs?$AAz?$AAU?$AAs?$AAe?$AAr@ 1009f590     libucrtd:dbgrptt.obj
 0002:00017628       ??_C@_0CL@EACFGMNB@_CrtDbgReport?3?5String?5too?5long?5@ 1009f628     libucrtd:dbgrptt.obj
 0002:00017658       ??_C@_1KK@GIGAEDMO@?$AAs?$AAt?$AAr?$AAc?$AAp?$AAy?$AA_?$AAs?$AA?$CI?$AAs?$AAz?$AAL?$AAi?$AAn?$AAe@ 1009f658     libucrtd:dbgrptt.obj
 0002:00017704       ??_C@_0BD@CAENFOHP@Assertion?5failed?3?5@ 1009f704     libucrtd:dbgrptt.obj
 0002:00017718       ??_C@_0BC@LAIDCHCH@Assertion?5failed?$CB@ 1009f718     libucrtd:dbgrptt.obj
 0002:00017730       ??_C@_1FK@NPGBPOFO@?$AAs?$AAt?$AAr?$AAc?$AAa?$AAt?$AA_?$AAs?$AA?$CI?$AAs?$AAz?$AAL?$AAi?$AAn?$AAe@ 1009f730     libucrtd:dbgrptt.obj
 0002:00017790       ??_C@_1EI@CACDLAFK@?$AAs?$AAt?$AAr?$AAc?$AAa?$AAt?$AA_?$AAs?$AA?$CI?$AAs?$AAz?$AAL?$AAi?$AAn?$AAe@ 1009f790     libucrtd:dbgrptt.obj
 0002:000177d8       ??_C@_01LIIJDEN@?$AN@      1009f7d8     libucrtd:dbgrptt.obj
 0002:000177e0       ??_C@_1EI@LDHJEDO@?$AAs?$AAt?$AAr?$AAc?$AAa?$AAt?$AA_?$AAs?$AA?$CI?$AAs?$AAz?$AAL?$AAi?$AAn?$AAe@ 1009f7e0     libucrtd:dbgrptt.obj
 0002:00017828       ??_C@_0M@IPILFDFN@?$CFs?$CI?$CFd?$CJ?5?3?5?$CFs@ 1009f828     libucrtd:dbgrptt.obj
 0002:00017838       ??_C@_1JG@CPKCIOEE@?$AAs?$AAt?$AAr?$AAc?$AAp?$AAy?$AA_?$AAs?$AA?$CI?$AAs?$AAz?$AAO?$AAu?$AAt?$AAM@ 1009f838     libucrtd:dbgrptt.obj
 0002:000178d0       ??_C@_1FI@IBIOIHEG@?$AAs?$AAt?$AAr?$AAc?$AAp?$AAy?$AA_?$AAs?$AA?$CI?$AAs?$AAz?$AAO?$AAu?$AAt?$AAM@ 1009f8d0     libucrtd:dbgrptt.obj
 0002:00017928       ??_C@_1IM@OOKIFKOH@?$AAe?$AA?5?$AA?$DN?$AA?5?$AAm?$AAb?$AAs?$AAt?$AAo?$AAw?$AAc?$AAs?$AA_?$AAs?$AA?$CI@ 1009f928     libucrtd:dbgrptt.obj
 0002:000179b8       ??_C@_1MC@IGEECMDB@?$AAw?$AAc?$AAs?$AAc?$AAp?$AAy?$AA_?$AAs?$AA?$CI?$AAs?$AAz?$AAO?$AAu?$AAt?$AAM@ 1009f9b8     libucrtd:dbgrptt.obj
 0002:00017a80       ??_C@_1HO@PJOFIKFE@?$AA_?$AAC?$AAr?$AAt?$AAD?$AAb?$AAg?$AAR?$AAe?$AAp?$AAo?$AAr?$AAt?$AA?3?$AA?5@ 1009fa80     libucrtd:dbgrptt.obj
 0002:00017b00       ??_C@_1CA@HPALHDOD@?$AA_?$AAV?$AAC?$AAr?$AAt?$AAD?$AAb?$AAg?$AAR?$AAe?$AAp?$AAo?$AAr?$AAt?$AAW@ 1009fb00     libucrtd:dbgrptt.obj
 0002:00017b20       ??_C@_1FA@CNLLOMHI@?$AA_?$AAi?$AAt?$AAo?$AAw?$AA_?$AAs?$AA?$CI?$AAn?$AAL?$AAi?$AAn?$AAe?$AA?0?$AA?5@ 1009fb20     libucrtd:dbgrptt.obj
 0002:00017b70       ??_C@_1EM@MJFLEDMB@?$AAS?$AAe?$AAc?$AAo?$AAn?$AAd?$AA?5?$AAC?$AAh?$AAa?$AAn?$AAc?$AAe?$AA?5?$AAA@ 1009fb70     libucrtd:dbgrptt.obj
 0002:00017bbc       ??_C@_1BO@OCHMLCAG@?$AA?$DM?$AAf?$AAi?$AAl?$AAe?$AA?5?$AAu?$AAn?$AAk?$AAn?$AAo?$AAw?$AAn?$AA?$DO@ 1009fbbc     libucrtd:dbgrptt.obj
 0002:00017bdc       ??_C@_1BA@ELMMDCFC@?$AA?0?$AA?5?$AAL?$AAi?$AAn?$AAe?$AA?5@ 1009fbdc     libucrtd:dbgrptt.obj
 0002:00017bec       ??_C@_13LBAGMAIH@?$AA?6@   1009fbec     libucrtd:dbgrptt.obj
 0002:00017bf0       ??_C@_1JK@KHFABAEO@?$AAw?$AAc?$AAs?$AAc?$AAp?$AAy?$AA_?$AAs?$AA?$CI?$AAs?$AAz?$AAU?$AAs?$AAe?$AAr@ 1009fbf0     libucrtd:dbgrptt.obj
 0002:00017c90       ??_C@_1KO@DGAHENCH@?$AAw?$AAc?$AAs?$AAc?$AAp?$AAy?$AA_?$AAs?$AA?$CI?$AAs?$AAz?$AAL?$AAi?$AAn?$AAe@ 1009fc90     libucrtd:dbgrptt.obj
 0002:00017d40       ??_C@_1CG@FFFGGODN@?$AAA?$AAs?$AAs?$AAe?$AAr?$AAt?$AAi?$AAo?$AAn?$AA?5?$AAf?$AAa?$AAi?$AAl?$AAe@ 1009fd40     libucrtd:dbgrptt.obj
 0002:00017d68       ??_C@_1CE@OJBNHDMO@?$AAA?$AAs?$AAs?$AAe?$AAr?$AAt?$AAi?$AAo?$AAn?$AA?5?$AAf?$AAa?$AAi?$AAl?$AAe@ 1009fd68     libucrtd:dbgrptt.obj
 0002:00017d90       ??_C@_1FK@HPADHBBD@?$AAw?$AAc?$AAs?$AAc?$AAa?$AAt?$AA_?$AAs?$AA?$CI?$AAs?$AAz?$AAL?$AAi?$AAn?$AAe@ 1009fd90     libucrtd:dbgrptt.obj
 0002:00017df0       ??_C@_1EK@NMDFGHMF@?$AAw?$AAc?$AAs?$AAc?$AAa?$AAt?$AA_?$AAs?$AA?$CI?$AAs?$AAz?$AAL?$AAi?$AAn?$AAe@ 1009fdf0     libucrtd:dbgrptt.obj
 0002:00017e3c       ??_C@_13CMNBPIDO@?$AA?$AN@ 1009fe3c     libucrtd:dbgrptt.obj
 0002:00017e40       ??_C@_1EK@PHCBEDKB@?$AAw?$AAc?$AAs?$AAc?$AAa?$AAt?$AA_?$AAs?$AA?$CI?$AAs?$AAz?$AAL?$AAi?$AAn?$AAe@ 1009fe40     libucrtd:dbgrptt.obj
 0002:00017e8c       ??_C@_1BM@GIBPMLNL@?$AA?$CF?$AAl?$AAs?$AA?$CI?$AA?$CF?$AAd?$AA?$CJ?$AA?5?$AA?3?$AA?5?$AA?$CF?$AAl?$AAs@ 1009fe8c     libucrtd:dbgrptt.obj
 0002:00017ea8       ??_C@_1JI@EACPGHID@?$AAw?$AAc?$AAs?$AAc?$AAp?$AAy?$AA_?$AAs?$AA?$CI?$AAs?$AAz?$AAO?$AAu?$AAt?$AAM@ 1009fea8     libucrtd:dbgrptt.obj
 0002:00017f40       ??_C@_1FI@DBAIJPJE@?$AAw?$AAc?$AAs?$AAc?$AAp?$AAy?$AA_?$AAs?$AA?$CI?$AAs?$AAz?$AAO?$AAu?$AAt?$AAM@ 1009ff40     libucrtd:dbgrptt.obj
 0002:00017f98       ??_C@_1IK@LEBMBAP@?$AAw?$AAc?$AAs?$AAt?$AAo?$AAm?$AAb?$AAs?$AA_?$AAs?$AA?$CI?$AAn?$AAu?$AAl?$AAl@ 1009ff98     libucrtd:dbgrptt.obj
 0002:00018028       ??_C@_1MA@LBAMNNOB@?$AAs?$AAt?$AAr?$AAc?$AAp?$AAy?$AA_?$AAs?$AA?$CI?$AAs?$AAz?$AAO?$AAu?$AAt?$AAM@ 100a0028     libucrtd:dbgrptt.obj
 0002:000180e8       ??_C@_0DP@GNPEPHJD@_CrtDbgReport?3?5String?5too?5long?5@ 100a00e8     libucrtd:dbgrptt.obj
 0002:00018128       ??_C@_1IE@CPGKIAGP@?$AAw?$AAc?$AAs?$AAt?$AAo?$AAm?$AAb?$AAs?$AA_?$AAs?$AA?$CI?$AA?$CG?$AAr?$AAe?$AAt@ 100a0128     libucrtd:dbgrptt.obj
 0002:000181ac       ??_C@_0CP@JIIONAG@minkernel?2crts?2ucrt?2src?2appcrt?2@ 100a01ac     libucrtd:signal.obj
 0002:000181dc       ??_C@_1DA@NBILLKNO@?$AAl?$AAo?$AAc?$AAa?$AAl?$AA_?$AAa?$AAc?$AAt?$AAi?$AAo?$AAn?$AA?5?$AA?$CB?$AA?$DN@ 100a01dc     libucrtd:signal.obj
 0002:00018210       ??_C@_1FO@CCGDPEKE@?$AAm?$AAi?$AAn?$AAk?$AAe?$AAr?$AAn?$AAe?$AAl?$AA?2?$AAc?$AAr?$AAt?$AAs?$AA?2@ 100a0210     libucrtd:signal.obj
 0002:00018270       ??_C@_1M@DMJEIKHL@?$AAr?$AAa?$AAi?$AAs?$AAe@ 100a0270     libucrtd:signal.obj
 0002:0001827c       ??_C@_1DO@MLNEDKGB@?$AA?$CI?$AA?$CC?$AAI?$AAn?$AAv?$AAa?$AAl?$AAi?$AAd?$AA?5?$AAs?$AAi?$AAg?$AAn?$AAa@ 100a027c     libucrtd:signal.obj
 0002:000182c0       ??_C@_1BBC@DECGKMGJ@?$AA_?$AAl?$AAo?$AAc?$AA_?$AAu?$AAp?$AAd?$AAa?$AAt?$AAe?$AA?4?$AAG?$AAe?$AAt@ 100a02c0     libucrtd:mbtowc.obj
 0002:000183d8       ??_C@_1GE@CGIHMDEJ@?$AAm?$AAi?$AAn?$AAk?$AAe?$AAr?$AAn?$AAe?$AAl?$AA?2?$AAc?$AAr?$AAt?$AAs?$AA?2@ 100a03d8     libucrtd:mbtowc.obj
 0002:00018440       ??_C@_1HA@KNBGJAIN@?$AAU?$AAT?$AAF?$AA?9?$AA8?$AA?5?$AAi?$AAs?$AAn?$AA?8?$AAt?$AA?5?$AAs?$AAu?$AAp@ 100a0440     libucrtd:mbtowc.obj
 0002:000184b0       ??_C@_1BBA@EIIJPPL@?$AA_?$AAl?$AAo?$AAc?$AA_?$AAu?$AAp?$AAd?$AAa?$AAt?$AAe?$AA?4?$AAG?$AAe?$AAt@ 100a04b0     libucrtd:mbtowc.obj
 0002:000185c0       ??_C@_1IE@CDCHDACI@?$AA_?$AAl?$AAo?$AAc?$AA_?$AAu?$AAp?$AAd?$AAa?$AAt?$AAe?$AA?4?$AAG?$AAe?$AAt@ 100a05c0     libucrtd:mbtowc.obj
 0002:00018644       ??_C@_1DK@NBNOAGKB@?$AAd?$AAe?$AAs?$AAt?$AAi?$AAn?$AAa?$AAt?$AAi?$AAo?$AAn?$AA_?$AAc?$AAo?$AAu@ 100a0644     libucrtd:wctomb.obj
 0002:00018680       ??_C@_1GE@FCCEPHFG@?$AAm?$AAi?$AAn?$AAk?$AAe?$AAr?$AAn?$AAe?$AAl?$AA?2?$AAc?$AAr?$AAt?$AAs?$AA?2@ 100a0680     libucrtd:wctomb.obj
 0002:000186e4       ??_C@_1BI@IEADNOHF@?$AA_?$AAw?$AAc?$AAt?$AAo?$AAm?$AAb?$AA_?$AAs?$AA_?$AAl@ 100a06e4     libucrtd:wctomb.obj
 0002:000186fc       ??_C@_1CM@ENFEGCNE@?$AAd?$AAe?$AAs?$AAt?$AAi?$AAn?$AAa?$AAt?$AAi?$AAo?$AAn?$AA_?$AAc?$AAo?$AAu@ 100a06fc     libucrtd:wctomb.obj
 0002:00018728       ??_C@_0DM@DKIFNNOL@minkernel?2crts?2ucrt?2src?2appcrt?2@ 100a0728     libucrtd:per_thread_data.obj
 0002:000187a8       ??_C@_03OEIAHPBN@INF@      100a07a8     libucrtd:cvt.obj
 0002:000187ac       ??_C@_03OJHLLCGB@inf@      100a07ac     libucrtd:cvt.obj
 0002:000187b0       ??_C@_03LKNCIKJB@NAN@      100a07b0     libucrtd:cvt.obj
 0002:000187b4       ??_C@_03LHCJEHON@nan@      100a07b4     libucrtd:cvt.obj
 0002:000187b8       ??_C@_09OFJJIMPC@NAN?$CISNAN?$CJ@ 100a07b8     libucrtd:cvt.obj
 0002:000187c4       ??_C@_09IPFBKMDL@nan?$CIsnan?$CJ@ 100a07c4     libucrtd:cvt.obj
 0002:000187d0       ??_C@_08IKHNHAJ@NAN?$CIIND?$CJ@ 100a07d0     libucrtd:cvt.obj
 0002:000187dc       ??_C@_08OFCDMILK@nan?$CIind?$CJ@ 100a07dc     libucrtd:cvt.obj
 0002:000187e8       ??_C@_1FO@GKAKAPLI@?$AAm?$AAi?$AAn?$AAk?$AAe?$AAr?$AAn?$AAe?$AAl?$AA?2?$AAc?$AAr?$AAt?$AAs?$AA?2@ 100a07e8     libucrtd:cvt.obj
 0002:00018848       ??_C@_1DE@EHGIGIDK@?$AAf?$AAp?$AA_?$AAf?$AAo?$AAr?$AAm?$AAa?$AAt?$AA_?$AAn?$AAa?$AAn?$AA_?$AAo@ 100a0848     libucrtd:cvt.obj
 0002:00018880       ??_C@_1LI@PCMLJPCO@?$AAs?$AAt?$AAr?$AAc?$AAp?$AAy?$AA_?$AAs?$AA?$CI?$AA?5?$AAr?$AAe?$AAs?$AAu?$AAl@ 100a0880     libucrtd:cvt.obj
 0002:00018938       ??_C@_1KO@LJHOFBCD@?$AAr?$AAe?$AAs?$AAu?$AAl?$AAt?$AA_?$AAb?$AAu?$AAf?$AAf?$AAe?$AAr?$AA_?$AAc@ 100a0938     libucrtd:cvt.obj
 0002:000189e8       ??_C@_1CK@BOLHOMFO@?$AAf?$AAp?$AA_?$AAf?$AAo?$AAr?$AAm?$AAa?$AAt?$AA_?$AAe?$AA_?$AAi?$AAn?$AAt@ 100a09e8     libucrtd:cvt.obj
 0002:00018a18       ??_C@_1BBE@LHDOMEDC@?$AAs?$AAt?$AAr?$AAc?$AAp?$AAy?$AA_?$AAs?$AA?$CI?$AA?5?$AAp?$AA?0?$AA?5?$AAr?$AAe@ 100a0a18     libucrtd:cvt.obj
 0002:00018b2c       ??_C@_05KLBDPFGC@e?$CL000@ 100a0b2c     libucrtd:cvt.obj
 0002:00018b38       ??_C@_1IC@FILKPBAB@?$AAr?$AAe?$AAs?$AAu?$AAl?$AAt?$AA_?$AAb?$AAu?$AAf?$AAf?$AAe?$AAr?$AA_?$AAc@ 100a0b38     libucrtd:cvt.obj
 0002:00018bbc       ??_C@_1BI@PNBDLNBB@?$AAf?$AAp?$AA_?$AAf?$AAo?$AAr?$AAm?$AAa?$AAt?$AA_?$AAa@ 100a0bbc     libucrtd:cvt.obj
 0002:00018bd4       ??_C@_1DC@MGKAFPFD@?$AAr?$AAe?$AAs?$AAu?$AAl?$AAt?$AA_?$AAb?$AAu?$AAf?$AAf?$AAe?$AAr?$AA?5?$AA?$CB@ 100a0bd4     libucrtd:cvt.obj
 0002:00018c08       ??_C@_1CC@LDAHJAKK@?$AA_?$AA_?$AAa?$AAc?$AAr?$AAt?$AA_?$AAf?$AAp?$AA_?$AAf?$AAo?$AAr?$AAm?$AAa@ 100a0c08     libucrtd:cvt.obj
 0002:00018c2c       ??_C@_1DA@NMLJJOCO@?$AAr?$AAe?$AAs?$AAu?$AAl?$AAt?$AA_?$AAb?$AAu?$AAf?$AAf?$AAe?$AAr?$AA_?$AAc@ 100a0c2c     libucrtd:cvt.obj
 0002:00018c5c       ??_C@_1DE@MNOPBCOK@?$AAs?$AAc?$AAr?$AAa?$AAt?$AAc?$AAh?$AA_?$AAb?$AAu?$AAf?$AAf?$AAe?$AAr?$AA?5@ 100a0c5c     libucrtd:cvt.obj
 0002:00018c90       ??_C@_1DC@CKBKNFKH@?$AAs?$AAc?$AAr?$AAa?$AAt?$AAc?$AAh?$AA_?$AAb?$AAu?$AAf?$AAf?$AAe?$AAr?$AA_@ 100a0c90     libucrtd:cvt.obj
 0002:00018cc8       ??_C@_1EI@JAHBOGIM@?$AA?$CI?$AA?$CC?$AAU?$AAn?$AAs?$AAu?$AAp?$AAp?$AAo?$AAr?$AAt?$AAe?$AAd?$AA?5?$AAf@ 100a0cc8     libucrtd:cvt.obj
 0002:00018d10       ??_C@_1GA@OJHMFOOJ@?$AAm?$AAi?$AAn?$AAk?$AAe?$AAr?$AAn?$AAe?$AAl?$AA?2?$AAc?$AAr?$AAt?$AAs?$AA?2@ 100a0d10     libucrtd:fputwc.obj
 0002:00018d70       ??_C@_1O@HJNPHHHB@?$AAf?$AAp?$AAu?$AAt?$AAw?$AAc@ 100a0d70     libucrtd:fputwc.obj
 0002:00018d80       ??_C@_1BO@MHPFFFJJ@?$AAs?$AAt?$AAr?$AAe?$AAa?$AAm?$AA?4?$AAv?$AAa?$AAl?$AAi?$AAd?$AA?$CI?$AA?$CJ@ 100a0d80     libucrtd:fileno.obj
 0002:00018da0       ??_C@_1GA@KCAHHNGP@?$AAm?$AAi?$AAn?$AAk?$AAe?$AAr?$AAn?$AAe?$AAl?$AA?2?$AAc?$AAr?$AAt?$AAs?$AA?2@ 100a0da0     libucrtd:fileno.obj
 0002:00018e00       ??_C@_1BA@JGHIEKKM@?$AA_?$AAf?$AAi?$AAl?$AAe?$AAn?$AAo@ 100a0e00     libucrtd:fileno.obj
 0002:00018e10       ??_C@_0CP@GDJHIDC@minkernel?2crts?2ucrt?2src?2appcrt?2@ 100a0e10     libucrtd:_file.obj
 0002:00018e40       ??_C@_1DC@OGOLMDEL@?$AAp?$AAu?$AAb?$AAl?$AAi?$AAc?$AA_?$AAs?$AAt?$AAr?$AAe?$AAa?$AAm?$AA?5?$AA?$CB@ 100a0e40     libucrtd:_file.obj
 0002:00018e78       ??_C@_1FO@IEGKHABE@?$AAm?$AAi?$AAn?$AAk?$AAe?$AAr?$AAn?$AAe?$AAl?$AA?2?$AAc?$AAr?$AAt?$AAs?$AA?2@ 100a0e78     libucrtd:_file.obj
 0002:00018ed8       ??_C@_1DI@PJGMCDLC@?$AA_?$AAg?$AAe?$AAt?$AA_?$AAs?$AAt?$AAr?$AAe?$AAa?$AAm?$AA_?$AAb?$AAu?$AAf@ 100a0ed8     libucrtd:_file.obj
 0002:00018f10       ??_C@_1FO@FNOAOMLP@?$AAm?$AAi?$AAn?$AAk?$AAe?$AAr?$AAn?$AAe?$AAl?$AA?2?$AAc?$AAr?$AAt?$AAs?$AA?2@ 100a0f10     libucrtd:fputc.obj
 0002:00018f70       ??_C@_1M@OIJMPNCO@?$AAf?$AAp?$AAu?$AAt?$AAc@ 100a0f70     libucrtd:fputc.obj
 0002:00018f80       ??_C@_1GC@GBMDABED@?$AAm?$AAi?$AAn?$AAk?$AAe?$AAr?$AAn?$AAe?$AAl?$AA?2?$AAc?$AAr?$AAt?$AAs?$AA?2@ 100a0f80     libucrtd:_sftbuf.obj
 0002:00018fe4       ??_C@_0DB@EPIHMFLB@minkernel?2crts?2ucrt?2src?2appcrt?2@ 100a0fe4     libucrtd:_sftbuf.obj
 0002:00019098       ___lc_category             100a1098     libucrtd:wsetlocale.obj
 0002:000190e0       ??_C@_1O@GIFLHMA@?$AAL?$AAC?$AA_?$AAA?$AAL?$AAL@ 100a10e0     libucrtd:wsetlocale.obj
 0002:000190f0       ??_C@_1BG@PPOMIBNJ@?$AAL?$AAC?$AA_?$AAC?$AAO?$AAL?$AAL?$AAA?$AAT?$AAE@ 100a10f0     libucrtd:wsetlocale.obj
 0002:00019108       ??_C@_1BC@FFJGAPJM@?$AAL?$AAC?$AA_?$AAC?$AAT?$AAY?$AAP?$AAE@ 100a1108     libucrtd:wsetlocale.obj
 0002:0001911c       ??_C@_1BI@PCKFNJFB@?$AAL?$AAC?$AA_?$AAM?$AAO?$AAN?$AAE?$AAT?$AAA?$AAR?$AAY@ 100a111c     libucrtd:wsetlocale.obj
 0002:00019134       ??_C@_1BG@ENIEDKID@?$AAL?$AAC?$AA_?$AAN?$AAU?$AAM?$AAE?$AAR?$AAI?$AAC@ 100a1134     libucrtd:wsetlocale.obj
 0002:0001914c       ??_C@_1BA@HAAOMIIG@?$AAL?$AAC?$AA_?$AAT?$AAI?$AAM?$AAE@ 100a114c     libucrtd:wsetlocale.obj
 0002:00019160       ??_C@_1GA@LDEGDKD@?$AA?$CI?$AA?$CC?$AAI?$AAn?$AAv?$AAa?$AAl?$AAi?$AAd?$AA?5?$AAp?$AAa?$AAr?$AAa?$AAm@ 100a1160     libucrtd:wsetlocale.obj
 0002:000191c0       ??_C@_1GK@DPKNLBIE@?$AAm?$AAi?$AAn?$AAk?$AAe?$AAr?$AAn?$AAe?$AAl?$AA?2?$AAc?$AAr?$AAt?$AAs?$AA?2@ 100a11c0     libucrtd:wsetlocale.obj
 0002:0001922c       ??_C@_1CI@FGIONOJM@?$AA_?$AAc?$AAo?$AAn?$AAf?$AAi?$AAg?$AAt?$AAh?$AAr?$AAe?$AAa?$AAd?$AAl?$AAo@ 100a122c     libucrtd:wsetlocale.obj
 0002:00019254       ??_C@_0DF@MKMHJGEJ@minkernel?2crts?2ucrt?2src?2appcrt?2@ 100a1254     libucrtd:wsetlocale.obj
 0002:00019290       ??_C@_1FG@OHLFEKMC@?$AAL?$AAC?$AA_?$AAM?$AAI?$AAN?$AA?5?$AA?$DM?$AA?$DN?$AA?5?$AA_?$AAc?$AAa?$AAt?$AAe@ 100a1290     libucrtd:wsetlocale.obj
 0002:000192e8       ??_C@_1BI@KJNPAEHL@?$AA_?$AAw?$AAs?$AAe?$AAt?$AAl?$AAo?$AAc?$AAa?$AAl?$AAe@ 100a12e8     libucrtd:wsetlocale.obj
 0002:00019300       ??_C@_15NBPDDFIP@?$AA?$DN?$AA?$DL@ 100a1300     libucrtd:wsetlocale.obj
 0002:00019308       ??_C@_13PJJBFPED@?$AA?$DL@ 100a1308     libucrtd:wsetlocale.obj
 0002:0001930c       ??_C@_1CG@DKJCBBPP@?$AA_?$AAw?$AAs?$AAe?$AAt?$AAl?$AAo?$AAc?$AAa?$AAl?$AAe?$AA_?$AAn?$AAo?$AAl@ 100a130c     libucrtd:wsetlocale.obj
 0002:00019338       ??_C@_1IG@NGDCPCDE@?$AAw?$AAc?$AAs?$AAn?$AAc?$AAp?$AAy?$AA_?$AAs?$AA?$CI?$AAl?$AAc?$AAt?$AAe?$AAm@ 100a1338     libucrtd:wsetlocale.obj
 0002:000193c0       ??_C@_1CI@ODOPEMNJ@?$AA_?$AAw?$AAs?$AAe?$AAt?$AAl?$AAo?$AAc?$AAa?$AAl?$AAe?$AA_?$AAs?$AAe?$AAt@ 100a13c0     libucrtd:wsetlocale.obj
 0002:000193e8       ??_C@_1EM@MHOCNIAA@?$AAw?$AAc?$AAs?$AAc?$AAp?$AAy?$AA_?$AAs?$AA?$CI?$AAp?$AAc?$AAh?$AA_?$AAc?$AAa@ 100a13e8     libucrtd:wsetlocale.obj
 0002:00019434       ??_C@_13NMPKAAJP@?$AA?$DN@ 100a1434     libucrtd:wsetlocale.obj
 0002:00019438       ??_C@_1CI@LKOPFFBD@?$AA_?$AAw?$AAs?$AAe?$AAt?$AAl?$AAo?$AAc?$AAa?$AAl?$AAe?$AA_?$AAg?$AAe?$AAt@ 100a1438     libucrtd:wsetlocale.obj
 0002:00019460       ??_C@_1DC@HMLJMODP@?$AAw?$AAc?$AAs?$AAc?$AAa?$AAt?$AA_?$AAs?$AA?$CI?$AAp?$AAc?$AAh?$AA?0?$AA?5?$AAc@ 100a1460     libucrtd:wsetlocale.obj
 0002:00019494       ??_C@_1CK@ENLABMHL@?$AAp?$AAa?$AAr?$AAs?$AAe?$AA_?$AAb?$AAc?$AAp?$AA4?$AA7?$AA_?$AAl?$AAa?$AAn@ 100a1494     libucrtd:wsetlocale.obj
 0002:000194c0       ??_C@_1NM@HLCCHHMI@?$AAw?$AAc?$AAs?$AAn?$AAc?$AAp?$AAy?$AA_?$AAs?$AA?$CI?$AAn?$AAa?$AAm?$AAe?$AAs@ 100a14c0     libucrtd:wsetlocale.obj
 0002:000195a0       ??_C@_1OE@CBMMNIKI@?$AAw?$AAc?$AAs?$AAn?$AAc?$AAp?$AAy?$AA_?$AAs?$AA?$CI?$AAn?$AAa?$AAm?$AAe?$AAs@ 100a15a0     libucrtd:wsetlocale.obj
 0002:00019684       ??_C@_1CG@EJAKMGFL@?$AAp?$AAa?$AAr?$AAs?$AAe?$AA_?$AAb?$AAc?$AAp?$AA4?$AA7?$AA_?$AAs?$AAc?$AAr@ 100a1684     libucrtd:wsetlocale.obj
 0002:000196b0       ??_C@_1LM@BMOGFEFE@?$AAw?$AAc?$AAs?$AAn?$AAc?$AAa?$AAt?$AA_?$AAs?$AA?$CI?$AAn?$AAa?$AAm?$AAe?$AAs@ 100a16b0     libucrtd:wsetlocale.obj
 0002:0001976c       ??_C@_13IMODFHAA@?$AA?9@   100a176c     libucrtd:wsetlocale.obj
 0002:00019770       ??_C@_1OE@EBFAEEFC@?$AAw?$AAc?$AAs?$AAn?$AAc?$AAa?$AAt?$AA_?$AAs?$AA?$CI?$AAn?$AAa?$AAm?$AAe?$AAs@ 100a1770     libucrtd:wsetlocale.obj
 0002:00019854       ??_C@_1CG@DHJLMPNE@?$AAp?$AAa?$AAr?$AAs?$AAe?$AA_?$AAb?$AAc?$AAp?$AA4?$AA7?$AA_?$AAr?$AAe?$AAg@ 100a1854     libucrtd:wsetlocale.obj
 0002:00019880       ??_C@_1NI@HCNCOMAB@?$AAw?$AAc?$AAs?$AAn?$AAc?$AAp?$AAy?$AA_?$AAs?$AA?$CI?$AAn?$AAa?$AAm?$AAe?$AAs@ 100a1880     libucrtd:wsetlocale.obj
 0002:00019958       ??_C@_1CM@BFJANLBJ@?$AAp?$AAa?$AAr?$AAs?$AAe?$AA_?$AAb?$AAc?$AAp?$AA4?$AA7?$AA_?$AAc?$AAo?$AAd@ 100a1958     libucrtd:wsetlocale.obj
 0002:00019988       ??_C@_1NM@EHBAOOJF@?$AAw?$AAc?$AAs?$AAn?$AAc?$AAp?$AAy?$AA_?$AAs?$AA?$CI?$AAn?$AAa?$AAm?$AAe?$AAs@ 100a1988     libucrtd:wsetlocale.obj
 0002:00019a64       ??_C@_17EFJLDFDO@?$AA?9?$AA_?$AA?4@ 100a1a64     libucrtd:wsetlocale.obj
 0002:00019a70       ??_C@_1IC@GOFECMPC@?$AA_?$AAe?$AAx?$AAp?$AAa?$AAn?$AAd?$AAl?$AAo?$AAc?$AAa?$AAl?$AAe?$AA_?$AAl@ 100a1a70     libucrtd:wsetlocale.obj
 0002:00019af8       ??_C@_1BCI@NFIGLKLE@?$AAw?$AAc?$AAs?$AAn?$AAc?$AAp?$AAy?$AA_?$AAs?$AA?$CI?$AAl?$AAo?$AAc?$AAa?$AAl@ 100a1af8     libucrtd:wsetlocale.obj
 0002:00019c20       ??_C@_1IE@NLIFNJDL@?$AA_?$AAe?$AAx?$AAp?$AAa?$AAn?$AAd?$AAl?$AAo?$AAc?$AAa?$AAl?$AAe?$AA_?$AAl@ 100a1c20     libucrtd:wsetlocale.obj
 0002:00019ca8       ??_C@_1BDA@BKILNJJG@?$AAw?$AAc?$AAs?$AAn?$AAc?$AAp?$AAy?$AA_?$AAs?$AA?$CI?$AA_?$AAp?$AAs?$AAe?$AAt@ 100a1ca8     libucrtd:wsetlocale.obj
 0002:00019dd8       ??_C@_1GI@FBIHHKPD@?$AA_?$AAe?$AAx?$AAp?$AAa?$AAn?$AAd?$AAl?$AAo?$AAc?$AAa?$AAl?$AAe?$AA_?$AAl@ 100a1dd8     libucrtd:wsetlocale.obj
 0002:00019e40       ??_C@_1BCM@CLIFPJEI@?$AAw?$AAc?$AAs?$AAn?$AAc?$AAp?$AAy?$AA_?$AAs?$AA?$CI?$AA_?$AAp?$AAs?$AAe?$AAt@ 100a1e40     libucrtd:wsetlocale.obj
 0002:00019f70       ??_C@_1JE@NMNMNJCJ@?$AA_?$AAe?$AAx?$AAp?$AAa?$AAn?$AAd?$AAl?$AAo?$AAc?$AAa?$AAl?$AAe?$AA_?$AAl@ 100a1f70     libucrtd:wsetlocale.obj
 0002:0001a008       ??_C@_1LM@FAJKEGBG@?$AAw?$AAc?$AAs?$AAn?$AAc?$AAp?$AAy?$AA_?$AAs?$AA?$CI?$AA_?$AAl?$AAo?$AAc?$AAa@ 100a2008     libucrtd:wsetlocale.obj
 0002:0001a0c4       ??_C@_1BM@OIIBLEFG@?$AA_?$AAe?$AAx?$AAp?$AAa?$AAn?$AAd?$AAl?$AAo?$AAc?$AAa?$AAl?$AAe@ 100a20c4     libucrtd:wsetlocale.obj
 0002:0001a0e0       ??_C@_1EI@OCINLCHN@?$AAw?$AAc?$AAs?$AAc?$AAp?$AAy?$AA_?$AAs?$AA?$CI?$AAo?$AAu?$AAt?$AAp?$AAu?$AAt@ 100a20e0     libucrtd:wsetlocale.obj
 0002:0001a128       ??_C@_13FHBKNHDA@?$AAC@    100a2128     libucrtd:wsetlocale.obj
 0002:0001a130       ??_C@_1IG@MKDIEKFD@?$AAw?$AAc?$AAs?$AAn?$AAc?$AAp?$AAy?$AA_?$AAs?$AA?$CI?$AAc?$AAa?$AAc?$AAh?$AAe@ 100a2130     libucrtd:wsetlocale.obj
 0002:0001a1b8       ??_C@_1IC@FCCDBGLL@?$AAw?$AAc?$AAs?$AAn?$AAc?$AAp?$AAy?$AA_?$AAs?$AA?$CI?$AAc?$AAa?$AAc?$AAh?$AAe@ 100a21b8     libucrtd:wsetlocale.obj
 0002:0001a240       ??_C@_1FA@HOOAAHFF@?$AAw?$AAc?$AAs?$AAc?$AAp?$AAy?$AA_?$AAs?$AA?$CI?$AAo?$AAu?$AAt?$AAp?$AAu?$AAt@ 100a2240     libucrtd:wsetlocale.obj
 0002:0001a290       ??_C@_1BC@LEOKFFML@?$AA_?$AAw?$AAc?$AAs?$AAc?$AAa?$AAt?$AAs@ 100a2290     libucrtd:wsetlocale.obj
 0002:0001a2a8       ??_C@_1BHK@BGMBCJOP@?$AAw?$AAc?$AAs?$AAc?$AAa?$AAt?$AA_?$AAs?$AA?$CI?$AAo?$AAu?$AAt?$AAs?$AAt?$AAr@ 100a22a8     libucrtd:wsetlocale.obj
 0002:0001a424       ??_C@_1BK@GNCHCGCN@?$AA_?$AA_?$AAl?$AAc?$AA_?$AAw?$AAc?$AAs?$AAt?$AAo?$AAl?$AAc@ 100a2424     libucrtd:wsetlocale.obj
 0002:0001a440       ??_C@_1MI@MGHKCMFH@?$AAw?$AAc?$AAs?$AAn?$AAc?$AAp?$AAy?$AA_?$AAs?$AA?$CI?$AAn?$AAa?$AAm?$AAe?$AAs@ 100a2440     libucrtd:wsetlocale.obj
 0002:0001a508       ??_C@_17MBJJLFDM@?$AA_?$AA?4?$AA?0@ 100a2508     libucrtd:wsetlocale.obj
 0002:0001a510       ??_C@_1LO@GGCCDNLJ@?$AAw?$AAc?$AAs?$AAn?$AAc?$AAp?$AAy?$AA_?$AAs?$AA?$CI?$AAn?$AAa?$AAm?$AAe?$AAs@ 100a2510     libucrtd:wsetlocale.obj
 0002:0001a5d0       ??_C@_1LK@JOIOCOID@?$AAw?$AAc?$AAs?$AAn?$AAc?$AAp?$AAy?$AA_?$AAs?$AA?$CI?$AAn?$AAa?$AAm?$AAe?$AAs@ 100a25d0     libucrtd:wsetlocale.obj
 0002:0001a690       ??_C@_1LO@OJICFEP@?$AAw?$AAc?$AAs?$AAn?$AAc?$AAp?$AAy?$AA_?$AAs?$AA?$CI?$AAn?$AAa?$AAm?$AAe?$AAs@ 100a2690     libucrtd:wsetlocale.obj
 0002:0001a750       ??_C@_1BK@HEBMGPEK@?$AA_?$AA_?$AAl?$AAc?$AA_?$AAl?$AAc?$AAt?$AAo?$AAw?$AAc?$AAs@ 100a2750     libucrtd:wsetlocale.obj
 0002:0001a770       ??_C@_1GM@FOFMGOEK@?$AAw?$AAc?$AAs?$AAc?$AAp?$AAy?$AA_?$AAs?$AA?$CI?$AAl?$AAo?$AAc?$AAa?$AAl?$AAe@ 100a2770     libucrtd:wsetlocale.obj
 0002:0001a7dc       ??_C@_13ENNFDPBH@?$AA_@    100a27dc     libucrtd:wsetlocale.obj
 0002:0001a7e0       ??_C@_13JOFGPIOO@?$AA?4@   100a27e0     libucrtd:wsetlocale.obj
 0002:0001a7e4       ??_C@_1DA@BBIOOKDN@?$AA_?$AA_?$AAa?$AAc?$AAr?$AAt?$AA_?$AAc?$AAo?$AAp?$AAy?$AA_?$AAl?$AAo?$AAc@ 100a27e4     libucrtd:wsetlocale.obj
 0002:0001a818       ??_C@_1GI@HBNMCKGD@?$AAw?$AAc?$AAs?$AAn?$AAc?$AAp?$AAy?$AA_?$AAs?$AA?$CI?$AAl?$AAo?$AAc?$AAa?$AAl@ 100a2818     libucrtd:wsetlocale.obj
 0002:0001a880       ___lc_time_c               100a2880     libucrtd:nlsdata.obj
 0002:0001a9e4       ??_C@_03KOEHGMDN@Sun@      100a29e4     libucrtd:nlsdata.obj
 0002:0001a9e8       ??_C@_03PDAGKDH@Mon@       100a29e8     libucrtd:nlsdata.obj
 0002:0001a9ec       ??_C@_03NAGEINEP@Tue@      100a29ec     libucrtd:nlsdata.obj
 0002:0001a9f0       ??_C@_03MHOMLAJA@Wed@      100a29f0     libucrtd:nlsdata.obj
 0002:0001a9f4       ??_C@_03IOFIKPDN@Thu@      100a29f4     libucrtd:nlsdata.obj
 0002:0001a9f8       ??_C@_03IDIOELNC@Fri@      100a29f8     libucrtd:nlsdata.obj
 0002:0001a9fc       ??_C@_03FEFJNEK@Sat@       100a29fc     libucrtd:nlsdata.obj
 0002:0001aa00       ??_C@_06OOPIFAJ@Sunday@    100a2a00     libucrtd:nlsdata.obj
 0002:0001aa08       ??_C@_06JLEDEDGH@Monday@   100a2a08     libucrtd:nlsdata.obj
 0002:0001aa10       ??_C@_07BAAGCFCM@Tuesday@  100a2a10     libucrtd:nlsdata.obj
 0002:0001aa18       ??_C@_09DLIGFAKA@Wednesday@ 100a2a18     libucrtd:nlsdata.obj
 0002:0001aa24       ??_C@_08HACCIKIA@Thursday@ 100a2a24     libucrtd:nlsdata.obj
 0002:0001aa30       ??_C@_06JECMNKMI@Friday@   100a2a30     libucrtd:nlsdata.obj
 0002:0001aa38       ??_C@_08INBOOONO@Saturday@ 100a2a38     libucrtd:nlsdata.obj
 0002:0001aa44       ??_C@_03JIHJHPIE@Jan@      100a2a44     libucrtd:nlsdata.obj
 0002:0001aa48       ??_C@_03HJBDCHOM@Feb@      100a2a48     libucrtd:nlsdata.obj
 0002:0001aa4c       ??_C@_03ODNJBKGA@Mar@      100a2a4c     libucrtd:nlsdata.obj
 0002:0001aa50       ??_C@_03LEOLGMJP@Apr@      100a2a50     libucrtd:nlsdata.obj
 0002:0001aa54       ??_C@_03CNMDKL@May@        100a2a54     libucrtd:nlsdata.obj
 0002:0001aa58       ??_C@_03IDFGHECI@Jun@      100a2a58     libucrtd:nlsdata.obj
 0002:0001aa5c       ??_C@_03LBGABGKK@Jul@      100a2a5c     libucrtd:nlsdata.obj
 0002:0001aa60       ??_C@_03IFJFEIGA@Aug@      100a2a60     libucrtd:nlsdata.obj
 0002:0001aa64       ??_C@_03GGCAPAJC@Sep@      100a2a64     libucrtd:nlsdata.obj
 0002:0001aa68       ??_C@_03BMAOKBAD@Oct@      100a2a68     libucrtd:nlsdata.obj
 0002:0001aa6c       ??_C@_03JPJOFNIA@Nov@      100a2a6c     libucrtd:nlsdata.obj
 0002:0001aa70       ??_C@_03MKABNOCG@Dec@      100a2a70     libucrtd:nlsdata.obj
 0002:0001aa74       ??_C@_07CGJPFGJA@January@  100a2a74     libucrtd:nlsdata.obj
 0002:0001aa7c       ??_C@_08GNJGEPFN@February@ 100a2a7c     libucrtd:nlsdata.obj
 0002:0001aa88       ??_C@_05HPCKOFNC@March@    100a2a88     libucrtd:nlsdata.obj
 0002:0001aa90       ??_C@_05DMJDNLEJ@April@    100a2a90     libucrtd:nlsdata.obj
 0002:0001aa98       ??_C@_04CNLMGBGM@June@     100a2a98     libucrtd:nlsdata.obj
 0002:0001aaa0       ??_C@_04MIEPOIFP@July@     100a2aa0     libucrtd:nlsdata.obj
 0002:0001aaa8       ??_C@_06LBBHFDDG@August@   100a2aa8     libucrtd:nlsdata.obj
 0002:0001aab0       ??_C@_09BHHEALKD@September@ 100a2ab0     libucrtd:nlsdata.obj
 0002:0001aabc       ??_C@_07JJNFCEND@October@  100a2abc     libucrtd:nlsdata.obj
 0002:0001aac4       ??_C@_08HCHEGEOA@November@ 100a2ac4     libucrtd:nlsdata.obj
 0002:0001aad0       ??_C@_08EDHMEBNP@December@ 100a2ad0     libucrtd:nlsdata.obj
 0002:0001aadc       ??_C@_02DEDBPAFC@AM@       100a2adc     libucrtd:nlsdata.obj
 0002:0001aae0       ??_C@_02CJNFDJBF@PM@       100a2ae0     libucrtd:nlsdata.obj
 0002:0001aae4       ??_C@_08BPBNCDIB@MM?1dd?1yy@ 100a2ae4     libucrtd:nlsdata.obj
 0002:0001aaf0       ??_C@_0BE@CKGJFCPC@dddd?0?5MMMM?5dd?0?5yyyy@ 100a2af0     libucrtd:nlsdata.obj
 0002:0001ab04       ??_C@_08JCCMCCIL@HH?3mm?3ss@ 100a2b04     libucrtd:nlsdata.obj
 0002:0001ab10       ??_C@_17MBGCMIPB@?$AAS?$AAu?$AAn@ 100a2b10     libucrtd:nlsdata.obj
 0002:0001ab18       ??_C@_17KBOMKBF@?$AAM?$AAo?$AAn@ 100a2b18     libucrtd:nlsdata.obj
 0002:0001ab20       ??_C@_17BMKGEGOJ@?$AAT?$AAu?$AAe@ 100a2b20     libucrtd:nlsdata.obj
 0002:0001ab28       ??_C@_17CJEDCEPE@?$AAW?$AAe?$AAd@ 100a2b28     libucrtd:nlsdata.obj
 0002:0001ab30       ??_C@_17PDPHAADD@?$AAT?$AAh?$AAu@ 100a2b30     libucrtd:nlsdata.obj
 0002:0001ab38       ??_C@_17HFOLPPLP@?$AAF?$AAr?$AAi@ 100a2b38     libucrtd:nlsdata.obj
 0002:0001ab40       ??_C@_17GGIBDPIH@?$AAS?$AAa?$AAt@ 100a2b40     libucrtd:nlsdata.obj
 0002:0001ab48       ??_C@_1O@IHNHDHPB@?$AAS?$AAu?$AAn?$AAd?$AAa?$AAy@ 100a2b48     libucrtd:nlsdata.obj
 0002:0001ab58       ??_C@_1O@MMNBFLIA@?$AAM?$AAo?$AAn?$AAd?$AAa?$AAy@ 100a2b58     libucrtd:nlsdata.obj
 0002:0001ab68       ??_C@_1BA@ENFBFFEK@?$AAT?$AAu?$AAe?$AAs?$AAd?$AAa?$AAy@ 100a2b68     libucrtd:nlsdata.obj
 0002:0001ab78       ??_C@_1BE@EBOGMDOH@?$AAW?$AAe?$AAd?$AAn?$AAe?$AAs?$AAd?$AAa?$AAy@ 100a2b78     libucrtd:nlsdata.obj
 0002:0001ab8c       ??_C@_1BC@HHMNLIHE@?$AAT?$AAh?$AAu?$AAr?$AAs?$AAd?$AAa?$AAy@ 100a2b8c     libucrtd:nlsdata.obj
 0002:0001aba0       ??_C@_1O@PDICJHAG@?$AAF?$AAr?$AAi?$AAd?$AAa?$AAy@ 100a2ba0     libucrtd:nlsdata.obj
 0002:0001abb0       ??_C@_1BC@ENMNNPAJ@?$AAS?$AAa?$AAt?$AAu?$AAr?$AAd?$AAa?$AAy@ 100a2bb0     libucrtd:nlsdata.obj
 0002:0001abc4       ??_C@_17DKNBKCHM@?$AAJ?$AAa?$AAn@ 100a2bc4     libucrtd:nlsdata.obj
 0002:0001abcc       ??_C@_17LMDJEKJN@?$AAF?$AAe?$AAb@ 100a2bcc     libucrtd:nlsdata.obj
 0002:0001abd4       ??_C@_17CKNLEDEC@?$AAM?$AAa?$AAr@ 100a2bd4     libucrtd:nlsdata.obj
 0002:0001abdc       ??_C@_17LFPOIHDD@?$AAA?$AAp?$AAr@ 100a2bdc     libucrtd:nlsdata.obj
 0002:0001abe4       ??_C@_17PNNKMEED@?$AAM?$AAa?$AAy@ 100a2be4     libucrtd:nlsdata.obj
 0002:0001abec       ??_C@_17KCJGOCPB@?$AAJ?$AAu?$AAn@ 100a2bec     libucrtd:nlsdata.obj
 0002:0001abf4       ??_C@_17IJPCKHK@?$AAJ?$AAu?$AAl@ 100a2bf4     libucrtd:nlsdata.obj
 0002:0001abfc       ??_C@_17ICPELBCN@?$AAA?$AAu?$AAg@ 100a2bfc     libucrtd:nlsdata.obj
 0002:0001ac04       ??_C@_17HCHCOKMG@?$AAS?$AAe?$AAp@ 100a2c04     libucrtd:nlsdata.obj
 0002:0001ac0c       ??_C@_17FNLKOI@?$AAO?$AAc?$AAt@ 100a2c0c     libucrtd:nlsdata.obj
 0002:0001ac14       ??_C@_17BBDMLCIG@?$AAN?$AAo?$AAv@ 100a2c14     libucrtd:nlsdata.obj
 0002:0001ac1c       ??_C@_17EGKACKIF@?$AAD?$AAe?$AAc@ 100a2c1c     libucrtd:nlsdata.obj
 0002:0001ac24       ??_C@_1BA@EFMEIEBA@?$AAJ?$AAa?$AAn?$AAu?$AAa?$AAr?$AAy@ 100a2c24     libucrtd:nlsdata.obj
 0002:0001ac34       ??_C@_1BC@JGDDFFAM@?$AAF?$AAe?$AAb?$AAr?$AAu?$AAa?$AAr?$AAy@ 100a2c34     libucrtd:nlsdata.obj
 0002:0001ac48       ??_C@_1M@IKEENEDF@?$AAM?$AAa?$AAr?$AAc?$AAh@ 100a2c48     libucrtd:nlsdata.obj
 0002:0001ac54       ??_C@_1M@GJNLMHFD@?$AAA?$AAp?$AAr?$AAi?$AAl@ 100a2c54     libucrtd:nlsdata.obj
 0002:0001ac60       ??_C@_19EPFLPGAP@?$AAJ?$AAu?$AAn?$AAe@ 100a2c60     libucrtd:nlsdata.obj
 0002:0001ac6c       ??_C@_19BIFMLPCD@?$AAJ?$AAu?$AAl?$AAy@ 100a2c6c     libucrtd:nlsdata.obj
 0002:0001ac78       ??_C@_1O@PAHLKOAC@?$AAA?$AAu?$AAg?$AAu?$AAs?$AAt@ 100a2c78     libucrtd:nlsdata.obj
 0002:0001ac88       ??_C@_1BE@DKAAMBJL@?$AAS?$AAe?$AAp?$AAt?$AAe?$AAm?$AAb?$AAe?$AAr@ 100a2c88     libucrtd:nlsdata.obj
 0002:0001ac9c       ??_C@_1BA@EPANDLNG@?$AAO?$AAc?$AAt?$AAo?$AAb?$AAe?$AAr@ 100a2c9c     libucrtd:nlsdata.obj
 0002:0001acac       ??_C@_1BC@BGLIFPF@?$AAN?$AAo?$AAv?$AAe?$AAm?$AAb?$AAe?$AAr@ 100a2cac     libucrtd:nlsdata.obj
 0002:0001acc0       ??_C@_1BC@FEMKIFH@?$AAD?$AAe?$AAc?$AAe?$AAm?$AAb?$AAe?$AAr@ 100a2cc0     libucrtd:nlsdata.obj
 0002:0001acd4       ??_C@_15ODEHAHHF@?$AAA?$AAM@ 100a2cd4     libucrtd:nlsdata.obj
 0002:0001acdc       ??_C@_15CLMNNGEL@?$AAP?$AAM@ 100a2cdc     libucrtd:nlsdata.obj
 0002:0001ace4       ??_C@_1BC@IEBCMHCM@?$AAM?$AAM?$AA?1?$AAd?$AAd?$AA?1?$AAy?$AAy@ 100a2ce4     libucrtd:nlsdata.obj
 0002:0001acf8       ??_C@_1CI@KNAKOEBC@?$AAd?$AAd?$AAd?$AAd?$AA?0?$AA?5?$AAM?$AAM?$AAM?$AAM?$AA?5?$AAd?$AAd?$AA?0?$AA?5@ 100a2cf8     libucrtd:nlsdata.obj
 0002:0001ad20       ??_C@_1BC@GDGBMEMK@?$AAH?$AAH?$AA?3?$AAm?$AAm?$AA?3?$AAs?$AAs@ 100a2d20     libucrtd:nlsdata.obj
 0002:0001ad34       ??_C@_1M@BMHNFIME@?$AAe?$AAn?$AA?9?$AAU?$AAS@ 100a2d34     libucrtd:nlsdata.obj
 0002:0001ad40       ??_C@_1FM@MMDMNOHM@?$AAm?$AAi?$AAn?$AAk?$AAe?$AAr?$AAn?$AAe?$AAl?$AA?2?$AAc?$AAr?$AAt?$AAs?$AA?2@ 100a2d40     libucrtd:msize.obj
 0002:0001ad9c       ??_C@_1BI@MHNDMCP@?$AA_?$AAm?$AAs?$AAi?$AAz?$AAe?$AA_?$AAb?$AAa?$AAs?$AAe@ 100a2d9c     libucrtd:msize.obj
 0002:0001adb8       ??_C@_1FO@NMANMHOD@?$AAc?$AAa?$AAc?$AAh?$AAe?$AAd?$AA_?$AAs?$AAt?$AAa?$AAt?$AAe?$AA?5?$AA?$DN?$AA?$DN@ 100a2db8     libucrtd:win_policies.obj
 0002:0001ae18       ??_C@_1HC@GHLNKBJK@?$AAm?$AAi?$AAn?$AAk?$AAe?$AAr?$AAn?$AAe?$AAl?$AA?2?$AAc?$AAr?$AAt?$AAs?$AA?2@ 100a2e18     libucrtd:win_policies.obj
 0002:0001ae8c       ??_C@_0DI@DNFGFCIK@minkernel?2crts?2ucrt?2inc?2corecrt@ 100a2e8c     libucrtd:argv_wildcards.obj
 0002:0001aec8       ??_C@_1HE@CEMHPOHH@?$AAm?$AAi?$AAn?$AAk?$AAe?$AAr?$AAn?$AAe?$AAl?$AA?2?$AAc?$AAr?$AAt?$AAs?$AA?2@ 100a2ec8     libucrtd:argv_wildcards.obj
 0002:0001af3c       ??_C@_1DK@IBFFOJGB@?$AAc?$AAo?$AAm?$AAm?$AAo?$AAn?$AA_?$AAe?$AAx?$AAp?$AAa?$AAn?$AAd?$AA_?$AAa@ 100a2f3c     libucrtd:argv_wildcards.obj
 0002:0001af78       ??_C@_1MC@FLPKOFON@?$AAt?$AAr?$AAa?$AAi?$AAt?$AAs?$AA?3?$AA?3?$AAt?$AAc?$AAs?$AAn?$AAc?$AAp?$AAy@ 100a2f78     libucrtd:argv_wildcards.obj
 0002:0001b03c       ??_C@_0DK@FPFMIIJB@minkernel?2crts?2ucrt?2src?2appcrt?2@ 100a303c     libucrtd:argv_wildcards.obj
 0002:0001b078       ??_C@_1EA@KOCCBLAD@?$AAc?$AAo?$AAp?$AAy?$AA_?$AAa?$AAn?$AAd?$AA_?$AAa?$AAd?$AAd?$AA_?$AAa?$AAr@ 100a3078     libucrtd:argv_wildcards.obj
 0002:0001b0b8       ??_C@_1KM@GDJIGAGL@?$AAt?$AAr?$AAa?$AAi?$AAt?$AAs?$AA?3?$AA?3?$AAt?$AAc?$AAs?$AAn?$AAc?$AAp?$AAy@ 100a30b8     libucrtd:argv_wildcards.obj
 0002:0001b168       ??_C@_1PI@FGFLAGCC@?$AAt?$AAr?$AAa?$AAi?$AAt?$AAs?$AA?3?$AA?3?$AAt?$AAc?$AAs?$AAn?$AAc?$AAp?$AAy@ 100a3168     libucrtd:argv_wildcards.obj
 0002:0001b270       ??_C@_1M@HPNHIDJI@?$AAj?$AAa?$AA?9?$AAJ?$AAP@ 100a3270     libucrtd:mbctype.obj
 0002:0001b27c       ??_C@_1M@BIBDDEMK@?$AAz?$AAh?$AA?9?$AAC?$AAN@ 100a327c     libucrtd:mbctype.obj
 0002:0001b288       ??_C@_1M@JLOOOEGK@?$AAk?$AAo?$AA?9?$AAK?$AAR@ 100a3288     libucrtd:mbctype.obj
 0002:0001b294       ??_C@_1M@CLNBBOPM@?$AAz?$AAh?$AA?9?$AAT?$AAW@ 100a3294     libucrtd:mbctype.obj
 0002:0001b2a0       ??_C@_0DE@HGDKNBFD@minkernel?2crts?2ucrt?2src?2appcrt?2@ 100a32a0     libucrtd:mbctype.obj
 0002:0001b2d8       ??_C@_1GK@EMNILMBI@?$AAm?$AAi?$AAn?$AAk?$AAe?$AAr?$AAn?$AAe?$AAl?$AA?2?$AAc?$AAr?$AAt?$AAs?$AA?2@ 100a32d8     libucrtd:argv_data.obj
 0002:0001b344       ??_C@_1BK@PNLDCCDP@?$AA_?$AAg?$AAe?$AAt?$AA_?$AAw?$AAp?$AAg?$AAm?$AAp?$AAt?$AAr@ 100a3344     libucrtd:argv_data.obj
 0002:0001b360       ??_C@_1CI@ENCADPBF@?$AA_?$AAw?$AAp?$AAg?$AAm?$AAp?$AAt?$AAr?$AA?5?$AA?$CB?$AA?$DN?$AA?5?$AAn?$AAu?$AAl@ 100a3360     libucrtd:argv_data.obj
 0002:0001b388       ??_C@_1BI@COAAPHJK@?$AA_?$AAg?$AAe?$AAt?$AA_?$AAp?$AAg?$AAm?$AAp?$AAt?$AAr@ 100a3388     libucrtd:argv_data.obj
 0002:0001b3a0       ??_C@_1CG@CKJHPBDG@?$AA_?$AAp?$AAg?$AAm?$AAp?$AAt?$AAr?$AA?5?$AA?$CB?$AA?$DN?$AA?5?$AAn?$AAu?$AAl?$AAl@ 100a33a0     libucrtd:argv_data.obj
 0002:0001b3c8       ??_C@_0ED@BLPEHJAI@minkernel?2crts?2ucrt?2src?2desktop@ 100a33c8     libucrtd:get_environment_from_os.obj
 0002:0001b40c       ??_C@_1DO@PANKIJNP@?$AAe?$AAq?$AAu?$AAa?$AAl?$AA_?$AAs?$AAi?$AAg?$AAn?$AA?5?$AA?9?$AA?5?$AAo?$AAp@ 100a340c     libucrtd:setenv.obj
 0002:0001b450       ??_C@_1GE@MMOHBENP@?$AAm?$AAi?$AAn?$AAk?$AAe?$AAr?$AAn?$AAe?$AAl?$AA?2?$AAc?$AAr?$AAt?$AAs?$AA?2@ 100a3450     libucrtd:setenv.obj
 0002:0001b4b8       ??_C@_1GK@KBABANDM@?$AAt?$AAr?$AAa?$AAi?$AAt?$AAs?$AA?3?$AA?3?$AAt?$AAc?$AAs?$AAn?$AAl?$AAe?$AAn@ 100a34b8     libucrtd:setenv.obj
 0002:0001b524       ??_C@_0DC@NJKMKCIL@minkernel?2crts?2ucrt?2src?2desktop@ 100a3524     libucrtd:setenv.obj
 0002:0001b558       ??_C@_1EC@IKJPFBIM@?$AA?$CI?$AA?$CC?$AAC?$AAR?$AAT?$AA?5?$AAl?$AAo?$AAg?$AAi?$AAc?$AA?5?$AAe?$AAr?$AAr@ 100a3558     libucrtd:setenv.obj
 0002:0001b5a0       ??_C@_1FE@KHMDCEEJ@?$AAc?$AAo?$AAm?$AAm?$AAo?$AAn?$AA_?$AAs?$AAe?$AAt?$AA_?$AAv?$AAa?$AAr?$AAi@ 100a35a0     libucrtd:setenv.obj
 0002:0001b5f8       ??_C@_1EM@NIOJJLEA@?$AAt?$AAr?$AAa?$AAi?$AAt?$AAs?$AA?3?$AA?3?$AAt?$AAc?$AAs?$AAc?$AAp?$AAy?$AA_@ 100a35f8     libucrtd:setenv.obj
 0002:0001b644       ??_C@_1CC@PIMGMDJH@?$AAc?$AAo?$AAp?$AAy?$AA_?$AAe?$AAn?$AAv?$AAi?$AAr?$AAo?$AAn?$AAm?$AAe?$AAn@ 100a3644     libucrtd:setenv.obj
 0002:0001b668       ??_C@_1GG@EDHOMIDL@?$AAt?$AAr?$AAa?$AAi?$AAt?$AAs?$AA?3?$AA?3?$AAt?$AAc?$AAs?$AAc?$AAp?$AAy?$AA_@ 100a3668     libucrtd:setenv.obj
 0002:0001b720       ??_C@_1EA@JGEFHKEI@?$AAa?$AAp?$AAi?$AA?9?$AAm?$AAs?$AA?9?$AAw?$AAi?$AAn?$AA?9?$AAc?$AAo?$AAr?$AAe@ 100a3720     libucrtd:winapi_thunks.obj
 0002:0001b760       ??_C@_1DI@IJCEHOCB@?$AAa?$AAp?$AAi?$AA?9?$AAm?$AAs?$AA?9?$AAw?$AAi?$AAn?$AA?9?$AAc?$AAo?$AAr?$AAe@ 100a3760     libucrtd:winapi_thunks.obj
 0002:0001b798       ??_C@_1EI@MPIAOHOC@?$AAa?$AAp?$AAi?$AA?9?$AAm?$AAs?$AA?9?$AAw?$AAi?$AAn?$AA?9?$AAc?$AAo?$AAr?$AAe@ 100a3798     libucrtd:winapi_thunks.obj
 0002:0001b7e0       ??_C@_1FK@FPHCKFIE@?$AAa?$AAp?$AAi?$AA?9?$AAm?$AAs?$AA?9?$AAw?$AAi?$AAn?$AA?9?$AAc?$AAo?$AAr?$AAe@ 100a37e0     libucrtd:winapi_thunks.obj
 0002:0001b840       ??_C@_1EM@DILCGIIO@?$AAa?$AAp?$AAi?$AA?9?$AAm?$AAs?$AA?9?$AAw?$AAi?$AAn?$AA?9?$AAc?$AAo?$AAr?$AAe@ 100a3840     libucrtd:winapi_thunks.obj
 0002:0001b88c       ??_C@_1DM@LNCGDDPN@?$AAa?$AAp?$AAi?$AA?9?$AAm?$AAs?$AA?9?$AAw?$AAi?$AAn?$AA?9?$AAc?$AAo?$AAr?$AAe@ 100a388c     libucrtd:winapi_thunks.obj
 0002:0001b8c8       ??_C@_1DO@FPAPJEMD@?$AAa?$AAp?$AAi?$AA?9?$AAm?$AAs?$AA?9?$AAw?$AAi?$AAn?$AA?9?$AAc?$AAo?$AAr?$AAe@ 100a38c8     libucrtd:winapi_thunks.obj
 0002:0001b908       ??_C@_1DK@NDHNAHIO@?$AAa?$AAp?$AAi?$AA?9?$AAm?$AAs?$AA?9?$AAw?$AAi?$AAn?$AA?9?$AAc?$AAo?$AAr?$AAe@ 100a3908     libucrtd:winapi_thunks.obj
 0002:0001b944       ??_C@_1DM@KGHDGBCM@?$AAa?$AAp?$AAi?$AA?9?$AAm?$AAs?$AA?9?$AAw?$AAi?$AAn?$AA?9?$AAc?$AAo?$AAr?$AAe@ 100a3944     libucrtd:winapi_thunks.obj
 0002:0001b980       ??_C@_1EO@IJIOEFOH@?$AAa?$AAp?$AAi?$AA?9?$AAm?$AAs?$AA?9?$AAw?$AAi?$AAn?$AA?9?$AAr?$AAt?$AAc?$AAo@ 100a3980     libucrtd:winapi_thunks.obj
 0002:0001b9d0       ??_C@_1FG@HHGEKANL@?$AAa?$AAp?$AAi?$AA?9?$AAm?$AAs?$AA?9?$AAw?$AAi?$AAn?$AA?9?$AAs?$AAe?$AAc?$AAu@ 100a39d0     libucrtd:winapi_thunks.obj
 0002:0001ba28       ??_C@_1EG@DBIOJECG@?$AAe?$AAx?$AAt?$AA?9?$AAm?$AAs?$AA?9?$AAw?$AAi?$AAn?$AA?9?$AAn?$AAt?$AAu?$AAs@ 100a3a28     libucrtd:winapi_thunks.obj
 0002:0001ba70       ??_C@_1EO@FIHMJCLF@?$AAe?$AAx?$AAt?$AA?9?$AAm?$AAs?$AA?9?$AAw?$AAi?$AAn?$AA?9?$AAn?$AAt?$AAu?$AAs@ 100a3a70     libucrtd:winapi_thunks.obj
 0002:0001bac0       ??_C@_1BC@DNHGCMLG@?$AAa?$AAd?$AAv?$AAa?$AAp?$AAi?$AA3?$AA2@ 100a3ac0     libucrtd:winapi_thunks.obj
 0002:0001bad4       ??_C@_1M@OAIMIKLP@?$AAn?$AAt?$AAd?$AAl?$AAl@ 100a3ad4     libucrtd:winapi_thunks.obj
 0002:0001bae0       ??_C@_1EG@DPGNFKGC@?$AAa?$AAp?$AAi?$AA?9?$AAm?$AAs?$AA?9?$AAw?$AAi?$AAn?$AA?9?$AAa?$AAp?$AAp?$AAm@ 100a3ae0     libucrtd:winapi_thunks.obj
 0002:0001bb28       ??_C@_1O@BCCLBEOE@?$AAu?$AAs?$AAe?$AAr?$AA3?$AA2@ 100a3b28     libucrtd:winapi_thunks.obj
 0002:0001bb38       ??_C@_1BA@IAIFMGEF@?$AAe?$AAx?$AAt?$AA?9?$AAm?$AAs?$AA?9@ 100a3b38     libucrtd:winapi_thunks.obj
 0002:0001bb48       ??_C@_1HE@OILMBOBA@?$AAm?$AAi?$AAn?$AAk?$AAe?$AAr?$AAn?$AAe?$AAl?$AA?2?$AAc?$AAr?$AAt?$AAs?$AA?2@ 100a3b48     libucrtd:winapi_thunks.obj
 0002:0001bbc0       ??_C@_0BA@FHFNEAED@AreFileApisANSI@ 100a3bc0     libucrtd:winapi_thunks.obj
 0002:0001bbd8       ??_C@_0BA@IHGNDAEB@CompareStringEx@ 100a3bd8     libucrtd:winapi_thunks.obj
 0002:0001bbf0       ??_C@_0BE@LJANKFHF@EnumSystemLocalesEx@ 100a3bf0     libucrtd:winapi_thunks.obj
 0002:0001bc2c       ??_C@_0BA@HNOPNCHB@GetActiveWindow@ 100a3c2c     libucrtd:winapi_thunks.obj
 0002:0001bc44       ??_C@_0BA@EPCJIIPD@GetDateFormatEx@ 100a3c44     libucrtd:winapi_thunks.obj
 0002:0001bc5c       ??_C@_0BJ@DIBIJBHA@GetEnabledXStateFeatures@ 100a3c5c     libucrtd:winapi_thunks.obj
 0002:0001bc80       ??_C@_0BD@HHGDFDBJ@GetLastActivePopup@ 100a3c80     libucrtd:winapi_thunks.obj
 0002:0001bc9c       ??_C@_0BA@ONOKGCMP@GetLocaleInfoEx@ 100a3c9c     libucrtd:winapi_thunks.obj
 0002:0001bcb4       ??_C@_0BI@DFKBFLJE@GetProcessWindowStation@ 100a3cb4     libucrtd:winapi_thunks.obj
 0002:0001bcd0       ??_C@_0BP@FPNJPEJC@GetSystemTimePreciseAsFileTime@ 100a3cd0     libucrtd:winapi_thunks.obj
 0002:0001bcf8       ??_C@_0BA@CIJJKCJJ@GetTimeFormatEx@ 100a3cf8     libucrtd:winapi_thunks.obj
 0002:0001bd10       ??_C@_0BJ@PBCCBIPI@GetUserDefaultLocaleName@ 100a3d10     libucrtd:winapi_thunks.obj
 0002:0001bd34       ??_C@_0BK@DEKFELLI@GetUserObjectInformationW@ 100a3d34     libucrtd:winapi_thunks.obj
 0002:0001bd58       ??_C@_0BG@IKLDMBLM@GetXStateFeaturesMask@ 100a3d58     libucrtd:winapi_thunks.obj
 0002:0001bd80       ??_C@_0BC@CELBKLLA@IsValidLocaleName@ 100a3d80     libucrtd:winapi_thunks.obj
 0002:0001bd9c       ??_C@_0O@KKBNKAPF@LCMapStringEx@ 100a3d9c     libucrtd:winapi_thunks.obj
 0002:0001bdb4       ??_C@_0BB@CDHDDLLP@LCIDToLocaleName@ 100a3db4     libucrtd:winapi_thunks.obj
 0002:0001bdd0       ??_C@_0BB@HBDEELFH@LocaleNameToLCID@ 100a3dd0     libucrtd:winapi_thunks.obj
 0002:0001bdec       ??_C@_0BE@KINNKFDA@LocateXStateFeature@ 100a3dec     libucrtd:winapi_thunks.obj
 0002:0001be08       ??_C@_0M@CHKKJDAI@MessageBoxA@ 100a3e08     libucrtd:winapi_thunks.obj
 0002:0001be1c       ??_C@_0M@DLDCCGNP@MessageBoxW@ 100a3e1c     libucrtd:winapi_thunks.obj
 0002:0001be2c       ??_C@_0N@PPOMPGGK@RoInitialize@ 100a3e2c     libucrtd:winapi_thunks.obj
 0002:0001be40       ??_C@_0P@LLFHBIJD@RoUninitialize@ 100a3e40     libucrtd:winapi_thunks.obj
 0002:0001be54       ??_C@_0CF@OJOFEIGO@AppPolicyGetProcessTerminationM@ 100a3e54     libucrtd:winapi_thunks.obj
 0002:0001be80       ??_C@_0CF@NNDFDCOC@AppPolicyGetThreadInitializatio@ 100a3e80     libucrtd:winapi_thunks.obj
 0002:0001beac       ??_C@_0CE@OICFMIKE@AppPolicyGetShowDeveloperDiagno@ 100a3eac     libucrtd:winapi_thunks.obj
 0002:0001bed4       ??_C@_0BL@ODDJNEDA@AppPolicyGetWindowingModel@ 100a3ed4     libucrtd:winapi_thunks.obj
 0002:0001bef8       ??_C@_0BI@BKLFFAPO@SetThreadStackGuarantee@ 100a3ef8     libucrtd:winapi_thunks.obj
 0002:0001bf18       ??_C@_0BC@JEAENNKH@SystemFunction036@ 100a3f18     libucrtd:winapi_thunks.obj
 0002:0001bf2c       ??_C@_1CO@HCPPKOH@?$AA_?$AA_?$AAa?$AAc?$AAr?$AAt?$AA_?$AAh?$AAe?$AAa?$AAp?$AA?5?$AA?$CB?$AA?$DN?$AA?5@ 100a3f2c     libucrtd:heap_handle.obj
 0002:0001bf60       ??_C@_1GI@OADBAEGE@?$AAm?$AAi?$AAn?$AAk?$AAe?$AAr?$AAn?$AAe?$AAl?$AA?2?$AAc?$AAr?$AAt?$AAs?$AA?2@ 100a3f60     libucrtd:heap_handle.obj
 0002:0001bfc8       ??_C@_1CI@JELMFMDH@?$AAc?$AA?5?$AA?$DO?$AA?$DN?$AA?5?$AA?9?$AA1?$AA?5?$AA?$CG?$AA?$CG?$AA?5?$AAc?$AA?5?$AA?$DM?$AA?$DN@ 100a3fc8     libucrtd:isctype.obj
 0002:0001bff0       ??_C@_1GG@KPBGDFHJ@?$AAm?$AAi?$AAn?$AAk?$AAe?$AAr?$AAn?$AAe?$AAl?$AA?2?$AAc?$AAr?$AAt?$AAs?$AA?2@ 100a3ff0     libucrtd:isctype.obj
 0002:0001c058       ??_C@_1FO@GEKPJHID@?$AAm?$AAi?$AAn?$AAk?$AAe?$AAr?$AAn?$AAe?$AAl?$AA?2?$AAc?$AAr?$AAt?$AAs?$AA?2@ 100a4058     libucrtd:expand.obj
 0002:0001c0b8       ??_C@_1BK@JMCGJOCC@?$AA_?$AAe?$AAx?$AAp?$AAa?$AAn?$AAd?$AA_?$AAb?$AAa?$AAs?$AAe@ 100a40b8     libucrtd:expand.obj
 0002:0001c0d4       ??_C@_1CO@JKFLNGDK@?$AAm?$AAo?$AAd?$AAe?$AA?5?$AA?$DN?$AA?$DN?$AA?5?$AA0?$AA?5?$AA?$HM?$AA?$HM?$AA?5?$AAm?$AAo@ 100a40d4     libucrtd:new_mode.obj
 0002:0001c108       ??_C@_1GC@PJMKBHEK@?$AAm?$AAi?$AAn?$AAk?$AAe?$AAr?$AAn?$AAe?$AAl?$AA?2?$AAc?$AAr?$AAt?$AAs?$AA?2@ 100a4108     libucrtd:new_mode.obj
 0002:0001c16c       ??_C@_1BM@PDPAKJNF@?$AA_?$AAs?$AAe?$AAt?$AA_?$AAn?$AAe?$AAw?$AA_?$AAm?$AAo?$AAd?$AAe@ 100a416c     libucrtd:new_mode.obj
 0002:0001c188       ??_C@_1CE@BLLJFLOH@?$AAs?$AAt?$AAr?$AAi?$AAn?$AAg?$AA?5?$AA?$CB?$AA?$DN?$AA?5?$AAn?$AAu?$AAl?$AAl?$AAp@ 100a4188     libucrtd:mbsdec.obj
 0002:0001c1b0       ??_C@_1GO@DDOMFNGF@?$AAm?$AAi?$AAn?$AAk?$AAe?$AAr?$AAn?$AAe?$AAl?$AA?2?$AAc?$AAr?$AAt?$AAs?$AA?2@ 100a41b0     libucrtd:mbsdec.obj
 0002:0001c220       ??_C@_1BE@KLNCOLCD@?$AA_?$AAm?$AAb?$AAs?$AAd?$AAe?$AAc?$AA_?$AAl@ 100a4220     libucrtd:mbsdec.obj
 0002:0001c234       ??_C@_1CG@CMGPGAOD@?$AAc?$AAu?$AAr?$AAr?$AAe?$AAn?$AAt?$AA?5?$AA?$CB?$AA?$DN?$AA?5?$AAn?$AAu?$AAl?$AAl@ 100a4234     libucrtd:mbsdec.obj
 0002:0001c260       ??_C@_1IC@DCNEKBE@?$AAm?$AAi?$AAn?$AAk?$AAe?$AAr?$AAn?$AAe?$AAl?$AA?2?$AAc?$AAr?$AAt?$AAs?$AA?2@ 100a4260     libucrtd:report_runtime_error.obj
 0002:0001c2e4       ??_C@_1DI@BLFJHKKP@?$AA_?$AA_?$AAa?$AAc?$AAr?$AAt?$AA_?$AAr?$AAe?$AAp?$AAo?$AAr?$AAt?$AA_?$AAr@ 100a42e4     libucrtd:report_runtime_error.obj
 0002:0001c320       ??_C@_1LE@MHPGJGKE@?$AAw?$AAc?$AAs?$AAc?$AAp?$AAy?$AA_?$AAs?$AA?$CI?$AAo?$AAu?$AAt?$AAm?$AAs?$AAg@ 100a4320     libucrtd:report_runtime_error.obj
 0002:0001c3d4       ??_C@_1DE@JNGNBFGO@?$AAR?$AAu?$AAn?$AAt?$AAi?$AAm?$AAe?$AA?5?$AAE?$AAr?$AAr?$AAo?$AAr?$AA?$CB?$AA?6@ 100a43d4     libucrtd:report_runtime_error.obj
 0002:0001c408       ??_C@_1HK@FJJNAABO@?$AAw?$AAc?$AAs?$AAc?$AAp?$AAy?$AA_?$AAs?$AA?$CI?$AAp?$AAr?$AAo?$AAg?$AAn?$AAa@ 100a4408     libucrtd:report_runtime_error.obj
 0002:0001c488       ??_C@_1HI@FLHKGEBE@?$AAw?$AAc?$AAs?$AAn?$AAc?$AAp?$AAy?$AA_?$AAs?$AA?$CI?$AAp?$AAc?$AAh?$AA?0?$AA?5@ 100a4488     libucrtd:report_runtime_error.obj
 0002:0001c500       ??_C@_1IG@MNNKBLBI@?$AAw?$AAc?$AAs?$AAc?$AAa?$AAt?$AA_?$AAs?$AA?$CI?$AAo?$AAu?$AAt?$AAm?$AAs?$AAg@ 100a4500     libucrtd:report_runtime_error.obj
 0002:0001c588       ??_C@_1IG@DFBBBDAN@?$AAw?$AAc?$AAs?$AAc?$AAa?$AAt?$AA_?$AAs?$AA?$CI?$AAo?$AAu?$AAt?$AAm?$AAs?$AAg@ 100a4588     libucrtd:report_runtime_error.obj
 0002:0001c610       ??_C@_1CE@MCCHPLBM@?$AAb?$AAu?$AAf?$AAf?$AAe?$AAr?$AA?5?$AA?$CB?$AA?$DN?$AA?5?$AAn?$AAu?$AAl?$AAl?$AAp@ 100a4610     libucrtd:xtoa.obj
 0002:0001c638       ??_C@_1GA@HBEFGMHK@?$AAm?$AAi?$AAn?$AAk?$AAe?$AAr?$AAn?$AAe?$AAl?$AA?2?$AAc?$AAr?$AAt?$AAs?$AA?2@ 100a4638     libucrtd:xtoa.obj
 0002:0001c698       ??_C@_1BM@HMPEMLNP@?$AAc?$AAo?$AAm?$AAm?$AAo?$AAn?$AA_?$AAx?$AAt?$AAo?$AAx?$AA_?$AAs@ 100a4698     libucrtd:xtoa.obj
 0002:0001c6b4       ??_C@_1CC@ONIJBMJF@?$AAb?$AAu?$AAf?$AAf?$AAe?$AAr?$AA_?$AAc?$AAo?$AAu?$AAn?$AAt?$AA?5?$AA?$DO?$AA?5@ 100a46b4     libucrtd:xtoa.obj
 0002:0001c6d8       ??_C@_1HA@JFIOFNKD@?$AAb?$AAu?$AAf?$AAf?$AAe?$AAr?$AA_?$AAc?$AAo?$AAu?$AAn?$AAt?$AA?5?$AA?$DO?$AA?5@ 100a46d8     libucrtd:xtoa.obj
 0002:0001c748       ??_C@_1DE@PCJGDBBD@?$AA2?$AA?5?$AA?$DM?$AA?$DN?$AA?5?$AAr?$AAa?$AAd?$AAi?$AAx?$AA?5?$AA?$CG?$AA?$CG?$AA?5?$AAr@ 100a4748     libucrtd:xtoa.obj
 0002:0001c77c       ??_C@_1CM@LONILNIJ@?$AAl?$AAe?$AAn?$AAg?$AAt?$AAh?$AA?5?$AA?$DM?$AA?5?$AAb?$AAu?$AAf?$AAf?$AAe?$AAr@ 100a477c     libucrtd:xtoa.obj
 0002:0001c7a8       ??_C@_1BI@OLPLFKOE@?$AAc?$AAo?$AAm?$AAm?$AAo?$AAn?$AA_?$AAx?$AAt?$AAo?$AAx@ 100a47a8     libucrtd:xtoa.obj
 0002:0001c7c0       ??_C@_1BK@FPAMLIDG@?$AAs?$AA?5?$AA?$CB?$AA?$DN?$AA?5?$AAn?$AAu?$AAl?$AAl?$AAp?$AAt?$AAr@ 100a47c0     libucrtd:mbstowcs.obj
 0002:0001c7e0       ??_C@_1GI@KABMHNPH@?$AAm?$AAi?$AAn?$AAk?$AAe?$AAr?$AAn?$AAe?$AAl?$AA?2?$AAc?$AAr?$AAt?$AAs?$AA?2@ 100a47e0     libucrtd:mbstowcs.obj
 0002:0001c848       ??_C@_1CG@JEHFHLNG@?$AA_?$AAm?$AAb?$AAs?$AAt?$AAo?$AAw?$AAc?$AAs?$AA_?$AAl?$AA_?$AAh?$AAe?$AAl@ 100a4848     libucrtd:mbstowcs.obj
 0002:0001c870       ??_C@_1JM@MEKBACIG@?$AA?$CI?$AAp?$AAw?$AAc?$AAs?$AA?5?$AA?$DN?$AA?$DN?$AA?5?$AAn?$AAu?$AAl?$AAl?$AAp?$AAt@ 100a4870     libucrtd:mbstowcs.obj
 0002:0001c90c       ??_C@_1BM@PHENIGHD@?$AA_?$AAm?$AAb?$AAs?$AAt?$AAo?$AAw?$AAc?$AAs?$AA_?$AAs?$AA_?$AAl@ 100a490c     libucrtd:mbstowcs.obj
 0002:0001c928       ??_C@_1CM@LLECFMFH@?$AAb?$AAu?$AAf?$AAf?$AAe?$AAr?$AAS?$AAi?$AAz?$AAe?$AA?5?$AA?$DM?$AA?$DN?$AA?5?$AAI@ 100a4928     libucrtd:mbstowcs.obj
 0002:0001c954       ??_C@_1CO@JNPEPJAL@?$AAr?$AAe?$AAt?$AAs?$AAi?$AAz?$AAe?$AA?5?$AA?$DM?$AA?$DN?$AA?5?$AAs?$AAi?$AAz?$AAe@ 100a4954     libucrtd:mbstowcs.obj
 0002:0001c984       ??_C@_1CA@NOKNKDIG@?$AAp?$AAw?$AAc?$AAs?$AA?5?$AA?$CB?$AA?$DN?$AA?5?$AAn?$AAu?$AAl?$AAl?$AAp?$AAt?$AAr@ 100a4984     libucrtd:wcstombs.obj
 0002:0001c9a8       ??_C@_1GI@EEJDEALP@?$AAm?$AAi?$AAn?$AAk?$AAe?$AAr?$AAn?$AAe?$AAl?$AA?2?$AAc?$AAr?$AAt?$AAs?$AA?2@ 100a49a8     libucrtd:wcstombs.obj
 0002:0001ca10       ??_C@_1CG@LLJCAOHF@?$AA_?$AAw?$AAc?$AAs?$AAt?$AAo?$AAm?$AAb?$AAs?$AA_?$AAl?$AA_?$AAh?$AAe?$AAl@ 100a4a10     libucrtd:wcstombs.obj
 0002:0001ca38       ??_C@_1JI@DFNKFCLG@?$AA?$CI?$AAd?$AAs?$AAt?$AA?5?$AA?$CB?$AA?$DN?$AA?5?$AAn?$AAu?$AAl?$AAl?$AAp?$AAt?$AAr@ 100a4a38     libucrtd:wcstombs.obj
 0002:0001cad0       ??_C@_1BM@BDMCLLDL@?$AA_?$AAw?$AAc?$AAs?$AAt?$AAo?$AAm?$AAb?$AAs?$AA_?$AAs?$AA_?$AAl@ 100a4ad0     libucrtd:wcstombs.obj
 0002:0001caec       ??_C@_1CM@KEOGBFLI@?$AAs?$AAi?$AAz?$AAe?$AAI?$AAn?$AAB?$AAy?$AAt?$AAe?$AAs?$AA?5?$AA?$DO?$AA?5?$AAr@ 100a4aec     libucrtd:wcstombs.obj
 0002:0001cb18       ??_C@_1CC@HOFKGKIJ@?$AAp?$AAm?$AAb?$AAs?$AAt?$AA?5?$AA?$CB?$AA?$DN?$AA?5?$AAn?$AAu?$AAl?$AAl?$AAp?$AAt@ 100a4b18     libucrtd:mbrtowc.obj
 0002:0001cb40       ??_C@_1GG@MCCIENJO@?$AAm?$AAi?$AAn?$AAk?$AAe?$AAr?$AAn?$AAe?$AAl?$AA?2?$AAc?$AAr?$AAt?$AAs?$AA?2@ 100a4b40     libucrtd:mbrtowc.obj
 0002:0001cba8       ??_C@_1GC@GKDIDINO@?$AAl?$AAo?$AAc?$AAa?$AAl?$AAe?$AA_?$AAm?$AAb?$AA_?$AAc?$AAu?$AAr?$AA_?$AAm@ 100a4ba8     libucrtd:mbrtowc.obj
 0002:0001cc0c       ??_C@_1BM@DAAPEENN@?$AAp?$AAs?$AA?5?$AA?$CB?$AA?$DN?$AA?5?$AAn?$AAu?$AAl?$AAl?$AAp?$AAt?$AAr@ 100a4c0c     libucrtd:mbrtowc.obj
 0002:0001cc28       ??_C@_1CE@GMDJEGCL@?$AA_?$AAm?$AAb?$AAs?$AAr?$AAt?$AAo?$AAw?$AAc?$AAs?$AA_?$AAh?$AAe?$AAl?$AAp@ 100a4c28     libucrtd:mbrtowc.obj
 0002:0001cc50       ??_C@_1JI@OGEJMCOI@?$AA?$CI?$AAd?$AAs?$AAt?$AA?5?$AA?$DN?$AA?$DN?$AA?5?$AAn?$AAu?$AAl?$AAl?$AAp?$AAt?$AAr@ 100a4c50     libucrtd:mbrtowc.obj
 0002:0001cce8       ??_C@_1BI@GDNNFHAB@?$AAm?$AAb?$AAs?$AAr?$AAt?$AAo?$AAw?$AAc?$AAs?$AA_?$AAs@ 100a4ce8     libucrtd:mbrtowc.obj
 0002:0001cd00       ??_C@_1CO@EPBLOHBA@?$AAs?$AAi?$AAz?$AAe?$AAI?$AAn?$AAW?$AAo?$AAr?$AAd?$AAs?$AA?5?$AA?$DM?$AA?$DN?$AA?5@ 100a4d00     libucrtd:mbrtowc.obj
 0002:0001cd30       ??_C@_1EK@MCEFBPIK@?$AAr?$AAe?$AAt?$AAv?$AAa?$AAl?$AA?5?$AA?$CB?$AA?$DN?$AA?5?$AA_?$AA_?$AAc?$AAr?$AAt@ 100a4d30     libucrtd:mbrtowc.obj
 0002:0001cd7c       ??_C@_0DE@PKCHMIOF@minkernel?2crts?2ucrt?2src?2appcrt?2@ 100a4d7c     libucrtd:initctype.obj
 0002:0001cdb0       ??_C@_1GI@DPHPBMAL@?$AAm?$AAi?$AAn?$AAk?$AAe?$AAr?$AAn?$AAe?$AAl?$AA?2?$AAc?$AAr?$AAt?$AAs?$AA?2@ 100a4db0     libucrtd:initctype.obj
 0002:0001ce18       ??_C@_1DG@NMBGBDM@?$AAp?$AAl?$AAo?$AAc?$AAi?$AA?9?$AA?$DO?$AAc?$AAt?$AAy?$AAp?$AAe?$AA1?$AA_?$AAr@ 100a4e18     libucrtd:initctype.obj
 0002:0001ce50       ??_C@_1EK@OANGPA@?$AA1?$AA?5?$AA?$DM?$AA?$DN?$AA?5?$AAt?$AAr?$AAa?$AAi?$AAl?$AA_?$AAb?$AAy?$AAt?$AAe@ 100a4e50     libucrtd:c32rtomb.obj
 0002:0001cea0       ??_C@_1GI@FBFKMNDD@?$AAm?$AAi?$AAn?$AAk?$AAe?$AAr?$AAn?$AAe?$AAl?$AA?2?$AAc?$AAr?$AAt?$AAs?$AA?2@ 100a4ea0     libucrtd:c32rtomb.obj
 0002:0001cf08       ??_C@_1EA@DDDCIHI@?$AAc?$AA3?$AA2?$AA?5?$AA?$DM?$AA?5?$AA?$CI?$AA1?$AAu?$AA?5?$AA?$DM?$AA?$DM?$AA?5?$AA?$CI?$AA7@ 100a4f08     libucrtd:c32rtomb.obj
 0002:0001cf48       ??_C@_1BKC@NBNHJIDM@?$AA?$CI?$AAp?$AAt?$AAl?$AAo?$AAc?$AAi?$AA?9?$AA?$DO?$AAl?$AAc?$AA_?$AAc?$AAa?$AAt@ 100a4f48     libucrtd:locale_refcounting.obj
 0002:0001d0f0       ??_C@_1HK@HCNMEOLA@?$AAm?$AAi?$AAn?$AAk?$AAe?$AAr?$AAn?$AAe?$AAl?$AA?2?$AAc?$AAr?$AAt?$AAs?$AA?2@ 100a50f0     libucrtd:locale_refcounting.obj
 0002:0001d170       ??_C@_1GI@IMEEHIAK@?$AAm?$AAi?$AAn?$AAk?$AAe?$AAr?$AAn?$AAe?$AAl?$AA?2?$AAc?$AAr?$AAt?$AAs?$AA?2@ 100a5170     libucrtd:_fptostr.obj
 0002:0001d1d8       ??_C@_1DG@NMGBKPMI@?$AA_?$AA_?$AAa?$AAc?$AAr?$AAt?$AA_?$AAf?$AAp?$AA_?$AAs?$AAt?$AAr?$AAf?$AAl@ 100a51d8     libucrtd:_fptostr.obj
 0002:0001d210       ??_C@_1IE@EAOKIIFP@?$AAb?$AAu?$AAf?$AAf?$AAe?$AAr?$AA_?$AAc?$AAo?$AAu?$AAn?$AAt?$AA?5?$AA?$DO?$AA?5@ 100a5210     libucrtd:_fptostr.obj
 0002:0001d294       ??_C@_1CA@EDEEBMBB@?$AAp?$AAf?$AAl?$AAt?$AA?5?$AA?$CB?$AA?$DN?$AA?5?$AAn?$AAu?$AAl?$AAl?$AAp?$AAt?$AAr@ 100a5294     libucrtd:_fptostr.obj
 0002:0001d2b8       ?large_power_data@?1??multiply_by_power_of_ten@__crt_strtox@@YA_NAAUbig_integer@2@I@Z@4QBIB 100a52b8     libucrtd:cfout.obj
 0002:0001dbc0       ?large_power_indices@?1??multiply_by_power_of_ten@__crt_strtox@@YA_NAAUbig_integer@2@I@Z@4QBUunpack_index@?1??12@YA_N0I@Z@B 100a5bc0     libucrtd:cfout.obj
 0002:0001dc58       ?small_powers_of_ten@?1??multiply_by_power_of_ten@__crt_strtox@@YA_NAAUbig_integer@2@I@Z@4QBIB 100a5c58     libucrtd:cfout.obj
 0002:0001dc7c       ??_C@_1DI@GICAMMFM@?$AA?$CI?$AA?$CC?$AAD?$AAi?$AAv?$AAi?$AAs?$AAi?$AAo?$AAn?$AA?5?$AAb?$AAy?$AA?5?$AAz@ 100a5c7c     libucrtd:cfout.obj
 0002:0001dcb8       ??_C@_1GO@BFGDDONN@?$AAm?$AAi?$AAn?$AAk?$AAe?$AAr?$AAn?$AAe?$AAl?$AA?2?$AAc?$AAr?$AAt?$AAs?$AA?2@ 100a5cb8     libucrtd:cfout.obj
 0002:0001dd28       ??_C@_1GC@DDAKNBNC@?$AAm?$AAi?$AAn?$AAk?$AAe?$AAr?$AAn?$AAe?$AAl?$AA?2?$AAc?$AAr?$AAt?$AAs?$AA?2@ 100a5d28     libucrtd:cfout.obj
 0002:0001dd8c       ??_C@_1BM@FAAOAKKO@?$AA_?$AA_?$AAa?$AAc?$AAr?$AAt?$AA_?$AAf?$AAl?$AAt?$AAo?$AAu?$AAt@ 100a5d8c     libucrtd:cfout.obj
 0002:0001dda8       ??_C@_1EI@OACEJKEP@?$AAs?$AAt?$AAr?$AAc?$AAp?$AAy?$AA_?$AAs?$AA?$CI?$AAr?$AAe?$AAs?$AAu?$AAl?$AAt@ 100a5da8     libucrtd:cfout.obj
 0002:0001ddf0       ??_C@_01GBGANLPD@0@        100a5df0     libucrtd:cfout.obj
 0002:0001ddf8       ??_C@_1FC@KIECGFMP@?$AAs?$AAt?$AAr?$AAc?$AAp?$AAy?$AA_?$AAs?$AA?$CI?$AAr?$AAe?$AAs?$AAu?$AAl?$AAt@ 100a5df8     libucrtd:cfout.obj
 0002:0001de4c       ??_C@_05DNEBIAHO@1?$CDINF@ 100a5e4c     libucrtd:cfout.obj
 0002:0001de58       ??_C@_1FC@NFPJEIBD@?$AAs?$AAt?$AAr?$AAc?$AAp?$AAy?$AA_?$AAs?$AA?$CI?$AAr?$AAe?$AAs?$AAu?$AAl?$AAt@ 100a5e58     libucrtd:cfout.obj
 0002:0001deac       ??_C@_06IMKFLFPG@1?$CDQNAN@ 100a5eac     libucrtd:cfout.obj
 0002:0001deb8       ??_C@_1FC@DEJHIMLO@?$AAs?$AAt?$AAr?$AAc?$AAp?$AAy?$AA_?$AAs?$AA?$CI?$AAr?$AAe?$AAs?$AAu?$AAl?$AAt@ 100a5eb8     libucrtd:cfout.obj
 0002:0001df0c       ??_C@_06PGGFOGJG@1?$CDSNAN@ 100a5f0c     libucrtd:cfout.obj
 0002:0001df18       ??_C@_1FC@KMLHLFPC@?$AAs?$AAt?$AAr?$AAc?$AAp?$AAy?$AA_?$AAs?$AA?$CI?$AAr?$AAe?$AAs?$AAu?$AAl?$AAt@ 100a5f18     libucrtd:cfout.obj
 0002:0001df6c       ??_C@_05PHHOCPM@1?$CDIND@  100a5f6c     libucrtd:cfout.obj
 0002:0001df74       ??_C@_1DE@KHKADFOO@?$AAm?$AAa?$AAn?$AAt?$AAi?$AAs?$AAs?$AAa?$AA_?$AAb?$AAu?$AAf?$AAf?$AAe?$AAr@ 100a5f74     libucrtd:cfout.obj
 0002:0001dfa8       ??_C@_1FI@LFKLOPAC@?$AA?$CI?$AA?$CC?$AAu?$AAn?$AAe?$AAx?$AAp?$AAe?$AAc?$AAt?$AAe?$AAd?$AA?5?$AAi?$AAn@ 100a5fa8     libucrtd:cfout.obj
 0002:0001e000       ??_C@_1FG@MLHBDPBG@?$AAq?$AAu?$AAo?$AAt?$AAi?$AAe?$AAn?$AAt?$AA?5?$AA?$DM?$AA?5?$AAd?$AAi?$AAg?$AAi@ 100a6000     libucrtd:cfout.obj
 0002:0001e058       ??_C@_1GC@DFIGBGJI@?$AAm?$AAi?$AAn?$AAk?$AAe?$AAr?$AAn?$AAe?$AAl?$AA?2?$AAc?$AAr?$AAt?$AAs?$AA?2@ 100a6058     libucrtd:_flsbuf.obj
 0002:0001e0c0       ??_C@_1HO@MLMGPAFH@?$AA?$CI?$AA?$CC?$AAi?$AAn?$AAc?$AAo?$AAn?$AAs?$AAi?$AAs?$AAt?$AAe?$AAn?$AAt?$AA?5@ 100a60c0     libucrtd:_flsbuf.obj
 0002:0001e140       ??_C@_1GE@GPOPIOIG@?$AAm?$AAi?$AAn?$AAk?$AAe?$AAr?$AAn?$AAe?$AAl?$AA?2?$AAc?$AAr?$AAt?$AAs?$AA?2@ 100a6140     libucrtd:_freebuf.obj
 0002:0001e1a8       ??_C@_1FO@LPCLHKGE@?$AA?$CI?$AAf?$AAh?$AA?5?$AA?$DO?$AA?$DN?$AA?5?$AA0?$AA?5?$AA?$CG?$AA?$CG?$AA?5?$AA?$CI?$AAu?$AAn@ 100a61a8     libucrtd:isatty.obj
 0002:0001e208       ??_C@_1GA@DEPMKPD@?$AAm?$AAi?$AAn?$AAk?$AAe?$AAr?$AAn?$AAe?$AAl?$AA?2?$AAc?$AAr?$AAt?$AAs?$AA?2@ 100a6208     libucrtd:isatty.obj
 0002:0001e268       ??_C@_1BA@LEBDGIHM@?$AA_?$AAi?$AAs?$AAa?$AAt?$AAt?$AAy@ 100a6268     libucrtd:isatty.obj
 0002:0001e278       ??_C@_0DC@GMDOHFAP@minkernel?2crts?2ucrt?2src?2appcrt?2@ 100a6278     libucrtd:initmon.obj
 0002:0001e2ac       ??_C@_1DM@GKAPAMDO@?$AAp?$AAl?$AAo?$AAc?$AAi?$AA?9?$AA?$DO?$AAl?$AAc?$AAo?$AAn?$AAv?$AA_?$AAm?$AAo@ 100a62ac     libucrtd:initmon.obj
 0002:0001e2e8       ??_C@_1GE@IEFGCKMH@?$AAm?$AAi?$AAn?$AAk?$AAe?$AAr?$AAn?$AAe?$AAl?$AA?2?$AAc?$AAr?$AAt?$AAs?$AA?2@ 100a62e8     libucrtd:initmon.obj
 0002:0001e34c       ??_C@_0DC@KHILMDMC@minkernel?2crts?2ucrt?2src?2appcrt?2@ 100a634c     libucrtd:initnum.obj
 0002:0001e380       ??_C@_1DM@IFKAINNE@?$AAp?$AAl?$AAo?$AAc?$AAi?$AA?9?$AA?$DO?$AAl?$AAc?$AAo?$AAn?$AAv?$AA_?$AAn?$AAu@ 100a6380     libucrtd:initnum.obj
 0002:0001e3c0       ??_C@_1GE@GOIFKKDC@?$AAm?$AAi?$AAn?$AAk?$AAe?$AAr?$AAn?$AAe?$AAl?$AA?2?$AAc?$AAr?$AAt?$AAs?$AA?2@ 100a63c0     libucrtd:initnum.obj
 0002:0001e424       ??_C@_0DD@MPFICDAE@minkernel?2crts?2ucrt?2src?2appcrt?2@ 100a6424     libucrtd:inittime.obj
 0002:0001e458       ??_C@_1HK@HACABKKK@?$AA?$CI?$AA?$CC?$AAl?$AAc?$AA_?$AAt?$AAi?$AAm?$AAe?$AA_?$AAc?$AAu?$AAr?$AAr?$AA?5@ 100a6458     libucrtd:inittime.obj
 0002:0001e4d8       ??_C@_1GG@BFOOANHJ@?$AAm?$AAi?$AAn?$AAk?$AAe?$AAr?$AAn?$AAe?$AAl?$AA?2?$AAc?$AAr?$AAt?$AAs?$AA?2@ 100a64d8     libucrtd:inittime.obj
 0002:0001e540       ___newctype                100a6540     libucrtd:ctype.obj
 0002:0001e840       ___newclmap                100a6840     libucrtd:ctype.obj
 0002:0001e9c0       ___newcumap                100a69c0     libucrtd:ctype.obj
 0002:0001eb40       __wctype                   100a6b40     libucrtd:ctype.obj
 0002:0001ed44       ??_C@_1CC@HELMJGIF@?$AAc?$AAo?$AAm?$AAm?$AAo?$AAn?$AA_?$AAt?$AAc?$AAs?$AAn?$AAc?$AAa?$AAt?$AA_@ 100a6d44     libucrtd:wcsncat_s.obj
 0002:0001ed68       ??_C@_1FE@KNPCCODH@?$AA?$CI?$AA?$CC?$AAC?$AAo?$AAr?$AAr?$AAu?$AAp?$AAt?$AAe?$AAd?$AA?5?$AAp?$AAo?$AAi@ 100a6d68     libucrtd:getstringtypea.obj
 0002:0001edc0       ??_C@_1EM@GPJLADAA@?$AAV?$AAC?$AAC?$AAR?$AAT?$AA?2?$AAv?$AAc?$AAr?$AAu?$AAn?$AAt?$AAi?$AAm?$AAe@ 100a6dc0     libucrtd:getstringtypea.obj
 0002:0001ee0c       ??_C@_0DJ@HCPJODDK@minkernel?2crts?2ucrt?2src?2appcrt?2@ 100a6e0c     libucrtd:getstringtypea.obj
 0002:0001ee48       ___acrt_rg_language        100a6e48     libucrtd:get_qualified_locale.obj
 0002:0001f154       ___acrt_rg_language_count  100a7154     libucrtd:get_qualified_locale.obj
 0002:0001f158       ___acrt_rg_country         100a7158     libucrtd:get_qualified_locale.obj
 0002:0001f26c       ___acrt_rg_country_count   100a726c     libucrtd:get_qualified_locale.obj
 0002:0001f270       ??_C@_1BC@LLOKLNP@?$AAa?$AAm?$AAe?$AAr?$AAi?$AAc?$AAa?$AAn@ 100a7270     libucrtd:get_qualified_locale.obj
 0002:0001f284       ??_C@_1CC@HEIGCDGG@?$AAa?$AAm?$AAe?$AAr?$AAi?$AAc?$AAa?$AAn?$AA?5?$AAe?$AAn?$AAg?$AAl?$AAi?$AAs@ 100a7284     libucrtd:get_qualified_locale.obj
 0002:0001f2a8       ??_C@_1CC@IHCNOMIN@?$AAa?$AAm?$AAe?$AAr?$AAi?$AAc?$AAa?$AAn?$AA?9?$AAe?$AAn?$AAg?$AAl?$AAi?$AAs@ 100a72a8     libucrtd:get_qualified_locale.obj
 0002:0001f2cc       ??_C@_1BG@GKAGPCGG@?$AAa?$AAu?$AAs?$AAt?$AAr?$AAa?$AAl?$AAi?$AAa?$AAn@ 100a72cc     libucrtd:get_qualified_locale.obj
 0002:0001f2e4       ??_C@_1BA@GMENCENF@?$AAb?$AAe?$AAl?$AAg?$AAi?$AAa?$AAn@ 100a72e4     libucrtd:get_qualified_locale.obj
 0002:0001f2f4       ??_C@_1BC@PJMIIAAN@?$AAc?$AAa?$AAn?$AAa?$AAd?$AAi?$AAa?$AAn@ 100a72f4     libucrtd:get_qualified_locale.obj
 0002:0001f308       ??_C@_17NOIMNFBF@?$AAc?$AAh?$AAh@ 100a7308     libucrtd:get_qualified_locale.obj
 0002:0001f310       ??_C@_17GGDALCHA@?$AAc?$AAh?$AAi@ 100a7310     libucrtd:get_qualified_locale.obj
 0002:0001f318       ??_C@_1BA@NPNJKIBL@?$AAc?$AAh?$AAi?$AAn?$AAe?$AAs?$AAe@ 100a7318     libucrtd:get_qualified_locale.obj
 0002:0001f328       ??_C@_1CC@DINBAMMJ@?$AAc?$AAh?$AAi?$AAn?$AAe?$AAs?$AAe?$AA?9?$AAh?$AAo?$AAn?$AAg?$AAk?$AAo?$AAn@ 100a7328     libucrtd:get_qualified_locale.obj
 0002:0001f34c       ??_C@_1CG@IOBJPACO@?$AAc?$AAh?$AAi?$AAn?$AAe?$AAs?$AAe?$AA?9?$AAs?$AAi?$AAm?$AAp?$AAl?$AAi?$AAf@ 100a734c     libucrtd:get_qualified_locale.obj
 0002:0001f374       ??_C@_1CE@GAJNDCKG@?$AAc?$AAh?$AAi?$AAn?$AAe?$AAs?$AAe?$AA?9?$AAs?$AAi?$AAn?$AAg?$AAa?$AAp?$AAo@ 100a7374     libucrtd:get_qualified_locale.obj
 0002:0001f398       ??_C@_1CI@PAJPIOOD@?$AAc?$AAh?$AAi?$AAn?$AAe?$AAs?$AAe?$AA?9?$AAt?$AAr?$AAa?$AAd?$AAi?$AAt?$AAi@ 100a7398     libucrtd:get_qualified_locale.obj
 0002:0001f3c0       ??_C@_1BM@NILJBMMD@?$AAd?$AAu?$AAt?$AAc?$AAh?$AA?9?$AAb?$AAe?$AAl?$AAg?$AAi?$AAa?$AAn@ 100a73c0     libucrtd:get_qualified_locale.obj
 0002:0001f3dc       ??_C@_1CC@OOJPJNEJ@?$AAe?$AAn?$AAg?$AAl?$AAi?$AAs?$AAh?$AA?9?$AAa?$AAm?$AAe?$AAr?$AAi?$AAc?$AAa@ 100a73dc     libucrtd:get_qualified_locale.obj
 0002:0001f400       ??_C@_1BI@IOLFEEM@?$AAe?$AAn?$AAg?$AAl?$AAi?$AAs?$AAh?$AA?9?$AAa?$AAu?$AAs@ 100a7400     libucrtd:get_qualified_locale.obj
 0002:0001f418       ??_C@_1BO@HFFNLENJ@?$AAe?$AAn?$AAg?$AAl?$AAi?$AAs?$AAh?$AA?9?$AAb?$AAe?$AAl?$AAi?$AAz?$AAe@ 100a7418     libucrtd:get_qualified_locale.obj
 0002:0001f438       ??_C@_1BI@HAPKJMPO@?$AAe?$AAn?$AAg?$AAl?$AAi?$AAs?$AAh?$AA?9?$AAc?$AAa?$AAn@ 100a7438     libucrtd:get_qualified_locale.obj
 0002:0001f450       ??_C@_1CE@HLNDMIOJ@?$AAe?$AAn?$AAg?$AAl?$AAi?$AAs?$AAh?$AA?9?$AAc?$AAa?$AAr?$AAi?$AAb?$AAb?$AAe@ 100a7450     libucrtd:get_qualified_locale.obj
 0002:0001f474       ??_C@_1BI@LDHJHHAC@?$AAe?$AAn?$AAg?$AAl?$AAi?$AAs?$AAh?$AA?9?$AAi?$AAr?$AAe@ 100a7474     libucrtd:get_qualified_locale.obj
 0002:0001f48c       ??_C@_1CA@NJMMCFOC@?$AAe?$AAn?$AAg?$AAl?$AAi?$AAs?$AAh?$AA?9?$AAj?$AAa?$AAm?$AAa?$AAi?$AAc?$AAa@ 100a748c     libucrtd:get_qualified_locale.obj
 0002:0001f4ac       ??_C@_1BG@BHJEBBGG@?$AAe?$AAn?$AAg?$AAl?$AAi?$AAs?$AAh?$AA?9?$AAn?$AAz@ 100a74ac     libucrtd:get_qualified_locale.obj
 0002:0001f4c4       ??_C@_1CK@FGOEJJCO@?$AAe?$AAn?$AAg?$AAl?$AAi?$AAs?$AAh?$AA?9?$AAs?$AAo?$AAu?$AAt?$AAh?$AA?5?$AAa@ 100a74c4     libucrtd:get_qualified_locale.obj
 0002:0001f4f0       ??_C@_1DE@PDBJPCJ@?$AAe?$AAn?$AAg?$AAl?$AAi?$AAs?$AAh?$AA?9?$AAt?$AAr?$AAi?$AAn?$AAi?$AAd?$AAa@ 100a74f0     libucrtd:get_qualified_locale.obj
 0002:0001f524       ??_C@_1BG@JGCANDME@?$AAe?$AAn?$AAg?$AAl?$AAi?$AAs?$AAh?$AA?9?$AAu?$AAk@ 100a7524     libucrtd:get_qualified_locale.obj
 0002:0001f53c       ??_C@_1BG@DINKMLE@?$AAe?$AAn?$AAg?$AAl?$AAi?$AAs?$AAh?$AA?9?$AAu?$AAs@ 100a753c     libucrtd:get_qualified_locale.obj
 0002:0001f554       ??_C@_1BI@NMFDBHJE@?$AAe?$AAn?$AAg?$AAl?$AAi?$AAs?$AAh?$AA?9?$AAu?$AAs?$AAa@ 100a7554     libucrtd:get_qualified_locale.obj
 0002:0001f56c       ??_C@_1BO@OIHKJKII@?$AAf?$AAr?$AAe?$AAn?$AAc?$AAh?$AA?9?$AAb?$AAe?$AAl?$AAg?$AAi?$AAa?$AAn@ 100a756c     libucrtd:get_qualified_locale.obj
 0002:0001f58c       ??_C@_1CA@NKAELJKI@?$AAf?$AAr?$AAe?$AAn?$AAc?$AAh?$AA?9?$AAc?$AAa?$AAn?$AAa?$AAd?$AAi?$AAa?$AAn@ 100a758c     libucrtd:get_qualified_locale.obj
 0002:0001f5ac       ??_C@_1CE@MGKCNLGN@?$AAf?$AAr?$AAe?$AAn?$AAc?$AAh?$AA?9?$AAl?$AAu?$AAx?$AAe?$AAm?$AAb?$AAo?$AAu@ 100a75ac     libucrtd:get_qualified_locale.obj
 0002:0001f5d0       ??_C@_1BK@CEGEAILM@?$AAf?$AAr?$AAe?$AAn?$AAc?$AAh?$AA?9?$AAs?$AAw?$AAi?$AAs?$AAs@ 100a75d0     libucrtd:get_qualified_locale.obj
 0002:0001f5ec       ??_C@_1CA@PAFKEOCC@?$AAg?$AAe?$AAr?$AAm?$AAa?$AAn?$AA?9?$AAa?$AAu?$AAs?$AAt?$AAr?$AAi?$AAa?$AAn@ 100a75ec     libucrtd:get_qualified_locale.obj
 0002:0001f60c       ??_C@_1CI@HCFHGOFD@?$AAg?$AAe?$AAr?$AAm?$AAa?$AAn?$AA?9?$AAl?$AAi?$AAc?$AAh?$AAt?$AAe?$AAn?$AAs@ 100a760c     libucrtd:get_qualified_locale.obj
 0002:0001f634       ??_C@_1CE@FEDDNPDG@?$AAg?$AAe?$AAr?$AAm?$AAa?$AAn?$AA?9?$AAl?$AAu?$AAx?$AAe?$AAm?$AAb?$AAo?$AAu@ 100a7634     libucrtd:get_qualified_locale.obj
 0002:0001f658       ??_C@_1BK@LIMINNMN@?$AAg?$AAe?$AAr?$AAm?$AAa?$AAn?$AA?9?$AAs?$AAw?$AAi?$AAs?$AAs@ 100a7658     libucrtd:get_qualified_locale.obj
 0002:0001f674       ??_C@_1BM@LGMDBEPD@?$AAi?$AAr?$AAi?$AAs?$AAh?$AA?9?$AAe?$AAn?$AAg?$AAl?$AAi?$AAs?$AAh@ 100a7674     libucrtd:get_qualified_locale.obj
 0002:0001f690       ??_C@_1BM@NNCFBAEE@?$AAi?$AAt?$AAa?$AAl?$AAi?$AAa?$AAn?$AA?9?$AAs?$AAw?$AAi?$AAs?$AAs@ 100a7690     libucrtd:get_qualified_locale.obj
 0002:0001f6ac       ??_C@_1BE@FEDJNPIB@?$AAn?$AAo?$AAr?$AAw?$AAe?$AAg?$AAi?$AAa?$AAn@ 100a76ac     libucrtd:get_qualified_locale.obj
 0002:0001f6c0       ??_C@_1CC@CILKDEIE@?$AAn?$AAo?$AAr?$AAw?$AAe?$AAg?$AAi?$AAa?$AAn?$AA?9?$AAb?$AAo?$AAk?$AAm?$AAa@ 100a76c0     libucrtd:get_qualified_locale.obj
 0002:0001f6e4       ??_C@_1CE@DHMMHEPL@?$AAn?$AAo?$AAr?$AAw?$AAe?$AAg?$AAi?$AAa?$AAn?$AA?9?$AAn?$AAy?$AAn?$AAo?$AAr@ 100a76e4     libucrtd:get_qualified_locale.obj
 0002:0001f708       ??_C@_1CK@OPNMHECD@?$AAp?$AAo?$AAr?$AAt?$AAu?$AAg?$AAu?$AAe?$AAs?$AAe?$AA?9?$AAb?$AAr?$AAa?$AAz@ 100a7708     libucrtd:get_qualified_locale.obj
 0002:0001f734       ??_C@_1CE@KEEHCDB@?$AAs?$AAp?$AAa?$AAn?$AAi?$AAs?$AAh?$AA?9?$AAa?$AAr?$AAg?$AAe?$AAn?$AAt?$AAi@ 100a7734     libucrtd:get_qualified_locale.obj
 0002:0001f758       ??_C@_1CA@GIAOLHJD@?$AAs?$AAp?$AAa?$AAn?$AAi?$AAs?$AAh?$AA?9?$AAb?$AAo?$AAl?$AAi?$AAv?$AAi?$AAa@ 100a7758     libucrtd:get_qualified_locale.obj
 0002:0001f778       ??_C@_1BM@OJNDFNPD@?$AAs?$AAp?$AAa?$AAn?$AAi?$AAs?$AAh?$AA?9?$AAc?$AAh?$AAi?$AAl?$AAe@ 100a7778     libucrtd:get_qualified_locale.obj
 0002:0001f794       ??_C@_1CC@OCOLPALL@?$AAs?$AAp?$AAa?$AAn?$AAi?$AAs?$AAh?$AA?9?$AAc?$AAo?$AAl?$AAo?$AAm?$AAb?$AAi@ 100a7794     libucrtd:get_qualified_locale.obj
 0002:0001f7b8       ??_C@_1CG@BPOFMKBB@?$AAs?$AAp?$AAa?$AAn?$AAi?$AAs?$AAh?$AA?9?$AAc?$AAo?$AAs?$AAt?$AAa?$AA?5?$AAr@ 100a77b8     libucrtd:get_qualified_locale.obj
 0002:0001f7e0       ??_C@_1DG@IGOBAPBB@?$AAs?$AAp?$AAa?$AAn?$AAi?$AAs?$AAh?$AA?9?$AAd?$AAo?$AAm?$AAi?$AAn?$AAi?$AAc@ 100a77e0     libucrtd:get_qualified_locale.obj
 0002:0001f818       ??_C@_1CA@JHAPGEGI@?$AAs?$AAp?$AAa?$AAn?$AAi?$AAs?$AAh?$AA?9?$AAe?$AAc?$AAu?$AAa?$AAd?$AAo?$AAr@ 100a7818     libucrtd:get_qualified_locale.obj
 0002:0001f838       ??_C@_1CI@LAPALJPP@?$AAs?$AAp?$AAa?$AAn?$AAi?$AAs?$AAh?$AA?9?$AAe?$AAl?$AA?5?$AAs?$AAa?$AAl?$AAv@ 100a7838     libucrtd:get_qualified_locale.obj
 0002:0001f860       ??_C@_1CE@PDGBOFOM@?$AAs?$AAp?$AAa?$AAn?$AAi?$AAs?$AAh?$AA?9?$AAg?$AAu?$AAa?$AAt?$AAe?$AAm?$AAa@ 100a7860     libucrtd:get_qualified_locale.obj
 0002:0001f884       ??_C@_1CC@NBEBAODI@?$AAs?$AAp?$AAa?$AAn?$AAi?$AAs?$AAh?$AA?9?$AAh?$AAo?$AAn?$AAd?$AAu?$AAr?$AAa@ 100a7884     libucrtd:get_qualified_locale.obj
 0002:0001f8a8       ??_C@_1CA@LLKGHBMF@?$AAs?$AAp?$AAa?$AAn?$AAi?$AAs?$AAh?$AA?9?$AAm?$AAe?$AAx?$AAi?$AAc?$AAa?$AAn@ 100a78a8     libucrtd:get_qualified_locale.obj
 0002:0001f8c8       ??_C@_1BO@LKNDOIGD@?$AAs?$AAp?$AAa?$AAn?$AAi?$AAs?$AAh?$AA?9?$AAm?$AAo?$AAd?$AAe?$AAr?$AAn@ 100a78c8     libucrtd:get_qualified_locale.obj
 0002:0001f8e8       ??_C@_1CE@NMDMOEEB@?$AAs?$AAp?$AAa?$AAn?$AAi?$AAs?$AAh?$AA?9?$AAn?$AAi?$AAc?$AAa?$AAr?$AAa?$AAg@ 100a78e8     libucrtd:get_qualified_locale.obj
 0002:0001f90c       ??_C@_1BO@LLCBEJGB@?$AAs?$AAp?$AAa?$AAn?$AAi?$AAs?$AAh?$AA?9?$AAp?$AAa?$AAn?$AAa?$AAm?$AAa@ 100a790c     libucrtd:get_qualified_locale.obj
 0002:0001f92c       ??_C@_1CC@FKPGGIHO@?$AAs?$AAp?$AAa?$AAn?$AAi?$AAs?$AAh?$AA?9?$AAp?$AAa?$AAr?$AAa?$AAg?$AAu?$AAa@ 100a792c     libucrtd:get_qualified_locale.obj
 0002:0001f950       ??_C@_1BK@CDEIHOOP@?$AAs?$AAp?$AAa?$AAn?$AAi?$AAs?$AAh?$AA?9?$AAp?$AAe?$AAr?$AAu@ 100a7950     libucrtd:get_qualified_locale.obj
 0002:0001f96c       ??_C@_1CI@GAHAKKGP@?$AAs?$AAp?$AAa?$AAn?$AAi?$AAs?$AAh?$AA?9?$AAp?$AAu?$AAe?$AAr?$AAt?$AAo?$AA?5@ 100a796c     libucrtd:get_qualified_locale.obj
 0002:0001f994       ??_C@_1CA@NKJBCAGP@?$AAs?$AAp?$AAa?$AAn?$AAi?$AAs?$AAh?$AA?9?$AAu?$AAr?$AAu?$AAg?$AAu?$AAa?$AAy@ 100a7994     libucrtd:get_qualified_locale.obj
 0002:0001f9b4       ??_C@_1CE@ODILCONM@?$AAs?$AAp?$AAa?$AAn?$AAi?$AAs?$AAh?$AA?9?$AAv?$AAe?$AAn?$AAe?$AAz?$AAu?$AAe@ 100a79b4     libucrtd:get_qualified_locale.obj
 0002:0001f9d8       ??_C@_1CA@OBNMCGFO@?$AAs?$AAw?$AAe?$AAd?$AAi?$AAs?$AAh?$AA?9?$AAf?$AAi?$AAn?$AAl?$AAa?$AAn?$AAd@ 100a79d8     libucrtd:get_qualified_locale.obj
 0002:0001f9f8       ??_C@_1M@PIPDDPPI@?$AAs?$AAw?$AAi?$AAs?$AAs@ 100a79f8     libucrtd:get_qualified_locale.obj
 0002:0001fa04       ??_C@_15PJPFLCCM@?$AAu?$AAk@ 100a7a04     libucrtd:get_qualified_locale.obj
 0002:0001fa0c       ??_C@_15GMFIMNFM@?$AAu?$AAs@ 100a7a0c     libucrtd:get_qualified_locale.obj
 0002:0001fa14       ??_C@_17HAEBFAGL@?$AAu?$AAs?$AAa@ 100a7a14     libucrtd:get_qualified_locale.obj
 0002:0001fa1c       ??_C@_1BA@DPFJEPHB@?$AAa?$AAm?$AAe?$AAr?$AAi?$AAc?$AAa@ 100a7a1c     libucrtd:get_qualified_locale.obj
 0002:0001fa2c       ??_C@_1BA@ELOGGFK@?$AAb?$AAr?$AAi?$AAt?$AAa?$AAi?$AAn@ 100a7a2c     libucrtd:get_qualified_locale.obj
 0002:0001fa3c       ??_C@_1M@GHBGIGDA@?$AAc?$AAh?$AAi?$AAn?$AAa@ 100a7a3c     libucrtd:get_qualified_locale.obj
 0002:0001fa48       ??_C@_1M@NCHEJOPO@?$AAc?$AAz?$AAe?$AAc?$AAh@ 100a7a48     libucrtd:get_qualified_locale.obj
 0002:0001fa54       ??_C@_1BA@BKPAPBLA@?$AAe?$AAn?$AAg?$AAl?$AAa?$AAn?$AAd@ 100a7a54     libucrtd:get_qualified_locale.obj
 0002:0001fa64       ??_C@_1BM@HKBCKIPC@?$AAg?$AAr?$AAe?$AAa?$AAt?$AA?5?$AAb?$AAr?$AAi?$AAt?$AAa?$AAi?$AAn@ 100a7a64     libucrtd:get_qualified_locale.obj
 0002:0001fa80       ??_C@_1BA@PPCHPGJB@?$AAh?$AAo?$AAl?$AAl?$AAa?$AAn?$AAd@ 100a7a80     libucrtd:get_qualified_locale.obj
 0002:0001fa90       ??_C@_1BE@JBMPEGDG@?$AAh?$AAo?$AAn?$AAg?$AA?9?$AAk?$AAo?$AAn?$AAg@ 100a7a90     libucrtd:get_qualified_locale.obj
 0002:0001faa4       ??_C@_1BI@KOELBBPJ@?$AAn?$AAe?$AAw?$AA?9?$AAz?$AAe?$AAa?$AAl?$AAa?$AAn?$AAd@ 100a7aa4     libucrtd:get_qualified_locale.obj
 0002:0001fabc       ??_C@_15HIEBHAIO@?$AAn?$AAz@ 100a7abc     libucrtd:get_qualified_locale.obj
 0002:0001fac4       ??_C@_1BC@CHBCPFPI@?$AAp?$AAr?$AA?5?$AAc?$AAh?$AAi?$AAn?$AAa@ 100a7ac4     libucrtd:get_qualified_locale.obj
 0002:0001fad8       ??_C@_1BC@JAOIIFKD@?$AAp?$AAr?$AA?9?$AAc?$AAh?$AAi?$AAn?$AAa@ 100a7ad8     libucrtd:get_qualified_locale.obj
 0002:0001faec       ??_C@_1BI@BEHPPHKC@?$AAp?$AAu?$AAe?$AAr?$AAt?$AAo?$AA?9?$AAr?$AAi?$AAc?$AAo@ 100a7aec     libucrtd:get_qualified_locale.obj
 0002:0001fb04       ??_C@_1O@PAEOFKDI@?$AAs?$AAl?$AAo?$AAv?$AAa?$AAk@ 100a7b04     libucrtd:get_qualified_locale.obj
 0002:0001fb14       ??_C@_1BK@FIHMCKAM@?$AAs?$AAo?$AAu?$AAt?$AAh?$AA?5?$AAa?$AAf?$AAr?$AAi?$AAc?$AAa@ 100a7b14     libucrtd:get_qualified_locale.obj
 0002:0001fb30       ??_C@_1BI@NAEOODKB@?$AAs?$AAo?$AAu?$AAt?$AAh?$AA?5?$AAk?$AAo?$AAr?$AAe?$AAa@ 100a7b30     libucrtd:get_qualified_locale.obj
 0002:0001fb48       ??_C@_1BK@FBDGGIFF@?$AAs?$AAo?$AAu?$AAt?$AAh?$AA?9?$AAa?$AAf?$AAr?$AAi?$AAc?$AAa@ 100a7b48     libucrtd:get_qualified_locale.obj
 0002:0001fb64       ??_C@_1BI@GHLEJDPK@?$AAs?$AAo?$AAu?$AAt?$AAh?$AA?9?$AAk?$AAo?$AAr?$AAe?$AAa@ 100a7b64     libucrtd:get_qualified_locale.obj
 0002:0001fb7c       ??_C@_1CE@PLHLOMJF@?$AAt?$AAr?$AAi?$AAn?$AAi?$AAd?$AAa?$AAd?$AA?5?$AA?$CG?$AA?5?$AAt?$AAo?$AAb?$AAa@ 100a7b7c     libucrtd:get_qualified_locale.obj
 0002:0001fba0       ??_C@_1BO@MODIMHHI@?$AAu?$AAn?$AAi?$AAt?$AAe?$AAd?$AA?9?$AAk?$AAi?$AAn?$AAg?$AAd?$AAo?$AAm@ 100a7ba0     libucrtd:get_qualified_locale.obj
 0002:0001fbc0       ??_C@_1BM@FFHJONBJ@?$AAu?$AAn?$AAi?$AAt?$AAe?$AAd?$AA?9?$AAs?$AAt?$AAa?$AAt?$AAe?$AAs@ 100a7bc0     libucrtd:get_qualified_locale.obj
 0002:0001fbe0       ??_C@_1HO@CKHMGCFN@?$AAm?$AAi?$AAn?$AAk?$AAe?$AAr?$AAn?$AAe?$AAl?$AA?2?$AAc?$AAr?$AAt?$AAs?$AA?2@ 100a7be0     libucrtd:get_qualified_locale.obj
 0002:0001fc60       ??_C@_1DI@HCPCNHHP@?$AA_?$AA_?$AAa?$AAc?$AAr?$AAt?$AA_?$AAg?$AAe?$AAt?$AA_?$AAq?$AAu?$AAa?$AAl@ 100a7c60     libucrtd:get_qualified_locale.obj
 0002:0001fc98       ??_C@_1BFC@DEALMEIM@?$AAw?$AAc?$AAs?$AAn?$AAc?$AAp?$AAy?$AA_?$AAs?$AA?$CI?$AAl?$AAp?$AAO?$AAu?$AAt@ 100a7c98     libucrtd:get_qualified_locale.obj
 0002:0001fdf0       ??_C@_1MG@JCGKALNH@?$AAw?$AAc?$AAs?$AAn?$AAc?$AAp?$AAy?$AA_?$AAs?$AA?$CI?$AAl?$AAp?$AAO?$AAu?$AAt@ 100a7df0     libucrtd:get_qualified_locale.obj
 0002:0001feb8       ??_C@_19MPDNHKDG@?$AAu?$AAt?$AAf?$AA8@ 100a7eb8     libucrtd:get_qualified_locale.obj
 0002:0001fec4       ??_C@_1CM@OGEMFJNJ@?$AAL?$AAa?$AAn?$AAg?$AAC?$AAo?$AAu?$AAn?$AAt?$AAr?$AAy?$AAE?$AAn?$AAu?$AAm@ 100a7ec4     libucrtd:get_qualified_locale.obj
 0002:0001fef0       ??_C@_1BDC@CGCEDIGP@?$AAw?$AAc?$AAs?$AAn?$AAc?$AAp?$AAy?$AA_?$AAs?$AA?$CI?$AA_?$AAp?$AAs?$AAe?$AAt@ 100a7ef0     libucrtd:get_qualified_locale.obj
 0002:00020024       ??_C@_1CG@PGLLICHO@?$AAL?$AAa?$AAn?$AAg?$AAu?$AAa?$AAg?$AAe?$AAE?$AAn?$AAu?$AAm?$AAP?$AAr?$AAo@ 100a8024     libucrtd:get_qualified_locale.obj
 0002:0002004c       ??_C@_1DC@CPKFANGP@?$AAG?$AAe?$AAt?$AAL?$AAo?$AAc?$AAa?$AAl?$AAe?$AAN?$AAa?$AAm?$AAe?$AAF?$AAr@ 100a804c     libucrtd:get_qualified_locale.obj
 0002:00020080       ??_C@_1BCC@GMJIFDHO@?$AAw?$AAc?$AAs?$AAn?$AAc?$AAp?$AAy?$AA_?$AAs?$AA?$CI?$AA_?$AAp?$AAs?$AAe?$AAt@ 100a8080     libucrtd:get_qualified_locale.obj
 0002:000201a4       ??_C@_17DNCLJFIF@?$AAA?$AAC?$AAP@ 100a81a4     libucrtd:get_qualified_locale.obj
 0002:000201ac       ??_C@_1M@FPEIIFAM@?$AAu?$AAt?$AAf?$AA?9?$AA8@ 100a81ac     libucrtd:get_qualified_locale.obj
 0002:000201b8       ??_C@_17CIKBIHLH@?$AAO?$AAC?$AAP@ 100a81b8     libucrtd:get_qualified_locale.obj
 0002:000201c0       ___rglangidNotDefault      100a81c0     libucrtd:getqloc_downlevel.obj
 0002:000201d4       ??_C@_0DB@JFFPGLDM@minkernel?2crts?2ucrt?2src?2appcrt?2@ 100a81d4     libucrtd:osfinfo.obj
 0002:00020208       ??_C@_1EM@BPODPNEJ@?$AAs?$AAt?$AAa?$AAt?$AAi?$AAc?$AA_?$AAc?$AAa?$AAs?$AAt?$AA?$DM?$AAu?$AAn?$AAs@ 100a8208     libucrtd:osfinfo.obj
 0002:00020258       ??_C@_1GC@LDGKBAFM@?$AAm?$AAi?$AAn?$AAk?$AAe?$AAr?$AAn?$AAe?$AAl?$AA?2?$AAc?$AAr?$AAt?$AAs?$AA?2@ 100a8258     libucrtd:osfinfo.obj
 0002:000202bc       ??_C@_1DM@JELNOMLN@?$AA_?$AA_?$AAa?$AAc?$AAr?$AAt?$AA_?$AAl?$AAo?$AAw?$AAi?$AAo?$AA_?$AAe?$AAn@ 100a82bc     libucrtd:osfinfo.obj
 0002:000202f8       ??_C@_1FK@MGHFJLAL@?$AAf?$AAh?$AA?5?$AA?$DO?$AA?$DN?$AA?5?$AA0?$AA?5?$AA?$CG?$AA?$CG?$AA?5?$AA?$CI?$AAu?$AAn?$AAs@ 100a82f8     libucrtd:osfinfo.obj
 0002:00020354       ??_C@_1BO@EMBOBGKE@?$AA_?$AAg?$AAe?$AAt?$AA_?$AAo?$AAs?$AAf?$AAh?$AAa?$AAn?$AAd?$AAl?$AAe@ 100a8354     libucrtd:osfinfo.obj
 0002:00020374       ??_C@_1CI@ILOIOBLM@?$AA_?$AAo?$AAs?$AAf?$AAi?$AAl?$AAe?$AA?$CI?$AAf?$AAh?$AA?$CJ?$AA?5?$AA?$CG?$AA?5?$AAF@ 100a8374     libucrtd:osfinfo.obj
 0002:0002039c       ??_C@_1DI@OOEEHOBJ@?$AAb?$AAa?$AAs?$AAe?$AA?5?$AA?$CB?$AA?$DN?$AA?5?$AAn?$AAu?$AAl?$AAl?$AAp?$AAt?$AAr@ 100a839c     libucrtd:qsort.obj
 0002:000203d8       ??_C@_1GA@KPPCKKGE@?$AAm?$AAi?$AAn?$AAk?$AAe?$AAr?$AAn?$AAe?$AAl?$AA?2?$AAc?$AAr?$AAt?$AAs?$AA?2@ 100a83d8     libucrtd:qsort.obj
 0002:00020438       ??_C@_1M@INMHODIG@?$AAq?$AAs?$AAo?$AAr?$AAt@ 100a8438     libucrtd:qsort.obj
 0002:00020444       ??_C@_1BE@NJBEBBME@?$AAw?$AAi?$AAd?$AAt?$AAh?$AA?5?$AA?$DO?$AA?5?$AA0@ 100a8444     libucrtd:qsort.obj
 0002:00020458       ??_C@_1CA@LIDFOMIN@?$AAc?$AAo?$AAm?$AAp?$AA?5?$AA?$CB?$AA?$DN?$AA?5?$AAn?$AAu?$AAl?$AAl?$AAp?$AAt?$AAr@ 100a8458     libucrtd:qsort.obj
 0002:00020478       ??_C@_0DH@IKPCBLP@minkernel?2crts?2ucrt?2src?2appcrt?2@ 100a8478     libucrtd:lcmapstringa.obj
 0002:000204b0       ??_C@_1CI@CCKDLILB@?$AA_?$AAs?$AAt?$AAr?$AAi?$AAn?$AAg?$AA1?$AA?5?$AA?$CB?$AA?$DN?$AA?5?$AAn?$AAu?$AAl@ 100a84b0     libucrtd:wcsnicol.obj
 0002:000204d8       ??_C@_1GG@MDOKJCAE@?$AAm?$AAi?$AAn?$AAk?$AAe?$AAr?$AAn?$AAe?$AAl?$AA?2?$AAc?$AAr?$AAt?$AAs?$AA?2@ 100a84d8     libucrtd:wcsnicol.obj
 0002:00020540       ??_C@_1BK@EONLMOKH@?$AA_?$AAw?$AAc?$AAs?$AAn?$AAi?$AAc?$AAo?$AAl?$AAl?$AA_?$AAl@ 100a8540     libucrtd:wcsnicol.obj
 0002:0002055c       ??_C@_1CI@NAPEFFEJ@?$AA_?$AAs?$AAt?$AAr?$AAi?$AAn?$AAg?$AA2?$AA?5?$AA?$CB?$AA?$DN?$AA?5?$AAn?$AAu?$AAl@ 100a855c     libucrtd:wcsnicol.obj
 0002:00020584       ??_C@_1CC@JLPHKJPH@?$AAc?$AAo?$AAu?$AAn?$AAt?$AA?5?$AA?$DM?$AA?$DN?$AA?5?$AAI?$AAN?$AAT?$AA_?$AAM?$AAA@ 100a8584     libucrtd:wcsnicol.obj
 0002:000205a8       ??_C@_1BG@PCPANGGF@?$AA_?$AAw?$AAc?$AAs?$AAn?$AAi?$AAc?$AAo?$AAl?$AAl@ 100a85a8     libucrtd:wcsnicol.obj
 0002:000205c0       ??_C@_1GG@LACFCIFA@?$AAm?$AAi?$AAn?$AAk?$AAe?$AAr?$AAn?$AAe?$AAl?$AA?2?$AAc?$AAr?$AAt?$AAs?$AA?2@ 100a85c0     libucrtd:strnicol.obj
 0002:00020628       ??_C@_1BK@IOJEBPLP@?$AA_?$AAs?$AAt?$AAr?$AAn?$AAi?$AAc?$AAo?$AAl?$AAl?$AA_?$AAl@ 100a8628     libucrtd:strnicol.obj
 0002:00020d68       ??_C@_15EMKDOKLE@?$AAa?$AAr@ 100a8d68     libucrtd:lcidtoname_downlevel.obj
 0002:00020d70       ??_C@_15KNPADPLH@?$AAb?$AAg@ 100a8d70     libucrtd:lcidtoname_downlevel.obj
 0002:00020d78       ??_C@_15EDMHLDMO@?$AAc?$AAa@ 100a8d78     libucrtd:lcidtoname_downlevel.obj
 0002:00020d80       ??_C@_1O@BPEAJADD@?$AAz?$AAh?$AA?9?$AAC?$AAH?$AAS@ 100a8d80     libucrtd:lcidtoname_downlevel.obj
 0002:00020d90       ??_C@_15LJNHCMNK@?$AAc?$AAs@ 100a8d90     libucrtd:lcidtoname_downlevel.obj
 0002:00020d98       ??_C@_15FOMCIDHG@?$AAd?$AAa@ 100a8d98     libucrtd:lcidtoname_downlevel.obj
 0002:00020da0       ??_C@_15NBKABECB@?$AAd?$AAe@ 100a8da0     libucrtd:lcidtoname_downlevel.obj
 0002:00020da8       ??_C@_15GHPEIIAO@?$AAe?$AAl@ 100a8da8     libucrtd:lcidtoname_downlevel.obj
 0002:00020db0       ??_C@_15MNPNEAIF@?$AAe?$AAn@ 100a8db0     libucrtd:lcidtoname_downlevel.obj
 0002:00020db8       ??_C@_15GPIOMPMH@?$AAe?$AAs@ 100a8db8     libucrtd:lcidtoname_downlevel.obj
 0002:00020dc0       ??_C@_15NGLOAKJC@?$AAf?$AAi@ 100a8dc0     libucrtd:lcidtoname_downlevel.obj
 0002:00020dc8       ??_C@_15FBKGNKAM@?$AAf?$AAr@ 100a8dc8     libucrtd:lcidtoname_downlevel.obj
 0002:00020dd0       ??_C@_15KGGCNEFK@?$AAh?$AAe@ 100a8dd0     libucrtd:lcidtoname_downlevel.obj
 0002:00020dd8       ??_C@_15PGHLIDMF@?$AAh?$AAu@ 100a8dd8     libucrtd:lcidtoname_downlevel.obj
 0002:00020de0       ??_C@_15BIEMAPLM@?$AAi?$AAs@ 100a8de0     libucrtd:lcidtoname_downlevel.obj
 0002:00020de8       ??_C@_15IFJLDHAF@?$AAi?$AAt@ 100a8de8     libucrtd:lcidtoname_downlevel.obj
 0002:00020df0       ??_C@_15GEMIOCAG@?$AAj?$AAa@ 100a8df0     libucrtd:lcidtoname_downlevel.obj
 0002:00020df8       ??_C@_15EPELEGJA@?$AAk?$AAo@ 100a8df8     libucrtd:lcidtoname_downlevel.obj
 0002:00020e00       ??_C@_15NDDHIMN@?$AAn?$AAl@ 100a8e00     libucrtd:lcidtoname_downlevel.obj
 0002:00020e08       ??_C@_15BPIGNHCD@?$AAn?$AAo@ 100a8e08     libucrtd:lcidtoname_downlevel.obj
 0002:00020e10       ??_C@_15DEOPBLCG@?$AAp?$AAl@ 100a8e10     libucrtd:lcidtoname_downlevel.obj
 0002:00020e18       ??_C@_15KBECGEFG@?$AAp?$AAt@ 100a8e18     libucrtd:lcidtoname_downlevel.obj
 0002:00020e20       ??_C@_15GLJCBFMD@?$AAr?$AAo@ 100a8e20     libucrtd:lcidtoname_downlevel.obj
 0002:00020e28       ??_C@_15FEDGKCDI@?$AAr?$AAu@ 100a8e28     libucrtd:lcidtoname_downlevel.obj
 0002:00020e30       ??_C@_15GLKMLLHM@?$AAh?$AAr@ 100a8e30     libucrtd:lcidtoname_downlevel.obj
 0002:00020e38       ??_C@_15CPKMFBDB@?$AAs?$AAk@ 100a8e38     libucrtd:lcidtoname_downlevel.obj
 0002:00020e40       ??_C@_15BAAIOGMK@?$AAs?$AAq@ 100a8e40     libucrtd:lcidtoname_downlevel.obj
 0002:00020e48       ??_C@_15INNPNOHD@?$AAs?$AAv@ 100a8e48     libucrtd:lcidtoname_downlevel.obj
 0002:00020e50       ??_C@_15CABMMOGH@?$AAt?$AAh@ 100a8e50     libucrtd:lcidtoname_downlevel.obj
 0002:00020e58       ??_C@_15BPLIHJJM@?$AAt?$AAr@ 100a8e58     libucrtd:lcidtoname_downlevel.obj
 0002:00020e60       ??_C@_15NEOEKKDJ@?$AAu?$AAr@ 100a8e60     libucrtd:lcidtoname_downlevel.obj
 0002:00020e68       ??_C@_15NFICGAJK@?$AAi?$AAd@ 100a8e68     libucrtd:lcidtoname_downlevel.obj
 0002:00020e70       ??_C@_15HPJPHDM@?$AAb?$AAe@ 100a8e70     libucrtd:lcidtoname_downlevel.obj
 0002:00020e78       ??_C@_15LCHLGJII@?$AAs?$AAl@ 100a8e78     libucrtd:lcidtoname_downlevel.obj
 0002:00020e80       ??_C@_15PCFJPHHO@?$AAe?$AAt@ 100a8e80     libucrtd:lcidtoname_downlevel.obj
 0002:00020e88       ??_C@_15HPFPGODN@?$AAl?$AAv@ 100a8e88     libucrtd:lcidtoname_downlevel.obj
 0002:00020e90       ??_C@_15NFFGKGLG@?$AAl?$AAt@ 100a8e90     libucrtd:lcidtoname_downlevel.obj
 0002:00020e98       ??_C@_15BDAKCCHN@?$AAf?$AAa@ 100a8e98     libucrtd:lcidtoname_downlevel.obj
 0002:00020ea0       ??_C@_15NFGIAIAJ@?$AAv?$AAi@ 100a8ea0     libucrtd:lcidtoname_downlevel.obj
 0002:00020ea8       ??_C@_15LMKNDMHN@?$AAh?$AAy@ 100a8ea8     libucrtd:lcidtoname_downlevel.obj
 0002:00020eb0       ??_C@_15IJBHMCFL@?$AAa?$AAz@ 100a8eb0     libucrtd:lcidtoname_downlevel.obj
 0002:00020eb8       ??_C@_15EKOFJABL@?$AAe?$AAu@ 100a8eb8     libucrtd:lcidtoname_downlevel.obj
 0002:00020ec0       ??_C@_15BGHADCNK@?$AAm?$AAk@ 100a8ec0     libucrtd:lcidtoname_downlevel.obj
 0002:00020ec8       ??_C@_15JDNICKHM@?$AAa?$AAf@ 100a8ec8     libucrtd:lcidtoname_downlevel.obj
 0002:00020ed0       ??_C@_15KPJEDBKD@?$AAk?$AAa@ 100a8ed0     libucrtd:lcidtoname_downlevel.obj
 0002:00020ed8       ??_C@_15PDNFFFEO@?$AAf?$AAo@ 100a8ed8     libucrtd:lcidtoname_downlevel.obj
 0002:00020ee0       ??_C@_15OMLEGLOC@?$AAh?$AAi@ 100a8ee0     libucrtd:lcidtoname_downlevel.obj
 0002:00020ee8       ??_C@_15IDNNENKK@?$AAm?$AAs@ 100a8ee8     libucrtd:lcidtoname_downlevel.obj
 0002:00020ef0       ??_C@_15MACJNBMH@?$AAk?$AAk@ 100a8ef0     libucrtd:lcidtoname_downlevel.obj
 0002:00020ef8       ??_C@_15DKDJEOND@?$AAk?$AAy@ 100a8ef8     libucrtd:lcidtoname_downlevel.obj
 0002:00020f00       ??_C@_15DFGDLJBG@?$AAs?$AAw@ 100a8f00     libucrtd:lcidtoname_downlevel.obj
 0002:00020f08       ??_C@_15BBFAICNG@?$AAu?$AAz@ 100a8f08     libucrtd:lcidtoname_downlevel.obj
 0002:00020f10       ??_C@_15DKNDCGEA@?$AAt?$AAt@ 100a8f10     libucrtd:lcidtoname_downlevel.obj
 0002:00020f18       ??_C@_15MGIFMDPL@?$AAp?$AAa@ 100a8f18     libucrtd:lcidtoname_downlevel.obj
 0002:00020f20       ??_C@_15HCNDBBA@?$AAg?$AAu@ 100a8f20     libucrtd:lcidtoname_downlevel.obj
 0002:00020f28       ??_C@_15FNBEIBON@?$AAt?$AAa@ 100a8f28     libucrtd:lcidtoname_downlevel.obj
 0002:00020f30       ??_C@_15NCHGBGLK@?$AAt?$AAe@ 100a8f30     libucrtd:lcidtoname_downlevel.obj
 0002:00020f38       ??_C@_15PHPHCBPF@?$AAk?$AAn@ 100a8f38     libucrtd:lcidtoname_downlevel.obj
 0002:00020f40       ??_C@_15DLGBCKMP@?$AAm?$AAr@ 100a8f40     libucrtd:lcidtoname_downlevel.obj
 0002:00020f48       ??_C@_15EABBLBFF@?$AAs?$AAa@ 100a8f48     libucrtd:lcidtoname_downlevel.obj
 0002:00020f50       ??_C@_15CBKOMCOI@?$AAm?$AAn@ 100a8f50     libucrtd:lcidtoname_downlevel.obj
 0002:00020f58       ??_C@_15CKDMCJAF@?$AAg?$AAl@ 100a8f58     libucrtd:lcidtoname_downlevel.obj
 0002:00020f60       ??_C@_17CNJFBPG@?$AAk?$AAo?$AAk@ 100a8f60     libucrtd:lcidtoname_downlevel.obj
 0002:00020f68       ??_C@_17FFBJICPL@?$AAs?$AAy?$AAr@ 100a8f68     libucrtd:lcidtoname_downlevel.obj
 0002:00020f70       ??_C@_17KPNDCPAF@?$AAd?$AAi?$AAv@ 100a8f70     libucrtd:lcidtoname_downlevel.obj
 0002:00020f78       ??_C@_1M@OKAHONE@?$AAa?$AAr?$AA?9?$AAS?$AAA@ 100a8f78     libucrtd:lcidtoname_downlevel.obj
 0002:00020f84       ??_C@_1M@FFFIGIGK@?$AAb?$AAg?$AA?9?$AAB?$AAG@ 100a8f84     libucrtd:lcidtoname_downlevel.obj
 0002:00020f90       ??_C@_1M@BJNKEDC@?$AAc?$AAa?$AA?9?$AAE?$AAS@ 100a8f90     libucrtd:lcidtoname_downlevel.obj
 0002:00020f9c       ??_C@_1M@IJJHFJHA@?$AAc?$AAs?$AA?9?$AAC?$AAZ@ 100a8f9c     libucrtd:lcidtoname_downlevel.obj
 0002:00020fa8       ??_C@_1M@CLPEOBGI@?$AAd?$AAa?$AA?9?$AAD?$AAK@ 100a8fa8     libucrtd:lcidtoname_downlevel.obj
 0002:00020fb4       ??_C@_1M@MCMADGCB@?$AAd?$AAe?$AA?9?$AAD?$AAE@ 100a8fb4     libucrtd:lcidtoname_downlevel.obj
 0002:00020fc0       ??_C@_1M@OOCKEMAM@?$AAe?$AAl?$AA?9?$AAG?$AAR@ 100a8fc0     libucrtd:lcidtoname_downlevel.obj
 0002:00020fcc       ??_C@_1M@DDNJFGID@?$AAf?$AAi?$AA?9?$AAF?$AAI@ 100a8fcc     libucrtd:lcidtoname_downlevel.obj
 0002:00020fd8       ??_C@_1M@GLIPPMAC@?$AAf?$AAr?$AA?9?$AAF?$AAR@ 100a8fd8     libucrtd:lcidtoname_downlevel.obj
 0002:00020fe4       ??_C@_1M@GFMCHPE@?$AAh?$AAe?$AA?9?$AAI?$AAL@ 100a8fe4     libucrtd:lcidtoname_downlevel.obj
 0002:00020ff0       ??_C@_1M@MHLPGNKM@?$AAh?$AAu?$AA?9?$AAH?$AAU@ 100a8ff0     libucrtd:lcidtoname_downlevel.obj
 0002:00020ffc       ??_C@_1M@LPDDNNPN@?$AAi?$AAs?$AA?9?$AAI?$AAS@ 100a8ffc     libucrtd:lcidtoname_downlevel.obj
 0002:00021008       ??_C@_1M@MADIPODN@?$AAi?$AAt?$AA?9?$AAI?$AAT@ 100a9008     libucrtd:lcidtoname_downlevel.obj
 0002:00021014       ??_C@_1M@IHBJJGG@?$AAn?$AAl?$AA?9?$AAN?$AAL@ 100a9014     libucrtd:lcidtoname_downlevel.obj
 0002:00021020       ??_C@_1M@EANAGDL@?$AAn?$AAb?$AA?9?$AAN?$AAO@ 100a9020     libucrtd:lcidtoname_downlevel.obj
 0002:0002102c       ??_C@_1M@NEIEMEGP@?$AAp?$AAl?$AA?9?$AAP?$AAL@ 100a902c     libucrtd:lcidtoname_downlevel.obj
 0002:00021038       ??_C@_1M@BOCFIGEP@?$AAp?$AAt?$AA?9?$AAB?$AAR@ 100a9038     libucrtd:lcidtoname_downlevel.obj
 0002:00021044       ??_C@_1M@IMPFOPBG@?$AAr?$AAo?$AA?9?$AAR?$AAO@ 100a9044     libucrtd:lcidtoname_downlevel.obj
 0002:00021050       ??_C@_1M@IDNNEJMM@?$AAr?$AAu?$AA?9?$AAR?$AAU@ 100a9050     libucrtd:lcidtoname_downlevel.obj
 0002:0002105c       ??_C@_1M@LILEEOGM@?$AAh?$AAr?$AA?9?$AAH?$AAR@ 100a905c     libucrtd:lcidtoname_downlevel.obj
 0002:00021068       ??_C@_1M@FKIFEHPB@?$AAs?$AAk?$AA?9?$AAS?$AAK@ 100a9068     libucrtd:lcidtoname_downlevel.obj
 0002:00021074       ??_C@_1M@LJMAMNPJ@?$AAs?$AAq?$AA?9?$AAA?$AAL@ 100a9074     libucrtd:lcidtoname_downlevel.obj
 0002:00021080       ??_C@_1M@GIAKDKJK@?$AAs?$AAv?$AA?9?$AAS?$AAE@ 100a9080     libucrtd:lcidtoname_downlevel.obj
 0002:0002108c       ??_C@_1M@MKJKIKCL@?$AAt?$AAh?$AA?9?$AAT?$AAH@ 100a908c     libucrtd:lcidtoname_downlevel.obj
 0002:00021098       ??_C@_1M@MFLCCMPB@?$AAt?$AAr?$AA?9?$AAT?$AAR@ 100a9098     libucrtd:lcidtoname_downlevel.obj
 0002:000210a4       ??_C@_1M@OIJHDKJN@?$AAu?$AAr?$AA?9?$AAP?$AAK@ 100a90a4     libucrtd:lcidtoname_downlevel.obj
 0002:000210b0       ??_C@_1M@LHIPCIEK@?$AAi?$AAd?$AA?9?$AAI?$AAD@ 100a90b0     libucrtd:lcidtoname_downlevel.obj
 0002:000210bc       ??_C@_1M@MFMOBGI@?$AAu?$AAk?$AA?9?$AAU?$AAA@ 100a90bc     libucrtd:lcidtoname_downlevel.obj
 0002:000210c8       ??_C@_1M@OBGLJIPL@?$AAb?$AAe?$AA?9?$AAB?$AAY@ 100a90c8     libucrtd:lcidtoname_downlevel.obj
 0002:000210d4       ??_C@_1M@BCFAJEAD@?$AAs?$AAl?$AA?9?$AAS?$AAI@ 100a90d4     libucrtd:lcidtoname_downlevel.obj
 0002:000210e0       ??_C@_1M@FKFFEDDN@?$AAe?$AAt?$AA?9?$AAE?$AAE@ 100a90e0     libucrtd:lcidtoname_downlevel.obj
 0002:000210ec       ??_C@_1M@KGKKAACI@?$AAl?$AAv?$AA?9?$AAL?$AAV@ 100a90ec     libucrtd:lcidtoname_downlevel.obj
 0002:000210f8       ??_C@_1M@IFGBIJO@?$AAl?$AAt?$AA?9?$AAL?$AAT@ 100a90f8     libucrtd:lcidtoname_downlevel.obj
 0002:00021104       ??_C@_1M@FGEAHEDM@?$AAf?$AAa?$AA?9?$AAI?$AAR@ 100a9104     libucrtd:lcidtoname_downlevel.obj
 0002:00021110       ??_C@_1M@KBMAIBFN@?$AAv?$AAi?$AA?9?$AAV?$AAN@ 100a9110     libucrtd:lcidtoname_downlevel.obj
 0002:0002111c       ??_C@_1M@GPCBKDJK@?$AAh?$AAy?$AA?9?$AAA?$AAM@ 100a911c     libucrtd:lcidtoname_downlevel.obj
 0002:00021128       ??_C@_1BG@BECMDDJB@?$AAa?$AAz?$AA?9?$AAA?$AAZ?$AA?9?$AAL?$AAa?$AAt?$AAn@ 100a9128     libucrtd:lcidtoname_downlevel.obj
 0002:00021140       ??_C@_1M@MAOFCAEA@?$AAe?$AAu?$AA?9?$AAE?$AAS@ 100a9140     libucrtd:lcidtoname_downlevel.obj
 0002:0002114c       ??_C@_1M@IGHABKPI@?$AAm?$AAk?$AA?9?$AAM?$AAK@ 100a914c     libucrtd:lcidtoname_downlevel.obj
 0002:00021158       ??_C@_1M@IAIGNEJG@?$AAt?$AAn?$AA?9?$AAZ?$AAA@ 100a9158     libucrtd:lcidtoname_downlevel.obj
 0002:00021164       ??_C@_1M@IIJCOJFA@?$AAx?$AAh?$AA?9?$AAZ?$AAA@ 100a9164     libucrtd:lcidtoname_downlevel.obj
 0002:00021170       ??_C@_1M@LGPJHNJH@?$AAz?$AAu?$AA?9?$AAZ?$AAA@ 100a9170     libucrtd:lcidtoname_downlevel.obj
 0002:0002117c       ??_C@_1M@HOKAOIO@?$AAa?$AAf?$AA?9?$AAZ?$AAA@ 100a917c     libucrtd:lcidtoname_downlevel.obj
 0002:00021188       ??_C@_1M@DPCLHLIE@?$AAk?$AAa?$AA?9?$AAG?$AAE@ 100a9188     libucrtd:lcidtoname_downlevel.obj
 0002:00021194       ??_C@_1M@BLKMHJBI@?$AAf?$AAo?$AA?9?$AAF?$AAO@ 100a9194     libucrtd:lcidtoname_downlevel.obj
 0002:000211a0       ??_C@_1M@LGGJAPPB@?$AAh?$AAi?$AA?9?$AAI?$AAN@ 100a91a0     libucrtd:lcidtoname_downlevel.obj
 0002:000211ac       ??_C@_1M@FIKPIHFE@?$AAm?$AAt?$AA?9?$AAM?$AAT@ 100a91ac     libucrtd:lcidtoname_downlevel.obj
 0002:000211b8       ??_C@_1M@HEGGPBFA@?$AAs?$AAe?$AA?9?$AAN?$AAO@ 100a91b8     libucrtd:lcidtoname_downlevel.obj
 0002:000211c4       ??_C@_1M@EIBJEEPA@?$AAm?$AAs?$AA?9?$AAM?$AAY@ 100a91c4     libucrtd:lcidtoname_downlevel.obj
 0002:000211d0       ??_C@_1M@FHLBGMPP@?$AAk?$AAk?$AA?9?$AAK?$AAZ@ 100a91d0     libucrtd:lcidtoname_downlevel.obj
 0002:000211dc       ??_C@_1M@NGJJLCGI@?$AAk?$AAy?$AA?9?$AAK?$AAG@ 100a91dc     libucrtd:lcidtoname_downlevel.obj
 0002:000211e8       ??_C@_1M@GIENNBFC@?$AAs?$AAw?$AA?9?$AAK?$AAE@ 100a91e8     libucrtd:lcidtoname_downlevel.obj
 0002:000211f4       ??_C@_1BG@NDGMJIMJ@?$AAu?$AAz?$AA?9?$AAU?$AAZ?$AA?9?$AAL?$AAa?$AAt?$AAn@ 100a91f4     libucrtd:lcidtoname_downlevel.obj
 0002:0002120c       ??_C@_1M@IDCCIHBC@?$AAt?$AAt?$AA?9?$AAR?$AAU@ 100a920c     libucrtd:lcidtoname_downlevel.obj
 0002:00021218       ??_C@_1M@LOICPMOJ@?$AAb?$AAn?$AA?9?$AAI?$AAN@ 100a9218     libucrtd:lcidtoname_downlevel.obj
 0002:00021224       ??_C@_1M@KPKKNEAH@?$AAp?$AAa?$AA?9?$AAI?$AAN@ 100a9224     libucrtd:lcidtoname_downlevel.obj
 0002:00021230       ??_C@_1M@PJGPPBOG@?$AAg?$AAu?$AA?9?$AAI?$AAN@ 100a9230     libucrtd:lcidtoname_downlevel.obj
 0002:0002123c       ??_C@_1M@KMKMOPHI@?$AAt?$AAa?$AA?9?$AAI?$AAN@ 100a923c     libucrtd:lcidtoname_downlevel.obj
 0002:00021248       ??_C@_1M@KFEHEPAC@?$AAt?$AAe?$AA?9?$AAI?$AAN@ 100a9248     libucrtd:lcidtoname_downlevel.obj
 0002:00021254       ??_C@_1M@CDCLMGHI@?$AAk?$AAn?$AA?9?$AAI?$AAN@ 100a9254     libucrtd:lcidtoname_downlevel.obj
 0002:00021260       ??_C@_1M@MIODLDKF@?$AAm?$AAl?$AA?9?$AAI?$AAN@ 100a9260     libucrtd:lcidtoname_downlevel.obj
 0002:0002126c       ??_C@_1M@PBIEACPO@?$AAm?$AAr?$AA?9?$AAI?$AAN@ 100a926c     libucrtd:lcidtoname_downlevel.obj
 0002:00021278       ??_C@_1M@NIDEAGPH@?$AAs?$AAa?$AA?9?$AAI?$AAN@ 100a9278     libucrtd:lcidtoname_downlevel.obj
 0002:00021284       ??_C@_1M@FHIHCBIO@?$AAm?$AAn?$AA?9?$AAM?$AAN@ 100a9284     libucrtd:lcidtoname_downlevel.obj
 0002:00021290       ??_C@_1M@JAIJPENP@?$AAc?$AAy?$AA?9?$AAG?$AAB@ 100a9290     libucrtd:lcidtoname_downlevel.obj
 0002:0002129c       ??_C@_1M@PHGFBEPN@?$AAg?$AAl?$AA?9?$AAE?$AAS@ 100a929c     libucrtd:lcidtoname_downlevel.obj
 0002:000212a8       ??_C@_1O@KPIPDNCP@?$AAk?$AAo?$AAk?$AA?9?$AAI?$AAN@ 100a92a8     libucrtd:lcidtoname_downlevel.obj
 0002:000212b8       ??_C@_1O@KNHJLDJA@?$AAs?$AAy?$AAr?$AA?9?$AAS?$AAY@ 100a92b8     libucrtd:lcidtoname_downlevel.obj
 0002:000212c8       ??_C@_1O@MKEKBLAH@?$AAd?$AAi?$AAv?$AA?9?$AAM?$AAV@ 100a92c8     libucrtd:lcidtoname_downlevel.obj
 0002:000212d8       ??_C@_1O@OHDCKDDF@?$AAq?$AAu?$AAz?$AA?9?$AAB?$AAO@ 100a92d8     libucrtd:lcidtoname_downlevel.obj
 0002:000212e8       ??_C@_1M@LEPJNLFD@?$AAn?$AAs?$AA?9?$AAZ?$AAA@ 100a92e8     libucrtd:lcidtoname_downlevel.obj
 0002:000212f4       ??_C@_1M@OMLEIIJB@?$AAm?$AAi?$AA?9?$AAN?$AAZ@ 100a92f4     libucrtd:lcidtoname_downlevel.obj
 0002:00021300       ??_C@_1M@PMPEAILG@?$AAa?$AAr?$AA?9?$AAI?$AAQ@ 100a9300     libucrtd:lcidtoname_downlevel.obj
 0002:0002130c       ??_C@_1M@CNKPNOEE@?$AAd?$AAe?$AA?9?$AAC?$AAH@ 100a930c     libucrtd:lcidtoname_downlevel.obj
 0002:00021318       ??_C@_1M@LKMGMLKO@?$AAe?$AAn?$AA?9?$AAG?$AAB@ 100a9318     libucrtd:lcidtoname_downlevel.obj
 0002:00021324       ??_C@_1M@PGKJFFGL@?$AAe?$AAs?$AA?9?$AAM?$AAX@ 100a9324     libucrtd:lcidtoname_downlevel.obj
 0002:00021330       ??_C@_1M@DNNANBDC@?$AAf?$AAr?$AA?9?$AAB?$AAE@ 100a9330     libucrtd:lcidtoname_downlevel.obj
 0002:0002133c       ??_C@_1M@HLGMDFHM@?$AAi?$AAt?$AA?9?$AAC?$AAH@ 100a933c     libucrtd:lcidtoname_downlevel.obj
 0002:00021348       ??_C@_1M@CLLBGJH@?$AAn?$AAl?$AA?9?$AAB?$AAE@ 100a9348     libucrtd:lcidtoname_downlevel.obj
 0002:00021354       ??_C@_1M@BODBOGLF@?$AAn?$AAn?$AA?9?$AAN?$AAO@ 100a9354     libucrtd:lcidtoname_downlevel.obj
 0002:00021360       ??_C@_1M@HFFAHKAD@?$AAp?$AAt?$AA?9?$AAP?$AAT@ 100a9360     libucrtd:lcidtoname_downlevel.obj
 0002:0002136c       ??_C@_1BG@LNOAKHIE@?$AAs?$AAr?$AA?9?$AAS?$AAP?$AA?9?$AAL?$AAa?$AAt?$AAn@ 100a936c     libucrtd:lcidtoname_downlevel.obj
 0002:00021384       ??_C@_1M@HBMHBGAK@?$AAs?$AAv?$AA?9?$AAF?$AAI@ 100a9384     libucrtd:lcidtoname_downlevel.obj
 0002:00021390       ??_C@_1BG@DGCJGJBE@?$AAa?$AAz?$AA?9?$AAA?$AAZ?$AA?9?$AAC?$AAy?$AAr?$AAl@ 100a9390     libucrtd:lcidtoname_downlevel.obj
 0002:000213a8       ??_C@_1M@KEJDAAHB@?$AAs?$AAe?$AA?9?$AAS?$AAE@ 100a93a8     libucrtd:lcidtoname_downlevel.obj
 0002:000213b4       ??_C@_1M@HEIBJJAD@?$AAm?$AAs?$AA?9?$AAB?$AAN@ 100a93b4     libucrtd:lcidtoname_downlevel.obj
 0002:000213c0       ??_C@_1BG@PBGJMCEM@?$AAu?$AAz?$AA?9?$AAU?$AAZ?$AA?9?$AAC?$AAy?$AAr?$AAl@ 100a93c0     libucrtd:lcidtoname_downlevel.obj
 0002:000213d8       ??_C@_1O@LAOBCMDF@?$AAq?$AAu?$AAz?$AA?9?$AAE?$AAC@ 100a93d8     libucrtd:lcidtoname_downlevel.obj
 0002:000213e8       ??_C@_1M@POEEMAIO@?$AAa?$AAr?$AA?9?$AAE?$AAG@ 100a93e8     libucrtd:lcidtoname_downlevel.obj
 0002:000213f4       ??_C@_1M@EFAKDEDL@?$AAz?$AAh?$AA?9?$AAH?$AAK@ 100a93f4     libucrtd:lcidtoname_downlevel.obj
 0002:00021400       ??_C@_1M@HKKIJHGI@?$AAd?$AAe?$AA?9?$AAA?$AAT@ 100a9400     libucrtd:lcidtoname_downlevel.obj
 0002:0002140c       ??_C@_1M@KBFBEHJF@?$AAe?$AAn?$AA?9?$AAA?$AAU@ 100a940c     libucrtd:lcidtoname_downlevel.obj
 0002:00021418       ??_C@_1M@MNPLFAAH@?$AAe?$AAs?$AA?9?$AAE?$AAS@ 100a9418     libucrtd:lcidtoname_downlevel.obj
 0002:00021424       ??_C@_1M@HJOOJFMA@?$AAf?$AAr?$AA?9?$AAC?$AAA@ 100a9424     libucrtd:lcidtoname_downlevel.obj
 0002:00021430       ??_C@_1BG@JPOFPNAB@?$AAs?$AAr?$AA?9?$AAS?$AAP?$AA?9?$AAC?$AAy?$AAr?$AAl@ 100a9430     libucrtd:lcidtoname_downlevel.obj
 0002:00021448       ??_C@_1M@LNFOCMOB@?$AAs?$AAe?$AA?9?$AAF?$AAI@ 100a9448     libucrtd:lcidtoname_downlevel.obj
 0002:00021454       ??_C@_1O@MGJBOAMB@?$AAq?$AAu?$AAz?$AA?9?$AAP?$AAE@ 100a9454     libucrtd:lcidtoname_downlevel.obj
 0002:00021464       ??_C@_1M@GJINLBOK@?$AAa?$AAr?$AA?9?$AAL?$AAY@ 100a9464     libucrtd:lcidtoname_downlevel.obj
 0002:00021470       ??_C@_1M@GGMNHJNL@?$AAz?$AAh?$AA?9?$AAS?$AAG@ 100a9470     libucrtd:lcidtoname_downlevel.obj
 0002:0002147c       ??_C@_1M@HOIKODND@?$AAd?$AAe?$AA?9?$AAL?$AAU@ 100a947c     libucrtd:lcidtoname_downlevel.obj
 0002:00021488       ??_C@_1M@DDOCCGFG@?$AAe?$AAn?$AA?9?$AAC?$AAA@ 100a9488     libucrtd:lcidtoname_downlevel.obj
 0002:00021494       ??_C@_1M@BNOEMJLF@?$AAe?$AAs?$AA?9?$AAG?$AAT@ 100a9494     libucrtd:lcidtoname_downlevel.obj
 0002:000214a0       ??_C@_1M@EOGNKEK@?$AAf?$AAr?$AA?9?$AAC?$AAH@ 100a94a0     libucrtd:lcidtoname_downlevel.obj
 0002:000214ac       ??_C@_1M@FLIDJFHL@?$AAh?$AAr?$AA?9?$AAB?$AAA@ 100a94ac     libucrtd:lcidtoname_downlevel.obj
 0002:000214b8       ??_C@_1O@FMCELNAJ@?$AAs?$AAm?$AAj?$AA?9?$AAN?$AAO@ 100a94b8     libucrtd:lcidtoname_downlevel.obj
 0002:000214c8       ??_C@_1M@JHGLJMGJ@?$AAa?$AAr?$AA?9?$AAD?$AAZ@ 100a94c8     libucrtd:lcidtoname_downlevel.obj
 0002:000214d4       ??_C@_1M@JKKFDCNP@?$AAz?$AAh?$AA?9?$AAM?$AAO@ 100a94d4     libucrtd:lcidtoname_downlevel.obj
 0002:000214e0       ??_C@_1M@GEEFALPE@?$AAd?$AAe?$AA?9?$AAL?$AAI@ 100a94e0     libucrtd:lcidtoname_downlevel.obj
 0002:000214ec       ??_C@_1M@IGEOFBG@?$AAe?$AAn?$AA?9?$AAN?$AAZ@ 100a94ec     libucrtd:lcidtoname_downlevel.obj
 0002:000214f8       ??_C@_1M@KDBONEHP@?$AAe?$AAs?$AA?9?$AAC?$AAR@ 100a94f8     libucrtd:lcidtoname_downlevel.obj
 0002:00021504       ??_C@_1M@FHMDOHNN@?$AAf?$AAr?$AA?9?$AAL?$AAU@ 100a9504     libucrtd:lcidtoname_downlevel.obj
 0002:00021510       ??_C@_1BG@NFKKMAFG@?$AAb?$AAs?$AA?9?$AAB?$AAA?$AA?9?$AAL?$AAa?$AAt?$AAn@ 100a9510     libucrtd:lcidtoname_downlevel.obj
 0002:00021528       ??_C@_1O@IMNBEMCI@?$AAs?$AAm?$AAj?$AA?9?$AAS?$AAE@ 100a9528     libucrtd:lcidtoname_downlevel.obj
 0002:00021538       ??_C@_1M@DHHMBNDP@?$AAa?$AAr?$AA?9?$AAM?$AAA@ 100a9538     libucrtd:lcidtoname_downlevel.obj
 0002:00021544       ??_C@_1M@BNBLJCGH@?$AAe?$AAn?$AA?9?$AAI?$AAE@ 100a9544     libucrtd:lcidtoname_downlevel.obj
 0002:00021550       ??_C@_1M@GEPAFMDL@?$AAe?$AAs?$AA?9?$AAP?$AAA@ 100a9550     libucrtd:lcidtoname_downlevel.obj
 0002:0002155c       ??_C@_1M@OJONDMDL@?$AAf?$AAr?$AA?9?$AAM?$AAC@ 100a955c     libucrtd:lcidtoname_downlevel.obj
 0002:00021568       ??_C@_1BG@OBCNFJB@?$AAs?$AAr?$AA?9?$AAB?$AAA?$AA?9?$AAL?$AAa?$AAt?$AAn@ 100a9568     libucrtd:lcidtoname_downlevel.obj
 0002:00021580       ??_C@_1O@KEMEEGPO@?$AAs?$AAm?$AAa?$AA?9?$AAN?$AAO@ 100a9580     libucrtd:lcidtoname_downlevel.obj
 0002:00021590       ??_C@_1M@ELMGFODK@?$AAa?$AAr?$AA?9?$AAT?$AAN@ 100a9590     libucrtd:lcidtoname_downlevel.obj
 0002:0002159c       ??_C@_1M@BHDLHFAF@?$AAe?$AAn?$AA?9?$AAZ?$AAA@ 100a959c     libucrtd:lcidtoname_downlevel.obj
 0002:000215a8       ??_C@_1M@BMGIGLIF@?$AAe?$AAs?$AA?9?$AAD?$AAO@ 100a95a8     libucrtd:lcidtoname_downlevel.obj
 0002:000215b4       ??_C@_1BG@CMBHIPBE@?$AAs?$AAr?$AA?9?$AAB?$AAA?$AA?9?$AAC?$AAy?$AAr?$AAl@ 100a95b4     libucrtd:lcidtoname_downlevel.obj
 0002:000215cc       ??_C@_1O@HEDBLHNP@?$AAs?$AAm?$AAa?$AA?9?$AAS?$AAE@ 100a95cc     libucrtd:lcidtoname_downlevel.obj
 0002:000215dc       ??_C@_1M@DAGCADIM@?$AAa?$AAr?$AA?9?$AAO?$AAM@ 100a95dc     libucrtd:lcidtoname_downlevel.obj
 0002:000215e8       ??_C@_1M@FODLMICG@?$AAe?$AAn?$AA?9?$AAJ?$AAM@ 100a95e8     libucrtd:lcidtoname_downlevel.obj
 0002:000215f4       ??_C@_1M@DNMLCIHB@?$AAe?$AAs?$AA?9?$AAV?$AAE@ 100a95f4     libucrtd:lcidtoname_downlevel.obj
 0002:00021600       ??_C@_1O@EOKHMKJK@?$AAs?$AAm?$AAs?$AA?9?$AAF?$AAI@ 100a9600     libucrtd:lcidtoname_downlevel.obj
 0002:00021610       ??_C@_1M@CAFJMKOF@?$AAa?$AAr?$AA?9?$AAY?$AAE@ 100a9610     libucrtd:lcidtoname_downlevel.obj
 0002:0002161c       ??_C@_1M@CBFHIJLI@?$AAe?$AAn?$AA?9?$AAC?$AAB@ 100a961c     libucrtd:lcidtoname_downlevel.obj
 0002:00021628       ??_C@_1M@BGNFLDN@?$AAe?$AAs?$AA?9?$AAC?$AAO@ 100a9628     libucrtd:lcidtoname_downlevel.obj
 0002:00021634       ??_C@_1O@JMPHMAMC@?$AAs?$AAm?$AAn?$AA?9?$AAF?$AAI@ 100a9634     libucrtd:lcidtoname_downlevel.obj
 0002:00021644       ??_C@_1M@JLANABKE@?$AAa?$AAr?$AA?9?$AAS?$AAY@ 100a9644     libucrtd:lcidtoname_downlevel.obj
 0002:00021650       ??_C@_1M@HPKGCFGN@?$AAe?$AAn?$AA?9?$AAB?$AAZ@ 100a9650     libucrtd:lcidtoname_downlevel.obj
 0002:0002165c       ??_C@_1M@OLJCMLGM@?$AAe?$AAs?$AA?9?$AAP?$AAE@ 100a965c     libucrtd:lcidtoname_downlevel.obj
 0002:00021668       ??_C@_1M@MKKGFKLE@?$AAa?$AAr?$AA?9?$AAJ?$AAO@ 100a9668     libucrtd:lcidtoname_downlevel.obj
 0002:00021674       ??_C@_1M@EKPGLDNI@?$AAe?$AAn?$AA?9?$AAT?$AAT@ 100a9674     libucrtd:lcidtoname_downlevel.obj
 0002:00021680       ??_C@_1M@OONGHFHE@?$AAe?$AAs?$AA?9?$AAA?$AAR@ 100a9680     libucrtd:lcidtoname_downlevel.obj
 0002:0002168c       ??_C@_1M@OOJFGBHE@?$AAa?$AAr?$AA?9?$AAL?$AAB@ 100a968c     libucrtd:lcidtoname_downlevel.obj
 0002:00021698       ??_C@_1M@GCEJHNEG@?$AAe?$AAn?$AA?9?$AAZ?$AAW@ 100a9698     libucrtd:lcidtoname_downlevel.obj
 0002:000216a4       ??_C@_1M@JNOCAHJI@?$AAe?$AAs?$AA?9?$AAE?$AAC@ 100a96a4     libucrtd:lcidtoname_downlevel.obj
 0002:000216b0       ??_C@_1M@JEFHPGGB@?$AAa?$AAr?$AA?9?$AAK?$AAW@ 100a96b0     libucrtd:lcidtoname_downlevel.obj
 0002:000216bc       ??_C@_1M@MLKIBJOJ@?$AAe?$AAn?$AA?9?$AAP?$AAH@ 100a96bc     libucrtd:lcidtoname_downlevel.obj
 0002:000216c8       ??_C@_1M@BDNIPEND@?$AAe?$AAs?$AA?9?$AAC?$AAL@ 100a96c8     libucrtd:lcidtoname_downlevel.obj
 0002:000216d4       ??_C@_1M@MPNMEKBD@?$AAa?$AAr?$AA?9?$AAA?$AAE@ 100a96d4     libucrtd:lcidtoname_downlevel.obj
 0002:000216e0       ??_C@_1M@KBJALCPI@?$AAe?$AAs?$AA?9?$AAU?$AAY@ 100a96e0     libucrtd:lcidtoname_downlevel.obj
 0002:000216ec       ??_C@_1M@LLCCOAGA@?$AAa?$AAr?$AA?9?$AAB?$AAH@ 100a96ec     libucrtd:lcidtoname_downlevel.obj
 0002:000216f8       ??_C@_1M@PBFNCDEL@?$AAe?$AAs?$AA?9?$AAP?$AAY@ 100a96f8     libucrtd:lcidtoname_downlevel.obj
 0002:00021704       ??_C@_1M@EDGINPNP@?$AAa?$AAr?$AA?9?$AAQ?$AAA@ 100a9704     libucrtd:lcidtoname_downlevel.obj
 0002:00021710       ??_C@_1M@MKDBIIJI@?$AAe?$AAs?$AA?9?$AAB?$AAO@ 100a9710     libucrtd:lcidtoname_downlevel.obj
 0002:0002171c       ??_C@_1M@CPKKEBLD@?$AAe?$AAs?$AA?9?$AAS?$AAV@ 100a971c     libucrtd:lcidtoname_downlevel.obj
 0002:00021728       ??_C@_1M@NDBGMMJL@?$AAe?$AAs?$AA?9?$AAH?$AAN@ 100a9728     libucrtd:lcidtoname_downlevel.obj
 0002:00021734       ??_C@_1M@JIJIBHDP@?$AAe?$AAs?$AA?9?$AAN?$AAI@ 100a9734     libucrtd:lcidtoname_downlevel.obj
 0002:00021740       ??_C@_1M@CGFMKEEK@?$AAe?$AAs?$AA?9?$AAP?$AAR@ 100a9740     libucrtd:lcidtoname_downlevel.obj
 0002:0002174c       ??_C@_1O@ICJHKIIK@?$AAz?$AAh?$AA?9?$AAC?$AAH?$AAT@ 100a974c     libucrtd:lcidtoname_downlevel.obj
 0002:0002175c       ??_C@_15CLNEJCE@?$AAs?$AAr@ 100a975c     libucrtd:lcidtoname_downlevel.obj
 0002:00021e88       ??_C@_1M@KAHEKEIG@?$AAa?$AAf?$AA?9?$AAz?$AAa@ 100a9e88     libucrtd:lcidtoname_downlevel.obj
 0002:00021e94       ??_C@_1M@GIECOABL@?$AAa?$AAr?$AA?9?$AAa?$AAe@ 100a9e94     libucrtd:lcidtoname_downlevel.obj
 0002:00021ea0       ??_C@_1M@BMLMEKGI@?$AAa?$AAr?$AA?9?$AAb?$AAh@ 100a9ea0     libucrtd:lcidtoname_downlevel.obj
 0002:00021eac       ??_C@_1M@DAPFDGGB@?$AAa?$AAr?$AA?9?$AAd?$AAz@ 100a9eac     libucrtd:lcidtoname_downlevel.obj
 0002:00021eb8       ??_C@_1M@FJNKGKIG@?$AAa?$AAr?$AA?9?$AAe?$AAg@ 100a9eb8     libucrtd:lcidtoname_downlevel.obj
 0002:00021ec4       ??_C@_1M@FLGKKCLO@?$AAa?$AAr?$AA?9?$AAi?$AAq@ 100a9ec4     libucrtd:lcidtoname_downlevel.obj
 0002:00021ed0       ??_C@_1M@GNDIPALM@?$AAa?$AAr?$AA?9?$AAj?$AAo@ 100a9ed0     libucrtd:lcidtoname_downlevel.obj
 0002:00021edc       ??_C@_1M@DDMJFMGJ@?$AAa?$AAr?$AA?9?$AAk?$AAw@ 100a9edc     libucrtd:lcidtoname_downlevel.obj
 0002:00021ee8       ??_C@_1M@EJALMLHM@?$AAa?$AAr?$AA?9?$AAl?$AAb@ 100a9ee8     libucrtd:lcidtoname_downlevel.obj
 0002:00021ef4       ??_C@_1M@MOBDBLOC@?$AAa?$AAr?$AA?9?$AAl?$AAy@ 100a9ef4     libucrtd:lcidtoname_downlevel.obj
 0002:00021f00       ??_C@_1M@JAOCLHDH@?$AAa?$AAr?$AA?9?$AAm?$AAa@ 100a9f00     libucrtd:lcidtoname_downlevel.obj
 0002:00021f0c       ??_C@_1M@JHPMKJIE@?$AAa?$AAr?$AA?9?$AAo?$AAm@ 100a9f0c     libucrtd:lcidtoname_downlevel.obj
 0002:00021f18       ??_C@_1M@OEPGHFNH@?$AAa?$AAr?$AA?9?$AAq?$AAa@ 100a9f18     libucrtd:lcidtoname_downlevel.obj
 0002:00021f24       ??_C@_1M@KJDONENM@?$AAa?$AAr?$AA?9?$AAs?$AAa@ 100a9f24     libucrtd:lcidtoname_downlevel.obj
 0002:00021f30       ??_C@_1M@DMJDKLKM@?$AAa?$AAr?$AA?9?$AAs?$AAy@ 100a9f30     libucrtd:lcidtoname_downlevel.obj
 0002:00021f3c       ??_C@_1M@OMFIPEDC@?$AAa?$AAr?$AA?9?$AAt?$AAn@ 100a9f3c     libucrtd:lcidtoname_downlevel.obj
 0002:00021f48       ??_C@_1M@IHMHGAON@?$AAa?$AAr?$AA?9?$AAy?$AAe@ 100a9f48     libucrtd:lcidtoname_downlevel.obj
 0002:00021f54       ??_C@_1BG@KDCPGJGB@?$AAa?$AAz?$AA?9?$AAa?$AAz?$AA?9?$AAc?$AAy?$AAr?$AAl@ 100a9f54     libucrtd:lcidtoname_downlevel.obj
 0002:00021f6c       ??_C@_1BG@IBCKDDOE@?$AAa?$AAz?$AA?9?$AAa?$AAz?$AA?9?$AAl?$AAa?$AAt?$AAn@ 100a9f6c     libucrtd:lcidtoname_downlevel.obj
 0002:00021f84       ??_C@_1M@EGPFDCPD@?$AAb?$AAe?$AA?9?$AAb?$AAy@ 100a9f84     libucrtd:lcidtoname_downlevel.obj
 0002:00021f90       ??_C@_1M@PCMGMCGC@?$AAb?$AAg?$AA?9?$AAb?$AAg@ 100a9f90     libucrtd:lcidtoname_downlevel.obj
 0002:00021f9c       ??_C@_1M@BJBMFGOB@?$AAb?$AAn?$AA?9?$AAi?$AAn@ 100a9f9c     libucrtd:lcidtoname_downlevel.obj
 0002:00021fa8       ??_C@_1BG@EAKMMACD@?$AAb?$AAs?$AA?9?$AAb?$AAa?$AA?9?$AAl?$AAa?$AAt?$AAn@ 100a9fa8     libucrtd:lcidtoname_downlevel.obj
 0002:00021fc0       ??_C@_1M@KGADAODK@?$AAc?$AAa?$AA?9?$AAe?$AAs@ 100a9fc0     libucrtd:lcidtoname_downlevel.obj
 0002:00021fcc       ??_C@_1M@COAJPDHI@?$AAc?$AAs?$AA?9?$AAc?$AAz@ 100a9fcc     libucrtd:lcidtoname_downlevel.obj
 0002:00021fd8       ??_C@_1M@DHBHFONH@?$AAc?$AAy?$AA?9?$AAg?$AAb@ 100a9fd8     libucrtd:lcidtoname_downlevel.obj
 0002:00021fe4       ??_C@_1M@IMGKELGA@?$AAd?$AAa?$AA?9?$AAd?$AAk@ 100a9fe4     libucrtd:lcidtoname_downlevel.obj
 0002:00021ff0       ??_C@_1M@NNDGDNGA@?$AAd?$AAe?$AA?9?$AAa?$AAt@ 100a9ff0     libucrtd:lcidtoname_downlevel.obj
 0002:00021ffc       ??_C@_1M@IKDBHEEM@?$AAd?$AAe?$AA?9?$AAc?$AAh@ 100a9ffc     libucrtd:lcidtoname_downlevel.obj
 0002:00022008       ??_C@_1M@GFFOJMCJ@?$AAd?$AAe?$AA?9?$AAd?$AAe@ 100aa008     libucrtd:lcidtoname_downlevel.obj
 0002:00022014       ??_C@_1M@MDNLKBPM@?$AAd?$AAe?$AA?9?$AAl?$AAi@ 100aa014     libucrtd:lcidtoname_downlevel.obj
 0002:00022020       ??_C@_1M@NJBEEJNL@?$AAd?$AAe?$AA?9?$AAl?$AAu@ 100aa020     libucrtd:lcidtoname_downlevel.obj
 0002:0002202c       ??_C@_1O@GNNELBAP@?$AAd?$AAi?$AAv?$AA?9?$AAm?$AAv@ 100aa02c     libucrtd:lcidtoname_downlevel.obj
 0002:0002203c       ??_C@_1M@EJLEOGAE@?$AAe?$AAl?$AA?9?$AAg?$AAr@ 100aa03c     libucrtd:lcidtoname_downlevel.obj
 0002:00022048       ??_C@_1M@GMPONJN@?$AAe?$AAn?$AA?9?$AAa?$AAu@ 100aa048     libucrtd:lcidtoname_downlevel.obj
 0002:00022054       ??_C@_1M@NIDIIPGF@?$AAe?$AAn?$AA?9?$AAb?$AAz@ 100aa054     libucrtd:lcidtoname_downlevel.obj
 0002:00022060       ??_C@_1M@JEHMIMFO@?$AAe?$AAn?$AA?9?$AAc?$AAa@ 100aa060     libucrtd:lcidtoname_downlevel.obj
 0002:0002206c       ??_C@_1M@IGMJCDLA@?$AAe?$AAn?$AA?9?$AAc?$AAb@ 100aa06c     libucrtd:lcidtoname_downlevel.obj
 0002:00022078       ??_C@_1M@BNFIGBKG@?$AAe?$AAn?$AA?9?$AAg?$AAb@ 100aa078     libucrtd:lcidtoname_downlevel.obj
 0002:00022084       ??_C@_1M@LKIFDIGP@?$AAe?$AAn?$AA?9?$AAi?$AAe@ 100aa084     libucrtd:lcidtoname_downlevel.obj
 0002:00022090       ??_C@_1M@PJKFGCCO@?$AAe?$AAn?$AA?9?$AAj?$AAm@ 100aa090     libucrtd:lcidtoname_downlevel.obj
 0002:0002209c       ??_C@_1M@KPPKEPBO@?$AAe?$AAn?$AA?9?$AAn?$AAz@ 100aa09c     libucrtd:lcidtoname_downlevel.obj
 0002:000220a8       ??_C@_1M@GMDGLDOB@?$AAe?$AAn?$AA?9?$AAp?$AAh@ 100aa0a8     libucrtd:lcidtoname_downlevel.obj
 0002:000220b4       ??_C@_1M@ONGIBJNA@?$AAe?$AAn?$AA?9?$AAt?$AAt@ 100aa0b4     libucrtd:lcidtoname_downlevel.obj
 0002:000220c0       ??_C@_1M@LLODPCMM@?$AAe?$AAn?$AA?9?$AAu?$AAs@ 100aa0c0     libucrtd:lcidtoname_downlevel.obj
 0002:000220cc       ??_C@_1M@LAKFNPAN@?$AAe?$AAn?$AA?9?$AAz?$AAa@ 100aa0cc     libucrtd:lcidtoname_downlevel.obj
 0002:000220d8       ??_C@_1M@MFNHNHEO@?$AAe?$AAn?$AA?9?$AAz?$AAw@ 100aa0d8     libucrtd:lcidtoname_downlevel.obj
 0002:000220e4       ??_C@_1M@EJEINPHM@?$AAe?$AAs?$AA?9?$AAa?$AAr@ 100aa0e4     libucrtd:lcidtoname_downlevel.obj
 0002:000220f0       ??_C@_1M@GNKPCCJA@?$AAe?$AAs?$AA?9?$AAb?$AAo@ 100aa0f0     libucrtd:lcidtoname_downlevel.obj
 0002:000220fc       ??_C@_1M@LEEGFONL@?$AAe?$AAs?$AA?9?$AAc?$AAl@ 100aa0fc     libucrtd:lcidtoname_downlevel.obj
 0002:00022108       ??_C@_1M@KGPDPBDF@?$AAe?$AAs?$AA?9?$AAc?$AAo@ 100aa108     libucrtd:lcidtoname_downlevel.obj
 0002:00022114       ??_C@_1M@EIAHOHH@?$AAe?$AAs?$AA?9?$AAc?$AAr@ 100aa114     libucrtd:lcidtoname_downlevel.obj
 0002:00022120       ??_C@_1M@LLPGMBIN@?$AAe?$AAs?$AA?9?$AAd?$AAo@ 100aa120     libucrtd:lcidtoname_downlevel.obj
 0002:0002212c       ??_C@_1M@DKHMKNJA@?$AAe?$AAs?$AA?9?$AAe?$AAc@ 100aa12c     libucrtd:lcidtoname_downlevel.obj
 0002:00022138       ??_C@_1M@GKGFPKAP@?$AAe?$AAs?$AA?9?$AAe?$AAs@ 100aa138     libucrtd:lcidtoname_downlevel.obj
 0002:00022144       ??_C@_1M@LKHKGDLN@?$AAe?$AAs?$AA?9?$AAg?$AAt@ 100aa144     libucrtd:lcidtoname_downlevel.obj
 0002:00022150       ??_C@_1M@HEIIGGJD@?$AAe?$AAs?$AA?9?$AAh?$AAn@ 100aa150     libucrtd:lcidtoname_downlevel.obj
 0002:0002215c       ??_C@_1M@FBDHPPGD@?$AAe?$AAs?$AA?9?$AAm?$AAx@ 100aa15c     libucrtd:lcidtoname_downlevel.obj
 0002:00022168       ??_C@_1M@DPAGLNDH@?$AAe?$AAs?$AA?9?$AAn?$AAi@ 100aa168     libucrtd:lcidtoname_downlevel.obj
 0002:00022174       ??_C@_1M@MDGOPGDD@?$AAe?$AAs?$AA?9?$AAp?$AAa@ 100aa174     libucrtd:lcidtoname_downlevel.obj
 0002:00022180       ??_C@_1M@EMAMGBGE@?$AAe?$AAs?$AA?9?$AAp?$AAe@ 100aa180     libucrtd:lcidtoname_downlevel.obj
 0002:0002218c       ??_C@_1M@IBMCAOEC@?$AAe?$AAs?$AA?9?$AAp?$AAr@ 100aa18c     libucrtd:lcidtoname_downlevel.obj
 0002:00022198       ??_C@_1M@FGMDIJED@?$AAe?$AAs?$AA?9?$AAp?$AAy@ 100aa198     libucrtd:lcidtoname_downlevel.obj
 0002:000221a4       ??_C@_1M@IIDEOLLL@?$AAe?$AAs?$AA?9?$AAs?$AAv@ 100aa1a4     libucrtd:lcidtoname_downlevel.obj
 0002:000221b0       ??_C@_1M@GAOBIPA@?$AAe?$AAs?$AA?9?$AAu?$AAy@ 100aa1b0     libucrtd:lcidtoname_downlevel.obj
 0002:000221bc       ??_C@_1M@JKFFICHJ@?$AAe?$AAs?$AA?9?$AAv?$AAe@ 100aa1bc     libucrtd:lcidtoname_downlevel.obj
 0002:000221c8       ??_C@_1M@PNMLOJDF@?$AAe?$AAt?$AA?9?$AAe?$AAe@ 100aa1c8     libucrtd:lcidtoname_downlevel.obj
 0002:000221d4       ??_C@_1M@GHHLIKEI@?$AAe?$AAu?$AA?9?$AAe?$AAs@ 100aa1d4     libucrtd:lcidtoname_downlevel.obj
 0002:000221e0       ??_C@_1M@PBNONODE@?$AAf?$AAa?$AA?9?$AAi?$AAr@ 100aa1e0     libucrtd:lcidtoname_downlevel.obj
 0002:000221ec       ??_C@_1M@JEEHPMIL@?$AAf?$AAi?$AA?9?$AAf?$AAi@ 100aa1ec     libucrtd:lcidtoname_downlevel.obj
 0002:000221f8       ??_C@_1M@LMDCNDBA@?$AAf?$AAo?$AA?9?$AAf?$AAo@ 100aa1f8     libucrtd:lcidtoname_downlevel.obj
 0002:00022204       ??_C@_1M@JKEOHLDK@?$AAf?$AAr?$AA?9?$AAb?$AAe@ 100aa204     libucrtd:lcidtoname_downlevel.obj
 0002:00022210       ??_C@_1M@NOHADPMI@?$AAf?$AAr?$AA?9?$AAc?$AAa@ 100aa210     libucrtd:lcidtoname_downlevel.obj
 0002:0002221c       ??_C@_1M@KDHIHAEC@?$AAf?$AAr?$AA?9?$AAc?$AAh@ 100aa21c     libucrtd:lcidtoname_downlevel.obj
 0002:00022228       ??_C@_1M@MMBBFGAK@?$AAf?$AAr?$AA?9?$AAf?$AAr@ 100aa228     libucrtd:lcidtoname_downlevel.obj
 0002:00022234       ??_C@_1M@PAFNENNF@?$AAf?$AAr?$AA?9?$AAl?$AAu@ 100aa234     libucrtd:lcidtoname_downlevel.obj
 0002:00022240       ??_C@_1M@EOHDJGDD@?$AAf?$AAr?$AA?9?$AAm?$AAc@ 100aa240     libucrtd:lcidtoname_downlevel.obj
 0002:0002224c       ??_C@_1M@FAPLLOPF@?$AAg?$AAl?$AA?9?$AAe?$AAs@ 100aa24c     libucrtd:lcidtoname_downlevel.obj
 0002:00022258       ??_C@_1M@FOPBFLOO@?$AAg?$AAu?$AA?9?$AAi?$AAn@ 100aa258     libucrtd:lcidtoname_downlevel.obj
 0002:00022264       ??_C@_1M@KBMCINPM@?$AAh?$AAe?$AA?9?$AAi?$AAl@ 100aa264     libucrtd:lcidtoname_downlevel.obj
 0002:00022270       ??_C@_1M@BBPHKFPJ@?$AAh?$AAi?$AA?9?$AAi?$AAn@ 100aa270     libucrtd:lcidtoname_downlevel.obj
 0002:0002227c       ??_C@_1M@PMBNDPHD@?$AAh?$AAr?$AA?9?$AAb?$AAa@ 100aa27c     libucrtd:lcidtoname_downlevel.obj
 0002:00022288       ??_C@_1M@BPCKOEGE@?$AAh?$AAr?$AA?9?$AAh?$AAr@ 100aa288     libucrtd:lcidtoname_downlevel.obj
 0002:00022294       ??_C@_1M@GACBMHKE@?$AAh?$AAu?$AA?9?$AAh?$AAu@ 100aa294     libucrtd:lcidtoname_downlevel.obj
 0002:000222a0       ??_C@_1M@MILPAJJC@?$AAh?$AAy?$AA?9?$AAa?$AAm@ 100aa2a0     libucrtd:lcidtoname_downlevel.obj
 0002:000222ac       ??_C@_1M@BABBICEC@?$AAi?$AAd?$AA?9?$AAi?$AAd@ 100aa2ac     libucrtd:lcidtoname_downlevel.obj
 0002:000222b8       ??_C@_1M@BIKNHHPF@?$AAi?$AAs?$AA?9?$AAi?$AAs@ 100aa2b8     libucrtd:lcidtoname_downlevel.obj
 0002:000222c4       ??_C@_1M@NMPCJPHE@?$AAi?$AAt?$AA?9?$AAc?$AAh@ 100aa2c4     libucrtd:lcidtoname_downlevel.obj
 0002:000222d0       ??_C@_1M@GHKGFEDF@?$AAi?$AAt?$AA?9?$AAi?$AAt@ 100aa2d0     libucrtd:lcidtoname_downlevel.obj
 0002:000222dc       ??_C@_1M@NIEJCJJA@?$AAj?$AAa?$AA?9?$AAj?$AAp@ 100aa2dc     libucrtd:lcidtoname_downlevel.obj
 0002:000222e8       ??_C@_1M@JILFNBIM@?$AAk?$AAa?$AA?9?$AAg?$AAe@ 100aa2e8     libucrtd:lcidtoname_downlevel.obj
 0002:000222f4       ??_C@_1M@PACPMGPH@?$AAk?$AAk?$AA?9?$AAk?$AAz@ 100aa2f4     libucrtd:lcidtoname_downlevel.obj
 0002:00022300       ??_C@_1M@IELFGMHA@?$AAk?$AAn?$AA?9?$AAi?$AAn@ 100aa300     libucrtd:lcidtoname_downlevel.obj
 0002:0002230c       ??_C@_1O@IBBJHCH@?$AAk?$AAo?$AAk?$AA?9?$AAi?$AAn@ 100aa30c     libucrtd:lcidtoname_downlevel.obj
 0002:0002231c       ??_C@_1M@DMHAEOGC@?$AAk?$AAo?$AA?9?$AAk?$AAr@ 100aa31c     libucrtd:lcidtoname_downlevel.obj
 0002:00022328       ??_C@_1M@HBAHBIGA@?$AAk?$AAy?$AA?9?$AAk?$AAg@ 100aa328     libucrtd:lcidtoname_downlevel.obj
 0002:00022334       ??_C@_1M@KPMILCJG@?$AAl?$AAt?$AA?9?$AAl?$AAt@ 100aa334     libucrtd:lcidtoname_downlevel.obj
 0002:00022340       ??_C@_1M@BDEKKCA@?$AAl?$AAv?$AA?9?$AAl?$AAv@ 100aa340     libucrtd:lcidtoname_downlevel.obj
 0002:0002234c       ??_C@_1M@ELCKCCJJ@?$AAm?$AAi?$AA?9?$AAn?$AAz@ 100aa34c     libucrtd:lcidtoname_downlevel.obj
 0002:00022358       ??_C@_1M@CBOOLAPA@?$AAm?$AAk?$AA?9?$AAm?$AAk@ 100aa358     libucrtd:lcidtoname_downlevel.obj
 0002:00022364       ??_C@_1M@GPHNBJKN@?$AAm?$AAl?$AA?9?$AAi?$AAn@ 100aa364     libucrtd:lcidtoname_downlevel.obj
 0002:00022370       ??_C@_1M@PABJILIG@?$AAm?$AAn?$AA?9?$AAm?$AAn@ 100aa370     libucrtd:lcidtoname_downlevel.obj
 0002:0002237c       ??_C@_1M@FGBKKIPG@?$AAm?$AAr?$AA?9?$AAi?$AAn@ 100aa37c     libucrtd:lcidtoname_downlevel.obj
 0002:00022388       ??_C@_1M@NDBPDDAL@?$AAm?$AAs?$AA?9?$AAb?$AAn@ 100aa388     libucrtd:lcidtoname_downlevel.obj
 0002:00022394       ??_C@_1M@OPIHOOPI@?$AAm?$AAs?$AA?9?$AAm?$AAy@ 100aa394     libucrtd:lcidtoname_downlevel.obj
 0002:000223a0       ??_C@_1M@PPDBCNFM@?$AAm?$AAt?$AA?9?$AAm?$AAt@ 100aa3a0     libucrtd:lcidtoname_downlevel.obj
 0002:000223ac       ??_C@_1M@KDJDKMDD@?$AAn?$AAb?$AA?9?$AAn?$AAo@ 100aa3ac     libucrtd:lcidtoname_downlevel.obj
 0002:000223b8       ??_C@_1M@KFCFLMJP@?$AAn?$AAl?$AA?9?$AAb?$AAe@ 100aa3b8     libucrtd:lcidtoname_downlevel.obj
 0002:000223c4       ??_C@_1M@KPOPDDGO@?$AAn?$AAl?$AA?9?$AAn?$AAl@ 100aa3c4     libucrtd:lcidtoname_downlevel.obj
 0002:000223d0       ??_C@_1M@LJKPEMLN@?$AAn?$AAn?$AA?9?$AAn?$AAo@ 100aa3d0     libucrtd:lcidtoname_downlevel.obj
 0002:000223dc       ??_C@_1M@BDGHHBFL@?$AAn?$AAs?$AA?9?$AAz?$AAa@ 100aa3dc     libucrtd:lcidtoname_downlevel.obj
 0002:000223e8       ??_C@_1M@IDEHOAP@?$AAp?$AAa?$AA?9?$AAi?$AAn@ 100aa3e8     libucrtd:lcidtoname_downlevel.obj
 0002:000223f4       ??_C@_1M@HDBKGOGH@?$AAp?$AAl?$AA?9?$AAp?$AAl@ 100aa3f4     libucrtd:lcidtoname_downlevel.obj
 0002:00022400       ??_C@_1M@LJLLCMEH@?$AAp?$AAt?$AA?9?$AAb?$AAr@ 100aa400     libucrtd:lcidtoname_downlevel.obj
 0002:0002240c       ??_C@_1M@NCMONAAL@?$AAp?$AAt?$AA?9?$AAp?$AAt@ 100aa40c     libucrtd:lcidtoname_downlevel.obj
 0002:00022418       ??_C@_1O@EAKMAJDN@?$AAq?$AAu?$AAz?$AA?9?$AAb?$AAo@ 100aa418     libucrtd:lcidtoname_downlevel.obj
 0002:00022428       ??_C@_1O@BHHPIGDN@?$AAq?$AAu?$AAz?$AA?9?$AAe?$AAc@ 100aa428     libucrtd:lcidtoname_downlevel.obj
 0002:00022438       ??_C@_1O@GBAPEKMJ@?$AAq?$AAu?$AAz?$AA?9?$AAp?$AAe@ 100aa438     libucrtd:lcidtoname_downlevel.obj
 0002:00022448       ??_C@_1M@CLGLEFBO@?$AAr?$AAo?$AA?9?$AAr?$AAo@ 100aa448     libucrtd:lcidtoname_downlevel.obj
 0002:00022454       ??_C@_1M@CEEDODME@?$AAr?$AAu?$AA?9?$AAr?$AAu@ 100aa454     libucrtd:lcidtoname_downlevel.obj
 0002:00022460       ??_C@_1M@HPKKKMPP@?$AAs?$AAa?$AA?9?$AAi?$AAn@ 100aa460     libucrtd:lcidtoname_downlevel.obj
 0002:0002246c       ??_C@_1M@BKMAIGOJ@?$AAs?$AAe?$AA?9?$AAf?$AAi@ 100aa46c     libucrtd:lcidtoname_downlevel.obj
 0002:00022478       ??_C@_1M@NDPIFLFI@?$AAs?$AAe?$AA?9?$AAn?$AAo@ 100aa478     libucrtd:lcidtoname_downlevel.obj
 0002:00022484       ??_C@_1M@DANKKHJ@?$AAs?$AAe?$AA?9?$AAs?$AAe@ 100aa484     libucrtd:lcidtoname_downlevel.obj
 0002:00022490       ??_C@_1M@PNBLONPJ@?$AAs?$AAk?$AA?9?$AAs?$AAk@ 100aa490     libucrtd:lcidtoname_downlevel.obj
 0002:0002249c       ??_C@_1M@LFMODOAL@?$AAs?$AAl?$AA?9?$AAs?$AAi@ 100aa49c     libucrtd:lcidtoname_downlevel.obj
 0002:000224a8       ??_C@_1O@DFKOMPG@?$AAs?$AAm?$AAa?$AA?9?$AAn?$AAo@ 100aa4a8     libucrtd:lcidtoname_downlevel.obj
 0002:000224b8       ??_C@_1O@NDKPBNNH@?$AAs?$AAm?$AAa?$AA?9?$AAs?$AAe@ 100aa4b8     libucrtd:lcidtoname_downlevel.obj
 0002:000224c8       ??_C@_1O@PLLKBHAB@?$AAs?$AAm?$AAj?$AA?9?$AAn?$AAo@ 100aa4c8     libucrtd:lcidtoname_downlevel.obj
 0002:000224d8       ??_C@_1O@CLEPOGCA@?$AAs?$AAm?$AAj?$AA?9?$AAs?$AAe@ 100aa4d8     libucrtd:lcidtoname_downlevel.obj
 0002:000224e8       ??_C@_1O@DLGJGKMK@?$AAs?$AAm?$AAn?$AA?9?$AAf?$AAi@ 100aa4e8     libucrtd:lcidtoname_downlevel.obj
 0002:000224f8       ??_C@_1O@OJDJGAJC@?$AAs?$AAm?$AAs?$AA?9?$AAf?$AAi@ 100aa4f8     libucrtd:lcidtoname_downlevel.obj
 0002:00022508       ??_C@_1M@BOFOGHPB@?$AAs?$AAq?$AA?9?$AAa?$AAl@ 100aa508     libucrtd:lcidtoname_downlevel.obj
 0002:00022514       ??_C@_1BG@LJBBIPGB@?$AAs?$AAr?$AA?9?$AAb?$AAa?$AA?9?$AAc?$AAy?$AAr?$AAl@ 100aa514     libucrtd:lcidtoname_downlevel.obj
 0002:0002252c       ??_C@_1BG@JLBENFOE@?$AAs?$AAr?$AA?9?$AAb?$AAa?$AA?9?$AAl?$AAa?$AAt?$AAn@ 100aa52c     libucrtd:lcidtoname_downlevel.obj
 0002:00022544       ??_C@_1BG@KODPNHE@?$AAs?$AAr?$AA?9?$AAs?$AAp?$AA?9?$AAc?$AAy?$AAr?$AAl@ 100aa544     libucrtd:lcidtoname_downlevel.obj
 0002:0002255c       ??_C@_1BG@CIOGKHPB@?$AAs?$AAr?$AA?9?$AAs?$AAp?$AA?9?$AAl?$AAa?$AAt?$AAn@ 100aa55c     libucrtd:lcidtoname_downlevel.obj
 0002:00022574       ??_C@_1M@NGFJLMAC@?$AAs?$AAv?$AA?9?$AAf?$AAi@ 100aa574     libucrtd:lcidtoname_downlevel.obj
 0002:00022580       ??_C@_1M@MPJEJAJC@?$AAs?$AAv?$AA?9?$AAs?$AAe@ 100aa580     libucrtd:lcidtoname_downlevel.obj
 0002:0002258c       ??_C@_1M@MPNDHLFK@?$AAs?$AAw?$AA?9?$AAk?$AAe@ 100aa58c     libucrtd:lcidtoname_downlevel.obj
 0002:00022598       ??_C@_1O@KOHBJJI@?$AAs?$AAy?$AAr?$AA?9?$AAs?$AAy@ 100aa598     libucrtd:lcidtoname_downlevel.obj
 0002:000225a8       ??_C@_1M@LDCEFHA@?$AAt?$AAa?$AA?9?$AAi?$AAn@ 100aa5a8     libucrtd:lcidtoname_downlevel.obj
 0002:000225b4       ??_C@_1M@CNJOFAK@?$AAt?$AAe?$AA?9?$AAi?$AAn@ 100aa5b4     libucrtd:lcidtoname_downlevel.obj
 0002:000225c0       ??_C@_1M@GNAECACD@?$AAt?$AAh?$AA?9?$AAt?$AAh@ 100aa5c0     libucrtd:lcidtoname_downlevel.obj
 0002:000225cc       ??_C@_1M@CHBIHOJO@?$AAt?$AAn?$AA?9?$AAz?$AAa@ 100aa5cc     libucrtd:lcidtoname_downlevel.obj
 0002:000225d8       ??_C@_1M@GCCMIGPJ@?$AAt?$AAr?$AA?9?$AAt?$AAr@ 100aa5d8     libucrtd:lcidtoname_downlevel.obj
 0002:000225e4       ??_C@_1M@CELMCNBK@?$AAt?$AAt?$AA?9?$AAr?$AAu@ 100aa5e4     libucrtd:lcidtoname_downlevel.obj
 0002:000225f0       ??_C@_1M@KLMCELGA@?$AAu?$AAk?$AA?9?$AAu?$AAa@ 100aa5f0     libucrtd:lcidtoname_downlevel.obj
 0002:000225fc       ??_C@_1M@EPAJJAJF@?$AAu?$AAr?$AA?9?$AAp?$AAk@ 100aa5fc     libucrtd:lcidtoname_downlevel.obj
 0002:00022608       ??_C@_1BG@GEGPMCDJ@?$AAu?$AAz?$AA?9?$AAu?$AAz?$AA?9?$AAc?$AAy?$AAr?$AAl@ 100aa608     libucrtd:lcidtoname_downlevel.obj
 0002:00022620       ??_C@_1BG@EGGKJILM@?$AAu?$AAz?$AA?9?$AAu?$AAz?$AA?9?$AAl?$AAa?$AAt?$AAn@ 100aa620     libucrtd:lcidtoname_downlevel.obj
 0002:00022638       ??_C@_1M@GFOCLFF@?$AAv?$AAi?$AA?9?$AAv?$AAn@ 100aa638     libucrtd:lcidtoname_downlevel.obj
 0002:00022644       ??_C@_1M@CPAMEDFI@?$AAx?$AAh?$AA?9?$AAz?$AAa@ 100aa644     libucrtd:lcidtoname_downlevel.obj
 0002:00022650       ??_C@_1O@EBKIFIGN@?$AAz?$AAh?$AA?9?$AAc?$AAh?$AAs@ 100aa650     libucrtd:lcidtoname_downlevel.obj
 0002:00022660       ??_C@_1O@NMHPGANE@?$AAz?$AAh?$AA?9?$AAc?$AAh?$AAt@ 100aa660     libucrtd:lcidtoname_downlevel.obj
 0002:00022670       ??_C@_1M@LPINJOMC@?$AAz?$AAh?$AA?9?$AAc?$AAn@ 100aa670     libucrtd:lcidtoname_downlevel.obj
 0002:0002267c       ??_C@_1M@OCJEJODD@?$AAz?$AAh?$AA?9?$AAh?$AAk@ 100aa67c     libucrtd:lcidtoname_downlevel.obj
 0002:00022688       ??_C@_1M@DNDLJINH@?$AAz?$AAh?$AA?9?$AAm?$AAo@ 100aa688     libucrtd:lcidtoname_downlevel.obj
 0002:00022694       ??_C@_1M@MBFDNDND@?$AAz?$AAh?$AA?9?$AAs?$AAg@ 100aa694     libucrtd:lcidtoname_downlevel.obj
 0002:000226a0       ??_C@_1M@IMEPLEPE@?$AAz?$AAh?$AA?9?$AAt?$AAw@ 100aa6a0     libucrtd:lcidtoname_downlevel.obj
 0002:000226ac       ??_C@_1M@BBGHNHJP@?$AAz?$AAu?$AA?9?$AAz?$AAa@ 100aa6ac     libucrtd:lcidtoname_downlevel.obj
 0002:000226b8       ??_C@_1HO@KHHMOCBO@?$AAm?$AAi?$AAn?$AAk?$AAe?$AAr?$AAn?$AAe?$AAl?$AA?2?$AAc?$AAr?$AAt?$AAs?$AA?2@ 100aa6b8     libucrtd:lcidtoname_downlevel.obj
 0002:00022738       ??_C@_1EC@MDFDCHIL@?$AA_?$AA_?$AAa?$AAc?$AAr?$AAt?$AA_?$AAD?$AAo?$AAw?$AAn?$AAl?$AAe?$AAv?$AAe@ 100aa738     libucrtd:lcidtoname_downlevel.obj
 0002:00022780       ??_C@_1FO@LFACCMJH@?$AAw?$AAc?$AAs?$AAc?$AAp?$AAy?$AA_?$AAs?$AA?$CI?$AAo?$AAu?$AAt?$AAL?$AAo?$AAc@ 100aa780     libucrtd:lcidtoname_downlevel.obj
 0002:000227e0       ??_C@_1DE@BCNCAIK@?$AA?$CI?$AA?$CC?$AAI?$AAn?$AAv?$AAa?$AAl?$AAi?$AAd?$AA?5?$AAe?$AAr?$AAr?$AAo?$AAr@ 100aa7e0     libucrtd:set_error_mode.obj
 0002:00022818       ??_C@_1GO@EBFPMMIJ@?$AAm?$AAi?$AAn?$AAk?$AAe?$AAr?$AAn?$AAe?$AAl?$AA?2?$AAc?$AAr?$AAt?$AAs?$AA?2@ 100aa818     libucrtd:set_error_mode.obj
 0002:00022888       ??_C@_1CA@LFDHAMEM@?$AA_?$AAs?$AAe?$AAt?$AA_?$AAe?$AAr?$AAr?$AAo?$AAr?$AA_?$AAm?$AAo?$AAd?$AAe@ 100aa888     libucrtd:set_error_mode.obj
 0002:000228a8       ??_C@_1GA@KCKCPAEB@?$AAd?$AAe?$AAs?$AAt?$AAi?$AAn?$AAa?$AAt?$AAi?$AAo?$AAn?$AA?5?$AA?$CB?$AA?$DN?$AA?5@ 100aa8a8     libucrtd:wcrtomb.obj
 0002:00022908       ??_C@_1GG@IOHNAMEK@?$AAm?$AAi?$AAn?$AAk?$AAe?$AAr?$AAn?$AAe?$AAl?$AA?2?$AAc?$AAr?$AAt?$AAs?$AA?2@ 100aa908     libucrtd:wcrtomb.obj
 0002:00022970       ??_C@_1BLI@DMHDAJEI@?$AAl?$AAo?$AAc?$AAa?$AAl?$AAe?$AA_?$AAu?$AAp?$AAd?$AAa?$AAt?$AAe?$AA?4?$AAG@ 100aa970     libucrtd:wcrtomb.obj
 0002:00022b28       ??_C@_1JO@PEAMJHLL@?$AA?$CI?$AAd?$AAe?$AAs?$AAt?$AAi?$AAn?$AAa?$AAt?$AAi?$AAo?$AAn?$AA?5?$AA?$DN?$AA?$DN@ 100aab28     libucrtd:wcrtomb.obj
 0002:00022bc8       ??_C@_1BE@BAKHEIOA@?$AAw?$AAc?$AAr?$AAt?$AAo?$AAm?$AAb?$AA_?$AAs@ 100aabc8     libucrtd:wcrtomb.obj
 0002:00022bdc       ??_C@_1CE@HMDIBIP@?$AAs?$AAo?$AAu?$AAr?$AAc?$AAe?$AA?5?$AA?$CB?$AA?$DN?$AA?5?$AAn?$AAu?$AAl?$AAl?$AAp@ 100aabdc     libucrtd:wcrtomb.obj
 0002:00022c00       ??_C@_1CG@BMBAINBL@?$AAi?$AAn?$AAt?$AAe?$AAr?$AAn?$AAa?$AAl?$AA_?$AAw?$AAc?$AAs?$AAr?$AAt?$AAo@ 100aac00     libucrtd:wcrtomb.obj
 0002:00022c28       ??_C@_1NA@NLPIAHDO@?$AA?$CI?$AAd?$AAe?$AAs?$AAt?$AAi?$AAn?$AAa?$AAt?$AAi?$AAo?$AAn?$AA?5?$AA?$DN?$AA?$DN@ 100aac28     libucrtd:wcrtomb.obj
 0002:00022cf8       ??_C@_1BI@JEFNCOO@?$AAw?$AAc?$AAs?$AAr?$AAt?$AAo?$AAm?$AAb?$AAs?$AA_?$AAs@ 100aacf8     libucrtd:wcrtomb.obj
 0002:00022d10       ??_C@_1DK@PNOJMGLM@?$AAr?$AAe?$AAt?$AAs?$AAi?$AAz?$AAe?$AA?5?$AA?$DM?$AA?$DN?$AA?5?$AAd?$AAe?$AAs?$AAt@ 100aad10     libucrtd:wcrtomb.obj
 0002:00022d4c       ??_C@_0DJ@JBBOOIAE@minkernel?2crts?2ucrt?2src?2appcrt?2@ 100aad4c     libucrtd:getlocaleinfoa.obj
 0002:00022d88       ??_C@_1HC@KAIIOBKJ@?$AAm?$AAi?$AAn?$AAk?$AAe?$AAr?$AAn?$AAe?$AAl?$AA?2?$AAc?$AAr?$AAt?$AAs?$AA?2@ 100aad88     libucrtd:getlocaleinfoa.obj
 0002:00022dfc       ??_C@_1CM@LGLMFNOK@?$AA_?$AA_?$AAa?$AAc?$AAr?$AAt?$AA_?$AAG?$AAe?$AAt?$AAL?$AAo?$AAc?$AAa?$AAl@ 100aadfc     libucrtd:getlocaleinfoa.obj
 0002:00022e28       ??_C@_1IM@HJPPDDKJ@?$AAs?$AAt?$AAr?$AAn?$AAc?$AAp?$AAy?$AA_?$AAs?$AA?$CI?$AA?$CK?$AAc?$AAh?$AAa?$AAr@ 100aae28     libucrtd:getlocaleinfoa.obj
 0002:00022f08       ??_C@_1DG@JNDMIEJL@?$AA?$CI?$AA?$CC?$AAI?$AAn?$AAv?$AAa?$AAl?$AAi?$AAd?$AA?5?$AAi?$AAn?$AAp?$AAu?$AAt@ 100aaf08     libucrtd:contrlfp.obj
 0002:00022f40       ??_C@_1FO@HHLKCIKB@?$AAm?$AAi?$AAn?$AAk?$AAe?$AAr?$AAn?$AAe?$AAl?$AA?2?$AAc?$AAr?$AAt?$AAs?$AA?2@ 100aaf40     libucrtd:contrlfp.obj
 0002:00022fa0       ??_C@_1BK@CDOALEA@?$AA_?$AAc?$AAo?$AAn?$AAt?$AAr?$AAo?$AAl?$AAf?$AAp?$AA_?$AAs@ 100aafa0     libucrtd:contrlfp.obj
 0002:00022fc0       ??_C@_1FO@CAMPMGCN@?$AAm?$AAi?$AAn?$AAk?$AAe?$AAr?$AAn?$AAe?$AAl?$AA?2?$AAc?$AAr?$AAt?$AAs?$AA?2@ 100aafc0     libucrtd:write.obj
 0002:00023020       ??_C@_1O@KOFKDHPL@?$AA_?$AAw?$AAr?$AAi?$AAt?$AAe@ 100ab020     libucrtd:write.obj
 0002:00023030       ??_C@_1CM@OKGMMMDH@?$AA?$CI?$AA_?$AAo?$AAs?$AAf?$AAi?$AAl?$AAe?$AA?$CI?$AAf?$AAh?$AA?$CJ?$AA?5?$AA?$CG?$AA?5@ 100ab030     libucrtd:write.obj
 0002:00023060       ??_C@_1JE@ECKHFIFP@?$AA?$CI?$AA?$CC?$AAI?$AAn?$AAv?$AAa?$AAl?$AAi?$AAd?$AA?5?$AAf?$AAi?$AAl?$AAe?$AA?5@ 100ab060     libucrtd:write.obj
 0002:000230f4       ??_C@_1CK@MMEFCHHN@?$AA?$CB?$AA_?$AAd?$AAb?$AAc?$AAs?$AAB?$AAu?$AAf?$AAf?$AAe?$AAr?$AAU?$AAs?$AAe@ 100ab0f4     libucrtd:write.obj
 0002:00023120       ??_C@_1EG@LICJGLJJ@?$AA1?$AA?5?$AA?$DM?$AA?5?$AAm?$AAb?$AA_?$AAl?$AAe?$AAn?$AA?5?$AA?$CG?$AA?$CG?$AA?5?$AAm@ 100ab120     libucrtd:write.obj
 0002:00023168       ??_C@_1FC@NFILPJB@?$AAm?$AAb?$AA_?$AAb?$AAu?$AAf?$AA_?$AAu?$AAs?$AAe?$AAd?$AA?5?$AA?$CL?$AA?5?$AAb@ 100ab168     libucrtd:write.obj
 0002:000231c0       ??_C@_1FC@HEJOPHLA@?$AAa?$AAv?$AAa?$AAi?$AAl?$AAa?$AAb?$AAl?$AAe?$AA_?$AAb?$AAy?$AAt?$AAe?$AAs@ 100ab1c0     libucrtd:write.obj
 0002:00023214       ??_C@_1DI@CNMHHHLG@?$AAi?$AAs?$AAl?$AAe?$AAa?$AAd?$AAb?$AAy?$AAt?$AAe?$AA?$CI?$AA_?$AAd?$AAb?$AAc@ 100ab214     libucrtd:write.obj
 0002:0002324c       ??_C@_1BM@NCANHCIP@?$AA_?$AAw?$AAr?$AAi?$AAt?$AAe?$AA_?$AAn?$AAo?$AAl?$AAo?$AAc?$AAk@ 100ab24c     libucrtd:write.obj
 0002:00023268       ??_C@_1CK@CPEAGIIP@?$AAb?$AAu?$AAf?$AAf?$AAe?$AAr?$AA_?$AAs?$AAi?$AAz?$AAe?$AA?5?$AA?$CF?$AA?5?$AA2@ 100ab268     libucrtd:write.obj
 0002:00023298       ??_C@_1FO@KIIHJNFN@?$AAm?$AAi?$AAn?$AAk?$AAe?$AAr?$AAn?$AAe?$AAl?$AA?2?$AAc?$AAr?$AAt?$AAs?$AA?2@ 100ab298     libucrtd:lseek.obj
 0002:000232f8       ??_C@_1BK@JOMBNFIM@?$AAc?$AAo?$AAm?$AAm?$AAo?$AAn?$AA_?$AAl?$AAs?$AAe?$AAe?$AAk@ 100ab2f8     libucrtd:lseek.obj
 0002:00023314       ??_C@_1DM@LMLOLGJ@?$AA?$CI?$AA?$CC?$AAI?$AAn?$AAv?$AAa?$AAl?$AAi?$AAd?$AA?5?$AAf?$AAi?$AAl?$AAe?$AA?5@ 100ab314     libucrtd:lseek.obj
 0002:00023350       ??_C@_1GC@DLDMJFMI@?$AAm?$AAi?$AAn?$AAk?$AAe?$AAr?$AAn?$AAe?$AAl?$AA?2?$AAc?$AAr?$AAt?$AAs?$AA?2@ 100ab350     libucrtd:_getbuf.obj
 0002:000233b4       ??_C@_0DB@LKJPMJPL@minkernel?2crts?2ucrt?2src?2appcrt?2@ 100ab3b4     libucrtd:_getbuf.obj
 0002:000233e8       ??_C@_1GA@DKNOMDCL@?$AAm?$AAi?$AAn?$AAk?$AAe?$AAr?$AAn?$AAe?$AAl?$AA?2?$AAc?$AAr?$AAt?$AAs?$AA?2@ 100ab3e8     libucrtd:fclose.obj
 0002:00023448       ??_C@_1O@EGMJNCOI@?$AAf?$AAc?$AAl?$AAo?$AAs?$AAe@ 100ab448     libucrtd:fclose.obj
 0002:00023458       ??_C@_1BO@JINCABEC@?$AA_?$AAf?$AAc?$AAl?$AAo?$AAs?$AAe?$AA_?$AAn?$AAo?$AAl?$AAo?$AAc?$AAk@ 100ab458     libucrtd:fclose.obj
 0002:00023478       ??_C@_1GA@MPOOLHCO@?$AAm?$AAi?$AAn?$AAk?$AAe?$AAr?$AAn?$AAe?$AAl?$AA?2?$AAc?$AAr?$AAt?$AAs?$AA?2@ 100ab478     libucrtd:commit.obj
 0002:000234d8       ??_C@_1BA@FLNMBBIM@?$AA_?$AAc?$AAo?$AAm?$AAm?$AAi?$AAt@ 100ab4d8     libucrtd:commit.obj
 0002:000234e8       ??_C@_1BO@JGGHCINF@?$AAl?$AAh?$AAs?$AA?5?$AA?$CB?$AA?$DN?$AA?5?$AAn?$AAu?$AAl?$AAl?$AAp?$AAt?$AAr@ 100ab4e8     libucrtd:wcsicmp.obj
 0002:00023508       ??_C@_1GE@FNNJGCGI@?$AAm?$AAi?$AAn?$AAk?$AAe?$AAr?$AAn?$AAe?$AAl?$AA?2?$AAc?$AAr?$AAt?$AAs?$AA?2@ 100ab508     libucrtd:wcsicmp.obj
 0002:0002356c       ??_C@_1BG@EELGPCPD@?$AA_?$AAw?$AAc?$AAs?$AAi?$AAc?$AAm?$AAp?$AA_?$AAl@ 100ab56c     libucrtd:wcsicmp.obj
 0002:00023584       ??_C@_1BO@FHLPEAOG@?$AAr?$AAh?$AAs?$AA?5?$AA?$CB?$AA?$DN?$AA?5?$AAn?$AAu?$AAl?$AAl?$AAp?$AAt?$AAr@ 100ab584     libucrtd:wcsicmp.obj
 0002:000235a4       ??_C@_1BC@NHIBDOMC@?$AA_?$AAw?$AAc?$AAs?$AAi?$AAc?$AAm?$AAp@ 100ab5a4     libucrtd:wcsicmp.obj
 0002:000235b8       ??_C@_1GG@CLJGPGNE@?$AAm?$AAi?$AAn?$AAk?$AAe?$AAr?$AAn?$AAe?$AAl?$AA?2?$AAc?$AAr?$AAt?$AAs?$AA?2@ 100ab5b8     libucrtd:wcsnicmp.obj
 0002:00023620       ??_C@_1BI@KLMFNDBC@?$AA_?$AAw?$AAc?$AAs?$AAn?$AAi?$AAc?$AAm?$AAp?$AA_?$AAl@ 100ab620     libucrtd:wcsnicmp.obj
 0002:00023638       ??_C@_1BE@JKOKKFEL@?$AA_?$AAw?$AAc?$AAs?$AAn?$AAi?$AAc?$AAm?$AAp@ 100ab638     libucrtd:wcsnicmp.obj
 0002:00023650       ??_C@_1GG@FIFJEMIA@?$AAm?$AAi?$AAn?$AAk?$AAe?$AAr?$AAn?$AAe?$AAl?$AA?2?$AAc?$AAr?$AAt?$AAs?$AA?2@ 100ab650     libucrtd:strnicmp.obj
 0002:000236b8       ??_C@_1BI@BJLEPLEF@?$AA_?$AAs?$AAt?$AAr?$AAn?$AAi?$AAc?$AAm?$AAp?$AA_?$AAl@ 100ab6b8     libucrtd:strnicmp.obj
 0002:000236d0       ??_C@_1BE@BHJDFFNA@?$AA_?$AAs?$AAt?$AAr?$AAn?$AAi?$AAc?$AAm?$AAp@ 100ab6d0     libucrtd:strnicmp.obj
 0002:000236e8       ??_C@_1HK@ELDMAMK@?$AAc?$AAc?$AAh?$AAC?$AAo?$AAu?$AAn?$AAt?$AA1?$AA?$DN?$AA?$DN?$AA0?$AA?5?$AA?$CG?$AA?$CG@ 100ab6e8     libucrtd:comparestringa.obj
 0002:00023768       ??_C@_1HC@NLKDIKED@?$AAm?$AAi?$AAn?$AAk?$AAe?$AAr?$AAn?$AAe?$AAl?$AA?2?$AAc?$AAr?$AAt?$AAs?$AA?2@ 100ab768     libucrtd:comparestringa.obj
 0002:000237dc       ??_C@_0DJ@MBLHFEOE@minkernel?2crts?2ucrt?2src?2appcrt?2@ 100ab7dc     libucrtd:comparestringa.obj
 0002:00023998       ??_C@_03MGHMBJCF@log@      100ab998     libucrtd:libm_error.obj
 0002:0002399c       ??_C@_05HGHHAHAP@log10@    100ab99c     libucrtd:libm_error.obj
 0002:000239a4       ??_C@_03KHJOGHMM@exp@      100ab9a4     libucrtd:libm_error.obj
 0002:000239a8       ??_C@_03JGHBODFD@pow@      100ab9a8     libucrtd:libm_error.obj
 0002:000239ac       ??_C@_04FIHNOPOL@asin@     100ab9ac     libucrtd:libm_error.obj
 0002:000239b4       ??_C@_04PDIFKINK@acos@     100ab9b4     libucrtd:libm_error.obj
 0002:000239bc       ??_C@_04EIAKFFMI@sqrt@     100ab9bc     libucrtd:libm_error.obj
 0002:000239c8       __real@3ff0000000000000    100ab9c8     libucrtd:libm_error.obj
 0002:000239d8       ??_C@_1GE@KFPKEKCH@?$AAm?$AAi?$AAn?$AAk?$AAe?$AAr?$AAn?$AAe?$AAl?$AA?2?$AAc?$AAr?$AAt?$AAs?$AA?2@ 100ab9d8     libucrtd:ieee87.obj
 0002:00023a3c       ??_C@_1BO@OFDNCLL@?$AA_?$AAs?$AAe?$AAt?$AA_?$AAc?$AAo?$AAn?$AAt?$AAr?$AAo?$AAl?$AAf?$AAp@ 100aba3c     libucrtd:ieee87.obj
 0002:00023a60       ??_C@_1GO@OKJGOMCB@?$AA_?$AAc?$AAo?$AAn?$AAt?$AAr?$AAo?$AAl?$AAf?$AAp?$AA_?$AAs?$AA?$CI?$AA?$CI?$AA?$CI@ 100aba60     libucrtd:ieee87.obj
 0002:00023ad0       ??_C@_1FM@PHKGHLIO@?$AAm?$AAi?$AAn?$AAk?$AAe?$AAr?$AAn?$AAe?$AAl?$AA?2?$AAc?$AAr?$AAt?$AAs?$AA?2@ 100abad0     libucrtd:read.obj
 0002:00023b2c       ??_C@_1M@NHJOLLDM@?$AA_?$AAr?$AAe?$AAa?$AAd@ 100abb2c     libucrtd:read.obj
 0002:00023b38       ??_C@_1CO@OPEPDLLF@?$AAb?$AAu?$AAf?$AAf?$AAe?$AAr?$AA_?$AAs?$AAi?$AAz?$AAe?$AA?5?$AA?$DM?$AA?$DN?$AA?5@ 100abb38     libucrtd:read.obj
 0002:00023b68       ??_C@_1BK@JJBHNDKJ@?$AA_?$AAr?$AAe?$AAa?$AAd?$AA_?$AAn?$AAo?$AAl?$AAo?$AAc?$AAk@ 100abb68     libucrtd:read.obj
 0002:00023b84       ??_C@_1DM@JEAHBMKI@?$AAr?$AAe?$AAs?$AAu?$AAl?$AAt?$AA_?$AAb?$AAu?$AAf?$AAf?$AAe?$AAr?$AA_?$AAs@ 100abb84     libucrtd:read.obj
 0002:00023bc0       ??_C@_1DI@CDGOMPDO@?$AAr?$AAe?$AAs?$AAu?$AAl?$AAt?$AA_?$AAb?$AAu?$AAf?$AAf?$AAe?$AAr?$AA_?$AAs@ 100abbc0     libucrtd:read.obj
 0002:00023bf8       ??_C@_0CO@JFNFJHLC@minkernel?2crts?2ucrt?2src?2appcrt?2@ 100abbf8     libucrtd:read.obj
 0002:00023c28       ??_C@_1DM@HGBOAKPP@?$AA?$CI?$AAr?$AAe?$AAs?$AAu?$AAl?$AAt?$AA_?$AAb?$AAu?$AAf?$AAf?$AAe?$AAr?$AA_@ 100abc28     libucrtd:read.obj
 0002:00023c68       ??_C@_1FO@IPDGALOE@?$AAm?$AAi?$AAn?$AAk?$AAe?$AAr?$AAn?$AAe?$AAl?$AA?2?$AAc?$AAr?$AAt?$AAs?$AA?2@ 100abc68     libucrtd:close.obj
 0002:00023cc8       ??_C@_1O@EDEJGJBM@?$AA_?$AAc?$AAl?$AAo?$AAs?$AAe@ 100abcc8     libucrtd:close.obj
 0002:00023cd8       ??_C@_0DA@OGKFKCBE@minkernel?2crts?2ucrt?2src?2appcrt?2@ 100abcd8     libucrtd:stream.obj
 0002:00023d10       __infinity                 100abd10     libucrtd:87tran.obj
 0002:00023d1a       __minfinity                100abd1a     libucrtd:87tran.obj
 0002:00023d24       __logemax                  100abd24     libucrtd:87tran.obj
 0002:00023d4a       __OP_EXPjmptab             100abd4a     libucrtd:87tran.obj
 0002:00023d70       __indefinite               100abd70     libucrtd:87disp.obj
 0002:00023d7a       __piby2                    100abd7a     libucrtd:87disp.obj
 0002:00023d84       __piby4                    100abd84     libucrtd:87disp.obj
 0002:00023db8       __DEFAULT_CW_in_mem        100abdb8     libucrtd:common.obj
 0002:00023dba       __pi_by_2_to_61            100abdba     libucrtd:common.obj
 0002:00023e00       ___acrt_log10_table_t      100abe00     libucrtd:log10_tables.obj
 0002:00024210       ___acrt_log10_table_cb     100ac210     libucrtd:log10_tables.obj
 0002:00024708       ??_C@_04COOMCNPB@sinh@     100ac708     libucrtd:fpexcept.obj
 0002:00024710       ??_C@_04HPJJNFIM@cosh@     100ac710     libucrtd:fpexcept.obj
 0002:00024718       ??_C@_04FJHINJAO@tanh@     100ac718     libucrtd:fpexcept.obj
 0002:00024720       ??_C@_04MLLJIGOK@atan@     100ac720     libucrtd:fpexcept.obj
 0002:00024728       ??_C@_05KNGEOGJB@atan2@    100ac728     libucrtd:fpexcept.obj
 0002:00024730       ??_C@_03BLEJJJBH@sin@      100ac730     libucrtd:fpexcept.obj
 0002:00024734       ??_C@_03LALBNOCG@cos@      100ac734     libucrtd:fpexcept.obj
 0002:00024738       ??_C@_03IIINPABG@tan@      100ac738     libucrtd:fpexcept.obj
 0002:0002473c       ??_C@_04GFPJNGEK@ceil@     100ac73c     libucrtd:fpexcept.obj
 0002:00024744       ??_C@_05PBJFFIGL@floor@    100ac744     libucrtd:fpexcept.obj
 0002:0002474c       ??_C@_04ODHECPBC@fabs@     100ac74c     libucrtd:fpexcept.obj
 0002:00024754       ??_C@_04EHEDPDJG@modf@     100ac754     libucrtd:fpexcept.obj
 0002:0002475c       ??_C@_05CEJMAHNP@ldexp@    100ac75c     libucrtd:fpexcept.obj
 0002:00024764       ??_C@_05KBKMEMPO@_cabs@    100ac764     libucrtd:fpexcept.obj
 0002:0002476c       ??_C@_06MEIMCGCF@_hypot@   100ac76c     libucrtd:fpexcept.obj
 0002:00024774       ??_C@_04KEPJIHGP@fmod@     100ac774     libucrtd:fpexcept.obj
 0002:0002477c       ??_C@_05GKKHEGJL@frexp@    100ac77c     libucrtd:fpexcept.obj
 0002:00024784       ??_C@_03MJLDFKDL@_y0@      100ac784     libucrtd:fpexcept.obj
 0002:00024788       ??_C@_03NAKIGLHK@_y1@      100ac788     libucrtd:fpexcept.obj
 0002:0002478c       ??_C@_03ONILCKOB@_yn@      100ac78c     libucrtd:fpexcept.obj
 0002:00024790       ??_C@_05JGDBENOH@_logb@    100ac790     libucrtd:fpexcept.obj
 0002:00024798       ??_C@_0L@KDOEJCKC@_nextafter@ 100ac798     libucrtd:fpexcept.obj
 0002:000247a8       __real@0000000000000000    100ac7a8     libucrtd:fpexcept.obj
 0002:000247b0       __d_inf                    100ac7b0     libucrtd:util.obj
 0002:000247b8       __d_ind                    100ac7b8     libucrtd:util.obj
 0002:000247c0       __d_max                    100ac7c0     libucrtd:util.obj
 0002:000247c8       __d_min                    100ac7c8     libucrtd:util.obj
 0002:000247d0       __d_mzero                  100ac7d0     libucrtd:util.obj
 0002:000247f0       ??_C@_1BA@BALFACEM@?$AAC?$AAO?$AAN?$AAO?$AAU?$AAT?$AA$@ 100ac7f0     libucrtd:initcon.obj
 0002:00024800       __real@4000000000000000    100ac800     libucrtd:powhlp.obj
 0002:00024808       __real@00000000            100ac808     libucrtd:ieeemisc.obj
 0002:000248d0       __load_config_used         100ac8d0     LIBCMTD:loadcfg.obj
 0002:000249c0       ___CastGuardVftablesStart  100ac9c0     LIBCMTD:guard_support.obj
 0002:000249c4       ___CastGuardVftablesEnd    100ac9c4     LIBCMTD:guard_support.obj
 0002:000249c8       ??_R4exception@std@@6B@    100ac9c8     LIBCMTD:throw_bad_alloc.obj
 0002:000249dc       ??_R3exception@std@@8      100ac9dc     LIBCMTD:throw_bad_alloc.obj
 0002:000249ec       ??_R2exception@std@@8      100ac9ec     LIBCMTD:throw_bad_alloc.obj
 0002:000249f4       ??_R1A@?0A@EA@exception@std@@8 100ac9f4     LIBCMTD:throw_bad_alloc.obj
 0002:00024a10       ??_R4bad_alloc@std@@6B@    100aca10     LIBCMTD:throw_bad_alloc.obj
 0002:00024a24       ??_R3bad_alloc@std@@8      100aca24     LIBCMTD:throw_bad_alloc.obj
 0002:00024a34       ??_R2bad_alloc@std@@8      100aca34     LIBCMTD:throw_bad_alloc.obj
 0002:00024a40       ??_R1A@?0A@EA@bad_alloc@std@@8 100aca40     LIBCMTD:throw_bad_alloc.obj
 0002:00024a5c       ??_R4bad_array_new_length@std@@6B@ 100aca5c     LIBCMTD:throw_bad_alloc.obj
 0002:00024a70       ??_R3bad_array_new_length@std@@8 100aca70     LIBCMTD:throw_bad_alloc.obj
 0002:00024a80       ??_R2bad_array_new_length@std@@8 100aca80     LIBCMTD:throw_bad_alloc.obj
 0002:00024a90       ??_R1A@?0A@EA@bad_array_new_length@std@@8 100aca90     LIBCMTD:throw_bad_alloc.obj
 0002:00024aac       ??_R4type_info@@6B@        100acaac     LIBCMTD:std_type_info_static.obj
 0002:00024ac0       ??_R3type_info@@8          100acac0     LIBCMTD:std_type_info_static.obj
 0002:00024ad0       ??_R2type_info@@8          100acad0     LIBCMTD:std_type_info_static.obj
 0002:00024ad8       ??_R1A@?0A@EA@type_info@@8 100acad8     LIBCMTD:std_type_info_static.obj
 0002:00024af4       ??_R4bad_exception@std@@6B@ 100acaf4     libvcruntimed:frame.obj
 0002:00024b08       ??_R3bad_exception@std@@8  100acb08     libvcruntimed:frame.obj
 0002:00024b18       ??_R2bad_exception@std@@8  100acb18     libvcruntimed:frame.obj
 0002:00024b24       ??_R1A@?0A@EA@bad_exception@std@@8 100acb24     libvcruntimed:frame.obj
 0002:00024b40       ??_R4DNameNode@@6B@        100acb40     libvcruntimed:undname.obj
 0002:00024b54       ??_R3DNameNode@@8          100acb54     libvcruntimed:undname.obj
 0002:00024b64       ??_R2DNameNode@@8          100acb64     libvcruntimed:undname.obj
 0002:00024b6c       ??_R1A@?0A@EA@DNameNode@@8 100acb6c     libvcruntimed:undname.obj
 0002:00024b88       ??_R4charNode@@6B@         100acb88     libvcruntimed:undname.obj
 0002:00024b9c       ??_R3charNode@@8           100acb9c     libvcruntimed:undname.obj
 0002:00024bac       ??_R2charNode@@8           100acbac     libvcruntimed:undname.obj
 0002:00024bb8       ??_R1A@?0A@EA@charNode@@8  100acbb8     libvcruntimed:undname.obj
 0002:00024bd4       ??_R4pcharNode@@6B@        100acbd4     libvcruntimed:undname.obj
 0002:00024be8       ??_R3pcharNode@@8          100acbe8     libvcruntimed:undname.obj
 0002:00024bf8       ??_R2pcharNode@@8          100acbf8     libvcruntimed:undname.obj
 0002:00024c04       ??_R1A@?0A@EA@pcharNode@@8 100acc04     libvcruntimed:undname.obj
 0002:00024c20       ??_R4pDNameNode@@6B@       100acc20     libvcruntimed:undname.obj
 0002:00024c34       ??_R3pDNameNode@@8         100acc34     libvcruntimed:undname.obj
 0002:00024c44       ??_R2pDNameNode@@8         100acc44     libvcruntimed:undname.obj
 0002:00024c50       ??_R1A@?0A@EA@pDNameNode@@8 100acc50     libvcruntimed:undname.obj
 0002:00024c6c       ??_R4DNameStatusNode@@6B@  100acc6c     libvcruntimed:undname.obj
 0002:00024c80       ??_R3DNameStatusNode@@8    100acc80     libvcruntimed:undname.obj
 0002:00024c90       ??_R2DNameStatusNode@@8    100acc90     libvcruntimed:undname.obj
 0002:00024c9c       ??_R1A@?0A@EA@DNameStatusNode@@8 100acc9c     libvcruntimed:undname.obj
 0002:00024cb8       ??_R4pairNode@@6B@         100accb8     libvcruntimed:undname.obj
 0002:00024ccc       ??_R3pairNode@@8           100acccc     libvcruntimed:undname.obj
 0002:00024cdc       ??_R2pairNode@@8           100accdc     libvcruntimed:undname.obj
 0002:00024ce8       ??_R1A@?0A@EA@pairNode@@8  100acce8     libvcruntimed:undname.obj
 0002:00024d04       ___safe_se_handler_table   100acd04     <linker-defined>
 0002:00025124       ___rtc_iaa                 100ad124     LIBCMTD:initsect.obj
 0002:00025130       ___rtc_izz                 100ad130     LIBCMTD:initsect.obj
 0002:00025134       ___rtc_taa                 100ad134     LIBCMTD:initsect.obj
 0002:00025140       ___rtc_tzz                 100ad140     LIBCMTD:initsect.obj
 0002:00025244       __TI2?AVbad_alloc@std@@    100ad244     LIBCMTD:throw_bad_alloc.obj
 0002:00025254       __CTA2?AVbad_alloc@std@@   100ad254     LIBCMTD:throw_bad_alloc.obj
 0002:00025260       __CT??_R0?AVbad_alloc@std@@@8??0bad_alloc@std@@QAE@ABV01@@Z12 100ad260     LIBCMTD:throw_bad_alloc.obj
 0002:0002527c       __CT??_R0?AVexception@std@@@8??0exception@std@@QAE@ABV01@@Z12 100ad27c     LIBCMTD:throw_bad_alloc.obj
 0002:00025298       __TI3?AVbad_array_new_length@std@@ 100ad298     LIBCMTD:throw_bad_alloc.obj
 0002:000252a8       __CTA3?AVbad_array_new_length@std@@ 100ad2a8     LIBCMTD:throw_bad_alloc.obj
 0002:000252b8       __CT??_R0?AVbad_array_new_length@std@@@8??0bad_array_new_length@std@@QAE@ABV01@@Z12 100ad2b8     LIBCMTD:throw_bad_alloc.obj
 0002:000253dc       __TI2?AVbad_exception@std@@ 100ad3dc     libvcruntimed:frame.obj
 0002:000253ec       __CTA2?AVbad_exception@std@@ 100ad3ec     libvcruntimed:frame.obj
 0002:000253f8       __CT??_R0?AVbad_exception@std@@@8??0bad_exception@std@@QAE@ABV01@@Z12 100ad3f8     libvcruntimed:frame.obj
 0002:00025e74       ___pobjMapEntryFirst       100ade74     StdAfx.obj
 0002:00025e78       ___pobjMapEntryLast        100ade78     StdAfx.obj
 0002:00025f2c       __IMPORT_DESCRIPTOR_KERNEL32 100adf2c     kernel32:KERNEL32.dll
 0002:00025f40       __IMPORT_DESCRIPTOR_USER32 100adf40     user32:USER32.dll
 0002:00025f54       __IMPORT_DESCRIPTOR_ADVAPI32 100adf54     advapi32:ADVAPI32.dll
 0002:00025f68       __IMPORT_DESCRIPTOR_ole32  100adf68     ole32:ole32.dll
 0002:00025f7c       __IMPORT_DESCRIPTOR_OLEAUT32 100adf7c     oleaut32:OLEAUT32.dll
 0002:00025f90       __NULL_IMPORT_DESCRIPTOR   100adf90     kernel32:KERNEL32.dll
 0003:00000000       ?m_nCategory@CTrace@ATL@@1IA 100af000     StdAfx.obj
 0003:00000004       ___scrt_native_dllmain_reason 100af004     LIBCMTD:utility.obj
 0003:00000008       ___security_cookie_complement 100af008     LIBCMTD:gs_cookie.obj
 0003:0000000c       ___security_cookie         100af00c     LIBCMTD:gs_cookie.obj
 0003:00000010       ___isa_enabled             100af010     LIBCMTD:cpu_disp.obj
 0003:00000014       ?_RTC_ErrorLevels@@3PAHA   100af014     LIBCMTD:error.obj
 0003:00000050       __NLG_Destination          100af050     libvcruntimed:exsup.obj
 0003:0000006c       __crtDbgFlag               100af06c     libucrtd:debug_heap.obj
 0003:00000070       __crtBreakAlloc            100af070     libucrtd:debug_heap.obj
 0003:00000074       ___abort_behavior          100af074     libucrtd:abort.obj
 0003:00000080       __CrtDbgMode               100af080     libucrtd:dbgrptt.obj
 0003:0000008c       __CrtDbgFile               100af08c     libucrtd:dbgrptt.obj
 0003:00000098       __crtAssertBusy            100af098     libucrtd:dbgrptt.obj
 0003:000000a8       __iob                      100af0a8     libucrtd:_file.obj
 0003:00000158       ___acrt_initial_locale_data 100af158     libucrtd:nlsdata.obj
 0003:00000210       ___acrt_initial_locale_pointers 100af210     libucrtd:nlsdata.obj
 0003:00000218       ___acrt_wide_c_locale_string 100af218     libucrtd:nlsdata.obj
 0003:0000021c       ___mb_cur_max              100af21c     libucrtd:nlsdata.obj
 0003:00000220       ___badioinfo               100af220     libucrtd:ioinit.obj
 0003:00000258       ___acrt_initial_multibyte_data 100af258     libucrtd:mbctype.obj
 0003:00000778       __pfnAllocHook             100af778     libucrtd:debug_heap_hook.obj
 0003:0000077c       ___globallocalestatus      100af77c     libucrtd:glstatus.obj
 0003:00000780       __pctype                   100af780     libucrtd:ctype.obj
 0003:00000784       __pwctype                  100af784     libucrtd:ctype.obj
 0003:00000788       ___acrt_lconv_c            100af788     libucrtd:localeconv.obj
 0003:000007d8       ___acrt_lconv              100af7d8     libucrtd:localeconv.obj
 0003:000007dc       ___acrt_lconv_static_decimal 100af7dc     libucrtd:localeconv.obj
 0003:000007e0       ___acrt_lconv_static_W_decimal 100af7e0     libucrtd:localeconv.obj
 0003:000007f0       __lookuptrailbytes         100af7f0     libucrtd:read.obj
 0003:00000900       __fltused                  100af900     LIBCMTD:fltused.obj
 0003:00000910       ??_R0?AVbad_alloc@std@@@8  100af910     LIBCMTD:throw_bad_alloc.obj
 0003:0000092c       ??_R0?AVexception@std@@@8  100af92c     LIBCMTD:throw_bad_alloc.obj
 0003:00000948       ??_R0?AVbad_array_new_length@std@@@8 100af948     LIBCMTD:throw_bad_alloc.obj
 0003:00000970       ??_R0?AVtype_info@@@8      100af970     LIBCMTD:std_type_info_static.obj
 0003:00000988       ??_R0?AVbad_exception@std@@@8 100af988     libvcruntimed:frame.obj
 0003:000009a8       ??_R0?AVDNameNode@@@8      100af9a8     libvcruntimed:undname.obj
 0003:000009c0       ??_R0?AVcharNode@@@8       100af9c0     libvcruntimed:undname.obj
 0003:000009d8       ??_R0?AVpcharNode@@@8      100af9d8     libvcruntimed:undname.obj
 0003:000009f0       ??_R0?AVpDNameNode@@@8     100af9f0     libvcruntimed:undname.obj
 0003:00000a0c       ??_R0?AVDNameStatusNode@@@8 100afa0c     libvcruntimed:undname.obj
 0003:00000a2c       ??_R0?AVpairNode@@@8       100afa2c     libvcruntimed:undname.obj
 0003:00000a48       ?WM_ATLGETHOST@ATL@@3IA    100afa48     StdAfx.obj
 0003:00000a4c       ?WM_ATLGETCONTROL@ATL@@3IA 100afa4c     StdAfx.obj
 0003:00000a50       ?_pPerfRegFunc@ATL@@3P6AJPAUHINSTANCE__@@@ZA 100afa50     StdAfx.obj
 0003:00000a54       ?_pPerfUnRegFunc@ATL@@3P6AJXZA 100afa54     StdAfx.obj
 0003:00000a58       ?_AtlRegisterPerUser@ATL@@3_NA 100afa58     StdAfx.obj
 0003:00000a5c       ?_pAtlModule@ATL@@3PAVCAtlModule@1@A 100afa5c     StdAfx.obj
 0003:00000a60       ?_pModule@ATL@@3PAVCComModule@1@A 100afa60     StdAfx.obj
 0003:00000a64       ?_pAtlAutoThreadModule@ATL@@3PAUIAtlAutoThreadModule@1@A 100afa64     StdAfx.obj
 0003:00000a68       ?_OptionsStorage@?1??__local_stdio_printf_options@@9@4_KA 100afa68     StdAfx.obj
 0003:00000a70       ?atlTraceGeneral@ATL@@3V?$CTraceCategoryEx@$00$0A@@1@A 100afa70     StdAfx.obj
 0003:00000a74       ?atlTraceCOM@ATL@@3V?$CTraceCategoryEx@$01$0A@@1@A 100afa74     StdAfx.obj
 0003:00000a78       ?atlTraceQI@ATL@@3V?$CTraceCategoryEx@$03$0A@@1@A 100afa78     StdAfx.obj
 0003:00000a7c       ?atlTraceRegistrar@ATL@@3V?$CTraceCategoryEx@$07$0A@@1@A 100afa7c     StdAfx.obj
 0003:00000a80       ?atlTraceRefcount@ATL@@3V?$CTraceCategoryEx@$0BA@$0A@@1@A 100afa80     StdAfx.obj
 0003:00000a84       ?atlTraceWindowing@ATL@@3V?$CTraceCategoryEx@$0CA@$0A@@1@A 100afa84     StdAfx.obj
 0003:00000a88       ?atlTraceControls@ATL@@3V?$CTraceCategoryEx@$0EA@$0A@@1@A 100afa88     StdAfx.obj
 0003:00000a8c       ?atlTraceHosting@ATL@@3V?$CTraceCategoryEx@$0IA@$0A@@1@A 100afa8c     StdAfx.obj
 0003:00000a90       ?atlTraceDBClient@ATL@@3V?$CTraceCategoryEx@$0BAA@$0A@@1@A 100afa90     StdAfx.obj
 0003:00000a94       ?atlTraceDBProvider@ATL@@3V?$CTraceCategoryEx@$0CAA@$0A@@1@A 100afa94     StdAfx.obj
 0003:00000a98       ?atlTraceSnapin@ATL@@3V?$CTraceCategoryEx@$0EAA@$0A@@1@A 100afa98     StdAfx.obj
 0003:00000a9c       ?atlTraceNotImpl@ATL@@3V?$CTraceCategoryEx@$0IAA@$0A@@1@A 100afa9c     StdAfx.obj
 0003:00000aa0       ?atlTraceAllocation@ATL@@3V?$CTraceCategoryEx@$0BAAA@$0A@@1@A 100afaa0     StdAfx.obj
 0003:00000aa4       ?atlTraceException@ATL@@3V?$CTraceCategoryEx@$0CAAA@$0A@@1@A 100afaa4     StdAfx.obj
 0003:00000aa8       ?atlTraceTime@ATL@@3V?$CTraceCategoryEx@$0EAAA@$0A@@1@A 100afaa8     StdAfx.obj
 0003:00000aac       ?atlTraceCache@ATL@@3V?$CTraceCategoryEx@$0IAAA@$0A@@1@A 100afaac     StdAfx.obj
 0003:00000ab0       ?atlTraceStencil@ATL@@3V?$CTraceCategoryEx@$0BAAAA@$0A@@1@A 100afab0     StdAfx.obj
 0003:00000ab4       ?atlTraceString@ATL@@3V?$CTraceCategoryEx@$0CAAAA@$0A@@1@A 100afab4     StdAfx.obj
 0003:00000ab8       ?atlTraceMap@ATL@@3V?$CTraceCategoryEx@$0EAAAA@$0A@@1@A 100afab8     StdAfx.obj
 0003:00000abc       ?atlTraceUtil@ATL@@3V?$CTraceCategoryEx@$0IAAAA@$0A@@1@A 100afabc     StdAfx.obj
 0003:00000ac0       ?atlTraceSecurity@ATL@@3V?$CTraceCategoryEx@$0BAAAAA@$0A@@1@A 100afac0     StdAfx.obj
 0003:00000ac4       ?atlTraceSync@ATL@@3V?$CTraceCategoryEx@$0CAAAAA@$0A@@1@A 100afac4     StdAfx.obj
 0003:00000ac8       ?atlTraceISAPI@ATL@@3V?$CTraceCategoryEx@$0EAAAAA@$0A@@1@A 100afac8     StdAfx.obj
 0003:00000acc       ?m_nLevel@CTrace@ATL@@1IA  100afacc     StdAfx.obj
 0003:00000ad0       ?m_nLastCategory@CTrace@ATL@@1IA 100afad0     StdAfx.obj
 0003:00000ad8       ?m_nMap@CTrace@ATL@@1PAUCategoryMap@12@A 100afad8     StdAfx.obj
 0003:00002b58       ?m_bInitFailed@CAtlBaseModule@ATL@@2_NA 100b1b58     StdAfx.obj
 0003:00002b5c       ?_AtlComModule@ATL@@3VCAtlComModule@1@A 100b1b5c     StdAfx.obj
 0003:00002b84       ?_AtlWinModule@ATL@@3VCAtlWinModule@1@A 100b1b84     StdAfx.obj
 0003:00002bb0       ?m_libid@CAtlModule@ATL@@2U_GUID@@A 100b1bb0     OposInternals.obj
 0003:00002bc0       ?pfnRegDeleteKeyEx@?1??DeleteSubKey@CRegKey@ATL@@QAEJPB_W@Z@4P6GJPAUHKEY__@@0KK@ZA 100b1bc0     OposInternals.obj
 0003:00002bc4       ?bInitialized@?1??DeleteSubKey@CRegKey@ATL@@QAEJPB_W@Z@4_NA 100b1bc4     OposInternals.obj
 0003:00002bc8       ?_Module@@3VCComModule@ATL@@A 100b1bc8     OposInternals.obj
 0003:00002c1c       ?_AtlBaseModule@ATL@@3VCAtlBaseModule@1@A 100b1c1c     atls:atlbase.obj
 0003:00002c54       ___@@_PchSym_@00@UztvmgUPdlipUFHUhUrmgvinvwrzgvUexgllohUzgohOmzgrevkilqPBACIAJCBDBUlyqiUcIGUhgwzucOlyq@4B2008FD98C1DD4 100b1c54     atls:stdafx.obj
 0003:00002c58       ___scrt_current_native_startup_state 100b1c58     LIBCMTD:utility.obj
 0003:00002c5c       ___scrt_native_startup_lock 100b1c5c     LIBCMTD:utility.obj
 0003:00002fa0       ___castguard_check_failure_os_handled_fptr 100b1fa0     LIBCMTD:guard_support.obj
 0003:00002fa4       ___isa_available           100b1fa4     LIBCMTD:cpu_disp.obj
 0003:00002fa8       ___favor                   100b1fa8     LIBCMTD:cpu_disp.obj
 0003:00002fac       ___scrt_debugger_hook_flag 100b1fac     LIBCMTD:utility_desktop.obj
 0003:00002fb8       ?__type_info_root_node@@3U__type_info_node@@A 100b1fb8     LIBCMTD:tncleanup.obj
 0003:00002fc0       ?_OptionsStorage@?1??__local_stdio_scanf_options@@9@4_KA 100b1fc0     LIBCMTD:default_local_stdio_options.obj
 0003:00002fd0       ?__WinRTOutOfMemoryExceptionCallback@@3P6GPAXXZA 100b1fd0     libvcruntimed:ehhelpers.obj
 0003:00003018       ?pArgList@UnDecorator@@0PAVReplicator@@A 100b2018     libvcruntimed:undname.obj
 0003:0000301c       ?pZNameList@UnDecorator@@0PAVReplicator@@A 100b201c     libvcruntimed:undname.obj
 0003:00003020       ?pTemplateArgList@UnDecorator@@0PAVReplicator@@A 100b2020     libvcruntimed:undname.obj
 0003:00003024       ?gName@UnDecorator@@0PBDB  100b2024     libvcruntimed:undname.obj
 0003:00003028       ?name@UnDecorator@@0PBDB   100b2028     libvcruntimed:undname.obj
 0003:0000302c       ?disableFlags@UnDecorator@@0KA 100b202c     libvcruntimed:undname.obj
 0003:00003030       ?fExplicitTemplateParams@UnDecorator@@0_NA 100b2030     libvcruntimed:undname.obj
 0003:00003031       ?fGetTemplateArgumentList@UnDecorator@@0_NA 100b2031     libvcruntimed:undname.obj
 0003:00003034       ?m_pGetParameter@UnDecorator@@0P6APADJ@ZA 100b2034     libvcruntimed:undname.obj
 0003:00003038       ?m_CHPENameOffset@UnDecorator@@0KA 100b2038     libvcruntimed:undname.obj
 0003:0000303c       ?m_recursionLevel@UnDecorator@@0KA 100b203c     libvcruntimed:undname.obj
 0003:000030c8       ___pPurecall               100b20c8     libvcruntimed:purevirt_data.obj
 0003:000030d8       ?c_exit_complete@?1???R<lambda_6e4b09c48022b2350581041d5f6b0c4c>@@QBE@XZ@4_NA 100b20d8     libucrtd:exit.obj
 0003:000033f4       __environ_table            100b23f4     libucrtd:environment_initialization.obj
 0003:000033f8       __wenviron_table           100b23f8     libucrtd:environment_initialization.obj
 0003:000033fc       ___dcrt_initial_wide_environment 100b23fc     libucrtd:environment_initialization.obj
 0003:00003400       ___dcrt_initial_narrow_environment 100b2400     libucrtd:environment_initialization.obj
 0003:00003404       ___acrt_atexit_table       100b2404     libucrtd:onexit.obj
 0003:00003410       ___acrt_at_quick_exit_table 100b2410     libucrtd:onexit.obj
 0003:00003438       __pfnDumpClient            100b2438     libucrtd:debug_heap.obj
 0003:00003444       __pfnReportHook            100b2444     libucrtd:dbgrptt.obj
 0003:00003448       __pReportHookList          100b2448     libucrtd:dbgrptt.obj
 0003:0000344c       __pReportHookListW         100b244c     libucrtd:dbgrptt.obj
 0003:000035c0       __nstream                  100b25c0     libucrtd:_file.obj
 0003:000035c4       ___piob                    100b25c4     libucrtd:_file.obj
 0003:000035c8       __cflush                   100b25c8     libucrtd:_file.obj
 0003:000035d0       ___acrt_stdout_buffer      100b25d0     libucrtd:_sftbuf.obj
 0003:000035d4       ___acrt_stderr_buffer      100b25d4     libucrtd:_sftbuf.obj
 0003:000035d8       ___acrt_locale_changed_data 100b25d8     libucrtd:wsetlocale.obj
 0003:000035dc       ___acrt_current_locale_data 100b25dc     libucrtd:nlsdata.obj
 0003:000035e0       ___pioinfo                 100b25e0     libucrtd:ioinit.obj
 0003:000037e0       __nhandle                  100b27e0     libucrtd:ioinit.obj
 0003:000037f0       __mbctype                  100b27f0     libucrtd:mbctype.obj
 0003:000037f4       __mbcasemap                100b27f4     libucrtd:mbctype.obj
 0003:000037f8       ___acrt_current_multibyte_data 100b27f8     libucrtd:mbctype.obj
 0003:00003804       __pgmptr                   100b2804     libucrtd:argv_data.obj
 0003:00003808       __wpgmptr                  100b2808     libucrtd:argv_data.obj
 0003:0000380c       ___argc                    100b280c     libucrtd:argv_data.obj
 0003:00003810       ___argv                    100b2810     libucrtd:argv_data.obj
 0003:00003814       ___wargv                   100b2814     libucrtd:argv_data.obj
 0003:00003818       __acmdln                   100b2818     libucrtd:argv_data.obj
 0003:0000381c       __wcmdln                   100b281c     libucrtd:argv_data.obj
 0003:000038fc       ___acrt_heap               100b28fc     libucrtd:heap_handle.obj
 0003:00003f50       ___acrt_lconv_static_null  100b2f50     libucrtd:localeconv.obj
 0003:00003f54       ___acrt_lconv_static_W_null 100b2f54     libucrtd:localeconv.obj
 0003:00003f78       ___fastflag                100b2f78     libucrtd:fp_flags.obj
 0003:00003f7c       ___dyn_tls_init_callback   100b2f7c     <common>
 0003:00003f80       ___scrt_ucrt_dll_is_in_use 100b2f80     <common>
 0003:00003f84       __pmatherr                 100b2f84     <common>
 0003:00003f88       ___use_sse2_mathfcns       100b2f88     <common>

 entry point at        0001:0000c7c0

 Static symbols

 0000:fff30000       .debug$S                   10000000     Opos_Internals.exp
 0002:fff78000       ?_AtlComModule$initializer$@ATL@@3P6AXXZA 10000000     OposInternals.obj
 0002:fff78000       ?_AtlWinModule$initializer$@ATL@@3P6AXXZA 10000000     OposInternals.obj
 0002:fff78000       ?atlTraceAllocation$initializer$@ATL@@3P6AXXZA 10000000     OposInternals.obj
 0002:fff78000       ?atlTraceCOM$initializer$@ATL@@3P6AXXZA 10000000     OposInternals.obj
 0002:fff78000       ?atlTraceCache$initializer$@ATL@@3P6AXXZA 10000000     OposInternals.obj
 0002:fff78000       ?atlTraceControls$initializer$@ATL@@3P6AXXZA 10000000     OposInternals.obj
 0002:fff78000       ?atlTraceDBClient$initializer$@ATL@@3P6AXXZA 10000000     OposInternals.obj
 0002:fff78000       ?atlTraceDBProvider$initializer$@ATL@@3P6AXXZA 10000000     OposInternals.obj
 0002:fff78000       ?atlTraceException$initializer$@ATL@@3P6AXXZA 10000000     OposInternals.obj
 0002:fff78000       ?atlTraceGeneral$initializer$@ATL@@3P6AXXZA 10000000     OposInternals.obj
 0002:fff78000       ?atlTraceHosting$initializer$@ATL@@3P6AXXZA 10000000     OposInternals.obj
 0002:fff78000       ?atlTraceISAPI$initializer$@ATL@@3P6AXXZA 10000000     OposInternals.obj
 0002:fff78000       ?atlTraceMap$initializer$@ATL@@3P6AXXZA 10000000     OposInternals.obj
 0002:fff78000       ?atlTraceNotImpl$initializer$@ATL@@3P6AXXZA 10000000     OposInternals.obj
 0002:fff78000       ?atlTraceQI$initializer$@ATL@@3P6AXXZA 10000000     OposInternals.obj
 0002:fff78000       ?atlTraceRefcount$initializer$@ATL@@3P6AXXZA 10000000     OposInternals.obj
 0002:fff78000       ?atlTraceRegistrar$initializer$@ATL@@3P6AXXZA 10000000     OposInternals.obj
 0002:fff78000       ?atlTraceSecurity$initializer$@ATL@@3P6AXXZA 10000000     OposInternals.obj
 0002:fff78000       ?atlTraceSnapin$initializer$@ATL@@3P6AXXZA 10000000     OposInternals.obj
 0002:fff78000       ?atlTraceStencil$initializer$@ATL@@3P6AXXZA 10000000     OposInternals.obj
 0002:fff78000       ?atlTraceString$initializer$@ATL@@3P6AXXZA 10000000     OposInternals.obj
 0002:fff78000       ?atlTraceSync$initializer$@ATL@@3P6AXXZA 10000000     OposInternals.obj
 0002:fff78000       ?atlTraceTime$initializer$@ATL@@3P6AXXZA 10000000     OposInternals.obj
 0002:fff78000       ?atlTraceUtil$initializer$@ATL@@3P6AXXZA 10000000     OposInternals.obj
 0002:fff78000       ?atlTraceWindowing$initializer$@ATL@@3P6AXXZA 10000000     OposInternals.obj
 0002:fff78000       __guard_fids_??__E_AtlBaseModule@ATL@@YAXXZ 10000000     atls:atlbase.obj
 0002:fff78000       __guard_fids__             10000000     atls:atlbase.obj
 0002:fff78000       __guard_fids_?dllmain_dispatch@@YAHQAUHINSTANCE__@@KQAX@Z 10000000     LIBCMTD:dll_dllmain.obj
 0002:fff78000       __guard_fids__             10000000     LIBCMTD:guard_support.obj
 0002:fff78000       __guard_fids__             10000000     LIBCMTD:guard_support.obj
 0002:fff78000       __guard_fids___guard_icall_checks_enforced 10000000     LIBCMTD:guard_support.obj
 0002:fff78000       __guard_fids___CRT_RTC_INIT 10000000     LIBCMTD:init.obj
 0002:fff78000       __guard_fids___CRT_RTC_INITW 10000000     LIBCMTD:init.obj
 0002:fff78000       __guard_fids__             10000000     LIBCMTD:std_type_info_static.obj
 0002:fff78000       __guard_fids__             10000000     LIBCMTD:throw_bad_alloc.obj
 0002:fff78000       __guard_fids__             10000000     LIBCMTD:throw_bad_alloc.obj
 0002:fff78000       __guard_fids__             10000000     LIBCMTD:throw_bad_alloc.obj
 0002:fff78000       __guard_fids__             10000000     LIBCMTD:throw_bad_alloc.obj
 0002:fff78000       __guard_fids__             10000000     LIBCMTD:throw_bad_alloc.obj
 0002:fff78000       __guard_fids__             10000000     LIBCMTD:throw_bad_alloc.obj
 0002:fff78000       __guard_fids__             10000000     LIBCMTD:throw_bad_alloc.obj
 0002:fff78000       __guard_fids__             10000000     LIBCMTD:throw_bad_alloc.obj
 0002:fff78000       __guard_fids____scrt_set_unhandled_exception_filter 10000000     LIBCMTD:utility_desktop.obj
 0002:fff78000       __guard_fids__             10000000     libvcruntimed:ehhelpers.obj
 0002:fff78000       __guard_fids__             10000000     libvcruntimed:frame.obj
 0002:fff78000       __guard_fids__             10000000     libvcruntimed:frame.obj
 0002:fff78000       __guard_fids__             10000000     libvcruntimed:frame.obj
 0002:fff78000       __guard_fids__             10000000     libvcruntimed:frame.obj
 0002:fff78000       __guard_fids__             10000000     libvcruntimed:frame.obj
 0002:fff78000       __guard_fids__             10000000     libvcruntimed:jbcxrval.obj
 0002:fff78000       __guard_fids____except_validate_jump_buffer 10000000     libvcruntimed:jbcxrval.obj
 0002:fff78000       __guard_fids___guard_icall_checks_enforced 10000000     libvcruntimed:jbcxrval.obj
 0002:fff78000       __guard_fids____vcrt_initialize_ptd 10000000     libvcruntimed:per_thread_data.obj
 0002:fff78000       __guard_fids_??B_Closure_wrapper_ceddd679_1@@QBEP6APAXI@ZXZ 10000000     libvcruntimed:std_type_info.obj
 0002:fff78000       __guard_fids_??B_Closure_wrapper_ceddd679_2@@QBEP6AXQAX@ZXZ 10000000     libvcruntimed:std_type_info.obj
 0002:fff78000       __guard_fids__             10000000     libvcruntimed:undname.obj
 0002:fff78000       __guard_fids__             10000000     libvcruntimed:undname.obj
 0002:fff78000       __guard_fids__             10000000     libvcruntimed:undname.obj
 0002:fff78000       __guard_fids__             10000000     libvcruntimed:undname.obj
 0002:fff78000       __guard_fids__             10000000     libvcruntimed:undname.obj
 0002:fff78000       __guard_fids__             10000000     libvcruntimed:undname.obj
 0002:fff78000       __guard_fids_?get_unexpected_or_default@@YAP6AXXZQBU__vcrt_ptd@@@Z 10000000     libvcruntimed:unexpected.obj
 0002:fff78000       __guard_fids____dcrt_uninitialize_environments_nolock 10000000     libucrtd:environment_initialization.obj
 0002:fff78000       __guard_fids__             10000000     libucrtd:console_output_initializer.obj
 0000:fff4d000       _volmd                     10000000     libucrtd:cfout.obj
 0000:fff4d000       _volmd                     10000000     libucrtd:cfout.obj
 0000:fff4d000       _volmd                     10000000     libucrtd:cfout.obj
 0000:fff4d000       _volmd                     10000000     libucrtd:cfout.obj
 0000:fff4d000       _volmd                     10000000     libucrtd:cfout.obj
 0000:fff4d000       _volmd                     10000000     libucrtd:cfout.obj
 0000:fff4d000       _volmd                     10000000     libucrtd:cfout.obj
 0000:fff4d000       _volmd                     10000000     libucrtd:cfout.obj
 0000:fff4d000       _volmd                     10000000     libucrtd:cvt.obj
 0000:fff4d000       _volmd                     10000000     libucrtd:isctype.obj
 0000:fff4d000       _volmd                     10000000     libucrtd:mbrtoc32.obj
 0000:fff4d000       _volmd                     10000000     libucrtd:wcrtomb.obj
 0000:fff4d000       _volmd                     10000000     libucrtd:wcrtomb.obj
 0000:fff4d000       _volmd                     10000000     libucrtd:wcrtomb.obj
 0000:fff4d000       _volmd                     10000000     libucrtd:wcrtomb.obj
 0000:fff4d000       _volmd                     10000000     libucrtd:wcrtomb.obj
 0000:fff4d000       _volmd                     10000000     libucrtd:wcstombs.obj
 0000:fff4d000       _volmd                     10000000     libucrtd:wcstombs.obj
 0000:fff4d000       _volmd                     10000000     libucrtd:debug_heap.obj
 0000:fff4d000       _volmd                     10000000     libucrtd:debug_heap.obj
 0000:fff4d000       _volmd                     10000000     libucrtd:debug_heap.obj
 0002:fff78000       __guard_fids__             10000000     libucrtd:debug_heap_hook.obj
 0000:fff4d000       _volmd                     10000000     libucrtd:free.obj
 0000:fff4d000       _volmd                     10000000     libucrtd:new_mode.obj
 0000:fff4d000       _volmd                     10000000     libucrtd:new_mode.obj
 0002:fff78000       __guard_fids__             10000000     libucrtd:locale_initializer.obj
 0002:fff78000       __guard_fids__             10000000     libucrtd:multibyte_initializer.obj
 0002:fff78000       __guard_fids__             10000000     libucrtd:sse2_initializer.obj
 0002:fff78000       __guard_fids__             10000000     libucrtd:stdio_initializer.obj
 0000:fff4d000       _volmd                     10000000     libucrtd:getmodulefilenamea.obj
 0000:fff4d000       _volmd                     10000000     libucrtd:getmodulefilenamea.obj
 0002:fff78000       __guard_fids__             10000000     libucrtd:initialization.obj
 0000:fff4d000       _volmd                     10000000     libucrtd:initialization.obj
 0000:fff4d000       _volmd                     10000000     libucrtd:outputdebugstringa.obj
 0002:fff78000       __guard_fids____acrt_initialize_ptd 10000000     libucrtd:per_thread_data.obj
 0000:fff4d000       _volmd                     10000000     libucrtd:per_thread_data.obj
 0000:fff4d000       _volmd                     10000000     libucrtd:per_thread_data.obj
 0000:fff4d000       _volmd                     10000000     libucrtd:report_runtime_error.obj
 0002:fff78000       __ehfuncinfo$??1?$__crt_win32_buffer@_WU__crt_win32_buffer_internal_dynamic_resizing@@@@QAE@XZ 10000000     libucrtd:setenvironmentvariablea.obj
 0001:fffff000       __ehhandler$??1?$__crt_win32_buffer@_WU__crt_win32_buffer_internal_dynamic_resizing@@@@QAE@XZ 10000000 f   libucrtd:setenvironmentvariablea.obj
 0000:fff4d000       _volmd                     10000000     libucrtd:setenvironmentvariablea.obj
 0000:fff4d000       _volmd                     10000000     libucrtd:win_policies.obj
 0000:fff4d000       _volmd                     10000000     libucrtd:win_policies.obj
 0000:fff4d000       _volmd                     10000000     libucrtd:win_policies.obj
 0000:fff4d000       _volmd                     10000000     libucrtd:win_policies.obj
 0000:fff4d000       _volmd                     10000000     libucrtd:win_policies.obj
 0002:fff78000       __guard_fids_??B<lambda_29d3c280b90b41c2ae070ffca879996a>@@QBEP6GHPA_W@ZXZ 10000000     libucrtd:winapi_thunks.obj
 0000:fff4d000       _volmd                     10000000     libucrtd:winapi_thunks.obj
 0000:fff4d000       _volmd                     10000000     libucrtd:winapi_thunks.obj
 0000:fff4d000       _volmd                     10000000     libucrtd:winapi_thunks.obj
 0000:fff4d000       _volmd                     10000000     libucrtd:winapi_thunks.obj
 0000:fff4d000       _volmd                     10000000     libucrtd:winapi_thunks.obj
 0000:fff4d000       _volmd                     10000000     libucrtd:comparestringa.obj
 0002:fff78000       __guard_fids__GetLocaleNameFromLangCountry 10000000     libucrtd:get_qualified_locale.obj
 0002:fff78000       __guard_fids__GetLocaleNameFromLanguage 10000000     libucrtd:get_qualified_locale.obj
 0000:fff4d000       _volmd                     10000000     libucrtd:get_qualified_locale.obj
 0000:fff4d000       _volmd                     10000000     libucrtd:get_qualified_locale.obj
 0000:fff4d000       _volmd                     10000000     libucrtd:get_qualified_locale.obj
 0000:fff4d000       _volmd                     10000000     libucrtd:get_qualified_locale.obj
 0000:fff4d000       _volmd                     10000000     libucrtd:getlocaleinfoa.obj
 0002:fff78000       __guard_fids__GetLcidFromCountry 10000000     libucrtd:getqloc_downlevel.obj
 0002:fff78000       __guard_fids__GetLcidFromLangCountry 10000000     libucrtd:getqloc_downlevel.obj
 0002:fff78000       __guard_fids__GetLcidFromLanguage 10000000     libucrtd:getqloc_downlevel.obj
 0000:fff4d000       _volmd                     10000000     libucrtd:getqloc_downlevel.obj
 0000:fff4d000       _volmd                     10000000     libucrtd:getqloc_downlevel.obj
 0000:fff4d000       _volmd                     10000000     libucrtd:getqloc_downlevel.obj
 0000:fff4d000       _volmd                     10000000     libucrtd:getqloc_downlevel.obj
 0000:fff4d000       _volmd                     10000000     libucrtd:initctype.obj
 0000:fff4d000       _volmd                     10000000     libucrtd:initmon.obj
 0000:fff4d000       _volmd                     10000000     libucrtd:initnum.obj
 0000:fff4d000       _volmd                     10000000     libucrtd:locale_refcounting.obj
 0000:fff4d000       _volmd                     10000000     libucrtd:locale_refcounting.obj
 0000:fff4d000       _volmd                     10000000     libucrtd:locale_refcounting.obj
 0000:fff4d000       _volmd                     10000000     libucrtd:locale_refcounting.obj
 0000:fff4d000       _volmd                     10000000     libucrtd:locale_refcounting.obj
 0002:fff78000       __guard_fids__             10000000     libucrtd:wsetlocale.obj
 0000:fff4d000       _volmd                     10000000     libucrtd:wsetlocale.obj
 0000:fff4d000       _volmd                     10000000     libucrtd:wsetlocale.obj
 0000:fff4d000       _volmd                     10000000     libucrtd:wsetlocale.obj
 0000:fff4d000       _volmd                     10000000     libucrtd:wsetlocale.obj
 0000:fff4d000       _volmd                     10000000     libucrtd:wsetlocale.obj
 0000:fff4d000       _volmd                     10000000     libucrtd:wsetlocale.obj
 0000:fff4d000       _volmd                     10000000     libucrtd:wsetlocale.obj
 0000:fff4d000       _volmd                     10000000     libucrtd:wsetlocale.obj
 0000:fff4d000       _volmd                     10000000     libucrtd:wsetlocale.obj
 0000:fff4d000       _volmd                     10000000     libucrtd:write.obj
 0000:fff4d000       _volmd                     10000000     libucrtd:write.obj
 0000:fff4d000       _volmd                     10000000     libucrtd:write.obj
 0000:fff4d000       _volmd                     10000000     libucrtd:write.obj
 0000:fff4d000       _volmd                     10000000     libucrtd:write.obj
 0000:fff4d000       _volmd                     10000000     libucrtd:write.obj
 0000:fff4d000       _volmd                     10000000     libucrtd:write.obj
 0000:fff4d000       _volmd                     10000000     libucrtd:mbctype.obj
 0000:fff4d000       _volmd                     10000000     libucrtd:mbctype.obj
 0000:fff4d000       _volmd                     10000000     libucrtd:mbctype.obj
 0000:fff4d000       _volmd                     10000000     libucrtd:mbctype.obj
 0000:fff4d000       _volmd                     10000000     libucrtd:mbctype.obj
 0000:fff4d000       _volmd                     10000000     libucrtd:dbgrpt.obj
 0000:fff4d000       _volmd                     10000000     libucrtd:dbgrpt.obj
 0000:fff4d000       _volmd                     10000000     libucrtd:dbgrpt.obj
 0000:fff4d000       _volmd                     10000000     libucrtd:dbgrpt.obj
 0000:fff4d000       _volmd                     10000000     libucrtd:dbgrptt.obj
 0000:fff4d000       _volmd                     10000000     libucrtd:dbgrptt.obj
 0000:fff4d000       _volmd                     10000000     libucrtd:invalid_parameter.obj
 0002:fff78000       __guard_fids__signal       10000000     libucrtd:signal.obj
 0002:fff78000       __guard_fids_?get_terminate_or_default@@YAP6AXXZQBU__acrt_ptd@@@Z 10000000     libucrtd:terminate.obj
 0000:fff4d000       _volmd                     10000000     libucrtd:terminate.obj
 0002:fff78000       __guard_fids_??B<lambda_838c7f62c73c983481e27c09e84b0b5d>@@QBEP6AHPBX0@ZXZ 10000000     libucrtd:argv_wildcards.obj
 0002:fff78000       __guard_fids_??B<lambda_d388dc2bcbe6079ffc891eec49d9b3b2>@@QBEP6AHPBX0@ZXZ 10000000     libucrtd:argv_wildcards.obj
 0000:fff4d000       _volmd                     10000000     libucrtd:argv_wildcards.obj
 0000:fff4d000       _volmd                     10000000     libucrtd:argv_wildcards.obj
 0000:fff4d000       _volmd                     10000000     libucrtd:argv_wildcards.obj
 0000:fff4d000       _volmd                     10000000     libucrtd:argv_wildcards.obj
 0000:fff4d000       _volmd                     10000000     libucrtd:argv_wildcards.obj
 0000:fff4d000       _volmd                     10000000     libucrtd:exit.obj
 0000:fff4d000       _volmd                     10000000     libucrtd:exit.obj
 0000:fff4d000       _volmd                     10000000     libucrtd:exit.obj
 0000:fff4d000       _volmd                     10000000     libucrtd:onexit.obj
 0000:fff4d000       _volmd                     10000000     libucrtd:_flsbuf.obj
 0000:fff4d000       _volmd                     10000000     libucrtd:_flsbuf.obj
 0000:fff4d000       _volmd                     10000000     libucrtd:_flsbuf.obj
 0000:fff4d000       _volmd                     10000000     libucrtd:_freebuf.obj
 0000:fff4d000       _volmd                     10000000     libucrtd:_freebuf.obj
 0000:fff4d000       _volmd                     10000000     libucrtd:_getbuf.obj
 0000:fff4d000       _volmd                     10000000     libucrtd:_sftbuf.obj
 0000:fff4d000       _volmd                     10000000     libucrtd:_sftbuf.obj
 0000:fff4d000       _volmd                     10000000     libucrtd:_sftbuf.obj
 0000:fff4d000       _volmd                     10000000     libucrtd:closeall.obj
 0000:fff4d000       _volmd                     10000000     libucrtd:fclose.obj
 0000:fff4d000       _volmd                     10000000     libucrtd:fflush.obj
 0000:fff4d000       _volmd                     10000000     libucrtd:fflush.obj
 0000:fff4d000       _volmd                     10000000     libucrtd:fflush.obj
 0000:fff4d000       _volmd                     10000000     libucrtd:fileno.obj
 0000:fff4d000       _volmd                     10000000     libucrtd:fputc.obj
 0000:fff4d000       _volmd                     10000000     libucrtd:fputwc.obj
 0000:fff4d000       _volmd                     10000000     libucrtd:fputwc.obj
 0000:fff4d000       _volmd                     10000000     libucrtd:output.obj
 0000:fff4d000       _volmd                     10000000     libucrtd:output.obj
 0000:fff4d000       _volmd                     10000000     libucrtd:output.obj
 0000:fff4d000       _volmd                     10000000     libucrtd:output.obj
 0000:fff4d000       _volmd                     10000000     libucrtd:output.obj
 0000:fff4d000       _volmd                     10000000     libucrtd:output.obj
 0000:fff4d000       _volmd                     10000000     libucrtd:output.obj
 0000:fff4d000       _volmd                     10000000     libucrtd:output.obj
 0000:fff4d000       _volmd                     10000000     libucrtd:output.obj
 0000:fff4d000       _volmd                     10000000     libucrtd:output.obj
 0000:fff4d000       _volmd                     10000000     libucrtd:output.obj
 0000:fff4d000       _volmd                     10000000     libucrtd:output.obj
 0000:fff4d000       _volmd                     10000000     libucrtd:output.obj
 0000:fff4d000       _volmd                     10000000     libucrtd:output.obj
 0000:fff4d000       _volmd                     10000000     libucrtd:output.obj
 0000:fff4d000       _volmd                     10000000     libucrtd:output.obj
 0000:fff4d000       _volmd                     10000000     libucrtd:output.obj
 0000:fff4d000       _volmd                     10000000     libucrtd:output.obj
 0000:fff4d000       _volmd                     10000000     libucrtd:output.obj
 0000:fff4d000       _volmd                     10000000     libucrtd:output.obj
 0000:fff4d000       _volmd                     10000000     libucrtd:output.obj
 0000:fff4d000       _volmd                     10000000     libucrtd:output.obj
 0000:fff4d000       _volmd                     10000000     libucrtd:output.obj
 0000:fff4d000       _volmd                     10000000     libucrtd:output.obj
 0000:fff4d000       _volmd                     10000000     libucrtd:output.obj
 0000:fff4d000       _volmd                     10000000     libucrtd:stream.obj
 0000:fff4d000       _volmd                     10000000     libucrtd:stream.obj
 0000:fff4d000       _volmd                     10000000     libucrtd:stream.obj
 0000:fff4d000       _volmd                     10000000     libucrtd:qsort.obj
 0000:fff4d000       _volmd                     10000000     libucrtd:qsort.obj
 0000:fff4d000       _volmd                     10000000     libucrtd:87except.obj
 0000:fff4d000       _volmd                     10000000     libucrtd:fpctrl.obj
 0002:fff78000       __guard_fids____libm_error_support 10000000     libucrtd:libm_error.obj
 0000:fff4d000       _volmd                     10000000     libucrtd:_fenvutils.obj
 0000:fff4d000       _volmd                     10000000     libucrtd:_fenvutils.obj
 0000:fff4d000       _volmd                     10000000     libucrtd:_fenvutils.obj
 0000:fff4d000       _volmd                     10000000     libucrtd:_fenvutils.obj
 0000:fff4d000       _volmd                     10000000     libucrtd:_fenvutils.obj
 0000:fff4d000       _volmd                     10000000     libucrtd:_fenvutils.obj
 0000:fff4d000       _volmd                     10000000     libucrtd:_fenvutils.obj
 0000:fff4d000       _volmd                     10000000     libucrtd:fpexcept.obj
 0000:fff4d000       _volmd                     10000000     libucrtd:fpexcept.obj
 0000:fff4d000       _volmd                     10000000     libucrtd:ldexp.obj
 0000:fff30000       .debug$S                   10000000     advapi32:ADVAPI32.dll
 0000:fff30000       .debug$S                   10000000     advapi32:ADVAPI32.dll
 0000:fff30000       .debug$S                   10000000     advapi32:ADVAPI32.dll
 0000:fff30000       .debug$S                   10000000     advapi32:ADVAPI32.dll
 0000:fff30000       .debug$S                   10000000     advapi32:ADVAPI32.dll
 0000:fff30000       .debug$S                   10000000     advapi32:ADVAPI32.dll
 0000:fff30000       .debug$S                   10000000     advapi32:ADVAPI32.dll
 0000:fff30000       .debug$S                   10000000     advapi32:ADVAPI32.dll
 0000:fff30000       .debug$S                   10000000     kernel32:KERNEL32.dll
 0000:fff30000       .debug$S                   10000000     kernel32:KERNEL32.dll
 0000:fff30000       .debug$S                   10000000     kernel32:KERNEL32.dll
 0000:fff30000       .debug$S                   10000000     kernel32:KERNEL32.dll
 0000:fff30000       .debug$S                   10000000     kernel32:KERNEL32.dll
 0000:fff30000       .debug$S                   10000000     kernel32:KERNEL32.dll
 0000:fff30000       .debug$S                   10000000     kernel32:KERNEL32.dll
 0000:fff30000       .debug$S                   10000000     kernel32:KERNEL32.dll
 0000:fff30000       .debug$S                   10000000     kernel32:KERNEL32.dll
 0000:fff30000       .debug$S                   10000000     kernel32:KERNEL32.dll
 0000:fff30000       .debug$S                   10000000     kernel32:KERNEL32.dll
 0000:fff30000       .debug$S                   10000000     kernel32:KERNEL32.dll
 0000:fff30000       .debug$S                   10000000     kernel32:KERNEL32.dll
 0000:fff30000       .debug$S                   10000000     kernel32:KERNEL32.dll
 0000:fff30000       .debug$S                   10000000     kernel32:KERNEL32.dll
 0000:fff30000       .debug$S                   10000000     kernel32:KERNEL32.dll
 0000:fff30000       .debug$S                   10000000     kernel32:KERNEL32.dll
 0000:fff30000       .debug$S                   10000000     kernel32:KERNEL32.dll
 0000:fff30000       .debug$S                   10000000     kernel32:KERNEL32.dll
 0000:fff30000       .debug$S                   10000000     kernel32:KERNEL32.dll
 0000:fff30000       .debug$S                   10000000     kernel32:KERNEL32.dll
 0000:fff30000       .debug$S                   10000000     kernel32:KERNEL32.dll
 0000:fff30000       .debug$S                   10000000     kernel32:KERNEL32.dll
 0000:fff30000       .debug$S                   10000000     kernel32:KERNEL32.dll
 0000:fff30000       .debug$S                   10000000     kernel32:KERNEL32.dll
 0000:fff30000       .debug$S                   10000000     kernel32:KERNEL32.dll
 0000:fff30000       .debug$S                   10000000     kernel32:KERNEL32.dll
 0000:fff30000       .debug$S                   10000000     kernel32:KERNEL32.dll
 0000:fff30000       .debug$S                   10000000     kernel32:KERNEL32.dll
 0000:fff30000       .debug$S                   10000000     kernel32:KERNEL32.dll
 0000:fff30000       .debug$S                   10000000     kernel32:KERNEL32.dll
 0000:fff30000       .debug$S                   10000000     kernel32:KERNEL32.dll
 0000:fff30000       .debug$S                   10000000     kernel32:KERNEL32.dll
 0000:fff30000       .debug$S                   10000000     kernel32:KERNEL32.dll
 0000:fff30000       .debug$S                   10000000     kernel32:KERNEL32.dll
 0000:fff30000       .debug$S                   10000000     kernel32:KERNEL32.dll
 0000:fff30000       .debug$S                   10000000     kernel32:KERNEL32.dll
 0000:fff30000       .debug$S                   10000000     kernel32:KERNEL32.dll
 0000:fff30000       .debug$S                   10000000     kernel32:KERNEL32.dll
 0000:fff30000       .debug$S                   10000000     kernel32:KERNEL32.dll
 0000:fff30000       .debug$S                   10000000     kernel32:KERNEL32.dll
 0000:fff30000       .debug$S                   10000000     kernel32:KERNEL32.dll
 0000:fff30000       .debug$S                   10000000     kernel32:KERNEL32.dll
 0000:fff30000       .debug$S                   10000000     kernel32:KERNEL32.dll
 0000:fff30000       .debug$S                   10000000     kernel32:KERNEL32.dll
 0000:fff30000       .debug$S                   10000000     kernel32:KERNEL32.dll
 0000:fff30000       .debug$S                   10000000     kernel32:KERNEL32.dll
 0000:fff30000       .debug$S                   10000000     kernel32:KERNEL32.dll
 0000:fff30000       .debug$S                   10000000     kernel32:KERNEL32.dll
 0000:fff30000       .debug$S                   10000000     kernel32:KERNEL32.dll
 0000:fff30000       .debug$S                   10000000     kernel32:KERNEL32.dll
 0000:fff30000       .debug$S                   10000000     kernel32:KERNEL32.dll
 0000:fff30000       .debug$S                   10000000     kernel32:KERNEL32.dll
 0000:fff30000       .debug$S                   10000000     kernel32:KERNEL32.dll
 0000:fff30000       .debug$S                   10000000     kernel32:KERNEL32.dll
 0000:fff30000       .debug$S                   10000000     kernel32:KERNEL32.dll
 0000:fff30000       .debug$S                   10000000     kernel32:KERNEL32.dll
 0000:fff30000       .debug$S                   10000000     kernel32:KERNEL32.dll
 0000:fff30000       .debug$S                   10000000     kernel32:KERNEL32.dll
 0000:fff30000       .debug$S                   10000000     kernel32:KERNEL32.dll
 0000:fff30000       .debug$S                   10000000     kernel32:KERNEL32.dll
 0000:fff30000       .debug$S                   10000000     kernel32:KERNEL32.dll
 0000:fff30000       .debug$S                   10000000     kernel32:KERNEL32.dll
 0000:fff30000       .debug$S                   10000000     kernel32:KERNEL32.dll
 0000:fff30000       .debug$S                   10000000     kernel32:KERNEL32.dll
 0000:fff30000       .debug$S                   10000000     kernel32:KERNEL32.dll
 0000:fff30000       .debug$S                   10000000     kernel32:KERNEL32.dll
 0000:fff30000       .debug$S                   10000000     kernel32:KERNEL32.dll
 0000:fff30000       .debug$S                   10000000     kernel32:KERNEL32.dll
 0000:fff30000       .debug$S                   10000000     kernel32:KERNEL32.dll
 0000:fff30000       .debug$S                   10000000     kernel32:KERNEL32.dll
 0000:fff30000       .debug$S                   10000000     kernel32:KERNEL32.dll
 0000:fff30000       .debug$S                   10000000     kernel32:KERNEL32.dll
 0000:fff30000       .debug$S                   10000000     kernel32:KERNEL32.dll
 0000:fff30000       .debug$S                   10000000     kernel32:KERNEL32.dll
 0000:fff30000       .debug$S                   10000000     kernel32:KERNEL32.dll
 0000:fff30000       .debug$S                   10000000     kernel32:KERNEL32.dll
 0000:fff30000       .debug$S                   10000000     kernel32:KERNEL32.dll
 0000:fff30000       .debug$S                   10000000     kernel32:KERNEL32.dll
 0000:fff30000       .debug$S                   10000000     kernel32:KERNEL32.dll
 0000:fff30000       .debug$S                   10000000     kernel32:KERNEL32.dll
 0000:fff30000       .debug$S                   10000000     kernel32:KERNEL32.dll
 0000:fff30000       .debug$S                   10000000     kernel32:KERNEL32.dll
 0000:fff30000       .debug$S                   10000000     kernel32:KERNEL32.dll
 0000:fff30000       .debug$S                   10000000     kernel32:KERNEL32.dll
 0000:fff30000       .debug$S                   10000000     kernel32:KERNEL32.dll
 0000:fff30000       .debug$S                   10000000     kernel32:KERNEL32.dll
 0000:fff30000       .debug$S                   10000000     kernel32:KERNEL32.dll
 0000:fff30000       .debug$S                   10000000     kernel32:KERNEL32.dll
 0000:fff30000       .debug$S                   10000000     kernel32:KERNEL32.dll
 0000:fff30000       .debug$S                   10000000     ole32:ole32.dll
 0000:fff30000       .debug$S                   10000000     ole32:ole32.dll
 0000:fff30000       .debug$S                   10000000     ole32:ole32.dll
 0000:fff30000       .debug$S                   10000000     ole32:ole32.dll
 0000:fff30000       .debug$S                   10000000     ole32:ole32.dll
 0000:fff30000       .debug$S                   10000000     oleaut32:OLEAUT32.dll
 0000:fff30000       .debug$S                   10000000     oleaut32:OLEAUT32.dll
 0000:fff30000       .debug$S                   10000000     oleaut32:OLEAUT32.dll
 0000:fff30000       .debug$S                   10000000     oleaut32:OLEAUT32.dll
 0000:fff30000       .debug$S                   10000000     oleaut32:OLEAUT32.dll
 0000:fff30000       .debug$S                   10000000     oleaut32:OLEAUT32.dll
 0000:fff30000       .debug$S                   10000000     oleaut32:OLEAUT32.dll
 0000:fff30000       .debug$S                   10000000     user32:USER32.dll
 0000:fff30000       .debug$S                   10000000     user32:USER32.dll
 0002:fff78004       __guard_fids__             10000004     libucrtd:stdio_initializer.obj
 0001:fffff068       $LN6                       10000068     OposInternals.obj
 0001:fffff070       $LN5                       10000070     OposInternals.obj
 0001:fffff07c       $LN4                       1000007c     OposInternals.obj
 0001:fffff07c       $LN5                       1000007c     OposInternals.obj
 0001:fffff084       $LN4                       10000084     OposInternals.obj
 0001:fffff090       $LN3                       10000090     OposInternals.obj
 0001:fffff124       $LN8                       10000124     OposInternals.obj
 0001:fffff12c       $LN7                       1000012c     OposInternals.obj
 0001:fffff138       $LN6                       10000138     OposInternals.obj
 0001:fffff238       $LN16                      10000238     OposInternals.obj
 0001:fffff240       $LN15                      10000240     OposInternals.obj
 0001:fffff264       $LN14                      10000264     OposInternals.obj
 0001:fffff26d       $LN13                      1000026d     OposInternals.obj
 0001:fffff274       $LN12                      10000274     OposInternals.obj
 0001:00000000       ??__E_AtlComModule@ATL@@YAXXZ 10001000 f   StdAfx.obj
 0001:00000030       ??__E_AtlWinModule@ATL@@YAXXZ 10001030 f   StdAfx.obj
 0001:00000060       ??__EatlTraceAllocation@ATL@@YAXXZ 10001060 f   StdAfx.obj
 0001:00000080       ??__EatlTraceCOM@ATL@@YAXXZ 10001080 f   StdAfx.obj
 0001:000000a0       ??__EatlTraceCache@ATL@@YAXXZ 100010a0 f   StdAfx.obj
 0001:000000c0       ??__EatlTraceControls@ATL@@YAXXZ 100010c0 f   StdAfx.obj
 0001:000000e0       ??__EatlTraceDBClient@ATL@@YAXXZ 100010e0 f   StdAfx.obj
 0001:00000100       ??__EatlTraceDBProvider@ATL@@YAXXZ 10001100 f   StdAfx.obj
 0001:00000120       ??__EatlTraceException@ATL@@YAXXZ 10001120 f   StdAfx.obj
 0001:00000140       ??__EatlTraceGeneral@ATL@@YAXXZ 10001140 f   StdAfx.obj
 0001:00000160       ??__EatlTraceHosting@ATL@@YAXXZ 10001160 f   StdAfx.obj
 0001:00000180       ??__EatlTraceISAPI@ATL@@YAXXZ 10001180 f   StdAfx.obj
 0001:000001a0       ??__EatlTraceMap@ATL@@YAXXZ 100011a0 f   StdAfx.obj
 0001:000001c0       ??__EatlTraceNotImpl@ATL@@YAXXZ 100011c0 f   StdAfx.obj
 0001:000001e0       ??__EatlTraceQI@ATL@@YAXXZ 100011e0 f   StdAfx.obj
 0001:00000200       ??__EatlTraceRefcount@ATL@@YAXXZ 10001200 f   StdAfx.obj
 0001:00000220       ??__EatlTraceRegistrar@ATL@@YAXXZ 10001220 f   StdAfx.obj
 0001:00000240       ??__EatlTraceSecurity@ATL@@YAXXZ 10001240 f   StdAfx.obj
 0001:00000260       ??__EatlTraceSnapin@ATL@@YAXXZ 10001260 f   StdAfx.obj
 0001:00000280       ??__EatlTraceStencil@ATL@@YAXXZ 10001280 f   StdAfx.obj
 0001:000002a0       ??__EatlTraceString@ATL@@YAXXZ 100012a0 f   StdAfx.obj
 0001:000002c0       ??__EatlTraceSync@ATL@@YAXXZ 100012c0 f   StdAfx.obj
 0001:000002e0       ??__EatlTraceTime@ATL@@YAXXZ 100012e0 f   StdAfx.obj
 0001:00000300       ??__EatlTraceUtil@ATL@@YAXXZ 10001300 f   StdAfx.obj
 0001:00000320       ??__EatlTraceWindowing@ATL@@YAXXZ 10001320 f   StdAfx.obj
 0001:00000340       ??__E_AtlComModule@ATL@@YAXXZ 10001340 f   OposInternals.obj
 0001:00000370       ??__E_AtlWinModule@ATL@@YAXXZ 10001370 f   OposInternals.obj
 0001:000003a0       ??__E_Module@@YAXXZ        100013a0 f   OposInternals.obj
 0001:000003d0       ??__EatlTraceAllocation@ATL@@YAXXZ 100013d0 f   OposInternals.obj
 0001:000003f0       ??__EatlTraceCOM@ATL@@YAXXZ 100013f0 f   OposInternals.obj
 0001:00000410       ??__EatlTraceCache@ATL@@YAXXZ 10001410 f   OposInternals.obj
 0001:00000430       ??__EatlTraceControls@ATL@@YAXXZ 10001430 f   OposInternals.obj
 0001:00000450       ??__EatlTraceDBClient@ATL@@YAXXZ 10001450 f   OposInternals.obj
 0001:00000470       ??__EatlTraceDBProvider@ATL@@YAXXZ 10001470 f   OposInternals.obj
 0001:00000490       ??__EatlTraceException@ATL@@YAXXZ 10001490 f   OposInternals.obj
 0001:000004b0       ??__EatlTraceGeneral@ATL@@YAXXZ 100014b0 f   OposInternals.obj
 0001:000004d0       ??__EatlTraceHosting@ATL@@YAXXZ 100014d0 f   OposInternals.obj
 0001:000004f0       ??__EatlTraceISAPI@ATL@@YAXXZ 100014f0 f   OposInternals.obj
 0001:00000510       ??__EatlTraceMap@ATL@@YAXXZ 10001510 f   OposInternals.obj
 0001:00000530       ??__EatlTraceNotImpl@ATL@@YAXXZ 10001530 f   OposInternals.obj
 0001:00000550       ??__EatlTraceQI@ATL@@YAXXZ 10001550 f   OposInternals.obj
 0001:00000570       ??__EatlTraceRefcount@ATL@@YAXXZ 10001570 f   OposInternals.obj
 0001:00000590       ??__EatlTraceRegistrar@ATL@@YAXXZ 10001590 f   OposInternals.obj
 0001:000005b0       ??__EatlTraceSecurity@ATL@@YAXXZ 100015b0 f   OposInternals.obj
 0001:000005d0       ??__EatlTraceSnapin@ATL@@YAXXZ 100015d0 f   OposInternals.obj
 0001:000005f0       ??__EatlTraceStencil@ATL@@YAXXZ 100015f0 f   OposInternals.obj
 0001:00000610       ??__EatlTraceString@ATL@@YAXXZ 10001610 f   OposInternals.obj
 0001:00000630       ??__EatlTraceSync@ATL@@YAXXZ 10001630 f   OposInternals.obj
 0001:00000650       ??__EatlTraceTime@ATL@@YAXXZ 10001650 f   OposInternals.obj
 0001:00000670       ??__EatlTraceUtil@ATL@@YAXXZ 10001670 f   OposInternals.obj
 0001:00000690       ??__EatlTraceWindowing@ATL@@YAXXZ 10001690 f   OposInternals.obj
 0001:000006ab       ??__E_AtlBaseModule@ATL@@YAXXZ 100016ab f   atls:atlbase.obj
 0001:0000131c       $LN5                       1000231c     StdAfx.obj
 0001:00001324       $LN4                       10002324     StdAfx.obj
 0001:00001330       $LN3                       10002330     StdAfx.obj
 0001:00001528       $LN6                       10002528     StdAfx.obj
 0001:00001530       $LN5                       10002530     StdAfx.obj
 0001:0000153c       $LN4                       1000253c     StdAfx.obj
 0001:00001d38       $LN16                      10002d38     StdAfx.obj
 0001:00001d40       $LN15                      10002d40     StdAfx.obj
 0001:00001d64       $LN14                      10002d64     StdAfx.obj
 0001:00001d6d       $LN13                      10002d6d     StdAfx.obj
 0001:00001d74       $LN12                      10002d74     StdAfx.obj
 0001:00001ea4       $LN8                       10002ea4     StdAfx.obj
 0001:00001eac       $LN7                       10002eac     StdAfx.obj
 0001:00001eb8       $LN6                       10002eb8     StdAfx.obj
 0001:00002040       _memcpy_s                  10003040 f   OposInternals.obj
 0001:00002220       ?AtlFindExtension@ATL@@YAPA_WPB_W@Z 10003220 f   OposInternals.obj
 0001:000022c0       ?AtlGetDirLen@ATL@@YGIPB_W@Z 100032c0 f   OposInternals.obj
 0001:000024c0       $LN6                       100034c0     OposInternals.obj
 0001:000024c8       $LN5                       100034c8     OposInternals.obj
 0001:000024d4       $LN4                       100034d4     OposInternals.obj
 0001:00003608       $LN27                      10004608     OposInternals.obj
 0001:00003610       $LN26                      10004610     OposInternals.obj
 0001:00003640       $LN25                      10004640     OposInternals.obj
 0001:00003648       $LN24                      10004648     OposInternals.obj
 0001:00003650       $LN23                      10004650     OposInternals.obj
 0001:00003656       $LN22                      10004656     OposInternals.obj
 0001:0000381c       $LN9                       1000481c     OposInternals.obj
 0001:00003824       $LN8                       10004824     OposInternals.obj
 0001:00003830       $LN7                       10004830     OposInternals.obj
 0001:00003914       $LN7                       10004914     OposInternals.obj
 0001:0000391c       $LN6                       1000491c     OposInternals.obj
 0001:00003928       $LN5                       10004928     OposInternals.obj
 0001:00004038       $LN40                      10005038     OposInternals.obj
 0001:00004040       $LN39                      10005040     OposInternals.obj
 0001:00004088       $LN38                      10005088     OposInternals.obj
 0001:00004091       $LN37                      10005091     OposInternals.obj
 0001:000040a7       $LN36                      100050a7     OposInternals.obj
 0001:000040ad       $LN35                      100050ad     OposInternals.obj
 0001:000040ba       $LN34                      100050ba     OposInternals.obj
 0001:000040bd       $LN33                      100050bd     OposInternals.obj
 0001:000046b4       $LN6                       100056b4     OposInternals.obj
 0001:000046bc       $LN5                       100056bc     OposInternals.obj
 0001:000046c8       $LN4                       100056c8     OposInternals.obj
 0001:00004748       $LN6                       10005748     OposInternals.obj
 0001:00004750       $LN5                       10005750     OposInternals.obj
 0001:0000475c       $LN4                       1000575c     OposInternals.obj
 0001:000049cc       $LN22                      100059cc     OposInternals.obj
 0001:000049d4       $LN21                      100059d4     OposInternals.obj
 0001:000049ec       $LN20                      100059ec     OposInternals.obj
 0001:000049f4       $LN19                      100059f4     OposInternals.obj
 0001:00004d20       $LN10                      10005d20     OposInternals.obj
 0001:00004d30       $LN9                       10005d30     OposInternals.obj
 0001:00005228       $LN23                      10006228     OposInternals.obj
 0001:00005230       $LN22                      10006230     OposInternals.obj
 0001:00005254       $LN21                      10006254     OposInternals.obj
 0001:0000525a       $LN20                      1000625a     OposInternals.obj
 0001:00005263       $LN19                      10006263     OposInternals.obj
 0001:000058a4       $LN40                      100068a4     OposInternals.obj
 0001:000058ac       $LN39                      100068ac     OposInternals.obj
 0001:0000590c       $LN38                      1000690c     OposInternals.obj
 0001:00005916       $LN37                      10006916     OposInternals.obj
 0001:0000591a       $LN36                      1000691a     OposInternals.obj
 0001:0000591f       $LN35                      1000691f     OposInternals.obj
 0001:00005925       $LN34                      10006925     OposInternals.obj
 0001:0000593b       $LN33                      1000693b     OposInternals.obj
 0001:00005942       $LN32                      10006942     OposInternals.obj
 0001:00005948       $LN31                      10006948     OposInternals.obj
 0001:00005c1c       $LN19                      10006c1c     OposInternals.obj
 0001:00005c24       $LN18                      10006c24     OposInternals.obj
 0001:00005c60       $LN17                      10006c60     OposInternals.obj
 0001:00005c74       $LN16                      10006c74     OposInternals.obj
 0001:00005c81       $LN15                      10006c81     OposInternals.obj
 0001:00005c8d       $LN14                      10006c8d     OposInternals.obj
 0001:00005c96       $LN13                      10006c96     OposInternals.obj
 0001:00005ef4       $LN14                      10006ef4     OposInternals.obj
 0001:00005efc       $LN13                      10006efc     OposInternals.obj
 0001:00005f2c       $LN12                      10006f2c     OposInternals.obj
 0001:00005f40       $LN11                      10006f40     OposInternals.obj
 0001:00005f45       $LN10                      10006f45     OposInternals.obj
 0001:00005f4e       $LN9                       10006f4e     OposInternals.obj
 0001:0000616c       $LN11                      1000716c     OposInternals.obj
 0001:0000617c       $LN10                      1000717c     OposInternals.obj
 0001:00006a28       $LN15                      10007a28     OposInternals.obj
 0001:00006a30       $LN14                      10007a30     OposInternals.obj
 0001:00006a3c       $LN13                      10007a3c     OposInternals.obj
 0001:00006df0       $LN9                       10007df0     OposInternals.obj
 0001:00006df8       $LN8                       10007df8     OposInternals.obj
 0001:00006e04       $LN7                       10007e04     OposInternals.obj
 0001:00007070       $LN7                       10008070     OposInternals.obj
 0001:00007078       $LN6                       10008078     OposInternals.obj
 0001:00007648       $LN13                      10008648     OposInternals.obj
 0001:00007650       $LN12                      10008650     OposInternals.obj
 0001:0000765c       $LN11                      1000865c     OposInternals.obj
 0001:00007b68       $LN42                      10008b68     OposInternals.obj
 0001:00007b70       $LN41                      10008b70     OposInternals.obj
 0001:00007b94       $LN40                      10008b94     OposInternals.obj
 0001:00007b98       $LN39                      10008b98     OposInternals.obj
 0001:00007bac       $LN38                      10008bac     OposInternals.obj
 0001:00007d88       $LN13                      10008d88     OposInternals.obj
 0001:00007d90       $LN12                      10008d90     OposInternals.obj
 0001:00007dc0       $LN11                      10008dc0     OposInternals.obj
 0001:00007dc9       $LN10                      10008dc9     OposInternals.obj
 0001:00007dd0       $LN9                       10008dd0     OposInternals.obj
 0001:00007dd5       $LN8                       10008dd5     OposInternals.obj
 0001:0000841c       $LN17                      1000941c     OposInternals.obj
 0001:00008424       $LN16                      10009424     OposInternals.obj
 0001:0000843c       $LN15                      1000943c     OposInternals.obj
 0001:00008442       $LN14                      10009442     OposInternals.obj
 0001:00008790       $LN23                      10009790     OposInternals.obj
 0001:00008798       $LN22                      10009798     OposInternals.obj
 0001:000087bc       $LN21                      100097bc     OposInternals.obj
 0001:000087c2       $LN20                      100097c2     OposInternals.obj
 0001:000087c9       $LN19                      100097c9     OposInternals.obj
 0001:000093f4       $LN78                      1000a3f4     OposInternals.obj
 0001:000093fc       $LN77                      1000a3fc     OposInternals.obj
 0001:00009450       $LN76                      1000a450     OposInternals.obj
 0001:00009459       $LN75                      1000a459     OposInternals.obj
 0001:00009462       $LN74                      1000a462     OposInternals.obj
 0001:00009465       $LN73                      1000a465     OposInternals.obj
 0001:00009471       $LN72                      1000a471     OposInternals.obj
 0001:0000947f       $LN71                      1000a47f     OposInternals.obj
 0001:00009485       $LN70                      1000a485     OposInternals.obj
 0001:00009608       $LN5                       1000a608     OposInternals.obj
 0001:00009610       $LN4                       1000a610     OposInternals.obj
 0001:0000961c       $LN3                       1000a61c     OposInternals.obj
 0001:0000970c       $LN7                       1000a70c     OposInternals.obj
 0001:00009714       $LN6                       1000a714     OposInternals.obj
 0001:00009720       $LN5                       1000a720     OposInternals.obj
 0001:000097e8       $LN5                       1000a7e8     OposInternals.obj
 0001:000097f0       $LN4                       1000a7f0     OposInternals.obj
 0001:000097fc       $LN3                       1000a7fc     OposInternals.obj
 0001:000098ec       $LN7                       1000a8ec     OposInternals.obj
 0001:000098f4       $LN6                       1000a8f4     OposInternals.obj
 0001:00009900       $LN5                       1000a900     OposInternals.obj
 0001:00009cb4       $LN9                       1000acb4     OposInternals.obj
 0001:00009cbc       $LN8                       1000acbc     OposInternals.obj
 0001:00009cc8       $LN7                       1000acc8     OposInternals.obj
 0001:0000a69c       $LN31                      1000b69c     OposInternals.obj
 0001:0000a6a4       $LN30                      1000b6a4     OposInternals.obj
 0001:0000a6e0       $LN29                      1000b6e0     OposInternals.obj
 0001:0000a6ef       $LN28                      1000b6ef     OposInternals.obj
 0001:0000a701       $LN27                      1000b701     OposInternals.obj
 0001:0000a70a       $LN26                      1000b70a     OposInternals.obj
 0001:0000a720       $LN25                      1000b720     OposInternals.obj
 0001:0000ab8c       $LN31                      1000bb8c     OposInternals.obj
 0001:0000ab94       $LN30                      1000bb94     OposInternals.obj
 0001:0000abd0       $LN29                      1000bbd0     OposInternals.obj
 0001:0000abdf       $LN28                      1000bbdf     OposInternals.obj
 0001:0000abf1       $LN27                      1000bbf1     OposInternals.obj
 0001:0000abfa       $LN26                      1000bbfa     OposInternals.obj
 0001:0000ac10       $LN25                      1000bc10     OposInternals.obj
 0001:0000aebc       $LN11                      1000bebc     OposInternals.obj
 0001:0000aec4       $LN10                      1000bec4     OposInternals.obj
 0001:0000aedc       $LN9                       1000bedc     OposInternals.obj
 0001:0000aee1       $LN8                       1000bee1     OposInternals.obj
 0001:0000b582       _memmove_s                 1000c582 f   atls:atlbase.obj
 0001:0000b630       ?find_pe_section@@YAPAU_IMAGE_SECTION_HEADER@@QAEI@Z 1000c630 f   LIBCMTD:utility.obj
 0001:0000b6d0       ?is_potentially_valid_image_base@@YA_NQAX@Z 1000c6d0 f   LIBCMTD:utility.obj
 0001:0000c2a0       $$000000                   1000d2a0     LIBCMTD:chkstk.obj
 0001:0000c2d0       ?dllmain_crt_dispatch@@YGHQAUHINSTANCE__@@KQAX@Z 1000d2d0 f   LIBCMTD:dll_dllmain.obj
 0001:0000c33c       $LN11                      1000d33c     LIBCMTD:dll_dllmain.obj
 0001:0000c350       ?dllmain_crt_process_attach@@YAHQAUHINSTANCE__@@QAX@Z 1000d350 f   LIBCMTD:dll_dllmain.obj
 0001:0000c4c0       ?dllmain_crt_process_detach@@YAH_N@Z 1000d4c0 f   LIBCMTD:dll_dllmain.obj
 0001:0000c5c0       ?dllmain_dispatch@@YAHQAUHINSTANCE__@@KQAX@Z 1000d5c0 f   LIBCMTD:dll_dllmain.obj
 0001:0000c750       ?dllmain_raw@@YGHQAUHINSTANCE__@@KQAX@Z 1000d750 f   LIBCMTD:dll_dllmain.obj
 0001:0000c8d0       ___castguard_compat_check  1000d8d0 f   LIBCMTD:guard_support.obj
 0001:0000c9f0       ___castguard_slow_path_compat_check 1000d9f0 f   LIBCMTD:guard_support.obj
 0001:0000d0c0       ?DebuggerProbe@@YA_NK@Z    1000e0c0 f   LIBCMTD:error.obj
 0001:0000d100       ?DebuggerRuntime@@YA_NKHPAXPB_W@Z 1000e100 f   LIBCMTD:error.obj
 0001:0000d340       ?_getMemBlockDataString@@YAXPAD0PBDI@Z 1000e340 f   LIBCMTD:error.obj
 0001:0000d3b0       ?_strlen_priv@@YAIPBD@Z    1000e3b0 f   LIBCMTD:error.obj
 0001:0000d3d0       ?failwithmessage@@YAXPAXHHPBD@Z 1000e3d0 f   LIBCMTD:error.obj
 0001:0000d5d0       ?notify_debugger@@YAXABUtagEXCEPTION_VISUALCPP_DEBUG_INFO@@@Z 1000e5d0 f   LIBCMTD:error.obj
 0001:0000d857       __catch$??2@YAPAXIABUnothrow_t@std@@@Z$0 1000e857 f   LIBCMTD:new_scalar_nothrow.obj
 0001:0000d8a0       ___get_entropy             1000e8a0 f   LIBCMTD:gs_support.obj
 0001:0000da80       ?GetPdbDll@@YAPAUHINSTANCE__@@XZ 1000ea80 f   LIBCMTD:pdblkup.obj
 0001:0000dbc0       ?GetPdbDllFromInstallPath@@YAPAUHINSTANCE__@@XZ 1000ebc0 f   LIBCMTD:pdblkup.obj
 0001:0000de20       ?GetPdbDllPathFromFilePath@@YAHPB_WPA_WI@Z 1000ee20 f   LIBCMTD:pdblkup.obj
 0001:0000e650       $$000000                   1000f650     libvcruntimed:memset.obj
 0001:0000e7b0       _cmpBYTE                   1000f7b0 f   libvcruntimed:memcmp.obj
 0001:0000e7e0       _cmpDWORD                  1000f7e0 f   libvcruntimed:memcmp.obj
 0001:0000e8b0       _cmpResult                 1000f8b0 f   libvcruntimed:memcmp.obj
 0001:0000e8e0       _cmpWORD                   1000f8e0 f   libvcruntimed:memcmp.obj
 0001:0000eb04       $LN22                      1000fb04     libvcruntimed:memcmp.obj
 0001:0000eb20       _unaligned_memcmp          1000fb20 f   libvcruntimed:memcmp.obj
 0001:0000f1a4       $LN79                      100101a4     libvcruntimed:memcmp.obj
 0001:0000f230       $$000000                   10010230     libvcruntimed:memcpy.obj
 0001:0000f494       TrailingUpVec              10010494     libvcruntimed:memcpy.obj
 0001:0000f540       TrailingDownVec            10010540     libvcruntimed:memcpy.obj
 0001:0000fc80       $$000000                   10010c80     libvcruntimed:memmove.obj
 0001:0000fee4       TrailingUpVec              10010ee4     libvcruntimed:memmove.obj
 0001:0000ff90       TrailingDownVec            10010f90     libvcruntimed:memmove.obj
 0001:000102b0       _init_memcpy_functions     100112b0 f   libvcruntimed:initialization.obj
 0001:000102c0       _ValidateLocalCookies      100112c0 f   libvcruntimed:chandler4.obj
 0001:00010650       ?_FilterSetCurrentException@@YAKPAU_EXCEPTION_POINTERS@@E@Z 10011650 f   libvcruntimed:ehhelpers.obj
 0001:00010fe0       ?<lambda_invoker_cdecl>@_Closure_wrapper_ceddd679_1@@CAPAXI@Z 10011fe0 f   libvcruntimed:std_type_info.obj
 0001:00010ff0       ?<lambda_invoker_cdecl>@_Closure_wrapper_ceddd679_2@@CAXQAX@Z 10011ff0 f   libvcruntimed:std_type_info.obj
 0001:00011140       ??B_Closure_wrapper_ceddd679_1@@QBEP6APAXI@ZXZ 10012140 f   libvcruntimed:std_type_info.obj
 0001:00011150       ??B_Closure_wrapper_ceddd679_2@@QBEP6AXQAX@ZXZ 10012150 f   libvcruntimed:std_type_info.obj
 0001:00011160       ??R<lambda_1>@?1??__std_type_info_name@@YAPBDPAU__std_type_info_data@@PAU__type_info_node@@@Z@QBEPAXI@Z 10012160 f   libvcruntimed:std_type_info.obj
 0001:00011190       ??R<lambda_2>@?1??__std_type_info_name@@YAPBDPAU__std_type_info_data@@PAU__type_info_node@@@Z@QBEXQAX@Z 10012190 f   libvcruntimed:std_type_info.obj
 0001:00011910       ??0scoped_get_last_error_reset@?A0xf259c73b@@QAE@XZ 10012910 f   libvcruntimed:per_thread_data.obj
 0001:00011950       ??1scoped_get_last_error_reset@?A0xf259c73b@@QAE@XZ 10012950 f   libvcruntimed:per_thread_data.obj
 0001:00011a30       ?store_and_initialize_ptd@@YA_NQAU__vcrt_ptd@@@Z 10012a30 f   libvcruntimed:per_thread_data.obj
 0001:00011e40       $$000000                   10012e40     libvcruntimed:exsup4.obj
 0001:00011ecd       __unwind_handler4          10012ecd f   libvcruntimed:exsup4.obj
 0001:00011fb0       ___except_get_jumpbuf_sp   10012fb0 f   libvcruntimed:jbcxrval.obj
 0001:00012090       ??$BuildCatchObjectHelperInternal@V__FrameHandler3@@@@YAHPAUEHExceptionRecord@@PAXPBU_s_HandlerType@@PBU_s_CatchableType@@@Z 10013090 f   libvcruntimed:frame.obj
 0001:00012320       ??$BuildCatchObjectInternal@V__FrameHandler3@@@@YAXPAUEHExceptionRecord@@PAXPBU_s_HandlerType@@PBU_s_CatchableType@@@Z 10013320 f   libvcruntimed:frame.obj
 0001:00012450       ??$CatchIt@V__FrameHandler3@@@@YAXPAUEHExceptionRecord@@PAUEHRegistrationNode@@PAU_CONTEXT@@PAXPBU_s_FuncInfo@@PBU_s_HandlerType@@PBU_s_CatchableType@@PBU_s_TryBlockMapEntry@@H1EE@Z 10013450 f   libvcruntimed:frame.obj
 0001:00012520       ??$FindHandler@V__FrameHandler3@@@@YAXPAUEHExceptionRecord@@PAUEHRegistrationNode@@PAU_CONTEXT@@PAXPBU_s_FuncInfo@@EH1@Z 10013520 f   libvcruntimed:frame.obj
 0001:00012a60       ??$FindHandlerForForeignException@V__FrameHandler3@@@@YAXPAUEHExceptionRecord@@PAUEHRegistrationNode@@PAU_CONTEXT@@PAXPBU_s_FuncInfo@@HH1@Z 10013a60 f   libvcruntimed:frame.obj
 0001:000131d0       ?CallCatchBlock@@YAPAXPAUEHExceptionRecord@@PAUEHRegistrationNode@@PAU_CONTEXT@@PBU_s_FuncInfo@@PAXHK@Z 100141d0 f   libvcruntimed:frame.obj
 0001:00013450       ?CallUnexpected@@YAXPBU_s_ESTypeList@@@Z 10014450 f   libvcruntimed:frame.obj
 0001:00013497       __catch$?CallUnexpected@@YAXPBU_s_ESTypeList@@@Z$0 10014497 f   libvcruntimed:frame.obj
 0001:000134e0       ?ExFilterRethrow@@YAHPAU_EXCEPTION_POINTERS@@@Z 100144e0 f   libvcruntimed:frame.obj
 0001:00013700       ?IsInExceptionSpec@@YAEPAUEHExceptionRecord@@PBU_s_ESTypeList@@@Z 10014700 f   libvcruntimed:frame.obj
 0001:000137b0       ?Is_bad_exception_allowed@@YAEPBU_s_ESTypeList@@@Z 100147b0 f   libvcruntimed:frame.obj
 0001:00013a10       $$000000                   10014a10     libvcruntimed:lowhelpr.obj
 0001:00014960       ??0TrackRecursion@?1??getDecoratedName@UnDecorator@@CA?AVDName@@XZ@QAE@XZ 10015960 f   libvcruntimed:undname.obj
 0001:00014ae0       ??1TrackRecursion@?1??getDecoratedName@UnDecorator@@CA?AVDName@@XZ@QAE@XZ 10015ae0 f   libvcruntimed:undname.obj
 0001:00015420       ?IsValidIdentChar@@YA_ND@Z 10016420 f   libvcruntimed:undname.obj
 0001:000186c8       $LN57                      100196c8     libvcruntimed:undname.obj
 0001:000186f4       $LN56                      100196f4     libvcruntimed:undname.obj
 0001:00018714       $LN59                      10019714     libvcruntimed:undname.obj
 0001:00018754       $LN58                      10019754     libvcruntimed:undname.obj
 0001:000187b0       $LN61                      100197b0     libvcruntimed:undname.obj
 0001:000187c0       $LN60                      100197c0     libvcruntimed:undname.obj
 0001:000187e0       $LN63                      100197e0     libvcruntimed:undname.obj
 0001:000187e8       $LN62                      100197e8     libvcruntimed:undname.obj
 0001:00018b70       $LN21                      10019b70     libvcruntimed:undname.obj
 0001:00018b9c       $LN20                      10019b9c     libvcruntimed:undname.obj
 0001:000194c0       $LN79                      1001a4c0     libvcruntimed:undname.obj
 0001:00019ffc       $LN19                      1001affc     libvcruntimed:undname.obj
 0001:0001a1bc       $LN16                      1001b1bc     libvcruntimed:undname.obj
 0001:0001a1dc       $LN18                      1001b1dc     libvcruntimed:undname.obj
 0001:0001a1e4       $LN17                      1001b1e4     libvcruntimed:undname.obj
 0001:0001b99c       $LN66                      1001c99c     libvcruntimed:undname.obj
 0001:0001b9b8       $LN65                      1001c9b8     libvcruntimed:undname.obj
 0001:0001ba18       $LN68                      1001ca18     libvcruntimed:undname.obj
 0001:0001ba4c       $LN67                      1001ca4c     libvcruntimed:undname.obj
 0001:0001baac       $LN69                      1001caac     libvcruntimed:undname.obj
 0001:0001bac0       $LN71                      1001cac0     libvcruntimed:undname.obj
 0001:0001bad0       $LN70                      1001cad0     libvcruntimed:undname.obj
 0001:0001bec8       $LN33                      1001cec8     libvcruntimed:undname.obj
 0001:0001bedc       $LN32                      1001cedc     libvcruntimed:undname.obj
 0001:0001bf20       $LN35                      1001cf20     libvcruntimed:undname.obj
 0001:0001bf4c       $LN34                      1001cf4c     libvcruntimed:undname.obj
 0001:0001cb50       $LN40                      1001db50     libvcruntimed:undname.obj
 0001:0001cb68       $LN39                      1001db68     libvcruntimed:undname.obj
 0001:0001d518       $LN29                      1001e518     libvcruntimed:undname.obj
 0001:0001d52c       $LN28                      1001e52c     libvcruntimed:undname.obj
 0001:0001dbb8       $LN37                      1001ebb8     libvcruntimed:undname.obj
 0001:0001dbec       $LN36                      1001ebec     libvcruntimed:undname.obj
 0001:0001dc44       $LN38                      1001ec44     libvcruntimed:undname.obj
 0001:0001dc58       $LN39                      1001ec58     libvcruntimed:undname.obj
 0001:0001e80c       $LN119                     1001f80c     libvcruntimed:undname.obj
 0001:0001e828       $LN121                     1001f828     libvcruntimed:undname.obj
 0001:0001e850       $LN120                     1001f850     libvcruntimed:undname.obj
 0001:0001e8a4       $LN123                     1001f8a4     libvcruntimed:undname.obj
 0001:0001e8bc       $LN122                     1001f8bc     libvcruntimed:undname.obj
 0001:0001e928       $LN124                     1001f928     libvcruntimed:undname.obj
 0001:0001ed88       $LN17                      1001fd88     libvcruntimed:undname.obj
 0001:0001ed9c       $LN16                      1001fd9c     libvcruntimed:undname.obj
 0001:0001fa20       ?und_memcpy@@YAXPADPBDI@Z  10020a20 f   libvcruntimed:undname.obj
 0001:0001fa60       ?und_strlen@@YAIPBD@Z      10020a60 f   libvcruntimed:undname.obj
 0001:0001faa0       ?und_strncmp@@YAIPBD0I@Z   10020aa0 f   libvcruntimed:undname.obj
 0001:0001fcd0       ?invalid_function_sentinel@@YAPAXXZ 10020cd0 f   libvcruntimed:winapi_downlevel.obj
 0001:0001fce0       ?try_get_FlsAlloc@@YAP6GKP6GXPAX@Z@ZXZ 10020ce0 f   libvcruntimed:winapi_downlevel.obj
 0001:0001fd00       ?try_get_FlsFree@@YAP6GHK@ZXZ 10020d00 f   libvcruntimed:winapi_downlevel.obj
 0001:0001fd20       ?try_get_FlsGetValue@@YAP6GPAXK@ZXZ 10020d20 f   libvcruntimed:winapi_downlevel.obj
 0001:0001fd40       ?try_get_FlsSetValue@@YAP6GHKPAX@ZXZ 10020d40 f   libvcruntimed:winapi_downlevel.obj
 0001:0001fd60       ?try_get_InitializeCriticalSectionEx@@YAP6GHPAU_RTL_CRITICAL_SECTION@@KK@ZXZ 10020d60 f   libvcruntimed:winapi_downlevel.obj
 0001:0001fd80       ?try_get_first_available_module@@YAPAUHINSTANCE__@@QBW4module_id@?A0xb97aeec8@@0@Z 10020d80 f   libvcruntimed:winapi_downlevel.obj
 0001:0001fdd0       ?try_get_function@@YAPAXW4function_id@?A0xb97aeec8@@QBDQBW4module_id@2@2@Z 10020dd0 f   libvcruntimed:winapi_downlevel.obj
 0001:0001fee0       ?try_get_module@@YAPAUHINSTANCE__@@W4module_id@?A0xb97aeec8@@@Z 10020ee0 f   libvcruntimed:winapi_downlevel.obj
 0001:0001ffe0       ?try_get_proc_address_from_first_available_module@@YAPAXQBDQBW4module_id@?A0xb97aeec8@@1@Z 10020fe0 f   libvcruntimed:winapi_downlevel.obj
 0001:00020020       ?try_load_library_from_system_directory@@YAPAUHINSTANCE__@@QB_W@Z 10021020 f   libvcruntimed:winapi_downlevel.obj
 0001:000201e0       $$000000                   100211e0     libvcruntimed:exsup.obj
 0001:00020201       __unwind_handler           10021201 f   libvcruntimed:exsup.obj
 0001:00020320       ?get_unexpected_or_default@@YAP6AXXZQBU__vcrt_ptd@@@Z 10021320 f   libvcruntimed:unexpected.obj
 0001:00020550       ??$?RV<lambda_6b91fda0574d829f36484cbf4428f79d>@@AAV<lambda_a6a20e8ed7c4ffd287162f70e68c8000>@@V<lambda_6f6612a01283b279e88a3dda7d7a9d30>@@@?$__crt_seh_guarded_call@H@@QAEH$$QAV<lambda_6b91fda0574d829f36484cbf4428f79d>@@AAV<lambda_a6a20e8ed7c4ffd287162f70e68c8000>@@$$QAV<lambda_6f6612a01283b279e88a3dda7d7a9d30>@@@Z 10021550 f   libucrtd:dbgrpt.obj
 0001:000205e0       ??$?RV<lambda_b3f2a7703f147ea4aca55ed56acde2ed>@@AAV<lambda_a222bbfdcf97c91f7d8030c20e23060e>@@V<lambda_069423356000c0f10f5fe96ac65db66d>@@@?$__crt_seh_guarded_call@H@@QAEH$$QAV<lambda_b3f2a7703f147ea4aca55ed56acde2ed>@@AAV<lambda_a222bbfdcf97c91f7d8030c20e23060e>@@$$QAV<lambda_069423356000c0f10f5fe96ac65db66d>@@@Z 100215e0 f   libucrtd:dbgrpt.obj
 0001:00020670       ??$__acrt_lock_and_call@V<lambda_a222bbfdcf97c91f7d8030c20e23060e>@@@@YAHW4__acrt_lock_id@@$$QAV<lambda_a222bbfdcf97c91f7d8030c20e23060e>@@@Z 10021670 f   libucrtd:dbgrpt.obj
 0001:000206b0       ??$__acrt_lock_and_call@V<lambda_a6a20e8ed7c4ffd287162f70e68c8000>@@@@YAHW4__acrt_lock_id@@$$QAV<lambda_a6a20e8ed7c4ffd287162f70e68c8000>@@@Z 100216b0 f   libucrtd:dbgrpt.obj
 0001:000206f0       ??$common_message_window@D@@YAHHQAXQBD111@Z 100216f0 f   libucrtd:dbgrpt.obj
 0001:00020be0       ??$common_message_window@_W@@YAHHQAXQB_W111@Z 10021be0 f   libucrtd:dbgrpt.obj
 0001:000210e0       ??$common_set_report_hook@DP6AHHPADPAH@Z@@YAHHQ6AHHPADPAH@Z@Z 100220e0 f   libucrtd:dbgrpt.obj
 0001:00021200       ??$common_set_report_hook@_WP6AHHPA_WPAH@Z@@YAHHQ6AHHPA_WPAH@Z@Z 10022200 f   libucrtd:dbgrpt.obj
 0001:00021420       ??0<lambda_069423356000c0f10f5fe96ac65db66d>@@QAE@ABW4__acrt_lock_id@@@Z 10022420 f   libucrtd:dbgrpt.obj
 0001:00021440       ??0<lambda_6b91fda0574d829f36484cbf4428f79d>@@QAE@ABW4__acrt_lock_id@@@Z 10022440 f   libucrtd:dbgrpt.obj
 0001:00021460       ??0<lambda_6f6612a01283b279e88a3dda7d7a9d30>@@QAE@ABW4__acrt_lock_id@@@Z 10022460 f   libucrtd:dbgrpt.obj
 0001:00021480       ??0<lambda_a222bbfdcf97c91f7d8030c20e23060e>@@QAE@ABQ6AHHPADPAH@ZABH@Z 10022480 f   libucrtd:dbgrpt.obj
 0001:000214b0       ??0<lambda_a6a20e8ed7c4ffd287162f70e68c8000>@@QAE@ABQ6AHHPA_WPAH@ZABH@Z 100224b0 f   libucrtd:dbgrpt.obj
 0001:000214e0       ??0<lambda_b3f2a7703f147ea4aca55ed56acde2ed>@@QAE@ABW4__acrt_lock_id@@@Z 100224e0 f   libucrtd:dbgrpt.obj
 0001:000215c0       ??R<lambda_069423356000c0f10f5fe96ac65db66d>@@QBEXXZ 100225c0 f   libucrtd:dbgrpt.obj
 0001:000215e0       ??R<lambda_6b91fda0574d829f36484cbf4428f79d>@@QBEXXZ 100225e0 f   libucrtd:dbgrpt.obj
 0001:00021600       ??R<lambda_6f6612a01283b279e88a3dda7d7a9d30>@@QBEXXZ 10022600 f   libucrtd:dbgrpt.obj
 0001:00021620       ??R<lambda_a222bbfdcf97c91f7d8030c20e23060e>@@QBEHXZ 10022620 f   libucrtd:dbgrpt.obj
 0001:00021870       ??R<lambda_a6a20e8ed7c4ffd287162f70e68c8000>@@QBEHXZ 10022870 f   libucrtd:dbgrpt.obj
 0001:00021ac0       ??R<lambda_b3f2a7703f147ea4aca55ed56acde2ed>@@QBEXXZ 10022ac0 f   libucrtd:dbgrpt.obj
 0001:00021b80       ?get_output_message_format@@YAPB_WD@Z 10022b80 f   libucrtd:dbgrpt.obj
 0001:00021b90       ?get_output_message_format@@YAPB_W_W@Z 10022b90 f   libucrtd:dbgrpt.obj
 0001:00021ba0       ?get_program_name_unknown_text@@YAPBDD@Z 10022ba0 f   libucrtd:dbgrpt.obj
 0001:00021bb0       ?get_program_name_unknown_text@@YAPB_W_W@Z 10022bb0 f   libucrtd:dbgrpt.obj
 0001:00021bc0       ?get_report_hook_list@@YAAAPAU?$__crt_report_hook_node@D@@D@Z 10022bc0 f   libucrtd:dbgrpt.obj
 0001:00021bd0       ?get_report_hook_list@@YAAAPAU?$__crt_report_hook_node@_W@@_W@Z 10022bd0 f   libucrtd:dbgrpt.obj
 0001:00021ef0       ??$common_tcscpy_s@_W@@YAHQA_WIQB_W@Z 10022ef0 f   libucrtd:wcscpy_s.obj
 0001:00022230       ??$common_strnlen@$00G@@YAIQBGI@Z 10023230 f   libucrtd:strnlen.obj
 0001:00022280       ??$common_strnlen@$0A@E@@YAIQBEI@Z 10023280 f   libucrtd:strnlen.obj
 0001:000222d0       ??$common_strnlen@$0A@G@@YAIQBGI@Z 100232d0 f   libucrtd:strnlen.obj
 0001:00022320       ??$common_strnlen_c@$00G@@YAIQBGI@Z 10023320 f   libucrtd:strnlen.obj
 0001:00022380       ??$common_strnlen_c@$0A@E@@YAIQBEI@Z 10023380 f   libucrtd:strnlen.obj
 0001:000223d0       ??$common_strnlen_c@$0A@G@@YAIQBGI@Z 100233d0 f   libucrtd:strnlen.obj
 0001:00022430       ??$common_strnlen_simd@$00$00G@@YAIQBGI@Z 10023430 f   libucrtd:strnlen.obj
 0001:00022610       ??$common_strnlen_simd@$00$0A@G@@YAIQBGI@Z 10023610 f   libucrtd:strnlen.obj
 0001:000227d0       ??$common_strnlen_simd@$0A@$00E@@YAIQBEI@Z 100237d0 f   libucrtd:strnlen.obj
 0001:000229a0       ??$common_strnlen_simd@$0A@$00G@@YAIQBGI@Z 100239a0 f   libucrtd:strnlen.obj
 0001:00022b80       ??$common_strnlen_simd@$0A@$0A@E@@YAIQBEI@Z 10023b80 f   libucrtd:strnlen.obj
 0001:00022d30       ??$common_strnlen_simd@$0A@$0A@G@@YAIQBGI@Z 10023d30 f   libucrtd:strnlen.obj
 0001:00022ef0       ??$last_reached@$00@@YA_NQBX0@Z 10023ef0 f   libucrtd:strnlen.obj
 0001:00022f00       ??$last_reached@$0A@@@YA_NQBX0@Z 10023f00 f   libucrtd:strnlen.obj
 0001:00023570       ??$?RV<lambda_3cfd252a7c5e244e8f20fc56fe35ebe9>@@AAV<lambda_d7427dbf72509eba5fa970998bac2a27>@@V<lambda_8f55a0afecd2292d47fde3ce68e72492>@@@?$__crt_seh_guarded_call@H@@QAEH$$QAV<lambda_3cfd252a7c5e244e8f20fc56fe35ebe9>@@AAV<lambda_d7427dbf72509eba5fa970998bac2a27>@@$$QAV<lambda_8f55a0afecd2292d47fde3ce68e72492>@@@Z 10024570 f   libucrtd:output.obj
 0001:00023600       ??$?RV<lambda_5d912c5eb12d68f7685796d855ab8da6>@@AAV<lambda_81587a929b95143618da2bd798ca9df2>@@V<lambda_bfd63e08e93a545639db6d324cf10d1a>@@@?$__crt_seh_guarded_call@H@@QAEH$$QAV<lambda_5d912c5eb12d68f7685796d855ab8da6>@@AAV<lambda_81587a929b95143618da2bd798ca9df2>@@$$QAV<lambda_bfd63e08e93a545639db6d324cf10d1a>@@@Z 10024600 f   libucrtd:output.obj
 0001:00023690       ??$?RV<lambda_9b2bd5c6bb91c5c032542faa5c3cb611>@@AAV<lambda_be68057ced330f874c40fe9612235e36>@@V<lambda_dbd837d1c0b7fc6e2d81c287c81c071b>@@@?$__crt_seh_guarded_call@H@@QAEH$$QAV<lambda_9b2bd5c6bb91c5c032542faa5c3cb611>@@AAV<lambda_be68057ced330f874c40fe9612235e36>@@$$QAV<lambda_dbd837d1c0b7fc6e2d81c287c81c071b>@@@Z 10024690 f   libucrtd:output.obj
 0001:00023720       ??$?RV<lambda_ba8264b40644a42074cedf043e7aa388>@@AAV<lambda_9dc9bc4853282e051506c0cc602abcf3>@@V<lambda_1c412e3457517a614fb7d0c137686c95>@@@?$__crt_seh_guarded_call@H@@QAEH$$QAV<lambda_ba8264b40644a42074cedf043e7aa388>@@AAV<lambda_9dc9bc4853282e051506c0cc602abcf3>@@$$QAV<lambda_1c412e3457517a614fb7d0c137686c95>@@@Z 10024720 f   libucrtd:output.obj
 0001:000237b0       ??$?RV<lambda_c29ee0499b841886b80d843682cc403a>@@AAV<lambda_0be4ab1c2a6918fda4e39227d83ea893>@@V<lambda_5a3ed3da325c8ea037a470278c0f2d16>@@@?$__crt_seh_guarded_call@H@@QAEH$$QAV<lambda_c29ee0499b841886b80d843682cc403a>@@AAV<lambda_0be4ab1c2a6918fda4e39227d83ea893>@@$$QAV<lambda_5a3ed3da325c8ea037a470278c0f2d16>@@@Z 100247b0 f   libucrtd:output.obj
 0001:00023840       ??$?RV<lambda_cae121c7667f229345c68b3f32b19755>@@AAV<lambda_b09925f738b1434f525bf50d3162636f>@@V<lambda_18d67e1eeb4dde13899af949c649d933>@@@?$__crt_seh_guarded_call@H@@QAEH$$QAV<lambda_cae121c7667f229345c68b3f32b19755>@@AAV<lambda_b09925f738b1434f525bf50d3162636f>@@$$QAV<lambda_18d67e1eeb4dde13899af949c649d933>@@@Z 10024840 f   libucrtd:output.obj
 0001:000238d0       ??$__acrt_lock_stream_and_call@V<lambda_0be4ab1c2a6918fda4e39227d83ea893>@@@@YAHQAU_iobuf@@$$QAV<lambda_0be4ab1c2a6918fda4e39227d83ea893>@@@Z 100248d0 f   libucrtd:output.obj
 0001:00023910       ??$__acrt_lock_stream_and_call@V<lambda_81587a929b95143618da2bd798ca9df2>@@@@YAHQAU_iobuf@@$$QAV<lambda_81587a929b95143618da2bd798ca9df2>@@@Z 10024910 f   libucrtd:output.obj
 0001:00023950       ??$__acrt_lock_stream_and_call@V<lambda_9dc9bc4853282e051506c0cc602abcf3>@@@@YAHQAU_iobuf@@$$QAV<lambda_9dc9bc4853282e051506c0cc602abcf3>@@@Z 10024950 f   libucrtd:output.obj
 0001:00023990       ??$__acrt_lock_stream_and_call@V<lambda_b09925f738b1434f525bf50d3162636f>@@@@YAHQAU_iobuf@@$$QAV<lambda_b09925f738b1434f525bf50d3162636f>@@@Z 10024990 f   libucrtd:output.obj
 0001:000239d0       ??$__acrt_lock_stream_and_call@V<lambda_be68057ced330f874c40fe9612235e36>@@@@YAHQAU_iobuf@@$$QAV<lambda_be68057ced330f874c40fe9612235e36>@@@Z 100249d0 f   libucrtd:output.obj
 0001:00023a10       ??$__acrt_lock_stream_and_call@V<lambda_d7427dbf72509eba5fa970998bac2a27>@@@@YAHQAU_iobuf@@$$QAV<lambda_d7427dbf72509eba5fa970998bac2a27>@@@Z 10024a10 f   libucrtd:output.obj
 0001:00023a70       ??$common_vfprintf@Vformat_validation_base@__crt_stdio_output@@D@@YAH_KQAU_iobuf@@QBDQAU__crt_locale_pointers@@QAD@Z 10024a70 f   libucrtd:output.obj
 0001:00023ba0       ??$common_vfprintf@Vformat_validation_base@__crt_stdio_output@@_W@@YAH_KQAU_iobuf@@QB_WQAU__crt_locale_pointers@@QAD@Z 10024ba0 f   libucrtd:output.obj
 0001:00023cd0       ??$common_vfprintf@Vpositional_parameter_base@__crt_stdio_output@@D@@YAH_KQAU_iobuf@@QBDQAU__crt_locale_pointers@@QAD@Z 10024cd0 f   libucrtd:output.obj
 0001:00023e00       ??$common_vfprintf@Vpositional_parameter_base@__crt_stdio_output@@_W@@YAH_KQAU_iobuf@@QB_WQAU__crt_locale_pointers@@QAD@Z 10024e00 f   libucrtd:output.obj
 0001:00023f30       ??$common_vfprintf@Vstandard_base@__crt_stdio_output@@D@@YAH_KQAU_iobuf@@QBDQAU__crt_locale_pointers@@QAD@Z 10024f30 f   libucrtd:output.obj
 0001:00024060       ??$common_vfprintf@Vstandard_base@__crt_stdio_output@@_W@@YAH_KQAU_iobuf@@QB_WQAU__crt_locale_pointers@@QAD@Z 10025060 f   libucrtd:output.obj
 0001:00024190       ??$common_vsnprintf_s@D@@YAH_KQADIIQBDQAU__crt_locale_pointers@@1@Z 10025190 f   libucrtd:output.obj
 0001:00024560       ??$common_vsnprintf_s@_W@@YAH_KQA_WIIQB_WQAU__crt_locale_pointers@@QAD@Z 10025560 f   libucrtd:output.obj
 0001:00024940       ??$common_vsprintf@Vformat_validation_base@__crt_stdio_output@@D@@YAH_KQADIQBDQAU__crt_locale_pointers@@1@Z 10025940 f   libucrtd:output.obj
 0001:00024d70       ??$common_vsprintf@Vformat_validation_base@__crt_stdio_output@@_W@@YAH_KQA_WIQB_WQAU__crt_locale_pointers@@QAD@Z 10025d70 f   libucrtd:output.obj
 0001:000251c0       ??$common_vsprintf@Vpositional_parameter_base@__crt_stdio_output@@D@@YAH_KQADIQBDQAU__crt_locale_pointers@@1@Z 100261c0 f   libucrtd:output.obj
 0001:000255f0       ??$common_vsprintf@Vpositional_parameter_base@__crt_stdio_output@@_W@@YAH_KQA_WIQB_WQAU__crt_locale_pointers@@QAD@Z 100265f0 f   libucrtd:output.obj
 0001:00025a40       ??$common_vsprintf@Vstandard_base@__crt_stdio_output@@D@@YAH_KQADIQBDQAU__crt_locale_pointers@@1@Z 10026a40 f   libucrtd:output.obj
 0001:00025e70       ??$common_vsprintf@Vstandard_base@__crt_stdio_output@@_W@@YAH_KQA_WIQB_WQAU__crt_locale_pointers@@QAD@Z 10026e70 f   libucrtd:output.obj
 0001:000262c0       ??$common_vsprintf_s@D@@YAH_KQADIQBDQAU__crt_locale_pointers@@1@Z 100272c0 f   libucrtd:output.obj
 0001:00026550       ??$common_vsprintf_s@_W@@YAH_KQA_WIQB_WQAU__crt_locale_pointers@@QAD@Z 10027550 f   libucrtd:output.obj
 0001:0002dbb0       ??0<lambda_0be4ab1c2a6918fda4e39227d83ea893>@@QAE@ABQAU_iobuf@@ABQAU__crt_locale_pointers@@AB_KABQBDABQAD@Z 1002ebb0 f   libucrtd:output.obj
 0001:0002dbf0       ??0<lambda_18d67e1eeb4dde13899af949c649d933>@@QAE@ABQAU_iobuf@@@Z 1002ebf0 f   libucrtd:output.obj
 0001:0002dc10       ??0<lambda_1c412e3457517a614fb7d0c137686c95>@@QAE@ABQAU_iobuf@@@Z 1002ec10 f   libucrtd:output.obj
 0001:0002dc30       ??0<lambda_3cfd252a7c5e244e8f20fc56fe35ebe9>@@QAE@ABQAU_iobuf@@@Z 1002ec30 f   libucrtd:output.obj
 0001:0002dc50       ??0<lambda_5a3ed3da325c8ea037a470278c0f2d16>@@QAE@ABQAU_iobuf@@@Z 1002ec50 f   libucrtd:output.obj
 0001:0002dc70       ??0<lambda_5d912c5eb12d68f7685796d855ab8da6>@@QAE@ABQAU_iobuf@@@Z 1002ec70 f   libucrtd:output.obj
 0001:0002dc90       ??0<lambda_81587a929b95143618da2bd798ca9df2>@@QAE@ABQAU_iobuf@@ABQAU__crt_locale_pointers@@AB_KABQBDABQAD@Z 1002ec90 f   libucrtd:output.obj
 0001:0002dcd0       ??0<lambda_8f55a0afecd2292d47fde3ce68e72492>@@QAE@ABQAU_iobuf@@@Z 1002ecd0 f   libucrtd:output.obj
 0001:0002dcf0       ??0<lambda_9b2bd5c6bb91c5c032542faa5c3cb611>@@QAE@ABQAU_iobuf@@@Z 1002ecf0 f   libucrtd:output.obj
 0001:0002dd10       ??0<lambda_9dc9bc4853282e051506c0cc602abcf3>@@QAE@ABQAU_iobuf@@ABQAU__crt_locale_pointers@@AB_KABQBDABQAD@Z 1002ed10 f   libucrtd:output.obj
 0001:0002dd50       ??0<lambda_b09925f738b1434f525bf50d3162636f>@@QAE@ABQAU_iobuf@@ABQAU__crt_locale_pointers@@AB_KABQB_WABQAD@Z 1002ed50 f   libucrtd:output.obj
 0001:0002dd90       ??0<lambda_ba8264b40644a42074cedf043e7aa388>@@QAE@ABQAU_iobuf@@@Z 1002ed90 f   libucrtd:output.obj
 0001:0002ddb0       ??0<lambda_be68057ced330f874c40fe9612235e36>@@QAE@ABQAU_iobuf@@ABQAU__crt_locale_pointers@@AB_KABQB_WABQAD@Z 1002edb0 f   libucrtd:output.obj
 0001:0002ddf0       ??0<lambda_bfd63e08e93a545639db6d324cf10d1a>@@QAE@ABQAU_iobuf@@@Z 1002edf0 f   libucrtd:output.obj
 0001:0002de10       ??0<lambda_c29ee0499b841886b80d843682cc403a>@@QAE@ABQAU_iobuf@@@Z 1002ee10 f   libucrtd:output.obj
 0001:0002de30       ??0<lambda_cae121c7667f229345c68b3f32b19755>@@QAE@ABQAU_iobuf@@@Z 1002ee30 f   libucrtd:output.obj
 0001:0002de50       ??0<lambda_d7427dbf72509eba5fa970998bac2a27>@@QAE@ABQAU_iobuf@@ABQAU__crt_locale_pointers@@AB_KABQB_WABQAD@Z 1002ee50 f   libucrtd:output.obj
 0001:0002de90       ??0<lambda_dbd837d1c0b7fc6e2d81c287c81c071b>@@QAE@ABQAU_iobuf@@@Z 1002ee90 f   libucrtd:output.obj
 0001:0002ead0       ??R<lambda_0be4ab1c2a6918fda4e39227d83ea893>@@QBEHXZ 1002fad0 f   libucrtd:output.obj
 0001:0002ebc0       ??R<lambda_18d67e1eeb4dde13899af949c649d933>@@QBEXXZ 1002fbc0 f   libucrtd:output.obj
 0001:0002ebe0       ??R<lambda_1c412e3457517a614fb7d0c137686c95>@@QBEXXZ 1002fbe0 f   libucrtd:output.obj
 0001:0002ec00       ??R<lambda_3cfd252a7c5e244e8f20fc56fe35ebe9>@@QBEXXZ 1002fc00 f   libucrtd:output.obj
 0001:0002ec20       ??R<lambda_5a3ed3da325c8ea037a470278c0f2d16>@@QBEXXZ 1002fc20 f   libucrtd:output.obj
 0001:0002ec40       ??R<lambda_5d912c5eb12d68f7685796d855ab8da6>@@QBEXXZ 1002fc40 f   libucrtd:output.obj
 0001:0002ec60       ??R<lambda_81587a929b95143618da2bd798ca9df2>@@QBEHXZ 1002fc60 f   libucrtd:output.obj
 0001:0002ed50       ??R<lambda_8f55a0afecd2292d47fde3ce68e72492>@@QBEXXZ 1002fd50 f   libucrtd:output.obj
 0001:0002ed70       ??R<lambda_9b2bd5c6bb91c5c032542faa5c3cb611>@@QBEXXZ 1002fd70 f   libucrtd:output.obj
 0001:0002ed90       ??R<lambda_9dc9bc4853282e051506c0cc602abcf3>@@QBEHXZ 1002fd90 f   libucrtd:output.obj
 0001:0002ee80       ??R<lambda_b09925f738b1434f525bf50d3162636f>@@QBEHXZ 1002fe80 f   libucrtd:output.obj
 0001:0002ef70       ??R<lambda_ba8264b40644a42074cedf043e7aa388>@@QBEXXZ 1002ff70 f   libucrtd:output.obj
 0001:0002ef90       ??R<lambda_be68057ced330f874c40fe9612235e36>@@QBEHXZ 1002ff90 f   libucrtd:output.obj
 0001:0002f080       ??R<lambda_bfd63e08e93a545639db6d324cf10d1a>@@QBEXXZ 10030080 f   libucrtd:output.obj
 0001:0002f0a0       ??R<lambda_c29ee0499b841886b80d843682cc403a>@@QBEXXZ 100300a0 f   libucrtd:output.obj
 0001:0002f0c0       ??R<lambda_cae121c7667f229345c68b3f32b19755>@@QBEXXZ 100300c0 f   libucrtd:output.obj
 0001:0002f0e0       ??R<lambda_d7427dbf72509eba5fa970998bac2a27>@@QBEHXZ 100300e0 f   libucrtd:output.obj
 0001:0002f1d0       ??R<lambda_dbd837d1c0b7fc6e2d81c287c81c071b>@@QBEXXZ 100301d0 f   libucrtd:output.obj
 0001:000319b4       $LN39                      100329b4     libucrtd:output.obj
 0001:00031c64       $LN39                      10032c64     libucrtd:output.obj
 0001:00031f14       $LN39                      10032f14     libucrtd:output.obj
 0001:000321c4       $LN39                      100331c4     libucrtd:output.obj
 0001:00032474       $LN39                      10033474     libucrtd:output.obj
 0001:00032724       $LN39                      10033724     libucrtd:output.obj
 0001:000329d4       $LN39                      100339d4     libucrtd:output.obj
 0001:00032c84       $LN39                      10033c84     libucrtd:output.obj
 0001:00032f34       $LN39                      10033f34     libucrtd:output.obj
 0001:000331e4       $LN39                      100341e4     libucrtd:output.obj
 0001:00033494       $LN39                      10034494     libucrtd:output.obj
 0001:00033744       $LN39                      10034744     libucrtd:output.obj
 0001:00033f08       $LN14                      10034f08     libucrtd:output.obj
 0001:00033f20       $LN13                      10034f20     libucrtd:output.obj
 0001:00033fb8       $LN14                      10034fb8     libucrtd:output.obj
 0001:00033fd0       $LN13                      10034fd0     libucrtd:output.obj
 0001:00034068       $LN14                      10035068     libucrtd:output.obj
 0001:00034080       $LN13                      10035080     libucrtd:output.obj
 0001:00034118       $LN14                      10035118     libucrtd:output.obj
 0001:00034130       $LN13                      10035130     libucrtd:output.obj
 0001:000341c8       $LN14                      100351c8     libucrtd:output.obj
 0001:000341e0       $LN13                      100351e0     libucrtd:output.obj
 0001:00034278       $LN14                      10035278     libucrtd:output.obj
 0001:00034290       $LN13                      10035290     libucrtd:output.obj
 0001:00034328       $LN14                      10035328     libucrtd:output.obj
 0001:00034340       $LN13                      10035340     libucrtd:output.obj
 0001:000343d8       $LN14                      100353d8     libucrtd:output.obj
 0001:000343f0       $LN13                      100353f0     libucrtd:output.obj
 0001:00034488       $LN14                      10035488     libucrtd:output.obj
 0001:000344a0       $LN13                      100354a0     libucrtd:output.obj
 0001:00034538       $LN14                      10035538     libucrtd:output.obj
 0001:00034550       $LN13                      10035550     libucrtd:output.obj
 0001:000345e8       $LN14                      100355e8     libucrtd:output.obj
 0001:00034600       $LN13                      10035600     libucrtd:output.obj
 0001:00034698       $LN14                      10035698     libucrtd:output.obj
 0001:000346b0       $LN13                      100356b0     libucrtd:output.obj
 0001:000365f8       $LN54                      100375f8     libucrtd:output.obj
 0001:00036620       $LN53                      10037620     libucrtd:output.obj
 0001:000369c8       $LN54                      100379c8     libucrtd:output.obj
 0001:000369f0       $LN53                      100379f0     libucrtd:output.obj
 0001:00036d98       $LN54                      10037d98     libucrtd:output.obj
 0001:00036dc0       $LN53                      10037dc0     libucrtd:output.obj
 0001:00037168       $LN54                      10038168     libucrtd:output.obj
 0001:00037190       $LN53                      10038190     libucrtd:output.obj
 0001:00037538       $LN54                      10038538     libucrtd:output.obj
 0001:00037560       $LN53                      10038560     libucrtd:output.obj
 0001:00037908       $LN54                      10038908     libucrtd:output.obj
 0001:00037930       $LN53                      10038930     libucrtd:output.obj
 0001:00037cd8       $LN54                      10038cd8     libucrtd:output.obj
 0001:00037d00       $LN53                      10038d00     libucrtd:output.obj
 0001:000380a8       $LN54                      100390a8     libucrtd:output.obj
 0001:000380d0       $LN53                      100390d0     libucrtd:output.obj
 0001:00038478       $LN54                      10039478     libucrtd:output.obj
 0001:000384a0       $LN53                      100394a0     libucrtd:output.obj
 0001:00038848       $LN54                      10039848     libucrtd:output.obj
 0001:00038870       $LN53                      10039870     libucrtd:output.obj
 0001:00038c18       $LN54                      10039c18     libucrtd:output.obj
 0001:00038c40       $LN53                      10039c40     libucrtd:output.obj
 0001:00038fe8       $LN54                      10039fe8     libucrtd:output.obj
 0001:00039010       $LN53                      1003a010     libucrtd:output.obj
 0001:00039390       $LN44                      1003a390     libucrtd:output.obj
 0001:000393c0       $LN43                      1003a3c0     libucrtd:output.obj
 0001:00039740       $LN44                      1003a740     libucrtd:output.obj
 0001:00039770       $LN43                      1003a770     libucrtd:output.obj
 0001:00039af0       $LN44                      1003aaf0     libucrtd:output.obj
 0001:00039b20       $LN43                      1003ab20     libucrtd:output.obj
 0001:00039ea0       $LN44                      1003aea0     libucrtd:output.obj
 0001:00039ed0       $LN43                      1003aed0     libucrtd:output.obj
 0001:0003a250       $LN44                      1003b250     libucrtd:output.obj
 0001:0003a280       $LN43                      1003b280     libucrtd:output.obj
 0001:0003a600       $LN44                      1003b600     libucrtd:output.obj
 0001:0003a630       $LN43                      1003b630     libucrtd:output.obj
 0001:0003a9e0       $LN44                      1003b9e0     libucrtd:output.obj
 0001:0003aa10       $LN43                      1003ba10     libucrtd:output.obj
 0001:0003adc0       $LN44                      1003bdc0     libucrtd:output.obj
 0001:0003adf0       $LN43                      1003bdf0     libucrtd:output.obj
 0001:0003b1a0       $LN44                      1003c1a0     libucrtd:output.obj
 0001:0003b1d0       $LN43                      1003c1d0     libucrtd:output.obj
 0001:0003b580       $LN44                      1003c580     libucrtd:output.obj
 0001:0003b5b0       $LN43                      1003c5b0     libucrtd:output.obj
 0001:0003b960       $LN44                      1003c960     libucrtd:output.obj
 0001:0003b990       $LN43                      1003c990     libucrtd:output.obj
 0001:0003bd40       $LN44                      1003cd40     libucrtd:output.obj
 0001:0003bd70       $LN43                      1003cd70     libucrtd:output.obj
 0001:0003c5a0       $LN19                      1003d5a0     libucrtd:output.obj
 0001:00040318       $LN39                      10041318     libucrtd:output.obj
 0001:00040668       $LN39                      10041668     libucrtd:output.obj
 0001:000409b8       $LN39                      100419b8     libucrtd:output.obj
 0001:00040d08       $LN39                      10041d08     libucrtd:output.obj
 0001:00041058       $LN39                      10042058     libucrtd:output.obj
 0001:000413a8       $LN39                      100423a8     libucrtd:output.obj
 0001:000416fc       $LN39                      100426fc     libucrtd:output.obj
 0001:00041a4c       $LN39                      10042a4c     libucrtd:output.obj
 0001:00041d9c       $LN39                      10042d9c     libucrtd:output.obj
 0001:000420ec       $LN39                      100430ec     libucrtd:output.obj
 0001:0004243c       $LN39                      1004343c     libucrtd:output.obj
 0001:0004278c       $LN39                      1004378c     libucrtd:output.obj
 0001:00042978       $LN29                      10043978     libucrtd:output.obj
 0001:00042b68       $LN29                      10043b68     libucrtd:output.obj
 0001:00042d58       $LN29                      10043d58     libucrtd:output.obj
 0001:00042f48       $LN29                      10043f48     libucrtd:output.obj
 0001:00043138       $LN29                      10044138     libucrtd:output.obj
 0001:00043328       $LN29                      10044328     libucrtd:output.obj
 0001:00043518       $LN29                      10044518     libucrtd:output.obj
 0001:00043708       $LN29                      10044708     libucrtd:output.obj
 0001:000438f8       $LN29                      100448f8     libucrtd:output.obj
 0001:00043ae8       $LN29                      10044ae8     libucrtd:output.obj
 0001:00043cd8       $LN29                      10044cd8     libucrtd:output.obj
 0001:00043ec8       $LN29                      10044ec8     libucrtd:output.obj
 0001:00047808       $LN26                      10048808     libucrtd:output.obj
 0001:000479a8       $LN26                      100489a8     libucrtd:output.obj
 0001:00047b48       $LN26                      10048b48     libucrtd:output.obj
 0001:00047ce8       $LN26                      10048ce8     libucrtd:output.obj
 0001:0004a210       ??$common_tcscat_s@_W@@YAHQA_WIQB_W@Z 1004b210 f   libucrtd:wcscat_s.obj
 0001:0004a650       ??$common_tcsncpy_s@_W@@YAHQA_WIQB_WI@Z 1004b650 f   libucrtd:wcsncpy_s.obj
 0001:0004aaa0       ?xcptlookup@@YAPAU__crt_signal_action_t@@KQAU1@@Z 1004baa0 f   libucrtd:exception_filter.obj
 0001:0004ad0c       $LN33                      1004bd0c     libucrtd:exception_filter.obj
 0001:0004ad50       ??$?RV<lambda_03b1d95aef87969028cfba75ccab2455>@@AAV<lambda_6e4b09c48022b2350581041d5f6b0c4c>@@V<lambda_22bdf7517842c4b3e53723af5aa32b9e>@@@?$__crt_seh_guarded_call@X@@QAEX$$QAV<lambda_03b1d95aef87969028cfba75ccab2455>@@AAV<lambda_6e4b09c48022b2350581041d5f6b0c4c>@@$$QAV<lambda_22bdf7517842c4b3e53723af5aa32b9e>@@@Z 1004bd50 f   libucrtd:exit.obj
 0001:0004add0       ??$__acrt_lock_and_call@V<lambda_6e4b09c48022b2350581041d5f6b0c4c>@@@@YAXW4__acrt_lock_id@@$$QAV<lambda_6e4b09c48022b2350581041d5f6b0c4c>@@@Z 1004bdd0 f   libucrtd:exit.obj
 0001:0004ae90       ??0<lambda_03b1d95aef87969028cfba75ccab2455>@@QAE@ABW4__acrt_lock_id@@@Z 1004be90 f   libucrtd:exit.obj
 0001:0004aeb0       ??0<lambda_22bdf7517842c4b3e53723af5aa32b9e>@@QAE@ABW4__acrt_lock_id@@@Z 1004beb0 f   libucrtd:exit.obj
 0001:0004aed0       ??0<lambda_6e4b09c48022b2350581041d5f6b0c4c>@@QAE@ABW4_crt_exit_cleanup_mode@@ABW4_crt_exit_return_mode@@AA_N@Z 1004bed0 f   libucrtd:exit.obj
 0001:0004af40       ??R<lambda_03b1d95aef87969028cfba75ccab2455>@@QBEXXZ 1004bf40 f   libucrtd:exit.obj
 0001:0004af60       ??R<lambda_22bdf7517842c4b3e53723af5aa32b9e>@@QBEXXZ 1004bf60 f   libucrtd:exit.obj
 0001:0004af80       ??R<lambda_6e4b09c48022b2350581041d5f6b0c4c>@@QBE@XZ 1004bf80 f   libucrtd:exit.obj
 0001:0004b100       ?atexit_exception_filter@@YAHK@Z 1004c100 f   libucrtd:exit.obj
 0001:0004b190       ?common_exit@@YAXHW4_crt_exit_cleanup_mode@@W4_crt_exit_return_mode@@@Z 1004c190 f   libucrtd:exit.obj
 0001:0004b210       ?exit_or_terminate_process@@YAXI@Z 1004c210 f   libucrtd:exit.obj
 0001:0004b290       ?is_managed_app@@YA_NXZ    1004c290 f   libucrtd:exit.obj
 0001:0004b320       ?should_call_terminate_process@@YA_NXZ 1004c320 f   libucrtd:exit.obj
 0001:0004b370       ?try_cor_exit_process@@YAXI@Z 1004c370 f   libucrtd:exit.obj
 0001:0004b590       ??$common_configure_argv@D@@YAHW4_crt_argv_mode@@@Z 1004c590 f   libucrtd:argv_parsing.obj
 0001:0004b830       ??$common_configure_argv@_W@@YAHW4_crt_argv_mode@@@Z 1004c830 f   libucrtd:argv_parsing.obj
 0001:0004bb10       ??$parse_command_line@D@@YAXPADPAPAD0PAI2@Z 1004cb10 f   libucrtd:argv_parsing.obj
 0001:0004be80       ??$parse_command_line@_W@@YAXPA_WPAPA_W0PAI2@Z 1004ce80 f   libucrtd:argv_parsing.obj
 0001:0004c250       ??0<lambda_a36aafc41185bea294aaaa3896c79ecc>@@QAE@AAV?$__crt_unique_heap_ptr@PA_WU__crt_internal_free_policy@@@@@Z 1004d250 f   libucrtd:argv_parsing.obj
 0001:0004c270       ??0<lambda_df1553121bfa390f1154bd84936f2730>@@QAE@AAV?$__crt_unique_heap_ptr@PADU__crt_internal_free_policy@@@@@Z 1004d270 f   libucrtd:argv_parsing.obj
 0001:0004c370       ??R<lambda_a36aafc41185bea294aaaa3896c79ecc>@@QBEHXZ 1004d370 f   libucrtd:argv_parsing.obj
 0001:0004c3c0       ??R<lambda_df1553121bfa390f1154bd84936f2730>@@QBEHXZ 1004d3c0 f   libucrtd:argv_parsing.obj
 0001:0004c4a0       ?do_locale_initialization@@YAXD@Z 1004d4a0 f   libucrtd:argv_parsing.obj
 0001:0004c4b0       ?do_locale_initialization@@YAX_W@Z 1004d4b0 f   libucrtd:argv_parsing.obj
 0001:0004c4c0       ?expand_argv_wildcards@@YAHQAPADQAPAPAD@Z 1004d4c0 f   libucrtd:argv_parsing.obj
 0001:0004c4e0       ?expand_argv_wildcards@@YAHQAPA_WQAPAPA_W@Z 1004d4e0 f   libucrtd:argv_parsing.obj
 0001:0004c580       ?get_argv@@YAAAPAPADD@Z    1004d580 f   libucrtd:argv_parsing.obj
 0001:0004c590       ?get_argv@@YAAAPAPA_W_W@Z  1004d590 f   libucrtd:argv_parsing.obj
 0001:0004c5a0       ?get_command_line@@YAPADD@Z 1004d5a0 f   libucrtd:argv_parsing.obj
 0001:0004c5b0       ?get_command_line@@YAPA_W_W@Z 1004d5b0 f   libucrtd:argv_parsing.obj
 0001:0004c680       ?should_copy_another_character@@YA_ND@Z 1004d680 f   libucrtd:argv_parsing.obj
 0001:0004c6b0       ?should_copy_another_character@@YA_N_W@Z 1004d6b0 f   libucrtd:argv_parsing.obj
 0001:0004c7f4       ??$common_get_initial_environment@D@@YAPAPADXZ 1004d7f4 f   libucrtd:environment_initialization.obj
 0001:0004c808       ??$common_get_initial_environment@_W@@YAPAPA_WXZ 1004d808 f   libucrtd:environment_initialization.obj
 0001:0004c81c       ??$common_get_or_create_environment_nolock@D@@YAPAPADXZ 1004d81c f   libucrtd:environment_initialization.obj
 0001:0004c848       ??$common_get_or_create_environment_nolock@_W@@YAPAPA_WXZ 1004d848 f   libucrtd:environment_initialization.obj
 0001:0004c874       ??$common_initialize_environment_nolock@D@@YAHXZ 1004d874 f   libucrtd:environment_initialization.obj
 0001:0004c8cd       ??$common_initialize_environment_nolock@_W@@YAHXZ 1004d8cd f   libucrtd:environment_initialization.obj
 0001:0004c921       ??$count_variables_in_environment_block@D@@YA?BIQAD@Z 1004d921 f   libucrtd:environment_initialization.obj
 0001:0004c955       ??$count_variables_in_environment_block@_W@@YA?BIQA_W@Z 1004d955 f   libucrtd:environment_initialization.obj
 0001:0004c99e       ??$create_environment@D@@YAQAPADQAD@Z 1004d99e f   libucrtd:environment_initialization.obj
 0001:0004caa1       ??$create_environment@_W@@YAQAPA_WQA_W@Z 1004daa1 f   libucrtd:environment_initialization.obj
 0001:0004cbe2       ??$free_environment@D@@YAXQAPAD@Z 1004dbe2 f   libucrtd:environment_initialization.obj
 0001:0004cc15       ??$free_environment@_W@@YAXQAPA_W@Z 1004dc15 f   libucrtd:environment_initialization.obj
 0001:0004cc52       ??$initialize_environment_by_cloning_nolock@D@@YAHXZ 1004dc52 f   libucrtd:environment_initialization.obj
 0001:0004cce7       ??$initialize_environment_by_cloning_nolock@_W@@YAHXZ 1004dce7 f   libucrtd:environment_initialization.obj
 0001:0004ce6a       ??$uninitialize_environment_internal@D@@YAXAAPAPAD@Z 1004de6a f   libucrtd:environment_initialization.obj
 0001:0004ce85       ??$uninitialize_environment_internal@_W@@YAXAAPAPA_W@Z 1004de85 f   libucrtd:environment_initialization.obj
 0001:0004cf64       ?get_dual_state_environment_nolock@@YAAAV?$dual_state_global@PAPAD@__crt_state_management@@D@Z 1004df64 f   libucrtd:environment_initialization.obj
 0001:0004cf6a       ?get_dual_state_environment_nolock@@YAAAV?$dual_state_global@PAPA_W@__crt_state_management@@_W@Z 1004df6a f   libucrtd:environment_initialization.obj
 0001:0004cf70       ?get_environment_nolock@@YAAAPAPADD@Z 1004df70 f   libucrtd:environment_initialization.obj
 0001:0004cf76       ?get_environment_nolock@@YAAAPAPA_W_W@Z 1004df76 f   libucrtd:environment_initialization.obj
 0001:0004cf7c       ?get_initial_environment@@YAAAPAPADD@Z 1004df7c f   libucrtd:environment_initialization.obj
 0001:0004cf82       ?get_initial_environment@@YAAAPAPA_W_W@Z 1004df82 f   libucrtd:environment_initialization.obj
 0001:0004cfe9       ?pre_initialize@@YAXD@Z    1004dfe9 f   libucrtd:environment_initialization.obj
 0001:0004cfee       ?pre_initialize@@YAX_W@Z   1004dfee f   libucrtd:environment_initialization.obj
 0001:0004d0f0       ??$?RV<lambda_b53b013fb8c6083c10bec37d2dacc554>@@AAV<lambda_3b83eb014488ad801d84acef5aaf14d3>@@V<lambda_121992cf5e0eae5719f6e4f596aaeb4f>@@@?$__crt_seh_guarded_call@H@@QAEH$$QAV<lambda_b53b013fb8c6083c10bec37d2dacc554>@@AAV<lambda_3b83eb014488ad801d84acef5aaf14d3>@@$$QAV<lambda_121992cf5e0eae5719f6e4f596aaeb4f>@@@Z 1004e0f0 f   libucrtd:onexit.obj
 0001:0004d180       ??$?RV<lambda_d74cd35c3df28f16c733e6755eb03555>@@AAV<lambda_d121dba8a4adeaf3a9819e48611155df>@@V<lambda_ade73ae6aee997c6ba47ce5901b340f9>@@@?$__crt_seh_guarded_call@H@@QAEH$$QAV<lambda_d74cd35c3df28f16c733e6755eb03555>@@AAV<lambda_d121dba8a4adeaf3a9819e48611155df>@@$$QAV<lambda_ade73ae6aee997c6ba47ce5901b340f9>@@@Z 1004e180 f   libucrtd:onexit.obj
 0001:0004d210       ??$__acrt_lock_and_call@V<lambda_3b83eb014488ad801d84acef5aaf14d3>@@@@YAHW4__acrt_lock_id@@$$QAV<lambda_3b83eb014488ad801d84acef5aaf14d3>@@@Z 1004e210 f   libucrtd:onexit.obj
 0001:0004d250       ??$__acrt_lock_and_call@V<lambda_d121dba8a4adeaf3a9819e48611155df>@@@@YAHW4__acrt_lock_id@@$$QAV<lambda_d121dba8a4adeaf3a9819e48611155df>@@@Z 1004e250 f   libucrtd:onexit.obj
 0001:0004d380       ??0<lambda_121992cf5e0eae5719f6e4f596aaeb4f>@@QAE@ABW4__acrt_lock_id@@@Z 1004e380 f   libucrtd:onexit.obj
 0001:0004d3a0       ??0<lambda_3b83eb014488ad801d84acef5aaf14d3>@@QAE@ABQAU_onexit_table_t@@ABQ6AHXZ@Z 1004e3a0 f   libucrtd:onexit.obj
 0001:0004d3d0       ??0<lambda_ade73ae6aee997c6ba47ce5901b340f9>@@QAE@ABW4__acrt_lock_id@@@Z 1004e3d0 f   libucrtd:onexit.obj
 0001:0004d3f0       ??0<lambda_b53b013fb8c6083c10bec37d2dacc554>@@QAE@ABW4__acrt_lock_id@@@Z 1004e3f0 f   libucrtd:onexit.obj
 0001:0004d410       ??0<lambda_d121dba8a4adeaf3a9819e48611155df>@@QAE@ABQAU_onexit_table_t@@@Z 1004e410 f   libucrtd:onexit.obj
 0001:0004d430       ??0<lambda_d74cd35c3df28f16c733e6755eb03555>@@QAE@ABW4__acrt_lock_id@@@Z 1004e430 f   libucrtd:onexit.obj
 0001:0004d4a0       ??R<lambda_121992cf5e0eae5719f6e4f596aaeb4f>@@QBEXXZ 1004e4a0 f   libucrtd:onexit.obj
 0001:0004d4c0       ??R<lambda_3b83eb014488ad801d84acef5aaf14d3>@@QBEHXZ 1004e4c0 f   libucrtd:onexit.obj
 0001:0004d6d0       ??R<lambda_ade73ae6aee997c6ba47ce5901b340f9>@@QBEXXZ 1004e6d0 f   libucrtd:onexit.obj
 0001:0004d6f0       ??R<lambda_b53b013fb8c6083c10bec37d2dacc554>@@QBEXXZ 1004e6f0 f   libucrtd:onexit.obj
 0001:0004d710       ??R<lambda_d121dba8a4adeaf3a9819e48611155df>@@QBEHXZ 1004e710 f   libucrtd:onexit.obj
 0001:0004d8e0       ??R<lambda_d74cd35c3df28f16c733e6755eb03555>@@QBEXXZ 1004e8e0 f   libucrtd:onexit.obj
 0001:0004da60       _initialize_global_variables 1004ea60 f   libucrtd:initialization.obj
 0001:0004da80       _initialize_c              1004ea80 f   libucrtd:initialization.obj
 0001:0004dab0       _uninitialize_c            1004eab0 f   libucrtd:initialization.obj
 0001:0004dac0       _initialize_environment    1004eac0 f   libucrtd:initialization.obj
 0001:0004dad0       _uninitialize_environment  1004ead0 f   libucrtd:initialization.obj
 0001:0004daf0       _initialize_global_state_isolation 1004eaf0 f   libucrtd:initialization.obj
 0001:0004db00       _uninitialize_global_state_isolation 1004eb00 f   libucrtd:initialization.obj
 0001:0004db10       _initialize_pointers       1004eb10 f   libucrtd:initialization.obj
 0001:0004db80       _uninitialize_vcruntime    1004eb80 f   libucrtd:initialization.obj
 0001:0004dba0       _uninitialize_allocated_memory 1004eba0 f   libucrtd:initialization.obj
 0001:0004dbc0       _uninitialize_allocated_io_buffers 1004ebc0 f   libucrtd:initialization.obj
 0001:0004dc40       _report_memory_leaks       1004ec40 f   libucrtd:initialization.obj
 0001:0004dcc0       ??$uninitialize@V<lambda_af27fe6ede5d83bbdbd622796c194e9c>@@@?$dual_state_global@PAU__crt_multibyte_data@@@__crt_state_management@@QAEX$$QAV<lambda_af27fe6ede5d83bbdbd622796c194e9c>@@@Z 1004ecc0 f   libucrtd:initialization.obj
 0001:0004dd00       ??R<lambda_af27fe6ede5d83bbdbd622796c194e9c>@@QBEXAAPAU__crt_multibyte_data@@@Z 1004ed00 f   libucrtd:initialization.obj
 0001:0004de20       ?block_from_header@@YAPAEQAU_CrtMemBlockHeader@@@Z 1004ee20 f   libucrtd:debug_heap.obj
 0001:0004de30       ?check_block@@YA_NQAU_CrtMemBlockHeader@@@Z 1004ee30 f   libucrtd:debug_heap.obj
 0001:0004e100       ?check_bytes@@YA_NQBEEI@Z  1004f100 f   libucrtd:debug_heap.obj
 0001:0004e150       ?dump_all_object_since_nolock@@YAXQBU_CrtMemState@@@Z 1004f150 f   libucrtd:debug_heap.obj
 0001:0004e440       ?free_dbg_nolock@@YAXQAXH@Z 1004f440 f   libucrtd:debug_heap.obj
 0001:0004e8f0       ?header_from_block@@YAPAU_CrtMemBlockHeader@@QBX@Z 1004f8f0 f   libucrtd:debug_heap.obj
 0001:0004e900       ?heap_alloc_dbg@@YAPAXIHQBDH@Z 1004f900 f   libucrtd:debug_heap.obj
 0001:0004e980       ?heap_alloc_dbg_internal@@YAPAXIHQBDH@Z 1004f980 f   libucrtd:debug_heap.obj
 0001:0004ecf0       ?is_bad_read_pointer@@YA_NQBXI@Z 1004fcf0 f   libucrtd:debug_heap.obj
 0001:0004ee10       ?is_block_an_aligned_allocation@@YA_NQBX@Z 1004fe10 f   libucrtd:debug_heap.obj
 0001:0004ee40       ?is_block_type_valid@@YA_NH@Z 1004fe40 f   libucrtd:debug_heap.obj
 0001:0004ee90       ?print_block_data@@YAXQAU__crt_locale_pointers@@QAU_CrtMemBlockHeader@@@Z 1004fe90 f   libucrtd:debug_heap.obj
 0001:0004f010       ?realloc_dbg_nolock@@YAPAXQAXQAIHQBDH_N@Z 10050010 f   libucrtd:debug_heap.obj
 0001:0004f590       ?validate_heap_if_required_nolock@@YAXXZ 10050590 f   libucrtd:debug_heap.obj
 0001:00051410       ?get_terminate_or_default@@YAP6AXXZQBU__acrt_ptd@@@Z 10052410 f   libucrtd:terminate.obj
 0001:00051520       ??$common_tcscpy_s@D@@YAHQADIQBD@Z 10052520 f   libucrtd:strcpy_s.obj
 0001:00051850       ??$common_tcscat_s@D@@YAHQADIQBD@Z 10052850 f   libucrtd:strcat_s.obj
 0001:00051c80       ??$cleanup_after_error@D@@YAHQADI@Z 10052c80 f   libucrtd:makepath.obj
 0001:00051d70       ??$cleanup_after_error@_W@@YAHQA_WI@Z 10052d70 f   libucrtd:makepath.obj
 0001:00051e60       ??$common_makepath_s@D@@YAHQADIQBD111@Z 10052e60 f   libucrtd:makepath.obj
 0001:000521e0       ??$common_makepath_s@_W@@YAHQA_WIQB_W111@Z 100531e0 f   libucrtd:makepath.obj
 0001:00052590       ?previous_character@@YAPBDQBD0@Z 10053590 f   libucrtd:makepath.obj
 0001:000525b0       ?previous_character@@YAPB_WPB_WQB_W@Z 100535b0 f   libucrtd:makepath.obj
 0001:00052680       ??$common_splitpath@D@@YAXQBDQAD111@Z 10053680 f   libucrtd:splitpath.obj
 0001:00052740       ??$common_splitpath@_W@@YAXQB_WQA_W111@Z 10053740 f   libucrtd:splitpath.obj
 0001:00052800       ??$common_splitpath_internal@DV<lambda_5c4ff32f5976a52201bac3fefe2d307c>@@V<lambda_f08ea5b68bbffb4b310393ee25ffbd6b>@@@@YAHQBDQAU?$component_buffers@D@?A0x95109fda@@V<lambda_5c4ff32f5976a52201bac3fefe2d307c>@@V<lambda_f08ea5b68bbffb4b310393ee25ffbd6b>@@@Z 10053800 f   libucrtd:splitpath.obj
 0001:00052d70       ??$common_splitpath_internal@DV<lambda_81dbc9fe9823f496b2e24900666b26ca>@@V<lambda_2fb3ae78730702381aca7250c89aa958>@@@@YAHQBDQAU?$component_buffers@D@?A0x95109fda@@V<lambda_81dbc9fe9823f496b2e24900666b26ca>@@V<lambda_2fb3ae78730702381aca7250c89aa958>@@@Z 10053d70 f   libucrtd:splitpath.obj
 0001:000532e0       ??$common_splitpath_internal@_WV<lambda_8eb4cbd7e5fad28d6877d8a0675ba243>@@V<lambda_3a1c82f6b6432f82785f79f79d4ce8a8>@@@@YAHQB_WQAU?$component_buffers@_W@?A0x95109fda@@V<lambda_8eb4cbd7e5fad28d6877d8a0675ba243>@@V<lambda_3a1c82f6b6432f82785f79f79d4ce8a8>@@@Z 100542e0 f   libucrtd:splitpath.obj
 0001:00053850       ??$common_splitpath_internal@_WV<lambda_a0d0e552789b48426595119677e26b2e>@@V<lambda_b4d07a523b4d373503b74dd7549a02ff>@@@@YAHQB_WQAU?$component_buffers@_W@?A0x95109fda@@V<lambda_a0d0e552789b48426595119677e26b2e>@@V<lambda_b4d07a523b4d373503b74dd7549a02ff>@@@Z 10054850 f   libucrtd:splitpath.obj
 0001:00053dc0       ??$common_splitpath_s@D@@YAHQBDQAU?$component_buffers@D@?A0x95109fda@@@Z 10054dc0 f   libucrtd:splitpath.obj
 0001:00053df0       ??$common_splitpath_s@_W@@YAHQB_WQAU?$component_buffers@_W@?A0x95109fda@@@Z 10054df0 f   libucrtd:splitpath.obj
 0001:00053e20       ??$reset_buffers@DV<lambda_5c4ff32f5976a52201bac3fefe2d307c>@@@@YAXQAU?$component_buffers@D@?A0x95109fda@@V<lambda_5c4ff32f5976a52201bac3fefe2d307c>@@@Z 10054e20 f   libucrtd:splitpath.obj
 0001:00053e80       ??$reset_buffers@DV<lambda_81dbc9fe9823f496b2e24900666b26ca>@@@@YAXQAU?$component_buffers@D@?A0x95109fda@@V<lambda_81dbc9fe9823f496b2e24900666b26ca>@@@Z 10054e80 f   libucrtd:splitpath.obj
 0001:00053ee0       ??$reset_buffers@_WV<lambda_8eb4cbd7e5fad28d6877d8a0675ba243>@@@@YAXQAU?$component_buffers@_W@?A0x95109fda@@V<lambda_8eb4cbd7e5fad28d6877d8a0675ba243>@@@Z 10054ee0 f   libucrtd:splitpath.obj
 0001:00053f40       ??$reset_buffers@_WV<lambda_a0d0e552789b48426595119677e26b2e>@@@@YAXQAU?$component_buffers@_W@?A0x95109fda@@V<lambda_a0d0e552789b48426595119677e26b2e>@@@Z 10054f40 f   libucrtd:splitpath.obj
 0001:00054060       ??R<lambda_2fb3ae78730702381aca7250c89aa958>@@QBEII@Z 10055060 f   libucrtd:splitpath.obj
 0001:00054080       ??R<lambda_3a1c82f6b6432f82785f79f79d4ce8a8>@@QBEII@Z 10055080 f   libucrtd:splitpath.obj
 0001:000540a0       ??R<lambda_5c4ff32f5976a52201bac3fefe2d307c>@@QBEXQADI@Z 100550a0 f   libucrtd:splitpath.obj
 0001:00054110       ??R<lambda_81dbc9fe9823f496b2e24900666b26ca>@@QBEXQADI@Z 10055110 f   libucrtd:splitpath.obj
 0001:00054140       ??R<lambda_8eb4cbd7e5fad28d6877d8a0675ba243>@@QBEXQA_WI@Z 10055140 f   libucrtd:splitpath.obj
 0001:00054170       ??R<lambda_a0d0e552789b48426595119677e26b2e>@@QBEXQA_WI@Z 10055170 f   libucrtd:splitpath.obj
 0001:000541f0       ??R<lambda_b4d07a523b4d373503b74dd7549a02ff>@@QBEII@Z 100551f0 f   libucrtd:splitpath.obj
 0001:00054210       ??R<lambda_f08ea5b68bbffb4b310393ee25ffbd6b>@@QBEII@Z 10055210 f   libucrtd:splitpath.obj
 0001:00054230       ?needs_trail_byte@@YA_ND@Z 10055230 f   libucrtd:splitpath.obj
 0001:00054260       ?needs_trail_byte@@YA_N_W@Z 10055260 f   libucrtd:splitpath.obj
 0001:000546f0       $$000000                   100556f0     libucrtd:strcmp.obj
 0001:00054780       $$000000                   10055780     libucrtd:strlen.obj
 0001:000564c0       $$000000                   100574c0     libucrtd:strncmp.obj
 0001:00057b10       ??$__acrt_convert_wcs_mbs_cp@_WDV<lambda_0fec1a7b3f42a53036604e18c2d5e07e>@@U__crt_win32_buffer_no_resizing@@@@YAHQB_WAAV?$__crt_win32_buffer@DU__crt_win32_buffer_no_resizing@@@@ABV<lambda_0fec1a7b3f42a53036604e18c2d5e07e>@@I@Z 10058b10 f   libucrtd:getmodulefilenamea.obj
 0001:00057d00       ??R<lambda_0fec1a7b3f42a53036604e18c2d5e07e>@@QBEHIQB_WQADI@Z 10058d00 f   libucrtd:getmodulefilenamea.obj
 0001:00058030       ??$common_show_message_box@D@@YAHQBD0I@Z 10059030 f   libucrtd:crtmbox.obj
 0001:00058140       ??$common_show_message_box@_W@@YAHQB_W0I@Z 10059140 f   libucrtd:crtmbox.obj
 0001:000584e0       ??$?RV<lambda_cbab9ec6f41b0180b23cc171c22676b0>@@AAV<lambda_44731a7d0e6d81c3e6aa82d741081786>@@V<lambda_4b292cb8dd18144e164572427af410ab>@@@?$__crt_seh_guarded_call@P6AXH@Z@@QAEP6AXH@Z$$QAV<lambda_cbab9ec6f41b0180b23cc171c22676b0>@@AAV<lambda_44731a7d0e6d81c3e6aa82d741081786>@@$$QAV<lambda_4b292cb8dd18144e164572427af410ab>@@@Z 100594e0 f   libucrtd:signal.obj
 0001:00058570       ??$__acrt_lock_and_call@V<lambda_44731a7d0e6d81c3e6aa82d741081786>@@@@YAP6AXH@ZW4__acrt_lock_id@@$$QAV<lambda_44731a7d0e6d81c3e6aa82d741081786>@@@Z 10059570 f   libucrtd:signal.obj
 0001:00058610       ??0<lambda_4b292cb8dd18144e164572427af410ab>@@QAE@ABW4__acrt_lock_id@@@Z 10059610 f   libucrtd:signal.obj
 0001:00058630       ??0<lambda_cbab9ec6f41b0180b23cc171c22676b0>@@QAE@ABW4__acrt_lock_id@@@Z 10059630 f   libucrtd:signal.obj
 0001:00058650       ??R<lambda_44731a7d0e6d81c3e6aa82d741081786>@@QBEP6AXH@ZXZ 10059650 f   libucrtd:signal.obj
 0001:00058680       ??R<lambda_4b292cb8dd18144e164572427af410ab>@@QBEXXZ 10059680 f   libucrtd:signal.obj
 0001:000586a0       ??R<lambda_cbab9ec6f41b0180b23cc171c22676b0>@@QBEXXZ 100596a0 f   libucrtd:signal.obj
 0001:000586c0       ?ctrlevent_capture@@YGHK@Z 100596c0 f   libucrtd:signal.obj
 0001:000587f0       ?get_global_action_nolock@@YAPAP6AXH@ZH@Z 100597f0 f   libucrtd:signal.obj
 0001:00058860       $LN14                      10059860     libucrtd:signal.obj
 0001:00058878       $LN13                      10059878     libucrtd:signal.obj
 0001:000588d0       ?is_console_signal@@YAHH@Z 100598d0 f   libucrtd:signal.obj
 0001:00058900       ?is_unsupported_signal@@YAHHQ6AXH@Z@Z 10059900 f   libucrtd:signal.obj
 0001:00058930       ?siglookup@@YAPAU__crt_signal_action_t@@HQAU1@@Z 10059930 f   libucrtd:signal.obj
 0001:00058970       ?signal_failed@@YAP6AXH@ZH@Z 10059970 f   libucrtd:signal.obj
 0001:000589b4       $LN10                      100599b4     libucrtd:signal.obj
 0001:000589bc       $LN9                       100599bc     libucrtd:signal.obj
 0001:00058e1c       $LN56                      10059e1c     libucrtd:signal.obj
 0001:00058e28       $LN55                      10059e28     libucrtd:signal.obj
 0001:00059f50       ??$?RV<lambda_15ade71b0218206bbe3333a0c9b79046>@@AAV<lambda_da44e0f8b0f19ba52fefafb335991732>@@V<lambda_207f2d024fc103971653565357d6cd41>@@@?$__crt_seh_guarded_call@X@@QAEX$$QAV<lambda_15ade71b0218206bbe3333a0c9b79046>@@AAV<lambda_da44e0f8b0f19ba52fefafb335991732>@@$$QAV<lambda_207f2d024fc103971653565357d6cd41>@@@Z 1005af50 f   libucrtd:per_thread_data.obj
 0001:00059fd0       ??$?RV<lambda_6affb1475c98b40b75cdec977db92e3c>@@AAV<lambda_b8d4b9c228a6ecc3f80208dbb4b4a104>@@V<lambda_608742c3c92a14382c1684fc64f96c88>@@@?$__crt_seh_guarded_call@X@@QAEX$$QAV<lambda_6affb1475c98b40b75cdec977db92e3c>@@AAV<lambda_b8d4b9c228a6ecc3f80208dbb4b4a104>@@$$QAV<lambda_608742c3c92a14382c1684fc64f96c88>@@@Z 1005afd0 f   libucrtd:per_thread_data.obj
 0001:0005a050       ??$?RV<lambda_a7e850c220f1c8d1e6efeecdedd162c6>@@AAV<lambda_46720907175c18b6c9d2717bc0d2d362>@@V<lambda_9048902d66e8d99359bc9897bbb930a8>@@@?$__crt_seh_guarded_call@X@@QAEX$$QAV<lambda_a7e850c220f1c8d1e6efeecdedd162c6>@@AAV<lambda_46720907175c18b6c9d2717bc0d2d362>@@$$QAV<lambda_9048902d66e8d99359bc9897bbb930a8>@@@Z 1005b050 f   libucrtd:per_thread_data.obj
 0001:0005a0d0       ??$?RV<lambda_eb0e2b1d104b126d27395a74edba6f03>@@AAV<lambda_d51eb34c9f7d53dbc39f6b791b6a3e42>@@V<lambda_f7564ebddb1f0eaf818ab6f3eade8363>@@@?$__crt_seh_guarded_call@X@@QAEX$$QAV<lambda_eb0e2b1d104b126d27395a74edba6f03>@@AAV<lambda_d51eb34c9f7d53dbc39f6b791b6a3e42>@@$$QAV<lambda_f7564ebddb1f0eaf818ab6f3eade8363>@@@Z 1005b0d0 f   libucrtd:per_thread_data.obj
 0001:0005a150       ??$__acrt_lock_and_call@V<lambda_46720907175c18b6c9d2717bc0d2d362>@@@@YAXW4__acrt_lock_id@@$$QAV<lambda_46720907175c18b6c9d2717bc0d2d362>@@@Z 1005b150 f   libucrtd:per_thread_data.obj
 0001:0005a190       ??$__acrt_lock_and_call@V<lambda_b8d4b9c228a6ecc3f80208dbb4b4a104>@@@@YAXW4__acrt_lock_id@@$$QAV<lambda_b8d4b9c228a6ecc3f80208dbb4b4a104>@@@Z 1005b190 f   libucrtd:per_thread_data.obj
 0001:0005a1d0       ??$__acrt_lock_and_call@V<lambda_d51eb34c9f7d53dbc39f6b791b6a3e42>@@@@YAXW4__acrt_lock_id@@$$QAV<lambda_d51eb34c9f7d53dbc39f6b791b6a3e42>@@@Z 1005b1d0 f   libucrtd:per_thread_data.obj
 0001:0005a210       ??$__acrt_lock_and_call@V<lambda_da44e0f8b0f19ba52fefafb335991732>@@@@YAXW4__acrt_lock_id@@$$QAV<lambda_da44e0f8b0f19ba52fefafb335991732>@@@Z 1005b210 f   libucrtd:per_thread_data.obj
 0001:0005a250       ??0<lambda_15ade71b0218206bbe3333a0c9b79046>@@QAE@ABW4__acrt_lock_id@@@Z 1005b250 f   libucrtd:per_thread_data.obj
 0001:0005a270       ??0<lambda_207f2d024fc103971653565357d6cd41>@@QAE@ABW4__acrt_lock_id@@@Z 1005b270 f   libucrtd:per_thread_data.obj
 0001:0005a290       ??0<lambda_46720907175c18b6c9d2717bc0d2d362>@@QAE@ABQAU__acrt_ptd@@ABQAPAU__crt_locale_data@@@Z 1005b290 f   libucrtd:per_thread_data.obj
 0001:0005a2c0       ??0<lambda_608742c3c92a14382c1684fc64f96c88>@@QAE@ABW4__acrt_lock_id@@@Z 1005b2c0 f   libucrtd:per_thread_data.obj
 0001:0005a2e0       ??0<lambda_6affb1475c98b40b75cdec977db92e3c>@@QAE@ABW4__acrt_lock_id@@@Z 1005b2e0 f   libucrtd:per_thread_data.obj
 0001:0005a300       ??0<lambda_9048902d66e8d99359bc9897bbb930a8>@@QAE@ABW4__acrt_lock_id@@@Z 1005b300 f   libucrtd:per_thread_data.obj
 0001:0005a320       ??0<lambda_a7e850c220f1c8d1e6efeecdedd162c6>@@QAE@ABW4__acrt_lock_id@@@Z 1005b320 f   libucrtd:per_thread_data.obj
 0001:0005a340       ??0<lambda_b8d4b9c228a6ecc3f80208dbb4b4a104>@@QAE@ABQAU__acrt_ptd@@@Z 1005b340 f   libucrtd:per_thread_data.obj
 0001:0005a360       ??0<lambda_d51eb34c9f7d53dbc39f6b791b6a3e42>@@QAE@ABQAU__acrt_ptd@@@Z 1005b360 f   libucrtd:per_thread_data.obj
 0001:0005a380       ??0<lambda_da44e0f8b0f19ba52fefafb335991732>@@QAE@ABQAU__acrt_ptd@@@Z 1005b380 f   libucrtd:per_thread_data.obj
 0001:0005a3a0       ??0<lambda_eb0e2b1d104b126d27395a74edba6f03>@@QAE@ABW4__acrt_lock_id@@@Z 1005b3a0 f   libucrtd:per_thread_data.obj
 0001:0005a3c0       ??0<lambda_f7564ebddb1f0eaf818ab6f3eade8363>@@QAE@ABW4__acrt_lock_id@@@Z 1005b3c0 f   libucrtd:per_thread_data.obj
 0001:0005a480       ??R<lambda_15ade71b0218206bbe3333a0c9b79046>@@QBEXXZ 1005b480 f   libucrtd:per_thread_data.obj
 0001:0005a4a0       ??R<lambda_207f2d024fc103971653565357d6cd41>@@QBEXXZ 1005b4a0 f   libucrtd:per_thread_data.obj
 0001:0005a4c0       ??R<lambda_46720907175c18b6c9d2717bc0d2d362>@@QBEXXZ 1005b4c0 f   libucrtd:per_thread_data.obj
 0001:0005a4f0       ??R<lambda_608742c3c92a14382c1684fc64f96c88>@@QBEXXZ 1005b4f0 f   libucrtd:per_thread_data.obj
 0001:0005a510       ??R<lambda_6affb1475c98b40b75cdec977db92e3c>@@QBEXXZ 1005b510 f   libucrtd:per_thread_data.obj
 0001:0005a530       ??R<lambda_9048902d66e8d99359bc9897bbb930a8>@@QBEXXZ 1005b530 f   libucrtd:per_thread_data.obj
 0001:0005a550       ??R<lambda_a7e850c220f1c8d1e6efeecdedd162c6>@@QBEXXZ 1005b550 f   libucrtd:per_thread_data.obj
 0001:0005a570       ??R<lambda_b8d4b9c228a6ecc3f80208dbb4b4a104>@@QBEXXZ 1005b570 f   libucrtd:per_thread_data.obj
 0001:0005a590       ??R<lambda_d51eb34c9f7d53dbc39f6b791b6a3e42>@@QBEXXZ 1005b590 f   libucrtd:per_thread_data.obj
 0001:0005a5e0       ??R<lambda_da44e0f8b0f19ba52fefafb335991732>@@QBEXXZ 1005b5e0 f   libucrtd:per_thread_data.obj
 0001:0005a600       ??R<lambda_eb0e2b1d104b126d27395a74edba6f03>@@QBEXXZ 1005b600 f   libucrtd:per_thread_data.obj
 0001:0005a620       ??R<lambda_f7564ebddb1f0eaf818ab6f3eade8363>@@QBEXXZ 1005b620 f   libucrtd:per_thread_data.obj
 0001:0005a640       ?construct_ptd@@YAXQAU__acrt_ptd@@QAPAU__crt_locale_data@@@Z 1005b640 f   libucrtd:per_thread_data.obj
 0001:0005a6f0       ?construct_ptd_array@@YAXQAU__acrt_ptd@@@Z 1005b6f0 f   libucrtd:per_thread_data.obj
 0001:0005a750       ?destroy_fls@@YGXPAX@Z     1005b750 f   libucrtd:per_thread_data.obj
 0001:0005a780       ?destroy_ptd@@YAXQAU__acrt_ptd@@@Z 1005b780 f   libucrtd:per_thread_data.obj
 0001:0005a880       ?destroy_ptd_array@@YAXQAU__acrt_ptd@@@Z 1005b880 f   libucrtd:per_thread_data.obj
 0001:0005a920       ?internal_get_ptd_head@@YAPAU__acrt_ptd@@XZ 1005b920 f   libucrtd:per_thread_data.obj
 0001:0005aa20       ?internal_getptd_noexit@@YAPAU__acrt_ptd@@XZ 1005ba20 f   libucrtd:per_thread_data.obj
 0001:0005aae0       ?replace_current_thread_locale_nolock@@YAXQAU__acrt_ptd@@QAU__crt_locale_data@@@Z 1005bae0 f   libucrtd:per_thread_data.obj
 0001:0005ab60       ?try_get_ptd_head@@YAPAU__acrt_ptd@@XZ 1005bb60 f   libucrtd:per_thread_data.obj
 0001:0005af10       ?fe_to_nearest@@YA_NQBN_KF@Z 1005bf10 f   libucrtd:cvt.obj
 0001:0005b050       ?fp_format_a@@YAHQBNPADIQADIH_NIQAU__crt_locale_pointers@@W4__acrt_rounding_mode@@@Z 1005c050 f   libucrtd:cvt.obj
 0001:0005b710       ?fp_format_e@@YAHQBNQADI1IH_NIQAU__crt_locale_pointers@@W4__acrt_rounding_mode@@@Z 1005c710 f   libucrtd:cvt.obj
 0001:0005b860       ?fp_format_e_internal@@YAHQADIH_NIQAU_strflt@@1QAU__crt_locale_pointers@@@Z 1005c860 f   libucrtd:cvt.obj
 0001:0005bb40       ?fp_format_f@@YAHQBNQADI1IHQAU__crt_locale_pointers@@W4__acrt_rounding_mode@@@Z 1005cb40 f   libucrtd:cvt.obj
 0001:0005bc20       ?fp_format_f_internal@@YAHQADIHQAU_strflt@@_NQAU__crt_locale_pointers@@@Z 1005cc20 f   libucrtd:cvt.obj
 0001:0005bde0       ?fp_format_g@@YAHQBNQADI1IH_NIQAU__crt_locale_pointers@@@Z 1005cde0 f   libucrtd:cvt.obj
 0001:0005bf50       ?fp_format_nan_or_infinity@@YAHW4__acrt_fp_class@@_NPADI1@Z 1005cf50 f   libucrtd:cvt.obj
 0001:0005c060       ?shift_bytes@@YAXQADI0H@Z  1005d060 f   libucrtd:cvt.obj
 0001:0005c090       ?should_round_up@@YA_NQBN_KFW4__acrt_rounding_mode@@@Z 1005d090 f   libucrtd:cvt.obj
 0001:0005c5d0       $LN42                      1005d5d0     libucrtd:cvt.obj
 0001:0005c5e4       $LN41                      1005d5e4     libucrtd:cvt.obj
 0001:0005c610       ?fputwc_binary_nolock@@YAG_WV__crt_stdio_stream@@@Z 1005d610 f   libucrtd:fputwc.obj
 0001:0005d650       _no_op_initialize          1005e650 f   libucrtd:wsetlocale.obj
 0001:0005d6c0       ??$?RV<lambda_0ff85b93027346d7432bb3023aec6ca2>@@AAV<lambda_68d7bddd96f25fcce1ffdf2015caa5ef>@@V<lambda_76dfb5fad0972d29fc31689647b14724>@@@?$__crt_seh_guarded_call@X@@QAEX$$QAV<lambda_0ff85b93027346d7432bb3023aec6ca2>@@AAV<lambda_68d7bddd96f25fcce1ffdf2015caa5ef>@@$$QAV<lambda_76dfb5fad0972d29fc31689647b14724>@@@Z 1005e6c0 f   libucrtd:wsetlocale.obj
 0001:0005d740       ??$?RV<lambda_6673f7c4c09a5d469d0c27ae364621ce>@@AAV<lambda_ebab98244f73a74f49db879bf13fa982>@@V<lambda_be20789b7a146653eab82509ec35b419>@@@?$__crt_seh_guarded_call@X@@QAEX$$QAV<lambda_6673f7c4c09a5d469d0c27ae364621ce>@@AAV<lambda_ebab98244f73a74f49db879bf13fa982>@@$$QAV<lambda_be20789b7a146653eab82509ec35b419>@@@Z 1005e740 f   libucrtd:wsetlocale.obj
 0001:0005d7c0       ??$?RV<lambda_82aef432098b982f9ede325b418aa67a>@@AAV<lambda_862e9a3f04921db6ca1ce3faa2bf3edf>@@V<lambda_ffabc152e504b53d7492b9889b10c020>@@@?$__crt_seh_guarded_call@X@@QAEX$$QAV<lambda_82aef432098b982f9ede325b418aa67a>@@AAV<lambda_862e9a3f04921db6ca1ce3faa2bf3edf>@@$$QAV<lambda_ffabc152e504b53d7492b9889b10c020>@@@Z 1005e7c0 f   libucrtd:wsetlocale.obj
 0001:0005d840       ??$?RV<lambda_e3d3a36ab7e68c499af6ccbe85f8d9f4>@@AAV<lambda_c71b65d7ce90e870fe94dc13983de2af>@@AAV<lambda_02db5278e8aef8b5e4976579d73f5304>@@@?$__crt_seh_guarded_call@X@@QAEX$$QAV<lambda_e3d3a36ab7e68c499af6ccbe85f8d9f4>@@AAV<lambda_c71b65d7ce90e870fe94dc13983de2af>@@AAV<lambda_02db5278e8aef8b5e4976579d73f5304>@@@Z 1005e840 f   libucrtd:wsetlocale.obj
 0001:0005d8c0       ??$?RV<lambda_e5124f882df8998aaf41531e079ba474>@@AAV<lambda_3e16ef9562a7dcce91392c22ab16ea36>@@V<lambda_e25ca0880e6ef98be67edffd8c599615>@@@?$__crt_seh_guarded_call@X@@QAEX$$QAV<lambda_e5124f882df8998aaf41531e079ba474>@@AAV<lambda_3e16ef9562a7dcce91392c22ab16ea36>@@$$QAV<lambda_e25ca0880e6ef98be67edffd8c599615>@@@Z 1005e8c0 f   libucrtd:wsetlocale.obj
 0001:0005d940       ??$__acrt_lock_and_call@V<lambda_3e16ef9562a7dcce91392c22ab16ea36>@@@@YAXW4__acrt_lock_id@@$$QAV<lambda_3e16ef9562a7dcce91392c22ab16ea36>@@@Z 1005e940 f   libucrtd:wsetlocale.obj
 0001:0005d980       ??$__acrt_lock_and_call@V<lambda_68d7bddd96f25fcce1ffdf2015caa5ef>@@@@YAXW4__acrt_lock_id@@$$QAV<lambda_68d7bddd96f25fcce1ffdf2015caa5ef>@@@Z 1005e980 f   libucrtd:wsetlocale.obj
 0001:0005d9c0       ??$__acrt_lock_and_call@V<lambda_862e9a3f04921db6ca1ce3faa2bf3edf>@@@@YAXW4__acrt_lock_id@@$$QAV<lambda_862e9a3f04921db6ca1ce3faa2bf3edf>@@@Z 1005e9c0 f   libucrtd:wsetlocale.obj
 0001:0005da00       ??$__acrt_lock_and_call@V<lambda_ebab98244f73a74f49db879bf13fa982>@@@@YAXW4__acrt_lock_id@@$$QAV<lambda_ebab98244f73a74f49db879bf13fa982>@@@Z 1005ea00 f   libucrtd:wsetlocale.obj
 0001:0005da40       ??$__crt_call_and_cleanup@V<lambda_c71b65d7ce90e870fe94dc13983de2af>@@V<lambda_02db5278e8aef8b5e4976579d73f5304>@@@@YAX$$QAV<lambda_c71b65d7ce90e870fe94dc13983de2af>@@$$QAV<lambda_02db5278e8aef8b5e4976579d73f5304>@@@Z 1005ea40 f   libucrtd:wsetlocale.obj
 0001:0005da70       ??$uninitialize@V<lambda_88ce03f932007f29bf8b8056cbaba4f3>@@@?$dual_state_global@PAU__crt_locale_data@@@__crt_state_management@@QAEX$$QAV<lambda_88ce03f932007f29bf8b8056cbaba4f3>@@@Z 1005ea70 f   libucrtd:wsetlocale.obj
 0001:0005dab0       ??0<lambda_02db5278e8aef8b5e4976579d73f5304>@@QAE@ABQAU__acrt_ptd@@@Z 1005eab0 f   libucrtd:wsetlocale.obj
 0001:0005dad0       ??0<lambda_0ff85b93027346d7432bb3023aec6ca2>@@QAE@ABW4__acrt_lock_id@@@Z 1005ead0 f   libucrtd:wsetlocale.obj
 0001:0005daf0       ??0<lambda_6673f7c4c09a5d469d0c27ae364621ce>@@QAE@ABW4__acrt_lock_id@@@Z 1005eaf0 f   libucrtd:wsetlocale.obj
 0001:0005db10       ??0<lambda_68d7bddd96f25fcce1ffdf2015caa5ef>@@QAE@AAPAU__crt_locale_data@@ABQAU__acrt_ptd@@AAPA_WAAHAAPB_W@Z 1005eb10 f   libucrtd:wsetlocale.obj
 0001:0005db50       ??0<lambda_76dfb5fad0972d29fc31689647b14724>@@QAE@ABW4__acrt_lock_id@@@Z 1005eb50 f   libucrtd:wsetlocale.obj
 0001:0005db70       ??0<lambda_82aef432098b982f9ede325b418aa67a>@@QAE@ABW4__acrt_lock_id@@@Z 1005eb70 f   libucrtd:wsetlocale.obj
 0001:0005db90       ??0<lambda_862e9a3f04921db6ca1ce3faa2bf3edf>@@QAE@AAV?$__crt_unique_heap_ptr@U__crt_locale_pointers@@U__crt_internal_free_policy@@@@@Z 1005eb90 f   libucrtd:wsetlocale.obj
 0001:0005dbb0       ??0<lambda_be20789b7a146653eab82509ec35b419>@@QAE@ABW4__acrt_lock_id@@@Z 1005ebb0 f   libucrtd:wsetlocale.obj
 0001:0005dbd0       ??0<lambda_c71b65d7ce90e870fe94dc13983de2af>@@QAE@AAPAU__crt_locale_data@@ABQAU__acrt_ptd@@AAPA_WAAHAAPB_W@Z 1005ebd0 f   libucrtd:wsetlocale.obj
 0001:0005dc10       ??0<lambda_e25ca0880e6ef98be67edffd8c599615>@@QAE@ABW4__acrt_lock_id@@@Z 1005ec10 f   libucrtd:wsetlocale.obj
 0001:0005dc30       ??0<lambda_e5124f882df8998aaf41531e079ba474>@@QAE@ABW4__acrt_lock_id@@@Z 1005ec30 f   libucrtd:wsetlocale.obj
 0001:0005dc50       ??0<lambda_ebab98244f73a74f49db879bf13fa982>@@QAE@AAV?$__crt_unique_heap_ptr@U__crt_locale_pointers@@U__crt_internal_free_policy@@@@@Z 1005ec50 f   libucrtd:wsetlocale.obj
 0001:0005dc70       ??0<lambda_ffabc152e504b53d7492b9889b10c020>@@QAE@ABW4__acrt_lock_id@@@Z 1005ec70 f   libucrtd:wsetlocale.obj
 0001:0005de80       ??R<lambda_02db5278e8aef8b5e4976579d73f5304>@@QBEXXZ 1005ee80 f   libucrtd:wsetlocale.obj
 0001:0005dea0       ??R<lambda_0ff85b93027346d7432bb3023aec6ca2>@@QBEXXZ 1005eea0 f   libucrtd:wsetlocale.obj
 0001:0005dec0       ??R<lambda_3e16ef9562a7dcce91392c22ab16ea36>@@QBE@XZ 1005eec0 f   libucrtd:wsetlocale.obj
 0001:0005def0       ??R<lambda_6673f7c4c09a5d469d0c27ae364621ce>@@QBEXXZ 1005eef0 f   libucrtd:wsetlocale.obj
 0001:0005df10       ??R<lambda_68d7bddd96f25fcce1ffdf2015caa5ef>@@QBEXXZ 1005ef10 f   libucrtd:wsetlocale.obj
 0001:0005e030       ??R<lambda_76dfb5fad0972d29fc31689647b14724>@@QBEXXZ 1005f030 f   libucrtd:wsetlocale.obj
 0001:0005e050       ??R<lambda_82aef432098b982f9ede325b418aa67a>@@QBEXXZ 1005f050 f   libucrtd:wsetlocale.obj
 0001:0005e070       ??R<lambda_862e9a3f04921db6ca1ce3faa2bf3edf>@@QBEXXZ 1005f070 f   libucrtd:wsetlocale.obj
 0001:0005e0a0       ??R<lambda_88ce03f932007f29bf8b8056cbaba4f3>@@QBEXAAPAU__crt_locale_data@@@Z 1005f0a0 f   libucrtd:wsetlocale.obj
 0001:0005e0e0       ??R<lambda_be20789b7a146653eab82509ec35b419>@@QBEXXZ 1005f0e0 f   libucrtd:wsetlocale.obj
 0001:0005e100       ??R<lambda_c71b65d7ce90e870fe94dc13983de2af>@@QBE@XZ 1005f100 f   libucrtd:wsetlocale.obj
 0001:0005e1b0       ??R<lambda_e25ca0880e6ef98be67edffd8c599615>@@QBEXXZ 1005f1b0 f   libucrtd:wsetlocale.obj
 0001:0005e1d0       ??R<lambda_e3d3a36ab7e68c499af6ccbe85f8d9f4>@@QBEXXZ 1005f1d0 f   libucrtd:wsetlocale.obj
 0001:0005e1e0       ??R<lambda_e5124f882df8998aaf41531e079ba474>@@QBEXXZ 1005f1e0 f   libucrtd:wsetlocale.obj
 0001:0005e200       ??R<lambda_ebab98244f73a74f49db879bf13fa982>@@QBEXXZ 1005f200 f   libucrtd:wsetlocale.obj
 0001:0005e220       ??R<lambda_ffabc152e504b53d7492b9889b10c020>@@QBEXXZ 1005f220 f   libucrtd:wsetlocale.obj
 0001:0005ea24       $LN20                      1005fa24     libucrtd:wsetlocale.obj
 0001:0005ea40       __copytlocinfo_nolock      1005fa40 f   libucrtd:wsetlocale.obj
 0001:0005eb10       __expandlocale             1005fb10 f   libucrtd:wsetlocale.obj
 0001:0005f680       __wsetlocale_get_all       10060680 f   libucrtd:wsetlocale.obj
 0001:0005fa40       __wsetlocale_nolock        10060a40 f   libucrtd:wsetlocale.obj
 0001:0005fea0       __wsetlocale_set_cat       10060ea0 f   libucrtd:wsetlocale.obj
 0001:00060490       _categorize_delimiter      10061490 f   libucrtd:wsetlocale.obj
 0001:000604d0       _get_default_code_page     100614d0 f   libucrtd:wsetlocale.obj
 0001:00060510       _parse_bcp47               10061510 f   libucrtd:wsetlocale.obj
 0001:00060850       $LN29                      10061850     libucrtd:wsetlocale.obj
 0001:00060860       _parse_bcp47_code_page     10061860 f   libucrtd:wsetlocale.obj
 0001:000608c0       _parse_bcp47_language      100618c0 f   libucrtd:wsetlocale.obj
 0001:00060990       _parse_bcp47_region        10061990 f   libucrtd:wsetlocale.obj
 0001:00060ac0       _parse_bcp47_script        10061ac0 f   libucrtd:wsetlocale.obj
 0001:00060b90       _string_is_alpha           10061b90 f   libucrtd:wsetlocale.obj
 0001:00060be0       _string_is_digit           10061be0 f   libucrtd:wsetlocale.obj
 0001:00060c30       _sync_legacy_variables_lk  10061c30 f   libucrtd:wsetlocale.obj
 0001:00060cc0       ?get_std_handle_id@@YAKH@Z 10061cc0 f   libucrtd:ioinit.obj
 0001:00060d00       ?initialize_inherited_file_handles_nolock@@YAXXZ 10061d00 f   libucrtd:ioinit.obj
 0001:00060e30       ?initialize_stdio_handles_nolock@@YAXXZ 10061e30 f   libucrtd:ioinit.obj
 0001:000611e0       ??$get_cached_win_policy@Ubegin_thread_init_policy_properties@?1??__acrt_get_begin_thread_init_policy@@YA?AW4begin_thread_init_policy@@XZ@@@YA?AW4begin_thread_init_policy@@W4AppPolicyThreadInitializationType@@@Z 100621e0 f   libucrtd:win_policies.obj
 0001:00061280       ??$get_cached_win_policy@Udeveloper_information_policy_properties@?1??__acrt_get_developer_information_policy@@YA?AW4developer_information_policy@@XZ@@@YA?AW4developer_information_policy@@W4AppPolicyShowDeveloperDiagnostic@@@Z 10062280 f   libucrtd:win_policies.obj
 0001:00061320       ??$get_cached_win_policy@Uwindowing_model_policy_properties@?1??__acrt_get_windowing_model_policy@@YA?AW4windowing_model_policy@@XZ@@@YA?AW4windowing_model_policy@@W4AppPolicyWindowingModel@@@Z 10062320 f   libucrtd:win_policies.obj
 0001:000613c0       ??$get_win_policy@Uprocess_end_policy_properties@?1??__acrt_get_process_end_policy@@YA?AW4process_end_policy@@XZ@@@YA?AW4process_end_policy@@W4AppPolicyProcessTerminationMethod@@@Z 100623c0 f   libucrtd:win_policies.obj
 0001:00061400       ?appmodel_get_policy@begin_thread_init_policy_properties@?1??__acrt_get_begin_thread_init_policy@@YA?AW4begin_thread_init_policy@@XZ@SAJPAW4AppPolicyThreadInitializationType@@@Z 10062400 f   libucrtd:win_policies.obj
 0001:00061410       ?appmodel_get_policy@developer_information_policy_properties@?1??__acrt_get_developer_information_policy@@YA?AW4developer_information_policy@@XZ@SAJPAW4AppPolicyShowDeveloperDiagnostic@@@Z 10062410 f   libucrtd:win_policies.obj
 0001:00061420       ?appmodel_get_policy@process_end_policy_properties@?1??__acrt_get_process_end_policy@@YA?AW4process_end_policy@@XZ@SAJPAW4AppPolicyProcessTerminationMethod@@@Z 10062420 f   libucrtd:win_policies.obj
 0001:00061430       ?appmodel_get_policy@windowing_model_policy_properties@?1??__acrt_get_windowing_model_policy@@YA?AW4windowing_model_policy@@XZ@SAJPAW4AppPolicyWindowingModel@@@Z 10062430 f   libucrtd:win_policies.obj
 0001:00061440       ?appmodel_policy_to_policy_type@begin_thread_init_policy_properties@?1??__acrt_get_begin_thread_init_policy@@YA?AW4begin_thread_init_policy@@XZ@SA?AW43@J@Z 10062440 f   libucrtd:win_policies.obj
 0001:00061460       ?appmodel_policy_to_policy_type@developer_information_policy_properties@?1??__acrt_get_developer_information_policy@@YA?AW4developer_information_policy@@XZ@SA?AW43@J@Z 10062460 f   libucrtd:win_policies.obj
 0001:00061480       ?appmodel_policy_to_policy_type@process_end_policy_properties@?1??__acrt_get_process_end_policy@@YA?AW4process_end_policy@@XZ@SA?AW43@W4AppPolicyProcessTerminationMethod@@@Z 10062480 f   libucrtd:win_policies.obj
 0001:000614a0       ?appmodel_policy_to_policy_type@windowing_model_policy_properties@?1??__acrt_get_windowing_model_policy@@YA?AW4windowing_model_policy@@XZ@SA?AW43@J@Z 100624a0 f   libucrtd:win_policies.obj
 0001:00061560       ?<lambda_invoker_cdecl>@<lambda_838c7f62c73c983481e27c09e84b0b5d>@@CAHPBX0@Z 10062560 f   libucrtd:argv_wildcards.obj
 0001:00061580       ?<lambda_invoker_cdecl>@<lambda_d388dc2bcbe6079ffc891eec49d9b3b2>@@CAHPBX0@Z 10062580 f   libucrtd:argv_wildcards.obj
 0001:000615a0       ??$__acrt_convert_wcs_mbs_cp@D_WV<lambda_62f6974d9771e494a5ea317cc32e971c>@@U__crt_win32_buffer_internal_dynamic_resizing@@@@YAHQBDAAV?$__crt_win32_buffer@_WU__crt_win32_buffer_internal_dynamic_resizing@@@@ABV<lambda_62f6974d9771e494a5ea317cc32e971c>@@I@Z 100625a0 f   libucrtd:argv_wildcards.obj
 0001:000616e0       ??$__acrt_convert_wcs_mbs_cp@_WDV<lambda_28bda7af82a03b66c1cb3803a755f95d>@@U__crt_win32_buffer_internal_dynamic_resizing@@@@YAHQB_WAAV?$__crt_win32_buffer@DU__crt_win32_buffer_internal_dynamic_resizing@@@@ABV<lambda_28bda7af82a03b66c1cb3803a755f95d>@@I@Z 100626e0 f   libucrtd:argv_wildcards.obj
 0001:00061870       ??$common_expand_argv_wildcards@D@@YAHQAPADQAPAPAD@Z 10062870 f   libucrtd:argv_wildcards.obj
 0001:00061b50       ??$common_expand_argv_wildcards@_W@@YAHQAPA_WQAPAPA_W@Z 10062b50 f   libucrtd:argv_wildcards.obj
 0001:00061e50       ??$copy_and_add_argument_to_buffer@D@@YAHQBD0IAAV?$argument_list@D@?A0x5f5c8891@@@Z 10062e50 f   libucrtd:argv_wildcards.obj
 0001:00061f70       ??$copy_and_add_argument_to_buffer@_W@@YAHQB_W0IAAV?$argument_list@_W@?A0x5f5c8891@@@Z 10062f70 f   libucrtd:argv_wildcards.obj
 0001:00062090       ??$expand_argument_wildcards@D@@YAHQAD0AAV?$argument_list@D@?A0x5f5c8891@@@Z 10063090 f   libucrtd:argv_wildcards.obj
 0001:00062410       ??$expand_argument_wildcards@_W@@YAHQA_W0AAV?$argument_list@_W@?A0x5f5c8891@@@Z 10063410 f   libucrtd:argv_wildcards.obj
 0001:000629b0       ??0?$argument_list@D@?A0x5f5c8891@@QAE@XZ 100639b0 f   libucrtd:argv_wildcards.obj
 0001:000629e0       ??0?$argument_list@_W@?A0x5f5c8891@@QAE@XZ 100639e0 f   libucrtd:argv_wildcards.obj
 0001:00062ab0       ??1?$argument_list@D@?A0x5f5c8891@@QAE@XZ 10063ab0 f   libucrtd:argv_wildcards.obj
 0001:00062b00       ??1?$argument_list@_W@?A0x5f5c8891@@QAE@XZ 10063b00 f   libucrtd:argv_wildcards.obj
 0001:00062b50       ??B<lambda_838c7f62c73c983481e27c09e84b0b5d>@@QBEP6AHPBX0@ZXZ 10063b50 f   libucrtd:argv_wildcards.obj
 0001:00062b70       ??B<lambda_d388dc2bcbe6079ffc891eec49d9b3b2>@@QBEP6AHPBX0@ZXZ 10063b70 f   libucrtd:argv_wildcards.obj
 0001:00062b90       ??R<lambda_28bda7af82a03b66c1cb3803a755f95d>@@QBEHIQB_WQADI@Z 10063b90 f   libucrtd:argv_wildcards.obj
 0001:00062bc0       ??R<lambda_594f614a8947934b886943aa86a6498d>@@QBE_ND@Z 10063bc0 f   libucrtd:argv_wildcards.obj
 0001:00062c00       ??R<lambda_62f6974d9771e494a5ea317cc32e971c>@@QBEHIQBDQA_WI@Z 10063c00 f   libucrtd:argv_wildcards.obj
 0001:00062c30       ??R<lambda_838c7f62c73c983481e27c09e84b0b5d>@@QBEHPBX0@Z 10063c30 f   libucrtd:argv_wildcards.obj
 0001:00062c60       ??R<lambda_d388dc2bcbe6079ffc891eec49d9b3b2>@@QBEHPBX0@Z 10063c60 f   libucrtd:argv_wildcards.obj
 0001:00062c90       ??R<lambda_d734a73e0f649ebd9d9b0eca0b8ca86a>@@QBE_N_W@Z 10063c90 f   libucrtd:argv_wildcards.obj
 0001:00062e70       ?append@?$argument_list@D@?A0x5f5c8891@@QAEHQAD@Z 10063e70 f   libucrtd:argv_wildcards.obj
 0001:00062ed0       ?append@?$argument_list@_W@?A0x5f5c8891@@QAEHQA_W@Z 10063ed0 f   libucrtd:argv_wildcards.obj
 0001:00062f30       ?begin@?$argument_list@D@?A0x5f5c8891@@QBEPAPADXZ 10063f30 f   libucrtd:argv_wildcards.obj
 0001:00062f50       ?begin@?$argument_list@_W@?A0x5f5c8891@@QBEPAPA_WXZ 10063f50 f   libucrtd:argv_wildcards.obj
 0001:000630a0       ?end@?$argument_list@D@?A0x5f5c8891@@QBEPAPADXZ 100640a0 f   libucrtd:argv_wildcards.obj
 0001:000630c0       ?end@?$argument_list@_W@?A0x5f5c8891@@QBEPAPA_WXZ 100640c0 f   libucrtd:argv_wildcards.obj
 0001:000630e0       ?expand_if_necessary@?$argument_list@D@?A0x5f5c8891@@AAEHXZ 100640e0 f   libucrtd:argv_wildcards.obj
 0001:00063240       ?expand_if_necessary@?$argument_list@_W@?A0x5f5c8891@@AAEHXZ 10064240 f   libucrtd:argv_wildcards.obj
 0001:000633c0       ?get_file_name@@YAPADQAV?$__crt_win32_buffer@DU__crt_win32_buffer_internal_dynamic_resizing@@@@QA_W@Z 100643c0 f   libucrtd:argv_wildcards.obj
 0001:00063400       ?get_file_name@@YAPA_WPAV?$__crt_win32_buffer@_WU__crt_win32_buffer_internal_dynamic_resizing@@@@QA_W@Z 10064400 f   libucrtd:argv_wildcards.obj
 0001:00063420       ?get_wide@@YAPA_WPAV?$__crt_win32_buffer@_WU__crt_win32_buffer_internal_dynamic_resizing@@@@QA_W@Z 10064420 f   libucrtd:argv_wildcards.obj
 0001:00063430       ?get_wide@@YAPA_WQAV?$__crt_win32_buffer@_WU__crt_win32_buffer_internal_dynamic_resizing@@@@QAD@Z 10064430 f   libucrtd:argv_wildcards.obj
 0001:00063470       ?previous_character@@YAPADQAD0@Z 10064470 f   libucrtd:argv_wildcards.obj
 0001:00063490       ?previous_character@@YAPA_WPA_WQA_W@Z 10064490 f   libucrtd:argv_wildcards.obj
 0001:00063560       ?size@?$argument_list@D@?A0x5f5c8891@@QBEIXZ 10064560 f   libucrtd:argv_wildcards.obj
 0001:00063580       ?size@?$argument_list@_W@?A0x5f5c8891@@QBEIXZ 10064580 f   libucrtd:argv_wildcards.obj
 0001:00063620       ??$?RV<lambda_b5fb591949065c3fa449bad279e8c939>@@AAV<lambda_6c10a39a819b864ce80acc26b314dcd3>@@V<lambda_e567670a9eae49807d365f3e9c117712>@@@?$__crt_seh_guarded_call@X@@QAEX$$QAV<lambda_b5fb591949065c3fa449bad279e8c939>@@AAV<lambda_6c10a39a819b864ce80acc26b314dcd3>@@$$QAV<lambda_e567670a9eae49807d365f3e9c117712>@@@Z 10064620 f   libucrtd:mbctype.obj
 0001:000636a0       ??$__acrt_lock_and_call@V<lambda_6c10a39a819b864ce80acc26b314dcd3>@@@@YAXW4__acrt_lock_id@@$$QAV<lambda_6c10a39a819b864ce80acc26b314dcd3>@@@Z 100646a0 f   libucrtd:mbctype.obj
 0001:00063780       ??0<lambda_6c10a39a819b864ce80acc26b314dcd3>@@QAE@ABQAU__acrt_ptd@@ABQAPAU__crt_multibyte_data@@@Z 10064780 f   libucrtd:mbctype.obj
 0001:000637b0       ??0<lambda_b5fb591949065c3fa449bad279e8c939>@@QAE@ABW4__acrt_lock_id@@@Z 100647b0 f   libucrtd:mbctype.obj
 0001:000637d0       ??0<lambda_e567670a9eae49807d365f3e9c117712>@@QAE@ABW4__acrt_lock_id@@@Z 100647d0 f   libucrtd:mbctype.obj
 0001:000637f0       ??R<lambda_6c10a39a819b864ce80acc26b314dcd3>@@QBEXXZ 100647f0 f   libucrtd:mbctype.obj
 0001:000638c0       ??R<lambda_b5fb591949065c3fa449bad279e8c939>@@QBEXXZ 100648c0 f   libucrtd:mbctype.obj
 0001:000638e0       ??R<lambda_e567670a9eae49807d365f3e9c117712>@@QBEXXZ 100648e0 f   libucrtd:mbctype.obj
 0001:00063900       ?CPtoLocaleName@@YAPB_WH@Z 10064900 f   libucrtd:mbctype.obj
 0001:00063974       $LN13                      10064974     libucrtd:mbctype.obj
 0001:00063988       $LN12                      10064988     libucrtd:mbctype.obj
 0001:000639c0       ?getSystemCP@@YAHH@Z       100649c0 f   libucrtd:mbctype.obj
 0001:00063ac0       ?setSBCS@@YAXPAU__crt_multibyte_data@@@Z 10064ac0 f   libucrtd:mbctype.obj
 0001:00063ba0       ?setSBUpLow@@YAXPAU__crt_multibyte_data@@@Z 10064ba0 f   libucrtd:mbctype.obj
 0001:00063f10       ?setmbcp_internal@@YAHH_NQAU__acrt_ptd@@QAPAU__crt_multibyte_data@@@Z 10064f10 f   libucrtd:mbctype.obj
 0001:000640c0       ?update_thread_multibyte_data_internal@@YAPAU__crt_multibyte_data@@QAU__acrt_ptd@@QAPAU1@@Z 100650c0 f   libucrtd:mbctype.obj
 0001:000647b0       _memcpy_s                  100657b0 f   libucrtd:mbctype.obj
 0001:000648ba       ?x_ismbbtype_l@@YAHPAU__crt_locale_pointers@@IHH@Z 100658ba f   libucrtd:ismbbyte.obj
 0001:00064e80       ?filter_mbtowcs_flags@@YAKIK@Z 10065e80 f   libucrtd:multibytetowidechar.obj
 0001:00064f80       ?filter_wcstomb_flags@@YAKIK@Z 10065f80 f   libucrtd:widechartomultibyte.obj
 0001:000650ee       ??0?$__crt_unique_handle_t@Uenvironment_strings_traits@?A0x1bf47908@@@@QAE@QA_W@Z 100660ee f   libucrtd:get_environment_from_os.obj
 0001:000650fe       ??1?$__crt_unique_handle_t@Uenvironment_strings_traits@?A0x1bf47908@@@@QAE@XZ 100660fe f   libucrtd:get_environment_from_os.obj
 0001:00065115       ??B?$__crt_unique_handle_t@Uenvironment_strings_traits@?A0x1bf47908@@@@QBE_NXZ 10066115 f   libucrtd:get_environment_from_os.obj
 0001:0006511c       ?close@?$__crt_unique_handle_t@Uenvironment_strings_traits@?A0x1bf47908@@@@QAEXXZ 1006611c f   libucrtd:get_environment_from_os.obj
 0001:00065133       ?close@environment_strings_traits@?A0x1bf47908@@SA_NPA_W@Z 10066133 f   libucrtd:get_environment_from_os.obj
 0001:00065145       ?find_end_of_double_null_terminated_sequence@@YAPB_WQB_W@Z 10066145 f   libucrtd:get_environment_from_os.obj
 0001:0006517c       ?get@?$__crt_unique_handle_t@Uenvironment_strings_traits@?A0x1bf47908@@@@QBEPA_WXZ 1006617c f   libucrtd:get_environment_from_os.obj
 0001:0006517f       ?get_invalid_value@environment_strings_traits@?A0x1bf47908@@SAPA_WXZ 1006617f f   libucrtd:get_environment_from_os.obj
 0001:00065182       ?is_valid@?$__crt_unique_handle_t@Uenvironment_strings_traits@?A0x1bf47908@@@@QBE_NXZ 10066182 f   libucrtd:get_environment_from_os.obj
 0001:00065278       ??$common_set_variable_in_environment_nolock@D@@YAHQADH@Z 10066278 f   libucrtd:setenv.obj
 0001:000655b1       ??$common_set_variable_in_environment_nolock@_W@@YAHQA_WH@Z 100665b1 f   libucrtd:setenv.obj
 0001:00065918       ??$copy_environment@D@@YAPAPADQAPAD@Z 10066918 f   libucrtd:setenv.obj
 0001:000659ec       ??$copy_environment@_W@@YAPAPA_WQAPA_W@Z 100669ec f   libucrtd:setenv.obj
 0001:00065acf       ??$ensure_current_environment_is_not_initial_environment_nolock@D@@YAXXZ 10066acf f   libucrtd:setenv.obj
 0001:00065ae9       ??$ensure_current_environment_is_not_initial_environment_nolock@_W@@YAXXZ 10066ae9 f   libucrtd:setenv.obj
 0001:00065b03       ??$find_in_environment_nolock@D@@YAHQBDI@Z 10066b03 f   libucrtd:setenv.obj
 0001:00065b58       ??$find_in_environment_nolock@_W@@YAHQB_WI@Z 10066b58 f   libucrtd:setenv.obj
 0001:00065d3b       ?get_environment@@YAAAPAPADD@Z 10066d3b f   libucrtd:setenv.obj
 0001:00065d41       ?get_environment@@YAAAPAPA_W_W@Z 10066d41 f   libucrtd:setenv.obj
 0001:00065d47       ?get_initial_environment@@YAAAPAPADD@Z 10066d47 f   libucrtd:setenv.obj
 0001:00065d4d       ?get_initial_environment@@YAAAPAPA_W_W@Z 10066d4d f   libucrtd:setenv.obj
 0001:00065d53       ?get_other_environment@@YAAAPAPAD_W@Z 10066d53 f   libucrtd:setenv.obj
 0001:00065d59       ?get_other_environment@@YAAAPAPA_WD@Z 10066d59 f   libucrtd:setenv.obj
 0001:00065d90       ?<lambda_invoker_stdcall>@<lambda_29d3c280b90b41c2ae070ffca879996a>@@CGHPA_W@Z 10066d90 f   libucrtd:winapi_thunks.obj
 0001:00065dd0       ??$?RV<lambda_6b4b7855443974f2b4b77000ea21c99c>@@AAV<lambda_8f7d3b162ab39427f4fa9995c67a7986>@@V<lambda_cc9a5ba8a5d8428b9634eab82665e5dc>@@@?$__crt_seh_guarded_call@H@@QAEH$$QAV<lambda_6b4b7855443974f2b4b77000ea21c99c>@@AAV<lambda_8f7d3b162ab39427f4fa9995c67a7986>@@$$QAV<lambda_cc9a5ba8a5d8428b9634eab82665e5dc>@@@Z 10066dd0 f   libucrtd:winapi_thunks.obj
 0001:00065e60       ??$__acrt_lock_and_call@V<lambda_8f7d3b162ab39427f4fa9995c67a7986>@@@@YAHW4__acrt_lock_id@@$$QAV<lambda_8f7d3b162ab39427f4fa9995c67a7986>@@@Z 10066e60 f   libucrtd:winapi_thunks.obj
 0001:00065f30       ??0<lambda_6b4b7855443974f2b4b77000ea21c99c>@@QAE@ABW4__acrt_lock_id@@@Z 10066f30 f   libucrtd:winapi_thunks.obj
 0001:00065f50       ??0<lambda_8f7d3b162ab39427f4fa9995c67a7986>@@QAE@ABQ6GHPA_WKJ@Z@Z 10066f50 f   libucrtd:winapi_thunks.obj
 0001:00065f70       ??0<lambda_cc9a5ba8a5d8428b9634eab82665e5dc>@@QAE@ABW4__acrt_lock_id@@@Z 10066f70 f   libucrtd:winapi_thunks.obj
 0001:00065f90       ??B<lambda_29d3c280b90b41c2ae070ffca879996a>@@QBEP6GHPA_W@ZXZ 10066f90 f   libucrtd:winapi_thunks.obj
 0001:00065fb0       ??R<lambda_29d3c280b90b41c2ae070ffca879996a>@@QBEHPA_W@Z 10066fb0 f   libucrtd:winapi_thunks.obj
 0001:00065ff0       ??R<lambda_6b4b7855443974f2b4b77000ea21c99c>@@QBEXXZ 10066ff0 f   libucrtd:winapi_thunks.obj
 0001:00066010       ??R<lambda_8f7d3b162ab39427f4fa9995c67a7986>@@QBEHXZ 10067010 f   libucrtd:winapi_thunks.obj
 0001:00066030       ??R<lambda_cc9a5ba8a5d8428b9634eab82665e5dc>@@QBEXXZ 10067030 f   libucrtd:winapi_thunks.obj
 0001:00066050       ?enum_system_locales_ex_nolock@@YAHQ6GHPA_WKJ@Z@Z 10067050 f   libucrtd:winapi_thunks.obj
 0001:000660b0       ?invalid_function_sentinel@@YAPAXXZ 100670b0 f   libucrtd:winapi_thunks.obj
 0001:000660c0       ?try_get_AppPolicyGetProcessTerminationMethod@@YAP6GJPAXPAW4AppPolicyProcessTerminationMethod@@@ZXZ 100670c0 f   libucrtd:winapi_thunks.obj
 0001:000660e0       ?try_get_AppPolicyGetShowDeveloperDiagnostic@@YAP6GJPAXPAW4AppPolicyShowDeveloperDiagnostic@@@ZXZ 100670e0 f   libucrtd:winapi_thunks.obj
 0001:00066100       ?try_get_AppPolicyGetThreadInitializationType@@YAP6GJPAXPAW4AppPolicyThreadInitializationType@@@ZXZ 10067100 f   libucrtd:winapi_thunks.obj
 0001:00066120       ?try_get_AppPolicyGetWindowingModel@@YAP6GJPAXPAW4AppPolicyWindowingModel@@@ZXZ 10067120 f   libucrtd:winapi_thunks.obj
 0001:00066140       ?try_get_AreFileApisANSI@@YAP6GHXZXZ 10067140 f   libucrtd:winapi_thunks.obj
 0001:00066160       ?try_get_CompareStringEx@@YAP6GHPB_WK0H0HPAU_nlsversioninfo@@PAXJ@ZXZ 10067160 f   libucrtd:winapi_thunks.obj
 0001:00066180       ?try_get_EnumSystemLocalesEx@@YAP6GHP6GHPA_WKJ@ZKJPAX@ZXZ 10067180 f   libucrtd:winapi_thunks.obj
 0001:000661a0       ?try_get_FlsAlloc@@YAP6GKP6GXPAX@Z@ZXZ 100671a0 f   libucrtd:winapi_thunks.obj
 0001:000661c0       ?try_get_FlsFree@@YAP6GHK@ZXZ 100671c0 f   libucrtd:winapi_thunks.obj
 0001:000661e0       ?try_get_FlsGetValue@@YAP6GPAXK@ZXZ 100671e0 f   libucrtd:winapi_thunks.obj
 0001:00066200       ?try_get_FlsSetValue@@YAP6GHKPAX@ZXZ 10067200 f   libucrtd:winapi_thunks.obj
 0001:00066220       ?try_get_GetActiveWindow@@YAP6GPAUHWND__@@XZXZ 10067220 f   libucrtd:winapi_thunks.obj
 0001:00066240       ?try_get_GetDateFormatEx@@YAP6GHPB_WKPBU_SYSTEMTIME@@0PA_WH0@ZXZ 10067240 f   libucrtd:winapi_thunks.obj
 0001:00066260       ?try_get_GetEnabledXStateFeatures@@YAP6G_KXZXZ 10067260 f   libucrtd:winapi_thunks.obj
 0001:00066280       ?try_get_GetLastActivePopup@@YAP6GPAUHWND__@@PAU1@@ZXZ 10067280 f   libucrtd:winapi_thunks.obj
 0001:000662a0       ?try_get_GetLocaleInfoEx@@YAP6GHPB_WKPA_WH@ZXZ 100672a0 f   libucrtd:winapi_thunks.obj
 0001:000662c0       ?try_get_GetProcessWindowStation@@YAP6GPAUHWINSTA__@@XZXZ 100672c0 f   libucrtd:winapi_thunks.obj
 0001:000662e0       ?try_get_GetSystemTimePreciseAsFileTime@@YAP6GXPAU_FILETIME@@@ZXZ 100672e0 f   libucrtd:winapi_thunks.obj
 0001:00066300       ?try_get_GetTimeFormatEx@@YAP6GHPB_WKPBU_SYSTEMTIME@@0PA_WH@ZXZ 10067300 f   libucrtd:winapi_thunks.obj
 0001:00066320       ?try_get_GetUserDefaultLocaleName@@YAP6GHPA_WH@ZXZ 10067320 f   libucrtd:winapi_thunks.obj
 0001:00066340       ?try_get_GetUserObjectInformationW@@YAP6GHPAXH0KPAK@ZXZ 10067340 f   libucrtd:winapi_thunks.obj
 0001:00066360       ?try_get_GetXStateFeaturesMask@@YAP6GHPAU_CONTEXT@@PA_K@ZXZ 10067360 f   libucrtd:winapi_thunks.obj
 0001:00066380       ?try_get_InitializeCriticalSectionEx@@YAP6GHPAU_RTL_CRITICAL_SECTION@@KK@ZXZ 10067380 f   libucrtd:winapi_thunks.obj
 0001:000663a0       ?try_get_IsValidLocaleName@@YAP6GHPB_W@ZXZ 100673a0 f   libucrtd:winapi_thunks.obj
 0001:000663c0       ?try_get_LCIDToLocaleName@@YAP6GHKPA_WHK@ZXZ 100673c0 f   libucrtd:winapi_thunks.obj
 0001:000663e0       ?try_get_LCMapStringEx@@YAP6GHPB_WK0HPA_WHPAU_nlsversioninfo@@PAXJ@ZXZ 100673e0 f   libucrtd:winapi_thunks.obj
 0001:00066400       ?try_get_LocaleNameToLCID@@YAP6GKPB_WK@ZXZ 10067400 f   libucrtd:winapi_thunks.obj
 0001:00066420       ?try_get_LocateXStateFeature@@YAP6GPAXPAU_CONTEXT@@KPAK@ZXZ 10067420 f   libucrtd:winapi_thunks.obj
 0001:00066440       ?try_get_MessageBoxA@@YAP6GHPAUHWND__@@PBD1I@ZXZ 10067440 f   libucrtd:winapi_thunks.obj
 0001:00066460       ?try_get_MessageBoxW@@YAP6GHPAUHWND__@@PB_W1I@ZXZ 10067460 f   libucrtd:winapi_thunks.obj
 0001:00066480       ?try_get_RoInitialize@@YAP6GJW4RO_INIT_TYPE@@@ZXZ 10067480 f   libucrtd:winapi_thunks.obj
 0001:000664a0       ?try_get_RoUninitialize@@YAP6GXXZXZ 100674a0 f   libucrtd:winapi_thunks.obj
 0001:000664c0       ?try_get_SetThreadStackGuarantee@@YAP6GHPAK@ZXZ 100674c0 f   libucrtd:winapi_thunks.obj
 0001:000664e0       ?try_get_SystemFunction036@@YAP6GEPAXK@ZXZ 100674e0 f   libucrtd:winapi_thunks.obj
 0001:00066500       ?try_get_first_available_module@@YAPAUHINSTANCE__@@QBW4module_id@?A0x391cf84c@@0@Z 10067500 f   libucrtd:winapi_thunks.obj
 0001:00066550       ?try_get_function@@YAPAXW4function_id@?A0x391cf84c@@QBDQBW4module_id@2@2@Z 10067550 f   libucrtd:winapi_thunks.obj
 0001:00066690       ?try_get_module@@YAPAUHINSTANCE__@@W4module_id@?A0x391cf84c@@@Z 10067690 f   libucrtd:winapi_thunks.obj
 0001:000667a0       ?try_get_proc_address_from_first_available_module@@YAPAXQBDQBW4module_id@?A0x391cf84c@@1@Z 100677a0 f   libucrtd:winapi_thunks.obj
 0001:000667e0       ?try_load_library_from_system_directory@@YAPAUHINSTANCE__@@QB_W@Z 100677e0 f   libucrtd:winapi_thunks.obj
 0001:00067ac0       ?select_heap@@YAPAXQAX@Z   10068ac0 f   libucrtd:free_base.obj
 0001:00067b20       ?is_contraction_possible@@YA_NI@Z 10068b20 f   libucrtd:expand.obj
 0001:00067eb0       ??$common_tcsncpy_s@D@@YAHQADIQBDI@Z 10068eb0 f   libucrtd:strncpy_s.obj
 0001:000682e0       ?issue_debug_notification@@YA_NQB_W@Z 100692e0 f   libucrtd:report_runtime_error.obj
 0001:00068320       ?should_write_error_to_console@@YA_NXZ 10069320 f   libucrtd:report_runtime_error.obj
 0001:00068360       ?write_string_to_console@@YAXQB_W@Z 10069360 f   libucrtd:report_runtime_error.obj
 0001:00068730       ??$common_xtox@KD@@YAHKQADII_N@Z 10069730 f   libucrtd:xtoa.obj
 0001:000688c0       ??$common_xtox@K_W@@YAHKQA_WII_N@Z 100698c0 f   libucrtd:xtoa.obj
 0001:00068a60       ??$common_xtox@_KD@@YAH_KQADII_N@Z 10069a60 f   libucrtd:xtoa.obj
 0001:00068c20       ??$common_xtox@_K_W@@YAH_KQA_WII_N@Z 10069c20 f   libucrtd:xtoa.obj
 0001:00068df0       ??$common_xtox_s@KD@@YAHKQADII_N@Z 10069df0 f   libucrtd:xtoa.obj
 0001:00069080       ??$common_xtox_s@K_W@@YAHKQA_WII_N@Z 1006a080 f   libucrtd:xtoa.obj
 0001:00069310       ??$common_xtox_s@_KD@@YAH_KQADII_N@Z 1006a310 f   libucrtd:xtoa.obj
 0001:000695a0       ??$common_xtox_s@_K_W@@YAH_KQA_WII_N@Z 1006a5a0 f   libucrtd:xtoa.obj
 0001:00069d80       ?_mbstowcs_l_helper@@YAIPA_WPBDIPAU__crt_locale_pointers@@@Z 1006ad80 f   libucrtd:mbstowcs.obj
 0001:0006a5c0       ?_wcstombs_l_helper@@YAIPADPB_WIPAU__crt_locale_pointers@@@Z 1006b5c0 f   libucrtd:wcstombs.obj
 0001:0006ac20       ?wcsncnt@@YAIPB_WI@Z       1006bc20 f   libucrtd:wcstombs.obj
 0001:0006b5d0       ??R<lambda_3d301b9e52f5099be73030e1f0bf487e>@@QBEIPBD@Z 1006c5d0 f   libucrtd:mbrtowc.obj
 0001:0006b8a0       ?_mbrtowc_s_l@@YAHPAHPA_WPBDIPAU_Mbstatet@@PAU__crt_locale_pointers@@@Z 1006c8a0 f   libucrtd:mbrtowc.obj
 0001:0006bd00       ?_mbsrtowcs_helper@@YAIPA_WPAPBDIPAU_Mbstatet@@@Z 1006cd00 f   libucrtd:mbrtowc.obj
 0001:0006d760       ?should_round_up@@YA_NQBDHW4__acrt_has_trailing_digits@@W4__acrt_rounding_mode@@@Z 1006e760 f   libucrtd:_fptostr.obj
 0001:0006db90       ??$convert_to_fos_high_precision@N@@YA?AW4__acrt_has_trailing_digits@@NIQAHQADI@Z 1006eb90 f   libucrtd:cfout.obj
 0001:0006e2a0       ??0scoped_fp_state_reset@?A0x71ca7cfb@@QAE@XZ 1006f2a0 f   libucrtd:cfout.obj
 0001:0006e2f0       ??1scoped_fp_state_reset@?A0x71ca7cfb@@QAE@XZ 1006f2f0 f   libucrtd:cfout.obj
 0001:0006fd3c       $LN20                      10070d3c     libucrtd:cfout.obj
 0001:0006fd50       _memcpy_s                  10070d50 f   libucrtd:cfout.obj
 0001:0006fee0       ??$common_flush_and_write_nolock@D@@YAHHV__crt_stdio_stream@@@Z 10070ee0 f   libucrtd:_flsbuf.obj
 0001:000700a0       ??$common_flush_and_write_nolock@_W@@YAHHV__crt_stdio_stream@@@Z 100710a0 f   libucrtd:_flsbuf.obj
 0001:00070260       ??$write_buffer_nolock@D@@YA_NDV__crt_stdio_stream@@@Z 10071260 f   libucrtd:_flsbuf.obj
 0001:00070410       ??$write_buffer_nolock@_W@@YA_N_WV__crt_stdio_stream@@@Z 10071410 f   libucrtd:_flsbuf.obj
 0001:000705e0       ?stream_is_at_end_of_file_nolock@@YA_NV__crt_stdio_stream@@@Z 100715e0 f   libucrtd:_flsbuf.obj
 0001:000708b0       ??$?RV<lambda_2866be3712abc81a800a822484c830d8>@@AAV<lambda_39ca0ed439415581b5b15c265174cece>@@V<lambda_2b24c74d71094a6cd0cb82e44167d71b>@@@?$__crt_seh_guarded_call@X@@QAEX$$QAV<lambda_2866be3712abc81a800a822484c830d8>@@AAV<lambda_39ca0ed439415581b5b15c265174cece>@@$$QAV<lambda_2b24c74d71094a6cd0cb82e44167d71b>@@@Z 100718b0 f   libucrtd:fflush.obj
 0001:00070930       ??$?RV<lambda_2cc53f568c5a2bb6f192f930a45d44ea>@@AAV<lambda_ab61a845afdef5b7c387490eaf3616ee>@@V<lambda_c2ffc0b7726aa6be21d5f0026187e748>@@@?$__crt_seh_guarded_call@X@@QAEX$$QAV<lambda_2cc53f568c5a2bb6f192f930a45d44ea>@@AAV<lambda_ab61a845afdef5b7c387490eaf3616ee>@@$$QAV<lambda_c2ffc0b7726aa6be21d5f0026187e748>@@@Z 10071930 f   libucrtd:fflush.obj
 0001:000709b0       ??$?RV<lambda_6d20deecaf4856105ebacbad442d1079>@@AAV<lambda_9a32fed5bf61b6b509b2d3f6003082a1>@@V<lambda_63ea2239ed67c638ddbae41947fdf875>@@@?$__crt_seh_guarded_call@H@@QAEH$$QAV<lambda_6d20deecaf4856105ebacbad442d1079>@@AAV<lambda_9a32fed5bf61b6b509b2d3f6003082a1>@@$$QAV<lambda_63ea2239ed67c638ddbae41947fdf875>@@@Z 100719b0 f   libucrtd:fflush.obj
 0001:00070a40       ??$__acrt_lock_and_call@V<lambda_ab61a845afdef5b7c387490eaf3616ee>@@@@YAXW4__acrt_lock_id@@$$QAV<lambda_ab61a845afdef5b7c387490eaf3616ee>@@@Z 10071a40 f   libucrtd:fflush.obj
 0001:00070a80       ??$__acrt_lock_stream_and_call@V<lambda_39ca0ed439415581b5b15c265174cece>@@@@YAXQAU_iobuf@@$$QAV<lambda_39ca0ed439415581b5b15c265174cece>@@@Z 10071a80 f   libucrtd:fflush.obj
 0001:00070ac0       ??$__acrt_lock_stream_and_call@V<lambda_9a32fed5bf61b6b509b2d3f6003082a1>@@@@YAHQAU_iobuf@@$$QAV<lambda_9a32fed5bf61b6b509b2d3f6003082a1>@@@Z 10071ac0 f   libucrtd:fflush.obj
 0001:00070b00       ??0<lambda_2866be3712abc81a800a822484c830d8>@@QAE@ABQAU_iobuf@@@Z 10071b00 f   libucrtd:fflush.obj
 0001:00070b20       ??0<lambda_2b24c74d71094a6cd0cb82e44167d71b>@@QAE@ABQAU_iobuf@@@Z 10071b20 f   libucrtd:fflush.obj
 0001:00070b40       ??0<lambda_2cc53f568c5a2bb6f192f930a45d44ea>@@QAE@ABW4__acrt_lock_id@@@Z 10071b40 f   libucrtd:fflush.obj
 0001:00070b60       ??0<lambda_39ca0ed439415581b5b15c265174cece>@@QAE@ABV__crt_stdio_stream@@AAHAB_N1@Z 10071b60 f   libucrtd:fflush.obj
 0001:00070ba0       ??0<lambda_63ea2239ed67c638ddbae41947fdf875>@@QAE@ABQAU_iobuf@@@Z 10071ba0 f   libucrtd:fflush.obj
 0001:00070bc0       ??0<lambda_6d20deecaf4856105ebacbad442d1079>@@QAE@ABQAU_iobuf@@@Z 10071bc0 f   libucrtd:fflush.obj
 0001:00070be0       ??0<lambda_9a32fed5bf61b6b509b2d3f6003082a1>@@QAE@ABV__crt_stdio_stream@@@Z 10071be0 f   libucrtd:fflush.obj
 0001:00070c00       ??0<lambda_ab61a845afdef5b7c387490eaf3616ee>@@QAE@AAHAB_N0@Z 10071c00 f   libucrtd:fflush.obj
 0001:00070c30       ??0<lambda_c2ffc0b7726aa6be21d5f0026187e748>@@QAE@ABW4__acrt_lock_id@@@Z 10071c30 f   libucrtd:fflush.obj
 0001:00070c50       ??R<lambda_2866be3712abc81a800a822484c830d8>@@QBEXXZ 10071c50 f   libucrtd:fflush.obj
 0001:00070c70       ??R<lambda_2b24c74d71094a6cd0cb82e44167d71b>@@QBEXXZ 10071c70 f   libucrtd:fflush.obj
 0001:00070c90       ??R<lambda_2cc53f568c5a2bb6f192f930a45d44ea>@@QBEXXZ 10071c90 f   libucrtd:fflush.obj
 0001:00070cb0       ??R<lambda_39ca0ed439415581b5b15c265174cece>@@QBEXXZ 10071cb0 f   libucrtd:fflush.obj
 0001:00070d40       ??R<lambda_63ea2239ed67c638ddbae41947fdf875>@@QBEXXZ 10071d40 f   libucrtd:fflush.obj
 0001:00070d60       ??R<lambda_6d20deecaf4856105ebacbad442d1079>@@QBEXXZ 10071d60 f   libucrtd:fflush.obj
 0001:00070d80       ??R<lambda_9a32fed5bf61b6b509b2d3f6003082a1>@@QBEHXZ 10071d80 f   libucrtd:fflush.obj
 0001:00070da0       ??R<lambda_ab61a845afdef5b7c387490eaf3616ee>@@QBE@XZ 10071da0 f   libucrtd:fflush.obj
 0001:00070e40       ??R<lambda_c2ffc0b7726aa6be21d5f0026187e748>@@QBEXXZ 10071e40 f   libucrtd:fflush.obj
 0001:00070e90       ?common_flush_all@@YAH_N@Z 10071e90 f   libucrtd:fflush.obj
 0001:00070ef0       ?common_flush_all_should_try_to_flush_stream@@YA_NV__crt_stdio_stream@@QAH@Z 10071ef0 f   libucrtd:fflush.obj
 0001:00070fa0       ?is_stream_allocated@@YA_NJ@Z 10071fa0 f   libucrtd:fflush.obj
 0001:00070fd0       ?is_stream_flushable@@YA_NJ@Z 10071fd0 f   libucrtd:fflush.obj
 0001:00071000       ?is_stream_flushable_or_commitable@@YA_NJ@Z 10072000 f   libucrtd:fflush.obj
 0001:00071c40       _fix_grouping              10072c40 f   libucrtd:initmon.obj
 0001:00072140       _fix_grouping              10073140 f   libucrtd:initnum.obj
 0001:000721e0       ??$free_crt_array@D$01@@YAXAAY01PAD@Z 100731e0 f   libucrtd:inittime.obj
 0001:00072200       ??$free_crt_array@D$06@@YAXAAY06PAD@Z 10073200 f   libucrtd:inittime.obj
 0001:00072220       ??$free_crt_array@D$0M@@@YAXAAY0M@PAD@Z 10073220 f   libucrtd:inittime.obj
 0001:00072240       ??$free_crt_array@_W$01@@YAXAAY01PA_W@Z 10073240 f   libucrtd:inittime.obj
 0001:00072260       ??$free_crt_array@_W$06@@YAXAAY06PA_W@Z 10073260 f   libucrtd:inittime.obj
 0001:00072280       ??$free_crt_array@_W$0M@@@YAXAAY0M@PA_W@Z 10073280 f   libucrtd:inittime.obj
 0001:00072330       ?free_crt_array_internal@@YAXQAPBXI@Z 10073330 f   libucrtd:inittime.obj
 0001:00072390       ?get_or_create_lc_time@@YAPBU__crt_lc_time_data@@QAU__crt_locale_data@@@Z 10073390 f   libucrtd:inittime.obj
 0001:00072470       ?initialize_lc_time@@YA_NQAU__crt_lc_time_data@@QAU__crt_locale_data@@@Z 10073470 f   libucrtd:inittime.obj
 0001:00072ac0       ??$common_tcsncat_s@_W@@YAHQA_WIQB_WI@Z 10073ac0 f   libucrtd:wcsncat_s.obj
 0001:00073400       _GetLocaleNameFromDefault  10074400 f   libucrtd:get_qualified_locale.obj
 0001:000734a0       _GetLocaleNameFromLangCountry 100744a0 f   libucrtd:get_qualified_locale.obj
 0001:00073580       _GetLocaleNameFromLanguage 10074580 f   libucrtd:get_qualified_locale.obj
 0001:00073610       _GetPrimaryLen             10074610 f   libucrtd:get_qualified_locale.obj
 0001:00073690       _LangCountryEnumProcEx@12  10074690 f   libucrtd:get_qualified_locale.obj
 0001:00073be0       _LanguageEnumProcEx@12     10074be0 f   libucrtd:get_qualified_locale.obj
 0001:00073d10       _ProcessCodePage           10074d10 f   libucrtd:get_qualified_locale.obj
 0001:00073e10       _TestDefaultCountry        10074e10 f   libucrtd:get_qualified_locale.obj
 0001:00073e70       _TestDefaultLanguage       10074e70 f   libucrtd:get_qualified_locale.obj
 0001:00073ec0       _TranslateName             10074ec0 f   libucrtd:get_qualified_locale.obj
 0001:00074280       _CountryEnumProc@4         10075280 f   libucrtd:getqloc_downlevel.obj
 0001:000743c0       _GetLcidFromCountry        100753c0 f   libucrtd:getqloc_downlevel.obj
 0001:00074430       _GetLcidFromDefault        10075430 f   libucrtd:getqloc_downlevel.obj
 0001:00074470       _GetLcidFromLangCountry    10075470 f   libucrtd:getqloc_downlevel.obj
 0001:00074550       _GetLcidFromLanguage       10075550 f   libucrtd:getqloc_downlevel.obj
 0001:000745e0       _GetPrimaryLen             100755e0 f   libucrtd:getqloc_downlevel.obj
 0001:00074650       _LangCountryEnumProc@4     10075650 f   libucrtd:getqloc_downlevel.obj
 0001:00074af0       _LanguageEnumProc@4        10075af0 f   libucrtd:getqloc_downlevel.obj
 0001:00074cd0       _LcidFromHexString         10075cd0 f   libucrtd:getqloc_downlevel.obj
 0001:00074d60       _ProcessCodePage           10075d60 f   libucrtd:getqloc_downlevel.obj
 0001:00074e10       _TestDefaultCountry        10075e10 f   libucrtd:getqloc_downlevel.obj
 0001:00074e60       _TestDefaultLanguage       10075e60 f   libucrtd:getqloc_downlevel.obj
 0001:00074ef0       _TranslateName             10075ef0 f   libucrtd:getqloc_downlevel.obj
 0001:00075eb0       ?shortsort@@YAXPAD0IP6AHPBX1@Z@Z 10076eb0 f   libucrtd:qsort.obj
 0001:00075f70       ?swap@@YAXPAD0I@Z          10076f70 f   libucrtd:qsort.obj
 0001:00076660       $$000000                   10077660     libucrtd:strpbrk.obj
 0001:000766d0       ?__acrt_LCMapStringA_stat@@YAHPAU__crt_locale_pointers@@PB_WKPBDHPADHHH@Z 100776d0 f   libucrtd:lcmapstringa.obj
 0001:00076af0       ?initialize_multibyte@@YAHXZ 10077af0 f   libucrtd:multibyte_initializer.obj
 0001:00077230       ??$__acrt_convert_wcs_mbs_cp@D_WV<lambda_62f6974d9771e494a5ea317cc32e971c>@@U__crt_win32_buffer_internal_dynamic_resizing@@@@YAHQBDAAV?$__crt_win32_buffer@_WU__crt_win32_buffer_internal_dynamic_resizing@@@@ABV<lambda_62f6974d9771e494a5ea317cc32e971c>@@I@Z 10078230 f   libucrtd:setenvironmentvariablea.obj
 0001:00077370       ??R<lambda_62f6974d9771e494a5ea317cc32e971c>@@QBEHIQBDQA_WI@Z 10078370 f   libucrtd:setenvironmentvariablea.obj
 0001:00077460       ?GetTableIndexFromLcid@@YAHK@Z 10078460 f   libucrtd:lcidtoname_downlevel.obj
 0001:000774d0       ?GetTableIndexFromLocaleName@@YAHPB_W@Z 100784d0 f   libucrtd:lcidtoname_downlevel.obj
 0001:000778d0       ?_wcrtomb_s_l@@YAHQAHQADI_WQAU_Mbstatet@@QAU__crt_locale_pointers@@@Z 100788d0 f   libucrtd:wcrtomb.obj
 0001:00077b80       _internal_wcsrtombs        10078b80 f   libucrtd:wcrtomb.obj
 0001:00077e20       _memcpy_s                  10078e20 f   libucrtd:wcrtomb.obj
 0001:00078780       ?InternalGetLocaleInfoA@@YAHQAU__crt_locale_pointers@@QB_WKQADH@Z 10079780 f   libucrtd:getlocaleinfoa.obj
 0001:00078cc0       $$000000                   10079cc0     libucrtd:log10.obj
 0001:00078d10       $$000000                   10079d10     libucrtd:ceil_pentium4.obj
 0001:000792a0       ??$to_abstract_status@W4__acrt_fenv_machine_sse_status@@@@YA?AW4__acrt_fenv_abstract_status@@W4__acrt_fenv_machine_sse_status@@@Z 1007a2a0 f   libucrtd:_fenvutils.obj
 0001:000792c0       ??$to_abstract_status@W4__acrt_fenv_machine_x87_status@@@@YA?AW4__acrt_fenv_abstract_status@@W4__acrt_fenv_machine_x87_status@@@Z 1007a2c0 f   libucrtd:_fenvutils.obj
 0001:000792e0       ??$translate_control_exception_mask@W4__acrt_fenv_abstract_control@@W4__acrt_fenv_machine_sse_control@@@@YA?AW4__acrt_fenv_abstract_control@@W4__acrt_fenv_machine_sse_control@@@Z 1007a2e0 f   libucrtd:_fenvutils.obj
 0001:000793d0       ??$translate_control_exception_mask@W4__acrt_fenv_abstract_control@@W4__acrt_fenv_machine_x87_control@@@@YA?AW4__acrt_fenv_abstract_control@@W4__acrt_fenv_machine_x87_control@@@Z 1007a3d0 f   libucrtd:_fenvutils.obj
 0001:000794b0       ??$translate_control_exception_mask@W4__acrt_fenv_machine_sse_control@@W4__acrt_fenv_abstract_control@@@@YA?AW4__acrt_fenv_machine_sse_control@@W4__acrt_fenv_abstract_control@@@Z 1007a4b0 f   libucrtd:_fenvutils.obj
 0001:000795b0       ??$translate_control_exception_mask@W4__acrt_fenv_machine_x87_control@@W4__acrt_fenv_abstract_control@@@@YA?AW4__acrt_fenv_machine_x87_control@@W4__acrt_fenv_abstract_control@@@Z 1007a5b0 f   libucrtd:_fenvutils.obj
 0001:00079690       ??$translate_control_infinity_control@W4__acrt_fenv_abstract_control@@W4__acrt_fenv_machine_x87_control@@@@YA?AW4__acrt_fenv_abstract_control@@W4__acrt_fenv_machine_x87_control@@@Z 1007a690 f   libucrtd:_fenvutils.obj
 0001:000796d0       ??$translate_control_infinity_control@W4__acrt_fenv_machine_x87_control@@W4__acrt_fenv_abstract_control@@@@YA?AW4__acrt_fenv_machine_x87_control@@W4__acrt_fenv_abstract_control@@@Z 1007a6d0 f   libucrtd:_fenvutils.obj
 0001:00079710       ??$translate_control_precision_control@W4__acrt_fenv_abstract_control@@W4__acrt_fenv_machine_x87_control@@@@YA?AW4__acrt_fenv_abstract_control@@W4__acrt_fenv_machine_x87_control@@@Z 1007a710 f   libucrtd:_fenvutils.obj
 0001:00079760       ??$translate_control_precision_control@W4__acrt_fenv_machine_x87_control@@W4__acrt_fenv_abstract_control@@@@YA?AW4__acrt_fenv_machine_x87_control@@W4__acrt_fenv_abstract_control@@@Z 1007a760 f   libucrtd:_fenvutils.obj
 0001:000797b0       ??$translate_control_rounding_control@W4__acrt_fenv_abstract_control@@W4__acrt_fenv_machine_sse_control@@@@YA?AW4__acrt_fenv_abstract_control@@W4__acrt_fenv_machine_sse_control@@@Z 1007a7b0 f   libucrtd:_fenvutils.obj
 0001:00079820       ??$translate_control_rounding_control@W4__acrt_fenv_abstract_control@@W4__acrt_fenv_machine_x87_control@@@@YA?AW4__acrt_fenv_abstract_control@@W4__acrt_fenv_machine_x87_control@@@Z 1007a820 f   libucrtd:_fenvutils.obj
 0001:00079890       ??$translate_control_rounding_control@W4__acrt_fenv_machine_sse_control@@W4__acrt_fenv_abstract_control@@@@YA?AW4__acrt_fenv_machine_sse_control@@W4__acrt_fenv_abstract_control@@@Z 1007a890 f   libucrtd:_fenvutils.obj
 0001:00079900       ??$translate_control_rounding_control@W4__acrt_fenv_machine_x87_control@@W4__acrt_fenv_abstract_control@@@@YA?AW4__acrt_fenv_machine_x87_control@@W4__acrt_fenv_abstract_control@@@Z 1007a900 f   libucrtd:_fenvutils.obj
 0001:00079970       ??$translate_status@W4__acrt_fenv_abstract_status@@W4__acrt_fenv_machine_sse_status@@@@YA?AW4__acrt_fenv_abstract_status@@W4__acrt_fenv_machine_sse_status@@@Z 1007a970 f   libucrtd:_fenvutils.obj
 0001:00079a40       ??$translate_status@W4__acrt_fenv_abstract_status@@W4__acrt_fenv_machine_x87_status@@@@YA?AW4__acrt_fenv_abstract_status@@W4__acrt_fenv_machine_x87_status@@@Z 1007aa40 f   libucrtd:_fenvutils.obj
 0001:00079b10       ??$translate_status@W4__acrt_fenv_machine_sse_status@@W4__acrt_fenv_abstract_status@@@@YA?AW4__acrt_fenv_machine_sse_status@@W4__acrt_fenv_abstract_status@@@Z 1007ab10 f   libucrtd:_fenvutils.obj
 0001:00079be0       ??$translate_status@W4__acrt_fenv_machine_x87_status@@W4__acrt_fenv_abstract_status@@@@YA?AW4__acrt_fenv_machine_x87_status@@W4__acrt_fenv_abstract_status@@@Z 1007abe0 f   libucrtd:_fenvutils.obj
 0001:00079fd0       ?get_machine_sse_control@@YA?AW4__acrt_fenv_machine_sse_control@@XZ 1007afd0 f   libucrtd:_fenvutils.obj
 0001:0007a000       ?get_machine_sse_status@@YA?AW4__acrt_fenv_machine_sse_status@@XZ 1007b000 f   libucrtd:_fenvutils.obj
 0001:0007a030       ?get_machine_x87_control@@YA?AW4__acrt_fenv_machine_x87_control@@XZ 1007b030 f   libucrtd:_fenvutils.obj
 0001:0007a080       ?get_machine_x87_status@@YA?AW4__acrt_fenv_machine_x87_status@@XZ 1007b080 f   libucrtd:_fenvutils.obj
 0001:0007a0b0       ?set_machine_sse_control@@YAXW4__acrt_fenv_machine_sse_control@@@Z 1007b0b0 f   libucrtd:_fenvutils.obj
 0001:0007a110       ?set_machine_sse_status@@YAXW4__acrt_fenv_machine_sse_status@@@Z 1007b110 f   libucrtd:_fenvutils.obj
 0001:0007a160       ?set_machine_x87_control@@YAXW4__acrt_fenv_machine_x87_control@@@Z 1007b160 f   libucrtd:_fenvutils.obj
 0001:0007a1d0       ?set_machine_x87_status@@YAXW4__acrt_fenv_machine_x87_status@@@Z 1007b1d0 f   libucrtd:_fenvutils.obj
 0001:0007a230       ?to_abstract_control@@YA?AW4__acrt_fenv_abstract_control@@W4__acrt_fenv_machine_sse_control@@@Z 1007b230 f   libucrtd:_fenvutils.obj
 0001:0007a280       ?to_abstract_control@@YA?AW4__acrt_fenv_abstract_control@@W4__acrt_fenv_machine_x87_control@@@Z 1007b280 f   libucrtd:_fenvutils.obj
 0001:0007a2e0       ?to_machine_sse_control@@YA?AW4__acrt_fenv_machine_sse_control@@W4__acrt_fenv_abstract_control@@@Z 1007b2e0 f   libucrtd:_fenvutils.obj
 0001:0007a340       ?to_machine_sse_status@@YA?AW4__acrt_fenv_machine_sse_status@@W4__acrt_fenv_abstract_status@@@Z 1007b340 f   libucrtd:_fenvutils.obj
 0001:0007a360       ?to_machine_x87_control@@YA?AW4__acrt_fenv_machine_x87_control@@W4__acrt_fenv_abstract_control@@@Z 1007b360 f   libucrtd:_fenvutils.obj
 0001:0007a3e0       ?to_machine_x87_status@@YA?AW4__acrt_fenv_machine_x87_status@@W4__acrt_fenv_abstract_status@@@Z 1007b3e0 f   libucrtd:_fenvutils.obj
 0001:0007a400       ?translate_control_denormal_control_from_sse@@YA?AW4__acrt_fenv_abstract_control@@W4__acrt_fenv_machine_sse_control@@@Z 1007b400 f   libucrtd:_fenvutils.obj
 0001:0007a480       ?translate_control_denormal_control_to_sse@@YA?AW4__acrt_fenv_machine_sse_control@@W4__acrt_fenv_abstract_control@@@Z 1007b480 f   libucrtd:_fenvutils.obj
 0001:0007a730       ?write_binary_nolock@@YA?AUwrite_result@?A0x17268360@@HQBDI@Z 1007b730 f   libucrtd:write.obj
 0001:0007a7c0       ?write_double_translated_ansi_nolock@@YA?AUwrite_result@?A0x17268360@@HQBDI@Z 1007b7c0 f   libucrtd:write.obj
 0001:0007b400       ?write_double_translated_unicode_nolock@@YA?AUwrite_result@?A0x17268360@@QBDI@Z 1007c400 f   libucrtd:write.obj
 0001:0007b510       ?write_requires_double_translation_nolock@@YA_NH@Z 1007c510 f   libucrtd:write.obj
 0001:0007b5f0       ?write_text_ansi_nolock@@YA?AUwrite_result@?A0x17268360@@HQBDI@Z 1007c5f0 f   libucrtd:write.obj
 0001:0007b7f0       ?write_text_utf16le_nolock@@YA?AUwrite_result@?A0x17268360@@HQBDI@Z 1007c7f0 f   libucrtd:write.obj
 0001:0007ba00       ?write_text_utf8_nolock@@YA?AUwrite_result@?A0x17268360@@HQBDI@Z 1007ca00 f   libucrtd:write.obj
 0001:0007c350       ??$common_lseek@J@@YAJHJH@Z 1007d350 f   libucrtd:lseek.obj
 0001:0007c5a0       ??$common_lseek@_J@@YA_JH_JH@Z 1007d5a0 f   libucrtd:lseek.obj
 0001:0007c800       ??$common_lseek_nolock@J@@YAJHJH@Z 1007d800 f   libucrtd:lseek.obj
 0001:0007c8c0       ??$common_lseek_nolock@_J@@YA_JH_JH@Z 1007d8c0 f   libucrtd:lseek.obj
 0001:0007c990       ?common_lseek_do_seek_nolock@@YAJQAXJH@Z 1007d990 f   libucrtd:lseek.obj
 0001:0007ca70       ?common_lseek_do_seek_nolock@@YA_JQAX_JH@Z 1007da70 f   libucrtd:lseek.obj
 0001:0007cef0       ??$?RV<lambda_73934b50d04267ee15484ada9e51f93a>@@AAV<lambda_5533cddd4bda0037814beee657757329>@@V<lambda_505f522a38cc75b1e009910344c75d09>@@@?$__crt_seh_guarded_call@H@@QAEH$$QAV<lambda_73934b50d04267ee15484ada9e51f93a>@@AAV<lambda_5533cddd4bda0037814beee657757329>@@$$QAV<lambda_505f522a38cc75b1e009910344c75d09>@@@Z 1007def0 f   libucrtd:commit.obj
 0001:0007cf80       ??$__acrt_lowio_lock_fh_and_call@V<lambda_5533cddd4bda0037814beee657757329>@@@@YAHH$$QAV<lambda_5533cddd4bda0037814beee657757329>@@@Z 1007df80 f   libucrtd:commit.obj
 0001:0007cfc0       ??0<lambda_505f522a38cc75b1e009910344c75d09>@@QAE@ABH@Z 1007dfc0 f   libucrtd:commit.obj
 0001:0007cfe0       ??0<lambda_5533cddd4bda0037814beee657757329>@@QAE@ABH@Z 1007dfe0 f   libucrtd:commit.obj
 0001:0007d000       ??0<lambda_73934b50d04267ee15484ada9e51f93a>@@QAE@ABH@Z 1007e000 f   libucrtd:commit.obj
 0001:0007d020       ??R<lambda_505f522a38cc75b1e009910344c75d09>@@QBEXXZ 1007e020 f   libucrtd:commit.obj
 0001:0007d040       ??R<lambda_5533cddd4bda0037814beee657757329>@@QBEHXZ 1007e040 f   libucrtd:commit.obj
 0001:0007d0e0       ??R<lambda_73934b50d04267ee15484ada9e51f93a>@@QBEXXZ 1007e0e0 f   libucrtd:commit.obj
 0001:0007df40       ?InternalCompareStringA@@YAHPAU__crt_locale_pointers@@PB_WKPBDH2HH@Z 1007ef40 f   libucrtd:comparestringa.obj
 0001:0007e530       ?combine_second_surrogate@?A0xc60ee810@@YA_U_SPAU_Mbstatet@@@Z 1007f530 f   libucrtd:c16rtomb.obj
 0001:0007e550       ?has_surrogate@?A0xc60ee810@@YA_NPAU_Mbstatet@@@Z 1007f550 f   libucrtd:c16rtomb.obj
 0001:0007e580       ?is_first_surrogate@?A0xc60ee810@@YA_N_S@Z 1007f580 f   libucrtd:c16rtomb.obj
 0001:0007e5c0       ?is_second_surrogate@?A0xc60ee810@@YA_N_S@Z 1007f5c0 f   libucrtd:c16rtomb.obj
 0001:0007e600       ?store_first_surrogate@?A0xc60ee810@@YAX_SPAU_Mbstatet@@@Z 1007f600 f   libucrtd:c16rtomb.obj
 0001:0007e6c0       $$000000                   1007f6c0     libucrtd:log10_impl.obj
 0001:0007e7d0       $$000000                   1007f7d0     libucrtd:log10_pentium4.obj
 0001:0007ef9c       $LN56                      1007ff9c     libucrtd:libm_error.obj
 0001:0007efd8       $LN55                      1007ffd8     libucrtd:libm_error.obj
 0001:0007f180       ___abstract_cw_sse2        10080180 f   libucrtd:ieee87.obj
 0001:0007f2d0       ___abstract_sw_sse2        100802d0 f   libucrtd:ieee87.obj
 0001:0007f360       ___clearfp_sse2            10080360 f   libucrtd:ieee87.obj
 0001:0007f440       ___control87_sse2          10080440 f   libucrtd:ieee87.obj
 0001:0007f4e0       ___hw_cw_sse2              100804e0 f   libucrtd:ieee87.obj
 0001:0007f630       ___statusfp_sse2           10080630 f   libucrtd:ieee87.obj
 0001:0007f650       __abstract_cw              10080650 f   libucrtd:ieee87.obj
 0001:0007f7a0       __abstract_sw              100807a0 f   libucrtd:ieee87.obj
 0001:0007f9b0       __hw_cw                    100809b0 f   libucrtd:ieee87.obj
 0001:0007fc26       ??$?RV<lambda_f828341fbe69b7c0d4c527b01f22877f>@@AAV<lambda_9e0b6ab72a5b3ae37ad997d08b519f50>@@V<lambda_f01deac0a8d65d6e0411edf7e0af5775>@@@?$__crt_seh_guarded_call@G@@QAEG$$QAV<lambda_f828341fbe69b7c0d4c527b01f22877f>@@AAV<lambda_9e0b6ab72a5b3ae37ad997d08b519f50>@@$$QAV<lambda_f01deac0a8d65d6e0411edf7e0af5775>@@@Z 10080c26 f   libucrtd:putwch.obj
 0001:0007fc8e       ??$__acrt_lock_and_call@V<lambda_9e0b6ab72a5b3ae37ad997d08b519f50>@@@@YAGW4__acrt_lock_id@@$$QAV<lambda_9e0b6ab72a5b3ae37ad997d08b519f50>@@@Z 10080c8e f   libucrtd:putwch.obj
 0001:0007fcb4       ??0<lambda_9e0b6ab72a5b3ae37ad997d08b519f50>@@QAE@AB_W@Z 10080cb4 f   libucrtd:putwch.obj
 0001:0007fcc4       ??0<lambda_f01deac0a8d65d6e0411edf7e0af5775>@@QAE@ABW4__acrt_lock_id@@@Z 10080cc4 f   libucrtd:putwch.obj
 0001:0007fcd6       ??0<lambda_f828341fbe69b7c0d4c527b01f22877f>@@QAE@ABW4__acrt_lock_id@@@Z 10080cd6 f   libucrtd:putwch.obj
 0001:0007fce8       ??R<lambda_9e0b6ab72a5b3ae37ad997d08b519f50>@@QBEGXZ 10080ce8 f   libucrtd:putwch.obj
 0001:0007fcf5       ??R<lambda_f01deac0a8d65d6e0411edf7e0af5775>@@QBEXXZ 10080cf5 f   libucrtd:putwch.obj
 0001:0007fcfe       ??R<lambda_f828341fbe69b7c0d4c527b01f22877f>@@QBEXXZ 10080cfe f   libucrtd:putwch.obj
 0001:0007fd70       ??$translate_text_mode_nolock@D@@YAHHQADI@Z 10080d70 f   libucrtd:read.obj
 0001:00080040       ??$translate_text_mode_nolock@_W@@YAHHQA_WI@Z 10081040 f   libucrtd:read.obj
 0001:00080330       ?store_lookahead@@YAXHD@Z  10081330 f   libucrtd:read.obj
 0001:00080360       ?store_lookahead@@YAXH_W@Z 10081360 f   libucrtd:read.obj
 0001:00080400       ?translate_ansi_or_utf8_nolock@@YAHHQADIQA_WI@Z 10081400 f   libucrtd:read.obj
 0001:00080680       ?translate_utf16_from_console_nolock@@YAHHQA_WI@Z 10081680 f   libucrtd:read.obj
 0001:000813f0       ??$?RV<lambda_e683defbe2e5a27c42b5544acbb13393>@@AAV<lambda_4e7105787b7b0e0227fbf2b2d883fa65>@@V<lambda_80a887151cae997482d53eaa74bb832b>@@@?$__crt_seh_guarded_call@H@@QAEH$$QAV<lambda_e683defbe2e5a27c42b5544acbb13393>@@AAV<lambda_4e7105787b7b0e0227fbf2b2d883fa65>@@$$QAV<lambda_80a887151cae997482d53eaa74bb832b>@@@Z 100823f0 f   libucrtd:close.obj
 0001:00081480       ??$__acrt_lowio_lock_fh_and_call@V<lambda_4e7105787b7b0e0227fbf2b2d883fa65>@@@@YAHH$$QAV<lambda_4e7105787b7b0e0227fbf2b2d883fa65>@@@Z 10082480 f   libucrtd:close.obj
 0001:000814c0       ??0<lambda_4e7105787b7b0e0227fbf2b2d883fa65>@@QAE@ABH@Z 100824c0 f   libucrtd:close.obj
 0001:000814e0       ??0<lambda_80a887151cae997482d53eaa74bb832b>@@QAE@ABH@Z 100824e0 f   libucrtd:close.obj
 0001:00081500       ??0<lambda_e683defbe2e5a27c42b5544acbb13393>@@QAE@ABH@Z 10082500 f   libucrtd:close.obj
 0001:00081520       ??R<lambda_4e7105787b7b0e0227fbf2b2d883fa65>@@QBEHXZ 10082520 f   libucrtd:close.obj
 0001:000815a0       ??R<lambda_80a887151cae997482d53eaa74bb832b>@@QBEXXZ 100825a0 f   libucrtd:close.obj
 0001:000815c0       ??R<lambda_e683defbe2e5a27c42b5544acbb13393>@@QBEXXZ 100825c0 f   libucrtd:close.obj
 0001:000815e0       ?close_os_handle_nolock@@YAKH@Z 100825e0 f   libucrtd:close.obj
 0001:00081ac0       ?find_or_allocate_unused_stream_nolock@@YA?AV__crt_stdio_stream@@XZ 10082ac0 f   libucrtd:stream.obj
 0001:00081de0       $$000000                   10082de0     libucrtd:_strnicm.obj
 0001:00081e50       $$000000                   10082e50     libucrtd:87tran.obj
 0001:00082060       $$000000                   10083060     libucrtd:87disp.obj
 0001:000822e0       $$000000                   100832e0     libucrtd:common.obj
 0001:00082470       $$000000                   10083470     libucrtd:genexcep.obj
 0001:00082770       __get_fname                10083770 f   libucrtd:fpexcept.obj
 0001:00083098       $LN63                      10084098     libucrtd:fpexcept.obj
 0001:00083752       ??$console_output_reopen_and_retry@V<lambda_61c1b8a38cedca4df5fdc542e6ccae6d>@@@@YAHABV<lambda_61c1b8a38cedca4df5fdc542e6ccae6d>@@@Z 10084752 f   libucrtd:initcon.obj
 0001:000837aa       ??0<lambda_61c1b8a38cedca4df5fdc542e6ccae6d>@@QAE@ABQBXABKABQAK@Z 100847aa f   libucrtd:initcon.obj
 0001:000837cc       ??R<lambda_61c1b8a38cedca4df5fdc542e6ccae6d>@@QBEHXZ 100847cc f   libucrtd:initcon.obj
 0001:000837e3       ?__dcrt_lowio_initialize_console_output@@YAXXZ 100847e3 f   libucrtd:initcon.obj
 0001:00083cf0       $LN20                      10084cf0     libucrtd:87except.obj
 0001:00084780       ?fperrraise_with@@YAXHK@Z  10085780 f   libucrtd:_test.obj
 0001:00085470       $$000000                   10086470     LIBCMTD:llshl.obj
 0001:00085490       $$000000                   10086490     LIBCMTD:ulldiv.obj
 0001:00085500       $$000000                   10086500     LIBCMTD:ullrem.obj
 0001:00085580       $$000000                   10086580     LIBCMTD:llmul.obj
 0001:000855c0       $$000000                   100865c0     LIBCMTD:lldiv.obj
 0001:00085670       $$000000                   10086670     LIBCMTD:llrem.obj
 0001:00085730       $$000000                   10086730     LIBCMTD:ullshr.obj
 0001:00085750       $$000000                   10086750     LIBCMTD:alloca16.obj
 0001:00085780       $$000000                   10086780     LIBCMTD:ftol2.obj
 0001:00085a50       $$000000                   10086a50     LIBCMTD:sehprolg4.obj
 0001:00085ab0       $$000000                   10086ab0     libvcruntimed:strrchr.obj
 0001:00085bf0       $$000000                   10086bf0     libvcruntimed:strchr.obj
 0001:00085fd0       __ehhandler$??2@YAPAXIABUnothrow_t@std@@@Z 10086fd0 f   LIBCMTD:new_scalar_nothrow.obj
 0001:00085ff0       __ehhandler$?CallUnexpected@@YAXPBU_s_ESTypeList@@@Z 10086ff0 f   libvcruntimed:frame.obj
 0001:00086010       __unwindfunclet$?getDecoratedName@UnDecorator@@CA?AVDName@@XZ$0 10087010 f   libvcruntimed:undname.obj
 0001:0008601d       __ehhandler$?getDecoratedName@UnDecorator@@CA?AVDName@@XZ 1008701d f   libvcruntimed:undname.obj
 0001:00086040       __unwindfunclet$??R<lambda_d121dba8a4adeaf3a9819e48611155df>@@QBEHXZ$0 10087040 f   libucrtd:onexit.obj
 0001:00086048       __ehhandler$??R<lambda_d121dba8a4adeaf3a9819e48611155df>@@QBEHXZ 10087048 f   libucrtd:onexit.obj
 0001:00086070       __ehhandler$??1?$__crt_win32_buffer@DU__crt_win32_buffer_no_resizing@@@@QAE@XZ 10087070 f   libucrtd:getmodulefilenamea.obj
 0001:00086090       __unwindfunclet$?fp_format_a@@YAHQBNPADIQADIH_NIQAU__crt_locale_pointers@@W4__acrt_rounding_mode@@@Z$0 10087090 f   libucrtd:cvt.obj
 0001:0008609b       __ehhandler$?fp_format_a@@YAHQBNPADIQADIH_NIQAU__crt_locale_pointers@@W4__acrt_rounding_mode@@@Z 1008709b f   libucrtd:cvt.obj
 0001:000860c0       __ehhandler$??1?$__crt_win32_buffer@DU__crt_win32_buffer_internal_dynamic_resizing@@@@QAE@XZ 100870c0 f   libucrtd:argv_wildcards.obj
 0001:000860e0       __ehhandler$??1?$__crt_win32_buffer@_WU__crt_win32_buffer_internal_dynamic_resizing@@@@QAE@XZ 100870e0 f   libucrtd:argv_wildcards.obj
 0001:00086100       __unwindfunclet$?_wcstombs_l_helper@@YAIPADPB_WIPAU__crt_locale_pointers@@@Z$0 10087100 f   libucrtd:wcstombs.obj
 0001:00086108       __ehhandler$?_wcstombs_l_helper@@YAIPADPB_WIPAU__crt_locale_pointers@@@Z 10087108 f   libucrtd:wcstombs.obj
 0001:00086130       __unwindfunclet$?shortsort@@YAXPAD0IP6AHPBX1@Z@Z$0 10087130 f   libucrtd:qsort.obj
 0001:00086138       __ehhandler$?shortsort@@YAXPAD0IP6AHPBX1@Z@Z 10087138 f   libucrtd:qsort.obj
 0001:00086160       __unwindfunclet$?_wcrtomb_s_l@@YAHQAHQADI_WQAU_Mbstatet@@QAU__crt_locale_pointers@@@Z$0 10087160 f   libucrtd:wcrtomb.obj
 0001:00086168       __ehhandler$?_wcrtomb_s_l@@YAHQAHQADI_WQAU_Mbstatet@@QAU__crt_locale_pointers@@@Z 10087168 f   libucrtd:wcrtomb.obj
 0001:00086190       ??__F_AtlComModule@ATL@@YAXXZ 10087190 f   StdAfx.obj
 0001:000861b0       ??__F_AtlWinModule@ATL@@YAXXZ 100871b0 f   StdAfx.obj
 0001:000861d0       ??__F_AtlComModule@ATL@@YAXXZ 100871d0 f   OposInternals.obj
 0001:000861f0       ??__F_AtlWinModule@ATL@@YAXXZ 100871f0 f   OposInternals.obj
 0001:00086210       ??__F_Module@@YAXXZ        10087210 f   OposInternals.obj
 0001:00086226       ??__F_AtlBaseModule@ATL@@YAXXZ 10087226 f   atls:atlbase.obj
 0002:000001e0       ?_AtlBaseModule$initializer$@ATL@@3P6AXXZA 100881e0     atls:atlbase.obj
 0002:000001e4       ?atlTraceGeneral$initializer$@ATL@@3P6AXXZA 100881e4     StdAfx.obj
 0002:000001e8       ?atlTraceCOM$initializer$@ATL@@3P6AXXZA 100881e8     StdAfx.obj
 0002:000001ec       ?atlTraceQI$initializer$@ATL@@3P6AXXZA 100881ec     StdAfx.obj
 0002:000001f0       ?atlTraceRegistrar$initializer$@ATL@@3P6AXXZA 100881f0     StdAfx.obj
 0002:000001f4       ?atlTraceRefcount$initializer$@ATL@@3P6AXXZA 100881f4     StdAfx.obj
 0002:000001f8       ?atlTraceWindowing$initializer$@ATL@@3P6AXXZA 100881f8     StdAfx.obj
 0002:000001fc       ?atlTraceControls$initializer$@ATL@@3P6AXXZA 100881fc     StdAfx.obj
 0002:00000200       ?atlTraceHosting$initializer$@ATL@@3P6AXXZA 10088200     StdAfx.obj
 0002:00000204       ?atlTraceDBClient$initializer$@ATL@@3P6AXXZA 10088204     StdAfx.obj
 0002:00000208       ?atlTraceDBProvider$initializer$@ATL@@3P6AXXZA 10088208     StdAfx.obj
 0002:0000020c       ?atlTraceSnapin$initializer$@ATL@@3P6AXXZA 1008820c     StdAfx.obj
 0002:00000210       ?atlTraceNotImpl$initializer$@ATL@@3P6AXXZA 10088210     StdAfx.obj
 0002:00000214       ?atlTraceAllocation$initializer$@ATL@@3P6AXXZA 10088214     StdAfx.obj
 0002:00000218       ?atlTraceException$initializer$@ATL@@3P6AXXZA 10088218     StdAfx.obj
 0002:0000021c       ?atlTraceTime$initializer$@ATL@@3P6AXXZA 1008821c     StdAfx.obj
 0002:00000220       ?atlTraceCache$initializer$@ATL@@3P6AXXZA 10088220     StdAfx.obj
 0002:00000224       ?atlTraceStencil$initializer$@ATL@@3P6AXXZA 10088224     StdAfx.obj
 0002:00000228       ?atlTraceString$initializer$@ATL@@3P6AXXZA 10088228     StdAfx.obj
 0002:0000022c       ?atlTraceMap$initializer$@ATL@@3P6AXXZA 1008822c     StdAfx.obj
 0002:00000230       ?atlTraceUtil$initializer$@ATL@@3P6AXXZA 10088230     StdAfx.obj
 0002:00000234       ?atlTraceSecurity$initializer$@ATL@@3P6AXXZA 10088234     StdAfx.obj
 0002:00000238       ?atlTraceSync$initializer$@ATL@@3P6AXXZA 10088238     StdAfx.obj
 0002:0000023c       ?atlTraceISAPI$initializer$@ATL@@3P6AXXZA 1008823c     StdAfx.obj
 0002:00000240       ?_AtlComModule$initializer$@ATL@@3P6AXXZA 10088240     StdAfx.obj
 0002:00000244       ?_AtlWinModule$initializer$@ATL@@3P6AXXZA 10088244     StdAfx.obj
 0002:00000248       ?_Module$initializer$@@3P6AXXZA 10088248     OposInternals.obj
 0002:00000290       $SG182592                  10088290     StdAfx.obj
 0002:000002a0       $SG182593                  100882a0     StdAfx.obj
 0002:000002a8       $SG182594                  100882a8     StdAfx.obj
 0002:0000038c       $SG182609                  1008838c     StdAfx.obj
 0002:00000390       $SG93134                   10088390     StdAfx.obj
 0002:000003b0       $SG93207                   100883b0     StdAfx.obj
 0002:000003c8       $SG93256                   100883c8     StdAfx.obj
 0002:000003e0       $SG93305                   100883e0     StdAfx.obj
 0002:00000404       $SG93354                   10088404     StdAfx.obj
 0002:00000428       $SG93403                   10088428     StdAfx.obj
 0002:0000044c       $SG93452                   1008844c     StdAfx.obj
 0002:00000470       $SG93501                   10088470     StdAfx.obj
 0002:00000490       $SG93550                   10088490     StdAfx.obj
 0002:000004b4       $SG93599                   100884b4     StdAfx.obj
 0002:000004dc       $SG93648                   100884dc     StdAfx.obj
 0002:000004fc       $SG93697                   100884fc     StdAfx.obj
 0002:0000051c       $SG93746                   1008851c     StdAfx.obj
 0002:00000544       $SG93795                   10088544     StdAfx.obj
 0002:00000568       $SG93844                   10088568     StdAfx.obj
 0002:00000584       $SG93893                   10088584     StdAfx.obj
 0002:000005a0       $SG93942                   100885a0     StdAfx.obj
 0002:000005c0       $SG93991                   100885c0     StdAfx.obj
 0002:000005e0       $SG94040                   100885e0     StdAfx.obj
 0002:000005f8       $SG94045                   100885f8     StdAfx.obj
 0002:00000614       $SG94094                   10088614     StdAfx.obj
 0002:00000638       $SG94143                   10088638     StdAfx.obj
 0002:00000654       $SG94192                   10088654     StdAfx.obj
 0002:00000670       $SG193152                  10088670     StdAfx.obj
 0002:00000688       $SG193153                  10088688     StdAfx.obj
 0002:00000690       $SG193154                  10088690     StdAfx.obj
 0002:00000770       $SG193157                  10088770     StdAfx.obj
 0002:000007e0       $SG193158                  100887e0     StdAfx.obj
 0002:00000830       $SG193177                  10088830     StdAfx.obj
 0002:0000086c       $SG193178                  1008886c     StdAfx.obj
 0002:00000874       $SG193214                  10088874     StdAfx.obj
 0002:00000898       $SG193179                  10088898     StdAfx.obj
 0002:00000978       $SG193215                  10088978     StdAfx.obj
 0002:00000980       $SG193216                  10088980     StdAfx.obj
 0002:00000a60       $SG193221                  10088a60     StdAfx.obj
 0002:00000a8c       $SG193222                  10088a8c     StdAfx.obj
 0002:00000a94       $SG193240                  10088a94     StdAfx.obj
 0002:00000ab8       $SG193223                  10088ab8     StdAfx.obj
 0002:00000b98       $SG193241                  10088b98     StdAfx.obj
 0002:00000ba0       $SG193242                  10088ba0     StdAfx.obj
 0002:00000c80       $SG193243                  10088c80     StdAfx.obj
 0002:00000ca4       $SG193244                  10088ca4     StdAfx.obj
 0002:00000cac       $SG193263                  10088cac     StdAfx.obj
 0002:00000cd0       $SG193245                  10088cd0     StdAfx.obj
 0002:00000db0       $SG193264                  10088db0     StdAfx.obj
 0002:00000db8       $SG193265                  10088db8     StdAfx.obj
 0002:00000e98       $SG111362                  10088e98     StdAfx.obj
 0002:00000e9c       $SG111364                  10088e9c     StdAfx.obj
 0002:00000ea0       $SG111366                  10088ea0     StdAfx.obj
 0002:00000ea4       $SG193287                  10088ea4     StdAfx.obj
 0002:00000ee0       $SG193288                  10088ee0     StdAfx.obj
 0002:00000ee8       $SG111368                  10088ee8     StdAfx.obj
 0002:00000eec       $SG111374                  10088eec     StdAfx.obj
 0002:00000f00       $SG193289                  10088f00     StdAfx.obj
 0002:00000fe0       $SG111370                  10088fe0     StdAfx.obj
 0002:00000fe8       $SG111372                  10088fe8     StdAfx.obj
 0002:00001000       $SG111376                  10089000     StdAfx.obj
 0002:00001010       $SG193322                  10089010     StdAfx.obj
 0002:00001020       $SG193323                  10089020     StdAfx.obj
 0002:00001028       $SG193324                  10089028     StdAfx.obj
 0002:00001078       $SG193349                  10089078     StdAfx.obj
 0002:00001088       $SG193350                  10089088     StdAfx.obj
 0002:00001090       $SG193351                  10089090     StdAfx.obj
 0002:000010e0       $SG193503                  100890e0     StdAfx.obj
 0002:000010fc       $SG193504                  100890fc     StdAfx.obj
 0002:00001104       $SG112072                  10089104     StdAfx.obj
 0002:00001110       $SG193505                  10089110     StdAfx.obj
 0002:00001160       $SG193534                  10089160     StdAfx.obj
 0002:00001178       $SG193535                  10089178     StdAfx.obj
 0002:00001180       $SG193536                  10089180     StdAfx.obj
 0002:00001264       $SG193570                  10089264     StdAfx.obj
 0002:0000127c       $SG193571                  1008927c     StdAfx.obj
 0002:00001284       $SG112073                  10089284     StdAfx.obj
 0002:00001290       $SG193572                  10089290     StdAfx.obj
 0002:00001374       $SG193606                  10089374     StdAfx.obj
 0002:0000138c       $SG193607                  1008938c     StdAfx.obj
 0002:00001394       $SG112074                  10089394     StdAfx.obj
 0002:000013c0       $SG193608                  100893c0     StdAfx.obj
 0002:000014a4       $SG193642                  100894a4     StdAfx.obj
 0002:000014bc       $SG193643                  100894bc     StdAfx.obj
 0002:000014c4       $SG112075                  100894c4     StdAfx.obj
 0002:000014d8       $SG193644                  100894d8     StdAfx.obj
 0002:000015bc       $SG193866                  100895bc     StdAfx.obj
 0002:000015cc       $SG193867                  100895cc     StdAfx.obj
 0002:000015d4       $SG112076                  100895d4     StdAfx.obj
 0002:000015e8       $SG193868                  100895e8     StdAfx.obj
 0002:00001638       $SG112077                  10089638     StdAfx.obj
 0002:0000164c       $SG112078                  1008964c     StdAfx.obj
 0002:00001658       $SG112079                  10089658     StdAfx.obj
 0002:00001660       $SG112080                  10089660     StdAfx.obj
 0002:00001674       $SG112081                  10089674     StdAfx.obj
 0002:00001684       $SG112082                  10089684     StdAfx.obj
 0002:00001698       $SG112083                  10089698     StdAfx.obj
 0002:000016a8       $SG186909                  100896a8     StdAfx.obj
 0002:000016ac       $SG186913                  100896ac     StdAfx.obj
 0002:000016c8       $SG186914                  100896c8     StdAfx.obj
 0002:000016d0       $SG186915                  100896d0     StdAfx.obj
 0002:000017b4       $SG186918                  100897b4     StdAfx.obj
 0002:000017c8       $SG186919                  100897c8     StdAfx.obj
 0002:000017d0       $SG186920                  100897d0     StdAfx.obj
 0002:000018b4       $SG113203                  100898b4     StdAfx.obj
 0002:000018d8       $SG186922                  100898d8     StdAfx.obj
 0002:0000194c       $SG186925                  1008994c     StdAfx.obj
 0002:0000197c       $SG113204                  1008997c     StdAfx.obj
 0002:00001984       $SG187003                  10089984     StdAfx.obj
 0002:00001988       $SG186923                  10089988     StdAfx.obj
 0002:000019d0       $SG186924                  100899d0     StdAfx.obj
 0002:00001a44       $SG186933                  10089a44     StdAfx.obj
 0002:00001a54       $SG186934                  10089a54     StdAfx.obj
 0002:00001a5c       $SG187007                  10089a5c     StdAfx.obj
 0002:00001a78       $SG113205                  10089a78     StdAfx.obj
 0002:00001b5c       $SG187008                  10089b5c     StdAfx.obj
 0002:00001b64       $SG187014                  10089b64     StdAfx.obj
 0002:00001b78       $SG186935                  10089b78     StdAfx.obj
 0002:00001c5c       $SG187015                  10089c5c     StdAfx.obj
 0002:00001c68       $SG187009                  10089c68     StdAfx.obj
 0002:00001d50       $SG187016                  10089d50     StdAfx.obj
 0002:00001e38       $SG187018                  10089e38     StdAfx.obj
 0002:00001eb0       $SG187019                  10089eb0     StdAfx.obj
 0002:00001ef8       $SG187020                  10089ef8     StdAfx.obj
 0002:00001f6c       $SG187021                  10089f6c     StdAfx.obj
 0002:00001f9c       $SG187029                  10089f9c     StdAfx.obj
 0002:00001fac       $SG187030                  10089fac     StdAfx.obj
 0002:00001fb8       $SG187031                  10089fb8     StdAfx.obj
 0002:00002760       $SG182592                  1008a760     OposInternals.obj
 0002:00002770       $SG182593                  1008a770     OposInternals.obj
 0002:00002778       $SG182594                  1008a778     OposInternals.obj
 0002:0000285c       $SG182609                  1008a85c     OposInternals.obj
 0002:00002860       $SG93134                   1008a860     OposInternals.obj
 0002:00002880       $SG93207                   1008a880     OposInternals.obj
 0002:00002898       $SG93256                   1008a898     OposInternals.obj
 0002:000028b0       $SG93305                   1008a8b0     OposInternals.obj
 0002:000028d4       $SG93354                   1008a8d4     OposInternals.obj
 0002:000028f8       $SG93403                   1008a8f8     OposInternals.obj
 0002:0000291c       $SG93452                   1008a91c     OposInternals.obj
 0002:00002940       $SG93501                   1008a940     OposInternals.obj
 0002:00002960       $SG93550                   1008a960     OposInternals.obj
 0002:00002984       $SG93599                   1008a984     OposInternals.obj
 0002:000029ac       $SG93648                   1008a9ac     OposInternals.obj
 0002:000029cc       $SG93697                   1008a9cc     OposInternals.obj
 0002:000029ec       $SG93746                   1008a9ec     OposInternals.obj
 0002:00002a14       $SG93795                   1008aa14     OposInternals.obj
 0002:00002a38       $SG93844                   1008aa38     OposInternals.obj
 0002:00002a54       $SG93893                   1008aa54     OposInternals.obj
 0002:00002a70       $SG93942                   1008aa70     OposInternals.obj
 0002:00002a90       $SG93991                   1008aa90     OposInternals.obj
 0002:00002ab0       $SG94040                   1008aab0     OposInternals.obj
 0002:00002ac8       $SG94045                   1008aac8     OposInternals.obj
 0002:00002ae4       $SG94094                   1008aae4     OposInternals.obj
 0002:00002b08       $SG94143                   1008ab08     OposInternals.obj
 0002:00002b24       $SG94192                   1008ab24     OposInternals.obj
 0002:00002b40       $SG111362                  1008ab40     OposInternals.obj
 0002:00002b44       $SG111364                  1008ab44     OposInternals.obj
 0002:00002b48       $SG111366                  1008ab48     OposInternals.obj
 0002:00002b4c       $SG111368                  1008ab4c     OposInternals.obj
 0002:00002b50       $SG111370                  1008ab50     OposInternals.obj
 0002:00002b58       $SG111372                  1008ab58     OposInternals.obj
 0002:00002b70       $SG111374                  1008ab70     OposInternals.obj
 0002:00002b84       $SG111376                  1008ab84     OposInternals.obj
 0002:00002b94       $SG112072                  1008ab94     OposInternals.obj
 0002:00002ba0       $SG112073                  1008aba0     OposInternals.obj
 0002:00002bac       $SG112074                  1008abac     OposInternals.obj
 0002:00002bd8       $SG112075                  1008abd8     OposInternals.obj
 0002:00002bec       $SG112076                  1008abec     OposInternals.obj
 0002:00002c00       $SG112077                  1008ac00     OposInternals.obj
 0002:00002c14       $SG112078                  1008ac14     OposInternals.obj
 0002:00002c20       $SG112079                  1008ac20     OposInternals.obj
 0002:00002c28       $SG112080                  1008ac28     OposInternals.obj
 0002:00002c3c       $SG112081                  1008ac3c     OposInternals.obj
 0002:00002c4c       $SG112082                  1008ac4c     OposInternals.obj
 0002:00002c60       $SG112083                  1008ac60     OposInternals.obj
 0002:00002c70       $SG194343                  1008ac70     OposInternals.obj
 0002:00002c88       $SG194344                  1008ac88     OposInternals.obj
 0002:00002c90       $SG194345                  1008ac90     OposInternals.obj
 0002:00002d70       $SG194348                  1008ad70     OposInternals.obj
 0002:00002de0       $SG194349                  1008ade0     OposInternals.obj
 0002:00002e30       $SG194368                  1008ae30     OposInternals.obj
 0002:00002e6c       $SG194369                  1008ae6c     OposInternals.obj
 0002:00002e74       $SG194405                  1008ae74     OposInternals.obj
 0002:00002e98       $SG194370                  1008ae98     OposInternals.obj
 0002:00002f78       $SG194406                  1008af78     OposInternals.obj
 0002:00002f80       $SG194407                  1008af80     OposInternals.obj
 0002:00003060       $SG194412                  1008b060     OposInternals.obj
 0002:0000308c       $SG194413                  1008b08c     OposInternals.obj
 0002:00003094       $SG194431                  1008b094     OposInternals.obj
 0002:000030b8       $SG194414                  1008b0b8     OposInternals.obj
 0002:00003198       $SG194432                  1008b198     OposInternals.obj
 0002:000031a0       $SG194433                  1008b1a0     OposInternals.obj
 0002:00003280       $SG194434                  1008b280     OposInternals.obj
 0002:000032a4       $SG194435                  1008b2a4     OposInternals.obj
 0002:000032ac       $SG194454                  1008b2ac     OposInternals.obj
 0002:000032d0       $SG194436                  1008b2d0     OposInternals.obj
 0002:000033b0       $SG194455                  1008b3b0     OposInternals.obj
 0002:000033b8       $SG194456                  1008b3b8     OposInternals.obj
 0002:00003498       $SG194478                  1008b498     OposInternals.obj
 0002:000034d4       $SG194479                  1008b4d4     OposInternals.obj
 0002:000034dc       $SG194694                  1008b4dc     OposInternals.obj
 0002:000034f8       $SG194480                  1008b4f8     OposInternals.obj
 0002:000035d8       $SG194513                  1008b5d8     OposInternals.obj
 0002:000035e8       $SG194514                  1008b5e8     OposInternals.obj
 0002:000035f0       $SG194515                  1008b5f0     OposInternals.obj
 0002:00003640       $SG194540                  1008b640     OposInternals.obj
 0002:00003650       $SG194541                  1008b650     OposInternals.obj
 0002:00003658       $SG194542                  1008b658     OposInternals.obj
 0002:000036a8       $SG194695                  1008b6a8     OposInternals.obj
 0002:000036b0       $SG194696                  1008b6b0     OposInternals.obj
 0002:00003700       $SG194725                  1008b700     OposInternals.obj
 0002:00003718       $SG194726                  1008b718     OposInternals.obj
 0002:00003720       $SG194727                  1008b720     OposInternals.obj
 0002:00003804       $SG194761                  1008b804     OposInternals.obj
 0002:0000381c       $SG194762                  1008b81c     OposInternals.obj
 0002:00003824       $SG186909                  1008b824     OposInternals.obj
 0002:00003828       $SG194763                  1008b828     OposInternals.obj
 0002:0000390c       $SG194797                  1008b90c     OposInternals.obj
 0002:00003924       $SG194798                  1008b924     OposInternals.obj
 0002:0000392c       $SG186913                  1008b92c     OposInternals.obj
 0002:00003948       $SG194799                  1008b948     OposInternals.obj
 0002:00003a2c       $SG194833                  1008ba2c     OposInternals.obj
 0002:00003a44       $SG194834                  1008ba44     OposInternals.obj
 0002:00003a4c       $SG186918                  1008ba4c     OposInternals.obj
 0002:00003a60       $SG194835                  1008ba60     OposInternals.obj
 0002:00003b44       $SG195057                  1008bb44     OposInternals.obj
 0002:00003b54       $SG195058                  1008bb54     OposInternals.obj
 0002:00003b5c       $SG113203                  1008bb5c     OposInternals.obj
 0002:00003b80       $SG195059                  1008bb80     OposInternals.obj
 0002:00003bd0       $SG186914                  1008bbd0     OposInternals.obj
 0002:00003bd8       $SG186915                  1008bbd8     OposInternals.obj
 0002:00003cbc       $SG186919                  1008bcbc     OposInternals.obj
 0002:00003cc4       $SG187003                  1008bcc4     OposInternals.obj
 0002:00003cc8       $SG186920                  1008bcc8     OposInternals.obj
 0002:00003dac       $SG113204                  1008bdac     OposInternals.obj
 0002:00003db4       $SG187007                  1008bdb4     OposInternals.obj
 0002:00003dd0       $SG186922                  1008bdd0     OposInternals.obj
 0002:00003e44       $SG186925                  1008be44     OposInternals.obj
 0002:00003e74       $SG186934                  1008be74     OposInternals.obj
 0002:00003e7c       $SG187014                  1008be7c     OposInternals.obj
 0002:00003e90       $SG186923                  1008be90     OposInternals.obj
 0002:00003ed8       $SG186924                  1008bed8     OposInternals.obj
 0002:00003f4c       $SG186933                  1008bf4c     OposInternals.obj
 0002:00003f5c       $SG187008                  1008bf5c     OposInternals.obj
 0002:00003f68       $SG113205                  1008bf68     OposInternals.obj
 0002:00004050       $SG186935                  1008c050     OposInternals.obj
 0002:00004138       $SG187009                  1008c138     OposInternals.obj
 0002:0000421c       $SG187015                  1008c21c     OposInternals.obj
 0002:00004228       $SG187016                  1008c228     OposInternals.obj
 0002:00004310       $SG187018                  1008c310     OposInternals.obj
 0002:00004388       $SG187019                  1008c388     OposInternals.obj
 0002:000043d0       $SG187020                  1008c3d0     OposInternals.obj
 0002:00004444       $SG187021                  1008c444     OposInternals.obj
 0002:00004474       $SG187029                  1008c474     OposInternals.obj
 0002:00004484       $SG187030                  1008c484     OposInternals.obj
 0002:00004490       $SG187031                  1008c490     OposInternals.obj
 0002:00007e08       _GS_ExceptionPointers      1008fe08     LIBCMTD:gs_report.obj
 0002:00007e18       ?_RTC_ErrorMessages@@3QBQBDB 1008fe18     LIBCMTD:error.obj
 0002:00007e30       ?_RTC_NoFalsePositives@@3QBHB 1008fe30     LIBCMTD:error.obj
 0002:00007e48       ?stack_premsg@@3QBDB       1008fe48     LIBCMTD:error.obj
 0002:00007e64       ?stack_postmsg@@3QBDB      1008fe64     LIBCMTD:error.obj
 0002:00007e78       ?uninit_premsg@@3QBDB      1008fe78     LIBCMTD:error.obj
 0002:00007e88       ?uninit_postmsg@@3QBDB     1008fe88     LIBCMTD:error.obj
 0002:000083c8       ?_RTC_errlist@@3QBQBDB     100903c8     LIBCMTD:userapi.obj
 0002:00008488       ?mspdbName@@3QB_WB         10090488     LIBCMTD:pdblkup.obj
 0002:000084ac       ?debugCrtFileName@@3QB_WB  100904ac     LIBCMTD:pdblkup.obj
 0002:000085f4       ?dllExt@?1??GetPdbDllPathFromFilePath@@YAHPB_WPA_WI@Z@4QB_WB 100905f4     LIBCMTD:pdblkup.obj
 0002:000085fc       ?mspdbFilename@?1??GetPdbDllPathFromFilePath@@YAHPB_WPA_WI@Z@4QB_WB 100905fc     LIBCMTD:pdblkup.obj
 0002:00008850       ?tokenTable@@3QBUStringLiteral@@B 10090850     libvcruntimed:undname.obj
 0002:000088d0       ?nameTable@@3QBUStringLiteral@@B 100908d0     libvcruntimed:undname.obj
 0002:00008b68       ?rttiTable@@3QBUStringLiteral@@B 10090b68     libvcruntimed:undname.obj
 0002:00008b90       ?IndirectionName@@3QBUStringLiteral@@B 10090b90     libvcruntimed:undname.obj
 0002:00008bc0       ?PrefixName@@3QBUStringLiteral@@B 10090bc0     libvcruntimed:undname.obj
 0002:00009678       ?result@?1??IsValidIdentChar@@YA_ND@Z@4U<unnamed-type-result>@?1??InitValidIdentChar@@YA?AU2@XZ@B 10091678     libvcruntimed:undname.obj
 0002:000097b0       ?module_names@?A0xb97aeec8@@3QBQB_WB 100917b0     libvcruntimed:winapi_downlevel.obj
 0002:000099fc       ?candidate_modules@?1??try_get_FlsAlloc@@YAP6GKP6GXPAX@Z@ZXZ@4QBW4module_id@?A0xb97aeec8@@B 100919fc     libvcruntimed:winapi_downlevel.obj
 0002:00009a10       ?candidate_modules@?1??try_get_FlsFree@@YAP6GHK@ZXZ@4QBW4module_id@?A0xb97aeec8@@B 10091a10     libvcruntimed:winapi_downlevel.obj
 0002:00009a20       ?candidate_modules@?1??try_get_FlsGetValue@@YAP6GPAXK@ZXZ@4QBW4module_id@?A0xb97aeec8@@B 10091a20     libvcruntimed:winapi_downlevel.obj
 0002:00009a34       ?candidate_modules@?1??try_get_FlsSetValue@@YAP6GHKPAX@ZXZ@4QBW4module_id@?A0xb97aeec8@@B 10091a34     libvcruntimed:winapi_downlevel.obj
 0002:00009a48       ?candidate_modules@?1??try_get_InitializeCriticalSectionEx@@YAP6GHPAU_RTL_CRITICAL_SECTION@@KK@ZXZ@4QBW4module_id@?A0xb97aeec8@@B 10091a48     libvcruntimed:winapi_downlevel.obj
 0002:00009a6c       ?report_type_messages@@3QBQB_WB 10091a6c     libucrtd:dbgrpt.obj
 0002:00009ab8       ?more_info_string@@3QB_WB  10091ab8     libucrtd:dbgrpt.obj
 0002:00009f40       ?empty_string@?1???$common_message_window@D@@YAHHQAXQBD111@Z@4QBDB 10091f40     libucrtd:dbgrpt.obj
 0002:0000a224       ?empty_string@?1???$common_message_window@_W@@YAHHQAXQB_W111@Z@4QB_WB 10092224     libucrtd:dbgrpt.obj
 0002:000153b0       ?errtable@@3QBUerrentry@?A0x31fdb9ec@@B 1009d3b0     libucrtd:errno.obj
 0002:00015ac0       ___acrt_initializers       1009dac0     libucrtd:initialization.obj
 0002:00015b40       ?block_use_names@@3QBQBDB  1009db40     libucrtd:debug_heap.obj
 0002:00018768       ?strings@?1??fp_format_nan_or_infinity@@YAHW4__acrt_fp_class@@_NPADI1@Z@4QAY03QBDA 100a0768     libucrtd:cvt.obj
 0002:00019018       __first_127char            100a1018     libucrtd:wsetlocale.obj
 0002:0001b260       ?_mb_locale_names@@3QBQB_WB 100a3260     libucrtd:mbctype.obj
 0002:0001b6d0       ?module_names@?A0x391cf84c@@3QBQB_WB 100a36d0     libucrtd:winapi_thunks.obj
 0002:0001bbbc       ?candidate_modules@?1??try_get_AreFileApisANSI@@YAP6GHXZXZ@4QBW4module_id@?A0x391cf84c@@B 100a3bbc     libucrtd:winapi_thunks.obj
 0002:0001bbd0       ?candidate_modules@?1??try_get_CompareStringEx@@YAP6GHPB_WK0H0HPAU_nlsversioninfo@@PAXJ@ZXZ@4QBW4module_id@?A0x391cf84c@@B 100a3bd0     libucrtd:winapi_thunks.obj
 0002:0001bbe8       ?candidate_modules@?1??try_get_EnumSystemLocalesEx@@YAP6GHP6GHPA_WKJ@ZKJPAX@ZXZ@4QBW4module_id@?A0x391cf84c@@B 100a3be8     libucrtd:winapi_thunks.obj
 0002:0001bc04       ?candidate_modules@?1??try_get_FlsAlloc@@YAP6GKP6GXPAX@Z@ZXZ@4QBW4module_id@?A0x391cf84c@@B 100a3c04     libucrtd:winapi_thunks.obj
 0002:0001bc0c       ?candidate_modules@?1??try_get_FlsFree@@YAP6GHK@ZXZ@4QBW4module_id@?A0x391cf84c@@B 100a3c0c     libucrtd:winapi_thunks.obj
 0002:0001bc14       ?candidate_modules@?1??try_get_FlsGetValue@@YAP6GPAXK@ZXZ@4QBW4module_id@?A0x391cf84c@@B 100a3c14     libucrtd:winapi_thunks.obj
 0002:0001bc1c       ?candidate_modules@?1??try_get_FlsSetValue@@YAP6GHKPAX@ZXZ@4QBW4module_id@?A0x391cf84c@@B 100a3c1c     libucrtd:winapi_thunks.obj
 0002:0001bc24       ?candidate_modules@?1??try_get_GetActiveWindow@@YAP6GPAUHWND__@@XZXZ@4QBW4module_id@?A0x391cf84c@@B 100a3c24     libucrtd:winapi_thunks.obj
 0002:0001bc3c       ?candidate_modules@?1??try_get_GetDateFormatEx@@YAP6GHPB_WKPBU_SYSTEMTIME@@0PA_WH0@ZXZ@4QBW4module_id@?A0x391cf84c@@B 100a3c3c     libucrtd:winapi_thunks.obj
 0002:0001bc54       ?candidate_modules@?1??try_get_GetEnabledXStateFeatures@@YAP6G_KXZXZ@4QBW4module_id@?A0x391cf84c@@B 100a3c54     libucrtd:winapi_thunks.obj
 0002:0001bc78       ?candidate_modules@?1??try_get_GetLastActivePopup@@YAP6GPAUHWND__@@PAU2@@ZXZ@4QBW4module_id@?A0x391cf84c@@B 100a3c78     libucrtd:winapi_thunks.obj
 0002:0001bc94       ?candidate_modules@?1??try_get_GetLocaleInfoEx@@YAP6GHPB_WKPA_WH@ZXZ@4QBW4module_id@?A0x391cf84c@@B 100a3c94     libucrtd:winapi_thunks.obj
 0002:0001bcac       ?candidate_modules@?1??try_get_GetProcessWindowStation@@YAP6GPAUHWINSTA__@@XZXZ@4QBW4module_id@?A0x391cf84c@@B 100a3cac     libucrtd:winapi_thunks.obj
 0002:0001bccc       ?candidate_modules@?1??try_get_GetSystemTimePreciseAsFileTime@@YAP6GXPAU_FILETIME@@@ZXZ@4QBW4module_id@?A0x391cf84c@@B 100a3ccc     libucrtd:winapi_thunks.obj
 0002:0001bcf0       ?candidate_modules@?1??try_get_GetTimeFormatEx@@YAP6GHPB_WKPBU_SYSTEMTIME@@0PA_WH@ZXZ@4QBW4module_id@?A0x391cf84c@@B 100a3cf0     libucrtd:winapi_thunks.obj
 0002:0001bd08       ?candidate_modules@?1??try_get_GetUserDefaultLocaleName@@YAP6GHPA_WH@ZXZ@4QBW4module_id@?A0x391cf84c@@B 100a3d08     libucrtd:winapi_thunks.obj
 0002:0001bd2c       ?candidate_modules@?1??try_get_GetUserObjectInformationW@@YAP6GHPAXH0KPAK@ZXZ@4QBW4module_id@?A0x391cf84c@@B 100a3d2c     libucrtd:winapi_thunks.obj
 0002:0001bd50       ?candidate_modules@?1??try_get_GetXStateFeaturesMask@@YAP6GHPAU_CONTEXT@@PA_K@ZXZ@4QBW4module_id@?A0x391cf84c@@B 100a3d50     libucrtd:winapi_thunks.obj
 0002:0001bd70       ?candidate_modules@?1??try_get_InitializeCriticalSectionEx@@YAP6GHPAU_RTL_CRITICAL_SECTION@@KK@ZXZ@4QBW4module_id@?A0x391cf84c@@B 100a3d70     libucrtd:winapi_thunks.obj
 0002:0001bd78       ?candidate_modules@?1??try_get_IsValidLocaleName@@YAP6GHPB_W@ZXZ@4QBW4module_id@?A0x391cf84c@@B 100a3d78     libucrtd:winapi_thunks.obj
 0002:0001bd94       ?candidate_modules@?1??try_get_LCMapStringEx@@YAP6GHPB_WK0HPA_WHPAU_nlsversioninfo@@PAXJ@ZXZ@4QBW4module_id@?A0x391cf84c@@B 100a3d94     libucrtd:winapi_thunks.obj
 0002:0001bdac       ?candidate_modules@?1??try_get_LCIDToLocaleName@@YAP6GHKPA_WHK@ZXZ@4QBW4module_id@?A0x391cf84c@@B 100a3dac     libucrtd:winapi_thunks.obj
 0002:0001bdc8       ?candidate_modules@?1??try_get_LocaleNameToLCID@@YAP6GKPB_WK@ZXZ@4QBW4module_id@?A0x391cf84c@@B 100a3dc8     libucrtd:winapi_thunks.obj
 0002:0001bde4       ?candidate_modules@?1??try_get_LocateXStateFeature@@YAP6GPAXPAU_CONTEXT@@KPAK@ZXZ@4QBW4module_id@?A0x391cf84c@@B 100a3de4     libucrtd:winapi_thunks.obj
 0002:0001be00       ?candidate_modules@?1??try_get_MessageBoxA@@YAP6GHPAUHWND__@@PBD1I@ZXZ@4QBW4module_id@?A0x391cf84c@@B 100a3e00     libucrtd:winapi_thunks.obj
 0002:0001be14       ?candidate_modules@?1??try_get_MessageBoxW@@YAP6GHPAUHWND__@@PB_W1I@ZXZ@4QBW4module_id@?A0x391cf84c@@B 100a3e14     libucrtd:winapi_thunks.obj
 0002:0001be28       ?candidate_modules@?1??try_get_RoInitialize@@YAP6GJW4RO_INIT_TYPE@@@ZXZ@4QBW4module_id@?A0x391cf84c@@B 100a3e28     libucrtd:winapi_thunks.obj
 0002:0001be3c       ?candidate_modules@?1??try_get_RoUninitialize@@YAP6GXXZXZ@4QBW4module_id@?A0x391cf84c@@B 100a3e3c     libucrtd:winapi_thunks.obj
 0002:0001be50       ?candidate_modules@?1??try_get_AppPolicyGetProcessTerminationMethod@@YAP6GJPAXPAW4AppPolicyProcessTerminationMethod@@@ZXZ@4QBW4module_id@?A0x391cf84c@@B 100a3e50     libucrtd:winapi_thunks.obj
 0002:0001be7c       ?candidate_modules@?1??try_get_AppPolicyGetThreadInitializationType@@YAP6GJPAXPAW4AppPolicyThreadInitializationType@@@ZXZ@4QBW4module_id@?A0x391cf84c@@B 100a3e7c     libucrtd:winapi_thunks.obj
 0002:0001bea8       ?candidate_modules@?1??try_get_AppPolicyGetShowDeveloperDiagnostic@@YAP6GJPAXPAW4AppPolicyShowDeveloperDiagnostic@@@ZXZ@4QBW4module_id@?A0x391cf84c@@B 100a3ea8     libucrtd:winapi_thunks.obj
 0002:0001bed0       ?candidate_modules@?1??try_get_AppPolicyGetWindowingModel@@YAP6GJPAXPAW4AppPolicyWindowingModel@@@ZXZ@4QBW4module_id@?A0x391cf84c@@B 100a3ed0     libucrtd:winapi_thunks.obj
 0002:0001bef0       ?candidate_modules@?1??try_get_SetThreadStackGuarantee@@YAP6GHPAK@ZXZ@4QBW4module_id@?A0x391cf84c@@B 100a3ef0     libucrtd:winapi_thunks.obj
 0002:0001bf10       ?candidate_modules@?1??try_get_SystemFunction036@@YAP6GEPAXK@ZXZ@4QBW4module_id@?A0x391cf84c@@B 100a3f10     libucrtd:winapi_thunks.obj
 0002:00020648       ?LcidToLocaleNameTable@?A0x881e4c05@@3QBULcidToLocaleName@1@B 100a8648     libucrtd:lcidtoname_downlevel.obj
 0002:00021768       ?LocaleNameToIndexTable@?A0x881e4c05@@3QBULocaleNameIndex@1@B 100a9768     libucrtd:lcidtoname_downlevel.obj
 0002:00022ec0       _One                       100aaec0     libucrtd:ceil_pentium4.obj
 0002:00022ed0       _Bns                       100aaed0     libucrtd:ceil_pentium4.obj
 0002:00022ee0       _Zero                      100aaee0     libucrtd:ceil_pentium4.obj
 0002:00022ef0       _S                         100aaef0     libucrtd:ceil_pentium4.obj
 0002:00022f00       _NegZero                   100aaf00     libucrtd:ceil_pentium4.obj
 0002:00023820       LOG_name                   100ab820     libucrtd:log10_impl.obj
 0002:00023830       emask                      100ab830     libucrtd:log10_pentium4.obj
 0002:00023840       CC                         100ab840     libucrtd:log10_pentium4.obj
 0002:00023850       Magic                      100ab850     libucrtd:log10_pentium4.obj
 0002:00023860       hi_mask                    100ab860     libucrtd:log10_pentium4.obj
 0002:00023870       LOG10_2                    100ab870     libucrtd:log10_pentium4.obj
 0002:00023880       place_L                    100ab880     libucrtd:log10_pentium4.obj
 0002:000238a0       One                        100ab8a0     libucrtd:log10_pentium4.obj
 0002:000238b0       Zero                       100ab8b0     libucrtd:log10_pentium4.obj
 0002:000238c0       Two52                      100ab8c0     libucrtd:log10_pentium4.obj
 0002:000238d0       Infs                       100ab8d0     libucrtd:log10_pentium4.obj
 0002:000238e0       NaN                        100ab8e0     libucrtd:log10_pentium4.obj
 0002:000238f0       coeff                      100ab8f0     libucrtd:log10_pentium4.obj
 0002:00023930       _INF                       100ab930     libucrtd:libm_error.obj
 0002:00023940       _BIG                       100ab940     libucrtd:libm_error.obj
 0002:00023950       _ZERO                      100ab950     libucrtd:libm_error.obj
 0002:00023960       _INF_32                    100ab960     libucrtd:libm_error.obj
 0002:00023968       _NAN_32                    100ab968     libucrtd:libm_error.obj
 0002:00023970       _ZERO_32                   100ab970     libucrtd:libm_error.obj
 0002:00023978       _libm_largef               100ab978     libucrtd:libm_error.obj
 0002:00023980       _libm_smallf               100ab980     libucrtd:libm_error.obj
 0002:00023988       _libm_small                100ab988     libucrtd:libm_error.obj
 0002:000239d0       _newcw                     100ab9d0     libucrtd:ceil.obj
 0002:000239d4       ?commonFlags@?1??_control87@@9@9 100ab9d4     libucrtd:ieee87.obj
 0002:00023d2e       _log2max                   100abd2e     libucrtd:87tran.obj
 0002:00023d38       _smallarg                  100abd38     libucrtd:87tran.obj
 0002:00023d42       _half                      100abd42     libucrtd:87tran.obj
 0002:00023d8e       One                        100abd8e     libucrtd:87disp.obj
 0002:00023d96       Three                      100abd96     libucrtd:87disp.obj
 0002:00023d9e       XAMtoTagTab                100abd9e     libucrtd:87disp.obj
 0002:00023db0       One                        100abdb0     libucrtd:common.obj
 0002:00023dc4       DblMax                     100abdc4     libucrtd:common.obj
 0002:00023dcc       DblMin                     100abdcc     libucrtd:common.obj
 0002:00023dd4       IeeeAdjO                   100abdd4     libucrtd:common.obj
 0002:00023ddc       IeeeAdjU                   100abddc     libucrtd:common.obj
 0002:00023de4       _infinity                  100abde4     libucrtd:common.obj
 0002:00023dec       _zero                      100abdec     libucrtd:common.obj
 0002:00024620       ?_names@?1??_get_fname@@9@9 100ac620     libucrtd:fpexcept.obj
 0002:000247d8       _over                      100ac7d8     libucrtd:fpctrl.obj
 0002:000247e4       _under                     100ac7e4     libucrtd:fpctrl.obj
 0002:0002480c       ?mask@?P@??_d_int@@9@4QBGB 100ac80c     libucrtd:_test.obj
 0002:0002482c       ?sub@?P@??_d_int@@9@4QBIB  100ac82c     libucrtd:_test.obj
 0002:0002483c       ?mask@?P@??_fd_int@@9@4QBGB 100ac83c     libucrtd:_test.obj
 0002:0002485c       ?sub@?P@??_fd_int@@9@4QBIB 100ac85c     libucrtd:_test.obj
 0002:00024870       two32                      100ac870     LIBCMTD:ftol2.obj
 0002:00024874       two63                      100ac874     LIBCMTD:ftol2.obj
 0002:00024878       _NaN                       100ac878     LIBCMTD:ftol2.obj
 0002:00025128       __RTC_InitBase.rtc$IMZ     100ad128     StdAfx.obj
 0002:0002512c       __RTC_InitBase.rtc$IMZ     100ad12c     OposInternals.obj
 0002:00025138       __RTC_Shutdown.rtc$TMZ     100ad138     StdAfx.obj
 0002:0002513c       __RTC_Shutdown.rtc$TMZ     100ad13c     OposInternals.obj
 0002:00025148       __sehtable$___scrt_is_nonwritable_in_current_image 100ad148     LIBCMTD:utility.obj
 0002:00025168       __sehtable$?dllmain_crt_process_attach@@YAHQAUHINSTANCE__@@QAX@Z 100ad168     LIBCMTD:dll_dllmain.obj
 0002:00025188       __sehtable$?dllmain_crt_process_detach@@YAH_N@Z 100ad188     LIBCMTD:dll_dllmain.obj
 0002:000251b0       __sehtable$?dllmain_dispatch@@YAHQAUHINSTANCE__@@KQAX@Z 100ad1b0     LIBCMTD:dll_dllmain.obj
 0002:000251d0       __sehtable$?notify_debugger@@YAXABUtagEXCEPTION_VISUALCPP_DEBUG_INFO@@@Z 100ad1d0     LIBCMTD:error.obj
 0002:000251ec       __catchsym$??2@YAPAXIABUnothrow_t@std@@@Z$2 100ad1ec     LIBCMTD:new_scalar_nothrow.obj
 0002:000251fc       __unwindtable$??2@YAPAXIABUnothrow_t@std@@@Z 100ad1fc     LIBCMTD:new_scalar_nothrow.obj
 0002:0002520c       __tryblocktable$??2@YAPAXIABUnothrow_t@std@@@Z 100ad20c     LIBCMTD:new_scalar_nothrow.obj
 0002:00025220       __ehfuncinfo$??2@YAPAXIABUnothrow_t@std@@@Z 100ad220     LIBCMTD:new_scalar_nothrow.obj
 0002:000252d8       __sehtable$___DestructExceptionObject 100ad2d8     libvcruntimed:ehhelpers.obj
 0002:000252f8       __sehtable$?FrameUnwindToState@__FrameHandler3@@SAXPAUEHRegistrationNode@@PAXPBU_s_FuncInfo@@H@Z 100ad2f8     libvcruntimed:frame.obj
 0002:00025320       __sehtable$?CallCatchBlock@@YAPAXPAUEHExceptionRecord@@PAUEHRegistrationNode@@PAU_CONTEXT@@PBU_s_FuncInfo@@PAXHK@Z 100ad320     libvcruntimed:frame.obj
 0002:00025348       __catchsym$?CallUnexpected@@YAXPBU_s_ESTypeList@@@Z$2 100ad348     libvcruntimed:frame.obj
 0002:00025358       __unwindtable$?CallUnexpected@@YAXPBU_s_ESTypeList@@@Z 100ad358     libvcruntimed:frame.obj
 0002:00025368       __tryblocktable$?CallUnexpected@@YAXPBU_s_ESTypeList@@@Z 100ad368     libvcruntimed:frame.obj
 0002:0002537c       __ehfuncinfo$?CallUnexpected@@YAXPBU_s_ESTypeList@@@Z 100ad37c     libvcruntimed:frame.obj
 0002:000253a0       __sehtable$??$BuildCatchObjectHelperInternal@V__FrameHandler3@@@@YAHPAUEHExceptionRecord@@PAXPBU_s_HandlerType@@PBU_s_CatchableType@@@Z 100ad3a0     libvcruntimed:frame.obj
 0002:000253c0       __sehtable$??$BuildCatchObjectInternal@V__FrameHandler3@@@@YAXPAUEHExceptionRecord@@PAXPBU_s_HandlerType@@PBU_s_CatchableType@@@Z 100ad3c0     libvcruntimed:frame.obj
 0002:00025418       __sehtable$___unDNameEx    100ad418     libvcruntimed:undname.obj
 0002:00025434       __unwindtable$?getDecoratedName@UnDecorator@@CA?AVDName@@XZ 100ad434     libvcruntimed:undname.obj
 0002:0002543c       __ehfuncinfo$?getDecoratedName@UnDecorator@@CA?AVDName@@XZ 100ad43c     libvcruntimed:undname.obj
 0002:00025460       __sehtable$??$?RV<lambda_b3f2a7703f147ea4aca55ed56acde2ed>@@AAV<lambda_a222bbfdcf97c91f7d8030c20e23060e>@@V<lambda_069423356000c0f10f5fe96ac65db66d>@@@?$__crt_seh_guarded_call@H@@QAEH$$QAV<lambda_b3f2a7703f147ea4aca55ed56acde2ed>@@AAV<lambda_a222bbfdcf97c91f7d8030c20e23060e>@@$$QAV<lambda_069423356000c0f10f5fe96ac65db66d>@@@Z 100ad460     libucrtd:dbgrpt.obj
 0002:00025480       __sehtable$??$?RV<lambda_6b91fda0574d829f36484cbf4428f79d>@@AAV<lambda_a6a20e8ed7c4ffd287162f70e68c8000>@@V<lambda_6f6612a01283b279e88a3dda7d7a9d30>@@@?$__crt_seh_guarded_call@H@@QAEH$$QAV<lambda_6b91fda0574d829f36484cbf4428f79d>@@AAV<lambda_a6a20e8ed7c4ffd287162f70e68c8000>@@$$QAV<lambda_6f6612a01283b279e88a3dda7d7a9d30>@@@Z 100ad480     libucrtd:dbgrpt.obj
 0002:000254a0       __sehtable$??$?RV<lambda_c29ee0499b841886b80d843682cc403a>@@AAV<lambda_0be4ab1c2a6918fda4e39227d83ea893>@@V<lambda_5a3ed3da325c8ea037a470278c0f2d16>@@@?$__crt_seh_guarded_call@H@@QAEH$$QAV<lambda_c29ee0499b841886b80d843682cc403a>@@AAV<lambda_0be4ab1c2a6918fda4e39227d83ea893>@@$$QAV<lambda_5a3ed3da325c8ea037a470278c0f2d16>@@@Z 100ad4a0     libucrtd:output.obj
 0002:000254c0       __sehtable$??$?RV<lambda_9b2bd5c6bb91c5c032542faa5c3cb611>@@AAV<lambda_be68057ced330f874c40fe9612235e36>@@V<lambda_dbd837d1c0b7fc6e2d81c287c81c071b>@@@?$__crt_seh_guarded_call@H@@QAEH$$QAV<lambda_9b2bd5c6bb91c5c032542faa5c3cb611>@@AAV<lambda_be68057ced330f874c40fe9612235e36>@@$$QAV<lambda_dbd837d1c0b7fc6e2d81c287c81c071b>@@@Z 100ad4c0     libucrtd:output.obj
 0002:000254e0       __sehtable$??$?RV<lambda_5d912c5eb12d68f7685796d855ab8da6>@@AAV<lambda_81587a929b95143618da2bd798ca9df2>@@V<lambda_bfd63e08e93a545639db6d324cf10d1a>@@@?$__crt_seh_guarded_call@H@@QAEH$$QAV<lambda_5d912c5eb12d68f7685796d855ab8da6>@@AAV<lambda_81587a929b95143618da2bd798ca9df2>@@$$QAV<lambda_bfd63e08e93a545639db6d324cf10d1a>@@@Z 100ad4e0     libucrtd:output.obj
 0002:00025500       __sehtable$??$?RV<lambda_3cfd252a7c5e244e8f20fc56fe35ebe9>@@AAV<lambda_d7427dbf72509eba5fa970998bac2a27>@@V<lambda_8f55a0afecd2292d47fde3ce68e72492>@@@?$__crt_seh_guarded_call@H@@QAEH$$QAV<lambda_3cfd252a7c5e244e8f20fc56fe35ebe9>@@AAV<lambda_d7427dbf72509eba5fa970998bac2a27>@@$$QAV<lambda_8f55a0afecd2292d47fde3ce68e72492>@@@Z 100ad500     libucrtd:output.obj
 0002:00025520       __sehtable$??$?RV<lambda_ba8264b40644a42074cedf043e7aa388>@@AAV<lambda_9dc9bc4853282e051506c0cc602abcf3>@@V<lambda_1c412e3457517a614fb7d0c137686c95>@@@?$__crt_seh_guarded_call@H@@QAEH$$QAV<lambda_ba8264b40644a42074cedf043e7aa388>@@AAV<lambda_9dc9bc4853282e051506c0cc602abcf3>@@$$QAV<lambda_1c412e3457517a614fb7d0c137686c95>@@@Z 100ad520     libucrtd:output.obj
 0002:00025540       __sehtable$??$?RV<lambda_cae121c7667f229345c68b3f32b19755>@@AAV<lambda_b09925f738b1434f525bf50d3162636f>@@V<lambda_18d67e1eeb4dde13899af949c649d933>@@@?$__crt_seh_guarded_call@H@@QAEH$$QAV<lambda_cae121c7667f229345c68b3f32b19755>@@AAV<lambda_b09925f738b1434f525bf50d3162636f>@@$$QAV<lambda_18d67e1eeb4dde13899af949c649d933>@@@Z 100ad540     libucrtd:output.obj
 0002:00025560       __sehtable$??R<lambda_6e4b09c48022b2350581041d5f6b0c4c>@@QBE@XZ 100ad560     libucrtd:exit.obj
 0002:00025580       __sehtable$??$?RV<lambda_03b1d95aef87969028cfba75ccab2455>@@AAV<lambda_6e4b09c48022b2350581041d5f6b0c4c>@@V<lambda_22bdf7517842c4b3e53723af5aa32b9e>@@@?$__crt_seh_guarded_call@X@@QAEX$$QAV<lambda_03b1d95aef87969028cfba75ccab2455>@@AAV<lambda_6e4b09c48022b2350581041d5f6b0c4c>@@$$QAV<lambda_22bdf7517842c4b3e53723af5aa32b9e>@@@Z 100ad580     libucrtd:exit.obj
 0002:0002559c       __unwindtable$??R<lambda_d121dba8a4adeaf3a9819e48611155df>@@QBEHXZ 100ad59c     libucrtd:onexit.obj
 0002:000255a4       __ehfuncinfo$??R<lambda_d121dba8a4adeaf3a9819e48611155df>@@QBEHXZ 100ad5a4     libucrtd:onexit.obj
 0002:000255c8       __sehtable$??$?RV<lambda_b53b013fb8c6083c10bec37d2dacc554>@@AAV<lambda_3b83eb014488ad801d84acef5aaf14d3>@@V<lambda_121992cf5e0eae5719f6e4f596aaeb4f>@@@?$__crt_seh_guarded_call@H@@QAEH$$QAV<lambda_b53b013fb8c6083c10bec37d2dacc554>@@AAV<lambda_3b83eb014488ad801d84acef5aaf14d3>@@$$QAV<lambda_121992cf5e0eae5719f6e4f596aaeb4f>@@@Z 100ad5c8     libucrtd:onexit.obj
 0002:000255e8       __sehtable$??$?RV<lambda_d74cd35c3df28f16c733e6755eb03555>@@AAV<lambda_d121dba8a4adeaf3a9819e48611155df>@@V<lambda_ade73ae6aee997c6ba47ce5901b340f9>@@@?$__crt_seh_guarded_call@H@@QAEH$$QAV<lambda_d74cd35c3df28f16c733e6755eb03555>@@AAV<lambda_d121dba8a4adeaf3a9819e48611155df>@@$$QAV<lambda_ade73ae6aee997c6ba47ce5901b340f9>@@@Z 100ad5e8     libucrtd:onexit.obj
 0002:00025608       __sehtable$__CrtCheckMemory 100ad608     libucrtd:debug_heap.obj
 0002:00025628       __sehtable$__CrtDoForAllClientObjects 100ad628     libucrtd:debug_heap.obj
 0002:00025648       __sehtable$__CrtIsMemoryBlock 100ad648     libucrtd:debug_heap.obj
 0002:00025668       __sehtable$__CrtMemCheckpoint 100ad668     libucrtd:debug_heap.obj
 0002:00025688       __sehtable$__CrtMemDumpAllObjectsSince 100ad688     libucrtd:debug_heap.obj
 0002:000256a8       __sehtable$__CrtSetDbgFlag 100ad6a8     libucrtd:debug_heap.obj
 0002:000256c8       __sehtable$__expand_dbg    100ad6c8     libucrtd:debug_heap.obj
 0002:000256e8       __sehtable$__free_dbg      100ad6e8     libucrtd:debug_heap.obj
 0002:00025708       __sehtable$__msize_dbg     100ad708     libucrtd:debug_heap.obj
 0002:00025728       __sehtable$__realloc_dbg   100ad728     libucrtd:debug_heap.obj
 0002:00025748       __sehtable$?is_bad_read_pointer@@YA_NQBXI@Z 100ad748     libucrtd:debug_heap.obj
 0002:00025768       __sehtable$?validate_heap_if_required_nolock@@YAXXZ 100ad768     libucrtd:debug_heap.obj
 0002:00025788       __sehtable$?heap_alloc_dbg_internal@@YAPAXIHQBDH@Z 100ad788     libucrtd:debug_heap.obj
 0002:000257a8       __sehtable$__CrtSetDbgBlockType 100ad7a8     libucrtd:debug_heap.obj
 0002:000257c8       __sehtable$_terminate      100ad7c8     libucrtd:terminate.obj
 0002:000257e8       __sehtable$__query_new_handler 100ad7e8     libucrtd:new_handler.obj
 0002:00025808       __sehtable$__set_new_handler 100ad808     libucrtd:new_handler.obj
 0002:00025828       __sehtable$__VCrtDbgReportA 100ad828     libucrtd:dbgrptt.obj
 0002:00025850       __sehtable$__VCrtDbgReportW 100ad850     libucrtd:dbgrptt.obj
 0002:00025878       __ehfuncinfo$??1?$__crt_win32_buffer@DU__crt_win32_buffer_no_resizing@@@@QAE@XZ 100ad878     libucrtd:getmodulefilenamea.obj
 0002:000258a0       __sehtable$_signal         100ad8a0     libucrtd:signal.obj
 0002:000258c0       __sehtable$_raise          100ad8c0     libucrtd:signal.obj
 0002:000258e0       __sehtable$?ctrlevent_capture@@YGHK@Z 100ad8e0     libucrtd:signal.obj
 0002:00025900       __sehtable$??$?RV<lambda_cbab9ec6f41b0180b23cc171c22676b0>@@AAV<lambda_44731a7d0e6d81c3e6aa82d741081786>@@V<lambda_4b292cb8dd18144e164572427af410ab>@@@?$__crt_seh_guarded_call@P6AXH@Z@@QAEP6AXH@Z$$QAV<lambda_cbab9ec6f41b0180b23cc171c22676b0>@@AAV<lambda_44731a7d0e6d81c3e6aa82d741081786>@@$$QAV<lambda_4b292cb8dd18144e164572427af410ab>@@@Z 100ad900     libucrtd:signal.obj
 0002:00025920       __sehtable$??$?RV<lambda_15ade71b0218206bbe3333a0c9b79046>@@AAV<lambda_da44e0f8b0f19ba52fefafb335991732>@@V<lambda_207f2d024fc103971653565357d6cd41>@@@?$__crt_seh_guarded_call@X@@QAEX$$QAV<lambda_15ade71b0218206bbe3333a0c9b79046>@@AAV<lambda_da44e0f8b0f19ba52fefafb335991732>@@$$QAV<lambda_207f2d024fc103971653565357d6cd41>@@@Z 100ad920     libucrtd:per_thread_data.obj
 0002:00025940       __sehtable$??$?RV<lambda_a7e850c220f1c8d1e6efeecdedd162c6>@@AAV<lambda_46720907175c18b6c9d2717bc0d2d362>@@V<lambda_9048902d66e8d99359bc9897bbb930a8>@@@?$__crt_seh_guarded_call@X@@QAEX$$QAV<lambda_a7e850c220f1c8d1e6efeecdedd162c6>@@AAV<lambda_46720907175c18b6c9d2717bc0d2d362>@@$$QAV<lambda_9048902d66e8d99359bc9897bbb930a8>@@@Z 100ad940     libucrtd:per_thread_data.obj
 0002:00025960       __sehtable$??$?RV<lambda_eb0e2b1d104b126d27395a74edba6f03>@@AAV<lambda_d51eb34c9f7d53dbc39f6b791b6a3e42>@@V<lambda_f7564ebddb1f0eaf818ab6f3eade8363>@@@?$__crt_seh_guarded_call@X@@QAEX$$QAV<lambda_eb0e2b1d104b126d27395a74edba6f03>@@AAV<lambda_d51eb34c9f7d53dbc39f6b791b6a3e42>@@$$QAV<lambda_f7564ebddb1f0eaf818ab6f3eade8363>@@@Z 100ad960     libucrtd:per_thread_data.obj
 0002:00025980       __sehtable$??$?RV<lambda_6affb1475c98b40b75cdec977db92e3c>@@AAV<lambda_b8d4b9c228a6ecc3f80208dbb4b4a104>@@V<lambda_608742c3c92a14382c1684fc64f96c88>@@@?$__crt_seh_guarded_call@X@@QAEX$$QAV<lambda_6affb1475c98b40b75cdec977db92e3c>@@AAV<lambda_b8d4b9c228a6ecc3f80208dbb4b4a104>@@$$QAV<lambda_608742c3c92a14382c1684fc64f96c88>@@@Z 100ad980     libucrtd:per_thread_data.obj
 0002:0002599c       __unwindtable$?fp_format_a@@YAHQBNPADIQADIH_NIQAU__crt_locale_pointers@@W4__acrt_rounding_mode@@@Z 100ad99c     libucrtd:cvt.obj
 0002:000259a4       __ehfuncinfo$?fp_format_a@@YAHQBNPADIQADIH_NIQAU__crt_locale_pointers@@W4__acrt_rounding_mode@@@Z 100ad9a4     libucrtd:cvt.obj
 0002:000259c8       __sehtable$_fputwc         100ad9c8     libucrtd:fputwc.obj
 0002:000259e8       __sehtable$_fputc          100ad9e8     libucrtd:fputc.obj
 0002:00025a08       __sehtable$__free_locale   100ada08     libucrtd:wsetlocale.obj
 0002:00025a30       __sehtable$??$?RV<lambda_e5124f882df8998aaf41531e079ba474>@@AAV<lambda_3e16ef9562a7dcce91392c22ab16ea36>@@V<lambda_e25ca0880e6ef98be67edffd8c599615>@@@?$__crt_seh_guarded_call@X@@QAEX$$QAV<lambda_e5124f882df8998aaf41531e079ba474>@@AAV<lambda_3e16ef9562a7dcce91392c22ab16ea36>@@$$QAV<lambda_e25ca0880e6ef98be67edffd8c599615>@@@Z 100ada30     libucrtd:wsetlocale.obj
 0002:00025a50       __sehtable$??$?RV<lambda_82aef432098b982f9ede325b418aa67a>@@AAV<lambda_862e9a3f04921db6ca1ce3faa2bf3edf>@@V<lambda_ffabc152e504b53d7492b9889b10c020>@@@?$__crt_seh_guarded_call@X@@QAEX$$QAV<lambda_82aef432098b982f9ede325b418aa67a>@@AAV<lambda_862e9a3f04921db6ca1ce3faa2bf3edf>@@$$QAV<lambda_ffabc152e504b53d7492b9889b10c020>@@@Z 100ada50     libucrtd:wsetlocale.obj
 0002:00025a70       __sehtable$??$?RV<lambda_6673f7c4c09a5d469d0c27ae364621ce>@@AAV<lambda_ebab98244f73a74f49db879bf13fa982>@@V<lambda_be20789b7a146653eab82509ec35b419>@@@?$__crt_seh_guarded_call@X@@QAEX$$QAV<lambda_6673f7c4c09a5d469d0c27ae364621ce>@@AAV<lambda_ebab98244f73a74f49db879bf13fa982>@@$$QAV<lambda_be20789b7a146653eab82509ec35b419>@@@Z 100ada70     libucrtd:wsetlocale.obj
 0002:00025a90       __sehtable$??$?RV<lambda_0ff85b93027346d7432bb3023aec6ca2>@@AAV<lambda_68d7bddd96f25fcce1ffdf2015caa5ef>@@V<lambda_76dfb5fad0972d29fc31689647b14724>@@@?$__crt_seh_guarded_call@X@@QAEX$$QAV<lambda_0ff85b93027346d7432bb3023aec6ca2>@@AAV<lambda_68d7bddd96f25fcce1ffdf2015caa5ef>@@$$QAV<lambda_76dfb5fad0972d29fc31689647b14724>@@@Z 100ada90     libucrtd:wsetlocale.obj
 0002:00025ab0       __sehtable$??$?RV<lambda_e3d3a36ab7e68c499af6ccbe85f8d9f4>@@AAV<lambda_c71b65d7ce90e870fe94dc13983de2af>@@AAV<lambda_02db5278e8aef8b5e4976579d73f5304>@@@?$__crt_seh_guarded_call@X@@QAEX$$QAV<lambda_e3d3a36ab7e68c499af6ccbe85f8d9f4>@@AAV<lambda_c71b65d7ce90e870fe94dc13983de2af>@@AAV<lambda_02db5278e8aef8b5e4976579d73f5304>@@@Z 100adab0     libucrtd:wsetlocale.obj
 0002:00025ad0       __sehtable$___acrt_initialize_lowio 100adad0     libucrtd:ioinit.obj
 0002:00025aec       __ehfuncinfo$??1?$__crt_win32_buffer@_WU__crt_win32_buffer_internal_dynamic_resizing@@@@QAE@XZ 100adaec     libucrtd:argv_wildcards.obj
 0002:00025b10       __ehfuncinfo$??1?$__crt_win32_buffer@DU__crt_win32_buffer_internal_dynamic_resizing@@@@QAE@XZ 100adb10     libucrtd:argv_wildcards.obj
 0002:00025b38       __sehtable$?update_thread_multibyte_data_internal@@YAPAU__crt_multibyte_data@@QAU__acrt_ptd@@QAPAU1@@Z 100adb38     libucrtd:mbctype.obj
 0002:00025b58       __sehtable$??$?RV<lambda_b5fb591949065c3fa449bad279e8c939>@@AAV<lambda_6c10a39a819b864ce80acc26b314dcd3>@@V<lambda_e567670a9eae49807d365f3e9c117712>@@@?$__crt_seh_guarded_call@X@@QAEX$$QAV<lambda_b5fb591949065c3fa449bad279e8c939>@@AAV<lambda_6c10a39a819b864ce80acc26b314dcd3>@@$$QAV<lambda_e567670a9eae49807d365f3e9c117712>@@@Z 100adb58     libucrtd:mbctype.obj
 0002:00025b78       __sehtable$??$?RV<lambda_6b4b7855443974f2b4b77000ea21c99c>@@AAV<lambda_8f7d3b162ab39427f4fa9995c67a7986>@@V<lambda_cc9a5ba8a5d8428b9634eab82665e5dc>@@@?$__crt_seh_guarded_call@H@@QAEH$$QAV<lambda_6b4b7855443974f2b4b77000ea21c99c>@@AAV<lambda_8f7d3b162ab39427f4fa9995c67a7986>@@$$QAV<lambda_cc9a5ba8a5d8428b9634eab82665e5dc>@@@Z 100adb78     libucrtd:winapi_thunks.obj
 0002:00025b94       __unwindtable$?_wcstombs_l_helper@@YAIPADPB_WIPAU__crt_locale_pointers@@@Z 100adb94     libucrtd:wcstombs.obj
 0002:00025b9c       __ehfuncinfo$?_wcstombs_l_helper@@YAIPADPB_WIPAU__crt_locale_pointers@@@Z 100adb9c     libucrtd:wcstombs.obj
 0002:00025bc0       __sehtable$___acrt_update_thread_locale_data 100adbc0     libucrtd:locale_refcounting.obj
 0002:00025be0       __sehtable$__fcloseall     100adbe0     libucrtd:closeall.obj
 0002:00025c00       __sehtable$??$?RV<lambda_2866be3712abc81a800a822484c830d8>@@AAV<lambda_39ca0ed439415581b5b15c265174cece>@@V<lambda_2b24c74d71094a6cd0cb82e44167d71b>@@@?$__crt_seh_guarded_call@X@@QAEX$$QAV<lambda_2866be3712abc81a800a822484c830d8>@@AAV<lambda_39ca0ed439415581b5b15c265174cece>@@$$QAV<lambda_2b24c74d71094a6cd0cb82e44167d71b>@@@Z 100adc00     libucrtd:fflush.obj
 0002:00025c20       __sehtable$??$?RV<lambda_2cc53f568c5a2bb6f192f930a45d44ea>@@AAV<lambda_ab61a845afdef5b7c387490eaf3616ee>@@V<lambda_c2ffc0b7726aa6be21d5f0026187e748>@@@?$__crt_seh_guarded_call@X@@QAEX$$QAV<lambda_2cc53f568c5a2bb6f192f930a45d44ea>@@AAV<lambda_ab61a845afdef5b7c387490eaf3616ee>@@$$QAV<lambda_c2ffc0b7726aa6be21d5f0026187e748>@@@Z 100adc20     libucrtd:fflush.obj
 0002:00025c40       __sehtable$??$?RV<lambda_6d20deecaf4856105ebacbad442d1079>@@AAV<lambda_9a32fed5bf61b6b509b2d3f6003082a1>@@V<lambda_63ea2239ed67c638ddbae41947fdf875>@@@?$__crt_seh_guarded_call@H@@QAEH$$QAV<lambda_6d20deecaf4856105ebacbad442d1079>@@AAV<lambda_9a32fed5bf61b6b509b2d3f6003082a1>@@$$QAV<lambda_63ea2239ed67c638ddbae41947fdf875>@@@Z 100adc40     libucrtd:fflush.obj
 0002:00025c60       __sehtable$__open_osfhandle 100adc60     libucrtd:osfinfo.obj
 0002:00025c80       __sehtable$__alloc_osfhnd  100adc80     libucrtd:osfinfo.obj
 0002:00025ca0       __sehtable$___acrt_lowio_ensure_fh_exists 100adca0     libucrtd:osfinfo.obj
 0002:00025cbc       __unwindtable$?shortsort@@YAXPAD0IP6AHPBX1@Z@Z 100adcbc     libucrtd:qsort.obj
 0002:00025cc4       __ehfuncinfo$?shortsort@@YAXPAD0IP6AHPBX1@Z@Z 100adcc4     libucrtd:qsort.obj
 0002:00025ce8       __unwindtable$?_wcrtomb_s_l@@YAHQAHQADI_WQAU_Mbstatet@@QAU__crt_locale_pointers@@@Z 100adce8     libucrtd:wcrtomb.obj
 0002:00025cf0       __ehfuncinfo$?_wcrtomb_s_l@@YAHQAHQADI_WQAU_Mbstatet@@QAU__crt_locale_pointers@@@Z 100adcf0     libucrtd:wcrtomb.obj
 0002:00025d18       __sehtable$__write         100add18     libucrtd:write.obj
 0002:00025d38       __sehtable$??$common_lseek@J@@YAJHJH@Z 100add38     libucrtd:lseek.obj
 0002:00025d58       __sehtable$??$common_lseek@_J@@YA_JH_JH@Z 100add58     libucrtd:lseek.obj
 0002:00025d78       __sehtable$_fclose         100add78     libucrtd:fclose.obj
 0002:00025d98       __sehtable$??$?RV<lambda_73934b50d04267ee15484ada9e51f93a>@@AAV<lambda_5533cddd4bda0037814beee657757329>@@V<lambda_505f522a38cc75b1e009910344c75d09>@@@?$__crt_seh_guarded_call@H@@QAEH$$QAV<lambda_73934b50d04267ee15484ada9e51f93a>@@AAV<lambda_5533cddd4bda0037814beee657757329>@@$$QAV<lambda_505f522a38cc75b1e009910344c75d09>@@@Z 100add98     libucrtd:commit.obj
 0002:00025db8       __sehtable$??$?RV<lambda_f828341fbe69b7c0d4c527b01f22877f>@@AAV<lambda_9e0b6ab72a5b3ae37ad997d08b519f50>@@V<lambda_f01deac0a8d65d6e0411edf7e0af5775>@@@?$__crt_seh_guarded_call@G@@QAEG$$QAV<lambda_f828341fbe69b7c0d4c527b01f22877f>@@AAV<lambda_9e0b6ab72a5b3ae37ad997d08b519f50>@@$$QAV<lambda_f01deac0a8d65d6e0411edf7e0af5775>@@@Z 100addb8     libucrtd:putwch.obj
 0002:00025dd8       __sehtable$__read          100addd8     libucrtd:read.obj
 0002:00025df8       __sehtable$??$?RV<lambda_e683defbe2e5a27c42b5544acbb13393>@@AAV<lambda_4e7105787b7b0e0227fbf2b2d883fa65>@@V<lambda_80a887151cae997482d53eaa74bb832b>@@@?$__crt_seh_guarded_call@H@@QAEH$$QAV<lambda_e683defbe2e5a27c42b5544acbb13393>@@AAV<lambda_4e7105787b7b0e0227fbf2b2d883fa65>@@$$QAV<lambda_80a887151cae997482d53eaa74bb832b>@@@Z 100addf8     libucrtd:close.obj
 0002:00025e18       __sehtable$?__acrt_stdio_allocate_stream@@YA?AV__crt_stdio_stream@@XZ 100ade18     libucrtd:stream.obj
 0002:00025e38       __sehtable$___set_fpsr_sse2 100ade38     libucrtd:fpctrl.obj
 0002:00025e58       __sehtable$__IsNonwritableInCurrentImage 100ade58     LIBCMTD:pesect.obj
 0002:00025e80       .edata                     100ade80     Opos_Internals.exp
 0002:00025ea8       rgpv                       100adea8     Opos_Internals.exp
 0002:00025eb8       rgszName                   100adeb8     Opos_Internals.exp
 0002:00025ec8       rgwOrd                     100adec8     Opos_Internals.exp
 0002:00025ed0       szName                     100aded0     Opos_Internals.exp
 0002:00025ee3       $N00001                    100adee3     Opos_Internals.exp
 0002:00025ef3       $N00002                    100adef3     Opos_Internals.exp
 0002:00025f05       $N00003                    100adf05     Opos_Internals.exp
 0002:00025f17       $N00004                    100adf17     Opos_Internals.exp
 0002:000262fc       .idata$6                   100ae2fc     kernel32:KERNEL32.dll
 0002:0002632a       .idata$6                   100ae32a     user32:USER32.dll
 0002:000263be       .idata$6                   100ae3be     advapi32:ADVAPI32.dll
 0002:00026428       .idata$6                   100ae428     ole32:ole32.dll
 0002:00026432       .idata$6                   100ae432     oleaut32:OLEAUT32.dll
 0003:00000030       ?__vcrt_flsindex@@3KA      100af030     libvcruntimed:per_thread_data.obj
 0003:00000040       ?prefix@?1??getDimension@UnDecorator@@CA?AVDName@@_N@Z@4UStringLiteral@@A 100af040     libvcruntimed:undname.obj
 0003:00000060       ?errno_no_memory@@3HA      100af060     libucrtd:errno.obj
 0003:00000064       ?doserrno_no_memory@@3KA   100af064     libucrtd:errno.obj
 0003:00000068       ?__acrt_current_request_number@@3JA 100af068     libucrtd:debug_heap.obj
 0003:0000009c       ?__acrt_debug_fill_threshold@@3IA 100af09c     libucrtd:debug_fill_threshold.obj
 0003:000000a0       ?__acrt_flsindex@@3KA      100af0a0     libucrtd:per_thread_data.obj
 0003:00000150       __ctype_loc_style          100af150     libucrtd:wsetlocale.obj
 0003:00000478       __mbctypes                 100af478     libucrtd:mbctype.obj
 0003:00000580       __mbcasemaps               100af580     libucrtd:mbctype.obj
 0003:00000680       ?__rgctypeflag@@3PADA      100af680     libucrtd:mbctype.obj
 0003:00000688       ?__rgcode_page_info@@3PAUcode_page_info@@A 100af688     libucrtd:mbctype.obj
 0003:000008f0       ?__DAZ_ENABLED@?1??__set_fpsr_sse2@@9@9 100af8f0     libucrtd:fpctrl.obj
 0003:000008f4       ?__dcrt_lowio_console_output_handle@@3PAXA 100af8f4     libucrtd:initcon.obj
 0003:00002bf8       ?ObjectMap@@3PAU_ATL_OBJMAP_ENTRY30@ATL@@A 100b1bf8     OposInternals.obj
 0003:00002c60       ?is_initialized_as_dll@@3_NA 100b1c60     LIBCMTD:utility.obj
 0003:00002c61       ?module_local_atexit_table_initialized@@3_NA 100b1c61     LIBCMTD:utility.obj
 0003:00002c64       ?module_local_atexit_table@@3U_onexit_table_t@@A 100b1c64     LIBCMTD:utility.obj
 0003:00002c70       ?module_local_at_quick_exit_table@@3U_onexit_table_t@@A 100b1c70     LIBCMTD:utility.obj
 0003:00002c7c       ?init@?1??_RTC_InitBase@@9@4_NA 100b1c7c     LIBCMTD:init.obj
 0003:00002c80       _GS_ExceptionRecord        100b1c80     LIBCMTD:gs_report.obj
 0003:00002cd0       _GS_ContextRecord          100b1cd0     LIBCMTD:gs_report.obj
 0003:00002f9c       ?__proc_attached@@3HA      100b1f9c     LIBCMTD:dll_dllmain.obj
 0003:00002fb0       ?_RTC_ErrorReportFunc@@3P6AHHPBDH00ZZA 100b1fb0     LIBCMTD:userapi.obj
 0003:00002fb4       ?_RTC_ErrorReportFuncW@@3P6AHHPB_WH00ZZA 100b1fb4     LIBCMTD:userapi.obj
 0003:00002fc8       ?mspdb@@3PAUHINSTANCE__@@A 100b1fc8     LIBCMTD:pdblkup.obj
 0003:00002fcc       ?alreadyTried@?1??GetPdbDll@@YAPAUHINSTANCE__@@XZ@4_NA 100b1fcc     LIBCMTD:pdblkup.obj
 0003:00002fcd       ?PDBOK@?1??_RTC_GetSrcLine@@YAHPAEPA_WKPAH1K@Z@4_NA 100b1fcd     LIBCMTD:pdblkup.obj
 0003:00002fd4       ?__vcrt_startup_thread_ptd@@3U__vcrt_ptd@@A 100b1fd4     libvcruntimed:per_thread_data.obj
 0003:00002ffc       ___vcrt_lock_table         100b1ffc     libvcruntimed:locks.obj
 0003:00003014       ___vcrt_locks_initialized  100b2014     libvcruntimed:locks.obj
 0003:00003040       ?heap@@3V_HeapManager@@A   100b2040     libvcruntimed:undname.obj
 0003:00003058       ?buf@?1??dbGetString@DName@@QBEPADXZ@4PADA 100b2058     libvcruntimed:undname.obj
 0003:000030a8       ?module_handles@@3PAPAUHINSTANCE__@@A 100b20a8     libvcruntimed:winapi_downlevel.obj
 0003:000030b4       ?function_pointers@@3PAPAXA 100b20b4     libvcruntimed:winapi_downlevel.obj
 0003:000030cc       ?__acrt_invalid_parameter_handler@@3V?$dual_state_global@P6AXPB_W00II@Z@__crt_state_management@@A 100b20cc     libucrtd:invalid_parameter.obj
 0003:000030d0       ?c_termination_complete@@3JA 100b20d0     libucrtd:exit.obj
 0003:000030d4       ?thread_local_exit_callback_func@@3P6GXPAXK0@ZA 100b20d4     libucrtd:exit.obj
 0003:000030e0       ?program_name@?1???$common_configure_argv@D@@YAHW4_crt_argv_mode@@@Z@4PADA 100b20e0     libucrtd:argv_parsing.obj
 0003:000031e8       ?program_name@?1???$common_configure_argv@_W@@YAHW4_crt_argv_mode@@@Z@4PA_WA 100b21e8     libucrtd:argv_parsing.obj
 0003:0000341c       ?__acrt_first_block@@3PAU_CrtMemBlockHeader@@A 100b241c     libucrtd:debug_heap.obj
 0003:00003420       ?__acrt_last_block@@3PAU_CrtMemBlockHeader@@A 100b2420     libucrtd:debug_heap.obj
 0003:00003424       ?__acrt_total_allocations@@3IA 100b2424     libucrtd:debug_heap.obj
 0003:00003428       ?__acrt_current_allocations@@3IA 100b2428     libucrtd:debug_heap.obj
 0003:0000342c       ?__acrt_max_allocations@@3IA 100b242c     libucrtd:debug_heap.obj
 0003:00003430       ?__acrt_check_frequency@@3IA 100b2430     libucrtd:debug_heap.obj
 0003:00003434       ?__acrt_check_counter@@3IA 100b2434     libucrtd:debug_heap.obj
 0003:0000343c       ?heap_validation_pending@@3_NA 100b243c     libucrtd:debug_heap.obj
 0003:00003440       ?__acrt_new_handler@@3V?$dual_state_global@P6AHI@Z@__crt_state_management@@A 100b2440     libucrtd:new_handler.obj
 0003:00003450       ?__acrt_lock_table@@3PAU_RTL_CRITICAL_SECTION@@A 100b2450     libucrtd:locks.obj
 0003:000035a0       ?__acrt_locks_initialized@@3IA 100b25a0     libucrtd:locks.obj
 0003:000035a4       ?console_ctrl_handler_installed@@3_NA 100b25a4     libucrtd:signal.obj
 0003:000035a8       ?ctrlc_action@@3V?$dual_state_global@P6AXH@Z@__crt_state_management@@A 100b25a8     libucrtd:signal.obj
 0003:000035ac       ?ctrlbreak_action@@3V?$dual_state_global@P6AXH@Z@__crt_state_management@@A 100b25ac     libucrtd:signal.obj
 0003:000035b0       ?abort_action@@3V?$dual_state_global@P6AXH@Z@__crt_state_management@@A 100b25b0     libucrtd:signal.obj
 0003:000035b4       ?term_action@@3V?$dual_state_global@P6AXH@Z@__crt_state_management@@A 100b25b4     libucrtd:signal.obj
 0003:000035b8       ?internal_state@?1??_mbtowc_l@@9@4U_Mbstatet@@A 100b25b8     libucrtd:mbtowc.obj
 0003:000035cc       ?enable_percent_n@@3IA     100b25cc     libucrtd:printf_count_output.obj
 0003:000037e4       ?state_cache@?1???$get_cached_win_policy@Ubegin_thread_init_policy_properties@?1??__acrt_get_begin_thread_init_policy@@YA?AW4begin_thread_init_policy@@XZ@@@YA?AW4begin_thread_init_policy@@W4AppPolicyThreadInitializationType@@@Z@4JA 100b27e4     libucrtd:win_policies.obj
 0003:000037e8       ?state_cache@?1???$get_cached_win_policy@Udeveloper_information_policy_properties@?1??__acrt_get_developer_information_policy@@YA?AW4developer_information_policy@@XZ@@@YA?AW4developer_information_policy@@W4AppPolicyShowDeveloperDiagnostic@@@Z@4JA 100b27e8     libucrtd:win_policies.obj
 0003:000037ec       ?state_cache@?1???$get_cached_win_policy@Uwindowing_model_policy_properties@?1??__acrt_get_windowing_model_policy@@YA?AW4windowing_model_policy@@XZ@@@YA?AW4windowing_model_policy@@W4AppPolicyWindowingModel@@@Z@4JA 100b27ec     libucrtd:win_policies.obj
 0003:000037fc       ?fSystemSet@@3HA           100b27fc     libucrtd:mbctype.obj
 0003:00003800       ?initialized@?1??__acrt_initialize_multibyte@@9@4_NA 100b2800     libucrtd:mbctype.obj
 0003:00003820       ?module_handles@@3PAPAUHINSTANCE__@@A 100b2820     libucrtd:winapi_thunks.obj
 0003:00003870       ?encoded_function_pointers@@3PAPAXA 100b2870     libucrtd:winapi_thunks.obj
 0003:000038f8       ?static_enum_proc@?1??enum_system_locales_ex_nolock@@YAHQ6GHPA_WKJ@Z@Z@4P6GH0KJ@ZA 100b28f8     libucrtd:winapi_thunks.obj
 0003:00003900       ?user_matherr@@3V?$dual_state_global@P6AHPAU_exception@@@Z@__crt_state_management@@A 100b2900     libucrtd:matherr.obj
 0003:00003904       ?__acrt_global_new_mode@@3V?$dual_state_global@J@__crt_state_management@@A 100b2904     libucrtd:new_mode.obj
 0003:00003908       ?__acrt_app_type@@3W4_crt_app_type@@A 100b2908     libucrtd:report_runtime_error.obj
 0003:00003910       ?outmsg@?9??__acrt_report_runtime_error@@9@4PA_WA 100b2910     libucrtd:report_runtime_error.obj
 0003:00003f38       ?mbst@?1??mbrlen@@9@4U_Mbstatet@@A 100b2f38     libucrtd:mbrtowc.obj
 0003:00003f40       ?mbst@?1??mbrtowc@@9@4U_Mbstatet@@A 100b2f40     libucrtd:mbrtowc.obj
 0003:00003f48       ?mbst@?1??_mbsrtowcs_helper@@YAIPA_WPAPBDIPAU_Mbstatet@@@Z@4U2@A 100b2f48     libucrtd:mbrtowc.obj
 0003:00003f58       ___acrt_error_mode         100b2f58     libucrtd:set_error_mode.obj
 0003:00003f5c       ?local_state@?6??_wcrtomb_s_l@@YAHQAHQADI_WQAU_Mbstatet@@QAU__crt_locale_pointers@@@Z@4U2@A 100b2f5c     libucrtd:wcrtomb.obj
 0003:00003f64       ?internal_pst@?1??__mbrtoc32_utf8@__crt_mbstring@@YAIPA_UPBDIPAU_Mbstatet@@@Z@4U3@A 100b2f64     libucrtd:mbrtoc32.obj
 0003:00003f6c       ?internal_pst@?1??__c16rtomb_utf8@__crt_mbstring@@YAIPAD_SPAU_Mbstatet@@@Z@4U3@A 100b2f6c     libucrtd:c16rtomb.obj
 0003:00003f74       __pmatherr_set             100b2f74     libucrtd:libm_error.obj
 0004:00000140       $R000000                   100b3140     OposInternals.res
 0004:00000a20       $R0008E0                   100b3a20     OposInternals.res
 0004:00016678       $R016538                   100c9678     OposInternals.res
 0004:000166b8       $R016578                   100c96b8     OposInternals.res
