 OPOSSoundRecorder

 Timestamp is 600f7bde (Tue Jan 26 11:18:06 2021)

 Preferred load address is 10000000

 Start         Length     Name                   Class
 0001:00000000 00000d90H .text$di                CODE
 0001:00000d90 000a98b0H .text$mn                CODE
 0001:000aa640 000001c0H .text$x                 CODE
 0001:000aa800 00000120H .text$yd                CODE
 0002:00000000 00000358H .idata$5                DATA
 0002:00000358 00000008H .00cfg                  DATA
 0002:00000360 00000004H .CRT$XCA                DATA
 0002:00000364 00000004H .CRT$XCL                DATA
 0002:00000368 0000006cH .CRT$XCU                DATA
 0002:000003d4 00000004H .CRT$XCZ                DATA
 0002:000003d8 00000004H .CRT$XIA                DATA
 0002:000003dc 00000014H .CRT$XIC                DATA
 0002:000003f0 00000004H .CRT$XIZ                DATA
 0002:000003f4 00000004H .CRT$XLA                DATA
 0002:000003f8 00000004H .CRT$XLZ                DATA
 0002:000003fc 00000004H .CRT$XPA                DATA
 0002:00000400 00000008H .CRT$XPX                DATA
 0002:00000408 00000004H .CRT$XPXA               DATA
 0002:0000040c 00000004H .CRT$XPZ                DATA
 0002:00000410 00000004H .CRT$XTA                DATA
 0002:00000414 0000000cH .CRT$XTZ                DATA
 0002:00000418 00000000H .gfids$y                DATA
 0002:00000420 0002ff20H .rdata                  DATA
 0002:00030340 00000004H .rdata$CastGuardVftablesA DATA
 0002:00030344 00000004H .rdata$CastGuardVftablesC DATA
 0002:00030348 00000018H .rdata$T                DATA
 0002:00030360 0000033cH .rdata$r                DATA
 0002:0003069c 00000044H .rdata$sxdata           DATA
 0002:000306e0 00000450H .rdata$zzzdbg           DATA
 0002:00030b30 00000004H .rtc$IAA                DATA
 0002:00030b34 00000018H .rtc$IMZ                DATA
 0002:00030b4c 00000004H .rtc$IZZ                DATA
 0002:00030b50 00000004H .rtc$TAA                DATA
 0002:00030b54 00000018H .rtc$TMZ                DATA
 0002:00030b6c 00000004H .rtc$TZZ                DATA
 0002:00030b70 00000004H .tls                    DATA
 0002:00030b74 00000004H .tls$                   DATA
 0002:00030b78 00000008H .tls$ZZZ                DATA
 0002:00030b80 00000e4cH .xdata$x                DATA
 0002:000319cc 00000004H ATL$__a                 DATA
 0002:000319d0 00000010H ATL$__z                 DATA
 0002:000319e0 000000b0H .edata                  DATA
 0002:00031a90 00000078H .idata$2                DATA
 0002:00031b08 00000014H .idata$3                DATA
 0002:00031b1c 00000358H .idata$4                DATA
 0002:00031e74 00000d56H .idata$6                DATA
 0003:00000000 00000b90H .data                   DATA
 0003:00000b90 00000138H .data$r                 DATA
 0003:00000cc8 00003588H .bss                    DATA
 0004:00000000 00000220H .rsrc$01                DATA
 0004:00000220 00004260H .rsrc$02                DATA

  Address         Publics by Value              Rva+Base       Lib:Object

 0000:00000000       ___guard_iat_count         00000000     <absolute>
 0000:00000000       __except_list              00000000     <absolute>
 0000:00000000       ___hybrid_code_map         00000000     <absolute>
 0000:00000000       ___guard_eh_cont_table     00000000     <absolute>
 0000:00000000       ___volatile_metadata       00000000     <absolute>
 0000:00000000       ___guard_fids_count        00000000     <absolute>
 0000:00000000       ___x64_code_ranges_to_entry_points_count 00000000     <absolute>
 0000:00000000       ___arm64x_redirection_metadata_count 00000000     <absolute>
 0000:00000000       ___x64_code_ranges_to_entry_points 00000000     <absolute>
 0000:00000000       ___hybrid_code_map_count   00000000     <absolute>
 0000:00000000       ___enclave_config          00000000     <absolute>
 0000:00000000       ___arm64x_extra_rfe_table  00000000     <absolute>
 0000:00000000       ___guard_longjmp_count     00000000     <absolute>
 0000:00000000       ___hybrid_auxiliary_iat    00000000     <absolute>
 0000:00000000       ___arm64x_extra_rfe_table_size 00000000     <absolute>
 0000:00000000       ___AbsoluteZero            00000000     <absolute>
 0000:00000000       ___guard_fids_table        00000000     <absolute>
 0000:00000000       ___arm64x_redirection_metadata 00000000     <absolute>
 0000:00000000       ___dynamic_value_reloc_table 00000000     <absolute>
 0000:00000000       ___guard_eh_cont_count     00000000     <absolute>
 0000:00000000       ___guard_longjmp_table     00000000     <absolute>
 0000:00000000       ___guard_iat_table         00000000     <absolute>
 0000:00000000       ___arm64x_native_entrypoint 00000000     <absolute>
 0000:00000011       ___safe_se_handler_count   00000011     <absolute>
 0000:0000002c       __tls_array                0000002c     <absolute>
 0000:00000100       ___guard_flags             00000100     <absolute>
 0000:00000000       ___ImageBase               10000000     <linker-defined>
 0001:00000d90       ?_assert@@YAXPB_W0I@Z      10001d90 f   Assert.obj
 0001:00000ec0       ___local_stdio_printf_options 10001ec0 f i Assert.obj
 0001:00000ed0       ___vswprintf_l             10001ed0 f i Assert.obj
 0001:00000f00       __swprintf                 10001f00 f i Assert.obj
 0001:00000f60       __vswprintf_c_l            10001f60 f i Assert.obj
 0001:00000fd0       __vswprintf_l              10001fd0 f i Assert.obj
 0001:00001000       ?cw_memcpy@@YGHPADPB_WH@Z  10002000 f   CWString.obj
 0001:00001060       ?cw_memcpy@@YGHPA_WPBDH@Z  10002060 f   CWString.obj
 0001:000010c0       ?cw_memcpy@@YGHPADPBDH@Z   100020c0 f   CWString.obj
 0001:00001110       ?cw_memcpy@@YGHPA_WPB_WH@Z 10002110 f   CWString.obj
 0001:00001150       ?cw_memset@@YAXPADDH@Z     10002150 f   CWString.obj
 0001:00001170       ?cw_memset@@YAXPA_W_WH@Z   10002170 f   CWString.obj
 0001:00001190       ?cw_strlen@@YAHPBD@Z       10002190 f   CWString.obj
 0001:000011e0       ?cw_strlen@@YAHPB_W@Z      100021e0 f   CWString.obj
 0001:00001230       ?cw_strcpy@@YAHPADPB_W@Z   10002230 f   CWString.obj
 0001:00001250       ?cw_strcpy@@YAHPA_WPBD@Z   10002250 f   CWString.obj
 0001:00001270       ?cw_strcpy@@YAHPADPBD@Z    10002270 f   CWString.obj
 0001:00001290       ?cw_strcpy@@YAHPA_WPB_W@Z  10002290 f   CWString.obj
 0001:000012b0       ?cw_strcat@@YAHPADPB_W@Z   100022b0 f   CWString.obj
 0001:000012e0       ?cw_strcat@@YAHPA_WPBD@Z   100022e0 f   CWString.obj
 0001:00001310       ?cw_strcat@@YAHPADPBD@Z    10002310 f   CWString.obj
 0001:00001340       ?cw_strcat@@YAHPA_WPB_W@Z  10002340 f   CWString.obj
 0001:00001370       ?cw_dup@@YGXPBDAAHAAPA_W1@Z 10002370 f   CWString.obj
 0001:00001430       ?cw_dup@@YGXPB_WAAHAAPAD1@Z 10002430 f   CWString.obj
 0001:000014e0       ?DupChar@_CW@@AAEXXZ       100024e0 f   CWString.obj
 0001:00001530       ?DupWide@_CW@@AAEXXZ       10002530 f   CWString.obj
 0001:00001580       ?GetCharsMbcs@_CW@@QAEHXZ  10002580 f   CWString.obj
 0001:000015e0       ?GetCharsWide@_CW@@QAEHXZ  100025e0 f   CWString.obj
 0001:00001640       ?SetVARIANT_BOOL@OposVariant@@QAEXF@Z 10002640 f   OposVariant.obj
 0001:000016a0       ?SetVARIANT_BOOL_Ptr@OposVariant@@QAEXPAFAAJ@Z 100026a0 f   OposVariant.obj
 0001:000016f0       ?GetLONG@OposVariant@@QAEJXZ 100026f0 f   OposVariant.obj
 0001:00001780       ?ChangeLONG@OposVariant@@QAEXPAJAAJ@Z 10002780 f   OposVariant.obj
 0001:00001840       ?SetLONG@OposVariant@@QAEXJ@Z 10002840 f   OposVariant.obj
 0001:00001880       ?SetLONG_Ptr@OposVariant@@QAEXPAJAAJ@Z 10002880 f   OposVariant.obj
 0001:000018d0       ?ChangeCURRENCY@OposVariant@@QAEXPATtagCY@@AAJ@Z 100028d0 f   OposVariant.obj
 0001:00001990       ?SetCURRENCY@OposVariant@@QAEXTtagCY@@@Z 10002990 f   OposVariant.obj
 0001:000019d0       ?SetCURRENCY_Ptr@OposVariant@@QAEXPATtagCY@@AAJ@Z 100029d0 f   OposVariant.obj
 0001:00001a20       ?ChangeBSTR@OposVariant@@QAEXPAPA_WAAJ@Z 10002a20 f   OposVariant.obj
 0001:00001ae0       ?SetBSTR@OposVariant@@QAEXPA_WAAJ@Z 10002ae0 f   OposVariant.obj
 0001:00001b30       ?SetBSTR_Copy@OposVariant@@QAEXPA_WAAJ@Z 10002b30 f   OposVariant.obj
 0001:00001bd0       ?SetBSTR_OutPtr@OposVariant@@QAE_NPAPA_WAAJ@Z 10002bd0 f   OposVariant.obj
 0001:00001c20       ?SetBSTR_InOutPtr@OposVariant@@QAE_NPAPA_WAAJ@Z 10002c20 f   OposVariant.obj
 0001:00001c70       ?SetVARIANT@OposVariant@@QAEXAAUtagVARIANT@@GAAJ@Z 10002c70 f   OposVariant.obj
 0001:00001cf0       ?SetVARIANT_Ptr@OposVariant@@QAEXAAPAUtagVARIANT@@GAAJ@Z 10002cf0 f   OposVariant.obj
 0001:00001d90       ?SetString@OposVariant@@QAEXPB_WAAJ@Z 10002d90 f   OposVariant.obj
 0001:00001e20       ?SetDispatch_Ptr@OposVariant@@QAEXPAUIDispatch@@AAJ@Z 10002e20 f   OposVariant.obj
 0001:00001e90       ??0OposDispParms@@QAE@PAVOposVariant@@H@Z 10002e90 f   OposVariant.obj
 0001:00001f60       ??1OposDispParms@@QAE@XZ   10002f60 f   OposVariant.obj
 0001:00001fb0       ??$AtlMultiply@I@ATL@@YAJPAIII@Z 10002fb0 f i OposVariant.obj
 0001:00002010       ??0?$CHeapPtr@_WVCCRTAllocator@ATL@@@ATL@@QAE@XZ 10003010 f i OposVariant.obj
 0001:00002040       ??0?$CHeapPtrBase@_WVCCRTAllocator@ATL@@@ATL@@IAE@XZ 10003040 f i OposVariant.obj
 0001:00002060       ??0?$CSimpleArray@GV?$CSimpleArrayEqualHelper@G@ATL@@@ATL@@QAE@XZ 10003060 f i OposVariant.obj
 0001:000020a0       ??0?$CTraceCategoryEx@$00$0A@@ATL@@QAE@PB_W@Z 100030a0 f i OposVariant.obj
 0001:000020d0       ??0?$CTraceCategoryEx@$01$0A@@ATL@@QAE@PB_W@Z 100030d0 f i OposVariant.obj
 0001:00002100       ??0?$CTraceCategoryEx@$03$0A@@ATL@@QAE@PB_W@Z 10003100 f i OposVariant.obj
 0001:00002130       ??0?$CTraceCategoryEx@$07$0A@@ATL@@QAE@PB_W@Z 10003130 f i OposVariant.obj
 0001:00002160       ??0?$CTraceCategoryEx@$0BA@$0A@@ATL@@QAE@PB_W@Z 10003160 f i OposVariant.obj
 0001:00002190       ??0?$CTraceCategoryEx@$0BAA@$0A@@ATL@@QAE@PB_W@Z 10003190 f i OposVariant.obj
 0001:000021d0       ??0?$CTraceCategoryEx@$0BAAA@$0A@@ATL@@QAE@PB_W@Z 100031d0 f i OposVariant.obj
 0001:00002210       ??0?$CTraceCategoryEx@$0BAAAA@$0A@@ATL@@QAE@PB_W@Z 10003210 f i OposVariant.obj
 0001:00002250       ??0?$CTraceCategoryEx@$0BAAAAA@$0A@@ATL@@QAE@PB_W@Z 10003250 f i OposVariant.obj
 0001:00002290       ??0?$CTraceCategoryEx@$0CA@$0A@@ATL@@QAE@PB_W@Z 10003290 f i OposVariant.obj
 0001:000022c0       ??0?$CTraceCategoryEx@$0CAA@$0A@@ATL@@QAE@PB_W@Z 100032c0 f i OposVariant.obj
 0001:00002300       ??0?$CTraceCategoryEx@$0CAAA@$0A@@ATL@@QAE@PB_W@Z 10003300 f i OposVariant.obj
 0001:00002340       ??0?$CTraceCategoryEx@$0CAAAA@$0A@@ATL@@QAE@PB_W@Z 10003340 f i OposVariant.obj
 0001:00002380       ??0?$CTraceCategoryEx@$0CAAAAA@$0A@@ATL@@QAE@PB_W@Z 10003380 f i OposVariant.obj
 0001:000023c0       ??0?$CTraceCategoryEx@$0EA@$0A@@ATL@@QAE@PB_W@Z 100033c0 f i OposVariant.obj
 0001:000023f0       ??0?$CTraceCategoryEx@$0EAA@$0A@@ATL@@QAE@PB_W@Z 100033f0 f i OposVariant.obj
 0001:00002430       ??0?$CTraceCategoryEx@$0EAAA@$0A@@ATL@@QAE@PB_W@Z 10003430 f i OposVariant.obj
 0001:00002470       ??0?$CTraceCategoryEx@$0EAAAA@$0A@@ATL@@QAE@PB_W@Z 10003470 f i OposVariant.obj
 0001:000024b0       ??0?$CTraceCategoryEx@$0EAAAAA@$0A@@ATL@@QAE@PB_W@Z 100034b0 f i OposVariant.obj
 0001:000024f0       ??0?$CTraceCategoryEx@$0IA@$0A@@ATL@@QAE@PB_W@Z 100034f0 f i OposVariant.obj
 0001:00002530       ??0?$CTraceCategoryEx@$0IAA@$0A@@ATL@@QAE@PB_W@Z 10003530 f i OposVariant.obj
 0001:00002570       ??0?$CTraceCategoryEx@$0IAAA@$0A@@ATL@@QAE@PB_W@Z 10003570 f i OposVariant.obj
 0001:000025b0       ??0?$CTraceCategoryEx@$0IAAAA@$0A@@ATL@@QAE@PB_W@Z 100035b0 f i OposVariant.obj
 0001:000025f0       ??0CAtlComModule@ATL@@QAE@XZ 100035f0 f i OposVariant.obj
 0001:000026d0       ??0CAtlWinModule@ATL@@QAE@XZ 100036d0 f i OposVariant.obj
 0001:00002760       ??0CComCriticalSection@ATL@@QAE@XZ 10003760 f i OposVariant.obj
 0001:00002790       ??0CPreserveLastError@ATL@@QAE@XZ 10003790 f i OposVariant.obj
 0001:000027d0       ??0CTraceFileAndLineInfo@ATL@@QAE@PBDH@Z 100037d0 f i OposVariant.obj
 0001:00002800       ??0_ATL_COM_MODULE70@ATL@@QAE@XZ 10003800 f i OposVariant.obj
 0001:00002830       ??0_ATL_WIN_MODULE70@ATL@@QAE@XZ 10003830 f i OposVariant.obj
 0001:00002870       ??1?$CHeapPtr@_WVCCRTAllocator@ATL@@@ATL@@QAE@XZ 10003870 f i OposVariant.obj
 0001:000028a0       ??1?$CHeapPtrBase@_WVCCRTAllocator@ATL@@@ATL@@QAE@XZ 100038a0 f i OposVariant.obj
 0001:000028d0       ??1?$CSimpleArray@GV?$CSimpleArrayEqualHelper@G@ATL@@@ATL@@QAE@XZ 100038d0 f i OposVariant.obj
 0001:00002900       ??1CAtlComModule@ATL@@QAE@XZ 10003900 f i OposVariant.obj
 0001:00002930       ??1CAtlWinModule@ATL@@QAE@XZ 10003930 f i OposVariant.obj
 0001:00002960       ??1CComBSTR@ATL@@QAE@XZ    10003960 f i OposVariant.obj
 0001:000029a0       ??1CComCriticalSection@ATL@@QAE@XZ 100039a0 f i OposVariant.obj
 0001:000029c0       ??1CPreserveLastError@ATL@@QAE@XZ 100039c0 f i OposVariant.obj
 0001:00002a00       ??1_ATL_COM_MODULE70@ATL@@QAE@XZ 10003a00 f i OposVariant.obj
 0001:00002a30       ??1_ATL_WIN_MODULE70@ATL@@QAE@XZ 10003a30 f i OposVariant.obj
 0001:00002a70       ??1stringdispid@CComTypeInfoHolder@ATL@@QAE@XZ 10003a70 f i OposVariant.obj
 0001:00002aa0       ??A?$CSimpleArray@GV?$CSimpleArrayEqualHelper@G@ATL@@@ATL@@QAEAAGH@Z 10003aa0 f i OposVariant.obj
 0001:00002b20       ??B?$CHeapPtrBase@_WVCCRTAllocator@ATL@@@ATL@@QBEPA_WXZ 10003b20 f i OposVariant.obj
 0001:00002b40       ??B?$CTraceCategoryEx@$01$0A@@ATL@@QAEIXZ 10003b40 f i OposVariant.obj
 0001:00002b60       ??B?$CTraceCategoryEx@$0CA@$0A@@ATL@@QAEIXZ 10003b60 f i OposVariant.obj
 0001:00002b80       ??RCTraceFileAndLineInfo@ATL@@QBAXHIPB_WZZ 10003b80 f i OposVariant.obj
 0001:00002c20       ??_Estringdispid@CComTypeInfoHolder@ATL@@QAEPAXI@Z 10003c20 f i OposVariant.obj
 0001:00002cb0       ??_H@YGXPAXIIP6EPAX0@Z@Z   10003cb0 f i OposVariant.obj
 0001:00002d20       ??_I@YGXPAXIIP6EX0@Z@Z     10003d20 f i OposVariant.obj
 0001:00002da0       ?Allocate@?$CHeapPtr@_WVCCRTAllocator@ATL@@@ATL@@QAE_NI@Z 10003da0 f i OposVariant.obj
 0001:00002e30       ?Allocate@CCRTAllocator@ATL@@SAPAXI@Z 10003e30 f i OposVariant.obj
 0001:00002e50       ?AllocateBytes@?$CHeapPtrBase@_WVCCRTAllocator@ATL@@@ATL@@QAE_NI@Z 10003e50 f i OposVariant.obj
 0001:00002ec0       ?AtlWinModuleInit@ATL@@YGJPAU_ATL_WIN_MODULE70@1@@Z 10003ec0 f i OposVariant.obj
 0001:00002f90       ?AtlWinModuleTerm@ATL@@YGJPAU_ATL_WIN_MODULE70@1@PAUHINSTANCE__@@@Z 10003f90 f i OposVariant.obj
 0001:00003050       ?Clear@OposVariant@@QAEJXZ 10004050 f i OposVariant.obj
 0001:00003090       ?Free@?$CHeapPtrBase@_WVCCRTAllocator@ATL@@@ATL@@QAEXXZ 10004090 f i OposVariant.obj
 0001:000030d0       ?Free@CCRTAllocator@ATL@@SAXPAX@Z 100040d0 f i OposVariant.obj
 0001:000030f0       ?GetCategoryName@CTrace@ATL@@CAPA_WI@Z 100040f0 f i OposVariant.obj
 0001:00003140       ?GetModuleInstance@CAtlBaseModule@ATL@@QAEPAUHINSTANCE__@@XZ 10004140 f i OposVariant.obj
 0001:00003160       ?GetSize@?$CSimpleArray@GV?$CSimpleArrayEqualHelper@G@ATL@@@ATL@@QBEHXZ 10004160 f i OposVariant.obj
 0001:00003180       ?Init@CComCriticalSection@ATL@@QAEJXZ 10004180 f i OposVariant.obj
 0001:000031e0       ?RegisterCategory@CTrace@ATL@@SAXPB_WI@Z 100041e0 f i OposVariant.obj
 0001:00003270       ?RemoveAll@?$CSimpleArray@GV?$CSimpleArrayEqualHelper@G@ATL@@@ATL@@QAEXXZ 10004270 f i OposVariant.obj
 0001:000032f0       ?Term@CAtlComModule@ATL@@QAEXXZ 100042f0 f i OposVariant.obj
 0001:000033b0       ?Term@CAtlWinModule@ATL@@QAEXXZ 100043b0 f i OposVariant.obj
 0001:000033e0       ?Term@CComCriticalSection@ATL@@QAEJXZ 100043e0 f i OposVariant.obj
 0001:00003420       ?TraceV@CTrace@ATL@@CAXPBDHIIPB_W@Z 10004420 f i OposVariant.obj
 0001:000036a0       ?TraceV@CTrace@ATL@@SAXPBDHIIPB_WPAD@Z 100046a0 f i OposVariant.obj
 0001:000037e0       ?_AtlInitializeCriticalSectionEx@ATL@@YAHPAU_RTL_CRITICAL_SECTION@@KK@Z 100047e0 f i OposVariant.obj
 0001:00003810       ?_AtlRaiseException@ATL@@YAXKK@Z 10004810 f i OposVariant.obj
 0001:00003840       _HRESULT_FROM_WIN32        10004840 f i OposVariant.obj
 0001:00003880       __vswprintf_s_l            10004880 f i OposVariant.obj
 0001:000038f0       _swprintf_s                100048f0 f i OposVariant.obj
 0001:00003950       ?ObjectMain@CComObjectRootBase@ATL@@SGX_N@Z 10004950 f i SoundRecorder.obj
 0001:00003960       ?GetCategoryMap@CComObjectRootBase@ATL@@SAPBU_ATL_CATMAP_ENTRY@2@XZ 10004960 f i SoundRecorder.obj
 0001:00003970       ?GetObjectDescription@?$CComCoClass@VCOPOSSoundRecorder@@$1?CLSID_OPOSSoundRecorder@@3U_GUID@@B@ATL@@SGPB_WXZ 10004970 f i SoundRecorder.obj
 0001:00003980       ?UpdateRegistry@COPOSSoundRecorder@@SGJH@Z 10004980 f i SoundRecorder.obj
 0001:000039a0       ?CreateInstance@?$CComCreator@V?$CComObjectCached@VCComClassFactory@ATL@@@ATL@@@ATL@@SGJPAXABU_GUID@@PAPAX@Z 100049a0 f i SoundRecorder.obj
 0001:00003b20       ?CreateInstance@?$CComCreator2@V?$CComCreator@V?$CComObject@VCOPOSSoundRecorder@@@ATL@@@ATL@@V?$CComCreator@V?$CComAggObject@VCOPOSSoundRecorder@@@ATL@@@2@@ATL@@SGJPAXABU_GUID@@PAPAX@Z 10004b20 f i SoundRecorder.obj
 0001:00003cd0       _DllGetClassObject@12      10004cd0 f   SoundRecorder.obj
 0001:00003d00       _DllCanUnloadNow@0         10004d00 f   SoundRecorder.obj
 0001:00003d40       _DllRegisterServer@0       10004d40 f   SoundRecorder.obj
 0001:00003d60       _DllUnregisterServer@0     10004d60 f   SoundRecorder.obj
 0001:00003ef0       _DllMain@12                10004ef0 f   SoundRecorder.obj
 0001:00003f50       ??$?2G@Wrapper@?$CSimpleArray@GV?$CSimpleArrayEqualHelper@G@ATL@@@ATL@@SAPAXIPAG@Z 10004f50 f i SoundRecorder.obj
 0001:00003f60       ??$?2PA_W@?$Wrapper@PA_W@?$CSimpleMap@PA_WPA_WVCExpansionVectorEqualHelper@ATL@@@ATL@@SAPAXIPAPA_W@Z 10004f60 f i SoundRecorder.obj
 0001:00003f70       ??$?4UITypeInfo2@@@?$CComPtr@UITypeInfo@@@ATL@@QAEPAUITypeInfo@@ABV?$CComPtr@UITypeInfo2@@@1@@Z 10004f70 f i SoundRecorder.obj
 0001:00003fd0       ??$AtlAdd@K@ATL@@YAJPAKKK@Z 10004fd0 f i SoundRecorder.obj
 0001:00004010       ??$AtlAdd@_K@ATL@@YAJPA_K_K1@Z 10005010 f i SoundRecorder.obj
 0001:00004080       ??$AtlAddThrow@K@ATL@@YAKKK@Z 10005080 f i SoundRecorder.obj
 0001:00004100       ??$AtlModuleRegisterWndClassInfoT@VAtlModuleRegisterWndClassInfoParamW@ATL@@@ATL@@YAGPAU_ATL_BASE_MODULE70@0@PAU_ATL_WIN_MODULE70@0@PAU_ATL_WNDCLASSINFOW@0@PAP6GJPAUHWND__@@IIJ@ZVAtlModuleRegisterWndClassInfoParamW@0@@Z 10005100 f i SoundRecorder.obj
 0001:00004510       ??$AtlMultiply@H@ATL@@YAJPAHHH@Z 10005510 f i SoundRecorder.obj
 0001:00004590       ??$AtlMultiply@K@ATL@@YAJPAKKK@Z 10005590 f i SoundRecorder.obj
 0001:000045f0       ??$AtlMultiplyThrow@I@ATL@@YAIII@Z 100055f0 f i SoundRecorder.obj
 0001:00004670       ??$QueryInterface@UIPersistStream@@@IUnknown@@QAGJPAPAUIPersistStream@@@Z 10005670 f i SoundRecorder.obj
 0001:000046a0       ??$QueryInterface@UITypeInfo2@@@IUnknown@@QAGJPAPAUITypeInfo2@@@Z 100056a0 f i SoundRecorder.obj
 0001:000046d0       ??0?$CAtlModuleT@VCComModule@ATL@@@ATL@@QAE@XZ 100056d0 f i SoundRecorder.obj
 0001:00004700       ??0?$CAtlSafeAllocBufferManager@VCCRTAllocator@ATL@@@_ATL_SAFE_ALLOCA_IMPL@ATL@@QAE@XZ 10005700 f i SoundRecorder.obj
 0001:00004720       ??0?$CAutoVectorPtr@_W@ATL@@QAE@XZ 10005720 f i SoundRecorder.obj
 0001:00004740       ??0?$CComAggObject@VCOPOSSoundRecorder@@@ATL@@QAE@PAX@Z 10005740 f i SoundRecorder.obj
 0001:000047b0       ??0?$CComContainedObject@VCOPOSSoundRecorder@@@ATL@@QAE@PAX@Z 100057b0 f i SoundRecorder.obj
 0001:000048c0       ??0?$CComCritSecLock@VCComCriticalSection@ATL@@@ATL@@QAE@AAVCComCriticalSection@1@_N@Z 100058c0 f i SoundRecorder.obj
 0001:00004920       ??0?$CComEnum@UIEnumConnectionPoints@@$1?_GUID_b196b285_bab4_101a_b69c_00aa00341d07@@3U__s_GUID@@BPAUIConnectionPoint@@V?$_CopyInterface@UIConnectionPoint@@@ATL@@VCComSingleThreadModel@6@@ATL@@QAE@XZ 10005920 f i SoundRecorder.obj
 0001:00004960       ??0?$CComEnum@UIEnumConnections@@$1?_GUID_b196b287_bab4_101a_b69c_00aa00341d07@@3U__s_GUID@@BUtagCONNECTDATA@@V?$_Copy@UtagCONNECTDATA@@@ATL@@VCComSingleThreadModel@6@@ATL@@QAE@XZ 10005960 f i SoundRecorder.obj
 0001:000049a0       ??0?$CComEnumImpl@UIEnumConnectionPoints@@$1?_GUID_b196b285_bab4_101a_b69c_00aa00341d07@@3U__s_GUID@@BPAUIConnectionPoint@@V?$_CopyInterface@UIConnectionPoint@@@ATL@@@ATL@@QAE@XZ 100059a0 f i SoundRecorder.obj
 0001:00004a00       ??0?$CComEnumImpl@UIEnumConnections@@$1?_GUID_b196b287_bab4_101a_b69c_00aa00341d07@@3U__s_GUID@@BUtagCONNECTDATA@@V?$_Copy@UtagCONNECTDATA@@@ATL@@@ATL@@QAE@XZ 10005a00 f i SoundRecorder.obj
 0001:00004a60       ??0?$CComObject@V?$CComEnum@UIEnumConnectionPoints@@$1?_GUID_b196b285_bab4_101a_b69c_00aa00341d07@@3U__s_GUID@@BPAUIConnectionPoint@@V?$_CopyInterface@UIConnectionPoint@@@ATL@@VCComSingleThreadModel@6@@ATL@@@ATL@@QAE@PAX@Z 10005a60 f i SoundRecorder.obj
 0001:00004ab0       ??0?$CComObject@V?$CComEnum@UIEnumConnections@@$1?_GUID_b196b287_bab4_101a_b69c_00aa00341d07@@3U__s_GUID@@BUtagCONNECTDATA@@V?$_Copy@UtagCONNECTDATA@@@ATL@@VCComSingleThreadModel@6@@ATL@@@ATL@@QAE@PAX@Z 10005ab0 f i SoundRecorder.obj
 0001:00004b00       ??0?$CComObject@VCOPOSSoundRecorder@@@ATL@@QAE@PAX@Z 10005b00 f i SoundRecorder.obj
 0001:00004c20       ??0?$CComObjectCached@VCComClassFactory@ATL@@@ATL@@QAE@PAX@Z 10005c20 f i SoundRecorder.obj
 0001:00004c60       ??0?$CComObjectRootEx@VCComMultiThreadModel@ATL@@@ATL@@QAE@XZ 10005c60 f i SoundRecorder.obj
 0001:00004ca0       ??0?$CComObjectRootEx@VCComSingleThreadModel@ATL@@@ATL@@QAE@XZ 10005ca0 f i SoundRecorder.obj
 0001:00004cd0       ??0?$CComPtr@UIAdviseSink@@@ATL@@QAE@PAUIAdviseSink@@@Z 10005cd0 f i SoundRecorder.obj
 0001:00004d00       ??0?$CComPtr@UICatRegister@@@ATL@@QAE@XZ 10005d00 f i SoundRecorder.obj
 0001:00004d30       ??0?$CComPtr@UIConnectionPoint@@@ATL@@QAE@XZ 10005d30 f i SoundRecorder.obj
 0001:00004d60       ??0?$CComPtr@UIConnectionPointContainer@@@ATL@@QAE@XZ 10005d60 f i SoundRecorder.obj
 0001:00004d90       ??0?$CComPtr@UIDataObject@@@ATL@@QAE@XZ 10005d90 f i SoundRecorder.obj
 0001:00004dc0       ??0?$CComPtr@UIDispatch@@@ATL@@QAE@XZ 10005dc0 f i SoundRecorder.obj
 0001:00004df0       ??0?$CComPtr@UIOleClientSite@@@ATL@@QAE@PAUIOleClientSite@@@Z 10005df0 f i SoundRecorder.obj
 0001:00004e20       ??0?$CComPtr@UIOleControlSite@@@ATL@@QAE@XZ 10005e20 f i SoundRecorder.obj
 0001:00004e50       ??0?$CComPtr@UIOleInPlaceActiveObject@@@ATL@@QAE@XZ 10005e50 f i SoundRecorder.obj
 0001:00004e80       ??0?$CComPtr@UIOleInPlaceFrame@@@ATL@@QAE@XZ 10005e80 f i SoundRecorder.obj
 0001:00004eb0       ??0?$CComPtr@UIOleInPlaceObject@@@ATL@@QAE@XZ 10005eb0 f i SoundRecorder.obj
 0001:00004ee0       ??0?$CComPtr@UIOleInPlaceUIWindow@@@ATL@@QAE@XZ 10005ee0 f i SoundRecorder.obj
 0001:00004f10       ??0?$CComPtr@UIOleObject@@@ATL@@QAE@XZ 10005f10 f i SoundRecorder.obj
 0001:00004f40       ??0?$CComPtr@UIPersistStream@@@ATL@@QAE@XZ 10005f40 f i SoundRecorder.obj
 0001:00004f70       ??0?$CComPtr@UIPersistStreamInit@@@ATL@@QAE@XZ 10005f70 f i SoundRecorder.obj
 0001:00004fa0       ??0?$CComPtr@UIPointerInactive@@@ATL@@QAE@XZ 10005fa0 f i SoundRecorder.obj
 0001:00004fd0       ??0?$CComPtr@UIProvideClassInfo2@@@ATL@@QAE@XZ 10005fd0 f i SoundRecorder.obj
 0001:00005000       ??0?$CComPtr@UISpecifyPropertyPages@@@ATL@@QAE@XZ 10006000 f i SoundRecorder.obj
 0001:00005030       ??0?$CComPtr@UIStream@@@ATL@@QAE@XZ 10006030 f i SoundRecorder.obj
 0001:00005060       ??0?$CComPtr@UITypeInfo2@@@ATL@@QAE@XZ 10006060 f i SoundRecorder.obj
 0001:00005090       ??0?$CComPtr@UITypeInfo@@@ATL@@QAE@ABV01@@Z 10006090 f i SoundRecorder.obj
 0001:000050c0       ??0?$CComPtr@UITypeInfo@@@ATL@@QAE@XZ 100060c0 f i SoundRecorder.obj
 0001:000050f0       ??0?$CComPtr@UITypeLib@@@ATL@@QAE@XZ 100060f0 f i SoundRecorder.obj
 0001:00005120       ??0?$CComPtr@UIUnknown@@@ATL@@QAE@ABV01@@Z 10006120 f i SoundRecorder.obj
 0001:00005150       ??0?$CComPtr@UIUnknown@@@ATL@@QAE@PAUIUnknown@@@Z 10006150 f i SoundRecorder.obj
 0001:00005180       ??0?$CComPtr@UIUnknown@@@ATL@@QAE@XZ 10006180 f i SoundRecorder.obj
 0001:000051b0       ??0?$CComPtr@UIViewObjectEx@@@ATL@@QAE@XZ 100061b0 f i SoundRecorder.obj
 0001:000051e0       ??0?$CComPtrBase@UIAdviseSink@@@ATL@@IAE@PAUIAdviseSink@@@Z 100061e0 f i SoundRecorder.obj
 0001:00005230       ??0?$CComPtrBase@UICatRegister@@@ATL@@IAE@XZ 10006230 f i SoundRecorder.obj
 0001:00005250       ??0?$CComPtrBase@UIConnectionPoint@@@ATL@@IAE@XZ 10006250 f i SoundRecorder.obj
 0001:00005270       ??0?$CComPtrBase@UIConnectionPointContainer@@@ATL@@IAE@XZ 10006270 f i SoundRecorder.obj
 0001:00005290       ??0?$CComPtrBase@UIDataObject@@@ATL@@IAE@XZ 10006290 f i SoundRecorder.obj
 0001:000052b0       ??0?$CComPtrBase@UIDispatch@@@ATL@@IAE@XZ 100062b0 f i SoundRecorder.obj
 0001:000052d0       ??0?$CComPtrBase@UIOleClientSite@@@ATL@@IAE@PAUIOleClientSite@@@Z 100062d0 f i SoundRecorder.obj
 0001:00005320       ??0?$CComPtrBase@UIOleControlSite@@@ATL@@IAE@XZ 10006320 f i SoundRecorder.obj
 0001:00005340       ??0?$CComPtrBase@UIOleInPlaceActiveObject@@@ATL@@IAE@XZ 10006340 f i SoundRecorder.obj
 0001:00005360       ??0?$CComPtrBase@UIOleInPlaceFrame@@@ATL@@IAE@XZ 10006360 f i SoundRecorder.obj
 0001:00005380       ??0?$CComPtrBase@UIOleInPlaceObject@@@ATL@@IAE@XZ 10006380 f i SoundRecorder.obj
 0001:000053a0       ??0?$CComPtrBase@UIOleInPlaceUIWindow@@@ATL@@IAE@XZ 100063a0 f i SoundRecorder.obj
 0001:000053c0       ??0?$CComPtrBase@UIOleObject@@@ATL@@IAE@XZ 100063c0 f i SoundRecorder.obj
 0001:000053e0       ??0?$CComPtrBase@UIPersistStream@@@ATL@@IAE@XZ 100063e0 f i SoundRecorder.obj
 0001:00005400       ??0?$CComPtrBase@UIPersistStreamInit@@@ATL@@IAE@XZ 10006400 f i SoundRecorder.obj
 0001:00005420       ??0?$CComPtrBase@UIPointerInactive@@@ATL@@IAE@XZ 10006420 f i SoundRecorder.obj
 0001:00005440       ??0?$CComPtrBase@UIProvideClassInfo2@@@ATL@@IAE@XZ 10006440 f i SoundRecorder.obj
 0001:00005460       ??0?$CComPtrBase@UISpecifyPropertyPages@@@ATL@@IAE@XZ 10006460 f i SoundRecorder.obj
 0001:00005480       ??0?$CComPtrBase@UIStream@@@ATL@@IAE@XZ 10006480 f i SoundRecorder.obj
 0001:000054a0       ??0?$CComPtrBase@UITypeInfo2@@@ATL@@IAE@XZ 100064a0 f i SoundRecorder.obj
 0001:000054c0       ??0?$CComPtrBase@UITypeInfo@@@ATL@@IAE@PAUITypeInfo@@@Z 100064c0 f i SoundRecorder.obj
 0001:00005510       ??0?$CComPtrBase@UITypeInfo@@@ATL@@IAE@XZ 10006510 f i SoundRecorder.obj
 0001:00005530       ??0?$CComPtrBase@UITypeLib@@@ATL@@IAE@XZ 10006530 f i SoundRecorder.obj
 0001:00005550       ??0?$CComPtrBase@UIUnknown@@@ATL@@IAE@PAUIUnknown@@@Z 10006550 f i SoundRecorder.obj
 0001:000055a0       ??0?$CComPtrBase@UIUnknown@@@ATL@@IAE@XZ 100065a0 f i SoundRecorder.obj
 0001:000055c0       ??0?$CComPtrBase@UIViewObjectEx@@@ATL@@IAE@XZ 100065c0 f i SoundRecorder.obj
 0001:000055e0       ??0?$CComQIPtr@UIOleControlSite@@$1?_GUID_b196b289_bab4_101a_b69c_00aa00341d07@@3U__s_GUID@@B@ATL@@QAE@PAUIUnknown@@@Z 100065e0 f i SoundRecorder.obj
 0001:00005640       ??0?$CComQIPtr@UIOleObject@@$1?_GUID_00000112_0000_0000_c000_000000000046@@3U__s_GUID@@B@ATL@@QAE@XZ 10006640 f i SoundRecorder.obj
 0001:00005670       ??0?$CComQIPtr@UISpecifyPropertyPages@@$1?_GUID_b196b28b_bab4_101a_b69c_00aa00341d07@@3U__s_GUID@@B@ATL@@QAE@XZ 10006670 f i SoundRecorder.obj
 0001:000056a0       ??0?$CSimpleMap@PA_WPA_WVCExpansionVectorEqualHelper@ATL@@@ATL@@QAE@XZ 100066a0 f i SoundRecorder.obj
 0001:000056e0       ??0?$CTempBuffer@E$0BAA@VCCRTAllocator@ATL@@@ATL@@QAE@XZ 100066e0 f i SoundRecorder.obj
 0001:00005700       ??0?$CTempBuffer@_W$0BAA@VCCRTAllocator@ATL@@@ATL@@QAE@XZ 10006700 f i SoundRecorder.obj
 0001:00005720       ??0?$CTempBuffer@_W$0EAA@VCCRTAllocator@ATL@@@ATL@@QAE@XZ 10006720 f i SoundRecorder.obj
 0001:00005740       ??0?$Wrapper@PA_W@?$CSimpleMap@PA_WPA_WVCExpansionVectorEqualHelper@ATL@@@ATL@@QAE@ABQA_W@Z 10006740 f i SoundRecorder.obj
 0001:00005770       ??0CAtlModule@ATL@@QAE@XZ  10006770 f i SoundRecorder.obj
 0001:00005890       ??0CComAutoDeleteCriticalSection@ATL@@QAE@XZ 10006890 f i SoundRecorder.obj
 0001:000058c0       ??0CComBSTR@ATL@@QAE@XZ    100068c0 f i SoundRecorder.obj
 0001:000058e0       ??0CComClassFactory@ATL@@QAE@XZ 100068e0 f i SoundRecorder.obj
 0001:00005920       ??0CComModule@ATL@@QAE@XZ  10006920 f i SoundRecorder.obj
 0001:00005990       ??0CComObjectRootBase@ATL@@QAE@XZ 10006990 f i SoundRecorder.obj
 0001:000059b0       ??0CComSafeDeleteCriticalSection@ATL@@QAE@XZ 100069b0 f i SoundRecorder.obj
 0001:000059e0       ??0CComVariant@ATL@@QAE@XZ 100069e0 f i SoundRecorder.obj
 0001:00005a30       ??0CExpansionVector@ATL@@QAE@XZ 10006a30 f i SoundRecorder.obj
 0001:00005a60       ??0CParseBuffer@CRegParser@ATL@@QAE@H@Z 10006a60 f i SoundRecorder.obj
 0001:00005ad0       ??0CRegKey@ATL@@QAE@PAUHKEY__@@@Z 10006ad0 f i SoundRecorder.obj
 0001:00005b10       ??0CRegKey@ATL@@QAE@PAVCAtlTransactionManager@1@@Z 10006b10 f i SoundRecorder.obj
 0001:00005b50       ??0CRegObject@ATL@@QAE@XZ  10006b50 f i SoundRecorder.obj
 0001:00005b90       ??0CRegParser@ATL@@QAE@PAVCRegObject@1@@Z 10006b90 f i SoundRecorder.obj
 0001:00005bc0       ??0IClassFactory@@QAE@XZ   10006bc0 f i SoundRecorder.obj
 0001:00005bf0       ??0IEnumConnectionPoints@@QAE@XZ 10006bf0 f i SoundRecorder.obj
 0001:00005c20       ??0IEnumConnections@@QAE@XZ 10006c20 f i SoundRecorder.obj
 0001:00005c50       ??0IRegistrarBase@@QAE@XZ  10006c50 f i SoundRecorder.obj
 0001:00005c80       ??0IUnknown@@QAE@XZ        10006c80 f i SoundRecorder.obj
 0001:00005ca0       ??0ModuleLockHelper@ATL@@QAE@XZ 10006ca0 f i SoundRecorder.obj
 0001:00005ce0       ??0OposVariant@@QAE@XZ     10006ce0 f i SoundRecorder.obj
 0001:00005d10       ??0Wrapper@?$CSimpleArray@GV?$CSimpleArrayEqualHelper@G@ATL@@@ATL@@QAE@ABG@Z 10006d10 f i SoundRecorder.obj
 0001:00005d40       ??0_ATL_MODULE70@ATL@@QAE@XZ 10006d40 f i SoundRecorder.obj
 0001:00005d70       ??0_ATL_MSG@ATL@@QAE@PAUHWND__@@IIJH@Z 10006d70 f i SoundRecorder.obj
 0001:00005de0       ??0_U_MENUorID@ATL@@QAE@I@Z 10006de0 f i SoundRecorder.obj
 0001:00005e00       ??0_U_RECT@ATL@@QAE@AAUtagRECT@@@Z 10006e00 f i SoundRecorder.obj
 0001:00005e20       ??0stringdispid@CComTypeInfoHolder@ATL@@QAE@XZ 10006e20 f i SoundRecorder.obj
 0001:00005e60       ??1?$CAtlModuleT@VCComModule@ATL@@@ATL@@UAE@XZ 10006e60 f i SoundRecorder.obj
 0001:00005e90       ??1?$CAtlSafeAllocBufferManager@VCCRTAllocator@ATL@@@_ATL_SAFE_ALLOCA_IMPL@ATL@@QAE@XZ 10006e90 f i SoundRecorder.obj
 0001:00005ee0       ??1?$CAutoVectorPtr@_W@ATL@@QAE@XZ 10006ee0 f i SoundRecorder.obj
 0001:00005f10       ??1?$CComAggObject@VCOPOSSoundRecorder@@@ATL@@UAE@XZ 10006f10 f i SoundRecorder.obj
 0001:00005f80       ??1?$CComContainedObject@VCOPOSSoundRecorder@@@ATL@@UAE@XZ 10006f80 f i SoundRecorder.obj
 0001:00005fb0       ??1?$CComCritSecLock@VCComCriticalSection@ATL@@@ATL@@QAE@XZ 10006fb0 f i SoundRecorder.obj
 0001:00005fe0       ??1?$CComEnum@UIEnumConnectionPoints@@$1?_GUID_b196b285_bab4_101a_b69c_00aa00341d07@@3U__s_GUID@@BPAUIConnectionPoint@@V?$_CopyInterface@UIConnectionPoint@@@ATL@@VCComSingleThreadModel@6@@ATL@@UAE@XZ 10006fe0 f i SoundRecorder.obj
 0001:00006010       ??1?$CComEnum@UIEnumConnections@@$1?_GUID_b196b287_bab4_101a_b69c_00aa00341d07@@3U__s_GUID@@BUtagCONNECTDATA@@V?$_Copy@UtagCONNECTDATA@@@ATL@@VCComSingleThreadModel@6@@ATL@@UAE@XZ 10007010 f i SoundRecorder.obj
 0001:00006040       ??1?$CComEnumImpl@UIEnumConnectionPoints@@$1?_GUID_b196b285_bab4_101a_b69c_00aa00341d07@@3U__s_GUID@@BPAUIConnectionPoint@@V?$_CopyInterface@UIConnectionPoint@@@ATL@@@ATL@@UAE@XZ 10007040 f i SoundRecorder.obj
 0001:000060d0       ??1?$CComEnumImpl@UIEnumConnections@@$1?_GUID_b196b287_bab4_101a_b69c_00aa00341d07@@3U__s_GUID@@BUtagCONNECTDATA@@V?$_Copy@UtagCONNECTDATA@@@ATL@@@ATL@@UAE@XZ 100070d0 f i SoundRecorder.obj
 0001:00006160       ??1?$CComObject@V?$CComEnum@UIEnumConnectionPoints@@$1?_GUID_b196b285_bab4_101a_b69c_00aa00341d07@@3U__s_GUID@@BPAUIConnectionPoint@@V?$_CopyInterface@UIConnectionPoint@@@ATL@@VCComSingleThreadModel@6@@ATL@@@ATL@@UAE@XZ 10007160 f i SoundRecorder.obj
 0001:000061c0       ??1?$CComObject@V?$CComEnum@UIEnumConnections@@$1?_GUID_b196b287_bab4_101a_b69c_00aa00341d07@@3U__s_GUID@@BUtagCONNECTDATA@@V?$_Copy@UtagCONNECTDATA@@@ATL@@VCComSingleThreadModel@6@@ATL@@@ATL@@UAE@XZ 100071c0 f i SoundRecorder.obj
 0001:00006220       ??1?$CComObject@VCOPOSSoundRecorder@@@ATL@@UAE@XZ 10007220 f i SoundRecorder.obj
 0001:00006360       ??1?$CComObjectCached@VCComClassFactory@ATL@@@ATL@@UAE@XZ 10007360 f i SoundRecorder.obj
 0001:000063b0       ??1?$CComObjectRootEx@VCComMultiThreadModel@ATL@@@ATL@@QAE@XZ 100073b0 f i SoundRecorder.obj
 0001:000063e0       ??1?$CComObjectRootEx@VCComSingleThreadModel@ATL@@@ATL@@QAE@XZ 100073e0 f i SoundRecorder.obj
 0001:00006410       ??1?$CComPtr@UIAdviseSink@@@ATL@@QAE@XZ 10007410 f i SoundRecorder.obj
 0001:00006440       ??1?$CComPtr@UICatRegister@@@ATL@@QAE@XZ 10007440 f i SoundRecorder.obj
 0001:00006470       ??1?$CComPtr@UIConnectionPoint@@@ATL@@QAE@XZ 10007470 f i SoundRecorder.obj
 0001:000064a0       ??1?$CComPtr@UIConnectionPointContainer@@@ATL@@QAE@XZ 100074a0 f i SoundRecorder.obj
 0001:000064d0       ??1?$CComPtr@UIDataObject@@@ATL@@QAE@XZ 100074d0 f i SoundRecorder.obj
 0001:00006500       ??1?$CComPtr@UIDispatch@@@ATL@@QAE@XZ 10007500 f i SoundRecorder.obj
 0001:00006530       ??1?$CComPtr@UIOleClientSite@@@ATL@@QAE@XZ 10007530 f i SoundRecorder.obj
 0001:00006560       ??1?$CComPtr@UIOleControlSite@@@ATL@@QAE@XZ 10007560 f i SoundRecorder.obj
 0001:00006590       ??1?$CComPtr@UIOleInPlaceActiveObject@@@ATL@@QAE@XZ 10007590 f i SoundRecorder.obj
 0001:000065c0       ??1?$CComPtr@UIOleInPlaceFrame@@@ATL@@QAE@XZ 100075c0 f i SoundRecorder.obj
 0001:000065f0       ??1?$CComPtr@UIOleInPlaceObject@@@ATL@@QAE@XZ 100075f0 f i SoundRecorder.obj
 0001:00006620       ??1?$CComPtr@UIOleInPlaceUIWindow@@@ATL@@QAE@XZ 10007620 f i SoundRecorder.obj
 0001:00006650       ??1?$CComPtr@UIOleObject@@@ATL@@QAE@XZ 10007650 f i SoundRecorder.obj
 0001:00006680       ??1?$CComPtr@UIPersistStream@@@ATL@@QAE@XZ 10007680 f i SoundRecorder.obj
 0001:000066b0       ??1?$CComPtr@UIPersistStreamInit@@@ATL@@QAE@XZ 100076b0 f i SoundRecorder.obj
 0001:000066e0       ??1?$CComPtr@UIPointerInactive@@@ATL@@QAE@XZ 100076e0 f i SoundRecorder.obj
 0001:00006710       ??1?$CComPtr@UIProvideClassInfo2@@@ATL@@QAE@XZ 10007710 f i SoundRecorder.obj
 0001:00006740       ??1?$CComPtr@UISpecifyPropertyPages@@@ATL@@QAE@XZ 10007740 f i SoundRecorder.obj
 0001:00006770       ??1?$CComPtr@UIStream@@@ATL@@QAE@XZ 10007770 f i SoundRecorder.obj
 0001:000067a0       ??1?$CComPtr@UITypeInfo2@@@ATL@@QAE@XZ 100077a0 f i SoundRecorder.obj
 0001:000067d0       ??1?$CComPtr@UITypeInfo@@@ATL@@QAE@XZ 100077d0 f i SoundRecorder.obj
 0001:00006800       ??1?$CComPtr@UITypeLib@@@ATL@@QAE@XZ 10007800 f i SoundRecorder.obj
 0001:00006830       ??1?$CComPtr@UIUnknown@@@ATL@@QAE@XZ 10007830 f i SoundRecorder.obj
 0001:00006860       ??1?$CComPtr@UIViewObjectEx@@@ATL@@QAE@XZ 10007860 f i SoundRecorder.obj
 0001:00006890       ??1?$CComPtrBase@UIAdviseSink@@@ATL@@QAE@XZ 10007890 f i SoundRecorder.obj
 0001:000068e0       ??1?$CComPtrBase@UICatRegister@@@ATL@@QAE@XZ 100078e0 f i SoundRecorder.obj
 0001:00006930       ??1?$CComPtrBase@UIConnectionPoint@@@ATL@@QAE@XZ 10007930 f i SoundRecorder.obj
 0001:00006980       ??1?$CComPtrBase@UIConnectionPointContainer@@@ATL@@QAE@XZ 10007980 f i SoundRecorder.obj
 0001:000069d0       ??1?$CComPtrBase@UIDataObject@@@ATL@@QAE@XZ 100079d0 f i SoundRecorder.obj
 0001:00006a20       ??1?$CComPtrBase@UIDispatch@@@ATL@@QAE@XZ 10007a20 f i SoundRecorder.obj
 0001:00006a70       ??1?$CComPtrBase@UIOleClientSite@@@ATL@@QAE@XZ 10007a70 f i SoundRecorder.obj
 0001:00006ac0       ??1?$CComPtrBase@UIOleControlSite@@@ATL@@QAE@XZ 10007ac0 f i SoundRecorder.obj
 0001:00006b10       ??1?$CComPtrBase@UIOleInPlaceActiveObject@@@ATL@@QAE@XZ 10007b10 f i SoundRecorder.obj
 0001:00006b60       ??1?$CComPtrBase@UIOleInPlaceFrame@@@ATL@@QAE@XZ 10007b60 f i SoundRecorder.obj
 0001:00006bb0       ??1?$CComPtrBase@UIOleInPlaceObject@@@ATL@@QAE@XZ 10007bb0 f i SoundRecorder.obj
 0001:00006c00       ??1?$CComPtrBase@UIOleInPlaceUIWindow@@@ATL@@QAE@XZ 10007c00 f i SoundRecorder.obj
 0001:00006c50       ??1?$CComPtrBase@UIOleObject@@@ATL@@QAE@XZ 10007c50 f i SoundRecorder.obj
 0001:00006ca0       ??1?$CComPtrBase@UIPersistStream@@@ATL@@QAE@XZ 10007ca0 f i SoundRecorder.obj
 0001:00006cf0       ??1?$CComPtrBase@UIPersistStreamInit@@@ATL@@QAE@XZ 10007cf0 f i SoundRecorder.obj
 0001:00006d40       ??1?$CComPtrBase@UIPointerInactive@@@ATL@@QAE@XZ 10007d40 f i SoundRecorder.obj
 0001:00006d90       ??1?$CComPtrBase@UIProvideClassInfo2@@@ATL@@QAE@XZ 10007d90 f i SoundRecorder.obj
 0001:00006de0       ??1?$CComPtrBase@UISpecifyPropertyPages@@@ATL@@QAE@XZ 10007de0 f i SoundRecorder.obj
 0001:00006e30       ??1?$CComPtrBase@UIStream@@@ATL@@QAE@XZ 10007e30 f i SoundRecorder.obj
 0001:00006e80       ??1?$CComPtrBase@UITypeInfo2@@@ATL@@QAE@XZ 10007e80 f i SoundRecorder.obj
 0001:00006ed0       ??1?$CComPtrBase@UITypeInfo@@@ATL@@QAE@XZ 10007ed0 f i SoundRecorder.obj
 0001:00006f20       ??1?$CComPtrBase@UITypeLib@@@ATL@@QAE@XZ 10007f20 f i SoundRecorder.obj
 0001:00006f70       ??1?$CComPtrBase@UIUnknown@@@ATL@@QAE@XZ 10007f70 f i SoundRecorder.obj
 0001:00006fc0       ??1?$CComPtrBase@UIViewObjectEx@@@ATL@@QAE@XZ 10007fc0 f i SoundRecorder.obj
 0001:00007010       ??1?$CComQIPtr@UIOleControlSite@@$1?_GUID_b196b289_bab4_101a_b69c_00aa00341d07@@3U__s_GUID@@B@ATL@@QAE@XZ 10008010 f i SoundRecorder.obj
 0001:00007040       ??1?$CComQIPtr@UIOleObject@@$1?_GUID_00000112_0000_0000_c000_000000000046@@3U__s_GUID@@B@ATL@@QAE@XZ 10008040 f i SoundRecorder.obj
 0001:00007070       ??1?$CComQIPtr@UISpecifyPropertyPages@@$1?_GUID_b196b28b_bab4_101a_b69c_00aa00341d07@@3U__s_GUID@@B@ATL@@QAE@XZ 10008070 f i SoundRecorder.obj
 0001:000070a0       ??1?$CSimpleMap@PA_WPA_WVCExpansionVectorEqualHelper@ATL@@@ATL@@QAE@XZ 100080a0 f i SoundRecorder.obj
 0001:000070d0       ??1?$CTempBuffer@E$0BAA@VCCRTAllocator@ATL@@@ATL@@QAE@XZ 100080d0 f i SoundRecorder.obj
 0001:00007110       ??1?$CTempBuffer@_W$0BAA@VCCRTAllocator@ATL@@@ATL@@QAE@XZ 10008110 f i SoundRecorder.obj
 0001:00007150       ??1?$CTempBuffer@_W$0EAA@VCCRTAllocator@ATL@@@ATL@@QAE@XZ 10008150 f i SoundRecorder.obj
 0001:00007190       ??1CAtlModule@ATL@@UAE@XZ  10008190 f i SoundRecorder.obj
 0001:000071c0       ??1CComAutoDeleteCriticalSection@ATL@@QAE@XZ 100081c0 f i SoundRecorder.obj
 0001:000071f0       ??1CComClassFactory@ATL@@UAE@XZ 100081f0 f i SoundRecorder.obj
 0001:00007220       ??1CComModule@ATL@@UAE@XZ  10008220 f i SoundRecorder.obj
 0001:00007250       ??1CComObjectRootBase@ATL@@QAE@XZ 10008250 f i SoundRecorder.obj
 0001:00007270       ??1CComSafeDeleteCriticalSection@ATL@@QAE@XZ 10008270 f i SoundRecorder.obj
 0001:000072b0       ??1CComVariant@ATL@@QAE@XZ 100082b0 f i SoundRecorder.obj
 0001:00007310       ??1CExpansionVector@ATL@@QAE@XZ 10008310 f i SoundRecorder.obj
 0001:00007340       ??1CParseBuffer@CRegParser@ATL@@QAE@XZ 10008340 f i SoundRecorder.obj
 0001:00007380       ??1CRegKey@ATL@@QAE@XZ     10008380 f i SoundRecorder.obj
 0001:000073b0       ??1CRegObject@ATL@@UAE@XZ  100083b0 f i SoundRecorder.obj
 0001:000073f0       ??1ModuleLockHelper@ATL@@QAE@XZ 100083f0 f i SoundRecorder.obj
 0001:00007430       ??1OposVariant@@QAE@XZ     10008430 f i SoundRecorder.obj
 0001:00007460       ??1_ATL_MODULE70@ATL@@QAE@XZ 10008460 f i SoundRecorder.obj
 0001:00007490       ??4?$CComPtr@UIAdviseSink@@@ATL@@QAEPAUIAdviseSink@@PAU2@@Z 10008490 f i SoundRecorder.obj
 0001:000074f0       ??4?$CComPtr@UIOleClientSite@@@ATL@@QAEPAUIOleClientSite@@PAU2@@Z 100084f0 f i SoundRecorder.obj
 0001:00007550       ??4?$CComPtr@UIUnknown@@@ATL@@QAEPAUIUnknown@@PAU2@@Z 10008550 f i SoundRecorder.obj
 0001:000075b0       ??4?$CComQIPtr@UIOleObject@@$1?_GUID_00000112_0000_0000_c000_000000000046@@3U__s_GUID@@B@ATL@@QAEPAUIOleObject@@PAUIUnknown@@@Z 100085b0 f i SoundRecorder.obj
 0001:00007600       ??4?$CComQIPtr@UISpecifyPropertyPages@@$1?_GUID_b196b28b_bab4_101a_b69c_00aa00341d07@@3U__s_GUID@@B@ATL@@QAEPAUISpecifyPropertyPages@@PAUIUnknown@@@Z 10008600 f i SoundRecorder.obj
 0001:00007650       ??7?$CComPtrBase@UIOleClientSite@@@ATL@@QBE_NXZ 10008650 f i SoundRecorder.obj
 0001:00007690       ??7?$CComPtrBase@UIOleInPlaceSiteWindowless@@@ATL@@QBE_NXZ 10008690 f i SoundRecorder.obj
 0001:000076d0       ??7CComBSTR@ATL@@QBE_NXZ   100086d0 f i SoundRecorder.obj
 0001:00007710       ??8?$CComPtrBase@UIConnectionPointContainer@@@ATL@@QBE_NPAUIConnectionPointContainer@@@Z 10008710 f i SoundRecorder.obj
 0001:00007750       ??8?$CComPtrBase@UIDataAdviseHolder@@@ATL@@QBE_NPAUIDataAdviseHolder@@@Z 10008750 f i SoundRecorder.obj
 0001:00007790       ??8?$CComPtrBase@UIOleAdviseHolder@@@ATL@@QBE_NPAUIOleAdviseHolder@@@Z 10008790 f i SoundRecorder.obj
 0001:000077d0       ??8?$CComPtrBase@UIOleClientSite@@@ATL@@QBE_NPAUIOleClientSite@@@Z 100087d0 f i SoundRecorder.obj
 0001:00007810       ??8?$CComPtrBase@UIOleControlSite@@@ATL@@QBE_NPAUIOleControlSite@@@Z 10008810 f i SoundRecorder.obj
 0001:00007850       ??8?$CComPtrBase@UIOleInPlaceObject@@@ATL@@QBE_NPAUIOleInPlaceObject@@@Z 10008850 f i SoundRecorder.obj
 0001:00007890       ??8?$CComPtrBase@UIOleInPlaceSiteWindowless@@@ATL@@QBE_NPAUIOleInPlaceSiteWindowless@@@Z 10008890 f i SoundRecorder.obj
 0001:000078d0       ??8?$CComPtrBase@UIOleObject@@@ATL@@QBE_NPAUIOleObject@@@Z 100088d0 f i SoundRecorder.obj
 0001:00007910       ??8?$CComPtrBase@UIPersistStream@@@ATL@@QBE_NPAUIPersistStream@@@Z 10008910 f i SoundRecorder.obj
 0001:00007950       ??8?$CComPtrBase@UIPersistStreamInit@@@ATL@@QBE_NPAUIPersistStreamInit@@@Z 10008950 f i SoundRecorder.obj
 0001:00007990       ??8?$CComPtrBase@UIPointerInactive@@@ATL@@QBE_NPAUIPointerInactive@@@Z 10008990 f i SoundRecorder.obj
 0001:000079d0       ??8?$CComPtrBase@UIUnknown@@@ATL@@QBE_NPAUIUnknown@@@Z 100089d0 f i SoundRecorder.obj
 0001:00007a10       ??8?$CComPtrBase@UIViewObjectEx@@@ATL@@QBE_NPAUIViewObjectEx@@@Z 10008a10 f i SoundRecorder.obj
 0001:00007a50       ??8CComBSTR@ATL@@QBE_NH@Z  10008a50 f i SoundRecorder.obj
 0001:00007ab0       ??9?$CComPtrBase@UIConnectionPointContainer@@@ATL@@QBE_NPAUIConnectionPointContainer@@@Z 10008ab0 f i SoundRecorder.obj
 0001:00007b00       ??9?$CComPtrBase@UIDataAdviseHolder@@@ATL@@QBE_NPAUIDataAdviseHolder@@@Z 10008b00 f i SoundRecorder.obj
 0001:00007b50       ??9?$CComPtrBase@UIOleAdviseHolder@@@ATL@@QBE_NPAUIOleAdviseHolder@@@Z 10008b50 f i SoundRecorder.obj
 0001:00007ba0       ??9?$CComPtrBase@UIOleClientSite@@@ATL@@QBE_NPAUIOleClientSite@@@Z 10008ba0 f i SoundRecorder.obj
 0001:00007bf0       ??9?$CComPtrBase@UIOleControlSite@@@ATL@@QBE_NPAUIOleControlSite@@@Z 10008bf0 f i SoundRecorder.obj
 0001:00007c40       ??9?$CComPtrBase@UIOleInPlaceObject@@@ATL@@QBE_NPAUIOleInPlaceObject@@@Z 10008c40 f i SoundRecorder.obj
 0001:00007c90       ??9?$CComPtrBase@UIOleInPlaceSiteWindowless@@@ATL@@QBE_NPAUIOleInPlaceSiteWindowless@@@Z 10008c90 f i SoundRecorder.obj
 0001:00007ce0       ??9?$CComPtrBase@UIOleObject@@@ATL@@QBE_NPAUIOleObject@@@Z 10008ce0 f i SoundRecorder.obj
 0001:00007d30       ??9?$CComPtrBase@UIPersistStream@@@ATL@@QBE_NPAUIPersistStream@@@Z 10008d30 f i SoundRecorder.obj
 0001:00007d80       ??9?$CComPtrBase@UIPersistStreamInit@@@ATL@@QBE_NPAUIPersistStreamInit@@@Z 10008d80 f i SoundRecorder.obj
 0001:00007dd0       ??9?$CComPtrBase@UIPointerInactive@@@ATL@@QBE_NPAUIPointerInactive@@@Z 10008dd0 f i SoundRecorder.obj
 0001:00007e20       ??9?$CComPtrBase@UIUnknown@@@ATL@@QBE_NPAUIUnknown@@@Z 10008e20 f i SoundRecorder.obj
 0001:00007e70       ??9?$CComPtrBase@UIViewObjectEx@@@ATL@@QBE_NPAUIViewObjectEx@@@Z 10008e70 f i SoundRecorder.obj
 0001:00007ec0       ??9CComBSTR@ATL@@QBE_NH@Z  10008ec0 f i SoundRecorder.obj
 0001:00007f10       ??B?$CComPtrBase@UIAdviseSink@@@ATL@@QBEPAUIAdviseSink@@XZ 10008f10 f i SoundRecorder.obj
 0001:00007f30       ??B?$CComPtrBase@UIDataAdviseHolder@@@ATL@@QBEPAUIDataAdviseHolder@@XZ 10008f30 f i SoundRecorder.obj
 0001:00007f50       ??B?$CComPtrBase@UIDataObject@@@ATL@@QBEPAUIDataObject@@XZ 10008f50 f i SoundRecorder.obj
 0001:00007f70       ??B?$CComPtrBase@UIOleAdviseHolder@@@ATL@@QBEPAUIOleAdviseHolder@@XZ 10008f70 f i SoundRecorder.obj
 0001:00007f90       ??B?$CComPtrBase@UIOleClientSite@@@ATL@@QBEPAUIOleClientSite@@XZ 10008f90 f i SoundRecorder.obj
 0001:00007fb0       ??B?$CComPtrBase@UIOleControlSite@@@ATL@@QBEPAUIOleControlSite@@XZ 10008fb0 f i SoundRecorder.obj
 0001:00007fd0       ??B?$CComPtrBase@UIOleInPlaceActiveObject@@@ATL@@QBEPAUIOleInPlaceActiveObject@@XZ 10008fd0 f i SoundRecorder.obj
 0001:00007ff0       ??B?$CComPtrBase@UIOleInPlaceFrame@@@ATL@@QBEPAUIOleInPlaceFrame@@XZ 10008ff0 f i SoundRecorder.obj
 0001:00008010       ??B?$CComPtrBase@UIOleInPlaceSiteWindowless@@@ATL@@QBEPAUIOleInPlaceSiteWindowless@@XZ 10009010 f i SoundRecorder.obj
 0001:00008030       ??B?$CComPtrBase@UIOleInPlaceUIWindow@@@ATL@@QBEPAUIOleInPlaceUIWindow@@XZ 10009030 f i SoundRecorder.obj
 0001:00008050       ??B?$CComPtrBase@UIOleObject@@@ATL@@QBEPAUIOleObject@@XZ 10009050 f i SoundRecorder.obj
 0001:00008070       ??B?$CComPtrBase@UIPersistStream@@@ATL@@QBEPAUIPersistStream@@XZ 10009070 f i SoundRecorder.obj
 0001:00008090       ??B?$CComPtrBase@UIProvideClassInfo2@@@ATL@@QBEPAUIProvideClassInfo2@@XZ 10009090 f i SoundRecorder.obj
 0001:000080b0       ??B?$CComPtrBase@UISpecifyPropertyPages@@@ATL@@QBEPAUISpecifyPropertyPages@@XZ 100090b0 f i SoundRecorder.obj
 0001:000080d0       ??B?$CComPtrBase@UIStream@@@ATL@@QBEPAUIStream@@XZ 100090d0 f i SoundRecorder.obj
 0001:000080f0       ??B?$CComPtrBase@UITypeInfo2@@@ATL@@QBEPAUITypeInfo2@@XZ 100090f0 f i SoundRecorder.obj
 0001:00008110       ??B?$CComPtrBase@UITypeInfo@@@ATL@@QBEPAUITypeInfo@@XZ 10009110 f i SoundRecorder.obj
 0001:00008130       ??B?$CComPtrBase@UITypeLib@@@ATL@@QBEPAUITypeLib@@XZ 10009130 f i SoundRecorder.obj
 0001:00008150       ??B?$CComPtrBase@UIUnknown@@@ATL@@QBEPAUIUnknown@@XZ 10009150 f i SoundRecorder.obj
 0001:00008170       ??B?$CTempBuffer@E$0BAA@VCCRTAllocator@ATL@@@ATL@@QBEPAEXZ 10009170 f i SoundRecorder.obj
 0001:00008190       ??B?$CTempBuffer@_W$0BAA@VCCRTAllocator@ATL@@@ATL@@QBEPA_WXZ 10009190 f i SoundRecorder.obj
 0001:000081b0       ??B?$CTempBuffer@_W$0EAA@VCCRTAllocator@ATL@@@ATL@@QBEPA_WXZ 100091b0 f i SoundRecorder.obj
 0001:000081d0       ??B?$CTraceCategoryEx@$00$0A@@ATL@@QAEIXZ 100091d0 f i SoundRecorder.obj
 0001:000081f0       ??B?$CTraceCategoryEx@$07$0A@@ATL@@QAEIXZ 100091f0 f i SoundRecorder.obj
 0001:00008210       ??B?$CTraceCategoryEx@$0CAAA@$0A@@ATL@@QAEIXZ 10009210 f i SoundRecorder.obj
 0001:00008230       ??B?$CTraceCategoryEx@$0EA@$0A@@ATL@@QAEIXZ 10009230 f i SoundRecorder.obj
 0001:00008250       ??B?$CTraceCategoryEx@$0IAA@$0A@@ATL@@QAEIXZ 10009250 f i SoundRecorder.obj
 0001:00008270       ??BCComBSTR@ATL@@QBEPA_WXZ 10009270 f i SoundRecorder.obj
 0001:00008290       ??BCRegKey@ATL@@QBEPAUHKEY__@@XZ 10009290 f i SoundRecorder.obj
 0001:000082b0       ??C?$CComPtrBase@UIAdviseSink@@@ATL@@QBEPAV?$_NoAddRefReleaseOnCComPtr@UIAdviseSink@@@1@XZ 100092b0 f i SoundRecorder.obj
 0001:00008300       ??C?$CComPtrBase@UICatRegister@@@ATL@@QBEPAV?$_NoAddRefReleaseOnCComPtr@UICatRegister@@@1@XZ 10009300 f i SoundRecorder.obj
 0001:00008350       ??C?$CComPtrBase@UIConnectionPoint@@@ATL@@QBEPAV?$_NoAddRefReleaseOnCComPtr@UIConnectionPoint@@@1@XZ 10009350 f i SoundRecorder.obj
 0001:000083a0       ??C?$CComPtrBase@UIConnectionPointContainer@@@ATL@@QBEPAV?$_NoAddRefReleaseOnCComPtr@UIConnectionPointContainer@@@1@XZ 100093a0 f i SoundRecorder.obj
 0001:000083f0       ??C?$CComPtrBase@UIDataAdviseHolder@@@ATL@@QBEPAV?$_NoAddRefReleaseOnCComPtr@UIDataAdviseHolder@@@1@XZ 100093f0 f i SoundRecorder.obj
 0001:00008440       ??C?$CComPtrBase@UIOleAdviseHolder@@@ATL@@QBEPAV?$_NoAddRefReleaseOnCComPtr@UIOleAdviseHolder@@@1@XZ 10009440 f i SoundRecorder.obj
 0001:00008490       ??C?$CComPtrBase@UIOleClientSite@@@ATL@@QBEPAV?$_NoAddRefReleaseOnCComPtr@UIOleClientSite@@@1@XZ 10009490 f i SoundRecorder.obj
 0001:000084e0       ??C?$CComPtrBase@UIOleControlSite@@@ATL@@QBEPAV?$_NoAddRefReleaseOnCComPtr@UIOleControlSite@@@1@XZ 100094e0 f i SoundRecorder.obj
 0001:00008530       ??C?$CComPtrBase@UIOleInPlaceFrame@@@ATL@@QBEPAV?$_NoAddRefReleaseOnCComPtr@UIOleInPlaceFrame@@@1@XZ 10009530 f i SoundRecorder.obj
 0001:00008580       ??C?$CComPtrBase@UIOleInPlaceObject@@@ATL@@QBEPAV?$_NoAddRefReleaseOnCComPtr@UIOleInPlaceObject@@@1@XZ 10009580 f i SoundRecorder.obj
 0001:000085d0       ??C?$CComPtrBase@UIOleInPlaceSiteWindowless@@@ATL@@QBEPAV?$_NoAddRefReleaseOnCComPtr@UIOleInPlaceSiteWindowless@@@1@XZ 100095d0 f i SoundRecorder.obj
 0001:00008620       ??C?$CComPtrBase@UIOleInPlaceUIWindow@@@ATL@@QBEPAV?$_NoAddRefReleaseOnCComPtr@UIOleInPlaceUIWindow@@@1@XZ 10009620 f i SoundRecorder.obj
 0001:00008670       ??C?$CComPtrBase@UIOleObject@@@ATL@@QBEPAV?$_NoAddRefReleaseOnCComPtr@UIOleObject@@@1@XZ 10009670 f i SoundRecorder.obj
 0001:000086c0       ??C?$CComPtrBase@UIPersistStream@@@ATL@@QBEPAV?$_NoAddRefReleaseOnCComPtr@UIPersistStream@@@1@XZ 100096c0 f i SoundRecorder.obj
 0001:00008710       ??C?$CComPtrBase@UIPersistStreamInit@@@ATL@@QBEPAV?$_NoAddRefReleaseOnCComPtr@UIPersistStreamInit@@@1@XZ 10009710 f i SoundRecorder.obj
 0001:00008760       ??C?$CComPtrBase@UIPointerInactive@@@ATL@@QBEPAV?$_NoAddRefReleaseOnCComPtr@UIPointerInactive@@@1@XZ 10009760 f i SoundRecorder.obj
 0001:000087b0       ??C?$CComPtrBase@UIProvideClassInfo2@@@ATL@@QBEPAV?$_NoAddRefReleaseOnCComPtr@UIProvideClassInfo2@@@1@XZ 100097b0 f i SoundRecorder.obj
 0001:00008800       ??C?$CComPtrBase@UISpecifyPropertyPages@@@ATL@@QBEPAV?$_NoAddRefReleaseOnCComPtr@UISpecifyPropertyPages@@@1@XZ 10009800 f i SoundRecorder.obj
 0001:00008850       ??C?$CComPtrBase@UITypeInfo@@@ATL@@QBEPAV?$_NoAddRefReleaseOnCComPtr@UITypeInfo@@@1@XZ 10009850 f i SoundRecorder.obj
 0001:000088a0       ??C?$CComPtrBase@UITypeLib@@@ATL@@QBEPAV?$_NoAddRefReleaseOnCComPtr@UITypeLib@@@1@XZ 100098a0 f i SoundRecorder.obj
 0001:000088f0       ??C?$CComPtrBase@UIUnknown@@@ATL@@QBEPAV?$_NoAddRefReleaseOnCComPtr@UIUnknown@@@1@XZ 100098f0 f i SoundRecorder.obj
 0001:00008940       ??C?$CComPtrBase@UIViewObjectEx@@@ATL@@QBEPAV?$_NoAddRefReleaseOnCComPtr@UIViewObjectEx@@@1@XZ 10009940 f i SoundRecorder.obj
 0001:00008990       ??I?$CComPtrBase@UICatRegister@@@ATL@@QAEPAPAUICatRegister@@XZ 10009990 f i SoundRecorder.obj
 0001:000089e0       ??I?$CComPtrBase@UIConnectionPoint@@@ATL@@QAEPAPAUIConnectionPoint@@XZ 100099e0 f i SoundRecorder.obj
 0001:00008a30       ??I?$CComPtrBase@UIConnectionPointContainer@@@ATL@@QAEPAPAUIConnectionPointContainer@@XZ 10009a30 f i SoundRecorder.obj
 0001:00008a80       ??I?$CComPtrBase@UIDataAdviseHolder@@@ATL@@QAEPAPAUIDataAdviseHolder@@XZ 10009a80 f i SoundRecorder.obj
 0001:00008ad0       ??I?$CComPtrBase@UIDataObject@@@ATL@@QAEPAPAUIDataObject@@XZ 10009ad0 f i SoundRecorder.obj
 0001:00008b20       ??I?$CComPtrBase@UIDispatch@@@ATL@@QAEPAPAUIDispatch@@XZ 10009b20 f i SoundRecorder.obj
 0001:00008b70       ??I?$CComPtrBase@UIOleAdviseHolder@@@ATL@@QAEPAPAUIOleAdviseHolder@@XZ 10009b70 f i SoundRecorder.obj
 0001:00008bc0       ??I?$CComPtrBase@UIOleControlSite@@@ATL@@QAEPAPAUIOleControlSite@@XZ 10009bc0 f i SoundRecorder.obj
 0001:00008c10       ??I?$CComPtrBase@UIOleInPlaceActiveObject@@@ATL@@QAEPAPAUIOleInPlaceActiveObject@@XZ 10009c10 f i SoundRecorder.obj
 0001:00008c60       ??I?$CComPtrBase@UIOleInPlaceFrame@@@ATL@@QAEPAPAUIOleInPlaceFrame@@XZ 10009c60 f i SoundRecorder.obj
 0001:00008cb0       ??I?$CComPtrBase@UIOleInPlaceObject@@@ATL@@QAEPAPAUIOleInPlaceObject@@XZ 10009cb0 f i SoundRecorder.obj
 0001:00008d00       ??I?$CComPtrBase@UIOleInPlaceSiteWindowless@@@ATL@@QAEPAPAUIOleInPlaceSiteWindowless@@XZ 10009d00 f i SoundRecorder.obj
 0001:00008d50       ??I?$CComPtrBase@UIOleInPlaceUIWindow@@@ATL@@QAEPAPAUIOleInPlaceUIWindow@@XZ 10009d50 f i SoundRecorder.obj
 0001:00008da0       ??I?$CComPtrBase@UIOleObject@@@ATL@@QAEPAPAUIOleObject@@XZ 10009da0 f i SoundRecorder.obj
 0001:00008df0       ??I?$CComPtrBase@UIPersistStream@@@ATL@@QAEPAPAUIPersistStream@@XZ 10009df0 f i SoundRecorder.obj
 0001:00008e40       ??I?$CComPtrBase@UIPointerInactive@@@ATL@@QAEPAPAUIPointerInactive@@XZ 10009e40 f i SoundRecorder.obj
 0001:00008e90       ??I?$CComPtrBase@UIProvideClassInfo2@@@ATL@@QAEPAPAUIProvideClassInfo2@@XZ 10009e90 f i SoundRecorder.obj
 0001:00008ee0       ??I?$CComPtrBase@UIStream@@@ATL@@QAEPAPAUIStream@@XZ 10009ee0 f i SoundRecorder.obj
 0001:00008f30       ??I?$CComPtrBase@UITypeInfo2@@@ATL@@QAEPAPAUITypeInfo2@@XZ 10009f30 f i SoundRecorder.obj
 0001:00008f80       ??I?$CComPtrBase@UITypeInfo@@@ATL@@QAEPAPAUITypeInfo@@XZ 10009f80 f i SoundRecorder.obj
 0001:00008fd0       ??I?$CComPtrBase@UITypeLib@@@ATL@@QAEPAPAUITypeLib@@XZ 10009fd0 f i SoundRecorder.obj
 0001:00009020       ??I?$CComPtrBase@UIUnknown@@@ATL@@QAEPAPAUIUnknown@@XZ 1000a020 f i SoundRecorder.obj
 0001:00009070       ??I?$CComPtrBase@UIViewObjectEx@@@ATL@@QAEPAPAUIViewObjectEx@@XZ 1000a070 f i SoundRecorder.obj
 0001:000090c0       ??ICComBSTR@ATL@@QAEPAPA_WXZ 1000a0c0 f i SoundRecorder.obj
 0001:000090d5       ??_E?$CComContainedObject@VCOPOSSoundRecorder@@@ATL@@W3AEPAXI@Z 1000a0d5 f i SoundRecorder.obj
 0001:000090dd       ??_E?$CComContainedObject@VCOPOSSoundRecorder@@@ATL@@WEM@AEPAXI@Z 1000a0dd f i SoundRecorder.obj
 0001:000090e5       ??_E?$CComObject@VCOPOSSoundRecorder@@@ATL@@W3AEPAXI@Z 1000a0e5 f i SoundRecorder.obj
 0001:000090ed       ??_E?$CComObject@VCOPOSSoundRecorder@@@ATL@@WEM@AEPAXI@Z 1000a0ed f i SoundRecorder.obj
 0001:00009100       ??_G?$CComAggObject@VCOPOSSoundRecorder@@@ATL@@UAEPAXI@Z 1000a100 f i SoundRecorder.obj
 0001:00009100       ??_E?$CComAggObject@VCOPOSSoundRecorder@@@ATL@@UAEPAXI@Z 1000a100 f i SoundRecorder.obj
 0001:00009150       ??_G?$CComContainedObject@VCOPOSSoundRecorder@@@ATL@@UAEPAXI@Z 1000a150 f i SoundRecorder.obj
 0001:00009150       ??_E?$CComContainedObject@VCOPOSSoundRecorder@@@ATL@@UAEPAXI@Z 1000a150 f i SoundRecorder.obj
 0001:000091a0       ??_E?$CComObject@V?$CComEnum@UIEnumConnectionPoints@@$1?_GUID_b196b285_bab4_101a_b69c_00aa00341d07@@3U__s_GUID@@BPAUIConnectionPoint@@V?$_CopyInterface@UIConnectionPoint@@@ATL@@VCComSingleThreadModel@6@@ATL@@@ATL@@UAEPAXI@Z 1000a1a0 f i SoundRecorder.obj
 0001:000091a0       ??_G?$CComObject@V?$CComEnum@UIEnumConnectionPoints@@$1?_GUID_b196b285_bab4_101a_b69c_00aa00341d07@@3U__s_GUID@@BPAUIConnectionPoint@@V?$_CopyInterface@UIConnectionPoint@@@ATL@@VCComSingleThreadModel@6@@ATL@@@ATL@@UAEPAXI@Z 1000a1a0 f i SoundRecorder.obj
 0001:000091e0       ??_E?$CComObject@V?$CComEnum@UIEnumConnections@@$1?_GUID_b196b287_bab4_101a_b69c_00aa00341d07@@3U__s_GUID@@BUtagCONNECTDATA@@V?$_Copy@UtagCONNECTDATA@@@ATL@@VCComSingleThreadModel@6@@ATL@@@ATL@@UAEPAXI@Z 1000a1e0 f i SoundRecorder.obj
 0001:000091e0       ??_G?$CComObject@V?$CComEnum@UIEnumConnections@@$1?_GUID_b196b287_bab4_101a_b69c_00aa00341d07@@3U__s_GUID@@BUtagCONNECTDATA@@V?$_Copy@UtagCONNECTDATA@@@ATL@@VCComSingleThreadModel@6@@ATL@@@ATL@@UAEPAXI@Z 1000a1e0 f i SoundRecorder.obj
 0001:00009220       ??_E?$CComObject@VCOPOSSoundRecorder@@@ATL@@UAEPAXI@Z 1000a220 f i SoundRecorder.obj
 0001:00009220       ??_G?$CComObject@VCOPOSSoundRecorder@@@ATL@@UAEPAXI@Z 1000a220 f i SoundRecorder.obj
 0001:00009270       ??_G?$CComObjectCached@VCComClassFactory@ATL@@@ATL@@UAEPAXI@Z 1000a270 f i SoundRecorder.obj
 0001:00009270       ??_E?$CComObjectCached@VCComClassFactory@ATL@@@ATL@@UAEPAXI@Z 1000a270 f i SoundRecorder.obj
 0001:000092b0       ??_ECComClassFactory@ATL@@UAEPAXI@Z 1000a2b0 f i SoundRecorder.obj
 0001:000092b0       ??_GCComClassFactory@ATL@@UAEPAXI@Z 1000a2b0 f i SoundRecorder.obj
 0001:000092f0       ??_GCComModule@ATL@@UAEPAXI@Z 1000a2f0 f i SoundRecorder.obj
 0001:000092f0       ??_ECComModule@ATL@@UAEPAXI@Z 1000a2f0 f i SoundRecorder.obj
 0001:00009330       ??_GCRegObject@ATL@@UAEPAXI@Z 1000a330 f i SoundRecorder.obj
 0001:00009330       ??_ECRegObject@ATL@@UAEPAXI@Z 1000a330 f i SoundRecorder.obj
 0001:00009370       ?Add@?$CSimpleArray@GV?$CSimpleArrayEqualHelper@G@ATL@@@ATL@@QAEHABG@Z 1000a370 f i SoundRecorder.obj
 0001:000094c0       ?Add@?$CSimpleMap@PA_WPA_WVCExpansionVectorEqualHelper@ATL@@@ATL@@QAEHABQA_W0@Z 1000a4c0 f i SoundRecorder.obj
 0001:00009580       ?Add@CComDynamicUnkArray@ATL@@QAEKPAUIUnknown@@@Z 1000a580 f i SoundRecorder.obj
 0001:00009720       ?Add@CExpansionVector@ATL@@QAEHPB_W0@Z 1000a720 f i SoundRecorder.obj
 0001:000099b0       ?AddChar@CParseBuffer@CRegParser@ATL@@QAEHPB_W@Z 1000a9b0 f i SoundRecorder.obj
 0001:000099f0       ?AddCommonRGSReplacements@?$CAtlModuleT@VCComModule@ATL@@@ATL@@UAEJPAUIRegistrarBase@@@Z 1000a9f0 f i SoundRecorder.obj
 0001:00009a40       ?AddCreateWndData@CAtlWinModule@ATL@@QAEXPAU_AtlCreateWndData@2@PAX@Z 1000aa40 f i SoundRecorder.obj
 0001:00009a70       ?AddRef@?$CComAggObject@VCOPOSSoundRecorder@@@ATL@@UAGKXZ 1000aa70 f i SoundRecorder.obj
 0001:00009a90       ?AddRef@?$CComContainedObject@VCOPOSSoundRecorder@@@ATL@@UAGKXZ 1000aa90 f i SoundRecorder.obj
 0001:00009aac       ?AddRef@?$CComContainedObject@VCOPOSSoundRecorder@@@ATL@@WHA@AGKXZ 1000aaac f i SoundRecorder.obj
 0001:00009ab6       ?AddRef@?$CComContainedObject@VCOPOSSoundRecorder@@@ATL@@WHE@AGKXZ 1000aab6 f i SoundRecorder.obj
 0001:00009ac0       ?AddRef@?$CComContainedObject@VCOPOSSoundRecorder@@@ATL@@WHI@AGKXZ 1000aac0 f i SoundRecorder.obj
 0001:00009aca       ?AddRef@?$CComContainedObject@VCOPOSSoundRecorder@@@ATL@@WHM@AGKXZ 1000aaca f i SoundRecorder.obj
 0001:00009ad4       ?AddRef@?$CComContainedObject@VCOPOSSoundRecorder@@@ATL@@WIA@AGKXZ 1000aad4 f i SoundRecorder.obj
 0001:00009ae1       ?AddRef@?$CComContainedObject@VCOPOSSoundRecorder@@@ATL@@WIE@AGKXZ 1000aae1 f i SoundRecorder.obj
 0001:00009aee       ?AddRef@?$CComContainedObject@VCOPOSSoundRecorder@@@ATL@@WII@AGKXZ 1000aaee f i SoundRecorder.obj
 0001:00009afb       ?AddRef@?$CComContainedObject@VCOPOSSoundRecorder@@@ATL@@WIM@AGKXZ 1000aafb f i SoundRecorder.obj
 0001:00009b08       ?AddRef@?$CComContainedObject@VCOPOSSoundRecorder@@@ATL@@WJA@AGKXZ 1000ab08 f i SoundRecorder.obj
 0001:00009b15       ?AddRef@?$CComContainedObject@VCOPOSSoundRecorder@@@ATL@@WJE@AGKXZ 1000ab15 f i SoundRecorder.obj
 0001:00009b22       ?AddRef@?$CComContainedObject@VCOPOSSoundRecorder@@@ATL@@WJI@AGKXZ 1000ab22 f i SoundRecorder.obj
 0001:00009b2f       ?AddRef@?$CComContainedObject@VCOPOSSoundRecorder@@@ATL@@WJM@AGKXZ 1000ab2f f i SoundRecorder.obj
 0001:00009b3c       ?AddRef@?$CComContainedObject@VCOPOSSoundRecorder@@@ATL@@WKA@AGKXZ 1000ab3c f i SoundRecorder.obj
 0001:00009b49       ?AddRef@?$CComContainedObject@VCOPOSSoundRecorder@@@ATL@@WKI@AGKXZ 1000ab49 f i SoundRecorder.obj
 0001:00009b56       ?AddRef@?$CComContainedObject@VCOPOSSoundRecorder@@@ATL@@WLE@AGKXZ 1000ab56 f i SoundRecorder.obj
 0001:00009b70       ?AddRef@?$CComObject@V?$CComEnum@UIEnumConnectionPoints@@$1?_GUID_b196b285_bab4_101a_b69c_00aa00341d07@@3U__s_GUID@@BPAUIConnectionPoint@@V?$_CopyInterface@UIConnectionPoint@@@ATL@@VCComSingleThreadModel@6@@ATL@@@ATL@@UAGKXZ 1000ab70 f i SoundRecorder.obj
 0001:00009b90       ?AddRef@?$CComObject@V?$CComEnum@UIEnumConnections@@$1?_GUID_b196b287_bab4_101a_b69c_00aa00341d07@@3U__s_GUID@@BUtagCONNECTDATA@@V?$_Copy@UtagCONNECTDATA@@@ATL@@VCComSingleThreadModel@6@@ATL@@@ATL@@UAGKXZ 1000ab90 f i SoundRecorder.obj
 0001:00009bb0       ?AddRef@?$CComObject@VCOPOSSoundRecorder@@@ATL@@UAGKXZ 1000abb0 f i SoundRecorder.obj
 0001:00009bcc       ?AddRef@?$CComObject@VCOPOSSoundRecorder@@@ATL@@WHA@AGKXZ 1000abcc f i SoundRecorder.obj
 0001:00009bd6       ?AddRef@?$CComObject@VCOPOSSoundRecorder@@@ATL@@WHE@AGKXZ 1000abd6 f i SoundRecorder.obj
 0001:00009be0       ?AddRef@?$CComObject@VCOPOSSoundRecorder@@@ATL@@WHI@AGKXZ 1000abe0 f i SoundRecorder.obj
 0001:00009bea       ?AddRef@?$CComObject@VCOPOSSoundRecorder@@@ATL@@WHM@AGKXZ 1000abea f i SoundRecorder.obj
 0001:00009bf4       ?AddRef@?$CComObject@VCOPOSSoundRecorder@@@ATL@@WIA@AGKXZ 1000abf4 f i SoundRecorder.obj
 0001:00009c01       ?AddRef@?$CComObject@VCOPOSSoundRecorder@@@ATL@@WIE@AGKXZ 1000ac01 f i SoundRecorder.obj
 0001:00009c0e       ?AddRef@?$CComObject@VCOPOSSoundRecorder@@@ATL@@WII@AGKXZ 1000ac0e f i SoundRecorder.obj
 0001:00009c1b       ?AddRef@?$CComObject@VCOPOSSoundRecorder@@@ATL@@WIM@AGKXZ 1000ac1b f i SoundRecorder.obj
 0001:00009c28       ?AddRef@?$CComObject@VCOPOSSoundRecorder@@@ATL@@WJA@AGKXZ 1000ac28 f i SoundRecorder.obj
 0001:00009c35       ?AddRef@?$CComObject@VCOPOSSoundRecorder@@@ATL@@WJE@AGKXZ 1000ac35 f i SoundRecorder.obj
 0001:00009c42       ?AddRef@?$CComObject@VCOPOSSoundRecorder@@@ATL@@WJI@AGKXZ 1000ac42 f i SoundRecorder.obj
 0001:00009c4f       ?AddRef@?$CComObject@VCOPOSSoundRecorder@@@ATL@@WJM@AGKXZ 1000ac4f f i SoundRecorder.obj
 0001:00009c5c       ?AddRef@?$CComObject@VCOPOSSoundRecorder@@@ATL@@WKA@AGKXZ 1000ac5c f i SoundRecorder.obj
 0001:00009c69       ?AddRef@?$CComObject@VCOPOSSoundRecorder@@@ATL@@WKI@AGKXZ 1000ac69 f i SoundRecorder.obj
 0001:00009c76       ?AddRef@?$CComObject@VCOPOSSoundRecorder@@@ATL@@WLE@AGKXZ 1000ac76 f i SoundRecorder.obj
 0001:00009c90       ?AddRef@?$CComObjectCached@VCComClassFactory@ATL@@@ATL@@UAGKXZ 1000ac90 f i SoundRecorder.obj
 0001:00009ce0       ?AddRef@CRegObject@ATL@@UAGKXZ 1000ace0 f i SoundRecorder.obj
 0001:00009d30       ?AddReplacement@CRegObject@ATL@@UAGJPB_W0@Z 1000ad30 f i SoundRecorder.obj
 0001:00009e40       ?AddString@CParseBuffer@CRegParser@ATL@@QAEHPB_W@Z 1000ae40 f i SoundRecorder.obj
 0001:00009f30       ?AddTermFunc@CAtlModule@ATL@@QAEJP6GXK@ZK@Z 1000af30 f i SoundRecorder.obj
 0001:00009f80       ?AddValue@CRegParser@ATL@@IAEJAAVCRegKey@2@PB_WPA_W@Z 1000af80 f i SoundRecorder.obj
 0001:0000a710       ?Advise@?$CProxy_IOPOSEvents@VCOPOSSoundRecorder@@@@UAGJPAUIUnknown@@PAK@Z 1000b710 f i SoundRecorder.obj
 0001:0000a760       ?Advise@?$IConnectionPointImpl@VCOPOSSoundRecorder@@$1?DIID__IOPOSSoundRecorderEvents@@3U_GUID@@BVCComDynamicUnkArray@ATL@@@ATL@@UAGJPAUIUnknown@@PAK@Z 1000b760 f i SoundRecorder.obj
 0001:0000a900       ?Advise@?$IConnectionPointImpl@VCOPOSSoundRecorder@@$1?IID_IPropertyNotifySink@@3U_GUID@@BVCComDynamicUnkArray@ATL@@@ATL@@UAGJPAUIUnknown@@PAK@Z 1000b900 f i SoundRecorder.obj
 0001:0000aaa0       ?Advise@?$IOleObjectImpl@VCOPOSSoundRecorder@@@ATL@@UAGJPAUIAdviseSink@@PAK@Z 1000baa0 f i SoundRecorder.obj
 0001:0000ab30       ?Allocate@?$CAtlSafeAllocBufferManager@VCCRTAllocator@ATL@@@_ATL_SAFE_ALLOCA_IMPL@ATL@@QAEPAXK@Z 1000bb30 f i SoundRecorder.obj
 0001:0000aba0       ?Allocate@?$CTempBuffer@E$0BAA@VCCRTAllocator@ATL@@@ATL@@QAEPAEI@Z 1000bba0 f i SoundRecorder.obj
 0001:0000abe0       ?Allocate@?$CTempBuffer@_W$0BAA@VCCRTAllocator@ATL@@@ATL@@QAEPA_WI@Z 1000bbe0 f i SoundRecorder.obj
 0001:0000ac20       ?Allocate@?$CTempBuffer@_W$0EAA@VCCRTAllocator@ATL@@@ATL@@QAEPA_WI@Z 1000bc20 f i SoundRecorder.obj
 0001:0000ac60       ?AllocateBytes@?$CTempBuffer@E$0BAA@VCCRTAllocator@ATL@@@ATL@@QAEPAEI@Z 1000bc60 f i SoundRecorder.obj
 0001:0000ace0       ?AllocateBytes@?$CTempBuffer@_W$0BAA@VCCRTAllocator@ATL@@@ATL@@QAEPA_WI@Z 1000bce0 f i SoundRecorder.obj
 0001:0000ad60       ?AllocateBytes@?$CTempBuffer@_W$0EAA@VCCRTAllocator@ATL@@@ATL@@QAEPA_WI@Z 1000bd60 f i SoundRecorder.obj
 0001:0000ade0       ?AllocateHeap@?$CTempBuffer@E$0BAA@VCCRTAllocator@ATL@@@ATL@@AAEXI@Z 1000bde0 f i SoundRecorder.obj
 0001:0000ae30       ?AllocateHeap@?$CTempBuffer@_W$0BAA@VCCRTAllocator@ATL@@@ATL@@AAEXI@Z 1000be30 f i SoundRecorder.obj
 0001:0000ae80       ?AllocateHeap@?$CTempBuffer@_W$0EAA@VCCRTAllocator@ATL@@@ATL@@AAEXI@Z 1000be80 f i SoundRecorder.obj
 0001:0000aed0       ?Append@CParseBuffer@CRegParser@ATL@@QAEHPB_WH@Z 1000bed0 f i SoundRecorder.obj
 0001:0000b070       ?AtlCallTermFunc@ATL@@YGXPAU_ATL_MODULE70@1@@Z 1000c070 f i SoundRecorder.obj
 0001:0000b110       ?AtlCoTaskMemCAlloc@ATL@@YAPAXKK@Z 1000c110 f i SoundRecorder.obj
 0001:0000b1a0       ?AtlCoTaskMemRecalloc@ATL@@YAPAXPAXKK@Z 1000c1a0 f i SoundRecorder.obj
 0001:0000b240       ?AtlComModuleGetClassObject@ATL@@YGJPAU_ATL_COM_MODULE70@1@ABU_GUID@@1PAPAX@Z 1000c240 f i SoundRecorder.obj
 0001:0000b4d0       ?AtlComModuleRegisterServer@ATL@@YGJPAU_ATL_COM_MODULE70@1@HPBU_GUID@@@Z 1000c4d0 f i SoundRecorder.obj
 0001:0000b660       ?AtlComModuleUnregisterServer@ATL@@YGJPAU_ATL_COM_MODULE70@1@HPBU_GUID@@@Z 1000c660 f i SoundRecorder.obj
 0001:0000b790       ?AtlComQIPtrAssign2@ATL@@YAXPAPAUIUnknown@@PAU2@ABU_GUID@@@Z 1000c790 f i SoundRecorder.obj
 0001:0000b810       ?AtlCreateTargetDC@ATL@@YGPAUHDC__@@PAU2@PAUtagDVTARGETDEVICE@@@Z 1000c810 f i SoundRecorder.obj
 0001:0000b9b0       ?AtlCrtErrorCheck@ATL@@YAHH@Z 1000c9b0 f i SoundRecorder.obj
 0001:0000ba80       ?AtlGetPerUserRegistration@ATL@@YGJPA_N@Z 1000ca80 f i SoundRecorder.obj
 0001:0000bab0       ?AtlHiMetricToPixel@ATL@@YGXPBUtagSIZE@@PAU2@@Z 1000cab0 f i SoundRecorder.obj
 0001:0000bc80       ?AtlHresultFromLastError@ATL@@YAJXZ 1000cc80 f i SoundRecorder.obj
 0001:0000bcc0       ?AtlHresultFromWin32@ATL@@YAJK@Z 1000ccc0 f i SoundRecorder.obj
 0001:0000bce0       ?AtlIPersistStreamInit_Load@ATL@@YGJPAUIStream@@PBUATL_PROPMAP_ENTRY@1@PAXPAUIUnknown@@@Z 1000cce0 f i SoundRecorder.obj
 0001:0000c140       ?AtlIPersistStreamInit_Save@ATL@@YGJPAUIStream@@HPBUATL_PROPMAP_ENTRY@1@PAXPAUIUnknown@@@Z 1000d140 f i SoundRecorder.obj
 0001:0000c520       ?AtlInternalOleLoadFromStream@ATL@@YAJPAUIStream@@ABU_GUID@@PAPAXTClassesAllowedInStream@1@K@Z 1000d520 f i SoundRecorder.obj
 0001:0000c7c0       ?AtlInternalQueryInterface@ATL@@YGJPAXPBU_ATL_INTMAP_ENTRY@1@ABU_GUID@@PAPAX@Z 1000d7c0 f i SoundRecorder.obj
 0001:0000c9f0       ?AtlLoadTypeLib@ATL@@YGJPAUHINSTANCE__@@PB_WPAPA_WPAPAUITypeLib@@@Z 1000d9f0 f i SoundRecorder.obj
 0001:0000ce50       ?AtlModuleAddTermFunc@ATL@@YGJPAU_ATL_MODULE70@1@P6GXK@ZK@Z 1000de50 f i SoundRecorder.obj
 0001:0000cfb0       ?AtlRegisterClassCategoriesHelper@ATL@@YGJABU_GUID@@PBU_ATL_CATMAP_ENTRY@1@H@Z 1000dfb0 f i SoundRecorder.obj
 0001:0000d690       ?AtlRegisterTypeLib@ATL@@YGJPAUHINSTANCE__@@PB_W@Z 1000e690 f i SoundRecorder.obj
 0001:0000d9d0       ?AtlThrowImpl@ATL@@YGXJ@Z  1000e9d0 f i SoundRecorder.obj
 0001:0000da80       ?AtlUnRegisterTypeLib@ATL@@YGJPAUHINSTANCE__@@PB_W@Z 1000ea80 f i SoundRecorder.obj
 0001:0000dc90       ?AtlWinModuleAddCreateWndData@ATL@@YGXPAU_ATL_WIN_MODULE70@1@PAU_AtlCreateWndData@1@PAX@Z 1000ec90 f i SoundRecorder.obj
 0001:0000de00       ?AtlWinModuleExtractCreateWndData@ATL@@YGPAXPAU_ATL_WIN_MODULE70@1@@Z 1000ee00 f i SoundRecorder.obj
 0001:0000df80       ?AtlWinModuleRegisterClassExW@ATL@@YGGPAU_ATL_WIN_MODULE70@1@PBUtagWNDCLASSEXW@@@Z 1000ef80 f i SoundRecorder.obj
 0001:0000e050       ?AtlWinModuleRegisterWndClassInfoW@ATL@@YGGPAU_ATL_WIN_MODULE70@1@PAU_ATL_BASE_MODULE70@1@PAU_ATL_WNDCLASSINFOW@1@PAP6GJPAUHWND__@@IIJ@Z@Z 1000f050 f i SoundRecorder.obj
 0001:0000e0e0       ?Attach@?$CAutoVectorPtr@_W@ATL@@QAEXPA_W@Z 1000f0e0 f i SoundRecorder.obj
 0001:0000e140       ?Attach@CComBSTR@ATL@@QAEXPA_W@Z 1000f140 f i SoundRecorder.obj
 0001:0000e190       ?Attach@CRegKey@ATL@@QAEXPAUHKEY__@@@Z 1000f190 f i SoundRecorder.obj
 0001:0000e200       ?CanForceRemoveKey@CRegParser@ATL@@IAEHPB_W@Z 1000f200 f i SoundRecorder.obj
 0001:0000e270       ?ChToByte@CRegParser@ATL@@KAE_W@Z 1000f270 f i SoundRecorder.obj
 0001:0000e390       ?ChangeType@CComVariant@ATL@@QAEJGPBUtagVARIANT@@@Z 1000f390 f i SoundRecorder.obj
 0001:0000e3f0       ?Cleanup@CComTypeInfoHolder@ATL@@SGXK@Z 1000f3f0 f i SoundRecorder.obj
 0001:0000e4c0       ?Clear@CComVariant@ATL@@QAEJXZ 1000f4c0 f i SoundRecorder.obj
 0001:0000e500       ?ClearReplacements@CExpansionVector@ATL@@QAEJXZ 1000f500 f i SoundRecorder.obj
 0001:0000e590       ?ClearReplacements@CRegObject@ATL@@UAGJXZ 1000f590 f i SoundRecorder.obj
 0001:0000e5e0       ?Clone@?$CComEnumImpl@UIEnumConnectionPoints@@$1?_GUID_b196b285_bab4_101a_b69c_00aa00341d07@@3U__s_GUID@@BPAUIConnectionPoint@@V?$_CopyInterface@UIConnectionPoint@@@ATL@@@ATL@@UAGJPAPAUIEnumConnectionPoints@@@Z 1000f5e0 f i SoundRecorder.obj
 0001:0000e750       ?Clone@?$CComEnumImpl@UIEnumConnections@@$1?_GUID_b196b287_bab4_101a_b69c_00aa00341d07@@3U__s_GUID@@BUtagCONNECTDATA@@V?$_Copy@UtagCONNECTDATA@@@ATL@@@ATL@@UAGJPAPAUIEnumConnections@@@Z 1000f750 f i SoundRecorder.obj
 0001:0000e8c0       ?Close@?$IOleObjectImpl@VCOPOSSoundRecorder@@@ATL@@UAGJK@Z 1000f8c0 f i SoundRecorder.obj
 0001:0000e950       ?Close@CRegKey@ATL@@QAEJXZ 1000f950 f i SoundRecorder.obj
 0001:0000e9c0       ?ContextSensitiveHelp@?$IOleInPlaceActiveObjectImpl@VCOPOSSoundRecorder@@@ATL@@UAGJH@Z 1000f9c0 f i SoundRecorder.obj
 0001:0000ea30       ?ContextSensitiveHelp@?$IOleInPlaceObjectWindowlessImpl@VCOPOSSoundRecorder@@@ATL@@UAGJH@Z 1000fa30 f i SoundRecorder.obj
 0001:0000eaa0       ?ControlQueryInterface@?$CComControl@VCOPOSSoundRecorder@@V?$CWindowImpl@VCOPOSSoundRecorder@@VCWindow@ATL@@V?$CWinTraits@$0FGAAAAAA@$0A@@3@@ATL@@@ATL@@UAEJABU_GUID@@PAPAX@Z 1000faa0 f i SoundRecorder.obj
 0001:0000eb20       ?CreateControlWindow@?$CComControl@VCOPOSSoundRecorder@@V?$CWindowImpl@VCOPOSSoundRecorder@@VCWindow@ATL@@V?$CWinTraits@$0FGAAAAAA@$0A@@3@@ATL@@@ATL@@UAEPAUHWND__@@PAU3@AAUtagRECT@@@Z 1000fb20 f i SoundRecorder.obj
 0001:0000eba0       ?CreateInstance@?$CComCreator@V?$CComAggObject@VCOPOSSoundRecorder@@@ATL@@@ATL@@SGJPAXABU_GUID@@PAPAX@Z 1000fba0 f i SoundRecorder.obj
 0001:0000ed20       ?CreateInstance@?$CComCreator@V?$CComObject@VCOPOSSoundRecorder@@@ATL@@@ATL@@SGJPAXABU_GUID@@PAPAX@Z 1000fd20 f i SoundRecorder.obj
 0001:0000eeb0       ?CreateInstance@?$CComObject@V?$CComEnum@UIEnumConnectionPoints@@$1?_GUID_b196b285_bab4_101a_b69c_00aa00341d07@@3U__s_GUID@@BPAUIConnectionPoint@@V?$_CopyInterface@UIConnectionPoint@@@ATL@@VCComSingleThreadModel@6@@ATL@@@ATL@@SGJPAPAV12@@Z 1000feb0 f i SoundRecorder.obj
 0001:0000f020       ?CreateInstance@?$CComObject@V?$CComEnum@UIEnumConnections@@$1?_GUID_b196b287_bab4_101a_b69c_00aa00341d07@@3U__s_GUID@@BUtagCONNECTDATA@@V?$_Copy@UtagCONNECTDATA@@@ATL@@VCComSingleThreadModel@6@@ATL@@@ATL@@SGJPAPAV12@@Z 10010020 f i SoundRecorder.obj
 0001:0000f190       ?CreateInstance@CComClassFactory@ATL@@UAGJPAUIUnknown@@ABU_GUID@@PAPAX@Z 10010190 f i SoundRecorder.obj
 0001:0000f280       ?DAdvise@?$IDataObjectImpl@VCOPOSSoundRecorder@@@ATL@@UAGJPAUtagFORMATETC@@KPAUIAdviseSink@@PAK@Z 10010280 f i SoundRecorder.obj
 0001:0000f380       ?DEVMODEOLE2T_EX@@YAPAU_devicemodeW@@PAU1@@Z 10010380 f i SoundRecorder.obj
 0001:0000f390       ?DUnadvise@?$IDataObjectImpl@VCOPOSSoundRecorder@@@ATL@@UAGJK@Z 10010390 f i SoundRecorder.obj
 0001:0000f460       ?Decrement@CComMultiThreadModel@ATL@@SGKPAJ@Z 10010460 f i SoundRecorder.obj
 0001:0000f480       ?Decrement@CComSingleThreadModel@ATL@@SGKPAJ@Z 10010480 f i SoundRecorder.obj
 0001:0000f4a0       ?DefWindowProcW@?$CWindowImplBaseT@VCWindow@ATL@@V?$CWinTraits@$0FGAAAAAA@$0A@@2@@ATL@@QAEJIIJ@Z 100104a0 f i SoundRecorder.obj
 0001:0000f4f0       ?DefaultReflectionHandler@?$CWindowImplRoot@VCWindow@ATL@@@ATL@@SAHPAUHWND__@@IIJAAJ@Z 100104f0 f i SoundRecorder.obj
 0001:0000f6e0       ?DeleteSubKey@CRegKey@ATL@@QAEJPB_W@Z 100106e0 f i SoundRecorder.obj
 0001:0000f7f0       ?DeleteValue@CRegKey@ATL@@QAEJPB_W@Z 100107f0 f i SoundRecorder.obj
 0001:0000f860       ?Detach@?$CAutoVectorPtr@_W@ATL@@QAEPA_WXZ 10010860 f i SoundRecorder.obj
 0001:0000f890       ?Detach@?$CComPtrBase@UIPersistStream@@@ATL@@QAEPAUIPersistStream@@XZ 10010890 f i SoundRecorder.obj
 0001:0000f8c0       ?Detach@?$CComPtrBase@UITypeInfo@@@ATL@@QAEPAUITypeInfo@@XZ 100108c0 f i SoundRecorder.obj
 0001:0000f8f0       ?Detach@?$CComPtrBase@UIUnknown@@@ATL@@QAEPAUIUnknown@@XZ 100108f0 f i SoundRecorder.obj
 0001:0000f920       ?Detach@CComBSTR@ATL@@QAEPA_WXZ 10010920 f i SoundRecorder.obj
 0001:0000f950       ?Detach@CParseBuffer@CRegParser@ATL@@QAEPA_WXZ 10010950 f i SoundRecorder.obj
 0001:0000f9a0       ?Detach@CRegKey@ATL@@QAEPAUHKEY__@@XZ 100109a0 f i SoundRecorder.obj
 0001:0000f9f0       ?DoEvent@COPOSSoundRecorder@@IAEXIIJ@Z 100109f0 f i SoundRecorder.obj
 0001:0000fb30       ?DoVerb@?$IOleObjectImpl@VCOPOSSoundRecorder@@@ATL@@UAGJJPAUtagMSG@@PAUIOleClientSite@@JPAUHWND__@@PBUtagRECT@@@Z 10010b30 f i SoundRecorder.obj
 0001:0000fd40       ?DoVerbDiscardUndo@?$IOleObjectImpl@VCOPOSSoundRecorder@@@ATL@@QAEJPBUtagRECT@@PAUHWND__@@@Z 10010d40 f i SoundRecorder.obj
 0001:0000fdb0       ?DoVerbHide@?$IOleObjectImpl@VCOPOSSoundRecorder@@@ATL@@QAEJPBUtagRECT@@PAUHWND__@@@Z 10010db0 f i SoundRecorder.obj
 0001:0000fe60       ?DoVerbInPlaceActivate@?$IOleObjectImpl@VCOPOSSoundRecorder@@@ATL@@QAEJPBUtagRECT@@PAUHWND__@@@Z 10010e60 f i SoundRecorder.obj
 0001:0000ff00       ?DoVerbOpen@?$IOleObjectImpl@VCOPOSSoundRecorder@@@ATL@@QAEJPBUtagRECT@@PAUHWND__@@@Z 10010f00 f i SoundRecorder.obj
 0001:0000ff70       ?DoVerbPrimary@?$IOleObjectImpl@VCOPOSSoundRecorder@@@ATL@@QAEJPBUtagRECT@@PAUHWND__@@@Z 10010f70 f i SoundRecorder.obj
 0001:00010080       ?DoVerbProperties@CComControlBase@ATL@@QAEJPBUtagRECT@@PAUHWND__@@@Z 10011080 f i SoundRecorder.obj
 0001:000103a0       ?DoVerbShow@?$IOleObjectImpl@VCOPOSSoundRecorder@@@ATL@@QAEJPBUtagRECT@@PAUHWND__@@@Z 100113a0 f i SoundRecorder.obj
 0001:00010430       ?DoVerbUIActivate@?$IOleObjectImpl@VCOPOSSoundRecorder@@@ATL@@QAEJPBUtagRECT@@PAUHWND__@@@Z 10011430 f i SoundRecorder.obj
 0001:000104d0       ?DoesVerbActivate@CComControlBase@ATL@@QAEHJ@Z 100114d0 f i SoundRecorder.obj
 0001:00010540       ?DoesVerbUIActivate@CComControlBase@ATL@@QAEHJ@Z 10011540 f i SoundRecorder.obj
 0001:000105c0       ?Draw@?$IViewObjectExImpl@VCOPOSSoundRecorder@@@ATL@@UAGJKJPAXPAUtagDVTARGETDEVICE@@PAUHDC__@@2PBU_RECTL@@3P6GHK@ZK@Z 100115c0 f i SoundRecorder.obj
 0001:00010660       ?Empty@CComBSTR@ATL@@QAEXXZ 10011660 f i SoundRecorder.obj
 0001:000106a0       ?EnableModeless@?$IOleInPlaceActiveObjectImpl@VCOPOSSoundRecorder@@@ATL@@UAGJH@Z 100116a0 f i SoundRecorder.obj
 0001:00010700       ?EndOfVar@CRegParser@ATL@@IAEHXZ 10011700 f i SoundRecorder.obj
 0001:00010770       ?EnsureTI@CComTypeInfoHolder@ATL@@QAEJK@Z 10011770 f i SoundRecorder.obj
 0001:000107d0       ?EnumAdvise@?$IOleObjectImpl@VCOPOSSoundRecorder@@@ATL@@UAGJPAPAUIEnumSTATDATA@@@Z 100117d0 f i SoundRecorder.obj
 0001:000108e0       ?EnumConnectionPoints@?$IConnectionPointContainerImpl@VCOPOSSoundRecorder@@@ATL@@UAGJPAPAUIEnumConnectionPoints@@@Z 100118e0 f i SoundRecorder.obj
 0001:00010d10       ?EnumConnections@?$IConnectionPointImpl@VCOPOSSoundRecorder@@$1?DIID__IOPOSSoundRecorderEvents@@3U_GUID@@BVCComDynamicUnkArray@ATL@@@ATL@@UAGJPAPAUIEnumConnections@@@Z 10011d10 f i SoundRecorder.obj
 0001:00010f60       ?EnumConnections@?$IConnectionPointImpl@VCOPOSSoundRecorder@@$1?IID_IPropertyNotifySink@@3U_GUID@@BVCComDynamicUnkArray@ATL@@@ATL@@UAGJPAPAUIEnumConnections@@@Z 10011f60 f i SoundRecorder.obj
 0001:000111b0       ?EnumDAdvise@?$IDataObjectImpl@VCOPOSSoundRecorder@@@ATL@@UAGJPAPAUIEnumSTATDATA@@@Z 100121b0 f i SoundRecorder.obj
 0001:000112b0       ?EnumFormatEtc@?$IDataObjectImpl@VCOPOSSoundRecorder@@@ATL@@UAGJKPAPAUIEnumFORMATETC@@@Z 100122b0 f i SoundRecorder.obj
 0001:00011320       ?EnumVerbs@?$IOleObjectImpl@VCOPOSSoundRecorder@@@ATL@@UAGJPAPAUIEnumOLEVERB@@@Z 10012320 f i SoundRecorder.obj
 0001:000113d0       ?EscapeSingleQuote@CAtlModule@ATL@@SAXPA_WIPB_W@Z 100123d0 f i SoundRecorder.obj
 0001:00011480       ?ExtractCreateWndData@CAtlWinModule@ATL@@QAEPAXXZ 10012480 f i SoundRecorder.obj
 0001:000114b0       ?FAccessAllowed@?$IObjectSafetyImpl@VCOPOSSoundRecorder@@$02@ATL@@MAEHXZ 100124b0 f i SoundRecorder.obj
 0001:000114d0       ?FinalConstruct@?$CComAggObject@VCOPOSSoundRecorder@@@ATL@@QAEJXZ 100124d0 f i SoundRecorder.obj
 0001:00011510       ?FinalConstruct@CComObjectRootBase@ATL@@QAEJXZ 10012510 f i SoundRecorder.obj
 0001:00011530       ?FinalConstruct@CRegObject@ATL@@QAEJXZ 10012530 f i SoundRecorder.obj
 0001:00011560       ?FinalRelease@?$CComAggObject@VCOPOSSoundRecorder@@@ATL@@QAEXXZ 10012560 f i SoundRecorder.obj
 0001:000115a0       ?FinalRelease@CComObjectRootBase@ATL@@QAEXXZ 100125a0 f i SoundRecorder.obj
 0001:000115c0       ?FindConnectionPoint@?$IConnectionPointContainerImpl@VCOPOSSoundRecorder@@@ATL@@UAGJABU_GUID@@PAPAUIConnectionPoint@@@Z 100125c0 f i SoundRecorder.obj
 0001:00011710       ?FindKey@?$CSimpleMap@PA_WPA_WVCExpansionVectorEqualHelper@ATL@@@ATL@@QBEHABQA_W@Z 10012710 f i SoundRecorder.obj
 0001:00011780       ?FireTheEvent@?$CProxy_IOPOSEvents@VCOPOSSoundRecorder@@@@IAEXPAUIUnknown@@PAVOposVariant@@IAAJPB_WJ@Z 10012780 f i SoundRecorder.obj
 0001:000118f0       ?FireViewChange@CComControlBase@ATL@@QAEJXZ 100128f0 f i SoundRecorder.obj
 0001:000119b0       ?Fire_DataEvent@?$CProxy_IOPOSEvents@VCOPOSSoundRecorder@@@@QAEXJ@Z 100129b0 f i SoundRecorder.obj
 0001:00011b10       ?Fire_DirectIOEvent@?$CProxy_IOPOSEvents@VCOPOSSoundRecorder@@@@QAEXJPAJPAPA_W@Z 10012b10 f i SoundRecorder.obj
 0001:00011ce0       ?Fire_ErrorEvent@?$CProxy_IOPOSEvents@VCOPOSSoundRecorder@@@@QAEXJJJPAJ@Z 10012ce0 f i SoundRecorder.obj
 0001:00011ed0       ?Fire_StatusUpdateEvent@?$CProxy_IOPOSEvents@VCOPOSSoundRecorder@@@@QAEXJ@Z 10012ed0 f i SoundRecorder.obj
 0001:00012030       ?FormatWindowClassName@AtlModuleRegisterWndClassInfoParamW@ATL@@SAXPA_WKPAX@Z 10013030 f i SoundRecorder.obj
 0001:00012060       ?Free@?$CAutoVectorPtr@_W@ATL@@QAEXXZ 10013060 f i SoundRecorder.obj
 0001:000120b0       ?FreeHeap@?$CTempBuffer@E$0BAA@VCCRTAllocator@ATL@@@ATL@@AAEXXZ 100130b0 f i SoundRecorder.obj
 0001:000120e0       ?FreeHeap@?$CTempBuffer@_W$0BAA@VCCRTAllocator@ATL@@@ATL@@AAEXXZ 100130e0 f i SoundRecorder.obj
 0001:00012110       ?FreeHeap@?$CTempBuffer@_W$0EAA@VCCRTAllocator@ATL@@@ATL@@AAEXXZ 10013110 f i SoundRecorder.obj
 0001:00012140       ?Freeze@?$IViewObjectExImpl@VCOPOSSoundRecorder@@@ATL@@UAGJKJPAXPAK@Z 10013140 f i SoundRecorder.obj
 0001:000121b0       ?GenerateError@CRegParser@ATL@@IAEJI@Z 100131b0 f i SoundRecorder.obj
 0001:000121d0       ?GetAdvise@?$IViewObjectExImpl@VCOPOSSoundRecorder@@@ATL@@UAGJPAK0PAPAUIAdviseSink@@@Z 100131d0 f i SoundRecorder.obj
 0001:000122d0       ?GetAmbientLocaleID@CComControlBase@ATL@@QAEJAAK@Z 100132d0 f i SoundRecorder.obj
 0001:000123b0       ?GetAmbientProperty@CComControlBase@ATL@@QAEJJAAUtagVARIANT@@@Z 100133b0 f i SoundRecorder.obj
 0001:00012400       ?GetAmbientUserMode@CComControlBase@ATL@@QAEJAAH@Z 10013400 f i SoundRecorder.obj
 0001:00012500       ?GetAppId@?$CAtlModuleT@VCComModule@ATL@@@ATL@@SAPB_WXZ 10013500 f i SoundRecorder.obj
 0001:00012510       ?GetAt@CComDynamicUnkArray@ATL@@QAEPAUIUnknown@@H@Z 10013510 f i SoundRecorder.obj
 0001:00012590       ?GetCanonicalFormatEtc@?$IDataObjectImpl@VCOPOSSoundRecorder@@@ATL@@UAGJPAUtagFORMATETC@@0@Z 10013590 f i SoundRecorder.obj
 0001:00012600       ?GetClassID@?$IPersistStorageImpl@VCOPOSSoundRecorder@@@ATL@@UAGJPAU_GUID@@@Z 10013600 f i SoundRecorder.obj
 0001:00012680       ?GetClassID@?$IPersistStreamInitImpl@VCOPOSSoundRecorder@@@ATL@@UAGJPAU_GUID@@@Z 10013680 f i SoundRecorder.obj
 0001:00012700       ?GetClassInfoExW@AtlModuleRegisterWndClassInfoParamW@ATL@@SAHPAUHINSTANCE__@@PB_WPAUtagWNDCLASSEXW@@@Z 10013700 f i SoundRecorder.obj
 0001:00012730       ?GetClassInfoW@?$IProvideClassInfo2Impl@$1?CLSID_OPOSSoundRecorder@@3U_GUID@@B$1?DIID__IOPOSSoundRecorderEvents@@3U2@B$1?LIBID_OposSoundRecorder_CCO@@3U2@B$00$0A@VCComTypeInfoHolder@ATL@@@ATL@@UAGJPAPAUITypeInfo@@@Z 10013730 f i SoundRecorder.obj
 0001:00012750       ?GetClassObject@CComModule@ATL@@QAEJABU_GUID@@0PAPAX@Z 10013750 f i SoundRecorder.obj
 0001:00012950       ?GetClientSite@?$IOleObjectImpl@VCOPOSSoundRecorder@@@ATL@@UAGJPAPAUIOleClientSite@@@Z 10013950 f i SoundRecorder.obj
 0001:000129e0       ?GetClipboardData@?$IOleObjectImpl@VCOPOSSoundRecorder@@@ATL@@UAGJKPAPAUIDataObject@@@Z 100139e0 f i SoundRecorder.obj
 0001:00012a50       ?GetCodeAddress@CDynamicStdCallThunk2@ATL@@QAEPAXXZ 10013a50 f i SoundRecorder.obj
 0001:00012a80       ?GetColorSet@?$IViewObjectExImpl@VCOPOSSoundRecorder@@@ATL@@UAGJKJPAXPAUtagDVTARGETDEVICE@@PAUHDC__@@PAPAUtagLOGPALETTE@@@Z 10013a80 f i SoundRecorder.obj
 0001:00012af0       ?GetConnMap@COPOSSoundRecorder@@SAPBU_ATL_CONNMAP_ENTRY@ATL@@PAH@Z 10013af0 f i SoundRecorder.obj
 0001:00012c30       ?GetConnectionInterface@?$IConnectionPointImpl@VCOPOSSoundRecorder@@$1?DIID__IOPOSSoundRecorderEvents@@3U_GUID@@BVCComDynamicUnkArray@ATL@@@ATL@@UAGJPAU_GUID@@@Z 10013c30 f i SoundRecorder.obj
 0001:00012c70       ?GetConnectionInterface@?$IConnectionPointImpl@VCOPOSSoundRecorder@@$1?IID_IPropertyNotifySink@@3U_GUID@@BVCComDynamicUnkArray@ATL@@@ATL@@UAGJPAU_GUID@@@Z 10013c70 f i SoundRecorder.obj
 0001:00012cb0       ?GetConnectionPointContainer@?$IConnectionPointImpl@VCOPOSSoundRecorder@@$1?DIID__IOPOSSoundRecorderEvents@@3U_GUID@@BVCComDynamicUnkArray@ATL@@@ATL@@UAGJPAPAUIConnectionPointContainer@@@Z 10013cb0 f i SoundRecorder.obj
 0001:00012d20       ?GetConnectionPointContainer@?$IConnectionPointImpl@VCOPOSSoundRecorder@@$1?IID_IPropertyNotifySink@@3U_GUID@@BVCComDynamicUnkArray@ATL@@@ATL@@UAGJPAPAUIConnectionPointContainer@@@Z 10013d20 f i SoundRecorder.obj
 0001:00012d90       ?GetContentExtent@?$IQuickActivateImpl@VCOPOSSoundRecorder@@@ATL@@UAGJPAUtagSIZE@@@Z 10013d90 f i SoundRecorder.obj
 0001:00012e20       ?GetControlInfo@?$IOleControlImpl@VCOPOSSoundRecorder@@@ATL@@UAGJPAUtagCONTROLINFO@@@Z 10013e20 f i SoundRecorder.obj
 0001:00012e90       ?GetCookie@CComDynamicUnkArray@ATL@@QAGKPAPAUIUnknown@@@Z 10013e90 f i SoundRecorder.obj
 0001:00012f50       ?GetData@?$IDataObjectImpl@VCOPOSSoundRecorder@@@ATL@@UAGJPAUtagFORMATETC@@PAUtagSTGMEDIUM@@@Z 10013f50 f i SoundRecorder.obj
 0001:00012fe0       ?GetData@CAtlSafeAllocBufferNode@?$CAtlSafeAllocBufferManager@VCCRTAllocator@ATL@@@_ATL_SAFE_ALLOCA_IMPL@ATL@@QAEPAXXZ 10013fe0 f i SoundRecorder.obj
 0001:00013000       ?GetDataHere@?$IDataObjectImpl@VCOPOSSoundRecorder@@@ATL@@UAGJPAUtagFORMATETC@@PAUtagSTGMEDIUM@@@Z 10014000 f i SoundRecorder.obj
 0001:00013070       ?GetDropTarget@?$IOleInPlaceObjectWindowlessImpl@VCOPOSSoundRecorder@@@ATL@@UAGJPAPAUIDropTarget@@@Z 10014070 f i SoundRecorder.obj
 0001:000130e0       ?GetExtent@?$IOleObjectImpl@VCOPOSSoundRecorder@@@ATL@@UAGJKPAUtagSIZE@@@Z 100140e0 f i SoundRecorder.obj
 0001:00013180       ?GetExtent@?$IViewObjectExImpl@VCOPOSSoundRecorder@@@ATL@@UAGJKJPAUtagDVTARGETDEVICE@@PAUtagSIZE@@@Z 10014180 f i SoundRecorder.obj
 0001:00013250       ?GetGITPtr@CAtlModule@ATL@@UAEJPAPAUIGlobalInterfaceTable@@@Z 10014250 f i SoundRecorder.obj
 0001:00013350       ?GetGUID@?$IProvideClassInfo2Impl@$1?CLSID_OPOSSoundRecorder@@3U_GUID@@B$1?DIID__IOPOSSoundRecorderEvents@@3U2@B$1?LIBID_OposSoundRecorder_CCO@@3U2@B$00$0A@VCComTypeInfoHolder@ATL@@@ATL@@UAGJKPAU_GUID@@@Z 10014350 f i SoundRecorder.obj
 0001:000133d0       ?GetIDsOfNames@?$IDispatchImpl@UIOPOSSoundRecorder@@$1?IID_IOPOSSoundRecorder@@3U_GUID@@B$1?LIBID_OposSoundRecorder_CCO@@3U3@B$00$0A@VCComTypeInfoHolder@ATL@@@ATL@@UAGJABU_GUID@@PAPA_WIKPAJ@Z 100143d0 f i SoundRecorder.obj
 0001:00013400       ?GetIDsOfNames@CComTypeInfoHolder@ATL@@QAEJABU_GUID@@PAPA_WIKPAJ@Z 10014400 f i SoundRecorder.obj
 0001:000135b0       ?GetInterfaceSafetyOptions@?$IObjectSafetyImpl@VCOPOSSoundRecorder@@$02@ATL@@UAGJABU_GUID@@PAK1@Z 100145b0 f i SoundRecorder.obj
 0001:00013720       ?GetKeyAt@?$CSimpleMap@PA_WPA_WVCExpansionVectorEqualHelper@ATL@@@ATL@@QBEAAPA_WH@Z 10014720 f i SoundRecorder.obj
 0001:000137a0       ?GetLockCount@CAtlModule@ATL@@UAEJXZ 100147a0 f i SoundRecorder.obj
 0001:000137c0       ?GetMiscStatus@?$IOleObjectImpl@VCOPOSSoundRecorder@@@ATL@@UAGJKPAK@Z 100147c0 f i SoundRecorder.obj
 0001:00013830       ?GetMoniker@?$IOleObjectImpl@VCOPOSSoundRecorder@@@ATL@@UAGJKKPAPAUIMoniker@@@Z 10014830 f i SoundRecorder.obj
 0001:000138a0       ?GetNaturalExtent@?$IViewObjectExImpl@VCOPOSSoundRecorder@@@ATL@@UAGJKJPAUtagDVTARGETDEVICE@@PAUHDC__@@PAUtagExtentInfo@@PAUtagSIZE@@@Z 100148a0 f i SoundRecorder.obj
 0001:000139c0       ?GetObjectCLSID@?$CComCoClass@VCOPOSSoundRecorder@@$1?CLSID_OPOSSoundRecorder@@3U_GUID@@B@ATL@@SGABU_GUID@@XZ 100149c0 f i SoundRecorder.obj
 0001:000139d0       ?GetPages@?$ISpecifyPropertyPagesImpl@VCOPOSSoundRecorder@@@ATL@@UAGJPAUtagCAUUID@@@Z 100149d0 f i SoundRecorder.obj
 0001:00013a40       ?GetPagesHelper@?$ISpecifyPropertyPagesImpl@VCOPOSSoundRecorder@@@ATL@@IAEJPAUtagCAUUID@@PBUATL_PROPMAP_ENTRY@2@@Z 10014a40 f i SoundRecorder.obj
 0001:00013c40       ?GetProperty@?$CComPtr@UIDispatch@@@ATL@@QAEJJPAUtagVARIANT@@@Z 10014c40 f i SoundRecorder.obj
 0001:00013c80       ?GetProperty@?$CComPtr@UIDispatch@@@ATL@@SAJPAUIDispatch@@JPAUtagVARIANT@@@Z 10014c80 f i SoundRecorder.obj
 0001:00013de0       ?GetPropertyMap@COPOSSoundRecorder@@SAPBUATL_PROPMAP_ENTRY@ATL@@XZ 10014de0 f i SoundRecorder.obj
 0001:00013df0       ?GetRect@?$IViewObjectExImpl@VCOPOSSoundRecorder@@@ATL@@UAGJKPAU_RECTL@@@Z 10014df0 f i SoundRecorder.obj
 0001:00013e60       ?GetSize@?$CSimpleMap@PA_WPA_WVCExpansionVectorEqualHelper@ATL@@@ATL@@QBEHXZ 10014e60 f i SoundRecorder.obj
 0001:00013e80       ?GetSize@CComDynamicUnkArray@ATL@@QBEHXZ 10014e80 f i SoundRecorder.obj
 0001:00013ea0       ?GetSizeMax@?$IPersistStreamInitImpl@VCOPOSSoundRecorder@@@ATL@@UAGJPAT_ULARGE_INTEGER@@@Z 10014ea0 f i SoundRecorder.obj
 0001:00014410       ?GetSizeMax@CComVariant@ATL@@QBEJPAT_ULARGE_INTEGER@@@Z 10015410 f i SoundRecorder.obj
 0001:00014770       ?GetStreamSize@CComBSTR@ATL@@SAKPA_W@Z 10015770 f i SoundRecorder.obj
 0001:000147c0       ?GetTI@CComTypeInfoHolder@ATL@@QAEJK@Z 100157c0 f i SoundRecorder.obj
 0001:00014fd0       ?GetTI@CComTypeInfoHolder@ATL@@QAEJKPAPAUITypeInfo@@@Z 10015fd0 f i SoundRecorder.obj
 0001:00015090       ?GetTypeInfo@?$IDispatchImpl@UIOPOSSoundRecorder@@$1?IID_IOPOSSoundRecorder@@3U_GUID@@B$1?LIBID_OposSoundRecorder_CCO@@3U3@B$00$0A@VCComTypeInfoHolder@ATL@@@ATL@@UAGJIKPAPAUITypeInfo@@@Z 10016090 f i SoundRecorder.obj
 0001:000150c0       ?GetTypeInfo@CComTypeInfoHolder@ATL@@QAEJIKPAPAUITypeInfo@@@Z 100160c0 f i SoundRecorder.obj
 0001:00015100       ?GetTypeInfoCount@?$IDispatchImpl@UIOPOSSoundRecorder@@$1?IID_IOPOSSoundRecorder@@3U_GUID@@B$1?LIBID_OposSoundRecorder_CCO@@3U3@B$00$0A@VCComTypeInfoHolder@ATL@@@ATL@@UAGJPAI@Z 10016100 f i SoundRecorder.obj
 0001:00015120       ?GetUnknown@CComDynamicUnkArray@ATL@@QAGPAUIUnknown@@K@Z 10016120 f i SoundRecorder.obj
 0001:00015190       ?GetUnknown@COPOSSoundRecorder@@QAEPAUIUnknown@@XZ 10016190 f i SoundRecorder.obj
 0001:000151c0       ?GetUserClassID@?$IOleObjectImpl@VCOPOSSoundRecorder@@@ATL@@UAGJPAU_GUID@@@Z 100161c0 f i SoundRecorder.obj
 0001:00015270       ?GetUserType@?$IOleObjectImpl@VCOPOSSoundRecorder@@@ATL@@UAGJKPAPA_W@Z 10016270 f i SoundRecorder.obj
 0001:000152e0       ?GetValueAt@?$CSimpleMap@PA_WPA_WVCExpansionVectorEqualHelper@ATL@@@ATL@@QBEAAPA_WH@Z 100162e0 f i SoundRecorder.obj
 0001:00015360       ?GetViewStatus@?$IViewObjectExImpl@VCOPOSSoundRecorder@@@ATL@@UAGJPAK@Z 10016360 f i SoundRecorder.obj
 0001:00015420       ?GetWNDPROC@CWndProcThunk@ATL@@QAEP6GJPAUHWND__@@IIJ@ZXZ 10016420 f i SoundRecorder.obj
 0001:00015450       ?GetWindow@?$IOleInPlaceActiveObjectImpl@VCOPOSSoundRecorder@@@ATL@@UAGJPAPAUHWND__@@@Z 10016450 f i SoundRecorder.obj
 0001:00015520       ?GetWindow@?$IOleInPlaceObjectWindowlessImpl@VCOPOSSoundRecorder@@@ATL@@UAGJPAPAUHWND__@@@Z 10016520 f i SoundRecorder.obj
 0001:000155f0       ?GetWindowLongPtrW@@YAJPAUHWND__@@H@Z 100165f0 f i SoundRecorder.obj
 0001:00015620       ?GetWindowProc@?$CWindowImplBaseT@VCWindow@ATL@@V?$CWinTraits@$0FGAAAAAA@$0A@@2@@ATL@@UAEP6GJPAUHWND__@@IIJ@ZXZ 10016620 f i SoundRecorder.obj
 0001:00015640       ?GetWndCaption@?$CWindowImpl@VCOPOSSoundRecorder@@VCWindow@ATL@@V?$CWinTraits@$0FGAAAAAA@$0A@@3@@ATL@@SAPB_WXZ 10016640 f i SoundRecorder.obj
 0001:00015650       ?GetWndClassInfo@?$CWindowImpl@VCOPOSSoundRecorder@@VCWindow@ATL@@V?$CWinTraits@$0FGAAAAAA@$0A@@3@@ATL@@SAAAU_ATL_WNDCLASSINFOW@2@XZ 10016650 f i SoundRecorder.obj
 0001:00015660       ?GetWndClassName@CWindow@ATL@@SAPB_WXZ 10016660 f i SoundRecorder.obj
 0001:00015670       ?GetWndExStyle@?$CWinTraits@$0FGAAAAAA@$0A@@ATL@@SAKK@Z 10016670 f i SoundRecorder.obj
 0001:000156a0       ?GetWndExStyle@?$CWindowImplBaseT@VCWindow@ATL@@V?$CWinTraits@$0FGAAAAAA@$0A@@2@@ATL@@SAKK@Z 100166a0 f i SoundRecorder.obj
 0001:000156c0       ?GetWndStyle@?$CWinTraits@$0FGAAAAAA@$0A@@ATL@@SAKK@Z 100166c0 f i SoundRecorder.obj
 0001:000156f0       ?GetWndStyle@?$CWindowImplBaseT@VCWindow@ATL@@V?$CWinTraits@$0FGAAAAAA@$0A@@2@@ATL@@SAKK@Z 100166f0 f i SoundRecorder.obj
 0001:00015710       ?GetZoomInfo@CComControlBase@ATL@@QAEXAAUATL_DRAWINFO@@@Z 10016710 f i SoundRecorder.obj
 0001:00015880       ?HKeyFromString@CRegParser@ATL@@KAPAUHKEY__@@PA_W@Z 10016880 f i SoundRecorder.obj
 0001:000158f0       ?HandsOffStorage@?$IPersistStorageImpl@VCOPOSSoundRecorder@@@ATL@@UAGJXZ 100168f0 f i SoundRecorder.obj
 0001:00015950       ?HasSubKeys@CRegParser@ATL@@IAEHPAUHKEY__@@@Z 10016950 f i SoundRecorder.obj
 0001:00015a60       ?IDataObject_GetData@CComControlBase@ATL@@QAEJPAUtagFORMATETC@@PAUtagSTGMEDIUM@@@Z 10016a60 f i SoundRecorder.obj
 0001:00015e80       ?IOleInPlaceObject_InPlaceDeactivate@CComControlBase@ATL@@QAEJXZ 10016e80 f i SoundRecorder.obj
 0001:00016080       ?IOleInPlaceObject_SetObjectRects@CComControlBase@ATL@@QAEJPBUtagRECT@@0@Z 10017080 f i SoundRecorder.obj
 0001:00016240       ?IOleInPlaceObject_UIDeactivate@CComControlBase@ATL@@QAEJXZ 10017240 f i SoundRecorder.obj
 0001:000164b0       ?IOleObject_Advise@CComControlBase@ATL@@QAEJPAUIAdviseSink@@PAK@Z 100174b0 f i SoundRecorder.obj
 0001:00016560       ?IOleObject_Close@CComControlBase@ATL@@QAEJK@Z 10017560 f i SoundRecorder.obj
 0001:00016810       ?IOleObject_GetClientSite@CComControlBase@ATL@@QAEJPAPAUIOleClientSite@@@Z 10017810 f i SoundRecorder.obj
 0001:000168b0       ?IOleObject_SetClientSite@CComControlBase@ATL@@QAEJPAUIOleClientSite@@@Z 100178b0 f i SoundRecorder.obj
 0001:00016980       ?IOleObject_SetExtent@CComControlBase@ATL@@QAEJKPAUtagSIZE@@@Z 10017980 f i SoundRecorder.obj
 0001:00016ac0       ?IPSI_GetIPersistStreamInit@?$IPersistStorageImpl@VCOPOSSoundRecorder@@@ATL@@AAEPAUIPersistStreamInit@@XZ 10017ac0 f i SoundRecorder.obj
 0001:00016b90       ?IPersistStreamInit_Load@?$IPersistStreamInitImpl@VCOPOSSoundRecorder@@@ATL@@QAEJPAUIStream@@PBUATL_PROPMAP_ENTRY@2@@Z 10017b90 f i SoundRecorder.obj
 0001:00016c10       ?IPersistStreamInit_Save@?$IPersistStreamInitImpl@VCOPOSSoundRecorder@@@ATL@@QAEJPAUIStream@@HPBUATL_PROPMAP_ENTRY@2@@Z 10017c10 f i SoundRecorder.obj
 0001:00016ca0       ?IQuickActivate_QuickActivate@CComControlBase@ATL@@QAEJPAUtagQACONTAINER@@PAUtagQACONTROL@@@Z 10017ca0 f i SoundRecorder.obj
 0001:000172f0       ?IViewObject_Draw@CComControlBase@ATL@@QAEJKJPAXPAUtagDVTARGETDEVICE@@PAUHDC__@@2PBU_RECTL@@3@Z 100182f0 f i SoundRecorder.obj
 0001:00017590       ?InPlaceActivate@CComControlBase@ATL@@QAEJJPBUtagRECT@@@Z 10018590 f i SoundRecorder.obj
 0001:00017f20       ?InPlaceDeactivate@?$IOleInPlaceObjectWindowlessImpl@VCOPOSSoundRecorder@@@ATL@@UAGJXZ 10018f20 f i SoundRecorder.obj
 0001:00017fa0       ?Increment@CComMultiThreadModel@ATL@@SGKPAJ@Z 10018fa0 f i SoundRecorder.obj
 0001:00017fc0       ?Increment@CComSingleThreadModel@ATL@@SGKPAJ@Z 10018fc0 f i SoundRecorder.obj
 0001:00017fe0       ?Init@?$CComEnumImpl@UIEnumConnectionPoints@@$1?_GUID_b196b285_bab4_101a_b69c_00aa00341d07@@3U__s_GUID@@BPAUIConnectionPoint@@V?$_CopyInterface@UIConnectionPoint@@@ATL@@@ATL@@QAEJPAPAUIConnectionPoint@@0PAUIUnknown@@W4CComEnumFlags@2@@Z 10018fe0 f i SoundRecorder.obj
 0001:000181c0       ?Init@?$CComEnumImpl@UIEnumConnections@@$1?_GUID_b196b287_bab4_101a_b69c_00aa00341d07@@3U__s_GUID@@BUtagCONNECTDATA@@V?$_Copy@UtagCONNECTDATA@@@ATL@@@ATL@@QAEJPAUtagCONNECTDATA@@0PAUIUnknown@@W4CComEnumFlags@2@@Z 100191c0 f i SoundRecorder.obj
 0001:000183a0       ?Init@CComFakeCriticalSection@ATL@@QAEJXZ 100193a0 f i SoundRecorder.obj
 0001:000183c0       ?Init@CComModule@ATL@@QAEJPAU_ATL_OBJMAP_ENTRY30@2@PAUHINSTANCE__@@PBU_GUID@@@Z 100193c0 f i SoundRecorder.obj
 0001:000184b0       ?Init@CComSafeDeleteCriticalSection@ATL@@QAEJXZ 100194b0 f i SoundRecorder.obj
 0001:00018530       ?Init@CDynamicStdCallThunk2@ATL@@QAEHKPAX@Z 10019530 f i SoundRecorder.obj
 0001:00018590       ?Init@CWndProcThunk@ATL@@QAEHP6GJPAUHWND__@@IIJ@ZPAX@Z 10019590 f i SoundRecorder.obj
 0001:000185d0       ?InitFromData@?$IOleObjectImpl@VCOPOSSoundRecorder@@@ATL@@UAGJPAUIDataObject@@HK@Z 100195d0 f i SoundRecorder.obj
 0001:00018640       ?InitLibId@?$CAtlModuleT@VCComModule@ATL@@@ATL@@SAXXZ 10019640 f i SoundRecorder.obj
 0001:00018650       ?InitNew@?$IPersistStorageImpl@VCOPOSSoundRecorder@@@ATL@@UAGJPAUIStorage@@@Z 10019650 f i SoundRecorder.obj
 0001:00018740       ?InitNew@?$IPersistStreamInitImpl@VCOPOSSoundRecorder@@@ATL@@UAGJXZ 10019740 f i SoundRecorder.obj
 0001:000187d0       ?InlineIsEqualUnknown@ATL@@YGHABU_GUID@@@Z 100197d0 f i SoundRecorder.obj
 0001:00018840       ?InternalAddRef@?$CComObjectRootEx@VCComMultiThreadModel@ATL@@@ATL@@QAEKXZ 10019840 f i SoundRecorder.obj
 0001:000188a0       ?InternalAddRef@?$CComObjectRootEx@VCComSingleThreadModel@ATL@@@ATL@@QAEKXZ 100198a0 f i SoundRecorder.obj
 0001:00018900       ?InternalFinalConstructAddRef@CComObjectRootBase@ATL@@QAEXXZ 10019900 f i SoundRecorder.obj
 0001:00018920       ?InternalFinalConstructAddRef@COPOSSoundRecorder@@QAEXXZ 10019920 f i SoundRecorder.obj
 0001:00018950       ?InternalFinalConstructRelease@CComObjectRootBase@ATL@@QAEXXZ 10019950 f i SoundRecorder.obj
 0001:000189a0       ?InternalFinalConstructRelease@COPOSSoundRecorder@@QAEXXZ 100199a0 f i SoundRecorder.obj
 0001:000189d0       ?InternalGetSite@CComControlBase@ATL@@QAEJABU_GUID@@PAPAX@Z 100199d0 f i SoundRecorder.obj
 0001:00018a90       ?InternalQueryInterface@CComObjectRootBase@ATL@@SGJPAXPBU_ATL_INTMAP_ENTRY@2@ABU_GUID@@PAPAX@Z 10019a90 f i SoundRecorder.obj
 0001:00018b50       ?InternalRelease@?$CComObjectRootEx@VCComMultiThreadModel@ATL@@@ATL@@QAEKXZ 10019b50 f i SoundRecorder.obj
 0001:00018bc0       ?InternalRelease@?$CComObjectRootEx@VCComSingleThreadModel@ATL@@@ATL@@QAEKXZ 10019bc0 f i SoundRecorder.obj
 0001:00018c30       ?InternalSetAtIndex@?$CSimpleArray@GV?$CSimpleArrayEqualHelper@G@ATL@@@ATL@@QAEXHABG@Z 10019c30 f i SoundRecorder.obj
 0001:00018ca0       ?InternalSetAtIndex@?$CSimpleMap@PA_WPA_WVCExpansionVectorEqualHelper@ATL@@@ATL@@QAEXHABQA_W0@Z 10019ca0 f i SoundRecorder.obj
 0001:00018d40       ?Invoke@?$IDispatchImpl@UIOPOSSoundRecorder@@$1?IID_IOPOSSoundRecorder@@3U_GUID@@B$1?LIBID_OposSoundRecorder_CCO@@3U3@B$00$0A@VCComTypeInfoHolder@ATL@@@ATL@@UAGJJABU_GUID@@KGPAUtagDISPPARAMS@@PAUtagVARIANT@@PAUtagEXCEPINFO@@PAI@Z 10019d40 f i SoundRecorder.obj
 0001:00018d80       ?Invoke@CComTypeInfoHolder@ATL@@QAEJPAUIDispatch@@JABU_GUID@@KGPAUtagDISPPARAMS@@PAUtagVARIANT@@PAUtagEXCEPINFO@@PAI@Z 10019d80 f i SoundRecorder.obj
 0001:00018e10       ?IsDirty@?$IPersistStorageImpl@VCOPOSSoundRecorder@@@ATL@@UAGJXZ 10019e10 f i SoundRecorder.obj
 0001:00018f00       ?IsDirty@?$IPersistStreamInitImpl@VCOPOSSoundRecorder@@@ATL@@UAGJXZ 10019f00 f i SoundRecorder.obj
 0001:00018fa0       ?IsEqualKey@CExpansionVectorEqualHelper@ATL@@SA_NQA_W0@Z 10019fa0 f i SoundRecorder.obj
 0001:00018fd0       ?IsEqualObject@?$CComPtrBase@UIOleClientSite@@@ATL@@QAE_NPAUIUnknown@@@Z 10019fd0 f i SoundRecorder.obj
 0001:00019100       ?IsEqualObject@?$CComPtrBase@UITypeInfo@@@ATL@@QAE_NPAUIUnknown@@@Z 1001a100 f i SoundRecorder.obj
 0001:00019230       ?IsSpace@CRegParser@ATL@@IAEH_W@Z 1001a230 f i SoundRecorder.obj
 0001:000192a0       ?IsUpToDate@?$IOleObjectImpl@VCOPOSSoundRecorder@@@ATL@@UAGJXZ 1001a2a0 f i SoundRecorder.obj
 0001:00019300       ?Length@CComBSTR@ATL@@QBEIXZ 1001a300 f i SoundRecorder.obj
 0001:00019340       ?Load@?$IPersistStorageImpl@VCOPOSSoundRecorder@@@ATL@@UAGJPAUIStorage@@@Z 1001a340 f i SoundRecorder.obj
 0001:000194a0       ?Load@?$IPersistStreamInitImpl@VCOPOSSoundRecorder@@@ATL@@UAGJPAUIStream@@@Z 1001a4a0 f i SoundRecorder.obj
 0001:00019530       ?LoadCursorW@AtlModuleRegisterWndClassInfoParamW@ATL@@SAPAUHICON__@@PAUHINSTANCE__@@PB_W@Z 1001a530 f i SoundRecorder.obj
 0001:00019560       ?LoadNameCache@CComTypeInfoHolder@ATL@@QAEJPAUITypeInfo@@@Z 1001a560 f i SoundRecorder.obj
 0001:000197f0       ?Lock@?$CComCritSecLock@VCComCriticalSection@ATL@@@ATL@@QAEJXZ 1001a7f0 f i SoundRecorder.obj
 0001:000198a0       ?Lock@?$CComObjectRootEx@VCComSingleThreadModel@ATL@@@ATL@@QAEXXZ 1001a8a0 f i SoundRecorder.obj
 0001:000198c0       ?Lock@CAtlModule@ATL@@UAEJXZ 1001a8c0 f i SoundRecorder.obj
 0001:000198f0       ?Lock@CComCriticalSection@ATL@@QAEJXZ 1001a8f0 f i SoundRecorder.obj
 0001:00019930       ?Lock@CComFakeCriticalSection@ATL@@QAEJXZ 1001a930 f i SoundRecorder.obj
 0001:00019950       ?LockServer@CComClassFactory@ATL@@UAGJH@Z 1001a950 f i SoundRecorder.obj
 0001:000199b0       ?Lookup@?$CSimpleMap@PA_WPA_WVCExpansionVectorEqualHelper@ATL@@@ATL@@QBEPA_WABQA_W@Z 1001a9b0 f i SoundRecorder.obj
 0001:00019a00       ?Next@?$CComEnumImpl@UIEnumConnectionPoints@@$1?_GUID_b196b285_bab4_101a_b69c_00aa00341d07@@3U__s_GUID@@BPAUIConnectionPoint@@V?$_CopyInterface@UIConnectionPoint@@@ATL@@@ATL@@UAGJKPAPAUIConnectionPoint@@PAK@Z 1001aa00 f i SoundRecorder.obj
 0001:00019b70       ?Next@?$CComEnumImpl@UIEnumConnections@@$1?_GUID_b196b287_bab4_101a_b69c_00aa00341d07@@3U__s_GUID@@BUtagCONNECTDATA@@V?$_Copy@UtagCONNECTDATA@@@ATL@@@ATL@@UAGJKPAUtagCONNECTDATA@@PAK@Z 1001ab70 f i SoundRecorder.obj
 0001:00019ce0       ?NextToken@CRegParser@ATL@@IAEJPA_W@Z 1001ace0 f i SoundRecorder.obj
 0001:00019f80       ?OLE2CT_EX@@YAPB_WPB_WI@Z  1001af80 f i SoundRecorder.obj
 0001:00019f90       ?OLE2CT_EX_DEF@@YAPB_WPB_W@Z 1001af90 f i SoundRecorder.obj
 0001:00019fa0       ?OLE2T_EX@@YAPA_WPA_WI@Z   1001afa0 f i SoundRecorder.obj
 0001:00019fb0       ?OnAmbientPropertyChange@?$IOleControlImpl@VCOPOSSoundRecorder@@@ATL@@UAGJJ@Z 1001afb0 f i SoundRecorder.obj
 0001:0001a040       ?OnDocWindowActivate@?$IOleInPlaceActiveObjectImpl@VCOPOSSoundRecorder@@@ATL@@UAGJH@Z 1001b040 f i SoundRecorder.obj
 0001:0001a0d0       ?OnDrawAdvanced@CComControlBase@ATL@@UAEJAAUATL_DRAWINFO@@@Z 1001b0d0 f i SoundRecorder.obj
 0001:0001a2f0       ?OnFinalMessage@?$CWindowImplBaseT@VCWindow@ATL@@V?$CWinTraits@$0FGAAAAAA@$0A@@2@@ATL@@UAEXPAUHWND__@@@Z 1001b2f0 f i SoundRecorder.obj
 0001:0001a310       ?OnFrameWindowActivate@?$IOleInPlaceActiveObjectImpl@VCOPOSSoundRecorder@@@ATL@@UAGJH@Z 1001b310 f i SoundRecorder.obj
 0001:0001a370       ?OnKillFocus@CComControlBase@ATL@@QAEJIIJAAH@Z 1001b370 f i SoundRecorder.obj
 0001:0001a470       ?OnMnemonic@?$IOleControlImpl@VCOPOSSoundRecorder@@@ATL@@UAGJPAUtagMSG@@@Z 1001b470 f i SoundRecorder.obj
 0001:0001a4e0       ?OnMouseActivate@CComControlBase@ATL@@QAEJIIJAAH@Z 1001b4e0 f i SoundRecorder.obj
 0001:0001a630       ?OnPaint@CComControlBase@ATL@@QAEJIIJAAH@Z 1001b630 f i SoundRecorder.obj
 0001:0001a7b0       ?OnPostVerbDiscardUndo@?$IOleObjectImpl@VCOPOSSoundRecorder@@@ATL@@QAEJXZ 1001b7b0 f i SoundRecorder.obj
 0001:0001a7d0       ?OnPostVerbHide@?$IOleObjectImpl@VCOPOSSoundRecorder@@@ATL@@QAEJXZ 1001b7d0 f i SoundRecorder.obj
 0001:0001a7f0       ?OnPostVerbInPlaceActivate@?$IOleObjectImpl@VCOPOSSoundRecorder@@@ATL@@QAEJXZ 1001b7f0 f i SoundRecorder.obj
 0001:0001a810       ?OnPostVerbOpen@?$IOleObjectImpl@VCOPOSSoundRecorder@@@ATL@@QAEJXZ 1001b810 f i SoundRecorder.obj
 0001:0001a830       ?OnPostVerbShow@?$IOleObjectImpl@VCOPOSSoundRecorder@@@ATL@@QAEJXZ 1001b830 f i SoundRecorder.obj
 0001:0001a850       ?OnPostVerbUIActivate@?$IOleObjectImpl@VCOPOSSoundRecorder@@@ATL@@QAEJXZ 1001b850 f i SoundRecorder.obj
 0001:0001a870       ?OnPreVerbDiscardUndo@?$IOleObjectImpl@VCOPOSSoundRecorder@@@ATL@@QAEJXZ 1001b870 f i SoundRecorder.obj
 0001:0001a890       ?OnPreVerbHide@?$IOleObjectImpl@VCOPOSSoundRecorder@@@ATL@@QAEJXZ 1001b890 f i SoundRecorder.obj
 0001:0001a8b0       ?OnPreVerbInPlaceActivate@?$IOleObjectImpl@VCOPOSSoundRecorder@@@ATL@@QAEJXZ 1001b8b0 f i SoundRecorder.obj
 0001:0001a8d0       ?OnPreVerbOpen@?$IOleObjectImpl@VCOPOSSoundRecorder@@@ATL@@QAEJXZ 1001b8d0 f i SoundRecorder.obj
 0001:0001a8f0       ?OnPreVerbShow@?$IOleObjectImpl@VCOPOSSoundRecorder@@@ATL@@QAEJXZ 1001b8f0 f i SoundRecorder.obj
 0001:0001a910       ?OnPreVerbUIActivate@?$IOleObjectImpl@VCOPOSSoundRecorder@@@ATL@@QAEJXZ 1001b910 f i SoundRecorder.obj
 0001:0001a930       ?OnSetFocus@CComControlBase@ATL@@QAEJIIJAAH@Z 1001b930 f i SoundRecorder.obj
 0001:0001aac0       ?OnWindowMessage@?$IOleInPlaceObjectWindowlessImpl@VCOPOSSoundRecorder@@@ATL@@UAGJIIJPAJ@Z 1001bac0 f i SoundRecorder.obj
 0001:0001ac20       ?Open@CRegKey@ATL@@QAEJPAUHKEY__@@PB_WK@Z 1001bc20 f i SoundRecorder.obj
 0001:0001ad70       ?OuterAddRef@CComObjectRootBase@ATL@@QAEKXZ 1001bd70 f i SoundRecorder.obj
 0001:0001adb0       ?OuterQueryInterface@CComObjectRootBase@ATL@@QAEJABU_GUID@@PAPAX@Z 1001bdb0 f i SoundRecorder.obj
 0001:0001ae00       ?OuterRelease@CComObjectRootBase@ATL@@QAEKXZ 1001be00 f i SoundRecorder.obj
 0001:0001ae40       ?PreProcessBuffer@CRegParser@ATL@@QAEJPA_WPAPA_W@Z 1001be40 f i SoundRecorder.obj
 0001:0001b380       ?PreTranslateAccelerator@CComControlBase@ATL@@QAEHPAUtagMSG@@AAJ@Z 1001c380 f i SoundRecorder.obj
 0001:0001b3a0       ?ProcessWindowMessage@?$CComControl@VCOPOSSoundRecorder@@V?$CWindowImpl@VCOPOSSoundRecorder@@VCWindow@ATL@@V?$CWinTraits@$0FGAAAAAA@$0A@@3@@ATL@@@ATL@@UAEHPAUHWND__@@IIJAAJK@Z 1001c3a0 f i SoundRecorder.obj
 0001:0001b570       ?ProcessWindowMessage@COPOSSoundRecorder@@UAEHPAUHWND__@@IIJAAJK@Z 1001c570 f i SoundRecorder.obj
 0001:0001b670       ?PutProperty@?$CComPtr@UIDispatch@@@ATL@@QAEJJPAUtagVARIANT@@@Z 1001c670 f i SoundRecorder.obj
 0001:0001b6b0       ?PutProperty@?$CComPtr@UIDispatch@@@ATL@@SAJPAUIDispatch@@JPAUtagVARIANT@@@Z 1001c6b0 f i SoundRecorder.obj
 0001:0001b8a0       ?QueryGetData@?$IDataObjectImpl@VCOPOSSoundRecorder@@@ATL@@UAGJPAUtagFORMATETC@@@Z 1001c8a0 f i SoundRecorder.obj
 0001:0001b910       ?QueryHitPoint@?$IViewObjectExImpl@VCOPOSSoundRecorder@@@ATL@@UAGJKPBUtagRECT@@UtagPOINT@@JPAK@Z 1001c910 f i SoundRecorder.obj
 0001:0001ba20       ?QueryHitRect@?$IViewObjectExImpl@VCOPOSSoundRecorder@@@ATL@@UAGJKPBUtagRECT@@0JPAK@Z 1001ca20 f i SoundRecorder.obj
 0001:0001bb70       ?QueryInterface@?$CComAggObject@VCOPOSSoundRecorder@@@ATL@@UAGJABU_GUID@@PAPAX@Z 1001cb70 f i SoundRecorder.obj
 0001:0001bc20       ?QueryInterface@?$CComContainedObject@VCOPOSSoundRecorder@@@ATL@@UAGJABU_GUID@@PAPAX@Z 1001cc20 f i SoundRecorder.obj
 0001:0001bc44       ?QueryInterface@?$CComContainedObject@VCOPOSSoundRecorder@@@ATL@@WHA@AGJABU_GUID@@PAPAX@Z 1001cc44 f i SoundRecorder.obj
 0001:0001bc4e       ?QueryInterface@?$CComContainedObject@VCOPOSSoundRecorder@@@ATL@@WHE@AGJABU_GUID@@PAPAX@Z 1001cc4e f i SoundRecorder.obj
 0001:0001bc58       ?QueryInterface@?$CComContainedObject@VCOPOSSoundRecorder@@@ATL@@WHI@AGJABU_GUID@@PAPAX@Z 1001cc58 f i SoundRecorder.obj
 0001:0001bc62       ?QueryInterface@?$CComContainedObject@VCOPOSSoundRecorder@@@ATL@@WHM@AGJABU_GUID@@PAPAX@Z 1001cc62 f i SoundRecorder.obj
 0001:0001bc6c       ?QueryInterface@?$CComContainedObject@VCOPOSSoundRecorder@@@ATL@@WIA@AGJABU_GUID@@PAPAX@Z 1001cc6c f i SoundRecorder.obj
 0001:0001bc79       ?QueryInterface@?$CComContainedObject@VCOPOSSoundRecorder@@@ATL@@WIE@AGJABU_GUID@@PAPAX@Z 1001cc79 f i SoundRecorder.obj
 0001:0001bc86       ?QueryInterface@?$CComContainedObject@VCOPOSSoundRecorder@@@ATL@@WII@AGJABU_GUID@@PAPAX@Z 1001cc86 f i SoundRecorder.obj
 0001:0001bc93       ?QueryInterface@?$CComContainedObject@VCOPOSSoundRecorder@@@ATL@@WIM@AGJABU_GUID@@PAPAX@Z 1001cc93 f i SoundRecorder.obj
 0001:0001bca0       ?QueryInterface@?$CComContainedObject@VCOPOSSoundRecorder@@@ATL@@WJA@AGJABU_GUID@@PAPAX@Z 1001cca0 f i SoundRecorder.obj
 0001:0001bcad       ?QueryInterface@?$CComContainedObject@VCOPOSSoundRecorder@@@ATL@@WJE@AGJABU_GUID@@PAPAX@Z 1001ccad f i SoundRecorder.obj
 0001:0001bcba       ?QueryInterface@?$CComContainedObject@VCOPOSSoundRecorder@@@ATL@@WJI@AGJABU_GUID@@PAPAX@Z 1001ccba f i SoundRecorder.obj
 0001:0001bcc7       ?QueryInterface@?$CComContainedObject@VCOPOSSoundRecorder@@@ATL@@WJM@AGJABU_GUID@@PAPAX@Z 1001ccc7 f i SoundRecorder.obj
 0001:0001bcd4       ?QueryInterface@?$CComContainedObject@VCOPOSSoundRecorder@@@ATL@@WKA@AGJABU_GUID@@PAPAX@Z 1001ccd4 f i SoundRecorder.obj
 0001:0001bcf0       ?QueryInterface@?$CComObject@V?$CComEnum@UIEnumConnectionPoints@@$1?_GUID_b196b285_bab4_101a_b69c_00aa00341d07@@3U__s_GUID@@BPAUIConnectionPoint@@V?$_CopyInterface@UIConnectionPoint@@@ATL@@VCComSingleThreadModel@6@@ATL@@@ATL@@UAGJABU_GUID@@PAPAX@Z 1001ccf0 f i SoundRecorder.obj
 0001:0001bd10       ?QueryInterface@?$CComObject@V?$CComEnum@UIEnumConnections@@$1?_GUID_b196b287_bab4_101a_b69c_00aa00341d07@@3U__s_GUID@@BUtagCONNECTDATA@@V?$_Copy@UtagCONNECTDATA@@@ATL@@VCComSingleThreadModel@6@@ATL@@@ATL@@UAGJABU_GUID@@PAPAX@Z 1001cd10 f i SoundRecorder.obj
 0001:0001bd30       ?QueryInterface@?$CComObject@VCOPOSSoundRecorder@@@ATL@@UAGJABU_GUID@@PAPAX@Z 1001cd30 f i SoundRecorder.obj
 0001:0001bd4e       ?QueryInterface@?$CComObject@VCOPOSSoundRecorder@@@ATL@@WHA@AGJABU_GUID@@PAPAX@Z 1001cd4e f i SoundRecorder.obj
 0001:0001bd58       ?QueryInterface@?$CComObject@VCOPOSSoundRecorder@@@ATL@@WHE@AGJABU_GUID@@PAPAX@Z 1001cd58 f i SoundRecorder.obj
 0001:0001bd62       ?QueryInterface@?$CComObject@VCOPOSSoundRecorder@@@ATL@@WHI@AGJABU_GUID@@PAPAX@Z 1001cd62 f i SoundRecorder.obj
 0001:0001bd6c       ?QueryInterface@?$CComObject@VCOPOSSoundRecorder@@@ATL@@WHM@AGJABU_GUID@@PAPAX@Z 1001cd6c f i SoundRecorder.obj
 0001:0001bd76       ?QueryInterface@?$CComObject@VCOPOSSoundRecorder@@@ATL@@WIA@AGJABU_GUID@@PAPAX@Z 1001cd76 f i SoundRecorder.obj
 0001:0001bd83       ?QueryInterface@?$CComObject@VCOPOSSoundRecorder@@@ATL@@WIE@AGJABU_GUID@@PAPAX@Z 1001cd83 f i SoundRecorder.obj
 0001:0001bd90       ?QueryInterface@?$CComObject@VCOPOSSoundRecorder@@@ATL@@WII@AGJABU_GUID@@PAPAX@Z 1001cd90 f i SoundRecorder.obj
 0001:0001bd9d       ?QueryInterface@?$CComObject@VCOPOSSoundRecorder@@@ATL@@WIM@AGJABU_GUID@@PAPAX@Z 1001cd9d f i SoundRecorder.obj
 0001:0001bdaa       ?QueryInterface@?$CComObject@VCOPOSSoundRecorder@@@ATL@@WJA@AGJABU_GUID@@PAPAX@Z 1001cdaa f i SoundRecorder.obj
 0001:0001bdb7       ?QueryInterface@?$CComObject@VCOPOSSoundRecorder@@@ATL@@WJE@AGJABU_GUID@@PAPAX@Z 1001cdb7 f i SoundRecorder.obj
 0001:0001bdc4       ?QueryInterface@?$CComObject@VCOPOSSoundRecorder@@@ATL@@WJI@AGJABU_GUID@@PAPAX@Z 1001cdc4 f i SoundRecorder.obj
 0001:0001bdd1       ?QueryInterface@?$CComObject@VCOPOSSoundRecorder@@@ATL@@WJM@AGJABU_GUID@@PAPAX@Z 1001cdd1 f i SoundRecorder.obj
 0001:0001bdde       ?QueryInterface@?$CComObject@VCOPOSSoundRecorder@@@ATL@@WKA@AGJABU_GUID@@PAPAX@Z 1001cdde f i SoundRecorder.obj
 0001:0001bdf0       ?QueryInterface@?$CComObjectCached@VCComClassFactory@ATL@@@ATL@@UAGJABU_GUID@@PAPAX@Z 1001cdf0 f i SoundRecorder.obj
 0001:0001be10       ?QueryInterface@CRegObject@ATL@@UAGJABU_GUID@@PAPAX@Z 1001ce10 f i SoundRecorder.obj
 0001:0001be60       ?QuickActivate@?$IQuickActivateImpl@VCOPOSSoundRecorder@@@ATL@@UAGJPAUtagQACONTAINER@@PAUtagQACONTROL@@@Z 1001ce60 f i SoundRecorder.obj
 0001:0001bef0       ?ReactivateAndUndo@?$IOleInPlaceObjectWindowlessImpl@VCOPOSSoundRecorder@@@ATL@@UAGJXZ 1001cef0 f i SoundRecorder.obj
 0001:0001bf60       ?ReadFromStream@CComBSTR@ATL@@QAEJPAUIStream@@@Z 1001cf60 f i SoundRecorder.obj
 0001:0001c360       ?ReadFromStream@CComVariant@ATL@@QAEJPAUIStream@@GTClassesAllowedInStream@2@K@Z 1001d360 f i SoundRecorder.obj
 0001:0001c6c0       ?RecurseDeleteKey@CRegKey@ATL@@QAEJPB_W@Z 1001d6c0 f i SoundRecorder.obj
 0001:0001c8a0       ?RegCreateKeyExW@CAtlTransactionManager@ATL@@QAEJPAUHKEY__@@PB_WKPA_WKKQAU_SECURITY_ATTRIBUTES@@PAPAU3@PAK@Z 1001d8a0 f i SoundRecorder.obj
 0001:0001c9d0       ?RegDeleteKeyW@CAtlTransactionManager@ATL@@QAEJPAUHKEY__@@PB_W@Z 1001d9d0 f i SoundRecorder.obj
 0001:0001cad0       ?RegOpenKeyExW@CAtlTransactionManager@ATL@@QAEJPAUHKEY__@@PB_WKKPAPAU3@@Z 1001dad0 f i SoundRecorder.obj
 0001:0001cbe0       ?Register@_ATL_WNDCLASSINFOW@ATL@@QAEGPAP6GJPAUHWND__@@IIJ@Z@Z 1001dbe0 f i SoundRecorder.obj
 0001:0001cc20       ?RegisterBuffer@CRegParser@ATL@@QAEJPA_WH@Z 1001dc20 f i SoundRecorder.obj
 0001:0001cf50       ?RegisterClassExW@AtlModuleRegisterWndClassInfoParamW@ATL@@SAGPAU_ATL_WIN_MODULE70@2@PBUtagWNDCLASSEXW@@@Z 1001df50 f i SoundRecorder.obj
 0001:0001cf70       ?RegisterFromResource@CRegObject@ATL@@IAEJPB_W00H@Z 1001df70 f i SoundRecorder.obj
 0001:0001d300       ?RegisterServer@?$CAtlModuleT@VCComModule@ATL@@@ATL@@QAEJHPBU_GUID@@@Z 1001e300 f i SoundRecorder.obj
 0001:0001d380       ?RegisterServer@CAtlComModule@ATL@@QAEJHPBU_GUID@@@Z 1001e380 f i SoundRecorder.obj
 0001:0001d3b0       ?RegisterServer@CComModule@ATL@@QAEJHPBU_GUID@@@Z 1001e3b0 f i SoundRecorder.obj
 0001:0001d490       ?RegisterSubkeys@CRegParser@ATL@@IAEJPA_WPAUHKEY__@@HH@Z 1001e490 f i SoundRecorder.obj
 0001:0001dfb0       ?Release@?$CComAggObject@VCOPOSSoundRecorder@@@ATL@@UAGKXZ 1001efb0 f i SoundRecorder.obj
 0001:0001e070       ?Release@?$CComContainedObject@VCOPOSSoundRecorder@@@ATL@@UAGKXZ 1001f070 f i SoundRecorder.obj
 0001:0001e08c       ?Release@?$CComContainedObject@VCOPOSSoundRecorder@@@ATL@@WHA@AGKXZ 1001f08c f i SoundRecorder.obj
 0001:0001e096       ?Release@?$CComContainedObject@VCOPOSSoundRecorder@@@ATL@@WHE@AGKXZ 1001f096 f i SoundRecorder.obj
 0001:0001e0a0       ?Release@?$CComContainedObject@VCOPOSSoundRecorder@@@ATL@@WHI@AGKXZ 1001f0a0 f i SoundRecorder.obj
 0001:0001e0aa       ?Release@?$CComContainedObject@VCOPOSSoundRecorder@@@ATL@@WHM@AGKXZ 1001f0aa f i SoundRecorder.obj
 0001:0001e0b4       ?Release@?$CComContainedObject@VCOPOSSoundRecorder@@@ATL@@WIA@AGKXZ 1001f0b4 f i SoundRecorder.obj
 0001:0001e0c1       ?Release@?$CComContainedObject@VCOPOSSoundRecorder@@@ATL@@WIE@AGKXZ 1001f0c1 f i SoundRecorder.obj
 0001:0001e0ce       ?Release@?$CComContainedObject@VCOPOSSoundRecorder@@@ATL@@WII@AGKXZ 1001f0ce f i SoundRecorder.obj
 0001:0001e0db       ?Release@?$CComContainedObject@VCOPOSSoundRecorder@@@ATL@@WIM@AGKXZ 1001f0db f i SoundRecorder.obj
 0001:0001e0e8       ?Release@?$CComContainedObject@VCOPOSSoundRecorder@@@ATL@@WJA@AGKXZ 1001f0e8 f i SoundRecorder.obj
 0001:0001e0f5       ?Release@?$CComContainedObject@VCOPOSSoundRecorder@@@ATL@@WJE@AGKXZ 1001f0f5 f i SoundRecorder.obj
 0001:0001e102       ?Release@?$CComContainedObject@VCOPOSSoundRecorder@@@ATL@@WJI@AGKXZ 1001f102 f i SoundRecorder.obj
 0001:0001e10f       ?Release@?$CComContainedObject@VCOPOSSoundRecorder@@@ATL@@WJM@AGKXZ 1001f10f f i SoundRecorder.obj
 0001:0001e11c       ?Release@?$CComContainedObject@VCOPOSSoundRecorder@@@ATL@@WKA@AGKXZ 1001f11c f i SoundRecorder.obj
 0001:0001e129       ?Release@?$CComContainedObject@VCOPOSSoundRecorder@@@ATL@@WKI@AGKXZ 1001f129 f i SoundRecorder.obj
 0001:0001e136       ?Release@?$CComContainedObject@VCOPOSSoundRecorder@@@ATL@@WLE@AGKXZ 1001f136 f i SoundRecorder.obj
 0001:0001e150       ?Release@?$CComObject@V?$CComEnum@UIEnumConnectionPoints@@$1?_GUID_b196b285_bab4_101a_b69c_00aa00341d07@@3U__s_GUID@@BPAUIConnectionPoint@@V?$_CopyInterface@UIConnectionPoint@@@ATL@@VCComSingleThreadModel@6@@ATL@@@ATL@@UAGKXZ 1001f150 f i SoundRecorder.obj
 0001:0001e210       ?Release@?$CComObject@V?$CComEnum@UIEnumConnections@@$1?_GUID_b196b287_bab4_101a_b69c_00aa00341d07@@3U__s_GUID@@BUtagCONNECTDATA@@V?$_Copy@UtagCONNECTDATA@@@ATL@@VCComSingleThreadModel@6@@ATL@@@ATL@@UAGKXZ 1001f210 f i SoundRecorder.obj
 0001:0001e2d0       ?Release@?$CComObject@VCOPOSSoundRecorder@@@ATL@@UAGKXZ 1001f2d0 f i SoundRecorder.obj
 0001:0001e389       ?Release@?$CComObject@VCOPOSSoundRecorder@@@ATL@@WHA@AGKXZ 1001f389 f i SoundRecorder.obj
 0001:0001e393       ?Release@?$CComObject@VCOPOSSoundRecorder@@@ATL@@WHE@AGKXZ 1001f393 f i SoundRecorder.obj
 0001:0001e39d       ?Release@?$CComObject@VCOPOSSoundRecorder@@@ATL@@WHI@AGKXZ 1001f39d f i SoundRecorder.obj
 0001:0001e3a7       ?Release@?$CComObject@VCOPOSSoundRecorder@@@ATL@@WHM@AGKXZ 1001f3a7 f i SoundRecorder.obj
 0001:0001e3b1       ?Release@?$CComObject@VCOPOSSoundRecorder@@@ATL@@WIA@AGKXZ 1001f3b1 f i SoundRecorder.obj
 0001:0001e3be       ?Release@?$CComObject@VCOPOSSoundRecorder@@@ATL@@WIE@AGKXZ 1001f3be f i SoundRecorder.obj
 0001:0001e3cb       ?Release@?$CComObject@VCOPOSSoundRecorder@@@ATL@@WII@AGKXZ 1001f3cb f i SoundRecorder.obj
 0001:0001e3d8       ?Release@?$CComObject@VCOPOSSoundRecorder@@@ATL@@WIM@AGKXZ 1001f3d8 f i SoundRecorder.obj
 0001:0001e3e5       ?Release@?$CComObject@VCOPOSSoundRecorder@@@ATL@@WJA@AGKXZ 1001f3e5 f i SoundRecorder.obj
 0001:0001e3f2       ?Release@?$CComObject@VCOPOSSoundRecorder@@@ATL@@WJE@AGKXZ 1001f3f2 f i SoundRecorder.obj
 0001:0001e3ff       ?Release@?$CComObject@VCOPOSSoundRecorder@@@ATL@@WJI@AGKXZ 1001f3ff f i SoundRecorder.obj
 0001:0001e40c       ?Release@?$CComObject@VCOPOSSoundRecorder@@@ATL@@WJM@AGKXZ 1001f40c f i SoundRecorder.obj
 0001:0001e419       ?Release@?$CComObject@VCOPOSSoundRecorder@@@ATL@@WKA@AGKXZ 1001f419 f i SoundRecorder.obj
 0001:0001e426       ?Release@?$CComObject@VCOPOSSoundRecorder@@@ATL@@WKI@AGKXZ 1001f426 f i SoundRecorder.obj
 0001:0001e433       ?Release@?$CComObject@VCOPOSSoundRecorder@@@ATL@@WLE@AGKXZ 1001f433 f i SoundRecorder.obj
 0001:0001e440       ?Release@?$CComObjectCached@VCComClassFactory@ATL@@@ATL@@UAGKXZ 1001f440 f i SoundRecorder.obj
 0001:0001e4e0       ?Release@?$CComPtrBase@UIAdviseSink@@@ATL@@QAEXXZ 1001f4e0 f i SoundRecorder.obj
 0001:0001e540       ?Release@?$CComPtrBase@UIDispatch@@@ATL@@QAEXXZ 1001f540 f i SoundRecorder.obj
 0001:0001e5a0       ?Release@?$CComPtrBase@UIOleInPlaceSiteWindowless@@@ATL@@QAEXXZ 1001f5a0 f i SoundRecorder.obj
 0001:0001e600       ?Release@CRegObject@ATL@@UAGKXZ 1001f600 f i SoundRecorder.obj
 0001:0001e640       ?Remove@CComDynamicUnkArray@ATL@@QAEHK@Z 1001f640 f i SoundRecorder.obj
 0001:0001e6f0       ?RemoveAll@?$CSimpleMap@PA_WPA_WVCExpansionVectorEqualHelper@ATL@@@ATL@@QAEXXZ 1001f6f0 f i SoundRecorder.obj
 0001:0001e780       ?Reset@?$CComEnumImpl@UIEnumConnectionPoints@@$1?_GUID_b196b285_bab4_101a_b69c_00aa00341d07@@3U__s_GUID@@BPAUIConnectionPoint@@V?$_CopyInterface@UIConnectionPoint@@@ATL@@@ATL@@UAGJXZ 1001f780 f i SoundRecorder.obj
 0001:0001e7a0       ?Reset@?$CComEnumImpl@UIEnumConnections@@$1?_GUID_b196b287_bab4_101a_b69c_00aa00341d07@@3U__s_GUID@@BUtagCONNECTDATA@@V?$_Copy@UtagCONNECTDATA@@@ATL@@@ATL@@UAGJXZ 1001f7a0 f i SoundRecorder.obj
 0001:0001e7c0       ?ResizeBorder@?$IOleInPlaceActiveObjectImpl@VCOPOSSoundRecorder@@@ATL@@UAGJPBUtagRECT@@PAUIOleInPlaceUIWindow@@H@Z 1001f7c0 f i SoundRecorder.obj
 0001:0001e820       ?ResourceRegister@CRegObject@ATL@@QAGJPB_WI0@Z 1001f820 f i SoundRecorder.obj
 0001:0001e900       ?ResourceRegisterSz@CRegObject@ATL@@QAGJPB_W00@Z 1001f900 f i SoundRecorder.obj
 0001:0001ea00       ?ResourceUnregister@CRegObject@ATL@@QAGJPB_WI0@Z 1001fa00 f i SoundRecorder.obj
 0001:0001eae0       ?ResourceUnregisterSz@CRegObject@ATL@@QAGJPB_W00@Z 1001fae0 f i SoundRecorder.obj
 0001:0001ebe0       ?SOData@COPOSSoundRecorder@@MAGJJ@Z 1001fbe0 f i SoundRecorder.obj
 0001:0001ec60       ?SODirectIO@COPOSSoundRecorder@@MAGJJPAJPAPA_W@Z 1001fc60 f i SoundRecorder.obj
 0001:0001ee20       ?SOError@COPOSSoundRecorder@@MAGJJJJPAJ@Z 1001fe20 f i SoundRecorder.obj
 0001:0001eee0       ?SOOutputCompleteDummy@COPOSSoundRecorder@@MAGJJ@Z 1001fee0 f i SoundRecorder.obj
 0001:0001eef0       ?SOStatusUpdate@COPOSSoundRecorder@@MAGJJ@Z 1001fef0 f i SoundRecorder.obj
 0001:0001ef70       ?Save@?$IPersistStorageImpl@VCOPOSSoundRecorder@@@ATL@@UAGJPAUIStorage@@H@Z 1001ff70 f i SoundRecorder.obj
 0001:0001f0d0       ?Save@?$IPersistStreamInitImpl@VCOPOSSoundRecorder@@@ATL@@UAGJPAUIStream@@H@Z 100200d0 f i SoundRecorder.obj
 0001:0001f160       ?SaveCompleted@?$IPersistStorageImpl@VCOPOSSoundRecorder@@@ATL@@UAGJPAUIStorage@@@Z 10020160 f i SoundRecorder.obj
 0001:0001f1c0       ?SendOnDataChange@CComControlBase@ATL@@QAEJK@Z 100201c0 f i SoundRecorder.obj
 0001:0001f2b0       ?SendOnSave@CComControlBase@ATL@@QAEJXZ 100202b0 f i SoundRecorder.obj
 0001:0001f320       ?SendOnViewChange@CComControlBase@ATL@@QAEJKJ@Z 10020320 f i SoundRecorder.obj
 0001:0001f390       ?SetAdvise@?$IViewObjectExImpl@VCOPOSSoundRecorder@@@ATL@@UAGJKKPAUIAdviseSink@@@Z 10020390 f i SoundRecorder.obj
 0001:0001f420       ?SetClientSite@?$IOleObjectImpl@VCOPOSSoundRecorder@@@ATL@@UAGJPAUIOleClientSite@@@Z 10020420 f i SoundRecorder.obj
 0001:0001f4b0       ?SetColorScheme@?$IOleObjectImpl@VCOPOSSoundRecorder@@@ATL@@UAGJPAUtagLOGPALETTE@@@Z 100204b0 f i SoundRecorder.obj
 0001:0001f520       ?SetContentExtent@?$IQuickActivateImpl@VCOPOSSoundRecorder@@@ATL@@UAGJPAUtagSIZE@@@Z 10020520 f i SoundRecorder.obj
 0001:0001f5b0       ?SetControlFocus@CComControlBase@ATL@@QAEHH@Z 100205b0 f i SoundRecorder.obj
 0001:0001f730       ?SetDWORDValue@CRegKey@ATL@@QAEJPB_WK@Z 10020730 f i SoundRecorder.obj
 0001:0001f7b0       ?SetData@?$IDataObjectImpl@VCOPOSSoundRecorder@@@ATL@@UAGJPAUtagFORMATETC@@PAUtagSTGMEDIUM@@H@Z 100207b0 f i SoundRecorder.obj
 0001:0001f820       ?SetExtent@?$IOleObjectImpl@VCOPOSSoundRecorder@@@ATL@@UAGJKPAUtagSIZE@@@Z 10020820 f i SoundRecorder.obj
 0001:0001f8b0       ?SetHostNames@?$IOleObjectImpl@VCOPOSSoundRecorder@@@ATL@@UAGJPB_W0@Z 100208b0 f i SoundRecorder.obj
 0001:0001f910       ?SetInterfaceSafetyOptions@?$IObjectSafetyImpl@VCOPOSSoundRecorder@@$02@ATL@@UAGJABU_GUID@@KK@Z 10020910 f i SoundRecorder.obj
 0001:0001fa80       ?SetMoniker@?$IOleObjectImpl@VCOPOSSoundRecorder@@@ATL@@UAGJKPAUIMoniker@@@Z 10020a80 f i SoundRecorder.obj
 0001:0001faf0       ?SetMultiStringValue@CRegKey@ATL@@QAEJPB_W0@Z 10020af0 f i SoundRecorder.obj
 0001:0001fc10       ?SetObjectRects@?$IOleInPlaceObjectWindowlessImpl@VCOPOSSoundRecorder@@@ATL@@UAGJPBUtagRECT@@0@Z 10020c10 f i SoundRecorder.obj
 0001:0001fca0       ?SetStringValue@CRegKey@ATL@@QAEJPB_W0K@Z 10020ca0 f i SoundRecorder.obj
 0001:0001fdd0       ?SetVoid@CComClassFactory@ATL@@QAEXPAX@Z 10020dd0 f i SoundRecorder.obj
 0001:0001fdf0       ?SetVoid@CComObjectRootBase@ATL@@QAEXPAX@Z 10020df0 f i SoundRecorder.obj
 0001:0001fe10       ?SetWindowLongPtrW@@YAJPAUHWND__@@HJ@Z 10020e10 f i SoundRecorder.obj
 0001:0001fe40       ?ShowWindow@CWindow@ATL@@QAEHH@Z 10020e40 f i SoundRecorder.obj
 0001:0001fec0       ?Skip@?$CComEnumImpl@UIEnumConnectionPoints@@$1?_GUID_b196b285_bab4_101a_b69c_00aa00341d07@@3U__s_GUID@@BPAUIConnectionPoint@@V?$_CopyInterface@UIConnectionPoint@@@ATL@@@ATL@@UAGJK@Z 10020ec0 f i SoundRecorder.obj
 0001:0001ff40       ?Skip@?$CComEnumImpl@UIEnumConnections@@$1?_GUID_b196b287_bab4_101a_b69c_00aa00341d07@@3U__s_GUID@@BUtagCONNECTDATA@@V?$_Copy@UtagCONNECTDATA@@@ATL@@@ATL@@UAGJK@Z 10020f40 f i SoundRecorder.obj
 0001:0001ffc0       ?SkipAssignment@CRegParser@ATL@@IAEJPA_W@Z 10020fc0 f i SoundRecorder.obj
 0001:000200a0       ?SkipWhiteSpace@CRegParser@ATL@@IAEXXZ 100210a0 f i SoundRecorder.obj
 0001:000200f0       ?StartWindowProc@?$CWindowImplBaseT@VCWindow@ATL@@V?$CWinTraits@$0FGAAAAAA@$0A@@2@@ATL@@SGJPAUHWND__@@IIJ@Z 100210f0 f i SoundRecorder.obj
 0001:00020210       ?StrChrW@CRegParser@ATL@@KAPA_WPA_W_W@Z 10021210 f i SoundRecorder.obj
 0001:00020280       ?StrFromMap@CRegObject@ATL@@QAEPB_WPA_W@Z 10021280 f i SoundRecorder.obj
 0001:00020310       ?Swap@?$CComPtrBase@UIAdviseSink@@@ATL@@IAEXAAV12@@Z 10021310 f i SoundRecorder.obj
 0001:00020350       ?Swap@?$CComPtrBase@UIOleClientSite@@@ATL@@IAEXAAV12@@Z 10021350 f i SoundRecorder.obj
 0001:00020390       ?Swap@?$CComPtrBase@UIUnknown@@@ATL@@IAEXAAV12@@Z 10021390 f i SoundRecorder.obj
 0001:000203d0       ?T2COLE_EX@@YAPB_WPB_WI@Z  100213d0 f i SoundRecorder.obj
 0001:000203e0       ?T2OLE_EX@@YAPA_WPA_WI@Z   100213e0 f i SoundRecorder.obj
 0001:000203f0       ?Term@CAtlModule@ATL@@QAEXXZ 100213f0 f i SoundRecorder.obj
 0001:000204a0       ?Term@CComModule@ATL@@QAEXXZ 100214a0 f i SoundRecorder.obj
 0001:00020590       ?TranslateAcceleratorW@?$IOleInPlaceActiveObjectImpl@VCOPOSSoundRecorder@@@ATL@@UAGJPAUtagMSG@@@Z 10021590 f i SoundRecorder.obj
 0001:00020790       ?UIDeactivate@?$IOleInPlaceObjectWindowlessImpl@VCOPOSSoundRecorder@@@ATL@@UAGJXZ 10021790 f i SoundRecorder.obj
 0001:00020810       ?Unadvise@?$CProxy_IOPOSEvents@VCOPOSSoundRecorder@@@@UAGJK@Z 10021810 f i SoundRecorder.obj
 0001:00020850       ?Unadvise@?$IConnectionPointImpl@VCOPOSSoundRecorder@@$1?DIID__IOPOSSoundRecorderEvents@@3U_GUID@@BVCComDynamicUnkArray@ATL@@@ATL@@UAGJK@Z 10021850 f i SoundRecorder.obj
 0001:00020920       ?Unadvise@?$IConnectionPointImpl@VCOPOSSoundRecorder@@$1?IID_IPropertyNotifySink@@3U_GUID@@BVCComDynamicUnkArray@ATL@@@ATL@@UAGJK@Z 10021920 f i SoundRecorder.obj
 0001:000209f0       ?Unadvise@?$IOleObjectImpl@VCOPOSSoundRecorder@@@ATL@@UAGJK@Z 100219f0 f i SoundRecorder.obj
 0001:00020ac0       ?Unfreeze@?$IViewObjectExImpl@VCOPOSSoundRecorder@@@ATL@@UAGJK@Z 10021ac0 f i SoundRecorder.obj
 0001:00020b30       ?Unlock@?$CComCritSecLock@VCComCriticalSection@ATL@@@ATL@@QAEXXZ 10021b30 f i SoundRecorder.obj
 0001:00020ba0       ?Unlock@?$CComObjectRootEx@VCComSingleThreadModel@ATL@@@ATL@@QAEXXZ 10021ba0 f i SoundRecorder.obj
 0001:00020bc0       ?Unlock@CAtlModule@ATL@@UAEJXZ 10021bc0 f i SoundRecorder.obj
 0001:00020bf0       ?Unlock@CComCriticalSection@ATL@@QAEJXZ 10021bf0 f i SoundRecorder.obj
 0001:00020c30       ?Unlock@CComFakeCriticalSection@ATL@@QAEJXZ 10021c30 f i SoundRecorder.obj
 0001:00020c50       ?UnregisterServer@?$CAtlModuleT@VCComModule@ATL@@@ATL@@QAEJHPBU_GUID@@@Z 10021c50 f i SoundRecorder.obj
 0001:00020cc0       ?UnregisterServer@CAtlComModule@ATL@@QAEJHPBU_GUID@@@Z 10021cc0 f i SoundRecorder.obj
 0001:00020cf0       ?UnregisterServer@CComModule@ATL@@QAEJHPBU_GUID@@@Z 10021cf0 f i SoundRecorder.obj
 0001:00020dd0       ?Update@?$IOleObjectImpl@VCOPOSSoundRecorder@@@ATL@@UAGJXZ 10021dd0 f i SoundRecorder.obj
 0001:00020e30       ?UpdateRegistryFromResource@CAtlModule@ATL@@QAGJIHPAU_ATL_REGMAP_ENTRY@2@@Z 10021e30 f i SoundRecorder.obj
 0001:00021300       ?UpdateRegistryFromResource@CAtlModule@ATL@@QAGJPB_WHPAU_ATL_REGMAP_ENTRY@2@@Z 10022300 f i SoundRecorder.obj
 0001:000217f0       ?UpdateRegistryFromResource@CComModule@ATL@@UAGJIHPAU_ATL_REGMAP_ENTRY@2@@Z 100227f0 f i SoundRecorder.obj
 0001:00021820       ?UpdateRegistryFromResource@CComModule@ATL@@UAGJPB_WHPAU_ATL_REGMAP_ENTRY@2@@Z 10022820 f i SoundRecorder.obj
 0001:00021850       ?UpdateRegistryFromResourceD@CComModule@ATL@@UAGJIHPAU_ATL_REGMAP_ENTRY@2@@Z 10022850 f i SoundRecorder.obj
 0001:00021860       ?UpdateRegistryFromResourceD@CComModule@ATL@@UAGJPB_WHPAU_ATL_REGMAP_ENTRY@2@@Z 10022860 f i SoundRecorder.obj
 0001:00021870       ?VTFromRegType@CRegParser@ATL@@KAHPB_WAAG@Z 10022870 f i SoundRecorder.obj
 0001:00021950       ?WindowProc@?$CWindowImplBaseT@VCWindow@ATL@@V?$CWinTraits@$0FGAAAAAA@$0A@@2@@ATL@@SGJPAUHWND__@@IIJ@Z 10022950 f i SoundRecorder.obj
 0001:00021b60       ?WriteToStream@CComBSTR@ATL@@QAEJPAUIStream@@@Z 10022b60 f i SoundRecorder.obj
 0001:00021cc0       ?WriteToStream@CComVariant@ATL@@QAEJPAUIStream@@@Z 10022cc0 f i SoundRecorder.obj
 0001:00022000       ?WriteToStream@CComVariant@ATL@@QAEJPAUIStream@@G@Z 10023000 f i SoundRecorder.obj
 0001:000220d0       ?_AtlFinalConstruct@CComObjectRootBase@ATL@@QAEJXZ 100230d0 f i SoundRecorder.obj
 0001:000220f0       ?_AtlGetConversionACP@ATL@@YGIXZ 100230f0 f i SoundRecorder.obj
 0001:00022100       ?_AtlInitialConstruct@?$CComAggObject@VCOPOSSoundRecorder@@@ATL@@QAEJXZ 10023100 f i SoundRecorder.obj
 0001:00022150       ?_AtlInitialConstruct@?$CComObjectRootEx@VCComMultiThreadModel@ATL@@@ATL@@QAEJXZ 10023150 f i SoundRecorder.obj
 0001:00022180       ?_AtlInitialConstruct@?$CComObjectRootEx@VCComSingleThreadModel@ATL@@@ATL@@QAEJXZ 10023180 f i SoundRecorder.obj
 0001:000221a0       ?_AtlVerifyStackAvailable@_ATL_SAFE_ALLOCA_IMPL@ATL@@YA_NK@Z 100231a0 f i SoundRecorder.obj
 0001:00022350       ?_GetEntries@?$CComEnum@UIEnumConnectionPoints@@$1?_GUID_b196b285_bab4_101a_b69c_00aa00341d07@@3U__s_GUID@@BPAUIConnectionPoint@@V?$_CopyInterface@UIConnectionPoint@@@ATL@@VCComSingleThreadModel@6@@ATL@@SGPBU_ATL_INTMAP_ENTRY@2@XZ 10023350 f i SoundRecorder.obj
 0001:00022370       ?_GetEntries@?$CComEnum@UIEnumConnections@@$1?_GUID_b196b287_bab4_101a_b69c_00aa00341d07@@3U__s_GUID@@BUtagCONNECTDATA@@V?$_Copy@UtagCONNECTDATA@@@ATL@@VCComSingleThreadModel@6@@ATL@@SGPBU_ATL_INTMAP_ENTRY@2@XZ 10023370 f i SoundRecorder.obj
 0001:00022390       ?_GetEntries@CComClassFactory@ATL@@SGPBU_ATL_INTMAP_ENTRY@2@XZ 10023390 f i SoundRecorder.obj
 0001:000223b0       ?_GetEntries@COPOSSoundRecorder@@SGPBU_ATL_INTMAP_ENTRY@ATL@@XZ 100233b0 f i SoundRecorder.obj
 0001:000223d0       ?_GetRawUnknown@COPOSSoundRecorder@@QAEPAUIUnknown@@XZ 100233d0 f i SoundRecorder.obj
 0001:00022440       ?_GetViewStatus@COPOSSoundRecorder@@QAEKXZ 10023440 f i SoundRecorder.obj
 0001:00022460       ?_InternalQueryInterface@?$CComEnum@UIEnumConnectionPoints@@$1?_GUID_b196b285_bab4_101a_b69c_00aa00341d07@@3U__s_GUID@@BPAUIConnectionPoint@@V?$_CopyInterface@UIConnectionPoint@@@ATL@@VCComSingleThreadModel@6@@ATL@@QAEJABU_GUID@@PAPAX@Z 10023460 f i SoundRecorder.obj
 0001:000224a0       ?_InternalQueryInterface@?$CComEnum@UIEnumConnections@@$1?_GUID_b196b287_bab4_101a_b69c_00aa00341d07@@3U__s_GUID@@BUtagCONNECTDATA@@V?$_Copy@UtagCONNECTDATA@@@ATL@@VCComSingleThreadModel@6@@ATL@@QAEJABU_GUID@@PAPAX@Z 100234a0 f i SoundRecorder.obj
 0001:000224e0       ?_InternalQueryInterface@CComClassFactory@ATL@@QAEJABU_GUID@@PAPAX@Z 100234e0 f i SoundRecorder.obj
 0001:00022520       ?_InternalQueryInterface@COPOSSoundRecorder@@QAEJABU_GUID@@PAPAX@Z 10023520 f i SoundRecorder.obj
 0001:00022560       ?_LocCPQueryInterface@?$IConnectionPointImpl@VCOPOSSoundRecorder@@$1?DIID__IOPOSSoundRecorderEvents@@3U_GUID@@BVCComDynamicUnkArray@ATL@@@ATL@@UAGJABU_GUID@@PAPAX@Z 10023560 f i SoundRecorder.obj
 0001:00022600       ?_LocCPQueryInterface@?$IConnectionPointImpl@VCOPOSSoundRecorder@@$1?IID_IPropertyNotifySink@@3U_GUID@@BVCComDynamicUnkArray@ATL@@@ATL@@UAGJABU_GUID@@PAPAX@Z 10023600 f i SoundRecorder.obj
 0001:000226a0       ?atlCreate@?$CWindowImpl@VCOPOSSoundRecorder@@VCWindow@ATL@@V?$CWinTraits@$0FGAAAAAA@$0A@@3@@ATL@@QAEPAUHWND__@@PAU3@V_U_RECT@2@PB_WKKV_U_MENUorID@2@PAX@Z 100236a0 f i SoundRecorder.obj
 0001:00022750       ?atlCreate@?$CWindowImplBaseT@VCWindow@ATL@@V?$CWinTraits@$0FGAAAAAA@$0A@@2@@ATL@@QAEPAUHWND__@@PAU3@V_U_RECT@2@PB_WKKV_U_MENUorID@2@GPAX@Z 10023750 f i SoundRecorder.obj
 0001:000228d0       ?atlCreate@CRegKey@ATL@@QAEJPAUHKEY__@@PB_WPA_WKKPAU_SECURITY_ATTRIBUTES@@PAK@Z 100238d0 f i SoundRecorder.obj
 0001:00022a30       ?begin@CComDynamicUnkArray@ATL@@QAEPAPAUIUnknown@@XZ 10023a30 f i SoundRecorder.obj
 0001:00022a50       ?copy@?$_Copy@UtagCONNECTDATA@@@ATL@@SAJPAUtagCONNECTDATA@@PBU3@@Z 10023a50 f i SoundRecorder.obj
 0001:00022b10       ?copy@?$_CopyInterface@UIConnectionPoint@@@ATL@@SAJPAPAUIConnectionPoint@@PBQAU3@@Z 10023b10 f i SoundRecorder.obj
 0001:00022bd0       ?destroy@?$_Copy@UtagCONNECTDATA@@@ATL@@SAXPAUtagCONNECTDATA@@@Z 10023bd0 f i SoundRecorder.obj
 0001:00022c10       ?destroy@?$_CopyInterface@UIConnectionPoint@@@ATL@@SAXPAPAUIConnectionPoint@@@Z 10023c10 f i SoundRecorder.obj
 0001:00022c50       ?end@CComDynamicUnkArray@ATL@@QAEPAPAUIUnknown@@XZ 10023c50 f i SoundRecorder.obj
 0001:00022c70       ?init@?$_Copy@UtagCONNECTDATA@@@ATL@@SAXPAUtagCONNECTDATA@@@Z 10023c70 f i SoundRecorder.obj
 0001:00022c80       ?init@?$_CopyInterface@UIConnectionPoint@@@ATL@@SAXPAPAUIConnectionPoint@@@Z 10023c80 f i SoundRecorder.obj
 0001:00022c90       ?memcpy_s@Checked@ATL@@YAXPAXIPBXI@Z 10023c90 f i SoundRecorder.obj
 0001:00022cc0       ?ocscpy_s@@YA_NPA_WIPB_W@Z 10023cc0 f i SoundRecorder.obj
 0001:00022d20       ?ocslen@@YAHPB_W@Z         10023d20 f i SoundRecorder.obj
 0001:00022d50       ?tcsncpy_s@Checked@ATL@@YAHPA_WIPB_WI@Z 10023d50 f i SoundRecorder.obj
 0001:00022d80       ?wcscat_s@Checked@ATL@@YAXPA_WIPB_W@Z 10023d80 f i SoundRecorder.obj
 0001:00022db0       ?wcscpy_s@Checked@ATL@@YAXPA_WIPB_W@Z 10023db0 f i SoundRecorder.obj
 0001:00022de0       ?wcsncpy_s@Checked@ATL@@YAHPA_WIPB_WI@Z 10023de0 f i SoundRecorder.obj
 0001:00022e10       ?wcsstr@@YAPA_WPA_WPB_W@Z  10023e10 f i SoundRecorder.obj
 0001:00022e30       _InlineIsEqualGUID         10023e30 f i SoundRecorder.obj
 0001:00022ed0       _IsEqualGUID               10023ed0 f i SoundRecorder.obj
 0001:00022f20       ??0COPOSSoundRecorder@@QAE@XZ 10023f20 f   SoundRecorderImpl.obj
 0001:00023030       ?FinalConstruct@COPOSSoundRecorder@@QAEJXZ 10024030 f   SoundRecorderImpl.obj
 0001:00023100       ??1COPOSSoundRecorder@@UAE@XZ 10024100 f   SoundRecorderImpl.obj
 0001:000231e0       ?WriteTrace@COPOSSoundRecorder@@QAAXPB_WZZ 100241e0 f   SoundRecorderImpl.obj
 0001:00023290       ?WriteTraceString@COPOSSoundRecorder@@QAEXPB_WPA_W@Z 10024290 f   SoundRecorderImpl.obj
 0001:00023600       ?WriteTraceString@COPOSSoundRecorder@@QAAXPAXHHHPB_WZZ 10024600 f   SoundRecorderImpl.obj
 0001:00023830       ?WriteTraceError@COPOSSoundRecorder@@QAEXPB_WK@Z 10024830 f   SoundRecorderImpl.obj
 0001:00023920       ?WriteTraceMethods@COPOSSoundRecorder@@QAEXPAJH@Z 10024920 f   SoundRecorderImpl.obj
 0001:00023990       ?GetOposProp@COPOSSoundRecorder@@IAEJPBDJPAJJ@Z 10024990 f   SoundRecorderImpl.obj
 0001:00023c00       ?SetOposProp@COPOSSoundRecorder@@IAEJPBDJJJ@Z 10024c00 f   SoundRecorderImpl.obj
 0001:00023e90       ?GetOposProp@COPOSSoundRecorder@@IAEJPBDJPAFJ@Z 10024e90 f   SoundRecorderImpl.obj
 0001:00023f30       ?SetOposProp@COPOSSoundRecorder@@IAEJPBDJFJ@Z 10024f30 f   SoundRecorderImpl.obj
 0001:00023f90       ?GetOposProp@COPOSSoundRecorder@@IAEJPBDJPAPA_WJ@Z 10024f90 f   SoundRecorderImpl.obj
 0001:00024210       ?SetOposProp@COPOSSoundRecorder@@IAEJPBDJPA_WJ@Z 10025210 f   SoundRecorderImpl.obj
 0001:00024550       ?DoInvoke@COPOSSoundRecorder@@IAEJPBDJPAVOposVariant@@IHPAJ_N@Z 10025550 f   SoundRecorderImpl.obj
 0001:00024e80       ?SetCOFreezeEvents@COPOSSoundRecorder@@IAEXF@Z 10025e80 f   SoundRecorderImpl.obj
 0001:00024fc0       ?FreezeEvents@COPOSSoundRecorder@@MAGJH@Z 10025fc0 f   SoundRecorderImpl.obj
 0001:000250a0       ?OnDraw@COPOSSoundRecorder@@MAEJAAUATL_DRAWINFO@@@Z 100260a0 f   SoundRecorderImpl.obj
 0001:00025240       ?SOProcessID@COPOSSoundRecorder@@UAGJPAJ@Z 10026240 f   SoundRecorderImpl.obj
 0001:00025280       ?get_OpenResult@COPOSSoundRecorder@@UAGJPAJ@Z 10026280 f   SoundRecorderImpl.obj
 0001:000252c0       ?get_AutoDisable@COPOSSoundRecorder@@UAGJPAF@Z 100262c0 f   SoundRecorderImpl.obj
 0001:000252f0       ?put_AutoDisable@COPOSSoundRecorder@@UAGJF@Z 100262f0 f   SoundRecorderImpl.obj
 0001:00025320       ?get_BinaryConversion@COPOSSoundRecorder@@UAGJPAJ@Z 10026320 f   SoundRecorderImpl.obj
 0001:00025350       ?put_BinaryConversion@COPOSSoundRecorder@@UAGJJ@Z 10026350 f   SoundRecorderImpl.obj
 0001:00025380       ?get_CapPowerReporting@COPOSSoundRecorder@@UAGJPAJ@Z 10026380 f   SoundRecorderImpl.obj
 0001:000253b0       ?get_CheckHealthText@COPOSSoundRecorder@@UAGJPAPA_W@Z 100263b0 f   SoundRecorderImpl.obj
 0001:000253e0       ?get_Claimed@COPOSSoundRecorder@@UAGJPAF@Z 100263e0 f   SoundRecorderImpl.obj
 0001:00025410       ?get_DataCount@COPOSSoundRecorder@@UAGJPAJ@Z 10026410 f   SoundRecorderImpl.obj
 0001:00025440       ?get_DataEventEnabled@COPOSSoundRecorder@@UAGJPAF@Z 10026440 f   SoundRecorderImpl.obj
 0001:00025470       ?put_DataEventEnabled@COPOSSoundRecorder@@UAGJF@Z 10026470 f   SoundRecorderImpl.obj
 0001:000254a0       ?get_DeviceEnabled@COPOSSoundRecorder@@UAGJPAF@Z 100264a0 f   SoundRecorderImpl.obj
 0001:000254d0       ?put_DeviceEnabled@COPOSSoundRecorder@@UAGJF@Z 100264d0 f   SoundRecorderImpl.obj
 0001:00025500       ?get_FreezeEvents@COPOSSoundRecorder@@UAGJPAF@Z 10026500 f   SoundRecorderImpl.obj
 0001:00025530       ?put_FreezeEvents@COPOSSoundRecorder@@UAGJF@Z 10026530 f   SoundRecorderImpl.obj
 0001:000255c0       ?get_PowerNotify@COPOSSoundRecorder@@UAGJPAJ@Z 100265c0 f   SoundRecorderImpl.obj
 0001:000255f0       ?put_PowerNotify@COPOSSoundRecorder@@UAGJJ@Z 100265f0 f   SoundRecorderImpl.obj
 0001:00025620       ?get_PowerState@COPOSSoundRecorder@@UAGJPAJ@Z 10026620 f   SoundRecorderImpl.obj
 0001:00025650       ?get_ResultCode@COPOSSoundRecorder@@UAGJPAJ@Z 10026650 f   SoundRecorderImpl.obj
 0001:000256e0       ?get_ResultCodeExtended@COPOSSoundRecorder@@UAGJPAJ@Z 100266e0 f   SoundRecorderImpl.obj
 0001:00025710       ?get_State@COPOSSoundRecorder@@UAGJPAJ@Z 10026710 f   SoundRecorderImpl.obj
 0001:00025760       ?get_ControlObjectDescription@COPOSSoundRecorder@@UAGJPAPA_W@Z 10026760 f   SoundRecorderImpl.obj
 0001:000257e0       ?get_ControlObjectVersion@COPOSSoundRecorder@@UAGJPAJ@Z 100267e0 f   SoundRecorderImpl.obj
 0001:00025820       ?get_ServiceObjectDescription@COPOSSoundRecorder@@UAGJPAPA_W@Z 10026820 f   SoundRecorderImpl.obj
 0001:00025850       ?get_ServiceObjectVersion@COPOSSoundRecorder@@UAGJPAJ@Z 10026850 f   SoundRecorderImpl.obj
 0001:00025880       ?get_DeviceDescription@COPOSSoundRecorder@@UAGJPAPA_W@Z 10026880 f   SoundRecorderImpl.obj
 0001:000258b0       ?get_DeviceName@COPOSSoundRecorder@@UAGJPAPA_W@Z 100268b0 f   SoundRecorderImpl.obj
 0001:000258e0       ?get_CapStatisticsReporting@COPOSSoundRecorder@@UAGJPAF@Z 100268e0 f   SoundRecorderImpl.obj
 0001:00025910       ?get_CapUpdateStatistics@COPOSSoundRecorder@@UAGJPAF@Z 10026910 f   SoundRecorderImpl.obj
 0001:00025940       ?get_CapCompareFirmwareVersion@COPOSSoundRecorder@@UAGJPAF@Z 10026940 f   SoundRecorderImpl.obj
 0001:00025970       ?get_CapUpdateFirmware@COPOSSoundRecorder@@UAGJPAF@Z 10026970 f   SoundRecorderImpl.obj
 0001:000259a0       ?CheckHealth@COPOSSoundRecorder@@UAGJJPAJ@Z 100269a0 f   SoundRecorderImpl.obj
 0001:00025a40       ?ClaimDevice@COPOSSoundRecorder@@UAGJJPAJ@Z 10026a40 f   SoundRecorderImpl.obj
 0001:00025b20       ?ClearInput@COPOSSoundRecorder@@UAGJPAJ@Z 10026b20 f   SoundRecorderImpl.obj
 0001:00025b50       ?Close@COPOSSoundRecorder@@UAGJPAJ@Z 10026b50 f   SoundRecorderImpl.obj
 0001:00025c20       ?DirectIO@COPOSSoundRecorder@@UAGJJPAJPAPA_W0@Z 10026c20 f   SoundRecorderImpl.obj
 0001:00025d30       ?Open@COPOSSoundRecorder@@UAGJPA_WPAJ@Z 10026d30 f   SoundRecorderImpl.obj
 0001:00026f20       ?ReleaseDevice@COPOSSoundRecorder@@UAGJPAJ@Z 10027f20 f   SoundRecorderImpl.obj
 0001:00026f90       ?ResetStatistics@COPOSSoundRecorder@@UAGJPA_WPAJ@Z 10027f90 f   SoundRecorderImpl.obj
 0001:00027040       ?RetrieveStatistics@COPOSSoundRecorder@@UAGJPAPA_WPAJ@Z 10028040 f   SoundRecorderImpl.obj
 0001:000270f0       ?UpdateStatistics@COPOSSoundRecorder@@UAGJPA_WPAJ@Z 100280f0 f   SoundRecorderImpl.obj
 0001:000271a0       ?CompareFirmwareVersion@COPOSSoundRecorder@@UAGJPA_WPAJ1@Z 100281a0 f   SoundRecorderImpl.obj
 0001:00027290       ?UpdateFirmware@COPOSSoundRecorder@@UAGJPA_WPAJ@Z 10028290 f   SoundRecorderImpl.obj
 0001:00027340       ?ClearInputProperties@COPOSSoundRecorder@@UAGJPAJ@Z 10028340 f   SoundRecorderImpl.obj
 0001:00027370       ?get_CapAssociatedHardTotalsDevice@COPOSSoundRecorder@@UAGJPAPA_W@Z 10028370 f   SoundRecorderImpl.obj
 0001:000273a0       ?get_CapChannel@COPOSSoundRecorder@@UAGJPAF@Z 100283a0 f   SoundRecorderImpl.obj
 0001:000273d0       ?get_CapRecordingLevel@COPOSSoundRecorder@@UAGJPAF@Z 100283d0 f   SoundRecorderImpl.obj
 0001:00027400       ?get_CapSamplingRate@COPOSSoundRecorder@@UAGJPAF@Z 10028400 f   SoundRecorderImpl.obj
 0001:00027430       ?get_CapSoundType@COPOSSoundRecorder@@UAGJPAF@Z 10028430 f   SoundRecorderImpl.obj
 0001:00027460       ?get_CapStorage@COPOSSoundRecorder@@UAGJPAJ@Z 10028460 f   SoundRecorderImpl.obj
 0001:00027490       ?get_Channel@COPOSSoundRecorder@@UAGJPAPA_W@Z 10028490 f   SoundRecorderImpl.obj
 0001:000274c0       ?put_Channel@COPOSSoundRecorder@@UAGJPA_W@Z 100284c0 f   SoundRecorderImpl.obj
 0001:000274f0       ?get_ChannelList@COPOSSoundRecorder@@UAGJPAPA_W@Z 100284f0 f   SoundRecorderImpl.obj
 0001:00027520       ?get_RecordingLevel@COPOSSoundRecorder@@UAGJPAJ@Z 10028520 f   SoundRecorderImpl.obj
 0001:00027550       ?put_RecordingLevel@COPOSSoundRecorder@@UAGJJ@Z 10028550 f   SoundRecorderImpl.obj
 0001:00027580       ?get_RemainingRecordingTimeInSec@COPOSSoundRecorder@@UAGJPAJ@Z 10028580 f   SoundRecorderImpl.obj
 0001:000275b0       ?get_SamplingRate@COPOSSoundRecorder@@UAGJPAPA_W@Z 100285b0 f   SoundRecorderImpl.obj
 0001:000275e0       ?put_SamplingRate@COPOSSoundRecorder@@UAGJPA_W@Z 100285e0 f   SoundRecorderImpl.obj
 0001:00027610       ?get_SamplingRateList@COPOSSoundRecorder@@UAGJPAPA_W@Z 10028610 f   SoundRecorderImpl.obj
 0001:00027640       ?get_SoundData@COPOSSoundRecorder@@UAGJPAPA_W@Z 10028640 f   SoundRecorderImpl.obj
 0001:00027670       ?get_SoundType@COPOSSoundRecorder@@UAGJPAPA_W@Z 10028670 f   SoundRecorderImpl.obj
 0001:000276a0       ?put_SoundType@COPOSSoundRecorder@@UAGJPA_W@Z 100286a0 f   SoundRecorderImpl.obj
 0001:000276d0       ?get_SoundTypeList@COPOSSoundRecorder@@UAGJPAPA_W@Z 100286d0 f   SoundRecorderImpl.obj
 0001:00027700       ?get_Storage@COPOSSoundRecorder@@UAGJPAJ@Z 10028700 f   SoundRecorderImpl.obj
 0001:00027730       ?put_Storage@COPOSSoundRecorder@@UAGJJ@Z 10028730 f   SoundRecorderImpl.obj
 0001:00027760       ?StartRecording@COPOSSoundRecorder@@UAGJPA_WFJPAJ@Z 10028760 f   SoundRecorderImpl.obj
 0001:00027870       ?StopRecording@COPOSSoundRecorder@@UAGJPAJ@Z 10028870 f   SoundRecorderImpl.obj
 0001:000278a0       ??0?$CComControl@VCOPOSSoundRecorder@@V?$CWindowImpl@VCOPOSSoundRecorder@@VCWindow@ATL@@V?$CWinTraits@$0FGAAAAAA@$0A@@3@@ATL@@@ATL@@QAE@XZ 100288a0 f i SoundRecorderImpl.obj
 0001:000278e0       ??0?$CComPtr@UIAdviseSink@@@ATL@@QAE@XZ 100288e0 f i SoundRecorderImpl.obj
 0001:00027910       ??0?$CComPtr@UIDataAdviseHolder@@@ATL@@QAE@XZ 10028910 f i SoundRecorderImpl.obj
 0001:00027940       ??0?$CComPtr@UIOleAdviseHolder@@@ATL@@QAE@XZ 10028940 f i SoundRecorderImpl.obj
 0001:00027970       ??0?$CComPtr@UIOleClientSite@@@ATL@@QAE@XZ 10028970 f i SoundRecorderImpl.obj
 0001:000279a0       ??0?$CComPtr@UIOleInPlaceSiteWindowless@@@ATL@@QAE@XZ 100289a0 f i SoundRecorderImpl.obj
 0001:000279d0       ??0?$CComPtrBase@UIAdviseSink@@@ATL@@IAE@XZ 100289d0 f i SoundRecorderImpl.obj
 0001:000279f0       ??0?$CComPtrBase@UIDataAdviseHolder@@@ATL@@IAE@XZ 100289f0 f i SoundRecorderImpl.obj
 0001:00027a10       ??0?$CComPtrBase@UIOleAdviseHolder@@@ATL@@IAE@XZ 10028a10 f i SoundRecorderImpl.obj
 0001:00027a30       ??0?$CComPtrBase@UIOleClientSite@@@ATL@@IAE@XZ 10028a30 f i SoundRecorderImpl.obj
 0001:00027a50       ??0?$CComPtrBase@UIOleInPlaceSiteWindowless@@@ATL@@IAE@XZ 10028a50 f i SoundRecorderImpl.obj
 0001:00027a70       ??0?$CComQIPtr@UIDispatch@@$1?_GUID_00020400_0000_0000_c000_000000000046@@3U__s_GUID@@B@ATL@@QAE@XZ 10028a70 f i SoundRecorderImpl.obj
 0001:00027aa0       ??0?$CProxy_IOPOSEvents@VCOPOSSoundRecorder@@@@QAE@PAVCOPOSSoundRecorder@@@Z 10028aa0 f i SoundRecorderImpl.obj
 0001:00027b10       ??0?$CWindowImpl@VCOPOSSoundRecorder@@VCWindow@ATL@@V?$CWinTraits@$0FGAAAAAA@$0A@@3@@ATL@@QAE@XZ 10028b10 f i SoundRecorderImpl.obj
 0001:00027b40       ??0?$CWindowImplBaseT@VCWindow@ATL@@V?$CWinTraits@$0FGAAAAAA@$0A@@2@@ATL@@QAE@XZ 10028b40 f i SoundRecorderImpl.obj
 0001:00027b80       ??0?$CWindowImplRoot@VCWindow@ATL@@@ATL@@QAE@XZ 10028b80 f i SoundRecorderImpl.obj
 0001:00027be0       ??0?$IConnectionPointContainerImpl@VCOPOSSoundRecorder@@@ATL@@QAE@XZ 10028be0 f i SoundRecorderImpl.obj
 0001:00027c10       ??0?$IConnectionPointImpl@VCOPOSSoundRecorder@@$1?DIID__IOPOSSoundRecorderEvents@@3U_GUID@@BVCComDynamicUnkArray@ATL@@@ATL@@QAE@XZ 10028c10 f i SoundRecorderImpl.obj
 0001:00027c50       ??0?$IConnectionPointImpl@VCOPOSSoundRecorder@@$1?IID_IPropertyNotifySink@@3U_GUID@@BVCComDynamicUnkArray@ATL@@@ATL@@QAE@XZ 10028c50 f i SoundRecorderImpl.obj
 0001:00027c90       ??0?$IDataObjectImpl@VCOPOSSoundRecorder@@@ATL@@QAE@XZ 10028c90 f i SoundRecorderImpl.obj
 0001:00027cc0       ??0?$IDispatchImpl@UIOPOSSoundRecorder@@$1?IID_IOPOSSoundRecorder@@3U_GUID@@B$1?LIBID_OposSoundRecorder_CCO@@3U3@B$00$0A@VCComTypeInfoHolder@ATL@@@ATL@@QAE@XZ 10028cc0 f i SoundRecorderImpl.obj
 0001:00027cf0       ??0?$IObjectSafetyImpl@VCOPOSSoundRecorder@@$02@ATL@@QAE@XZ 10028cf0 f i SoundRecorderImpl.obj
 0001:00027d30       ??0?$IOleControlImpl@VCOPOSSoundRecorder@@@ATL@@QAE@XZ 10028d30 f i SoundRecorderImpl.obj
 0001:00027d60       ??0?$IOleInPlaceActiveObjectImpl@VCOPOSSoundRecorder@@@ATL@@QAE@XZ 10028d60 f i SoundRecorderImpl.obj
 0001:00027d90       ??0?$IOleInPlaceObjectWindowlessImpl@VCOPOSSoundRecorder@@@ATL@@QAE@XZ 10028d90 f i SoundRecorderImpl.obj
 0001:00027dc0       ??0?$IOleObjectImpl@VCOPOSSoundRecorder@@@ATL@@QAE@XZ 10028dc0 f i SoundRecorderImpl.obj
 0001:00027df0       ??0?$IPersistStorageImpl@VCOPOSSoundRecorder@@@ATL@@QAE@XZ 10028df0 f i SoundRecorderImpl.obj
 0001:00027e20       ??0?$IPersistStreamInitImpl@VCOPOSSoundRecorder@@@ATL@@QAE@XZ 10028e20 f i SoundRecorderImpl.obj
 0001:00027e50       ??0?$IPropertyNotifySinkCP@VCOPOSSoundRecorder@@VCComDynamicUnkArray@ATL@@@ATL@@QAE@XZ 10028e50 f i SoundRecorderImpl.obj
 0001:00027e80       ??0?$IProvideClassInfo2Impl@$1?CLSID_OPOSSoundRecorder@@3U_GUID@@B$1?DIID__IOPOSSoundRecorderEvents@@3U2@B$1?LIBID_OposSoundRecorder_CCO@@3U2@B$00$0A@VCComTypeInfoHolder@ATL@@@ATL@@QAE@XZ 10028e80 f i SoundRecorderImpl.obj
 0001:00027eb0       ??0?$IQuickActivateImpl@VCOPOSSoundRecorder@@@ATL@@QAE@XZ 10028eb0 f i SoundRecorderImpl.obj
 0001:00027ee0       ??0?$ISpecifyPropertyPagesImpl@VCOPOSSoundRecorder@@@ATL@@QAE@XZ 10028ee0 f i SoundRecorderImpl.obj
 0001:00027f10       ??0?$IViewObjectExImpl@VCOPOSSoundRecorder@@@ATL@@QAE@XZ 10028f10 f i SoundRecorderImpl.obj
 0001:00027f40       ??0?$_ICPLocator@$1?DIID__IOPOSSoundRecorderEvents@@3U_GUID@@B@ATL@@QAE@XZ 10028f40 f i SoundRecorderImpl.obj
 0001:00027f60       ??0?$_ICPLocator@$1?IID_IPropertyNotifySink@@3U_GUID@@B@ATL@@QAE@XZ 10028f60 f i SoundRecorderImpl.obj
 0001:00027f80       ??0CComControlBase@ATL@@QAE@AAPAUHWND__@@@Z 10028f80 f i SoundRecorderImpl.obj
 0001:00028130       ??0CComDynamicUnkArray@ATL@@QAE@XZ 10029130 f i SoundRecorderImpl.obj
 0001:00028160       ??0CDynamicStdCallThunk2@ATL@@QAE@XZ 10029160 f i SoundRecorderImpl.obj
 0001:00028180       ??0CMessageMap@ATL@@QAE@XZ 10029180 f i SoundRecorderImpl.obj
 0001:000281a0       ??0CWindow@ATL@@QAE@PAUHWND__@@@Z 100291a0 f i SoundRecorderImpl.obj
 0001:000281c0       ??0CWndProcThunk@ATL@@QAE@XZ 100291c0 f i SoundRecorderImpl.obj
 0001:000281f0       ??0IConnectionPointContainer@@QAE@XZ 100291f0 f i SoundRecorderImpl.obj
 0001:00028220       ??0IDataObject@@QAE@XZ     10029220 f i SoundRecorderImpl.obj
 0001:00028250       ??0IDispatch@@QAE@XZ       10029250 f i SoundRecorderImpl.obj
 0001:00028280       ??0IOPOSSoundRecorder@@QAE@XZ 10029280 f i SoundRecorderImpl.obj
 0001:000282b0       ??0IOPOSSoundRecorder_1_16@@QAE@XZ 100292b0 f i SoundRecorderImpl.obj
 0001:000282e0       ??0IObjectSafety@@QAE@XZ   100292e0 f i SoundRecorderImpl.obj
 0001:00028310       ??0IOleControl@@QAE@XZ     10029310 f i SoundRecorderImpl.obj
 0001:00028340       ??0IOleInPlaceActiveObject@@QAE@XZ 10029340 f i SoundRecorderImpl.obj
 0001:00028370       ??0IOleInPlaceObject@@QAE@XZ 10029370 f i SoundRecorderImpl.obj
 0001:000283a0       ??0IOleInPlaceObjectWindowless@@QAE@XZ 100293a0 f i SoundRecorderImpl.obj
 0001:000283d0       ??0IOleObject@@QAE@XZ      100293d0 f i SoundRecorderImpl.obj
 0001:00028400       ??0IOleWindow@@QAE@XZ      10029400 f i SoundRecorderImpl.obj
 0001:00028430       ??0IPersist@@QAE@XZ        10029430 f i SoundRecorderImpl.obj
 0001:00028460       ??0IPersistStorage@@QAE@XZ 10029460 f i SoundRecorderImpl.obj
 0001:00028490       ??0IPersistStreamInit@@QAE@XZ 10029490 f i SoundRecorderImpl.obj
 0001:000284c0       ??0IProvideClassInfo2@@QAE@XZ 100294c0 f i SoundRecorderImpl.obj
 0001:000284f0       ??0IProvideClassInfo@@QAE@XZ 100294f0 f i SoundRecorderImpl.obj
 0001:00028520       ??0IQuickActivate@@QAE@XZ  10029520 f i SoundRecorderImpl.obj
 0001:00028550       ??0ISpecifyPropertyPages@@QAE@XZ 10029550 f i SoundRecorderImpl.obj
 0001:00028580       ??0IViewObject2@@QAE@XZ    10029580 f i SoundRecorderImpl.obj
 0001:000285b0       ??0IViewObject@@QAE@XZ     100295b0 f i SoundRecorderImpl.obj
 0001:000285e0       ??0IViewObjectEx@@QAE@XZ   100295e0 f i SoundRecorderImpl.obj
 0001:00028610       ??0OposVariantResult@@QAE@XZ 10029610 f i SoundRecorderImpl.obj
 0001:00028640       ??0_CW@@QAE@PBD@Z          10029640 f i SoundRecorderImpl.obj
 0001:00028680       ??0_CW@@QAE@PB_W@Z         10029680 f i SoundRecorderImpl.obj
 0001:000286c0       ??0_CWNCC@@QAE@PBD@Z       100296c0 f i SoundRecorderImpl.obj
 0001:000286f0       ??1?$CComControl@VCOPOSSoundRecorder@@V?$CWindowImpl@VCOPOSSoundRecorder@@VCWindow@ATL@@V?$CWinTraits@$0FGAAAAAA@$0A@@3@@ATL@@@ATL@@UAE@XZ 100296f0 f i SoundRecorderImpl.obj
 0001:00028720       ??1?$CComPtr@UIDataAdviseHolder@@@ATL@@QAE@XZ 10029720 f i SoundRecorderImpl.obj
 0001:00028750       ??1?$CComPtr@UIOleAdviseHolder@@@ATL@@QAE@XZ 10029750 f i SoundRecorderImpl.obj
 0001:00028780       ??1?$CComPtr@UIOleInPlaceSiteWindowless@@@ATL@@QAE@XZ 10029780 f i SoundRecorderImpl.obj
 0001:000287b0       ??1?$CComPtrBase@UIDataAdviseHolder@@@ATL@@QAE@XZ 100297b0 f i SoundRecorderImpl.obj
 0001:00028800       ??1?$CComPtrBase@UIOleAdviseHolder@@@ATL@@QAE@XZ 10029800 f i SoundRecorderImpl.obj
 0001:00028850       ??1?$CComPtrBase@UIOleInPlaceSiteWindowless@@@ATL@@QAE@XZ 10029850 f i SoundRecorderImpl.obj
 0001:000288a0       ??1?$CComQIPtr@UIDispatch@@$1?_GUID_00020400_0000_0000_c000_000000000046@@3U__s_GUID@@B@ATL@@QAE@XZ 100298a0 f i SoundRecorderImpl.obj
 0001:000288d0       ??1?$CProxy_IOPOSEvents@VCOPOSSoundRecorder@@@@QAE@XZ 100298d0 f i SoundRecorderImpl.obj
 0001:00028900       ??1?$CWindowImpl@VCOPOSSoundRecorder@@VCWindow@ATL@@V?$CWinTraits@$0FGAAAAAA@$0A@@3@@ATL@@UAE@XZ 10029900 f i SoundRecorderImpl.obj
 0001:00028930       ??1?$CWindowImplBaseT@VCWindow@ATL@@V?$CWinTraits@$0FGAAAAAA@$0A@@2@@ATL@@UAE@XZ 10029930 f i SoundRecorderImpl.obj
 0001:00028960       ??1?$CWindowImplRoot@VCWindow@ATL@@@ATL@@UAE@XZ 10029960 f i SoundRecorderImpl.obj
 0001:00028a00       ??1?$IConnectionPointImpl@VCOPOSSoundRecorder@@$1?DIID__IOPOSSoundRecorderEvents@@3U_GUID@@BVCComDynamicUnkArray@ATL@@@ATL@@QAE@XZ 10029a00 f i SoundRecorderImpl.obj
 0001:00028a80       ??1?$IConnectionPointImpl@VCOPOSSoundRecorder@@$1?IID_IPropertyNotifySink@@3U_GUID@@BVCComDynamicUnkArray@ATL@@@ATL@@QAE@XZ 10029a80 f i SoundRecorderImpl.obj
 0001:00028b00       ??1?$IPropertyNotifySinkCP@VCOPOSSoundRecorder@@VCComDynamicUnkArray@ATL@@@ATL@@QAE@XZ 10029b00 f i SoundRecorderImpl.obj
 0001:00028b30       ??1CComControlBase@ATL@@UAE@XZ 10029b30 f i SoundRecorderImpl.obj
 0001:00028bf0       ??1CComDynamicUnkArray@ATL@@QAE@XZ 10029bf0 f i SoundRecorderImpl.obj
 0001:00028c30       ??1CDynamicStdCallThunk2@ATL@@QAE@XZ 10029c30 f i SoundRecorderImpl.obj
 0001:00028c60       ??1CWndProcThunk@ATL@@QAE@XZ 10029c60 f i SoundRecorderImpl.obj
 0001:00028c90       ??1OposVariantResult@@QAE@XZ 10029c90 f i SoundRecorderImpl.obj
 0001:00028cc0       ??1_CW@@QAE@XZ             10029cc0 f i SoundRecorderImpl.obj
 0001:00028d30       ??1_CWNCC@@QAE@XZ          10029d30 f i SoundRecorderImpl.obj
 0001:00028d60       ??B_CW@@QAEPB_WXZ          10029d60 f i SoundRecorderImpl.obj
 0001:00028da0       ??B_CWNCC@@QAEPA_WXZ       10029da0 f i SoundRecorderImpl.obj
 0001:00028dd0       ??_EOposVariant@@QAEPAXI@Z 10029dd0 f i SoundRecorderImpl.obj
 0001:00028e60       ?EventClaim@COPOSSoundRecorder@@IAEXXZ 10029e60 f i SoundRecorderImpl.obj
 0001:00028ea0       ?EventClose@COPOSSoundRecorder@@IAEXXZ 10029ea0 f i SoundRecorderImpl.obj
 0001:00028f40       ?EventInit@COPOSSoundRecorder@@IAEJXZ 10029f40 f i SoundRecorderImpl.obj
 0001:00029170       ?EventOpen@COPOSSoundRecorder@@IAEXXZ 1002a170 f i SoundRecorderImpl.obj
 0001:000291b0       ?EventPreCloseRelease@COPOSSoundRecorder@@IAEXXZ 1002a1b0 f i SoundRecorderImpl.obj
 0001:00029230       ?EventUninit@COPOSSoundRecorder@@IAEXXZ 1002a230 f i SoundRecorderImpl.obj
 0001:00029360       ?EventWindowProc@COPOSSoundRecorder@@IAGJIIJ@Z 1002a360 f i SoundRecorderImpl.obj
 0001:000294f0       ?FireEventCleanup@COPOSSoundRecorder@@IAEXXZ 1002a4f0 f i SoundRecorderImpl.obj
 0001:00029540       ?FireEventSetup@COPOSSoundRecorder@@IAE_NXZ 1002a540 f i SoundRecorderImpl.obj
 0001:000295b0       ?GetModuleInstance@CComModule@ATL@@QAEPAUHINSTANCE__@@XZ 1002a5b0 f i SoundRecorderImpl.obj
 0001:000295d0       ?SetRC@COPOSSoundRecorder@@IAEJJ@Z 1002a5d0 f i SoundRecorderImpl.obj
 0001:00029600       ?s_EventWindowProc@COPOSSoundRecorder@@KGJPAUHWND__@@IIJ@Z 1002a600 f i SoundRecorderImpl.obj
 0001:000296a0       __snwprintf                1002a6a0 f i SoundRecorderImpl.obj
 0001:00029700       __vfwprintf_l              1002a700 f i SoundRecorderImpl.obj
 0001:00029730       __vsnwprintf               1002a730 f i SoundRecorderImpl.obj
 0001:00029760       __vsnwprintf_l             1002a760 f i SoundRecorderImpl.obj
 0001:000297d0       _vfwprintf                 1002a7d0 f i SoundRecorderImpl.obj
 0001:000297f2       _DebugBreak@0              1002a7f2 f   kernel32:KERNEL32.dll
 0001:000297f8       _Sleep@4                   1002a7f8 f   kernel32:KERNEL32.dll
 0001:000297fe       _GetCurrentProcess@0       1002a7fe f   kernel32:KERNEL32.dll
 0001:00029804       _TerminateProcess@8        1002a804 f   kernel32:KERNEL32.dll
 0001:0002980a       _MultiByteToWideChar@24    1002a80a f   kernel32:KERNEL32.dll
 0001:00029810       _WideCharToMultiByte@32    1002a810 f   kernel32:KERNEL32.dll
 0001:00029816       _DecodePointer@4           1002a816 f   kernel32:KERNEL32.dll
 0001:0002981c       _RaiseException@16         1002a81c f   kernel32:KERNEL32.dll
 0001:00029822       _GetLastError@0            1002a822 f   kernel32:KERNEL32.dll
 0001:00029828       _SetLastError@4            1002a828 f   kernel32:KERNEL32.dll
 0001:0002982e       _InitializeCriticalSectionEx@12 1002a82e f   kernel32:KERNEL32.dll
 0001:00029834       _DeleteCriticalSection@4   1002a834 f   kernel32:KERNEL32.dll
 0001:0002983a       _EncodePointer@4           1002a83a f   kernel32:KERNEL32.dll
 0001:00029840       _EnterCriticalSection@4    1002a840 f   kernel32:KERNEL32.dll
 0001:00029846       _LeaveCriticalSection@4    1002a846 f   kernel32:KERNEL32.dll
 0001:0002984c       _ResetEvent@4              1002a84c f   kernel32:KERNEL32.dll
 0001:00029852       _ReleaseMutex@4            1002a852 f   kernel32:KERNEL32.dll
 0001:00029858       _WaitForSingleObject@8     1002a858 f   kernel32:KERNEL32.dll
 0001:0002985e       _GetCurrentThreadId@0      1002a85e f   kernel32:KERNEL32.dll
 0001:00029864       _DisableThreadLibraryCalls@4 1002a864 f   kernel32:KERNEL32.dll
 0001:0002986a       _FreeLibrary@4             1002a86a f   kernel32:KERNEL32.dll
 0001:00029870       _GetModuleFileNameW@12     1002a870 f   kernel32:KERNEL32.dll
 0001:00029876       _GetModuleHandleW@4        1002a876 f   kernel32:KERNEL32.dll
 0001:0002987c       _GetProcAddress@8          1002a87c f   kernel32:KERNEL32.dll
 0001:00029882       _LoadLibraryExW@12         1002a882 f   kernel32:KERNEL32.dll
 0001:00029888       _LoadResource@8            1002a888 f   kernel32:KERNEL32.dll
 0001:0002988e       _SizeofResource@8          1002a88e f   kernel32:KERNEL32.dll
 0001:00029894       _FindResourceW@12          1002a894 f   kernel32:KERNEL32.dll
 0001:0002989a       _GlobalAlloc@8             1002a89a f   kernel32:KERNEL32.dll
 0001:000298a0       _GlobalUnlock@4            1002a8a0 f   kernel32:KERNEL32.dll
 0001:000298a6       _GlobalLock@4              1002a8a6 f   kernel32:KERNEL32.dll
 0001:000298ac       _MulDiv@12                 1002a8ac f   kernel32:KERNEL32.dll
 0001:000298b2       _lstrcmpiW@8               1002a8b2 f   kernel32:KERNEL32.dll
 0001:000298b8       _DeleteFileW@4             1002a8b8 f   kernel32:KERNEL32.dll
 0001:000298be       _CloseHandle@4             1002a8be f   kernel32:KERNEL32.dll
 0001:000298c4       _SetEvent@4                1002a8c4 f   kernel32:KERNEL32.dll
 0001:000298ca       _CreateMutexW@12           1002a8ca f   kernel32:KERNEL32.dll
 0001:000298d0       _CreateEventW@16           1002a8d0 f   kernel32:KERNEL32.dll
 0001:000298d6       _GetCurrentProcessId@0     1002a8d6 f   kernel32:KERNEL32.dll
 0001:000298dc       _LocalFree@4               1002a8dc f   kernel32:KERNEL32.dll
 0001:000298e2       _FormatMessageW@28         1002a8e2 f   kernel32:KERNEL32.dll
 0001:000298e8       _GetActiveWindow@0         1002a8e8 f   user32:USER32.dll
 0001:000298ee       _MessageBoxW@16            1002a8ee f   user32:USER32.dll
 0001:000298f4       _UnregisterClassW@8        1002a8f4 f   user32:USER32.dll
 0001:000298fa       _PostMessageW@16           1002a8fa f   user32:USER32.dll
 0001:00029900       _DefWindowProcW@16         1002a900 f   user32:USER32.dll
 0001:00029906       _CallWindowProcW@20        1002a906 f   user32:USER32.dll
 0001:0002990c       _RegisterClassExW@4        1002a90c f   user32:USER32.dll
 0001:00029912       _GetClassInfoExW@12        1002a912 f   user32:USER32.dll
 0001:00029918       _CreateWindowExW@48        1002a918 f   user32:USER32.dll
 0001:0002991e       _IsWindow@4                1002a91e f   user32:USER32.dll
 0001:00029924       _IsChild@8                 1002a924 f   user32:USER32.dll
 0001:0002992a       _DestroyWindow@4           1002a92a f   user32:USER32.dll
 0001:00029930       _ShowWindow@8              1002a930 f   user32:USER32.dll
 0001:00029936       _SetWindowPos@28           1002a936 f   user32:USER32.dll
 0001:0002993c       _CharNextW@4               1002a93c f   user32:USER32.dll
 0001:00029942       _SetFocus@4                1002a942 f   user32:USER32.dll
 0001:00029948       _GetFocus@0                1002a948 f   user32:USER32.dll
 0001:0002994e       _GetKeyState@4             1002a94e f   user32:USER32.dll
 0001:00029954       _GetDC@4                   1002a954 f   user32:USER32.dll
 0001:0002995a       _ReleaseDC@8               1002a95a f   user32:USER32.dll
 0001:00029960       _BeginPaint@8              1002a960 f   user32:USER32.dll
 0001:00029966       _EndPaint@8                1002a966 f   user32:USER32.dll
 0001:0002996c       _SetWindowRgn@12           1002a96c f   user32:USER32.dll
 0001:00029972       _InvalidateRect@12         1002a972 f   user32:USER32.dll
 0001:00029978       _GetClientRect@8           1002a978 f   user32:USER32.dll
 0001:0002997e       _IntersectRect@12          1002a97e f   user32:USER32.dll
 0001:00029984       _UnionRect@12              1002a984 f   user32:USER32.dll
 0001:0002998a       _OffsetRect@12             1002a98a f   user32:USER32.dll
 0001:00029990       _EqualRect@8               1002a990 f   user32:USER32.dll
 0001:00029996       _PtInRect@12               1002a996 f   user32:USER32.dll
 0001:0002999c       _GetWindowLongW@8          1002a99c f   user32:USER32.dll
 0001:000299a2       _SetWindowLongW@12         1002a9a2 f   user32:USER32.dll
 0001:000299a8       _GetParent@4               1002a9a8 f   user32:USER32.dll
 0001:000299ae       _LoadCursorW@8             1002a9ae f   user32:USER32.dll
 0001:000299b4       _PeekMessageW@20           1002a9b4 f   user32:USER32.dll
 0001:000299ba       _RegisterClassW@4          1002a9ba f   user32:USER32.dll
 0001:000299c0       _LoadBitmapW@8             1002a9c0 f   user32:USER32.dll
 0001:000299c6       _CloseMetaFile@4           1002a9c6 f   gdi32:GDI32.dll
 0001:000299cc       _CreateDCW@16              1002a9cc f   gdi32:GDI32.dll
 0001:000299d2       _CreateMetaFileW@4         1002a9d2 f   gdi32:GDI32.dll
 0001:000299d8       _CreateRectRgnIndirect@4   1002a9d8 f   gdi32:GDI32.dll
 0001:000299de       _DeleteDC@4                1002a9de f   gdi32:GDI32.dll
 0001:000299e4       _DeleteMetaFile@4          1002a9e4 f   gdi32:GDI32.dll
 0001:000299ea       _GetDeviceCaps@8           1002a9ea f   gdi32:GDI32.dll
 0001:000299f0       _RestoreDC@8               1002a9f0 f   gdi32:GDI32.dll
 0001:000299f6       _SaveDC@4                  1002a9f6 f   gdi32:GDI32.dll
 0001:000299fc       _SetMapMode@8              1002a9fc f   gdi32:GDI32.dll
 0001:00029a02       _LPtoDP@12                 1002aa02 f   gdi32:GDI32.dll
 0001:00029a08       _SetViewportOrgEx@16       1002aa08 f   gdi32:GDI32.dll
 0001:00029a0e       _SetWindowExtEx@16         1002aa0e f   gdi32:GDI32.dll
 0001:00029a14       _SetWindowOrgEx@16         1002aa14 f   gdi32:GDI32.dll
 0001:00029a1a       _BitBlt@36                 1002aa1a f   gdi32:GDI32.dll
 0001:00029a20       _CreateCompatibleDC@4      1002aa20 f   gdi32:GDI32.dll
 0001:00029a26       _DeleteObject@4            1002aa26 f   gdi32:GDI32.dll
 0001:00029a2c       _SelectObject@8            1002aa2c f   gdi32:GDI32.dll
 0001:00029a32       _GetObjectW@12             1002aa32 f   gdi32:GDI32.dll
 0001:00029a38       _RegCloseKey@4             1002aa38 f   advapi32:ADVAPI32.dll
 0001:00029a3e       _RegCreateKeyExW@36        1002aa3e f   advapi32:ADVAPI32.dll
 0001:00029a44       _RegDeleteKeyW@8           1002aa44 f   advapi32:ADVAPI32.dll
 0001:00029a4a       _RegDeleteValueW@8         1002aa4a f   advapi32:ADVAPI32.dll
 0001:00029a50       _RegEnumKeyExW@32          1002aa50 f   advapi32:ADVAPI32.dll
 0001:00029a56       _RegOpenKeyExW@20          1002aa56 f   advapi32:ADVAPI32.dll
 0001:00029a5c       _RegQueryInfoKeyW@48       1002aa5c f   advapi32:ADVAPI32.dll
 0001:00029a62       _RegSetValueExW@24         1002aa62 f   advapi32:ADVAPI32.dll
 0001:00029a68       _RegQueryValueExW@24       1002aa68 f   advapi32:ADVAPI32.dll
 0001:00029a6e       _CoCreateInstance@20       1002aa6e f   ole32:ole32.dll
 0001:00029a74       _StringFromGUID2@12        1002aa74 f   ole32:ole32.dll
 0001:00029a7a       _CoTaskMemAlloc@4          1002aa7a f   ole32:ole32.dll
 0001:00029a80       _CoTaskMemRealloc@8        1002aa80 f   ole32:ole32.dll
 0001:00029a86       _CoTaskMemFree@4           1002aa86 f   ole32:ole32.dll
 0001:00029a8c       _ReadClassStm@8            1002aa8c f   ole32:ole32.dll
 0001:00029a92       _WriteClassStm@8           1002aa92 f   ole32:ole32.dll
 0001:00029a98       _CreateDataAdviseHolder@4  1002aa98 f   ole32:ole32.dll
 0001:00029a9e       _OleSaveToStream@8         1002aa9e f   ole32:ole32.dll
 0001:00029aa4       _CreateOleAdviseHolder@4   1002aaa4 f   ole32:ole32.dll
 0001:00029aaa       _OleRegGetUserType@12      1002aaaa f   ole32:ole32.dll
 0001:00029ab0       _OleRegGetMiscStatus@12    1002aab0 f   ole32:ole32.dll
 0001:00029ab6       _OleRegEnumVerbs@8         1002aab6 f   ole32:ole32.dll
 0001:00029abc       _CLSIDFromProgID@8         1002aabc f   ole32:ole32.dll
 0001:00029ac2       _SysAllocString@4          1002aac2 f   oleaut32:OLEAUT32.dll
 0001:00029ac8       _SysAllocStringLen@8       1002aac8 f   oleaut32:OLEAUT32.dll
 0001:00029ace       _SysFreeString@4           1002aace f   oleaut32:OLEAUT32.dll
 0001:00029ad4       _SysStringLen@4            1002aad4 f   oleaut32:OLEAUT32.dll
 0001:00029ada       _VariantClear@4            1002aada f   oleaut32:OLEAUT32.dll
 0001:00029ae0       _VariantCopyInd@8          1002aae0 f   oleaut32:OLEAUT32.dll
 0001:00029ae6       _VariantChangeType@16      1002aae6 f   oleaut32:OLEAUT32.dll
 0001:00029aec       _SysStringByteLen@4        1002aaec f   oleaut32:OLEAUT32.dll
 0001:00029af2       _SysAllocStringByteLen@8   1002aaf2 f   oleaut32:OLEAUT32.dll
 0001:00029af8       _VariantInit@4             1002aaf8 f   oleaut32:OLEAUT32.dll
 0001:00029afe       _VarUI4FromStr@16          1002aafe f   oleaut32:OLEAUT32.dll
 0001:00029b04       _LoadTypeLib@8             1002ab04 f   oleaut32:OLEAUT32.dll
 0001:00029b0a       _LoadRegTypeLib@20         1002ab0a f   oleaut32:OLEAUT32.dll
 0001:00029b10       _RegisterTypeLib@12        1002ab10 f   oleaut32:OLEAUT32.dll
 0001:00029b16       _UnRegisterTypeLib@20      1002ab16 f   oleaut32:OLEAUT32.dll
 0001:00029b1c       _OleCreatePropertyFrame@44 1002ab1c f   oleaut32:OLEAUT32.dll
 0001:00029b30       @_RTC_AllocaHelper@12      1002ab30 f   LIBCMTD:stack.obj
 0001:00029b70       @_RTC_CheckStackVars2@12   1002ab70 f   LIBCMTD:stack.obj
 0001:00029c50       @_RTC_CheckStackVars@8     1002ac50 f   LIBCMTD:stack.obj
 0001:00029cb0       __RTC_CheckEsp             1002acb0 f   LIBCMTD:stack.obj
 0001:00029cf0       @__security_check_cookie@4 1002acf0 f   LIBCMTD:secchk.obj
 0001:00029d10       __CRT_RTC_INIT             1002ad10 f   LIBCMTD:init.obj
 0001:00029d20       __CRT_RTC_INITW            1002ad20 f   LIBCMTD:init.obj
 0001:00029d30       __RTC_InitBase             1002ad30 f   LIBCMTD:init.obj
 0001:00029d60       __RTC_Shutdown             1002ad60 f   LIBCMTD:init.obj
 0001:00029d80       ??_U@YAPAXI@Z              1002ad80 f   LIBCMTD:new_array.obj
 0001:00029da0       ??3@YAXPAXI@Z              1002ada0 f   LIBCMTD:delete_scalar_size.obj
 0001:00029dc0       ??_V@YAXPAX@Z              1002adc0 f   LIBCMTD:delete_array.obj
 0001:00029de0       ??_V@YAXPAXI@Z             1002ade0 f   LIBCMTD:delete_array_size.obj
 0001:00029e00       ?configure_argv@__scrt_narrow_argv_policy@@SAHXZ 1002ae00 f i LIBCMTD:utility.obj
 0001:00029eb0       ?initialize_environment@__scrt_narrow_environment_policy@@SAHXZ 1002aeb0 f i LIBCMTD:utility.obj
 0001:00029f30       _NtCurrentTeb              1002af30 f i LIBCMTD:utility.obj
 0001:00029f40       ___scrt_acquire_startup_lock 1002af40 f   LIBCMTD:utility.obj
 0001:00029f90       ___scrt_dllmain_after_initialize_c 1002af90 f   LIBCMTD:utility.obj
 0001:00029fc0       ___scrt_dllmain_before_initialize_c 1002afc0 f   LIBCMTD:utility.obj
 0001:00029fe0       ___scrt_dllmain_crt_thread_attach 1002afe0 f   LIBCMTD:utility.obj
 0001:0002a010       ___scrt_dllmain_crt_thread_detach 1002b010 f   LIBCMTD:utility.obj
 0001:0002a030       ___scrt_dllmain_exception_filter 1002b030 f   LIBCMTD:utility.obj
 0001:0002a080       ___scrt_dllmain_uninitialize_c 1002b080 f   LIBCMTD:utility.obj
 0001:0002a0b0       ___scrt_dllmain_uninitialize_critical 1002b0b0 f   LIBCMTD:utility.obj
 0001:0002a0d0       ___scrt_initialize_crt     1002b0d0 f   LIBCMTD:utility.obj
 0001:0002a120       ___scrt_initialize_onexit_tables 1002b120 f   LIBCMTD:utility.obj
 0001:0002a200       ___scrt_is_nonwritable_in_current_image 1002b200 f   LIBCMTD:utility.obj
 0001:0002a330       ___scrt_release_startup_lock 1002b330 f   LIBCMTD:utility.obj
 0001:0002a360       ___scrt_uninitialize_crt   1002b360 f   LIBCMTD:utility.obj
 0001:0002a3a0       __onexit                   1002b3a0 f   LIBCMTD:utility.obj
 0001:0002a410       _at_quick_exit             1002b410 f   LIBCMTD:utility.obj
 0001:0002a450       _atexit                    1002b450 f   LIBCMTD:utility.obj
 0001:0002a480       ??3@YAXPAX@Z               1002b480 f   LIBCMTD:delete_scalar.obj
 0001:0002a4a0       ___raise_securityfailure   1002b4a0 f   LIBCMTD:gs_report.obj
 0001:0002a4d0       ___report_gsfailure        1002b4d0 f   LIBCMTD:gs_report.obj
 0001:0002a5e0       ___report_rangecheckfailure 1002b5e0 f   LIBCMTD:gs_report.obj
 0001:0002a5f0       ___report_securityfailure  1002b5f0 f   LIBCMTD:gs_report.obj
 0001:0002a6d0       ___report_securityfailureEx 1002b6d0 f   LIBCMTD:gs_report.obj
 0001:0002a920       __Init_thread_abort        1002b920 f   LIBCMTD:thread_safe_statics.obj
 0001:0002a940       __Init_thread_footer       1002b940 f   LIBCMTD:thread_safe_statics.obj
 0001:0002a990       __Init_thread_header       1002b990 f   LIBCMTD:thread_safe_statics.obj
 0001:0002aa00       __Init_thread_lock         1002ba00 f   LIBCMTD:thread_safe_statics.obj
 0001:0002aa10       __Init_thread_notify       1002ba10 f   LIBCMTD:thread_safe_statics.obj
 0001:0002aa60       __Init_thread_unlock       1002ba60 f   LIBCMTD:thread_safe_statics.obj
 0001:0002aa70       __Init_thread_wait         1002ba70 f   LIBCMTD:thread_safe_statics.obj
 0001:0002ab00       ??2@YAPAXIABUnothrow_t@std@@@Z 1002bb00 f   LIBCMTD:new_scalar_nothrow.obj
 0001:0002ab90       ??_U@YAPAXIABUnothrow_t@std@@@Z 1002bb90 f   LIBCMTD:new_array_nothrow.obj
 0001:0002abb0       __allmul                   1002bbb0 f   LIBCMTD:llmul.obj
 0001:0002abf0       __alloca_probe_16          1002bbf0 f   LIBCMTD:alloca16.obj
 0001:0002ac06       __alloca_probe_8           1002bc06     LIBCMTD:alloca16.obj
 0001:0002ac20       __chkstk                   1002bc20 f   LIBCMTD:chkstk.obj
 0001:0002ac20       __alloca_probe             1002bc20 f   LIBCMTD:chkstk.obj
 0001:0002b120       __CRT_INIT@12              1002c120 f   LIBCMTD:dll_dllmain.obj
 0001:0002b140       __DllMainCRTStartup@12     1002c140 f   LIBCMTD:dll_dllmain.obj
 0001:0002b200       ?_RTC_AllocaFailure@@YAXPAXPAU_RTC_ALLOCA_NODE@@H@Z 1002c200 f   LIBCMTD:error.obj
 0001:0002b2f0       ?_RTC_Failure@@YAXPAXH@Z   1002c2f0 f   LIBCMTD:error.obj
 0001:0002b340       ?_RTC_StackFailure@@YAXPAXPBD@Z 1002c340 f   LIBCMTD:error.obj
 0001:0002b700       __RTC_UninitUse            1002c700 f   LIBCMTD:error.obj
 0001:0002b7b0       __vsprintf_s_l             1002c7b0 f i LIBCMTD:error.obj
 0001:0002b7e0       _sprintf_s                 1002c7e0 f i LIBCMTD:error.obj
 0001:0002b800       ?_RTC_GetErrorFunc@@YAP6AHHPBDH00ZZPBX@Z 1002c800 f   LIBCMTD:userapi.obj
 0001:0002b810       ?_RTC_GetErrorFuncW@@YAP6AHHPB_WH00ZZPBX@Z 1002c810 f   LIBCMTD:userapi.obj
 0001:0002b820       __RTC_GetErrDesc           1002c820 f   LIBCMTD:userapi.obj
 0001:0002b840       __RTC_NumErrors            1002c840 f   LIBCMTD:userapi.obj
 0001:0002b850       __RTC_SetErrorFunc         1002c850 f   LIBCMTD:userapi.obj
 0001:0002b870       __RTC_SetErrorFuncW        1002c870 f   LIBCMTD:userapi.obj
 0001:0002b890       __RTC_SetErrorType         1002c890 f   LIBCMTD:userapi.obj
 0001:0002b8c0       ??2@YAPAXI@Z               1002c8c0 f   LIBCMTD:new_scalar.obj
 0001:0002b910       ___isa_available_init      1002c910 f   LIBCMTD:cpu_disp.obj
 0001:0002bc50       __get_startup_argv_mode    1002cc50 f   LIBCMTD:argv_mode.obj
 0001:0002bc60       ___scrt_is_ucrt_dll_in_use 1002cc60 f   LIBCMTD:ucrt_detection.obj
 0001:0002bc90       ___scrt_fastfail           1002cc90 f   LIBCMTD:utility_desktop.obj
 0001:0002bdd0       ___scrt_get_show_window_mode 1002cdd0 f   LIBCMTD:utility_desktop.obj
 0001:0002be10       ___scrt_initialize_mta     1002ce10 f   LIBCMTD:utility_desktop.obj
 0001:0002be20       ___scrt_initialize_winrt   1002ce20 f   LIBCMTD:utility_desktop.obj
 0001:0002be30       ___scrt_is_managed_app     1002ce30 f   LIBCMTD:utility_desktop.obj
 0001:0002bec0       ___scrt_set_unhandled_exception_filter 1002cec0 f   LIBCMTD:utility_desktop.obj
 0001:0002bed0       ___scrt_stub_for_initialize_mta 1002ced0 f   LIBCMTD:utility_desktop.obj
 0001:0002bed0       ___scrt_exe_initialize_mta 1002ced0 f   LIBCMTD:utility_desktop.obj
 0001:0002bee0       ___scrt_unhandled_exception_filter@4 1002cee0 f   LIBCMTD:utility_desktop.obj
 0001:0002bf60       __crt_debugger_hook        1002cf60 f   LIBCMTD:utility_desktop.obj
 0001:0002bf70       @_guard_check_icall_nop@4  1002cf70 f i LIBCMTD:guard_support.obj
 0001:0002bf80       _ReadNoFence               1002cf80 f i LIBCMTD:guard_support.obj
 0001:0002bfa0       _ReadPointerNoFence        1002cfa0 f i LIBCMTD:guard_support.obj
 0001:0002bfc0       ___castguard_check_failure_debugbreak 1002cfc0 f i LIBCMTD:guard_support.obj
 0001:0002bfe0       ___castguard_check_failure_fastfail 1002cfe0 f i LIBCMTD:guard_support.obj
 0001:0002c000       ___castguard_check_failure_nop 1002d000 f i LIBCMTD:guard_support.obj
 0001:0002c010       ___castguard_check_failure_os_handled 1002d010 f i LIBCMTD:guard_support.obj
 0001:0002c090       ___castguard_slow_path_check_debugbreak 1002d090 f i LIBCMTD:guard_support.obj
 0001:0002c0c0       ___castguard_slow_path_check_fastfail 1002d0c0 f i LIBCMTD:guard_support.obj
 0001:0002c100       ___castguard_slow_path_check_nop 1002d100 f i LIBCMTD:guard_support.obj
 0001:0002c110       ___castguard_slow_path_check_os_handled 1002d110 f i LIBCMTD:guard_support.obj
 0001:0002c1b0       __guard_icall_checks_enforced 1002d1b0 f i LIBCMTD:guard_support.obj
 0001:0002c250       ___security_init_cookie    1002d250 f   LIBCMTD:gs_support.obj
 0001:0002c2d0       ?__scrt_initialize_type_info@@YAXXZ 1002d2d0 f   LIBCMTD:tncleanup.obj
 0001:0002c2e0       ?__scrt_uninitialize_type_info@@YAXXZ 1002d2e0 f   LIBCMTD:tncleanup.obj
 0001:0002c300       ___local_stdio_scanf_options 1002d300 f i LIBCMTD:default_local_stdio_options.obj
 0001:0002c310       ___scrt_initialize_default_local_stdio_options 1002d310 f   LIBCMTD:default_local_stdio_options.obj
 0001:0002c350       ___scrt_get_dyn_tls_init_callback 1002d350 f   LIBCMTD:dyn_tls_init.obj
 0001:0002c360       __RTC_Initialize           1002d360 f   LIBCMTD:initsect.obj
 0001:0002c390       __RTC_Terminate            1002d390 f   LIBCMTD:initsect.obj
 0001:0002c840       ?_RTC_GetSrcLine@@YAHPAEPA_WKPAH1K@Z 1002d840 f   LIBCMTD:pdblkup.obj
 0001:0002cbc0       __except_handler4_noexcept 1002dbc0 f   LIBCMTD:chandler4_noexcept.obj
 0001:0002cc20       ??0bad_alloc@std@@AAE@QBD@Z 1002dc20 f i LIBCMTD:throw_bad_alloc.obj
 0001:0002cc50       ??0bad_alloc@std@@QAE@ABV01@@Z 1002dc50 f i LIBCMTD:throw_bad_alloc.obj
 0001:0002cc80       ??0bad_alloc@std@@QAE@XZ   1002dc80 f i LIBCMTD:throw_bad_alloc.obj
 0001:0002ccb0       ??0bad_array_new_length@std@@QAE@ABV01@@Z 1002dcb0 f i LIBCMTD:throw_bad_alloc.obj
 0001:0002cce0       ??0bad_array_new_length@std@@QAE@XZ 1002dce0 f i LIBCMTD:throw_bad_alloc.obj
 0001:0002cd10       ??0exception@std@@QAE@ABV01@@Z 1002dd10 f i LIBCMTD:throw_bad_alloc.obj
 0001:0002cd50       ??0exception@std@@QAE@QBDH@Z 1002dd50 f i LIBCMTD:throw_bad_alloc.obj
 0001:0002cd80       ??1bad_alloc@std@@UAE@XZ   1002dd80 f i LIBCMTD:throw_bad_alloc.obj
 0001:0002cda0       ??1bad_array_new_length@std@@UAE@XZ 1002dda0 f i LIBCMTD:throw_bad_alloc.obj
 0001:0002cdc0       ??1exception@std@@UAE@XZ   1002ddc0 f i LIBCMTD:throw_bad_alloc.obj
 0001:0002cdf0       ??_Ebad_alloc@std@@UAEPAXI@Z 1002ddf0 f i LIBCMTD:throw_bad_alloc.obj
 0001:0002cdf0       ??_Gbad_alloc@std@@UAEPAXI@Z 1002ddf0 f i LIBCMTD:throw_bad_alloc.obj
 0001:0002ce20       ??_Ebad_array_new_length@std@@UAEPAXI@Z 1002de20 f i LIBCMTD:throw_bad_alloc.obj
 0001:0002ce20       ??_Gbad_array_new_length@std@@UAEPAXI@Z 1002de20 f i LIBCMTD:throw_bad_alloc.obj
 0001:0002ce50       ??_Eexception@std@@UAEPAXI@Z 1002de50 f i LIBCMTD:throw_bad_alloc.obj
 0001:0002ce50       ??_Gexception@std@@UAEPAXI@Z 1002de50 f i LIBCMTD:throw_bad_alloc.obj
 0001:0002ce80       ?__scrt_throw_std_bad_alloc@@YAXXZ 1002de80 f   LIBCMTD:throw_bad_alloc.obj
 0001:0002cea0       ?__scrt_throw_std_bad_array_new_length@@YAXXZ 1002dea0 f   LIBCMTD:throw_bad_alloc.obj
 0001:0002cec0       ?what@exception@std@@UBEPBDXZ 1002dec0 f i LIBCMTD:throw_bad_alloc.obj
 0001:0002cef0       ??1type_info@@UAE@XZ       1002def0 f   LIBCMTD:std_type_info_static.obj
 0001:0002cf10       ??_Gtype_info@@UAEPAXI@Z   1002df10 f i LIBCMTD:std_type_info_static.obj
 0001:0002cf10       ??_Etype_info@@UAEPAXI@Z   1002df10 f i LIBCMTD:std_type_info_static.obj
 0001:0002cf3e       ??$?2PAUHINSTANCE__@@@Wrapper@?$CSimpleArray@PAUHINSTANCE__@@V?$CSimpleArrayEqualHelper@PAUHINSTANCE__@@@ATL@@@ATL@@SAPAXIPAPAUHINSTANCE__@@@Z 1002df3e f i atls:atlbase.obj
 0001:0002cf46       ??0?$CSimpleArray@PAUHINSTANCE__@@V?$CSimpleArrayEqualHelper@PAUHINSTANCE__@@@ATL@@@ATL@@QAE@XZ 1002df46 f i atls:atlbase.obj
 0001:0002cf53       ??0CAtlBaseModule@ATL@@QAE@XZ 1002df53 f   atls:atlbase.obj
 0001:0002cfa6       ??0Wrapper@?$CSimpleArray@PAUHINSTANCE__@@V?$CSimpleArrayEqualHelper@PAUHINSTANCE__@@@ATL@@@ATL@@QAE@ABQAUHINSTANCE__@@@Z 1002dfa6 f i atls:atlbase.obj
 0001:0002cfb6       ??0_ATL_BASE_MODULE70@ATL@@QAE@XZ 1002dfb6 f i atls:atlbase.obj
 0001:0002cfd9       ??1?$CSimpleArray@PAUHINSTANCE__@@V?$CSimpleArrayEqualHelper@PAUHINSTANCE__@@@ATL@@@ATL@@QAE@XZ 1002dfd9 f i atls:atlbase.obj
 0001:0002cfde       ??1CAtlBaseModule@ATL@@QAE@XZ 1002dfde f   atls:atlbase.obj
 0001:0002cff4       ??1_ATL_BASE_MODULE70@ATL@@QAE@XZ 1002dff4 f i atls:atlbase.obj
 0001:0002cffc       ??A?$CSimpleArray@PAUHINSTANCE__@@V?$CSimpleArrayEqualHelper@PAUHINSTANCE__@@@ATL@@@ATL@@QAEAAPAUHINSTANCE__@@H@Z 1002dffc f i atls:atlbase.obj
 0001:0002d021       ?Add@?$CSimpleArray@PAUHINSTANCE__@@V?$CSimpleArrayEqualHelper@PAUHINSTANCE__@@@ATL@@@ATL@@QAEHABQAUHINSTANCE__@@@Z 1002e021 f i atls:atlbase.obj
 0001:0002d0a3       ?AddResourceInstance@CAtlBaseModule@ATL@@QAE_NPAUHINSTANCE__@@@Z 1002e0a3 f   atls:atlbase.obj
 0001:0002d0d6       ?GetHInstanceAt@CAtlBaseModule@ATL@@QAEPAUHINSTANCE__@@H@Z 1002e0d6 f   atls:atlbase.obj
 0001:0002d11b       ?GetSize@?$CSimpleArray@PAUHINSTANCE__@@V?$CSimpleArrayEqualHelper@PAUHINSTANCE__@@@ATL@@@ATL@@QBEHXZ 1002e11b f i atls:atlbase.obj
 0001:0002d11f       ?InternalSetAtIndex@?$CSimpleArray@PAUHINSTANCE__@@V?$CSimpleArrayEqualHelper@PAUHINSTANCE__@@@ATL@@@ATL@@QAEXHABQAUHINSTANCE__@@@Z 1002e11f f i atls:atlbase.obj
 0001:0002d139       ?RemoveAll@?$CSimpleArray@PAUHINSTANCE__@@V?$CSimpleArrayEqualHelper@PAUHINSTANCE__@@@ATL@@@ATL@@QAEXXZ 1002e139 f i atls:atlbase.obj
 0001:0002d156       ?RemoveAt@?$CSimpleArray@PAUHINSTANCE__@@V?$CSimpleArrayEqualHelper@PAUHINSTANCE__@@@ATL@@@ATL@@QAEHH@Z 1002e156 f i atls:atlbase.obj
 0001:0002d1a4       ?RemoveResourceInstance@CAtlBaseModule@ATL@@QAE_NPAUHINSTANCE__@@@Z 1002e1a4 f   atls:atlbase.obj
 0001:0002d201       ?memmove_s@Checked@ATL@@YAXPAXIPBXI@Z 1002e201 f i atls:atlbase.obj
 0001:0002d55e       ?GetCodeAddress@_stdcallthunk@ATL@@QAEPAXXZ 1002e55e f i atls:atlthunk.obj
 0001:0002d588       ?Init@_stdcallthunk@ATL@@QAEHKPAX@Z 1002e588 f i atls:atlthunk.obj
 0001:0002d5bd       ?__AllocStdCallThunk@@YGPAXXZ 1002e5bd f   atls:atlthunk.obj
 0001:0002d5c2       ?__AllocStdCallThunk@ATL@@YGPAXXZ 1002e5c2 f   atls:atlthunk.obj
 0001:0002d5c7       ?__AllocStdCallThunk_cmn@@YAPAXXZ 1002e5c7 f   atls:atlthunk.obj
 0001:0002d68d       ?__FreeStdCallThunk@@YGXPAX@Z 1002e68d f   atls:atlthunk.obj
 0001:0002d69d       ?__FreeStdCallThunk@ATL@@YGXPAX@Z 1002e69d f   atls:atlthunk.obj
 0001:0002d6ad       ?__FreeStdCallThunk_cmn@@YAXPAX@Z 1002e6ad f   atls:atlthunk.obj
 0001:0002d748       _AtlThunk_AllocateData@0   1002e748 f   atls:atlthunk.obj
 0001:0002d7ad       _AtlThunk_DataToCode@4     1002e7ad f   atls:atlthunk.obj
 0001:0002d7f4       _AtlThunk_FreeData@4       1002e7f4 f   atls:atlthunk.obj
 0001:0002d84a       _AtlThunk_InitData@12      1002e84a f   atls:atlthunk.obj
 0001:0002d899       _MemoryBarrier             1002e899 f i atls:atlthunk.obj
 0001:0002d8a7       __InlineInterlockedCompareExchangePointer 1002e8a7 f i atls:atlthunk.obj
 0001:0002d8c0       _memset                    1002e8c0 f   libvcruntimed:memset.obj
 0001:0002da20       ??$__crt_interlocked_exchange_pointer@$$A6AXXZP6AXXZ@@YAP6AXXZPDS6AXXZQ6AXXZ@Z 1002ea20 f i libvcruntimed:purevirt.obj
 0001:0002da30       ??$__crt_interlocked_read_pointer@$$A6AXXZ@@YAP6AXXZPDS6AXXZ@Z 1002ea30 f i libvcruntimed:purevirt.obj
 0001:0002da50       ?__crt_interlocked_read_32@@YAHPDH@Z 1002ea50 f i libvcruntimed:purevirt.obj
 0001:0002da70       __get_purecall_handler     1002ea70 f   libvcruntimed:purevirt.obj
 0001:0002da90       __purecall                 1002ea90 f   libvcruntimed:purevirt.obj
 0001:0002dac0       __set_purecall_handler     1002eac0 f   libvcruntimed:purevirt.obj
 0001:0002dc90       _memcmp                    1002ec90 f   libvcruntimed:memcmp.obj
 0001:0002e560       _memcpy                    1002f560 f   libvcruntimed:memcpy.obj
 0001:0002eae0       _wcsstr                    1002fae0 f   libvcruntimed:wcsstr.obj
 0001:0002f010       __except_handler4          10030010 f   libvcruntimed:chandler4.obj
 0001:0002f200       ___vcrt_initialize         10030200 f   libvcruntimed:initialization.obj
 0001:0002f240       ___vcrt_thread_attach      10030240 f   libvcruntimed:initialization.obj
 0001:0002f260       ___vcrt_thread_detach      10030260 f   libvcruntimed:initialization.obj
 0001:0002f280       ___vcrt_uninitialize       10030280 f   libvcruntimed:initialization.obj
 0001:0002f2a0       ___vcrt_uninitialize_critical 100302a0 f   libvcruntimed:initialization.obj
 0001:0002f2c0       ??$?0AAViterator@TryBlockMap@__FrameHandler3@@AAV012@$0A@@?$pair@Viterator@TryBlockMap@__FrameHandler3@@V123@@std@@QAE@AAViterator@TryBlockMap@__FrameHandler3@@0@Z 100302c0 f i libvcruntimed:trnsctrl.obj
 0001:0002f310       ??$forward@AAViterator@TryBlockMap@__FrameHandler3@@@std@@YAAAViterator@TryBlockMap@__FrameHandler3@@AAV123@@Z 10030310 f i libvcruntimed:trnsctrl.obj
 0001:0002f320       ??0iterator@TryBlockMap@__FrameHandler3@@QAE@AAV12@I@Z 10030320 f i libvcruntimed:trnsctrl.obj
 0001:0002f350       ?GetRangeOfTrysToCheck@__FrameHandler3@@SA?AU?$pair@Viterator@TryBlockMap@__FrameHandler3@@V123@@std@@AAVTryBlockMap@1@HPAXPBU_s_FuncInfo@@H@Z 10030350 f   libvcruntimed:trnsctrl.obj
 0001:0002f430       ?_CallCatchBlock2@@YAPAXPAUEHRegistrationNode@@PBU_s_FuncInfo@@PAXHK@Z 10030430 f   libvcruntimed:trnsctrl.obj
 0001:0002f4a0       ?_CallSETranslator@@YAHPAUEHExceptionRecord@@PAUEHRegistrationNode@@PAX2PBU_s_FuncInfo@@H1@Z 100304a0 f   libvcruntimed:trnsctrl.obj
 0001:0002f5a0       ?_JumpToContinuation@@YGXPAXPAUEHRegistrationNode@@@Z 100305a0 f   libvcruntimed:trnsctrl.obj
 0001:0002f5e0       ?_UnwindNestedFrames@@YGXPAUEHRegistrationNode@@PAUEHExceptionRecord@@@Z 100305e0 f   libvcruntimed:trnsctrl.obj
 0001:0002f640       __CatchGuardHandler        10030640 f   libvcruntimed:trnsctrl.obj
 0001:0002f690       __CreateFrameInfo          10030690 f   libvcruntimed:trnsctrl.obj
 0001:0002f6c0       __FindAndUnlinkFrame       100306c0 f   libvcruntimed:trnsctrl.obj
 0001:0002f730       __TranslatorGuardHandler   10030730 f   libvcruntimed:trnsctrl.obj
 0001:0002f7e0       ___CxxFrameHandler         100307e0 f   libvcruntimed:trnsctrl.obj
 0001:0002f820       ___CxxFrameHandler2        10030820 f   libvcruntimed:trnsctrl.obj
 0001:0002f860       ___CxxFrameHandler3        10030860 f   libvcruntimed:trnsctrl.obj
 0001:0002f8a0       ___CxxLongjmpUnwind@4      100308a0 f   libvcruntimed:trnsctrl.obj
 0001:0002f8e0       ___DestructExceptionObject 100308e0 f   libvcruntimed:ehhelpers.obj
 0001:0002fa00       ?_CallMemberFunction0@@YGXQAX0@Z 10030a00 f i libvcruntimed:ehhelpers.obj
 0001:0002faa0       ?raw_name@type_info@@QBEPBDXZ 10030aa0 f i libvcruntimed:ehhelpers.obj
 0001:0002fac0       __IsExceptionObjectToBeDestroyed 10030ac0 f   libvcruntimed:ehhelpers.obj
 0001:0002fb00       __SetWinRTOutOfMemoryExceptionCallback 10030b00 f   libvcruntimed:ehhelpers.obj
 0001:0002fb10       ___AdjustPointer           10030b10 f   libvcruntimed:ehhelpers.obj
 0001:0002fb60       ___FrameUnwindFilter       10030b60 f   libvcruntimed:ehhelpers.obj
 0001:0002fbf0       ___GetPlatformExceptionInfo 10030bf0 f   libvcruntimed:ehhelpers.obj
 0001:0002fc70       ___current_exception       10030c70 f   libvcruntimed:ehhelpers.obj
 0001:0002fc80       ___current_exception_context 10030c80 f   libvcruntimed:ehhelpers.obj
 0001:0002fc90       ___processing_throw        10030c90 f   libvcruntimed:ehhelpers.obj
 0001:0002fca0       ___std_terminate           10030ca0 f   libvcruntimed:ehhelpers.obj
 0001:0002fcb0       __is_exception_typeof      10030cb0 f   libvcruntimed:ehhelpers.obj
 0001:0002fdb0       ??$?RD@__crt_internal_free_policy@@QBEXQBD@Z 10030db0 f i libvcruntimed:std_type_info.obj
 0001:0002fdd0       ??$?RX@__crt_internal_free_policy@@QBEXQBX@Z 10030dd0 f i libvcruntimed:std_type_info.obj
 0001:0002fdf0       ??$__crt_interlocked_compare_exchange_pointer@$$CBDPAD$$T@@YAPBDPDSBDQAD$$T@Z 10030df0 f i libvcruntimed:std_type_info.obj
 0001:0002fe10       ??$__crt_interlocked_read_pointer@$$CBD@@YAPBDPDSBD@Z 10030e10 f i libvcruntimed:std_type_info.obj
 0001:0002fe30       ??0?$__crt_unique_heap_ptr@DU__crt_internal_free_policy@@@@QAE@QAD@Z 10030e30 f i libvcruntimed:std_type_info.obj
 0001:0002fe50       ??0?$__crt_unique_heap_ptr@XU__crt_internal_free_policy@@@@QAE@QAX@Z 10030e50 f i libvcruntimed:std_type_info.obj
 0001:0002fe70       ??1?$__crt_unique_heap_ptr@DU__crt_internal_free_policy@@@@QAE@XZ 10030e70 f i libvcruntimed:std_type_info.obj
 0001:0002fe90       ??1?$__crt_unique_heap_ptr@XU__crt_internal_free_policy@@@@QAE@XZ 10030e90 f i libvcruntimed:std_type_info.obj
 0001:0002feb0       ??B?$__crt_unique_heap_ptr@DU__crt_internal_free_policy@@@@QBE_NXZ 10030eb0 f i libvcruntimed:std_type_info.obj
 0001:0002fed0       ??B?$__crt_unique_heap_ptr@XU__crt_internal_free_policy@@@@QBE_NXZ 10030ed0 f i libvcruntimed:std_type_info.obj
 0001:0002ff60       ?detach@?$__crt_unique_heap_ptr@XU__crt_internal_free_policy@@@@QAEPAXXZ 10030f60 f i libvcruntimed:std_type_info.obj
 0001:0002ff90       ?get@?$__crt_unique_heap_ptr@DU__crt_internal_free_policy@@@@QBEPADXZ 10030f90 f i libvcruntimed:std_type_info.obj
 0001:0002ffa0       ?get@?$__crt_unique_heap_ptr@XU__crt_internal_free_policy@@@@QBEPAXXZ 10030fa0 f i libvcruntimed:std_type_info.obj
 0001:0002ffb0       ?is_valid@?$__crt_unique_heap_ptr@DU__crt_internal_free_policy@@@@QBE_NXZ 10030fb0 f i libvcruntimed:std_type_info.obj
 0001:0002ffe0       ?is_valid@?$__crt_unique_heap_ptr@XU__crt_internal_free_policy@@@@QBE_NXZ 10030fe0 f i libvcruntimed:std_type_info.obj
 0001:00030010       ?release@?$__crt_unique_heap_ptr@DU__crt_internal_free_policy@@@@QAEXXZ 10031010 f i libvcruntimed:std_type_info.obj
 0001:00030040       ?release@?$__crt_unique_heap_ptr@XU__crt_internal_free_policy@@@@QAEXXZ 10031040 f i libvcruntimed:std_type_info.obj
 0001:00030070       ___std_type_info_compare   10031070 f   libvcruntimed:std_type_info.obj
 0001:000300a0       ___std_type_info_destroy_list 100310a0 f   libvcruntimed:std_type_info.obj
 0001:000300e0       ___std_type_info_hash      100310e0 f   libvcruntimed:std_type_info.obj
 0001:00030140       ___std_type_info_name      10031140 f   libvcruntimed:std_type_info.obj
 0001:00030320       ___vcrt_GetModuleFileNameW 10031320 f   libvcruntimed:winapi_thunks.obj
 0001:00030340       ___vcrt_GetModuleHandleW   10031340 f   libvcruntimed:winapi_thunks.obj
 0001:00030350       ___vcrt_LoadLibraryExW     10031350 f   libvcruntimed:winapi_thunks.obj
 0001:00030370       ??$?RD@__crt_public_free_policy@@QBEXQBD@Z 10031370 f i libvcruntimed:std_exception.obj
 0001:00030390       ??0?$__crt_unique_heap_ptr@DU__crt_public_free_policy@@@@QAE@QAD@Z 10031390 f i libvcruntimed:std_exception.obj
 0001:000303b0       ??1?$__crt_unique_heap_ptr@DU__crt_public_free_policy@@@@QAE@XZ 100313b0 f i libvcruntimed:std_exception.obj
 0001:000303d0       ??B?$__crt_unique_heap_ptr@DU__crt_public_free_policy@@@@QBE_NXZ 100313d0 f i libvcruntimed:std_exception.obj
 0001:000303f0       ?detach@?$__crt_unique_heap_ptr@DU__crt_public_free_policy@@@@QAEPADXZ 100313f0 f i libvcruntimed:std_exception.obj
 0001:00030420       ?get@?$__crt_unique_heap_ptr@DU__crt_public_free_policy@@@@QBEPADXZ 10031420 f i libvcruntimed:std_exception.obj
 0001:00030430       ?is_valid@?$__crt_unique_heap_ptr@DU__crt_public_free_policy@@@@QBE_NXZ 10031430 f i libvcruntimed:std_exception.obj
 0001:00030460       ?release@?$__crt_unique_heap_ptr@DU__crt_public_free_policy@@@@QAEXXZ 10031460 f i libvcruntimed:std_exception.obj
 0001:00030490       ___std_exception_copy      10031490 f   libvcruntimed:std_exception.obj
 0001:00030580       ___std_exception_destroy   10031580 f   libvcruntimed:std_exception.obj
 0001:000305b0       __CxxThrowException@8      100315b0 f   libvcruntimed:throw.obj
 0001:00030660       _memmove                   10031660 f   libvcruntimed:memmove.obj
 0001:00030be0       __local_unwind4            10031be0 f   libvcruntimed:exsup4.obj
 0001:00030cb4       __seh_longjmp_unwind4@4    10031cb4 f   libvcruntimed:exsup4.obj
 0001:00030cdc       @_EH4_CallFilterFunc@8     10031cdc f   libvcruntimed:exsup4.obj
 0001:00030cf4       @_EH4_TransferToHandler@8  10031cf4 f   libvcruntimed:exsup4.obj
 0001:00030d10       @_EH4_GlobalUnwind2@8      10031d10 f   libvcruntimed:exsup4.obj
 0001:00030d2c       @_EH4_LocalUnwind@16       10031d2c f   libvcruntimed:exsup4.obj
 0001:00030d60       ___except_validate_context_record 10031d60 f   libvcruntimed:jbcxrval.obj
 0001:00030db0       ___except_validate_jump_buffer 10031db0 f   libvcruntimed:jbcxrval.obj
 0001:00030dd0       ___except_validate_jump_buffer_common 10031dd0 f i libvcruntimed:jbcxrval.obj
 0001:00030e30       ??$?RU__vcrt_ptd@@@__crt_internal_free_policy@@QBEXQBU__vcrt_ptd@@@Z 10031e30 f i libvcruntimed:per_thread_data.obj
 0001:00030e50       ??0?$__crt_unique_heap_ptr@U__vcrt_ptd@@U__crt_internal_free_policy@@@@QAE@QAU__vcrt_ptd@@@Z 10031e50 f i libvcruntimed:per_thread_data.obj
 0001:00030e90       ??1?$__crt_unique_heap_ptr@U__vcrt_ptd@@U__crt_internal_free_policy@@@@QAE@XZ 10031e90 f i libvcruntimed:per_thread_data.obj
 0001:00030ed0       ??B?$__crt_unique_heap_ptr@U__vcrt_ptd@@U__crt_internal_free_policy@@@@QBE_NXZ 10031ed0 f i libvcruntimed:per_thread_data.obj
 0001:00030ef0       ?detach@?$__crt_unique_heap_ptr@U__vcrt_ptd@@U__crt_internal_free_policy@@@@QAEPAU__vcrt_ptd@@XZ 10031ef0 f i libvcruntimed:per_thread_data.obj
 0001:00030f20       ?get@?$__crt_unique_heap_ptr@U__vcrt_ptd@@U__crt_internal_free_policy@@@@QBEPAU__vcrt_ptd@@XZ 10031f20 f i libvcruntimed:per_thread_data.obj
 0001:00030f30       ?is_valid@?$__crt_unique_heap_ptr@U__vcrt_ptd@@U__crt_internal_free_policy@@@@QBE_NXZ 10031f30 f i libvcruntimed:per_thread_data.obj
 0001:00030f60       ?release@?$__crt_unique_heap_ptr@U__vcrt_ptd@@U__crt_internal_free_policy@@@@QAEXXZ 10031f60 f i libvcruntimed:per_thread_data.obj
 0001:00030fc0       ___vcrt_freefls@4          10031fc0 f   libvcruntimed:per_thread_data.obj
 0001:00030ff0       ___vcrt_freeptd            10031ff0 f   libvcruntimed:per_thread_data.obj
 0001:00031050       ___vcrt_getptd             10032050 f   libvcruntimed:per_thread_data.obj
 0001:00031070       ___vcrt_getptd_noexit      10032070 f   libvcruntimed:per_thread_data.obj
 0001:000311d0       ___vcrt_getptd_noinit      100321d0 f   libvcruntimed:per_thread_data.obj
 0001:00031230       ___vcrt_initialize_ptd     10032230 f   libvcruntimed:per_thread_data.obj
 0001:00031280       ___vcrt_uninitialize_ptd   10032280 f   libvcruntimed:per_thread_data.obj
 0001:000312b0       ___vcrt_initialize_locks   100322b0 f   libvcruntimed:locks.obj
 0001:00031310       ___vcrt_lock               10032310 f   libvcruntimed:locks.obj
 0001:00031330       ___vcrt_uninitialize_locks 10032330 f   libvcruntimed:locks.obj
 0001:00031380       ___vcrt_unlock             10032380 f   libvcruntimed:locks.obj
 0001:00031f10       ??$TypeMatchHelper@V__FrameHandler3@@@@YAHPBU_s_HandlerType@@PBU_s_CatchableType@@PBU_s_ThrowInfo@@@Z 10032f10 f i libvcruntimed:frame.obj
 0001:00031ff0       ??$__InternalCxxFrameHandler@V__FrameHandler3@@@@YA?AW4_EXCEPTION_DISPOSITION@@PAUEHExceptionRecord@@PAUEHRegistrationNode@@PAU_CONTEXT@@PAXPBU_s_FuncInfo@@H1E@Z 10032ff0 f i libvcruntimed:frame.obj
 0001:000321b0       ??0HandlerMap@__FrameHandler3@@QAE@PBU_s_TryBlockMapEntry@@II@Z 100331b0 f i libvcruntimed:frame.obj
 0001:000321e0       ??0TryBlockMap@__FrameHandler3@@QAE@PBU_s_FuncInfo@@I@Z 100331e0 f i libvcruntimed:frame.obj
 0001:00032210       ??0bad_exception@std@@QAE@ABV01@@Z 10033210 f i libvcruntimed:frame.obj
 0001:00032240       ??0bad_exception@std@@QAE@XZ 10033240 f i libvcruntimed:frame.obj
 0001:00032270       ??0iterator@HandlerMap@__FrameHandler3@@QAE@AAV12@I@Z 10033270 f i libvcruntimed:frame.obj
 0001:000322a0       ??1bad_exception@std@@UAE@XZ 100332a0 f i libvcruntimed:frame.obj
 0001:000322c0       ??8iterator@HandlerMap@__FrameHandler3@@QBE_NABV012@@Z 100332c0 f i libvcruntimed:frame.obj
 0001:000322f0       ??8type_info@@QBE_NABV0@@Z 100332f0 f i libvcruntimed:frame.obj
 0001:00032330       ??9iterator@HandlerMap@__FrameHandler3@@QBE_NABV012@@Z 10033330 f i libvcruntimed:frame.obj
 0001:00032370       ??Diterator@HandlerMap@__FrameHandler3@@QAE?BU_s_HandlerType@@XZ 10033370 f i libvcruntimed:frame.obj
 0001:000323b0       ??Diterator@TryBlockMap@__FrameHandler3@@QAE?BU_s_TryBlockMapEntry@@XZ 100333b0 f i libvcruntimed:frame.obj
 0001:00032400       ??Eiterator@HandlerMap@__FrameHandler3@@QAEAAV012@XZ 10033400 f i libvcruntimed:frame.obj
 0001:00032420       ??Eiterator@TryBlockMap@__FrameHandler3@@QAEAAV012@XZ 10033420 f i libvcruntimed:frame.obj
 0001:00032440       ??Miterator@TryBlockMap@__FrameHandler3@@QBE_NABV012@@Z 10033440 f i libvcruntimed:frame.obj
 0001:00032470       ??_Ebad_exception@std@@UAEPAXI@Z 10033470 f i libvcruntimed:frame.obj
 0001:00032470       ??_Gbad_exception@std@@UAEPAXI@Z 10033470 f i libvcruntimed:frame.obj
 0001:000324a0       ?BuildCatchObject@__FrameHandler3@@SAXPAUEHExceptionRecord@@PAXPBU_s_HandlerType@@PBU_s_CatchableType@@@Z 100334a0 f   libvcruntimed:frame.obj
 0001:000324c0       ?BuildCatchObjectHelper@__FrameHandler3@@SAHPAUEHExceptionRecord@@PAXPBU_s_HandlerType@@PBU_s_CatchableType@@@Z 100334c0 f   libvcruntimed:frame.obj
 0001:00032860       ?FrameUnwindToEmptyState@__FrameHandler3@@SAXPAUEHRegistrationNode@@PAXPBU_s_FuncInfo@@@Z 10033860 f   libvcruntimed:frame.obj
 0001:00032880       ?FrameUnwindToState@__FrameHandler3@@SAXPAUEHRegistrationNode@@PAXPBU_s_FuncInfo@@H@Z 10033880 f   libvcruntimed:frame.obj
 0001:00032a00       ?GetMaxState@__FrameHandler3@@SAHPAXPBU_s_FuncInfo@@@Z 10033a00 f i libvcruntimed:frame.obj
 0001:00032b20       ?TypeMatch@__FrameHandler3@@SAHPBU_s_HandlerType@@PBU_s_CatchableType@@PBU_s_ThrowInfo@@@Z 10033b20 f   libvcruntimed:frame.obj
 0001:00032b40       ?_CallMemberFunction1@@YGXQAX00@Z 10033b40 f i libvcruntimed:frame.obj
 0001:00032b70       ?_CallMemberFunction2@@YGXQAX00H@Z 10033b70 f i libvcruntimed:frame.obj
 0001:00032ba0       ?begin@HandlerMap@__FrameHandler3@@QAE?AViterator@12@XZ 10033ba0 f i libvcruntimed:frame.obj
 0001:00032bc0       ?end@HandlerMap@__FrameHandler3@@QAE?AViterator@12@XZ 10033bc0 f i libvcruntimed:frame.obj
 0001:00032bf0       ?getESTypes@__FrameHandler3@@SAPBU_s_ESTypeList@@PBU_s_FuncInfo@@@Z 10033bf0 f i libvcruntimed:frame.obj
 0001:00032c00       ?getLastEntry@HandlerMap@__FrameHandler3@@QAEPBU_s_HandlerType@@XZ 10033c00 f i libvcruntimed:frame.obj
 0001:00032c20       ?getMagicNum@__FrameHandler3@@SAIPBU_s_FuncInfo@@@Z 10033c20 f i libvcruntimed:frame.obj
 0001:00032c30       ?getNumTryBlocks@TryBlockMap@__FrameHandler3@@QAEIXZ 10033c30 f i libvcruntimed:frame.obj
 0001:00032c50       ?isEHs@__FrameHandler3@@SA_NPBU_s_FuncInfo@@@Z 10033c50 f i libvcruntimed:frame.obj
 0001:00032c80       ?isNoExcept@__FrameHandler3@@SA_NPBU_s_FuncInfo@@@Z 10033c80 f i libvcruntimed:frame.obj
 0001:00032cb0       ___BuildCatchObject        10033cb0 f   libvcruntimed:frame.obj
 0001:00032cd0       ___BuildCatchObjectHelper  10033cd0 f   libvcruntimed:frame.obj
 0001:00032cf0       ___TypeMatch               10033cf0 f   libvcruntimed:frame.obj
 0001:00032d10       ___vcrt_EncodePointer      10033d10 f i libvcruntimed:frame.obj
 0001:00032d20       __CallSettingFrame@12      10033d20 f   libvcruntimed:lowhelpr.obj
 0001:00032d47       __NLG_Return               10033d47     libvcruntimed:lowhelpr.obj
 0001:00032d70       ??$?0$00@DName@@QAE@PBDU?$StringLifeSelector@$00@@@Z 10033d70 f i libvcruntimed:undname.obj
 0001:00032dc0       ??$?0$00@pcharNode@@QAE@PBDHU?$StringLifeSelector@$00@@@Z 10033dc0 f i libvcruntimed:undname.obj
 0001:00032e00       ??$?0$01@DName@@QAE@PBDU?$StringLifeSelector@$01@@@Z 10033e00 f i libvcruntimed:undname.obj
 0001:00032e50       ??$?0$01@pcharNode@@QAE@PBDHU?$StringLifeSelector@$01@@@Z 10033e50 f i libvcruntimed:undname.obj
 0001:00032ed0       ??$?0$0A@@DName@@QAE@PBDU?$StringLifeSelector@$0A@@@@Z 10033ed0 f i libvcruntimed:undname.obj
 0001:00032f20       ??$?0$0A@@pcharNode@@QAE@PBDHU?$StringLifeSelector@$0A@@@@Z 10033f20 f i libvcruntimed:undname.obj
 0001:00032fa0       ??$?0_K$0A@@?$optional@_K@std@@QAE@$$QA_K@Z 10033fa0 f i libvcruntimed:undname.obj
 0001:00032fe0       ??$?0_K@?$_Optional_construct_base@_K@std@@QAE@Uin_place_t@1@$$QA_K@Z 10033fe0 f i libvcruntimed:undname.obj
 0001:00033010       ??$?0_K@?$_Optional_destruct_base@_K$00@std@@QAE@Uin_place_t@1@$$QA_K@Z 10034010 f i libvcruntimed:undname.obj
 0001:00033040       ??$append@VDNameNode@@@DName@@AAEXPBVDNameNode@@@Z 10034040 f i libvcruntimed:undname.obj
 0001:000330d0       ??$append@VDNameStatusNode@@@DName@@AAEXPBVDNameStatusNode@@@Z 100340d0 f i libvcruntimed:undname.obj
 0001:00033160       ??$append@VcharNode@@@DName@@AAEXPBVcharNode@@@Z 10034160 f i libvcruntimed:undname.obj
 0001:000331f0       ??$append@VpDNameNode@@@DName@@AAEXPBVpDNameNode@@@Z 100341f0 f i libvcruntimed:undname.obj
 0001:00033280       ??$append@VpcharNode@@@DName@@AAEXPBVpcharNode@@@Z 10034280 f i libvcruntimed:undname.obj
 0001:00033310       ??$doPchar@$00@DName@@AAEXPBDH@Z 10034310 f i libvcruntimed:undname.obj
 0001:00033420       ??$doPchar@$01@DName@@AAEXPBDH@Z 10034420 f i libvcruntimed:undname.obj
 0001:00033530       ??$doPchar@$0A@@DName@@AAEXPBDH@Z 10034530 f i libvcruntimed:undname.obj
 0001:00033640       ??$forward@_K@std@@YA$$QA_KAA_K@Z 10034640 f i libvcruntimed:undname.obj
 0001:00033650       ??$size@D$04@std@@YAIAAY04$$CBD@Z 10034650 f i libvcruntimed:undname.obj
 0001:00033660       ??$size@D$0EB@@std@@YAIAAY0EB@$$CBD@Z 10034660 f i libvcruntimed:undname.obj
 0001:00033670       ??0?$_Optional_construct_base@_K@std@@QAE@XZ 10034670 f i libvcruntimed:undname.obj
 0001:00033690       ??0?$_Optional_destruct_base@_K$00@std@@QAE@XZ 10034690 f i libvcruntimed:undname.obj
 0001:000336b0       ??0?$optional@_K@std@@QAE@XZ 100346b0 f i libvcruntimed:undname.obj
 0001:000336d0       ??0Block@_HeapManager@@QAE@XZ 100346d0 f i libvcruntimed:undname.obj
 0001:000336f0       ??0DName@@QAE@AAPBDD@Z     100346f0 f   libvcruntimed:undname.obj
 0001:00033860       ??0DName@@QAE@ABUStringLiteral@@@Z 10034860 f   libvcruntimed:undname.obj
 0001:000338b0       ??0DName@@QAE@ABV0@@Z      100348b0 f i libvcruntimed:undname.obj
 0001:000338e0       ??0DName@@QAE@D@Z          100348e0 f   libvcruntimed:undname.obj
 0001:00033910       ??0DName@@QAE@PAV0@@Z      10034910 f   libvcruntimed:undname.obj
 0001:000339c0       ??0DName@@QAE@W4DNameStatus@@@Z 100349c0 f   libvcruntimed:undname.obj
 0001:00033a60       ??0DName@@QAE@XZ           10034a60 f i libvcruntimed:undname.obj
 0001:00033a90       ??0DName@@QAE@_J@Z         10034a90 f   libvcruntimed:undname.obj
 0001:00033b80       ??0DName@@QAE@_K@Z         10034b80 f   libvcruntimed:undname.obj
 0001:00033c30       ??0DNameNode@@IAE@XZ       10034c30 f i libvcruntimed:undname.obj
 0001:00033c50       ??0Replicator@@QAE@XZ      10034c50 f i libvcruntimed:undname.obj
 0001:00033c90       ??0UnDecorator@@QAE@PBDP6APADJ@ZK@Z 10034c90 f i libvcruntimed:undname.obj
 0001:00033d10       ??0_Nontrivial_dummy_type@std@@QAE@XZ 10034d10 f i libvcruntimed:undname.obj
 0001:00033d20       ??0charNode@@QAE@D@Z       10034d20 f i libvcruntimed:undname.obj
 0001:00033d50       ??0pDNameNode@@QAE@PAVDName@@@Z 10034d50 f   libvcruntimed:undname.obj
 0001:00033db0       ??0pairNode@@QAE@PBVDNameNode@@0@Z 10034db0 f i libvcruntimed:undname.obj
 0001:00033e10       ??2@YAPAXIAAV_HeapManager@@H@Z 10034e10 f   libvcruntimed:undname.obj
 0001:00033e50       ??4DName@@QAEAAV0@ABUStringLiteral@@@Z 10034e50 f   libvcruntimed:undname.obj
 0001:00033e90       ??4DName@@QAEAAV0@ABV0@@Z  10034e90 f   libvcruntimed:undname.obj
 0001:00033ec0       ??4DName@@QAEAAV0@D@Z      10034ec0 f i libvcruntimed:undname.obj
 0001:00033ef0       ??4DName@@QAEAAV0@PAV0@@Z  10034ef0 f   libvcruntimed:undname.obj
 0001:00033f90       ??4DName@@QAEAAV0@W4DNameStatus@@@Z 10034f90 f   libvcruntimed:undname.obj
 0001:00034010       ??AReplicator@@QBE?AVDName@@H@Z 10035010 f   libvcruntimed:undname.obj
 0001:00034080       ??B?$optional@_K@std@@QBE_NXZ 10035080 f i libvcruntimed:undname.obj
 0001:000340a0       ??D?$optional@_K@std@@QGAEAA_KXZ 100350a0 f i libvcruntimed:undname.obj
 0001:000340b0       ??H@YA?AVDName@@ABUStringLiteral@@ABV0@@Z 100350b0 f i libvcruntimed:undname.obj
 0001:000340e0       ??H@YA?AVDName@@DABV0@@Z   100350e0 f i libvcruntimed:undname.obj
 0001:00034110       ??H@YA?AVDName@@W4DNameStatus@@ABV0@@Z 10035110 f i libvcruntimed:undname.obj
 0001:00034140       ??HDName@@QBE?AV0@ABUStringLiteral@@@Z 10035140 f   libvcruntimed:undname.obj
 0001:00034180       ??HDName@@QBE?AV0@ABV0@@Z  10035180 f   libvcruntimed:undname.obj
 0001:000341c0       ??HDName@@QBE?AV0@D@Z      100351c0 f   libvcruntimed:undname.obj
 0001:00034200       ??HDName@@QBE?AV0@PAV0@@Z  10035200 f   libvcruntimed:undname.obj
 0001:00034240       ??HDName@@QBE?AV0@W4DNameStatus@@@Z 10035240 f   libvcruntimed:undname.obj
 0001:00034280       ??HStringLiteral@@QBE?AU0@H@Z 10035280 f i libvcruntimed:undname.obj
 0001:000342b0       ??YDName@@QAEAAV0@ABUStringLiteral@@@Z 100352b0 f   libvcruntimed:undname.obj
 0001:00034350       ??YDName@@QAEAAV0@ABV0@@Z  10035350 f   libvcruntimed:undname.obj
 0001:000343f0       ??YDName@@QAEAAV0@D@Z      100353f0 f   libvcruntimed:undname.obj
 0001:00034470       ??YDName@@QAEAAV0@PAV0@@Z  10035470 f   libvcruntimed:undname.obj
 0001:00034520       ??YDName@@QAEAAV0@W4DNameStatus@@@Z 10035520 f   libvcruntimed:undname.obj
 0001:00034580       ??YReplicator@@QAEAAV0@ABVDName@@@Z 10035580 f   libvcruntimed:undname.obj
 0001:00034610       ??_5DName@@QAEAAV0@ABV0@@Z 10035610 f   libvcruntimed:undname.obj
 0001:00034670       ??__K_l@@YA?AUStringLiteral@@PBDI@Z 10035670 f i libvcruntimed:undname.obj
 0001:00034690       ?Constructor@_HeapManager@@QAEXP6APAXI@ZP6AXPAX@Z@Z 10035690 f i libvcruntimed:undname.obj
 0001:000346d0       ?Destructor@_HeapManager@@QAEXXZ 100356d0 f i libvcruntimed:undname.obj
 0001:00034740       ?UScore@UnDecorator@@SA?AUStringLiteral@@W4Tokens@@@Z 10035740 f   libvcruntimed:undname.obj
 0001:00034790       ?composeDeclaration@UnDecorator@@CA?AVDName@@ABV2@@Z 10035790 f i libvcruntimed:undname.obj
 0001:00036700       ?dbGetString@DName@@QBEPADXZ 10037700 f   libvcruntimed:undname.obj
 0001:00036720       ?doAccessSpecifiers@UnDecorator@@SAHXZ 10037720 f i libvcruntimed:undname.obj
 0001:00036750       ?doAllocationLanguage@UnDecorator@@SAHXZ 10037750 f i libvcruntimed:undname.obj
 0001:00036780       ?doAllocationModel@UnDecorator@@SAHXZ 10037780 f i libvcruntimed:undname.obj
 0001:000367b0       ?doEcsu@UnDecorator@@SAHXZ 100377b0 f i libvcruntimed:undname.obj
 0001:000367e0       ?doEllipsis@UnDecorator@@SAHXZ 100377e0 f i libvcruntimed:undname.obj
 0001:00036810       ?doFunctionReturns@UnDecorator@@SAHXZ 10037810 f i libvcruntimed:undname.obj
 0001:00036840       ?doMSKeywords@UnDecorator@@SAHXZ 10037840 f i libvcruntimed:undname.obj
 0001:00036870       ?doMemberTypes@UnDecorator@@SAHXZ 10037870 f i libvcruntimed:undname.obj
 0001:000368a0       ?doNameOnly@UnDecorator@@SAHXZ 100378a0 f i libvcruntimed:undname.obj
 0001:000368b0       ?doNoIdentCharCheck@UnDecorator@@SAHXZ 100378b0 f i libvcruntimed:undname.obj
 0001:000368c0       ?doPchar@DName@@AAEXD@Z    100378c0 f   libvcruntimed:undname.obj
 0001:00036930       ?doPtr64@UnDecorator@@SAHXZ 10037930 f i libvcruntimed:undname.obj
 0001:00036960       ?doRestrictionSpec@UnDecorator@@SAHXZ 10037960 f i libvcruntimed:undname.obj
 0001:00036990       ?doThisTypes@UnDecorator@@SAHXZ 10037990 f i libvcruntimed:undname.obj
 0001:000369c0       ?doThrowTypes@UnDecorator@@SAHXZ 100379c0 f i libvcruntimed:undname.obj
 0001:000369f0       ?doTypeOnly@UnDecorator@@SAHXZ 100379f0 f i libvcruntimed:undname.obj
 0001:00036a00       ?doUnderScore@UnDecorator@@SAHXZ 10037a00 f i libvcruntimed:undname.obj
 0001:00036a30       ?getArgumentList@UnDecorator@@CA?AVDName@@XZ 10037a30 f   libvcruntimed:undname.obj
 0001:00036b80       ?getArgumentTypes@UnDecorator@@CA?AVDName@@XZ 10037b80 f   libvcruntimed:undname.obj
 0001:00036d90       ?getArrayObject@UnDecorator@@CA?AVDName@@XZ 10037d90 f   libvcruntimed:undname.obj
 0001:00036e70       ?getArrayType@UnDecorator@@CA?AVDName@@ABV2@@Z 10037e70 f i libvcruntimed:undname.obj
 0001:00037110       ?getBasedType@UnDecorator@@CA?AVDName@@XZ 10038110 f   libvcruntimed:undname.obj
 0001:00037200       ?getBasicDataType@UnDecorator@@CA?AVDName@@ABV2@@Z 10038200 f   libvcruntimed:undname.obj
 0001:00037b10       ?getCHPEName@UnDecorator@@QAEPADPADH@Z 10038b10 f i libvcruntimed:undname.obj
 0001:00037c70       ?getCallIndex@UnDecorator@@CA?AVDName@@XZ 10038c70 f i libvcruntimed:undname.obj
 0001:00037c90       ?getCallingConvention@UnDecorator@@CA?AVDName@@XZ 10038c90 f   libvcruntimed:undname.obj
 0001:00037ed0       ?getDataIndirectType@UnDecorator@@CA?AVDName@@ABV2@W4IndirectionKind@@0H@Z 10038ed0 f   libvcruntimed:undname.obj
 0001:000387f0       ?getDataIndirectType@UnDecorator@@CA?AVDName@@XZ 100397f0 f i libvcruntimed:undname.obj
 0001:00038830       ?getDataType@UnDecorator@@CA?AVDName@@PAV2@@Z 10039830 f   libvcruntimed:undname.obj
 0001:00038970       ?getDecoratedName@UnDecorator@@CA?AVDName@@XZ 10039970 f   libvcruntimed:undname.obj
 0001:00038db0       ?getDimension@UnDecorator@@CA?AVDName@@_N@Z 10039db0 f   libvcruntimed:undname.obj
 0001:00039010       ?getDispatchTarget@UnDecorator@@CA?AVDName@@XZ 1003a010 f   libvcruntimed:undname.obj
 0001:000390b0       ?getDisplacement@UnDecorator@@CA?AVDName@@XZ 1003a0b0 f i libvcruntimed:undname.obj
 0001:000390d0       ?getECSUDataType@UnDecorator@@CA?AVDName@@XZ 1003a0d0 f   libvcruntimed:undname.obj
 0001:00039330       ?getECSUName@UnDecorator@@CA?AVDName@@XZ 1003a330 f i libvcruntimed:undname.obj
 0001:00039350       ?getEnumType@UnDecorator@@CA?AVDName@@XZ 1003a350 f i libvcruntimed:undname.obj
 0001:00039500       ?getExtendedDataIndirectType@UnDecorator@@CA?AVDName@@AAW4IndirectionKind@@AA_NH@Z 1003a500 f   libvcruntimed:undname.obj
 0001:00039750       ?getExternalDataType@UnDecorator@@CA?AVDName@@ABV2@@Z 1003a750 f i libvcruntimed:undname.obj
 0001:000397f0       ?getFloatingPoint@UnDecorator@@CA?AVDName@@H@Z 1003a7f0 f   libvcruntimed:undname.obj
 0001:000399a0       ?getFunctionIndirectType@UnDecorator@@CA?AVDName@@ABV2@@Z 1003a9a0 f   libvcruntimed:undname.obj
 0001:00039e80       ?getGuardNumber@UnDecorator@@CA?AVDName@@XZ 1003ae80 f i libvcruntimed:undname.obj
 0001:00039ea0       ?getLastChar@DName@@QBEDXZ 1003aea0 f i libvcruntimed:undname.obj
 0001:00039ee0       ?getLastChar@DNameStatusNode@@UBEDXZ 1003aee0 f i libvcruntimed:undname.obj
 0001:00039f10       ?getLastChar@charNode@@UBEDXZ 1003af10 f i libvcruntimed:undname.obj
 0001:00039f30       ?getLastChar@pDNameNode@@UBEDXZ 1003af30 f i libvcruntimed:undname.obj
 0001:00039f60       ?getLastChar@pairNode@@UBEDXZ 1003af60 f i libvcruntimed:undname.obj
 0001:00039fd0       ?getLastChar@pcharNode@@UBEDXZ 1003afd0 f i libvcruntimed:undname.obj
 0001:0003a010       ?getLexicalFrame@UnDecorator@@CA?AVDName@@XZ 1003b010 f i libvcruntimed:undname.obj
 0001:0003a050       ?getMemoryWithBuffer@_HeapManager@@QAEPAXI@Z 1003b050 f   libvcruntimed:undname.obj
 0001:0003a140       ?getMemoryWithoutBuffer@_HeapManager@@QAEPAXI@Z 1003b140 f   libvcruntimed:undname.obj
 0001:0003a180       ?getNoexcept@UnDecorator@@CA?AVDName@@XZ 1003b180 f   libvcruntimed:undname.obj
 0001:0003a200       ?getNumberOfDimensions@UnDecorator@@CAHXZ 1003b200 f   libvcruntimed:undname.obj
 0001:0003a300       ?getOperatorName@UnDecorator@@CA?AVDName@@_NPA_N@Z 1003b300 f i libvcruntimed:undname.obj
 0001:0003adf0       ?getPointerType@UnDecorator@@CA?AVDName@@ABV2@0@Z 1003bdf0 f i libvcruntimed:undname.obj
 0001:0003ae10       ?getPointerTypeArray@UnDecorator@@CA?AVDName@@ABV2@0@Z 1003be10 f i libvcruntimed:undname.obj
 0001:0003ae30       ?getPrimaryDataType@UnDecorator@@CA?AVDName@@ABV2@@Z 1003be30 f   libvcruntimed:undname.obj
 0001:0003b2c0       ?getPtrRefDataType@UnDecorator@@CA?AVDName@@ABV2@H@Z 1003c2c0 f   libvcruntimed:undname.obj
 0001:0003b570       ?getPtrRefType@UnDecorator@@CA?AVDName@@ABV2@0W4IndirectionKind@@@Z 1003c570 f   libvcruntimed:undname.obj
 0001:0003b6f0       ?getReferenceType@UnDecorator@@CA?AVDName@@ABV2@0W4IndirectionKind@@@Z 1003c6f0 f i libvcruntimed:undname.obj
 0001:0003b710       ?getRestrictionSpec@UnDecorator@@CA?AVDName@@XZ 1003c710 f   libvcruntimed:undname.obj
 0001:0003b8d0       ?getReturnType@UnDecorator@@CA?AVDName@@PAV2@@Z 1003c8d0 f   libvcruntimed:undname.obj
 0001:0003b920       ?getScope@UnDecorator@@CA?AVDName@@XZ 1003c920 f   libvcruntimed:undname.obj
 0001:0003beb0       ?getScopedName@UnDecorator@@CA?AVDName@@XZ 1003ceb0 f   libvcruntimed:undname.obj
 0001:0003c000       ?getSignedDimension@UnDecorator@@CA?AVDName@@XZ 1003d000 f   libvcruntimed:undname.obj
 0001:0003c080       ?getStorageConvention@UnDecorator@@CA?AVDName@@XZ 1003d080 f i libvcruntimed:undname.obj
 0001:0003c0a0       ?getString@DName@@QBEPADPAD0@Z 1003d0a0 f i libvcruntimed:undname.obj
 0001:0003c100       ?getString@DName@@QBEPADPADH@Z 1003d100 f i libvcruntimed:undname.obj
 0001:0003c190       ?getString@DNameStatusNode@@UBEPADPAD0@Z 1003d190 f i libvcruntimed:undname.obj
 0001:0003c1d0       ?getString@charNode@@UBEPADPAD0@Z 1003d1d0 f i libvcruntimed:undname.obj
 0001:0003c200       ?getString@pDNameNode@@UBEPADPAD0@Z 1003d200 f i libvcruntimed:undname.obj
 0001:0003c240       ?getString@pairNode@@UBEPADPAD0@Z 1003d240 f i libvcruntimed:undname.obj
 0001:0003c2d0       ?getString@pcharNode@@UBEPADPAD0@Z 1003d2d0 f i libvcruntimed:undname.obj
 0001:0003c300       ?getStringEncoding@UnDecorator@@CA?AVDName@@W4PrefixKind@@H@Z 1003d300 f   libvcruntimed:undname.obj
 0001:0003c410       ?getStringHelper@@YAPADPADPBD1H@Z 1003d410 f i libvcruntimed:undname.obj
 0001:0003c450       ?getStringObject@UnDecorator@@CA?AVDName@@XZ 1003d450 f   libvcruntimed:undname.obj
 0001:0003c500       ?getSymbolName@UnDecorator@@CA?AVDName@@XZ 1003d500 f i libvcruntimed:undname.obj
 0001:0003c590       ?getTemplateArgumentList@UnDecorator@@CA?AVDName@@XZ 1003d590 f   libvcruntimed:undname.obj
 0001:0003c880       ?getTemplateName@UnDecorator@@CA?AVDName@@_N@Z 1003d880 f   libvcruntimed:undname.obj
 0001:0003ca40       ?getTemplateNonTypeArgument@UnDecorator@@CA?AVDName@@XZ 1003da40 f   libvcruntimed:undname.obj
 0001:0003cf80       ?getTemplateTypeArgument@UnDecorator@@CA?AVDName@@XZ 1003df80 f   libvcruntimed:undname.obj
 0001:0003d120       ?getThisType@UnDecorator@@CA?AVDName@@XZ 1003e120 f i libvcruntimed:undname.obj
 0001:0003d160       ?getThrowTypes@UnDecorator@@CA?AVDName@@XZ 1003e160 f   libvcruntimed:undname.obj
 0001:0003d1a0       ?getTypeEncoding@UnDecorator@@CAHXZ 1003e1a0 f i libvcruntimed:undname.obj
 0001:0003dc60       ?getUndecoratedName@UnDecorator@@QAEPADPADH@Z 1003ec60 f i libvcruntimed:undname.obj
 0001:0003ddc0       ?getVCallThunkType@UnDecorator@@CA?AVDName@@XZ 1003edc0 f i libvcruntimed:undname.obj
 0001:0003de40       ?getValue@UnDecorator@@CA?AV?$optional@_K@std@@XZ 1003ee40 f   libvcruntimed:undname.obj
 0001:0003df00       ?getValueObject@UnDecorator@@CA?AVDName@@XZ 1003ef00 f   libvcruntimed:undname.obj
 0001:0003e0c0       ?getVbTableType@UnDecorator@@CA?AVDName@@ABV2@@Z 1003f0c0 f i libvcruntimed:undname.obj
 0001:0003e0e0       ?getVdispMapType@UnDecorator@@CA?AVDName@@ABV2@@Z 1003f0e0 f i libvcruntimed:undname.obj
 0001:0003e170       ?getVfTableType@UnDecorator@@CA?AVDName@@ABV2@@Z 1003f170 f i libvcruntimed:undname.obj
 0001:0003e370       ?getZName@UnDecorator@@CA?AVDName@@_N0@Z 1003f370 f   libvcruntimed:undname.obj
 0001:0003e6b0       ?haveTemplateParameters@UnDecorator@@SAHXZ 1003f6b0 f i libvcruntimed:undname.obj
 0001:0003e6c0       ?isArray@DName@@QBEHXZ     1003f6c0 f i libvcruntimed:undname.obj
 0001:0003e6e0       ?isComArray@DName@@QBEHXZ  1003f6e0 f i libvcruntimed:undname.obj
 0001:0003e700       ?isEmpty@DName@@QBEHXZ     1003f700 f i libvcruntimed:undname.obj
 0001:0003e730       ?isFull@Replicator@@QBEHXZ 1003f730 f i libvcruntimed:undname.obj
 0001:0003e760       ?isNoTE@DName@@QBEHXZ      1003f760 f i libvcruntimed:undname.obj
 0001:0003e780       ?isPinPtr@DName@@QBEHXZ    1003f780 f i libvcruntimed:undname.obj
 0001:0003e7a0       ?isPtrRef@DName@@QBEHXZ    1003f7a0 f i libvcruntimed:undname.obj
 0001:0003e7c0       ?isUDC@DName@@QBEHXZ       1003f7c0 f i libvcruntimed:undname.obj
 0001:0003e800       ?isUDTThunk@DName@@QBEHXZ  1003f800 f i libvcruntimed:undname.obj
 0001:0003e840       ?isVCallThunk@DName@@QBEHXZ 1003f840 f i libvcruntimed:undname.obj
 0001:0003e860       ?isValid@DName@@QBEHXZ     1003f860 f i libvcruntimed:undname.obj
 0001:0003e8a0       ?length@DName@@QBEHXZ      1003f8a0 f i libvcruntimed:undname.obj
 0001:0003e8e0       ?length@DNameStatusNode@@UBEHXZ 1003f8e0 f i libvcruntimed:undname.obj
 0001:0003e900       ?length@charNode@@UBEHXZ   1003f900 f i libvcruntimed:undname.obj
 0001:0003e910       ?length@pDNameNode@@UBEHXZ 1003f910 f i libvcruntimed:undname.obj
 0001:0003e940       ?length@pairNode@@UBEHXZ   1003f940 f i libvcruntimed:undname.obj
 0001:0003e9b0       ?length@pcharNode@@UBEHXZ  1003f9b0 f i libvcruntimed:undname.obj
 0001:0003e9d0       ?make@DNameStatusNode@@SAPBV1@W4DNameStatus@@@Z 1003f9d0 f i libvcruntimed:undname.obj
 0001:0003ea00       ?parseDecoratedName@UnDecorator@@CA?AVDName@@XZ 1003fa00 f   libvcruntimed:undname.obj
 0001:0003eb90       ?raw_length@DNameStatusNode@@UBEHXZ 1003fb90 f i libvcruntimed:undname.obj
 0001:0003ebb0       ?raw_length@charNode@@UBEHXZ 1003fbb0 f i libvcruntimed:undname.obj
 0001:0003ebd0       ?raw_length@pDNameNode@@UBEHXZ 1003fbd0 f i libvcruntimed:undname.obj
 0001:0003ebe0       ?raw_length@pairNode@@UBEHXZ 1003fbe0 f i libvcruntimed:undname.obj
 0001:0003ec00       ?raw_length@pcharNode@@UBEHXZ 1003fc00 f i libvcruntimed:undname.obj
 0001:0003ec20       ?setIsArray@DName@@QAEXXZ  1003fc20 f i libvcruntimed:undname.obj
 0001:0003ec40       ?setIsComArray@DName@@QAEXXZ 1003fc40 f i libvcruntimed:undname.obj
 0001:0003ec60       ?setIsNoTE@DName@@QAEXXZ   1003fc60 f i libvcruntimed:undname.obj
 0001:0003ec80       ?setIsPinPtr@DName@@QAEXXZ 1003fc80 f i libvcruntimed:undname.obj
 0001:0003eca0       ?setIsUDC@DName@@QAEXXZ    1003fca0 f i libvcruntimed:undname.obj
 0001:0003ecd0       ?setIsVCallThunk@DName@@QAEXXZ 1003fcd0 f i libvcruntimed:undname.obj
 0001:0003ecf0       ?setPtrRef@DName@@QAEAAV1@XZ 1003fcf0 f i libvcruntimed:undname.obj
 0001:0003ed10       ?status@DName@@QBE?AW4DNameStatus@@XZ 1003fd10 f i libvcruntimed:undname.obj
 0001:0003ee10       ___unDName                 1003fe10 f   libvcruntimed:undname.obj
 0001:0003ee40       ___unDNameEx               1003fe40 f   libvcruntimed:undname.obj
 0001:0003ef10       _unDNameGenerateCHPE       1003ff10 f   libvcruntimed:undname.obj
 0001:0003ef70       __global_unwind2           1003ff70 f   libvcruntimed:exsup.obj
 0001:0003efd6       __local_unwind2            1003ffd6 f   libvcruntimed:exsup.obj
 0001:0003f05a       __abnormal_termination     1004005a f   libvcruntimed:exsup.obj
 0001:0003f080       __NLG_Notify1              10040080 f   libvcruntimed:exsup.obj
 0001:0003f08c       __NLG_Notify               1004008c f   libvcruntimed:exsup.obj
 0001:0003f0a3       __NLG_Dispatch             100400a3     libvcruntimed:exsup.obj
 0001:0003f0a3       __NLG_Dispatch2            100400a3     libvcruntimed:exsup.obj
 0001:0003f0ab       __NLG_Call                 100400ab f   libvcruntimed:exsup.obj
 0001:0003f0ad       __NLG_Return2              100400ad     libvcruntimed:exsup.obj
 0001:0003f0b0       ??$__crt_interlocked_exchange_pointer@UHINSTANCE__@@PAU1@@@YAPAUHINSTANCE__@@PDSAU0@QAU0@@Z 100400b0 f i libvcruntimed:winapi_downlevel.obj
 0001:0003f0c0       ??$__crt_interlocked_exchange_pointer@UHINSTANCE__@@PAX@@YAPAUHINSTANCE__@@PDSAU0@QAX@Z 100400c0 f i libvcruntimed:winapi_downlevel.obj
 0001:0003f0d0       ??$__crt_interlocked_exchange_pointer@XPAX@@YAPAXPDSAXQAX@Z 100400d0 f i libvcruntimed:winapi_downlevel.obj
 0001:0003f0e0       ??$__crt_interlocked_read_pointer@UHINSTANCE__@@@@YAPAUHINSTANCE__@@PDSAU0@@Z 100400e0 f i libvcruntimed:winapi_downlevel.obj
 0001:0003f100       ??$__crt_interlocked_read_pointer@X@@YAPAXPDSAX@Z 10040100 f i libvcruntimed:winapi_downlevel.obj
 0001:0003f4d0       ___vcrt_FlsAlloc           100404d0 f   libvcruntimed:winapi_downlevel.obj
 0001:0003f510       ___vcrt_FlsFree            10040510 f   libvcruntimed:winapi_downlevel.obj
 0001:0003f550       ___vcrt_FlsGetValue        10040550 f   libvcruntimed:winapi_downlevel.obj
 0001:0003f590       ___vcrt_FlsSetValue        10040590 f   libvcruntimed:winapi_downlevel.obj
 0001:0003f5e0       ___vcrt_InitializeCriticalSectionEx 100405e0 f   libvcruntimed:winapi_downlevel.obj
 0001:0003f660       __get_unexpected           10040660 f   libvcruntimed:unexpected.obj
 0001:0003f680       _set_unexpected            10040680 f   libvcruntimed:unexpected.obj
 0001:0003f6b0       _unexpected                100406b0 f   libvcruntimed:unexpected.obj
 0001:0003f6f0       ?GetCurrentState@__FrameHandler3@@SAHPAUEHRegistrationNode@@PAXPBU_s_FuncInfo@@@Z 100406f0 f   libvcruntimed:ehstate.obj
 0001:0003f720       ?SetState@__FrameHandler3@@SAXPAUEHRegistrationNode@@PBU_s_FuncInfo@@H@Z 10040720 f   libvcruntimed:ehstate.obj
 0001:0003f730       ??$?0ABV?$stream_output_adapter@D@__crt_stdio_output@@AB_KABQBDABQAU__crt_locale_pointers@@ABQAD@?$format_validation_base@DV?$stream_output_adapter@D@__crt_stdio_output@@@__crt_stdio_output@@IAE@ABV?$stream_output_adapter@D@1@AB_KABQBDABQAU__crt_locale_pointers@@ABQAD@Z 10040730 f i libucrtd:output.obj
 0001:0003f760       ??$?0ABV?$stream_output_adapter@D@__crt_stdio_output@@AB_KABQBDABQAU__crt_locale_pointers@@ABQAD@?$positional_parameter_base@DV?$stream_output_adapter@D@__crt_stdio_output@@@__crt_stdio_output@@IAE@ABV?$stream_output_adapter@D@1@AB_KABQBDABQAU__crt_locale_pointers@@ABQAD@Z 10040760 f i libucrtd:output.obj
 0001:0003f7e0       ??$?0ABV?$stream_output_adapter@D@__crt_stdio_output@@AB_KABQBDABQAU__crt_locale_pointers@@ABQAD@?$standard_base@DV?$stream_output_adapter@D@__crt_stdio_output@@@__crt_stdio_output@@IAE@ABV?$stream_output_adapter@D@1@AB_KABQBDABQAU__crt_locale_pointers@@ABQAD@Z 100407e0 f i libucrtd:output.obj
 0001:0003f830       ??$?0ABV?$stream_output_adapter@_W@__crt_stdio_output@@AB_KABQB_WABQAU__crt_locale_pointers@@ABQAD@?$format_validation_base@_WV?$stream_output_adapter@_W@__crt_stdio_output@@@__crt_stdio_output@@IAE@ABV?$stream_output_adapter@_W@1@AB_KABQB_WABQAU__crt_locale_pointers@@ABQAD@Z 10040830 f i libucrtd:output.obj
 0001:0003f860       ??$?0ABV?$stream_output_adapter@_W@__crt_stdio_output@@AB_KABQB_WABQAU__crt_locale_pointers@@ABQAD@?$positional_parameter_base@_WV?$stream_output_adapter@_W@__crt_stdio_output@@@__crt_stdio_output@@IAE@ABV?$stream_output_adapter@_W@1@AB_KABQB_WABQAU__crt_locale_pointers@@ABQAD@Z 10040860 f i libucrtd:output.obj
 0001:0003f8e0       ??$?0ABV?$stream_output_adapter@_W@__crt_stdio_output@@AB_KABQB_WABQAU__crt_locale_pointers@@ABQAD@?$standard_base@_WV?$stream_output_adapter@_W@__crt_stdio_output@@@__crt_stdio_output@@IAE@ABV?$stream_output_adapter@_W@1@AB_KABQB_WABQAU__crt_locale_pointers@@ABQAD@Z 100408e0 f i libucrtd:output.obj
 0001:0003f930       ??$?0ABV?$string_output_adapter@D@__crt_stdio_output@@AB_KABQBDABQAU__crt_locale_pointers@@ABQAD@?$format_validation_base@DV?$string_output_adapter@D@__crt_stdio_output@@@__crt_stdio_output@@IAE@ABV?$string_output_adapter@D@1@AB_KABQBDABQAU__crt_locale_pointers@@ABQAD@Z 10040930 f i libucrtd:output.obj
 0001:0003f960       ??$?0ABV?$string_output_adapter@D@__crt_stdio_output@@AB_KABQBDABQAU__crt_locale_pointers@@ABQAD@?$positional_parameter_base@DV?$string_output_adapter@D@__crt_stdio_output@@@__crt_stdio_output@@IAE@ABV?$string_output_adapter@D@1@AB_KABQBDABQAU__crt_locale_pointers@@ABQAD@Z 10040960 f i libucrtd:output.obj
 0001:0003f9e0       ??$?0ABV?$string_output_adapter@D@__crt_stdio_output@@AB_KABQBDABQAU__crt_locale_pointers@@ABQAD@?$standard_base@DV?$string_output_adapter@D@__crt_stdio_output@@@__crt_stdio_output@@IAE@ABV?$string_output_adapter@D@1@AB_KABQBDABQAU__crt_locale_pointers@@ABQAD@Z 100409e0 f i libucrtd:output.obj
 0001:0003fa30       ??$?0ABV?$string_output_adapter@_W@__crt_stdio_output@@AB_KABQB_WABQAU__crt_locale_pointers@@ABQAD@?$format_validation_base@_WV?$string_output_adapter@_W@__crt_stdio_output@@@__crt_stdio_output@@IAE@ABV?$string_output_adapter@_W@1@AB_KABQB_WABQAU__crt_locale_pointers@@ABQAD@Z 10040a30 f i libucrtd:output.obj
 0001:0003fa60       ??$?0ABV?$string_output_adapter@_W@__crt_stdio_output@@AB_KABQB_WABQAU__crt_locale_pointers@@ABQAD@?$positional_parameter_base@_WV?$string_output_adapter@_W@__crt_stdio_output@@@__crt_stdio_output@@IAE@ABV?$string_output_adapter@_W@1@AB_KABQB_WABQAU__crt_locale_pointers@@ABQAD@Z 10040a60 f i libucrtd:output.obj
 0001:0003fae0       ??$?0ABV?$string_output_adapter@_W@__crt_stdio_output@@AB_KABQB_WABQAU__crt_locale_pointers@@ABQAD@?$standard_base@_WV?$string_output_adapter@_W@__crt_stdio_output@@@__crt_stdio_output@@IAE@ABV?$string_output_adapter@_W@1@AB_KABQB_WABQAU__crt_locale_pointers@@ABQAD@Z 10040ae0 f i libucrtd:output.obj
 0001:00040010       ??$__crt_interlocked_read@J@@YAJPDJ@Z 10041010 f i libucrtd:output.obj
 0001:00042db0       ??$count@D@formatting_buffer@__crt_stdio_output@@QBEIXZ 10043db0 f i libucrtd:output.obj
 0001:00042df0       ??$count@_W@formatting_buffer@__crt_stdio_output@@QBEIXZ 10043df0 f i libucrtd:output.obj
 0001:00042e30       ??$data@D@formatting_buffer@__crt_stdio_output@@QAEPADXZ 10043e30 f i libucrtd:output.obj
 0001:00042e70       ??$data@_W@formatting_buffer@__crt_stdio_output@@QAEPA_WXZ 10043e70 f i libucrtd:output.obj
 0001:00042eb0       ??$ensure_buffer_is_big_enough@D@formatting_buffer@__crt_stdio_output@@QAE_NI@Z 10043eb0 f i libucrtd:output.obj
 0001:00042f90       ??$ensure_buffer_is_big_enough@_W@formatting_buffer@__crt_stdio_output@@QAE_NI@Z 10043f90 f i libucrtd:output.obj
 0001:00043080       ??$extract_argument_from_va_list@C_J@?$positional_parameter_base@DV?$stream_output_adapter@D@__crt_stdio_output@@@__crt_stdio_output@@IAE_NAA_J@Z 10044080 f i libucrtd:output.obj
 0001:000431c0       ??$extract_argument_from_va_list@C_J@?$positional_parameter_base@DV?$string_output_adapter@D@__crt_stdio_output@@@__crt_stdio_output@@IAE_NAA_J@Z 100441c0 f i libucrtd:output.obj
 0001:00043300       ??$extract_argument_from_va_list@C_J@?$positional_parameter_base@_WV?$stream_output_adapter@_W@__crt_stdio_output@@@__crt_stdio_output@@IAE_NAA_J@Z 10044300 f i libucrtd:output.obj
 0001:00043440       ??$extract_argument_from_va_list@C_J@?$positional_parameter_base@_WV?$string_output_adapter@_W@__crt_stdio_output@@@__crt_stdio_output@@IAE_NAA_J@Z 10044440 f i libucrtd:output.obj
 0001:00043580       ??$extract_argument_from_va_list@C_J@?$standard_base@DV?$stream_output_adapter@D@__crt_stdio_output@@@__crt_stdio_output@@IAE_NAA_J@Z 10044580 f i libucrtd:output.obj
 0001:000435b0       ??$extract_argument_from_va_list@C_J@?$standard_base@DV?$string_output_adapter@D@__crt_stdio_output@@@__crt_stdio_output@@IAE_NAA_J@Z 100445b0 f i libucrtd:output.obj
 0001:000435e0       ??$extract_argument_from_va_list@C_J@?$standard_base@_WV?$stream_output_adapter@_W@__crt_stdio_output@@@__crt_stdio_output@@IAE_NAA_J@Z 100445e0 f i libucrtd:output.obj
 0001:00043610       ??$extract_argument_from_va_list@C_J@?$standard_base@_WV?$string_output_adapter@_W@__crt_stdio_output@@@__crt_stdio_output@@IAE_NAA_J@Z 10044610 f i libucrtd:output.obj
 0001:00043640       ??$extract_argument_from_va_list@E_J@?$positional_parameter_base@DV?$stream_output_adapter@D@__crt_stdio_output@@@__crt_stdio_output@@IAE_NAA_J@Z 10044640 f i libucrtd:output.obj
 0001:00043780       ??$extract_argument_from_va_list@E_J@?$positional_parameter_base@DV?$string_output_adapter@D@__crt_stdio_output@@@__crt_stdio_output@@IAE_NAA_J@Z 10044780 f i libucrtd:output.obj
 0001:000438c0       ??$extract_argument_from_va_list@E_J@?$positional_parameter_base@_WV?$stream_output_adapter@_W@__crt_stdio_output@@@__crt_stdio_output@@IAE_NAA_J@Z 100448c0 f i libucrtd:output.obj
 0001:00043a00       ??$extract_argument_from_va_list@E_J@?$positional_parameter_base@_WV?$string_output_adapter@_W@__crt_stdio_output@@@__crt_stdio_output@@IAE_NAA_J@Z 10044a00 f i libucrtd:output.obj
 0001:00043b40       ??$extract_argument_from_va_list@E_J@?$standard_base@DV?$stream_output_adapter@D@__crt_stdio_output@@@__crt_stdio_output@@IAE_NAA_J@Z 10044b40 f i libucrtd:output.obj
 0001:00043b70       ??$extract_argument_from_va_list@E_J@?$standard_base@DV?$string_output_adapter@D@__crt_stdio_output@@@__crt_stdio_output@@IAE_NAA_J@Z 10044b70 f i libucrtd:output.obj
 0001:00043ba0       ??$extract_argument_from_va_list@E_J@?$standard_base@_WV?$stream_output_adapter@_W@__crt_stdio_output@@@__crt_stdio_output@@IAE_NAA_J@Z 10044ba0 f i libucrtd:output.obj
 0001:00043bd0       ??$extract_argument_from_va_list@E_J@?$standard_base@_WV?$string_output_adapter@_W@__crt_stdio_output@@@__crt_stdio_output@@IAE_NAA_J@Z 10044bd0 f i libucrtd:output.obj
 0001:00043c00       ??$extract_argument_from_va_list@F_J@?$positional_parameter_base@DV?$stream_output_adapter@D@__crt_stdio_output@@@__crt_stdio_output@@IAE_NAA_J@Z 10044c00 f i libucrtd:output.obj
 0001:00043d30       ??$extract_argument_from_va_list@F_J@?$positional_parameter_base@DV?$string_output_adapter@D@__crt_stdio_output@@@__crt_stdio_output@@IAE_NAA_J@Z 10044d30 f i libucrtd:output.obj
 0001:00043e60       ??$extract_argument_from_va_list@F_J@?$positional_parameter_base@_WV?$stream_output_adapter@_W@__crt_stdio_output@@@__crt_stdio_output@@IAE_NAA_J@Z 10044e60 f i libucrtd:output.obj
 0001:00043f90       ??$extract_argument_from_va_list@F_J@?$positional_parameter_base@_WV?$string_output_adapter@_W@__crt_stdio_output@@@__crt_stdio_output@@IAE_NAA_J@Z 10044f90 f i libucrtd:output.obj
 0001:000440c0       ??$extract_argument_from_va_list@F_J@?$standard_base@DV?$stream_output_adapter@D@__crt_stdio_output@@@__crt_stdio_output@@IAE_NAA_J@Z 100450c0 f i libucrtd:output.obj
 0001:000440f0       ??$extract_argument_from_va_list@F_J@?$standard_base@DV?$string_output_adapter@D@__crt_stdio_output@@@__crt_stdio_output@@IAE_NAA_J@Z 100450f0 f i libucrtd:output.obj
 0001:00044120       ??$extract_argument_from_va_list@F_J@?$standard_base@_WV?$stream_output_adapter@_W@__crt_stdio_output@@@__crt_stdio_output@@IAE_NAA_J@Z 10045120 f i libucrtd:output.obj
 0001:00044150       ??$extract_argument_from_va_list@F_J@?$standard_base@_WV?$string_output_adapter@_W@__crt_stdio_output@@@__crt_stdio_output@@IAE_NAA_J@Z 10045150 f i libucrtd:output.obj
 0001:00044180       ??$extract_argument_from_va_list@GD@?$positional_parameter_base@DV?$stream_output_adapter@D@__crt_stdio_output@@@__crt_stdio_output@@IAE_NAAD@Z 10045180 f i libucrtd:output.obj
 0001:000442b0       ??$extract_argument_from_va_list@GD@?$positional_parameter_base@DV?$string_output_adapter@D@__crt_stdio_output@@@__crt_stdio_output@@IAE_NAAD@Z 100452b0 f i libucrtd:output.obj
 0001:000443e0       ??$extract_argument_from_va_list@GD@?$standard_base@DV?$stream_output_adapter@D@__crt_stdio_output@@@__crt_stdio_output@@IAE_NAAD@Z 100453e0 f i libucrtd:output.obj
 0001:00044410       ??$extract_argument_from_va_list@GD@?$standard_base@DV?$string_output_adapter@D@__crt_stdio_output@@@__crt_stdio_output@@IAE_NAAD@Z 10045410 f i libucrtd:output.obj
 0001:00044440       ??$extract_argument_from_va_list@G_J@?$positional_parameter_base@DV?$stream_output_adapter@D@__crt_stdio_output@@@__crt_stdio_output@@IAE_NAA_J@Z 10045440 f i libucrtd:output.obj
 0001:00044580       ??$extract_argument_from_va_list@G_J@?$positional_parameter_base@DV?$string_output_adapter@D@__crt_stdio_output@@@__crt_stdio_output@@IAE_NAA_J@Z 10045580 f i libucrtd:output.obj
 0001:000446c0       ??$extract_argument_from_va_list@G_J@?$positional_parameter_base@_WV?$stream_output_adapter@_W@__crt_stdio_output@@@__crt_stdio_output@@IAE_NAA_J@Z 100456c0 f i libucrtd:output.obj
 0001:00044800       ??$extract_argument_from_va_list@G_J@?$positional_parameter_base@_WV?$string_output_adapter@_W@__crt_stdio_output@@@__crt_stdio_output@@IAE_NAA_J@Z 10045800 f i libucrtd:output.obj
 0001:00044940       ??$extract_argument_from_va_list@G_J@?$standard_base@DV?$stream_output_adapter@D@__crt_stdio_output@@@__crt_stdio_output@@IAE_NAA_J@Z 10045940 f i libucrtd:output.obj
 0001:00044970       ??$extract_argument_from_va_list@G_J@?$standard_base@DV?$string_output_adapter@D@__crt_stdio_output@@@__crt_stdio_output@@IAE_NAA_J@Z 10045970 f i libucrtd:output.obj
 0001:000449a0       ??$extract_argument_from_va_list@G_J@?$standard_base@_WV?$stream_output_adapter@_W@__crt_stdio_output@@@__crt_stdio_output@@IAE_NAA_J@Z 100459a0 f i libucrtd:output.obj
 0001:000449d0       ??$extract_argument_from_va_list@G_J@?$standard_base@_WV?$string_output_adapter@_W@__crt_stdio_output@@@__crt_stdio_output@@IAE_NAA_J@Z 100459d0 f i libucrtd:output.obj
 0001:00044a00       ??$extract_argument_from_va_list@H_J@?$positional_parameter_base@DV?$stream_output_adapter@D@__crt_stdio_output@@@__crt_stdio_output@@IAE_NAA_J@Z 10045a00 f i libucrtd:output.obj
 0001:00044b30       ??$extract_argument_from_va_list@H_J@?$positional_parameter_base@DV?$string_output_adapter@D@__crt_stdio_output@@@__crt_stdio_output@@IAE_NAA_J@Z 10045b30 f i libucrtd:output.obj
 0001:00044c60       ??$extract_argument_from_va_list@H_J@?$positional_parameter_base@_WV?$stream_output_adapter@_W@__crt_stdio_output@@@__crt_stdio_output@@IAE_NAA_J@Z 10045c60 f i libucrtd:output.obj
 0001:00044d90       ??$extract_argument_from_va_list@H_J@?$positional_parameter_base@_WV?$string_output_adapter@_W@__crt_stdio_output@@@__crt_stdio_output@@IAE_NAA_J@Z 10045d90 f i libucrtd:output.obj
 0001:00044ec0       ??$extract_argument_from_va_list@H_J@?$standard_base@DV?$stream_output_adapter@D@__crt_stdio_output@@@__crt_stdio_output@@IAE_NAA_J@Z 10045ec0 f i libucrtd:output.obj
 0001:00044ef0       ??$extract_argument_from_va_list@H_J@?$standard_base@DV?$string_output_adapter@D@__crt_stdio_output@@@__crt_stdio_output@@IAE_NAA_J@Z 10045ef0 f i libucrtd:output.obj
 0001:00044f20       ??$extract_argument_from_va_list@H_J@?$standard_base@_WV?$stream_output_adapter@_W@__crt_stdio_output@@@__crt_stdio_output@@IAE_NAA_J@Z 10045f20 f i libucrtd:output.obj
 0001:00044f50       ??$extract_argument_from_va_list@H_J@?$standard_base@_WV?$string_output_adapter@_W@__crt_stdio_output@@@__crt_stdio_output@@IAE_NAA_J@Z 10045f50 f i libucrtd:output.obj
 0001:00044f80       ??$extract_argument_from_va_list@I_J@?$positional_parameter_base@DV?$stream_output_adapter@D@__crt_stdio_output@@@__crt_stdio_output@@IAE_NAA_J@Z 10045f80 f i libucrtd:output.obj
 0001:000450b0       ??$extract_argument_from_va_list@I_J@?$positional_parameter_base@DV?$string_output_adapter@D@__crt_stdio_output@@@__crt_stdio_output@@IAE_NAA_J@Z 100460b0 f i libucrtd:output.obj
 0001:000451e0       ??$extract_argument_from_va_list@I_J@?$positional_parameter_base@_WV?$stream_output_adapter@_W@__crt_stdio_output@@@__crt_stdio_output@@IAE_NAA_J@Z 100461e0 f i libucrtd:output.obj
 0001:00045310       ??$extract_argument_from_va_list@I_J@?$positional_parameter_base@_WV?$string_output_adapter@_W@__crt_stdio_output@@@__crt_stdio_output@@IAE_NAA_J@Z 10046310 f i libucrtd:output.obj
 0001:00045440       ??$extract_argument_from_va_list@I_J@?$standard_base@DV?$stream_output_adapter@D@__crt_stdio_output@@@__crt_stdio_output@@IAE_NAA_J@Z 10046440 f i libucrtd:output.obj
 0001:00045470       ??$extract_argument_from_va_list@I_J@?$standard_base@DV?$string_output_adapter@D@__crt_stdio_output@@@__crt_stdio_output@@IAE_NAA_J@Z 10046470 f i libucrtd:output.obj
 0001:000454a0       ??$extract_argument_from_va_list@I_J@?$standard_base@_WV?$stream_output_adapter@_W@__crt_stdio_output@@@__crt_stdio_output@@IAE_NAA_J@Z 100464a0 f i libucrtd:output.obj
 0001:000454d0       ??$extract_argument_from_va_list@I_J@?$standard_base@_WV?$string_output_adapter@_W@__crt_stdio_output@@@__crt_stdio_output@@IAE_NAA_J@Z 100464d0 f i libucrtd:output.obj
 0001:00045500       ??$extract_argument_from_va_list@PADPAD@?$positional_parameter_base@DV?$stream_output_adapter@D@__crt_stdio_output@@@__crt_stdio_output@@IAE_NAAPAD@Z 10046500 f i libucrtd:output.obj
 0001:00045630       ??$extract_argument_from_va_list@PADPAD@?$positional_parameter_base@DV?$string_output_adapter@D@__crt_stdio_output@@@__crt_stdio_output@@IAE_NAAPAD@Z 10046630 f i libucrtd:output.obj
 0001:00045760       ??$extract_argument_from_va_list@PADPAD@?$positional_parameter_base@_WV?$stream_output_adapter@_W@__crt_stdio_output@@@__crt_stdio_output@@IAE_NAAPAD@Z 10046760 f i libucrtd:output.obj
 0001:00045890       ??$extract_argument_from_va_list@PADPAD@?$positional_parameter_base@_WV?$string_output_adapter@_W@__crt_stdio_output@@@__crt_stdio_output@@IAE_NAAPAD@Z 10046890 f i libucrtd:output.obj
 0001:000459c0       ??$extract_argument_from_va_list@PADPAD@?$standard_base@DV?$stream_output_adapter@D@__crt_stdio_output@@@__crt_stdio_output@@IAE_NAAPAD@Z 100469c0 f i libucrtd:output.obj
 0001:000459f0       ??$extract_argument_from_va_list@PADPAD@?$standard_base@DV?$string_output_adapter@D@__crt_stdio_output@@@__crt_stdio_output@@IAE_NAAPAD@Z 100469f0 f i libucrtd:output.obj
 0001:00045a20       ??$extract_argument_from_va_list@PADPAD@?$standard_base@_WV?$stream_output_adapter@_W@__crt_stdio_output@@@__crt_stdio_output@@IAE_NAAPAD@Z 10046a20 f i libucrtd:output.obj
 0001:00045a50       ??$extract_argument_from_va_list@PADPAD@?$standard_base@_WV?$string_output_adapter@_W@__crt_stdio_output@@@__crt_stdio_output@@IAE_NAAPAD@Z 10046a50 f i libucrtd:output.obj
 0001:00045a80       ??$extract_argument_from_va_list@PAUansi_string@?1??type_case_Z@?$output_processor@DV?$stream_output_adapter@D@__crt_stdio_output@@V?$format_validation_base@DV?$stream_output_adapter@D@__crt_stdio_output@@@2@@__crt_stdio_output@@AAE_NXZ@PAU1?1??234@AAE_NXZ@@?$standard_base@DV?$stream_output_adapter@D@__crt_stdio_output@@@__crt_stdio_output@@IAE_NAAPAUansi_string@?1??type_case_Z@?$output_processor@DV?$stream_output_adapter@D@__crt_stdio_output@@V?$format_validation_base@DV?$stream_output_adapter@D@__crt_stdio_output@@@2@@1@AAE_NXZ@@Z 10046a80 f i libucrtd:output.obj
 0001:00045ab0       ??$extract_argument_from_va_list@PAUansi_string@?1??type_case_Z@?$output_processor@DV?$stream_output_adapter@D@__crt_stdio_output@@V?$positional_parameter_base@DV?$stream_output_adapter@D@__crt_stdio_output@@@2@@__crt_stdio_output@@AAE_NXZ@PAU1?1??234@AAE_NXZ@@?$positional_parameter_base@DV?$stream_output_adapter@D@__crt_stdio_output@@@__crt_stdio_output@@IAE_NAAPAUansi_string@?1??type_case_Z@?$output_processor@DV?$stream_output_adapter@D@__crt_stdio_output@@V?$positional_parameter_base@DV?$stream_output_adapter@D@__crt_stdio_output@@@2@@1@AAE_NXZ@@Z 10046ab0 f i libucrtd:output.obj
 0001:00045be0       ??$extract_argument_from_va_list@PAUansi_string@?1??type_case_Z@?$output_processor@DV?$stream_output_adapter@D@__crt_stdio_output@@V?$positional_parameter_base@DV?$stream_output_adapter@D@__crt_stdio_output@@@2@@__crt_stdio_output@@AAE_NXZ@PAU1?1??234@AAE_NXZ@@?$standard_base@DV?$stream_output_adapter@D@__crt_stdio_output@@@__crt_stdio_output@@IAE_NAAPAUansi_string@?1??type_case_Z@?$output_processor@DV?$stream_output_adapter@D@__crt_stdio_output@@V?$positional_parameter_base@DV?$stream_output_adapter@D@__crt_stdio_output@@@2@@1@AAE_NXZ@@Z 10046be0 f i libucrtd:output.obj
 0001:00045c10       ??$extract_argument_from_va_list@PAUansi_string@?1??type_case_Z@?$output_processor@DV?$stream_output_adapter@D@__crt_stdio_output@@V?$standard_base@DV?$stream_output_adapter@D@__crt_stdio_output@@@2@@__crt_stdio_output@@AAE_NXZ@PAU1?1??234@AAE_NXZ@@?$standard_base@DV?$stream_output_adapter@D@__crt_stdio_output@@@__crt_stdio_output@@IAE_NAAPAUansi_string@?1??type_case_Z@?$output_processor@DV?$stream_output_adapter@D@__crt_stdio_output@@V?$standard_base@DV?$stream_output_adapter@D@__crt_stdio_output@@@2@@1@AAE_NXZ@@Z 10046c10 f i libucrtd:output.obj
 0001:00045c40       ??$extract_argument_from_va_list@PAUansi_string@?1??type_case_Z@?$output_processor@DV?$string_output_adapter@D@__crt_stdio_output@@V?$format_validation_base@DV?$string_output_adapter@D@__crt_stdio_output@@@2@@__crt_stdio_output@@AAE_NXZ@PAU1?1??234@AAE_NXZ@@?$standard_base@DV?$string_output_adapter@D@__crt_stdio_output@@@__crt_stdio_output@@IAE_NAAPAUansi_string@?1??type_case_Z@?$output_processor@DV?$string_output_adapter@D@__crt_stdio_output@@V?$format_validation_base@DV?$string_output_adapter@D@__crt_stdio_output@@@2@@1@AAE_NXZ@@Z 10046c40 f i libucrtd:output.obj
 0001:00045c70       ??$extract_argument_from_va_list@PAUansi_string@?1??type_case_Z@?$output_processor@DV?$string_output_adapter@D@__crt_stdio_output@@V?$positional_parameter_base@DV?$string_output_adapter@D@__crt_stdio_output@@@2@@__crt_stdio_output@@AAE_NXZ@PAU1?1??234@AAE_NXZ@@?$positional_parameter_base@DV?$string_output_adapter@D@__crt_stdio_output@@@__crt_stdio_output@@IAE_NAAPAUansi_string@?1??type_case_Z@?$output_processor@DV?$string_output_adapter@D@__crt_stdio_output@@V?$positional_parameter_base@DV?$string_output_adapter@D@__crt_stdio_output@@@2@@1@AAE_NXZ@@Z 10046c70 f i libucrtd:output.obj
 0001:00045da0       ??$extract_argument_from_va_list@PAUansi_string@?1??type_case_Z@?$output_processor@DV?$string_output_adapter@D@__crt_stdio_output@@V?$positional_parameter_base@DV?$string_output_adapter@D@__crt_stdio_output@@@2@@__crt_stdio_output@@AAE_NXZ@PAU1?1??234@AAE_NXZ@@?$standard_base@DV?$string_output_adapter@D@__crt_stdio_output@@@__crt_stdio_output@@IAE_NAAPAUansi_string@?1??type_case_Z@?$output_processor@DV?$string_output_adapter@D@__crt_stdio_output@@V?$positional_parameter_base@DV?$string_output_adapter@D@__crt_stdio_output@@@2@@1@AAE_NXZ@@Z 10046da0 f i libucrtd:output.obj
 0001:00045dd0       ??$extract_argument_from_va_list@PAUansi_string@?1??type_case_Z@?$output_processor@DV?$string_output_adapter@D@__crt_stdio_output@@V?$standard_base@DV?$string_output_adapter@D@__crt_stdio_output@@@2@@__crt_stdio_output@@AAE_NXZ@PAU1?1??234@AAE_NXZ@@?$standard_base@DV?$string_output_adapter@D@__crt_stdio_output@@@__crt_stdio_output@@IAE_NAAPAUansi_string@?1??type_case_Z@?$output_processor@DV?$string_output_adapter@D@__crt_stdio_output@@V?$standard_base@DV?$string_output_adapter@D@__crt_stdio_output@@@2@@1@AAE_NXZ@@Z 10046dd0 f i libucrtd:output.obj
 0001:00045e00       ??$extract_argument_from_va_list@PAUansi_string@?1??type_case_Z@?$output_processor@_WV?$stream_output_adapter@_W@__crt_stdio_output@@V?$format_validation_base@_WV?$stream_output_adapter@_W@__crt_stdio_output@@@2@@__crt_stdio_output@@AAE_NXZ@PAU1?1??234@AAE_NXZ@@?$standard_base@_WV?$stream_output_adapter@_W@__crt_stdio_output@@@__crt_stdio_output@@IAE_NAAPAUansi_string@?1??type_case_Z@?$output_processor@_WV?$stream_output_adapter@_W@__crt_stdio_output@@V?$format_validation_base@_WV?$stream_output_adapter@_W@__crt_stdio_output@@@2@@1@AAE_NXZ@@Z 10046e00 f i libucrtd:output.obj
 0001:00045e30       ??$extract_argument_from_va_list@PAUansi_string@?1??type_case_Z@?$output_processor@_WV?$stream_output_adapter@_W@__crt_stdio_output@@V?$positional_parameter_base@_WV?$stream_output_adapter@_W@__crt_stdio_output@@@2@@__crt_stdio_output@@AAE_NXZ@PAU1?1??234@AAE_NXZ@@?$positional_parameter_base@_WV?$stream_output_adapter@_W@__crt_stdio_output@@@__crt_stdio_output@@IAE_NAAPAUansi_string@?1??type_case_Z@?$output_processor@_WV?$stream_output_adapter@_W@__crt_stdio_output@@V?$positional_parameter_base@_WV?$stream_output_adapter@_W@__crt_stdio_output@@@2@@1@AAE_NXZ@@Z 10046e30 f i libucrtd:output.obj
 0001:00045f60       ??$extract_argument_from_va_list@PAUansi_string@?1??type_case_Z@?$output_processor@_WV?$stream_output_adapter@_W@__crt_stdio_output@@V?$positional_parameter_base@_WV?$stream_output_adapter@_W@__crt_stdio_output@@@2@@__crt_stdio_output@@AAE_NXZ@PAU1?1??234@AAE_NXZ@@?$standard_base@_WV?$stream_output_adapter@_W@__crt_stdio_output@@@__crt_stdio_output@@IAE_NAAPAUansi_string@?1??type_case_Z@?$output_processor@_WV?$stream_output_adapter@_W@__crt_stdio_output@@V?$positional_parameter_base@_WV?$stream_output_adapter@_W@__crt_stdio_output@@@2@@1@AAE_NXZ@@Z 10046f60 f i libucrtd:output.obj
 0001:00045f90       ??$extract_argument_from_va_list@PAUansi_string@?1??type_case_Z@?$output_processor@_WV?$stream_output_adapter@_W@__crt_stdio_output@@V?$standard_base@_WV?$stream_output_adapter@_W@__crt_stdio_output@@@2@@__crt_stdio_output@@AAE_NXZ@PAU1?1??234@AAE_NXZ@@?$standard_base@_WV?$stream_output_adapter@_W@__crt_stdio_output@@@__crt_stdio_output@@IAE_NAAPAUansi_string@?1??type_case_Z@?$output_processor@_WV?$stream_output_adapter@_W@__crt_stdio_output@@V?$standard_base@_WV?$stream_output_adapter@_W@__crt_stdio_output@@@2@@1@AAE_NXZ@@Z 10046f90 f i libucrtd:output.obj
 0001:00045fc0       ??$extract_argument_from_va_list@PAUansi_string@?1??type_case_Z@?$output_processor@_WV?$string_output_adapter@_W@__crt_stdio_output@@V?$format_validation_base@_WV?$string_output_adapter@_W@__crt_stdio_output@@@2@@__crt_stdio_output@@AAE_NXZ@PAU1?1??234@AAE_NXZ@@?$standard_base@_WV?$string_output_adapter@_W@__crt_stdio_output@@@__crt_stdio_output@@IAE_NAAPAUansi_string@?1??type_case_Z@?$output_processor@_WV?$string_output_adapter@_W@__crt_stdio_output@@V?$format_validation_base@_WV?$string_output_adapter@_W@__crt_stdio_output@@@2@@1@AAE_NXZ@@Z 10046fc0 f i libucrtd:output.obj
 0001:00045ff0       ??$extract_argument_from_va_list@PAUansi_string@?1??type_case_Z@?$output_processor@_WV?$string_output_adapter@_W@__crt_stdio_output@@V?$positional_parameter_base@_WV?$string_output_adapter@_W@__crt_stdio_output@@@2@@__crt_stdio_output@@AAE_NXZ@PAU1?1??234@AAE_NXZ@@?$positional_parameter_base@_WV?$string_output_adapter@_W@__crt_stdio_output@@@__crt_stdio_output@@IAE_NAAPAUansi_string@?1??type_case_Z@?$output_processor@_WV?$string_output_adapter@_W@__crt_stdio_output@@V?$positional_parameter_base@_WV?$string_output_adapter@_W@__crt_stdio_output@@@2@@1@AAE_NXZ@@Z 10046ff0 f i libucrtd:output.obj
 0001:00046120       ??$extract_argument_from_va_list@PAUansi_string@?1??type_case_Z@?$output_processor@_WV?$string_output_adapter@_W@__crt_stdio_output@@V?$positional_parameter_base@_WV?$string_output_adapter@_W@__crt_stdio_output@@@2@@__crt_stdio_output@@AAE_NXZ@PAU1?1??234@AAE_NXZ@@?$standard_base@_WV?$string_output_adapter@_W@__crt_stdio_output@@@__crt_stdio_output@@IAE_NAAPAUansi_string@?1??type_case_Z@?$output_processor@_WV?$string_output_adapter@_W@__crt_stdio_output@@V?$positional_parameter_base@_WV?$string_output_adapter@_W@__crt_stdio_output@@@2@@1@AAE_NXZ@@Z 10047120 f i libucrtd:output.obj
 0001:00046150       ??$extract_argument_from_va_list@PAUansi_string@?1??type_case_Z@?$output_processor@_WV?$string_output_adapter@_W@__crt_stdio_output@@V?$standard_base@_WV?$string_output_adapter@_W@__crt_stdio_output@@@2@@__crt_stdio_output@@AAE_NXZ@PAU1?1??234@AAE_NXZ@@?$standard_base@_WV?$string_output_adapter@_W@__crt_stdio_output@@@__crt_stdio_output@@IAE_NAAPAUansi_string@?1??type_case_Z@?$output_processor@_WV?$string_output_adapter@_W@__crt_stdio_output@@V?$standard_base@_WV?$string_output_adapter@_W@__crt_stdio_output@@@2@@1@AAE_NXZ@@Z 10047150 f i libucrtd:output.obj
 0001:00046180       ??$extract_argument_from_va_list@PAXPAX@?$positional_parameter_base@DV?$stream_output_adapter@D@__crt_stdio_output@@@__crt_stdio_output@@IAE_NAAPAX@Z 10047180 f i libucrtd:output.obj
 0001:000462b0       ??$extract_argument_from_va_list@PAXPAX@?$positional_parameter_base@DV?$string_output_adapter@D@__crt_stdio_output@@@__crt_stdio_output@@IAE_NAAPAX@Z 100472b0 f i libucrtd:output.obj
 0001:000463e0       ??$extract_argument_from_va_list@PAXPAX@?$positional_parameter_base@_WV?$stream_output_adapter@_W@__crt_stdio_output@@@__crt_stdio_output@@IAE_NAAPAX@Z 100473e0 f i libucrtd:output.obj
 0001:00046510       ??$extract_argument_from_va_list@PAXPAX@?$positional_parameter_base@_WV?$string_output_adapter@_W@__crt_stdio_output@@@__crt_stdio_output@@IAE_NAAPAX@Z 10047510 f i libucrtd:output.obj
 0001:00046640       ??$extract_argument_from_va_list@PAXPAX@?$standard_base@DV?$stream_output_adapter@D@__crt_stdio_output@@@__crt_stdio_output@@IAE_NAAPAX@Z 10047640 f i libucrtd:output.obj
 0001:00046670       ??$extract_argument_from_va_list@PAXPAX@?$standard_base@DV?$string_output_adapter@D@__crt_stdio_output@@@__crt_stdio_output@@IAE_NAAPAX@Z 10047670 f i libucrtd:output.obj
 0001:000466a0       ??$extract_argument_from_va_list@PAXPAX@?$standard_base@_WV?$stream_output_adapter@_W@__crt_stdio_output@@@__crt_stdio_output@@IAE_NAAPAX@Z 100476a0 f i libucrtd:output.obj
 0001:000466d0       ??$extract_argument_from_va_list@PAXPAX@?$standard_base@_WV?$string_output_adapter@_W@__crt_stdio_output@@@__crt_stdio_output@@IAE_NAAPAX@Z 100476d0 f i libucrtd:output.obj
 0001:00046700       ??$extract_argument_from_va_list@U_CRT_DOUBLE@@U1@@?$positional_parameter_base@DV?$stream_output_adapter@D@__crt_stdio_output@@@__crt_stdio_output@@IAE_NAAU_CRT_DOUBLE@@@Z 10047700 f i libucrtd:output.obj
 0001:00046860       ??$extract_argument_from_va_list@U_CRT_DOUBLE@@U1@@?$positional_parameter_base@DV?$string_output_adapter@D@__crt_stdio_output@@@__crt_stdio_output@@IAE_NAAU_CRT_DOUBLE@@@Z 10047860 f i libucrtd:output.obj
 0001:000469c0       ??$extract_argument_from_va_list@U_CRT_DOUBLE@@U1@@?$positional_parameter_base@_WV?$stream_output_adapter@_W@__crt_stdio_output@@@__crt_stdio_output@@IAE_NAAU_CRT_DOUBLE@@@Z 100479c0 f i libucrtd:output.obj
 0001:00046b20       ??$extract_argument_from_va_list@U_CRT_DOUBLE@@U1@@?$positional_parameter_base@_WV?$string_output_adapter@_W@__crt_stdio_output@@@__crt_stdio_output@@IAE_NAAU_CRT_DOUBLE@@@Z 10047b20 f i libucrtd:output.obj
 0001:00046c80       ??$extract_argument_from_va_list@U_CRT_DOUBLE@@U1@@?$standard_base@DV?$stream_output_adapter@D@__crt_stdio_output@@@__crt_stdio_output@@IAE_NAAU_CRT_DOUBLE@@@Z 10047c80 f i libucrtd:output.obj
 0001:00046cd0       ??$extract_argument_from_va_list@U_CRT_DOUBLE@@U1@@?$standard_base@DV?$string_output_adapter@D@__crt_stdio_output@@@__crt_stdio_output@@IAE_NAAU_CRT_DOUBLE@@@Z 10047cd0 f i libucrtd:output.obj
 0001:00046d20       ??$extract_argument_from_va_list@U_CRT_DOUBLE@@U1@@?$standard_base@_WV?$stream_output_adapter@_W@__crt_stdio_output@@@__crt_stdio_output@@IAE_NAAU_CRT_DOUBLE@@@Z 10047d20 f i libucrtd:output.obj
 0001:00046d70       ??$extract_argument_from_va_list@U_CRT_DOUBLE@@U1@@?$standard_base@_WV?$string_output_adapter@_W@__crt_stdio_output@@@__crt_stdio_output@@IAE_NAAU_CRT_DOUBLE@@@Z 10047d70 f i libucrtd:output.obj
 0001:00046dc0       ??$extract_argument_from_va_list@_J_J@?$positional_parameter_base@DV?$stream_output_adapter@D@__crt_stdio_output@@@__crt_stdio_output@@IAE_NAA_J@Z 10047dc0 f i libucrtd:output.obj
 0001:00046ef0       ??$extract_argument_from_va_list@_J_J@?$positional_parameter_base@DV?$string_output_adapter@D@__crt_stdio_output@@@__crt_stdio_output@@IAE_NAA_J@Z 10047ef0 f i libucrtd:output.obj
 0001:00047020       ??$extract_argument_from_va_list@_J_J@?$positional_parameter_base@_WV?$stream_output_adapter@_W@__crt_stdio_output@@@__crt_stdio_output@@IAE_NAA_J@Z 10048020 f i libucrtd:output.obj
 0001:00047150       ??$extract_argument_from_va_list@_J_J@?$positional_parameter_base@_WV?$string_output_adapter@_W@__crt_stdio_output@@@__crt_stdio_output@@IAE_NAA_J@Z 10048150 f i libucrtd:output.obj
 0001:00047280       ??$extract_argument_from_va_list@_J_J@?$standard_base@DV?$stream_output_adapter@D@__crt_stdio_output@@@__crt_stdio_output@@IAE_NAA_J@Z 10048280 f i libucrtd:output.obj
 0001:000472b0       ??$extract_argument_from_va_list@_J_J@?$standard_base@DV?$string_output_adapter@D@__crt_stdio_output@@@__crt_stdio_output@@IAE_NAA_J@Z 100482b0 f i libucrtd:output.obj
 0001:000472e0       ??$extract_argument_from_va_list@_J_J@?$standard_base@_WV?$stream_output_adapter@_W@__crt_stdio_output@@@__crt_stdio_output@@IAE_NAA_J@Z 100482e0 f i libucrtd:output.obj
 0001:00047310       ??$extract_argument_from_va_list@_J_J@?$standard_base@_WV?$string_output_adapter@_W@__crt_stdio_output@@@__crt_stdio_output@@IAE_NAA_J@Z 10048310 f i libucrtd:output.obj
 0001:00047340       ??$extract_argument_from_va_list@_K_J@?$positional_parameter_base@DV?$stream_output_adapter@D@__crt_stdio_output@@@__crt_stdio_output@@IAE_NAA_J@Z 10048340 f i libucrtd:output.obj
 0001:00047470       ??$extract_argument_from_va_list@_K_J@?$positional_parameter_base@DV?$string_output_adapter@D@__crt_stdio_output@@@__crt_stdio_output@@IAE_NAA_J@Z 10048470 f i libucrtd:output.obj
 0001:000475a0       ??$extract_argument_from_va_list@_K_J@?$positional_parameter_base@_WV?$stream_output_adapter@_W@__crt_stdio_output@@@__crt_stdio_output@@IAE_NAA_J@Z 100485a0 f i libucrtd:output.obj
 0001:000476d0       ??$extract_argument_from_va_list@_K_J@?$positional_parameter_base@_WV?$string_output_adapter@_W@__crt_stdio_output@@@__crt_stdio_output@@IAE_NAA_J@Z 100486d0 f i libucrtd:output.obj
 0001:00047800       ??$extract_argument_from_va_list@_K_J@?$standard_base@DV?$stream_output_adapter@D@__crt_stdio_output@@@__crt_stdio_output@@IAE_NAA_J@Z 10048800 f i libucrtd:output.obj
 0001:00047830       ??$extract_argument_from_va_list@_K_J@?$standard_base@DV?$string_output_adapter@D@__crt_stdio_output@@@__crt_stdio_output@@IAE_NAA_J@Z 10048830 f i libucrtd:output.obj
 0001:00047860       ??$extract_argument_from_va_list@_K_J@?$standard_base@_WV?$stream_output_adapter@_W@__crt_stdio_output@@@__crt_stdio_output@@IAE_NAA_J@Z 10048860 f i libucrtd:output.obj
 0001:00047890       ??$extract_argument_from_va_list@_K_J@?$standard_base@_WV?$string_output_adapter@_W@__crt_stdio_output@@@__crt_stdio_output@@IAE_NAA_J@Z 10048890 f i libucrtd:output.obj
 0001:000478c0       ??$extract_argument_from_va_list@_W_W@?$positional_parameter_base@DV?$stream_output_adapter@D@__crt_stdio_output@@@__crt_stdio_output@@IAE_NAA_W@Z 100488c0 f i libucrtd:output.obj
 0001:000479f0       ??$extract_argument_from_va_list@_W_W@?$positional_parameter_base@DV?$string_output_adapter@D@__crt_stdio_output@@@__crt_stdio_output@@IAE_NAA_W@Z 100489f0 f i libucrtd:output.obj
 0001:00047b20       ??$extract_argument_from_va_list@_W_W@?$positional_parameter_base@_WV?$stream_output_adapter@_W@__crt_stdio_output@@@__crt_stdio_output@@IAE_NAA_W@Z 10048b20 f i libucrtd:output.obj
 0001:00047c50       ??$extract_argument_from_va_list@_W_W@?$positional_parameter_base@_WV?$string_output_adapter@_W@__crt_stdio_output@@@__crt_stdio_output@@IAE_NAA_W@Z 10048c50 f i libucrtd:output.obj
 0001:00047d80       ??$extract_argument_from_va_list@_W_W@?$standard_base@DV?$stream_output_adapter@D@__crt_stdio_output@@@__crt_stdio_output@@IAE_NAA_W@Z 10048d80 f i libucrtd:output.obj
 0001:00047db0       ??$extract_argument_from_va_list@_W_W@?$standard_base@DV?$string_output_adapter@D@__crt_stdio_output@@@__crt_stdio_output@@IAE_NAA_W@Z 10048db0 f i libucrtd:output.obj
 0001:00047de0       ??$extract_argument_from_va_list@_W_W@?$standard_base@_WV?$stream_output_adapter@_W@__crt_stdio_output@@@__crt_stdio_output@@IAE_NAA_W@Z 10048de0 f i libucrtd:output.obj
 0001:00047e10       ??$extract_argument_from_va_list@_W_W@?$standard_base@_WV?$string_output_adapter@_W@__crt_stdio_output@@@__crt_stdio_output@@IAE_NAA_W@Z 10048e10 f i libucrtd:output.obj
 0001:00047e40       ??$get_parameter_type@D@?$positional_parameter_base@DV?$stream_output_adapter@D@__crt_stdio_output@@@__crt_stdio_output@@CA?AW4parameter_type@01@PAD@Z 10048e40 f i libucrtd:output.obj
 0001:00047e50       ??$get_parameter_type@D@?$positional_parameter_base@DV?$string_output_adapter@D@__crt_stdio_output@@@__crt_stdio_output@@CA?AW4parameter_type@01@PAD@Z 10048e50 f i libucrtd:output.obj
 0001:00047e60       ??$get_parameter_type@D@?$positional_parameter_base@_WV?$stream_output_adapter@_W@__crt_stdio_output@@@__crt_stdio_output@@CA?AW4parameter_type@01@PAD@Z 10048e60 f i libucrtd:output.obj
 0001:00047e70       ??$get_parameter_type@D@?$positional_parameter_base@_WV?$string_output_adapter@_W@__crt_stdio_output@@@__crt_stdio_output@@CA?AW4parameter_type@01@PAD@Z 10048e70 f i libucrtd:output.obj
 0001:00047e80       ??$get_parameter_type@Uansi_string@?1??type_case_Z@?$output_processor@DV?$stream_output_adapter@D@__crt_stdio_output@@V?$positional_parameter_base@DV?$stream_output_adapter@D@__crt_stdio_output@@@2@@__crt_stdio_output@@AAE_NXZ@@?$positional_parameter_base@DV?$stream_output_adapter@D@__crt_stdio_output@@@__crt_stdio_output@@CA?AW4parameter_type@01@PAUansi_string@?1??type_case_Z@?$output_processor@DV?$stream_output_adapter@D@__crt_stdio_output@@V?$positional_parameter_base@DV?$stream_output_adapter@D@__crt_stdio_output@@@2@@1@AAE_NXZ@@Z 10048e80 f i libucrtd:output.obj
 0001:00047e90       ??$get_parameter_type@Uansi_string@?1??type_case_Z@?$output_processor@DV?$string_output_adapter@D@__crt_stdio_output@@V?$positional_parameter_base@DV?$string_output_adapter@D@__crt_stdio_output@@@2@@__crt_stdio_output@@AAE_NXZ@@?$positional_parameter_base@DV?$string_output_adapter@D@__crt_stdio_output@@@__crt_stdio_output@@CA?AW4parameter_type@01@PAUansi_string@?1??type_case_Z@?$output_processor@DV?$string_output_adapter@D@__crt_stdio_output@@V?$positional_parameter_base@DV?$string_output_adapter@D@__crt_stdio_output@@@2@@1@AAE_NXZ@@Z 10048e90 f i libucrtd:output.obj
 0001:00047ea0       ??$get_parameter_type@Uansi_string@?1??type_case_Z@?$output_processor@_WV?$stream_output_adapter@_W@__crt_stdio_output@@V?$positional_parameter_base@_WV?$stream_output_adapter@_W@__crt_stdio_output@@@2@@__crt_stdio_output@@AAE_NXZ@@?$positional_parameter_base@_WV?$stream_output_adapter@_W@__crt_stdio_output@@@__crt_stdio_output@@CA?AW4parameter_type@01@PAUansi_string@?1??type_case_Z@?$output_processor@_WV?$stream_output_adapter@_W@__crt_stdio_output@@V?$positional_parameter_base@_WV?$stream_output_adapter@_W@__crt_stdio_output@@@2@@1@AAE_NXZ@@Z 10048ea0 f i libucrtd:output.obj
 0001:00047eb0       ??$get_parameter_type@Uansi_string@?1??type_case_Z@?$output_processor@_WV?$string_output_adapter@_W@__crt_stdio_output@@V?$positional_parameter_base@_WV?$string_output_adapter@_W@__crt_stdio_output@@@2@@__crt_stdio_output@@AAE_NXZ@@?$positional_parameter_base@_WV?$string_output_adapter@_W@__crt_stdio_output@@@__crt_stdio_output@@CA?AW4parameter_type@01@PAUansi_string@?1??type_case_Z@?$output_processor@_WV?$string_output_adapter@_W@__crt_stdio_output@@V?$positional_parameter_base@_WV?$string_output_adapter@_W@__crt_stdio_output@@@2@@1@AAE_NXZ@@Z 10048eb0 f i libucrtd:output.obj
 0001:00047ec0       ??$get_parameter_type@X@?$positional_parameter_base@DV?$stream_output_adapter@D@__crt_stdio_output@@@__crt_stdio_output@@CA?AW4parameter_type@01@PAX@Z 10048ec0 f i libucrtd:output.obj
 0001:00047ed0       ??$get_parameter_type@X@?$positional_parameter_base@DV?$string_output_adapter@D@__crt_stdio_output@@@__crt_stdio_output@@CA?AW4parameter_type@01@PAX@Z 10048ed0 f i libucrtd:output.obj
 0001:00047ee0       ??$get_parameter_type@X@?$positional_parameter_base@_WV?$stream_output_adapter@_W@__crt_stdio_output@@@__crt_stdio_output@@CA?AW4parameter_type@01@PAX@Z 10048ee0 f i libucrtd:output.obj
 0001:00047ef0       ??$get_parameter_type@X@?$positional_parameter_base@_WV?$string_output_adapter@_W@__crt_stdio_output@@@__crt_stdio_output@@CA?AW4parameter_type@01@PAX@Z 10048ef0 f i libucrtd:output.obj
 0001:00047f00       ??$is_character_specifier@D@?$positional_parameter_base@DV?$stream_output_adapter@D@__crt_stdio_output@@@__crt_stdio_output@@CA_ND@Z 10048f00 f i libucrtd:output.obj
 0001:00047f30       ??$is_character_specifier@D@?$positional_parameter_base@DV?$string_output_adapter@D@__crt_stdio_output@@@__crt_stdio_output@@CA_ND@Z 10048f30 f i libucrtd:output.obj
 0001:00047f60       ??$is_character_specifier@_W@?$positional_parameter_base@_WV?$stream_output_adapter@_W@__crt_stdio_output@@@__crt_stdio_output@@CA_N_W@Z 10048f60 f i libucrtd:output.obj
 0001:00047f90       ??$is_character_specifier@_W@?$positional_parameter_base@_WV?$string_output_adapter@_W@__crt_stdio_output@@@__crt_stdio_output@@CA_N_W@Z 10048f90 f i libucrtd:output.obj
 0001:00047fc0       ??$is_integral_specifier@D@?$positional_parameter_base@DV?$stream_output_adapter@D@__crt_stdio_output@@@__crt_stdio_output@@CA_ND@Z 10048fc0 f i libucrtd:output.obj
 0001:00048020       ??$is_integral_specifier@D@?$positional_parameter_base@DV?$string_output_adapter@D@__crt_stdio_output@@@__crt_stdio_output@@CA_ND@Z 10049020 f i libucrtd:output.obj
 0001:00048080       ??$is_integral_specifier@_W@?$positional_parameter_base@_WV?$stream_output_adapter@_W@__crt_stdio_output@@@__crt_stdio_output@@CA_N_W@Z 10049080 f i libucrtd:output.obj
 0001:000480e0       ??$is_integral_specifier@_W@?$positional_parameter_base@_WV?$string_output_adapter@_W@__crt_stdio_output@@@__crt_stdio_output@@CA_N_W@Z 100490e0 f i libucrtd:output.obj
 0001:00048140       ??$is_pointer_specifier@D@?$positional_parameter_base@DV?$stream_output_adapter@D@__crt_stdio_output@@@__crt_stdio_output@@CA_ND@Z 10049140 f i libucrtd:output.obj
 0001:00048170       ??$is_pointer_specifier@D@?$positional_parameter_base@DV?$string_output_adapter@D@__crt_stdio_output@@@__crt_stdio_output@@CA_ND@Z 10049170 f i libucrtd:output.obj
 0001:000481a0       ??$is_pointer_specifier@_W@?$positional_parameter_base@_WV?$stream_output_adapter@_W@__crt_stdio_output@@@__crt_stdio_output@@CA_N_W@Z 100491a0 f i libucrtd:output.obj
 0001:000481d0       ??$is_pointer_specifier@_W@?$positional_parameter_base@_WV?$string_output_adapter@_W@__crt_stdio_output@@@__crt_stdio_output@@CA_N_W@Z 100491d0 f i libucrtd:output.obj
 0001:00048200       ??$is_string_specifier@D@?$positional_parameter_base@DV?$stream_output_adapter@D@__crt_stdio_output@@@__crt_stdio_output@@CA_ND@Z 10049200 f i libucrtd:output.obj
 0001:00048230       ??$is_string_specifier@D@?$positional_parameter_base@DV?$string_output_adapter@D@__crt_stdio_output@@@__crt_stdio_output@@CA_ND@Z 10049230 f i libucrtd:output.obj
 0001:00048260       ??$is_string_specifier@_W@?$positional_parameter_base@_WV?$stream_output_adapter@_W@__crt_stdio_output@@@__crt_stdio_output@@CA_N_W@Z 10049260 f i libucrtd:output.obj
 0001:00048290       ??$is_string_specifier@_W@?$positional_parameter_base@_WV?$string_output_adapter@_W@__crt_stdio_output@@@__crt_stdio_output@@CA_N_W@Z 10049290 f i libucrtd:output.obj
 0001:000482c0       ??$is_wide_character_specifier@D@__crt_stdio_output@@YA_N_KDW4length_modifier@0@@Z 100492c0 f i libucrtd:output.obj
 0001:00048340       ??$is_wide_character_specifier@_W@__crt_stdio_output@@YA_N_K_WW4length_modifier@0@@Z 10049340 f i libucrtd:output.obj
 0001:00048400       ??$peek_va_arg@C@__crt_stdio_output@@YACPAD@Z 10049400 f i libucrtd:output.obj
 0001:00048420       ??$peek_va_arg@E@__crt_stdio_output@@YAEPAD@Z 10049420 f i libucrtd:output.obj
 0001:00048440       ??$peek_va_arg@F@__crt_stdio_output@@YAFPAD@Z 10049440 f i libucrtd:output.obj
 0001:00048460       ??$peek_va_arg@G@__crt_stdio_output@@YAGPAD@Z 10049460 f i libucrtd:output.obj
 0001:00048480       ??$peek_va_arg@H@__crt_stdio_output@@YAHPAD@Z 10049480 f i libucrtd:output.obj
 0001:000484a0       ??$peek_va_arg@I@__crt_stdio_output@@YAIPAD@Z 100494a0 f i libucrtd:output.obj
 0001:000484c0       ??$peek_va_arg@PAD@__crt_stdio_output@@YAPADPAD@Z 100494c0 f i libucrtd:output.obj
 0001:000484e0       ??$peek_va_arg@PAUansi_string@?1??type_case_Z@?$output_processor@DV?$stream_output_adapter@D@__crt_stdio_output@@V?$positional_parameter_base@DV?$stream_output_adapter@D@__crt_stdio_output@@@2@@__crt_stdio_output@@AAE_NXZ@@__crt_stdio_output@@YAPAUansi_string@?1??type_case_Z@?$output_processor@DV?$stream_output_adapter@D@__crt_stdio_output@@V?$positional_parameter_base@DV?$stream_output_adapter@D@__crt_stdio_output@@@2@@0@AAE_NXZ@PAD@Z 100494e0 f i libucrtd:output.obj
 0001:00048500       ??$peek_va_arg@PAUansi_string@?1??type_case_Z@?$output_processor@DV?$string_output_adapter@D@__crt_stdio_output@@V?$positional_parameter_base@DV?$string_output_adapter@D@__crt_stdio_output@@@2@@__crt_stdio_output@@AAE_NXZ@@__crt_stdio_output@@YAPAUansi_string@?1??type_case_Z@?$output_processor@DV?$string_output_adapter@D@__crt_stdio_output@@V?$positional_parameter_base@DV?$string_output_adapter@D@__crt_stdio_output@@@2@@0@AAE_NXZ@PAD@Z 10049500 f i libucrtd:output.obj
 0001:00048520       ??$peek_va_arg@PAUansi_string@?1??type_case_Z@?$output_processor@_WV?$stream_output_adapter@_W@__crt_stdio_output@@V?$positional_parameter_base@_WV?$stream_output_adapter@_W@__crt_stdio_output@@@2@@__crt_stdio_output@@AAE_NXZ@@__crt_stdio_output@@YAPAUansi_string@?1??type_case_Z@?$output_processor@_WV?$stream_output_adapter@_W@__crt_stdio_output@@V?$positional_parameter_base@_WV?$stream_output_adapter@_W@__crt_stdio_output@@@2@@0@AAE_NXZ@PAD@Z 10049520 f i libucrtd:output.obj
 0001:00048540       ??$peek_va_arg@PAUansi_string@?1??type_case_Z@?$output_processor@_WV?$string_output_adapter@_W@__crt_stdio_output@@V?$positional_parameter_base@_WV?$string_output_adapter@_W@__crt_stdio_output@@@2@@__crt_stdio_output@@AAE_NXZ@@__crt_stdio_output@@YAPAUansi_string@?1??type_case_Z@?$output_processor@_WV?$string_output_adapter@_W@__crt_stdio_output@@V?$positional_parameter_base@_WV?$string_output_adapter@_W@__crt_stdio_output@@@2@@0@AAE_NXZ@PAD@Z 10049540 f i libucrtd:output.obj
 0001:00048560       ??$peek_va_arg@PAX@__crt_stdio_output@@YAPAXPAD@Z 10049560 f i libucrtd:output.obj
 0001:00048580       ??$peek_va_arg@U_CRT_DOUBLE@@@__crt_stdio_output@@YA?AU_CRT_DOUBLE@@PAD@Z 10049580 f i libucrtd:output.obj
 0001:000485a0       ??$peek_va_arg@_J@__crt_stdio_output@@YA_JPAD@Z 100495a0 f i libucrtd:output.obj
 0001:000485c0       ??$peek_va_arg@_K@__crt_stdio_output@@YA_KPAD@Z 100495c0 f i libucrtd:output.obj
 0001:000485e0       ??$peek_va_arg@_W@__crt_stdio_output@@YA_WPAD@Z 100495e0 f i libucrtd:output.obj
 0001:00048600       ??$puttc_nolock@ABDPAU_iobuf@@@?$__crt_char_traits@D@@SAHABD$$QAPAU_iobuf@@@Z 10049600 f i libucrtd:output.obj
 0001:00048620       ??$puttc_nolock@AB_WPAU_iobuf@@@?$__crt_char_traits@_W@@SAGAB_W$$QAPAU_iobuf@@@Z 10049620 f i libucrtd:output.obj
 0001:00048640       ??$read_va_arg@C@__crt_stdio_output@@YACAAPAD@Z 10049640 f i libucrtd:output.obj
 0001:00048660       ??$read_va_arg@E@__crt_stdio_output@@YAEAAPAD@Z 10049660 f i libucrtd:output.obj
 0001:00048680       ??$read_va_arg@F@__crt_stdio_output@@YAFAAPAD@Z 10049680 f i libucrtd:output.obj
 0001:000486a0       ??$read_va_arg@G@__crt_stdio_output@@YAGAAPAD@Z 100496a0 f i libucrtd:output.obj
 0001:000486c0       ??$read_va_arg@H@__crt_stdio_output@@YAHAAPAD@Z 100496c0 f i libucrtd:output.obj
 0001:000486e0       ??$read_va_arg@I@__crt_stdio_output@@YAIAAPAD@Z 100496e0 f i libucrtd:output.obj
 0001:00048700       ??$read_va_arg@PAD@__crt_stdio_output@@YAPADAAPAD@Z 10049700 f i libucrtd:output.obj
 0001:00048720       ??$read_va_arg@PAUansi_string@?1??type_case_Z@?$output_processor@DV?$stream_output_adapter@D@__crt_stdio_output@@V?$format_validation_base@DV?$stream_output_adapter@D@__crt_stdio_output@@@2@@__crt_stdio_output@@AAE_NXZ@@__crt_stdio_output@@YAPAUansi_string@?1??type_case_Z@?$output_processor@DV?$stream_output_adapter@D@__crt_stdio_output@@V?$format_validation_base@DV?$stream_output_adapter@D@__crt_stdio_output@@@2@@0@AAE_NXZ@AAPAD@Z 10049720 f i libucrtd:output.obj
 0001:00048740       ??$read_va_arg@PAUansi_string@?1??type_case_Z@?$output_processor@DV?$stream_output_adapter@D@__crt_stdio_output@@V?$positional_parameter_base@DV?$stream_output_adapter@D@__crt_stdio_output@@@2@@__crt_stdio_output@@AAE_NXZ@@__crt_stdio_output@@YAPAUansi_string@?1??type_case_Z@?$output_processor@DV?$stream_output_adapter@D@__crt_stdio_output@@V?$positional_parameter_base@DV?$stream_output_adapter@D@__crt_stdio_output@@@2@@0@AAE_NXZ@AAPAD@Z 10049740 f i libucrtd:output.obj
 0001:00048760       ??$read_va_arg@PAUansi_string@?1??type_case_Z@?$output_processor@DV?$stream_output_adapter@D@__crt_stdio_output@@V?$standard_base@DV?$stream_output_adapter@D@__crt_stdio_output@@@2@@__crt_stdio_output@@AAE_NXZ@@__crt_stdio_output@@YAPAUansi_string@?1??type_case_Z@?$output_processor@DV?$stream_output_adapter@D@__crt_stdio_output@@V?$standard_base@DV?$stream_output_adapter@D@__crt_stdio_output@@@2@@0@AAE_NXZ@AAPAD@Z 10049760 f i libucrtd:output.obj
 0001:00048780       ??$read_va_arg@PAUansi_string@?1??type_case_Z@?$output_processor@DV?$string_output_adapter@D@__crt_stdio_output@@V?$format_validation_base@DV?$string_output_adapter@D@__crt_stdio_output@@@2@@__crt_stdio_output@@AAE_NXZ@@__crt_stdio_output@@YAPAUansi_string@?1??type_case_Z@?$output_processor@DV?$string_output_adapter@D@__crt_stdio_output@@V?$format_validation_base@DV?$string_output_adapter@D@__crt_stdio_output@@@2@@0@AAE_NXZ@AAPAD@Z 10049780 f i libucrtd:output.obj
 0001:000487a0       ??$read_va_arg@PAUansi_string@?1??type_case_Z@?$output_processor@DV?$string_output_adapter@D@__crt_stdio_output@@V?$positional_parameter_base@DV?$string_output_adapter@D@__crt_stdio_output@@@2@@__crt_stdio_output@@AAE_NXZ@@__crt_stdio_output@@YAPAUansi_string@?1??type_case_Z@?$output_processor@DV?$string_output_adapter@D@__crt_stdio_output@@V?$positional_parameter_base@DV?$string_output_adapter@D@__crt_stdio_output@@@2@@0@AAE_NXZ@AAPAD@Z 100497a0 f i libucrtd:output.obj
 0001:000487c0       ??$read_va_arg@PAUansi_string@?1??type_case_Z@?$output_processor@DV?$string_output_adapter@D@__crt_stdio_output@@V?$standard_base@DV?$string_output_adapter@D@__crt_stdio_output@@@2@@__crt_stdio_output@@AAE_NXZ@@__crt_stdio_output@@YAPAUansi_string@?1??type_case_Z@?$output_processor@DV?$string_output_adapter@D@__crt_stdio_output@@V?$standard_base@DV?$string_output_adapter@D@__crt_stdio_output@@@2@@0@AAE_NXZ@AAPAD@Z 100497c0 f i libucrtd:output.obj
 0001:000487e0       ??$read_va_arg@PAUansi_string@?1??type_case_Z@?$output_processor@_WV?$stream_output_adapter@_W@__crt_stdio_output@@V?$format_validation_base@_WV?$stream_output_adapter@_W@__crt_stdio_output@@@2@@__crt_stdio_output@@AAE_NXZ@@__crt_stdio_output@@YAPAUansi_string@?1??type_case_Z@?$output_processor@_WV?$stream_output_adapter@_W@__crt_stdio_output@@V?$format_validation_base@_WV?$stream_output_adapter@_W@__crt_stdio_output@@@2@@0@AAE_NXZ@AAPAD@Z 100497e0 f i libucrtd:output.obj
 0001:00048800       ??$read_va_arg@PAUansi_string@?1??type_case_Z@?$output_processor@_WV?$stream_output_adapter@_W@__crt_stdio_output@@V?$positional_parameter_base@_WV?$stream_output_adapter@_W@__crt_stdio_output@@@2@@__crt_stdio_output@@AAE_NXZ@@__crt_stdio_output@@YAPAUansi_string@?1??type_case_Z@?$output_processor@_WV?$stream_output_adapter@_W@__crt_stdio_output@@V?$positional_parameter_base@_WV?$stream_output_adapter@_W@__crt_stdio_output@@@2@@0@AAE_NXZ@AAPAD@Z 10049800 f i libucrtd:output.obj
 0001:00048820       ??$read_va_arg@PAUansi_string@?1??type_case_Z@?$output_processor@_WV?$stream_output_adapter@_W@__crt_stdio_output@@V?$standard_base@_WV?$stream_output_adapter@_W@__crt_stdio_output@@@2@@__crt_stdio_output@@AAE_NXZ@@__crt_stdio_output@@YAPAUansi_string@?1??type_case_Z@?$output_processor@_WV?$stream_output_adapter@_W@__crt_stdio_output@@V?$standard_base@_WV?$stream_output_adapter@_W@__crt_stdio_output@@@2@@0@AAE_NXZ@AAPAD@Z 10049820 f i libucrtd:output.obj
 0001:00048840       ??$read_va_arg@PAUansi_string@?1??type_case_Z@?$output_processor@_WV?$string_output_adapter@_W@__crt_stdio_output@@V?$format_validation_base@_WV?$string_output_adapter@_W@__crt_stdio_output@@@2@@__crt_stdio_output@@AAE_NXZ@@__crt_stdio_output@@YAPAUansi_string@?1??type_case_Z@?$output_processor@_WV?$string_output_adapter@_W@__crt_stdio_output@@V?$format_validation_base@_WV?$string_output_adapter@_W@__crt_stdio_output@@@2@@0@AAE_NXZ@AAPAD@Z 10049840 f i libucrtd:output.obj
 0001:00048860       ??$read_va_arg@PAUansi_string@?1??type_case_Z@?$output_processor@_WV?$string_output_adapter@_W@__crt_stdio_output@@V?$positional_parameter_base@_WV?$string_output_adapter@_W@__crt_stdio_output@@@2@@__crt_stdio_output@@AAE_NXZ@@__crt_stdio_output@@YAPAUansi_string@?1??type_case_Z@?$output_processor@_WV?$string_output_adapter@_W@__crt_stdio_output@@V?$positional_parameter_base@_WV?$string_output_adapter@_W@__crt_stdio_output@@@2@@0@AAE_NXZ@AAPAD@Z 10049860 f i libucrtd:output.obj
 0001:00048880       ??$read_va_arg@PAUansi_string@?1??type_case_Z@?$output_processor@_WV?$string_output_adapter@_W@__crt_stdio_output@@V?$standard_base@_WV?$string_output_adapter@_W@__crt_stdio_output@@@2@@__crt_stdio_output@@AAE_NXZ@@__crt_stdio_output@@YAPAUansi_string@?1??type_case_Z@?$output_processor@_WV?$string_output_adapter@_W@__crt_stdio_output@@V?$standard_base@_WV?$string_output_adapter@_W@__crt_stdio_output@@@2@@0@AAE_NXZ@AAPAD@Z 10049880 f i libucrtd:output.obj
 0001:000488a0       ??$read_va_arg@PAX@__crt_stdio_output@@YAPAXAAPAD@Z 100498a0 f i libucrtd:output.obj
 0001:000488c0       ??$read_va_arg@U_CRT_DOUBLE@@@__crt_stdio_output@@YA?AU_CRT_DOUBLE@@AAPAD@Z 100498c0 f i libucrtd:output.obj
 0001:000488e0       ??$read_va_arg@_J@__crt_stdio_output@@YA_JAAPAD@Z 100498e0 f i libucrtd:output.obj
 0001:00048900       ??$read_va_arg@_K@__crt_stdio_output@@YA_KAAPAD@Z 10049900 f i libucrtd:output.obj
 0001:00048920       ??$read_va_arg@_W@__crt_stdio_output@@YA_WAAPAD@Z 10049920 f i libucrtd:output.obj
 0001:00048940       ??$scratch_count@D@formatting_buffer@__crt_stdio_output@@QBEIXZ 10049940 f i libucrtd:output.obj
 0001:00048960       ??$scratch_data@D@formatting_buffer@__crt_stdio_output@@QAEPADXZ 10049960 f i libucrtd:output.obj
 0001:000489b0       ??$tcstol@AAPBDPAPADH@?$__crt_char_traits@D@@SAJAAPBD$$QAPAPAD$$QAH@Z 100499b0 f i libucrtd:output.obj
 0001:000489e0       ??$tcstol@AAPB_WPAPA_WH@?$__crt_char_traits@_W@@SAJAAPB_W$$QAPAPA_W$$QAH@Z 100499e0 f i libucrtd:output.obj
 0001:00048a10       ??$tcstol@PBDPAPADH@?$__crt_char_traits@D@@SAJ$$QAPBD$$QAPAPAD$$QAH@Z 10049a10 f i libucrtd:output.obj
 0001:00048a40       ??$tcstol@PB_WPAPA_WH@?$__crt_char_traits@_W@@SAJ$$QAPB_W$$QAPAPA_W$$QAH@Z 10049a40 f i libucrtd:output.obj
 0001:00048a70       ??$type_case_integer_parse_into_buffer@I@?$output_processor@DV?$stream_output_adapter@D@__crt_stdio_output@@V?$format_validation_base@DV?$stream_output_adapter@D@__crt_stdio_output@@@2@@__crt_stdio_output@@AAEXII_N@Z 10049a70 f i libucrtd:output.obj
 0001:00048b40       ??$type_case_integer_parse_into_buffer@I@?$output_processor@DV?$stream_output_adapter@D@__crt_stdio_output@@V?$positional_parameter_base@DV?$stream_output_adapter@D@__crt_stdio_output@@@2@@__crt_stdio_output@@AAEXII_N@Z 10049b40 f i libucrtd:output.obj
 0001:00048c10       ??$type_case_integer_parse_into_buffer@I@?$output_processor@DV?$stream_output_adapter@D@__crt_stdio_output@@V?$standard_base@DV?$stream_output_adapter@D@__crt_stdio_output@@@2@@__crt_stdio_output@@AAEXII_N@Z 10049c10 f i libucrtd:output.obj
 0001:00048ce0       ??$type_case_integer_parse_into_buffer@I@?$output_processor@DV?$string_output_adapter@D@__crt_stdio_output@@V?$format_validation_base@DV?$string_output_adapter@D@__crt_stdio_output@@@2@@__crt_stdio_output@@AAEXII_N@Z 10049ce0 f i libucrtd:output.obj
 0001:00048db0       ??$type_case_integer_parse_into_buffer@I@?$output_processor@DV?$string_output_adapter@D@__crt_stdio_output@@V?$positional_parameter_base@DV?$string_output_adapter@D@__crt_stdio_output@@@2@@__crt_stdio_output@@AAEXII_N@Z 10049db0 f i libucrtd:output.obj
 0001:00048e80       ??$type_case_integer_parse_into_buffer@I@?$output_processor@DV?$string_output_adapter@D@__crt_stdio_output@@V?$standard_base@DV?$string_output_adapter@D@__crt_stdio_output@@@2@@__crt_stdio_output@@AAEXII_N@Z 10049e80 f i libucrtd:output.obj
 0001:00048f50       ??$type_case_integer_parse_into_buffer@I@?$output_processor@_WV?$stream_output_adapter@_W@__crt_stdio_output@@V?$format_validation_base@_WV?$stream_output_adapter@_W@__crt_stdio_output@@@2@@__crt_stdio_output@@AAEXII_N@Z 10049f50 f i libucrtd:output.obj
 0001:00049030       ??$type_case_integer_parse_into_buffer@I@?$output_processor@_WV?$stream_output_adapter@_W@__crt_stdio_output@@V?$positional_parameter_base@_WV?$stream_output_adapter@_W@__crt_stdio_output@@@2@@__crt_stdio_output@@AAEXII_N@Z 1004a030 f i libucrtd:output.obj
 0001:00049110       ??$type_case_integer_parse_into_buffer@I@?$output_processor@_WV?$stream_output_adapter@_W@__crt_stdio_output@@V?$standard_base@_WV?$stream_output_adapter@_W@__crt_stdio_output@@@2@@__crt_stdio_output@@AAEXII_N@Z 1004a110 f i libucrtd:output.obj
 0001:000491f0       ??$type_case_integer_parse_into_buffer@I@?$output_processor@_WV?$string_output_adapter@_W@__crt_stdio_output@@V?$format_validation_base@_WV?$string_output_adapter@_W@__crt_stdio_output@@@2@@__crt_stdio_output@@AAEXII_N@Z 1004a1f0 f i libucrtd:output.obj
 0001:000492d0       ??$type_case_integer_parse_into_buffer@I@?$output_processor@_WV?$string_output_adapter@_W@__crt_stdio_output@@V?$positional_parameter_base@_WV?$string_output_adapter@_W@__crt_stdio_output@@@2@@__crt_stdio_output@@AAEXII_N@Z 1004a2d0 f i libucrtd:output.obj
 0001:000493b0       ??$type_case_integer_parse_into_buffer@I@?$output_processor@_WV?$string_output_adapter@_W@__crt_stdio_output@@V?$standard_base@_WV?$string_output_adapter@_W@__crt_stdio_output@@@2@@__crt_stdio_output@@AAEXII_N@Z 1004a3b0 f i libucrtd:output.obj
 0001:00049490       ??$type_case_integer_parse_into_buffer@_K@?$output_processor@DV?$stream_output_adapter@D@__crt_stdio_output@@V?$format_validation_base@DV?$stream_output_adapter@D@__crt_stdio_output@@@2@@__crt_stdio_output@@AAEX_KI_N@Z 1004a490 f i libucrtd:output.obj
 0001:00049580       ??$type_case_integer_parse_into_buffer@_K@?$output_processor@DV?$stream_output_adapter@D@__crt_stdio_output@@V?$positional_parameter_base@DV?$stream_output_adapter@D@__crt_stdio_output@@@2@@__crt_stdio_output@@AAEX_KI_N@Z 1004a580 f i libucrtd:output.obj
 0001:00049670       ??$type_case_integer_parse_into_buffer@_K@?$output_processor@DV?$stream_output_adapter@D@__crt_stdio_output@@V?$standard_base@DV?$stream_output_adapter@D@__crt_stdio_output@@@2@@__crt_stdio_output@@AAEX_KI_N@Z 1004a670 f i libucrtd:output.obj
 0001:00049760       ??$type_case_integer_parse_into_buffer@_K@?$output_processor@DV?$string_output_adapter@D@__crt_stdio_output@@V?$format_validation_base@DV?$string_output_adapter@D@__crt_stdio_output@@@2@@__crt_stdio_output@@AAEX_KI_N@Z 1004a760 f i libucrtd:output.obj
 0001:00049850       ??$type_case_integer_parse_into_buffer@_K@?$output_processor@DV?$string_output_adapter@D@__crt_stdio_output@@V?$positional_parameter_base@DV?$string_output_adapter@D@__crt_stdio_output@@@2@@__crt_stdio_output@@AAEX_KI_N@Z 1004a850 f i libucrtd:output.obj
 0001:00049940       ??$type_case_integer_parse_into_buffer@_K@?$output_processor@DV?$string_output_adapter@D@__crt_stdio_output@@V?$standard_base@DV?$string_output_adapter@D@__crt_stdio_output@@@2@@__crt_stdio_output@@AAEX_KI_N@Z 1004a940 f i libucrtd:output.obj
 0001:00049a30       ??$type_case_integer_parse_into_buffer@_K@?$output_processor@_WV?$stream_output_adapter@_W@__crt_stdio_output@@V?$format_validation_base@_WV?$stream_output_adapter@_W@__crt_stdio_output@@@2@@__crt_stdio_output@@AAEX_KI_N@Z 1004aa30 f i libucrtd:output.obj
 0001:00049b30       ??$type_case_integer_parse_into_buffer@_K@?$output_processor@_WV?$stream_output_adapter@_W@__crt_stdio_output@@V?$positional_parameter_base@_WV?$stream_output_adapter@_W@__crt_stdio_output@@@2@@__crt_stdio_output@@AAEX_KI_N@Z 1004ab30 f i libucrtd:output.obj
 0001:00049c30       ??$type_case_integer_parse_into_buffer@_K@?$output_processor@_WV?$stream_output_adapter@_W@__crt_stdio_output@@V?$standard_base@_WV?$stream_output_adapter@_W@__crt_stdio_output@@@2@@__crt_stdio_output@@AAEX_KI_N@Z 1004ac30 f i libucrtd:output.obj
 0001:00049d30       ??$type_case_integer_parse_into_buffer@_K@?$output_processor@_WV?$string_output_adapter@_W@__crt_stdio_output@@V?$format_validation_base@_WV?$string_output_adapter@_W@__crt_stdio_output@@@2@@__crt_stdio_output@@AAEX_KI_N@Z 1004ad30 f i libucrtd:output.obj
 0001:00049e30       ??$type_case_integer_parse_into_buffer@_K@?$output_processor@_WV?$string_output_adapter@_W@__crt_stdio_output@@V?$positional_parameter_base@_WV?$string_output_adapter@_W@__crt_stdio_output@@@2@@__crt_stdio_output@@AAEX_KI_N@Z 1004ae30 f i libucrtd:output.obj
 0001:00049f30       ??$type_case_integer_parse_into_buffer@_K@?$output_processor@_WV?$string_output_adapter@_W@__crt_stdio_output@@V?$standard_base@_WV?$string_output_adapter@_W@__crt_stdio_output@@@2@@__crt_stdio_output@@AAEX_KI_N@Z 1004af30 f i libucrtd:output.obj
 0001:0004a030       ??$write_multiple_characters@V?$stream_output_adapter@D@__crt_stdio_output@@D@__crt_stdio_output@@YAXABV?$stream_output_adapter@D@0@DHQAH@Z 1004b030 f i libucrtd:output.obj
 0001:0004a080       ??$write_multiple_characters@V?$stream_output_adapter@_W@__crt_stdio_output@@D@__crt_stdio_output@@YAXABV?$stream_output_adapter@_W@0@DHQAH@Z 1004b080 f i libucrtd:output.obj
 0001:0004a0d0       ??$write_multiple_characters@V?$string_output_adapter@D@__crt_stdio_output@@D@__crt_stdio_output@@YAXABV?$string_output_adapter@D@0@DHQAH@Z 1004b0d0 f i libucrtd:output.obj
 0001:0004a120       ??$write_multiple_characters@V?$string_output_adapter@_W@__crt_stdio_output@@D@__crt_stdio_output@@YAXABV?$string_output_adapter@_W@0@DHQAH@Z 1004b120 f i libucrtd:output.obj
 0001:0004a470       ??0?$common_data@D@__crt_stdio_output@@IAE@XZ 1004b470 f i libucrtd:output.obj
 0001:0004a520       ??0?$common_data@_W@__crt_stdio_output@@IAE@XZ 1004b520 f i libucrtd:output.obj
 0001:0004a5d0       ??0?$output_adapter_data@DV?$stream_output_adapter@D@__crt_stdio_output@@@__crt_stdio_output@@IAE@ABV?$stream_output_adapter@D@1@_KQBDQAU__crt_locale_pointers@@QAD@Z 1004b5d0 f i libucrtd:output.obj
 0001:0004a630       ??0?$output_adapter_data@DV?$string_output_adapter@D@__crt_stdio_output@@@__crt_stdio_output@@IAE@ABV?$string_output_adapter@D@1@_KQBDQAU__crt_locale_pointers@@QAD@Z 1004b630 f i libucrtd:output.obj
 0001:0004a690       ??0?$output_adapter_data@_WV?$stream_output_adapter@_W@__crt_stdio_output@@@__crt_stdio_output@@IAE@ABV?$stream_output_adapter@_W@1@_KQB_WQAU__crt_locale_pointers@@QAD@Z 1004b690 f i libucrtd:output.obj
 0001:0004a6f0       ??0?$output_adapter_data@_WV?$string_output_adapter@_W@__crt_stdio_output@@@__crt_stdio_output@@IAE@ABV?$string_output_adapter@_W@1@_KQB_WQAU__crt_locale_pointers@@QAD@Z 1004b6f0 f i libucrtd:output.obj
 0001:0004a750       ??0?$output_processor@DV?$stream_output_adapter@D@__crt_stdio_output@@V?$format_validation_base@DV?$stream_output_adapter@D@__crt_stdio_output@@@2@@__crt_stdio_output@@QAE@ABV?$stream_output_adapter@D@1@_KQBDQAU__crt_locale_pointers@@QAD@Z 1004b750 f i libucrtd:output.obj
 0001:0004a780       ??0?$output_processor@DV?$stream_output_adapter@D@__crt_stdio_output@@V?$positional_parameter_base@DV?$stream_output_adapter@D@__crt_stdio_output@@@2@@__crt_stdio_output@@QAE@ABV?$stream_output_adapter@D@1@_KQBDQAU__crt_locale_pointers@@QAD@Z 1004b780 f i libucrtd:output.obj
 0001:0004a7b0       ??0?$output_processor@DV?$stream_output_adapter@D@__crt_stdio_output@@V?$standard_base@DV?$stream_output_adapter@D@__crt_stdio_output@@@2@@__crt_stdio_output@@QAE@ABV?$stream_output_adapter@D@1@_KQBDQAU__crt_locale_pointers@@QAD@Z 1004b7b0 f i libucrtd:output.obj
 0001:0004a7e0       ??0?$output_processor@DV?$string_output_adapter@D@__crt_stdio_output@@V?$format_validation_base@DV?$string_output_adapter@D@__crt_stdio_output@@@2@@__crt_stdio_output@@QAE@ABV?$string_output_adapter@D@1@_KQBDQAU__crt_locale_pointers@@QAD@Z 1004b7e0 f i libucrtd:output.obj
 0001:0004a810       ??0?$output_processor@DV?$string_output_adapter@D@__crt_stdio_output@@V?$positional_parameter_base@DV?$string_output_adapter@D@__crt_stdio_output@@@2@@__crt_stdio_output@@QAE@ABV?$string_output_adapter@D@1@_KQBDQAU__crt_locale_pointers@@QAD@Z 1004b810 f i libucrtd:output.obj
 0001:0004a840       ??0?$output_processor@DV?$string_output_adapter@D@__crt_stdio_output@@V?$standard_base@DV?$string_output_adapter@D@__crt_stdio_output@@@2@@__crt_stdio_output@@QAE@ABV?$string_output_adapter@D@1@_KQBDQAU__crt_locale_pointers@@QAD@Z 1004b840 f i libucrtd:output.obj
 0001:0004a870       ??0?$output_processor@_WV?$stream_output_adapter@_W@__crt_stdio_output@@V?$format_validation_base@_WV?$stream_output_adapter@_W@__crt_stdio_output@@@2@@__crt_stdio_output@@QAE@ABV?$stream_output_adapter@_W@1@_KQB_WQAU__crt_locale_pointers@@QAD@Z 1004b870 f i libucrtd:output.obj
 0001:0004a8a0       ??0?$output_processor@_WV?$stream_output_adapter@_W@__crt_stdio_output@@V?$positional_parameter_base@_WV?$stream_output_adapter@_W@__crt_stdio_output@@@2@@__crt_stdio_output@@QAE@ABV?$stream_output_adapter@_W@1@_KQB_WQAU__crt_locale_pointers@@QAD@Z 1004b8a0 f i libucrtd:output.obj
 0001:0004a8d0       ??0?$output_processor@_WV?$stream_output_adapter@_W@__crt_stdio_output@@V?$standard_base@_WV?$stream_output_adapter@_W@__crt_stdio_output@@@2@@__crt_stdio_output@@QAE@ABV?$stream_output_adapter@_W@1@_KQB_WQAU__crt_locale_pointers@@QAD@Z 1004b8d0 f i libucrtd:output.obj
 0001:0004a900       ??0?$output_processor@_WV?$string_output_adapter@_W@__crt_stdio_output@@V?$format_validation_base@_WV?$string_output_adapter@_W@__crt_stdio_output@@@2@@__crt_stdio_output@@QAE@ABV?$string_output_adapter@_W@1@_KQB_WQAU__crt_locale_pointers@@QAD@Z 1004b900 f i libucrtd:output.obj
 0001:0004a930       ??0?$output_processor@_WV?$string_output_adapter@_W@__crt_stdio_output@@V?$positional_parameter_base@_WV?$string_output_adapter@_W@__crt_stdio_output@@@2@@__crt_stdio_output@@QAE@ABV?$string_output_adapter@_W@1@_KQB_WQAU__crt_locale_pointers@@QAD@Z 1004b930 f i libucrtd:output.obj
 0001:0004a960       ??0?$output_processor@_WV?$string_output_adapter@_W@__crt_stdio_output@@V?$standard_base@_WV?$string_output_adapter@_W@__crt_stdio_output@@@2@@__crt_stdio_output@@QAE@ABV?$string_output_adapter@_W@1@_KQB_WQAU__crt_locale_pointers@@QAD@Z 1004b960 f i libucrtd:output.obj
 0001:0004a990       ??0?$stream_output_adapter@D@__crt_stdio_output@@QAE@QAU_iobuf@@@Z 1004b990 f i libucrtd:output.obj
 0001:0004a9b0       ??0?$stream_output_adapter@_W@__crt_stdio_output@@QAE@QAU_iobuf@@@Z 1004b9b0 f i libucrtd:output.obj
 0001:0004a9d0       ??0?$string_output_adapter@D@__crt_stdio_output@@QAE@QAU?$string_output_adapter_context@D@1@@Z 1004b9d0 f i libucrtd:output.obj
 0001:0004a9f0       ??0?$string_output_adapter@_W@__crt_stdio_output@@QAE@QAU?$string_output_adapter_context@_W@1@@Z 1004b9f0 f i libucrtd:output.obj
 0001:0004aa10       ??0_LocaleUpdate@@QAE@QAU__crt_locale_pointers@@@Z 1004ba10 f i libucrtd:output.obj
 0001:0004aae0       ??0__acrt_stdio_temporary_buffering_guard@@QAE@QAU_iobuf@@@Z 1004bae0 f i libucrtd:output.obj
 0001:0004ab10       ??0__crt_deferred_errno_cache@@QAE@XZ 1004bb10 f i libucrtd:output.obj
 0001:0004ab30       ??0__crt_errno_guard@@QAE@QAH@Z 1004bb30 f i libucrtd:output.obj
 0001:0004ab60       ??0__crt_stdio_stream@@QAE@QAU_iobuf@@@Z 1004bb60 f i libucrtd:output.obj
 0001:0004ab80       ??0formatting_buffer@__crt_stdio_output@@QAE@XZ 1004bb80 f i libucrtd:output.obj
 0001:0004abb0       ??1?$common_data@D@__crt_stdio_output@@QAE@XZ 1004bbb0 f i libucrtd:output.obj
 0001:0004abd0       ??1?$common_data@_W@__crt_stdio_output@@QAE@XZ 1004bbd0 f i libucrtd:output.obj
 0001:0004abf0       ??1?$format_validation_base@DV?$stream_output_adapter@D@__crt_stdio_output@@@__crt_stdio_output@@QAE@XZ 1004bbf0 f i libucrtd:output.obj
 0001:0004ac10       ??1?$format_validation_base@DV?$string_output_adapter@D@__crt_stdio_output@@@__crt_stdio_output@@QAE@XZ 1004bc10 f i libucrtd:output.obj
 0001:0004ac30       ??1?$format_validation_base@_WV?$stream_output_adapter@_W@__crt_stdio_output@@@__crt_stdio_output@@QAE@XZ 1004bc30 f i libucrtd:output.obj
 0001:0004ac50       ??1?$format_validation_base@_WV?$string_output_adapter@_W@__crt_stdio_output@@@__crt_stdio_output@@QAE@XZ 1004bc50 f i libucrtd:output.obj
 0001:0004ac70       ??1?$output_adapter_data@DV?$stream_output_adapter@D@__crt_stdio_output@@@__crt_stdio_output@@QAE@XZ 1004bc70 f i libucrtd:output.obj
 0001:0004ac90       ??1?$output_adapter_data@DV?$string_output_adapter@D@__crt_stdio_output@@@__crt_stdio_output@@QAE@XZ 1004bc90 f i libucrtd:output.obj
 0001:0004acb0       ??1?$output_adapter_data@_WV?$stream_output_adapter@_W@__crt_stdio_output@@@__crt_stdio_output@@QAE@XZ 1004bcb0 f i libucrtd:output.obj
 0001:0004acd0       ??1?$output_adapter_data@_WV?$string_output_adapter@_W@__crt_stdio_output@@@__crt_stdio_output@@QAE@XZ 1004bcd0 f i libucrtd:output.obj
 0001:0004acf0       ??1?$output_processor@DV?$stream_output_adapter@D@__crt_stdio_output@@V?$format_validation_base@DV?$stream_output_adapter@D@__crt_stdio_output@@@2@@__crt_stdio_output@@QAE@XZ 1004bcf0 f i libucrtd:output.obj
 0001:0004ad10       ??1?$output_processor@DV?$stream_output_adapter@D@__crt_stdio_output@@V?$positional_parameter_base@DV?$stream_output_adapter@D@__crt_stdio_output@@@2@@__crt_stdio_output@@QAE@XZ 1004bd10 f i libucrtd:output.obj
 0001:0004ad30       ??1?$output_processor@DV?$stream_output_adapter@D@__crt_stdio_output@@V?$standard_base@DV?$stream_output_adapter@D@__crt_stdio_output@@@2@@__crt_stdio_output@@QAE@XZ 1004bd30 f i libucrtd:output.obj
 0001:0004ad50       ??1?$output_processor@DV?$string_output_adapter@D@__crt_stdio_output@@V?$format_validation_base@DV?$string_output_adapter@D@__crt_stdio_output@@@2@@__crt_stdio_output@@QAE@XZ 1004bd50 f i libucrtd:output.obj
 0001:0004ad70       ??1?$output_processor@DV?$string_output_adapter@D@__crt_stdio_output@@V?$positional_parameter_base@DV?$string_output_adapter@D@__crt_stdio_output@@@2@@__crt_stdio_output@@QAE@XZ 1004bd70 f i libucrtd:output.obj
 0001:0004ad90       ??1?$output_processor@DV?$string_output_adapter@D@__crt_stdio_output@@V?$standard_base@DV?$string_output_adapter@D@__crt_stdio_output@@@2@@__crt_stdio_output@@QAE@XZ 1004bd90 f i libucrtd:output.obj
 0001:0004adb0       ??1?$output_processor@_WV?$stream_output_adapter@_W@__crt_stdio_output@@V?$format_validation_base@_WV?$stream_output_adapter@_W@__crt_stdio_output@@@2@@__crt_stdio_output@@QAE@XZ 1004bdb0 f i libucrtd:output.obj
 0001:0004add0       ??1?$output_processor@_WV?$stream_output_adapter@_W@__crt_stdio_output@@V?$positional_parameter_base@_WV?$stream_output_adapter@_W@__crt_stdio_output@@@2@@__crt_stdio_output@@QAE@XZ 1004bdd0 f i libucrtd:output.obj
 0001:0004adf0       ??1?$output_processor@_WV?$stream_output_adapter@_W@__crt_stdio_output@@V?$standard_base@_WV?$stream_output_adapter@_W@__crt_stdio_output@@@2@@__crt_stdio_output@@QAE@XZ 1004bdf0 f i libucrtd:output.obj
 0001:0004ae10       ??1?$output_processor@_WV?$string_output_adapter@_W@__crt_stdio_output@@V?$format_validation_base@_WV?$string_output_adapter@_W@__crt_stdio_output@@@2@@__crt_stdio_output@@QAE@XZ 1004be10 f i libucrtd:output.obj
 0001:0004ae30       ??1?$output_processor@_WV?$string_output_adapter@_W@__crt_stdio_output@@V?$positional_parameter_base@_WV?$string_output_adapter@_W@__crt_stdio_output@@@2@@__crt_stdio_output@@QAE@XZ 1004be30 f i libucrtd:output.obj
 0001:0004ae50       ??1?$output_processor@_WV?$string_output_adapter@_W@__crt_stdio_output@@V?$standard_base@_WV?$string_output_adapter@_W@__crt_stdio_output@@@2@@__crt_stdio_output@@QAE@XZ 1004be50 f i libucrtd:output.obj
 0001:0004ae70       ??1?$positional_parameter_base@DV?$stream_output_adapter@D@__crt_stdio_output@@@__crt_stdio_output@@QAE@XZ 1004be70 f i libucrtd:output.obj
 0001:0004ae90       ??1?$positional_parameter_base@DV?$string_output_adapter@D@__crt_stdio_output@@@__crt_stdio_output@@QAE@XZ 1004be90 f i libucrtd:output.obj
 0001:0004aeb0       ??1?$positional_parameter_base@_WV?$stream_output_adapter@_W@__crt_stdio_output@@@__crt_stdio_output@@QAE@XZ 1004beb0 f i libucrtd:output.obj
 0001:0004aed0       ??1?$positional_parameter_base@_WV?$string_output_adapter@_W@__crt_stdio_output@@@__crt_stdio_output@@QAE@XZ 1004bed0 f i libucrtd:output.obj
 0001:0004aef0       ??1?$standard_base@DV?$stream_output_adapter@D@__crt_stdio_output@@@__crt_stdio_output@@QAE@XZ 1004bef0 f i libucrtd:output.obj
 0001:0004af10       ??1?$standard_base@DV?$string_output_adapter@D@__crt_stdio_output@@@__crt_stdio_output@@QAE@XZ 1004bf10 f i libucrtd:output.obj
 0001:0004af30       ??1?$standard_base@_WV?$stream_output_adapter@_W@__crt_stdio_output@@@__crt_stdio_output@@QAE@XZ 1004bf30 f i libucrtd:output.obj
 0001:0004af50       ??1?$standard_base@_WV?$string_output_adapter@_W@__crt_stdio_output@@@__crt_stdio_output@@QAE@XZ 1004bf50 f i libucrtd:output.obj
 0001:0004af70       ??1_LocaleUpdate@@QAE@XZ   1004bf70 f i libucrtd:output.obj
 0001:0004afa0       ??1__acrt_stdio_temporary_buffering_guard@@QAE@XZ 1004bfa0 f i libucrtd:output.obj
 0001:0004afd0       ??1__crt_errno_guard@@QAE@XZ 1004bfd0 f i libucrtd:output.obj
 0001:0004b000       ??1formatting_buffer@__crt_stdio_output@@QAE@XZ 1004c000 f i libucrtd:output.obj
 0001:0004b020       ??4?$__crt_unique_heap_ptr@DU__crt_internal_free_policy@@@@QAEAAV0@$$QAV0@@Z 1004c020 f i libucrtd:output.obj
 0001:0004b050       ??A?$spectre_mitigated_lookup_table@Ustate_transition_pair@__crt_stdio_output@@$0IA@@__crt_stdio_output@@QBEABUstate_transition_pair@1@I@Z 1004c050 f i libucrtd:output.obj
 0001:0004b070       ??C__crt_stdio_stream@@QBEPAU__crt_stdio_stream_data@@XZ 1004c070 f i libucrtd:output.obj
 0001:0004b7b0       ?GetLocaleT@_LocaleUpdate@@QAEPAU__crt_locale_pointers@@XZ 1004c7b0 f i libucrtd:output.obj
 0001:0004b7d0       ?adjust_hexit@?$output_processor@DV?$stream_output_adapter@D@__crt_stdio_output@@V?$format_validation_base@DV?$stream_output_adapter@D@__crt_stdio_output@@@2@@__crt_stdio_output@@CADH_N@Z 1004c7d0 f i libucrtd:output.obj
 0001:0004b810       ?adjust_hexit@?$output_processor@DV?$stream_output_adapter@D@__crt_stdio_output@@V?$positional_parameter_base@DV?$stream_output_adapter@D@__crt_stdio_output@@@2@@__crt_stdio_output@@CADH_N@Z 1004c810 f i libucrtd:output.obj
 0001:0004b850       ?adjust_hexit@?$output_processor@DV?$stream_output_adapter@D@__crt_stdio_output@@V?$standard_base@DV?$stream_output_adapter@D@__crt_stdio_output@@@2@@__crt_stdio_output@@CADH_N@Z 1004c850 f i libucrtd:output.obj
 0001:0004b890       ?adjust_hexit@?$output_processor@DV?$string_output_adapter@D@__crt_stdio_output@@V?$format_validation_base@DV?$string_output_adapter@D@__crt_stdio_output@@@2@@__crt_stdio_output@@CADH_N@Z 1004c890 f i libucrtd:output.obj
 0001:0004b8d0       ?adjust_hexit@?$output_processor@DV?$string_output_adapter@D@__crt_stdio_output@@V?$positional_parameter_base@DV?$string_output_adapter@D@__crt_stdio_output@@@2@@__crt_stdio_output@@CADH_N@Z 1004c8d0 f i libucrtd:output.obj
 0001:0004b910       ?adjust_hexit@?$output_processor@DV?$string_output_adapter@D@__crt_stdio_output@@V?$standard_base@DV?$string_output_adapter@D@__crt_stdio_output@@@2@@__crt_stdio_output@@CADH_N@Z 1004c910 f i libucrtd:output.obj
 0001:0004b950       ?adjust_hexit@?$output_processor@_WV?$stream_output_adapter@_W@__crt_stdio_output@@V?$format_validation_base@_WV?$stream_output_adapter@_W@__crt_stdio_output@@@2@@__crt_stdio_output@@CADH_N@Z 1004c950 f i libucrtd:output.obj
 0001:0004b990       ?adjust_hexit@?$output_processor@_WV?$stream_output_adapter@_W@__crt_stdio_output@@V?$positional_parameter_base@_WV?$stream_output_adapter@_W@__crt_stdio_output@@@2@@__crt_stdio_output@@CADH_N@Z 1004c990 f i libucrtd:output.obj
 0001:0004b9d0       ?adjust_hexit@?$output_processor@_WV?$stream_output_adapter@_W@__crt_stdio_output@@V?$standard_base@_WV?$stream_output_adapter@_W@__crt_stdio_output@@@2@@__crt_stdio_output@@CADH_N@Z 1004c9d0 f i libucrtd:output.obj
 0001:0004ba10       ?adjust_hexit@?$output_processor@_WV?$string_output_adapter@_W@__crt_stdio_output@@V?$format_validation_base@_WV?$string_output_adapter@_W@__crt_stdio_output@@@2@@__crt_stdio_output@@CADH_N@Z 1004ca10 f i libucrtd:output.obj
 0001:0004ba50       ?adjust_hexit@?$output_processor@_WV?$string_output_adapter@_W@__crt_stdio_output@@V?$positional_parameter_base@_WV?$string_output_adapter@_W@__crt_stdio_output@@@2@@__crt_stdio_output@@CADH_N@Z 1004ca50 f i libucrtd:output.obj
 0001:0004ba90       ?adjust_hexit@?$output_processor@_WV?$string_output_adapter@_W@__crt_stdio_output@@V?$standard_base@_WV?$string_output_adapter@_W@__crt_stdio_output@@@2@@__crt_stdio_output@@CADH_N@Z 1004ca90 f i libucrtd:output.obj
 0001:0004bad0       ?advance_to_next_pass@?$positional_parameter_base@DV?$stream_output_adapter@D@__crt_stdio_output@@@__crt_stdio_output@@IAE_NXZ 1004cad0 f i libucrtd:output.obj
 0001:0004bb70       ?advance_to_next_pass@?$positional_parameter_base@DV?$string_output_adapter@D@__crt_stdio_output@@@__crt_stdio_output@@IAE_NXZ 1004cb70 f i libucrtd:output.obj
 0001:0004bc10       ?advance_to_next_pass@?$positional_parameter_base@_WV?$stream_output_adapter@_W@__crt_stdio_output@@@__crt_stdio_output@@IAE_NXZ 1004cc10 f i libucrtd:output.obj
 0001:0004bcb0       ?advance_to_next_pass@?$positional_parameter_base@_WV?$string_output_adapter@_W@__crt_stdio_output@@@__crt_stdio_output@@IAE_NXZ 1004ccb0 f i libucrtd:output.obj
 0001:0004bd50       ?advance_to_next_pass@?$standard_base@DV?$stream_output_adapter@D@__crt_stdio_output@@@__crt_stdio_output@@IAE_NXZ 1004cd50 f i libucrtd:output.obj
 0001:0004bda0       ?advance_to_next_pass@?$standard_base@DV?$string_output_adapter@D@__crt_stdio_output@@@__crt_stdio_output@@IAE_NXZ 1004cda0 f i libucrtd:output.obj
 0001:0004bdf0       ?advance_to_next_pass@?$standard_base@_WV?$stream_output_adapter@_W@__crt_stdio_output@@@__crt_stdio_output@@IAE_NXZ 1004cdf0 f i libucrtd:output.obj
 0001:0004be40       ?advance_to_next_pass@?$standard_base@_WV?$string_output_adapter@_W@__crt_stdio_output@@@__crt_stdio_output@@IAE_NXZ 1004ce40 f i libucrtd:output.obj
 0001:0004be90       ?crop_zeroes@__crt_stdio_output@@YAXPADQAU__crt_locale_pointers@@@Z 1004ce90 f i libucrtd:output.obj
 0001:0004bf90       ?find_next_state@?$output_processor@DV?$stream_output_adapter@D@__crt_stdio_output@@V?$format_validation_base@DV?$stream_output_adapter@D@__crt_stdio_output@@@2@@__crt_stdio_output@@ABE?AW4state@2@DW432@@Z 1004cf90 f i libucrtd:output.obj
 0001:0004c000       ?find_next_state@?$output_processor@DV?$stream_output_adapter@D@__crt_stdio_output@@V?$positional_parameter_base@DV?$stream_output_adapter@D@__crt_stdio_output@@@2@@__crt_stdio_output@@ABE?AW4state@2@DW432@@Z 1004d000 f i libucrtd:output.obj
 0001:0004c070       ?find_next_state@?$output_processor@DV?$stream_output_adapter@D@__crt_stdio_output@@V?$standard_base@DV?$stream_output_adapter@D@__crt_stdio_output@@@2@@__crt_stdio_output@@ABE?AW4state@2@DW432@@Z 1004d070 f i libucrtd:output.obj
 0001:0004c0e0       ?find_next_state@?$output_processor@DV?$string_output_adapter@D@__crt_stdio_output@@V?$format_validation_base@DV?$string_output_adapter@D@__crt_stdio_output@@@2@@__crt_stdio_output@@ABE?AW4state@2@DW432@@Z 1004d0e0 f i libucrtd:output.obj
 0001:0004c150       ?find_next_state@?$output_processor@DV?$string_output_adapter@D@__crt_stdio_output@@V?$positional_parameter_base@DV?$string_output_adapter@D@__crt_stdio_output@@@2@@__crt_stdio_output@@ABE?AW4state@2@DW432@@Z 1004d150 f i libucrtd:output.obj
 0001:0004c1c0       ?find_next_state@?$output_processor@DV?$string_output_adapter@D@__crt_stdio_output@@V?$standard_base@DV?$string_output_adapter@D@__crt_stdio_output@@@2@@__crt_stdio_output@@ABE?AW4state@2@DW432@@Z 1004d1c0 f i libucrtd:output.obj
 0001:0004c230       ?find_next_state@?$output_processor@_WV?$stream_output_adapter@_W@__crt_stdio_output@@V?$format_validation_base@_WV?$stream_output_adapter@_W@__crt_stdio_output@@@2@@__crt_stdio_output@@ABE?AW4state@2@_WW432@@Z 1004d230 f i libucrtd:output.obj
 0001:0004c2a0       ?find_next_state@?$output_processor@_WV?$stream_output_adapter@_W@__crt_stdio_output@@V?$positional_parameter_base@_WV?$stream_output_adapter@_W@__crt_stdio_output@@@2@@__crt_stdio_output@@ABE?AW4state@2@_WW432@@Z 1004d2a0 f i libucrtd:output.obj
 0001:0004c310       ?find_next_state@?$output_processor@_WV?$stream_output_adapter@_W@__crt_stdio_output@@V?$standard_base@_WV?$stream_output_adapter@_W@__crt_stdio_output@@@2@@__crt_stdio_output@@ABE?AW4state@2@_WW432@@Z 1004d310 f i libucrtd:output.obj
 0001:0004c380       ?find_next_state@?$output_processor@_WV?$string_output_adapter@_W@__crt_stdio_output@@V?$format_validation_base@_WV?$string_output_adapter@_W@__crt_stdio_output@@@2@@__crt_stdio_output@@ABE?AW4state@2@_WW432@@Z 1004d380 f i libucrtd:output.obj
 0001:0004c3f0       ?find_next_state@?$output_processor@_WV?$string_output_adapter@_W@__crt_stdio_output@@V?$positional_parameter_base@_WV?$string_output_adapter@_W@__crt_stdio_output@@@2@@__crt_stdio_output@@ABE?AW4state@2@_WW432@@Z 1004d3f0 f i libucrtd:output.obj
 0001:0004c460       ?find_next_state@?$output_processor@_WV?$string_output_adapter@_W@__crt_stdio_output@@V?$standard_base@_WV?$string_output_adapter@_W@__crt_stdio_output@@@2@@__crt_stdio_output@@ABE?AW4state@2@_WW432@@Z 1004d460 f i libucrtd:output.obj
 0001:0004c4d0       ?force_decimal_point@__crt_stdio_output@@YAXPADQAU__crt_locale_pointers@@@Z 1004d4d0 f i libucrtd:output.obj
 0001:0004c5a0       ?get@__crt_deferred_errno_cache@@QAEAAHXZ 1004d5a0 f i libucrtd:output.obj
 0001:0004c5d0       ?get_flags@__crt_stdio_stream@@QBEJXZ 1004d5d0 f i libucrtd:output.obj
 0001:0004c5f0       ?get_parameter_type@?$positional_parameter_base@DV?$stream_output_adapter@D@__crt_stdio_output@@@__crt_stdio_output@@CA?AW4parameter_type@12@F@Z 1004d5f0 f i libucrtd:output.obj
 0001:0004c600       ?get_parameter_type@?$positional_parameter_base@DV?$stream_output_adapter@D@__crt_stdio_output@@@__crt_stdio_output@@CA?AW4parameter_type@12@G@Z 1004d600 f i libucrtd:output.obj
 0001:0004c610       ?get_parameter_type@?$positional_parameter_base@DV?$stream_output_adapter@D@__crt_stdio_output@@@__crt_stdio_output@@CA?AW4parameter_type@12@H@Z 1004d610 f i libucrtd:output.obj
 0001:0004c620       ?get_parameter_type@?$positional_parameter_base@DV?$stream_output_adapter@D@__crt_stdio_output@@@__crt_stdio_output@@CA?AW4parameter_type@12@I@Z 1004d620 f i libucrtd:output.obj
 0001:0004c630       ?get_parameter_type@?$positional_parameter_base@DV?$stream_output_adapter@D@__crt_stdio_output@@@__crt_stdio_output@@CA?AW4parameter_type@12@U_CRT_DOUBLE@@@Z 1004d630 f i libucrtd:output.obj
 0001:0004c640       ?get_parameter_type@?$positional_parameter_base@DV?$stream_output_adapter@D@__crt_stdio_output@@@__crt_stdio_output@@CA?AW4parameter_type@12@_J@Z 1004d640 f i libucrtd:output.obj
 0001:0004c650       ?get_parameter_type@?$positional_parameter_base@DV?$stream_output_adapter@D@__crt_stdio_output@@@__crt_stdio_output@@CA?AW4parameter_type@12@_K@Z 1004d650 f i libucrtd:output.obj
 0001:0004c660       ?get_parameter_type@?$positional_parameter_base@DV?$stream_output_adapter@D@__crt_stdio_output@@@__crt_stdio_output@@CA?AW4parameter_type@12@_W@Z 1004d660 f i libucrtd:output.obj
 0001:0004c670       ?get_parameter_type@?$positional_parameter_base@DV?$string_output_adapter@D@__crt_stdio_output@@@__crt_stdio_output@@CA?AW4parameter_type@12@F@Z 1004d670 f i libucrtd:output.obj
 0001:0004c680       ?get_parameter_type@?$positional_parameter_base@DV?$string_output_adapter@D@__crt_stdio_output@@@__crt_stdio_output@@CA?AW4parameter_type@12@G@Z 1004d680 f i libucrtd:output.obj
 0001:0004c690       ?get_parameter_type@?$positional_parameter_base@DV?$string_output_adapter@D@__crt_stdio_output@@@__crt_stdio_output@@CA?AW4parameter_type@12@H@Z 1004d690 f i libucrtd:output.obj
 0001:0004c6a0       ?get_parameter_type@?$positional_parameter_base@DV?$string_output_adapter@D@__crt_stdio_output@@@__crt_stdio_output@@CA?AW4parameter_type@12@I@Z 1004d6a0 f i libucrtd:output.obj
 0001:0004c6b0       ?get_parameter_type@?$positional_parameter_base@DV?$string_output_adapter@D@__crt_stdio_output@@@__crt_stdio_output@@CA?AW4parameter_type@12@U_CRT_DOUBLE@@@Z 1004d6b0 f i libucrtd:output.obj
 0001:0004c6c0       ?get_parameter_type@?$positional_parameter_base@DV?$string_output_adapter@D@__crt_stdio_output@@@__crt_stdio_output@@CA?AW4parameter_type@12@_J@Z 1004d6c0 f i libucrtd:output.obj
 0001:0004c6d0       ?get_parameter_type@?$positional_parameter_base@DV?$string_output_adapter@D@__crt_stdio_output@@@__crt_stdio_output@@CA?AW4parameter_type@12@_K@Z 1004d6d0 f i libucrtd:output.obj
 0001:0004c6e0       ?get_parameter_type@?$positional_parameter_base@DV?$string_output_adapter@D@__crt_stdio_output@@@__crt_stdio_output@@CA?AW4parameter_type@12@_W@Z 1004d6e0 f i libucrtd:output.obj
 0001:0004c6f0       ?get_parameter_type@?$positional_parameter_base@_WV?$stream_output_adapter@_W@__crt_stdio_output@@@__crt_stdio_output@@CA?AW4parameter_type@12@F@Z 1004d6f0 f i libucrtd:output.obj
 0001:0004c700       ?get_parameter_type@?$positional_parameter_base@_WV?$stream_output_adapter@_W@__crt_stdio_output@@@__crt_stdio_output@@CA?AW4parameter_type@12@G@Z 1004d700 f i libucrtd:output.obj
 0001:0004c710       ?get_parameter_type@?$positional_parameter_base@_WV?$stream_output_adapter@_W@__crt_stdio_output@@@__crt_stdio_output@@CA?AW4parameter_type@12@H@Z 1004d710 f i libucrtd:output.obj
 0001:0004c720       ?get_parameter_type@?$positional_parameter_base@_WV?$stream_output_adapter@_W@__crt_stdio_output@@@__crt_stdio_output@@CA?AW4parameter_type@12@I@Z 1004d720 f i libucrtd:output.obj
 0001:0004c730       ?get_parameter_type@?$positional_parameter_base@_WV?$stream_output_adapter@_W@__crt_stdio_output@@@__crt_stdio_output@@CA?AW4parameter_type@12@U_CRT_DOUBLE@@@Z 1004d730 f i libucrtd:output.obj
 0001:0004c740       ?get_parameter_type@?$positional_parameter_base@_WV?$stream_output_adapter@_W@__crt_stdio_output@@@__crt_stdio_output@@CA?AW4parameter_type@12@_J@Z 1004d740 f i libucrtd:output.obj
 0001:0004c750       ?get_parameter_type@?$positional_parameter_base@_WV?$stream_output_adapter@_W@__crt_stdio_output@@@__crt_stdio_output@@CA?AW4parameter_type@12@_K@Z 1004d750 f i libucrtd:output.obj
 0001:0004c760       ?get_parameter_type@?$positional_parameter_base@_WV?$stream_output_adapter@_W@__crt_stdio_output@@@__crt_stdio_output@@CA?AW4parameter_type@12@_W@Z 1004d760 f i libucrtd:output.obj
 0001:0004c770       ?get_parameter_type@?$positional_parameter_base@_WV?$string_output_adapter@_W@__crt_stdio_output@@@__crt_stdio_output@@CA?AW4parameter_type@12@F@Z 1004d770 f i libucrtd:output.obj
 0001:0004c780       ?get_parameter_type@?$positional_parameter_base@_WV?$string_output_adapter@_W@__crt_stdio_output@@@__crt_stdio_output@@CA?AW4parameter_type@12@G@Z 1004d780 f i libucrtd:output.obj
 0001:0004c790       ?get_parameter_type@?$positional_parameter_base@_WV?$string_output_adapter@_W@__crt_stdio_output@@@__crt_stdio_output@@CA?AW4parameter_type@12@H@Z 1004d790 f i libucrtd:output.obj
 0001:0004c7a0       ?get_parameter_type@?$positional_parameter_base@_WV?$string_output_adapter@_W@__crt_stdio_output@@@__crt_stdio_output@@CA?AW4parameter_type@12@I@Z 1004d7a0 f i libucrtd:output.obj
 0001:0004c7b0       ?get_parameter_type@?$positional_parameter_base@_WV?$string_output_adapter@_W@__crt_stdio_output@@@__crt_stdio_output@@CA?AW4parameter_type@12@U_CRT_DOUBLE@@@Z 1004d7b0 f i libucrtd:output.obj
 0001:0004c7c0       ?get_parameter_type@?$positional_parameter_base@_WV?$string_output_adapter@_W@__crt_stdio_output@@@__crt_stdio_output@@CA?AW4parameter_type@12@_J@Z 1004d7c0 f i libucrtd:output.obj
 0001:0004c7d0       ?get_parameter_type@?$positional_parameter_base@_WV?$string_output_adapter@_W@__crt_stdio_output@@@__crt_stdio_output@@CA?AW4parameter_type@12@_K@Z 1004d7d0 f i libucrtd:output.obj
 0001:0004c7e0       ?get_parameter_type@?$positional_parameter_base@_WV?$string_output_adapter@_W@__crt_stdio_output@@@__crt_stdio_output@@CA?AW4parameter_type@12@_W@Z 1004d7e0 f i libucrtd:output.obj
 0001:0004c7f0       ?has_flag@?$output_processor@DV?$stream_output_adapter@D@__crt_stdio_output@@V?$format_validation_base@DV?$stream_output_adapter@D@__crt_stdio_output@@@2@@__crt_stdio_output@@ABE_NI@Z 1004d7f0 f i libucrtd:output.obj
 0001:0004c820       ?has_flag@?$output_processor@DV?$stream_output_adapter@D@__crt_stdio_output@@V?$positional_parameter_base@DV?$stream_output_adapter@D@__crt_stdio_output@@@2@@__crt_stdio_output@@ABE_NI@Z 1004d820 f i libucrtd:output.obj
 0001:0004c850       ?has_flag@?$output_processor@DV?$stream_output_adapter@D@__crt_stdio_output@@V?$standard_base@DV?$stream_output_adapter@D@__crt_stdio_output@@@2@@__crt_stdio_output@@ABE_NI@Z 1004d850 f i libucrtd:output.obj
 0001:0004c880       ?has_flag@?$output_processor@DV?$string_output_adapter@D@__crt_stdio_output@@V?$format_validation_base@DV?$string_output_adapter@D@__crt_stdio_output@@@2@@__crt_stdio_output@@ABE_NI@Z 1004d880 f i libucrtd:output.obj
 0001:0004c8b0       ?has_flag@?$output_processor@DV?$string_output_adapter@D@__crt_stdio_output@@V?$positional_parameter_base@DV?$string_output_adapter@D@__crt_stdio_output@@@2@@__crt_stdio_output@@ABE_NI@Z 1004d8b0 f i libucrtd:output.obj
 0001:0004c8e0       ?has_flag@?$output_processor@DV?$string_output_adapter@D@__crt_stdio_output@@V?$standard_base@DV?$string_output_adapter@D@__crt_stdio_output@@@2@@__crt_stdio_output@@ABE_NI@Z 1004d8e0 f i libucrtd:output.obj
 0001:0004c910       ?has_flag@?$output_processor@_WV?$stream_output_adapter@_W@__crt_stdio_output@@V?$format_validation_base@_WV?$stream_output_adapter@_W@__crt_stdio_output@@@2@@__crt_stdio_output@@ABE_NI@Z 1004d910 f i libucrtd:output.obj
 0001:0004c940       ?has_flag@?$output_processor@_WV?$stream_output_adapter@_W@__crt_stdio_output@@V?$positional_parameter_base@_WV?$stream_output_adapter@_W@__crt_stdio_output@@@2@@__crt_stdio_output@@ABE_NI@Z 1004d940 f i libucrtd:output.obj
 0001:0004c970       ?has_flag@?$output_processor@_WV?$stream_output_adapter@_W@__crt_stdio_output@@V?$standard_base@_WV?$stream_output_adapter@_W@__crt_stdio_output@@@2@@__crt_stdio_output@@ABE_NI@Z 1004d970 f i libucrtd:output.obj
 0001:0004c9a0       ?has_flag@?$output_processor@_WV?$string_output_adapter@_W@__crt_stdio_output@@V?$format_validation_base@_WV?$string_output_adapter@_W@__crt_stdio_output@@@2@@__crt_stdio_output@@ABE_NI@Z 1004d9a0 f i libucrtd:output.obj
 0001:0004c9d0       ?has_flag@?$output_processor@_WV?$string_output_adapter@_W@__crt_stdio_output@@V?$positional_parameter_base@_WV?$string_output_adapter@_W@__crt_stdio_output@@@2@@__crt_stdio_output@@ABE_NI@Z 1004d9d0 f i libucrtd:output.obj
 0001:0004ca00       ?has_flag@?$output_processor@_WV?$string_output_adapter@_W@__crt_stdio_output@@V?$standard_base@_WV?$string_output_adapter@_W@__crt_stdio_output@@@2@@__crt_stdio_output@@ABE_NI@Z 1004da00 f i libucrtd:output.obj
 0001:0004ca30       ?is_positional_parameter_reappearance_consistent@?$positional_parameter_base@DV?$stream_output_adapter@D@__crt_stdio_output@@@__crt_stdio_output@@AAE_NABUparameter_data@12@W4parameter_type@12@DW4length_modifier@2@@Z 1004da30 f i libucrtd:output.obj
 0001:0004cc60       ?is_positional_parameter_reappearance_consistent@?$positional_parameter_base@DV?$string_output_adapter@D@__crt_stdio_output@@@__crt_stdio_output@@AAE_NABUparameter_data@12@W4parameter_type@12@DW4length_modifier@2@@Z 1004dc60 f i libucrtd:output.obj
 0001:0004ce90       ?is_positional_parameter_reappearance_consistent@?$positional_parameter_base@_WV?$stream_output_adapter@_W@__crt_stdio_output@@@__crt_stdio_output@@AAE_NABUparameter_data@12@W4parameter_type@12@_WW4length_modifier@2@@Z 1004de90 f i libucrtd:output.obj
 0001:0004d0c0       ?is_positional_parameter_reappearance_consistent@?$positional_parameter_base@_WV?$string_output_adapter@_W@__crt_stdio_output@@@__crt_stdio_output@@AAE_NABUparameter_data@12@W4parameter_type@12@_WW4length_modifier@2@@Z 1004e0c0 f i libucrtd:output.obj
 0001:0004d2f0       ?is_string_backed@__crt_stdio_stream@@QBE_NXZ 1004e2f0 f i libucrtd:output.obj
 0001:0004d330       ?narrow_null_string@?$output_processor@DV?$stream_output_adapter@D@__crt_stdio_output@@V?$format_validation_base@DV?$stream_output_adapter@D@__crt_stdio_output@@@2@@__crt_stdio_output@@CAPADXZ 1004e330 f i libucrtd:output.obj
 0001:0004d340       ?narrow_null_string@?$output_processor@DV?$stream_output_adapter@D@__crt_stdio_output@@V?$positional_parameter_base@DV?$stream_output_adapter@D@__crt_stdio_output@@@2@@__crt_stdio_output@@CAPADXZ 1004e340 f i libucrtd:output.obj
 0001:0004d350       ?narrow_null_string@?$output_processor@DV?$stream_output_adapter@D@__crt_stdio_output@@V?$standard_base@DV?$stream_output_adapter@D@__crt_stdio_output@@@2@@__crt_stdio_output@@CAPADXZ 1004e350 f i libucrtd:output.obj
 0001:0004d360       ?narrow_null_string@?$output_processor@DV?$string_output_adapter@D@__crt_stdio_output@@V?$format_validation_base@DV?$string_output_adapter@D@__crt_stdio_output@@@2@@__crt_stdio_output@@CAPADXZ 1004e360 f i libucrtd:output.obj
 0001:0004d370       ?narrow_null_string@?$output_processor@DV?$string_output_adapter@D@__crt_stdio_output@@V?$positional_parameter_base@DV?$string_output_adapter@D@__crt_stdio_output@@@2@@__crt_stdio_output@@CAPADXZ 1004e370 f i libucrtd:output.obj
 0001:0004d380       ?narrow_null_string@?$output_processor@DV?$string_output_adapter@D@__crt_stdio_output@@V?$standard_base@DV?$string_output_adapter@D@__crt_stdio_output@@@2@@__crt_stdio_output@@CAPADXZ 1004e380 f i libucrtd:output.obj
 0001:0004d390       ?narrow_null_string@?$output_processor@_WV?$stream_output_adapter@_W@__crt_stdio_output@@V?$format_validation_base@_WV?$stream_output_adapter@_W@__crt_stdio_output@@@2@@__crt_stdio_output@@CAPADXZ 1004e390 f i libucrtd:output.obj
 0001:0004d3a0       ?narrow_null_string@?$output_processor@_WV?$stream_output_adapter@_W@__crt_stdio_output@@V?$positional_parameter_base@_WV?$stream_output_adapter@_W@__crt_stdio_output@@@2@@__crt_stdio_output@@CAPADXZ 1004e3a0 f i libucrtd:output.obj
 0001:0004d3b0       ?narrow_null_string@?$output_processor@_WV?$stream_output_adapter@_W@__crt_stdio_output@@V?$standard_base@_WV?$stream_output_adapter@_W@__crt_stdio_output@@@2@@__crt_stdio_output@@CAPADXZ 1004e3b0 f i libucrtd:output.obj
 0001:0004d3c0       ?narrow_null_string@?$output_processor@_WV?$string_output_adapter@_W@__crt_stdio_output@@V?$format_validation_base@_WV?$string_output_adapter@_W@__crt_stdio_output@@@2@@__crt_stdio_output@@CAPADXZ 1004e3c0 f i libucrtd:output.obj
 0001:0004d3d0       ?narrow_null_string@?$output_processor@_WV?$string_output_adapter@_W@__crt_stdio_output@@V?$positional_parameter_base@_WV?$string_output_adapter@_W@__crt_stdio_output@@@2@@__crt_stdio_output@@CAPADXZ 1004e3d0 f i libucrtd:output.obj
 0001:0004d3e0       ?narrow_null_string@?$output_processor@_WV?$string_output_adapter@_W@__crt_stdio_output@@V?$standard_base@_WV?$string_output_adapter@_W@__crt_stdio_output@@@2@@__crt_stdio_output@@CAPADXZ 1004e3e0 f i libucrtd:output.obj
 0001:0004d3f0       ?parse_int_from_format_string@?$output_processor@DV?$stream_output_adapter@D@__crt_stdio_output@@V?$format_validation_base@DV?$stream_output_adapter@D@__crt_stdio_output@@@2@@__crt_stdio_output@@AAE_NQAH@Z 1004e3f0 f i libucrtd:output.obj
 0001:0004d4b0       ?parse_int_from_format_string@?$output_processor@DV?$stream_output_adapter@D@__crt_stdio_output@@V?$positional_parameter_base@DV?$stream_output_adapter@D@__crt_stdio_output@@@2@@__crt_stdio_output@@AAE_NQAH@Z 1004e4b0 f i libucrtd:output.obj
 0001:0004d570       ?parse_int_from_format_string@?$output_processor@DV?$stream_output_adapter@D@__crt_stdio_output@@V?$standard_base@DV?$stream_output_adapter@D@__crt_stdio_output@@@2@@__crt_stdio_output@@AAE_NQAH@Z 1004e570 f i libucrtd:output.obj
 0001:0004d630       ?parse_int_from_format_string@?$output_processor@DV?$string_output_adapter@D@__crt_stdio_output@@V?$format_validation_base@DV?$string_output_adapter@D@__crt_stdio_output@@@2@@__crt_stdio_output@@AAE_NQAH@Z 1004e630 f i libucrtd:output.obj
 0001:0004d6f0       ?parse_int_from_format_string@?$output_processor@DV?$string_output_adapter@D@__crt_stdio_output@@V?$positional_parameter_base@DV?$string_output_adapter@D@__crt_stdio_output@@@2@@__crt_stdio_output@@AAE_NQAH@Z 1004e6f0 f i libucrtd:output.obj
 0001:0004d7b0       ?parse_int_from_format_string@?$output_processor@DV?$string_output_adapter@D@__crt_stdio_output@@V?$standard_base@DV?$string_output_adapter@D@__crt_stdio_output@@@2@@__crt_stdio_output@@AAE_NQAH@Z 1004e7b0 f i libucrtd:output.obj
 0001:0004d870       ?parse_int_from_format_string@?$output_processor@_WV?$stream_output_adapter@_W@__crt_stdio_output@@V?$format_validation_base@_WV?$stream_output_adapter@_W@__crt_stdio_output@@@2@@__crt_stdio_output@@AAE_NQAH@Z 1004e870 f i libucrtd:output.obj
 0001:0004d930       ?parse_int_from_format_string@?$output_processor@_WV?$stream_output_adapter@_W@__crt_stdio_output@@V?$positional_parameter_base@_WV?$stream_output_adapter@_W@__crt_stdio_output@@@2@@__crt_stdio_output@@AAE_NQAH@Z 1004e930 f i libucrtd:output.obj
 0001:0004d9f0       ?parse_int_from_format_string@?$output_processor@_WV?$stream_output_adapter@_W@__crt_stdio_output@@V?$standard_base@_WV?$stream_output_adapter@_W@__crt_stdio_output@@@2@@__crt_stdio_output@@AAE_NQAH@Z 1004e9f0 f i libucrtd:output.obj
 0001:0004dab0       ?parse_int_from_format_string@?$output_processor@_WV?$string_output_adapter@_W@__crt_stdio_output@@V?$format_validation_base@_WV?$string_output_adapter@_W@__crt_stdio_output@@@2@@__crt_stdio_output@@AAE_NQAH@Z 1004eab0 f i libucrtd:output.obj
 0001:0004db70       ?parse_int_from_format_string@?$output_processor@_WV?$string_output_adapter@_W@__crt_stdio_output@@V?$positional_parameter_base@_WV?$string_output_adapter@_W@__crt_stdio_output@@@2@@__crt_stdio_output@@AAE_NQAH@Z 1004eb70 f i libucrtd:output.obj
 0001:0004dc30       ?parse_int_from_format_string@?$output_processor@_WV?$string_output_adapter@_W@__crt_stdio_output@@V?$standard_base@_WV?$string_output_adapter@_W@__crt_stdio_output@@@2@@__crt_stdio_output@@AAE_NQAH@Z 1004ec30 f i libucrtd:output.obj
 0001:0004dcf0       ?process@?$output_processor@DV?$stream_output_adapter@D@__crt_stdio_output@@V?$format_validation_base@DV?$stream_output_adapter@D@__crt_stdio_output@@@2@@__crt_stdio_output@@QAEHXZ 1004ecf0 f i libucrtd:output.obj
 0001:0004dfa0       ?process@?$output_processor@DV?$stream_output_adapter@D@__crt_stdio_output@@V?$positional_parameter_base@DV?$stream_output_adapter@D@__crt_stdio_output@@@2@@__crt_stdio_output@@QAEHXZ 1004efa0 f i libucrtd:output.obj
 0001:0004e250       ?process@?$output_processor@DV?$stream_output_adapter@D@__crt_stdio_output@@V?$standard_base@DV?$stream_output_adapter@D@__crt_stdio_output@@@2@@__crt_stdio_output@@QAEHXZ 1004f250 f i libucrtd:output.obj
 0001:0004e500       ?process@?$output_processor@DV?$string_output_adapter@D@__crt_stdio_output@@V?$format_validation_base@DV?$string_output_adapter@D@__crt_stdio_output@@@2@@__crt_stdio_output@@QAEHXZ 1004f500 f i libucrtd:output.obj
 0001:0004e7b0       ?process@?$output_processor@DV?$string_output_adapter@D@__crt_stdio_output@@V?$positional_parameter_base@DV?$string_output_adapter@D@__crt_stdio_output@@@2@@__crt_stdio_output@@QAEHXZ 1004f7b0 f i libucrtd:output.obj
 0001:0004ea60       ?process@?$output_processor@DV?$string_output_adapter@D@__crt_stdio_output@@V?$standard_base@DV?$string_output_adapter@D@__crt_stdio_output@@@2@@__crt_stdio_output@@QAEHXZ 1004fa60 f i libucrtd:output.obj
 0001:0004ed10       ?process@?$output_processor@_WV?$stream_output_adapter@_W@__crt_stdio_output@@V?$format_validation_base@_WV?$stream_output_adapter@_W@__crt_stdio_output@@@2@@__crt_stdio_output@@QAEHXZ 1004fd10 f i libucrtd:output.obj
 0001:0004efc0       ?process@?$output_processor@_WV?$stream_output_adapter@_W@__crt_stdio_output@@V?$positional_parameter_base@_WV?$stream_output_adapter@_W@__crt_stdio_output@@@2@@__crt_stdio_output@@QAEHXZ 1004ffc0 f i libucrtd:output.obj
 0001:0004f270       ?process@?$output_processor@_WV?$stream_output_adapter@_W@__crt_stdio_output@@V?$standard_base@_WV?$stream_output_adapter@_W@__crt_stdio_output@@@2@@__crt_stdio_output@@QAEHXZ 10050270 f i libucrtd:output.obj
 0001:0004f520       ?process@?$output_processor@_WV?$string_output_adapter@_W@__crt_stdio_output@@V?$format_validation_base@_WV?$string_output_adapter@_W@__crt_stdio_output@@@2@@__crt_stdio_output@@QAEHXZ 10050520 f i libucrtd:output.obj
 0001:0004f7d0       ?process@?$output_processor@_WV?$string_output_adapter@_W@__crt_stdio_output@@V?$positional_parameter_base@_WV?$string_output_adapter@_W@__crt_stdio_output@@@2@@__crt_stdio_output@@QAEHXZ 100507d0 f i libucrtd:output.obj
 0001:0004fa80       ?process@?$output_processor@_WV?$string_output_adapter@_W@__crt_stdio_output@@V?$standard_base@_WV?$string_output_adapter@_W@__crt_stdio_output@@@2@@__crt_stdio_output@@QAEHXZ 10050a80 f i libucrtd:output.obj
 0001:0004fd30       ?public_stream@__crt_stdio_stream@@QBEPAU_iobuf@@XZ 10050d30 f i libucrtd:output.obj
 0001:0004fd50       ?set_flag@?$output_processor@DV?$stream_output_adapter@D@__crt_stdio_output@@V?$format_validation_base@DV?$stream_output_adapter@D@__crt_stdio_output@@@2@@__crt_stdio_output@@AAEXI@Z 10050d50 f i libucrtd:output.obj
 0001:0004fd70       ?set_flag@?$output_processor@DV?$stream_output_adapter@D@__crt_stdio_output@@V?$positional_parameter_base@DV?$stream_output_adapter@D@__crt_stdio_output@@@2@@__crt_stdio_output@@AAEXI@Z 10050d70 f i libucrtd:output.obj
 0001:0004fd90       ?set_flag@?$output_processor@DV?$stream_output_adapter@D@__crt_stdio_output@@V?$standard_base@DV?$stream_output_adapter@D@__crt_stdio_output@@@2@@__crt_stdio_output@@AAEXI@Z 10050d90 f i libucrtd:output.obj
 0001:0004fdb0       ?set_flag@?$output_processor@DV?$string_output_adapter@D@__crt_stdio_output@@V?$format_validation_base@DV?$string_output_adapter@D@__crt_stdio_output@@@2@@__crt_stdio_output@@AAEXI@Z 10050db0 f i libucrtd:output.obj
 0001:0004fdd0       ?set_flag@?$output_processor@DV?$string_output_adapter@D@__crt_stdio_output@@V?$positional_parameter_base@DV?$string_output_adapter@D@__crt_stdio_output@@@2@@__crt_stdio_output@@AAEXI@Z 10050dd0 f i libucrtd:output.obj
 0001:0004fdf0       ?set_flag@?$output_processor@DV?$string_output_adapter@D@__crt_stdio_output@@V?$standard_base@DV?$string_output_adapter@D@__crt_stdio_output@@@2@@__crt_stdio_output@@AAEXI@Z 10050df0 f i libucrtd:output.obj
 0001:0004fe10       ?set_flag@?$output_processor@_WV?$stream_output_adapter@_W@__crt_stdio_output@@V?$format_validation_base@_WV?$stream_output_adapter@_W@__crt_stdio_output@@@2@@__crt_stdio_output@@AAEXI@Z 10050e10 f i libucrtd:output.obj
 0001:0004fe30       ?set_flag@?$output_processor@_WV?$stream_output_adapter@_W@__crt_stdio_output@@V?$positional_parameter_base@_WV?$stream_output_adapter@_W@__crt_stdio_output@@@2@@__crt_stdio_output@@AAEXI@Z 10050e30 f i libucrtd:output.obj
 0001:0004fe50       ?set_flag@?$output_processor@_WV?$stream_output_adapter@_W@__crt_stdio_output@@V?$standard_base@_WV?$stream_output_adapter@_W@__crt_stdio_output@@@2@@__crt_stdio_output@@AAEXI@Z 10050e50 f i libucrtd:output.obj
 0001:0004fe70       ?set_flag@?$output_processor@_WV?$string_output_adapter@_W@__crt_stdio_output@@V?$format_validation_base@_WV?$string_output_adapter@_W@__crt_stdio_output@@@2@@__crt_stdio_output@@AAEXI@Z 10050e70 f i libucrtd:output.obj
 0001:0004fe90       ?set_flag@?$output_processor@_WV?$string_output_adapter@_W@__crt_stdio_output@@V?$positional_parameter_base@_WV?$string_output_adapter@_W@__crt_stdio_output@@@2@@__crt_stdio_output@@AAEXI@Z 10050e90 f i libucrtd:output.obj
 0001:0004feb0       ?set_flag@?$output_processor@_WV?$string_output_adapter@_W@__crt_stdio_output@@V?$standard_base@_WV?$string_output_adapter@_W@__crt_stdio_output@@@2@@__crt_stdio_output@@AAEXI@Z 10050eb0 f i libucrtd:output.obj
 0001:0004fed0       ?should_format@?$positional_parameter_base@DV?$stream_output_adapter@D@__crt_stdio_output@@@__crt_stdio_output@@IAE_NXZ 10050ed0 f i libucrtd:output.obj
 0001:0004ff10       ?should_format@?$positional_parameter_base@DV?$string_output_adapter@D@__crt_stdio_output@@@__crt_stdio_output@@IAE_NXZ 10050f10 f i libucrtd:output.obj
 0001:0004ff50       ?should_format@?$positional_parameter_base@_WV?$stream_output_adapter@_W@__crt_stdio_output@@@__crt_stdio_output@@IAE_NXZ 10050f50 f i libucrtd:output.obj
 0001:0004ff90       ?should_format@?$positional_parameter_base@_WV?$string_output_adapter@_W@__crt_stdio_output@@@__crt_stdio_output@@IAE_NXZ 10050f90 f i libucrtd:output.obj
 0001:0004ffd0       ?should_format@?$standard_base@DV?$stream_output_adapter@D@__crt_stdio_output@@@__crt_stdio_output@@IAE_NXZ 10050fd0 f i libucrtd:output.obj
 0001:0004ffe0       ?should_format@?$standard_base@DV?$string_output_adapter@D@__crt_stdio_output@@@__crt_stdio_output@@IAE_NXZ 10050fe0 f i libucrtd:output.obj
 0001:0004fff0       ?should_format@?$standard_base@_WV?$stream_output_adapter@_W@__crt_stdio_output@@@__crt_stdio_output@@IAE_NXZ 10050ff0 f i libucrtd:output.obj
 0001:00050000       ?should_format@?$standard_base@_WV?$string_output_adapter@_W@__crt_stdio_output@@@__crt_stdio_output@@IAE_NXZ 10051000 f i libucrtd:output.obj
 0001:00050010       ?should_skip_normal_state_processing@?$positional_parameter_base@DV?$stream_output_adapter@D@__crt_stdio_output@@@__crt_stdio_output@@IAE_NXZ 10051010 f i libucrtd:output.obj
 0001:00050060       ?should_skip_normal_state_processing@?$positional_parameter_base@DV?$string_output_adapter@D@__crt_stdio_output@@@__crt_stdio_output@@IAE_NXZ 10051060 f i libucrtd:output.obj
 0001:000500b0       ?should_skip_normal_state_processing@?$positional_parameter_base@_WV?$stream_output_adapter@_W@__crt_stdio_output@@@__crt_stdio_output@@IAE_NXZ 100510b0 f i libucrtd:output.obj
 0001:00050100       ?should_skip_normal_state_processing@?$positional_parameter_base@_WV?$string_output_adapter@_W@__crt_stdio_output@@@__crt_stdio_output@@IAE_NXZ 10051100 f i libucrtd:output.obj
 0001:00050150       ?should_skip_normal_state_processing@?$standard_base@DV?$stream_output_adapter@D@__crt_stdio_output@@@__crt_stdio_output@@IAE_NXZ 10051150 f i libucrtd:output.obj
 0001:00050160       ?should_skip_normal_state_processing@?$standard_base@DV?$string_output_adapter@D@__crt_stdio_output@@@__crt_stdio_output@@IAE_NXZ 10051160 f i libucrtd:output.obj
 0001:00050170       ?should_skip_normal_state_processing@?$standard_base@_WV?$stream_output_adapter@_W@__crt_stdio_output@@@__crt_stdio_output@@IAE_NXZ 10051170 f i libucrtd:output.obj
 0001:00050180       ?should_skip_normal_state_processing@?$standard_base@_WV?$string_output_adapter@_W@__crt_stdio_output@@@__crt_stdio_output@@IAE_NXZ 10051180 f i libucrtd:output.obj
 0001:00050190       ?should_skip_type_state_output@?$positional_parameter_base@DV?$stream_output_adapter@D@__crt_stdio_output@@@__crt_stdio_output@@IBE_NXZ 10051190 f i libucrtd:output.obj
 0001:000501d0       ?should_skip_type_state_output@?$positional_parameter_base@DV?$string_output_adapter@D@__crt_stdio_output@@@__crt_stdio_output@@IBE_NXZ 100511d0 f i libucrtd:output.obj
 0001:00050210       ?should_skip_type_state_output@?$positional_parameter_base@_WV?$stream_output_adapter@_W@__crt_stdio_output@@@__crt_stdio_output@@IBE_NXZ 10051210 f i libucrtd:output.obj
 0001:00050250       ?should_skip_type_state_output@?$positional_parameter_base@_WV?$string_output_adapter@_W@__crt_stdio_output@@@__crt_stdio_output@@IBE_NXZ 10051250 f i libucrtd:output.obj
 0001:00050290       ?should_skip_type_state_output@?$standard_base@DV?$stream_output_adapter@D@__crt_stdio_output@@@__crt_stdio_output@@IBE_NXZ 10051290 f i libucrtd:output.obj
 0001:000502a0       ?should_skip_type_state_output@?$standard_base@DV?$string_output_adapter@D@__crt_stdio_output@@@__crt_stdio_output@@IBE_NXZ 100512a0 f i libucrtd:output.obj
 0001:000502b0       ?should_skip_type_state_output@?$standard_base@_WV?$stream_output_adapter@_W@__crt_stdio_output@@@__crt_stdio_output@@IBE_NXZ 100512b0 f i libucrtd:output.obj
 0001:000502c0       ?should_skip_type_state_output@?$standard_base@_WV?$string_output_adapter@_W@__crt_stdio_output@@@__crt_stdio_output@@IBE_NXZ 100512c0 f i libucrtd:output.obj
 0001:000502d0       ?state_case_dot@?$output_processor@DV?$stream_output_adapter@D@__crt_stdio_output@@V?$format_validation_base@DV?$stream_output_adapter@D@__crt_stdio_output@@@2@@__crt_stdio_output@@AAE_NXZ 100512d0 f i libucrtd:output.obj
 0001:000502f0       ?state_case_dot@?$output_processor@DV?$stream_output_adapter@D@__crt_stdio_output@@V?$positional_parameter_base@DV?$stream_output_adapter@D@__crt_stdio_output@@@2@@__crt_stdio_output@@AAE_NXZ 100512f0 f i libucrtd:output.obj
 0001:00050310       ?state_case_dot@?$output_processor@DV?$stream_output_adapter@D@__crt_stdio_output@@V?$standard_base@DV?$stream_output_adapter@D@__crt_stdio_output@@@2@@__crt_stdio_output@@AAE_NXZ 10051310 f i libucrtd:output.obj
 0001:00050330       ?state_case_dot@?$output_processor@DV?$string_output_adapter@D@__crt_stdio_output@@V?$format_validation_base@DV?$string_output_adapter@D@__crt_stdio_output@@@2@@__crt_stdio_output@@AAE_NXZ 10051330 f i libucrtd:output.obj
 0001:00050350       ?state_case_dot@?$output_processor@DV?$string_output_adapter@D@__crt_stdio_output@@V?$positional_parameter_base@DV?$string_output_adapter@D@__crt_stdio_output@@@2@@__crt_stdio_output@@AAE_NXZ 10051350 f i libucrtd:output.obj
 0001:00050370       ?state_case_dot@?$output_processor@DV?$string_output_adapter@D@__crt_stdio_output@@V?$standard_base@DV?$string_output_adapter@D@__crt_stdio_output@@@2@@__crt_stdio_output@@AAE_NXZ 10051370 f i libucrtd:output.obj
 0001:00050390       ?state_case_dot@?$output_processor@_WV?$stream_output_adapter@_W@__crt_stdio_output@@V?$format_validation_base@_WV?$stream_output_adapter@_W@__crt_stdio_output@@@2@@__crt_stdio_output@@AAE_NXZ 10051390 f i libucrtd:output.obj
 0001:000503b0       ?state_case_dot@?$output_processor@_WV?$stream_output_adapter@_W@__crt_stdio_output@@V?$positional_parameter_base@_WV?$stream_output_adapter@_W@__crt_stdio_output@@@2@@__crt_stdio_output@@AAE_NXZ 100513b0 f i libucrtd:output.obj
 0001:000503d0       ?state_case_dot@?$output_processor@_WV?$stream_output_adapter@_W@__crt_stdio_output@@V?$standard_base@_WV?$stream_output_adapter@_W@__crt_stdio_output@@@2@@__crt_stdio_output@@AAE_NXZ 100513d0 f i libucrtd:output.obj
 0001:000503f0       ?state_case_dot@?$output_processor@_WV?$string_output_adapter@_W@__crt_stdio_output@@V?$format_validation_base@_WV?$string_output_adapter@_W@__crt_stdio_output@@@2@@__crt_stdio_output@@AAE_NXZ 100513f0 f i libucrtd:output.obj
 0001:00050410       ?state_case_dot@?$output_processor@_WV?$string_output_adapter@_W@__crt_stdio_output@@V?$positional_parameter_base@_WV?$string_output_adapter@_W@__crt_stdio_output@@@2@@__crt_stdio_output@@AAE_NXZ 10051410 f i libucrtd:output.obj
 0001:00050430       ?state_case_dot@?$output_processor@_WV?$string_output_adapter@_W@__crt_stdio_output@@V?$standard_base@_WV?$string_output_adapter@_W@__crt_stdio_output@@@2@@__crt_stdio_output@@AAE_NXZ 10051430 f i libucrtd:output.obj
 0001:00050450       ?state_case_flag@?$output_processor@DV?$stream_output_adapter@D@__crt_stdio_output@@V?$format_validation_base@DV?$stream_output_adapter@D@__crt_stdio_output@@@2@@__crt_stdio_output@@AAE_NXZ 10051450 f i libucrtd:output.obj
 0001:00050500       ?state_case_flag@?$output_processor@DV?$stream_output_adapter@D@__crt_stdio_output@@V?$positional_parameter_base@DV?$stream_output_adapter@D@__crt_stdio_output@@@2@@__crt_stdio_output@@AAE_NXZ 10051500 f i libucrtd:output.obj
 0001:000505b0       ?state_case_flag@?$output_processor@DV?$stream_output_adapter@D@__crt_stdio_output@@V?$standard_base@DV?$stream_output_adapter@D@__crt_stdio_output@@@2@@__crt_stdio_output@@AAE_NXZ 100515b0 f i libucrtd:output.obj
 0001:00050660       ?state_case_flag@?$output_processor@DV?$string_output_adapter@D@__crt_stdio_output@@V?$format_validation_base@DV?$string_output_adapter@D@__crt_stdio_output@@@2@@__crt_stdio_output@@AAE_NXZ 10051660 f i libucrtd:output.obj
 0001:00050710       ?state_case_flag@?$output_processor@DV?$string_output_adapter@D@__crt_stdio_output@@V?$positional_parameter_base@DV?$string_output_adapter@D@__crt_stdio_output@@@2@@__crt_stdio_output@@AAE_NXZ 10051710 f i libucrtd:output.obj
 0001:000507c0       ?state_case_flag@?$output_processor@DV?$string_output_adapter@D@__crt_stdio_output@@V?$standard_base@DV?$string_output_adapter@D@__crt_stdio_output@@@2@@__crt_stdio_output@@AAE_NXZ 100517c0 f i libucrtd:output.obj
 0001:00050870       ?state_case_flag@?$output_processor@_WV?$stream_output_adapter@_W@__crt_stdio_output@@V?$format_validation_base@_WV?$stream_output_adapter@_W@__crt_stdio_output@@@2@@__crt_stdio_output@@AAE_NXZ 10051870 f i libucrtd:output.obj
 0001:00050920       ?state_case_flag@?$output_processor@_WV?$stream_output_adapter@_W@__crt_stdio_output@@V?$positional_parameter_base@_WV?$stream_output_adapter@_W@__crt_stdio_output@@@2@@__crt_stdio_output@@AAE_NXZ 10051920 f i libucrtd:output.obj
 0001:000509d0       ?state_case_flag@?$output_processor@_WV?$stream_output_adapter@_W@__crt_stdio_output@@V?$standard_base@_WV?$stream_output_adapter@_W@__crt_stdio_output@@@2@@__crt_stdio_output@@AAE_NXZ 100519d0 f i libucrtd:output.obj
 0001:00050a80       ?state_case_flag@?$output_processor@_WV?$string_output_adapter@_W@__crt_stdio_output@@V?$format_validation_base@_WV?$string_output_adapter@_W@__crt_stdio_output@@@2@@__crt_stdio_output@@AAE_NXZ 10051a80 f i libucrtd:output.obj
 0001:00050b30       ?state_case_flag@?$output_processor@_WV?$string_output_adapter@_W@__crt_stdio_output@@V?$positional_parameter_base@_WV?$string_output_adapter@_W@__crt_stdio_output@@@2@@__crt_stdio_output@@AAE_NXZ 10051b30 f i libucrtd:output.obj
 0001:00050be0       ?state_case_flag@?$output_processor@_WV?$string_output_adapter@_W@__crt_stdio_output@@V?$standard_base@_WV?$string_output_adapter@_W@__crt_stdio_output@@@2@@__crt_stdio_output@@AAE_NXZ 10051be0 f i libucrtd:output.obj
 0001:00050c90       ?state_case_normal@?$output_processor@DV?$stream_output_adapter@D@__crt_stdio_output@@V?$format_validation_base@DV?$stream_output_adapter@D@__crt_stdio_output@@@2@@__crt_stdio_output@@AAE_NXZ 10051c90 f i libucrtd:output.obj
 0001:00050d40       ?state_case_normal@?$output_processor@DV?$stream_output_adapter@D@__crt_stdio_output@@V?$positional_parameter_base@DV?$stream_output_adapter@D@__crt_stdio_output@@@2@@__crt_stdio_output@@AAE_NXZ 10051d40 f i libucrtd:output.obj
 0001:00050df0       ?state_case_normal@?$output_processor@DV?$stream_output_adapter@D@__crt_stdio_output@@V?$standard_base@DV?$stream_output_adapter@D@__crt_stdio_output@@@2@@__crt_stdio_output@@AAE_NXZ 10051df0 f i libucrtd:output.obj
 0001:00050ea0       ?state_case_normal@?$output_processor@DV?$string_output_adapter@D@__crt_stdio_output@@V?$format_validation_base@DV?$string_output_adapter@D@__crt_stdio_output@@@2@@__crt_stdio_output@@AAE_NXZ 10051ea0 f i libucrtd:output.obj
 0001:00050f50       ?state_case_normal@?$output_processor@DV?$string_output_adapter@D@__crt_stdio_output@@V?$positional_parameter_base@DV?$string_output_adapter@D@__crt_stdio_output@@@2@@__crt_stdio_output@@AAE_NXZ 10051f50 f i libucrtd:output.obj
 0001:00051000       ?state_case_normal@?$output_processor@DV?$string_output_adapter@D@__crt_stdio_output@@V?$standard_base@DV?$string_output_adapter@D@__crt_stdio_output@@@2@@__crt_stdio_output@@AAE_NXZ 10052000 f i libucrtd:output.obj
 0001:000510b0       ?state_case_normal@?$output_processor@_WV?$stream_output_adapter@_W@__crt_stdio_output@@V?$format_validation_base@_WV?$stream_output_adapter@_W@__crt_stdio_output@@@2@@__crt_stdio_output@@AAE_NXZ 100520b0 f i libucrtd:output.obj
 0001:00051160       ?state_case_normal@?$output_processor@_WV?$stream_output_adapter@_W@__crt_stdio_output@@V?$positional_parameter_base@_WV?$stream_output_adapter@_W@__crt_stdio_output@@@2@@__crt_stdio_output@@AAE_NXZ 10052160 f i libucrtd:output.obj
 0001:00051210       ?state_case_normal@?$output_processor@_WV?$stream_output_adapter@_W@__crt_stdio_output@@V?$standard_base@_WV?$stream_output_adapter@_W@__crt_stdio_output@@@2@@__crt_stdio_output@@AAE_NXZ 10052210 f i libucrtd:output.obj
 0001:000512c0       ?state_case_normal@?$output_processor@_WV?$string_output_adapter@_W@__crt_stdio_output@@V?$format_validation_base@_WV?$string_output_adapter@_W@__crt_stdio_output@@@2@@__crt_stdio_output@@AAE_NXZ 100522c0 f i libucrtd:output.obj
 0001:00051370       ?state_case_normal@?$output_processor@_WV?$string_output_adapter@_W@__crt_stdio_output@@V?$positional_parameter_base@_WV?$string_output_adapter@_W@__crt_stdio_output@@@2@@__crt_stdio_output@@AAE_NXZ 10052370 f i libucrtd:output.obj
 0001:00051420       ?state_case_normal@?$output_processor@_WV?$string_output_adapter@_W@__crt_stdio_output@@V?$standard_base@_WV?$string_output_adapter@_W@__crt_stdio_output@@@2@@__crt_stdio_output@@AAE_NXZ 10052420 f i libucrtd:output.obj
 0001:000514d0       ?state_case_normal_common@?$output_processor@DV?$stream_output_adapter@D@__crt_stdio_output@@V?$format_validation_base@DV?$stream_output_adapter@D@__crt_stdio_output@@@2@@__crt_stdio_output@@AAE_NXZ 100524d0 f i libucrtd:output.obj
 0001:00051520       ?state_case_normal_common@?$output_processor@DV?$stream_output_adapter@D@__crt_stdio_output@@V?$positional_parameter_base@DV?$stream_output_adapter@D@__crt_stdio_output@@@2@@__crt_stdio_output@@AAE_NXZ 10052520 f i libucrtd:output.obj
 0001:00051570       ?state_case_normal_common@?$output_processor@DV?$stream_output_adapter@D@__crt_stdio_output@@V?$standard_base@DV?$stream_output_adapter@D@__crt_stdio_output@@@2@@__crt_stdio_output@@AAE_NXZ 10052570 f i libucrtd:output.obj
 0001:000515c0       ?state_case_normal_common@?$output_processor@DV?$string_output_adapter@D@__crt_stdio_output@@V?$format_validation_base@DV?$string_output_adapter@D@__crt_stdio_output@@@2@@__crt_stdio_output@@AAE_NXZ 100525c0 f i libucrtd:output.obj
 0001:00051610       ?state_case_normal_common@?$output_processor@DV?$string_output_adapter@D@__crt_stdio_output@@V?$positional_parameter_base@DV?$string_output_adapter@D@__crt_stdio_output@@@2@@__crt_stdio_output@@AAE_NXZ 10052610 f i libucrtd:output.obj
 0001:00051660       ?state_case_normal_common@?$output_processor@DV?$string_output_adapter@D@__crt_stdio_output@@V?$standard_base@DV?$string_output_adapter@D@__crt_stdio_output@@@2@@__crt_stdio_output@@AAE_NXZ 10052660 f i libucrtd:output.obj
 0001:000516b0       ?state_case_normal_common@?$output_processor@_WV?$stream_output_adapter@_W@__crt_stdio_output@@V?$format_validation_base@_WV?$stream_output_adapter@_W@__crt_stdio_output@@@2@@__crt_stdio_output@@AAE_NXZ 100526b0 f i libucrtd:output.obj
 0001:00051700       ?state_case_normal_common@?$output_processor@_WV?$stream_output_adapter@_W@__crt_stdio_output@@V?$positional_parameter_base@_WV?$stream_output_adapter@_W@__crt_stdio_output@@@2@@__crt_stdio_output@@AAE_NXZ 10052700 f i libucrtd:output.obj
 0001:00051750       ?state_case_normal_common@?$output_processor@_WV?$stream_output_adapter@_W@__crt_stdio_output@@V?$standard_base@_WV?$stream_output_adapter@_W@__crt_stdio_output@@@2@@__crt_stdio_output@@AAE_NXZ 10052750 f i libucrtd:output.obj
 0001:000517a0       ?state_case_normal_common@?$output_processor@_WV?$string_output_adapter@_W@__crt_stdio_output@@V?$format_validation_base@_WV?$string_output_adapter@_W@__crt_stdio_output@@@2@@__crt_stdio_output@@AAE_NXZ 100527a0 f i libucrtd:output.obj
 0001:000517f0       ?state_case_normal_common@?$output_processor@_WV?$string_output_adapter@_W@__crt_stdio_output@@V?$positional_parameter_base@_WV?$string_output_adapter@_W@__crt_stdio_output@@@2@@__crt_stdio_output@@AAE_NXZ 100527f0 f i libucrtd:output.obj
 0001:00051840       ?state_case_normal_common@?$output_processor@_WV?$string_output_adapter@_W@__crt_stdio_output@@V?$standard_base@_WV?$string_output_adapter@_W@__crt_stdio_output@@@2@@__crt_stdio_output@@AAE_NXZ 10052840 f i libucrtd:output.obj
 0001:00051890       ?state_case_normal_tchar@?$output_processor@DV?$stream_output_adapter@D@__crt_stdio_output@@V?$format_validation_base@DV?$stream_output_adapter@D@__crt_stdio_output@@@2@@__crt_stdio_output@@AAE_ND@Z 10052890 f i libucrtd:output.obj
 0001:00051990       ?state_case_normal_tchar@?$output_processor@DV?$stream_output_adapter@D@__crt_stdio_output@@V?$positional_parameter_base@DV?$stream_output_adapter@D@__crt_stdio_output@@@2@@__crt_stdio_output@@AAE_ND@Z 10052990 f i libucrtd:output.obj
 0001:00051a90       ?state_case_normal_tchar@?$output_processor@DV?$stream_output_adapter@D@__crt_stdio_output@@V?$standard_base@DV?$stream_output_adapter@D@__crt_stdio_output@@@2@@__crt_stdio_output@@AAE_ND@Z 10052a90 f i libucrtd:output.obj
 0001:00051b90       ?state_case_normal_tchar@?$output_processor@DV?$string_output_adapter@D@__crt_stdio_output@@V?$format_validation_base@DV?$string_output_adapter@D@__crt_stdio_output@@@2@@__crt_stdio_output@@AAE_ND@Z 10052b90 f i libucrtd:output.obj
 0001:00051c90       ?state_case_normal_tchar@?$output_processor@DV?$string_output_adapter@D@__crt_stdio_output@@V?$positional_parameter_base@DV?$string_output_adapter@D@__crt_stdio_output@@@2@@__crt_stdio_output@@AAE_ND@Z 10052c90 f i libucrtd:output.obj
 0001:00051d90       ?state_case_normal_tchar@?$output_processor@DV?$string_output_adapter@D@__crt_stdio_output@@V?$standard_base@DV?$string_output_adapter@D@__crt_stdio_output@@@2@@__crt_stdio_output@@AAE_ND@Z 10052d90 f i libucrtd:output.obj
 0001:00051e90       ?state_case_normal_tchar@?$output_processor@_WV?$stream_output_adapter@_W@__crt_stdio_output@@V?$format_validation_base@_WV?$stream_output_adapter@_W@__crt_stdio_output@@@2@@__crt_stdio_output@@AAE_N_W@Z 10052e90 f i libucrtd:output.obj
 0001:00051eb0       ?state_case_normal_tchar@?$output_processor@_WV?$stream_output_adapter@_W@__crt_stdio_output@@V?$positional_parameter_base@_WV?$stream_output_adapter@_W@__crt_stdio_output@@@2@@__crt_stdio_output@@AAE_N_W@Z 10052eb0 f i libucrtd:output.obj
 0001:00051ed0       ?state_case_normal_tchar@?$output_processor@_WV?$stream_output_adapter@_W@__crt_stdio_output@@V?$standard_base@_WV?$stream_output_adapter@_W@__crt_stdio_output@@@2@@__crt_stdio_output@@AAE_N_W@Z 10052ed0 f i libucrtd:output.obj
 0001:00051ef0       ?state_case_normal_tchar@?$output_processor@_WV?$string_output_adapter@_W@__crt_stdio_output@@V?$format_validation_base@_WV?$string_output_adapter@_W@__crt_stdio_output@@@2@@__crt_stdio_output@@AAE_N_W@Z 10052ef0 f i libucrtd:output.obj
 0001:00051f10       ?state_case_normal_tchar@?$output_processor@_WV?$string_output_adapter@_W@__crt_stdio_output@@V?$positional_parameter_base@_WV?$string_output_adapter@_W@__crt_stdio_output@@@2@@__crt_stdio_output@@AAE_N_W@Z 10052f10 f i libucrtd:output.obj
 0001:00051f30       ?state_case_normal_tchar@?$output_processor@_WV?$string_output_adapter@_W@__crt_stdio_output@@V?$standard_base@_WV?$string_output_adapter@_W@__crt_stdio_output@@@2@@__crt_stdio_output@@AAE_N_W@Z 10052f30 f i libucrtd:output.obj
 0001:00051f50       ?state_case_percent@?$output_processor@DV?$stream_output_adapter@D@__crt_stdio_output@@V?$format_validation_base@DV?$stream_output_adapter@D@__crt_stdio_output@@@2@@__crt_stdio_output@@AAE_NXZ 10052f50 f i libucrtd:output.obj
 0001:00051fa0       ?state_case_percent@?$output_processor@DV?$stream_output_adapter@D@__crt_stdio_output@@V?$positional_parameter_base@DV?$stream_output_adapter@D@__crt_stdio_output@@@2@@__crt_stdio_output@@AAE_NXZ 10052fa0 f i libucrtd:output.obj
 0001:00051ff0       ?state_case_percent@?$output_processor@DV?$stream_output_adapter@D@__crt_stdio_output@@V?$standard_base@DV?$stream_output_adapter@D@__crt_stdio_output@@@2@@__crt_stdio_output@@AAE_NXZ 10052ff0 f i libucrtd:output.obj
 0001:00052040       ?state_case_percent@?$output_processor@DV?$string_output_adapter@D@__crt_stdio_output@@V?$format_validation_base@DV?$string_output_adapter@D@__crt_stdio_output@@@2@@__crt_stdio_output@@AAE_NXZ 10053040 f i libucrtd:output.obj
 0001:00052090       ?state_case_percent@?$output_processor@DV?$string_output_adapter@D@__crt_stdio_output@@V?$positional_parameter_base@DV?$string_output_adapter@D@__crt_stdio_output@@@2@@__crt_stdio_output@@AAE_NXZ 10053090 f i libucrtd:output.obj
 0001:000520e0       ?state_case_percent@?$output_processor@DV?$string_output_adapter@D@__crt_stdio_output@@V?$standard_base@DV?$string_output_adapter@D@__crt_stdio_output@@@2@@__crt_stdio_output@@AAE_NXZ 100530e0 f i libucrtd:output.obj
 0001:00052130       ?state_case_percent@?$output_processor@_WV?$stream_output_adapter@_W@__crt_stdio_output@@V?$format_validation_base@_WV?$stream_output_adapter@_W@__crt_stdio_output@@@2@@__crt_stdio_output@@AAE_NXZ 10053130 f i libucrtd:output.obj
 0001:00052180       ?state_case_percent@?$output_processor@_WV?$stream_output_adapter@_W@__crt_stdio_output@@V?$positional_parameter_base@_WV?$stream_output_adapter@_W@__crt_stdio_output@@@2@@__crt_stdio_output@@AAE_NXZ 10053180 f i libucrtd:output.obj
 0001:000521d0       ?state_case_percent@?$output_processor@_WV?$stream_output_adapter@_W@__crt_stdio_output@@V?$standard_base@_WV?$stream_output_adapter@_W@__crt_stdio_output@@@2@@__crt_stdio_output@@AAE_NXZ 100531d0 f i libucrtd:output.obj
 0001:00052220       ?state_case_percent@?$output_processor@_WV?$string_output_adapter@_W@__crt_stdio_output@@V?$format_validation_base@_WV?$string_output_adapter@_W@__crt_stdio_output@@@2@@__crt_stdio_output@@AAE_NXZ 10053220 f i libucrtd:output.obj
 0001:00052270       ?state_case_percent@?$output_processor@_WV?$string_output_adapter@_W@__crt_stdio_output@@V?$positional_parameter_base@_WV?$string_output_adapter@_W@__crt_stdio_output@@@2@@__crt_stdio_output@@AAE_NXZ 10053270 f i libucrtd:output.obj
 0001:000522c0       ?state_case_percent@?$output_processor@_WV?$string_output_adapter@_W@__crt_stdio_output@@V?$standard_base@_WV?$string_output_adapter@_W@__crt_stdio_output@@@2@@__crt_stdio_output@@AAE_NXZ 100532c0 f i libucrtd:output.obj
 0001:00052310       ?state_case_precision@?$output_processor@DV?$stream_output_adapter@D@__crt_stdio_output@@V?$format_validation_base@DV?$stream_output_adapter@D@__crt_stdio_output@@@2@@__crt_stdio_output@@AAE_NXZ 10053310 f i libucrtd:output.obj
 0001:00052380       ?state_case_precision@?$output_processor@DV?$stream_output_adapter@D@__crt_stdio_output@@V?$positional_parameter_base@DV?$stream_output_adapter@D@__crt_stdio_output@@@2@@__crt_stdio_output@@AAE_NXZ 10053380 f i libucrtd:output.obj
 0001:000523f0       ?state_case_precision@?$output_processor@DV?$stream_output_adapter@D@__crt_stdio_output@@V?$standard_base@DV?$stream_output_adapter@D@__crt_stdio_output@@@2@@__crt_stdio_output@@AAE_NXZ 100533f0 f i libucrtd:output.obj
 0001:00052460       ?state_case_precision@?$output_processor@DV?$string_output_adapter@D@__crt_stdio_output@@V?$format_validation_base@DV?$string_output_adapter@D@__crt_stdio_output@@@2@@__crt_stdio_output@@AAE_NXZ 10053460 f i libucrtd:output.obj
 0001:000524d0       ?state_case_precision@?$output_processor@DV?$string_output_adapter@D@__crt_stdio_output@@V?$positional_parameter_base@DV?$string_output_adapter@D@__crt_stdio_output@@@2@@__crt_stdio_output@@AAE_NXZ 100534d0 f i libucrtd:output.obj
 0001:00052540       ?state_case_precision@?$output_processor@DV?$string_output_adapter@D@__crt_stdio_output@@V?$standard_base@DV?$string_output_adapter@D@__crt_stdio_output@@@2@@__crt_stdio_output@@AAE_NXZ 10053540 f i libucrtd:output.obj
 0001:000525b0       ?state_case_precision@?$output_processor@_WV?$stream_output_adapter@_W@__crt_stdio_output@@V?$format_validation_base@_WV?$stream_output_adapter@_W@__crt_stdio_output@@@2@@__crt_stdio_output@@AAE_NXZ 100535b0 f i libucrtd:output.obj
 0001:00052620       ?state_case_precision@?$output_processor@_WV?$stream_output_adapter@_W@__crt_stdio_output@@V?$positional_parameter_base@_WV?$stream_output_adapter@_W@__crt_stdio_output@@@2@@__crt_stdio_output@@AAE_NXZ 10053620 f i libucrtd:output.obj
 0001:00052690       ?state_case_precision@?$output_processor@_WV?$stream_output_adapter@_W@__crt_stdio_output@@V?$standard_base@_WV?$stream_output_adapter@_W@__crt_stdio_output@@@2@@__crt_stdio_output@@AAE_NXZ 10053690 f i libucrtd:output.obj
 0001:00052700       ?state_case_precision@?$output_processor@_WV?$string_output_adapter@_W@__crt_stdio_output@@V?$format_validation_base@_WV?$string_output_adapter@_W@__crt_stdio_output@@@2@@__crt_stdio_output@@AAE_NXZ 10053700 f i libucrtd:output.obj
 0001:00052770       ?state_case_precision@?$output_processor@_WV?$string_output_adapter@_W@__crt_stdio_output@@V?$positional_parameter_base@_WV?$string_output_adapter@_W@__crt_stdio_output@@@2@@__crt_stdio_output@@AAE_NXZ 10053770 f i libucrtd:output.obj
 0001:000527e0       ?state_case_precision@?$output_processor@_WV?$string_output_adapter@_W@__crt_stdio_output@@V?$standard_base@_WV?$string_output_adapter@_W@__crt_stdio_output@@@2@@__crt_stdio_output@@AAE_NXZ 100537e0 f i libucrtd:output.obj
 0001:00052850       ?state_case_size@?$output_processor@DV?$stream_output_adapter@D@__crt_stdio_output@@V?$format_validation_base@DV?$stream_output_adapter@D@__crt_stdio_output@@@2@@__crt_stdio_output@@AAE_NXZ 10053850 f i libucrtd:output.obj
 0001:00052c20       ?state_case_size@?$output_processor@DV?$stream_output_adapter@D@__crt_stdio_output@@V?$positional_parameter_base@DV?$stream_output_adapter@D@__crt_stdio_output@@@2@@__crt_stdio_output@@AAE_NXZ 10053c20 f i libucrtd:output.obj
 0001:00052ff0       ?state_case_size@?$output_processor@DV?$stream_output_adapter@D@__crt_stdio_output@@V?$standard_base@DV?$stream_output_adapter@D@__crt_stdio_output@@@2@@__crt_stdio_output@@AAE_NXZ 10053ff0 f i libucrtd:output.obj
 0001:000533c0       ?state_case_size@?$output_processor@DV?$string_output_adapter@D@__crt_stdio_output@@V?$format_validation_base@DV?$string_output_adapter@D@__crt_stdio_output@@@2@@__crt_stdio_output@@AAE_NXZ 100543c0 f i libucrtd:output.obj
 0001:00053790       ?state_case_size@?$output_processor@DV?$string_output_adapter@D@__crt_stdio_output@@V?$positional_parameter_base@DV?$string_output_adapter@D@__crt_stdio_output@@@2@@__crt_stdio_output@@AAE_NXZ 10054790 f i libucrtd:output.obj
 0001:00053b60       ?state_case_size@?$output_processor@DV?$string_output_adapter@D@__crt_stdio_output@@V?$standard_base@DV?$string_output_adapter@D@__crt_stdio_output@@@2@@__crt_stdio_output@@AAE_NXZ 10054b60 f i libucrtd:output.obj
 0001:00053f30       ?state_case_size@?$output_processor@_WV?$stream_output_adapter@_W@__crt_stdio_output@@V?$format_validation_base@_WV?$stream_output_adapter@_W@__crt_stdio_output@@@2@@__crt_stdio_output@@AAE_NXZ 10054f30 f i libucrtd:output.obj
 0001:00054300       ?state_case_size@?$output_processor@_WV?$stream_output_adapter@_W@__crt_stdio_output@@V?$positional_parameter_base@_WV?$stream_output_adapter@_W@__crt_stdio_output@@@2@@__crt_stdio_output@@AAE_NXZ 10055300 f i libucrtd:output.obj
 0001:000546d0       ?state_case_size@?$output_processor@_WV?$stream_output_adapter@_W@__crt_stdio_output@@V?$standard_base@_WV?$stream_output_adapter@_W@__crt_stdio_output@@@2@@__crt_stdio_output@@AAE_NXZ 100556d0 f i libucrtd:output.obj
 0001:00054aa0       ?state_case_size@?$output_processor@_WV?$string_output_adapter@_W@__crt_stdio_output@@V?$format_validation_base@_WV?$string_output_adapter@_W@__crt_stdio_output@@@2@@__crt_stdio_output@@AAE_NXZ 10055aa0 f i libucrtd:output.obj
 0001:00054e70       ?state_case_size@?$output_processor@_WV?$string_output_adapter@_W@__crt_stdio_output@@V?$positional_parameter_base@_WV?$string_output_adapter@_W@__crt_stdio_output@@@2@@__crt_stdio_output@@AAE_NXZ 10055e70 f i libucrtd:output.obj
 0001:00055240       ?state_case_size@?$output_processor@_WV?$string_output_adapter@_W@__crt_stdio_output@@V?$standard_base@_WV?$string_output_adapter@_W@__crt_stdio_output@@@2@@__crt_stdio_output@@AAE_NXZ 10056240 f i libucrtd:output.obj
 0001:00055610       ?state_case_type@?$output_processor@DV?$stream_output_adapter@D@__crt_stdio_output@@V?$format_validation_base@DV?$stream_output_adapter@D@__crt_stdio_output@@@2@@__crt_stdio_output@@AAE_NXZ 10056610 f i libucrtd:output.obj
 0001:000559c0       ?state_case_type@?$output_processor@DV?$stream_output_adapter@D@__crt_stdio_output@@V?$positional_parameter_base@DV?$stream_output_adapter@D@__crt_stdio_output@@@2@@__crt_stdio_output@@AAE_NXZ 100569c0 f i libucrtd:output.obj
 0001:00055d70       ?state_case_type@?$output_processor@DV?$stream_output_adapter@D@__crt_stdio_output@@V?$standard_base@DV?$stream_output_adapter@D@__crt_stdio_output@@@2@@__crt_stdio_output@@AAE_NXZ 10056d70 f i libucrtd:output.obj
 0001:00056120       ?state_case_type@?$output_processor@DV?$string_output_adapter@D@__crt_stdio_output@@V?$format_validation_base@DV?$string_output_adapter@D@__crt_stdio_output@@@2@@__crt_stdio_output@@AAE_NXZ 10057120 f i libucrtd:output.obj
 0001:000564d0       ?state_case_type@?$output_processor@DV?$string_output_adapter@D@__crt_stdio_output@@V?$positional_parameter_base@DV?$string_output_adapter@D@__crt_stdio_output@@@2@@__crt_stdio_output@@AAE_NXZ 100574d0 f i libucrtd:output.obj
 0001:00056880       ?state_case_type@?$output_processor@DV?$string_output_adapter@D@__crt_stdio_output@@V?$standard_base@DV?$string_output_adapter@D@__crt_stdio_output@@@2@@__crt_stdio_output@@AAE_NXZ 10057880 f i libucrtd:output.obj
 0001:00056c30       ?state_case_type@?$output_processor@_WV?$stream_output_adapter@_W@__crt_stdio_output@@V?$format_validation_base@_WV?$stream_output_adapter@_W@__crt_stdio_output@@@2@@__crt_stdio_output@@AAE_NXZ 10057c30 f i libucrtd:output.obj
 0001:00057010       ?state_case_type@?$output_processor@_WV?$stream_output_adapter@_W@__crt_stdio_output@@V?$positional_parameter_base@_WV?$stream_output_adapter@_W@__crt_stdio_output@@@2@@__crt_stdio_output@@AAE_NXZ 10058010 f i libucrtd:output.obj
 0001:000573f0       ?state_case_type@?$output_processor@_WV?$stream_output_adapter@_W@__crt_stdio_output@@V?$standard_base@_WV?$stream_output_adapter@_W@__crt_stdio_output@@@2@@__crt_stdio_output@@AAE_NXZ 100583f0 f i libucrtd:output.obj
 0001:000577d0       ?state_case_type@?$output_processor@_WV?$string_output_adapter@_W@__crt_stdio_output@@V?$format_validation_base@_WV?$string_output_adapter@_W@__crt_stdio_output@@@2@@__crt_stdio_output@@AAE_NXZ 100587d0 f i libucrtd:output.obj
 0001:00057bb0       ?state_case_type@?$output_processor@_WV?$string_output_adapter@_W@__crt_stdio_output@@V?$positional_parameter_base@_WV?$string_output_adapter@_W@__crt_stdio_output@@@2@@__crt_stdio_output@@AAE_NXZ 10058bb0 f i libucrtd:output.obj
 0001:00057f90       ?state_case_type@?$output_processor@_WV?$string_output_adapter@_W@__crt_stdio_output@@V?$standard_base@_WV?$string_output_adapter@_W@__crt_stdio_output@@@2@@__crt_stdio_output@@AAE_NXZ 10058f90 f i libucrtd:output.obj
 0001:00058370       ?state_case_width@?$output_processor@DV?$stream_output_adapter@D@__crt_stdio_output@@V?$format_validation_base@DV?$stream_output_adapter@D@__crt_stdio_output@@@2@@__crt_stdio_output@@AAE_NXZ 10059370 f i libucrtd:output.obj
 0001:000583f0       ?state_case_width@?$output_processor@DV?$stream_output_adapter@D@__crt_stdio_output@@V?$positional_parameter_base@DV?$stream_output_adapter@D@__crt_stdio_output@@@2@@__crt_stdio_output@@AAE_NXZ 100593f0 f i libucrtd:output.obj
 0001:00058470       ?state_case_width@?$output_processor@DV?$stream_output_adapter@D@__crt_stdio_output@@V?$standard_base@DV?$stream_output_adapter@D@__crt_stdio_output@@@2@@__crt_stdio_output@@AAE_NXZ 10059470 f i libucrtd:output.obj
 0001:000584f0       ?state_case_width@?$output_processor@DV?$string_output_adapter@D@__crt_stdio_output@@V?$format_validation_base@DV?$string_output_adapter@D@__crt_stdio_output@@@2@@__crt_stdio_output@@AAE_NXZ 100594f0 f i libucrtd:output.obj
 0001:00058570       ?state_case_width@?$output_processor@DV?$string_output_adapter@D@__crt_stdio_output@@V?$positional_parameter_base@DV?$string_output_adapter@D@__crt_stdio_output@@@2@@__crt_stdio_output@@AAE_NXZ 10059570 f i libucrtd:output.obj
 0001:000585f0       ?state_case_width@?$output_processor@DV?$string_output_adapter@D@__crt_stdio_output@@V?$standard_base@DV?$string_output_adapter@D@__crt_stdio_output@@@2@@__crt_stdio_output@@AAE_NXZ 100595f0 f i libucrtd:output.obj
 0001:00058670       ?state_case_width@?$output_processor@_WV?$stream_output_adapter@_W@__crt_stdio_output@@V?$format_validation_base@_WV?$stream_output_adapter@_W@__crt_stdio_output@@@2@@__crt_stdio_output@@AAE_NXZ 10059670 f i libucrtd:output.obj
 0001:000586f0       ?state_case_width@?$output_processor@_WV?$stream_output_adapter@_W@__crt_stdio_output@@V?$positional_parameter_base@_WV?$stream_output_adapter@_W@__crt_stdio_output@@@2@@__crt_stdio_output@@AAE_NXZ 100596f0 f i libucrtd:output.obj
 0001:00058770       ?state_case_width@?$output_processor@_WV?$stream_output_adapter@_W@__crt_stdio_output@@V?$standard_base@_WV?$stream_output_adapter@_W@__crt_stdio_output@@@2@@__crt_stdio_output@@AAE_NXZ 10059770 f i libucrtd:output.obj
 0001:000587f0       ?state_case_width@?$output_processor@_WV?$string_output_adapter@_W@__crt_stdio_output@@V?$format_validation_base@_WV?$string_output_adapter@_W@__crt_stdio_output@@@2@@__crt_stdio_output@@AAE_NXZ 100597f0 f i libucrtd:output.obj
 0001:00058870       ?state_case_width@?$output_processor@_WV?$string_output_adapter@_W@__crt_stdio_output@@V?$positional_parameter_base@_WV?$string_output_adapter@_W@__crt_stdio_output@@@2@@__crt_stdio_output@@AAE_NXZ 10059870 f i libucrtd:output.obj
 0001:000588f0       ?state_case_width@?$output_processor@_WV?$string_output_adapter@_W@__crt_stdio_output@@V?$standard_base@_WV?$string_output_adapter@_W@__crt_stdio_output@@@2@@__crt_stdio_output@@AAE_NXZ 100598f0 f i libucrtd:output.obj
 0001:00058970       ?state_count@?$format_validation_base@DV?$stream_output_adapter@D@__crt_stdio_output@@@__crt_stdio_output@@KAIXZ 10059970 f i libucrtd:output.obj
 0001:00058980       ?state_count@?$format_validation_base@DV?$string_output_adapter@D@__crt_stdio_output@@@__crt_stdio_output@@KAIXZ 10059980 f i libucrtd:output.obj
 0001:00058990       ?state_count@?$format_validation_base@_WV?$stream_output_adapter@_W@__crt_stdio_output@@@__crt_stdio_output@@KAIXZ 10059990 f i libucrtd:output.obj
 0001:000589a0       ?state_count@?$format_validation_base@_WV?$string_output_adapter@_W@__crt_stdio_output@@@__crt_stdio_output@@KAIXZ 100599a0 f i libucrtd:output.obj
 0001:000589b0       ?state_count@?$standard_base@DV?$stream_output_adapter@D@__crt_stdio_output@@@__crt_stdio_output@@KAIXZ 100599b0 f i libucrtd:output.obj
 0001:000589c0       ?state_count@?$standard_base@DV?$string_output_adapter@D@__crt_stdio_output@@@__crt_stdio_output@@KAIXZ 100599c0 f i libucrtd:output.obj
 0001:000589d0       ?state_count@?$standard_base@_WV?$stream_output_adapter@_W@__crt_stdio_output@@@__crt_stdio_output@@KAIXZ 100599d0 f i libucrtd:output.obj
 0001:000589e0       ?state_count@?$standard_base@_WV?$string_output_adapter@_W@__crt_stdio_output@@@__crt_stdio_output@@KAIXZ 100599e0 f i libucrtd:output.obj
 0001:000589f0       ?state_transition_table@?$format_validation_base@DV?$stream_output_adapter@D@__crt_stdio_output@@@__crt_stdio_output@@KAABV?$spectre_mitigated_lookup_table@Ustate_transition_pair@__crt_stdio_output@@$0IA@@2@XZ 100599f0 f i libucrtd:output.obj
 0001:00058a00       ?state_transition_table@?$format_validation_base@DV?$string_output_adapter@D@__crt_stdio_output@@@__crt_stdio_output@@KAABV?$spectre_mitigated_lookup_table@Ustate_transition_pair@__crt_stdio_output@@$0IA@@2@XZ 10059a00 f i libucrtd:output.obj
 0001:00058a10       ?state_transition_table@?$format_validation_base@_WV?$stream_output_adapter@_W@__crt_stdio_output@@@__crt_stdio_output@@KAABV?$spectre_mitigated_lookup_table@Ustate_transition_pair@__crt_stdio_output@@$0IA@@2@XZ 10059a10 f i libucrtd:output.obj
 0001:00058a20       ?state_transition_table@?$format_validation_base@_WV?$string_output_adapter@_W@__crt_stdio_output@@@__crt_stdio_output@@KAABV?$spectre_mitigated_lookup_table@Ustate_transition_pair@__crt_stdio_output@@$0IA@@2@XZ 10059a20 f i libucrtd:output.obj
 0001:00058a30       ?state_transition_table@?$standard_base@DV?$stream_output_adapter@D@__crt_stdio_output@@@__crt_stdio_output@@KAABV?$spectre_mitigated_lookup_table@Ustate_transition_pair@__crt_stdio_output@@$0IA@@2@XZ 10059a30 f i libucrtd:output.obj
 0001:00058a40       ?state_transition_table@?$standard_base@DV?$string_output_adapter@D@__crt_stdio_output@@@__crt_stdio_output@@KAABV?$spectre_mitigated_lookup_table@Ustate_transition_pair@__crt_stdio_output@@$0IA@@2@XZ 10059a40 f i libucrtd:output.obj
 0001:00058a50       ?state_transition_table@?$standard_base@_WV?$stream_output_adapter@_W@__crt_stdio_output@@@__crt_stdio_output@@KAABV?$spectre_mitigated_lookup_table@Ustate_transition_pair@__crt_stdio_output@@$0IA@@2@XZ 10059a50 f i libucrtd:output.obj
 0001:00058a60       ?state_transition_table@?$standard_base@_WV?$string_output_adapter@_W@__crt_stdio_output@@@__crt_stdio_output@@KAABV?$spectre_mitigated_lookup_table@Ustate_transition_pair@__crt_stdio_output@@$0IA@@2@XZ 10059a60 f i libucrtd:output.obj
 0001:00058a70       ?tchar_string@?$common_data@D@__crt_stdio_output@@IAEAAPADD@Z 10059a70 f i libucrtd:output.obj
 0001:00058a90       ?tchar_string@?$common_data@D@__crt_stdio_output@@IAEAAPADXZ 10059a90 f i libucrtd:output.obj
 0001:00058ab0       ?tchar_string@?$common_data@_W@__crt_stdio_output@@IAEAAPA_WXZ 10059ab0 f i libucrtd:output.obj
 0001:00058ad0       ?tchar_string@?$common_data@_W@__crt_stdio_output@@IAEAAPA_W_W@Z 10059ad0 f i libucrtd:output.obj
 0001:00058af0       ?to_integer_size@__crt_stdio_output@@YAIW4length_modifier@1@@Z 10059af0 f i libucrtd:output.obj
 0001:00058b90       ?type_case_X@?$output_processor@DV?$stream_output_adapter@D@__crt_stdio_output@@V?$format_validation_base@DV?$stream_output_adapter@D@__crt_stdio_output@@@2@@__crt_stdio_output@@AAE_NXZ 10059b90 f i libucrtd:output.obj
 0001:00058bb0       ?type_case_X@?$output_processor@DV?$stream_output_adapter@D@__crt_stdio_output@@V?$positional_parameter_base@DV?$stream_output_adapter@D@__crt_stdio_output@@@2@@__crt_stdio_output@@AAE_NXZ 10059bb0 f i libucrtd:output.obj
 0001:00058bd0       ?type_case_X@?$output_processor@DV?$stream_output_adapter@D@__crt_stdio_output@@V?$standard_base@DV?$stream_output_adapter@D@__crt_stdio_output@@@2@@__crt_stdio_output@@AAE_NXZ 10059bd0 f i libucrtd:output.obj
 0001:00058bf0       ?type_case_X@?$output_processor@DV?$string_output_adapter@D@__crt_stdio_output@@V?$format_validation_base@DV?$string_output_adapter@D@__crt_stdio_output@@@2@@__crt_stdio_output@@AAE_NXZ 10059bf0 f i libucrtd:output.obj
 0001:00058c10       ?type_case_X@?$output_processor@DV?$string_output_adapter@D@__crt_stdio_output@@V?$positional_parameter_base@DV?$string_output_adapter@D@__crt_stdio_output@@@2@@__crt_stdio_output@@AAE_NXZ 10059c10 f i libucrtd:output.obj
 0001:00058c30       ?type_case_X@?$output_processor@DV?$string_output_adapter@D@__crt_stdio_output@@V?$standard_base@DV?$string_output_adapter@D@__crt_stdio_output@@@2@@__crt_stdio_output@@AAE_NXZ 10059c30 f i libucrtd:output.obj
 0001:00058c50       ?type_case_X@?$output_processor@_WV?$stream_output_adapter@_W@__crt_stdio_output@@V?$format_validation_base@_WV?$stream_output_adapter@_W@__crt_stdio_output@@@2@@__crt_stdio_output@@AAE_NXZ 10059c50 f i libucrtd:output.obj
 0001:00058c70       ?type_case_X@?$output_processor@_WV?$stream_output_adapter@_W@__crt_stdio_output@@V?$positional_parameter_base@_WV?$stream_output_adapter@_W@__crt_stdio_output@@@2@@__crt_stdio_output@@AAE_NXZ 10059c70 f i libucrtd:output.obj
 0001:00058c90       ?type_case_X@?$output_processor@_WV?$stream_output_adapter@_W@__crt_stdio_output@@V?$standard_base@_WV?$stream_output_adapter@_W@__crt_stdio_output@@@2@@__crt_stdio_output@@AAE_NXZ 10059c90 f i libucrtd:output.obj
 0001:00058cb0       ?type_case_X@?$output_processor@_WV?$string_output_adapter@_W@__crt_stdio_output@@V?$format_validation_base@_WV?$string_output_adapter@_W@__crt_stdio_output@@@2@@__crt_stdio_output@@AAE_NXZ 10059cb0 f i libucrtd:output.obj
 0001:00058cd0       ?type_case_X@?$output_processor@_WV?$string_output_adapter@_W@__crt_stdio_output@@V?$positional_parameter_base@_WV?$string_output_adapter@_W@__crt_stdio_output@@@2@@__crt_stdio_output@@AAE_NXZ 10059cd0 f i libucrtd:output.obj
 0001:00058cf0       ?type_case_X@?$output_processor@_WV?$string_output_adapter@_W@__crt_stdio_output@@V?$standard_base@_WV?$string_output_adapter@_W@__crt_stdio_output@@@2@@__crt_stdio_output@@AAE_NXZ 10059cf0 f i libucrtd:output.obj
 0001:00058d10       ?type_case_Z@?$output_processor@DV?$stream_output_adapter@D@__crt_stdio_output@@V?$format_validation_base@DV?$stream_output_adapter@D@__crt_stdio_output@@@2@@__crt_stdio_output@@AAE_NXZ 10059d10 f i libucrtd:output.obj
 0001:00058e00       ?type_case_Z@?$output_processor@DV?$stream_output_adapter@D@__crt_stdio_output@@V?$positional_parameter_base@DV?$stream_output_adapter@D@__crt_stdio_output@@@2@@__crt_stdio_output@@AAE_NXZ 10059e00 f i libucrtd:output.obj
 0001:00058ef0       ?type_case_Z@?$output_processor@DV?$stream_output_adapter@D@__crt_stdio_output@@V?$standard_base@DV?$stream_output_adapter@D@__crt_stdio_output@@@2@@__crt_stdio_output@@AAE_NXZ 10059ef0 f i libucrtd:output.obj
 0001:00058fe0       ?type_case_Z@?$output_processor@DV?$string_output_adapter@D@__crt_stdio_output@@V?$format_validation_base@DV?$string_output_adapter@D@__crt_stdio_output@@@2@@__crt_stdio_output@@AAE_NXZ 10059fe0 f i libucrtd:output.obj
 0001:000590d0       ?type_case_Z@?$output_processor@DV?$string_output_adapter@D@__crt_stdio_output@@V?$positional_parameter_base@DV?$string_output_adapter@D@__crt_stdio_output@@@2@@__crt_stdio_output@@AAE_NXZ 1005a0d0 f i libucrtd:output.obj
 0001:000591c0       ?type_case_Z@?$output_processor@DV?$string_output_adapter@D@__crt_stdio_output@@V?$standard_base@DV?$string_output_adapter@D@__crt_stdio_output@@@2@@__crt_stdio_output@@AAE_NXZ 1005a1c0 f i libucrtd:output.obj
 0001:000592b0       ?type_case_Z@?$output_processor@_WV?$stream_output_adapter@_W@__crt_stdio_output@@V?$format_validation_base@_WV?$stream_output_adapter@_W@__crt_stdio_output@@@2@@__crt_stdio_output@@AAE_NXZ 1005a2b0 f i libucrtd:output.obj
 0001:000593a0       ?type_case_Z@?$output_processor@_WV?$stream_output_adapter@_W@__crt_stdio_output@@V?$positional_parameter_base@_WV?$stream_output_adapter@_W@__crt_stdio_output@@@2@@__crt_stdio_output@@AAE_NXZ 1005a3a0 f i libucrtd:output.obj
 0001:00059490       ?type_case_Z@?$output_processor@_WV?$stream_output_adapter@_W@__crt_stdio_output@@V?$standard_base@_WV?$stream_output_adapter@_W@__crt_stdio_output@@@2@@__crt_stdio_output@@AAE_NXZ 1005a490 f i libucrtd:output.obj
 0001:00059580       ?type_case_Z@?$output_processor@_WV?$string_output_adapter@_W@__crt_stdio_output@@V?$format_validation_base@_WV?$string_output_adapter@_W@__crt_stdio_output@@@2@@__crt_stdio_output@@AAE_NXZ 1005a580 f i libucrtd:output.obj
 0001:00059670       ?type_case_Z@?$output_processor@_WV?$string_output_adapter@_W@__crt_stdio_output@@V?$positional_parameter_base@_WV?$string_output_adapter@_W@__crt_stdio_output@@@2@@__crt_stdio_output@@AAE_NXZ 1005a670 f i libucrtd:output.obj
 0001:00059760       ?type_case_Z@?$output_processor@_WV?$string_output_adapter@_W@__crt_stdio_output@@V?$standard_base@_WV?$string_output_adapter@_W@__crt_stdio_output@@@2@@__crt_stdio_output@@AAE_NXZ 1005a760 f i libucrtd:output.obj
 0001:00059850       ?type_case_a@?$output_processor@DV?$stream_output_adapter@D@__crt_stdio_output@@V?$format_validation_base@DV?$stream_output_adapter@D@__crt_stdio_output@@@2@@__crt_stdio_output@@AAE_NXZ 1005a850 f i libucrtd:output.obj
 0001:00059ac0       ?type_case_a@?$output_processor@DV?$stream_output_adapter@D@__crt_stdio_output@@V?$positional_parameter_base@DV?$stream_output_adapter@D@__crt_stdio_output@@@2@@__crt_stdio_output@@AAE_NXZ 1005aac0 f i libucrtd:output.obj
 0001:00059d30       ?type_case_a@?$output_processor@DV?$stream_output_adapter@D@__crt_stdio_output@@V?$standard_base@DV?$stream_output_adapter@D@__crt_stdio_output@@@2@@__crt_stdio_output@@AAE_NXZ 1005ad30 f i libucrtd:output.obj
 0001:00059fa0       ?type_case_a@?$output_processor@DV?$string_output_adapter@D@__crt_stdio_output@@V?$format_validation_base@DV?$string_output_adapter@D@__crt_stdio_output@@@2@@__crt_stdio_output@@AAE_NXZ 1005afa0 f i libucrtd:output.obj
 0001:0005a210       ?type_case_a@?$output_processor@DV?$string_output_adapter@D@__crt_stdio_output@@V?$positional_parameter_base@DV?$string_output_adapter@D@__crt_stdio_output@@@2@@__crt_stdio_output@@AAE_NXZ 1005b210 f i libucrtd:output.obj
 0001:0005a480       ?type_case_a@?$output_processor@DV?$string_output_adapter@D@__crt_stdio_output@@V?$standard_base@DV?$string_output_adapter@D@__crt_stdio_output@@@2@@__crt_stdio_output@@AAE_NXZ 1005b480 f i libucrtd:output.obj
 0001:0005a6f0       ?type_case_a@?$output_processor@_WV?$stream_output_adapter@_W@__crt_stdio_output@@V?$format_validation_base@_WV?$stream_output_adapter@_W@__crt_stdio_output@@@2@@__crt_stdio_output@@AAE_NXZ 1005b6f0 f i libucrtd:output.obj
 0001:0005a960       ?type_case_a@?$output_processor@_WV?$stream_output_adapter@_W@__crt_stdio_output@@V?$positional_parameter_base@_WV?$stream_output_adapter@_W@__crt_stdio_output@@@2@@__crt_stdio_output@@AAE_NXZ 1005b960 f i libucrtd:output.obj
 0001:0005abd0       ?type_case_a@?$output_processor@_WV?$stream_output_adapter@_W@__crt_stdio_output@@V?$standard_base@_WV?$stream_output_adapter@_W@__crt_stdio_output@@@2@@__crt_stdio_output@@AAE_NXZ 1005bbd0 f i libucrtd:output.obj
 0001:0005ae40       ?type_case_a@?$output_processor@_WV?$string_output_adapter@_W@__crt_stdio_output@@V?$format_validation_base@_WV?$string_output_adapter@_W@__crt_stdio_output@@@2@@__crt_stdio_output@@AAE_NXZ 1005be40 f i libucrtd:output.obj
 0001:0005b0b0       ?type_case_a@?$output_processor@_WV?$string_output_adapter@_W@__crt_stdio_output@@V?$positional_parameter_base@_WV?$string_output_adapter@_W@__crt_stdio_output@@@2@@__crt_stdio_output@@AAE_NXZ 1005c0b0 f i libucrtd:output.obj
 0001:0005b320       ?type_case_a@?$output_processor@_WV?$string_output_adapter@_W@__crt_stdio_output@@V?$standard_base@_WV?$string_output_adapter@_W@__crt_stdio_output@@@2@@__crt_stdio_output@@AAE_NXZ 1005c320 f i libucrtd:output.obj
 0001:0005b590       ?type_case_c@?$output_processor@DV?$stream_output_adapter@D@__crt_stdio_output@@V?$format_validation_base@DV?$stream_output_adapter@D@__crt_stdio_output@@@2@@__crt_stdio_output@@AAE_NXZ 1005c590 f i libucrtd:output.obj
 0001:0005b5b0       ?type_case_c@?$output_processor@DV?$stream_output_adapter@D@__crt_stdio_output@@V?$positional_parameter_base@DV?$stream_output_adapter@D@__crt_stdio_output@@@2@@__crt_stdio_output@@AAE_NXZ 1005c5b0 f i libucrtd:output.obj
 0001:0005b5d0       ?type_case_c@?$output_processor@DV?$stream_output_adapter@D@__crt_stdio_output@@V?$standard_base@DV?$stream_output_adapter@D@__crt_stdio_output@@@2@@__crt_stdio_output@@AAE_NXZ 1005c5d0 f i libucrtd:output.obj
 0001:0005b5f0       ?type_case_c@?$output_processor@DV?$string_output_adapter@D@__crt_stdio_output@@V?$format_validation_base@DV?$string_output_adapter@D@__crt_stdio_output@@@2@@__crt_stdio_output@@AAE_NXZ 1005c5f0 f i libucrtd:output.obj
 0001:0005b610       ?type_case_c@?$output_processor@DV?$string_output_adapter@D@__crt_stdio_output@@V?$positional_parameter_base@DV?$string_output_adapter@D@__crt_stdio_output@@@2@@__crt_stdio_output@@AAE_NXZ 1005c610 f i libucrtd:output.obj
 0001:0005b630       ?type_case_c@?$output_processor@DV?$string_output_adapter@D@__crt_stdio_output@@V?$standard_base@DV?$string_output_adapter@D@__crt_stdio_output@@@2@@__crt_stdio_output@@AAE_NXZ 1005c630 f i libucrtd:output.obj
 0001:0005b650       ?type_case_c@?$output_processor@_WV?$stream_output_adapter@_W@__crt_stdio_output@@V?$format_validation_base@_WV?$stream_output_adapter@_W@__crt_stdio_output@@@2@@__crt_stdio_output@@AAE_NXZ 1005c650 f i libucrtd:output.obj
 0001:0005b670       ?type_case_c@?$output_processor@_WV?$stream_output_adapter@_W@__crt_stdio_output@@V?$positional_parameter_base@_WV?$stream_output_adapter@_W@__crt_stdio_output@@@2@@__crt_stdio_output@@AAE_NXZ 1005c670 f i libucrtd:output.obj
 0001:0005b690       ?type_case_c@?$output_processor@_WV?$stream_output_adapter@_W@__crt_stdio_output@@V?$standard_base@_WV?$stream_output_adapter@_W@__crt_stdio_output@@@2@@__crt_stdio_output@@AAE_NXZ 1005c690 f i libucrtd:output.obj
 0001:0005b6b0       ?type_case_c@?$output_processor@_WV?$string_output_adapter@_W@__crt_stdio_output@@V?$format_validation_base@_WV?$string_output_adapter@_W@__crt_stdio_output@@@2@@__crt_stdio_output@@AAE_NXZ 1005c6b0 f i libucrtd:output.obj
 0001:0005b6d0       ?type_case_c@?$output_processor@_WV?$string_output_adapter@_W@__crt_stdio_output@@V?$positional_parameter_base@_WV?$string_output_adapter@_W@__crt_stdio_output@@@2@@__crt_stdio_output@@AAE_NXZ 1005c6d0 f i libucrtd:output.obj
 0001:0005b6f0       ?type_case_c@?$output_processor@_WV?$string_output_adapter@_W@__crt_stdio_output@@V?$standard_base@_WV?$string_output_adapter@_W@__crt_stdio_output@@@2@@__crt_stdio_output@@AAE_NXZ 1005c6f0 f i libucrtd:output.obj
 0001:0005b710       ?type_case_c_tchar@?$output_processor@DV?$stream_output_adapter@D@__crt_stdio_output@@V?$format_validation_base@DV?$stream_output_adapter@D@__crt_stdio_output@@@2@@__crt_stdio_output@@AAE_ND@Z 1005c710 f i libucrtd:output.obj
 0001:0005b820       ?type_case_c_tchar@?$output_processor@DV?$stream_output_adapter@D@__crt_stdio_output@@V?$positional_parameter_base@DV?$stream_output_adapter@D@__crt_stdio_output@@@2@@__crt_stdio_output@@AAE_ND@Z 1005c820 f i libucrtd:output.obj
 0001:0005b930       ?type_case_c_tchar@?$output_processor@DV?$stream_output_adapter@D@__crt_stdio_output@@V?$standard_base@DV?$stream_output_adapter@D@__crt_stdio_output@@@2@@__crt_stdio_output@@AAE_ND@Z 1005c930 f i libucrtd:output.obj
 0001:0005ba40       ?type_case_c_tchar@?$output_processor@DV?$string_output_adapter@D@__crt_stdio_output@@V?$format_validation_base@DV?$string_output_adapter@D@__crt_stdio_output@@@2@@__crt_stdio_output@@AAE_ND@Z 1005ca40 f i libucrtd:output.obj
 0001:0005bb50       ?type_case_c_tchar@?$output_processor@DV?$string_output_adapter@D@__crt_stdio_output@@V?$positional_parameter_base@DV?$string_output_adapter@D@__crt_stdio_output@@@2@@__crt_stdio_output@@AAE_ND@Z 1005cb50 f i libucrtd:output.obj
 0001:0005bc60       ?type_case_c_tchar@?$output_processor@DV?$string_output_adapter@D@__crt_stdio_output@@V?$standard_base@DV?$string_output_adapter@D@__crt_stdio_output@@@2@@__crt_stdio_output@@AAE_ND@Z 1005cc60 f i libucrtd:output.obj
 0001:0005bd70       ?type_case_c_tchar@?$output_processor@_WV?$stream_output_adapter@_W@__crt_stdio_output@@V?$format_validation_base@_WV?$stream_output_adapter@_W@__crt_stdio_output@@@2@@__crt_stdio_output@@AAE_N_W@Z 1005cd70 f i libucrtd:output.obj
 0001:0005be70       ?type_case_c_tchar@?$output_processor@_WV?$stream_output_adapter@_W@__crt_stdio_output@@V?$positional_parameter_base@_WV?$stream_output_adapter@_W@__crt_stdio_output@@@2@@__crt_stdio_output@@AAE_N_W@Z 1005ce70 f i libucrtd:output.obj
 0001:0005bf70       ?type_case_c_tchar@?$output_processor@_WV?$stream_output_adapter@_W@__crt_stdio_output@@V?$standard_base@_WV?$stream_output_adapter@_W@__crt_stdio_output@@@2@@__crt_stdio_output@@AAE_N_W@Z 1005cf70 f i libucrtd:output.obj
 0001:0005c070       ?type_case_c_tchar@?$output_processor@_WV?$string_output_adapter@_W@__crt_stdio_output@@V?$format_validation_base@_WV?$string_output_adapter@_W@__crt_stdio_output@@@2@@__crt_stdio_output@@AAE_N_W@Z 1005d070 f i libucrtd:output.obj
 0001:0005c170       ?type_case_c_tchar@?$output_processor@_WV?$string_output_adapter@_W@__crt_stdio_output@@V?$positional_parameter_base@_WV?$string_output_adapter@_W@__crt_stdio_output@@@2@@__crt_stdio_output@@AAE_N_W@Z 1005d170 f i libucrtd:output.obj
 0001:0005c270       ?type_case_c_tchar@?$output_processor@_WV?$string_output_adapter@_W@__crt_stdio_output@@V?$standard_base@_WV?$string_output_adapter@_W@__crt_stdio_output@@@2@@__crt_stdio_output@@AAE_N_W@Z 1005d270 f i libucrtd:output.obj
 0001:0005c370       ?type_case_d@?$output_processor@DV?$stream_output_adapter@D@__crt_stdio_output@@V?$format_validation_base@DV?$stream_output_adapter@D@__crt_stdio_output@@@2@@__crt_stdio_output@@AAE_NXZ 1005d370 f i libucrtd:output.obj
 0001:0005c3a0       ?type_case_d@?$output_processor@DV?$stream_output_adapter@D@__crt_stdio_output@@V?$positional_parameter_base@DV?$stream_output_adapter@D@__crt_stdio_output@@@2@@__crt_stdio_output@@AAE_NXZ 1005d3a0 f i libucrtd:output.obj
 0001:0005c3d0       ?type_case_d@?$output_processor@DV?$stream_output_adapter@D@__crt_stdio_output@@V?$standard_base@DV?$stream_output_adapter@D@__crt_stdio_output@@@2@@__crt_stdio_output@@AAE_NXZ 1005d3d0 f i libucrtd:output.obj
 0001:0005c400       ?type_case_d@?$output_processor@DV?$string_output_adapter@D@__crt_stdio_output@@V?$format_validation_base@DV?$string_output_adapter@D@__crt_stdio_output@@@2@@__crt_stdio_output@@AAE_NXZ 1005d400 f i libucrtd:output.obj
 0001:0005c430       ?type_case_d@?$output_processor@DV?$string_output_adapter@D@__crt_stdio_output@@V?$positional_parameter_base@DV?$string_output_adapter@D@__crt_stdio_output@@@2@@__crt_stdio_output@@AAE_NXZ 1005d430 f i libucrtd:output.obj
 0001:0005c460       ?type_case_d@?$output_processor@DV?$string_output_adapter@D@__crt_stdio_output@@V?$standard_base@DV?$string_output_adapter@D@__crt_stdio_output@@@2@@__crt_stdio_output@@AAE_NXZ 1005d460 f i libucrtd:output.obj
 0001:0005c490       ?type_case_d@?$output_processor@_WV?$stream_output_adapter@_W@__crt_stdio_output@@V?$format_validation_base@_WV?$stream_output_adapter@_W@__crt_stdio_output@@@2@@__crt_stdio_output@@AAE_NXZ 1005d490 f i libucrtd:output.obj
 0001:0005c4c0       ?type_case_d@?$output_processor@_WV?$stream_output_adapter@_W@__crt_stdio_output@@V?$positional_parameter_base@_WV?$stream_output_adapter@_W@__crt_stdio_output@@@2@@__crt_stdio_output@@AAE_NXZ 1005d4c0 f i libucrtd:output.obj
 0001:0005c4f0       ?type_case_d@?$output_processor@_WV?$stream_output_adapter@_W@__crt_stdio_output@@V?$standard_base@_WV?$stream_output_adapter@_W@__crt_stdio_output@@@2@@__crt_stdio_output@@AAE_NXZ 1005d4f0 f i libucrtd:output.obj
 0001:0005c520       ?type_case_d@?$output_processor@_WV?$string_output_adapter@_W@__crt_stdio_output@@V?$format_validation_base@_WV?$string_output_adapter@_W@__crt_stdio_output@@@2@@__crt_stdio_output@@AAE_NXZ 1005d520 f i libucrtd:output.obj
 0001:0005c550       ?type_case_d@?$output_processor@_WV?$string_output_adapter@_W@__crt_stdio_output@@V?$positional_parameter_base@_WV?$string_output_adapter@_W@__crt_stdio_output@@@2@@__crt_stdio_output@@AAE_NXZ 1005d550 f i libucrtd:output.obj
 0001:0005c580       ?type_case_d@?$output_processor@_WV?$string_output_adapter@_W@__crt_stdio_output@@V?$standard_base@_WV?$string_output_adapter@_W@__crt_stdio_output@@@2@@__crt_stdio_output@@AAE_NXZ 1005d580 f i libucrtd:output.obj
 0001:0005c5b0       ?type_case_integer@?$output_processor@DV?$stream_output_adapter@D@__crt_stdio_output@@V?$format_validation_base@DV?$stream_output_adapter@D@__crt_stdio_output@@@2@@__crt_stdio_output@@AAE_NI_N@Z 1005d5b0 f i libucrtd:output.obj
 0001:0005c900       ?type_case_integer@?$output_processor@DV?$stream_output_adapter@D@__crt_stdio_output@@V?$positional_parameter_base@DV?$stream_output_adapter@D@__crt_stdio_output@@@2@@__crt_stdio_output@@AAE_NI_N@Z 1005d900 f i libucrtd:output.obj
 0001:0005cc50       ?type_case_integer@?$output_processor@DV?$stream_output_adapter@D@__crt_stdio_output@@V?$standard_base@DV?$stream_output_adapter@D@__crt_stdio_output@@@2@@__crt_stdio_output@@AAE_NI_N@Z 1005dc50 f i libucrtd:output.obj
 0001:0005cfa0       ?type_case_integer@?$output_processor@DV?$string_output_adapter@D@__crt_stdio_output@@V?$format_validation_base@DV?$string_output_adapter@D@__crt_stdio_output@@@2@@__crt_stdio_output@@AAE_NI_N@Z 1005dfa0 f i libucrtd:output.obj
 0001:0005d2f0       ?type_case_integer@?$output_processor@DV?$string_output_adapter@D@__crt_stdio_output@@V?$positional_parameter_base@DV?$string_output_adapter@D@__crt_stdio_output@@@2@@__crt_stdio_output@@AAE_NI_N@Z 1005e2f0 f i libucrtd:output.obj
 0001:0005d640       ?type_case_integer@?$output_processor@DV?$string_output_adapter@D@__crt_stdio_output@@V?$standard_base@DV?$string_output_adapter@D@__crt_stdio_output@@@2@@__crt_stdio_output@@AAE_NI_N@Z 1005e640 f i libucrtd:output.obj
 0001:0005d990       ?type_case_integer@?$output_processor@_WV?$stream_output_adapter@_W@__crt_stdio_output@@V?$format_validation_base@_WV?$stream_output_adapter@_W@__crt_stdio_output@@@2@@__crt_stdio_output@@AAE_NI_N@Z 1005e990 f i libucrtd:output.obj
 0001:0005dce0       ?type_case_integer@?$output_processor@_WV?$stream_output_adapter@_W@__crt_stdio_output@@V?$positional_parameter_base@_WV?$stream_output_adapter@_W@__crt_stdio_output@@@2@@__crt_stdio_output@@AAE_NI_N@Z 1005ece0 f i libucrtd:output.obj
 0001:0005e030       ?type_case_integer@?$output_processor@_WV?$stream_output_adapter@_W@__crt_stdio_output@@V?$standard_base@_WV?$stream_output_adapter@_W@__crt_stdio_output@@@2@@__crt_stdio_output@@AAE_NI_N@Z 1005f030 f i libucrtd:output.obj
 0001:0005e380       ?type_case_integer@?$output_processor@_WV?$string_output_adapter@_W@__crt_stdio_output@@V?$format_validation_base@_WV?$string_output_adapter@_W@__crt_stdio_output@@@2@@__crt_stdio_output@@AAE_NI_N@Z 1005f380 f i libucrtd:output.obj
 0001:0005e6d0       ?type_case_integer@?$output_processor@_WV?$string_output_adapter@_W@__crt_stdio_output@@V?$positional_parameter_base@_WV?$string_output_adapter@_W@__crt_stdio_output@@@2@@__crt_stdio_output@@AAE_NI_N@Z 1005f6d0 f i libucrtd:output.obj
 0001:0005ea20       ?type_case_integer@?$output_processor@_WV?$string_output_adapter@_W@__crt_stdio_output@@V?$standard_base@_WV?$string_output_adapter@_W@__crt_stdio_output@@@2@@__crt_stdio_output@@AAE_NI_N@Z 1005fa20 f i libucrtd:output.obj
 0001:0005ed70       ?type_case_n@?$output_processor@DV?$stream_output_adapter@D@__crt_stdio_output@@V?$format_validation_base@DV?$stream_output_adapter@D@__crt_stdio_output@@@2@@__crt_stdio_output@@AAE_NXZ 1005fd70 f i libucrtd:output.obj
 0001:0005ef60       ?type_case_n@?$output_processor@DV?$stream_output_adapter@D@__crt_stdio_output@@V?$positional_parameter_base@DV?$stream_output_adapter@D@__crt_stdio_output@@@2@@__crt_stdio_output@@AAE_NXZ 1005ff60 f i libucrtd:output.obj
 0001:0005f150       ?type_case_n@?$output_processor@DV?$stream_output_adapter@D@__crt_stdio_output@@V?$standard_base@DV?$stream_output_adapter@D@__crt_stdio_output@@@2@@__crt_stdio_output@@AAE_NXZ 10060150 f i libucrtd:output.obj
 0001:0005f340       ?type_case_n@?$output_processor@DV?$string_output_adapter@D@__crt_stdio_output@@V?$format_validation_base@DV?$string_output_adapter@D@__crt_stdio_output@@@2@@__crt_stdio_output@@AAE_NXZ 10060340 f i libucrtd:output.obj
 0001:0005f530       ?type_case_n@?$output_processor@DV?$string_output_adapter@D@__crt_stdio_output@@V?$positional_parameter_base@DV?$string_output_adapter@D@__crt_stdio_output@@@2@@__crt_stdio_output@@AAE_NXZ 10060530 f i libucrtd:output.obj
 0001:0005f720       ?type_case_n@?$output_processor@DV?$string_output_adapter@D@__crt_stdio_output@@V?$standard_base@DV?$string_output_adapter@D@__crt_stdio_output@@@2@@__crt_stdio_output@@AAE_NXZ 10060720 f i libucrtd:output.obj
 0001:0005f910       ?type_case_n@?$output_processor@_WV?$stream_output_adapter@_W@__crt_stdio_output@@V?$format_validation_base@_WV?$stream_output_adapter@_W@__crt_stdio_output@@@2@@__crt_stdio_output@@AAE_NXZ 10060910 f i libucrtd:output.obj
 0001:0005fb00       ?type_case_n@?$output_processor@_WV?$stream_output_adapter@_W@__crt_stdio_output@@V?$positional_parameter_base@_WV?$stream_output_adapter@_W@__crt_stdio_output@@@2@@__crt_stdio_output@@AAE_NXZ 10060b00 f i libucrtd:output.obj
 0001:0005fcf0       ?type_case_n@?$output_processor@_WV?$stream_output_adapter@_W@__crt_stdio_output@@V?$standard_base@_WV?$stream_output_adapter@_W@__crt_stdio_output@@@2@@__crt_stdio_output@@AAE_NXZ 10060cf0 f i libucrtd:output.obj
 0001:0005fee0       ?type_case_n@?$output_processor@_WV?$string_output_adapter@_W@__crt_stdio_output@@V?$format_validation_base@_WV?$string_output_adapter@_W@__crt_stdio_output@@@2@@__crt_stdio_output@@AAE_NXZ 10060ee0 f i libucrtd:output.obj
 0001:000600d0       ?type_case_n@?$output_processor@_WV?$string_output_adapter@_W@__crt_stdio_output@@V?$positional_parameter_base@_WV?$string_output_adapter@_W@__crt_stdio_output@@@2@@__crt_stdio_output@@AAE_NXZ 100610d0 f i libucrtd:output.obj
 0001:000602c0       ?type_case_n@?$output_processor@_WV?$string_output_adapter@_W@__crt_stdio_output@@V?$standard_base@_WV?$string_output_adapter@_W@__crt_stdio_output@@@2@@__crt_stdio_output@@AAE_NXZ 100612c0 f i libucrtd:output.obj
 0001:000604b0       ?type_case_o@?$output_processor@DV?$stream_output_adapter@D@__crt_stdio_output@@V?$format_validation_base@DV?$stream_output_adapter@D@__crt_stdio_output@@@2@@__crt_stdio_output@@AAE_NXZ 100614b0 f i libucrtd:output.obj
 0001:000604f0       ?type_case_o@?$output_processor@DV?$stream_output_adapter@D@__crt_stdio_output@@V?$positional_parameter_base@DV?$stream_output_adapter@D@__crt_stdio_output@@@2@@__crt_stdio_output@@AAE_NXZ 100614f0 f i libucrtd:output.obj
 0001:00060530       ?type_case_o@?$output_processor@DV?$stream_output_adapter@D@__crt_stdio_output@@V?$standard_base@DV?$stream_output_adapter@D@__crt_stdio_output@@@2@@__crt_stdio_output@@AAE_NXZ 10061530 f i libucrtd:output.obj
 0001:00060570       ?type_case_o@?$output_processor@DV?$string_output_adapter@D@__crt_stdio_output@@V?$format_validation_base@DV?$string_output_adapter@D@__crt_stdio_output@@@2@@__crt_stdio_output@@AAE_NXZ 10061570 f i libucrtd:output.obj
 0001:000605b0       ?type_case_o@?$output_processor@DV?$string_output_adapter@D@__crt_stdio_output@@V?$positional_parameter_base@DV?$string_output_adapter@D@__crt_stdio_output@@@2@@__crt_stdio_output@@AAE_NXZ 100615b0 f i libucrtd:output.obj
 0001:000605f0       ?type_case_o@?$output_processor@DV?$string_output_adapter@D@__crt_stdio_output@@V?$standard_base@DV?$string_output_adapter@D@__crt_stdio_output@@@2@@__crt_stdio_output@@AAE_NXZ 100615f0 f i libucrtd:output.obj
 0001:00060630       ?type_case_o@?$output_processor@_WV?$stream_output_adapter@_W@__crt_stdio_output@@V?$format_validation_base@_WV?$stream_output_adapter@_W@__crt_stdio_output@@@2@@__crt_stdio_output@@AAE_NXZ 10061630 f i libucrtd:output.obj
 0001:00060670       ?type_case_o@?$output_processor@_WV?$stream_output_adapter@_W@__crt_stdio_output@@V?$positional_parameter_base@_WV?$stream_output_adapter@_W@__crt_stdio_output@@@2@@__crt_stdio_output@@AAE_NXZ 10061670 f i libucrtd:output.obj
 0001:000606b0       ?type_case_o@?$output_processor@_WV?$stream_output_adapter@_W@__crt_stdio_output@@V?$standard_base@_WV?$stream_output_adapter@_W@__crt_stdio_output@@@2@@__crt_stdio_output@@AAE_NXZ 100616b0 f i libucrtd:output.obj
 0001:000606f0       ?type_case_o@?$output_processor@_WV?$string_output_adapter@_W@__crt_stdio_output@@V?$format_validation_base@_WV?$string_output_adapter@_W@__crt_stdio_output@@@2@@__crt_stdio_output@@AAE_NXZ 100616f0 f i libucrtd:output.obj
 0001:00060730       ?type_case_o@?$output_processor@_WV?$string_output_adapter@_W@__crt_stdio_output@@V?$positional_parameter_base@_WV?$string_output_adapter@_W@__crt_stdio_output@@@2@@__crt_stdio_output@@AAE_NXZ 10061730 f i libucrtd:output.obj
 0001:00060770       ?type_case_o@?$output_processor@_WV?$string_output_adapter@_W@__crt_stdio_output@@V?$standard_base@_WV?$string_output_adapter@_W@__crt_stdio_output@@@2@@__crt_stdio_output@@AAE_NXZ 10061770 f i libucrtd:output.obj
 0001:000607b0       ?type_case_p@?$output_processor@DV?$stream_output_adapter@D@__crt_stdio_output@@V?$format_validation_base@DV?$stream_output_adapter@D@__crt_stdio_output@@@2@@__crt_stdio_output@@AAE_NXZ 100617b0 f i libucrtd:output.obj
 0001:000607e0       ?type_case_p@?$output_processor@DV?$stream_output_adapter@D@__crt_stdio_output@@V?$positional_parameter_base@DV?$stream_output_adapter@D@__crt_stdio_output@@@2@@__crt_stdio_output@@AAE_NXZ 100617e0 f i libucrtd:output.obj
 0001:00060810       ?type_case_p@?$output_processor@DV?$stream_output_adapter@D@__crt_stdio_output@@V?$standard_base@DV?$stream_output_adapter@D@__crt_stdio_output@@@2@@__crt_stdio_output@@AAE_NXZ 10061810 f i libucrtd:output.obj
 0001:00060840       ?type_case_p@?$output_processor@DV?$string_output_adapter@D@__crt_stdio_output@@V?$format_validation_base@DV?$string_output_adapter@D@__crt_stdio_output@@@2@@__crt_stdio_output@@AAE_NXZ 10061840 f i libucrtd:output.obj
 0001:00060870       ?type_case_p@?$output_processor@DV?$string_output_adapter@D@__crt_stdio_output@@V?$positional_parameter_base@DV?$string_output_adapter@D@__crt_stdio_output@@@2@@__crt_stdio_output@@AAE_NXZ 10061870 f i libucrtd:output.obj
 0001:000608a0       ?type_case_p@?$output_processor@DV?$string_output_adapter@D@__crt_stdio_output@@V?$standard_base@DV?$string_output_adapter@D@__crt_stdio_output@@@2@@__crt_stdio_output@@AAE_NXZ 100618a0 f i libucrtd:output.obj
 0001:000608d0       ?type_case_p@?$output_processor@_WV?$stream_output_adapter@_W@__crt_stdio_output@@V?$format_validation_base@_WV?$stream_output_adapter@_W@__crt_stdio_output@@@2@@__crt_stdio_output@@AAE_NXZ 100618d0 f i libucrtd:output.obj
 0001:00060900       ?type_case_p@?$output_processor@_WV?$stream_output_adapter@_W@__crt_stdio_output@@V?$positional_parameter_base@_WV?$stream_output_adapter@_W@__crt_stdio_output@@@2@@__crt_stdio_output@@AAE_NXZ 10061900 f i libucrtd:output.obj
 0001:00060930       ?type_case_p@?$output_processor@_WV?$stream_output_adapter@_W@__crt_stdio_output@@V?$standard_base@_WV?$stream_output_adapter@_W@__crt_stdio_output@@@2@@__crt_stdio_output@@AAE_NXZ 10061930 f i libucrtd:output.obj
 0001:00060960       ?type_case_p@?$output_processor@_WV?$string_output_adapter@_W@__crt_stdio_output@@V?$format_validation_base@_WV?$string_output_adapter@_W@__crt_stdio_output@@@2@@__crt_stdio_output@@AAE_NXZ 10061960 f i libucrtd:output.obj
 0001:00060990       ?type_case_p@?$output_processor@_WV?$string_output_adapter@_W@__crt_stdio_output@@V?$positional_parameter_base@_WV?$string_output_adapter@_W@__crt_stdio_output@@@2@@__crt_stdio_output@@AAE_NXZ 10061990 f i libucrtd:output.obj
 0001:000609c0       ?type_case_p@?$output_processor@_WV?$string_output_adapter@_W@__crt_stdio_output@@V?$standard_base@_WV?$string_output_adapter@_W@__crt_stdio_output@@@2@@__crt_stdio_output@@AAE_NXZ 100619c0 f i libucrtd:output.obj
 0001:000609f0       ?type_case_s@?$output_processor@DV?$stream_output_adapter@D@__crt_stdio_output@@V?$format_validation_base@DV?$stream_output_adapter@D@__crt_stdio_output@@@2@@__crt_stdio_output@@AAE_NXZ 100619f0 f i libucrtd:output.obj
 0001:00060ae0       ?type_case_s@?$output_processor@DV?$stream_output_adapter@D@__crt_stdio_output@@V?$positional_parameter_base@DV?$stream_output_adapter@D@__crt_stdio_output@@@2@@__crt_stdio_output@@AAE_NXZ 10061ae0 f i libucrtd:output.obj
 0001:00060bd0       ?type_case_s@?$output_processor@DV?$stream_output_adapter@D@__crt_stdio_output@@V?$standard_base@DV?$stream_output_adapter@D@__crt_stdio_output@@@2@@__crt_stdio_output@@AAE_NXZ 10061bd0 f i libucrtd:output.obj
 0001:00060cc0       ?type_case_s@?$output_processor@DV?$string_output_adapter@D@__crt_stdio_output@@V?$format_validation_base@DV?$string_output_adapter@D@__crt_stdio_output@@@2@@__crt_stdio_output@@AAE_NXZ 10061cc0 f i libucrtd:output.obj
 0001:00060db0       ?type_case_s@?$output_processor@DV?$string_output_adapter@D@__crt_stdio_output@@V?$positional_parameter_base@DV?$string_output_adapter@D@__crt_stdio_output@@@2@@__crt_stdio_output@@AAE_NXZ 10061db0 f i libucrtd:output.obj
 0001:00060ea0       ?type_case_s@?$output_processor@DV?$string_output_adapter@D@__crt_stdio_output@@V?$standard_base@DV?$string_output_adapter@D@__crt_stdio_output@@@2@@__crt_stdio_output@@AAE_NXZ 10061ea0 f i libucrtd:output.obj
 0001:00060f90       ?type_case_s@?$output_processor@_WV?$stream_output_adapter@_W@__crt_stdio_output@@V?$format_validation_base@_WV?$stream_output_adapter@_W@__crt_stdio_output@@@2@@__crt_stdio_output@@AAE_NXZ 10061f90 f i libucrtd:output.obj
 0001:00061080       ?type_case_s@?$output_processor@_WV?$stream_output_adapter@_W@__crt_stdio_output@@V?$positional_parameter_base@_WV?$stream_output_adapter@_W@__crt_stdio_output@@@2@@__crt_stdio_output@@AAE_NXZ 10062080 f i libucrtd:output.obj
 0001:00061170       ?type_case_s@?$output_processor@_WV?$stream_output_adapter@_W@__crt_stdio_output@@V?$standard_base@_WV?$stream_output_adapter@_W@__crt_stdio_output@@@2@@__crt_stdio_output@@AAE_NXZ 10062170 f i libucrtd:output.obj
 0001:00061260       ?type_case_s@?$output_processor@_WV?$string_output_adapter@_W@__crt_stdio_output@@V?$format_validation_base@_WV?$string_output_adapter@_W@__crt_stdio_output@@@2@@__crt_stdio_output@@AAE_NXZ 10062260 f i libucrtd:output.obj
 0001:00061350       ?type_case_s@?$output_processor@_WV?$string_output_adapter@_W@__crt_stdio_output@@V?$positional_parameter_base@_WV?$string_output_adapter@_W@__crt_stdio_output@@@2@@__crt_stdio_output@@AAE_NXZ 10062350 f i libucrtd:output.obj
 0001:00061440       ?type_case_s@?$output_processor@_WV?$string_output_adapter@_W@__crt_stdio_output@@V?$standard_base@_WV?$string_output_adapter@_W@__crt_stdio_output@@@2@@__crt_stdio_output@@AAE_NXZ 10062440 f i libucrtd:output.obj
 0001:00061530       ?type_case_s_compute_narrow_string_length@?$output_processor@DV?$stream_output_adapter@D@__crt_stdio_output@@V?$format_validation_base@DV?$stream_output_adapter@D@__crt_stdio_output@@@2@@__crt_stdio_output@@ABEHHD@Z 10062530 f i libucrtd:output.obj
 0001:00061560       ?type_case_s_compute_narrow_string_length@?$output_processor@DV?$stream_output_adapter@D@__crt_stdio_output@@V?$positional_parameter_base@DV?$stream_output_adapter@D@__crt_stdio_output@@@2@@__crt_stdio_output@@ABEHHD@Z 10062560 f i libucrtd:output.obj
 0001:00061590       ?type_case_s_compute_narrow_string_length@?$output_processor@DV?$stream_output_adapter@D@__crt_stdio_output@@V?$standard_base@DV?$stream_output_adapter@D@__crt_stdio_output@@@2@@__crt_stdio_output@@ABEHHD@Z 10062590 f i libucrtd:output.obj
 0001:000615c0       ?type_case_s_compute_narrow_string_length@?$output_processor@DV?$string_output_adapter@D@__crt_stdio_output@@V?$format_validation_base@DV?$string_output_adapter@D@__crt_stdio_output@@@2@@__crt_stdio_output@@ABEHHD@Z 100625c0 f i libucrtd:output.obj
 0001:000615f0       ?type_case_s_compute_narrow_string_length@?$output_processor@DV?$string_output_adapter@D@__crt_stdio_output@@V?$positional_parameter_base@DV?$string_output_adapter@D@__crt_stdio_output@@@2@@__crt_stdio_output@@ABEHHD@Z 100625f0 f i libucrtd:output.obj
 0001:00061620       ?type_case_s_compute_narrow_string_length@?$output_processor@DV?$string_output_adapter@D@__crt_stdio_output@@V?$standard_base@DV?$string_output_adapter@D@__crt_stdio_output@@@2@@__crt_stdio_output@@ABEHHD@Z 10062620 f i libucrtd:output.obj
 0001:00061650       ?type_case_s_compute_narrow_string_length@?$output_processor@_WV?$stream_output_adapter@_W@__crt_stdio_output@@V?$format_validation_base@_WV?$stream_output_adapter@_W@__crt_stdio_output@@@2@@__crt_stdio_output@@ABEHH_W@Z 10062650 f i libucrtd:output.obj
 0001:000616c0       ?type_case_s_compute_narrow_string_length@?$output_processor@_WV?$stream_output_adapter@_W@__crt_stdio_output@@V?$positional_parameter_base@_WV?$stream_output_adapter@_W@__crt_stdio_output@@@2@@__crt_stdio_output@@ABEHH_W@Z 100626c0 f i libucrtd:output.obj
 0001:00061730       ?type_case_s_compute_narrow_string_length@?$output_processor@_WV?$stream_output_adapter@_W@__crt_stdio_output@@V?$standard_base@_WV?$stream_output_adapter@_W@__crt_stdio_output@@@2@@__crt_stdio_output@@ABEHH_W@Z 10062730 f i libucrtd:output.obj
 0001:000617a0       ?type_case_s_compute_narrow_string_length@?$output_processor@_WV?$string_output_adapter@_W@__crt_stdio_output@@V?$format_validation_base@_WV?$string_output_adapter@_W@__crt_stdio_output@@@2@@__crt_stdio_output@@ABEHH_W@Z 100627a0 f i libucrtd:output.obj
 0001:00061810       ?type_case_s_compute_narrow_string_length@?$output_processor@_WV?$string_output_adapter@_W@__crt_stdio_output@@V?$positional_parameter_base@_WV?$string_output_adapter@_W@__crt_stdio_output@@@2@@__crt_stdio_output@@ABEHH_W@Z 10062810 f i libucrtd:output.obj
 0001:00061880       ?type_case_s_compute_narrow_string_length@?$output_processor@_WV?$string_output_adapter@_W@__crt_stdio_output@@V?$standard_base@_WV?$string_output_adapter@_W@__crt_stdio_output@@@2@@__crt_stdio_output@@ABEHH_W@Z 10062880 f i libucrtd:output.obj
 0001:000618f0       ?type_case_u@?$output_processor@DV?$stream_output_adapter@D@__crt_stdio_output@@V?$format_validation_base@DV?$stream_output_adapter@D@__crt_stdio_output@@@2@@__crt_stdio_output@@AAE_NXZ 100628f0 f i libucrtd:output.obj
 0001:00061910       ?type_case_u@?$output_processor@DV?$stream_output_adapter@D@__crt_stdio_output@@V?$positional_parameter_base@DV?$stream_output_adapter@D@__crt_stdio_output@@@2@@__crt_stdio_output@@AAE_NXZ 10062910 f i libucrtd:output.obj
 0001:00061930       ?type_case_u@?$output_processor@DV?$stream_output_adapter@D@__crt_stdio_output@@V?$standard_base@DV?$stream_output_adapter@D@__crt_stdio_output@@@2@@__crt_stdio_output@@AAE_NXZ 10062930 f i libucrtd:output.obj
 0001:00061950       ?type_case_u@?$output_processor@DV?$string_output_adapter@D@__crt_stdio_output@@V?$format_validation_base@DV?$string_output_adapter@D@__crt_stdio_output@@@2@@__crt_stdio_output@@AAE_NXZ 10062950 f i libucrtd:output.obj
 0001:00061970       ?type_case_u@?$output_processor@DV?$string_output_adapter@D@__crt_stdio_output@@V?$positional_parameter_base@DV?$string_output_adapter@D@__crt_stdio_output@@@2@@__crt_stdio_output@@AAE_NXZ 10062970 f i libucrtd:output.obj
 0001:00061990       ?type_case_u@?$output_processor@DV?$string_output_adapter@D@__crt_stdio_output@@V?$standard_base@DV?$string_output_adapter@D@__crt_stdio_output@@@2@@__crt_stdio_output@@AAE_NXZ 10062990 f i libucrtd:output.obj
 0001:000619b0       ?type_case_u@?$output_processor@_WV?$stream_output_adapter@_W@__crt_stdio_output@@V?$format_validation_base@_WV?$stream_output_adapter@_W@__crt_stdio_output@@@2@@__crt_stdio_output@@AAE_NXZ 100629b0 f i libucrtd:output.obj
 0001:000619d0       ?type_case_u@?$output_processor@_WV?$stream_output_adapter@_W@__crt_stdio_output@@V?$positional_parameter_base@_WV?$stream_output_adapter@_W@__crt_stdio_output@@@2@@__crt_stdio_output@@AAE_NXZ 100629d0 f i libucrtd:output.obj
 0001:000619f0       ?type_case_u@?$output_processor@_WV?$stream_output_adapter@_W@__crt_stdio_output@@V?$standard_base@_WV?$stream_output_adapter@_W@__crt_stdio_output@@@2@@__crt_stdio_output@@AAE_NXZ 100629f0 f i libucrtd:output.obj
 0001:00061a10       ?type_case_u@?$output_processor@_WV?$string_output_adapter@_W@__crt_stdio_output@@V?$format_validation_base@_WV?$string_output_adapter@_W@__crt_stdio_output@@@2@@__crt_stdio_output@@AAE_NXZ 10062a10 f i libucrtd:output.obj
 0001:00061a30       ?type_case_u@?$output_processor@_WV?$string_output_adapter@_W@__crt_stdio_output@@V?$positional_parameter_base@_WV?$string_output_adapter@_W@__crt_stdio_output@@@2@@__crt_stdio_output@@AAE_NXZ 10062a30 f i libucrtd:output.obj
 0001:00061a50       ?type_case_u@?$output_processor@_WV?$string_output_adapter@_W@__crt_stdio_output@@V?$standard_base@_WV?$string_output_adapter@_W@__crt_stdio_output@@@2@@__crt_stdio_output@@AAE_NXZ 10062a50 f i libucrtd:output.obj
 0001:00061a70       ?type_case_x@?$output_processor@DV?$stream_output_adapter@D@__crt_stdio_output@@V?$format_validation_base@DV?$stream_output_adapter@D@__crt_stdio_output@@@2@@__crt_stdio_output@@AAE_NXZ 10062a70 f i libucrtd:output.obj
 0001:00061a90       ?type_case_x@?$output_processor@DV?$stream_output_adapter@D@__crt_stdio_output@@V?$positional_parameter_base@DV?$stream_output_adapter@D@__crt_stdio_output@@@2@@__crt_stdio_output@@AAE_NXZ 10062a90 f i libucrtd:output.obj
 0001:00061ab0       ?type_case_x@?$output_processor@DV?$stream_output_adapter@D@__crt_stdio_output@@V?$standard_base@DV?$stream_output_adapter@D@__crt_stdio_output@@@2@@__crt_stdio_output@@AAE_NXZ 10062ab0 f i libucrtd:output.obj
 0001:00061ad0       ?type_case_x@?$output_processor@DV?$string_output_adapter@D@__crt_stdio_output@@V?$format_validation_base@DV?$string_output_adapter@D@__crt_stdio_output@@@2@@__crt_stdio_output@@AAE_NXZ 10062ad0 f i libucrtd:output.obj
 0001:00061af0       ?type_case_x@?$output_processor@DV?$string_output_adapter@D@__crt_stdio_output@@V?$positional_parameter_base@DV?$string_output_adapter@D@__crt_stdio_output@@@2@@__crt_stdio_output@@AAE_NXZ 10062af0 f i libucrtd:output.obj
 0001:00061b10       ?type_case_x@?$output_processor@DV?$string_output_adapter@D@__crt_stdio_output@@V?$standard_base@DV?$string_output_adapter@D@__crt_stdio_output@@@2@@__crt_stdio_output@@AAE_NXZ 10062b10 f i libucrtd:output.obj
 0001:00061b30       ?type_case_x@?$output_processor@_WV?$stream_output_adapter@_W@__crt_stdio_output@@V?$format_validation_base@_WV?$stream_output_adapter@_W@__crt_stdio_output@@@2@@__crt_stdio_output@@AAE_NXZ 10062b30 f i libucrtd:output.obj
 0001:00061b50       ?type_case_x@?$output_processor@_WV?$stream_output_adapter@_W@__crt_stdio_output@@V?$positional_parameter_base@_WV?$stream_output_adapter@_W@__crt_stdio_output@@@2@@__crt_stdio_output@@AAE_NXZ 10062b50 f i libucrtd:output.obj
 0001:00061b70       ?type_case_x@?$output_processor@_WV?$stream_output_adapter@_W@__crt_stdio_output@@V?$standard_base@_WV?$stream_output_adapter@_W@__crt_stdio_output@@@2@@__crt_stdio_output@@AAE_NXZ 10062b70 f i libucrtd:output.obj
 0001:00061b90       ?type_case_x@?$output_processor@_WV?$string_output_adapter@_W@__crt_stdio_output@@V?$format_validation_base@_WV?$string_output_adapter@_W@__crt_stdio_output@@@2@@__crt_stdio_output@@AAE_NXZ 10062b90 f i libucrtd:output.obj
 0001:00061bb0       ?type_case_x@?$output_processor@_WV?$string_output_adapter@_W@__crt_stdio_output@@V?$positional_parameter_base@_WV?$string_output_adapter@_W@__crt_stdio_output@@@2@@__crt_stdio_output@@AAE_NXZ 10062bb0 f i libucrtd:output.obj
 0001:00061bd0       ?type_case_x@?$output_processor@_WV?$string_output_adapter@_W@__crt_stdio_output@@V?$standard_base@_WV?$string_output_adapter@_W@__crt_stdio_output@@@2@@__crt_stdio_output@@AAE_NXZ 10062bd0 f i libucrtd:output.obj
 0001:00061bf0       ?unset_flag@?$output_processor@DV?$stream_output_adapter@D@__crt_stdio_output@@V?$format_validation_base@DV?$stream_output_adapter@D@__crt_stdio_output@@@2@@__crt_stdio_output@@AAEXI@Z 10062bf0 f i libucrtd:output.obj
 0001:00061c10       ?unset_flag@?$output_processor@DV?$stream_output_adapter@D@__crt_stdio_output@@V?$positional_parameter_base@DV?$stream_output_adapter@D@__crt_stdio_output@@@2@@__crt_stdio_output@@AAEXI@Z 10062c10 f i libucrtd:output.obj
 0001:00061c30       ?unset_flag@?$output_processor@DV?$stream_output_adapter@D@__crt_stdio_output@@V?$standard_base@DV?$stream_output_adapter@D@__crt_stdio_output@@@2@@__crt_stdio_output@@AAEXI@Z 10062c30 f i libucrtd:output.obj
 0001:00061c50       ?unset_flag@?$output_processor@DV?$string_output_adapter@D@__crt_stdio_output@@V?$format_validation_base@DV?$string_output_adapter@D@__crt_stdio_output@@@2@@__crt_stdio_output@@AAEXI@Z 10062c50 f i libucrtd:output.obj
 0001:00061c70       ?unset_flag@?$output_processor@DV?$string_output_adapter@D@__crt_stdio_output@@V?$positional_parameter_base@DV?$string_output_adapter@D@__crt_stdio_output@@@2@@__crt_stdio_output@@AAEXI@Z 10062c70 f i libucrtd:output.obj
 0001:00061c90       ?unset_flag@?$output_processor@DV?$string_output_adapter@D@__crt_stdio_output@@V?$standard_base@DV?$string_output_adapter@D@__crt_stdio_output@@@2@@__crt_stdio_output@@AAEXI@Z 10062c90 f i libucrtd:output.obj
 0001:00061cb0       ?unset_flag@?$output_processor@_WV?$stream_output_adapter@_W@__crt_stdio_output@@V?$format_validation_base@_WV?$stream_output_adapter@_W@__crt_stdio_output@@@2@@__crt_stdio_output@@AAEXI@Z 10062cb0 f i libucrtd:output.obj
 0001:00061cd0       ?unset_flag@?$output_processor@_WV?$stream_output_adapter@_W@__crt_stdio_output@@V?$positional_parameter_base@_WV?$stream_output_adapter@_W@__crt_stdio_output@@@2@@__crt_stdio_output@@AAEXI@Z 10062cd0 f i libucrtd:output.obj
 0001:00061cf0       ?unset_flag@?$output_processor@_WV?$stream_output_adapter@_W@__crt_stdio_output@@V?$standard_base@_WV?$stream_output_adapter@_W@__crt_stdio_output@@@2@@__crt_stdio_output@@AAEXI@Z 10062cf0 f i libucrtd:output.obj
 0001:00061d10       ?unset_flag@?$output_processor@_WV?$string_output_adapter@_W@__crt_stdio_output@@V?$format_validation_base@_WV?$string_output_adapter@_W@__crt_stdio_output@@@2@@__crt_stdio_output@@AAEXI@Z 10062d10 f i libucrtd:output.obj
 0001:00061d30       ?unset_flag@?$output_processor@_WV?$string_output_adapter@_W@__crt_stdio_output@@V?$positional_parameter_base@_WV?$string_output_adapter@_W@__crt_stdio_output@@@2@@__crt_stdio_output@@AAEXI@Z 10062d30 f i libucrtd:output.obj
 0001:00061d50       ?unset_flag@?$output_processor@_WV?$string_output_adapter@_W@__crt_stdio_output@@V?$standard_base@_WV?$string_output_adapter@_W@__crt_stdio_output@@@2@@__crt_stdio_output@@AAEXI@Z 10062d50 f i libucrtd:output.obj
 0001:00061d70       ?update_field_width@?$positional_parameter_base@DV?$stream_output_adapter@D@__crt_stdio_output@@@__crt_stdio_output@@IAE_NXZ 10062d70 f i libucrtd:output.obj
 0001:00061ef0       ?update_field_width@?$positional_parameter_base@DV?$string_output_adapter@D@__crt_stdio_output@@@__crt_stdio_output@@IAE_NXZ 10062ef0 f i libucrtd:output.obj
 0001:00062070       ?update_field_width@?$positional_parameter_base@_WV?$stream_output_adapter@_W@__crt_stdio_output@@@__crt_stdio_output@@IAE_NXZ 10063070 f i libucrtd:output.obj
 0001:000621f0       ?update_field_width@?$positional_parameter_base@_WV?$string_output_adapter@_W@__crt_stdio_output@@@__crt_stdio_output@@IAE_NXZ 100631f0 f i libucrtd:output.obj
 0001:00062370       ?update_field_width@?$standard_base@DV?$stream_output_adapter@D@__crt_stdio_output@@@__crt_stdio_output@@IAE_NXZ 10063370 f i libucrtd:output.obj
 0001:000623a0       ?update_field_width@?$standard_base@DV?$string_output_adapter@D@__crt_stdio_output@@@__crt_stdio_output@@IAE_NXZ 100633a0 f i libucrtd:output.obj
 0001:000623d0       ?update_field_width@?$standard_base@_WV?$stream_output_adapter@_W@__crt_stdio_output@@@__crt_stdio_output@@IAE_NXZ 100633d0 f i libucrtd:output.obj
 0001:00062400       ?update_field_width@?$standard_base@_WV?$string_output_adapter@_W@__crt_stdio_output@@@__crt_stdio_output@@IAE_NXZ 10063400 f i libucrtd:output.obj
 0001:00062430       ?update_precision@?$positional_parameter_base@DV?$stream_output_adapter@D@__crt_stdio_output@@@__crt_stdio_output@@IAE_NXZ 10063430 f i libucrtd:output.obj
 0001:000625b0       ?update_precision@?$positional_parameter_base@DV?$string_output_adapter@D@__crt_stdio_output@@@__crt_stdio_output@@IAE_NXZ 100635b0 f i libucrtd:output.obj
 0001:00062730       ?update_precision@?$positional_parameter_base@_WV?$stream_output_adapter@_W@__crt_stdio_output@@@__crt_stdio_output@@IAE_NXZ 10063730 f i libucrtd:output.obj
 0001:000628b0       ?update_precision@?$positional_parameter_base@_WV?$string_output_adapter@_W@__crt_stdio_output@@@__crt_stdio_output@@IAE_NXZ 100638b0 f i libucrtd:output.obj
 0001:00062a30       ?update_precision@?$standard_base@DV?$stream_output_adapter@D@__crt_stdio_output@@@__crt_stdio_output@@IAE_NXZ 10063a30 f i libucrtd:output.obj
 0001:00062a60       ?update_precision@?$standard_base@DV?$string_output_adapter@D@__crt_stdio_output@@@__crt_stdio_output@@IAE_NXZ 10063a60 f i libucrtd:output.obj
 0001:00062a90       ?update_precision@?$standard_base@_WV?$stream_output_adapter@_W@__crt_stdio_output@@@__crt_stdio_output@@IAE_NXZ 10063a90 f i libucrtd:output.obj
 0001:00062ac0       ?update_precision@?$standard_base@_WV?$string_output_adapter@_W@__crt_stdio_output@@@__crt_stdio_output@@IAE_NXZ 10063ac0 f i libucrtd:output.obj
 0001:00062af0       ?valid@__crt_stdio_stream@@QBE_NXZ 10063af0 f i libucrtd:output.obj
 0001:00062b20       ?validate@?$stream_output_adapter@D@__crt_stdio_output@@QBE_NXZ 10063b20 f i libucrtd:output.obj
 0001:00062bd0       ?validate@?$stream_output_adapter@_W@__crt_stdio_output@@QBE_NXZ 10063bd0 f i libucrtd:output.obj
 0001:00062c80       ?validate@?$string_output_adapter@D@__crt_stdio_output@@QBE_NXZ 10063c80 f i libucrtd:output.obj
 0001:00062d10       ?validate@?$string_output_adapter@_W@__crt_stdio_output@@QBE_NXZ 10063d10 f i libucrtd:output.obj
 0001:00062da0       ?validate_and_store_parameter_data@?$positional_parameter_base@DV?$stream_output_adapter@D@__crt_stdio_output@@@__crt_stdio_output@@AAE_NAAUparameter_data@12@W4parameter_type@12@DW4length_modifier@2@@Z 10063da0 f i libucrtd:output.obj
 0001:00062e70       ?validate_and_store_parameter_data@?$positional_parameter_base@DV?$string_output_adapter@D@__crt_stdio_output@@@__crt_stdio_output@@AAE_NAAUparameter_data@12@W4parameter_type@12@DW4length_modifier@2@@Z 10063e70 f i libucrtd:output.obj
 0001:00062f40       ?validate_and_store_parameter_data@?$positional_parameter_base@_WV?$stream_output_adapter@_W@__crt_stdio_output@@@__crt_stdio_output@@AAE_NAAUparameter_data@12@W4parameter_type@12@_WW4length_modifier@2@@Z 10063f40 f i libucrtd:output.obj
 0001:00063020       ?validate_and_store_parameter_data@?$positional_parameter_base@_WV?$string_output_adapter@_W@__crt_stdio_output@@@__crt_stdio_output@@AAE_NAAUparameter_data@12@W4parameter_type@12@_WW4length_modifier@2@@Z 10064020 f i libucrtd:output.obj
 0001:00063100       ?validate_and_update_state_at_beginning_of_format_character@?$positional_parameter_base@DV?$stream_output_adapter@D@__crt_stdio_output@@@__crt_stdio_output@@IAE_NXZ 10064100 f i libucrtd:output.obj
 0001:00063320       ?validate_and_update_state_at_beginning_of_format_character@?$positional_parameter_base@DV?$string_output_adapter@D@__crt_stdio_output@@@__crt_stdio_output@@IAE_NXZ 10064320 f i libucrtd:output.obj
 0001:00063540       ?validate_and_update_state_at_beginning_of_format_character@?$positional_parameter_base@_WV?$stream_output_adapter@_W@__crt_stdio_output@@@__crt_stdio_output@@IAE_NXZ 10064540 f i libucrtd:output.obj
 0001:00063760       ?validate_and_update_state_at_beginning_of_format_character@?$positional_parameter_base@_WV?$string_output_adapter@_W@__crt_stdio_output@@@__crt_stdio_output@@IAE_NXZ 10064760 f i libucrtd:output.obj
 0001:00063980       ?validate_and_update_state_at_beginning_of_format_character@?$standard_base@DV?$stream_output_adapter@D@__crt_stdio_output@@@__crt_stdio_output@@IAE_NXZ 10064980 f i libucrtd:output.obj
 0001:00063990       ?validate_and_update_state_at_beginning_of_format_character@?$standard_base@DV?$string_output_adapter@D@__crt_stdio_output@@@__crt_stdio_output@@IAE_NXZ 10064990 f i libucrtd:output.obj
 0001:000639a0       ?validate_and_update_state_at_beginning_of_format_character@?$standard_base@_WV?$stream_output_adapter@_W@__crt_stdio_output@@@__crt_stdio_output@@IAE_NXZ 100649a0 f i libucrtd:output.obj
 0001:000639b0       ?validate_and_update_state_at_beginning_of_format_character@?$standard_base@_WV?$string_output_adapter@_W@__crt_stdio_output@@@__crt_stdio_output@@IAE_NXZ 100649b0 f i libucrtd:output.obj
 0001:000639c0       ?validate_and_update_state_at_end_of_format_string@?$format_validation_base@DV?$stream_output_adapter@D@__crt_stdio_output@@@__crt_stdio_output@@IBE_NXZ 100649c0 f i libucrtd:output.obj
 0001:00063a60       ?validate_and_update_state_at_end_of_format_string@?$format_validation_base@DV?$string_output_adapter@D@__crt_stdio_output@@@__crt_stdio_output@@IBE_NXZ 10064a60 f i libucrtd:output.obj
 0001:00063b00       ?validate_and_update_state_at_end_of_format_string@?$format_validation_base@_WV?$stream_output_adapter@_W@__crt_stdio_output@@@__crt_stdio_output@@IBE_NXZ 10064b00 f i libucrtd:output.obj
 0001:00063ba0       ?validate_and_update_state_at_end_of_format_string@?$format_validation_base@_WV?$string_output_adapter@_W@__crt_stdio_output@@@__crt_stdio_output@@IBE_NXZ 10064ba0 f i libucrtd:output.obj
 0001:00063c40       ?validate_and_update_state_at_end_of_format_string@?$positional_parameter_base@DV?$stream_output_adapter@D@__crt_stdio_output@@@__crt_stdio_output@@IAE_NXZ 10064c40 f i libucrtd:output.obj
 0001:00063de0       ?validate_and_update_state_at_end_of_format_string@?$positional_parameter_base@DV?$string_output_adapter@D@__crt_stdio_output@@@__crt_stdio_output@@IAE_NXZ 10064de0 f i libucrtd:output.obj
 0001:00063f80       ?validate_and_update_state_at_end_of_format_string@?$positional_parameter_base@_WV?$stream_output_adapter@_W@__crt_stdio_output@@@__crt_stdio_output@@IAE_NXZ 10064f80 f i libucrtd:output.obj
 0001:00064120       ?validate_and_update_state_at_end_of_format_string@?$positional_parameter_base@_WV?$string_output_adapter@_W@__crt_stdio_output@@@__crt_stdio_output@@IAE_NXZ 10065120 f i libucrtd:output.obj
 0001:000642c0       ?validate_and_update_state_at_end_of_format_string@?$standard_base@DV?$stream_output_adapter@D@__crt_stdio_output@@@__crt_stdio_output@@IBE_NXZ 100652c0 f i libucrtd:output.obj
 0001:000642d0       ?validate_and_update_state_at_end_of_format_string@?$standard_base@DV?$string_output_adapter@D@__crt_stdio_output@@@__crt_stdio_output@@IBE_NXZ 100652d0 f i libucrtd:output.obj
 0001:000642e0       ?validate_and_update_state_at_end_of_format_string@?$standard_base@_WV?$stream_output_adapter@_W@__crt_stdio_output@@@__crt_stdio_output@@IBE_NXZ 100652e0 f i libucrtd:output.obj
 0001:000642f0       ?validate_and_update_state_at_end_of_format_string@?$standard_base@_WV?$string_output_adapter@_W@__crt_stdio_output@@@__crt_stdio_output@@IBE_NXZ 100652f0 f i libucrtd:output.obj
 0001:00064300       ?validate_state_for_type_case_a@?$positional_parameter_base@DV?$stream_output_adapter@D@__crt_stdio_output@@@__crt_stdio_output@@IAE_NXZ 10065300 f i libucrtd:output.obj
 0001:000643f0       ?validate_state_for_type_case_a@?$positional_parameter_base@DV?$string_output_adapter@D@__crt_stdio_output@@@__crt_stdio_output@@IAE_NXZ 100653f0 f i libucrtd:output.obj
 0001:000644e0       ?validate_state_for_type_case_a@?$positional_parameter_base@_WV?$stream_output_adapter@_W@__crt_stdio_output@@@__crt_stdio_output@@IAE_NXZ 100654e0 f i libucrtd:output.obj
 0001:000645d0       ?validate_state_for_type_case_a@?$positional_parameter_base@_WV?$string_output_adapter@_W@__crt_stdio_output@@@__crt_stdio_output@@IAE_NXZ 100655d0 f i libucrtd:output.obj
 0001:000646c0       ?validate_state_for_type_case_a@?$standard_base@DV?$stream_output_adapter@D@__crt_stdio_output@@@__crt_stdio_output@@IBE_NXZ 100656c0 f i libucrtd:output.obj
 0001:000646d0       ?validate_state_for_type_case_a@?$standard_base@DV?$string_output_adapter@D@__crt_stdio_output@@@__crt_stdio_output@@IBE_NXZ 100656d0 f i libucrtd:output.obj
 0001:000646e0       ?validate_state_for_type_case_a@?$standard_base@_WV?$stream_output_adapter@_W@__crt_stdio_output@@@__crt_stdio_output@@IBE_NXZ 100656e0 f i libucrtd:output.obj
 0001:000646f0       ?validate_state_for_type_case_a@?$standard_base@_WV?$string_output_adapter@_W@__crt_stdio_output@@@__crt_stdio_output@@IBE_NXZ 100656f0 f i libucrtd:output.obj
 0001:00064700       ?validate_stream_is_ansi_if_required@?$__acrt_stdio_char_traits@D@@SA_NQAU_iobuf@@@Z 10065700 f i libucrtd:output.obj
 0001:00064830       ?validate_stream_is_ansi_if_required@?$__acrt_stdio_char_traits@_W@@SA_NQAU_iobuf@@@Z 10065830 f i libucrtd:output.obj
 0001:00064840       ?wide_null_string@?$output_processor@DV?$stream_output_adapter@D@__crt_stdio_output@@V?$format_validation_base@DV?$stream_output_adapter@D@__crt_stdio_output@@@2@@__crt_stdio_output@@CAPA_WXZ 10065840 f i libucrtd:output.obj
 0001:00064850       ?wide_null_string@?$output_processor@DV?$stream_output_adapter@D@__crt_stdio_output@@V?$positional_parameter_base@DV?$stream_output_adapter@D@__crt_stdio_output@@@2@@__crt_stdio_output@@CAPA_WXZ 10065850 f i libucrtd:output.obj
 0001:00064860       ?wide_null_string@?$output_processor@DV?$stream_output_adapter@D@__crt_stdio_output@@V?$standard_base@DV?$stream_output_adapter@D@__crt_stdio_output@@@2@@__crt_stdio_output@@CAPA_WXZ 10065860 f i libucrtd:output.obj
 0001:00064870       ?wide_null_string@?$output_processor@DV?$string_output_adapter@D@__crt_stdio_output@@V?$format_validation_base@DV?$string_output_adapter@D@__crt_stdio_output@@@2@@__crt_stdio_output@@CAPA_WXZ 10065870 f i libucrtd:output.obj
 0001:00064880       ?wide_null_string@?$output_processor@DV?$string_output_adapter@D@__crt_stdio_output@@V?$positional_parameter_base@DV?$string_output_adapter@D@__crt_stdio_output@@@2@@__crt_stdio_output@@CAPA_WXZ 10065880 f i libucrtd:output.obj
 0001:00064890       ?wide_null_string@?$output_processor@DV?$string_output_adapter@D@__crt_stdio_output@@V?$standard_base@DV?$string_output_adapter@D@__crt_stdio_output@@@2@@__crt_stdio_output@@CAPA_WXZ 10065890 f i libucrtd:output.obj
 0001:000648a0       ?wide_null_string@?$output_processor@_WV?$stream_output_adapter@_W@__crt_stdio_output@@V?$format_validation_base@_WV?$stream_output_adapter@_W@__crt_stdio_output@@@2@@__crt_stdio_output@@CAPA_WXZ 100658a0 f i libucrtd:output.obj
 0001:000648b0       ?wide_null_string@?$output_processor@_WV?$stream_output_adapter@_W@__crt_stdio_output@@V?$positional_parameter_base@_WV?$stream_output_adapter@_W@__crt_stdio_output@@@2@@__crt_stdio_output@@CAPA_WXZ 100658b0 f i libucrtd:output.obj
 0001:000648c0       ?wide_null_string@?$output_processor@_WV?$stream_output_adapter@_W@__crt_stdio_output@@V?$standard_base@_WV?$stream_output_adapter@_W@__crt_stdio_output@@@2@@__crt_stdio_output@@CAPA_WXZ 100658c0 f i libucrtd:output.obj
 0001:000648d0       ?wide_null_string@?$output_processor@_WV?$string_output_adapter@_W@__crt_stdio_output@@V?$format_validation_base@_WV?$string_output_adapter@_W@__crt_stdio_output@@@2@@__crt_stdio_output@@CAPA_WXZ 100658d0 f i libucrtd:output.obj
 0001:000648e0       ?wide_null_string@?$output_processor@_WV?$string_output_adapter@_W@__crt_stdio_output@@V?$positional_parameter_base@_WV?$string_output_adapter@_W@__crt_stdio_output@@@2@@__crt_stdio_output@@CAPA_WXZ 100658e0 f i libucrtd:output.obj
 0001:000648f0       ?wide_null_string@?$output_processor@_WV?$string_output_adapter@_W@__crt_stdio_output@@V?$standard_base@_WV?$string_output_adapter@_W@__crt_stdio_output@@@2@@__crt_stdio_output@@CAPA_WXZ 100658f0 f i libucrtd:output.obj
 0001:00064900       ?write_character@?$output_adapter_common@DV?$stream_output_adapter@D@__crt_stdio_output@@@__crt_stdio_output@@QBEXDQAH@Z 10065900 f i libucrtd:output.obj
 0001:00064940       ?write_character@?$output_adapter_common@_WV?$stream_output_adapter@_W@__crt_stdio_output@@@__crt_stdio_output@@QBEX_WQAH@Z 10065940 f i libucrtd:output.obj
 0001:00064980       ?write_character@?$string_output_adapter@D@__crt_stdio_output@@QBE_NDQAH@Z 10065980 f i libucrtd:output.obj
 0001:00064a10       ?write_character@?$string_output_adapter@_W@__crt_stdio_output@@QBE_N_WQAH@Z 10065a10 f i libucrtd:output.obj
 0001:00064ab0       ?write_character_without_count_update@?$stream_output_adapter@D@__crt_stdio_output@@QBE_ND@Z 10065ab0 f i libucrtd:output.obj
 0001:00064b20       ?write_character_without_count_update@?$stream_output_adapter@_W@__crt_stdio_output@@QBE_N_W@Z 10065b20 f i libucrtd:output.obj
 0001:00064b90       ?write_stored_string_tchar@?$output_processor@DV?$stream_output_adapter@D@__crt_stdio_output@@V?$format_validation_base@DV?$stream_output_adapter@D@__crt_stdio_output@@@2@@__crt_stdio_output@@AAE_ND@Z 10065b90 f i libucrtd:output.obj
 0001:00064cb0       ?write_stored_string_tchar@?$output_processor@DV?$stream_output_adapter@D@__crt_stdio_output@@V?$positional_parameter_base@DV?$stream_output_adapter@D@__crt_stdio_output@@@2@@__crt_stdio_output@@AAE_ND@Z 10065cb0 f i libucrtd:output.obj
 0001:00064dd0       ?write_stored_string_tchar@?$output_processor@DV?$stream_output_adapter@D@__crt_stdio_output@@V?$standard_base@DV?$stream_output_adapter@D@__crt_stdio_output@@@2@@__crt_stdio_output@@AAE_ND@Z 10065dd0 f i libucrtd:output.obj
 0001:00064ef0       ?write_stored_string_tchar@?$output_processor@DV?$string_output_adapter@D@__crt_stdio_output@@V?$format_validation_base@DV?$string_output_adapter@D@__crt_stdio_output@@@2@@__crt_stdio_output@@AAE_ND@Z 10065ef0 f i libucrtd:output.obj
 0001:00065010       ?write_stored_string_tchar@?$output_processor@DV?$string_output_adapter@D@__crt_stdio_output@@V?$positional_parameter_base@DV?$string_output_adapter@D@__crt_stdio_output@@@2@@__crt_stdio_output@@AAE_ND@Z 10066010 f i libucrtd:output.obj
 0001:00065130       ?write_stored_string_tchar@?$output_processor@DV?$string_output_adapter@D@__crt_stdio_output@@V?$standard_base@DV?$string_output_adapter@D@__crt_stdio_output@@@2@@__crt_stdio_output@@AAE_ND@Z 10066130 f i libucrtd:output.obj
 0001:00065250       ?write_stored_string_tchar@?$output_processor@_WV?$stream_output_adapter@_W@__crt_stdio_output@@V?$format_validation_base@_WV?$stream_output_adapter@_W@__crt_stdio_output@@@2@@__crt_stdio_output@@AAE_N_W@Z 10066250 f i libucrtd:output.obj
 0001:00065340       ?write_stored_string_tchar@?$output_processor@_WV?$stream_output_adapter@_W@__crt_stdio_output@@V?$positional_parameter_base@_WV?$stream_output_adapter@_W@__crt_stdio_output@@@2@@__crt_stdio_output@@AAE_N_W@Z 10066340 f i libucrtd:output.obj
 0001:00065430       ?write_stored_string_tchar@?$output_processor@_WV?$stream_output_adapter@_W@__crt_stdio_output@@V?$standard_base@_WV?$stream_output_adapter@_W@__crt_stdio_output@@@2@@__crt_stdio_output@@AAE_N_W@Z 10066430 f i libucrtd:output.obj
 0001:00065520       ?write_stored_string_tchar@?$output_processor@_WV?$string_output_adapter@_W@__crt_stdio_output@@V?$format_validation_base@_WV?$string_output_adapter@_W@__crt_stdio_output@@@2@@__crt_stdio_output@@AAE_N_W@Z 10066520 f i libucrtd:output.obj
 0001:00065610       ?write_stored_string_tchar@?$output_processor@_WV?$string_output_adapter@_W@__crt_stdio_output@@V?$positional_parameter_base@_WV?$string_output_adapter@_W@__crt_stdio_output@@@2@@__crt_stdio_output@@AAE_N_W@Z 10066610 f i libucrtd:output.obj
 0001:00065700       ?write_stored_string_tchar@?$output_processor@_WV?$string_output_adapter@_W@__crt_stdio_output@@V?$standard_base@_WV?$string_output_adapter@_W@__crt_stdio_output@@@2@@__crt_stdio_output@@AAE_N_W@Z 10066700 f i libucrtd:output.obj
 0001:000657f0       ?write_string@?$stream_output_adapter@D@__crt_stdio_output@@QBEXQBDHQAHAAV__crt_deferred_errno_cache@@@Z 100667f0 f i libucrtd:output.obj
 0001:00065850       ?write_string@?$stream_output_adapter@_W@__crt_stdio_output@@QBEXQB_WHQAHAAV__crt_deferred_errno_cache@@@Z 10066850 f i libucrtd:output.obj
 0001:000658b0       ?write_string@?$string_output_adapter@D@__crt_stdio_output@@QBEXQBDHQAHAAV__crt_deferred_errno_cache@@@Z 100668b0 f i libucrtd:output.obj
 0001:000659b0       ?write_string@?$string_output_adapter@_W@__crt_stdio_output@@QBEXQB_WHQAHAAV__crt_deferred_errno_cache@@@Z 100669b0 f i libucrtd:output.obj
 0001:00065ac0       ?write_string_impl@?$output_adapter_common@DV?$stream_output_adapter@D@__crt_stdio_output@@@__crt_stdio_output@@IBEXQBDHQAHAAV__crt_deferred_errno_cache@@@Z 10066ac0 f i libucrtd:output.obj
 0001:00065b60       ?write_string_impl@?$output_adapter_common@_WV?$stream_output_adapter@_W@__crt_stdio_output@@@__crt_stdio_output@@IBEXQB_WHQAHAAV__crt_deferred_errno_cache@@@Z 10066b60 f i libucrtd:output.obj
 0001:00065c00       ___acrt_disable_global_locale_sync 10066c00 f i libucrtd:output.obj
 0001:00065c20       ___acrt_enable_global_locale_sync 10066c20 f i libucrtd:output.obj
 0001:00065c40       ___acrt_isleadbyte_l_noupdate 10066c40 f i libucrtd:output.obj
 0001:00065c60       ___acrt_locale_changed     10066c60 f i libucrtd:output.obj
 0001:00065c90       ___acrt_locale_get_ctype_array_value 10066c90 f i libucrtd:output.obj
 0001:00065cc0       ___stdio_common_vfprintf   10066cc0 f   libucrtd:output.obj
 0001:00065cf0       ___stdio_common_vfprintf_p 10066cf0 f   libucrtd:output.obj
 0001:00065d20       ___stdio_common_vfprintf_s 10066d20 f   libucrtd:output.obj
 0001:00065d50       ___stdio_common_vfwprintf  10066d50 f   libucrtd:output.obj
 0001:00065d80       ___stdio_common_vfwprintf_p 10066d80 f   libucrtd:output.obj
 0001:00065db0       ___stdio_common_vfwprintf_s 10066db0 f   libucrtd:output.obj
 0001:00065de0       ___stdio_common_vsnprintf_s 10066de0 f   libucrtd:output.obj
 0001:00065e10       ___stdio_common_vsnwprintf_s 10066e10 f   libucrtd:output.obj
 0001:00065e40       ___stdio_common_vsprintf   10066e40 f   libucrtd:output.obj
 0001:00065e70       ___stdio_common_vsprintf_p 10066e70 f   libucrtd:output.obj
 0001:00065ea0       ___stdio_common_vsprintf_s 10066ea0 f   libucrtd:output.obj
 0001:00065ed0       ___stdio_common_vswprintf  10066ed0 f   libucrtd:output.obj
 0001:00065f00       ___stdio_common_vswprintf_p 10066f00 f   libucrtd:output.obj
 0001:00065f30       ___stdio_common_vswprintf_s 10066f30 f   libucrtd:output.obj
 0001:00065f60       __ctype_fast_check_internal 10066f60 f i libucrtd:output.obj
 0001:00065f80       __isdigit_fast_internal    10066f80 f i libucrtd:output.obj
 0001:00065fa0       __tolower_fast_internal    10066fa0 f i libucrtd:output.obj
 0001:00065fc0       _free                      10066fc0 f   libucrtd:free.obj
 0001:00065ff0       _malloc                    10066ff0 f   libucrtd:malloc.obj
 0001:00066010       ??$?RU?$__crt_report_hook_node@D@@@__crt_internal_free_policy@@QBEXQBU?$__crt_report_hook_node@D@@@Z 10067010 f i libucrtd:dbgrpt.obj
 0001:00066030       ??$?RU?$__crt_report_hook_node@_W@@@__crt_internal_free_policy@@QBEXQBU?$__crt_report_hook_node@_W@@@Z 10067030 f i libucrtd:dbgrpt.obj
 0001:00066e20       ??$get_module_file_name@AAPAUHINSTANCE__@@AAY0BAF@DK@?$__crt_char_traits@D@@SAKAAPAUHINSTANCE__@@AAY0BAF@D$$QAK@Z 10067e20 f i libucrtd:dbgrpt.obj
 0001:00066e40       ??$get_module_file_name@AAPAUHINSTANCE__@@AAY0BAF@_WK@?$__crt_char_traits@_W@@SAKAAPAUHINSTANCE__@@AAY0BAF@_W$$QAK@Z 10067e40 f i libucrtd:dbgrpt.obj
 0001:00066e60       ??$tcscpy_s@AAY0BAF@DIPBD@?$__crt_char_traits@D@@SAHAAY0BAF@D$$QAI$$QAPBD@Z 10067e60 f i libucrtd:dbgrpt.obj
 0001:00066e80       ??$tcscpy_s@AAY0BAF@_WIPB_W@?$__crt_char_traits@_W@@SAHAAY0BAF@_W$$QAI$$QAPB_W@Z 10067e80 f i libucrtd:dbgrpt.obj
 0001:00066ea0       ??$tcslen@AAY0BAF@D@?$__crt_char_traits@D@@SAIAAY0BAF@D@Z 10067ea0 f i libucrtd:dbgrpt.obj
 0001:00066ec0       ??$tcslen@AAY0BAF@_W@?$__crt_char_traits@_W@@SAIAAY0BAF@_W@Z 10067ec0 f i libucrtd:dbgrpt.obj
 0001:00066ee0       ??$tcslen@ABQBD@?$__crt_char_traits@D@@SAIABQBD@Z 10067ee0 f i libucrtd:dbgrpt.obj
 0001:00066f00       ??$tcslen@ABQB_W@?$__crt_char_traits@_W@@SAIABQB_W@Z 10067f00 f i libucrtd:dbgrpt.obj
 0001:00067000       ??0?$__crt_unique_heap_ptr@U?$__crt_report_hook_node@D@@U__crt_internal_free_policy@@@@QAE@QAU?$__crt_report_hook_node@D@@@Z 10068000 f i libucrtd:dbgrpt.obj
 0001:00067020       ??0?$__crt_unique_heap_ptr@U?$__crt_report_hook_node@_W@@U__crt_internal_free_policy@@@@QAE@QAU?$__crt_report_hook_node@_W@@@Z 10068020 f i libucrtd:dbgrpt.obj
 0001:00067040       ??1?$__crt_unique_heap_ptr@U?$__crt_report_hook_node@D@@U__crt_internal_free_policy@@@@QAE@XZ 10068040 f i libucrtd:dbgrpt.obj
 0001:00067060       ??1?$__crt_unique_heap_ptr@U?$__crt_report_hook_node@_W@@U__crt_internal_free_policy@@@@QAE@XZ 10068060 f i libucrtd:dbgrpt.obj
 0001:00067080       ??B?$__crt_unique_heap_ptr@U?$__crt_report_hook_node@D@@U__crt_internal_free_policy@@@@QBE_NXZ 10068080 f i libucrtd:dbgrpt.obj
 0001:000670a0       ??B?$__crt_unique_heap_ptr@U?$__crt_report_hook_node@_W@@U__crt_internal_free_policy@@@@QBE_NXZ 100680a0 f i libucrtd:dbgrpt.obj
 0001:000675e0       ?detach@?$__crt_unique_heap_ptr@U?$__crt_report_hook_node@D@@U__crt_internal_free_policy@@@@QAEPAU?$__crt_report_hook_node@D@@XZ 100685e0 f i libucrtd:dbgrpt.obj
 0001:00067610       ?detach@?$__crt_unique_heap_ptr@U?$__crt_report_hook_node@_W@@U__crt_internal_free_policy@@@@QAEPAU?$__crt_report_hook_node@_W@@XZ 10068610 f i libucrtd:dbgrpt.obj
 0001:00067640       ?get@?$__crt_unique_heap_ptr@U?$__crt_report_hook_node@D@@U__crt_internal_free_policy@@@@QBEPAU?$__crt_report_hook_node@D@@XZ 10068640 f i libucrtd:dbgrpt.obj
 0001:00067660       ?get@?$__crt_unique_heap_ptr@U?$__crt_report_hook_node@_W@@U__crt_internal_free_policy@@@@QBEPAU?$__crt_report_hook_node@_W@@XZ 10068660 f i libucrtd:dbgrpt.obj
 0001:000676e0       ?is_valid@?$__crt_unique_heap_ptr@U?$__crt_report_hook_node@D@@U__crt_internal_free_policy@@@@QBE_NXZ 100686e0 f i libucrtd:dbgrpt.obj
 0001:00067710       ?is_valid@?$__crt_unique_heap_ptr@U?$__crt_report_hook_node@_W@@U__crt_internal_free_policy@@@@QBE_NXZ 10068710 f i libucrtd:dbgrpt.obj
 0001:00067740       ?release@?$__crt_unique_heap_ptr@U?$__crt_report_hook_node@D@@U__crt_internal_free_policy@@@@QAEXXZ 10068740 f i libucrtd:dbgrpt.obj
 0001:00067770       ?release@?$__crt_unique_heap_ptr@U?$__crt_report_hook_node@_W@@U__crt_internal_free_policy@@@@QAEXXZ 10068770 f i libucrtd:dbgrpt.obj
 0001:000677a0       __CrtDbgReport             100687a0 f   libucrtd:dbgrpt.obj
 0001:000677f0       __CrtDbgReportW            100687f0 f   libucrtd:dbgrpt.obj
 0001:00067840       __CrtSetReportHook2        10068840 f   libucrtd:dbgrpt.obj
 0001:00067860       __CrtSetReportHookW2       10068860 f   libucrtd:dbgrpt.obj
 0001:00067880       ___acrt_MessageWindowA     10068880 f   libucrtd:dbgrpt.obj
 0001:000678b0       ___acrt_MessageWindowW     100688b0 f   libucrtd:dbgrpt.obj
 0001:000678e0       __invoke_watson_if_error   100688e0 f i libucrtd:dbgrpt.obj
 0001:00067910       __invoke_watson_if_oneof   10068910 f i libucrtd:dbgrpt.obj
 0001:00067950       __snwprintf_s              10068950 f i libucrtd:dbgrpt.obj
 0001:00067990       __vsnwprintf_s_l           10068990 f i libucrtd:dbgrpt.obj
 0001:00067d10       _wcscpy_s                  10068d10 f   libucrtd:wcscpy_s.obj
 0001:00068a30       ??1?$__crt_simd_cleanup_guard@$00@@QAE@XZ 10069a30 f i libucrtd:strnlen.obj
 0001:00068a40       ??1?$__crt_simd_cleanup_guard@$0A@@@QAE@XZ 10069a40 f i libucrtd:strnlen.obj
 0001:00068a50       ?compare_equals@?$__crt_simd_traits@$00E@@SA?AT__m256i@@T2@0@Z 10069a50 f i libucrtd:strnlen.obj
 0001:00068a90       ?compare_equals@?$__crt_simd_traits@$00G@@SA?AT__m256i@@T2@0@Z 10069a90 f i libucrtd:strnlen.obj
 0001:00068ad0       ?compare_equals@?$__crt_simd_traits@$0A@E@@SA?AT__m128i@@T2@0@Z 10069ad0 f i libucrtd:strnlen.obj
 0001:00068b10       ?compare_equals@?$__crt_simd_traits@$0A@G@@SA?AT__m128i@@T2@0@Z 10069b10 f i libucrtd:strnlen.obj
 0001:00068b50       ?compute_byte_mask@?$__crt_simd_pack_traits@$00@@SAHT__m256i@@@Z 10069b50 f i libucrtd:strnlen.obj
 0001:00068b80       ?compute_byte_mask@?$__crt_simd_pack_traits@$0A@@@SAHT__m128i@@@Z 10069b80 f i libucrtd:strnlen.obj
 0001:00068bb0       ?get_zero_pack@?$__crt_simd_pack_traits@$00@@SA?AT__m256i@@XZ 10069bb0 f i libucrtd:strnlen.obj
 0001:00068be0       ?get_zero_pack@?$__crt_simd_pack_traits@$0A@@@SA?AT__m128i@@XZ 10069be0 f i libucrtd:strnlen.obj
 0001:00068c10       _strnlen                   10069c10 f   libucrtd:strnlen.obj
 0001:00068c30       _wcslen                    10069c30 f   libucrtd:strnlen.obj
 0001:00068c50       _wcsnlen                   10069c50 f   libucrtd:strnlen.obj
 0001:00068c70       ??$__crt_fast_decode_pointer@P6AXPB_W00II@Z@@YAP6AXPB_W00II@ZQ6AX000II@Z@Z 10069c70 f i libucrtd:invalid_parameter.obj
 0001:00068ca0       ??$__crt_fast_encode_pointer@P6AXPB_W00II@Z@@YAP6AXPB_W00II@ZQ6AX000II@Z@Z 10069ca0 f i libucrtd:invalid_parameter.obj
 0001:00068cd0       ??$initialize_from_array@$$BY00Q6AXPB_W00II@Z@?$dual_state_global@P6AXPB_W00II@Z@__crt_state_management@@QAAXAAY00Q6AXPB_W00II@Z@Z 10069cd0 f i libucrtd:invalid_parameter.obj
 0001:00068d20       ?__crt_rotate_pointer_value@@YAIIH@Z 10069d20 f i libucrtd:invalid_parameter.obj
 0001:00068d30       ?dangerous_get_state_array@?$dual_state_global@P6AXPB_W00II@Z@__crt_state_management@@QAEPAP6AXPB_W00II@ZXZ 10069d30 f i libucrtd:invalid_parameter.obj
 0001:00068d40       ?get_current_state_index@__crt_state_management@@YAIXZ 10069d40 f i libucrtd:invalid_parameter.obj
 0001:00068d50       ?value@?$dual_state_global@P6AXPB_W00II@Z@__crt_state_management@@QAEAAP6AXPB_W00II@ZXZ 10069d50 f i libucrtd:invalid_parameter.obj
 0001:00068d70       ___acrt_call_reportfault   10069d70 f   libucrtd:invalid_parameter.obj
 0001:00068ed0       ___acrt_initialize_invalid_parameter_handler 10069ed0 f   libucrtd:invalid_parameter.obj
 0001:00068f00       __get_invalid_parameter_handler 10069f00 f   libucrtd:invalid_parameter.obj
 0001:00068f20       __get_thread_local_invalid_parameter_handler 10069f20 f   libucrtd:invalid_parameter.obj
 0001:00068f50       __invalid_parameter        10069f50 f   libucrtd:invalid_parameter.obj
 0001:00069010       __invalid_parameter_noinfo 1006a010 f   libucrtd:invalid_parameter.obj
 0001:00069030       __invalid_parameter_noinfo_noreturn 1006a030 f   libucrtd:invalid_parameter.obj
 0001:00069060       __invoke_watson            1006a060 f   libucrtd:invalid_parameter.obj
 0001:000690a0       __set_invalid_parameter_handler 1006a0a0 f   libucrtd:invalid_parameter.obj
 0001:000690f0       __set_thread_local_invalid_parameter_handler 1006a0f0 f   libucrtd:invalid_parameter.obj
 0001:00069120       ___acrt_errno_from_os_error 1006a120 f   libucrtd:errno.obj
 0001:000691a0       ___acrt_errno_map_os_error 1006a1a0 f   libucrtd:errno.obj
 0001:000691d0       ___doserrno                1006a1d0 f   libucrtd:errno.obj
 0001:00069200       __errno                    1006a200 f   libucrtd:errno.obj
 0001:00069230       __get_doserrno             1006a230 f   libucrtd:errno.obj
 0001:000692c0       __get_errno                1006a2c0 f   libucrtd:errno.obj
 0001:00069350       __set_doserrno             1006a350 f   libucrtd:errno.obj
 0001:00069380       __set_errno                1006a380 f   libucrtd:errno.obj
 0001:000693b0       _calloc                    1006a3b0 f   libucrtd:calloc.obj
 0001:000693d0       __recalloc                 1006a3d0 f   libucrtd:recalloc.obj
 0001:00069400       __recalloc_base            1006a400 f   libucrtd:recalloc.obj
 0001:0006949a       __resetstkoflw             1006a49a f   libucrtd:resetstk.obj
 0001:00069980       _wcscat_s                  1006a980 f   libucrtd:wcscat_s.obj
 0001:00069dd0       _wcsncpy_s                 1006add0 f   libucrtd:wcsncpy_s.obj
 0001:00069f10       ___isascii                 1006af10 f   libucrtd:_ctype.obj
 0001:00069f40       ___iscsym                  1006af40 f   libucrtd:_ctype.obj
 0001:00069f80       ___iscsymf                 1006af80 f   libucrtd:_ctype.obj
 0001:00069fc0       ___toascii                 1006afc0 f   libucrtd:_ctype.obj
 0001:00069fd0       __isalnum_l                1006afd0 f   libucrtd:_ctype.obj
 0001:00069ff0       __isalpha_l                1006aff0 f   libucrtd:_ctype.obj
 0001:0006a010       __isblank_l                1006b010 f   libucrtd:_ctype.obj
 0001:0006a030       __iscntrl_l                1006b030 f   libucrtd:_ctype.obj
 0001:0006a050       __iscsym_l                 1006b050 f   libucrtd:_ctype.obj
 0001:0006a090       __iscsymf_l                1006b090 f   libucrtd:_ctype.obj
 0001:0006a0d0       __isdigit_l                1006b0d0 f   libucrtd:_ctype.obj
 0001:0006a0f0       __isgraph_l                1006b0f0 f   libucrtd:_ctype.obj
 0001:0006a110       __islower_l                1006b110 f   libucrtd:_ctype.obj
 0001:0006a130       __isprint_l                1006b130 f   libucrtd:_ctype.obj
 0001:0006a150       __ispunct_l                1006b150 f   libucrtd:_ctype.obj
 0001:0006a170       __isspace_l                1006b170 f   libucrtd:_ctype.obj
 0001:0006a190       __isupper_l                1006b190 f   libucrtd:_ctype.obj
 0001:0006a1b0       __isxdigit_l               1006b1b0 f   libucrtd:_ctype.obj
 0001:0006a1d0       _isalnum                   1006b1d0 f   libucrtd:_ctype.obj
 0001:0006a1f0       _isalpha                   1006b1f0 f   libucrtd:_ctype.obj
 0001:0006a210       _isblank                   1006b210 f   libucrtd:_ctype.obj
 0001:0006a240       _iscntrl                   1006b240 f   libucrtd:_ctype.obj
 0001:0006a260       _isdigit                   1006b260 f   libucrtd:_ctype.obj
 0001:0006a280       _isgraph                   1006b280 f   libucrtd:_ctype.obj
 0001:0006a2a0       _islower                   1006b2a0 f   libucrtd:_ctype.obj
 0001:0006a2c0       _isprint                   1006b2c0 f   libucrtd:_ctype.obj
 0001:0006a2e0       _ispunct                   1006b2e0 f   libucrtd:_ctype.obj
 0001:0006a300       _isspace                   1006b300 f   libucrtd:_ctype.obj
 0001:0006a320       _isupper                   1006b320 f   libucrtd:_ctype.obj
 0001:0006a340       _isxdigit                  1006b340 f   libucrtd:_ctype.obj
 0001:0006a360       _wcscat                    1006b360 f   libucrtd:wcscat.obj
 0001:0006a3c0       _wcscpy                    1006b3c0 f   libucrtd:wcscpy.obj
 0001:0006aa50       ??$open_file@ABQBDABQBDABHPAU_iobuf@@@?$__crt_char_traits@D@@SAPAU_iobuf@@ABQBD0ABH$$QAPAU1@@Z 1006ba50 f i libucrtd:fopen.obj
 0001:0006aa80       ??$open_file@ABQB_WABQB_WABHPAU_iobuf@@@?$__crt_char_traits@_W@@SAPAU_iobuf@@ABQB_W0ABH$$QAPAU1@@Z 1006ba80 f i libucrtd:fopen.obj
 0001:0006aab0       ?unlock@__crt_stdio_stream@@QBEXXZ 1006bab0 f i libucrtd:fopen.obj
 0001:0006aad0       __fsopen                   1006bad0 f   libucrtd:fopen.obj
 0001:0006aaf0       __wfopen                   1006baf0 f   libucrtd:fopen.obj
 0001:0006ab10       __wfopen_s                 1006bb10 f   libucrtd:fopen.obj
 0001:0006ab30       __wfsopen                  1006bb30 f   libucrtd:fopen.obj
 0001:0006ab50       _fopen                     1006bb50 f   libucrtd:fopen.obj
 0001:0006ab70       _fopen_s                   1006bb70 f   libucrtd:fopen.obj
 0001:0006ab90       ?is_in_use@__crt_stdio_stream@@QBE_NXZ 1006bb90 f i libucrtd:fclose.obj
 0001:0006abd0       __fclose_nolock            1006bbd0 f   libucrtd:fclose.obj
 0001:0006ad10       _fclose                    1006bd10 f   libucrtd:fclose.obj
 0001:0006ae60       __fputc_nolock             1006be60 f   libucrtd:fputc.obj
 0001:0006aef0       __fputchar                 1006bef0 f   libucrtd:fputc.obj
 0001:0006af10       __putc_nolock              1006bf10 f   libucrtd:fputc.obj
 0001:0006af30       _fputc                     1006bf30 f   libucrtd:fputc.obj
 0001:0006b170       _putc                      1006c170 f   libucrtd:fputc.obj
 0001:0006b190       _putchar                   1006c190 f   libucrtd:fputc.obj
 0001:0006b200       __seh_filter_dll           1006c200 f   libucrtd:exception_filter.obj
 0001:0006b230       __seh_filter_exe           1006c230 f   libucrtd:exception_filter.obj
 0001:0006b440       ??$?B$$A6GXPAXK0@Z@__crt_fast_encoded_nullptr_t@@QBEP6GXPAXK0@ZXZ 1006c440 f i libucrtd:exit.obj
 0001:0006b520       ??$__crt_fast_decode_pointer@P6GXPAXK0@Z@@YAP6GXPAXK0@ZQ6GX0K0@Z@Z 1006c520 f i libucrtd:exit.obj
 0001:0006b550       ??$__crt_fast_encode_pointer@P6GXPAXK0@Z@@YAP6GXPAXK0@ZQ6GX0K0@Z@Z 1006c550 f i libucrtd:exit.obj
 0001:0006b580       ??$__crt_get_proc_address@P6GXI@Z@@YAP6GXI@ZQAUHINSTANCE__@@QBD@Z 1006c580 f i libucrtd:exit.obj
 0001:0006b610       ??0?$__crt_unique_handle_t@U__crt_hmodule_traits@@@@QAE@QAUHINSTANCE__@@@Z 1006c610 f i libucrtd:exit.obj
 0001:0006b630       ??1?$__crt_unique_handle_t@U__crt_hmodule_traits@@@@QAE@XZ 1006c630 f i libucrtd:exit.obj
 0001:0006b7f0       ?__acrt_select_exit_lock@@YA?AW4__acrt_lock_id@@XZ 1006c7f0 f i libucrtd:exit.obj
 0001:0006b800       ?__crt_fast_encode_pointer@@YA?AU__crt_fast_encoded_nullptr_t@@$$T@Z 1006c800 f i libucrtd:exit.obj
 0001:0006b830       ?close@?$__crt_unique_handle_t@U__crt_hmodule_traits@@@@QAEXXZ 1006c830 f i libucrtd:exit.obj
 0001:0006b870       ?close@__crt_hmodule_traits@@SA_NPAUHINSTANCE__@@@Z 1006c870 f i libucrtd:exit.obj
 0001:0006b960       ?get@?$__crt_unique_handle_t@U__crt_hmodule_traits@@@@QBEPAUHINSTANCE__@@XZ 1006c960 f i libucrtd:exit.obj
 0001:0006b980       ?get_address_of@?$__crt_unique_handle_t@U__crt_hmodule_traits@@@@QAEPAPAUHINSTANCE__@@XZ 1006c980 f i libucrtd:exit.obj
 0001:0006b990       ?get_invalid_value@__crt_hmodule_traits@@SAPAUHINSTANCE__@@XZ 1006c990 f i libucrtd:exit.obj
 0001:0006bb10       __Exit                     1006cb10 f   libucrtd:exit.obj
 0001:0006bb30       ___acrt_initialize_thread_local_exit_callback 1006cb30 f   libucrtd:exit.obj
 0001:0006bb40       __c_exit                   1006cb40 f   libucrtd:exit.obj
 0001:0006bb60       __cexit                    1006cb60 f   libucrtd:exit.obj
 0001:0006bb80       __exit                     1006cb80 f   libucrtd:exit.obj
 0001:0006bba0       __is_c_termination_complete 1006cba0 f   libucrtd:exit.obj
 0001:0006bbc0       __register_thread_local_exe_atexit_callback 1006cbc0 f   libucrtd:exit.obj
 0001:0006bc00       _exit                      1006cc00 f   libucrtd:exit.obj
 0001:0006bc20       _quick_exit                1006cc20 f   libucrtd:exit.obj
 0001:0006bc40       ??$?RE@__crt_internal_free_policy@@QBEXQBE@Z 1006cc40 f i libucrtd:argv_parsing.obj
 0001:0006bc60       ??$?RPAD@__crt_internal_free_policy@@QBEXQBQAD@Z 1006cc60 f i libucrtd:argv_parsing.obj
 0001:0006bc80       ??$?RPA_W@__crt_internal_free_policy@@QBEXQBQA_W@Z 1006cc80 f i libucrtd:argv_parsing.obj
 0001:0006c1e0       ??$get_module_file_name@$$TAAY0BAF@DH@?$__crt_char_traits@D@@SAK$$QA$$TAAY0BAF@D$$QAH@Z 1006d1e0 f i libucrtd:argv_parsing.obj
 0001:0006c200       ??$get_module_file_name@$$TAAY0BAF@_WH@?$__crt_char_traits@_W@@SAK$$QA$$TAAY0BAF@_W$$QAH@Z 1006d200 f i libucrtd:argv_parsing.obj
 0001:0006c920       ??$set_program_name@PAD@?$__crt_char_traits@D@@SAX$$QAPAD@Z 1006d920 f i libucrtd:argv_parsing.obj
 0001:0006c940       ??$set_program_name@PA_W@?$__crt_char_traits@_W@@SAX$$QAPA_W@Z 1006d940 f i libucrtd:argv_parsing.obj
 0001:0006c9a0       ??0?$__crt_unique_heap_ptr@EU__crt_internal_free_policy@@@@QAE@QAE@Z 1006d9a0 f i libucrtd:argv_parsing.obj
 0001:0006c9c0       ??0?$__crt_unique_heap_ptr@PADU__crt_internal_free_policy@@@@QAE@QAPAD@Z 1006d9c0 f i libucrtd:argv_parsing.obj
 0001:0006c9e0       ??0?$__crt_unique_heap_ptr@PA_WU__crt_internal_free_policy@@@@QAE@QAPA_W@Z 1006d9e0 f i libucrtd:argv_parsing.obj
 0001:0006ca00       ??1?$__crt_unique_heap_ptr@EU__crt_internal_free_policy@@@@QAE@XZ 1006da00 f i libucrtd:argv_parsing.obj
 0001:0006ca20       ??1?$__crt_unique_heap_ptr@PADU__crt_internal_free_policy@@@@QAE@XZ 1006da20 f i libucrtd:argv_parsing.obj
 0001:0006ca40       ??1?$__crt_unique_heap_ptr@PA_WU__crt_internal_free_policy@@@@QAE@XZ 1006da40 f i libucrtd:argv_parsing.obj
 0001:0006ca60       ??B?$__crt_unique_heap_ptr@EU__crt_internal_free_policy@@@@QBE_NXZ 1006da60 f i libucrtd:argv_parsing.obj
 0001:0006cb20       ?detach@?$__crt_unique_heap_ptr@EU__crt_internal_free_policy@@@@QAEPAEXZ 1006db20 f i libucrtd:argv_parsing.obj
 0001:0006cb50       ?detach@?$__crt_unique_heap_ptr@PADU__crt_internal_free_policy@@@@QAEPAPADXZ 1006db50 f i libucrtd:argv_parsing.obj
 0001:0006cb80       ?detach@?$__crt_unique_heap_ptr@PA_WU__crt_internal_free_policy@@@@QAEPAPA_WXZ 1006db80 f i libucrtd:argv_parsing.obj
 0001:0006cc10       ?get@?$__crt_unique_heap_ptr@EU__crt_internal_free_policy@@@@QBEPAEXZ 1006dc10 f i libucrtd:argv_parsing.obj
 0001:0006cc30       ?get@?$__crt_unique_heap_ptr@PADU__crt_internal_free_policy@@@@QBEPAPADXZ 1006dc30 f i libucrtd:argv_parsing.obj
 0001:0006cc50       ?get@?$__crt_unique_heap_ptr@PA_WU__crt_internal_free_policy@@@@QBEPAPA_WXZ 1006dc50 f i libucrtd:argv_parsing.obj
 0001:0006cc70       ?get_address_of@?$__crt_unique_heap_ptr@PADU__crt_internal_free_policy@@@@QAEPAPAPADXZ 1006dc70 f i libucrtd:argv_parsing.obj
 0001:0006cc80       ?get_address_of@?$__crt_unique_heap_ptr@PA_WU__crt_internal_free_policy@@@@QAEPAPAPA_WXZ 1006dc80 f i libucrtd:argv_parsing.obj
 0001:0006ccd0       ?is_valid@?$__crt_unique_heap_ptr@EU__crt_internal_free_policy@@@@QBE_NXZ 1006dcd0 f i libucrtd:argv_parsing.obj
 0001:0006cd00       ?release@?$__crt_unique_heap_ptr@EU__crt_internal_free_policy@@@@QAEXXZ 1006dd00 f i libucrtd:argv_parsing.obj
 0001:0006cd30       ?release@?$__crt_unique_heap_ptr@PADU__crt_internal_free_policy@@@@QAEXXZ 1006dd30 f i libucrtd:argv_parsing.obj
 0001:0006cd60       ?release@?$__crt_unique_heap_ptr@PA_WU__crt_internal_free_policy@@@@QAEXXZ 1006dd60 f i libucrtd:argv_parsing.obj
 0001:0006cdd0       ___acrt_allocate_buffer_for_argv 1006ddd0 f   libucrtd:argv_parsing.obj
 0001:0006ce90       __configure_narrow_argv    1006de90 f   libucrtd:argv_parsing.obj
 0001:0006ceb0       __configure_wide_argv      1006deb0 f   libucrtd:argv_parsing.obj
 0001:0006ced0       __set_pgmptr               1006ded0 f i libucrtd:argv_parsing.obj
 0001:0006cee0       __set_wpgmptr              1006dee0 f i libucrtd:argv_parsing.obj
 0001:0006ceef       ??$?R_W@__crt_internal_free_policy@@QBEXQB_W@Z 1006deef f i libucrtd:environment_initialization.obj
 0001:0006d358       ??$get_environment_from_os@$$V@?$__crt_char_traits@D@@SAPADXZ 1006e358 f i libucrtd:environment_initialization.obj
 0001:0006d35d       ??$get_environment_from_os@$$V@?$__crt_char_traits@_W@@SAPA_WXZ 1006e35d f i libucrtd:environment_initialization.obj
 0001:0006d486       ??$set_variable_in_environment_nolock@PADH@?$__crt_char_traits@D@@SAH$$QAPAD$$QAH@Z 1006e486 f i libucrtd:environment_initialization.obj
 0001:0006d49e       ??$set_variable_in_environment_nolock@PA_WH@?$__crt_char_traits@_W@@SAH$$QAPA_W$$QAH@Z 1006e49e f i libucrtd:environment_initialization.obj
 0001:0006d4b6       ??$tcscpy_s@PADABIAAPAD@?$__crt_char_traits@D@@SAH$$QAPADABIAAPAD@Z 1006e4b6 f i libucrtd:environment_initialization.obj
 0001:0006d4d4       ??$tcscpy_s@PA_WABIAAPA_W@?$__crt_char_traits@_W@@SAH$$QAPA_WABIAAPA_W@Z 1006e4d4 f i libucrtd:environment_initialization.obj
 0001:0006d4f2       ??$tcslen@AAPAD@?$__crt_char_traits@D@@SAIAAPAD@Z 1006e4f2 f i libucrtd:environment_initialization.obj
 0001:0006d50a       ??$tcslen@AAPA_W@?$__crt_char_traits@_W@@SAIAAPA_W@Z 1006e50a f i libucrtd:environment_initialization.obj
 0001:0006d528       ??$uninitialize@A6AXAAPAPAD@Z@?$dual_state_global@PAPAD@__crt_state_management@@QAEXA6AXAAPAPAD@Z@Z 1006e528 f i libucrtd:environment_initialization.obj
 0001:0006d551       ??$uninitialize@A6AXAAPAPA_W@Z@?$dual_state_global@PAPA_W@__crt_state_management@@QAEXA6AXAAPAPA_W@Z@Z 1006e551 f i libucrtd:environment_initialization.obj
 0001:0006d5b0       ??0?$__crt_unique_heap_ptr@_WU__crt_internal_free_policy@@@@QAE@QA_W@Z 1006e5b0 f i libucrtd:environment_initialization.obj
 0001:0006d5c0       ??1?$__crt_unique_heap_ptr@_WU__crt_internal_free_policy@@@@QAE@XZ 1006e5c0 f i libucrtd:environment_initialization.obj
 0001:0006d5d5       ??B?$__crt_unique_heap_ptr@PADU__crt_internal_free_policy@@@@QBE_NXZ 1006e5d5 f i libucrtd:environment_initialization.obj
 0001:0006d5dc       ??B?$__crt_unique_heap_ptr@PA_WU__crt_internal_free_policy@@@@QBE_NXZ 1006e5dc f i libucrtd:environment_initialization.obj
 0001:0006d5e3       ??B?$__crt_unique_heap_ptr@_WU__crt_internal_free_policy@@@@QBE_NXZ 1006e5e3 f i libucrtd:environment_initialization.obj
 0001:0006d5ea       ?__crt_compute_required_transform_buffer_count@@YAIIQBD@Z 1006e5ea f i libucrtd:environment_initialization.obj
 0001:0006d606       ?__crt_compute_required_transform_buffer_count@@YAIIQB_W@Z 1006e606 f i libucrtd:environment_initialization.obj
 0001:0006d624       ?__crt_transform_string@@YAIIQBDQA_WI@Z 1006e624 f i libucrtd:environment_initialization.obj
 0001:0006d643       ?__crt_transform_string@@YAIIQB_WQADI@Z 1006e643 f i libucrtd:environment_initialization.obj
 0001:0006d665       ?detach@?$__crt_unique_heap_ptr@DU__crt_internal_free_policy@@@@QAEPADXZ 1006e665 f i libucrtd:environment_initialization.obj
 0001:0006d66b       ?detach@?$__crt_unique_heap_ptr@_WU__crt_internal_free_policy@@@@QAEPA_WXZ 1006e66b f i libucrtd:environment_initialization.obj
 0001:0006d671       ?get@?$__crt_unique_heap_ptr@_WU__crt_internal_free_policy@@@@QBEPA_WXZ 1006e671 f i libucrtd:environment_initialization.obj
 0001:0006d698       ?initialize@?$dual_state_global@PAPAD@__crt_state_management@@QAEXQAPAD@Z 1006e698 f i libucrtd:environment_initialization.obj
 0001:0006d6be       ?initialize@?$dual_state_global@PAPA_W@__crt_state_management@@QAEXQAPA_W@Z 1006e6be f i libucrtd:environment_initialization.obj
 0001:0006d6e4       ?is_valid@?$__crt_unique_heap_ptr@PADU__crt_internal_free_policy@@@@QBE_NXZ 1006e6e4 f i libucrtd:environment_initialization.obj
 0001:0006d6eb       ?is_valid@?$__crt_unique_heap_ptr@PA_WU__crt_internal_free_policy@@@@QBE_NXZ 1006e6eb f i libucrtd:environment_initialization.obj
 0001:0006d6f2       ?is_valid@?$__crt_unique_heap_ptr@_WU__crt_internal_free_policy@@@@QBE_NXZ 1006e6f2 f i libucrtd:environment_initialization.obj
 0001:0006d701       ?release@?$__crt_unique_heap_ptr@_WU__crt_internal_free_policy@@@@QAEXXZ 1006e701 f i libucrtd:environment_initialization.obj
 0001:0006d716       ?value@?$dual_state_global@PAPAD@__crt_state_management@@QAEAAPAPADXZ 1006e716 f i libucrtd:environment_initialization.obj
 0001:0006d719       ?value@?$dual_state_global@PAPA_W@__crt_state_management@@QAEAAPAPA_WXZ 1006e719 f i libucrtd:environment_initialization.obj
 0001:0006d71c       ___dcrt_get_or_create_narrow_environment_nolock 1006e71c f   libucrtd:environment_initialization.obj
 0001:0006d721       ___dcrt_get_or_create_wide_environment_nolock 1006e721 f   libucrtd:environment_initialization.obj
 0001:0006d726       ___dcrt_uninitialize_environments_nolock 1006e726 f   libucrtd:environment_initialization.obj
 0001:0006d75d       ___p__environ              1006e75d f   libucrtd:environment_initialization.obj
 0001:0006d763       ___p__wenviron             1006e763 f   libucrtd:environment_initialization.obj
 0001:0006d769       __get_initial_narrow_environment 1006e769 f   libucrtd:environment_initialization.obj
 0001:0006d77d       __get_initial_wide_environment 1006e77d f   libucrtd:environment_initialization.obj
 0001:0006d791       __initialize_narrow_environment 1006e791 f   libucrtd:environment_initialization.obj
 0001:0006d796       __initialize_wide_environment 1006e796 f   libucrtd:environment_initialization.obj
 0001:0006d7a0       ??$?B$$A6AXXZ@__crt_fast_encoded_nullptr_t@@QBEP6AXXZXZ 1006e7a0 f i libucrtd:onexit.obj
 0001:0006d7c0       ??$?BP6AXXZ@__crt_fast_encoded_nullptr_t@@QBEPAP6AXXZXZ 1006e7c0 f i libucrtd:onexit.obj
 0001:0006d7e0       ??$?RP6AXXZ@__crt_internal_free_policy@@QBEXQBQ6AXXZ@Z 1006e7e0 f i libucrtd:onexit.obj
 0001:0006d9a0       ??$__crt_fast_decode_pointer@P6AXXZ@@YAP6AXXZQ6AXXZ@Z 1006e9a0 f i libucrtd:onexit.obj
 0001:0006d9d0       ??$__crt_fast_decode_pointer@PAP6AXXZ@@YAPAP6AXXZQAP6AXXZ@Z 1006e9d0 f i libucrtd:onexit.obj
 0001:0006da00       ??$__crt_fast_encode_pointer@P6AHXZ@@YAP6AHXZQ6AHXZ@Z 1006ea00 f i libucrtd:onexit.obj
 0001:0006da30       ??$__crt_fast_encode_pointer@P6AXXZ@@YAP6AXXZQ6AXXZ@Z 1006ea30 f i libucrtd:onexit.obj
 0001:0006da60       ??$__crt_fast_encode_pointer@PAP6AXXZ@@YAPAP6AXXZQAP6AXXZ@Z 1006ea60 f i libucrtd:onexit.obj
 0001:0006db60       ??0?$__crt_unique_heap_ptr@P6AXXZU__crt_internal_free_policy@@@@QAE@QAP6AXXZ@Z 1006eb60 f i libucrtd:onexit.obj
 0001:0006db80       ??1?$__crt_unique_heap_ptr@P6AXXZU__crt_internal_free_policy@@@@QAE@XZ 1006eb80 f i libucrtd:onexit.obj
 0001:0006dba0       ??1scoped_global_state_reset@__crt_state_management@@QAE@XZ 1006eba0 f i libucrtd:onexit.obj
 0001:0006e010       ?detach@?$__crt_unique_heap_ptr@P6AXXZU__crt_internal_free_policy@@@@QAEPAP6AXXZXZ 1006f010 f i libucrtd:onexit.obj
 0001:0006e040       ?release@?$__crt_unique_heap_ptr@P6AXXZU__crt_internal_free_policy@@@@QAEXXZ 1006f040 f i libucrtd:onexit.obj
 0001:0006e070       __crt_at_quick_exit        1006f070 f   libucrtd:onexit.obj
 0001:0006e090       __crt_atexit               1006f090 f   libucrtd:onexit.obj
 0001:0006e0b0       __execute_onexit_table     1006f0b0 f   libucrtd:onexit.obj
 0001:0006e0e0       __initialize_onexit_table  1006f0e0 f   libucrtd:onexit.obj
 0001:0006e140       __register_onexit_function 1006f140 f   libucrtd:onexit.obj
 0001:0006e380       ??$?BX@__crt_fast_encoded_nullptr_t@@QBEPAXXZ 1006f380 f i libucrtd:initialization.obj
 0001:0006e3a0       ??$__crt_fast_encode_pointer@PAX@@YAPAXQAX@Z 1006f3a0 f i libucrtd:initialization.obj
 0001:0006e460       ?initialize@?$dual_state_global@PAU__crt_locale_data@@@__crt_state_management@@QAEXQAU__crt_locale_data@@@Z 1006f460 f i libucrtd:initialization.obj
 0001:0006e4a0       ___acrt_initialize         1006f4a0 f   libucrtd:initialization.obj
 0001:0006e4c0       ___acrt_thread_attach      1006f4c0 f   libucrtd:initialization.obj
 0001:0006e4e0       ___acrt_thread_detach      1006f4e0 f   libucrtd:initialization.obj
 0001:0006e4f0       ___acrt_uninitialize       1006f4f0 f   libucrtd:initialization.obj
 0001:0006e510       ___acrt_uninitialize_critical 1006f510 f   libucrtd:initialization.obj
 0001:0006fd80       __CrtCheckMemory           10070d80 f   libucrtd:debug_heap.obj
 0001:0006ff10       __CrtDoForAllClientObjects 10070f10 f   libucrtd:debug_heap.obj
 0001:00070060       __CrtDumpMemoryLeaks       10071060 f   libucrtd:debug_heap.obj
 0001:00070100       __CrtGetAllocHook          10071100 f   libucrtd:debug_heap.obj
 0001:00070110       __CrtGetDumpClient         10071110 f   libucrtd:debug_heap.obj
 0001:00070120       __CrtIsMemoryBlock         10071120 f   libucrtd:debug_heap.obj
 0001:00070270       __CrtIsValidHeapPointer    10071270 f   libucrtd:debug_heap.obj
 0001:000702a0       __CrtIsValidPointer        100712a0 f   libucrtd:debug_heap.obj
 0001:000702d0       __CrtMemCheckpoint         100712d0 f   libucrtd:debug_heap.obj
 0001:00070500       __CrtMemDifference         10071500 f   libucrtd:debug_heap.obj
 0001:00070770       __CrtMemDumpAllObjectsSince 10071770 f   libucrtd:debug_heap.obj
 0001:00070810       __CrtMemDumpStatistics     10071810 f   libucrtd:debug_heap.obj
 0001:00070940       __CrtReportBlockType       10071940 f   libucrtd:debug_heap.obj
 0001:00070970       __CrtSetAllocHook          10071970 f   libucrtd:debug_heap.obj
 0001:00070990       __CrtSetBreakAlloc         10071990 f   libucrtd:debug_heap.obj
 0001:000709b0       __CrtSetDbgBlockType       100719b0 f   libucrtd:debug_heap.obj
 0001:00070a90       __CrtSetDbgFlag            10071a90 f   libucrtd:debug_heap.obj
 0001:00070c00       __CrtSetDumpClient         10071c00 f   libucrtd:debug_heap.obj
 0001:00070c20       ___acrt_get_locale_data_prefix 10071c20 f i libucrtd:debug_heap.obj
 0001:00070c40       ___p__crtBreakAlloc        10071c40 f   libucrtd:debug_heap.obj
 0001:00070c50       ___p__crtDbgFlag           10071c50 f   libucrtd:debug_heap.obj
 0001:00070c60       __aligned_free_dbg         10071c60 f   libucrtd:debug_heap.obj
 0001:00070d10       __aligned_malloc_dbg       10071d10 f   libucrtd:debug_heap.obj
 0001:00070d40       __aligned_msize_dbg        10071d40 f   libucrtd:debug_heap.obj
 0001:00070e70       __aligned_offset_malloc_dbg 10071e70 f   libucrtd:debug_heap.obj
 0001:00071050       __aligned_offset_realloc_dbg 10072050 f   libucrtd:debug_heap.obj
 0001:00071360       __aligned_offset_recalloc_dbg 10072360 f   libucrtd:debug_heap.obj
 0001:00071420       __aligned_realloc_dbg      10072420 f   libucrtd:debug_heap.obj
 0001:00071450       __aligned_recalloc_dbg     10072450 f   libucrtd:debug_heap.obj
 0001:00071480       __calloc_dbg               10072480 f   libucrtd:debug_heap.obj
 0001:000714f0       __chvalidchk_l             100724f0 f i libucrtd:debug_heap.obj
 0001:00071510       __expand_dbg               10072510 f   libucrtd:debug_heap.obj
 0001:00071640       __free_dbg                 10072640 f   libucrtd:debug_heap.obj
 0001:000716f0       __ischartype_l             100726f0 f i libucrtd:debug_heap.obj
 0001:00071770       __malloc_dbg               10072770 f   libucrtd:debug_heap.obj
 0001:00071790       __msize_dbg                10072790 f   libucrtd:debug_heap.obj
 0001:00071920       __realloc_dbg              10072920 f   libucrtd:debug_heap.obj
 0001:000719c0       __recalloc_dbg             100729c0 f   libucrtd:debug_heap.obj
 0001:00071a70       __initterm                 10072a70 f   libucrtd:initterm.obj
 0001:00071ac0       __initterm_e               10072ac0 f   libucrtd:initterm.obj
 0001:00071e30       _strcpy_s                  10072e30 f   libucrtd:strcpy_s.obj
 0001:00072260       _strcat_s                  10073260 f   libucrtd:strcat_s.obj
 0001:00072280       ??$?B$$A6AHI@Z@__crt_fast_encoded_nullptr_t@@QBEP6AHI@ZXZ 10073280 f i libucrtd:new_handler.obj
 0001:000722a0       ??$__crt_fast_decode_pointer@P6AHI@Z@@YAP6AHI@ZQ6AHI@Z@Z 100732a0 f i libucrtd:new_handler.obj
 0001:000722d0       ??$__crt_fast_encode_pointer@P6AHI@Z@@YAP6AHI@ZQ6AHI@Z@Z 100732d0 f i libucrtd:new_handler.obj
 0001:00072300       ?_set_new_handler@@YAP6AHI@ZH@Z 10073300 f   libucrtd:new_handler.obj
 0001:00072360       ?initialize@?$dual_state_global@P6AHI@Z@__crt_state_management@@QAEXQ6AHI@Z@Z 10073360 f i libucrtd:new_handler.obj
 0001:000723a0       ?value@?$dual_state_global@P6AHI@Z@__crt_state_management@@QAEAAP6AHI@ZXZ 100733a0 f i libucrtd:new_handler.obj
 0001:000723c0       ___acrt_initialize_new_handler 100733c0 f   libucrtd:new_handler.obj
 0001:000723e0       __callnewh                 100733e0 f   libucrtd:new_handler.obj
 0001:00072420       __query_new_handler        10073420 f   libucrtd:new_handler.obj
 0001:000724b0       __set_new_handler          100734b0 f   libucrtd:new_handler.obj
 0001:00072590       __get_terminate            10073590 f   libucrtd:terminate.obj
 0001:000725b0       _set_terminate             100735b0 f   libucrtd:terminate.obj
 0001:000725e0       _terminate                 100735e0 f   libucrtd:terminate.obj
 0001:00072fb0       __makepath                 10073fb0 f   libucrtd:makepath.obj
 0001:00072fe0       __makepath_s               10073fe0 f   libucrtd:makepath.obj
 0001:00073010       __wmakepath                10074010 f   libucrtd:makepath.obj
 0001:00073040       __wmakepath_s              10074040 f   libucrtd:makepath.obj
 0001:00074990       ??$tcsncpy_s@AAPADIAAPBDABI@?$__crt_char_traits@D@@SAHAAPAD$$QAIAAPBDABI@Z 10075990 f i libucrtd:splitpath.obj
 0001:000749c0       ??$tcsncpy_s@AAPADIAAPBDH@?$__crt_char_traits@D@@SAHAAPAD$$QAIAAPBD$$QAH@Z 100759c0 f i libucrtd:splitpath.obj
 0001:000749f0       ??$tcsncpy_s@AAPA_WIAAPB_WABI@?$__crt_char_traits@_W@@SAHAAPA_W$$QAIAAPB_WABI@Z 100759f0 f i libucrtd:splitpath.obj
 0001:00074a20       ??$tcsncpy_s@AAPA_WIAAPB_WH@?$__crt_char_traits@_W@@SAHAAPA_W$$QAIAAPB_W$$QAH@Z 10075a20 f i libucrtd:splitpath.obj
 0001:00074c60       __splitpath                10075c60 f   libucrtd:splitpath.obj
 0001:00074c90       __splitpath_s              10075c90 f   libucrtd:splitpath.obj
 0001:00074ce0       __wsplitpath               10075ce0 f   libucrtd:splitpath.obj
 0001:00074d10       __wsplitpath_s             10075d10 f   libucrtd:splitpath.obj
 0001:00074d60       __set_abort_behavior       10075d60 f   libucrtd:abort.obj
 0001:00074d90       _abort                     10075d90 f   libucrtd:abort.obj
 0001:00074e00       _strcmp                    10075e00 f   libucrtd:strcmp.obj
 0001:00074e90       _strlen                    10075e90 f   libucrtd:strlen.obj
 0001:00074f20       ??$is_overflow_condition@K@__crt_strtox@@YA_NIK@Z 10075f20 f i libucrtd:atox.obj
 0001:00074f80       ??$is_overflow_condition@_K@__crt_strtox@@YA_NI_K@Z 10075f80 f i libucrtd:atox.obj
 0001:00075010       ??$make_c_string_character_source@D$$T@__crt_strtox@@YA?AV?$c_string_character_source@D@0@QBD$$T@Z 10076010 f i libucrtd:atox.obj
 0001:00075030       ??$make_c_string_character_source@_W$$T@__crt_strtox@@YA?AV?$c_string_character_source@_W@0@QB_W$$T@Z 10076030 f i libucrtd:atox.obj
 0001:00075050       ??$parse_integer@KV?$c_string_character_source@D@__crt_strtox@@@__crt_strtox@@YAKQAU__crt_locale_pointers@@V?$c_string_character_source@D@0@H_N@Z 10076050 f i libucrtd:atox.obj
 0001:000753c0       ??$parse_integer@KV?$c_string_character_source@_W@__crt_strtox@@@__crt_strtox@@YAKQAU__crt_locale_pointers@@V?$c_string_character_source@_W@0@H_N@Z 100763c0 f i libucrtd:atox.obj
 0001:00075730       ??$parse_integer@_KV?$c_string_character_source@D@__crt_strtox@@@__crt_strtox@@YA_KQAU__crt_locale_pointers@@V?$c_string_character_source@D@0@H_N@Z 10076730 f i libucrtd:atox.obj
 0001:00075b50       ??$parse_integer@_KV?$c_string_character_source@_W@__crt_strtox@@@__crt_strtox@@YA_KQAU__crt_locale_pointers@@V?$c_string_character_source@_W@0@H_N@Z 10076b50 f i libucrtd:atox.obj
 0001:00075f80       ??$parse_integer_from_string@JD$$T@__crt_strtox@@YAJQBD$$THQAU__crt_locale_pointers@@@Z 10076f80 f i libucrtd:atox.obj
 0001:00075fc0       ??$parse_integer_from_string@J_W$$T@__crt_strtox@@YAJQB_W$$THQAU__crt_locale_pointers@@@Z 10076fc0 f i libucrtd:atox.obj
 0001:00076000       ??$parse_integer_from_string@_JD$$T@__crt_strtox@@YA_JQBD$$THQAU__crt_locale_pointers@@@Z 10077000 f i libucrtd:atox.obj
 0001:00076040       ??$parse_integer_from_string@_J_W$$T@__crt_strtox@@YA_JQB_W$$THQAU__crt_locale_pointers@@@Z 10077040 f i libucrtd:atox.obj
 0001:00076080       ??0?$c_string_character_source@D@__crt_strtox@@QAE@QBDQAPBD@Z 10077080 f i libucrtd:atox.obj
 0001:000760c0       ??0?$c_string_character_source@_W@__crt_strtox@@QAE@QB_WQAPB_W@Z 100770c0 f i libucrtd:atox.obj
 0001:00076100       ??1?$c_string_character_source@D@__crt_strtox@@QAE@XZ 10077100 f i libucrtd:atox.obj
 0001:00076130       ??1?$c_string_character_source@_W@__crt_strtox@@QAE@XZ 10077130 f i libucrtd:atox.obj
 0001:00076160       ?get@?$c_string_character_source@D@__crt_strtox@@QAEDXZ 10077160 f i libucrtd:atox.obj
 0001:00076190       ?get@?$c_string_character_source@_W@__crt_strtox@@QAE_WXZ 10077190 f i libucrtd:atox.obj
 0001:000761c0       ?is_space@__crt_strtox@@YA_NDQAU__crt_locale_pointers@@@Z 100771c0 f i libucrtd:atox.obj
 0001:00076200       ?is_space@__crt_strtox@@YA_N_WPAU__crt_locale_pointers@@@Z 10077200 f i libucrtd:atox.obj
 0001:00076230       ?maximum_signed_value@__crt_strtox@@YAJK@Z 10077230 f i libucrtd:atox.obj
 0001:00076240       ?maximum_signed_value@__crt_strtox@@YA_J_K@Z 10077240 f i libucrtd:atox.obj
 0001:00076250       ?minimum_signed_value@__crt_strtox@@YAJK@Z 10077250 f i libucrtd:atox.obj
 0001:00076260       ?minimum_signed_value@__crt_strtox@@YA_J_K@Z 10077260 f i libucrtd:atox.obj
 0001:00076270       ?parse_digit@__crt_strtox@@YAID@Z 10077270 f i libucrtd:atox.obj
 0001:000762d0       ?parse_digit@__crt_strtox@@YAI_W@Z 100772d0 f i libucrtd:atox.obj
 0001:00076320       ?restore_state@?$c_string_character_source@D@__crt_strtox@@QAE_NQBD@Z 10077320 f i libucrtd:atox.obj
 0001:00076340       ?restore_state@?$c_string_character_source@_W@__crt_strtox@@QAE_NQB_W@Z 10077340 f i libucrtd:atox.obj
 0001:00076360       ?save_state@?$c_string_character_source@D@__crt_strtox@@QBEPBDXZ 10077360 f i libucrtd:atox.obj
 0001:00076380       ?save_state@?$c_string_character_source@_W@__crt_strtox@@QBEPB_WXZ 10077380 f i libucrtd:atox.obj
 0001:000763a0       ?unget@?$c_string_character_source@D@__crt_strtox@@QAEXD@Z 100773a0 f i libucrtd:atox.obj
 0001:00076450       ?unget@?$c_string_character_source@_W@__crt_strtox@@QAEX_W@Z 10077450 f i libucrtd:atox.obj
 0001:00076500       ?validate@?$c_string_character_source@D@__crt_strtox@@QBE_NXZ 10077500 f i libucrtd:atox.obj
 0001:00076590       ?validate@?$c_string_character_source@_W@__crt_strtox@@QBE_NXZ 10077590 f i libucrtd:atox.obj
 0001:00076620       ?wide_character_to_digit@__crt_strtox@@YAH_W@Z 10077620 f i libucrtd:atox.obj
 0001:00076950       ___ascii_iswalpha          10077950 f i libucrtd:atox.obj
 0001:00076990       ___ascii_toupper           10077990 f i libucrtd:atox.obj
 0001:000769b0       ___ascii_towupper          100779b0 f i libucrtd:atox.obj
 0001:000769d0       __atoi64                   100779d0 f   libucrtd:atox.obj
 0001:000769f0       __atoi64_l                 100779f0 f   libucrtd:atox.obj
 0001:00076a10       __atoi_l                   10077a10 f   libucrtd:atox.obj
 0001:00076a30       __atol_l                   10077a30 f   libucrtd:atox.obj
 0001:00076a50       __atoll_l                  10077a50 f   libucrtd:atox.obj
 0001:00076a70       __wtoi                     10077a70 f   libucrtd:atox.obj
 0001:00076a90       __wtoi64                   10077a90 f   libucrtd:atox.obj
 0001:00076ab0       __wtoi64_l                 10077ab0 f   libucrtd:atox.obj
 0001:00076ad0       __wtoi_l                   10077ad0 f   libucrtd:atox.obj
 0001:00076af0       __wtol                     10077af0 f   libucrtd:atox.obj
 0001:00076b10       __wtol_l                   10077b10 f   libucrtd:atox.obj
 0001:00076b30       __wtoll                    10077b30 f   libucrtd:atox.obj
 0001:00076b50       __wtoll_l                  10077b50 f   libucrtd:atox.obj
 0001:00076b70       _atoi                      10077b70 f   libucrtd:atox.obj
 0001:00076b90       _atol                      10077b90 f   libucrtd:atox.obj
 0001:00076bb0       _atoll                     10077bb0 f   libucrtd:atox.obj
 0001:00076bd0       _strncmp                   10077bd0 f   libucrtd:strncmp.obj
 0001:00076c50       _wcsncmp                   10077c50 f   libucrtd:wcsncmp.obj
 0001:00076cb0       __CrtGetDebugFillThreshold 10077cb0 f   libucrtd:debug_fill_threshold.obj
 0001:00076cc0       __CrtSetDebugFillThreshold 10077cc0 f   libucrtd:debug_fill_threshold.obj
 0001:00076ce0       ??$make_c_string_character_source@DPAPAD@__crt_strtox@@YA?AV?$c_string_character_source@D@0@QBDQAPAD@Z 10077ce0 f i libucrtd:strtox.obj
 0001:00076d00       ??$make_c_string_character_source@_WPAPA_W@__crt_strtox@@YA?AV?$c_string_character_source@_W@0@QB_WQAPA_W@Z 10077d00 f i libucrtd:strtox.obj
 0001:00076d20       ??$parse_integer_from_string@JDPAPAD@__crt_strtox@@YAJQBDQAPADHQAU__crt_locale_pointers@@@Z 10077d20 f i libucrtd:strtox.obj
 0001:00076d60       ??$parse_integer_from_string@J_WPAPA_W@__crt_strtox@@YAJQB_WQAPA_WHQAU__crt_locale_pointers@@@Z 10077d60 f i libucrtd:strtox.obj
 0001:00076da0       ??$parse_integer_from_string@KDPAPAD@__crt_strtox@@YAKQBDQAPADHQAU__crt_locale_pointers@@@Z 10077da0 f i libucrtd:strtox.obj
 0001:00076de0       ??$parse_integer_from_string@K_WPAPA_W@__crt_strtox@@YAKQB_WQAPA_WHQAU__crt_locale_pointers@@@Z 10077de0 f i libucrtd:strtox.obj
 0001:00076e20       ??$parse_integer_from_string@_JDPAPAD@__crt_strtox@@YA_JQBDQAPADHQAU__crt_locale_pointers@@@Z 10077e20 f i libucrtd:strtox.obj
 0001:00076e60       ??$parse_integer_from_string@_J_WPAPA_W@__crt_strtox@@YA_JQB_WQAPA_WHQAU__crt_locale_pointers@@@Z 10077e60 f i libucrtd:strtox.obj
 0001:00076ea0       ??$parse_integer_from_string@_KDPAPAD@__crt_strtox@@YA_KQBDQAPADHQAU__crt_locale_pointers@@@Z 10077ea0 f i libucrtd:strtox.obj
 0001:00076ee0       ??$parse_integer_from_string@_K_WPAPA_W@__crt_strtox@@YA_KQB_WQAPA_WHQAU__crt_locale_pointers@@@Z 10077ee0 f i libucrtd:strtox.obj
 0001:00076f20       __strtoi64                 10077f20 f   libucrtd:strtox.obj
 0001:00076f40       __strtoi64_l               10077f40 f   libucrtd:strtox.obj
 0001:00076f60       __strtoimax_l              10077f60 f   libucrtd:strtox.obj
 0001:00076f80       __strtol_l                 10077f80 f   libucrtd:strtox.obj
 0001:00076fa0       __strtoll_l                10077fa0 f   libucrtd:strtox.obj
 0001:00076fc0       __strtoui64                10077fc0 f   libucrtd:strtox.obj
 0001:00076fe0       __strtoui64_l              10077fe0 f   libucrtd:strtox.obj
 0001:00077000       __strtoul_l                10078000 f   libucrtd:strtox.obj
 0001:00077020       __strtoull_l               10078020 f   libucrtd:strtox.obj
 0001:00077040       __strtoumax_l              10078040 f   libucrtd:strtox.obj
 0001:00077060       __wcstoi64                 10078060 f   libucrtd:strtox.obj
 0001:00077080       __wcstoi64_l               10078080 f   libucrtd:strtox.obj
 0001:000770a0       __wcstoimax_l              100780a0 f   libucrtd:strtox.obj
 0001:000770c0       __wcstol_l                 100780c0 f   libucrtd:strtox.obj
 0001:000770e0       __wcstoll_l                100780e0 f   libucrtd:strtox.obj
 0001:00077100       __wcstoui64                10078100 f   libucrtd:strtox.obj
 0001:00077120       __wcstoui64_l              10078120 f   libucrtd:strtox.obj
 0001:00077140       __wcstoul_l                10078140 f   libucrtd:strtox.obj
 0001:00077160       __wcstoull_l               10078160 f   libucrtd:strtox.obj
 0001:00077180       __wcstoumax_l              10078180 f   libucrtd:strtox.obj
 0001:000771a0       _strtoimax                 100781a0 f   libucrtd:strtox.obj
 0001:000771c0       _strtol                    100781c0 f   libucrtd:strtox.obj
 0001:000771e0       _strtoll                   100781e0 f   libucrtd:strtox.obj
 0001:00077200       _strtoul                   10078200 f   libucrtd:strtox.obj
 0001:00077220       _strtoull                  10078220 f   libucrtd:strtox.obj
 0001:00077240       _strtoumax                 10078240 f   libucrtd:strtox.obj
 0001:00077260       _wcstoimax                 10078260 f   libucrtd:strtox.obj
 0001:00077280       _wcstol                    10078280 f   libucrtd:strtox.obj
 0001:000772a0       _wcstoll                   100782a0 f   libucrtd:strtox.obj
 0001:000772c0       _wcstoul                   100782c0 f   libucrtd:strtox.obj
 0001:000772e0       _wcstoull                  100782e0 f   libucrtd:strtox.obj
 0001:00077300       _wcstoumax                 10078300 f   libucrtd:strtox.obj
 0001:00077320       __mbtowc_l                 10078320 f   libucrtd:mbtowc.obj
 0001:00077640       _mbtowc                    10078640 f   libucrtd:mbtowc.obj
 0001:00077660       __wctomb_l                 10078660 f   libucrtd:wctomb.obj
 0001:000776e0       __wctomb_s_l               100786e0 f   libucrtd:wctomb.obj
 0001:00077aa0       _wctomb                    10078aa0 f   libucrtd:wctomb.obj
 0001:00077af0       _wctomb_s                  10078af0 f   libucrtd:wctomb.obj
 0001:00077b20       ??$?RU__acrt_ptd@@@__crt_internal_free_policy@@QBEXQBU__acrt_ptd@@@Z 10078b20 f i libucrtd:per_thread_data.obj
 0001:00077fd0       ??0?$__crt_unique_heap_ptr@U__acrt_ptd@@U__crt_internal_free_policy@@@@QAE@QAU__acrt_ptd@@@Z 10078fd0 f i libucrtd:per_thread_data.obj
 0001:00077ff0       ??0__crt_scoped_get_last_error_reset@@QAE@XZ 10078ff0 f i libucrtd:per_thread_data.obj
 0001:00078010       ??1?$__crt_unique_heap_ptr@U__acrt_ptd@@U__crt_internal_free_policy@@@@QAE@XZ 10079010 f i libucrtd:per_thread_data.obj
 0001:00078030       ??1__crt_scoped_get_last_error_reset@@QAE@XZ 10079030 f i libucrtd:per_thread_data.obj
 0001:00078050       ??B?$__crt_unique_heap_ptr@U__acrt_ptd@@U__crt_internal_free_policy@@@@QBE_NXZ 10079050 f i libucrtd:per_thread_data.obj
 0001:00078330       ?dangerous_get_state_array@?$dual_state_global@PAU__crt_locale_data@@@__crt_state_management@@QAEPAPAU__crt_locale_data@@XZ 10079330 f i libucrtd:per_thread_data.obj
 0001:000784b0       ?detach@?$__crt_unique_heap_ptr@U__acrt_ptd@@U__crt_internal_free_policy@@@@QAEPAU__acrt_ptd@@XZ 100794b0 f i libucrtd:per_thread_data.obj
 0001:000784e0       ?get@?$__crt_unique_heap_ptr@U__acrt_ptd@@U__crt_internal_free_policy@@@@QBEPAU__acrt_ptd@@XZ 100794e0 f i libucrtd:per_thread_data.obj
 0001:00078500       ?get_current_state_index@__crt_state_management@@YAIABV__crt_scoped_get_last_error_reset@@@Z 10079500 f i libucrtd:per_thread_data.obj
 0001:00078670       ?is_valid@?$__crt_unique_heap_ptr@U__acrt_ptd@@U__crt_internal_free_policy@@@@QBE_NXZ 10079670 f i libucrtd:per_thread_data.obj
 0001:000786a0       ?release@?$__crt_unique_heap_ptr@U__acrt_ptd@@U__crt_internal_free_policy@@@@QAEXXZ 100796a0 f i libucrtd:per_thread_data.obj
 0001:00078790       ?value@?$dual_state_global@PAU__crt_locale_data@@@__crt_state_management@@QAEAAPAU__crt_locale_data@@XZ 10079790 f i libucrtd:per_thread_data.obj
 0001:000787b0       ___acrt_freeptd            100797b0 f   libucrtd:per_thread_data.obj
 0001:000787e0       ___acrt_getptd             100797e0 f   libucrtd:per_thread_data.obj
 0001:00078800       ___acrt_getptd_head        10079800 f   libucrtd:per_thread_data.obj
 0001:00078820       ___acrt_getptd_noexit      10079820 f   libucrtd:per_thread_data.obj
 0001:00078830       ___acrt_initialize_ptd     10079830 f   libucrtd:per_thread_data.obj
 0001:00078870       ___acrt_uninitialize_ptd   10079870 f   libucrtd:per_thread_data.obj
 0001:000788a0       ___threadhandle            100798a0 f   libucrtd:per_thread_data.obj
 0001:000788b0       ___threadid                100798b0 f   libucrtd:per_thread_data.obj
 0001:000788c0       ?value@?$dual_state_global@PAU__crt_multibyte_data@@@__crt_state_management@@QAEAAPAU__crt_multibyte_data@@XZ 100798c0 f i libucrtd:locale_update.obj
 0001:000788e0       ___acrt_should_sync_with_global_locale 100798e0 f i libucrtd:locale_update.obj
 0001:00078910       ___acrt_update_locale_info 10079910 f   libucrtd:locale_update.obj
 0001:00078950       ___acrt_update_multibyte_info 10079950 f   libucrtd:locale_update.obj
 0001:00078990       ?__acrt_fp_classify@@YA?AW4__acrt_fp_class@@ABN@Z 10079990 f i libucrtd:cvt.obj
 0001:00078ab0       ?__acrt_fp_is_negative@@YA_NABN@Z 10079ab0 f i libucrtd:cvt.obj
 0001:00079da0       ?strrchr@@YAPADQADH@Z      1007ada0 f i libucrtd:cvt.obj
 0001:00079dc0       ___acrt_fp_format          1007adc0 f   libucrtd:cvt.obj
 0001:0007a280       __fputwc_nolock            1007b280 f   libucrtd:fputwc.obj
 0001:0007a470       __fputwchar                1007b470 f   libucrtd:fputwc.obj
 0001:0007a490       __putwc_nolock             1007b490 f   libucrtd:fputwc.obj
 0001:0007a4b0       _fputwc                    1007b4b0 f   libucrtd:fputwc.obj
 0001:0007a5c0       _putwc                     1007b5c0 f   libucrtd:fputwc.obj
 0001:0007a5e0       _putwchar                  1007b5e0 f   libucrtd:fputwc.obj
 0001:0007a600       ?lowio_handle@__crt_stdio_stream@@QBEHXZ 1007b600 f i libucrtd:fileno.obj
 0001:0007a620       __fileno                   1007b620 f   libucrtd:fileno.obj
 0001:0007a6c0       ??$?RPAU__crt_stdio_stream_data@@@__crt_internal_free_policy@@QBEXQBQAU__crt_stdio_stream_data@@@Z 1007b6c0 f i libucrtd:_file.obj
 0001:0007a6e0       ??0?$__crt_unique_heap_ptr@PAU__crt_stdio_stream_data@@U__crt_internal_free_policy@@@@QAE@QAPAU__crt_stdio_stream_data@@@Z 1007b6e0 f i libucrtd:_file.obj
 0001:0007a700       ??1?$__crt_unique_heap_ptr@PAU__crt_stdio_stream_data@@U__crt_internal_free_policy@@@@QAE@XZ 1007b700 f i libucrtd:_file.obj
 0001:0007a720       ?detach@?$__crt_unique_heap_ptr@PAU__crt_stdio_stream_data@@U__crt_internal_free_policy@@@@QAEPAPAU__crt_stdio_stream_data@@XZ 1007b720 f i libucrtd:_file.obj
 0001:0007a750       ?release@?$__crt_unique_heap_ptr@PAU__crt_stdio_stream_data@@U__crt_internal_free_policy@@@@QAEXXZ 1007b750 f i libucrtd:_file.obj
 0001:0007a780       ___acrt_initialize_stdio   1007b780 f   libucrtd:_file.obj
 0001:0007a8f0       ___acrt_iob_func           1007b8f0 f   libucrtd:_file.obj
 0001:0007a900       ___acrt_uninitialize_stdio 1007b900 f   libucrtd:_file.obj
 0001:0007a980       __get_stream_buffer_pointers 1007b980 f   libucrtd:_file.obj
 0001:0007aa60       __lock_file                1007ba60 f   libucrtd:_file.obj
 0001:0007aa90       __unlock_file              1007ba90 f   libucrtd:_file.obj
 0001:0007aac0       __get_printf_count_output  1007bac0 f   libucrtd:printf_count_output.obj
 0001:0007aaf0       __set_printf_count_output  1007baf0 f   libucrtd:printf_count_output.obj
 0001:0007ab50       ?has_any_buffer@__crt_stdio_stream@@QBE_NXZ 1007bb50 f i libucrtd:_sftbuf.obj
 0001:0007ab70       ?has_any_of@__crt_stdio_stream@@QBE_NJ@Z 1007bb70 f i libucrtd:_sftbuf.obj
 0001:0007abb0       ?has_temporary_buffer@__crt_stdio_stream@@QBE_NXZ 1007bbb0 f i libucrtd:_sftbuf.obj
 0001:0007abd0       ?set_flags@__crt_stdio_stream@@QBE_NJ@Z 1007bbd0 f i libucrtd:_sftbuf.obj
 0001:0007ac20       ?unset_flags@__crt_stdio_stream@@QBE_NJ@Z 1007bc20 f i libucrtd:_sftbuf.obj
 0001:0007ac70       ___acrt_should_use_temporary_buffer 1007bc70 f   libucrtd:_sftbuf.obj
 0001:0007acc0       ___acrt_stdio_begin_temporary_buffering_nolock 1007bcc0 f   libucrtd:_sftbuf.obj
 0001:0007ae70       ___acrt_stdio_end_temporary_buffering_nolock 1007be70 f   libucrtd:_sftbuf.obj
 0001:0007af00       ??$?RU__crt_locale_data@@@__crt_internal_free_policy@@QBEXQBU__crt_locale_data@@@Z 1007bf00 f i libucrtd:wsetlocale.obj
 0001:0007af20       ??$?RU__crt_locale_pointers@@@__crt_internal_free_policy@@QBEXQBU__crt_locale_pointers@@@Z 1007bf20 f i libucrtd:wsetlocale.obj
 0001:0007af40       ??$?RU__crt_multibyte_data@@@__crt_internal_free_policy@@QBEXQBU__crt_multibyte_data@@@Z 1007bf40 f i libucrtd:wsetlocale.obj
 0001:0007b530       ??0?$__crt_unique_heap_ptr@U__crt_locale_data@@U__crt_internal_free_policy@@@@QAE@QAU__crt_locale_data@@@Z 1007c530 f i libucrtd:wsetlocale.obj
 0001:0007b550       ??0?$__crt_unique_heap_ptr@U__crt_locale_pointers@@U__crt_internal_free_policy@@@@QAE@QAU__crt_locale_pointers@@@Z 1007c550 f i libucrtd:wsetlocale.obj
 0001:0007b570       ??0?$__crt_unique_heap_ptr@U__crt_multibyte_data@@U__crt_internal_free_policy@@@@QAE@QAU__crt_multibyte_data@@@Z 1007c570 f i libucrtd:wsetlocale.obj
 0001:0007b590       ??0_expandlocale_locale_name_cache@@QAE@QA_WIQAU__crt_qualified_locale_data@@@Z 1007c590 f i libucrtd:wsetlocale.obj
 0001:0007b600       ??1?$__crt_unique_heap_ptr@U__crt_locale_data@@U__crt_internal_free_policy@@@@QAE@XZ 1007c600 f i libucrtd:wsetlocale.obj
 0001:0007b620       ??1?$__crt_unique_heap_ptr@U__crt_locale_pointers@@U__crt_internal_free_policy@@@@QAE@XZ 1007c620 f i libucrtd:wsetlocale.obj
 0001:0007b640       ??1?$__crt_unique_heap_ptr@U__crt_multibyte_data@@U__crt_internal_free_policy@@@@QAE@XZ 1007c640 f i libucrtd:wsetlocale.obj
 0001:0007b660       ??1_expandlocale_locale_name_cache@@QAE@XZ 1007c660 f i libucrtd:wsetlocale.obj
 0001:0007b6c0       ??B?$__crt_unique_heap_ptr@U__crt_locale_data@@U__crt_internal_free_policy@@@@QBE_NXZ 1007c6c0 f i libucrtd:wsetlocale.obj
 0001:0007b6e0       ??B?$__crt_unique_heap_ptr@U__crt_locale_pointers@@U__crt_internal_free_policy@@@@QBE_NXZ 1007c6e0 f i libucrtd:wsetlocale.obj
 0001:0007b700       ??B?$__crt_unique_heap_ptr@U__crt_multibyte_data@@U__crt_internal_free_policy@@@@QBE_NXZ 1007c700 f i libucrtd:wsetlocale.obj
 0001:0007bae0       ?commit_locale_name@_expandlocale_locale_name_cache@@QAEXQB_WI@Z 1007cae0 f i libucrtd:wsetlocale.obj
 0001:0007bb40       ?commit_locale_name_cache_already_updated@_expandlocale_locale_name_cache@@QAEXQB_WI@Z 1007cb40 f i libucrtd:wsetlocale.obj
 0001:0007bba0       ?detach@?$__crt_unique_heap_ptr@U__crt_locale_data@@U__crt_internal_free_policy@@@@QAEPAU__crt_locale_data@@XZ 1007cba0 f i libucrtd:wsetlocale.obj
 0001:0007bbd0       ?detach@?$__crt_unique_heap_ptr@U__crt_locale_pointers@@U__crt_internal_free_policy@@@@QAEPAU__crt_locale_pointers@@XZ 1007cbd0 f i libucrtd:wsetlocale.obj
 0001:0007bc00       ?detach@?$__crt_unique_heap_ptr@U__crt_multibyte_data@@U__crt_internal_free_policy@@@@QAEPAU__crt_multibyte_data@@XZ 1007cc00 f i libucrtd:wsetlocale.obj
 0001:0007bc30       ?get@?$__crt_unique_heap_ptr@U__crt_locale_data@@U__crt_internal_free_policy@@@@QBEPAU__crt_locale_data@@XZ 1007cc30 f i libucrtd:wsetlocale.obj
 0001:0007bc50       ?get@?$__crt_unique_heap_ptr@U__crt_locale_pointers@@U__crt_internal_free_policy@@@@QBEPAU__crt_locale_pointers@@XZ 1007cc50 f i libucrtd:wsetlocale.obj
 0001:0007bc70       ?get@?$__crt_unique_heap_ptr@U__crt_multibyte_data@@U__crt_internal_free_policy@@@@QBEPAU__crt_multibyte_data@@XZ 1007cc70 f i libucrtd:wsetlocale.obj
 0001:0007bc90       ?is_valid@?$__crt_unique_heap_ptr@U__crt_locale_data@@U__crt_internal_free_policy@@@@QBE_NXZ 1007cc90 f i libucrtd:wsetlocale.obj
 0001:0007bcc0       ?is_valid@?$__crt_unique_heap_ptr@U__crt_locale_pointers@@U__crt_internal_free_policy@@@@QBE_NXZ 1007ccc0 f i libucrtd:wsetlocale.obj
 0001:0007bcf0       ?is_valid@?$__crt_unique_heap_ptr@U__crt_multibyte_data@@U__crt_internal_free_policy@@@@QBE_NXZ 1007ccf0 f i libucrtd:wsetlocale.obj
 0001:0007bd20       ?release@?$__crt_unique_heap_ptr@U__crt_locale_data@@U__crt_internal_free_policy@@@@QAEXXZ 1007cd20 f i libucrtd:wsetlocale.obj
 0001:0007bd50       ?release@?$__crt_unique_heap_ptr@U__crt_locale_pointers@@U__crt_internal_free_policy@@@@QAEXXZ 1007cd50 f i libucrtd:wsetlocale.obj
 0001:0007bd80       ?release@?$__crt_unique_heap_ptr@U__crt_multibyte_data@@U__crt_internal_free_policy@@@@QAEXXZ 1007cd80 f i libucrtd:wsetlocale.obj
 0001:0007bdb0       ___acrt_copy_locale_name   1007cdb0 f   libucrtd:wsetlocale.obj
 0001:0007be50       ___acrt_set_locale_changed 1007ce50 f   libucrtd:wsetlocale.obj
 0001:0007be70       ___acrt_uninitialize_locale 1007ce70 f   libucrtd:wsetlocale.obj
 0001:0007be90       ___ascii_tolower           1007ce90 f i libucrtd:wsetlocale.obj
 0001:0007beb0       ___ascii_towlower          1007ceb0 f i libucrtd:wsetlocale.obj
 0001:0007bed0       ___lc_lctowcs              1007ced0 f   libucrtd:wsetlocale.obj
 0001:0007bf80       ___lc_wcstolc              1007cf80 f   libucrtd:wsetlocale.obj
 0001:0007c1b0       __configthreadlocale       1007d1b0 f   libucrtd:wsetlocale.obj
 0001:0007c330       __create_locale            1007d330 f   libucrtd:wsetlocale.obj
 0001:0007c970       __free_locale              1007d970 f   libucrtd:wsetlocale.obj
 0001:0007caa0       __get_current_locale       1007daa0 f   libucrtd:wsetlocale.obj
 0001:0007cb70       __wcreate_locale           1007db70 f   libucrtd:wsetlocale.obj
 0001:0007cdb0       __wcscats                  1007ddb0 f   libucrtd:wsetlocale.obj
 0001:0007ce30       __wsetlocale               1007de30 f   libucrtd:wsetlocale.obj
 0001:0007e520       ___p___mb_cur_max          1007f520 f   libucrtd:nlsdata.obj
 0001:0007e820       ___acrt_initialize_lowio   1007f820 f   libucrtd:ioinit.obj
 0001:0007e8c0       ___acrt_uninitialize_lowio 1007f8c0 f   libucrtd:ioinit.obj
 0001:0007e920       __CrtGetReportHook         1007f920 f   libucrtd:dbgrptt.obj
 0001:0007e930       __CrtSetReportFile         1007f930 f   libucrtd:dbgrptt.obj
 0001:0007ea30       __CrtSetReportHook         1007fa30 f   libucrtd:dbgrptt.obj
 0001:0007ea50       __CrtSetReportMode         1007fa50 f   libucrtd:dbgrptt.obj
 0001:0007eb90       __VCrtDbgReportA           1007fb90 f   libucrtd:dbgrptt.obj
 0001:0007f410       __VCrtDbgReportW           10080410 f   libucrtd:dbgrptt.obj
 0001:0007fdc0       __snprintf_s               10080dc0 f i libucrtd:dbgrptt.obj
 0001:0007fe00       __vsnprintf_s              10080e00 f i libucrtd:dbgrptt.obj
 0001:0007fe30       __vsnprintf_s_l            10080e30 f i libucrtd:dbgrptt.obj
 0001:0007ffc0       ??$__acrt_wcs_to_mbs_cp@U__crt_win32_buffer_no_resizing@@@@YAHQB_WAAV?$__crt_win32_buffer@DU__crt_win32_buffer_no_resizing@@@@I@Z 10080fc0 f i libucrtd:getmodulefilenamea.obj
 0001:0007fff0       ??0?$__crt_win32_buffer@DU__crt_win32_buffer_no_resizing@@@@QAE@QADI@Z 10080ff0 f i libucrtd:getmodulefilenamea.obj
 0001:00080040       ??1?$__crt_win32_buffer@DU__crt_win32_buffer_no_resizing@@@@QAE@XZ 10081040 f i libucrtd:getmodulefilenamea.obj
 0001:000800b0       ?__acrt_get_utf8_acp_compatibility_codepage@@YAIXZ 100810b0 f i libucrtd:getmodulefilenamea.obj
 0001:00080140       ?_deallocate@?$__crt_win32_buffer@DU__crt_win32_buffer_no_resizing@@@@AAEXXZ 10081140 f i libucrtd:getmodulefilenamea.obj
 0001:00080180       ?allocate@?$__crt_win32_buffer@DU__crt_win32_buffer_no_resizing@@@@QAEHI@Z 10081180 f i libucrtd:getmodulefilenamea.obj
 0001:000801f0       ?allocate@__crt_win32_buffer_no_resizing@@SAHQAPAXIABV__crt_win32_buffer_empty_debug_info@@@Z 100811f0 f i libucrtd:getmodulefilenamea.obj
 0001:00080210       ?capacity@?$__crt_win32_buffer@DU__crt_win32_buffer_no_resizing@@@@QBEIXZ 10081210 f i libucrtd:getmodulefilenamea.obj
 0001:00080230       ?data@?$__crt_win32_buffer@DU__crt_win32_buffer_no_resizing@@@@QAEPADXZ 10081230 f i libucrtd:getmodulefilenamea.obj
 0001:00080250       ?deallocate@__crt_win32_buffer_no_resizing@@SAXQAXABV__crt_win32_buffer_empty_debug_info@@@Z 10081250 f i libucrtd:getmodulefilenamea.obj
 0001:00080260       ?debug_info@?$__crt_win32_buffer@DU__crt_win32_buffer_no_resizing@@@@QBEABV__crt_win32_buffer_empty_debug_info@@XZ 10081260 f i libucrtd:getmodulefilenamea.obj
 0001:00080270       ?set_to_nullptr@?$__crt_win32_buffer@DU__crt_win32_buffer_no_resizing@@@@QAEXXZ 10081270 f i libucrtd:getmodulefilenamea.obj
 0001:000802b0       ?size@?$__crt_win32_buffer@DU__crt_win32_buffer_no_resizing@@@@QAEXI@Z 100812b0 f i libucrtd:getmodulefilenamea.obj
 0001:000802d0       ?size@?$__crt_win32_buffer@DU__crt_win32_buffer_no_resizing@@@@QBEIXZ 100812d0 f i libucrtd:getmodulefilenamea.obj
 0001:000802f0       ___acrt_GetModuleFileNameA 100812f0 f   libucrtd:getmodulefilenamea.obj
 0001:000805d0       ??$message_box@$$TABQBDABQBDK@?$__crt_char_traits@D@@SAH$$QA$$TABQBD1$$QAK@Z 100815d0 f i libucrtd:crtmbox.obj
 0001:00080600       ??$message_box@$$TABQB_WABQB_WK@?$__crt_char_traits@_W@@SAH$$QA$$TABQB_W1$$QAK@Z 10081600 f i libucrtd:crtmbox.obj
 0001:00080630       ??$message_box@PAUHWND__@@ABQBDABQBDABI@?$__crt_char_traits@D@@SAH$$QAPAUHWND__@@ABQBD1ABI@Z 10081630 f i libucrtd:crtmbox.obj
 0001:00080660       ??$message_box@PAUHWND__@@ABQB_WABQB_WABI@?$__crt_char_traits@_W@@SAH$$QAPAUHWND__@@ABQB_W1ABI@Z 10081660 f i libucrtd:crtmbox.obj
 0001:00080690       ??$output_debug_string@ABQBD@?$__crt_char_traits@D@@SAXABQBD@Z 10081690 f i libucrtd:crtmbox.obj
 0001:000806b0       ??$output_debug_string@ABQB_W@?$__crt_char_traits@_W@@SAXABQB_W@Z 100816b0 f i libucrtd:crtmbox.obj
 0001:000806d0       ___acrt_show_narrow_message_box 100816d0 f   libucrtd:crtmbox.obj
 0001:000806f0       ___acrt_show_wide_message_box 100816f0 f   libucrtd:crtmbox.obj
 0001:00080710       ___acrt_initialize_locks   10081710 f   libucrtd:locks.obj
 0001:00080770       ___acrt_lock               10081770 f   libucrtd:locks.obj
 0001:00080790       ___acrt_uninitialize_locks 10081790 f   libucrtd:locks.obj
 0001:000807e0       ___acrt_unlock             100817e0 f   libucrtd:locks.obj
 0001:00080800       __lock_locales             10081800 f   libucrtd:locks.obj
 0001:00080820       __unlock_locales           10081820 f   libucrtd:locks.obj
 0001:00080840       ??$?B$$A6AXH@Z@__crt_fast_encoded_nullptr_t@@QBEP6AXH@ZXZ 10081840 f i libucrtd:signal.obj
 0001:00080930       ??$__crt_fast_decode_pointer@P6AXH@Z@@YAP6AXH@ZQ6AXH@Z@Z 10081930 f i libucrtd:signal.obj
 0001:00080960       ??$__crt_fast_encode_pointer@P6AXH@Z@@YAP6AXH@ZQ6AXH@Z@Z 10081960 f i libucrtd:signal.obj
 0001:00080c10       ?initialize@?$dual_state_global@P6AXH@Z@__crt_state_management@@QAEXQ6AXH@Z@Z 10081c10 f i libucrtd:signal.obj
 0001:00080d50       ?value@?$dual_state_global@P6AXH@Z@__crt_state_management@@QAEAAP6AXH@ZXZ 10081d50 f i libucrtd:signal.obj
 0001:00080d70       ___acrt_get_sigabrt_handler 10081d70 f   libucrtd:signal.obj
 0001:00080d90       ___acrt_initialize_signal_handlers 10081d90 f   libucrtd:signal.obj
 0001:00080dd0       ___fpecode                 10081dd0 f   libucrtd:signal.obj
 0001:00080de0       ___pxcptinfoptrs           10081de0 f   libucrtd:signal.obj
 0001:00080df0       _raise                     10081df0 f   libucrtd:signal.obj
 0001:000811c0       _signal                    100821c0 f   libucrtd:signal.obj
 0001:00081440       __msize                    10082440 f   libucrtd:msize.obj
 0001:00081460       __msize_base               10082460 f   libucrtd:msize.obj
 0001:00081500       __realloc_base             10082500 f   libucrtd:realloc_base.obj
 0001:000815c0       ??$?B$$A6GHPA_WKJ@Z@__crt_fast_encoded_nullptr_t@@QBEP6GHPA_WKJ@ZXZ 100825c0 f i libucrtd:winapi_thunks.obj
 0001:000816b0       ??$__crt_fast_decode_pointer@P6GHPA_WKJ@Z@@YAP6GHPA_WKJ@ZQ6GH0KJ@Z@Z 100826b0 f i libucrtd:winapi_thunks.obj
 0001:000816e0       ??$__crt_fast_decode_pointer@PAX@@YAPAXQAX@Z 100826e0 f i libucrtd:winapi_thunks.obj
 0001:00081710       ??$__crt_fast_encode_pointer@P6GHPA_WKJ@Z@@YAP6GHPA_WKJ@ZQ6GH0KJ@Z@Z 10082710 f i libucrtd:winapi_thunks.obj
 0001:00082070       _GetCurrentThreadEffectiveToken 10083070 f i libucrtd:winapi_thunks.obj
 0001:00082080       ___acrt_AppPolicyGetProcessTerminationMethodInternal@4 10083080 f   libucrtd:winapi_thunks.obj
 0001:000820c0       ___acrt_AppPolicyGetShowDeveloperDiagnosticInternal@4 100830c0 f   libucrtd:winapi_thunks.obj
 0001:00082100       ___acrt_AppPolicyGetThreadInitializationTypeInternal@4 10083100 f   libucrtd:winapi_thunks.obj
 0001:00082140       ___acrt_AppPolicyGetWindowingModelInternal@4 10083140 f   libucrtd:winapi_thunks.obj
 0001:00082180       ___acrt_AreFileApisANSI@0  10083180 f   libucrtd:winapi_thunks.obj
 0001:000821c0       ___acrt_CompareStringEx@36 100831c0 f   libucrtd:winapi_thunks.obj
 0001:00082240       ___acrt_EnumSystemLocalesEx@16 10083240 f   libucrtd:winapi_thunks.obj
 0001:000822a0       ___acrt_FlsAlloc@4         100832a0 f   libucrtd:winapi_thunks.obj
 0001:000822e0       ___acrt_FlsFree@4          100832e0 f   libucrtd:winapi_thunks.obj
 0001:00082320       ___acrt_FlsGetValue@4      10083320 f   libucrtd:winapi_thunks.obj
 0001:00082360       ___acrt_FlsSetValue@8      10083360 f   libucrtd:winapi_thunks.obj
 0001:000823b0       ___acrt_GetDateFormatEx@28 100833b0 f   libucrtd:winapi_thunks.obj
 0001:00082430       ___acrt_GetEnabledXStateFeatures@0 10083430 f   libucrtd:winapi_thunks.obj
 0001:00082470       ___acrt_GetLocaleInfoEx@16 10083470 f   libucrtd:winapi_thunks.obj
 0001:000824d0       ___acrt_GetSystemTimePreciseAsFileTime@4 100834d0 f   libucrtd:winapi_thunks.obj
 0001:00082510       ___acrt_GetTimeFormatEx@24 10083510 f   libucrtd:winapi_thunks.obj
 0001:00082580       ___acrt_GetUserDefaultLocaleName@8 10083580 f   libucrtd:winapi_thunks.obj
 0001:000825d0       ___acrt_GetXStateFeaturesMask@8 100835d0 f   libucrtd:winapi_thunks.obj
 0001:00082610       ___acrt_InitializeCriticalSectionEx@12 10083610 f   libucrtd:winapi_thunks.obj
 0001:00082660       ___acrt_IsValidLocaleName@4 10083660 f   libucrtd:winapi_thunks.obj
 0001:000826b0       ___acrt_LCIDToLocaleName@16 100836b0 f   libucrtd:winapi_thunks.obj
 0001:00082710       ___acrt_LCMapStringEx@36   10083710 f   libucrtd:winapi_thunks.obj
 0001:00082790       ___acrt_LocaleNameToLCID@8 10083790 f   libucrtd:winapi_thunks.obj
 0001:000827e0       ___acrt_LocateXStateFeature@12 100837e0 f   libucrtd:winapi_thunks.obj
 0001:00082830       ___acrt_MessageBoxA@16     10083830 f   libucrtd:winapi_thunks.obj
 0001:00082880       ___acrt_MessageBoxW@16     10083880 f   libucrtd:winapi_thunks.obj
 0001:000828d0       ___acrt_RoInitialize@4     100838d0 f   libucrtd:winapi_thunks.obj
 0001:00082910       ___acrt_RoUninitialize@0   10083910 f   libucrtd:winapi_thunks.obj
 0001:00082940       ___acrt_RtlGenRandom@8     10083940 f   libucrtd:winapi_thunks.obj
 0001:00082980       ___acrt_SetThreadStackGuarantee@4 10083980 f   libucrtd:winapi_thunks.obj
 0001:000829c0       ___acrt_can_show_message_box 100839c0 f   libucrtd:winapi_thunks.obj
 0001:00082a00       ___acrt_can_use_vista_locale_apis 10083a00 f   libucrtd:winapi_thunks.obj
 0001:00082a30       ___acrt_can_use_xstate_apis 10083a30 f   libucrtd:winapi_thunks.obj
 0001:00082a60       ___acrt_eagerly_load_locale_apis 10083a60 f   libucrtd:winapi_thunks.obj
 0001:00082aa0       ___acrt_get_parent_window  10083aa0 f   libucrtd:winapi_thunks.obj
 0001:00082b10       ___acrt_initialize_winapi_thunks 10083b10 f   libucrtd:winapi_thunks.obj
 0001:00082b80       ___acrt_is_interactive     10083b80 f   libucrtd:winapi_thunks.obj
 0001:00082c30       ___acrt_uninitialize_winapi_thunks 10083c30 f   libucrtd:winapi_thunks.obj
 0001:00082ca0       __chvalidator              10083ca0 f   libucrtd:isctype.obj
 0001:00082cf0       __chvalidator_l            10083cf0 f   libucrtd:isctype.obj
 0001:00082d70       __isctype                  10083d70 f   libucrtd:isctype.obj
 0001:00082db0       __isctype_l                10083db0 f   libucrtd:isctype.obj
 0001:00082f30       __isleadbyte_fast_internal 10083f30 f i libucrtd:isctype.obj
 0001:00082f50       ??$?RU__crt_stdio_stream_data@@@__crt_internal_free_policy@@QBEXQBU__crt_stdio_stream_data@@@Z 10083f50 f i libucrtd:stream.obj
 0001:00082f70       ??0?$__crt_unique_heap_ptr@U__crt_stdio_stream_data@@U__crt_internal_free_policy@@@@QAE@QAU__crt_stdio_stream_data@@@Z 10083f70 f i libucrtd:stream.obj
 0001:00082f90       ??0__crt_stdio_stream@@QAE@QAU__crt_stdio_stream_data@@@Z 10083f90 f i libucrtd:stream.obj
 0001:00082fb0       ??0__crt_stdio_stream@@QAE@XZ 10083fb0 f i libucrtd:stream.obj
 0001:00082fd0       ??1?$__crt_unique_heap_ptr@U__crt_stdio_stream_data@@U__crt_internal_free_policy@@@@QAE@XZ 10083fd0 f i libucrtd:stream.obj
 0001:00082ff0       ?__acrt_stdio_allocate_stream@@YA?AV__crt_stdio_stream@@XZ 10083ff0 f   libucrtd:stream.obj
 0001:000830e0       ?__acrt_stdio_free_stream@@YAXV__crt_stdio_stream@@@Z 100840e0 f   libucrtd:stream.obj
 0001:00083160       ?deallocate@__crt_stdio_stream@@QAEXXZ 10084160 f i libucrtd:stream.obj
 0001:00083180       ?detach@?$__crt_unique_heap_ptr@U__crt_stdio_stream_data@@U__crt_internal_free_policy@@@@QAEPAU__crt_stdio_stream_data@@XZ 10084180 f i libucrtd:stream.obj
 0001:000832f0       ?lock@__crt_stdio_stream@@QBEXXZ 100842f0 f i libucrtd:stream.obj
 0001:00083310       ?release@?$__crt_unique_heap_ptr@U__crt_stdio_stream_data@@U__crt_internal_free_policy@@@@QAEXXZ 10084310 f i libucrtd:stream.obj
 0001:00083340       ?try_allocate@__crt_stdio_stream@@QAE_NXZ 10084340 f i libucrtd:stream.obj
 0001:00083390       ??$__acrt_stdio_parse_mode@D@@YA?AU__acrt_stdio_stream_mode@@QBD@Z 10084390 f i libucrtd:openfile.obj
 0001:00083c00       ??$__acrt_stdio_parse_mode@_W@@YA?AU__acrt_stdio_stream_mode@@QB_W@Z 10084c00 f i libucrtd:openfile.obj
 0001:00084790       ??$tcsncmp@AAPBDAAY02$$CBDI@?$__crt_char_traits@D@@SAHAAPBDAAY02$$CBD$$QAI@Z 10085790 f i libucrtd:openfile.obj
 0001:000847b0       ??$tcsncmp@AAPB_WAAY02$$CB_WI@?$__crt_char_traits@_W@@SAHAAPB_WAAY02$$CB_W$$QAI@Z 100857b0 f i libucrtd:openfile.obj
 0001:000847d0       ??$tcsnicmp@AAPBDAAY04$$CBDI@?$__crt_char_traits@D@@SAHAAPBDAAY04$$CBD$$QAI@Z 100857d0 f i libucrtd:openfile.obj
 0001:000847f0       ??$tcsnicmp@AAPBDAAY06$$CBDI@?$__crt_char_traits@D@@SAHAAPBDAAY06$$CBD$$QAI@Z 100857f0 f i libucrtd:openfile.obj
 0001:00084810       ??$tcsnicmp@AAPBDAAY07$$CBDI@?$__crt_char_traits@D@@SAHAAPBDAAY07$$CBD$$QAI@Z 10085810 f i libucrtd:openfile.obj
 0001:00084830       ??$tcsnicmp@AAPB_WAAY04$$CB_WI@?$__crt_char_traits@_W@@SAHAAPB_WAAY04$$CB_W$$QAI@Z 10085830 f i libucrtd:openfile.obj
 0001:00084850       ??$tcsnicmp@AAPB_WAAY06$$CB_WI@?$__crt_char_traits@_W@@SAHAAPB_WAAY06$$CB_W$$QAI@Z 10085850 f i libucrtd:openfile.obj
 0001:00084870       ??$tcsnicmp@AAPB_WAAY07$$CB_WI@?$__crt_char_traits@_W@@SAHAAPB_WAAY07$$CB_W$$QAI@Z 10085870 f i libucrtd:openfile.obj
 0001:00084890       ??$tsopen_s@PAHABQBDABHABHH@?$__crt_char_traits@D@@SAH$$QAPAHABQBDABH2$$QAH@Z 10085890 f i libucrtd:openfile.obj
 0001:000848c0       ??$tsopen_s@PAHABQB_WABHABHH@?$__crt_char_traits@_W@@SAH$$QAPAHABQB_WABH2$$QAH@Z 100858c0 f i libucrtd:openfile.obj
 0001:000848f0       ?__acrt_stdio_parse_mode_D@@YA_NAAU__acrt_stdio_stream_mode@@@Z 100858f0 f i libucrtd:openfile.obj
 0001:00084920       ?__acrt_stdio_parse_mode_N@@YA_NAAU__acrt_stdio_stream_mode@@@Z 10085920 f i libucrtd:openfile.obj
 0001:00084940       ?__acrt_stdio_parse_mode_R@@YA_NAAU__acrt_stdio_stream_mode@@AA_N@Z 10085940 f i libucrtd:openfile.obj
 0001:00084970       ?__acrt_stdio_parse_mode_S@@YA_NAAU__acrt_stdio_stream_mode@@AA_N@Z 10085970 f i libucrtd:openfile.obj
 0001:000849a0       ?__acrt_stdio_parse_mode_T@@YA_NAAU__acrt_stdio_stream_mode@@@Z 100859a0 f i libucrtd:openfile.obj
 0001:000849d0       ?__acrt_stdio_parse_mode_b@@YA_NAAU__acrt_stdio_stream_mode@@@Z 100859d0 f i libucrtd:openfile.obj
 0001:00084a00       ?__acrt_stdio_parse_mode_c@@YA_NAAU__acrt_stdio_stream_mode@@AA_N@Z 10085a00 f i libucrtd:openfile.obj
 0001:00084a30       ?__acrt_stdio_parse_mode_n@@YA_NAAU__acrt_stdio_stream_mode@@AA_N@Z 10085a30 f i libucrtd:openfile.obj
 0001:00084a60       ?__acrt_stdio_parse_mode_plus@@YA_NAAU__acrt_stdio_stream_mode@@AA_N@Z 10085a60 f i libucrtd:openfile.obj
 0001:00084ad0       ?__acrt_stdio_parse_mode_t@@YA_NAAU__acrt_stdio_stream_mode@@@Z 10085ad0 f i libucrtd:openfile.obj
 0001:00084b00       ?__acrt_stdio_parse_mode_x@@YA_NAAU__acrt_stdio_stream_mode@@@Z 10085b00 f i libucrtd:openfile.obj
 0001:00084b30       __openfile                 10085b30 f   libucrtd:openfile.obj
 0001:00084b60       __wopenfile                10085b60 f   libucrtd:openfile.obj
 0001:00084e40       __close                    10085e40 f   libucrtd:close.obj
 0001:00084fc0       __close_nolock             10085fc0 f   libucrtd:close.obj
 0001:00085020       ?has_crt_buffer@__crt_stdio_stream@@QBE_NXZ 10086020 f i libucrtd:_freebuf.obj
 0001:00085040       ___acrt_stdio_free_buffer_nolock 10086040 f   libucrtd:_freebuf.obj
 0001:000856a0       ?__acrt_stdio_reset_buffer@@YAXV__crt_stdio_stream@@@Z 100866a0 f i libucrtd:fflush.obj
 0001:000857a0       ?has_all_of@__crt_stdio_stream@@QBE_NJ@Z 100867a0 f i libucrtd:fflush.obj
 0001:00085870       ___acrt_stdio_flush_nolock 10086870 f   libucrtd:fflush.obj
 0001:00085940       __fflush_nolock            10086940 f   libucrtd:fflush.obj
 0001:000859c0       __flushall                 100869c0 f   libucrtd:fflush.obj
 0001:000859e0       _fflush                    100869e0 f   libucrtd:fflush.obj
 0001:00086130       ?has_big_buffer@__crt_stdio_stream@@QBE_NXZ 10087130 f i libucrtd:_flsbuf.obj
 0001:00086230       ___acrt_stdio_flush_and_write_narrow_nolock 10087230 f   libucrtd:_flsbuf.obj
 0001:00086260       ___acrt_stdio_flush_and_write_wide_nolock 10087260 f   libucrtd:_flsbuf.obj
 0001:00086590       ___acrt_get_begin_thread_init_policy 10087590 f   libucrtd:win_policies.obj
 0001:000865b0       ___acrt_get_developer_information_policy 100875b0 f   libucrtd:win_policies.obj
 0001:000865d0       ___acrt_get_process_end_policy 100875d0 f   libucrtd:win_policies.obj
 0001:000865f0       ___acrt_get_windowing_model_policy 100875f0 f   libucrtd:win_policies.obj
 0001:000868c0       ??$__acrt_mbs_to_wcs_cp@U__crt_win32_buffer_internal_dynamic_resizing@@@@YAHQBDAAV?$__crt_win32_buffer@_WU__crt_win32_buffer_internal_dynamic_resizing@@@@I@Z 100878c0 f i libucrtd:argv_wildcards.obj
 0001:000868f0       ??$__acrt_wcs_to_mbs_cp@U__crt_win32_buffer_internal_dynamic_resizing@@@@YAHQB_WAAV?$__crt_win32_buffer@DU__crt_win32_buffer_internal_dynamic_resizing@@@@I@Z 100878f0 f i libucrtd:argv_wildcards.obj
 0001:00087840       ??$tcsncpy_s@AAPADIAAPADABI@?$__crt_char_traits@D@@SAHAAPAD$$QAI0ABI@Z 10088840 f i libucrtd:argv_wildcards.obj
 0001:00087870       ??$tcsncpy_s@AAPA_WIAAPA_WABI@?$__crt_char_traits@_W@@SAHAAPA_W$$QAI0ABI@Z 10088870 f i libucrtd:argv_wildcards.obj
 0001:000878a0       ??$tcsncpy_s@PADABIABQBDABI@?$__crt_char_traits@D@@SAH$$QAPADABIABQBD1@Z 100888a0 f i libucrtd:argv_wildcards.obj
 0001:000878d0       ??$tcsncpy_s@PADIABQBDABI@?$__crt_char_traits@D@@SAH$$QAPAD$$QAIABQBDABI@Z 100888d0 f i libucrtd:argv_wildcards.obj
 0001:00087900       ??$tcsncpy_s@PA_WABIABQB_WABI@?$__crt_char_traits@_W@@SAH$$QAPA_WABIABQB_W1@Z 10088900 f i libucrtd:argv_wildcards.obj
 0001:00087930       ??$tcsncpy_s@PA_WIABQB_WABI@?$__crt_char_traits@_W@@SAH$$QAPA_W$$QAIABQB_WABI@Z 10088930 f i libucrtd:argv_wildcards.obj
 0001:00087960       ??$tcspbrk@AAPADAAY02$$CBD@?$__crt_char_traits@D@@SAPADAAPADAAY02$$CBD@Z 10088960 f i libucrtd:argv_wildcards.obj
 0001:00087980       ??$tcspbrk@AAPA_WAAY02$$CB_W@?$__crt_char_traits@_W@@SAPA_WAAPA_WAAY02$$CB_W@Z 10088980 f i libucrtd:argv_wildcards.obj
 0001:000879a0       ??0?$__crt_unique_handle_t@U__crt_findfile_traits@@@@QAE@QAX@Z 100889a0 f i libucrtd:argv_wildcards.obj
 0001:000879c0       ??0?$__crt_win32_buffer@DU__crt_win32_buffer_internal_dynamic_resizing@@@@QAE@XZ 100889c0 f i libucrtd:argv_wildcards.obj
 0001:00087a10       ??0?$__crt_win32_buffer@_WU__crt_win32_buffer_internal_dynamic_resizing@@@@QAE@XZ 10088a10 f i libucrtd:argv_wildcards.obj
 0001:00087ac0       ??1?$__crt_unique_handle_t@U__crt_findfile_traits@@@@QAE@XZ 10088ac0 f i libucrtd:argv_wildcards.obj
 0001:00087ae0       ??1?$__crt_win32_buffer@DU__crt_win32_buffer_internal_dynamic_resizing@@@@QAE@XZ 10088ae0 f i libucrtd:argv_wildcards.obj
 0001:00087b20       ??1?$__crt_win32_buffer@_WU__crt_win32_buffer_internal_dynamic_resizing@@@@QAE@XZ 10088b20 f i libucrtd:argv_wildcards.obj
 0001:00087d80       ?_deallocate@?$__crt_win32_buffer@DU__crt_win32_buffer_internal_dynamic_resizing@@@@AAEXXZ 10088d80 f i libucrtd:argv_wildcards.obj
 0001:00087dc0       ?_deallocate@?$__crt_win32_buffer@_WU__crt_win32_buffer_internal_dynamic_resizing@@@@AAEXXZ 10088dc0 f i libucrtd:argv_wildcards.obj
 0001:00087e00       ?allocate@?$__crt_win32_buffer@DU__crt_win32_buffer_internal_dynamic_resizing@@@@QAEHI@Z 10088e00 f i libucrtd:argv_wildcards.obj
 0001:00087e70       ?allocate@?$__crt_win32_buffer@_WU__crt_win32_buffer_internal_dynamic_resizing@@@@QAEHI@Z 10088e70 f i libucrtd:argv_wildcards.obj
 0001:00087ee0       ?allocate@__crt_win32_buffer_internal_dynamic_resizing@@SAHQAPAXIABV__crt_win32_buffer_empty_debug_info@@@Z 10088ee0 f i libucrtd:argv_wildcards.obj
 0001:00088020       ?capacity@?$__crt_win32_buffer@DU__crt_win32_buffer_internal_dynamic_resizing@@@@QBEIXZ 10089020 f i libucrtd:argv_wildcards.obj
 0001:00088040       ?capacity@?$__crt_win32_buffer@_WU__crt_win32_buffer_internal_dynamic_resizing@@@@QBEIXZ 10089040 f i libucrtd:argv_wildcards.obj
 0001:00088060       ?close@?$__crt_unique_handle_t@U__crt_findfile_traits@@@@QAEXXZ 10089060 f i libucrtd:argv_wildcards.obj
 0001:000880a0       ?close@__crt_findfile_traits@@SA_NPAX@Z 100890a0 f i libucrtd:argv_wildcards.obj
 0001:000880d0       ?data@?$__crt_win32_buffer@DU__crt_win32_buffer_internal_dynamic_resizing@@@@QAEPADXZ 100890d0 f i libucrtd:argv_wildcards.obj
 0001:000880f0       ?data@?$__crt_win32_buffer@_WU__crt_win32_buffer_internal_dynamic_resizing@@@@QAEPA_WXZ 100890f0 f i libucrtd:argv_wildcards.obj
 0001:00088110       ?deallocate@__crt_win32_buffer_internal_dynamic_resizing@@SAXQAXABV__crt_win32_buffer_empty_debug_info@@@Z 10089110 f i libucrtd:argv_wildcards.obj
 0001:00088130       ?debug_info@?$__crt_win32_buffer@DU__crt_win32_buffer_internal_dynamic_resizing@@@@QBEABV__crt_win32_buffer_empty_debug_info@@XZ 10089130 f i libucrtd:argv_wildcards.obj
 0001:00088140       ?debug_info@?$__crt_win32_buffer@_WU__crt_win32_buffer_internal_dynamic_resizing@@@@QBEABV__crt_win32_buffer_empty_debug_info@@XZ 10089140 f i libucrtd:argv_wildcards.obj
 0001:00088450       ?get@?$__crt_unique_handle_t@U__crt_findfile_traits@@@@QBEPAXXZ 10089450 f i libucrtd:argv_wildcards.obj
 0001:000884c0       ?get_invalid_value@__crt_findfile_traits@@SAPAXXZ 100894c0 f i libucrtd:argv_wildcards.obj
 0001:00088550       ?set_to_nullptr@?$__crt_win32_buffer@DU__crt_win32_buffer_internal_dynamic_resizing@@@@QAEXXZ 10089550 f i libucrtd:argv_wildcards.obj
 0001:00088590       ?set_to_nullptr@?$__crt_win32_buffer@_WU__crt_win32_buffer_internal_dynamic_resizing@@@@QAEXXZ 10089590 f i libucrtd:argv_wildcards.obj
 0001:000885d0       ?size@?$__crt_win32_buffer@DU__crt_win32_buffer_internal_dynamic_resizing@@@@QAEXI@Z 100895d0 f i libucrtd:argv_wildcards.obj
 0001:000885f0       ?size@?$__crt_win32_buffer@_WU__crt_win32_buffer_internal_dynamic_resizing@@@@QAEXI@Z 100895f0 f i libucrtd:argv_wildcards.obj
 0001:00088650       ?strpbrk@@YAPADQADQBD@Z    10089650 f i libucrtd:argv_wildcards.obj
 0001:00088670       ?wcspbrk@@YAPA_WPA_WPB_W@Z 10089670 f i libucrtd:argv_wildcards.obj
 0001:00088690       ___acrt_expand_narrow_argv_wildcards 10089690 f   libucrtd:argv_wildcards.obj
 0001:000886b0       ___acrt_expand_wide_argv_wildcards 100896b0 f   libucrtd:argv_wildcards.obj
 0001:00088790       ??$initialize_from_array@$$BY10BAA@E@?$dual_state_global@PAE@__crt_state_management@@QAAXAAY10BAA@E@Z 10089790 f i libucrtd:mbctype.obj
 0001:000887e0       ??$initialize_from_array@$$BY10BAB@E@?$dual_state_global@PAE@__crt_state_management@@QAAXAAY10BAB@E@Z 100897e0 f i libucrtd:mbctype.obj
 0001:00088a50       ?dangerous_get_state_array@?$dual_state_global@PAE@__crt_state_management@@QAEPAPAEXZ 10089a50 f i libucrtd:mbctype.obj
 0001:00088a60       ?dangerous_get_state_array@?$dual_state_global@PAU__crt_multibyte_data@@@__crt_state_management@@QAEPAPAU__crt_multibyte_data@@XZ 10089a60 f i libucrtd:mbctype.obj
 0001:00088b30       ?initialize@?$dual_state_global@PAU__crt_multibyte_data@@@__crt_state_management@@QAEXQAU__crt_multibyte_data@@@Z 10089b30 f i libucrtd:mbctype.obj
 0001:00089280       ?value@?$dual_state_global@PAE@__crt_state_management@@QAEAAPAEXZ 1008a280 f i libucrtd:mbctype.obj
 0001:000892a0       ___acrt_initialize_multibyte 1008a2a0 f   libucrtd:mbctype.obj
 0001:00089350       ___acrt_update_thread_multibyte_data 1008a350 f   libucrtd:mbctype.obj
 0001:00089370       ___p__mbcasemap            1008a370 f   libucrtd:mbctype.obj
 0001:00089390       ___p__mbctype              1008a390 f   libucrtd:mbctype.obj
 0001:000893b0       __getmbcp                  1008a3b0 f   libucrtd:mbctype.obj
 0001:00089420       __setmbcp                  1008a420 f   libucrtd:mbctype.obj
 0001:00089450       __setmbcp_nolock           1008a450 f   libucrtd:mbctype.obj
 0001:000899c1       __ismbbalnum               1008a9c1 f   libucrtd:ismbbyte.obj
 0001:000899dc       __ismbbalnum_l             1008a9dc f   libucrtd:ismbbyte.obj
 0001:000899f8       __ismbbalpha               1008a9f8 f   libucrtd:ismbbyte.obj
 0001:00089a13       __ismbbalpha_l             1008aa13 f   libucrtd:ismbbyte.obj
 0001:00089a2f       __ismbbblank               1008aa2f f   libucrtd:ismbbyte.obj
 0001:00089a52       __ismbbblank_l             1008aa52 f   libucrtd:ismbbyte.obj
 0001:00089a76       __ismbbgraph               1008aa76 f   libucrtd:ismbbyte.obj
 0001:00089a91       __ismbbgraph_l             1008aa91 f   libucrtd:ismbbyte.obj
 0001:00089aad       __ismbbkalnum              1008aaad f   libucrtd:ismbbyte.obj
