 OPOSBillAcceptor

 Timestamp is 5defa816 (Tue Dec 10 23:13:42 2019)

 Preferred load address is 10000000

 Start         Length     Name                   Class
 0001:00000000 00000d90H .text$di                CODE
 0001:00000d90 000a8c00H .text$mn                CODE
 0001:000a9990 000001c0H .text$x                 CODE
 0001:000a9b50 00000120H .text$yd                CODE
 0002:00000000 00000358H .idata$5                DATA
 0002:00000358 00000004H .00cfg                  DATA
 0002:0000035c 00000004H .CRT$XCA                DATA
 0002:00000360 00000004H .CRT$XCL                DATA
 0002:00000364 0000006cH .CRT$XCU                DATA
 0002:000003d0 00000004H .CRT$XCZ                DATA
 0002:000003d4 00000004H .CRT$XIA                DATA
 0002:000003d8 00000010H .CRT$XIC                DATA
 0002:000003e8 00000004H .CRT$XIZ                DATA
 0002:000003ec 00000004H .CRT$XLA                DATA
 0002:000003f0 00000004H .CRT$XLZ                DATA
 0002:000003f4 00000004H .CRT$XPA                DATA
 0002:000003f8 00000008H .CRT$XPX                DATA
 0002:00000400 00000004H .CRT$XPXA               DATA
 0002:00000404 00000004H .CRT$XPZ                DATA
 0002:00000408 00000004H .CRT$XTA                DATA
 0002:0000040c 00000004H .CRT$XTZ                DATA
 0002:00000410 00000000H .gfids$y                DATA
 0002:00000410 0002f66cH .rdata                  DATA
 0002:0002fa7c 00000018H .rdata$T                DATA
 0002:0002fa94 0000033cH .rdata$r                DATA
 0002:0002fdd0 00000044H .rdata$sxdata           DATA
 0002:0002fe14 00000408H .rdata$zzzdbg           DATA
 0002:0003021c 00000004H .rtc$IAA                DATA
 0002:00030220 00000018H .rtc$IMZ                DATA
 0002:00030238 00000004H .rtc$IZZ                DATA
 0002:0003023c 00000004H .rtc$TAA                DATA
 0002:00030240 00000018H .rtc$TMZ                DATA
 0002:00030258 00000004H .rtc$TZZ                DATA
 0002:0003025c 00000004H .tls                    DATA
 0002:00030260 00000004H .tls$                   DATA
 0002:00030264 00000004H .tls$ZZZ                DATA
 0002:00030268 00000e4cH .xdata$x                DATA
 0002:000310b4 00000004H ATL$__a                 DATA
 0002:000310b8 00000008H ATL$__z                 DATA
 0002:000310c0 000000b0H .edata                  DATA
 0002:00031170 00000078H .idata$2                DATA
 0002:000311e8 00000014H .idata$3                DATA
 0002:000311fc 00000358H .idata$4                DATA
 0002:00031554 00000d50H .idata$6                DATA
 0003:00000000 00000ba0H .data                   DATA
 0003:00000ba0 00000138H .data$r                 DATA
 0003:00000cd8 00003580H .bss                    DATA
 0004:00000000 00000220H .rsrc$01                DATA
 0004:00000220 00004110H .rsrc$02                DATA

  Address         Publics by Value              Rva+Base       Lib:Object

 0000:00000000       ___hybrid_code_map_count   00000000     <absolute>
 0000:00000000       ___dynamic_value_reloc_table 00000000     <absolute>
 0000:00000000       ___hybrid_code_map         00000000     <absolute>
 0000:00000000       ___guard_fids_table        00000000     <absolute>
 0000:00000000       ___guard_iat_table         00000000     <absolute>
 0000:00000000       ___guard_fids_count        00000000     <absolute>
 0000:00000000       ___enclave_config          00000000     <absolute>
 0000:00000000       ___AbsoluteZero            00000000     <absolute>
 0000:00000000       __except_list              00000000     <absolute>
 0000:00000000       ___guard_longjmp_count     00000000     <absolute>
 0000:00000000       ___volatile_metadata       00000000     <absolute>
 0000:00000000       ___guard_longjmp_table     00000000     <absolute>
 0000:00000000       ___hybrid_auxiliary_iat    00000000     <absolute>
 0000:00000000       ___guard_iat_count         00000000     <absolute>
 0000:00000011       ___safe_se_handler_count   00000011     <absolute>
 0000:0000002c       __tls_array                0000002c     <absolute>
 0000:00000100       ___guard_flags             00000100     <absolute>
 0000:00000000       ___ImageBase               10000000     <linker-defined>
 0001:00000d90       ?_assert@@YAXPB_W0I@Z      10001d90 f   Assert.obj
 0001:00000ec0       ___local_stdio_printf_options 10001ec0 f i Assert.obj
 0001:00000ed0       ___vswprintf_l             10001ed0 f i Assert.obj
 0001:00000f00       __swprintf                 10001f00 f i Assert.obj
 0001:00000f60       __vswprintf_c_l            10001f60 f i Assert.obj
 0001:00000fd0       __vswprintf_l              10001fd0 f i Assert.obj
 0001:00001000       ?cw_memcpy@@YGHPADPB_WH@Z  10002000 f   CWString.obj
 0001:00001060       ?cw_memcpy@@YGHPA_WPBDH@Z  10002060 f   CWString.obj
 0001:000010c0       ?cw_memcpy@@YGHPADPBDH@Z   100020c0 f   CWString.obj
 0001:00001110       ?cw_memcpy@@YGHPA_WPB_WH@Z 10002110 f   CWString.obj
 0001:00001150       ?cw_memset@@YAXPADDH@Z     10002150 f   CWString.obj
 0001:00001170       ?cw_memset@@YAXPA_W_WH@Z   10002170 f   CWString.obj
 0001:00001190       ?cw_strlen@@YAHPBD@Z       10002190 f   CWString.obj
 0001:000011e0       ?cw_strlen@@YAHPB_W@Z      100021e0 f   CWString.obj
 0001:00001230       ?cw_strcpy@@YAHPADPB_W@Z   10002230 f   CWString.obj
 0001:00001250       ?cw_strcpy@@YAHPA_WPBD@Z   10002250 f   CWString.obj
 0001:00001270       ?cw_strcpy@@YAHPADPBD@Z    10002270 f   CWString.obj
 0001:00001290       ?cw_strcpy@@YAHPA_WPB_W@Z  10002290 f   CWString.obj
 0001:000012b0       ?cw_strcat@@YAHPADPB_W@Z   100022b0 f   CWString.obj
 0001:000012e0       ?cw_strcat@@YAHPA_WPBD@Z   100022e0 f   CWString.obj
 0001:00001310       ?cw_strcat@@YAHPADPBD@Z    10002310 f   CWString.obj
 0001:00001340       ?cw_strcat@@YAHPA_WPB_W@Z  10002340 f   CWString.obj
 0001:00001370       ?cw_dup@@YGXPBDAAHAAPA_W1@Z 10002370 f   CWString.obj
 0001:00001430       ?cw_dup@@YGXPB_WAAHAAPAD1@Z 10002430 f   CWString.obj
 0001:000014e0       ?DupChar@_CW@@AAEXXZ       100024e0 f   CWString.obj
 0001:00001530       ?DupWide@_CW@@AAEXXZ       10002530 f   CWString.obj
 0001:00001580       ?GetCharsMbcs@_CW@@QAEHXZ  10002580 f   CWString.obj
 0001:000015e0       ?GetCharsWide@_CW@@QAEHXZ  100025e0 f   CWString.obj
 0001:00001640       ?SetVARIANT_BOOL@OposVariant@@QAEXF@Z 10002640 f   OposVariant.obj
 0001:000016a0       ?SetVARIANT_BOOL_Ptr@OposVariant@@QAEXPAFAAJ@Z 100026a0 f   OposVariant.obj
 0001:000016f0       ?GetLONG@OposVariant@@QAEJXZ 100026f0 f   OposVariant.obj
 0001:00001780       ?ChangeLONG@OposVariant@@QAEXPAJAAJ@Z 10002780 f   OposVariant.obj
 0001:00001840       ?SetLONG@OposVariant@@QAEXJ@Z 10002840 f   OposVariant.obj
 0001:00001880       ?SetLONG_Ptr@OposVariant@@QAEXPAJAAJ@Z 10002880 f   OposVariant.obj
 0001:000018d0       ?ChangeCURRENCY@OposVariant@@QAEXPATtagCY@@AAJ@Z 100028d0 f   OposVariant.obj
 0001:00001990       ?SetCURRENCY@OposVariant@@QAEXTtagCY@@@Z 10002990 f   OposVariant.obj
 0001:000019d0       ?SetCURRENCY_Ptr@OposVariant@@QAEXPATtagCY@@AAJ@Z 100029d0 f   OposVariant.obj
 0001:00001a20       ?ChangeBSTR@OposVariant@@QAEXPAPA_WAAJ@Z 10002a20 f   OposVariant.obj
 0001:00001ae0       ?SetBSTR@OposVariant@@QAEXPA_WAAJ@Z 10002ae0 f   OposVariant.obj
 0001:00001b30       ?SetBSTR_Copy@OposVariant@@QAEXPA_WAAJ@Z 10002b30 f   OposVariant.obj
 0001:00001bd0       ?SetBSTR_OutPtr@OposVariant@@QAE_NPAPA_WAAJ@Z 10002bd0 f   OposVariant.obj
 0001:00001c20       ?SetBSTR_InOutPtr@OposVariant@@QAE_NPAPA_WAAJ@Z 10002c20 f   OposVariant.obj
 0001:00001c70       ?SetVARIANT@OposVariant@@QAEXAAUtagVARIANT@@GAAJ@Z 10002c70 f   OposVariant.obj
 0001:00001cf0       ?SetVARIANT_Ptr@OposVariant@@QAEXAAPAUtagVARIANT@@GAAJ@Z 10002cf0 f   OposVariant.obj
 0001:00001d90       ?SetString@OposVariant@@QAEXPB_WAAJ@Z 10002d90 f   OposVariant.obj
 0001:00001e20       ?SetDispatch_Ptr@OposVariant@@QAEXPAUIDispatch@@AAJ@Z 10002e20 f   OposVariant.obj
 0001:00001e90       ??0OposDispParms@@QAE@PAVOposVariant@@H@Z 10002e90 f   OposVariant.obj
 0001:00001f60       ??1OposDispParms@@QAE@XZ   10002f60 f   OposVariant.obj
 0001:00001fb0       ??$AtlMultiply@I@ATL@@YAJPAIII@Z 10002fb0 f i OposVariant.obj
 0001:00002010       ??0?$CHeapPtr@_WVCCRTAllocator@ATL@@@ATL@@QAE@XZ 10003010 f i OposVariant.obj
 0001:00002040       ??0?$CHeapPtrBase@_WVCCRTAllocator@ATL@@@ATL@@IAE@XZ 10003040 f i OposVariant.obj
 0001:00002060       ??0?$CSimpleArray@GV?$CSimpleArrayEqualHelper@G@ATL@@@ATL@@QAE@XZ 10003060 f i OposVariant.obj
 0001:000020a0       ??0?$CTraceCategoryEx@$00$0A@@ATL@@QAE@PB_W@Z 100030a0 f i OposVariant.obj
 0001:000020d0       ??0?$CTraceCategoryEx@$01$0A@@ATL@@QAE@PB_W@Z 100030d0 f i OposVariant.obj
 0001:00002100       ??0?$CTraceCategoryEx@$03$0A@@ATL@@QAE@PB_W@Z 10003100 f i OposVariant.obj
 0001:00002130       ??0?$CTraceCategoryEx@$07$0A@@ATL@@QAE@PB_W@Z 10003130 f i OposVariant.obj
 0001:00002160       ??0?$CTraceCategoryEx@$0BA@$0A@@ATL@@QAE@PB_W@Z 10003160 f i OposVariant.obj
 0001:00002190       ??0?$CTraceCategoryEx@$0BAA@$0A@@ATL@@QAE@PB_W@Z 10003190 f i OposVariant.obj
 0001:000021d0       ??0?$CTraceCategoryEx@$0BAAA@$0A@@ATL@@QAE@PB_W@Z 100031d0 f i OposVariant.obj
 0001:00002210       ??0?$CTraceCategoryEx@$0BAAAA@$0A@@ATL@@QAE@PB_W@Z 10003210 f i OposVariant.obj
 0001:00002250       ??0?$CTraceCategoryEx@$0BAAAAA@$0A@@ATL@@QAE@PB_W@Z 10003250 f i OposVariant.obj
 0001:00002290       ??0?$CTraceCategoryEx@$0CA@$0A@@ATL@@QAE@PB_W@Z 10003290 f i OposVariant.obj
 0001:000022c0       ??0?$CTraceCategoryEx@$0CAA@$0A@@ATL@@QAE@PB_W@Z 100032c0 f i OposVariant.obj
 0001:00002300       ??0?$CTraceCategoryEx@$0CAAA@$0A@@ATL@@QAE@PB_W@Z 10003300 f i OposVariant.obj
 0001:00002340       ??0?$CTraceCategoryEx@$0CAAAA@$0A@@ATL@@QAE@PB_W@Z 10003340 f i OposVariant.obj
 0001:00002380       ??0?$CTraceCategoryEx@$0CAAAAA@$0A@@ATL@@QAE@PB_W@Z 10003380 f i OposVariant.obj
 0001:000023c0       ??0?$CTraceCategoryEx@$0EA@$0A@@ATL@@QAE@PB_W@Z 100033c0 f i OposVariant.obj
 0001:000023f0       ??0?$CTraceCategoryEx@$0EAA@$0A@@ATL@@QAE@PB_W@Z 100033f0 f i OposVariant.obj
 0001:00002430       ??0?$CTraceCategoryEx@$0EAAA@$0A@@ATL@@QAE@PB_W@Z 10003430 f i OposVariant.obj
 0001:00002470       ??0?$CTraceCategoryEx@$0EAAAA@$0A@@ATL@@QAE@PB_W@Z 10003470 f i OposVariant.obj
 0001:000024b0       ??0?$CTraceCategoryEx@$0EAAAAA@$0A@@ATL@@QAE@PB_W@Z 100034b0 f i OposVariant.obj
 0001:000024f0       ??0?$CTraceCategoryEx@$0IA@$0A@@ATL@@QAE@PB_W@Z 100034f0 f i OposVariant.obj
 0001:00002530       ??0?$CTraceCategoryEx@$0IAA@$0A@@ATL@@QAE@PB_W@Z 10003530 f i OposVariant.obj
 0001:00002570       ??0?$CTraceCategoryEx@$0IAAA@$0A@@ATL@@QAE@PB_W@Z 10003570 f i OposVariant.obj
 0001:000025b0       ??0?$CTraceCategoryEx@$0IAAAA@$0A@@ATL@@QAE@PB_W@Z 100035b0 f i OposVariant.obj
 0001:000025f0       ??0CAtlComModule@ATL@@QAE@XZ 100035f0 f i OposVariant.obj
 0001:000026d0       ??0CAtlWinModule@ATL@@QAE@XZ 100036d0 f i OposVariant.obj
 0001:00002760       ??0CComCriticalSection@ATL@@QAE@XZ 10003760 f i OposVariant.obj
 0001:00002790       ??0CPreserveLastError@ATL@@QAE@XZ 10003790 f i OposVariant.obj
 0001:000027d0       ??0CTraceFileAndLineInfo@ATL@@QAE@PBDH@Z 100037d0 f i OposVariant.obj
 0001:00002800       ??0_ATL_COM_MODULE70@ATL@@QAE@XZ 10003800 f i OposVariant.obj
 0001:00002830       ??0_ATL_WIN_MODULE70@ATL@@QAE@XZ 10003830 f i OposVariant.obj
 0001:00002870       ??1?$CHeapPtr@_WVCCRTAllocator@ATL@@@ATL@@QAE@XZ 10003870 f i OposVariant.obj
 0001:000028a0       ??1?$CHeapPtrBase@_WVCCRTAllocator@ATL@@@ATL@@QAE@XZ 100038a0 f i OposVariant.obj
 0001:000028d0       ??1?$CSimpleArray@GV?$CSimpleArrayEqualHelper@G@ATL@@@ATL@@QAE@XZ 100038d0 f i OposVariant.obj
 0001:00002900       ??1CAtlComModule@ATL@@QAE@XZ 10003900 f i OposVariant.obj
 0001:00002930       ??1CAtlWinModule@ATL@@QAE@XZ 10003930 f i OposVariant.obj
 0001:00002960       ??1CComBSTR@ATL@@QAE@XZ    10003960 f i OposVariant.obj
 0001:000029a0       ??1CComCriticalSection@ATL@@QAE@XZ 100039a0 f i OposVariant.obj
 0001:000029c0       ??1CPreserveLastError@ATL@@QAE@XZ 100039c0 f i OposVariant.obj
 0001:00002a00       ??1_ATL_COM_MODULE70@ATL@@QAE@XZ 10003a00 f i OposVariant.obj
 0001:00002a30       ??1_ATL_WIN_MODULE70@ATL@@QAE@XZ 10003a30 f i OposVariant.obj
 0001:00002a70       ??1stringdispid@CComTypeInfoHolder@ATL@@QAE@XZ 10003a70 f i OposVariant.obj
 0001:00002aa0       ??A?$CSimpleArray@GV?$CSimpleArrayEqualHelper@G@ATL@@@ATL@@QAEAAGH@Z 10003aa0 f i OposVariant.obj
 0001:00002b20       ??B?$CHeapPtrBase@_WVCCRTAllocator@ATL@@@ATL@@QBEPA_WXZ 10003b20 f i OposVariant.obj
 0001:00002b40       ??B?$CTraceCategoryEx@$01$0A@@ATL@@QAEIXZ 10003b40 f i OposVariant.obj
 0001:00002b60       ??B?$CTraceCategoryEx@$0CA@$0A@@ATL@@QAEIXZ 10003b60 f i OposVariant.obj
 0001:00002b80       ??RCTraceFileAndLineInfo@ATL@@QBAXHIPB_WZZ 10003b80 f i OposVariant.obj
 0001:00002c20       ??_Estringdispid@CComTypeInfoHolder@ATL@@QAEPAXI@Z 10003c20 f i OposVariant.obj
 0001:00002cb0       ??_H@YGXPAXIIP6EPAX0@Z@Z   10003cb0 f i OposVariant.obj
 0001:00002d20       ??_I@YGXPAXIIP6EX0@Z@Z     10003d20 f i OposVariant.obj
 0001:00002da0       ?Allocate@?$CHeapPtr@_WVCCRTAllocator@ATL@@@ATL@@QAE_NI@Z 10003da0 f i OposVariant.obj
 0001:00002e30       ?Allocate@CCRTAllocator@ATL@@SAPAXI@Z 10003e30 f i OposVariant.obj
 0001:00002e50       ?AllocateBytes@?$CHeapPtrBase@_WVCCRTAllocator@ATL@@@ATL@@QAE_NI@Z 10003e50 f i OposVariant.obj
 0001:00002ec0       ?AtlWinModuleInit@ATL@@YGJPAU_ATL_WIN_MODULE70@1@@Z 10003ec0 f i OposVariant.obj
 0001:00002f90       ?AtlWinModuleTerm@ATL@@YGJPAU_ATL_WIN_MODULE70@1@PAUHINSTANCE__@@@Z 10003f90 f i OposVariant.obj
 0001:00003050       ?Clear@OposVariant@@QAEJXZ 10004050 f i OposVariant.obj
 0001:00003090       ?Free@?$CHeapPtrBase@_WVCCRTAllocator@ATL@@@ATL@@QAEXXZ 10004090 f i OposVariant.obj
 0001:000030d0       ?Free@CCRTAllocator@ATL@@SAXPAX@Z 100040d0 f i OposVariant.obj
 0001:000030f0       ?GetCategoryName@CTrace@ATL@@CAPA_WI@Z 100040f0 f i OposVariant.obj
 0001:00003140       ?GetModuleInstance@CAtlBaseModule@ATL@@QAEPAUHINSTANCE__@@XZ 10004140 f i OposVariant.obj
 0001:00003160       ?GetSize@?$CSimpleArray@GV?$CSimpleArrayEqualHelper@G@ATL@@@ATL@@QBEHXZ 10004160 f i OposVariant.obj
 0001:00003180       ?Init@CComCriticalSection@ATL@@QAEJXZ 10004180 f i OposVariant.obj
 0001:000031e0       ?RegisterCategory@CTrace@ATL@@SAXPB_WI@Z 100041e0 f i OposVariant.obj
 0001:00003270       ?RemoveAll@?$CSimpleArray@GV?$CSimpleArrayEqualHelper@G@ATL@@@ATL@@QAEXXZ 10004270 f i OposVariant.obj
 0001:000032f0       ?Term@CAtlComModule@ATL@@QAEXXZ 100042f0 f i OposVariant.obj
 0001:000033b0       ?Term@CAtlWinModule@ATL@@QAEXXZ 100043b0 f i OposVariant.obj
 0001:000033e0       ?Term@CComCriticalSection@ATL@@QAEJXZ 100043e0 f i OposVariant.obj
 0001:00003420       ?TraceV@CTrace@ATL@@CAXPBDHIIPB_W@Z 10004420 f i OposVariant.obj
 0001:000036a0       ?TraceV@CTrace@ATL@@SAXPBDHIIPB_WPAD@Z 100046a0 f i OposVariant.obj
 0001:000037e0       ?_AtlInitializeCriticalSectionEx@ATL@@YAHPAU_RTL_CRITICAL_SECTION@@KK@Z 100047e0 f i OposVariant.obj
 0001:00003810       ?_AtlRaiseException@ATL@@YAXKK@Z 10004810 f i OposVariant.obj
 0001:00003840       _HRESULT_FROM_WIN32        10004840 f i OposVariant.obj
 0001:00003880       __vswprintf_s_l            10004880 f i OposVariant.obj
 0001:000038f0       _swprintf_s                100048f0 f i OposVariant.obj
 0001:00003950       ?ObjectMain@CComObjectRootBase@ATL@@SGX_N@Z 10004950 f i BillAcceptor.obj
 0001:00003960       ?GetCategoryMap@CComObjectRootBase@ATL@@SAPBU_ATL_CATMAP_ENTRY@2@XZ 10004960 f i BillAcceptor.obj
 0001:00003970       ?GetObjectDescription@?$CComCoClass@VCOPOSBillAcceptor@@$1?CLSID_OPOSBillAcceptor@@3U_GUID@@B@ATL@@SGPB_WXZ 10004970 f i BillAcceptor.obj
 0001:00003980       ?UpdateRegistry@COPOSBillAcceptor@@SGJH@Z 10004980 f i BillAcceptor.obj
 0001:000039a0       ?CreateInstance@?$CComCreator@V?$CComObjectCached@VCComClassFactory@ATL@@@ATL@@@ATL@@SGJPAXABU_GUID@@PAPAX@Z 100049a0 f i BillAcceptor.obj
 0001:00003b20       ?CreateInstance@?$CComCreator2@V?$CComCreator@V?$CComObject@VCOPOSBillAcceptor@@@ATL@@@ATL@@V?$CComCreator@V?$CComAggObject@VCOPOSBillAcceptor@@@ATL@@@2@@ATL@@SGJPAXABU_GUID@@PAPAX@Z 10004b20 f i BillAcceptor.obj
 0001:00003cd0       _DllGetClassObject@12      10004cd0 f   BillAcceptor.obj
 0001:00003d00       _DllCanUnloadNow@0         10004d00 f   BillAcceptor.obj
 0001:00003d40       _DllRegisterServer@0       10004d40 f   BillAcceptor.obj
 0001:00003d60       _DllUnregisterServer@0     10004d60 f   BillAcceptor.obj
 0001:00003ef0       _DllMain@12                10004ef0 f   BillAcceptor.obj
 0001:00003f50       ??$?2G@Wrapper@?$CSimpleArray@GV?$CSimpleArrayEqualHelper@G@ATL@@@ATL@@SAPAXIPAG@Z 10004f50 f i BillAcceptor.obj
 0001:00003f60       ??$?2PA_W@?$Wrapper@PA_W@?$CSimpleMap@PA_WPA_WVCExpansionVectorEqualHelper@ATL@@@ATL@@SAPAXIPAPA_W@Z 10004f60 f i BillAcceptor.obj
 0001:00003f70       ??$?4UITypeInfo2@@@?$CComPtr@UITypeInfo@@@ATL@@QAEPAUITypeInfo@@ABV?$CComPtr@UITypeInfo2@@@1@@Z 10004f70 f i BillAcceptor.obj
 0001:00003fd0       ??$AtlAdd@K@ATL@@YAJPAKKK@Z 10004fd0 f i BillAcceptor.obj
 0001:00004010       ??$AtlAdd@_K@ATL@@YAJPA_K_K1@Z 10005010 f i BillAcceptor.obj
 0001:00004080       ??$AtlAddThrow@K@ATL@@YAKKK@Z 10005080 f i BillAcceptor.obj
 0001:00004100       ??$AtlModuleRegisterWndClassInfoT@VAtlModuleRegisterWndClassInfoParamW@ATL@@@ATL@@YAGPAU_ATL_BASE_MODULE70@0@PAU_ATL_WIN_MODULE70@0@PAU_ATL_WNDCLASSINFOW@0@PAP6GJPAUHWND__@@IIJ@ZVAtlModuleRegisterWndClassInfoParamW@0@@Z 10005100 f i BillAcceptor.obj
 0001:00004510       ??$AtlMultiply@H@ATL@@YAJPAHHH@Z 10005510 f i BillAcceptor.obj
 0001:00004590       ??$AtlMultiply@K@ATL@@YAJPAKKK@Z 10005590 f i BillAcceptor.obj
 0001:000045f0       ??$AtlMultiplyThrow@I@ATL@@YAIII@Z 100055f0 f i BillAcceptor.obj
 0001:00004670       ??$QueryInterface@UIPersistStream@@@IUnknown@@QAGJPAPAUIPersistStream@@@Z 10005670 f i BillAcceptor.obj
 0001:000046a0       ??$QueryInterface@UITypeInfo2@@@IUnknown@@QAGJPAPAUITypeInfo2@@@Z 100056a0 f i BillAcceptor.obj
 0001:000046d0       ??0?$CAtlModuleT@VCComModule@ATL@@@ATL@@QAE@XZ 100056d0 f i BillAcceptor.obj
 0001:00004700       ??0?$CAtlSafeAllocBufferManager@VCCRTAllocator@ATL@@@_ATL_SAFE_ALLOCA_IMPL@ATL@@QAE@XZ 10005700 f i BillAcceptor.obj
 0001:00004720       ??0?$CAutoVectorPtr@_W@ATL@@QAE@XZ 10005720 f i BillAcceptor.obj
 0001:00004740       ??0?$CComAggObject@VCOPOSBillAcceptor@@@ATL@@QAE@PAX@Z 10005740 f i BillAcceptor.obj
 0001:000047b0       ??0?$CComContainedObject@VCOPOSBillAcceptor@@@ATL@@QAE@PAX@Z 100057b0 f i BillAcceptor.obj
 0001:000048c0       ??0?$CComCritSecLock@VCComCriticalSection@ATL@@@ATL@@QAE@AAVCComCriticalSection@1@_N@Z 100058c0 f i BillAcceptor.obj
 0001:00004920       ??0?$CComEnum@UIEnumConnectionPoints@@$1?_GUID_b196b285_bab4_101a_b69c_00aa00341d07@@3U__s_GUID@@BPAUIConnectionPoint@@V?$_CopyInterface@UIConnectionPoint@@@ATL@@VCComSingleThreadModel@6@@ATL@@QAE@XZ 10005920 f i BillAcceptor.obj
 0001:00004960       ??0?$CComEnum@UIEnumConnections@@$1?_GUID_b196b287_bab4_101a_b69c_00aa00341d07@@3U__s_GUID@@BUtagCONNECTDATA@@V?$_Copy@UtagCONNECTDATA@@@ATL@@VCComSingleThreadModel@6@@ATL@@QAE@XZ 10005960 f i BillAcceptor.obj
 0001:000049a0       ??0?$CComEnumImpl@UIEnumConnectionPoints@@$1?_GUID_b196b285_bab4_101a_b69c_00aa00341d07@@3U__s_GUID@@BPAUIConnectionPoint@@V?$_CopyInterface@UIConnectionPoint@@@ATL@@@ATL@@QAE@XZ 100059a0 f i BillAcceptor.obj
 0001:00004a00       ??0?$CComEnumImpl@UIEnumConnections@@$1?_GUID_b196b287_bab4_101a_b69c_00aa00341d07@@3U__s_GUID@@BUtagCONNECTDATA@@V?$_Copy@UtagCONNECTDATA@@@ATL@@@ATL@@QAE@XZ 10005a00 f i BillAcceptor.obj
 0001:00004a60       ??0?$CComObject@V?$CComEnum@UIEnumConnectionPoints@@$1?_GUID_b196b285_bab4_101a_b69c_00aa00341d07@@3U__s_GUID@@BPAUIConnectionPoint@@V?$_CopyInterface@UIConnectionPoint@@@ATL@@VCComSingleThreadModel@6@@ATL@@@ATL@@QAE@PAX@Z 10005a60 f i BillAcceptor.obj
 0001:00004ab0       ??0?$CComObject@V?$CComEnum@UIEnumConnections@@$1?_GUID_b196b287_bab4_101a_b69c_00aa00341d07@@3U__s_GUID@@BUtagCONNECTDATA@@V?$_Copy@UtagCONNECTDATA@@@ATL@@VCComSingleThreadModel@6@@ATL@@@ATL@@QAE@PAX@Z 10005ab0 f i BillAcceptor.obj
 0001:00004b00       ??0?$CComObject@VCOPOSBillAcceptor@@@ATL@@QAE@PAX@Z 10005b00 f i BillAcceptor.obj
 0001:00004c20       ??0?$CComObjectCached@VCComClassFactory@ATL@@@ATL@@QAE@PAX@Z 10005c20 f i BillAcceptor.obj
 0001:00004c60       ??0?$CComObjectRootEx@VCComMultiThreadModel@ATL@@@ATL@@QAE@XZ 10005c60 f i BillAcceptor.obj
 0001:00004ca0       ??0?$CComObjectRootEx@VCComSingleThreadModel@ATL@@@ATL@@QAE@XZ 10005ca0 f i BillAcceptor.obj
 0001:00004cd0       ??0?$CComPtr@UIAdviseSink@@@ATL@@QAE@PAUIAdviseSink@@@Z 10005cd0 f i BillAcceptor.obj
 0001:00004d00       ??0?$CComPtr@UICatRegister@@@ATL@@QAE@XZ 10005d00 f i BillAcceptor.obj
 0001:00004d30       ??0?$CComPtr@UIConnectionPoint@@@ATL@@QAE@XZ 10005d30 f i BillAcceptor.obj
 0001:00004d60       ??0?$CComPtr@UIConnectionPointContainer@@@ATL@@QAE@XZ 10005d60 f i BillAcceptor.obj
 0001:00004d90       ??0?$CComPtr@UIDataObject@@@ATL@@QAE@XZ 10005d90 f i BillAcceptor.obj
 0001:00004dc0       ??0?$CComPtr@UIDispatch@@@ATL@@QAE@XZ 10005dc0 f i BillAcceptor.obj
 0001:00004df0       ??0?$CComPtr@UIOleClientSite@@@ATL@@QAE@PAUIOleClientSite@@@Z 10005df0 f i BillAcceptor.obj
 0001:00004e20       ??0?$CComPtr@UIOleControlSite@@@ATL@@QAE@XZ 10005e20 f i BillAcceptor.obj
 0001:00004e50       ??0?$CComPtr@UIOleInPlaceActiveObject@@@ATL@@QAE@XZ 10005e50 f i BillAcceptor.obj
 0001:00004e80       ??0?$CComPtr@UIOleInPlaceFrame@@@ATL@@QAE@XZ 10005e80 f i BillAcceptor.obj
 0001:00004eb0       ??0?$CComPtr@UIOleInPlaceObject@@@ATL@@QAE@XZ 10005eb0 f i BillAcceptor.obj
 0001:00004ee0       ??0?$CComPtr@UIOleInPlaceUIWindow@@@ATL@@QAE@XZ 10005ee0 f i BillAcceptor.obj
 0001:00004f10       ??0?$CComPtr@UIOleObject@@@ATL@@QAE@XZ 10005f10 f i BillAcceptor.obj
 0001:00004f40       ??0?$CComPtr@UIPersistStream@@@ATL@@QAE@XZ 10005f40 f i BillAcceptor.obj
 0001:00004f70       ??0?$CComPtr@UIPersistStreamInit@@@ATL@@QAE@XZ 10005f70 f i BillAcceptor.obj
 0001:00004fa0       ??0?$CComPtr@UIPointerInactive@@@ATL@@QAE@XZ 10005fa0 f i BillAcceptor.obj
 0001:00004fd0       ??0?$CComPtr@UIProvideClassInfo2@@@ATL@@QAE@XZ 10005fd0 f i BillAcceptor.obj
 0001:00005000       ??0?$CComPtr@UISpecifyPropertyPages@@@ATL@@QAE@XZ 10006000 f i BillAcceptor.obj
 0001:00005030       ??0?$CComPtr@UIStream@@@ATL@@QAE@XZ 10006030 f i BillAcceptor.obj
 0001:00005060       ??0?$CComPtr@UITypeInfo2@@@ATL@@QAE@XZ 10006060 f i BillAcceptor.obj
 0001:00005090       ??0?$CComPtr@UITypeInfo@@@ATL@@QAE@ABV01@@Z 10006090 f i BillAcceptor.obj
 0001:000050c0       ??0?$CComPtr@UITypeInfo@@@ATL@@QAE@XZ 100060c0 f i BillAcceptor.obj
 0001:000050f0       ??0?$CComPtr@UITypeLib@@@ATL@@QAE@XZ 100060f0 f i BillAcceptor.obj
 0001:00005120       ??0?$CComPtr@UIUnknown@@@ATL@@QAE@ABV01@@Z 10006120 f i BillAcceptor.obj
 0001:00005150       ??0?$CComPtr@UIUnknown@@@ATL@@QAE@PAUIUnknown@@@Z 10006150 f i BillAcceptor.obj
 0001:00005180       ??0?$CComPtr@UIUnknown@@@ATL@@QAE@XZ 10006180 f i BillAcceptor.obj
 0001:000051b0       ??0?$CComPtr@UIViewObjectEx@@@ATL@@QAE@XZ 100061b0 f i BillAcceptor.obj
 0001:000051e0       ??0?$CComPtrBase@UIAdviseSink@@@ATL@@IAE@PAUIAdviseSink@@@Z 100061e0 f i BillAcceptor.obj
 0001:00005230       ??0?$CComPtrBase@UICatRegister@@@ATL@@IAE@XZ 10006230 f i BillAcceptor.obj
 0001:00005250       ??0?$CComPtrBase@UIConnectionPoint@@@ATL@@IAE@XZ 10006250 f i BillAcceptor.obj
 0001:00005270       ??0?$CComPtrBase@UIConnectionPointContainer@@@ATL@@IAE@XZ 10006270 f i BillAcceptor.obj
 0001:00005290       ??0?$CComPtrBase@UIDataObject@@@ATL@@IAE@XZ 10006290 f i BillAcceptor.obj
 0001:000052b0       ??0?$CComPtrBase@UIDispatch@@@ATL@@IAE@XZ 100062b0 f i BillAcceptor.obj
 0001:000052d0       ??0?$CComPtrBase@UIOleClientSite@@@ATL@@IAE@PAUIOleClientSite@@@Z 100062d0 f i BillAcceptor.obj
 0001:00005320       ??0?$CComPtrBase@UIOleControlSite@@@ATL@@IAE@XZ 10006320 f i BillAcceptor.obj
 0001:00005340       ??0?$CComPtrBase@UIOleInPlaceActiveObject@@@ATL@@IAE@XZ 10006340 f i BillAcceptor.obj
 0001:00005360       ??0?$CComPtrBase@UIOleInPlaceFrame@@@ATL@@IAE@XZ 10006360 f i BillAcceptor.obj
 0001:00005380       ??0?$CComPtrBase@UIOleInPlaceObject@@@ATL@@IAE@XZ 10006380 f i BillAcceptor.obj
 0001:000053a0       ??0?$CComPtrBase@UIOleInPlaceUIWindow@@@ATL@@IAE@XZ 100063a0 f i BillAcceptor.obj
 0001:000053c0       ??0?$CComPtrBase@UIOleObject@@@ATL@@IAE@XZ 100063c0 f i BillAcceptor.obj
 0001:000053e0       ??0?$CComPtrBase@UIPersistStream@@@ATL@@IAE@XZ 100063e0 f i BillAcceptor.obj
 0001:00005400       ??0?$CComPtrBase@UIPersistStreamInit@@@ATL@@IAE@XZ 10006400 f i BillAcceptor.obj
 0001:00005420       ??0?$CComPtrBase@UIPointerInactive@@@ATL@@IAE@XZ 10006420 f i BillAcceptor.obj
 0001:00005440       ??0?$CComPtrBase@UIProvideClassInfo2@@@ATL@@IAE@XZ 10006440 f i BillAcceptor.obj
 0001:00005460       ??0?$CComPtrBase@UISpecifyPropertyPages@@@ATL@@IAE@XZ 10006460 f i BillAcceptor.obj
 0001:00005480       ??0?$CComPtrBase@UIStream@@@ATL@@IAE@XZ 10006480 f i BillAcceptor.obj
 0001:000054a0       ??0?$CComPtrBase@UITypeInfo2@@@ATL@@IAE@XZ 100064a0 f i BillAcceptor.obj
 0001:000054c0       ??0?$CComPtrBase@UITypeInfo@@@ATL@@IAE@PAUITypeInfo@@@Z 100064c0 f i BillAcceptor.obj
 0001:00005510       ??0?$CComPtrBase@UITypeInfo@@@ATL@@IAE@XZ 10006510 f i BillAcceptor.obj
 0001:00005530       ??0?$CComPtrBase@UITypeLib@@@ATL@@IAE@XZ 10006530 f i BillAcceptor.obj
 0001:00005550       ??0?$CComPtrBase@UIUnknown@@@ATL@@IAE@PAUIUnknown@@@Z 10006550 f i BillAcceptor.obj
 0001:000055a0       ??0?$CComPtrBase@UIUnknown@@@ATL@@IAE@XZ 100065a0 f i BillAcceptor.obj
 0001:000055c0       ??0?$CComPtrBase@UIViewObjectEx@@@ATL@@IAE@XZ 100065c0 f i BillAcceptor.obj
 0001:000055e0       ??0?$CComQIPtr@UIOleControlSite@@$1?_GUID_b196b289_bab4_101a_b69c_00aa00341d07@@3U__s_GUID@@B@ATL@@QAE@PAUIUnknown@@@Z 100065e0 f i BillAcceptor.obj
 0001:00005640       ??0?$CComQIPtr@UIOleObject@@$1?_GUID_00000112_0000_0000_c000_000000000046@@3U__s_GUID@@B@ATL@@QAE@XZ 10006640 f i BillAcceptor.obj
 0001:00005670       ??0?$CComQIPtr@UISpecifyPropertyPages@@$1?_GUID_b196b28b_bab4_101a_b69c_00aa00341d07@@3U__s_GUID@@B@ATL@@QAE@XZ 10006670 f i BillAcceptor.obj
 0001:000056a0       ??0?$CSimpleMap@PA_WPA_WVCExpansionVectorEqualHelper@ATL@@@ATL@@QAE@XZ 100066a0 f i BillAcceptor.obj
 0001:000056e0       ??0?$CTempBuffer@E$0BAA@VCCRTAllocator@ATL@@@ATL@@QAE@XZ 100066e0 f i BillAcceptor.obj
 0001:00005700       ??0?$CTempBuffer@_W$0BAA@VCCRTAllocator@ATL@@@ATL@@QAE@XZ 10006700 f i BillAcceptor.obj
 0001:00005720       ??0?$CTempBuffer@_W$0EAA@VCCRTAllocator@ATL@@@ATL@@QAE@XZ 10006720 f i BillAcceptor.obj
 0001:00005740       ??0?$Wrapper@PA_W@?$CSimpleMap@PA_WPA_WVCExpansionVectorEqualHelper@ATL@@@ATL@@QAE@ABQA_W@Z 10006740 f i BillAcceptor.obj
 0001:00005770       ??0CAtlModule@ATL@@QAE@XZ  10006770 f i BillAcceptor.obj
 0001:00005890       ??0CComAutoDeleteCriticalSection@ATL@@QAE@XZ 10006890 f i BillAcceptor.obj
 0001:000058c0       ??0CComBSTR@ATL@@QAE@XZ    100068c0 f i BillAcceptor.obj
 0001:000058e0       ??0CComClassFactory@ATL@@QAE@XZ 100068e0 f i BillAcceptor.obj
 0001:00005920       ??0CComModule@ATL@@QAE@XZ  10006920 f i BillAcceptor.obj
 0001:00005990       ??0CComObjectRootBase@ATL@@QAE@XZ 10006990 f i BillAcceptor.obj
 0001:000059b0       ??0CComSafeDeleteCriticalSection@ATL@@QAE@XZ 100069b0 f i BillAcceptor.obj
 0001:000059e0       ??0CComVariant@ATL@@QAE@XZ 100069e0 f i BillAcceptor.obj
 0001:00005a30       ??0CExpansionVector@ATL@@QAE@XZ 10006a30 f i BillAcceptor.obj
 0001:00005a60       ??0CParseBuffer@CRegParser@ATL@@QAE@H@Z 10006a60 f i BillAcceptor.obj
 0001:00005ad0       ??0CRegKey@ATL@@QAE@PAUHKEY__@@@Z 10006ad0 f i BillAcceptor.obj
 0001:00005b10       ??0CRegKey@ATL@@QAE@PAVCAtlTransactionManager@1@@Z 10006b10 f i BillAcceptor.obj
 0001:00005b50       ??0CRegObject@ATL@@QAE@XZ  10006b50 f i BillAcceptor.obj
 0001:00005b90       ??0CRegParser@ATL@@QAE@PAVCRegObject@1@@Z 10006b90 f i BillAcceptor.obj
 0001:00005bc0       ??0IClassFactory@@QAE@XZ   10006bc0 f i BillAcceptor.obj
 0001:00005bf0       ??0IEnumConnectionPoints@@QAE@XZ 10006bf0 f i BillAcceptor.obj
 0001:00005c20       ??0IEnumConnections@@QAE@XZ 10006c20 f i BillAcceptor.obj
 0001:00005c50       ??0IRegistrarBase@@QAE@XZ  10006c50 f i BillAcceptor.obj
 0001:00005c80       ??0IUnknown@@QAE@XZ        10006c80 f i BillAcceptor.obj
 0001:00005ca0       ??0ModuleLockHelper@ATL@@QAE@XZ 10006ca0 f i BillAcceptor.obj
 0001:00005ce0       ??0OposVariant@@QAE@XZ     10006ce0 f i BillAcceptor.obj
 0001:00005d10       ??0Wrapper@?$CSimpleArray@GV?$CSimpleArrayEqualHelper@G@ATL@@@ATL@@QAE@ABG@Z 10006d10 f i BillAcceptor.obj
 0001:00005d40       ??0_ATL_MODULE70@ATL@@QAE@XZ 10006d40 f i BillAcceptor.obj
 0001:00005d70       ??0_ATL_MSG@ATL@@QAE@PAUHWND__@@IIJH@Z 10006d70 f i BillAcceptor.obj
 0001:00005de0       ??0_U_MENUorID@ATL@@QAE@I@Z 10006de0 f i BillAcceptor.obj
 0001:00005e00       ??0_U_RECT@ATL@@QAE@AAUtagRECT@@@Z 10006e00 f i BillAcceptor.obj
 0001:00005e20       ??0stringdispid@CComTypeInfoHolder@ATL@@QAE@XZ 10006e20 f i BillAcceptor.obj
 0001:00005e60       ??1?$CAtlModuleT@VCComModule@ATL@@@ATL@@UAE@XZ 10006e60 f i BillAcceptor.obj
 0001:00005e90       ??1?$CAtlSafeAllocBufferManager@VCCRTAllocator@ATL@@@_ATL_SAFE_ALLOCA_IMPL@ATL@@QAE@XZ 10006e90 f i BillAcceptor.obj
 0001:00005ee0       ??1?$CAutoVectorPtr@_W@ATL@@QAE@XZ 10006ee0 f i BillAcceptor.obj
 0001:00005f10       ??1?$CComAggObject@VCOPOSBillAcceptor@@@ATL@@UAE@XZ 10006f10 f i BillAcceptor.obj
 0001:00005f80       ??1?$CComContainedObject@VCOPOSBillAcceptor@@@ATL@@UAE@XZ 10006f80 f i BillAcceptor.obj
 0001:00005fb0       ??1?$CComCritSecLock@VCComCriticalSection@ATL@@@ATL@@QAE@XZ 10006fb0 f i BillAcceptor.obj
 0001:00005fe0       ??1?$CComEnum@UIEnumConnectionPoints@@$1?_GUID_b196b285_bab4_101a_b69c_00aa00341d07@@3U__s_GUID@@BPAUIConnectionPoint@@V?$_CopyInterface@UIConnectionPoint@@@ATL@@VCComSingleThreadModel@6@@ATL@@UAE@XZ 10006fe0 f i BillAcceptor.obj
 0001:00006010       ??1?$CComEnum@UIEnumConnections@@$1?_GUID_b196b287_bab4_101a_b69c_00aa00341d07@@3U__s_GUID@@BUtagCONNECTDATA@@V?$_Copy@UtagCONNECTDATA@@@ATL@@VCComSingleThreadModel@6@@ATL@@UAE@XZ 10007010 f i BillAcceptor.obj
 0001:00006040       ??1?$CComEnumImpl@UIEnumConnectionPoints@@$1?_GUID_b196b285_bab4_101a_b69c_00aa00341d07@@3U__s_GUID@@BPAUIConnectionPoint@@V?$_CopyInterface@UIConnectionPoint@@@ATL@@@ATL@@UAE@XZ 10007040 f i BillAcceptor.obj
 0001:000060d0       ??1?$CComEnumImpl@UIEnumConnections@@$1?_GUID_b196b287_bab4_101a_b69c_00aa00341d07@@3U__s_GUID@@BUtagCONNECTDATA@@V?$_Copy@UtagCONNECTDATA@@@ATL@@@ATL@@UAE@XZ 100070d0 f i BillAcceptor.obj
 0001:00006160       ??1?$CComObject@V?$CComEnum@UIEnumConnectionPoints@@$1?_GUID_b196b285_bab4_101a_b69c_00aa00341d07@@3U__s_GUID@@BPAUIConnectionPoint@@V?$_CopyInterface@UIConnectionPoint@@@ATL@@VCComSingleThreadModel@6@@ATL@@@ATL@@UAE@XZ 10007160 f i BillAcceptor.obj
 0001:000061c0       ??1?$CComObject@V?$CComEnum@UIEnumConnections@@$1?_GUID_b196b287_bab4_101a_b69c_00aa00341d07@@3U__s_GUID@@BUtagCONNECTDATA@@V?$_Copy@UtagCONNECTDATA@@@ATL@@VCComSingleThreadModel@6@@ATL@@@ATL@@UAE@XZ 100071c0 f i BillAcceptor.obj
 0001:00006220       ??1?$CComObject@VCOPOSBillAcceptor@@@ATL@@UAE@XZ 10007220 f i BillAcceptor.obj
 0001:00006360       ??1?$CComObjectCached@VCComClassFactory@ATL@@@ATL@@UAE@XZ 10007360 f i BillAcceptor.obj
 0001:000063b0       ??1?$CComObjectRootEx@VCComMultiThreadModel@ATL@@@ATL@@QAE@XZ 100073b0 f i BillAcceptor.obj
 0001:000063e0       ??1?$CComObjectRootEx@VCComSingleThreadModel@ATL@@@ATL@@QAE@XZ 100073e0 f i BillAcceptor.obj
 0001:00006410       ??1?$CComPtr@UIAdviseSink@@@ATL@@QAE@XZ 10007410 f i BillAcceptor.obj
 0001:00006440       ??1?$CComPtr@UICatRegister@@@ATL@@QAE@XZ 10007440 f i BillAcceptor.obj
 0001:00006470       ??1?$CComPtr@UIConnectionPoint@@@ATL@@QAE@XZ 10007470 f i BillAcceptor.obj
 0001:000064a0       ??1?$CComPtr@UIConnectionPointContainer@@@ATL@@QAE@XZ 100074a0 f i BillAcceptor.obj
 0001:000064d0       ??1?$CComPtr@UIDataObject@@@ATL@@QAE@XZ 100074d0 f i BillAcceptor.obj
 0001:00006500       ??1?$CComPtr@UIDispatch@@@ATL@@QAE@XZ 10007500 f i BillAcceptor.obj
 0001:00006530       ??1?$CComPtr@UIOleClientSite@@@ATL@@QAE@XZ 10007530 f i BillAcceptor.obj
 0001:00006560       ??1?$CComPtr@UIOleControlSite@@@ATL@@QAE@XZ 10007560 f i BillAcceptor.obj
 0001:00006590       ??1?$CComPtr@UIOleInPlaceActiveObject@@@ATL@@QAE@XZ 10007590 f i BillAcceptor.obj
 0001:000065c0       ??1?$CComPtr@UIOleInPlaceFrame@@@ATL@@QAE@XZ 100075c0 f i BillAcceptor.obj
 0001:000065f0       ??1?$CComPtr@UIOleInPlaceObject@@@ATL@@QAE@XZ 100075f0 f i BillAcceptor.obj
 0001:00006620       ??1?$CComPtr@UIOleInPlaceUIWindow@@@ATL@@QAE@XZ 10007620 f i BillAcceptor.obj
 0001:00006650       ??1?$CComPtr@UIOleObject@@@ATL@@QAE@XZ 10007650 f i BillAcceptor.obj
 0001:00006680       ??1?$CComPtr@UIPersistStream@@@ATL@@QAE@XZ 10007680 f i BillAcceptor.obj
 0001:000066b0       ??1?$CComPtr@UIPersistStreamInit@@@ATL@@QAE@XZ 100076b0 f i BillAcceptor.obj
 0001:000066e0       ??1?$CComPtr@UIPointerInactive@@@ATL@@QAE@XZ 100076e0 f i BillAcceptor.obj
 0001:00006710       ??1?$CComPtr@UIProvideClassInfo2@@@ATL@@QAE@XZ 10007710 f i BillAcceptor.obj
 0001:00006740       ??1?$CComPtr@UISpecifyPropertyPages@@@ATL@@QAE@XZ 10007740 f i BillAcceptor.obj
 0001:00006770       ??1?$CComPtr@UIStream@@@ATL@@QAE@XZ 10007770 f i BillAcceptor.obj
 0001:000067a0       ??1?$CComPtr@UITypeInfo2@@@ATL@@QAE@XZ 100077a0 f i BillAcceptor.obj
 0001:000067d0       ??1?$CComPtr@UITypeInfo@@@ATL@@QAE@XZ 100077d0 f i BillAcceptor.obj
 0001:00006800       ??1?$CComPtr@UITypeLib@@@ATL@@QAE@XZ 10007800 f i BillAcceptor.obj
 0001:00006830       ??1?$CComPtr@UIUnknown@@@ATL@@QAE@XZ 10007830 f i BillAcceptor.obj
 0001:00006860       ??1?$CComPtr@UIViewObjectEx@@@ATL@@QAE@XZ 10007860 f i BillAcceptor.obj
 0001:00006890       ??1?$CComPtrBase@UIAdviseSink@@@ATL@@QAE@XZ 10007890 f i BillAcceptor.obj
 0001:000068e0       ??1?$CComPtrBase@UICatRegister@@@ATL@@QAE@XZ 100078e0 f i BillAcceptor.obj
 0001:00006930       ??1?$CComPtrBase@UIConnectionPoint@@@ATL@@QAE@XZ 10007930 f i BillAcceptor.obj
 0001:00006980       ??1?$CComPtrBase@UIConnectionPointContainer@@@ATL@@QAE@XZ 10007980 f i BillAcceptor.obj
 0001:000069d0       ??1?$CComPtrBase@UIDataObject@@@ATL@@QAE@XZ 100079d0 f i BillAcceptor.obj
 0001:00006a20       ??1?$CComPtrBase@UIDispatch@@@ATL@@QAE@XZ 10007a20 f i BillAcceptor.obj
 0001:00006a70       ??1?$CComPtrBase@UIOleClientSite@@@ATL@@QAE@XZ 10007a70 f i BillAcceptor.obj
 0001:00006ac0       ??1?$CComPtrBase@UIOleControlSite@@@ATL@@QAE@XZ 10007ac0 f i BillAcceptor.obj
 0001:00006b10       ??1?$CComPtrBase@UIOleInPlaceActiveObject@@@ATL@@QAE@XZ 10007b10 f i BillAcceptor.obj
 0001:00006b60       ??1?$CComPtrBase@UIOleInPlaceFrame@@@ATL@@QAE@XZ 10007b60 f i BillAcceptor.obj
 0001:00006bb0       ??1?$CComPtrBase@UIOleInPlaceObject@@@ATL@@QAE@XZ 10007bb0 f i BillAcceptor.obj
 0001:00006c00       ??1?$CComPtrBase@UIOleInPlaceUIWindow@@@ATL@@QAE@XZ 10007c00 f i BillAcceptor.obj
 0001:00006c50       ??1?$CComPtrBase@UIOleObject@@@ATL@@QAE@XZ 10007c50 f i BillAcceptor.obj
 0001:00006ca0       ??1?$CComPtrBase@UIPersistStream@@@ATL@@QAE@XZ 10007ca0 f i BillAcceptor.obj
 0001:00006cf0       ??1?$CComPtrBase@UIPersistStreamInit@@@ATL@@QAE@XZ 10007cf0 f i BillAcceptor.obj
 0001:00006d40       ??1?$CComPtrBase@UIPointerInactive@@@ATL@@QAE@XZ 10007d40 f i BillAcceptor.obj
 0001:00006d90       ??1?$CComPtrBase@UIProvideClassInfo2@@@ATL@@QAE@XZ 10007d90 f i BillAcceptor.obj
 0001:00006de0       ??1?$CComPtrBase@UISpecifyPropertyPages@@@ATL@@QAE@XZ 10007de0 f i BillAcceptor.obj
 0001:00006e30       ??1?$CComPtrBase@UIStream@@@ATL@@QAE@XZ 10007e30 f i BillAcceptor.obj
 0001:00006e80       ??1?$CComPtrBase@UITypeInfo2@@@ATL@@QAE@XZ 10007e80 f i BillAcceptor.obj
 0001:00006ed0       ??1?$CComPtrBase@UITypeInfo@@@ATL@@QAE@XZ 10007ed0 f i BillAcceptor.obj
 0001:00006f20       ??1?$CComPtrBase@UITypeLib@@@ATL@@QAE@XZ 10007f20 f i BillAcceptor.obj
 0001:00006f70       ??1?$CComPtrBase@UIUnknown@@@ATL@@QAE@XZ 10007f70 f i BillAcceptor.obj
 0001:00006fc0       ??1?$CComPtrBase@UIViewObjectEx@@@ATL@@QAE@XZ 10007fc0 f i BillAcceptor.obj
 0001:00007010       ??1?$CComQIPtr@UIOleControlSite@@$1?_GUID_b196b289_bab4_101a_b69c_00aa00341d07@@3U__s_GUID@@B@ATL@@QAE@XZ 10008010 f i BillAcceptor.obj
 0001:00007040       ??1?$CComQIPtr@UIOleObject@@$1?_GUID_00000112_0000_0000_c000_000000000046@@3U__s_GUID@@B@ATL@@QAE@XZ 10008040 f i BillAcceptor.obj
 0001:00007070       ??1?$CComQIPtr@UISpecifyPropertyPages@@$1?_GUID_b196b28b_bab4_101a_b69c_00aa00341d07@@3U__s_GUID@@B@ATL@@QAE@XZ 10008070 f i BillAcceptor.obj
 0001:000070a0       ??1?$CSimpleMap@PA_WPA_WVCExpansionVectorEqualHelper@ATL@@@ATL@@QAE@XZ 100080a0 f i BillAcceptor.obj
 0001:000070d0       ??1?$CTempBuffer@E$0BAA@VCCRTAllocator@ATL@@@ATL@@QAE@XZ 100080d0 f i BillAcceptor.obj
 0001:00007110       ??1?$CTempBuffer@_W$0BAA@VCCRTAllocator@ATL@@@ATL@@QAE@XZ 10008110 f i BillAcceptor.obj
 0001:00007150       ??1?$CTempBuffer@_W$0EAA@VCCRTAllocator@ATL@@@ATL@@QAE@XZ 10008150 f i BillAcceptor.obj
 0001:00007190       ??1CAtlModule@ATL@@UAE@XZ  10008190 f i BillAcceptor.obj
 0001:000071c0       ??1CComAutoDeleteCriticalSection@ATL@@QAE@XZ 100081c0 f i BillAcceptor.obj
 0001:000071f0       ??1CComClassFactory@ATL@@UAE@XZ 100081f0 f i BillAcceptor.obj
 0001:00007220       ??1CComModule@ATL@@UAE@XZ  10008220 f i BillAcceptor.obj
 0001:00007250       ??1CComObjectRootBase@ATL@@QAE@XZ 10008250 f i BillAcceptor.obj
 0001:00007270       ??1CComSafeDeleteCriticalSection@ATL@@QAE@XZ 10008270 f i BillAcceptor.obj
 0001:000072b0       ??1CComVariant@ATL@@QAE@XZ 100082b0 f i BillAcceptor.obj
 0001:00007310       ??1CExpansionVector@ATL@@QAE@XZ 10008310 f i BillAcceptor.obj
 0001:00007340       ??1CParseBuffer@CRegParser@ATL@@QAE@XZ 10008340 f i BillAcceptor.obj
 0001:00007380       ??1CRegKey@ATL@@QAE@XZ     10008380 f i BillAcceptor.obj
 0001:000073b0       ??1CRegObject@ATL@@UAE@XZ  100083b0 f i BillAcceptor.obj
 0001:000073f0       ??1ModuleLockHelper@ATL@@QAE@XZ 100083f0 f i BillAcceptor.obj
 0001:00007430       ??1OposVariant@@QAE@XZ     10008430 f i BillAcceptor.obj
 0001:00007460       ??1_ATL_MODULE70@ATL@@QAE@XZ 10008460 f i BillAcceptor.obj
 0001:00007490       ??4?$CComPtr@UIAdviseSink@@@ATL@@QAEPAUIAdviseSink@@PAU2@@Z 10008490 f i BillAcceptor.obj
 0001:00007500       ??4?$CComPtr@UIOleClientSite@@@ATL@@QAEPAUIOleClientSite@@PAU2@@Z 10008500 f i BillAcceptor.obj
 0001:00007570       ??4?$CComPtr@UIUnknown@@@ATL@@QAEPAUIUnknown@@PAU2@@Z 10008570 f i BillAcceptor.obj
 0001:000075e0       ??4?$CComQIPtr@UIOleObject@@$1?_GUID_00000112_0000_0000_c000_000000000046@@3U__s_GUID@@B@ATL@@QAEPAUIOleObject@@PAUIUnknown@@@Z 100085e0 f i BillAcceptor.obj
 0001:00007630       ??4?$CComQIPtr@UISpecifyPropertyPages@@$1?_GUID_b196b28b_bab4_101a_b69c_00aa00341d07@@3U__s_GUID@@B@ATL@@QAEPAUISpecifyPropertyPages@@PAUIUnknown@@@Z 10008630 f i BillAcceptor.obj
 0001:00007680       ??7?$CComPtrBase@UIOleClientSite@@@ATL@@QBE_NXZ 10008680 f i BillAcceptor.obj
 0001:000076c0       ??7?$CComPtrBase@UIOleInPlaceSiteWindowless@@@ATL@@QBE_NXZ 100086c0 f i BillAcceptor.obj
 0001:00007700       ??7CComBSTR@ATL@@QBE_NXZ   10008700 f i BillAcceptor.obj
 0001:00007740       ??8?$CComPtrBase@UIAdviseSink@@@ATL@@QBE_NPAUIAdviseSink@@@Z 10008740 f i BillAcceptor.obj
 0001:00007780       ??8?$CComPtrBase@UIConnectionPointContainer@@@ATL@@QBE_NPAUIConnectionPointContainer@@@Z 10008780 f i BillAcceptor.obj
 0001:000077c0       ??8?$CComPtrBase@UIDataAdviseHolder@@@ATL@@QBE_NPAUIDataAdviseHolder@@@Z 100087c0 f i BillAcceptor.obj
 0001:00007800       ??8?$CComPtrBase@UIOleAdviseHolder@@@ATL@@QBE_NPAUIOleAdviseHolder@@@Z 10008800 f i BillAcceptor.obj
 0001:00007840       ??8?$CComPtrBase@UIOleClientSite@@@ATL@@QBE_NPAUIOleClientSite@@@Z 10008840 f i BillAcceptor.obj
 0001:00007880       ??8?$CComPtrBase@UIOleControlSite@@@ATL@@QBE_NPAUIOleControlSite@@@Z 10008880 f i BillAcceptor.obj
 0001:000078c0       ??8?$CComPtrBase@UIOleInPlaceObject@@@ATL@@QBE_NPAUIOleInPlaceObject@@@Z 100088c0 f i BillAcceptor.obj
 0001:00007900       ??8?$CComPtrBase@UIOleInPlaceSiteWindowless@@@ATL@@QBE_NPAUIOleInPlaceSiteWindowless@@@Z 10008900 f i BillAcceptor.obj
 0001:00007940       ??8?$CComPtrBase@UIOleObject@@@ATL@@QBE_NPAUIOleObject@@@Z 10008940 f i BillAcceptor.obj
 0001:00007980       ??8?$CComPtrBase@UIPersistStream@@@ATL@@QBE_NPAUIPersistStream@@@Z 10008980 f i BillAcceptor.obj
 0001:000079c0       ??8?$CComPtrBase@UIPersistStreamInit@@@ATL@@QBE_NPAUIPersistStreamInit@@@Z 100089c0 f i BillAcceptor.obj
 0001:00007a00       ??8?$CComPtrBase@UIPointerInactive@@@ATL@@QBE_NPAUIPointerInactive@@@Z 10008a00 f i BillAcceptor.obj
 0001:00007a40       ??8?$CComPtrBase@UIUnknown@@@ATL@@QBE_NPAUIUnknown@@@Z 10008a40 f i BillAcceptor.obj
 0001:00007a80       ??8?$CComPtrBase@UIViewObjectEx@@@ATL@@QBE_NPAUIViewObjectEx@@@Z 10008a80 f i BillAcceptor.obj
 0001:00007ac0       ??8CComBSTR@ATL@@QBE_NH@Z  10008ac0 f i BillAcceptor.obj
 0001:00007b20       ??9?$CComPtrBase@UIAdviseSink@@@ATL@@QBE_NPAUIAdviseSink@@@Z 10008b20 f i BillAcceptor.obj
 0001:00007b70       ??9?$CComPtrBase@UIConnectionPointContainer@@@ATL@@QBE_NPAUIConnectionPointContainer@@@Z 10008b70 f i BillAcceptor.obj
 0001:00007bc0       ??9?$CComPtrBase@UIDataAdviseHolder@@@ATL@@QBE_NPAUIDataAdviseHolder@@@Z 10008bc0 f i BillAcceptor.obj
 0001:00007c10       ??9?$CComPtrBase@UIOleAdviseHolder@@@ATL@@QBE_NPAUIOleAdviseHolder@@@Z 10008c10 f i BillAcceptor.obj
 0001:00007c60       ??9?$CComPtrBase@UIOleClientSite@@@ATL@@QBE_NPAUIOleClientSite@@@Z 10008c60 f i BillAcceptor.obj
 0001:00007cb0       ??9?$CComPtrBase@UIOleControlSite@@@ATL@@QBE_NPAUIOleControlSite@@@Z 10008cb0 f i BillAcceptor.obj
 0001:00007d00       ??9?$CComPtrBase@UIOleInPlaceObject@@@ATL@@QBE_NPAUIOleInPlaceObject@@@Z 10008d00 f i BillAcceptor.obj
 0001:00007d50       ??9?$CComPtrBase@UIOleInPlaceSiteWindowless@@@ATL@@QBE_NPAUIOleInPlaceSiteWindowless@@@Z 10008d50 f i BillAcceptor.obj
 0001:00007da0       ??9?$CComPtrBase@UIOleObject@@@ATL@@QBE_NPAUIOleObject@@@Z 10008da0 f i BillAcceptor.obj
 0001:00007df0       ??9?$CComPtrBase@UIPersistStream@@@ATL@@QBE_NPAUIPersistStream@@@Z 10008df0 f i BillAcceptor.obj
 0001:00007e40       ??9?$CComPtrBase@UIPersistStreamInit@@@ATL@@QBE_NPAUIPersistStreamInit@@@Z 10008e40 f i BillAcceptor.obj
 0001:00007e90       ??9?$CComPtrBase@UIPointerInactive@@@ATL@@QBE_NPAUIPointerInactive@@@Z 10008e90 f i BillAcceptor.obj
 0001:00007ee0       ??9?$CComPtrBase@UIUnknown@@@ATL@@QBE_NPAUIUnknown@@@Z 10008ee0 f i BillAcceptor.obj
 0001:00007f30       ??9?$CComPtrBase@UIViewObjectEx@@@ATL@@QBE_NPAUIViewObjectEx@@@Z 10008f30 f i BillAcceptor.obj
 0001:00007f80       ??9CComBSTR@ATL@@QBE_NH@Z  10008f80 f i BillAcceptor.obj
 0001:00007fd0       ??B?$CComPtrBase@UIAdviseSink@@@ATL@@QBEPAUIAdviseSink@@XZ 10008fd0 f i BillAcceptor.obj
 0001:00007ff0       ??B?$CComPtrBase@UIDataAdviseHolder@@@ATL@@QBEPAUIDataAdviseHolder@@XZ 10008ff0 f i BillAcceptor.obj
 0001:00008010       ??B?$CComPtrBase@UIDataObject@@@ATL@@QBEPAUIDataObject@@XZ 10009010 f i BillAcceptor.obj
 0001:00008030       ??B?$CComPtrBase@UIOleAdviseHolder@@@ATL@@QBEPAUIOleAdviseHolder@@XZ 10009030 f i BillAcceptor.obj
 0001:00008050       ??B?$CComPtrBase@UIOleClientSite@@@ATL@@QBEPAUIOleClientSite@@XZ 10009050 f i BillAcceptor.obj
 0001:00008070       ??B?$CComPtrBase@UIOleControlSite@@@ATL@@QBEPAUIOleControlSite@@XZ 10009070 f i BillAcceptor.obj
 0001:00008090       ??B?$CComPtrBase@UIOleInPlaceActiveObject@@@ATL@@QBEPAUIOleInPlaceActiveObject@@XZ 10009090 f i BillAcceptor.obj
 0001:000080b0       ??B?$CComPtrBase@UIOleInPlaceFrame@@@ATL@@QBEPAUIOleInPlaceFrame@@XZ 100090b0 f i BillAcceptor.obj
 0001:000080d0       ??B?$CComPtrBase@UIOleInPlaceSiteWindowless@@@ATL@@QBEPAUIOleInPlaceSiteWindowless@@XZ 100090d0 f i BillAcceptor.obj
 0001:000080f0       ??B?$CComPtrBase@UIOleInPlaceUIWindow@@@ATL@@QBEPAUIOleInPlaceUIWindow@@XZ 100090f0 f i BillAcceptor.obj
 0001:00008110       ??B?$CComPtrBase@UIOleObject@@@ATL@@QBEPAUIOleObject@@XZ 10009110 f i BillAcceptor.obj
 0001:00008130       ??B?$CComPtrBase@UIPersistStream@@@ATL@@QBEPAUIPersistStream@@XZ 10009130 f i BillAcceptor.obj
 0001:00008150       ??B?$CComPtrBase@UIProvideClassInfo2@@@ATL@@QBEPAUIProvideClassInfo2@@XZ 10009150 f i BillAcceptor.obj
 0001:00008170       ??B?$CComPtrBase@UISpecifyPropertyPages@@@ATL@@QBEPAUISpecifyPropertyPages@@XZ 10009170 f i BillAcceptor.obj
 0001:00008190       ??B?$CComPtrBase@UIStream@@@ATL@@QBEPAUIStream@@XZ 10009190 f i BillAcceptor.obj
 0001:000081b0       ??B?$CComPtrBase@UITypeInfo2@@@ATL@@QBEPAUITypeInfo2@@XZ 100091b0 f i BillAcceptor.obj
 0001:000081d0       ??B?$CComPtrBase@UITypeInfo@@@ATL@@QBEPAUITypeInfo@@XZ 100091d0 f i BillAcceptor.obj
 0001:000081f0       ??B?$CComPtrBase@UITypeLib@@@ATL@@QBEPAUITypeLib@@XZ 100091f0 f i BillAcceptor.obj
 0001:00008210       ??B?$CComPtrBase@UIUnknown@@@ATL@@QBEPAUIUnknown@@XZ 10009210 f i BillAcceptor.obj
 0001:00008230       ??B?$CTempBuffer@E$0BAA@VCCRTAllocator@ATL@@@ATL@@QBEPAEXZ 10009230 f i BillAcceptor.obj
 0001:00008250       ??B?$CTempBuffer@_W$0BAA@VCCRTAllocator@ATL@@@ATL@@QBEPA_WXZ 10009250 f i BillAcceptor.obj
 0001:00008270       ??B?$CTempBuffer@_W$0EAA@VCCRTAllocator@ATL@@@ATL@@QBEPA_WXZ 10009270 f i BillAcceptor.obj
 0001:00008290       ??B?$CTraceCategoryEx@$00$0A@@ATL@@QAEIXZ 10009290 f i BillAcceptor.obj
 0001:000082b0       ??B?$CTraceCategoryEx@$07$0A@@ATL@@QAEIXZ 100092b0 f i BillAcceptor.obj
 0001:000082d0       ??B?$CTraceCategoryEx@$0CAAA@$0A@@ATL@@QAEIXZ 100092d0 f i BillAcceptor.obj
 0001:000082f0       ??B?$CTraceCategoryEx@$0EA@$0A@@ATL@@QAEIXZ 100092f0 f i BillAcceptor.obj
 0001:00008310       ??B?$CTraceCategoryEx@$0IAA@$0A@@ATL@@QAEIXZ 10009310 f i BillAcceptor.obj
 0001:00008330       ??BCComBSTR@ATL@@QBEPA_WXZ 10009330 f i BillAcceptor.obj
 0001:00008350       ??BCRegKey@ATL@@QBEPAUHKEY__@@XZ 10009350 f i BillAcceptor.obj
 0001:00008370       ??C?$CComPtrBase@UIAdviseSink@@@ATL@@QBEPAV?$_NoAddRefReleaseOnCComPtr@UIAdviseSink@@@1@XZ 10009370 f i BillAcceptor.obj
 0001:000083c0       ??C?$CComPtrBase@UICatRegister@@@ATL@@QBEPAV?$_NoAddRefReleaseOnCComPtr@UICatRegister@@@1@XZ 100093c0 f i BillAcceptor.obj
 0001:00008410       ??C?$CComPtrBase@UIConnectionPoint@@@ATL@@QBEPAV?$_NoAddRefReleaseOnCComPtr@UIConnectionPoint@@@1@XZ 10009410 f i BillAcceptor.obj
 0001:00008460       ??C?$CComPtrBase@UIConnectionPointContainer@@@ATL@@QBEPAV?$_NoAddRefReleaseOnCComPtr@UIConnectionPointContainer@@@1@XZ 10009460 f i BillAcceptor.obj
 0001:000084b0       ??C?$CComPtrBase@UIDataAdviseHolder@@@ATL@@QBEPAV?$_NoAddRefReleaseOnCComPtr@UIDataAdviseHolder@@@1@XZ 100094b0 f i BillAcceptor.obj
 0001:00008500       ??C?$CComPtrBase@UIOleAdviseHolder@@@ATL@@QBEPAV?$_NoAddRefReleaseOnCComPtr@UIOleAdviseHolder@@@1@XZ 10009500 f i BillAcceptor.obj
 0001:00008550       ??C?$CComPtrBase@UIOleClientSite@@@ATL@@QBEPAV?$_NoAddRefReleaseOnCComPtr@UIOleClientSite@@@1@XZ 10009550 f i BillAcceptor.obj
 0001:000085a0       ??C?$CComPtrBase@UIOleControlSite@@@ATL@@QBEPAV?$_NoAddRefReleaseOnCComPtr@UIOleControlSite@@@1@XZ 100095a0 f i BillAcceptor.obj
 0001:000085f0       ??C?$CComPtrBase@UIOleInPlaceFrame@@@ATL@@QBEPAV?$_NoAddRefReleaseOnCComPtr@UIOleInPlaceFrame@@@1@XZ 100095f0 f i BillAcceptor.obj
 0001:00008640       ??C?$CComPtrBase@UIOleInPlaceObject@@@ATL@@QBEPAV?$_NoAddRefReleaseOnCComPtr@UIOleInPlaceObject@@@1@XZ 10009640 f i BillAcceptor.obj
 0001:00008690       ??C?$CComPtrBase@UIOleInPlaceSiteWindowless@@@ATL@@QBEPAV?$_NoAddRefReleaseOnCComPtr@UIOleInPlaceSiteWindowless@@@1@XZ 10009690 f i BillAcceptor.obj
 0001:000086e0       ??C?$CComPtrBase@UIOleInPlaceUIWindow@@@ATL@@QBEPAV?$_NoAddRefReleaseOnCComPtr@UIOleInPlaceUIWindow@@@1@XZ 100096e0 f i BillAcceptor.obj
 0001:00008730       ??C?$CComPtrBase@UIOleObject@@@ATL@@QBEPAV?$_NoAddRefReleaseOnCComPtr@UIOleObject@@@1@XZ 10009730 f i BillAcceptor.obj
 0001:00008780       ??C?$CComPtrBase@UIPersistStream@@@ATL@@QBEPAV?$_NoAddRefReleaseOnCComPtr@UIPersistStream@@@1@XZ 10009780 f i BillAcceptor.obj
 0001:000087d0       ??C?$CComPtrBase@UIPersistStreamInit@@@ATL@@QBEPAV?$_NoAddRefReleaseOnCComPtr@UIPersistStreamInit@@@1@XZ 100097d0 f i BillAcceptor.obj
 0001:00008820       ??C?$CComPtrBase@UIPointerInactive@@@ATL@@QBEPAV?$_NoAddRefReleaseOnCComPtr@UIPointerInactive@@@1@XZ 10009820 f i BillAcceptor.obj
 0001:00008870       ??C?$CComPtrBase@UIProvideClassInfo2@@@ATL@@QBEPAV?$_NoAddRefReleaseOnCComPtr@UIProvideClassInfo2@@@1@XZ 10009870 f i BillAcceptor.obj
 0001:000088c0       ??C?$CComPtrBase@UISpecifyPropertyPages@@@ATL@@QBEPAV?$_NoAddRefReleaseOnCComPtr@UISpecifyPropertyPages@@@1@XZ 100098c0 f i BillAcceptor.obj
 0001:00008910       ??C?$CComPtrBase@UITypeInfo@@@ATL@@QBEPAV?$_NoAddRefReleaseOnCComPtr@UITypeInfo@@@1@XZ 10009910 f i BillAcceptor.obj
 0001:00008960       ??C?$CComPtrBase@UITypeLib@@@ATL@@QBEPAV?$_NoAddRefReleaseOnCComPtr@UITypeLib@@@1@XZ 10009960 f i BillAcceptor.obj
 0001:000089b0       ??C?$CComPtrBase@UIUnknown@@@ATL@@QBEPAV?$_NoAddRefReleaseOnCComPtr@UIUnknown@@@1@XZ 100099b0 f i BillAcceptor.obj
 0001:00008a00       ??C?$CComPtrBase@UIViewObjectEx@@@ATL@@QBEPAV?$_NoAddRefReleaseOnCComPtr@UIViewObjectEx@@@1@XZ 10009a00 f i BillAcceptor.obj
 0001:00008a50       ??I?$CComPtrBase@UICatRegister@@@ATL@@QAEPAPAUICatRegister@@XZ 10009a50 f i BillAcceptor.obj
 0001:00008aa0       ??I?$CComPtrBase@UIConnectionPoint@@@ATL@@QAEPAPAUIConnectionPoint@@XZ 10009aa0 f i BillAcceptor.obj
 0001:00008af0       ??I?$CComPtrBase@UIConnectionPointContainer@@@ATL@@QAEPAPAUIConnectionPointContainer@@XZ 10009af0 f i BillAcceptor.obj
 0001:00008b40       ??I?$CComPtrBase@UIDataAdviseHolder@@@ATL@@QAEPAPAUIDataAdviseHolder@@XZ 10009b40 f i BillAcceptor.obj
 0001:00008b90       ??I?$CComPtrBase@UIDataObject@@@ATL@@QAEPAPAUIDataObject@@XZ 10009b90 f i BillAcceptor.obj
 0001:00008be0       ??I?$CComPtrBase@UIDispatch@@@ATL@@QAEPAPAUIDispatch@@XZ 10009be0 f i BillAcceptor.obj
 0001:00008c30       ??I?$CComPtrBase@UIOleAdviseHolder@@@ATL@@QAEPAPAUIOleAdviseHolder@@XZ 10009c30 f i BillAcceptor.obj
 0001:00008c80       ??I?$CComPtrBase@UIOleControlSite@@@ATL@@QAEPAPAUIOleControlSite@@XZ 10009c80 f i BillAcceptor.obj
 0001:00008cd0       ??I?$CComPtrBase@UIOleInPlaceActiveObject@@@ATL@@QAEPAPAUIOleInPlaceActiveObject@@XZ 10009cd0 f i BillAcceptor.obj
 0001:00008d20       ??I?$CComPtrBase@UIOleInPlaceFrame@@@ATL@@QAEPAPAUIOleInPlaceFrame@@XZ 10009d20 f i BillAcceptor.obj
 0001:00008d70       ??I?$CComPtrBase@UIOleInPlaceObject@@@ATL@@QAEPAPAUIOleInPlaceObject@@XZ 10009d70 f i BillAcceptor.obj
 0001:00008dc0       ??I?$CComPtrBase@UIOleInPlaceSiteWindowless@@@ATL@@QAEPAPAUIOleInPlaceSiteWindowless@@XZ 10009dc0 f i BillAcceptor.obj
 0001:00008e10       ??I?$CComPtrBase@UIOleInPlaceUIWindow@@@ATL@@QAEPAPAUIOleInPlaceUIWindow@@XZ 10009e10 f i BillAcceptor.obj
 0001:00008e60       ??I?$CComPtrBase@UIOleObject@@@ATL@@QAEPAPAUIOleObject@@XZ 10009e60 f i BillAcceptor.obj
 0001:00008eb0       ??I?$CComPtrBase@UIPersistStream@@@ATL@@QAEPAPAUIPersistStream@@XZ 10009eb0 f i BillAcceptor.obj
 0001:00008f00       ??I?$CComPtrBase@UIPointerInactive@@@ATL@@QAEPAPAUIPointerInactive@@XZ 10009f00 f i BillAcceptor.obj
 0001:00008f50       ??I?$CComPtrBase@UIProvideClassInfo2@@@ATL@@QAEPAPAUIProvideClassInfo2@@XZ 10009f50 f i BillAcceptor.obj
 0001:00008fa0       ??I?$CComPtrBase@UIStream@@@ATL@@QAEPAPAUIStream@@XZ 10009fa0 f i BillAcceptor.obj
 0001:00008ff0       ??I?$CComPtrBase@UITypeInfo2@@@ATL@@QAEPAPAUITypeInfo2@@XZ 10009ff0 f i BillAcceptor.obj
 0001:00009040       ??I?$CComPtrBase@UITypeInfo@@@ATL@@QAEPAPAUITypeInfo@@XZ 1000a040 f i BillAcceptor.obj
 0001:00009090       ??I?$CComPtrBase@UITypeLib@@@ATL@@QAEPAPAUITypeLib@@XZ 1000a090 f i BillAcceptor.obj
 0001:000090e0       ??I?$CComPtrBase@UIUnknown@@@ATL@@QAEPAPAUIUnknown@@XZ 1000a0e0 f i BillAcceptor.obj
 0001:00009130       ??I?$CComPtrBase@UIViewObjectEx@@@ATL@@QAEPAPAUIViewObjectEx@@XZ 1000a130 f i BillAcceptor.obj
 0001:00009180       ??ICComBSTR@ATL@@QAEPAPA_WXZ 1000a180 f i BillAcceptor.obj
 0001:00009195       ??_E?$CComContainedObject@VCOPOSBillAcceptor@@@ATL@@W3AEPAXI@Z 1000a195 f i BillAcceptor.obj
 0001:0000919d       ??_E?$CComContainedObject@VCOPOSBillAcceptor@@@ATL@@WEM@AEPAXI@Z 1000a19d f i BillAcceptor.obj
 0001:000091a5       ??_E?$CComObject@VCOPOSBillAcceptor@@@ATL@@W3AEPAXI@Z 1000a1a5 f i BillAcceptor.obj
 0001:000091ad       ??_E?$CComObject@VCOPOSBillAcceptor@@@ATL@@WEM@AEPAXI@Z 1000a1ad f i BillAcceptor.obj
 0001:000091c0       ??_E?$CComAggObject@VCOPOSBillAcceptor@@@ATL@@UAEPAXI@Z 1000a1c0 f i BillAcceptor.obj
 0001:000091c0       ??_G?$CComAggObject@VCOPOSBillAcceptor@@@ATL@@UAEPAXI@Z 1000a1c0 f i BillAcceptor.obj
 0001:00009210       ??_E?$CComContainedObject@VCOPOSBillAcceptor@@@ATL@@UAEPAXI@Z 1000a210 f i BillAcceptor.obj
 0001:00009210       ??_G?$CComContainedObject@VCOPOSBillAcceptor@@@ATL@@UAEPAXI@Z 1000a210 f i BillAcceptor.obj
 0001:00009260       ??_E?$CComObject@V?$CComEnum@UIEnumConnectionPoints@@$1?_GUID_b196b285_bab4_101a_b69c_00aa00341d07@@3U__s_GUID@@BPAUIConnectionPoint@@V?$_CopyInterface@UIConnectionPoint@@@ATL@@VCComSingleThreadModel@6@@ATL@@@ATL@@UAEPAXI@Z 1000a260 f i BillAcceptor.obj
 0001:00009260       ??_G?$CComObject@V?$CComEnum@UIEnumConnectionPoints@@$1?_GUID_b196b285_bab4_101a_b69c_00aa00341d07@@3U__s_GUID@@BPAUIConnectionPoint@@V?$_CopyInterface@UIConnectionPoint@@@ATL@@VCComSingleThreadModel@6@@ATL@@@ATL@@UAEPAXI@Z 1000a260 f i BillAcceptor.obj
 0001:000092a0       ??_E?$CComObject@V?$CComEnum@UIEnumConnections@@$1?_GUID_b196b287_bab4_101a_b69c_00aa00341d07@@3U__s_GUID@@BUtagCONNECTDATA@@V?$_Copy@UtagCONNECTDATA@@@ATL@@VCComSingleThreadModel@6@@ATL@@@ATL@@UAEPAXI@Z 1000a2a0 f i BillAcceptor.obj
 0001:000092a0       ??_G?$CComObject@V?$CComEnum@UIEnumConnections@@$1?_GUID_b196b287_bab4_101a_b69c_00aa00341d07@@3U__s_GUID@@BUtagCONNECTDATA@@V?$_Copy@UtagCONNECTDATA@@@ATL@@VCComSingleThreadModel@6@@ATL@@@ATL@@UAEPAXI@Z 1000a2a0 f i BillAcceptor.obj
 0001:000092e0       ??_E?$CComObject@VCOPOSBillAcceptor@@@ATL@@UAEPAXI@Z 1000a2e0 f i BillAcceptor.obj
 0001:000092e0       ??_G?$CComObject@VCOPOSBillAcceptor@@@ATL@@UAEPAXI@Z 1000a2e0 f i BillAcceptor.obj
 0001:00009330       ??_G?$CComObjectCached@VCComClassFactory@ATL@@@ATL@@UAEPAXI@Z 1000a330 f i BillAcceptor.obj
 0001:00009330       ??_E?$CComObjectCached@VCComClassFactory@ATL@@@ATL@@UAEPAXI@Z 1000a330 f i BillAcceptor.obj
 0001:00009370       ??_GCComClassFactory@ATL@@UAEPAXI@Z 1000a370 f i BillAcceptor.obj
 0001:00009370       ??_ECComClassFactory@ATL@@UAEPAXI@Z 1000a370 f i BillAcceptor.obj
 0001:000093b0       ??_ECComModule@ATL@@UAEPAXI@Z 1000a3b0 f i BillAcceptor.obj
 0001:000093b0       ??_GCComModule@ATL@@UAEPAXI@Z 1000a3b0 f i BillAcceptor.obj
 0001:000093f0       ??_ECRegObject@ATL@@UAEPAXI@Z 1000a3f0 f i BillAcceptor.obj
 0001:000093f0       ??_GCRegObject@ATL@@UAEPAXI@Z 1000a3f0 f i BillAcceptor.obj
 0001:00009430       ?Add@?$CSimpleArray@GV?$CSimpleArrayEqualHelper@G@ATL@@@ATL@@QAEHABG@Z 1000a430 f i BillAcceptor.obj
 0001:00009580       ?Add@?$CSimpleMap@PA_WPA_WVCExpansionVectorEqualHelper@ATL@@@ATL@@QAEHABQA_W0@Z 1000a580 f i BillAcceptor.obj
 0001:00009640       ?Add@CComDynamicUnkArray@ATL@@QAEKPAUIUnknown@@@Z 1000a640 f i BillAcceptor.obj
 0001:000097e0       ?Add@CExpansionVector@ATL@@QAEHPB_W0@Z 1000a7e0 f i BillAcceptor.obj
 0001:00009a70       ?AddChar@CParseBuffer@CRegParser@ATL@@QAEHPB_W@Z 1000aa70 f i BillAcceptor.obj
 0001:00009ab0       ?AddCommonRGSReplacements@?$CAtlModuleT@VCComModule@ATL@@@ATL@@UAEJPAUIRegistrarBase@@@Z 1000aab0 f i BillAcceptor.obj
 0001:00009b00       ?AddCreateWndData@CAtlWinModule@ATL@@QAEXPAU_AtlCreateWndData@2@PAX@Z 1000ab00 f i BillAcceptor.obj
 0001:00009b30       ?AddRef@?$CComAggObject@VCOPOSBillAcceptor@@@ATL@@UAGKXZ 1000ab30 f i BillAcceptor.obj
 0001:00009b50       ?AddRef@?$CComContainedObject@VCOPOSBillAcceptor@@@ATL@@UAGKXZ 1000ab50 f i BillAcceptor.obj
 0001:00009b6c       ?AddRef@?$CComContainedObject@VCOPOSBillAcceptor@@@ATL@@WHA@AGKXZ 1000ab6c f i BillAcceptor.obj
 0001:00009b76       ?AddRef@?$CComContainedObject@VCOPOSBillAcceptor@@@ATL@@WHE@AGKXZ 1000ab76 f i BillAcceptor.obj
 0001:00009b80       ?AddRef@?$CComContainedObject@VCOPOSBillAcceptor@@@ATL@@WHI@AGKXZ 1000ab80 f i BillAcceptor.obj
 0001:00009b8a       ?AddRef@?$CComContainedObject@VCOPOSBillAcceptor@@@ATL@@WHM@AGKXZ 1000ab8a f i BillAcceptor.obj
 0001:00009b94       ?AddRef@?$CComContainedObject@VCOPOSBillAcceptor@@@ATL@@WIA@AGKXZ 1000ab94 f i BillAcceptor.obj
 0001:00009ba1       ?AddRef@?$CComContainedObject@VCOPOSBillAcceptor@@@ATL@@WIE@AGKXZ 1000aba1 f i BillAcceptor.obj
 0001:00009bae       ?AddRef@?$CComContainedObject@VCOPOSBillAcceptor@@@ATL@@WII@AGKXZ 1000abae f i BillAcceptor.obj
 0001:00009bbb       ?AddRef@?$CComContainedObject@VCOPOSBillAcceptor@@@ATL@@WIM@AGKXZ 1000abbb f i BillAcceptor.obj
 0001:00009bc8       ?AddRef@?$CComContainedObject@VCOPOSBillAcceptor@@@ATL@@WJA@AGKXZ 1000abc8 f i BillAcceptor.obj
 0001:00009bd5       ?AddRef@?$CComContainedObject@VCOPOSBillAcceptor@@@ATL@@WJE@AGKXZ 1000abd5 f i BillAcceptor.obj
 0001:00009be2       ?AddRef@?$CComContainedObject@VCOPOSBillAcceptor@@@ATL@@WJI@AGKXZ 1000abe2 f i BillAcceptor.obj
 0001:00009bef       ?AddRef@?$CComContainedObject@VCOPOSBillAcceptor@@@ATL@@WJM@AGKXZ 1000abef f i BillAcceptor.obj
 0001:00009bfc       ?AddRef@?$CComContainedObject@VCOPOSBillAcceptor@@@ATL@@WKA@AGKXZ 1000abfc f i BillAcceptor.obj
 0001:00009c09       ?AddRef@?$CComContainedObject@VCOPOSBillAcceptor@@@ATL@@WKI@AGKXZ 1000ac09 f i BillAcceptor.obj
 0001:00009c16       ?AddRef@?$CComContainedObject@VCOPOSBillAcceptor@@@ATL@@WLE@AGKXZ 1000ac16 f i BillAcceptor.obj
 0001:00009c30       ?AddRef@?$CComObject@V?$CComEnum@UIEnumConnectionPoints@@$1?_GUID_b196b285_bab4_101a_b69c_00aa00341d07@@3U__s_GUID@@BPAUIConnectionPoint@@V?$_CopyInterface@UIConnectionPoint@@@ATL@@VCComSingleThreadModel@6@@ATL@@@ATL@@UAGKXZ 1000ac30 f i BillAcceptor.obj
 0001:00009c50       ?AddRef@?$CComObject@V?$CComEnum@UIEnumConnections@@$1?_GUID_b196b287_bab4_101a_b69c_00aa00341d07@@3U__s_GUID@@BUtagCONNECTDATA@@V?$_Copy@UtagCONNECTDATA@@@ATL@@VCComSingleThreadModel@6@@ATL@@@ATL@@UAGKXZ 1000ac50 f i BillAcceptor.obj
 0001:00009c70       ?AddRef@?$CComObject@VCOPOSBillAcceptor@@@ATL@@UAGKXZ 1000ac70 f i BillAcceptor.obj
 0001:00009c8c       ?AddRef@?$CComObject@VCOPOSBillAcceptor@@@ATL@@WHA@AGKXZ 1000ac8c f i BillAcceptor.obj
 0001:00009c96       ?AddRef@?$CComObject@VCOPOSBillAcceptor@@@ATL@@WHE@AGKXZ 1000ac96 f i BillAcceptor.obj
 0001:00009ca0       ?AddRef@?$CComObject@VCOPOSBillAcceptor@@@ATL@@WHI@AGKXZ 1000aca0 f i BillAcceptor.obj
 0001:00009caa       ?AddRef@?$CComObject@VCOPOSBillAcceptor@@@ATL@@WHM@AGKXZ 1000acaa f i BillAcceptor.obj
 0001:00009cb4       ?AddRef@?$CComObject@VCOPOSBillAcceptor@@@ATL@@WIA@AGKXZ 1000acb4 f i BillAcceptor.obj
 0001:00009cc1       ?AddRef@?$CComObject@VCOPOSBillAcceptor@@@ATL@@WIE@AGKXZ 1000acc1 f i BillAcceptor.obj
 0001:00009cce       ?AddRef@?$CComObject@VCOPOSBillAcceptor@@@ATL@@WII@AGKXZ 1000acce f i BillAcceptor.obj
 0001:00009cdb       ?AddRef@?$CComObject@VCOPOSBillAcceptor@@@ATL@@WIM@AGKXZ 1000acdb f i BillAcceptor.obj
 0001:00009ce8       ?AddRef@?$CComObject@VCOPOSBillAcceptor@@@ATL@@WJA@AGKXZ 1000ace8 f i BillAcceptor.obj
 0001:00009cf5       ?AddRef@?$CComObject@VCOPOSBillAcceptor@@@ATL@@WJE@AGKXZ 1000acf5 f i BillAcceptor.obj
 0001:00009d02       ?AddRef@?$CComObject@VCOPOSBillAcceptor@@@ATL@@WJI@AGKXZ 1000ad02 f i BillAcceptor.obj
 0001:00009d0f       ?AddRef@?$CComObject@VCOPOSBillAcceptor@@@ATL@@WJM@AGKXZ 1000ad0f f i BillAcceptor.obj
 0001:00009d1c       ?AddRef@?$CComObject@VCOPOSBillAcceptor@@@ATL@@WKA@AGKXZ 1000ad1c f i BillAcceptor.obj
 0001:00009d29       ?AddRef@?$CComObject@VCOPOSBillAcceptor@@@ATL@@WKI@AGKXZ 1000ad29 f i BillAcceptor.obj
 0001:00009d36       ?AddRef@?$CComObject@VCOPOSBillAcceptor@@@ATL@@WLE@AGKXZ 1000ad36 f i BillAcceptor.obj
 0001:00009d50       ?AddRef@?$CComObjectCached@VCComClassFactory@ATL@@@ATL@@UAGKXZ 1000ad50 f i BillAcceptor.obj
 0001:00009da0       ?AddRef@CRegObject@ATL@@UAGKXZ 1000ada0 f i BillAcceptor.obj
 0001:00009df0       ?AddReplacement@CRegObject@ATL@@UAGJPB_W0@Z 1000adf0 f i BillAcceptor.obj
 0001:00009f00       ?AddString@CParseBuffer@CRegParser@ATL@@QAEHPB_W@Z 1000af00 f i BillAcceptor.obj
 0001:00009ff0       ?AddTermFunc@CAtlModule@ATL@@QAEJP6GXK@ZK@Z 1000aff0 f i BillAcceptor.obj
 0001:0000a040       ?AddValue@CRegParser@ATL@@IAEJAAVCRegKey@2@PB_WPA_W@Z 1000b040 f i BillAcceptor.obj
 0001:0000a7d0       ?Advise@?$CProxy_IOPOSEvents@VCOPOSBillAcceptor@@@@UAGJPAUIUnknown@@PAK@Z 1000b7d0 f i BillAcceptor.obj
 0001:0000a820       ?Advise@?$IConnectionPointImpl@VCOPOSBillAcceptor@@$1?DIID__IOPOSBillAcceptorEvents@@3U_GUID@@BVCComDynamicUnkArray@ATL@@@ATL@@UAGJPAUIUnknown@@PAK@Z 1000b820 f i BillAcceptor.obj
 0001:0000a9c0       ?Advise@?$IConnectionPointImpl@VCOPOSBillAcceptor@@$1?IID_IPropertyNotifySink@@3U_GUID@@BVCComDynamicUnkArray@ATL@@@ATL@@UAGJPAUIUnknown@@PAK@Z 1000b9c0 f i BillAcceptor.obj
 0001:0000ab60       ?Advise@?$IOleObjectImpl@VCOPOSBillAcceptor@@@ATL@@UAGJPAUIAdviseSink@@PAK@Z 1000bb60 f i BillAcceptor.obj
 0001:0000abf0       ?Allocate@?$CAtlSafeAllocBufferManager@VCCRTAllocator@ATL@@@_ATL_SAFE_ALLOCA_IMPL@ATL@@QAEPAXK@Z 1000bbf0 f i BillAcceptor.obj
 0001:0000ac60       ?Allocate@?$CTempBuffer@E$0BAA@VCCRTAllocator@ATL@@@ATL@@QAEPAEI@Z 1000bc60 f i BillAcceptor.obj
 0001:0000aca0       ?Allocate@?$CTempBuffer@_W$0BAA@VCCRTAllocator@ATL@@@ATL@@QAEPA_WI@Z 1000bca0 f i BillAcceptor.obj
 0001:0000ace0       ?Allocate@?$CTempBuffer@_W$0EAA@VCCRTAllocator@ATL@@@ATL@@QAEPA_WI@Z 1000bce0 f i BillAcceptor.obj
 0001:0000ad20       ?AllocateBytes@?$CTempBuffer@E$0BAA@VCCRTAllocator@ATL@@@ATL@@QAEPAEI@Z 1000bd20 f i BillAcceptor.obj
 0001:0000ada0       ?AllocateBytes@?$CTempBuffer@_W$0BAA@VCCRTAllocator@ATL@@@ATL@@QAEPA_WI@Z 1000bda0 f i BillAcceptor.obj
 0001:0000ae20       ?AllocateBytes@?$CTempBuffer@_W$0EAA@VCCRTAllocator@ATL@@@ATL@@QAEPA_WI@Z 1000be20 f i BillAcceptor.obj
 0001:0000aea0       ?AllocateHeap@?$CTempBuffer@E$0BAA@VCCRTAllocator@ATL@@@ATL@@AAEXI@Z 1000bea0 f i BillAcceptor.obj
 0001:0000aef0       ?AllocateHeap@?$CTempBuffer@_W$0BAA@VCCRTAllocator@ATL@@@ATL@@AAEXI@Z 1000bef0 f i BillAcceptor.obj
 0001:0000af40       ?AllocateHeap@?$CTempBuffer@_W$0EAA@VCCRTAllocator@ATL@@@ATL@@AAEXI@Z 1000bf40 f i BillAcceptor.obj
 0001:0000af90       ?Append@CParseBuffer@CRegParser@ATL@@QAEHPB_WH@Z 1000bf90 f i BillAcceptor.obj
 0001:0000b130       ?AtlCallTermFunc@ATL@@YGXPAU_ATL_MODULE70@1@@Z 1000c130 f i BillAcceptor.obj
 0001:0000b1d0       ?AtlCoTaskMemCAlloc@ATL@@YAPAXKK@Z 1000c1d0 f i BillAcceptor.obj
 0001:0000b260       ?AtlCoTaskMemRecalloc@ATL@@YAPAXPAXKK@Z 1000c260 f i BillAcceptor.obj
 0001:0000b300       ?AtlComModuleGetClassObject@ATL@@YGJPAU_ATL_COM_MODULE70@1@ABU_GUID@@1PAPAX@Z 1000c300 f i BillAcceptor.obj
 0001:0000b590       ?AtlComModuleRegisterServer@ATL@@YGJPAU_ATL_COM_MODULE70@1@HPBU_GUID@@@Z 1000c590 f i BillAcceptor.obj
 0001:0000b720       ?AtlComModuleUnregisterServer@ATL@@YGJPAU_ATL_COM_MODULE70@1@HPBU_GUID@@@Z 1000c720 f i BillAcceptor.obj
 0001:0000b850       ?AtlComQIPtrAssign2@ATL@@YAXPAPAUIUnknown@@PAU2@ABU_GUID@@@Z 1000c850 f i BillAcceptor.obj
 0001:0000b8d0       ?AtlCreateTargetDC@ATL@@YGPAUHDC__@@PAU2@PAUtagDVTARGETDEVICE@@@Z 1000c8d0 f i BillAcceptor.obj
 0001:0000ba70       ?AtlCrtErrorCheck@ATL@@YAHH@Z 1000ca70 f i BillAcceptor.obj
 0001:0000bb40       ?AtlGetPerUserRegistration@ATL@@YGJPA_N@Z 1000cb40 f i BillAcceptor.obj
 0001:0000bb70       ?AtlHiMetricToPixel@ATL@@YGXPBUtagSIZE@@PAU2@@Z 1000cb70 f i BillAcceptor.obj
 0001:0000bd40       ?AtlHresultFromLastError@ATL@@YAJXZ 1000cd40 f i BillAcceptor.obj
 0001:0000bd80       ?AtlHresultFromWin32@ATL@@YAJK@Z 1000cd80 f i BillAcceptor.obj
 0001:0000bda0       ?AtlIPersistStreamInit_Load@ATL@@YGJPAUIStream@@PBUATL_PROPMAP_ENTRY@1@PAXPAUIUnknown@@@Z 1000cda0 f i BillAcceptor.obj
 0001:0000c200       ?AtlIPersistStreamInit_Save@ATL@@YGJPAUIStream@@HPBUATL_PROPMAP_ENTRY@1@PAXPAUIUnknown@@@Z 1000d200 f i BillAcceptor.obj
 0001:0000c5e0       ?AtlInternalOleLoadFromStream@ATL@@YAJPAUIStream@@ABU_GUID@@PAPAXTClassesAllowedInStream@1@K@Z 1000d5e0 f i BillAcceptor.obj
 0001:0000c880       ?AtlInternalQueryInterface@ATL@@YGJPAXPBU_ATL_INTMAP_ENTRY@1@ABU_GUID@@PAPAX@Z 1000d880 f i BillAcceptor.obj
 0001:0000cab0       ?AtlLoadTypeLib@ATL@@YGJPAUHINSTANCE__@@PB_WPAPA_WPAPAUITypeLib@@@Z 1000dab0 f i BillAcceptor.obj
 0001:0000cf10       ?AtlModuleAddTermFunc@ATL@@YGJPAU_ATL_MODULE70@1@P6GXK@ZK@Z 1000df10 f i BillAcceptor.obj
 0001:0000d070       ?AtlRegisterClassCategoriesHelper@ATL@@YGJABU_GUID@@PBU_ATL_CATMAP_ENTRY@1@H@Z 1000e070 f i BillAcceptor.obj
 0001:0000d750       ?AtlRegisterTypeLib@ATL@@YGJPAUHINSTANCE__@@PB_W@Z 1000e750 f i BillAcceptor.obj
 0001:0000da90       ?AtlThrowImpl@ATL@@YGXJ@Z  1000ea90 f i BillAcceptor.obj
 0001:0000db40       ?AtlUnRegisterTypeLib@ATL@@YGJPAUHINSTANCE__@@PB_W@Z 1000eb40 f i BillAcceptor.obj
 0001:0000dd50       ?AtlWinModuleAddCreateWndData@ATL@@YGXPAU_ATL_WIN_MODULE70@1@PAU_AtlCreateWndData@1@PAX@Z 1000ed50 f i BillAcceptor.obj
 0001:0000dec0       ?AtlWinModuleExtractCreateWndData@ATL@@YGPAXPAU_ATL_WIN_MODULE70@1@@Z 1000eec0 f i BillAcceptor.obj
 0001:0000e040       ?AtlWinModuleRegisterClassExW@ATL@@YGGPAU_ATL_WIN_MODULE70@1@PBUtagWNDCLASSEXW@@@Z 1000f040 f i BillAcceptor.obj
 0001:0000e110       ?AtlWinModuleRegisterWndClassInfoW@ATL@@YGGPAU_ATL_WIN_MODULE70@1@PAU_ATL_BASE_MODULE70@1@PAU_ATL_WNDCLASSINFOW@1@PAP6GJPAUHWND__@@IIJ@Z@Z 1000f110 f i BillAcceptor.obj
 0001:0000e1a0       ?Attach@?$CAutoVectorPtr@_W@ATL@@QAEXPA_W@Z 1000f1a0 f i BillAcceptor.obj
 0001:0000e200       ?Attach@CComBSTR@ATL@@QAEXPA_W@Z 1000f200 f i BillAcceptor.obj
 0001:0000e250       ?Attach@CRegKey@ATL@@QAEXPAUHKEY__@@@Z 1000f250 f i BillAcceptor.obj
 0001:0000e2c0       ?CanForceRemoveKey@CRegParser@ATL@@IAEHPB_W@Z 1000f2c0 f i BillAcceptor.obj
 0001:0000e330       ?ChToByte@CRegParser@ATL@@KAE_W@Z 1000f330 f i BillAcceptor.obj
 0001:0000e450       ?ChangeType@CComVariant@ATL@@QAEJGPBUtagVARIANT@@@Z 1000f450 f i BillAcceptor.obj
 0001:0000e4b0       ?Cleanup@CComTypeInfoHolder@ATL@@SGXK@Z 1000f4b0 f i BillAcceptor.obj
 0001:0000e580       ?Clear@CComVariant@ATL@@QAEJXZ 1000f580 f i BillAcceptor.obj
 0001:0000e5c0       ?ClearReplacements@CExpansionVector@ATL@@QAEJXZ 1000f5c0 f i BillAcceptor.obj
 0001:0000e650       ?ClearReplacements@CRegObject@ATL@@UAGJXZ 1000f650 f i BillAcceptor.obj
 0001:0000e6a0       ?Clone@?$CComEnumImpl@UIEnumConnectionPoints@@$1?_GUID_b196b285_bab4_101a_b69c_00aa00341d07@@3U__s_GUID@@BPAUIConnectionPoint@@V?$_CopyInterface@UIConnectionPoint@@@ATL@@@ATL@@UAGJPAPAUIEnumConnectionPoints@@@Z 1000f6a0 f i BillAcceptor.obj
 0001:0000e810       ?Clone@?$CComEnumImpl@UIEnumConnections@@$1?_GUID_b196b287_bab4_101a_b69c_00aa00341d07@@3U__s_GUID@@BUtagCONNECTDATA@@V?$_Copy@UtagCONNECTDATA@@@ATL@@@ATL@@UAGJPAPAUIEnumConnections@@@Z 1000f810 f i BillAcceptor.obj
 0001:0000e980       ?Close@?$IOleObjectImpl@VCOPOSBillAcceptor@@@ATL@@UAGJK@Z 1000f980 f i BillAcceptor.obj
 0001:0000ea10       ?Close@CRegKey@ATL@@QAEJXZ 1000fa10 f i BillAcceptor.obj
 0001:0000ea80       ?ContextSensitiveHelp@?$IOleInPlaceActiveObjectImpl@VCOPOSBillAcceptor@@@ATL@@UAGJH@Z 1000fa80 f i BillAcceptor.obj
 0001:0000eaf0       ?ContextSensitiveHelp@?$IOleInPlaceObjectWindowlessImpl@VCOPOSBillAcceptor@@@ATL@@UAGJH@Z 1000faf0 f i BillAcceptor.obj
 0001:0000eb60       ?ControlQueryInterface@?$CComControl@VCOPOSBillAcceptor@@V?$CWindowImpl@VCOPOSBillAcceptor@@VCWindow@ATL@@V?$CWinTraits@$0FGAAAAAA@$0A@@3@@ATL@@@ATL@@UAEJABU_GUID@@PAPAX@Z 1000fb60 f i BillAcceptor.obj
 0001:0000ebe0       ?CreateControlWindow@?$CComControl@VCOPOSBillAcceptor@@V?$CWindowImpl@VCOPOSBillAcceptor@@VCWindow@ATL@@V?$CWinTraits@$0FGAAAAAA@$0A@@3@@ATL@@@ATL@@UAEPAUHWND__@@PAU3@AAUtagRECT@@@Z 1000fbe0 f i BillAcceptor.obj
 0001:0000ec60       ?CreateInstance@?$CComCreator@V?$CComAggObject@VCOPOSBillAcceptor@@@ATL@@@ATL@@SGJPAXABU_GUID@@PAPAX@Z 1000fc60 f i BillAcceptor.obj
 0001:0000ede0       ?CreateInstance@?$CComCreator@V?$CComObject@VCOPOSBillAcceptor@@@ATL@@@ATL@@SGJPAXABU_GUID@@PAPAX@Z 1000fde0 f i BillAcceptor.obj
 0001:0000ef70       ?CreateInstance@?$CComObject@V?$CComEnum@UIEnumConnectionPoints@@$1?_GUID_b196b285_bab4_101a_b69c_00aa00341d07@@3U__s_GUID@@BPAUIConnectionPoint@@V?$_CopyInterface@UIConnectionPoint@@@ATL@@VCComSingleThreadModel@6@@ATL@@@ATL@@SGJPAPAV12@@Z 1000ff70 f i BillAcceptor.obj
 0001:0000f0e0       ?CreateInstance@?$CComObject@V?$CComEnum@UIEnumConnections@@$1?_GUID_b196b287_bab4_101a_b69c_00aa00341d07@@3U__s_GUID@@BUtagCONNECTDATA@@V?$_Copy@UtagCONNECTDATA@@@ATL@@VCComSingleThreadModel@6@@ATL@@@ATL@@SGJPAPAV12@@Z 100100e0 f i BillAcceptor.obj
 0001:0000f250       ?CreateInstance@CComClassFactory@ATL@@UAGJPAUIUnknown@@ABU_GUID@@PAPAX@Z 10010250 f i BillAcceptor.obj
 0001:0000f340       ?DAdvise@?$IDataObjectImpl@VCOPOSBillAcceptor@@@ATL@@UAGJPAUtagFORMATETC@@KPAUIAdviseSink@@PAK@Z 10010340 f i BillAcceptor.obj
 0001:0000f440       ?DEVMODEOLE2T_EX@@YAPAU_devicemodeW@@PAU1@@Z 10010440 f i BillAcceptor.obj
 0001:0000f450       ?DUnadvise@?$IDataObjectImpl@VCOPOSBillAcceptor@@@ATL@@UAGJK@Z 10010450 f i BillAcceptor.obj
 0001:0000f520       ?Decrement@CComMultiThreadModel@ATL@@SGKPAJ@Z 10010520 f i BillAcceptor.obj
 0001:0000f540       ?Decrement@CComSingleThreadModel@ATL@@SGKPAJ@Z 10010540 f i BillAcceptor.obj
 0001:0000f560       ?DefWindowProcW@?$CWindowImplBaseT@VCWindow@ATL@@V?$CWinTraits@$0FGAAAAAA@$0A@@2@@ATL@@QAEJIIJ@Z 10010560 f i BillAcceptor.obj
 0001:0000f5b0       ?DefaultReflectionHandler@?$CWindowImplRoot@VCWindow@ATL@@@ATL@@SAHPAUHWND__@@IIJAAJ@Z 100105b0 f i BillAcceptor.obj
 0001:0000f7a0       ?DeleteSubKey@CRegKey@ATL@@QAEJPB_W@Z 100107a0 f i BillAcceptor.obj
 0001:0000f8b0       ?DeleteValue@CRegKey@ATL@@QAEJPB_W@Z 100108b0 f i BillAcceptor.obj
 0001:0000f920       ?Detach@?$CAutoVectorPtr@_W@ATL@@QAEPA_WXZ 10010920 f i BillAcceptor.obj
 0001:0000f950       ?Detach@?$CComPtrBase@UIPersistStream@@@ATL@@QAEPAUIPersistStream@@XZ 10010950 f i BillAcceptor.obj
 0001:0000f980       ?Detach@?$CComPtrBase@UITypeInfo@@@ATL@@QAEPAUITypeInfo@@XZ 10010980 f i BillAcceptor.obj
 0001:0000f9b0       ?Detach@?$CComPtrBase@UIUnknown@@@ATL@@QAEPAUIUnknown@@XZ 100109b0 f i BillAcceptor.obj
 0001:0000f9e0       ?Detach@CComBSTR@ATL@@QAEPA_WXZ 100109e0 f i BillAcceptor.obj
 0001:0000fa10       ?Detach@CParseBuffer@CRegParser@ATL@@QAEPA_WXZ 10010a10 f i BillAcceptor.obj
 0001:0000fa60       ?Detach@CRegKey@ATL@@QAEPAUHKEY__@@XZ 10010a60 f i BillAcceptor.obj
 0001:0000fab0       ?DoEvent@COPOSBillAcceptor@@IAEXIIJ@Z 10010ab0 f i BillAcceptor.obj
 0001:0000fbf0       ?DoVerb@?$IOleObjectImpl@VCOPOSBillAcceptor@@@ATL@@UAGJJPAUtagMSG@@PAUIOleClientSite@@JPAUHWND__@@PBUtagRECT@@@Z 10010bf0 f i BillAcceptor.obj
 0001:0000fe00       ?DoVerbDiscardUndo@?$IOleObjectImpl@VCOPOSBillAcceptor@@@ATL@@QAEJPBUtagRECT@@PAUHWND__@@@Z 10010e00 f i BillAcceptor.obj
 0001:0000fe70       ?DoVerbHide@?$IOleObjectImpl@VCOPOSBillAcceptor@@@ATL@@QAEJPBUtagRECT@@PAUHWND__@@@Z 10010e70 f i BillAcceptor.obj
 0001:0000ff20       ?DoVerbInPlaceActivate@?$IOleObjectImpl@VCOPOSBillAcceptor@@@ATL@@QAEJPBUtagRECT@@PAUHWND__@@@Z 10010f20 f i BillAcceptor.obj
 0001:0000ffc0       ?DoVerbOpen@?$IOleObjectImpl@VCOPOSBillAcceptor@@@ATL@@QAEJPBUtagRECT@@PAUHWND__@@@Z 10010fc0 f i BillAcceptor.obj
 0001:00010030       ?DoVerbPrimary@?$IOleObjectImpl@VCOPOSBillAcceptor@@@ATL@@QAEJPBUtagRECT@@PAUHWND__@@@Z 10011030 f i BillAcceptor.obj
 0001:00010140       ?DoVerbProperties@CComControlBase@ATL@@QAEJPBUtagRECT@@PAUHWND__@@@Z 10011140 f i BillAcceptor.obj
 0001:00010460       ?DoVerbShow@?$IOleObjectImpl@VCOPOSBillAcceptor@@@ATL@@QAEJPBUtagRECT@@PAUHWND__@@@Z 10011460 f i BillAcceptor.obj
 0001:000104f0       ?DoVerbUIActivate@?$IOleObjectImpl@VCOPOSBillAcceptor@@@ATL@@QAEJPBUtagRECT@@PAUHWND__@@@Z 100114f0 f i BillAcceptor.obj
 0001:00010590       ?DoesVerbActivate@CComControlBase@ATL@@QAEHJ@Z 10011590 f i BillAcceptor.obj
 0001:00010600       ?DoesVerbUIActivate@CComControlBase@ATL@@QAEHJ@Z 10011600 f i BillAcceptor.obj
 0001:00010680       ?Draw@?$IViewObjectExImpl@VCOPOSBillAcceptor@@@ATL@@UAGJKJPAXPAUtagDVTARGETDEVICE@@PAUHDC__@@2PBU_RECTL@@3P6GHK@ZK@Z 10011680 f i BillAcceptor.obj
 0001:00010720       ?Empty@CComBSTR@ATL@@QAEXXZ 10011720 f i BillAcceptor.obj
 0001:00010760       ?EnableModeless@?$IOleInPlaceActiveObjectImpl@VCOPOSBillAcceptor@@@ATL@@UAGJH@Z 10011760 f i BillAcceptor.obj
 0001:000107c0       ?EndOfVar@CRegParser@ATL@@IAEHXZ 100117c0 f i BillAcceptor.obj
 0001:00010830       ?EnsureTI@CComTypeInfoHolder@ATL@@QAEJK@Z 10011830 f i BillAcceptor.obj
 0001:00010890       ?EnumAdvise@?$IOleObjectImpl@VCOPOSBillAcceptor@@@ATL@@UAGJPAPAUIEnumSTATDATA@@@Z 10011890 f i BillAcceptor.obj
 0001:000109a0       ?EnumConnectionPoints@?$IConnectionPointContainerImpl@VCOPOSBillAcceptor@@@ATL@@UAGJPAPAUIEnumConnectionPoints@@@Z 100119a0 f i BillAcceptor.obj
 0001:00010dd0       ?EnumConnections@?$IConnectionPointImpl@VCOPOSBillAcceptor@@$1?DIID__IOPOSBillAcceptorEvents@@3U_GUID@@BVCComDynamicUnkArray@ATL@@@ATL@@UAGJPAPAUIEnumConnections@@@Z 10011dd0 f i BillAcceptor.obj
 0001:00011020       ?EnumConnections@?$IConnectionPointImpl@VCOPOSBillAcceptor@@$1?IID_IPropertyNotifySink@@3U_GUID@@BVCComDynamicUnkArray@ATL@@@ATL@@UAGJPAPAUIEnumConnections@@@Z 10012020 f i BillAcceptor.obj
 0001:00011270       ?EnumDAdvise@?$IDataObjectImpl@VCOPOSBillAcceptor@@@ATL@@UAGJPAPAUIEnumSTATDATA@@@Z 10012270 f i BillAcceptor.obj
 0001:00011370       ?EnumFormatEtc@?$IDataObjectImpl@VCOPOSBillAcceptor@@@ATL@@UAGJKPAPAUIEnumFORMATETC@@@Z 10012370 f i BillAcceptor.obj
 0001:000113e0       ?EnumVerbs@?$IOleObjectImpl@VCOPOSBillAcceptor@@@ATL@@UAGJPAPAUIEnumOLEVERB@@@Z 100123e0 f i BillAcceptor.obj
 0001:00011490       ?EscapeSingleQuote@CAtlModule@ATL@@SAXPA_WIPB_W@Z 10012490 f i BillAcceptor.obj
 0001:00011540       ?ExtractCreateWndData@CAtlWinModule@ATL@@QAEPAXXZ 10012540 f i BillAcceptor.obj
 0001:00011570       ?FAccessAllowed@?$IObjectSafetyImpl@VCOPOSBillAcceptor@@$02@ATL@@MAEHXZ 10012570 f i BillAcceptor.obj
 0001:00011590       ?FinalConstruct@?$CComAggObject@VCOPOSBillAcceptor@@@ATL@@QAEJXZ 10012590 f i BillAcceptor.obj
 0001:000115d0       ?FinalConstruct@CComObjectRootBase@ATL@@QAEJXZ 100125d0 f i BillAcceptor.obj
 0001:000115f0       ?FinalConstruct@CRegObject@ATL@@QAEJXZ 100125f0 f i BillAcceptor.obj
 0001:00011620       ?FinalRelease@?$CComAggObject@VCOPOSBillAcceptor@@@ATL@@QAEXXZ 10012620 f i BillAcceptor.obj
 0001:00011660       ?FinalRelease@CComObjectRootBase@ATL@@QAEXXZ 10012660 f i BillAcceptor.obj
 0001:00011680       ?FindConnectionPoint@?$IConnectionPointContainerImpl@VCOPOSBillAcceptor@@@ATL@@UAGJABU_GUID@@PAPAUIConnectionPoint@@@Z 10012680 f i BillAcceptor.obj
 0001:000117d0       ?FindKey@?$CSimpleMap@PA_WPA_WVCExpansionVectorEqualHelper@ATL@@@ATL@@QBEHABQA_W@Z 100127d0 f i BillAcceptor.obj
 0001:00011840       ?FireTheEvent@?$CProxy_IOPOSEvents@VCOPOSBillAcceptor@@@@IAEXPAUIUnknown@@PAVOposVariant@@IAAJPB_WJ@Z 10012840 f i BillAcceptor.obj
 0001:000119b0       ?FireViewChange@CComControlBase@ATL@@QAEJXZ 100129b0 f i BillAcceptor.obj
 0001:00011a70       ?Fire_DataEvent@?$CProxy_IOPOSEvents@VCOPOSBillAcceptor@@@@QAEXJ@Z 10012a70 f i BillAcceptor.obj
 0001:00011bd0       ?Fire_DirectIOEvent@?$CProxy_IOPOSEvents@VCOPOSBillAcceptor@@@@QAEXJPAJPAPA_W@Z 10012bd0 f i BillAcceptor.obj
 0001:00011da0       ?Fire_StatusUpdateEvent@?$CProxy_IOPOSEvents@VCOPOSBillAcceptor@@@@QAEXJ@Z 10012da0 f i BillAcceptor.obj
 0001:00011f00       ?FormatWindowClassName@AtlModuleRegisterWndClassInfoParamW@ATL@@SAXPA_WKPAX@Z 10012f00 f i BillAcceptor.obj
 0001:00011f30       ?Free@?$CAutoVectorPtr@_W@ATL@@QAEXXZ 10012f30 f i BillAcceptor.obj
 0001:00011f80       ?FreeHeap@?$CTempBuffer@E$0BAA@VCCRTAllocator@ATL@@@ATL@@AAEXXZ 10012f80 f i BillAcceptor.obj
 0001:00011fb0       ?FreeHeap@?$CTempBuffer@_W$0BAA@VCCRTAllocator@ATL@@@ATL@@AAEXXZ 10012fb0 f i BillAcceptor.obj
 0001:00011fe0       ?FreeHeap@?$CTempBuffer@_W$0EAA@VCCRTAllocator@ATL@@@ATL@@AAEXXZ 10012fe0 f i BillAcceptor.obj
 0001:00012010       ?Freeze@?$IViewObjectExImpl@VCOPOSBillAcceptor@@@ATL@@UAGJKJPAXPAK@Z 10013010 f i BillAcceptor.obj
 0001:00012080       ?GenerateError@CRegParser@ATL@@IAEJI@Z 10013080 f i BillAcceptor.obj
 0001:000120a0       ?GetAdvise@?$IViewObjectExImpl@VCOPOSBillAcceptor@@@ATL@@UAGJPAK0PAPAUIAdviseSink@@@Z 100130a0 f i BillAcceptor.obj
 0001:000121a0       ?GetAmbientLocaleID@CComControlBase@ATL@@QAEJAAK@Z 100131a0 f i BillAcceptor.obj
 0001:00012280       ?GetAmbientProperty@CComControlBase@ATL@@QAEJJAAUtagVARIANT@@@Z 10013280 f i BillAcceptor.obj
 0001:000122d0       ?GetAmbientUserMode@CComControlBase@ATL@@QAEJAAH@Z 100132d0 f i BillAcceptor.obj
 0001:000123d0       ?GetAppId@?$CAtlModuleT@VCComModule@ATL@@@ATL@@SAPB_WXZ 100133d0 f i BillAcceptor.obj
 0001:000123e0       ?GetAt@CComDynamicUnkArray@ATL@@QAEPAUIUnknown@@H@Z 100133e0 f i BillAcceptor.obj
 0001:00012460       ?GetCanonicalFormatEtc@?$IDataObjectImpl@VCOPOSBillAcceptor@@@ATL@@UAGJPAUtagFORMATETC@@0@Z 10013460 f i BillAcceptor.obj
 0001:000124d0       ?GetClassID@?$IPersistStorageImpl@VCOPOSBillAcceptor@@@ATL@@UAGJPAU_GUID@@@Z 100134d0 f i BillAcceptor.obj
 0001:00012550       ?GetClassID@?$IPersistStreamInitImpl@VCOPOSBillAcceptor@@@ATL@@UAGJPAU_GUID@@@Z 10013550 f i BillAcceptor.obj
 0001:000125d0       ?GetClassInfoExW@AtlModuleRegisterWndClassInfoParamW@ATL@@SAHPAUHINSTANCE__@@PB_WPAUtagWNDCLASSEXW@@@Z 100135d0 f i BillAcceptor.obj
 0001:00012600       ?GetClassInfoW@?$IProvideClassInfo2Impl@$1?CLSID_OPOSBillAcceptor@@3U_GUID@@B$1?DIID__IOPOSBillAcceptorEvents@@3U2@B$1?LIBID_OposBillAcceptor_CCO@@3U2@B$00$0A@VCComTypeInfoHolder@ATL@@@ATL@@UAGJPAPAUITypeInfo@@@Z 10013600 f i BillAcceptor.obj
 0001:00012620       ?GetClassObject@CComModule@ATL@@QAEJABU_GUID@@0PAPAX@Z 10013620 f i BillAcceptor.obj
 0001:00012820       ?GetClientSite@?$IOleObjectImpl@VCOPOSBillAcceptor@@@ATL@@UAGJPAPAUIOleClientSite@@@Z 10013820 f i BillAcceptor.obj
 0001:000128b0       ?GetClipboardData@?$IOleObjectImpl@VCOPOSBillAcceptor@@@ATL@@UAGJKPAPAUIDataObject@@@Z 100138b0 f i BillAcceptor.obj
 0001:00012920       ?GetCodeAddress@CDynamicStdCallThunk2@ATL@@QAEPAXXZ 10013920 f i BillAcceptor.obj
 0001:00012950       ?GetColorSet@?$IViewObjectExImpl@VCOPOSBillAcceptor@@@ATL@@UAGJKJPAXPAUtagDVTARGETDEVICE@@PAUHDC__@@PAPAUtagLOGPALETTE@@@Z 10013950 f i BillAcceptor.obj
 0001:000129c0       ?GetConnMap@COPOSBillAcceptor@@SAPBU_ATL_CONNMAP_ENTRY@ATL@@PAH@Z 100139c0 f i BillAcceptor.obj
 0001:00012b00       ?GetConnectionInterface@?$IConnectionPointImpl@VCOPOSBillAcceptor@@$1?DIID__IOPOSBillAcceptorEvents@@3U_GUID@@BVCComDynamicUnkArray@ATL@@@ATL@@UAGJPAU_GUID@@@Z 10013b00 f i BillAcceptor.obj
 0001:00012b40       ?GetConnectionInterface@?$IConnectionPointImpl@VCOPOSBillAcceptor@@$1?IID_IPropertyNotifySink@@3U_GUID@@BVCComDynamicUnkArray@ATL@@@ATL@@UAGJPAU_GUID@@@Z 10013b40 f i BillAcceptor.obj
 0001:00012b80       ?GetConnectionPointContainer@?$IConnectionPointImpl@VCOPOSBillAcceptor@@$1?DIID__IOPOSBillAcceptorEvents@@3U_GUID@@BVCComDynamicUnkArray@ATL@@@ATL@@UAGJPAPAUIConnectionPointContainer@@@Z 10013b80 f i BillAcceptor.obj
 0001:00012bf0       ?GetConnectionPointContainer@?$IConnectionPointImpl@VCOPOSBillAcceptor@@$1?IID_IPropertyNotifySink@@3U_GUID@@BVCComDynamicUnkArray@ATL@@@ATL@@UAGJPAPAUIConnectionPointContainer@@@Z 10013bf0 f i BillAcceptor.obj
 0001:00012c60       ?GetContentExtent@?$IQuickActivateImpl@VCOPOSBillAcceptor@@@ATL@@UAGJPAUtagSIZE@@@Z 10013c60 f i BillAcceptor.obj
 0001:00012cf0       ?GetControlInfo@?$IOleControlImpl@VCOPOSBillAcceptor@@@ATL@@UAGJPAUtagCONTROLINFO@@@Z 10013cf0 f i BillAcceptor.obj
 0001:00012d60       ?GetCookie@CComDynamicUnkArray@ATL@@QAGKPAPAUIUnknown@@@Z 10013d60 f i BillAcceptor.obj
 0001:00012e20       ?GetData@?$IDataObjectImpl@VCOPOSBillAcceptor@@@ATL@@UAGJPAUtagFORMATETC@@PAUtagSTGMEDIUM@@@Z 10013e20 f i BillAcceptor.obj
 0001:00012eb0       ?GetData@CAtlSafeAllocBufferNode@?$CAtlSafeAllocBufferManager@VCCRTAllocator@ATL@@@_ATL_SAFE_ALLOCA_IMPL@ATL@@QAEPAXXZ 10013eb0 f i BillAcceptor.obj
 0001:00012ed0       ?GetDataHere@?$IDataObjectImpl@VCOPOSBillAcceptor@@@ATL@@UAGJPAUtagFORMATETC@@PAUtagSTGMEDIUM@@@Z 10013ed0 f i BillAcceptor.obj
 0001:00012f40       ?GetDropTarget@?$IOleInPlaceObjectWindowlessImpl@VCOPOSBillAcceptor@@@ATL@@UAGJPAPAUIDropTarget@@@Z 10013f40 f i BillAcceptor.obj
 0001:00012fb0       ?GetExtent@?$IOleObjectImpl@VCOPOSBillAcceptor@@@ATL@@UAGJKPAUtagSIZE@@@Z 10013fb0 f i BillAcceptor.obj
 0001:00013050       ?GetExtent@?$IViewObjectExImpl@VCOPOSBillAcceptor@@@ATL@@UAGJKJPAUtagDVTARGETDEVICE@@PAUtagSIZE@@@Z 10014050 f i BillAcceptor.obj
 0001:00013120       ?GetGITPtr@CAtlModule@ATL@@UAEJPAPAUIGlobalInterfaceTable@@@Z 10014120 f i BillAcceptor.obj
 0001:00013220       ?GetGUID@?$IProvideClassInfo2Impl@$1?CLSID_OPOSBillAcceptor@@3U_GUID@@B$1?DIID__IOPOSBillAcceptorEvents@@3U2@B$1?LIBID_OposBillAcceptor_CCO@@3U2@B$00$0A@VCComTypeInfoHolder@ATL@@@ATL@@UAGJKPAU_GUID@@@Z 10014220 f i BillAcceptor.obj
 0001:000132a0       ?GetIDsOfNames@?$IDispatchImpl@UIOPOSBillAcceptor@@$1?IID_IOPOSBillAcceptor@@3U_GUID@@B$1?LIBID_OposBillAcceptor_CCO@@3U3@B$00$0A@VCComTypeInfoHolder@ATL@@@ATL@@UAGJABU_GUID@@PAPA_WIKPAJ@Z 100142a0 f i BillAcceptor.obj
 0001:000132d0       ?GetIDsOfNames@CComTypeInfoHolder@ATL@@QAEJABU_GUID@@PAPA_WIKPAJ@Z 100142d0 f i BillAcceptor.obj
 0001:00013480       ?GetInterfaceSafetyOptions@?$IObjectSafetyImpl@VCOPOSBillAcceptor@@$02@ATL@@UAGJABU_GUID@@PAK1@Z 10014480 f i BillAcceptor.obj
 0001:000135f0       ?GetKeyAt@?$CSimpleMap@PA_WPA_WVCExpansionVectorEqualHelper@ATL@@@ATL@@QBEAAPA_WH@Z 100145f0 f i BillAcceptor.obj
 0001:00013670       ?GetLockCount@CAtlModule@ATL@@UAEJXZ 10014670 f i BillAcceptor.obj
 0001:00013690       ?GetMiscStatus@?$IOleObjectImpl@VCOPOSBillAcceptor@@@ATL@@UAGJKPAK@Z 10014690 f i BillAcceptor.obj
 0001:00013700       ?GetMoniker@?$IOleObjectImpl@VCOPOSBillAcceptor@@@ATL@@UAGJKKPAPAUIMoniker@@@Z 10014700 f i BillAcceptor.obj
 0001:00013770       ?GetNaturalExtent@?$IViewObjectExImpl@VCOPOSBillAcceptor@@@ATL@@UAGJKJPAUtagDVTARGETDEVICE@@PAUHDC__@@PAUtagExtentInfo@@PAUtagSIZE@@@Z 10014770 f i BillAcceptor.obj
 0001:00013890       ?GetObjectCLSID@?$CComCoClass@VCOPOSBillAcceptor@@$1?CLSID_OPOSBillAcceptor@@3U_GUID@@B@ATL@@SGABU_GUID@@XZ 10014890 f i BillAcceptor.obj
 0001:000138a0       ?GetPages@?$ISpecifyPropertyPagesImpl@VCOPOSBillAcceptor@@@ATL@@UAGJPAUtagCAUUID@@@Z 100148a0 f i BillAcceptor.obj
 0001:00013910       ?GetPagesHelper@?$ISpecifyPropertyPagesImpl@VCOPOSBillAcceptor@@@ATL@@IAEJPAUtagCAUUID@@PBUATL_PROPMAP_ENTRY@2@@Z 10014910 f i BillAcceptor.obj
 0001:00013b10       ?GetProperty@?$CComPtr@UIDispatch@@@ATL@@QAEJJPAUtagVARIANT@@@Z 10014b10 f i BillAcceptor.obj
 0001:00013b50       ?GetProperty@?$CComPtr@UIDispatch@@@ATL@@SAJPAUIDispatch@@JPAUtagVARIANT@@@Z 10014b50 f i BillAcceptor.obj
 0001:00013cb0       ?GetPropertyMap@COPOSBillAcceptor@@SAPBUATL_PROPMAP_ENTRY@ATL@@XZ 10014cb0 f i BillAcceptor.obj
 0001:00013cc0       ?GetRect@?$IViewObjectExImpl@VCOPOSBillAcceptor@@@ATL@@UAGJKPAU_RECTL@@@Z 10014cc0 f i BillAcceptor.obj
 0001:00013d30       ?GetSize@?$CSimpleMap@PA_WPA_WVCExpansionVectorEqualHelper@ATL@@@ATL@@QBEHXZ 10014d30 f i BillAcceptor.obj
 0001:00013d50       ?GetSize@CComDynamicUnkArray@ATL@@QBEHXZ 10014d50 f i BillAcceptor.obj
 0001:00013d70       ?GetSizeMax@?$IPersistStreamInitImpl@VCOPOSBillAcceptor@@@ATL@@UAGJPAT_ULARGE_INTEGER@@@Z 10014d70 f i BillAcceptor.obj
 0001:000142e0       ?GetSizeMax@CComVariant@ATL@@QBEJPAT_ULARGE_INTEGER@@@Z 100152e0 f i BillAcceptor.obj
 0001:00014640       ?GetStreamSize@CComBSTR@ATL@@SAKPA_W@Z 10015640 f i BillAcceptor.obj
 0001:00014690       ?GetTI@CComTypeInfoHolder@ATL@@QAEJK@Z 10015690 f i BillAcceptor.obj
 0001:00014ea0       ?GetTI@CComTypeInfoHolder@ATL@@QAEJKPAPAUITypeInfo@@@Z 10015ea0 f i BillAcceptor.obj
 0001:00014f60       ?GetTypeInfo@?$IDispatchImpl@UIOPOSBillAcceptor@@$1?IID_IOPOSBillAcceptor@@3U_GUID@@B$1?LIBID_OposBillAcceptor_CCO@@3U3@B$00$0A@VCComTypeInfoHolder@ATL@@@ATL@@UAGJIKPAPAUITypeInfo@@@Z 10015f60 f i BillAcceptor.obj
 0001:00014f90       ?GetTypeInfo@CComTypeInfoHolder@ATL@@QAEJIKPAPAUITypeInfo@@@Z 10015f90 f i BillAcceptor.obj
 0001:00014fd0       ?GetTypeInfoCount@?$IDispatchImpl@UIOPOSBillAcceptor@@$1?IID_IOPOSBillAcceptor@@3U_GUID@@B$1?LIBID_OposBillAcceptor_CCO@@3U3@B$00$0A@VCComTypeInfoHolder@ATL@@@ATL@@UAGJPAI@Z 10015fd0 f i BillAcceptor.obj
 0001:00014ff0       ?GetUnknown@CComDynamicUnkArray@ATL@@QAGPAUIUnknown@@K@Z 10015ff0 f i BillAcceptor.obj
 0001:00015060       ?GetUnknown@COPOSBillAcceptor@@QAEPAUIUnknown@@XZ 10016060 f i BillAcceptor.obj
 0001:00015090       ?GetUserClassID@?$IOleObjectImpl@VCOPOSBillAcceptor@@@ATL@@UAGJPAU_GUID@@@Z 10016090 f i BillAcceptor.obj
 0001:00015140       ?GetUserType@?$IOleObjectImpl@VCOPOSBillAcceptor@@@ATL@@UAGJKPAPA_W@Z 10016140 f i BillAcceptor.obj
 0001:000151b0       ?GetValueAt@?$CSimpleMap@PA_WPA_WVCExpansionVectorEqualHelper@ATL@@@ATL@@QBEAAPA_WH@Z 100161b0 f i BillAcceptor.obj
 0001:00015230       ?GetViewStatus@?$IViewObjectExImpl@VCOPOSBillAcceptor@@@ATL@@UAGJPAK@Z 10016230 f i BillAcceptor.obj
 0001:000152f0       ?GetWNDPROC@CWndProcThunk@ATL@@QAEP6GJPAUHWND__@@IIJ@ZXZ 100162f0 f i BillAcceptor.obj
 0001:00015320       ?GetWindow@?$IOleInPlaceActiveObjectImpl@VCOPOSBillAcceptor@@@ATL@@UAGJPAPAUHWND__@@@Z 10016320 f i BillAcceptor.obj
 0001:000153f0       ?GetWindow@?$IOleInPlaceObjectWindowlessImpl@VCOPOSBillAcceptor@@@ATL@@UAGJPAPAUHWND__@@@Z 100163f0 f i BillAcceptor.obj
 0001:000154c0       ?GetWindowLongPtrW@@YAJPAUHWND__@@H@Z 100164c0 f i BillAcceptor.obj
 0001:000154f0       ?GetWindowProc@?$CWindowImplBaseT@VCWindow@ATL@@V?$CWinTraits@$0FGAAAAAA@$0A@@2@@ATL@@UAEP6GJPAUHWND__@@IIJ@ZXZ 100164f0 f i BillAcceptor.obj
 0001:00015510       ?GetWndCaption@?$CWindowImpl@VCOPOSBillAcceptor@@VCWindow@ATL@@V?$CWinTraits@$0FGAAAAAA@$0A@@3@@ATL@@SAPB_WXZ 10016510 f i BillAcceptor.obj
 0001:00015520       ?GetWndClassInfo@?$CWindowImpl@VCOPOSBillAcceptor@@VCWindow@ATL@@V?$CWinTraits@$0FGAAAAAA@$0A@@3@@ATL@@SAAAU_ATL_WNDCLASSINFOW@2@XZ 10016520 f i BillAcceptor.obj
 0001:00015530       ?GetWndClassName@CWindow@ATL@@SAPB_WXZ 10016530 f i BillAcceptor.obj
 0001:00015540       ?GetWndExStyle@?$CWinTraits@$0FGAAAAAA@$0A@@ATL@@SAKK@Z 10016540 f i BillAcceptor.obj
 0001:00015570       ?GetWndExStyle@?$CWindowImplBaseT@VCWindow@ATL@@V?$CWinTraits@$0FGAAAAAA@$0A@@2@@ATL@@SAKK@Z 10016570 f i BillAcceptor.obj
 0001:00015590       ?GetWndStyle@?$CWinTraits@$0FGAAAAAA@$0A@@ATL@@SAKK@Z 10016590 f i BillAcceptor.obj
 0001:000155c0       ?GetWndStyle@?$CWindowImplBaseT@VCWindow@ATL@@V?$CWinTraits@$0FGAAAAAA@$0A@@2@@ATL@@SAKK@Z 100165c0 f i BillAcceptor.obj
 0001:000155e0       ?GetZoomInfo@CComControlBase@ATL@@QAEXAAUATL_DRAWINFO@@@Z 100165e0 f i BillAcceptor.obj
 0001:00015750       ?HKeyFromString@CRegParser@ATL@@KAPAUHKEY__@@PA_W@Z 10016750 f i BillAcceptor.obj
 0001:000157c0       ?HandsOffStorage@?$IPersistStorageImpl@VCOPOSBillAcceptor@@@ATL@@UAGJXZ 100167c0 f i BillAcceptor.obj
 0001:00015820       ?HasSubKeys@CRegParser@ATL@@IAEHPAUHKEY__@@@Z 10016820 f i BillAcceptor.obj
 0001:00015930       ?IDataObject_GetData@CComControlBase@ATL@@QAEJPAUtagFORMATETC@@PAUtagSTGMEDIUM@@@Z 10016930 f i BillAcceptor.obj
 0001:00015d50       ?IOleInPlaceObject_InPlaceDeactivate@CComControlBase@ATL@@QAEJXZ 10016d50 f i BillAcceptor.obj
 0001:00015f50       ?IOleInPlaceObject_SetObjectRects@CComControlBase@ATL@@QAEJPBUtagRECT@@0@Z 10016f50 f i BillAcceptor.obj
 0001:00016110       ?IOleInPlaceObject_UIDeactivate@CComControlBase@ATL@@QAEJXZ 10017110 f i BillAcceptor.obj
 0001:00016380       ?IOleObject_Advise@CComControlBase@ATL@@QAEJPAUIAdviseSink@@PAK@Z 10017380 f i BillAcceptor.obj
 0001:00016430       ?IOleObject_Close@CComControlBase@ATL@@QAEJK@Z 10017430 f i BillAcceptor.obj
 0001:000166e0       ?IOleObject_GetClientSite@CComControlBase@ATL@@QAEJPAPAUIOleClientSite@@@Z 100176e0 f i BillAcceptor.obj
 0001:00016780       ?IOleObject_SetClientSite@CComControlBase@ATL@@QAEJPAUIOleClientSite@@@Z 10017780 f i BillAcceptor.obj
 0001:00016850       ?IOleObject_SetExtent@CComControlBase@ATL@@QAEJKPAUtagSIZE@@@Z 10017850 f i BillAcceptor.obj
 0001:00016990       ?IPSI_GetIPersistStreamInit@?$IPersistStorageImpl@VCOPOSBillAcceptor@@@ATL@@AAEPAUIPersistStreamInit@@XZ 10017990 f i BillAcceptor.obj
 0001:00016a60       ?IPersistStreamInit_Load@?$IPersistStreamInitImpl@VCOPOSBillAcceptor@@@ATL@@QAEJPAUIStream@@PBUATL_PROPMAP_ENTRY@2@@Z 10017a60 f i BillAcceptor.obj
 0001:00016ae0       ?IPersistStreamInit_Save@?$IPersistStreamInitImpl@VCOPOSBillAcceptor@@@ATL@@QAEJPAUIStream@@HPBUATL_PROPMAP_ENTRY@2@@Z 10017ae0 f i BillAcceptor.obj
 0001:00016b70       ?IQuickActivate_QuickActivate@CComControlBase@ATL@@QAEJPAUtagQACONTAINER@@PAUtagQACONTROL@@@Z 10017b70 f i BillAcceptor.obj
 0001:000171c0       ?IViewObject_Draw@CComControlBase@ATL@@QAEJKJPAXPAUtagDVTARGETDEVICE@@PAUHDC__@@2PBU_RECTL@@3@Z 100181c0 f i BillAcceptor.obj
 0001:00017460       ?InPlaceActivate@CComControlBase@ATL@@QAEJJPBUtagRECT@@@Z 10018460 f i BillAcceptor.obj
 0001:00017df0       ?InPlaceDeactivate@?$IOleInPlaceObjectWindowlessImpl@VCOPOSBillAcceptor@@@ATL@@UAGJXZ 10018df0 f i BillAcceptor.obj
 0001:00017e70       ?Increment@CComMultiThreadModel@ATL@@SGKPAJ@Z 10018e70 f i BillAcceptor.obj
 0001:00017e90       ?Increment@CComSingleThreadModel@ATL@@SGKPAJ@Z 10018e90 f i BillAcceptor.obj
 0001:00017eb0       ?Init@?$CComEnumImpl@UIEnumConnectionPoints@@$1?_GUID_b196b285_bab4_101a_b69c_00aa00341d07@@3U__s_GUID@@BPAUIConnectionPoint@@V?$_CopyInterface@UIConnectionPoint@@@ATL@@@ATL@@QAEJPAPAUIConnectionPoint@@0PAUIUnknown@@W4CComEnumFlags@2@@Z 10018eb0 f i BillAcceptor.obj
 0001:00018090       ?Init@?$CComEnumImpl@UIEnumConnections@@$1?_GUID_b196b287_bab4_101a_b69c_00aa00341d07@@3U__s_GUID@@BUtagCONNECTDATA@@V?$_Copy@UtagCONNECTDATA@@@ATL@@@ATL@@QAEJPAUtagCONNECTDATA@@0PAUIUnknown@@W4CComEnumFlags@2@@Z 10019090 f i BillAcceptor.obj
 0001:00018270       ?Init@CComFakeCriticalSection@ATL@@QAEJXZ 10019270 f i BillAcceptor.obj
 0001:00018290       ?Init@CComModule@ATL@@QAEJPAU_ATL_OBJMAP_ENTRY30@2@PAUHINSTANCE__@@PBU_GUID@@@Z 10019290 f i BillAcceptor.obj
 0001:00018380       ?Init@CComSafeDeleteCriticalSection@ATL@@QAEJXZ 10019380 f i BillAcceptor.obj
 0001:00018400       ?Init@CDynamicStdCallThunk2@ATL@@QAEHKPAX@Z 10019400 f i BillAcceptor.obj
 0001:00018460       ?Init@CWndProcThunk@ATL@@QAEHP6GJPAUHWND__@@IIJ@ZPAX@Z 10019460 f i BillAcceptor.obj
 0001:000184a0       ?InitFromData@?$IOleObjectImpl@VCOPOSBillAcceptor@@@ATL@@UAGJPAUIDataObject@@HK@Z 100194a0 f i BillAcceptor.obj
 0001:00018510       ?InitLibId@?$CAtlModuleT@VCComModule@ATL@@@ATL@@SAXXZ 10019510 f i BillAcceptor.obj
 0001:00018520       ?InitNew@?$IPersistStorageImpl@VCOPOSBillAcceptor@@@ATL@@UAGJPAUIStorage@@@Z 10019520 f i BillAcceptor.obj
 0001:00018610       ?InitNew@?$IPersistStreamInitImpl@VCOPOSBillAcceptor@@@ATL@@UAGJXZ 10019610 f i BillAcceptor.obj
 0001:000186a0       ?InlineIsEqualUnknown@ATL@@YGHABU_GUID@@@Z 100196a0 f i BillAcceptor.obj
 0001:00018710       ?InternalAddRef@?$CComObjectRootEx@VCComMultiThreadModel@ATL@@@ATL@@QAEKXZ 10019710 f i BillAcceptor.obj
 0001:00018770       ?InternalAddRef@?$CComObjectRootEx@VCComSingleThreadModel@ATL@@@ATL@@QAEKXZ 10019770 f i BillAcceptor.obj
 0001:000187d0       ?InternalFinalConstructAddRef@CComObjectRootBase@ATL@@QAEXXZ 100197d0 f i BillAcceptor.obj
 0001:000187f0       ?InternalFinalConstructAddRef@COPOSBillAcceptor@@QAEXXZ 100197f0 f i BillAcceptor.obj
 0001:00018820       ?InternalFinalConstructRelease@CComObjectRootBase@ATL@@QAEXXZ 10019820 f i BillAcceptor.obj
 0001:00018870       ?InternalFinalConstructRelease@COPOSBillAcceptor@@QAEXXZ 10019870 f i BillAcceptor.obj
 0001:000188a0       ?InternalGetSite@CComControlBase@ATL@@QAEJABU_GUID@@PAPAX@Z 100198a0 f i BillAcceptor.obj
 0001:00018960       ?InternalQueryInterface@CComObjectRootBase@ATL@@SGJPAXPBU_ATL_INTMAP_ENTRY@2@ABU_GUID@@PAPAX@Z 10019960 f i BillAcceptor.obj
 0001:00018a20       ?InternalRelease@?$CComObjectRootEx@VCComMultiThreadModel@ATL@@@ATL@@QAEKXZ 10019a20 f i BillAcceptor.obj
 0001:00018a90       ?InternalRelease@?$CComObjectRootEx@VCComSingleThreadModel@ATL@@@ATL@@QAEKXZ 10019a90 f i BillAcceptor.obj
 0001:00018b00       ?InternalSetAtIndex@?$CSimpleArray@GV?$CSimpleArrayEqualHelper@G@ATL@@@ATL@@QAEXHABG@Z 10019b00 f i BillAcceptor.obj
 0001:00018b70       ?InternalSetAtIndex@?$CSimpleMap@PA_WPA_WVCExpansionVectorEqualHelper@ATL@@@ATL@@QAEXHABQA_W0@Z 10019b70 f i BillAcceptor.obj
 0001:00018c10       ?Invoke@?$IDispatchImpl@UIOPOSBillAcceptor@@$1?IID_IOPOSBillAcceptor@@3U_GUID@@B$1?LIBID_OposBillAcceptor_CCO@@3U3@B$00$0A@VCComTypeInfoHolder@ATL@@@ATL@@UAGJJABU_GUID@@KGPAUtagDISPPARAMS@@PAUtagVARIANT@@PAUtagEXCEPINFO@@PAI@Z 10019c10 f i BillAcceptor.obj
 0001:00018c50       ?Invoke@CComTypeInfoHolder@ATL@@QAEJPAUIDispatch@@JABU_GUID@@KGPAUtagDISPPARAMS@@PAUtagVARIANT@@PAUtagEXCEPINFO@@PAI@Z 10019c50 f i BillAcceptor.obj
 0001:00018ce0       ?IsDirty@?$IPersistStorageImpl@VCOPOSBillAcceptor@@@ATL@@UAGJXZ 10019ce0 f i BillAcceptor.obj
 0001:00018dd0       ?IsDirty@?$IPersistStreamInitImpl@VCOPOSBillAcceptor@@@ATL@@UAGJXZ 10019dd0 f i BillAcceptor.obj
 0001:00018e70       ?IsEqualKey@CExpansionVectorEqualHelper@ATL@@SA_NQA_W0@Z 10019e70 f i BillAcceptor.obj
 0001:00018ea0       ?IsEqualObject@?$CComPtrBase@UIOleClientSite@@@ATL@@QAE_NPAUIUnknown@@@Z 10019ea0 f i BillAcceptor.obj
 0001:00018fd0       ?IsEqualObject@?$CComPtrBase@UITypeInfo@@@ATL@@QAE_NPAUIUnknown@@@Z 10019fd0 f i BillAcceptor.obj
 0001:00019100       ?IsSpace@CRegParser@ATL@@IAEH_W@Z 1001a100 f i BillAcceptor.obj
 0001:00019170       ?IsUpToDate@?$IOleObjectImpl@VCOPOSBillAcceptor@@@ATL@@UAGJXZ 1001a170 f i BillAcceptor.obj
 0001:000191d0       ?Length@CComBSTR@ATL@@QBEIXZ 1001a1d0 f i BillAcceptor.obj
 0001:00019210       ?Load@?$IPersistStorageImpl@VCOPOSBillAcceptor@@@ATL@@UAGJPAUIStorage@@@Z 1001a210 f i BillAcceptor.obj
 0001:00019370       ?Load@?$IPersistStreamInitImpl@VCOPOSBillAcceptor@@@ATL@@UAGJPAUIStream@@@Z 1001a370 f i BillAcceptor.obj
 0001:00019400       ?LoadCursorW@AtlModuleRegisterWndClassInfoParamW@ATL@@SAPAUHICON__@@PAUHINSTANCE__@@PB_W@Z 1001a400 f i BillAcceptor.obj
 0001:00019430       ?LoadNameCache@CComTypeInfoHolder@ATL@@QAEJPAUITypeInfo@@@Z 1001a430 f i BillAcceptor.obj
 0001:000196c0       ?Lock@?$CComCritSecLock@VCComCriticalSection@ATL@@@ATL@@QAEJXZ 1001a6c0 f i BillAcceptor.obj
 0001:00019770       ?Lock@?$CComObjectRootEx@VCComSingleThreadModel@ATL@@@ATL@@QAEXXZ 1001a770 f i BillAcceptor.obj
 0001:00019790       ?Lock@CAtlModule@ATL@@UAEJXZ 1001a790 f i BillAcceptor.obj
 0001:000197c0       ?Lock@CComCriticalSection@ATL@@QAEJXZ 1001a7c0 f i BillAcceptor.obj
 0001:00019800       ?Lock@CComFakeCriticalSection@ATL@@QAEJXZ 1001a800 f i BillAcceptor.obj
 0001:00019820       ?LockServer@CComClassFactory@ATL@@UAGJH@Z 1001a820 f i BillAcceptor.obj
 0001:00019880       ?Lookup@?$CSimpleMap@PA_WPA_WVCExpansionVectorEqualHelper@ATL@@@ATL@@QBEPA_WABQA_W@Z 1001a880 f i BillAcceptor.obj
 0001:000198d0       ?Next@?$CComEnumImpl@UIEnumConnectionPoints@@$1?_GUID_b196b285_bab4_101a_b69c_00aa00341d07@@3U__s_GUID@@BPAUIConnectionPoint@@V?$_CopyInterface@UIConnectionPoint@@@ATL@@@ATL@@UAGJKPAPAUIConnectionPoint@@PAK@Z 1001a8d0 f i BillAcceptor.obj
 0001:00019a40       ?Next@?$CComEnumImpl@UIEnumConnections@@$1?_GUID_b196b287_bab4_101a_b69c_00aa00341d07@@3U__s_GUID@@BUtagCONNECTDATA@@V?$_Copy@UtagCONNECTDATA@@@ATL@@@ATL@@UAGJKPAUtagCONNECTDATA@@PAK@Z 1001aa40 f i BillAcceptor.obj
 0001:00019bb0       ?NextToken@CRegParser@ATL@@IAEJPA_W@Z 1001abb0 f i BillAcceptor.obj
 0001:00019e50       ?OLE2CT_EX@@YAPB_WPB_WI@Z  1001ae50 f i BillAcceptor.obj
 0001:00019e60       ?OLE2CT_EX_DEF@@YAPB_WPB_W@Z 1001ae60 f i BillAcceptor.obj
 0001:00019e70       ?OLE2T_EX@@YAPA_WPA_WI@Z   1001ae70 f i BillAcceptor.obj
 0001:00019e80       ?OnAmbientPropertyChange@?$IOleControlImpl@VCOPOSBillAcceptor@@@ATL@@UAGJJ@Z 1001ae80 f i BillAcceptor.obj
 0001:00019f10       ?OnDocWindowActivate@?$IOleInPlaceActiveObjectImpl@VCOPOSBillAcceptor@@@ATL@@UAGJH@Z 1001af10 f i BillAcceptor.obj
 0001:00019fa0       ?OnDrawAdvanced@CComControlBase@ATL@@UAEJAAUATL_DRAWINFO@@@Z 1001afa0 f i BillAcceptor.obj
 0001:0001a1c0       ?OnFinalMessage@?$CWindowImplBaseT@VCWindow@ATL@@V?$CWinTraits@$0FGAAAAAA@$0A@@2@@ATL@@UAEXPAUHWND__@@@Z 1001b1c0 f i BillAcceptor.obj
 0001:0001a1e0       ?OnFrameWindowActivate@?$IOleInPlaceActiveObjectImpl@VCOPOSBillAcceptor@@@ATL@@UAGJH@Z 1001b1e0 f i BillAcceptor.obj
 0001:0001a240       ?OnKillFocus@CComControlBase@ATL@@QAEJIIJAAH@Z 1001b240 f i BillAcceptor.obj
 0001:0001a340       ?OnMnemonic@?$IOleControlImpl@VCOPOSBillAcceptor@@@ATL@@UAGJPAUtagMSG@@@Z 1001b340 f i BillAcceptor.obj
 0001:0001a3b0       ?OnMouseActivate@CComControlBase@ATL@@QAEJIIJAAH@Z 1001b3b0 f i BillAcceptor.obj
 0001:0001a500       ?OnPaint@CComControlBase@ATL@@QAEJIIJAAH@Z 1001b500 f i BillAcceptor.obj
 0001:0001a680       ?OnPostVerbDiscardUndo@?$IOleObjectImpl@VCOPOSBillAcceptor@@@ATL@@QAEJXZ 1001b680 f i BillAcceptor.obj
 0001:0001a6a0       ?OnPostVerbHide@?$IOleObjectImpl@VCOPOSBillAcceptor@@@ATL@@QAEJXZ 1001b6a0 f i BillAcceptor.obj
 0001:0001a6c0       ?OnPostVerbInPlaceActivate@?$IOleObjectImpl@VCOPOSBillAcceptor@@@ATL@@QAEJXZ 1001b6c0 f i BillAcceptor.obj
 0001:0001a6e0       ?OnPostVerbOpen@?$IOleObjectImpl@VCOPOSBillAcceptor@@@ATL@@QAEJXZ 1001b6e0 f i BillAcceptor.obj
 0001:0001a700       ?OnPostVerbShow@?$IOleObjectImpl@VCOPOSBillAcceptor@@@ATL@@QAEJXZ 1001b700 f i BillAcceptor.obj
 0001:0001a720       ?OnPostVerbUIActivate@?$IOleObjectImpl@VCOPOSBillAcceptor@@@ATL@@QAEJXZ 1001b720 f i BillAcceptor.obj
 0001:0001a740       ?OnPreVerbDiscardUndo@?$IOleObjectImpl@VCOPOSBillAcceptor@@@ATL@@QAEJXZ 1001b740 f i BillAcceptor.obj
 0001:0001a760       ?OnPreVerbHide@?$IOleObjectImpl@VCOPOSBillAcceptor@@@ATL@@QAEJXZ 1001b760 f i BillAcceptor.obj
 0001:0001a780       ?OnPreVerbInPlaceActivate@?$IOleObjectImpl@VCOPOSBillAcceptor@@@ATL@@QAEJXZ 1001b780 f i BillAcceptor.obj
 0001:0001a7a0       ?OnPreVerbOpen@?$IOleObjectImpl@VCOPOSBillAcceptor@@@ATL@@QAEJXZ 1001b7a0 f i BillAcceptor.obj
 0001:0001a7c0       ?OnPreVerbShow@?$IOleObjectImpl@VCOPOSBillAcceptor@@@ATL@@QAEJXZ 1001b7c0 f i BillAcceptor.obj
 0001:0001a7e0       ?OnPreVerbUIActivate@?$IOleObjectImpl@VCOPOSBillAcceptor@@@ATL@@QAEJXZ 1001b7e0 f i BillAcceptor.obj
 0001:0001a800       ?OnSetFocus@CComControlBase@ATL@@QAEJIIJAAH@Z 1001b800 f i BillAcceptor.obj
 0001:0001a990       ?OnWindowMessage@?$IOleInPlaceObjectWindowlessImpl@VCOPOSBillAcceptor@@@ATL@@UAGJIIJPAJ@Z 1001b990 f i BillAcceptor.obj
 0001:0001aaf0       ?Open@CRegKey@ATL@@QAEJPAUHKEY__@@PB_WK@Z 1001baf0 f i BillAcceptor.obj
 0001:0001ac40       ?OuterAddRef@CComObjectRootBase@ATL@@QAEKXZ 1001bc40 f i BillAcceptor.obj
 0001:0001ac80       ?OuterQueryInterface@CComObjectRootBase@ATL@@QAEJABU_GUID@@PAPAX@Z 1001bc80 f i BillAcceptor.obj
 0001:0001acd0       ?OuterRelease@CComObjectRootBase@ATL@@QAEKXZ 1001bcd0 f i BillAcceptor.obj
 0001:0001ad10       ?PreProcessBuffer@CRegParser@ATL@@QAEJPA_WPAPA_W@Z 1001bd10 f i BillAcceptor.obj
 0001:0001b250       ?PreTranslateAccelerator@CComControlBase@ATL@@QAEHPAUtagMSG@@AAJ@Z 1001c250 f i BillAcceptor.obj
 0001:0001b270       ?ProcessWindowMessage@?$CComControl@VCOPOSBillAcceptor@@V?$CWindowImpl@VCOPOSBillAcceptor@@VCWindow@ATL@@V?$CWinTraits@$0FGAAAAAA@$0A@@3@@ATL@@@ATL@@UAEHPAUHWND__@@IIJAAJK@Z 1001c270 f i BillAcceptor.obj
 0001:0001b440       ?ProcessWindowMessage@COPOSBillAcceptor@@UAEHPAUHWND__@@IIJAAJK@Z 1001c440 f i BillAcceptor.obj
 0001:0001b540       ?PutProperty@?$CComPtr@UIDispatch@@@ATL@@QAEJJPAUtagVARIANT@@@Z 1001c540 f i BillAcceptor.obj
 0001:0001b580       ?PutProperty@?$CComPtr@UIDispatch@@@ATL@@SAJPAUIDispatch@@JPAUtagVARIANT@@@Z 1001c580 f i BillAcceptor.obj
 0001:0001b770       ?QueryGetData@?$IDataObjectImpl@VCOPOSBillAcceptor@@@ATL@@UAGJPAUtagFORMATETC@@@Z 1001c770 f i BillAcceptor.obj
 0001:0001b7e0       ?QueryHitPoint@?$IViewObjectExImpl@VCOPOSBillAcceptor@@@ATL@@UAGJKPBUtagRECT@@UtagPOINT@@JPAK@Z 1001c7e0 f i BillAcceptor.obj
 0001:0001b8f0       ?QueryHitRect@?$IViewObjectExImpl@VCOPOSBillAcceptor@@@ATL@@UAGJKPBUtagRECT@@0JPAK@Z 1001c8f0 f i BillAcceptor.obj
 0001:0001ba40       ?QueryInterface@?$CComAggObject@VCOPOSBillAcceptor@@@ATL@@UAGJABU_GUID@@PAPAX@Z 1001ca40 f i BillAcceptor.obj
 0001:0001baf0       ?QueryInterface@?$CComContainedObject@VCOPOSBillAcceptor@@@ATL@@UAGJABU_GUID@@PAPAX@Z 1001caf0 f i BillAcceptor.obj
 0001:0001bb14       ?QueryInterface@?$CComContainedObject@VCOPOSBillAcceptor@@@ATL@@WHA@AGJABU_GUID@@PAPAX@Z 1001cb14 f i BillAcceptor.obj
 0001:0001bb1e       ?QueryInterface@?$CComContainedObject@VCOPOSBillAcceptor@@@ATL@@WHE@AGJABU_GUID@@PAPAX@Z 1001cb1e f i BillAcceptor.obj
 0001:0001bb28       ?QueryInterface@?$CComContainedObject@VCOPOSBillAcceptor@@@ATL@@WHI@AGJABU_GUID@@PAPAX@Z 1001cb28 f i BillAcceptor.obj
 0001:0001bb32       ?QueryInterface@?$CComContainedObject@VCOPOSBillAcceptor@@@ATL@@WHM@AGJABU_GUID@@PAPAX@Z 1001cb32 f i BillAcceptor.obj
 0001:0001bb3c       ?QueryInterface@?$CComContainedObject@VCOPOSBillAcceptor@@@ATL@@WIA@AGJABU_GUID@@PAPAX@Z 1001cb3c f i BillAcceptor.obj
 0001:0001bb49       ?QueryInterface@?$CComContainedObject@VCOPOSBillAcceptor@@@ATL@@WIE@AGJABU_GUID@@PAPAX@Z 1001cb49 f i BillAcceptor.obj
 0001:0001bb56       ?QueryInterface@?$CComContainedObject@VCOPOSBillAcceptor@@@ATL@@WII@AGJABU_GUID@@PAPAX@Z 1001cb56 f i BillAcceptor.obj
 0001:0001bb63       ?QueryInterface@?$CComContainedObject@VCOPOSBillAcceptor@@@ATL@@WIM@AGJABU_GUID@@PAPAX@Z 1001cb63 f i BillAcceptor.obj
 0001:0001bb70       ?QueryInterface@?$CComContainedObject@VCOPOSBillAcceptor@@@ATL@@WJA@AGJABU_GUID@@PAPAX@Z 1001cb70 f i BillAcceptor.obj
 0001:0001bb7d       ?QueryInterface@?$CComContainedObject@VCOPOSBillAcceptor@@@ATL@@WJE@AGJABU_GUID@@PAPAX@Z 1001cb7d f i BillAcceptor.obj
 0001:0001bb8a       ?QueryInterface@?$CComContainedObject@VCOPOSBillAcceptor@@@ATL@@WJI@AGJABU_GUID@@PAPAX@Z 1001cb8a f i BillAcceptor.obj
 0001:0001bb97       ?QueryInterface@?$CComContainedObject@VCOPOSBillAcceptor@@@ATL@@WJM@AGJABU_GUID@@PAPAX@Z 1001cb97 f i BillAcceptor.obj
 0001:0001bba4       ?QueryInterface@?$CComContainedObject@VCOPOSBillAcceptor@@@ATL@@WKA@AGJABU_GUID@@PAPAX@Z 1001cba4 f i BillAcceptor.obj
 0001:0001bbc0       ?QueryInterface@?$CComObject@V?$CComEnum@UIEnumConnectionPoints@@$1?_GUID_b196b285_bab4_101a_b69c_00aa00341d07@@3U__s_GUID@@BPAUIConnectionPoint@@V?$_CopyInterface@UIConnectionPoint@@@ATL@@VCComSingleThreadModel@6@@ATL@@@ATL@@UAGJABU_GUID@@PAPAX@Z 1001cbc0 f i BillAcceptor.obj
 0001:0001bbe0       ?QueryInterface@?$CComObject@V?$CComEnum@UIEnumConnections@@$1?_GUID_b196b287_bab4_101a_b69c_00aa00341d07@@3U__s_GUID@@BUtagCONNECTDATA@@V?$_Copy@UtagCONNECTDATA@@@ATL@@VCComSingleThreadModel@6@@ATL@@@ATL@@UAGJABU_GUID@@PAPAX@Z 1001cbe0 f i BillAcceptor.obj
 0001:0001bc00       ?QueryInterface@?$CComObject@VCOPOSBillAcceptor@@@ATL@@UAGJABU_GUID@@PAPAX@Z 1001cc00 f i BillAcceptor.obj
 0001:0001bc1e       ?QueryInterface@?$CComObject@VCOPOSBillAcceptor@@@ATL@@WHA@AGJABU_GUID@@PAPAX@Z 1001cc1e f i BillAcceptor.obj
 0001:0001bc28       ?QueryInterface@?$CComObject@VCOPOSBillAcceptor@@@ATL@@WHE@AGJABU_GUID@@PAPAX@Z 1001cc28 f i BillAcceptor.obj
 0001:0001bc32       ?QueryInterface@?$CComObject@VCOPOSBillAcceptor@@@ATL@@WHI@AGJABU_GUID@@PAPAX@Z 1001cc32 f i BillAcceptor.obj
 0001:0001bc3c       ?QueryInterface@?$CComObject@VCOPOSBillAcceptor@@@ATL@@WHM@AGJABU_GUID@@PAPAX@Z 1001cc3c f i BillAcceptor.obj
 0001:0001bc46       ?QueryInterface@?$CComObject@VCOPOSBillAcceptor@@@ATL@@WIA@AGJABU_GUID@@PAPAX@Z 1001cc46 f i BillAcceptor.obj
 0001:0001bc53       ?QueryInterface@?$CComObject@VCOPOSBillAcceptor@@@ATL@@WIE@AGJABU_GUID@@PAPAX@Z 1001cc53 f i BillAcceptor.obj
 0001:0001bc60       ?QueryInterface@?$CComObject@VCOPOSBillAcceptor@@@ATL@@WII@AGJABU_GUID@@PAPAX@Z 1001cc60 f i BillAcceptor.obj
 0001:0001bc6d       ?QueryInterface@?$CComObject@VCOPOSBillAcceptor@@@ATL@@WIM@AGJABU_GUID@@PAPAX@Z 1001cc6d f i BillAcceptor.obj
 0001:0001bc7a       ?QueryInterface@?$CComObject@VCOPOSBillAcceptor@@@ATL@@WJA@AGJABU_GUID@@PAPAX@Z 1001cc7a f i BillAcceptor.obj
 0001:0001bc87       ?QueryInterface@?$CComObject@VCOPOSBillAcceptor@@@ATL@@WJE@AGJABU_GUID@@PAPAX@Z 1001cc87 f i BillAcceptor.obj
 0001:0001bc94       ?QueryInterface@?$CComObject@VCOPOSBillAcceptor@@@ATL@@WJI@AGJABU_GUID@@PAPAX@Z 1001cc94 f i BillAcceptor.obj
 0001:0001bca1       ?QueryInterface@?$CComObject@VCOPOSBillAcceptor@@@ATL@@WJM@AGJABU_GUID@@PAPAX@Z 1001cca1 f i BillAcceptor.obj
 0001:0001bcae       ?QueryInterface@?$CComObject@VCOPOSBillAcceptor@@@ATL@@WKA@AGJABU_GUID@@PAPAX@Z 1001ccae f i BillAcceptor.obj
 0001:0001bcc0       ?QueryInterface@?$CComObjectCached@VCComClassFactory@ATL@@@ATL@@UAGJABU_GUID@@PAPAX@Z 1001ccc0 f i BillAcceptor.obj
 0001:0001bce0       ?QueryInterface@CRegObject@ATL@@UAGJABU_GUID@@PAPAX@Z 1001cce0 f i BillAcceptor.obj
 0001:0001bd30       ?QuickActivate@?$IQuickActivateImpl@VCOPOSBillAcceptor@@@ATL@@UAGJPAUtagQACONTAINER@@PAUtagQACONTROL@@@Z 1001cd30 f i BillAcceptor.obj
 0001:0001bdc0       ?ReactivateAndUndo@?$IOleInPlaceObjectWindowlessImpl@VCOPOSBillAcceptor@@@ATL@@UAGJXZ 1001cdc0 f i BillAcceptor.obj
 0001:0001be30       ?ReadFromStream@CComBSTR@ATL@@QAEJPAUIStream@@@Z 1001ce30 f i BillAcceptor.obj
 0001:0001c230       ?ReadFromStream@CComVariant@ATL@@QAEJPAUIStream@@GTClassesAllowedInStream@2@K@Z 1001d230 f i BillAcceptor.obj
 0001:0001c590       ?RecurseDeleteKey@CRegKey@ATL@@QAEJPB_W@Z 1001d590 f i BillAcceptor.obj
 0001:0001c770       ?RegCreateKeyExW@CAtlTransactionManager@ATL@@QAEJPAUHKEY__@@PB_WKPA_WKKQAU_SECURITY_ATTRIBUTES@@PAPAU3@PAK@Z 1001d770 f i BillAcceptor.obj
 0001:0001c8a0       ?RegDeleteKeyW@CAtlTransactionManager@ATL@@QAEJPAUHKEY__@@PB_W@Z 1001d8a0 f i BillAcceptor.obj
 0001:0001c9a0       ?RegOpenKeyExW@CAtlTransactionManager@ATL@@QAEJPAUHKEY__@@PB_WKKPAPAU3@@Z 1001d9a0 f i BillAcceptor.obj
 0001:0001cab0       ?Register@_ATL_WNDCLASSINFOW@ATL@@QAEGPAP6GJPAUHWND__@@IIJ@Z@Z 1001dab0 f i BillAcceptor.obj
 0001:0001caf0       ?RegisterBuffer@CRegParser@ATL@@QAEJPA_WH@Z 1001daf0 f i BillAcceptor.obj
 0001:0001ce20       ?RegisterClassExW@AtlModuleRegisterWndClassInfoParamW@ATL@@SAGPAU_ATL_WIN_MODULE70@2@PBUtagWNDCLASSEXW@@@Z 1001de20 f i BillAcceptor.obj
 0001:0001ce40       ?RegisterFromResource@CRegObject@ATL@@IAEJPB_W00H@Z 1001de40 f i BillAcceptor.obj
 0001:0001d1d0       ?RegisterServer@?$CAtlModuleT@VCComModule@ATL@@@ATL@@QAEJHPBU_GUID@@@Z 1001e1d0 f i BillAcceptor.obj
 0001:0001d250       ?RegisterServer@CAtlComModule@ATL@@QAEJHPBU_GUID@@@Z 1001e250 f i BillAcceptor.obj
 0001:0001d280       ?RegisterServer@CComModule@ATL@@QAEJHPBU_GUID@@@Z 1001e280 f i BillAcceptor.obj
 0001:0001d360       ?RegisterSubkeys@CRegParser@ATL@@IAEJPA_WPAUHKEY__@@HH@Z 1001e360 f i BillAcceptor.obj
 0001:0001de80       ?Release@?$CComAggObject@VCOPOSBillAcceptor@@@ATL@@UAGKXZ 1001ee80 f i BillAcceptor.obj
 0001:0001df40       ?Release@?$CComContainedObject@VCOPOSBillAcceptor@@@ATL@@UAGKXZ 1001ef40 f i BillAcceptor.obj
 0001:0001df5c       ?Release@?$CComContainedObject@VCOPOSBillAcceptor@@@ATL@@WHA@AGKXZ 1001ef5c f i BillAcceptor.obj
 0001:0001df66       ?Release@?$CComContainedObject@VCOPOSBillAcceptor@@@ATL@@WHE@AGKXZ 1001ef66 f i BillAcceptor.obj
 0001:0001df70       ?Release@?$CComContainedObject@VCOPOSBillAcceptor@@@ATL@@WHI@AGKXZ 1001ef70 f i BillAcceptor.obj
 0001:0001df7a       ?Release@?$CComContainedObject@VCOPOSBillAcceptor@@@ATL@@WHM@AGKXZ 1001ef7a f i BillAcceptor.obj
 0001:0001df84       ?Release@?$CComContainedObject@VCOPOSBillAcceptor@@@ATL@@WIA@AGKXZ 1001ef84 f i BillAcceptor.obj
 0001:0001df91       ?Release@?$CComContainedObject@VCOPOSBillAcceptor@@@ATL@@WIE@AGKXZ 1001ef91 f i BillAcceptor.obj
 0001:0001df9e       ?Release@?$CComContainedObject@VCOPOSBillAcceptor@@@ATL@@WII@AGKXZ 1001ef9e f i BillAcceptor.obj
 0001:0001dfab       ?Release@?$CComContainedObject@VCOPOSBillAcceptor@@@ATL@@WIM@AGKXZ 1001efab f i BillAcceptor.obj
 0001:0001dfb8       ?Release@?$CComContainedObject@VCOPOSBillAcceptor@@@ATL@@WJA@AGKXZ 1001efb8 f i BillAcceptor.obj
 0001:0001dfc5       ?Release@?$CComContainedObject@VCOPOSBillAcceptor@@@ATL@@WJE@AGKXZ 1001efc5 f i BillAcceptor.obj
 0001:0001dfd2       ?Release@?$CComContainedObject@VCOPOSBillAcceptor@@@ATL@@WJI@AGKXZ 1001efd2 f i BillAcceptor.obj
 0001:0001dfdf       ?Release@?$CComContainedObject@VCOPOSBillAcceptor@@@ATL@@WJM@AGKXZ 1001efdf f i BillAcceptor.obj
 0001:0001dfec       ?Release@?$CComContainedObject@VCOPOSBillAcceptor@@@ATL@@WKA@AGKXZ 1001efec f i BillAcceptor.obj
 0001:0001dff9       ?Release@?$CComContainedObject@VCOPOSBillAcceptor@@@ATL@@WKI@AGKXZ 1001eff9 f i BillAcceptor.obj
 0001:0001e006       ?Release@?$CComContainedObject@VCOPOSBillAcceptor@@@ATL@@WLE@AGKXZ 1001f006 f i BillAcceptor.obj
 0001:0001e020       ?Release@?$CComObject@V?$CComEnum@UIEnumConnectionPoints@@$1?_GUID_b196b285_bab4_101a_b69c_00aa00341d07@@3U__s_GUID@@BPAUIConnectionPoint@@V?$_CopyInterface@UIConnectionPoint@@@ATL@@VCComSingleThreadModel@6@@ATL@@@ATL@@UAGKXZ 1001f020 f i BillAcceptor.obj
 0001:0001e0e0       ?Release@?$CComObject@V?$CComEnum@UIEnumConnections@@$1?_GUID_b196b287_bab4_101a_b69c_00aa00341d07@@3U__s_GUID@@BUtagCONNECTDATA@@V?$_Copy@UtagCONNECTDATA@@@ATL@@VCComSingleThreadModel@6@@ATL@@@ATL@@UAGKXZ 1001f0e0 f i BillAcceptor.obj
 0001:0001e1a0       ?Release@?$CComObject@VCOPOSBillAcceptor@@@ATL@@UAGKXZ 1001f1a0 f i BillAcceptor.obj
 0001:0001e259       ?Release@?$CComObject@VCOPOSBillAcceptor@@@ATL@@WHA@AGKXZ 1001f259 f i BillAcceptor.obj
 0001:0001e263       ?Release@?$CComObject@VCOPOSBillAcceptor@@@ATL@@WHE@AGKXZ 1001f263 f i BillAcceptor.obj
 0001:0001e26d       ?Release@?$CComObject@VCOPOSBillAcceptor@@@ATL@@WHI@AGKXZ 1001f26d f i BillAcceptor.obj
 0001:0001e277       ?Release@?$CComObject@VCOPOSBillAcceptor@@@ATL@@WHM@AGKXZ 1001f277 f i BillAcceptor.obj
 0001:0001e281       ?Release@?$CComObject@VCOPOSBillAcceptor@@@ATL@@WIA@AGKXZ 1001f281 f i BillAcceptor.obj
 0001:0001e28e       ?Release@?$CComObject@VCOPOSBillAcceptor@@@ATL@@WIE@AGKXZ 1001f28e f i BillAcceptor.obj
 0001:0001e29b       ?Release@?$CComObject@VCOPOSBillAcceptor@@@ATL@@WII@AGKXZ 1001f29b f i BillAcceptor.obj
 0001:0001e2a8       ?Release@?$CComObject@VCOPOSBillAcceptor@@@ATL@@WIM@AGKXZ 1001f2a8 f i BillAcceptor.obj
 0001:0001e2b5       ?Release@?$CComObject@VCOPOSBillAcceptor@@@ATL@@WJA@AGKXZ 1001f2b5 f i BillAcceptor.obj
 0001:0001e2c2       ?Release@?$CComObject@VCOPOSBillAcceptor@@@ATL@@WJE@AGKXZ 1001f2c2 f i BillAcceptor.obj
 0001:0001e2cf       ?Release@?$CComObject@VCOPOSBillAcceptor@@@ATL@@WJI@AGKXZ 1001f2cf f i BillAcceptor.obj
 0001:0001e2dc       ?Release@?$CComObject@VCOPOSBillAcceptor@@@ATL@@WJM@AGKXZ 1001f2dc f i BillAcceptor.obj
 0001:0001e2e9       ?Release@?$CComObject@VCOPOSBillAcceptor@@@ATL@@WKA@AGKXZ 1001f2e9 f i BillAcceptor.obj
 0001:0001e2f6       ?Release@?$CComObject@VCOPOSBillAcceptor@@@ATL@@WKI@AGKXZ 1001f2f6 f i BillAcceptor.obj
 0001:0001e303       ?Release@?$CComObject@VCOPOSBillAcceptor@@@ATL@@WLE@AGKXZ 1001f303 f i BillAcceptor.obj
 0001:0001e310       ?Release@?$CComObjectCached@VCComClassFactory@ATL@@@ATL@@UAGKXZ 1001f310 f i BillAcceptor.obj
 0001:0001e3b0       ?Release@?$CComPtrBase@UIAdviseSink@@@ATL@@QAEXXZ 1001f3b0 f i BillAcceptor.obj
 0001:0001e410       ?Release@?$CComPtrBase@UIDispatch@@@ATL@@QAEXXZ 1001f410 f i BillAcceptor.obj
 0001:0001e470       ?Release@?$CComPtrBase@UIOleInPlaceSiteWindowless@@@ATL@@QAEXXZ 1001f470 f i BillAcceptor.obj
 0001:0001e4d0       ?Release@CRegObject@ATL@@UAGKXZ 1001f4d0 f i BillAcceptor.obj
 0001:0001e510       ?Remove@CComDynamicUnkArray@ATL@@QAEHK@Z 1001f510 f i BillAcceptor.obj
 0001:0001e5c0       ?RemoveAll@?$CSimpleMap@PA_WPA_WVCExpansionVectorEqualHelper@ATL@@@ATL@@QAEXXZ 1001f5c0 f i BillAcceptor.obj
 0001:0001e650       ?Reset@?$CComEnumImpl@UIEnumConnectionPoints@@$1?_GUID_b196b285_bab4_101a_b69c_00aa00341d07@@3U__s_GUID@@BPAUIConnectionPoint@@V?$_CopyInterface@UIConnectionPoint@@@ATL@@@ATL@@UAGJXZ 1001f650 f i BillAcceptor.obj
 0001:0001e670       ?Reset@?$CComEnumImpl@UIEnumConnections@@$1?_GUID_b196b287_bab4_101a_b69c_00aa00341d07@@3U__s_GUID@@BUtagCONNECTDATA@@V?$_Copy@UtagCONNECTDATA@@@ATL@@@ATL@@UAGJXZ 1001f670 f i BillAcceptor.obj
 0001:0001e690       ?ResizeBorder@?$IOleInPlaceActiveObjectImpl@VCOPOSBillAcceptor@@@ATL@@UAGJPBUtagRECT@@PAUIOleInPlaceUIWindow@@H@Z 1001f690 f i BillAcceptor.obj
 0001:0001e6f0       ?ResourceRegister@CRegObject@ATL@@QAGJPB_WI0@Z 1001f6f0 f i BillAcceptor.obj
 0001:0001e7d0       ?ResourceRegisterSz@CRegObject@ATL@@QAGJPB_W00@Z 1001f7d0 f i BillAcceptor.obj
 0001:0001e8d0       ?ResourceUnregister@CRegObject@ATL@@QAGJPB_WI0@Z 1001f8d0 f i BillAcceptor.obj
 0001:0001e9b0       ?ResourceUnregisterSz@CRegObject@ATL@@QAGJPB_W00@Z 1001f9b0 f i BillAcceptor.obj
 0001:0001eab0       ?SOData@COPOSBillAcceptor@@MAGJJ@Z 1001fab0 f i BillAcceptor.obj
 0001:0001eb30       ?SODirectIO@COPOSBillAcceptor@@MAGJJPAJPAPA_W@Z 1001fb30 f i BillAcceptor.obj
 0001:0001ecf0       ?SOErrorDummy@COPOSBillAcceptor@@MAGJJJJPAJ@Z 1001fcf0 f i BillAcceptor.obj
 0001:0001ed00       ?SOOutputCompleteDummy@COPOSBillAcceptor@@MAGJJ@Z 1001fd00 f i BillAcceptor.obj
 0001:0001ed10       ?SOStatusUpdate@COPOSBillAcceptor@@MAGJJ@Z 1001fd10 f i BillAcceptor.obj
 0001:0001ed90       ?Save@?$IPersistStorageImpl@VCOPOSBillAcceptor@@@ATL@@UAGJPAUIStorage@@H@Z 1001fd90 f i BillAcceptor.obj
 0001:0001eef0       ?Save@?$IPersistStreamInitImpl@VCOPOSBillAcceptor@@@ATL@@UAGJPAUIStream@@H@Z 1001fef0 f i BillAcceptor.obj
 0001:0001ef80       ?SaveCompleted@?$IPersistStorageImpl@VCOPOSBillAcceptor@@@ATL@@UAGJPAUIStorage@@@Z 1001ff80 f i BillAcceptor.obj
 0001:0001efe0       ?SendOnDataChange@CComControlBase@ATL@@QAEJK@Z 1001ffe0 f i BillAcceptor.obj
 0001:0001f0d0       ?SendOnSave@CComControlBase@ATL@@QAEJXZ 100200d0 f i BillAcceptor.obj
 0001:0001f140       ?SendOnViewChange@CComControlBase@ATL@@QAEJKJ@Z 10020140 f i BillAcceptor.obj
 0001:0001f1b0       ?SetAdvise@?$IViewObjectExImpl@VCOPOSBillAcceptor@@@ATL@@UAGJKKPAUIAdviseSink@@@Z 100201b0 f i BillAcceptor.obj
 0001:0001f240       ?SetClientSite@?$IOleObjectImpl@VCOPOSBillAcceptor@@@ATL@@UAGJPAUIOleClientSite@@@Z 10020240 f i BillAcceptor.obj
 0001:0001f2d0       ?SetColorScheme@?$IOleObjectImpl@VCOPOSBillAcceptor@@@ATL@@UAGJPAUtagLOGPALETTE@@@Z 100202d0 f i BillAcceptor.obj
 0001:0001f340       ?SetContentExtent@?$IQuickActivateImpl@VCOPOSBillAcceptor@@@ATL@@UAGJPAUtagSIZE@@@Z 10020340 f i BillAcceptor.obj
 0001:0001f3d0       ?SetControlFocus@CComControlBase@ATL@@QAEHH@Z 100203d0 f i BillAcceptor.obj
 0001:0001f550       ?SetDWORDValue@CRegKey@ATL@@QAEJPB_WK@Z 10020550 f i BillAcceptor.obj
 0001:0001f5d0       ?SetData@?$IDataObjectImpl@VCOPOSBillAcceptor@@@ATL@@UAGJPAUtagFORMATETC@@PAUtagSTGMEDIUM@@H@Z 100205d0 f i BillAcceptor.obj
 0001:0001f640       ?SetExtent@?$IOleObjectImpl@VCOPOSBillAcceptor@@@ATL@@UAGJKPAUtagSIZE@@@Z 10020640 f i BillAcceptor.obj
 0001:0001f6d0       ?SetHostNames@?$IOleObjectImpl@VCOPOSBillAcceptor@@@ATL@@UAGJPB_W0@Z 100206d0 f i BillAcceptor.obj
 0001:0001f730       ?SetInterfaceSafetyOptions@?$IObjectSafetyImpl@VCOPOSBillAcceptor@@$02@ATL@@UAGJABU_GUID@@KK@Z 10020730 f i BillAcceptor.obj
 0001:0001f8a0       ?SetMoniker@?$IOleObjectImpl@VCOPOSBillAcceptor@@@ATL@@UAGJKPAUIMoniker@@@Z 100208a0 f i BillAcceptor.obj
 0001:0001f910       ?SetMultiStringValue@CRegKey@ATL@@QAEJPB_W0@Z 10020910 f i BillAcceptor.obj
 0001:0001fa30       ?SetObjectRects@?$IOleInPlaceObjectWindowlessImpl@VCOPOSBillAcceptor@@@ATL@@UAGJPBUtagRECT@@0@Z 10020a30 f i BillAcceptor.obj
 0001:0001fac0       ?SetStringValue@CRegKey@ATL@@QAEJPB_W0K@Z 10020ac0 f i BillAcceptor.obj
 0001:0001fbf0       ?SetVoid@CComClassFactory@ATL@@QAEXPAX@Z 10020bf0 f i BillAcceptor.obj
 0001:0001fc10       ?SetVoid@CComObjectRootBase@ATL@@QAEXPAX@Z 10020c10 f i BillAcceptor.obj
 0001:0001fc30       ?SetWindowLongPtrW@@YAJPAUHWND__@@HJ@Z 10020c30 f i BillAcceptor.obj
 0001:0001fc60       ?ShowWindow@CWindow@ATL@@QAEHH@Z 10020c60 f i BillAcceptor.obj
 0001:0001fce0       ?Skip@?$CComEnumImpl@UIEnumConnectionPoints@@$1?_GUID_b196b285_bab4_101a_b69c_00aa00341d07@@3U__s_GUID@@BPAUIConnectionPoint@@V?$_CopyInterface@UIConnectionPoint@@@ATL@@@ATL@@UAGJK@Z 10020ce0 f i BillAcceptor.obj
 0001:0001fd60       ?Skip@?$CComEnumImpl@UIEnumConnections@@$1?_GUID_b196b287_bab4_101a_b69c_00aa00341d07@@3U__s_GUID@@BUtagCONNECTDATA@@V?$_Copy@UtagCONNECTDATA@@@ATL@@@ATL@@UAGJK@Z 10020d60 f i BillAcceptor.obj
 0001:0001fde0       ?SkipAssignment@CRegParser@ATL@@IAEJPA_W@Z 10020de0 f i BillAcceptor.obj
 0001:0001fec0       ?SkipWhiteSpace@CRegParser@ATL@@IAEXXZ 10020ec0 f i BillAcceptor.obj
 0001:0001ff10       ?StartWindowProc@?$CWindowImplBaseT@VCWindow@ATL@@V?$CWinTraits@$0FGAAAAAA@$0A@@2@@ATL@@SGJPAUHWND__@@IIJ@Z 10020f10 f i BillAcceptor.obj
 0001:00020030       ?StrChrW@CRegParser@ATL@@KAPA_WPA_W_W@Z 10021030 f i BillAcceptor.obj
 0001:000200a0       ?StrFromMap@CRegObject@ATL@@QAEPB_WPA_W@Z 100210a0 f i BillAcceptor.obj
 0001:00020130       ?Swap@?$CComPtrBase@UIAdviseSink@@@ATL@@IAEXAAV12@@Z 10021130 f i BillAcceptor.obj
 0001:00020170       ?Swap@?$CComPtrBase@UIOleClientSite@@@ATL@@IAEXAAV12@@Z 10021170 f i BillAcceptor.obj
 0001:000201b0       ?Swap@?$CComPtrBase@UIUnknown@@@ATL@@IAEXAAV12@@Z 100211b0 f i BillAcceptor.obj
 0001:000201f0       ?T2COLE_EX@@YAPB_WPB_WI@Z  100211f0 f i BillAcceptor.obj
 0001:00020200       ?T2OLE_EX@@YAPA_WPA_WI@Z   10021200 f i BillAcceptor.obj
 0001:00020210       ?Term@CAtlModule@ATL@@QAEXXZ 10021210 f i BillAcceptor.obj
 0001:000202c0       ?Term@CComModule@ATL@@QAEXXZ 100212c0 f i BillAcceptor.obj
 0001:000203b0       ?TranslateAcceleratorW@?$IOleInPlaceActiveObjectImpl@VCOPOSBillAcceptor@@@ATL@@UAGJPAUtagMSG@@@Z 100213b0 f i BillAcceptor.obj
 0001:000205b0       ?UIDeactivate@?$IOleInPlaceObjectWindowlessImpl@VCOPOSBillAcceptor@@@ATL@@UAGJXZ 100215b0 f i BillAcceptor.obj
 0001:00020630       ?Unadvise@?$CProxy_IOPOSEvents@VCOPOSBillAcceptor@@@@UAGJK@Z 10021630 f i BillAcceptor.obj
 0001:00020670       ?Unadvise@?$IConnectionPointImpl@VCOPOSBillAcceptor@@$1?DIID__IOPOSBillAcceptorEvents@@3U_GUID@@BVCComDynamicUnkArray@ATL@@@ATL@@UAGJK@Z 10021670 f i BillAcceptor.obj
 0001:00020740       ?Unadvise@?$IConnectionPointImpl@VCOPOSBillAcceptor@@$1?IID_IPropertyNotifySink@@3U_GUID@@BVCComDynamicUnkArray@ATL@@@ATL@@UAGJK@Z 10021740 f i BillAcceptor.obj
 0001:00020810       ?Unadvise@?$IOleObjectImpl@VCOPOSBillAcceptor@@@ATL@@UAGJK@Z 10021810 f i BillAcceptor.obj
 0001:000208e0       ?Unfreeze@?$IViewObjectExImpl@VCOPOSBillAcceptor@@@ATL@@UAGJK@Z 100218e0 f i BillAcceptor.obj
 0001:00020950       ?Unlock@?$CComCritSecLock@VCComCriticalSection@ATL@@@ATL@@QAEXXZ 10021950 f i BillAcceptor.obj
 0001:000209c0       ?Unlock@?$CComObjectRootEx@VCComSingleThreadModel@ATL@@@ATL@@QAEXXZ 100219c0 f i BillAcceptor.obj
 0001:000209e0       ?Unlock@CAtlModule@ATL@@UAEJXZ 100219e0 f i BillAcceptor.obj
 0001:00020a10       ?Unlock@CComCriticalSection@ATL@@QAEJXZ 10021a10 f i BillAcceptor.obj
 0001:00020a50       ?Unlock@CComFakeCriticalSection@ATL@@QAEJXZ 10021a50 f i BillAcceptor.obj
 0001:00020a70       ?UnregisterServer@?$CAtlModuleT@VCComModule@ATL@@@ATL@@QAEJHPBU_GUID@@@Z 10021a70 f i BillAcceptor.obj
 0001:00020ae0       ?UnregisterServer@CAtlComModule@ATL@@QAEJHPBU_GUID@@@Z 10021ae0 f i BillAcceptor.obj
 0001:00020b10       ?UnregisterServer@CComModule@ATL@@QAEJHPBU_GUID@@@Z 10021b10 f i BillAcceptor.obj
 0001:00020bf0       ?Update@?$IOleObjectImpl@VCOPOSBillAcceptor@@@ATL@@UAGJXZ 10021bf0 f i BillAcceptor.obj
 0001:00020c50       ?UpdateRegistryFromResource@CAtlModule@ATL@@QAGJIHPAU_ATL_REGMAP_ENTRY@2@@Z 10021c50 f i BillAcceptor.obj
 0001:00021120       ?UpdateRegistryFromResource@CAtlModule@ATL@@QAGJPB_WHPAU_ATL_REGMAP_ENTRY@2@@Z 10022120 f i BillAcceptor.obj
 0001:00021610       ?UpdateRegistryFromResource@CComModule@ATL@@UAGJIHPAU_ATL_REGMAP_ENTRY@2@@Z 10022610 f i BillAcceptor.obj
 0001:00021640       ?UpdateRegistryFromResource@CComModule@ATL@@UAGJPB_WHPAU_ATL_REGMAP_ENTRY@2@@Z 10022640 f i BillAcceptor.obj
 0001:00021670       ?UpdateRegistryFromResourceD@CComModule@ATL@@UAGJIHPAU_ATL_REGMAP_ENTRY@2@@Z 10022670 f i BillAcceptor.obj
 0001:00021680       ?UpdateRegistryFromResourceD@CComModule@ATL@@UAGJPB_WHPAU_ATL_REGMAP_ENTRY@2@@Z 10022680 f i BillAcceptor.obj
 0001:00021690       ?VTFromRegType@CRegParser@ATL@@KAHPB_WAAG@Z 10022690 f i BillAcceptor.obj
 0001:00021770       ?WindowProc@?$CWindowImplBaseT@VCWindow@ATL@@V?$CWinTraits@$0FGAAAAAA@$0A@@2@@ATL@@SGJPAUHWND__@@IIJ@Z 10022770 f i BillAcceptor.obj
 0001:00021980       ?WriteToStream@CComBSTR@ATL@@QAEJPAUIStream@@@Z 10022980 f i BillAcceptor.obj
 0001:00021ae0       ?WriteToStream@CComVariant@ATL@@QAEJPAUIStream@@@Z 10022ae0 f i BillAcceptor.obj
 0001:00021e20       ?WriteToStream@CComVariant@ATL@@QAEJPAUIStream@@G@Z 10022e20 f i BillAcceptor.obj
 0001:00021ef0       ?_AtlFinalConstruct@CComObjectRootBase@ATL@@QAEJXZ 10022ef0 f i BillAcceptor.obj
 0001:00021f10       ?_AtlGetConversionACP@ATL@@YGIXZ 10022f10 f i BillAcceptor.obj
 0001:00021f20       ?_AtlInitialConstruct@?$CComAggObject@VCOPOSBillAcceptor@@@ATL@@QAEJXZ 10022f20 f i BillAcceptor.obj
 0001:00021f70       ?_AtlInitialConstruct@?$CComObjectRootEx@VCComMultiThreadModel@ATL@@@ATL@@QAEJXZ 10022f70 f i BillAcceptor.obj
 0001:00021fa0       ?_AtlInitialConstruct@?$CComObjectRootEx@VCComSingleThreadModel@ATL@@@ATL@@QAEJXZ 10022fa0 f i BillAcceptor.obj
 0001:00021fc0       ?_AtlVerifyStackAvailable@_ATL_SAFE_ALLOCA_IMPL@ATL@@YA_NK@Z 10022fc0 f i BillAcceptor.obj
 0001:00022170       ?_GetEntries@?$CComEnum@UIEnumConnectionPoints@@$1?_GUID_b196b285_bab4_101a_b69c_00aa00341d07@@3U__s_GUID@@BPAUIConnectionPoint@@V?$_CopyInterface@UIConnectionPoint@@@ATL@@VCComSingleThreadModel@6@@ATL@@SGPBU_ATL_INTMAP_ENTRY@2@XZ 10023170 f i BillAcceptor.obj
 0001:00022190       ?_GetEntries@?$CComEnum@UIEnumConnections@@$1?_GUID_b196b287_bab4_101a_b69c_00aa00341d07@@3U__s_GUID@@BUtagCONNECTDATA@@V?$_Copy@UtagCONNECTDATA@@@ATL@@VCComSingleThreadModel@6@@ATL@@SGPBU_ATL_INTMAP_ENTRY@2@XZ 10023190 f i BillAcceptor.obj
 0001:000221b0       ?_GetEntries@CComClassFactory@ATL@@SGPBU_ATL_INTMAP_ENTRY@2@XZ 100231b0 f i BillAcceptor.obj
 0001:000221d0       ?_GetEntries@COPOSBillAcceptor@@SGPBU_ATL_INTMAP_ENTRY@ATL@@XZ 100231d0 f i BillAcceptor.obj
 0001:000221f0       ?_GetRawUnknown@COPOSBillAcceptor@@QAEPAUIUnknown@@XZ 100231f0 f i BillAcceptor.obj
 0001:00022260       ?_GetViewStatus@COPOSBillAcceptor@@QAEKXZ 10023260 f i BillAcceptor.obj
 0001:00022280       ?_InternalQueryInterface@?$CComEnum@UIEnumConnectionPoints@@$1?_GUID_b196b285_bab4_101a_b69c_00aa00341d07@@3U__s_GUID@@BPAUIConnectionPoint@@V?$_CopyInterface@UIConnectionPoint@@@ATL@@VCComSingleThreadModel@6@@ATL@@QAEJABU_GUID@@PAPAX@Z 10023280 f i BillAcceptor.obj
 0001:000222c0       ?_InternalQueryInterface@?$CComEnum@UIEnumConnections@@$1?_GUID_b196b287_bab4_101a_b69c_00aa00341d07@@3U__s_GUID@@BUtagCONNECTDATA@@V?$_Copy@UtagCONNECTDATA@@@ATL@@VCComSingleThreadModel@6@@ATL@@QAEJABU_GUID@@PAPAX@Z 100232c0 f i BillAcceptor.obj
 0001:00022300       ?_InternalQueryInterface@CComClassFactory@ATL@@QAEJABU_GUID@@PAPAX@Z 10023300 f i BillAcceptor.obj
 0001:00022340       ?_InternalQueryInterface@COPOSBillAcceptor@@QAEJABU_GUID@@PAPAX@Z 10023340 f i BillAcceptor.obj
 0001:00022380       ?_LocCPQueryInterface@?$IConnectionPointImpl@VCOPOSBillAcceptor@@$1?DIID__IOPOSBillAcceptorEvents@@3U_GUID@@BVCComDynamicUnkArray@ATL@@@ATL@@UAGJABU_GUID@@PAPAX@Z 10023380 f i BillAcceptor.obj
 0001:00022420       ?_LocCPQueryInterface@?$IConnectionPointImpl@VCOPOSBillAcceptor@@$1?IID_IPropertyNotifySink@@3U_GUID@@BVCComDynamicUnkArray@ATL@@@ATL@@UAGJABU_GUID@@PAPAX@Z 10023420 f i BillAcceptor.obj
 0001:000224c0       ?atlCreate@?$CWindowImpl@VCOPOSBillAcceptor@@VCWindow@ATL@@V?$CWinTraits@$0FGAAAAAA@$0A@@3@@ATL@@QAEPAUHWND__@@PAU3@V_U_RECT@2@PB_WKKV_U_MENUorID@2@PAX@Z 100234c0 f i BillAcceptor.obj
 0001:00022570       ?atlCreate@?$CWindowImplBaseT@VCWindow@ATL@@V?$CWinTraits@$0FGAAAAAA@$0A@@2@@ATL@@QAEPAUHWND__@@PAU3@V_U_RECT@2@PB_WKKV_U_MENUorID@2@GPAX@Z 10023570 f i BillAcceptor.obj
 0001:000226f0       ?atlCreate@CRegKey@ATL@@QAEJPAUHKEY__@@PB_WPA_WKKPAU_SECURITY_ATTRIBUTES@@PAK@Z 100236f0 f i BillAcceptor.obj
 0001:00022850       ?begin@CComDynamicUnkArray@ATL@@QAEPAPAUIUnknown@@XZ 10023850 f i BillAcceptor.obj
 0001:00022870       ?copy@?$_Copy@UtagCONNECTDATA@@@ATL@@SAJPAUtagCONNECTDATA@@PBU3@@Z 10023870 f i BillAcceptor.obj
 0001:00022930       ?copy@?$_CopyInterface@UIConnectionPoint@@@ATL@@SAJPAPAUIConnectionPoint@@PBQAU3@@Z 10023930 f i BillAcceptor.obj
 0001:000229f0       ?destroy@?$_Copy@UtagCONNECTDATA@@@ATL@@SAXPAUtagCONNECTDATA@@@Z 100239f0 f i BillAcceptor.obj
 0001:00022a30       ?destroy@?$_CopyInterface@UIConnectionPoint@@@ATL@@SAXPAPAUIConnectionPoint@@@Z 10023a30 f i BillAcceptor.obj
 0001:00022a70       ?end@CComDynamicUnkArray@ATL@@QAEPAPAUIUnknown@@XZ 10023a70 f i BillAcceptor.obj
 0001:00022a90       ?init@?$_Copy@UtagCONNECTDATA@@@ATL@@SAXPAUtagCONNECTDATA@@@Z 10023a90 f i BillAcceptor.obj
 0001:00022aa0       ?init@?$_CopyInterface@UIConnectionPoint@@@ATL@@SAXPAPAUIConnectionPoint@@@Z 10023aa0 f i BillAcceptor.obj
 0001:00022ab0       ?memcpy_s@Checked@ATL@@YAXPAXIPBXI@Z 10023ab0 f i BillAcceptor.obj
 0001:00022ae0       ?ocscpy_s@@YA_NPA_WIPB_W@Z 10023ae0 f i BillAcceptor.obj
 0001:00022b40       ?ocslen@@YAHPB_W@Z         10023b40 f i BillAcceptor.obj
 0001:00022b70       ?tcsncpy_s@Checked@ATL@@YAHPA_WIPB_WI@Z 10023b70 f i BillAcceptor.obj
 0001:00022ba0       ?wcscat_s@Checked@ATL@@YAXPA_WIPB_W@Z 10023ba0 f i BillAcceptor.obj
 0001:00022bd0       ?wcscpy_s@Checked@ATL@@YAXPA_WIPB_W@Z 10023bd0 f i BillAcceptor.obj
 0001:00022c00       ?wcsncpy_s@Checked@ATL@@YAHPA_WIPB_WI@Z 10023c00 f i BillAcceptor.obj
 0001:00022c30       ?wcsstr@@YAPA_WPA_WPB_W@Z  10023c30 f i BillAcceptor.obj
 0001:00022c50       _InlineIsEqualGUID         10023c50 f i BillAcceptor.obj
 0001:00022cf0       _IsEqualGUID               10023cf0 f i BillAcceptor.obj
 0001:00022d40       ??0COPOSBillAcceptor@@QAE@XZ 10023d40 f   BillAcceptorImpl.obj
 0001:00022e50       ?FinalConstruct@COPOSBillAcceptor@@QAEJXZ 10023e50 f   BillAcceptorImpl.obj
 0001:00022f20       ??1COPOSBillAcceptor@@UAE@XZ 10023f20 f   BillAcceptorImpl.obj
 0001:00023000       ?WriteTrace@COPOSBillAcceptor@@QAAXPB_WZZ 10024000 f   BillAcceptorImpl.obj
 0001:000230b0       ?WriteTraceString@COPOSBillAcceptor@@QAEXPB_WPA_W@Z 100240b0 f   BillAcceptorImpl.obj
 0001:00023420       ?WriteTraceString@COPOSBillAcceptor@@QAAXPAXHHHPB_WZZ 10024420 f   BillAcceptorImpl.obj
 0001:00023650       ?WriteTraceError@COPOSBillAcceptor@@QAEXPB_WK@Z 10024650 f   BillAcceptorImpl.obj
 0001:00023740       ?WriteTraceMethods@COPOSBillAcceptor@@QAEXPAJH@Z 10024740 f   BillAcceptorImpl.obj
 0001:000237b0       ?GetOposProp@COPOSBillAcceptor@@IAEJPBDJPAJJ@Z 100247b0 f   BillAcceptorImpl.obj
 0001:00023a20       ?SetOposProp@COPOSBillAcceptor@@IAEJPBDJJJ@Z 10024a20 f   BillAcceptorImpl.obj
 0001:00023cb0       ?GetOposProp@COPOSBillAcceptor@@IAEJPBDJPAFJ@Z 10024cb0 f   BillAcceptorImpl.obj
 0001:00023d50       ?SetOposProp@COPOSBillAcceptor@@IAEJPBDJFJ@Z 10024d50 f   BillAcceptorImpl.obj
 0001:00023db0       ?GetOposProp@COPOSBillAcceptor@@IAEJPBDJPAPA_WJ@Z 10024db0 f   BillAcceptorImpl.obj
 0001:00024030       ?SetOposProp@COPOSBillAcceptor@@IAEJPBDJPA_WJ@Z 10025030 f   BillAcceptorImpl.obj
 0001:00024370       ?DoInvoke@COPOSBillAcceptor@@IAEJPBDJPAVOposVariant@@IHPAJ_N@Z 10025370 f   BillAcceptorImpl.obj
 0001:00024ca0       ?SetCOFreezeEvents@COPOSBillAcceptor@@IAEXF@Z 10025ca0 f   BillAcceptorImpl.obj
 0001:00024de0       ?FreezeEvents@COPOSBillAcceptor@@MAGJH@Z 10025de0 f   BillAcceptorImpl.obj
 0001:00024ec0       ?OnDraw@COPOSBillAcceptor@@MAEJAAUATL_DRAWINFO@@@Z 10025ec0 f   BillAcceptorImpl.obj
 0001:00025060       ?SOProcessID@COPOSBillAcceptor@@UAGJPAJ@Z 10026060 f   BillAcceptorImpl.obj
 0001:000250a0       ?get_OpenResult@COPOSBillAcceptor@@UAGJPAJ@Z 100260a0 f   BillAcceptorImpl.obj
 0001:000250e0       ?get_BinaryConversion@COPOSBillAcceptor@@UAGJPAJ@Z 100260e0 f   BillAcceptorImpl.obj
 0001:00025110       ?put_BinaryConversion@COPOSBillAcceptor@@UAGJJ@Z 10026110 f   BillAcceptorImpl.obj
 0001:00025140       ?get_CapPowerReporting@COPOSBillAcceptor@@UAGJPAJ@Z 10026140 f   BillAcceptorImpl.obj
 0001:00025170       ?get_CheckHealthText@COPOSBillAcceptor@@UAGJPAPA_W@Z 10026170 f   BillAcceptorImpl.obj
 0001:000251a0       ?get_Claimed@COPOSBillAcceptor@@UAGJPAF@Z 100261a0 f   BillAcceptorImpl.obj
 0001:000251d0       ?get_DataCount@COPOSBillAcceptor@@UAGJPAJ@Z 100261d0 f   BillAcceptorImpl.obj
 0001:00025200       ?get_DataEventEnabled@COPOSBillAcceptor@@UAGJPAF@Z 10026200 f   BillAcceptorImpl.obj
 0001:00025230       ?put_DataEventEnabled@COPOSBillAcceptor@@UAGJF@Z 10026230 f   BillAcceptorImpl.obj
 0001:00025260       ?get_DeviceEnabled@COPOSBillAcceptor@@UAGJPAF@Z 10026260 f   BillAcceptorImpl.obj
 0001:00025290       ?put_DeviceEnabled@COPOSBillAcceptor@@UAGJF@Z 10026290 f   BillAcceptorImpl.obj
 0001:000252c0       ?get_FreezeEvents@COPOSBillAcceptor@@UAGJPAF@Z 100262c0 f   BillAcceptorImpl.obj
 0001:000252f0       ?put_FreezeEvents@COPOSBillAcceptor@@UAGJF@Z 100262f0 f   BillAcceptorImpl.obj
 0001:00025380       ?get_PowerNotify@COPOSBillAcceptor@@UAGJPAJ@Z 10026380 f   BillAcceptorImpl.obj
 0001:000253b0       ?put_PowerNotify@COPOSBillAcceptor@@UAGJJ@Z 100263b0 f   BillAcceptorImpl.obj
 0001:000253e0       ?get_PowerState@COPOSBillAcceptor@@UAGJPAJ@Z 100263e0 f   BillAcceptorImpl.obj
 0001:00025410       ?get_ResultCode@COPOSBillAcceptor@@UAGJPAJ@Z 10026410 f   BillAcceptorImpl.obj
 0001:000254a0       ?get_ResultCodeExtended@COPOSBillAcceptor@@UAGJPAJ@Z 100264a0 f   BillAcceptorImpl.obj
 0001:000254d0       ?get_State@COPOSBillAcceptor@@UAGJPAJ@Z 100264d0 f   BillAcceptorImpl.obj
 0001:00025520       ?get_ControlObjectDescription@COPOSBillAcceptor@@UAGJPAPA_W@Z 10026520 f   BillAcceptorImpl.obj
 0001:000255a0       ?get_ControlObjectVersion@COPOSBillAcceptor@@UAGJPAJ@Z 100265a0 f   BillAcceptorImpl.obj
 0001:000255e0       ?get_ServiceObjectDescription@COPOSBillAcceptor@@UAGJPAPA_W@Z 100265e0 f   BillAcceptorImpl.obj
 0001:00025610       ?get_ServiceObjectVersion@COPOSBillAcceptor@@UAGJPAJ@Z 10026610 f   BillAcceptorImpl.obj
 0001:00025640       ?get_DeviceDescription@COPOSBillAcceptor@@UAGJPAPA_W@Z 10026640 f   BillAcceptorImpl.obj
 0001:00025670       ?get_DeviceName@COPOSBillAcceptor@@UAGJPAPA_W@Z 10026670 f   BillAcceptorImpl.obj
 0001:000256a0       ?get_CapStatisticsReporting@COPOSBillAcceptor@@UAGJPAF@Z 100266a0 f   BillAcceptorImpl.obj
 0001:000256d0       ?get_CapUpdateStatistics@COPOSBillAcceptor@@UAGJPAF@Z 100266d0 f   BillAcceptorImpl.obj
 0001:00025700       ?get_CapCompareFirmwareVersion@COPOSBillAcceptor@@UAGJPAF@Z 10026700 f   BillAcceptorImpl.obj
 0001:00025730       ?get_CapUpdateFirmware@COPOSBillAcceptor@@UAGJPAF@Z 10026730 f   BillAcceptorImpl.obj
 0001:00025760       ?CheckHealth@COPOSBillAcceptor@@UAGJJPAJ@Z 10026760 f   BillAcceptorImpl.obj
 0001:00025800       ?ClaimDevice@COPOSBillAcceptor@@UAGJJPAJ@Z 10026800 f   BillAcceptorImpl.obj
 0001:000258e0       ?ClearInput@COPOSBillAcceptor@@UAGJPAJ@Z 100268e0 f   BillAcceptorImpl.obj
 0001:00025910       ?Close@COPOSBillAcceptor@@UAGJPAJ@Z 10026910 f   BillAcceptorImpl.obj
 0001:000259e0       ?DirectIO@COPOSBillAcceptor@@UAGJJPAJPAPA_W0@Z 100269e0 f   BillAcceptorImpl.obj
 0001:00025af0       ?Open@COPOSBillAcceptor@@UAGJPA_WPAJ@Z 10026af0 f   BillAcceptorImpl.obj
 0001:00026ce0       ?ReleaseDevice@COPOSBillAcceptor@@UAGJPAJ@Z 10027ce0 f   BillAcceptorImpl.obj
 0001:00026d50       ?ResetStatistics@COPOSBillAcceptor@@UAGJPA_WPAJ@Z 10027d50 f   BillAcceptorImpl.obj
 0001:00026e00       ?RetrieveStatistics@COPOSBillAcceptor@@UAGJPAPA_WPAJ@Z 10027e00 f   BillAcceptorImpl.obj
 0001:00026eb0       ?UpdateStatistics@COPOSBillAcceptor@@UAGJPA_WPAJ@Z 10027eb0 f   BillAcceptorImpl.obj
 0001:00026f60       ?CompareFirmwareVersion@COPOSBillAcceptor@@UAGJPA_WPAJ1@Z 10027f60 f   BillAcceptorImpl.obj
 0001:00027050       ?UpdateFirmware@COPOSBillAcceptor@@UAGJPA_WPAJ@Z 10028050 f   BillAcceptorImpl.obj
 0001:00027100       ?get_CapDiscrepancy@COPOSBillAcceptor@@UAGJPAF@Z 10028100 f   BillAcceptorImpl.obj
 0001:00027130       ?get_CapFullSensor@COPOSBillAcceptor@@UAGJPAF@Z 10028130 f   BillAcceptorImpl.obj
 0001:00027160       ?get_CapJamSensor@COPOSBillAcceptor@@UAGJPAF@Z 10028160 f   BillAcceptorImpl.obj
 0001:00027190       ?get_CapNearFullSensor@COPOSBillAcceptor@@UAGJPAF@Z 10028190 f   BillAcceptorImpl.obj
 0001:000271c0       ?get_CapPauseDeposit@COPOSBillAcceptor@@UAGJPAF@Z 100281c0 f   BillAcceptorImpl.obj
 0001:000271f0       ?get_CapRealTimeData@COPOSBillAcceptor@@UAGJPAF@Z 100281f0 f   BillAcceptorImpl.obj
 0001:00027220       ?get_CurrencyCode@COPOSBillAcceptor@@UAGJPAPA_W@Z 10028220 f   BillAcceptorImpl.obj
 0001:00027250       ?put_CurrencyCode@COPOSBillAcceptor@@UAGJPA_W@Z 10028250 f   BillAcceptorImpl.obj
 0001:00027280       ?get_DepositAmount@COPOSBillAcceptor@@UAGJPAJ@Z 10028280 f   BillAcceptorImpl.obj
 0001:000272b0       ?get_DepositCashList@COPOSBillAcceptor@@UAGJPAPA_W@Z 100282b0 f   BillAcceptorImpl.obj
 0001:000272e0       ?get_DepositCodeList@COPOSBillAcceptor@@UAGJPAPA_W@Z 100282e0 f   BillAcceptorImpl.obj
 0001:00027310       ?get_DepositCounts@COPOSBillAcceptor@@UAGJPAPA_W@Z 10028310 f   BillAcceptorImpl.obj
 0001:00027340       ?get_DepositStatus@COPOSBillAcceptor@@UAGJPAJ@Z 10028340 f   BillAcceptorImpl.obj
 0001:00027370       ?get_FullStatus@COPOSBillAcceptor@@UAGJPAJ@Z 10028370 f   BillAcceptorImpl.obj
 0001:000273a0       ?get_RealTimeDataEnabled@COPOSBillAcceptor@@UAGJPAF@Z 100283a0 f   BillAcceptorImpl.obj
 0001:000273d0       ?put_RealTimeDataEnabled@COPOSBillAcceptor@@UAGJF@Z 100283d0 f   BillAcceptorImpl.obj
 0001:00027400       ?AdjustCashCounts@COPOSBillAcceptor@@UAGJPA_WPAJ@Z 10028400 f   BillAcceptorImpl.obj
 0001:000274b0       ?BeginDeposit@COPOSBillAcceptor@@UAGJPAJ@Z 100284b0 f   BillAcceptorImpl.obj
 0001:000274e0       ?EndDeposit@COPOSBillAcceptor@@UAGJJPAJ@Z 100284e0 f   BillAcceptorImpl.obj
 0001:00027580       ?FixDeposit@COPOSBillAcceptor@@UAGJPAJ@Z 10028580 f   BillAcceptorImpl.obj
 0001:000275b0       ?PauseDeposit@COPOSBillAcceptor@@UAGJJPAJ@Z 100285b0 f   BillAcceptorImpl.obj
 0001:00027650       ?ReadCashCounts@COPOSBillAcceptor@@UAGJPAPA_WPAFPAJ@Z 10028650 f   BillAcceptorImpl.obj
 0001:00027740       ??0?$CComControl@VCOPOSBillAcceptor@@V?$CWindowImpl@VCOPOSBillAcceptor@@VCWindow@ATL@@V?$CWinTraits@$0FGAAAAAA@$0A@@3@@ATL@@@ATL@@QAE@XZ 10028740 f i BillAcceptorImpl.obj
 0001:00027780       ??0?$CComPtr@UIAdviseSink@@@ATL@@QAE@XZ 10028780 f i BillAcceptorImpl.obj
 0001:000277b0       ??0?$CComPtr@UIDataAdviseHolder@@@ATL@@QAE@XZ 100287b0 f i BillAcceptorImpl.obj
 0001:000277e0       ??0?$CComPtr@UIOleAdviseHolder@@@ATL@@QAE@XZ 100287e0 f i BillAcceptorImpl.obj
 0001:00027810       ??0?$CComPtr@UIOleClientSite@@@ATL@@QAE@XZ 10028810 f i BillAcceptorImpl.obj
 0001:00027840       ??0?$CComPtr@UIOleInPlaceSiteWindowless@@@ATL@@QAE@XZ 10028840 f i BillAcceptorImpl.obj
 0001:00027870       ??0?$CComPtrBase@UIAdviseSink@@@ATL@@IAE@XZ 10028870 f i BillAcceptorImpl.obj
 0001:00027890       ??0?$CComPtrBase@UIDataAdviseHolder@@@ATL@@IAE@XZ 10028890 f i BillAcceptorImpl.obj
 0001:000278b0       ??0?$CComPtrBase@UIOleAdviseHolder@@@ATL@@IAE@XZ 100288b0 f i BillAcceptorImpl.obj
 0001:000278d0       ??0?$CComPtrBase@UIOleClientSite@@@ATL@@IAE@XZ 100288d0 f i BillAcceptorImpl.obj
 0001:000278f0       ??0?$CComPtrBase@UIOleInPlaceSiteWindowless@@@ATL@@IAE@XZ 100288f0 f i BillAcceptorImpl.obj
 0001:00027910       ??0?$CComQIPtr@UIDispatch@@$1?_GUID_00020400_0000_0000_c000_000000000046@@3U__s_GUID@@B@ATL@@QAE@XZ 10028910 f i BillAcceptorImpl.obj
 0001:00027940       ??0?$CProxy_IOPOSEvents@VCOPOSBillAcceptor@@@@QAE@PAVCOPOSBillAcceptor@@@Z 10028940 f i BillAcceptorImpl.obj
 0001:000279a0       ??0?$CWindowImpl@VCOPOSBillAcceptor@@VCWindow@ATL@@V?$CWinTraits@$0FGAAAAAA@$0A@@3@@ATL@@QAE@XZ 100289a0 f i BillAcceptorImpl.obj
 0001:000279d0       ??0?$CWindowImplBaseT@VCWindow@ATL@@V?$CWinTraits@$0FGAAAAAA@$0A@@2@@ATL@@QAE@XZ 100289d0 f i BillAcceptorImpl.obj
 0001:00027a10       ??0?$CWindowImplRoot@VCWindow@ATL@@@ATL@@QAE@XZ 10028a10 f i BillAcceptorImpl.obj
 0001:00027a70       ??0?$IConnectionPointContainerImpl@VCOPOSBillAcceptor@@@ATL@@QAE@XZ 10028a70 f i BillAcceptorImpl.obj
 0001:00027aa0       ??0?$IConnectionPointImpl@VCOPOSBillAcceptor@@$1?DIID__IOPOSBillAcceptorEvents@@3U_GUID@@BVCComDynamicUnkArray@ATL@@@ATL@@QAE@XZ 10028aa0 f i BillAcceptorImpl.obj
 0001:00027ae0       ??0?$IConnectionPointImpl@VCOPOSBillAcceptor@@$1?IID_IPropertyNotifySink@@3U_GUID@@BVCComDynamicUnkArray@ATL@@@ATL@@QAE@XZ 10028ae0 f i BillAcceptorImpl.obj
 0001:00027b20       ??0?$IDataObjectImpl@VCOPOSBillAcceptor@@@ATL@@QAE@XZ 10028b20 f i BillAcceptorImpl.obj
 0001:00027b50       ??0?$IDispatchImpl@UIOPOSBillAcceptor@@$1?IID_IOPOSBillAcceptor@@3U_GUID@@B$1?LIBID_OposBillAcceptor_CCO@@3U3@B$00$0A@VCComTypeInfoHolder@ATL@@@ATL@@QAE@XZ 10028b50 f i BillAcceptorImpl.obj
 0001:00027b80       ??0?$IObjectSafetyImpl@VCOPOSBillAcceptor@@$02@ATL@@QAE@XZ 10028b80 f i BillAcceptorImpl.obj
 0001:00027bc0       ??0?$IOleControlImpl@VCOPOSBillAcceptor@@@ATL@@QAE@XZ 10028bc0 f i BillAcceptorImpl.obj
 0001:00027bf0       ??0?$IOleInPlaceActiveObjectImpl@VCOPOSBillAcceptor@@@ATL@@QAE@XZ 10028bf0 f i BillAcceptorImpl.obj
 0001:00027c20       ??0?$IOleInPlaceObjectWindowlessImpl@VCOPOSBillAcceptor@@@ATL@@QAE@XZ 10028c20 f i BillAcceptorImpl.obj
 0001:00027c50       ??0?$IOleObjectImpl@VCOPOSBillAcceptor@@@ATL@@QAE@XZ 10028c50 f i BillAcceptorImpl.obj
 0001:00027c80       ??0?$IPersistStorageImpl@VCOPOSBillAcceptor@@@ATL@@QAE@XZ 10028c80 f i BillAcceptorImpl.obj
 0001:00027cb0       ??0?$IPersistStreamInitImpl@VCOPOSBillAcceptor@@@ATL@@QAE@XZ 10028cb0 f i BillAcceptorImpl.obj
 0001:00027ce0       ??0?$IPropertyNotifySinkCP@VCOPOSBillAcceptor@@VCComDynamicUnkArray@ATL@@@ATL@@QAE@XZ 10028ce0 f i BillAcceptorImpl.obj
 0001:00027d10       ??0?$IProvideClassInfo2Impl@$1?CLSID_OPOSBillAcceptor@@3U_GUID@@B$1?DIID__IOPOSBillAcceptorEvents@@3U2@B$1?LIBID_OposBillAcceptor_CCO@@3U2@B$00$0A@VCComTypeInfoHolder@ATL@@@ATL@@QAE@XZ 10028d10 f i BillAcceptorImpl.obj
 0001:00027d40       ??0?$IQuickActivateImpl@VCOPOSBillAcceptor@@@ATL@@QAE@XZ 10028d40 f i BillAcceptorImpl.obj
 0001:00027d70       ??0?$ISpecifyPropertyPagesImpl@VCOPOSBillAcceptor@@@ATL@@QAE@XZ 10028d70 f i BillAcceptorImpl.obj
 0001:00027da0       ??0?$IViewObjectExImpl@VCOPOSBillAcceptor@@@ATL@@QAE@XZ 10028da0 f i BillAcceptorImpl.obj
 0001:00027dd0       ??0?$_ICPLocator@$1?DIID__IOPOSBillAcceptorEvents@@3U_GUID@@B@ATL@@QAE@XZ 10028dd0 f i BillAcceptorImpl.obj
 0001:00027df0       ??0?$_ICPLocator@$1?IID_IPropertyNotifySink@@3U_GUID@@B@ATL@@QAE@XZ 10028df0 f i BillAcceptorImpl.obj
 0001:00027e10       ??0CComControlBase@ATL@@QAE@AAPAUHWND__@@@Z 10028e10 f i BillAcceptorImpl.obj
 0001:00027fc0       ??0CComDynamicUnkArray@ATL@@QAE@XZ 10028fc0 f i BillAcceptorImpl.obj
 0001:00027ff0       ??0CDynamicStdCallThunk2@ATL@@QAE@XZ 10028ff0 f i BillAcceptorImpl.obj
 0001:00028010       ??0CMessageMap@ATL@@QAE@XZ 10029010 f i BillAcceptorImpl.obj
 0001:00028030       ??0CWindow@ATL@@QAE@PAUHWND__@@@Z 10029030 f i BillAcceptorImpl.obj
 0001:00028050       ??0CWndProcThunk@ATL@@QAE@XZ 10029050 f i BillAcceptorImpl.obj
 0001:00028080       ??0IConnectionPointContainer@@QAE@XZ 10029080 f i BillAcceptorImpl.obj
 0001:000280b0       ??0IDataObject@@QAE@XZ     100290b0 f i BillAcceptorImpl.obj
 0001:000280e0       ??0IDispatch@@QAE@XZ       100290e0 f i BillAcceptorImpl.obj
 0001:00028110       ??0IOPOSBillAcceptor@@QAE@XZ 10029110 f i BillAcceptorImpl.obj
 0001:00028140       ??0IOPOSBillAcceptor_1_11@@QAE@XZ 10029140 f i BillAcceptorImpl.obj
 0001:00028170       ??0IObjectSafety@@QAE@XZ   10029170 f i BillAcceptorImpl.obj
 0001:000281a0       ??0IOleControl@@QAE@XZ     100291a0 f i BillAcceptorImpl.obj
 0001:000281d0       ??0IOleInPlaceActiveObject@@QAE@XZ 100291d0 f i BillAcceptorImpl.obj
 0001:00028200       ??0IOleInPlaceObject@@QAE@XZ 10029200 f i BillAcceptorImpl.obj
 0001:00028230       ??0IOleInPlaceObjectWindowless@@QAE@XZ 10029230 f i BillAcceptorImpl.obj
 0001:00028260       ??0IOleObject@@QAE@XZ      10029260 f i BillAcceptorImpl.obj
 0001:00028290       ??0IOleWindow@@QAE@XZ      10029290 f i BillAcceptorImpl.obj
 0001:000282c0       ??0IPersist@@QAE@XZ        100292c0 f i BillAcceptorImpl.obj
 0001:000282f0       ??0IPersistStorage@@QAE@XZ 100292f0 f i BillAcceptorImpl.obj
 0001:00028320       ??0IPersistStreamInit@@QAE@XZ 10029320 f i BillAcceptorImpl.obj
 0001:00028350       ??0IProvideClassInfo2@@QAE@XZ 10029350 f i BillAcceptorImpl.obj
 0001:00028380       ??0IProvideClassInfo@@QAE@XZ 10029380 f i BillAcceptorImpl.obj
 0001:000283b0       ??0IQuickActivate@@QAE@XZ  100293b0 f i BillAcceptorImpl.obj
 0001:000283e0       ??0ISpecifyPropertyPages@@QAE@XZ 100293e0 f i BillAcceptorImpl.obj
 0001:00028410       ??0IViewObject2@@QAE@XZ    10029410 f i BillAcceptorImpl.obj
 0001:00028440       ??0IViewObject@@QAE@XZ     10029440 f i BillAcceptorImpl.obj
 0001:00028470       ??0IViewObjectEx@@QAE@XZ   10029470 f i BillAcceptorImpl.obj
 0001:000284a0       ??0OposVariantResult@@QAE@XZ 100294a0 f i BillAcceptorImpl.obj
 0001:000284d0       ??0_CW@@QAE@PBD@Z          100294d0 f i BillAcceptorImpl.obj
 0001:00028510       ??0_CW@@QAE@PB_W@Z         10029510 f i BillAcceptorImpl.obj
 0001:00028550       ??0_CWNCC@@QAE@PBD@Z       10029550 f i BillAcceptorImpl.obj
 0001:00028580       ??1?$CComControl@VCOPOSBillAcceptor@@V?$CWindowImpl@VCOPOSBillAcceptor@@VCWindow@ATL@@V?$CWinTraits@$0FGAAAAAA@$0A@@3@@ATL@@@ATL@@UAE@XZ 10029580 f i BillAcceptorImpl.obj
 0001:000285b0       ??1?$CComPtr@UIDataAdviseHolder@@@ATL@@QAE@XZ 100295b0 f i BillAcceptorImpl.obj
 0001:000285e0       ??1?$CComPtr@UIOleAdviseHolder@@@ATL@@QAE@XZ 100295e0 f i BillAcceptorImpl.obj
 0001:00028610       ??1?$CComPtr@UIOleInPlaceSiteWindowless@@@ATL@@QAE@XZ 10029610 f i BillAcceptorImpl.obj
 0001:00028640       ??1?$CComPtrBase@UIDataAdviseHolder@@@ATL@@QAE@XZ 10029640 f i BillAcceptorImpl.obj
 0001:00028690       ??1?$CComPtrBase@UIOleAdviseHolder@@@ATL@@QAE@XZ 10029690 f i BillAcceptorImpl.obj
 0001:000286e0       ??1?$CComPtrBase@UIOleInPlaceSiteWindowless@@@ATL@@QAE@XZ 100296e0 f i BillAcceptorImpl.obj
 0001:00028730       ??1?$CComQIPtr@UIDispatch@@$1?_GUID_00020400_0000_0000_c000_000000000046@@3U__s_GUID@@B@ATL@@QAE@XZ 10029730 f i BillAcceptorImpl.obj
 0001:00028760       ??1?$CProxy_IOPOSEvents@VCOPOSBillAcceptor@@@@QAE@XZ 10029760 f i BillAcceptorImpl.obj
 0001:00028790       ??1?$CWindowImpl@VCOPOSBillAcceptor@@VCWindow@ATL@@V?$CWinTraits@$0FGAAAAAA@$0A@@3@@ATL@@UAE@XZ 10029790 f i BillAcceptorImpl.obj
 0001:000287c0       ??1?$CWindowImplBaseT@VCWindow@ATL@@V?$CWinTraits@$0FGAAAAAA@$0A@@2@@ATL@@UAE@XZ 100297c0 f i BillAcceptorImpl.obj
 0001:000287f0       ??1?$CWindowImplRoot@VCWindow@ATL@@@ATL@@UAE@XZ 100297f0 f i BillAcceptorImpl.obj
 0001:00028890       ??1?$IConnectionPointImpl@VCOPOSBillAcceptor@@$1?DIID__IOPOSBillAcceptorEvents@@3U_GUID@@BVCComDynamicUnkArray@ATL@@@ATL@@QAE@XZ 10029890 f i BillAcceptorImpl.obj
 0001:00028910       ??1?$IConnectionPointImpl@VCOPOSBillAcceptor@@$1?IID_IPropertyNotifySink@@3U_GUID@@BVCComDynamicUnkArray@ATL@@@ATL@@QAE@XZ 10029910 f i BillAcceptorImpl.obj
 0001:00028990       ??1?$IPropertyNotifySinkCP@VCOPOSBillAcceptor@@VCComDynamicUnkArray@ATL@@@ATL@@QAE@XZ 10029990 f i BillAcceptorImpl.obj
 0001:000289c0       ??1CComControlBase@ATL@@UAE@XZ 100299c0 f i BillAcceptorImpl.obj
 0001:00028a80       ??1CComDynamicUnkArray@ATL@@QAE@XZ 10029a80 f i BillAcceptorImpl.obj
 0001:00028ac0       ??1CDynamicStdCallThunk2@ATL@@QAE@XZ 10029ac0 f i BillAcceptorImpl.obj
 0001:00028af0       ??1CWndProcThunk@ATL@@QAE@XZ 10029af0 f i BillAcceptorImpl.obj
 0001:00028b20       ??1OposVariantResult@@QAE@XZ 10029b20 f i BillAcceptorImpl.obj
 0001:00028b50       ??1_CW@@QAE@XZ             10029b50 f i BillAcceptorImpl.obj
 0001:00028bc0       ??1_CWNCC@@QAE@XZ          10029bc0 f i BillAcceptorImpl.obj
 0001:00028bf0       ??B_CW@@QAEPB_WXZ          10029bf0 f i BillAcceptorImpl.obj
 0001:00028c30       ??B_CWNCC@@QAEPA_WXZ       10029c30 f i BillAcceptorImpl.obj
 0001:00028c60       ??_EOposVariant@@QAEPAXI@Z 10029c60 f i BillAcceptorImpl.obj
 0001:00028cf0       ?EventClaim@COPOSBillAcceptor@@IAEXXZ 10029cf0 f i BillAcceptorImpl.obj
 0001:00028d30       ?EventClose@COPOSBillAcceptor@@IAEXXZ 10029d30 f i BillAcceptorImpl.obj
 0001:00028dd0       ?EventInit@COPOSBillAcceptor@@IAEJXZ 10029dd0 f i BillAcceptorImpl.obj
 0001:00029000       ?EventOpen@COPOSBillAcceptor@@IAEXXZ 1002a000 f i BillAcceptorImpl.obj
 0001:00029040       ?EventPreCloseRelease@COPOSBillAcceptor@@IAEXXZ 1002a040 f i BillAcceptorImpl.obj
 0001:000290c0       ?EventUninit@COPOSBillAcceptor@@IAEXXZ 1002a0c0 f i BillAcceptorImpl.obj
 0001:000291f0       ?EventWindowProc@COPOSBillAcceptor@@IAGJIIJ@Z 1002a1f0 f i BillAcceptorImpl.obj
 0001:00029310       ?FireEventCleanup@COPOSBillAcceptor@@IAEXXZ 1002a310 f i BillAcceptorImpl.obj
 0001:00029360       ?FireEventSetup@COPOSBillAcceptor@@IAE_NXZ 1002a360 f i BillAcceptorImpl.obj
 0001:000293d0       ?GetModuleInstance@CComModule@ATL@@QAEPAUHINSTANCE__@@XZ 1002a3d0 f i BillAcceptorImpl.obj
 0001:000293f0       ?SetRC@COPOSBillAcceptor@@IAEJJ@Z 1002a3f0 f i BillAcceptorImpl.obj
 0001:00029420       ?s_EventWindowProc@COPOSBillAcceptor@@KGJPAUHWND__@@IIJ@Z 1002a420 f i BillAcceptorImpl.obj
 0001:000294c0       __snwprintf                1002a4c0 f i BillAcceptorImpl.obj
 0001:00029520       __vfwprintf_l              1002a520 f i BillAcceptorImpl.obj
 0001:00029550       __vsnwprintf               1002a550 f i BillAcceptorImpl.obj
 0001:00029580       __vsnwprintf_l             1002a580 f i BillAcceptorImpl.obj
 0001:000295f0       _vfwprintf                 1002a5f0 f i BillAcceptorImpl.obj
 0001:00029612       _DebugBreak@0              1002a612 f   kernel32:KERNEL32.dll
 0001:00029618       _Sleep@4                   1002a618 f   kernel32:KERNEL32.dll
 0001:0002961e       _GetCurrentProcess@0       1002a61e f   kernel32:KERNEL32.dll
 0001:00029624       _TerminateProcess@8        1002a624 f   kernel32:KERNEL32.dll
 0001:0002962a       _MultiByteToWideChar@24    1002a62a f   kernel32:KERNEL32.dll
 0001:00029630       _WideCharToMultiByte@32    1002a630 f   kernel32:KERNEL32.dll
 0001:00029636       _DecodePointer@4           1002a636 f   kernel32:KERNEL32.dll
 0001:0002963c       _RaiseException@16         1002a63c f   kernel32:KERNEL32.dll
 0001:00029642       _GetLastError@0            1002a642 f   kernel32:KERNEL32.dll
 0001:00029648       _SetLastError@4            1002a648 f   kernel32:KERNEL32.dll
 0001:0002964e       _InitializeCriticalSectionEx@12 1002a64e f   kernel32:KERNEL32.dll
 0001:00029654       _DeleteCriticalSection@4   1002a654 f   kernel32:KERNEL32.dll
 0001:0002965a       _EncodePointer@4           1002a65a f   kernel32:KERNEL32.dll
 0001:00029660       _EnterCriticalSection@4    1002a660 f   kernel32:KERNEL32.dll
 0001:00029666       _LeaveCriticalSection@4    1002a666 f   kernel32:KERNEL32.dll
 0001:0002966c       _ResetEvent@4              1002a66c f   kernel32:KERNEL32.dll
 0001:00029672       _ReleaseMutex@4            1002a672 f   kernel32:KERNEL32.dll
 0001:00029678       _WaitForSingleObject@8     1002a678 f   kernel32:KERNEL32.dll
 0001:0002967e       _GetCurrentThreadId@0      1002a67e f   kernel32:KERNEL32.dll
 0001:00029684       _DisableThreadLibraryCalls@4 1002a684 f   kernel32:KERNEL32.dll
 0001:0002968a       _FreeLibrary@4             1002a68a f   kernel32:KERNEL32.dll
 0001:00029690       _GetModuleFileNameW@12     1002a690 f   kernel32:KERNEL32.dll
 0001:00029696       _GetModuleHandleW@4        1002a696 f   kernel32:KERNEL32.dll
 0001:0002969c       _GetProcAddress@8          1002a69c f   kernel32:KERNEL32.dll
 0001:000296a2       _LoadLibraryExW@12         1002a6a2 f   kernel32:KERNEL32.dll
 0001:000296a8       _LoadResource@8            1002a6a8 f   kernel32:KERNEL32.dll
 0001:000296ae       _SizeofResource@8          1002a6ae f   kernel32:KERNEL32.dll
 0001:000296b4       _FindResourceW@12          1002a6b4 f   kernel32:KERNEL32.dll
 0001:000296ba       _GlobalAlloc@8             1002a6ba f   kernel32:KERNEL32.dll
 0001:000296c0       _GlobalUnlock@4            1002a6c0 f   kernel32:KERNEL32.dll
 0001:000296c6       _GlobalLock@4              1002a6c6 f   kernel32:KERNEL32.dll
 0001:000296cc       _MulDiv@12                 1002a6cc f   kernel32:KERNEL32.dll
 0001:000296d2       _lstrcmpiW@8               1002a6d2 f   kernel32:KERNEL32.dll
 0001:000296d8       _DeleteFileW@4             1002a6d8 f   kernel32:KERNEL32.dll
 0001:000296de       _CloseHandle@4             1002a6de f   kernel32:KERNEL32.dll
 0001:000296e4       _SetEvent@4                1002a6e4 f   kernel32:KERNEL32.dll
 0001:000296ea       _CreateMutexW@12           1002a6ea f   kernel32:KERNEL32.dll
 0001:000296f0       _CreateEventW@16           1002a6f0 f   kernel32:KERNEL32.dll
 0001:000296f6       _GetCurrentProcessId@0     1002a6f6 f   kernel32:KERNEL32.dll
 0001:000296fc       _LocalFree@4               1002a6fc f   kernel32:KERNEL32.dll
 0001:00029702       _FormatMessageW@28         1002a702 f   kernel32:KERNEL32.dll
 0001:00029708       _GetActiveWindow@0         1002a708 f   user32:USER32.dll
 0001:0002970e       _MessageBoxW@16            1002a70e f   user32:USER32.dll
 0001:00029714       _UnregisterClassW@8        1002a714 f   user32:USER32.dll
 0001:0002971a       _PostMessageW@16           1002a71a f   user32:USER32.dll
 0001:00029720       _DefWindowProcW@16         1002a720 f   user32:USER32.dll
 0001:00029726       _CallWindowProcW@20        1002a726 f   user32:USER32.dll
 0001:0002972c       _RegisterClassExW@4        1002a72c f   user32:USER32.dll
 0001:00029732       _GetClassInfoExW@12        1002a732 f   user32:USER32.dll
 0001:00029738       _CreateWindowExW@48        1002a738 f   user32:USER32.dll
 0001:0002973e       _IsWindow@4                1002a73e f   user32:USER32.dll
 0001:00029744       _IsChild@8                 1002a744 f   user32:USER32.dll
 0001:0002974a       _DestroyWindow@4           1002a74a f   user32:USER32.dll
 0001:00029750       _ShowWindow@8              1002a750 f   user32:USER32.dll
 0001:00029756       _SetWindowPos@28           1002a756 f   user32:USER32.dll
 0001:0002975c       _CharNextW@4               1002a75c f   user32:USER32.dll
 0001:00029762       _SetFocus@4                1002a762 f   user32:USER32.dll
 0001:00029768       _GetFocus@0                1002a768 f   user32:USER32.dll
 0001:0002976e       _GetKeyState@4             1002a76e f   user32:USER32.dll
 0001:00029774       _GetDC@4                   1002a774 f   user32:USER32.dll
 0001:0002977a       _ReleaseDC@8               1002a77a f   user32:USER32.dll
 0001:00029780       _BeginPaint@8              1002a780 f   user32:USER32.dll
 0001:00029786       _EndPaint@8                1002a786 f   user32:USER32.dll
 0001:0002978c       _SetWindowRgn@12           1002a78c f   user32:USER32.dll
 0001:00029792       _InvalidateRect@12         1002a792 f   user32:USER32.dll
 0001:00029798       _GetClientRect@8           1002a798 f   user32:USER32.dll
 0001:0002979e       _IntersectRect@12          1002a79e f   user32:USER32.dll
 0001:000297a4       _UnionRect@12              1002a7a4 f   user32:USER32.dll
 0001:000297aa       _OffsetRect@12             1002a7aa f   user32:USER32.dll
 0001:000297b0       _EqualRect@8               1002a7b0 f   user32:USER32.dll
 0001:000297b6       _PtInRect@12               1002a7b6 f   user32:USER32.dll
 0001:000297bc       _GetWindowLongW@8          1002a7bc f   user32:USER32.dll
 0001:000297c2       _SetWindowLongW@12         1002a7c2 f   user32:USER32.dll
 0001:000297c8       _GetParent@4               1002a7c8 f   user32:USER32.dll
 0001:000297ce       _LoadCursorW@8             1002a7ce f   user32:USER32.dll
 0001:000297d4       _PeekMessageW@20           1002a7d4 f   user32:USER32.dll
 0001:000297da       _RegisterClassW@4          1002a7da f   user32:USER32.dll
 0001:000297e0       _LoadBitmapW@8             1002a7e0 f   user32:USER32.dll
 0001:000297e6       _CloseMetaFile@4           1002a7e6 f   gdi32:GDI32.dll
 0001:000297ec       _CreateDCW@16              1002a7ec f   gdi32:GDI32.dll
 0001:000297f2       _CreateMetaFileW@4         1002a7f2 f   gdi32:GDI32.dll
 0001:000297f8       _CreateRectRgnIndirect@4   1002a7f8 f   gdi32:GDI32.dll
 0001:000297fe       _DeleteDC@4                1002a7fe f   gdi32:GDI32.dll
 0001:00029804       _DeleteMetaFile@4          1002a804 f   gdi32:GDI32.dll
 0001:0002980a       _GetDeviceCaps@8           1002a80a f   gdi32:GDI32.dll
 0001:00029810       _RestoreDC@8               1002a810 f   gdi32:GDI32.dll
 0001:00029816       _SaveDC@4                  1002a816 f   gdi32:GDI32.dll
 0001:0002981c       _SetMapMode@8              1002a81c f   gdi32:GDI32.dll
 0001:00029822       _LPtoDP@12                 1002a822 f   gdi32:GDI32.dll
 0001:00029828       _SetViewportOrgEx@16       1002a828 f   gdi32:GDI32.dll
 0001:0002982e       _SetWindowExtEx@16         1002a82e f   gdi32:GDI32.dll
 0001:00029834       _SetWindowOrgEx@16         1002a834 f   gdi32:GDI32.dll
 0001:0002983a       _BitBlt@36                 1002a83a f   gdi32:GDI32.dll
 0001:00029840       _CreateCompatibleDC@4      1002a840 f   gdi32:GDI32.dll
 0001:00029846       _DeleteObject@4            1002a846 f   gdi32:GDI32.dll
 0001:0002984c       _SelectObject@8            1002a84c f   gdi32:GDI32.dll
 0001:00029852       _GetObjectW@12             1002a852 f   gdi32:GDI32.dll
 0001:00029858       _RegCloseKey@4             1002a858 f   advapi32:ADVAPI32.dll
 0001:0002985e       _RegCreateKeyExW@36        1002a85e f   advapi32:ADVAPI32.dll
 0001:00029864       _RegDeleteKeyW@8           1002a864 f   advapi32:ADVAPI32.dll
 0001:0002986a       _RegDeleteValueW@8         1002a86a f   advapi32:ADVAPI32.dll
 0001:00029870       _RegEnumKeyExW@32          1002a870 f   advapi32:ADVAPI32.dll
 0001:00029876       _RegOpenKeyExW@20          1002a876 f   advapi32:ADVAPI32.dll
 0001:0002987c       _RegQueryInfoKeyW@48       1002a87c f   advapi32:ADVAPI32.dll
 0001:00029882       _RegSetValueExW@24         1002a882 f   advapi32:ADVAPI32.dll
 0001:00029888       _RegQueryValueExW@24       1002a888 f   advapi32:ADVAPI32.dll
 0001:0002988e       _CoCreateInstance@20       1002a88e f   ole32:ole32.dll
 0001:00029894       _StringFromGUID2@12        1002a894 f   ole32:ole32.dll
 0001:0002989a       _CoTaskMemAlloc@4          1002a89a f   ole32:ole32.dll
 0001:000298a0       _CoTaskMemRealloc@8        1002a8a0 f   ole32:ole32.dll
 0001:000298a6       _CoTaskMemFree@4           1002a8a6 f   ole32:ole32.dll
 0001:000298ac       _ReadClassStm@8            1002a8ac f   ole32:ole32.dll
 0001:000298b2       _WriteClassStm@8           1002a8b2 f   ole32:ole32.dll
 0001:000298b8       _CreateDataAdviseHolder@4  1002a8b8 f   ole32:ole32.dll
 0001:000298be       _OleSaveToStream@8         1002a8be f   ole32:ole32.dll
 0001:000298c4       _CreateOleAdviseHolder@4   1002a8c4 f   ole32:ole32.dll
 0001:000298ca       _OleRegGetUserType@12      1002a8ca f   ole32:ole32.dll
 0001:000298d0       _OleRegGetMiscStatus@12    1002a8d0 f   ole32:ole32.dll
 0001:000298d6       _OleRegEnumVerbs@8         1002a8d6 f   ole32:ole32.dll
 0001:000298dc       _CLSIDFromProgID@8         1002a8dc f   ole32:ole32.dll
 0001:000298e2       _SysAllocString@4          1002a8e2 f   oleaut32:OLEAUT32.dll
 0001:000298e8       _SysAllocStringLen@8       1002a8e8 f   oleaut32:OLEAUT32.dll
 0001:000298ee       _SysFreeString@4           1002a8ee f   oleaut32:OLEAUT32.dll
 0001:000298f4       _SysStringLen@4            1002a8f4 f   oleaut32:OLEAUT32.dll
 0001:000298fa       _VariantClear@4            1002a8fa f   oleaut32:OLEAUT32.dll
 0001:00029900       _VariantCopyInd@8          1002a900 f   oleaut32:OLEAUT32.dll
 0001:00029906       _VariantChangeType@16      1002a906 f   oleaut32:OLEAUT32.dll
 0001:0002990c       _SysStringByteLen@4        1002a90c f   oleaut32:OLEAUT32.dll
 0001:00029912       _SysAllocStringByteLen@8   1002a912 f   oleaut32:OLEAUT32.dll
 0001:00029918       _VariantInit@4             1002a918 f   oleaut32:OLEAUT32.dll
 0001:0002991e       _VarUI4FromStr@16          1002a91e f   oleaut32:OLEAUT32.dll
 0001:00029924       _LoadTypeLib@8             1002a924 f   oleaut32:OLEAUT32.dll
 0001:0002992a       _LoadRegTypeLib@20         1002a92a f   oleaut32:OLEAUT32.dll
 0001:00029930       _RegisterTypeLib@12        1002a930 f   oleaut32:OLEAUT32.dll
 0001:00029936       _UnRegisterTypeLib@20      1002a936 f   oleaut32:OLEAUT32.dll
 0001:0002993c       _OleCreatePropertyFrame@44 1002a93c f   oleaut32:OLEAUT32.dll
 0001:00029950       @_RTC_AllocaHelper@12      1002a950 f   LIBCMTD:stack.obj
 0001:00029990       @_RTC_CheckStackVars2@12   1002a990 f   LIBCMTD:stack.obj
 0001:00029a70       @_RTC_CheckStackVars@8     1002aa70 f   LIBCMTD:stack.obj
 0001:00029ad0       __RTC_CheckEsp             1002aad0 f   LIBCMTD:stack.obj
 0001:00029b10       @__security_check_cookie@4 1002ab10 f   LIBCMTD:secchk.obj
 0001:00029b30       __CRT_RTC_INIT             1002ab30 f   LIBCMTD:init.obj
 0001:00029b40       __CRT_RTC_INITW            1002ab40 f   LIBCMTD:init.obj
 0001:00029b50       __RTC_InitBase             1002ab50 f   LIBCMTD:init.obj
 0001:00029b80       __RTC_Shutdown             1002ab80 f   LIBCMTD:init.obj
 0001:00029ba0       ??_U@YAPAXI@Z              1002aba0 f   LIBCMTD:new_array.obj
 0001:00029bc0       ??3@YAXPAXI@Z              1002abc0 f   LIBCMTD:delete_scalar_size.obj
 0001:00029be0       ??_V@YAXPAX@Z              1002abe0 f   LIBCMTD:delete_array.obj
 0001:00029c00       ??_V@YAXPAXI@Z             1002ac00 f   LIBCMTD:delete_array_size.obj
 0001:00029c20       ?configure_argv@__scrt_narrow_argv_policy@@SAHXZ 1002ac20 f i LIBCMTD:utility.obj
 0001:00029cd0       ?initialize_environment@__scrt_narrow_environment_policy@@SAHXZ 1002acd0 f i LIBCMTD:utility.obj
 0001:00029d50       _NtCurrentTeb              1002ad50 f i LIBCMTD:utility.obj
 0001:00029d60       ___scrt_acquire_startup_lock 1002ad60 f   LIBCMTD:utility.obj
 0001:00029db0       ___scrt_dllmain_after_initialize_c 1002adb0 f   LIBCMTD:utility.obj
 0001:00029de0       ___scrt_dllmain_before_initialize_c 1002ade0 f   LIBCMTD:utility.obj
 0001:00029e00       ___scrt_dllmain_crt_thread_attach 1002ae00 f   LIBCMTD:utility.obj
 0001:00029e30       ___scrt_dllmain_crt_thread_detach 1002ae30 f   LIBCMTD:utility.obj
 0001:00029e50       ___scrt_dllmain_exception_filter 1002ae50 f   LIBCMTD:utility.obj
 0001:00029ea0       ___scrt_dllmain_uninitialize_c 1002aea0 f   LIBCMTD:utility.obj
 0001:00029ed0       ___scrt_dllmain_uninitialize_critical 1002aed0 f   LIBCMTD:utility.obj
 0001:00029ef0       ___scrt_initialize_crt     1002aef0 f   LIBCMTD:utility.obj
 0001:00029f40       ___scrt_initialize_onexit_tables 1002af40 f   LIBCMTD:utility.obj
 0001:0002a020       ___scrt_is_nonwritable_in_current_image 1002b020 f   LIBCMTD:utility.obj
 0001:0002a150       ___scrt_release_startup_lock 1002b150 f   LIBCMTD:utility.obj
 0001:0002a180       ___scrt_uninitialize_crt   1002b180 f   LIBCMTD:utility.obj
 0001:0002a1c0       __onexit                   1002b1c0 f   LIBCMTD:utility.obj
 0001:0002a230       _at_quick_exit             1002b230 f   LIBCMTD:utility.obj
 0001:0002a270       _atexit                    1002b270 f   LIBCMTD:utility.obj
 0001:0002a2a0       ??3@YAXPAX@Z               1002b2a0 f   LIBCMTD:delete_scalar.obj
 0001:0002a2c0       ___raise_securityfailure   1002b2c0 f   LIBCMTD:gs_report.obj
 0001:0002a2f0       ___report_gsfailure        1002b2f0 f   LIBCMTD:gs_report.obj
 0001:0002a400       ___report_rangecheckfailure 1002b400 f   LIBCMTD:gs_report.obj
 0001:0002a410       ___report_securityfailure  1002b410 f   LIBCMTD:gs_report.obj
 0001:0002a4f0       ___report_securityfailureEx 1002b4f0 f   LIBCMTD:gs_report.obj
 0001:0002a740       __Init_thread_abort        1002b740 f   LIBCMTD:thread_safe_statics.obj
 0001:0002a760       __Init_thread_footer       1002b760 f   LIBCMTD:thread_safe_statics.obj
 0001:0002a7b0       __Init_thread_header       1002b7b0 f   LIBCMTD:thread_safe_statics.obj
 0001:0002a820       __Init_thread_lock         1002b820 f   LIBCMTD:thread_safe_statics.obj
 0001:0002a830       __Init_thread_notify       1002b830 f   LIBCMTD:thread_safe_statics.obj
 0001:0002a880       __Init_thread_unlock       1002b880 f   LIBCMTD:thread_safe_statics.obj
 0001:0002a890       __Init_thread_wait         1002b890 f   LIBCMTD:thread_safe_statics.obj
 0001:0002a920       ??2@YAPAXIABUnothrow_t@std@@@Z 1002b920 f   LIBCMTD:new_scalar_nothrow.obj
 0001:0002a9a0       ??_U@YAPAXIABUnothrow_t@std@@@Z 1002b9a0 f   LIBCMTD:new_array_nothrow.obj
 0001:0002a9c0       __allmul                   1002b9c0 f   LIBCMTD:llmul.obj
 0001:0002aa00       __alloca_probe_16          1002ba00 f   LIBCMTD:alloca16.obj
 0001:0002aa16       __alloca_probe_8           1002ba16     LIBCMTD:alloca16.obj
 0001:0002aa30       __chkstk                   1002ba30 f   LIBCMTD:chkstk.obj
 0001:0002aa30       __alloca_probe             1002ba30 f   LIBCMTD:chkstk.obj
 0001:0002af30       __CRT_INIT@12              1002bf30 f   LIBCMTD:dll_dllmain.obj
 0001:0002af50       __DllMainCRTStartup@12     1002bf50 f   LIBCMTD:dll_dllmain.obj
 0001:0002b010       ?_RTC_AllocaFailure@@YAXPAXPAU_RTC_ALLOCA_NODE@@H@Z 1002c010 f   LIBCMTD:error.obj
 0001:0002b100       ?_RTC_Failure@@YAXPAXH@Z   1002c100 f   LIBCMTD:error.obj
 0001:0002b150       ?_RTC_StackFailure@@YAXPAXPBD@Z 1002c150 f   LIBCMTD:error.obj
 0001:0002b510       __RTC_UninitUse            1002c510 f   LIBCMTD:error.obj
 0001:0002b5c0       __vsprintf_s_l             1002c5c0 f i LIBCMTD:error.obj
 0001:0002b5f0       _sprintf_s                 1002c5f0 f i LIBCMTD:error.obj
 0001:0002b610       ?_RTC_GetErrorFunc@@YAP6AHHPBDH00ZZPBX@Z 1002c610 f   LIBCMTD:userapi.obj
 0001:0002b620       ?_RTC_GetErrorFuncW@@YAP6AHHPB_WH00ZZPBX@Z 1002c620 f   LIBCMTD:userapi.obj
 0001:0002b630       __RTC_GetErrDesc           1002c630 f   LIBCMTD:userapi.obj
 0001:0002b650       __RTC_NumErrors            1002c650 f   LIBCMTD:userapi.obj
 0001:0002b660       __RTC_SetErrorFunc         1002c660 f   LIBCMTD:userapi.obj
 0001:0002b680       __RTC_SetErrorFuncW        1002c680 f   LIBCMTD:userapi.obj
 0001:0002b6a0       __RTC_SetErrorType         1002c6a0 f   LIBCMTD:userapi.obj
 0001:0002b6d0       ??2@YAPAXI@Z               1002c6d0 f   LIBCMTD:new_scalar.obj
 0001:0002b720       ___isa_available_init      1002c720 f   LIBCMTD:cpu_disp.obj
 0001:0002ba60       __get_startup_argv_mode    1002ca60 f   LIBCMTD:argv_mode.obj
 0001:0002ba70       ___scrt_is_ucrt_dll_in_use 1002ca70 f   LIBCMTD:ucrt_detection.obj
 0001:0002baa0       ___scrt_fastfail           1002caa0 f   LIBCMTD:utility_desktop.obj
 0001:0002bbe0       ___scrt_get_show_window_mode 1002cbe0 f   LIBCMTD:utility_desktop.obj
 0001:0002bc20       ___scrt_initialize_mta     1002cc20 f   LIBCMTD:utility_desktop.obj
 0001:0002bc30       ___scrt_initialize_winrt   1002cc30 f   LIBCMTD:utility_desktop.obj
 0001:0002bc40       ___scrt_is_managed_app     1002cc40 f   LIBCMTD:utility_desktop.obj
 0001:0002bcd0       ___scrt_set_unhandled_exception_filter 1002ccd0 f   LIBCMTD:utility_desktop.obj
 0001:0002bce0       ___scrt_exe_initialize_mta 1002cce0 f   LIBCMTD:utility_desktop.obj
 0001:0002bce0       ___scrt_stub_for_initialize_mta 1002cce0 f   LIBCMTD:utility_desktop.obj
 0001:0002bcf0       ___scrt_unhandled_exception_filter@4 1002ccf0 f   LIBCMTD:utility_desktop.obj
 0001:0002bd70       __crt_debugger_hook        1002cd70 f   LIBCMTD:utility_desktop.obj
 0001:0002bd80       @_guard_check_icall_nop@4  1002cd80 f i LIBCMTD:guard_support.obj
 0001:0002bd90       _ReadNoFence               1002cd90 f i LIBCMTD:guard_support.obj
 0001:0002bdb0       _ReadPointerNoFence        1002cdb0 f i LIBCMTD:guard_support.obj
 0001:0002bdd0       __guard_icall_checks_enforced 1002cdd0 f i LIBCMTD:guard_support.obj
 0001:0002be70       ___security_init_cookie    1002ce70 f   LIBCMTD:gs_support.obj
 0001:0002bef0       ?__scrt_initialize_type_info@@YAXXZ 1002cef0 f   LIBCMTD:tncleanup.obj
 0001:0002bf00       ?__scrt_uninitialize_type_info@@YAXXZ 1002cf00 f   LIBCMTD:tncleanup.obj
 0001:0002bf20       ___local_stdio_scanf_options 1002cf20 f i LIBCMTD:default_local_stdio_options.obj
 0001:0002bf30       ___scrt_initialize_default_local_stdio_options 1002cf30 f   LIBCMTD:default_local_stdio_options.obj
 0001:0002bf70       ___scrt_get_dyn_tls_init_callback 1002cf70 f   LIBCMTD:dyn_tls_init.obj
 0001:0002bf80       __RTC_Initialize           1002cf80 f   LIBCMTD:initsect.obj
 0001:0002bfb0       __RTC_Terminate            1002cfb0 f   LIBCMTD:initsect.obj
 0001:0002c460       ?_RTC_GetSrcLine@@YAHPAEPA_WKPAH1K@Z 1002d460 f   LIBCMTD:pdblkup.obj
 0001:0002c7e0       __except_handler4_noexcept 1002d7e0 f   LIBCMTD:chandler4_noexcept.obj
 0001:0002c840       ??0bad_alloc@std@@AAE@QBD@Z 1002d840 f i LIBCMTD:throw_bad_alloc.obj
 0001:0002c870       ??0bad_alloc@std@@QAE@ABV01@@Z 1002d870 f i LIBCMTD:throw_bad_alloc.obj
 0001:0002c8a0       ??0bad_alloc@std@@QAE@XZ   1002d8a0 f i LIBCMTD:throw_bad_alloc.obj
 0001:0002c8d0       ??0bad_array_new_length@std@@QAE@ABV01@@Z 1002d8d0 f i LIBCMTD:throw_bad_alloc.obj
 0001:0002c900       ??0bad_array_new_length@std@@QAE@XZ 1002d900 f i LIBCMTD:throw_bad_alloc.obj
 0001:0002c930       ??0exception@std@@QAE@ABV01@@Z 1002d930 f i LIBCMTD:throw_bad_alloc.obj
 0001:0002c970       ??0exception@std@@QAE@QBDH@Z 1002d970 f i LIBCMTD:throw_bad_alloc.obj
 0001:0002c9a0       ??1bad_alloc@std@@UAE@XZ   1002d9a0 f i LIBCMTD:throw_bad_alloc.obj
 0001:0002c9c0       ??1bad_array_new_length@std@@UAE@XZ 1002d9c0 f i LIBCMTD:throw_bad_alloc.obj
 0001:0002c9e0       ??1exception@std@@UAE@XZ   1002d9e0 f i LIBCMTD:throw_bad_alloc.obj
 0001:0002ca10       ??_Ebad_alloc@std@@UAEPAXI@Z 1002da10 f i LIBCMTD:throw_bad_alloc.obj
 0001:0002ca10       ??_Gbad_alloc@std@@UAEPAXI@Z 1002da10 f i LIBCMTD:throw_bad_alloc.obj
 0001:0002ca40       ??_Gbad_array_new_length@std@@UAEPAXI@Z 1002da40 f i LIBCMTD:throw_bad_alloc.obj
 0001:0002ca40       ??_Ebad_array_new_length@std@@UAEPAXI@Z 1002da40 f i LIBCMTD:throw_bad_alloc.obj
 0001:0002ca70       ??_Gexception@std@@UAEPAXI@Z 1002da70 f i LIBCMTD:throw_bad_alloc.obj
 0001:0002ca70       ??_Eexception@std@@UAEPAXI@Z 1002da70 f i LIBCMTD:throw_bad_alloc.obj
 0001:0002caa0       ?__scrt_throw_std_bad_alloc@@YAXXZ 1002daa0 f   LIBCMTD:throw_bad_alloc.obj
 0001:0002cac0       ?__scrt_throw_std_bad_array_new_length@@YAXXZ 1002dac0 f   LIBCMTD:throw_bad_alloc.obj
 0001:0002cae0       ?what@exception@std@@UBEPBDXZ 1002dae0 f i LIBCMTD:throw_bad_alloc.obj
 0001:0002cb10       ??1type_info@@UAE@XZ       1002db10 f   LIBCMTD:std_type_info_static.obj
 0001:0002cb30       ??_Etype_info@@UAEPAXI@Z   1002db30 f i LIBCMTD:std_type_info_static.obj
 0001:0002cb30       ??_Gtype_info@@UAEPAXI@Z   1002db30 f i LIBCMTD:std_type_info_static.obj
 0001:0002cb5e       ??$?2PAUHINSTANCE__@@@Wrapper@?$CSimpleArray@PAUHINSTANCE__@@V?$CSimpleArrayEqualHelper@PAUHINSTANCE__@@@ATL@@@ATL@@SAPAXIPAPAUHINSTANCE__@@@Z 1002db5e f i atls:atlbase.obj
 0001:0002cb66       ??0?$CSimpleArray@PAUHINSTANCE__@@V?$CSimpleArrayEqualHelper@PAUHINSTANCE__@@@ATL@@@ATL@@QAE@XZ 1002db66 f i atls:atlbase.obj
 0001:0002cb73       ??0CAtlBaseModule@ATL@@QAE@XZ 1002db73 f   atls:atlbase.obj
 0001:0002cbc6       ??0Wrapper@?$CSimpleArray@PAUHINSTANCE__@@V?$CSimpleArrayEqualHelper@PAUHINSTANCE__@@@ATL@@@ATL@@QAE@ABQAUHINSTANCE__@@@Z 1002dbc6 f i atls:atlbase.obj
 0001:0002cbd6       ??0_ATL_BASE_MODULE70@ATL@@QAE@XZ 1002dbd6 f i atls:atlbase.obj
 0001:0002cbf9       ??1?$CSimpleArray@PAUHINSTANCE__@@V?$CSimpleArrayEqualHelper@PAUHINSTANCE__@@@ATL@@@ATL@@QAE@XZ 1002dbf9 f i atls:atlbase.obj
 0001:0002cbfe       ??1CAtlBaseModule@ATL@@QAE@XZ 1002dbfe f   atls:atlbase.obj
 0001:0002cc14       ??1_ATL_BASE_MODULE70@ATL@@QAE@XZ 1002dc14 f i atls:atlbase.obj
 0001:0002cc1c       ??A?$CSimpleArray@PAUHINSTANCE__@@V?$CSimpleArrayEqualHelper@PAUHINSTANCE__@@@ATL@@@ATL@@QAEAAPAUHINSTANCE__@@H@Z 1002dc1c f i atls:atlbase.obj
 0001:0002cc41       ?Add@?$CSimpleArray@PAUHINSTANCE__@@V?$CSimpleArrayEqualHelper@PAUHINSTANCE__@@@ATL@@@ATL@@QAEHABQAUHINSTANCE__@@@Z 1002dc41 f i atls:atlbase.obj
 0001:0002ccc3       ?AddResourceInstance@CAtlBaseModule@ATL@@QAE_NPAUHINSTANCE__@@@Z 1002dcc3 f   atls:atlbase.obj
 0001:0002ccf6       ?GetHInstanceAt@CAtlBaseModule@ATL@@QAEPAUHINSTANCE__@@H@Z 1002dcf6 f   atls:atlbase.obj
 0001:0002cd3b       ?GetSize@?$CSimpleArray@PAUHINSTANCE__@@V?$CSimpleArrayEqualHelper@PAUHINSTANCE__@@@ATL@@@ATL@@QBEHXZ 1002dd3b f i atls:atlbase.obj
 0001:0002cd3f       ?InternalSetAtIndex@?$CSimpleArray@PAUHINSTANCE__@@V?$CSimpleArrayEqualHelper@PAUHINSTANCE__@@@ATL@@@ATL@@QAEXHABQAUHINSTANCE__@@@Z 1002dd3f f i atls:atlbase.obj
 0001:0002cd59       ?RemoveAll@?$CSimpleArray@PAUHINSTANCE__@@V?$CSimpleArrayEqualHelper@PAUHINSTANCE__@@@ATL@@@ATL@@QAEXXZ 1002dd59 f i atls:atlbase.obj
 0001:0002cd76       ?RemoveAt@?$CSimpleArray@PAUHINSTANCE__@@V?$CSimpleArrayEqualHelper@PAUHINSTANCE__@@@ATL@@@ATL@@QAEHH@Z 1002dd76 f i atls:atlbase.obj
 0001:0002cdc4       ?RemoveResourceInstance@CAtlBaseModule@ATL@@QAE_NPAUHINSTANCE__@@@Z 1002ddc4 f   atls:atlbase.obj
 0001:0002ce21       ?memmove_s@Checked@ATL@@YAXPAXIPBXI@Z 1002de21 f i atls:atlbase.obj
 0001:0002d17e       ?GetCodeAddress@_stdcallthunk@ATL@@QAEPAXXZ 1002e17e f i atls:atlthunk.obj
 0001:0002d1a8       ?Init@_stdcallthunk@ATL@@QAEHKPAX@Z 1002e1a8 f i atls:atlthunk.obj
 0001:0002d1dd       ?__AllocStdCallThunk@@YGPAXXZ 1002e1dd f   atls:atlthunk.obj
 0001:0002d1e2       ?__AllocStdCallThunk@ATL@@YGPAXXZ 1002e1e2 f   atls:atlthunk.obj
 0001:0002d1e7       ?__AllocStdCallThunk_cmn@@YAPAXXZ 1002e1e7 f   atls:atlthunk.obj
 0001:0002d2ad       ?__FreeStdCallThunk@@YGXPAX@Z 1002e2ad f   atls:atlthunk.obj
 0001:0002d2bd       ?__FreeStdCallThunk@ATL@@YGXPAX@Z 1002e2bd f   atls:atlthunk.obj
 0001:0002d2cd       ?__FreeStdCallThunk_cmn@@YAXPAX@Z 1002e2cd f   atls:atlthunk.obj
 0001:0002d368       _AtlThunk_AllocateData@0   1002e368 f   atls:atlthunk.obj
 0001:0002d3cd       _AtlThunk_DataToCode@4     1002e3cd f   atls:atlthunk.obj
 0001:0002d414       _AtlThunk_FreeData@4       1002e414 f   atls:atlthunk.obj
 0001:0002d46a       _AtlThunk_InitData@12      1002e46a f   atls:atlthunk.obj
 0001:0002d4b9       _MemoryBarrier             1002e4b9 f i atls:atlthunk.obj
 0001:0002d4c7       __InlineInterlockedCompareExchangePointer 1002e4c7 f i atls:atlthunk.obj
 0001:0002d4e0       _memset                    1002e4e0 f   libvcruntimed:memset.obj
 0001:0002d640       ??$__crt_interlocked_exchange_pointer@$$A6AXXZP6AXXZ@@YAP6AXXZPDS6AXXZQ6AXXZ@Z 1002e640 f i libvcruntimed:purevirt.obj
 0001:0002d650       ??$__crt_interlocked_read_pointer@$$A6AXXZ@@YAP6AXXZPDS6AXXZ@Z 1002e650 f i libvcruntimed:purevirt.obj
 0001:0002d670       ?__crt_interlocked_read_32@@YAHPDH@Z 1002e670 f i libvcruntimed:purevirt.obj
 0001:0002d690       __get_purecall_handler     1002e690 f   libvcruntimed:purevirt.obj
 0001:0002d6b0       __purecall                 1002e6b0 f   libvcruntimed:purevirt.obj
 0001:0002d6e0       __set_purecall_handler     1002e6e0 f   libvcruntimed:purevirt.obj
 0001:0002d8b0       _memcmp                    1002e8b0 f   libvcruntimed:memcmp.obj
 0001:0002e180       _memcpy                    1002f180 f   libvcruntimed:memcpy.obj
 0001:0002e700       _wcsstr                    1002f700 f   libvcruntimed:wcsstr.obj
 0001:0002ec30       __except_handler4          1002fc30 f   libvcruntimed:chandler4.obj
 0001:0002ee20       ___vcrt_initialize         1002fe20 f   libvcruntimed:initialization.obj
 0001:0002ee60       ___vcrt_thread_attach      1002fe60 f   libvcruntimed:initialization.obj
 0001:0002ee80       ___vcrt_thread_detach      1002fe80 f   libvcruntimed:initialization.obj
 0001:0002eea0       ___vcrt_uninitialize       1002fea0 f   libvcruntimed:initialization.obj
 0001:0002eec0       ___vcrt_uninitialize_critical 1002fec0 f   libvcruntimed:initialization.obj
 0001:0002eee0       ??$?0AAViterator@TryBlockMap@__FrameHandler3@@AAV012@$0A@@?$pair@Viterator@TryBlockMap@__FrameHandler3@@V123@@std@@QAE@AAViterator@TryBlockMap@__FrameHandler3@@0@Z 1002fee0 f i libvcruntimed:trnsctrl.obj
 0001:0002ef30       ??$forward@AAViterator@TryBlockMap@__FrameHandler3@@@std@@YAAAViterator@TryBlockMap@__FrameHandler3@@AAV123@@Z 1002ff30 f i libvcruntimed:trnsctrl.obj
 0001:0002ef40       ??0iterator@TryBlockMap@__FrameHandler3@@QAE@AAV12@I@Z 1002ff40 f i libvcruntimed:trnsctrl.obj
 0001:0002ef70       ?GetRangeOfTrysToCheck@__FrameHandler3@@SA?AU?$pair@Viterator@TryBlockMap@__FrameHandler3@@V123@@std@@AAVTryBlockMap@1@HPAXPBU_s_FuncInfo@@H@Z 1002ff70 f   libvcruntimed:trnsctrl.obj
 0001:0002f050       ?_CallCatchBlock2@@YAPAXPAUEHRegistrationNode@@PBU_s_FuncInfo@@PAXHK@Z 10030050 f   libvcruntimed:trnsctrl.obj
 0001:0002f0c0       ?_CallSETranslator@@YAHPAUEHExceptionRecord@@PAUEHRegistrationNode@@PAX2PBU_s_FuncInfo@@H1@Z 100300c0 f   libvcruntimed:trnsctrl.obj
 0001:0002f1c0       ?_JumpToContinuation@@YGXPAXPAUEHRegistrationNode@@@Z 100301c0 f   libvcruntimed:trnsctrl.obj
 0001:0002f200       ?_UnwindNestedFrames@@YGXPAUEHRegistrationNode@@PAUEHExceptionRecord@@@Z 10030200 f   libvcruntimed:trnsctrl.obj
 0001:0002f260       __CatchGuardHandler        10030260 f   libvcruntimed:trnsctrl.obj
 0001:0002f2b0       __CreateFrameInfo          100302b0 f   libvcruntimed:trnsctrl.obj
 0001:0002f2e0       __FindAndUnlinkFrame       100302e0 f   libvcruntimed:trnsctrl.obj
 0001:0002f350       __TranslatorGuardHandler   10030350 f   libvcruntimed:trnsctrl.obj
 0001:0002f400       ___CxxFrameHandler         10030400 f   libvcruntimed:trnsctrl.obj
 0001:0002f440       ___CxxFrameHandler2        10030440 f   libvcruntimed:trnsctrl.obj
 0001:0002f480       ___CxxFrameHandler3        10030480 f   libvcruntimed:trnsctrl.obj
 0001:0002f4c0       ___CxxLongjmpUnwind@4      100304c0 f   libvcruntimed:trnsctrl.obj
 0001:0002f500       ___DestructExceptionObject 10030500 f   libvcruntimed:ehhelpers.obj
 0001:0002f620       ?_CallMemberFunction0@@YGXQAX0@Z 10030620 f i libvcruntimed:ehhelpers.obj
 0001:0002f6c0       ?raw_name@type_info@@QBEPBDXZ 100306c0 f i libvcruntimed:ehhelpers.obj
 0001:0002f6e0       __IsExceptionObjectToBeDestroyed 100306e0 f   libvcruntimed:ehhelpers.obj
 0001:0002f720       __SetWinRTOutOfMemoryExceptionCallback 10030720 f   libvcruntimed:ehhelpers.obj
 0001:0002f730       ___AdjustPointer           10030730 f   libvcruntimed:ehhelpers.obj
 0001:0002f780       ___FrameUnwindFilter       10030780 f   libvcruntimed:ehhelpers.obj
 0001:0002f810       ___GetPlatformExceptionInfo 10030810 f   libvcruntimed:ehhelpers.obj
 0001:0002f890       ___current_exception       10030890 f   libvcruntimed:ehhelpers.obj
 0001:0002f8a0       ___current_exception_context 100308a0 f   libvcruntimed:ehhelpers.obj
 0001:0002f8b0       ___processing_throw        100308b0 f   libvcruntimed:ehhelpers.obj
 0001:0002f8c0       ___std_terminate           100308c0 f   libvcruntimed:ehhelpers.obj
 0001:0002f8d0       __is_exception_typeof      100308d0 f   libvcruntimed:ehhelpers.obj
 0001:0002f9d0       ??$?RD@__crt_internal_free_policy@@QBEXQBD@Z 100309d0 f i libvcruntimed:std_type_info.obj
 0001:0002f9f0       ??$?RX@__crt_internal_free_policy@@QBEXQBX@Z 100309f0 f i libvcruntimed:std_type_info.obj
 0001:0002fa10       ??$__crt_interlocked_compare_exchange_pointer@$$CBDPAD$$T@@YAPBDPDSBDQAD$$T@Z 10030a10 f i libvcruntimed:std_type_info.obj
 0001:0002fa30       ??$__crt_interlocked_read_pointer@$$CBD@@YAPBDPDSBD@Z 10030a30 f i libvcruntimed:std_type_info.obj
 0001:0002fa50       ??0?$__crt_unique_heap_ptr@DU__crt_internal_free_policy@@@@QAE@QAD@Z 10030a50 f i libvcruntimed:std_type_info.obj
 0001:0002fa70       ??0?$__crt_unique_heap_ptr@XU__crt_internal_free_policy@@@@QAE@QAX@Z 10030a70 f i libvcruntimed:std_type_info.obj
 0001:0002fa90       ??1?$__crt_unique_heap_ptr@DU__crt_internal_free_policy@@@@QAE@XZ 10030a90 f i libvcruntimed:std_type_info.obj
 0001:0002fab0       ??1?$__crt_unique_heap_ptr@XU__crt_internal_free_policy@@@@QAE@XZ 10030ab0 f i libvcruntimed:std_type_info.obj
 0001:0002fad0       ??B?$__crt_unique_heap_ptr@DU__crt_internal_free_policy@@@@QBE_NXZ 10030ad0 f i libvcruntimed:std_type_info.obj
 0001:0002faf0       ??B?$__crt_unique_heap_ptr@XU__crt_internal_free_policy@@@@QBE_NXZ 10030af0 f i libvcruntimed:std_type_info.obj
 0001:0002fb80       ?detach@?$__crt_unique_heap_ptr@XU__crt_internal_free_policy@@@@QAEPAXXZ 10030b80 f i libvcruntimed:std_type_info.obj
 0001:0002fbb0       ?get@?$__crt_unique_heap_ptr@DU__crt_internal_free_policy@@@@QBEPADXZ 10030bb0 f i libvcruntimed:std_type_info.obj
 0001:0002fbc0       ?get@?$__crt_unique_heap_ptr@XU__crt_internal_free_policy@@@@QBEPAXXZ 10030bc0 f i libvcruntimed:std_type_info.obj
 0001:0002fbd0       ?is_valid@?$__crt_unique_heap_ptr@DU__crt_internal_free_policy@@@@QBE_NXZ 10030bd0 f i libvcruntimed:std_type_info.obj
 0001:0002fc00       ?is_valid@?$__crt_unique_heap_ptr@XU__crt_internal_free_policy@@@@QBE_NXZ 10030c00 f i libvcruntimed:std_type_info.obj
 0001:0002fc30       ?release@?$__crt_unique_heap_ptr@DU__crt_internal_free_policy@@@@QAEXXZ 10030c30 f i libvcruntimed:std_type_info.obj
 0001:0002fc60       ?release@?$__crt_unique_heap_ptr@XU__crt_internal_free_policy@@@@QAEXXZ 10030c60 f i libvcruntimed:std_type_info.obj
 0001:0002fc90       ___std_type_info_compare   10030c90 f   libvcruntimed:std_type_info.obj
 0001:0002fcc0       ___std_type_info_destroy_list 10030cc0 f   libvcruntimed:std_type_info.obj
 0001:0002fd00       ___std_type_info_hash      10030d00 f   libvcruntimed:std_type_info.obj
 0001:0002fd60       ___std_type_info_name      10030d60 f   libvcruntimed:std_type_info.obj
 0001:0002ff40       ___vcrt_GetModuleFileNameW 10030f40 f   libvcruntimed:winapi_thunks.obj
 0001:0002ff60       ___vcrt_GetModuleHandleW   10030f60 f   libvcruntimed:winapi_thunks.obj
 0001:0002ff70       ___vcrt_LoadLibraryExW     10030f70 f   libvcruntimed:winapi_thunks.obj
 0001:0002ff90       ??$?RD@__crt_public_free_policy@@QBEXQBD@Z 10030f90 f i libvcruntimed:std_exception.obj
 0001:0002ffb0       ??0?$__crt_unique_heap_ptr@DU__crt_public_free_policy@@@@QAE@QAD@Z 10030fb0 f i libvcruntimed:std_exception.obj
 0001:0002ffd0       ??1?$__crt_unique_heap_ptr@DU__crt_public_free_policy@@@@QAE@XZ 10030fd0 f i libvcruntimed:std_exception.obj
 0001:0002fff0       ??B?$__crt_unique_heap_ptr@DU__crt_public_free_policy@@@@QBE_NXZ 10030ff0 f i libvcruntimed:std_exception.obj
 0001:00030010       ?detach@?$__crt_unique_heap_ptr@DU__crt_public_free_policy@@@@QAEPADXZ 10031010 f i libvcruntimed:std_exception.obj
 0001:00030040       ?get@?$__crt_unique_heap_ptr@DU__crt_public_free_policy@@@@QBEPADXZ 10031040 f i libvcruntimed:std_exception.obj
 0001:00030050       ?is_valid@?$__crt_unique_heap_ptr@DU__crt_public_free_policy@@@@QBE_NXZ 10031050 f i libvcruntimed:std_exception.obj
 0001:00030080       ?release@?$__crt_unique_heap_ptr@DU__crt_public_free_policy@@@@QAEXXZ 10031080 f i libvcruntimed:std_exception.obj
 0001:000300b0       ___std_exception_copy      100310b0 f   libvcruntimed:std_exception.obj
 0001:000301a0       ___std_exception_destroy   100311a0 f   libvcruntimed:std_exception.obj
 0001:000301d0       __CxxThrowException@8      100311d0 f   libvcruntimed:throw.obj
 0001:00030280       _memmove                   10031280 f   libvcruntimed:memmove.obj
 0001:00030800       __local_unwind4            10031800 f   libvcruntimed:exsup4.obj
 0001:000308d8       __seh_longjmp_unwind4@4    100318d8 f   libvcruntimed:exsup4.obj
 0001:00030900       @_EH4_CallFilterFunc@8     10031900 f   libvcruntimed:exsup4.obj
 0001:00030918       @_EH4_TransferToHandler@8  10031918 f   libvcruntimed:exsup4.obj
 0001:00030934       @_EH4_GlobalUnwind2@8      10031934 f   libvcruntimed:exsup4.obj
 0001:00030950       @_EH4_LocalUnwind@16       10031950 f   libvcruntimed:exsup4.obj
 0001:00030980       ___except_validate_context_record 10031980 f   libvcruntimed:jbcxrval.obj
 0001:000309d0       ___except_validate_jump_buffer 100319d0 f   libvcruntimed:jbcxrval.obj
 0001:000309f0       ___except_validate_jump_buffer_common 100319f0 f i libvcruntimed:jbcxrval.obj
 0001:00030a50       ??$?RU__vcrt_ptd@@@__crt_internal_free_policy@@QBEXQBU__vcrt_ptd@@@Z 10031a50 f i libvcruntimed:per_thread_data.obj
 0001:00030a70       ??0?$__crt_unique_heap_ptr@U__vcrt_ptd@@U__crt_internal_free_policy@@@@QAE@QAU__vcrt_ptd@@@Z 10031a70 f i libvcruntimed:per_thread_data.obj
 0001:00030ab0       ??1?$__crt_unique_heap_ptr@U__vcrt_ptd@@U__crt_internal_free_policy@@@@QAE@XZ 10031ab0 f i libvcruntimed:per_thread_data.obj
 0001:00030af0       ??B?$__crt_unique_heap_ptr@U__vcrt_ptd@@U__crt_internal_free_policy@@@@QBE_NXZ 10031af0 f i libvcruntimed:per_thread_data.obj
 0001:00030b10       ?detach@?$__crt_unique_heap_ptr@U__vcrt_ptd@@U__crt_internal_free_policy@@@@QAEPAU__vcrt_ptd@@XZ 10031b10 f i libvcruntimed:per_thread_data.obj
 0001:00030b40       ?get@?$__crt_unique_heap_ptr@U__vcrt_ptd@@U__crt_internal_free_policy@@@@QBEPAU__vcrt_ptd@@XZ 10031b40 f i libvcruntimed:per_thread_data.obj
 0001:00030b50       ?is_valid@?$__crt_unique_heap_ptr@U__vcrt_ptd@@U__crt_internal_free_policy@@@@QBE_NXZ 10031b50 f i libvcruntimed:per_thread_data.obj
 0001:00030b80       ?release@?$__crt_unique_heap_ptr@U__vcrt_ptd@@U__crt_internal_free_policy@@@@QAEXXZ 10031b80 f i libvcruntimed:per_thread_data.obj
 0001:00030be0       ___vcrt_freefls@4          10031be0 f   libvcruntimed:per_thread_data.obj
 0001:00030c10       ___vcrt_freeptd            10031c10 f   libvcruntimed:per_thread_data.obj
 0001:00030c70       ___vcrt_getptd             10031c70 f   libvcruntimed:per_thread_data.obj
 0001:00030c90       ___vcrt_getptd_noexit      10031c90 f   libvcruntimed:per_thread_data.obj
 0001:00030df0       ___vcrt_getptd_noinit      10031df0 f   libvcruntimed:per_thread_data.obj
 0001:00030e50       ___vcrt_initialize_ptd     10031e50 f   libvcruntimed:per_thread_data.obj
 0001:00030ea0       ___vcrt_uninitialize_ptd   10031ea0 f   libvcruntimed:per_thread_data.obj
 0001:00030ed0       ___vcrt_initialize_locks   10031ed0 f   libvcruntimed:locks.obj
 0001:00030f30       ___vcrt_lock               10031f30 f   libvcruntimed:locks.obj
 0001:00030f50       ___vcrt_uninitialize_locks 10031f50 f   libvcruntimed:locks.obj
 0001:00030fa0       ___vcrt_unlock             10031fa0 f   libvcruntimed:locks.obj
 0001:00031b30       ??$TypeMatchHelper@V__FrameHandler3@@@@YAHPBU_s_HandlerType@@PBU_s_CatchableType@@PBU_s_ThrowInfo@@@Z 10032b30 f i libvcruntimed:frame.obj
 0001:00031c10       ??$__InternalCxxFrameHandler@V__FrameHandler3@@@@YA?AW4_EXCEPTION_DISPOSITION@@PAUEHExceptionRecord@@PAUEHRegistrationNode@@PAU_CONTEXT@@PAXPBU_s_FuncInfo@@H1E@Z 10032c10 f i libvcruntimed:frame.obj
 0001:00031dd0       ??0HandlerMap@__FrameHandler3@@QAE@PBU_s_TryBlockMapEntry@@II@Z 10032dd0 f i libvcruntimed:frame.obj
 0001:00031e00       ??0TryBlockMap@__FrameHandler3@@QAE@PBU_s_FuncInfo@@I@Z 10032e00 f i libvcruntimed:frame.obj
 0001:00031e30       ??0bad_exception@std@@QAE@ABV01@@Z 10032e30 f i libvcruntimed:frame.obj
 0001:00031e60       ??0bad_exception@std@@QAE@XZ 10032e60 f i libvcruntimed:frame.obj
 0001:00031e90       ??0iterator@HandlerMap@__FrameHandler3@@QAE@AAV12@I@Z 10032e90 f i libvcruntimed:frame.obj
 0001:00031ec0       ??1bad_exception@std@@UAE@XZ 10032ec0 f i libvcruntimed:frame.obj
 0001:00031ee0       ??8iterator@HandlerMap@__FrameHandler3@@QBE_NABV012@@Z 10032ee0 f i libvcruntimed:frame.obj
 0001:00031f10       ??8type_info@@QBE_NABV0@@Z 10032f10 f i libvcruntimed:frame.obj
 0001:00031f50       ??9iterator@HandlerMap@__FrameHandler3@@QBE_NABV012@@Z 10032f50 f i libvcruntimed:frame.obj
 0001:00031f90       ??Diterator@HandlerMap@__FrameHandler3@@QAE?BU_s_HandlerType@@XZ 10032f90 f i libvcruntimed:frame.obj
 0001:00031fd0       ??Diterator@TryBlockMap@__FrameHandler3@@QAE?BU_s_TryBlockMapEntry@@XZ 10032fd0 f i libvcruntimed:frame.obj
 0001:00032020       ??Eiterator@HandlerMap@__FrameHandler3@@QAEAAV012@XZ 10033020 f i libvcruntimed:frame.obj
 0001:00032040       ??Eiterator@TryBlockMap@__FrameHandler3@@QAEAAV012@XZ 10033040 f i libvcruntimed:frame.obj
 0001:00032060       ??Miterator@TryBlockMap@__FrameHandler3@@QBE_NABV012@@Z 10033060 f i libvcruntimed:frame.obj
 0001:00032090       ??_Ebad_exception@std@@UAEPAXI@Z 10033090 f i libvcruntimed:frame.obj
 0001:00032090       ??_Gbad_exception@std@@UAEPAXI@Z 10033090 f i libvcruntimed:frame.obj
 0001:000320c0       ?BuildCatchObject@__FrameHandler3@@SAXPAUEHExceptionRecord@@PAXPBU_s_HandlerType@@PBU_s_CatchableType@@@Z 100330c0 f   libvcruntimed:frame.obj
 0001:000320e0       ?BuildCatchObjectHelper@__FrameHandler3@@SAHPAUEHExceptionRecord@@PAXPBU_s_HandlerType@@PBU_s_CatchableType@@@Z 100330e0 f   libvcruntimed:frame.obj
 0001:00032480       ?FrameUnwindToEmptyState@__FrameHandler3@@SAXPAUEHRegistrationNode@@PAXPBU_s_FuncInfo@@@Z 10033480 f   libvcruntimed:frame.obj
 0001:000324a0       ?FrameUnwindToState@__FrameHandler3@@SAXPAUEHRegistrationNode@@PAXPBU_s_FuncInfo@@H@Z 100334a0 f   libvcruntimed:frame.obj
 0001:00032620       ?GetMaxState@__FrameHandler3@@SAHPAXPBU_s_FuncInfo@@@Z 10033620 f i libvcruntimed:frame.obj
 0001:00032740       ?TypeMatch@__FrameHandler3@@SAHPBU_s_HandlerType@@PBU_s_CatchableType@@PBU_s_ThrowInfo@@@Z 10033740 f   libvcruntimed:frame.obj
 0001:00032760       ?_CallMemberFunction1@@YGXQAX00@Z 10033760 f i libvcruntimed:frame.obj
 0001:00032790       ?_CallMemberFunction2@@YGXQAX00H@Z 10033790 f i libvcruntimed:frame.obj
 0001:000327c0       ?begin@HandlerMap@__FrameHandler3@@QAE?AViterator@12@XZ 100337c0 f i libvcruntimed:frame.obj
 0001:000327e0       ?end@HandlerMap@__FrameHandler3@@QAE?AViterator@12@XZ 100337e0 f i libvcruntimed:frame.obj
 0001:00032810       ?getESTypes@__FrameHandler3@@SAPBU_s_ESTypeList@@PBU_s_FuncInfo@@@Z 10033810 f i libvcruntimed:frame.obj
 0001:00032820       ?getLastEntry@HandlerMap@__FrameHandler3@@QAEPBU_s_HandlerType@@XZ 10033820 f i libvcruntimed:frame.obj
 0001:00032840       ?getMagicNum@__FrameHandler3@@SAIPBU_s_FuncInfo@@@Z 10033840 f i libvcruntimed:frame.obj
 0001:00032850       ?getNumTryBlocks@TryBlockMap@__FrameHandler3@@QAEIXZ 10033850 f i libvcruntimed:frame.obj
 0001:00032870       ?isEHs@__FrameHandler3@@SA_NPBU_s_FuncInfo@@@Z 10033870 f i libvcruntimed:frame.obj
 0001:000328a0       ?isNoExcept@__FrameHandler3@@SA_NPBU_s_FuncInfo@@@Z 100338a0 f i libvcruntimed:frame.obj
 0001:000328d0       ___BuildCatchObject        100338d0 f   libvcruntimed:frame.obj
 0001:000328f0       ___BuildCatchObjectHelper  100338f0 f   libvcruntimed:frame.obj
 0001:00032910       ___TypeMatch               10033910 f   libvcruntimed:frame.obj
 0001:00032930       ___vcrt_EncodePointer      10033930 f i libvcruntimed:frame.obj
 0001:00032940       __CallSettingFrame@12      10033940 f   libvcruntimed:lowhelpr.obj
 0001:00032967       __NLG_Return               10033967     libvcruntimed:lowhelpr.obj
 0001:00032990       ??$?0$00@DName@@QAE@PBDU?$StringLifeSelector@$00@@@Z 10033990 f i libvcruntimed:undname.obj
 0001:000329e0       ??$?0$00@pcharNode@@QAE@PBDHU?$StringLifeSelector@$00@@@Z 100339e0 f i libvcruntimed:undname.obj
 0001:00032a20       ??$?0$01@DName@@QAE@PBDU?$StringLifeSelector@$01@@@Z 10033a20 f i libvcruntimed:undname.obj
 0001:00032a70       ??$?0$01@pcharNode@@QAE@PBDHU?$StringLifeSelector@$01@@@Z 10033a70 f i libvcruntimed:undname.obj
 0001:00032af0       ??$?0$0A@@DName@@QAE@PBDU?$StringLifeSelector@$0A@@@@Z 10033af0 f i libvcruntimed:undname.obj
 0001:00032b40       ??$?0$0A@@pcharNode@@QAE@PBDHU?$StringLifeSelector@$0A@@@@Z 10033b40 f i libvcruntimed:undname.obj
 0001:00032bc0       ??$append@VDNameNode@@@DName@@AAEXPBVDNameNode@@@Z 10033bc0 f i libvcruntimed:undname.obj
 0001:00032c50       ??$append@VDNameStatusNode@@@DName@@AAEXPBVDNameStatusNode@@@Z 10033c50 f i libvcruntimed:undname.obj
 0001:00032ce0       ??$append@VcharNode@@@DName@@AAEXPBVcharNode@@@Z 10033ce0 f i libvcruntimed:undname.obj
 0001:00032d70       ??$append@VpDNameNode@@@DName@@AAEXPBVpDNameNode@@@Z 10033d70 f i libvcruntimed:undname.obj
 0001:00032e00       ??$append@VpcharNode@@@DName@@AAEXPBVpcharNode@@@Z 10033e00 f i libvcruntimed:undname.obj
 0001:00032e90       ??$doPchar@$00@DName@@AAEXPBDH@Z 10033e90 f i libvcruntimed:undname.obj
 0001:00032fa0       ??$doPchar@$01@DName@@AAEXPBDH@Z 10033fa0 f i libvcruntimed:undname.obj
 0001:000330b0       ??$doPchar@$0A@@DName@@AAEXPBDH@Z 100340b0 f i libvcruntimed:undname.obj
 0001:000331c0       ??0Block@_HeapManager@@QAE@XZ 100341c0 f i libvcruntimed:undname.obj
 0001:000331e0       ??0DName@@QAE@AAPBDD@Z     100341e0 f   libvcruntimed:undname.obj
 0001:00033350       ??0DName@@QAE@ABUStringLiteral@@@Z 10034350 f   libvcruntimed:undname.obj
 0001:000333a0       ??0DName@@QAE@ABV0@@Z      100343a0 f i libvcruntimed:undname.obj
 0001:000333d0       ??0DName@@QAE@D@Z          100343d0 f   libvcruntimed:undname.obj
 0001:00033400       ??0DName@@QAE@PAV0@@Z      10034400 f   libvcruntimed:undname.obj
 0001:000334b0       ??0DName@@QAE@W4DNameStatus@@@Z 100344b0 f   libvcruntimed:undname.obj
 0001:00033550       ??0DName@@QAE@XZ           10034550 f i libvcruntimed:undname.obj
 0001:00033580       ??0DName@@QAE@_J@Z         10034580 f   libvcruntimed:undname.obj
 0001:00033670       ??0DName@@QAE@_K@Z         10034670 f   libvcruntimed:undname.obj
 0001:00033720       ??0DNameNode@@IAE@XZ       10034720 f i libvcruntimed:undname.obj
 0001:00033740       ??0Replicator@@QAE@XZ      10034740 f i libvcruntimed:undname.obj
 0001:00033780       ??0UnDecorator@@QAE@PBDP6APADJ@ZK@Z 10034780 f i libvcruntimed:undname.obj
 0001:00033800       ??0charNode@@QAE@D@Z       10034800 f i libvcruntimed:undname.obj
 0001:00033830       ??0pDNameNode@@QAE@PAVDName@@@Z 10034830 f   libvcruntimed:undname.obj
 0001:00033890       ??0pairNode@@QAE@PBVDNameNode@@0@Z 10034890 f i libvcruntimed:undname.obj
 0001:000338f0       ??2@YAPAXIAAV_HeapManager@@H@Z 100348f0 f   libvcruntimed:undname.obj
 0001:00033930       ??4DName@@QAEAAV0@ABUStringLiteral@@@Z 10034930 f   libvcruntimed:undname.obj
 0001:00033970       ??4DName@@QAEAAV0@ABV0@@Z  10034970 f   libvcruntimed:undname.obj
 0001:000339a0       ??4DName@@QAEAAV0@D@Z      100349a0 f i libvcruntimed:undname.obj
 0001:000339d0       ??4DName@@QAEAAV0@PAV0@@Z  100349d0 f   libvcruntimed:undname.obj
 0001:00033a70       ??4DName@@QAEAAV0@W4DNameStatus@@@Z 10034a70 f   libvcruntimed:undname.obj
 0001:00033af0       ??AReplicator@@QBE?AVDName@@H@Z 10034af0 f   libvcruntimed:undname.obj
 0001:00033b60       ??H@YA?AVDName@@ABUStringLiteral@@ABV0@@Z 10034b60 f i libvcruntimed:undname.obj
 0001:00033b90       ??H@YA?AVDName@@DABV0@@Z   10034b90 f i libvcruntimed:undname.obj
 0001:00033bc0       ??H@YA?AVDName@@W4DNameStatus@@ABV0@@Z 10034bc0 f i libvcruntimed:undname.obj
 0001:00033bf0       ??HDName@@QBE?AV0@ABUStringLiteral@@@Z 10034bf0 f   libvcruntimed:undname.obj
 0001:00033c30       ??HDName@@QBE?AV0@ABV0@@Z  10034c30 f   libvcruntimed:undname.obj
 0001:00033c70       ??HDName@@QBE?AV0@D@Z      10034c70 f   libvcruntimed:undname.obj
 0001:00033cb0       ??HDName@@QBE?AV0@PAV0@@Z  10034cb0 f   libvcruntimed:undname.obj
 0001:00033cf0       ??HDName@@QBE?AV0@W4DNameStatus@@@Z 10034cf0 f   libvcruntimed:undname.obj
 0001:00033d30       ??HStringLiteral@@QBE?AU0@H@Z 10034d30 f i libvcruntimed:undname.obj
 0001:00033d60       ??YDName@@QAEAAV0@ABUStringLiteral@@@Z 10034d60 f   libvcruntimed:undname.obj
 0001:00033e00       ??YDName@@QAEAAV0@ABV0@@Z  10034e00 f   libvcruntimed:undname.obj
 0001:00033ea0       ??YDName@@QAEAAV0@D@Z      10034ea0 f   libvcruntimed:undname.obj
 0001:00033f20       ??YDName@@QAEAAV0@PAV0@@Z  10034f20 f   libvcruntimed:undname.obj
 0001:00033fd0       ??YDName@@QAEAAV0@W4DNameStatus@@@Z 10034fd0 f   libvcruntimed:undname.obj
 0001:00034030       ??YReplicator@@QAEAAV0@ABVDName@@@Z 10035030 f   libvcruntimed:undname.obj
 0001:000340c0       ??_5DName@@QAEAAV0@ABV0@@Z 100350c0 f   libvcruntimed:undname.obj
 0001:00034120       ??__K_l@@YA?AUStringLiteral@@PBDI@Z 10035120 f i libvcruntimed:undname.obj
 0001:00034140       ?Constructor@_HeapManager@@QAEXP6APAXI@ZP6AXPAX@Z@Z 10035140 f i libvcruntimed:undname.obj
 0001:00034180       ?Destructor@_HeapManager@@QAEXXZ 10035180 f i libvcruntimed:undname.obj
 0001:000341f0       ?UScore@UnDecorator@@SA?AUStringLiteral@@W4Tokens@@@Z 100351f0 f   libvcruntimed:undname.obj
 0001:00034240       ?composeDeclaration@UnDecorator@@CA?AVDName@@ABV2@@Z 10035240 f i libvcruntimed:undname.obj
 0001:000361b0       ?dbGetString@DName@@QBEPADXZ 100371b0 f   libvcruntimed:undname.obj
 0001:000361d0       ?doAccessSpecifiers@UnDecorator@@SAHXZ 100371d0 f i libvcruntimed:undname.obj
 0001:00036200       ?doAllocationLanguage@UnDecorator@@SAHXZ 10037200 f i libvcruntimed:undname.obj
 0001:00036230       ?doAllocationModel@UnDecorator@@SAHXZ 10037230 f i libvcruntimed:undname.obj
 0001:00036260       ?doEcsu@UnDecorator@@SAHXZ 10037260 f i libvcruntimed:undname.obj
 0001:00036290       ?doEllipsis@UnDecorator@@SAHXZ 10037290 f i libvcruntimed:undname.obj
 0001:000362c0       ?doFunctionReturns@UnDecorator@@SAHXZ 100372c0 f i libvcruntimed:undname.obj
 0001:000362f0       ?doMSKeywords@UnDecorator@@SAHXZ 100372f0 f i libvcruntimed:undname.obj
 0001:00036320       ?doMemberTypes@UnDecorator@@SAHXZ 10037320 f i libvcruntimed:undname.obj
 0001:00036350       ?doNameOnly@UnDecorator@@SAHXZ 10037350 f i libvcruntimed:undname.obj
 0001:00036360       ?doNoIdentCharCheck@UnDecorator@@SAHXZ 10037360 f i libvcruntimed:undname.obj
 0001:00036370       ?doPchar@DName@@AAEXD@Z    10037370 f   libvcruntimed:undname.obj
 0001:000363e0       ?doPtr64@UnDecorator@@SAHXZ 100373e0 f i libvcruntimed:undname.obj
 0001:00036410       ?doRestrictionSpec@UnDecorator@@SAHXZ 10037410 f i libvcruntimed:undname.obj
 0001:00036440       ?doThisTypes@UnDecorator@@SAHXZ 10037440 f i libvcruntimed:undname.obj
 0001:00036470       ?doThrowTypes@UnDecorator@@SAHXZ 10037470 f i libvcruntimed:undname.obj
 0001:000364a0       ?doTypeOnly@UnDecorator@@SAHXZ 100374a0 f i libvcruntimed:undname.obj
 0001:000364b0       ?doUnderScore@UnDecorator@@SAHXZ 100374b0 f i libvcruntimed:undname.obj
 0001:000364e0       ?getArgumentList@UnDecorator@@CA?AVDName@@XZ 100374e0 f   libvcruntimed:undname.obj
 0001:00036630       ?getArgumentTypes@UnDecorator@@CA?AVDName@@XZ 10037630 f   libvcruntimed:undname.obj
 0001:00036840       ?getArrayType@UnDecorator@@CA?AVDName@@ABV2@@Z 10037840 f i libvcruntimed:undname.obj
 0001:00036ae0       ?getBasedType@UnDecorator@@CA?AVDName@@XZ 10037ae0 f   libvcruntimed:undname.obj
 0001:00036bd0       ?getBasicDataType@UnDecorator@@CA?AVDName@@ABV2@@Z 10037bd0 f   libvcruntimed:undname.obj
 0001:000374e0       ?getCHPEName@UnDecorator@@QAEPADPADH@Z 100384e0 f i libvcruntimed:undname.obj
 0001:00037640       ?getCallIndex@UnDecorator@@CA?AVDName@@XZ 10038640 f i libvcruntimed:undname.obj
 0001:00037660       ?getCallingConvention@UnDecorator@@CA?AVDName@@XZ 10038660 f   libvcruntimed:undname.obj
 0001:000378a0       ?getDataIndirectType@UnDecorator@@CA?AVDName@@ABV2@W4IndirectionKind@@0H@Z 100388a0 f   libvcruntimed:undname.obj
 0001:000381c0       ?getDataIndirectType@UnDecorator@@CA?AVDName@@XZ 100391c0 f i libvcruntimed:undname.obj
 0001:00038200       ?getDataType@UnDecorator@@CA?AVDName@@PAV2@@Z 10039200 f   libvcruntimed:undname.obj
 0001:00038340       ?getDecoratedName@UnDecorator@@CA?AVDName@@XZ 10039340 f   libvcruntimed:undname.obj
 0001:00038780       ?getDimension@UnDecorator@@CA?AVDName@@_N@Z 10039780 f   libvcruntimed:undname.obj
 0001:00038a60       ?getDispatchTarget@UnDecorator@@CA?AVDName@@XZ 10039a60 f   libvcruntimed:undname.obj
 0001:00038b00       ?getDisplacement@UnDecorator@@CA?AVDName@@XZ 10039b00 f i libvcruntimed:undname.obj
 0001:00038b20       ?getECSUDataType@UnDecorator@@CA?AVDName@@XZ 10039b20 f   libvcruntimed:undname.obj
 0001:00038d60       ?getECSUName@UnDecorator@@CA?AVDName@@XZ 10039d60 f i libvcruntimed:undname.obj
 0001:00038d80       ?getEnumType@UnDecorator@@CA?AVDName@@XZ 10039d80 f i libvcruntimed:undname.obj
 0001:00038f30       ?getExtendedDataIndirectType@UnDecorator@@CA?AVDName@@AAW4IndirectionKind@@AA_NH@Z 10039f30 f   libvcruntimed:undname.obj
 0001:00039180       ?getExternalDataType@UnDecorator@@CA?AVDName@@ABV2@@Z 1003a180 f i libvcruntimed:undname.obj
 0001:00039220       ?getFunctionIndirectType@UnDecorator@@CA?AVDName@@ABV2@@Z 1003a220 f   libvcruntimed:undname.obj
 0001:00039700       ?getGuardNumber@UnDecorator@@CA?AVDName@@XZ 1003a700 f i libvcruntimed:undname.obj
 0001:00039720       ?getLastChar@DName@@QBEDXZ 1003a720 f i libvcruntimed:undname.obj
 0001:00039760       ?getLastChar@DNameStatusNode@@UBEDXZ 1003a760 f i libvcruntimed:undname.obj
 0001:00039790       ?getLastChar@charNode@@UBEDXZ 1003a790 f i libvcruntimed:undname.obj
 0001:000397b0       ?getLastChar@pDNameNode@@UBEDXZ 1003a7b0 f i libvcruntimed:undname.obj
 0001:000397e0       ?getLastChar@pairNode@@UBEDXZ 1003a7e0 f i libvcruntimed:undname.obj
 0001:00039850       ?getLastChar@pcharNode@@UBEDXZ 1003a850 f i libvcruntimed:undname.obj
 0001:00039890       ?getLexicalFrame@UnDecorator@@CA?AVDName@@XZ 1003a890 f i libvcruntimed:undname.obj
 0001:000398d0       ?getMemoryWithBuffer@_HeapManager@@QAEPAXI@Z 1003a8d0 f   libvcruntimed:undname.obj
 0001:000399c0       ?getMemoryWithoutBuffer@_HeapManager@@QAEPAXI@Z 1003a9c0 f   libvcruntimed:undname.obj
 0001:00039a00       ?getNoexcept@UnDecorator@@CA?AVDName@@XZ 1003aa00 f   libvcruntimed:undname.obj
 0001:00039a80       ?getNumberOfDimensions@UnDecorator@@CAHXZ 1003aa80 f   libvcruntimed:undname.obj
 0001:00039b80       ?getOperatorName@UnDecorator@@CA?AVDName@@_NPA_N@Z 1003ab80 f i libvcruntimed:undname.obj
 0001:0003a620       ?getPointerType@UnDecorator@@CA?AVDName@@ABV2@0@Z 1003b620 f i libvcruntimed:undname.obj
 0001:0003a640       ?getPointerTypeArray@UnDecorator@@CA?AVDName@@ABV2@0@Z 1003b640 f i libvcruntimed:undname.obj
 0001:0003a660       ?getPrimaryDataType@UnDecorator@@CA?AVDName@@ABV2@@Z 1003b660 f   libvcruntimed:undname.obj
 0001:0003aad0       ?getPtrRefDataType@UnDecorator@@CA?AVDName@@ABV2@H@Z 1003bad0 f   libvcruntimed:undname.obj
 0001:0003ad80       ?getPtrRefType@UnDecorator@@CA?AVDName@@ABV2@0W4IndirectionKind@@@Z 1003bd80 f   libvcruntimed:undname.obj
 0001:0003af00       ?getReferenceType@UnDecorator@@CA?AVDName@@ABV2@0W4IndirectionKind@@@Z 1003bf00 f i libvcruntimed:undname.obj
 0001:0003af20       ?getRestrictionSpec@UnDecorator@@CA?AVDName@@XZ 1003bf20 f   libvcruntimed:undname.obj
 0001:0003b0e0       ?getReturnType@UnDecorator@@CA?AVDName@@PAV2@@Z 1003c0e0 f   libvcruntimed:undname.obj
 0001:0003b130       ?getScope@UnDecorator@@CA?AVDName@@XZ 1003c130 f   libvcruntimed:undname.obj
 0001:0003b6c0       ?getScopedName@UnDecorator@@CA?AVDName@@XZ 1003c6c0 f   libvcruntimed:undname.obj
 0001:0003b810       ?getSignedDimension@UnDecorator@@CA?AVDName@@XZ 1003c810 f   libvcruntimed:undname.obj
 0001:0003b890       ?getStorageConvention@UnDecorator@@CA?AVDName@@XZ 1003c890 f i libvcruntimed:undname.obj
 0001:0003b8b0       ?getString@DName@@QBEPADPAD0@Z 1003c8b0 f i libvcruntimed:undname.obj
 0001:0003b910       ?getString@DName@@QBEPADPADH@Z 1003c910 f i libvcruntimed:undname.obj
 0001:0003b9a0       ?getString@DNameStatusNode@@UBEPADPAD0@Z 1003c9a0 f i libvcruntimed:undname.obj
 0001:0003b9e0       ?getString@charNode@@UBEPADPAD0@Z 1003c9e0 f i libvcruntimed:undname.obj
 0001:0003ba10       ?getString@pDNameNode@@UBEPADPAD0@Z 1003ca10 f i libvcruntimed:undname.obj
 0001:0003ba50       ?getString@pairNode@@UBEPADPAD0@Z 1003ca50 f i libvcruntimed:undname.obj
 0001:0003bae0       ?getString@pcharNode@@UBEPADPAD0@Z 1003cae0 f i libvcruntimed:undname.obj
 0001:0003bb10       ?getStringEncoding@UnDecorator@@CA?AVDName@@W4PrefixKind@@H@Z 1003cb10 f   libvcruntimed:undname.obj
 0001:0003bc20       ?getStringHelper@@YAPADPADPBD1H@Z 1003cc20 f i libvcruntimed:undname.obj
 0001:0003bc60       ?getSymbolName@UnDecorator@@CA?AVDName@@XZ 1003cc60 f i libvcruntimed:undname.obj
 0001:0003bcf0       ?getTemplateArgumentList@UnDecorator@@CA?AVDName@@XZ 1003ccf0 f   libvcruntimed:undname.obj
 0001:0003bfc0       ?getTemplateName@UnDecorator@@CA?AVDName@@_N@Z 1003cfc0 f   libvcruntimed:undname.obj
 0001:0003c180       ?getTemplateNonTypeArgument@UnDecorator@@CA?AVDName@@XZ 1003d180 f   libvcruntimed:undname.obj
 0001:0003c840       ?getTemplateTypeArgument@UnDecorator@@CA?AVDName@@XZ 1003d840 f   libvcruntimed:undname.obj
 0001:0003c9e0       ?getThisType@UnDecorator@@CA?AVDName@@XZ 1003d9e0 f i libvcruntimed:undname.obj
 0001:0003ca20       ?getThrowTypes@UnDecorator@@CA?AVDName@@XZ 1003da20 f   libvcruntimed:undname.obj
 0001:0003ca60       ?getTypeEncoding@UnDecorator@@CAHXZ 1003da60 f i libvcruntimed:undname.obj
 0001:0003d520       ?getUndecoratedName@UnDecorator@@QAEPADPADH@Z 1003e520 f i libvcruntimed:undname.obj
 0001:0003d680       ?getVCallThunkType@UnDecorator@@CA?AVDName@@XZ 1003e680 f i libvcruntimed:undname.obj
 0001:0003d700       ?getVbTableType@UnDecorator@@CA?AVDName@@ABV2@@Z 1003e700 f i libvcruntimed:undname.obj
 0001:0003d720       ?getVdispMapType@UnDecorator@@CA?AVDName@@ABV2@@Z 1003e720 f i libvcruntimed:undname.obj
 0001:0003d7b0       ?getVfTableType@UnDecorator@@CA?AVDName@@ABV2@@Z 1003e7b0 f i libvcruntimed:undname.obj
 0001:0003d9b0       ?getZName@UnDecorator@@CA?AVDName@@_N0@Z 1003e9b0 f   libvcruntimed:undname.obj
 0001:0003dcf0       ?haveTemplateParameters@UnDecorator@@SAHXZ 1003ecf0 f i libvcruntimed:undname.obj
 0001:0003dd00       ?isArray@DName@@QBEHXZ     1003ed00 f i libvcruntimed:undname.obj
 0001:0003dd20       ?isComArray@DName@@QBEHXZ  1003ed20 f i libvcruntimed:undname.obj
 0001:0003dd40       ?isEmpty@DName@@QBEHXZ     1003ed40 f i libvcruntimed:undname.obj
 0001:0003dd70       ?isFull@Replicator@@QBEHXZ 1003ed70 f i libvcruntimed:undname.obj
 0001:0003dda0       ?isNoTE@DName@@QBEHXZ      1003eda0 f i libvcruntimed:undname.obj
 0001:0003ddc0       ?isPinPtr@DName@@QBEHXZ    1003edc0 f i libvcruntimed:undname.obj
 0001:0003dde0       ?isPtrRef@DName@@QBEHXZ    1003ede0 f i libvcruntimed:undname.obj
 0001:0003de00       ?isUDC@DName@@QBEHXZ       1003ee00 f i libvcruntimed:undname.obj
 0001:0003de40       ?isUDTThunk@DName@@QBEHXZ  1003ee40 f i libvcruntimed:undname.obj
 0001:0003de80       ?isVCallThunk@DName@@QBEHXZ 1003ee80 f i libvcruntimed:undname.obj
 0001:0003dea0       ?isValid@DName@@QBEHXZ     1003eea0 f i libvcruntimed:undname.obj
 0001:0003dee0       ?length@DName@@QBEHXZ      1003eee0 f i libvcruntimed:undname.obj
 0001:0003df20       ?length@DNameStatusNode@@UBEHXZ 1003ef20 f i libvcruntimed:undname.obj
 0001:0003df40       ?length@charNode@@UBEHXZ   1003ef40 f i libvcruntimed:undname.obj
 0001:0003df50       ?length@pDNameNode@@UBEHXZ 1003ef50 f i libvcruntimed:undname.obj
 0001:0003df80       ?length@pairNode@@UBEHXZ   1003ef80 f i libvcruntimed:undname.obj
 0001:0003dff0       ?length@pcharNode@@UBEHXZ  1003eff0 f i libvcruntimed:undname.obj
 0001:0003e010       ?make@DNameStatusNode@@SAPBV1@W4DNameStatus@@@Z 1003f010 f i libvcruntimed:undname.obj
 0001:0003e040       ?parseDecoratedName@UnDecorator@@CA?AVDName@@XZ 1003f040 f   libvcruntimed:undname.obj
 0001:0003e1d0       ?raw_length@DNameStatusNode@@UBEHXZ 1003f1d0 f i libvcruntimed:undname.obj
 0001:0003e1f0       ?raw_length@charNode@@UBEHXZ 1003f1f0 f i libvcruntimed:undname.obj
 0001:0003e210       ?raw_length@pDNameNode@@UBEHXZ 1003f210 f i libvcruntimed:undname.obj
 0001:0003e220       ?raw_length@pairNode@@UBEHXZ 1003f220 f i libvcruntimed:undname.obj
 0001:0003e240       ?raw_length@pcharNode@@UBEHXZ 1003f240 f i libvcruntimed:undname.obj
 0001:0003e260       ?setIsArray@DName@@QAEXXZ  1003f260 f i libvcruntimed:undname.obj
 0001:0003e280       ?setIsComArray@DName@@QAEXXZ 1003f280 f i libvcruntimed:undname.obj
 0001:0003e2a0       ?setIsNoTE@DName@@QAEXXZ   1003f2a0 f i libvcruntimed:undname.obj
 0001:0003e2c0       ?setIsPinPtr@DName@@QAEXXZ 1003f2c0 f i libvcruntimed:undname.obj
 0001:0003e2e0       ?setIsUDC@DName@@QAEXXZ    1003f2e0 f i libvcruntimed:undname.obj
 0001:0003e310       ?setIsVCallThunk@DName@@QAEXXZ 1003f310 f i libvcruntimed:undname.obj
 0001:0003e330       ?setPtrRef@DName@@QAEAAV1@XZ 1003f330 f i libvcruntimed:undname.obj
 0001:0003e350       ?status@DName@@QBE?AW4DNameStatus@@XZ 1003f350 f i libvcruntimed:undname.obj
 0001:0003e450       ___unDName                 1003f450 f   libvcruntimed:undname.obj
 0001:0003e480       ___unDNameEx               1003f480 f   libvcruntimed:undname.obj
 0001:0003e550       _unDNameGenerateCHPE       1003f550 f   libvcruntimed:undname.obj
 0001:0003e5b0       __global_unwind2           1003f5b0 f   libvcruntimed:exsup.obj
 0001:0003e616       __local_unwind2            1003f616 f   libvcruntimed:exsup.obj
 0001:0003e69a       __abnormal_termination     1003f69a f   libvcruntimed:exsup.obj
 0001:0003e6c0       __NLG_Notify1              1003f6c0 f   libvcruntimed:exsup.obj
 0001:0003e6cc       __NLG_Notify               1003f6cc f   libvcruntimed:exsup.obj
 0001:0003e6e3       __NLG_Dispatch2            1003f6e3     libvcruntimed:exsup.obj
 0001:0003e6e3       __NLG_Dispatch             1003f6e3     libvcruntimed:exsup.obj
 0001:0003e6eb       __NLG_Call                 1003f6eb f   libvcruntimed:exsup.obj
 0001:0003e6ed       __NLG_Return2              1003f6ed     libvcruntimed:exsup.obj
 0001:0003e6f0       ??$__crt_interlocked_exchange_pointer@UHINSTANCE__@@PAU1@@@YAPAUHINSTANCE__@@PDSAU0@QAU0@@Z 1003f6f0 f i libvcruntimed:winapi_downlevel.obj
 0001:0003e700       ??$__crt_interlocked_exchange_pointer@UHINSTANCE__@@PAX@@YAPAUHINSTANCE__@@PDSAU0@QAX@Z 1003f700 f i libvcruntimed:winapi_downlevel.obj
 0001:0003e710       ??$__crt_interlocked_exchange_pointer@XPAX@@YAPAXPDSAXQAX@Z 1003f710 f i libvcruntimed:winapi_downlevel.obj
 0001:0003e720       ??$__crt_interlocked_read_pointer@UHINSTANCE__@@@@YAPAUHINSTANCE__@@PDSAU0@@Z 1003f720 f i libvcruntimed:winapi_downlevel.obj
 0001:0003e740       ??$__crt_interlocked_read_pointer@X@@YAPAXPDSAX@Z 1003f740 f i libvcruntimed:winapi_downlevel.obj
 0001:0003eb10       ___vcrt_FlsAlloc           1003fb10 f   libvcruntimed:winapi_downlevel.obj
 0001:0003eb50       ___vcrt_FlsFree            1003fb50 f   libvcruntimed:winapi_downlevel.obj
 0001:0003eb90       ___vcrt_FlsGetValue        1003fb90 f   libvcruntimed:winapi_downlevel.obj
 0001:0003ebd0       ___vcrt_FlsSetValue        1003fbd0 f   libvcruntimed:winapi_downlevel.obj
 0001:0003ec20       ___vcrt_InitializeCriticalSectionEx 1003fc20 f   libvcruntimed:winapi_downlevel.obj
 0001:0003eca0       __get_unexpected           1003fca0 f   libvcruntimed:unexpected.obj
 0001:0003ecc0       _set_unexpected            1003fcc0 f   libvcruntimed:unexpected.obj
 0001:0003ecf0       _unexpected                1003fcf0 f   libvcruntimed:unexpected.obj
 0001:0003ed30       ?GetCurrentState@__FrameHandler3@@SAHPAUEHRegistrationNode@@PAXPBU_s_FuncInfo@@@Z 1003fd30 f   libvcruntimed:ehstate.obj
 0001:0003ed60       ?SetState@__FrameHandler3@@SAXPAUEHRegistrationNode@@PBU_s_FuncInfo@@H@Z 1003fd60 f   libvcruntimed:ehstate.obj
 0001:0003ed70       ??$?0ABV?$stream_output_adapter@D@__crt_stdio_output@@AB_KABQBDABQAU__crt_locale_pointers@@ABQAD@?$format_validation_base@DV?$stream_output_adapter@D@__crt_stdio_output@@@__crt_stdio_output@@IAE@ABV?$stream_output_adapter@D@1@AB_KABQBDABQAU__crt_locale_pointers@@ABQAD@Z 1003fd70 f i libucrtd:output.obj
 0001:0003eda0       ??$?0ABV?$stream_output_adapter@D@__crt_stdio_output@@AB_KABQBDABQAU__crt_locale_pointers@@ABQAD@?$positional_parameter_base@DV?$stream_output_adapter@D@__crt_stdio_output@@@__crt_stdio_output@@IAE@ABV?$stream_output_adapter@D@1@AB_KABQBDABQAU__crt_locale_pointers@@ABQAD@Z 1003fda0 f i libucrtd:output.obj
 0001:0003ee20       ??$?0ABV?$stream_output_adapter@D@__crt_stdio_output@@AB_KABQBDABQAU__crt_locale_pointers@@ABQAD@?$standard_base@DV?$stream_output_adapter@D@__crt_stdio_output@@@__crt_stdio_output@@IAE@ABV?$stream_output_adapter@D@1@AB_KABQBDABQAU__crt_locale_pointers@@ABQAD@Z 1003fe20 f i libucrtd:output.obj
 0001:0003ee70       ??$?0ABV?$stream_output_adapter@_W@__crt_stdio_output@@AB_KABQB_WABQAU__crt_locale_pointers@@ABQAD@?$format_validation_base@_WV?$stream_output_adapter@_W@__crt_stdio_output@@@__crt_stdio_output@@IAE@ABV?$stream_output_adapter@_W@1@AB_KABQB_WABQAU__crt_locale_pointers@@ABQAD@Z 1003fe70 f i libucrtd:output.obj
 0001:0003eea0       ??$?0ABV?$stream_output_adapter@_W@__crt_stdio_output@@AB_KABQB_WABQAU__crt_locale_pointers@@ABQAD@?$positional_parameter_base@_WV?$stream_output_adapter@_W@__crt_stdio_output@@@__crt_stdio_output@@IAE@ABV?$stream_output_adapter@_W@1@AB_KABQB_WABQAU__crt_locale_pointers@@ABQAD@Z 1003fea0 f i libucrtd:output.obj
 0001:0003ef20       ??$?0ABV?$stream_output_adapter@_W@__crt_stdio_output@@AB_KABQB_WABQAU__crt_locale_pointers@@ABQAD@?$standard_base@_WV?$stream_output_adapter@_W@__crt_stdio_output@@@__crt_stdio_output@@IAE@ABV?$stream_output_adapter@_W@1@AB_KABQB_WABQAU__crt_locale_pointers@@ABQAD@Z 1003ff20 f i libucrtd:output.obj
 0001:0003ef70       ??$?0ABV?$string_output_adapter@D@__crt_stdio_output@@AB_KABQBDABQAU__crt_locale_pointers@@ABQAD@?$format_validation_base@DV?$string_output_adapter@D@__crt_stdio_output@@@__crt_stdio_output@@IAE@ABV?$string_output_adapter@D@1@AB_KABQBDABQAU__crt_locale_pointers@@ABQAD@Z 1003ff70 f i libucrtd:output.obj
 0001:0003efa0       ??$?0ABV?$string_output_adapter@D@__crt_stdio_output@@AB_KABQBDABQAU__crt_locale_pointers@@ABQAD@?$positional_parameter_base@DV?$string_output_adapter@D@__crt_stdio_output@@@__crt_stdio_output@@IAE@ABV?$string_output_adapter@D@1@AB_KABQBDABQAU__crt_locale_pointers@@ABQAD@Z 1003ffa0 f i libucrtd:output.obj
 0001:0003f020       ??$?0ABV?$string_output_adapter@D@__crt_stdio_output@@AB_KABQBDABQAU__crt_locale_pointers@@ABQAD@?$standard_base@DV?$string_output_adapter@D@__crt_stdio_output@@@__crt_stdio_output@@IAE@ABV?$string_output_adapter@D@1@AB_KABQBDABQAU__crt_locale_pointers@@ABQAD@Z 10040020 f i libucrtd:output.obj
 0001:0003f070       ??$?0ABV?$string_output_adapter@_W@__crt_stdio_output@@AB_KABQB_WABQAU__crt_locale_pointers@@ABQAD@?$format_validation_base@_WV?$string_output_adapter@_W@__crt_stdio_output@@@__crt_stdio_output@@IAE@ABV?$string_output_adapter@_W@1@AB_KABQB_WABQAU__crt_locale_pointers@@ABQAD@Z 10040070 f i libucrtd:output.obj
 0001:0003f0a0       ??$?0ABV?$string_output_adapter@_W@__crt_stdio_output@@AB_KABQB_WABQAU__crt_locale_pointers@@ABQAD@?$positional_parameter_base@_WV?$string_output_adapter@_W@__crt_stdio_output@@@__crt_stdio_output@@IAE@ABV?$string_output_adapter@_W@1@AB_KABQB_WABQAU__crt_locale_pointers@@ABQAD@Z 100400a0 f i libucrtd:output.obj
 0001:0003f120       ??$?0ABV?$string_output_adapter@_W@__crt_stdio_output@@AB_KABQB_WABQAU__crt_locale_pointers@@ABQAD@?$standard_base@_WV?$string_output_adapter@_W@__crt_stdio_output@@@__crt_stdio_output@@IAE@ABV?$string_output_adapter@_W@1@AB_KABQB_WABQAU__crt_locale_pointers@@ABQAD@Z 10040120 f i libucrtd:output.obj
 0001:0003f650       ??$__crt_interlocked_read@J@@YAJPDJ@Z 10040650 f i libucrtd:output.obj
 0001:000423f0       ??$count@D@formatting_buffer@__crt_stdio_output@@QBEIXZ 100433f0 f i libucrtd:output.obj
 0001:00042430       ??$count@_W@formatting_buffer@__crt_stdio_output@@QBEIXZ 10043430 f i libucrtd:output.obj
 0001:00042470       ??$data@D@formatting_buffer@__crt_stdio_output@@QAEPADXZ 10043470 f i libucrtd:output.obj
 0001:000424b0       ??$data@_W@formatting_buffer@__crt_stdio_output@@QAEPA_WXZ 100434b0 f i libucrtd:output.obj
 0001:000424f0       ??$ensure_buffer_is_big_enough@D@formatting_buffer@__crt_stdio_output@@QAE_NI@Z 100434f0 f i libucrtd:output.obj
 0001:000425d0       ??$ensure_buffer_is_big_enough@_W@formatting_buffer@__crt_stdio_output@@QAE_NI@Z 100435d0 f i libucrtd:output.obj
 0001:000426c0       ??$extract_argument_from_va_list@C_J@?$positional_parameter_base@DV?$stream_output_adapter@D@__crt_stdio_output@@@__crt_stdio_output@@IAE_NAA_J@Z 100436c0 f i libucrtd:output.obj
 0001:00042800       ??$extract_argument_from_va_list@C_J@?$positional_parameter_base@DV?$string_output_adapter@D@__crt_stdio_output@@@__crt_stdio_output@@IAE_NAA_J@Z 10043800 f i libucrtd:output.obj
 0001:00042940       ??$extract_argument_from_va_list@C_J@?$positional_parameter_base@_WV?$stream_output_adapter@_W@__crt_stdio_output@@@__crt_stdio_output@@IAE_NAA_J@Z 10043940 f i libucrtd:output.obj
 0001:00042a80       ??$extract_argument_from_va_list@C_J@?$positional_parameter_base@_WV?$string_output_adapter@_W@__crt_stdio_output@@@__crt_stdio_output@@IAE_NAA_J@Z 10043a80 f i libucrtd:output.obj
 0001:00042bc0       ??$extract_argument_from_va_list@C_J@?$standard_base@DV?$stream_output_adapter@D@__crt_stdio_output@@@__crt_stdio_output@@IAE_NAA_J@Z 10043bc0 f i libucrtd:output.obj
 0001:00042bf0       ??$extract_argument_from_va_list@C_J@?$standard_base@DV?$string_output_adapter@D@__crt_stdio_output@@@__crt_stdio_output@@IAE_NAA_J@Z 10043bf0 f i libucrtd:output.obj
 0001:00042c20       ??$extract_argument_from_va_list@C_J@?$standard_base@_WV?$stream_output_adapter@_W@__crt_stdio_output@@@__crt_stdio_output@@IAE_NAA_J@Z 10043c20 f i libucrtd:output.obj
 0001:00042c50       ??$extract_argument_from_va_list@C_J@?$standard_base@_WV?$string_output_adapter@_W@__crt_stdio_output@@@__crt_stdio_output@@IAE_NAA_J@Z 10043c50 f i libucrtd:output.obj
 0001:00042c80       ??$extract_argument_from_va_list@E_J@?$positional_parameter_base@DV?$stream_output_adapter@D@__crt_stdio_output@@@__crt_stdio_output@@IAE_NAA_J@Z 10043c80 f i libucrtd:output.obj
 0001:00042dc0       ??$extract_argument_from_va_list@E_J@?$positional_parameter_base@DV?$string_output_adapter@D@__crt_stdio_output@@@__crt_stdio_output@@IAE_NAA_J@Z 10043dc0 f i libucrtd:output.obj
 0001:00042f00       ??$extract_argument_from_va_list@E_J@?$positional_parameter_base@_WV?$stream_output_adapter@_W@__crt_stdio_output@@@__crt_stdio_output@@IAE_NAA_J@Z 10043f00 f i libucrtd:output.obj
 0001:00043040       ??$extract_argument_from_va_list@E_J@?$positional_parameter_base@_WV?$string_output_adapter@_W@__crt_stdio_output@@@__crt_stdio_output@@IAE_NAA_J@Z 10044040 f i libucrtd:output.obj
 0001:00043180       ??$extract_argument_from_va_list@E_J@?$standard_base@DV?$stream_output_adapter@D@__crt_stdio_output@@@__crt_stdio_output@@IAE_NAA_J@Z 10044180 f i libucrtd:output.obj
 0001:000431b0       ??$extract_argument_from_va_list@E_J@?$standard_base@DV?$string_output_adapter@D@__crt_stdio_output@@@__crt_stdio_output@@IAE_NAA_J@Z 100441b0 f i libucrtd:output.obj
 0001:000431e0       ??$extract_argument_from_va_list@E_J@?$standard_base@_WV?$stream_output_adapter@_W@__crt_stdio_output@@@__crt_stdio_output@@IAE_NAA_J@Z 100441e0 f i libucrtd:output.obj
 0001:00043210       ??$extract_argument_from_va_list@E_J@?$standard_base@_WV?$string_output_adapter@_W@__crt_stdio_output@@@__crt_stdio_output@@IAE_NAA_J@Z 10044210 f i libucrtd:output.obj
 0001:00043240       ??$extract_argument_from_va_list@F_J@?$positional_parameter_base@DV?$stream_output_adapter@D@__crt_stdio_output@@@__crt_stdio_output@@IAE_NAA_J@Z 10044240 f i libucrtd:output.obj
 0001:00043370       ??$extract_argument_from_va_list@F_J@?$positional_parameter_base@DV?$string_output_adapter@D@__crt_stdio_output@@@__crt_stdio_output@@IAE_NAA_J@Z 10044370 f i libucrtd:output.obj
 0001:000434a0       ??$extract_argument_from_va_list@F_J@?$positional_parameter_base@_WV?$stream_output_adapter@_W@__crt_stdio_output@@@__crt_stdio_output@@IAE_NAA_J@Z 100444a0 f i libucrtd:output.obj
 0001:000435d0       ??$extract_argument_from_va_list@F_J@?$positional_parameter_base@_WV?$string_output_adapter@_W@__crt_stdio_output@@@__crt_stdio_output@@IAE_NAA_J@Z 100445d0 f i libucrtd:output.obj
 0001:00043700       ??$extract_argument_from_va_list@F_J@?$standard_base@DV?$stream_output_adapter@D@__crt_stdio_output@@@__crt_stdio_output@@IAE_NAA_J@Z 10044700 f i libucrtd:output.obj
 0001:00043730       ??$extract_argument_from_va_list@F_J@?$standard_base@DV?$string_output_adapter@D@__crt_stdio_output@@@__crt_stdio_output@@IAE_NAA_J@Z 10044730 f i libucrtd:output.obj
 0001:00043760       ??$extract_argument_from_va_list@F_J@?$standard_base@_WV?$stream_output_adapter@_W@__crt_stdio_output@@@__crt_stdio_output@@IAE_NAA_J@Z 10044760 f i libucrtd:output.obj
 0001:00043790       ??$extract_argument_from_va_list@F_J@?$standard_base@_WV?$string_output_adapter@_W@__crt_stdio_output@@@__crt_stdio_output@@IAE_NAA_J@Z 10044790 f i libucrtd:output.obj
 0001:000437c0       ??$extract_argument_from_va_list@GD@?$positional_parameter_base@DV?$stream_output_adapter@D@__crt_stdio_output@@@__crt_stdio_output@@IAE_NAAD@Z 100447c0 f i libucrtd:output.obj
 0001:000438f0       ??$extract_argument_from_va_list@GD@?$positional_parameter_base@DV?$string_output_adapter@D@__crt_stdio_output@@@__crt_stdio_output@@IAE_NAAD@Z 100448f0 f i libucrtd:output.obj
 0001:00043a20       ??$extract_argument_from_va_list@GD@?$standard_base@DV?$stream_output_adapter@D@__crt_stdio_output@@@__crt_stdio_output@@IAE_NAAD@Z 10044a20 f i libucrtd:output.obj
 0001:00043a50       ??$extract_argument_from_va_list@GD@?$standard_base@DV?$string_output_adapter@D@__crt_stdio_output@@@__crt_stdio_output@@IAE_NAAD@Z 10044a50 f i libucrtd:output.obj
 0001:00043a80       ??$extract_argument_from_va_list@G_J@?$positional_parameter_base@DV?$stream_output_adapter@D@__crt_stdio_output@@@__crt_stdio_output@@IAE_NAA_J@Z 10044a80 f i libucrtd:output.obj
 0001:00043bc0       ??$extract_argument_from_va_list@G_J@?$positional_parameter_base@DV?$string_output_adapter@D@__crt_stdio_output@@@__crt_stdio_output@@IAE_NAA_J@Z 10044bc0 f i libucrtd:output.obj
 0001:00043d00       ??$extract_argument_from_va_list@G_J@?$positional_parameter_base@_WV?$stream_output_adapter@_W@__crt_stdio_output@@@__crt_stdio_output@@IAE_NAA_J@Z 10044d00 f i libucrtd:output.obj
 0001:00043e40       ??$extract_argument_from_va_list@G_J@?$positional_parameter_base@_WV?$string_output_adapter@_W@__crt_stdio_output@@@__crt_stdio_output@@IAE_NAA_J@Z 10044e40 f i libucrtd:output.obj
 0001:00043f80       ??$extract_argument_from_va_list@G_J@?$standard_base@DV?$stream_output_adapter@D@__crt_stdio_output@@@__crt_stdio_output@@IAE_NAA_J@Z 10044f80 f i libucrtd:output.obj
 0001:00043fb0       ??$extract_argument_from_va_list@G_J@?$standard_base@DV?$string_output_adapter@D@__crt_stdio_output@@@__crt_stdio_output@@IAE_NAA_J@Z 10044fb0 f i libucrtd:output.obj
 0001:00043fe0       ??$extract_argument_from_va_list@G_J@?$standard_base@_WV?$stream_output_adapter@_W@__crt_stdio_output@@@__crt_stdio_output@@IAE_NAA_J@Z 10044fe0 f i libucrtd:output.obj
 0001:00044010       ??$extract_argument_from_va_list@G_J@?$standard_base@_WV?$string_output_adapter@_W@__crt_stdio_output@@@__crt_stdio_output@@IAE_NAA_J@Z 10045010 f i libucrtd:output.obj
 0001:00044040       ??$extract_argument_from_va_list@H_J@?$positional_parameter_base@DV?$stream_output_adapter@D@__crt_stdio_output@@@__crt_stdio_output@@IAE_NAA_J@Z 10045040 f i libucrtd:output.obj
 0001:00044170       ??$extract_argument_from_va_list@H_J@?$positional_parameter_base@DV?$string_output_adapter@D@__crt_stdio_output@@@__crt_stdio_output@@IAE_NAA_J@Z 10045170 f i libucrtd:output.obj
 0001:000442a0       ??$extract_argument_from_va_list@H_J@?$positional_parameter_base@_WV?$stream_output_adapter@_W@__crt_stdio_output@@@__crt_stdio_output@@IAE_NAA_J@Z 100452a0 f i libucrtd:output.obj
 0001:000443d0       ??$extract_argument_from_va_list@H_J@?$positional_parameter_base@_WV?$string_output_adapter@_W@__crt_stdio_output@@@__crt_stdio_output@@IAE_NAA_J@Z 100453d0 f i libucrtd:output.obj
 0001:00044500       ??$extract_argument_from_va_list@H_J@?$standard_base@DV?$stream_output_adapter@D@__crt_stdio_output@@@__crt_stdio_output@@IAE_NAA_J@Z 10045500 f i libucrtd:output.obj
 0001:00044530       ??$extract_argument_from_va_list@H_J@?$standard_base@DV?$string_output_adapter@D@__crt_stdio_output@@@__crt_stdio_output@@IAE_NAA_J@Z 10045530 f i libucrtd:output.obj
 0001:00044560       ??$extract_argument_from_va_list@H_J@?$standard_base@_WV?$stream_output_adapter@_W@__crt_stdio_output@@@__crt_stdio_output@@IAE_NAA_J@Z 10045560 f i libucrtd:output.obj
 0001:00044590       ??$extract_argument_from_va_list@H_J@?$standard_base@_WV?$string_output_adapter@_W@__crt_stdio_output@@@__crt_stdio_output@@IAE_NAA_J@Z 10045590 f i libucrtd:output.obj
 0001:000445c0       ??$extract_argument_from_va_list@I_J@?$positional_parameter_base@DV?$stream_output_adapter@D@__crt_stdio_output@@@__crt_stdio_output@@IAE_NAA_J@Z 100455c0 f i libucrtd:output.obj
 0001:000446f0       ??$extract_argument_from_va_list@I_J@?$positional_parameter_base@DV?$string_output_adapter@D@__crt_stdio_output@@@__crt_stdio_output@@IAE_NAA_J@Z 100456f0 f i libucrtd:output.obj
 0001:00044820       ??$extract_argument_from_va_list@I_J@?$positional_parameter_base@_WV?$stream_output_adapter@_W@__crt_stdio_output@@@__crt_stdio_output@@IAE_NAA_J@Z 10045820 f i libucrtd:output.obj
 0001:00044950       ??$extract_argument_from_va_list@I_J@?$positional_parameter_base@_WV?$string_output_adapter@_W@__crt_stdio_output@@@__crt_stdio_output@@IAE_NAA_J@Z 10045950 f i libucrtd:output.obj
 0001:00044a80       ??$extract_argument_from_va_list@I_J@?$standard_base@DV?$stream_output_adapter@D@__crt_stdio_output@@@__crt_stdio_output@@IAE_NAA_J@Z 10045a80 f i libucrtd:output.obj
 0001:00044ab0       ??$extract_argument_from_va_list@I_J@?$standard_base@DV?$string_output_adapter@D@__crt_stdio_output@@@__crt_stdio_output@@IAE_NAA_J@Z 10045ab0 f i libucrtd:output.obj
 0001:00044ae0       ??$extract_argument_from_va_list@I_J@?$standard_base@_WV?$stream_output_adapter@_W@__crt_stdio_output@@@__crt_stdio_output@@IAE_NAA_J@Z 10045ae0 f i libucrtd:output.obj
 0001:00044b10       ??$extract_argument_from_va_list@I_J@?$standard_base@_WV?$string_output_adapter@_W@__crt_stdio_output@@@__crt_stdio_output@@IAE_NAA_J@Z 10045b10 f i libucrtd:output.obj
 0001:00044b40       ??$extract_argument_from_va_list@PADPAD@?$positional_parameter_base@DV?$stream_output_adapter@D@__crt_stdio_output@@@__crt_stdio_output@@IAE_NAAPAD@Z 10045b40 f i libucrtd:output.obj
 0001:00044c70       ??$extract_argument_from_va_list@PADPAD@?$positional_parameter_base@DV?$string_output_adapter@D@__crt_stdio_output@@@__crt_stdio_output@@IAE_NAAPAD@Z 10045c70 f i libucrtd:output.obj
 0001:00044da0       ??$extract_argument_from_va_list@PADPAD@?$positional_parameter_base@_WV?$stream_output_adapter@_W@__crt_stdio_output@@@__crt_stdio_output@@IAE_NAAPAD@Z 10045da0 f i libucrtd:output.obj
 0001:00044ed0       ??$extract_argument_from_va_list@PADPAD@?$positional_parameter_base@_WV?$string_output_adapter@_W@__crt_stdio_output@@@__crt_stdio_output@@IAE_NAAPAD@Z 10045ed0 f i libucrtd:output.obj
 0001:00045000       ??$extract_argument_from_va_list@PADPAD@?$standard_base@DV?$stream_output_adapter@D@__crt_stdio_output@@@__crt_stdio_output@@IAE_NAAPAD@Z 10046000 f i libucrtd:output.obj
 0001:00045030       ??$extract_argument_from_va_list@PADPAD@?$standard_base@DV?$string_output_adapter@D@__crt_stdio_output@@@__crt_stdio_output@@IAE_NAAPAD@Z 10046030 f i libucrtd:output.obj
 0001:00045060       ??$extract_argument_from_va_list@PADPAD@?$standard_base@_WV?$stream_output_adapter@_W@__crt_stdio_output@@@__crt_stdio_output@@IAE_NAAPAD@Z 10046060 f i libucrtd:output.obj
 0001:00045090       ??$extract_argument_from_va_list@PADPAD@?$standard_base@_WV?$string_output_adapter@_W@__crt_stdio_output@@@__crt_stdio_output@@IAE_NAAPAD@Z 10046090 f i libucrtd:output.obj
 0001:000457c0       ??$extract_argument_from_va_list@PAXPAX@?$positional_parameter_base@DV?$stream_output_adapter@D@__crt_stdio_output@@@__crt_stdio_output@@IAE_NAAPAX@Z 100467c0 f i libucrtd:output.obj
 0001:000458f0       ??$extract_argument_from_va_list@PAXPAX@?$positional_parameter_base@DV?$string_output_adapter@D@__crt_stdio_output@@@__crt_stdio_output@@IAE_NAAPAX@Z 100468f0 f i libucrtd:output.obj
 0001:00045a20       ??$extract_argument_from_va_list@PAXPAX@?$positional_parameter_base@_WV?$stream_output_adapter@_W@__crt_stdio_output@@@__crt_stdio_output@@IAE_NAAPAX@Z 10046a20 f i libucrtd:output.obj
 0001:00045b50       ??$extract_argument_from_va_list@PAXPAX@?$positional_parameter_base@_WV?$string_output_adapter@_W@__crt_stdio_output@@@__crt_stdio_output@@IAE_NAAPAX@Z 10046b50 f i libucrtd:output.obj
 0001:00045c80       ??$extract_argument_from_va_list@PAXPAX@?$standard_base@DV?$stream_output_adapter@D@__crt_stdio_output@@@__crt_stdio_output@@IAE_NAAPAX@Z 10046c80 f i libucrtd:output.obj
 0001:00045cb0       ??$extract_argument_from_va_list@PAXPAX@?$standard_base@DV?$string_output_adapter@D@__crt_stdio_output@@@__crt_stdio_output@@IAE_NAAPAX@Z 10046cb0 f i libucrtd:output.obj
 0001:00045ce0       ??$extract_argument_from_va_list@PAXPAX@?$standard_base@_WV?$stream_output_adapter@_W@__crt_stdio_output@@@__crt_stdio_output@@IAE_NAAPAX@Z 10046ce0 f i libucrtd:output.obj
 0001:00045d10       ??$extract_argument_from_va_list@PAXPAX@?$standard_base@_WV?$string_output_adapter@_W@__crt_stdio_output@@@__crt_stdio_output@@IAE_NAAPAX@Z 10046d10 f i libucrtd:output.obj
 0001:00045d40       ??$extract_argument_from_va_list@U_CRT_DOUBLE@@U1@@?$positional_parameter_base@DV?$stream_output_adapter@D@__crt_stdio_output@@@__crt_stdio_output@@IAE_NAAU_CRT_DOUBLE@@@Z 10046d40 f i libucrtd:output.obj
 0001:00045ea0       ??$extract_argument_from_va_list@U_CRT_DOUBLE@@U1@@?$positional_parameter_base@DV?$string_output_adapter@D@__crt_stdio_output@@@__crt_stdio_output@@IAE_NAAU_CRT_DOUBLE@@@Z 10046ea0 f i libucrtd:output.obj
 0001:00046000       ??$extract_argument_from_va_list@U_CRT_DOUBLE@@U1@@?$positional_parameter_base@_WV?$stream_output_adapter@_W@__crt_stdio_output@@@__crt_stdio_output@@IAE_NAAU_CRT_DOUBLE@@@Z 10047000 f i libucrtd:output.obj
 0001:00046160       ??$extract_argument_from_va_list@U_CRT_DOUBLE@@U1@@?$positional_parameter_base@_WV?$string_output_adapter@_W@__crt_stdio_output@@@__crt_stdio_output@@IAE_NAAU_CRT_DOUBLE@@@Z 10047160 f i libucrtd:output.obj
 0001:000462c0       ??$extract_argument_from_va_list@U_CRT_DOUBLE@@U1@@?$standard_base@DV?$stream_output_adapter@D@__crt_stdio_output@@@__crt_stdio_output@@IAE_NAAU_CRT_DOUBLE@@@Z 100472c0 f i libucrtd:output.obj
 0001:00046310       ??$extract_argument_from_va_list@U_CRT_DOUBLE@@U1@@?$standard_base@DV?$string_output_adapter@D@__crt_stdio_output@@@__crt_stdio_output@@IAE_NAAU_CRT_DOUBLE@@@Z 10047310 f i libucrtd:output.obj
 0001:00046360       ??$extract_argument_from_va_list@U_CRT_DOUBLE@@U1@@?$standard_base@_WV?$stream_output_adapter@_W@__crt_stdio_output@@@__crt_stdio_output@@IAE_NAAU_CRT_DOUBLE@@@Z 10047360 f i libucrtd:output.obj
 0001:000463b0       ??$extract_argument_from_va_list@U_CRT_DOUBLE@@U1@@?$standard_base@_WV?$string_output_adapter@_W@__crt_stdio_output@@@__crt_stdio_output@@IAE_NAAU_CRT_DOUBLE@@@Z 100473b0 f i libucrtd:output.obj
 0001:00046400       ??$extract_argument_from_va_list@_J_J@?$positional_parameter_base@DV?$stream_output_adapter@D@__crt_stdio_output@@@__crt_stdio_output@@IAE_NAA_J@Z 10047400 f i libucrtd:output.obj
 0001:00046530       ??$extract_argument_from_va_list@_J_J@?$positional_parameter_base@DV?$string_output_adapter@D@__crt_stdio_output@@@__crt_stdio_output@@IAE_NAA_J@Z 10047530 f i libucrtd:output.obj
 0001:00046660       ??$extract_argument_from_va_list@_J_J@?$positional_parameter_base@_WV?$stream_output_adapter@_W@__crt_stdio_output@@@__crt_stdio_output@@IAE_NAA_J@Z 10047660 f i libucrtd:output.obj
 0001:00046790       ??$extract_argument_from_va_list@_J_J@?$positional_parameter_base@_WV?$string_output_adapter@_W@__crt_stdio_output@@@__crt_stdio_output@@IAE_NAA_J@Z 10047790 f i libucrtd:output.obj
 0001:000468c0       ??$extract_argument_from_va_list@_J_J@?$standard_base@DV?$stream_output_adapter@D@__crt_stdio_output@@@__crt_stdio_output@@IAE_NAA_J@Z 100478c0 f i libucrtd:output.obj
 0001:000468f0       ??$extract_argument_from_va_list@_J_J@?$standard_base@DV?$string_output_adapter@D@__crt_stdio_output@@@__crt_stdio_output@@IAE_NAA_J@Z 100478f0 f i libucrtd:output.obj
 0001:00046920       ??$extract_argument_from_va_list@_J_J@?$standard_base@_WV?$stream_output_adapter@_W@__crt_stdio_output@@@__crt_stdio_output@@IAE_NAA_J@Z 10047920 f i libucrtd:output.obj
 0001:00046950       ??$extract_argument_from_va_list@_J_J@?$standard_base@_WV?$string_output_adapter@_W@__crt_stdio_output@@@__crt_stdio_output@@IAE_NAA_J@Z 10047950 f i libucrtd:output.obj
 0001:00046980       ??$extract_argument_from_va_list@_K_J@?$positional_parameter_base@DV?$stream_output_adapter@D@__crt_stdio_output@@@__crt_stdio_output@@IAE_NAA_J@Z 10047980 f i libucrtd:output.obj
 0001:00046ab0       ??$extract_argument_from_va_list@_K_J@?$positional_parameter_base@DV?$string_output_adapter@D@__crt_stdio_output@@@__crt_stdio_output@@IAE_NAA_J@Z 10047ab0 f i libucrtd:output.obj
 0001:00046be0       ??$extract_argument_from_va_list@_K_J@?$positional_parameter_base@_WV?$stream_output_adapter@_W@__crt_stdio_output@@@__crt_stdio_output@@IAE_NAA_J@Z 10047be0 f i libucrtd:output.obj
 0001:00046d10       ??$extract_argument_from_va_list@_K_J@?$positional_parameter_base@_WV?$string_output_adapter@_W@__crt_stdio_output@@@__crt_stdio_output@@IAE_NAA_J@Z 10047d10 f i libucrtd:output.obj
 0001:00046e40       ??$extract_argument_from_va_list@_K_J@?$standard_base@DV?$stream_output_adapter@D@__crt_stdio_output@@@__crt_stdio_output@@IAE_NAA_J@Z 10047e40 f i libucrtd:output.obj
 0001:00046e70       ??$extract_argument_from_va_list@_K_J@?$standard_base@DV?$string_output_adapter@D@__crt_stdio_output@@@__crt_stdio_output@@IAE_NAA_J@Z 10047e70 f i libucrtd:output.obj
 0001:00046ea0       ??$extract_argument_from_va_list@_K_J@?$standard_base@_WV?$stream_output_adapter@_W@__crt_stdio_output@@@__crt_stdio_output@@IAE_NAA_J@Z 10047ea0 f i libucrtd:output.obj
 0001:00046ed0       ??$extract_argument_from_va_list@_K_J@?$standard_base@_WV?$string_output_adapter@_W@__crt_stdio_output@@@__crt_stdio_output@@IAE_NAA_J@Z 10047ed0 f i libucrtd:output.obj
 0001:00046f00       ??$extract_argument_from_va_list@_W_W@?$positional_parameter_base@DV?$stream_output_adapter@D@__crt_stdio_output@@@__crt_stdio_output@@IAE_NAA_W@Z 10047f00 f i libucrtd:output.obj
 0001:00047030       ??$extract_argument_from_va_list@_W_W@?$positional_parameter_base@DV?$string_output_adapter@D@__crt_stdio_output@@@__crt_stdio_output@@IAE_NAA_W@Z 10048030 f i libucrtd:output.obj
 0001:00047160       ??$extract_argument_from_va_list@_W_W@?$positional_parameter_base@_WV?$stream_output_adapter@_W@__crt_stdio_output@@@__crt_stdio_output@@IAE_NAA_W@Z 10048160 f i libucrtd:output.obj
 0001:00047290       ??$extract_argument_from_va_list@_W_W@?$positional_parameter_base@_WV?$string_output_adapter@_W@__crt_stdio_output@@@__crt_stdio_output@@IAE_NAA_W@Z 10048290 f i libucrtd:output.obj
 0001:000473c0       ??$extract_argument_from_va_list@_W_W@?$standard_base@DV?$stream_output_adapter@D@__crt_stdio_output@@@__crt_stdio_output@@IAE_NAA_W@Z 100483c0 f i libucrtd:output.obj
 0001:000473f0       ??$extract_argument_from_va_list@_W_W@?$standard_base@DV?$string_output_adapter@D@__crt_stdio_output@@@__crt_stdio_output@@IAE_NAA_W@Z 100483f0 f i libucrtd:output.obj
 0001:00047420       ??$extract_argument_from_va_list@_W_W@?$standard_base@_WV?$stream_output_adapter@_W@__crt_stdio_output@@@__crt_stdio_output@@IAE_NAA_W@Z 10048420 f i libucrtd:output.obj
 0001:00047450       ??$extract_argument_from_va_list@_W_W@?$standard_base@_WV?$string_output_adapter@_W@__crt_stdio_output@@@__crt_stdio_output@@IAE_NAA_W@Z 10048450 f i libucrtd:output.obj
 0001:00047480       ??$get_parameter_type@D@?$positional_parameter_base@DV?$stream_output_adapter@D@__crt_stdio_output@@@__crt_stdio_output@@CA?AW4parameter_type@01@PAD@Z 10048480 f i libucrtd:output.obj
 0001:00047490       ??$get_parameter_type@D@?$positional_parameter_base@DV?$string_output_adapter@D@__crt_stdio_output@@@__crt_stdio_output@@CA?AW4parameter_type@01@PAD@Z 10048490 f i libucrtd:output.obj
 0001:000474a0       ??$get_parameter_type@D@?$positional_parameter_base@_WV?$stream_output_adapter@_W@__crt_stdio_output@@@__crt_stdio_output@@CA?AW4parameter_type@01@PAD@Z 100484a0 f i libucrtd:output.obj
 0001:000474b0       ??$get_parameter_type@D@?$positional_parameter_base@_WV?$string_output_adapter@_W@__crt_stdio_output@@@__crt_stdio_output@@CA?AW4parameter_type@01@PAD@Z 100484b0 f i libucrtd:output.obj
 0001:00047500       ??$get_parameter_type@X@?$positional_parameter_base@DV?$stream_output_adapter@D@__crt_stdio_output@@@__crt_stdio_output@@CA?AW4parameter_type@01@PAX@Z 10048500 f i libucrtd:output.obj
 0001:00047510       ??$get_parameter_type@X@?$positional_parameter_base@DV?$string_output_adapter@D@__crt_stdio_output@@@__crt_stdio_output@@CA?AW4parameter_type@01@PAX@Z 10048510 f i libucrtd:output.obj
 0001:00047520       ??$get_parameter_type@X@?$positional_parameter_base@_WV?$stream_output_adapter@_W@__crt_stdio_output@@@__crt_stdio_output@@CA?AW4parameter_type@01@PAX@Z 10048520 f i libucrtd:output.obj
 0001:00047530       ??$get_parameter_type@X@?$positional_parameter_base@_WV?$string_output_adapter@_W@__crt_stdio_output@@@__crt_stdio_output@@CA?AW4parameter_type@01@PAX@Z 10048530 f i libucrtd:output.obj
 0001:00047540       ??$is_character_specifier@D@?$positional_parameter_base@DV?$stream_output_adapter@D@__crt_stdio_output@@@__crt_stdio_output@@CA_ND@Z 10048540 f i libucrtd:output.obj
 0001:00047570       ??$is_character_specifier@D@?$positional_parameter_base@DV?$string_output_adapter@D@__crt_stdio_output@@@__crt_stdio_output@@CA_ND@Z 10048570 f i libucrtd:output.obj
 0001:000475a0       ??$is_character_specifier@_W@?$positional_parameter_base@_WV?$stream_output_adapter@_W@__crt_stdio_output@@@__crt_stdio_output@@CA_N_W@Z 100485a0 f i libucrtd:output.obj
 0001:000475d0       ??$is_character_specifier@_W@?$positional_parameter_base@_WV?$string_output_adapter@_W@__crt_stdio_output@@@__crt_stdio_output@@CA_N_W@Z 100485d0 f i libucrtd:output.obj
 0001:00047600       ??$is_integral_specifier@D@?$positional_parameter_base@DV?$stream_output_adapter@D@__crt_stdio_output@@@__crt_stdio_output@@CA_ND@Z 10048600 f i libucrtd:output.obj
 0001:00047660       ??$is_integral_specifier@D@?$positional_parameter_base@DV?$string_output_adapter@D@__crt_stdio_output@@@__crt_stdio_output@@CA_ND@Z 10048660 f i libucrtd:output.obj
 0001:000476c0       ??$is_integral_specifier@_W@?$positional_parameter_base@_WV?$stream_output_adapter@_W@__crt_stdio_output@@@__crt_stdio_output@@CA_N_W@Z 100486c0 f i libucrtd:output.obj
 0001:00047720       ??$is_integral_specifier@_W@?$positional_parameter_base@_WV?$string_output_adapter@_W@__crt_stdio_output@@@__crt_stdio_output@@CA_N_W@Z 10048720 f i libucrtd:output.obj
 0001:00047780       ??$is_pointer_specifier@D@?$positional_parameter_base@DV?$stream_output_adapter@D@__crt_stdio_output@@@__crt_stdio_output@@CA_ND@Z 10048780 f i libucrtd:output.obj
 0001:000477b0       ??$is_pointer_specifier@D@?$positional_parameter_base@DV?$string_output_adapter@D@__crt_stdio_output@@@__crt_stdio_output@@CA_ND@Z 100487b0 f i libucrtd:output.obj
 0001:000477e0       ??$is_pointer_specifier@_W@?$positional_parameter_base@_WV?$stream_output_adapter@_W@__crt_stdio_output@@@__crt_stdio_output@@CA_N_W@Z 100487e0 f i libucrtd:output.obj
 0001:00047810       ??$is_pointer_specifier@_W@?$positional_parameter_base@_WV?$string_output_adapter@_W@__crt_stdio_output@@@__crt_stdio_output@@CA_N_W@Z 10048810 f i libucrtd:output.obj
 0001:00047840       ??$is_string_specifier@D@?$positional_parameter_base@DV?$stream_output_adapter@D@__crt_stdio_output@@@__crt_stdio_output@@CA_ND@Z 10048840 f i libucrtd:output.obj
 0001:00047870       ??$is_string_specifier@D@?$positional_parameter_base@DV?$string_output_adapter@D@__crt_stdio_output@@@__crt_stdio_output@@CA_ND@Z 10048870 f i libucrtd:output.obj
 0001:000478a0       ??$is_string_specifier@_W@?$positional_parameter_base@_WV?$stream_output_adapter@_W@__crt_stdio_output@@@__crt_stdio_output@@CA_N_W@Z 100488a0 f i libucrtd:output.obj
 0001:000478d0       ??$is_string_specifier@_W@?$positional_parameter_base@_WV?$string_output_adapter@_W@__crt_stdio_output@@@__crt_stdio_output@@CA_N_W@Z 100488d0 f i libucrtd:output.obj
 0001:00047900       ??$is_wide_character_specifier@D@__crt_stdio_output@@YA_N_KDW4length_modifier@0@@Z 10048900 f i libucrtd:output.obj
 0001:00047980       ??$is_wide_character_specifier@_W@__crt_stdio_output@@YA_N_K_WW4length_modifier@0@@Z 10048980 f i libucrtd:output.obj
 0001:00047a40       ??$peek_va_arg@C@__crt_stdio_output@@YACPAD@Z 10048a40 f i libucrtd:output.obj
 0001:00047a60       ??$peek_va_arg@E@__crt_stdio_output@@YAEPAD@Z 10048a60 f i libucrtd:output.obj
 0001:00047a80       ??$peek_va_arg@F@__crt_stdio_output@@YAFPAD@Z 10048a80 f i libucrtd:output.obj
 0001:00047aa0       ??$peek_va_arg@G@__crt_stdio_output@@YAGPAD@Z 10048aa0 f i libucrtd:output.obj
 0001:00047ac0       ??$peek_va_arg@H@__crt_stdio_output@@YAHPAD@Z 10048ac0 f i libucrtd:output.obj
 0001:00047ae0       ??$peek_va_arg@I@__crt_stdio_output@@YAIPAD@Z 10048ae0 f i libucrtd:output.obj
 0001:00047b00       ??$peek_va_arg@PAD@__crt_stdio_output@@YAPADPAD@Z 10048b00 f i libucrtd:output.obj
 0001:00047ba0       ??$peek_va_arg@PAX@__crt_stdio_output@@YAPAXPAD@Z 10048ba0 f i libucrtd:output.obj
 0001:00047bc0       ??$peek_va_arg@U_CRT_DOUBLE@@@__crt_stdio_output@@YA?AU_CRT_DOUBLE@@PAD@Z 10048bc0 f i libucrtd:output.obj
 0001:00047be0       ??$peek_va_arg@_J@__crt_stdio_output@@YA_JPAD@Z 10048be0 f i libucrtd:output.obj
 0001:00047c00       ??$peek_va_arg@_K@__crt_stdio_output@@YA_KPAD@Z 10048c00 f i libucrtd:output.obj
 0001:00047c20       ??$peek_va_arg@_W@__crt_stdio_output@@YA_WPAD@Z 10048c20 f i libucrtd:output.obj
 0001:00047c40       ??$puttc_nolock@ABDPAU_iobuf@@@?$__crt_char_traits@D@@SAHABD$$QAPAU_iobuf@@@Z 10048c40 f i libucrtd:output.obj
 0001:00047c60       ??$puttc_nolock@AB_WPAU_iobuf@@@?$__crt_char_traits@_W@@SAGAB_W$$QAPAU_iobuf@@@Z 10048c60 f i libucrtd:output.obj
 0001:00047c80       ??$read_va_arg@C@__crt_stdio_output@@YACAAPAD@Z 10048c80 f i libucrtd:output.obj
 0001:00047ca0       ??$read_va_arg@E@__crt_stdio_output@@YAEAAPAD@Z 10048ca0 f i libucrtd:output.obj
 0001:00047cc0       ??$read_va_arg@F@__crt_stdio_output@@YAFAAPAD@Z 10048cc0 f i libucrtd:output.obj
 0001:00047ce0       ??$read_va_arg@G@__crt_stdio_output@@YAGAAPAD@Z 10048ce0 f i libucrtd:output.obj
 0001:00047d00       ??$read_va_arg@H@__crt_stdio_output@@YAHAAPAD@Z 10048d00 f i libucrtd:output.obj
 0001:00047d20       ??$read_va_arg@I@__crt_stdio_output@@YAIAAPAD@Z 10048d20 f i libucrtd:output.obj
 0001:00047d40       ??$read_va_arg@PAD@__crt_stdio_output@@YAPADAAPAD@Z 10048d40 f i libucrtd:output.obj
 0001:00047ee0       ??$read_va_arg@PAX@__crt_stdio_output@@YAPAXAAPAD@Z 10048ee0 f i libucrtd:output.obj
 0001:00047f00       ??$read_va_arg@U_CRT_DOUBLE@@@__crt_stdio_output@@YA?AU_CRT_DOUBLE@@AAPAD@Z 10048f00 f i libucrtd:output.obj
 0001:00047f20       ??$read_va_arg@_J@__crt_stdio_output@@YA_JAAPAD@Z 10048f20 f i libucrtd:output.obj
 0001:00047f40       ??$read_va_arg@_K@__crt_stdio_output@@YA_KAAPAD@Z 10048f40 f i libucrtd:output.obj
 0001:00047f60       ??$read_va_arg@_W@__crt_stdio_output@@YA_WAAPAD@Z 10048f60 f i libucrtd:output.obj
 0001:00047f80       ??$scratch_count@D@formatting_buffer@__crt_stdio_output@@QBEIXZ 10048f80 f i libucrtd:output.obj
 0001:00047fa0       ??$scratch_data@D@formatting_buffer@__crt_stdio_output@@QAEPADXZ 10048fa0 f i libucrtd:output.obj
 0001:00047ff0       ??$tcstol@AAPBDPAPADH@?$__crt_char_traits@D@@SAJAAPBD$$QAPAPAD$$QAH@Z 10048ff0 f i libucrtd:output.obj
 0001:00048020       ??$tcstol@AAPB_WPAPA_WH@?$__crt_char_traits@_W@@SAJAAPB_W$$QAPAPA_W$$QAH@Z 10049020 f i libucrtd:output.obj
 0001:00048050       ??$tcstol@PBDPAPADH@?$__crt_char_traits@D@@SAJ$$QAPBD$$QAPAPAD$$QAH@Z 10049050 f i libucrtd:output.obj
 0001:00048080       ??$tcstol@PB_WPAPA_WH@?$__crt_char_traits@_W@@SAJ$$QAPB_W$$QAPAPA_W$$QAH@Z 10049080 f i libucrtd:output.obj
 0001:000480b0       ??$type_case_integer_parse_into_buffer@I@?$output_processor@DV?$stream_output_adapter@D@__crt_stdio_output@@V?$format_validation_base@DV?$stream_output_adapter@D@__crt_stdio_output@@@2@@__crt_stdio_output@@AAEXII_N@Z 100490b0 f i libucrtd:output.obj
 0001:00048180       ??$type_case_integer_parse_into_buffer@I@?$output_processor@DV?$stream_output_adapter@D@__crt_stdio_output@@V?$positional_parameter_base@DV?$stream_output_adapter@D@__crt_stdio_output@@@2@@__crt_stdio_output@@AAEXII_N@Z 10049180 f i libucrtd:output.obj
 0001:00048250       ??$type_case_integer_parse_into_buffer@I@?$output_processor@DV?$stream_output_adapter@D@__crt_stdio_output@@V?$standard_base@DV?$stream_output_adapter@D@__crt_stdio_output@@@2@@__crt_stdio_output@@AAEXII_N@Z 10049250 f i libucrtd:output.obj
 0001:00048320       ??$type_case_integer_parse_into_buffer@I@?$output_processor@DV?$string_output_adapter@D@__crt_stdio_output@@V?$format_validation_base@DV?$string_output_adapter@D@__crt_stdio_output@@@2@@__crt_stdio_output@@AAEXII_N@Z 10049320 f i libucrtd:output.obj
 0001:000483f0       ??$type_case_integer_parse_into_buffer@I@?$output_processor@DV?$string_output_adapter@D@__crt_stdio_output@@V?$positional_parameter_base@DV?$string_output_adapter@D@__crt_stdio_output@@@2@@__crt_stdio_output@@AAEXII_N@Z 100493f0 f i libucrtd:output.obj
 0001:000484c0       ??$type_case_integer_parse_into_buffer@I@?$output_processor@DV?$string_output_adapter@D@__crt_stdio_output@@V?$standard_base@DV?$string_output_adapter@D@__crt_stdio_output@@@2@@__crt_stdio_output@@AAEXII_N@Z 100494c0 f i libucrtd:output.obj
 0001:00048590       ??$type_case_integer_parse_into_buffer@I@?$output_processor@_WV?$stream_output_adapter@_W@__crt_stdio_output@@V?$format_validation_base@_WV?$stream_output_adapter@_W@__crt_stdio_output@@@2@@__crt_stdio_output@@AAEXII_N@Z 10049590 f i libucrtd:output.obj
 0001:00048670       ??$type_case_integer_parse_into_buffer@I@?$output_processor@_WV?$stream_output_adapter@_W@__crt_stdio_output@@V?$positional_parameter_base@_WV?$stream_output_adapter@_W@__crt_stdio_output@@@2@@__crt_stdio_output@@AAEXII_N@Z 10049670 f i libucrtd:output.obj
 0001:00048750       ??$type_case_integer_parse_into_buffer@I@?$output_processor@_WV?$stream_output_adapter@_W@__crt_stdio_output@@V?$standard_base@_WV?$stream_output_adapter@_W@__crt_stdio_output@@@2@@__crt_stdio_output@@AAEXII_N@Z 10049750 f i libucrtd:output.obj
 0001:00048830       ??$type_case_integer_parse_into_buffer@I@?$output_processor@_WV?$string_output_adapter@_W@__crt_stdio_output@@V?$format_validation_base@_WV?$string_output_adapter@_W@__crt_stdio_output@@@2@@__crt_stdio_output@@AAEXII_N@Z 10049830 f i libucrtd:output.obj
 0001:00048910       ??$type_case_integer_parse_into_buffer@I@?$output_processor@_WV?$string_output_adapter@_W@__crt_stdio_output@@V?$positional_parameter_base@_WV?$string_output_adapter@_W@__crt_stdio_output@@@2@@__crt_stdio_output@@AAEXII_N@Z 10049910 f i libucrtd:output.obj
 0001:000489f0       ??$type_case_integer_parse_into_buffer@I@?$output_processor@_WV?$string_output_adapter@_W@__crt_stdio_output@@V?$standard_base@_WV?$string_output_adapter@_W@__crt_stdio_output@@@2@@__crt_stdio_output@@AAEXII_N@Z 100499f0 f i libucrtd:output.obj
 0001:00048ad0       ??$type_case_integer_parse_into_buffer@_K@?$output_processor@DV?$stream_output_adapter@D@__crt_stdio_output@@V?$format_validation_base@DV?$stream_output_adapter@D@__crt_stdio_output@@@2@@__crt_stdio_output@@AAEX_KI_N@Z 10049ad0 f i libucrtd:output.obj
 0001:00048bc0       ??$type_case_integer_parse_into_buffer@_K@?$output_processor@DV?$stream_output_adapter@D@__crt_stdio_output@@V?$positional_parameter_base@DV?$stream_output_adapter@D@__crt_stdio_output@@@2@@__crt_stdio_output@@AAEX_KI_N@Z 10049bc0 f i libucrtd:output.obj
 0001:00048cb0       ??$type_case_integer_parse_into_buffer@_K@?$output_processor@DV?$stream_output_adapter@D@__crt_stdio_output@@V?$standard_base@DV?$stream_output_adapter@D@__crt_stdio_output@@@2@@__crt_stdio_output@@AAEX_KI_N@Z 10049cb0 f i libucrtd:output.obj
 0001:00048da0       ??$type_case_integer_parse_into_buffer@_K@?$output_processor@DV?$string_output_adapter@D@__crt_stdio_output@@V?$format_validation_base@DV?$string_output_adapter@D@__crt_stdio_output@@@2@@__crt_stdio_output@@AAEX_KI_N@Z 10049da0 f i libucrtd:output.obj
 0001:00048e90       ??$type_case_integer_parse_into_buffer@_K@?$output_processor@DV?$string_output_adapter@D@__crt_stdio_output@@V?$positional_parameter_base@DV?$string_output_adapter@D@__crt_stdio_output@@@2@@__crt_stdio_output@@AAEX_KI_N@Z 10049e90 f i libucrtd:output.obj
 0001:00048f80       ??$type_case_integer_parse_into_buffer@_K@?$output_processor@DV?$string_output_adapter@D@__crt_stdio_output@@V?$standard_base@DV?$string_output_adapter@D@__crt_stdio_output@@@2@@__crt_stdio_output@@AAEX_KI_N@Z 10049f80 f i libucrtd:output.obj
 0001:00049070       ??$type_case_integer_parse_into_buffer@_K@?$output_processor@_WV?$stream_output_adapter@_W@__crt_stdio_output@@V?$format_validation_base@_WV?$stream_output_adapter@_W@__crt_stdio_output@@@2@@__crt_stdio_output@@AAEX_KI_N@Z 1004a070 f i libucrtd:output.obj
 0001:00049170       ??$type_case_integer_parse_into_buffer@_K@?$output_processor@_WV?$stream_output_adapter@_W@__crt_stdio_output@@V?$positional_parameter_base@_WV?$stream_output_adapter@_W@__crt_stdio_output@@@2@@__crt_stdio_output@@AAEX_KI_N@Z 1004a170 f i libucrtd:output.obj
 0001:00049270       ??$type_case_integer_parse_into_buffer@_K@?$output_processor@_WV?$stream_output_adapter@_W@__crt_stdio_output@@V?$standard_base@_WV?$stream_output_adapter@_W@__crt_stdio_output@@@2@@__crt_stdio_output@@AAEX_KI_N@Z 1004a270 f i libucrtd:output.obj
 0001:00049370       ??$type_case_integer_parse_into_buffer@_K@?$output_processor@_WV?$string_output_adapter@_W@__crt_stdio_output@@V?$format_validation_base@_WV?$string_output_adapter@_W@__crt_stdio_output@@@2@@__crt_stdio_output@@AAEX_KI_N@Z 1004a370 f i libucrtd:output.obj
 0001:00049470       ??$type_case_integer_parse_into_buffer@_K@?$output_processor@_WV?$string_output_adapter@_W@__crt_stdio_output@@V?$positional_parameter_base@_WV?$string_output_adapter@_W@__crt_stdio_output@@@2@@__crt_stdio_output@@AAEX_KI_N@Z 1004a470 f i libucrtd:output.obj
 0001:00049570       ??$type_case_integer_parse_into_buffer@_K@?$output_processor@_WV?$string_output_adapter@_W@__crt_stdio_output@@V?$standard_base@_WV?$string_output_adapter@_W@__crt_stdio_output@@@2@@__crt_stdio_output@@AAEX_KI_N@Z 1004a570 f i libucrtd:output.obj
 0001:00049670       ??$write_multiple_characters@V?$stream_output_adapter@D@__crt_stdio_output@@D@__crt_stdio_output@@YAXABV?$stream_output_adapter@D@0@DHQAH@Z 1004a670 f i libucrtd:output.obj
 0001:000496c0       ??$write_multiple_characters@V?$stream_output_adapter@_W@__crt_stdio_output@@D@__crt_stdio_output@@YAXABV?$stream_output_adapter@_W@0@DHQAH@Z 1004a6c0 f i libucrtd:output.obj
 0001:00049710       ??$write_multiple_characters@V?$string_output_adapter@D@__crt_stdio_output@@D@__crt_stdio_output@@YAXABV?$string_output_adapter@D@0@DHQAH@Z 1004a710 f i libucrtd:output.obj
 0001:00049760       ??$write_multiple_characters@V?$string_output_adapter@_W@__crt_stdio_output@@D@__crt_stdio_output@@YAXABV?$string_output_adapter@_W@0@DHQAH@Z 1004a760 f i libucrtd:output.obj
 0001:00049ab0       ??0?$common_data@D@__crt_stdio_output@@IAE@XZ 1004aab0 f i libucrtd:output.obj
 0001:00049b60       ??0?$common_data@_W@__crt_stdio_output@@IAE@XZ 1004ab60 f i libucrtd:output.obj
 0001:00049c10       ??0?$output_adapter_data@DV?$stream_output_adapter@D@__crt_stdio_output@@@__crt_stdio_output@@IAE@ABV?$stream_output_adapter@D@1@_KQBDQAU__crt_locale_pointers@@QAD@Z 1004ac10 f i libucrtd:output.obj
 0001:00049c70       ??0?$output_adapter_data@DV?$string_output_adapter@D@__crt_stdio_output@@@__crt_stdio_output@@IAE@ABV?$string_output_adapter@D@1@_KQBDQAU__crt_locale_pointers@@QAD@Z 1004ac70 f i libucrtd:output.obj
 0001:00049cd0       ??0?$output_adapter_data@_WV?$stream_output_adapter@_W@__crt_stdio_output@@@__crt_stdio_output@@IAE@ABV?$stream_output_adapter@_W@1@_KQB_WQAU__crt_locale_pointers@@QAD@Z 1004acd0 f i libucrtd:output.obj
 0001:00049d30       ??0?$output_adapter_data@_WV?$string_output_adapter@_W@__crt_stdio_output@@@__crt_stdio_output@@IAE@ABV?$string_output_adapter@_W@1@_KQB_WQAU__crt_locale_pointers@@QAD@Z 1004ad30 f i libucrtd:output.obj
 0001:00049d90       ??0?$output_processor@DV?$stream_output_adapter@D@__crt_stdio_output@@V?$format_validation_base@DV?$stream_output_adapter@D@__crt_stdio_output@@@2@@__crt_stdio_output@@QAE@ABV?$stream_output_adapter@D@1@_KQBDQAU__crt_locale_pointers@@QAD@Z 1004ad90 f i libucrtd:output.obj
 0001:00049dc0       ??0?$output_processor@DV?$stream_output_adapter@D@__crt_stdio_output@@V?$positional_parameter_base@DV?$stream_output_adapter@D@__crt_stdio_output@@@2@@__crt_stdio_output@@QAE@ABV?$stream_output_adapter@D@1@_KQBDQAU__crt_locale_pointers@@QAD@Z 1004adc0 f i libucrtd:output.obj
 0001:00049df0       ??0?$output_processor@DV?$stream_output_adapter@D@__crt_stdio_output@@V?$standard_base@DV?$stream_output_adapter@D@__crt_stdio_output@@@2@@__crt_stdio_output@@QAE@ABV?$stream_output_adapter@D@1@_KQBDQAU__crt_locale_pointers@@QAD@Z 1004adf0 f i libucrtd:output.obj
 0001:00049e20       ??0?$output_processor@DV?$string_output_adapter@D@__crt_stdio_output@@V?$format_validation_base@DV?$string_output_adapter@D@__crt_stdio_output@@@2@@__crt_stdio_output@@QAE@ABV?$string_output_adapter@D@1@_KQBDQAU__crt_locale_pointers@@QAD@Z 1004ae20 f i libucrtd:output.obj
 0001:00049e50       ??0?$output_processor@DV?$string_output_adapter@D@__crt_stdio_output@@V?$positional_parameter_base@DV?$string_output_adapter@D@__crt_stdio_output@@@2@@__crt_stdio_output@@QAE@ABV?$string_output_adapter@D@1@_KQBDQAU__crt_locale_pointers@@QAD@Z 1004ae50 f i libucrtd:output.obj
 0001:00049e80       ??0?$output_processor@DV?$string_output_adapter@D@__crt_stdio_output@@V?$standard_base@DV?$string_output_adapter@D@__crt_stdio_output@@@2@@__crt_stdio_output@@QAE@ABV?$string_output_adapter@D@1@_KQBDQAU__crt_locale_pointers@@QAD@Z 1004ae80 f i libucrtd:output.obj
 0001:00049eb0       ??0?$output_processor@_WV?$stream_output_adapter@_W@__crt_stdio_output@@V?$format_validation_base@_WV?$stream_output_adapter@_W@__crt_stdio_output@@@2@@__crt_stdio_output@@QAE@ABV?$stream_output_adapter@_W@1@_KQB_WQAU__crt_locale_pointers@@QAD@Z 1004aeb0 f i libucrtd:output.obj
 0001:00049ee0       ??0?$output_processor@_WV?$stream_output_adapter@_W@__crt_stdio_output@@V?$positional_parameter_base@_WV?$stream_output_adapter@_W@__crt_stdio_output@@@2@@__crt_stdio_output@@QAE@ABV?$stream_output_adapter@_W@1@_KQB_WQAU__crt_locale_pointers@@QAD@Z 1004aee0 f i libucrtd:output.obj
 0001:00049f10       ??0?$output_processor@_WV?$stream_output_adapter@_W@__crt_stdio_output@@V?$standard_base@_WV?$stream_output_adapter@_W@__crt_stdio_output@@@2@@__crt_stdio_output@@QAE@ABV?$stream_output_adapter@_W@1@_KQB_WQAU__crt_locale_pointers@@QAD@Z 1004af10 f i libucrtd:output.obj
 0001:00049f40       ??0?$output_processor@_WV?$string_output_adapter@_W@__crt_stdio_output@@V?$format_validation_base@_WV?$string_output_adapter@_W@__crt_stdio_output@@@2@@__crt_stdio_output@@QAE@ABV?$string_output_adapter@_W@1@_KQB_WQAU__crt_locale_pointers@@QAD@Z 1004af40 f i libucrtd:output.obj
 0001:00049f70       ??0?$output_processor@_WV?$string_output_adapter@_W@__crt_stdio_output@@V?$positional_parameter_base@_WV?$string_output_adapter@_W@__crt_stdio_output@@@2@@__crt_stdio_output@@QAE@ABV?$string_output_adapter@_W@1@_KQB_WQAU__crt_locale_pointers@@QAD@Z 1004af70 f i libucrtd:output.obj
 0001:00049fa0       ??0?$output_processor@_WV?$string_output_adapter@_W@__crt_stdio_output@@V?$standard_base@_WV?$string_output_adapter@_W@__crt_stdio_output@@@2@@__crt_stdio_output@@QAE@ABV?$string_output_adapter@_W@1@_KQB_WQAU__crt_locale_pointers@@QAD@Z 1004afa0 f i libucrtd:output.obj
 0001:00049fd0       ??0?$stream_output_adapter@D@__crt_stdio_output@@QAE@QAU_iobuf@@@Z 1004afd0 f i libucrtd:output.obj
 0001:00049ff0       ??0?$stream_output_adapter@_W@__crt_stdio_output@@QAE@QAU_iobuf@@@Z 1004aff0 f i libucrtd:output.obj
 0001:0004a010       ??0?$string_output_adapter@D@__crt_stdio_output@@QAE@QAU?$string_output_adapter_context@D@1@@Z 1004b010 f i libucrtd:output.obj
 0001:0004a030       ??0?$string_output_adapter@_W@__crt_stdio_output@@QAE@QAU?$string_output_adapter_context@_W@1@@Z 1004b030 f i libucrtd:output.obj
 0001:0004a050       ??0_LocaleUpdate@@QAE@QAU__crt_locale_pointers@@@Z 1004b050 f i libucrtd:output.obj
 0001:0004a130       ??0__acrt_stdio_temporary_buffering_guard@@QAE@QAU_iobuf@@@Z 1004b130 f i libucrtd:output.obj
 0001:0004a160       ??0__crt_deferred_errno_cache@@QAE@XZ 1004b160 f i libucrtd:output.obj
 0001:0004a180       ??0__crt_errno_guard@@QAE@QAH@Z 1004b180 f i libucrtd:output.obj
 0001:0004a1b0       ??0__crt_stdio_stream@@QAE@QAU_iobuf@@@Z 1004b1b0 f i libucrtd:output.obj
 0001:0004a1d0       ??0formatting_buffer@__crt_stdio_output@@QAE@XZ 1004b1d0 f i libucrtd:output.obj
 0001:0004a200       ??1?$common_data@D@__crt_stdio_output@@QAE@XZ 1004b200 f i libucrtd:output.obj
 0001:0004a220       ??1?$common_data@_W@__crt_stdio_output@@QAE@XZ 1004b220 f i libucrtd:output.obj
 0001:0004a240       ??1?$format_validation_base@DV?$stream_output_adapter@D@__crt_stdio_output@@@__crt_stdio_output@@QAE@XZ 1004b240 f i libucrtd:output.obj
 0001:0004a260       ??1?$format_validation_base@DV?$string_output_adapter@D@__crt_stdio_output@@@__crt_stdio_output@@QAE@XZ 1004b260 f i libucrtd:output.obj
 0001:0004a280       ??1?$format_validation_base@_WV?$stream_output_adapter@_W@__crt_stdio_output@@@__crt_stdio_output@@QAE@XZ 1004b280 f i libucrtd:output.obj
 0001:0004a2a0       ??1?$format_validation_base@_WV?$string_output_adapter@_W@__crt_stdio_output@@@__crt_stdio_output@@QAE@XZ 1004b2a0 f i libucrtd:output.obj
 0001:0004a2c0       ??1?$output_adapter_data@DV?$stream_output_adapter@D@__crt_stdio_output@@@__crt_stdio_output@@QAE@XZ 1004b2c0 f i libucrtd:output.obj
 0001:0004a2e0       ??1?$output_adapter_data@DV?$string_output_adapter@D@__crt_stdio_output@@@__crt_stdio_output@@QAE@XZ 1004b2e0 f i libucrtd:output.obj
 0001:0004a300       ??1?$output_adapter_data@_WV?$stream_output_adapter@_W@__crt_stdio_output@@@__crt_stdio_output@@QAE@XZ 1004b300 f i libucrtd:output.obj
 0001:0004a320       ??1?$output_adapter_data@_WV?$string_output_adapter@_W@__crt_stdio_output@@@__crt_stdio_output@@QAE@XZ 1004b320 f i libucrtd:output.obj
 0001:0004a340       ??1?$output_processor@DV?$stream_output_adapter@D@__crt_stdio_output@@V?$format_validation_base@DV?$stream_output_adapter@D@__crt_stdio_output@@@2@@__crt_stdio_output@@QAE@XZ 1004b340 f i libucrtd:output.obj
 0001:0004a360       ??1?$output_processor@DV?$stream_output_adapter@D@__crt_stdio_output@@V?$positional_parameter_base@DV?$stream_output_adapter@D@__crt_stdio_output@@@2@@__crt_stdio_output@@QAE@XZ 1004b360 f i libucrtd:output.obj
 0001:0004a380       ??1?$output_processor@DV?$stream_output_adapter@D@__crt_stdio_output@@V?$standard_base@DV?$stream_output_adapter@D@__crt_stdio_output@@@2@@__crt_stdio_output@@QAE@XZ 1004b380 f i libucrtd:output.obj
 0001:0004a3a0       ??1?$output_processor@DV?$string_output_adapter@D@__crt_stdio_output@@V?$format_validation_base@DV?$string_output_adapter@D@__crt_stdio_output@@@2@@__crt_stdio_output@@QAE@XZ 1004b3a0 f i libucrtd:output.obj
 0001:0004a3c0       ??1?$output_processor@DV?$string_output_adapter@D@__crt_stdio_output@@V?$positional_parameter_base@DV?$string_output_adapter@D@__crt_stdio_output@@@2@@__crt_stdio_output@@QAE@XZ 1004b3c0 f i libucrtd:output.obj
 0001:0004a3e0       ??1?$output_processor@DV?$string_output_adapter@D@__crt_stdio_output@@V?$standard_base@DV?$string_output_adapter@D@__crt_stdio_output@@@2@@__crt_stdio_output@@QAE@XZ 1004b3e0 f i libucrtd:output.obj
 0001:0004a400       ??1?$output_processor@_WV?$stream_output_adapter@_W@__crt_stdio_output@@V?$format_validation_base@_WV?$stream_output_adapter@_W@__crt_stdio_output@@@2@@__crt_stdio_output@@QAE@XZ 1004b400 f i libucrtd:output.obj
 0001:0004a420       ??1?$output_processor@_WV?$stream_output_adapter@_W@__crt_stdio_output@@V?$positional_parameter_base@_WV?$stream_output_adapter@_W@__crt_stdio_output@@@2@@__crt_stdio_output@@QAE@XZ 1004b420 f i libucrtd:output.obj
 0001:0004a440       ??1?$output_processor@_WV?$stream_output_adapter@_W@__crt_stdio_output@@V?$standard_base@_WV?$stream_output_adapter@_W@__crt_stdio_output@@@2@@__crt_stdio_output@@QAE@XZ 1004b440 f i libucrtd:output.obj
 0001:0004a460       ??1?$output_processor@_WV?$string_output_adapter@_W@__crt_stdio_output@@V?$format_validation_base@_WV?$string_output_adapter@_W@__crt_stdio_output@@@2@@__crt_stdio_output@@QAE@XZ 1004b460 f i libucrtd:output.obj
 0001:0004a480       ??1?$output_processor@_WV?$string_output_adapter@_W@__crt_stdio_output@@V?$positional_parameter_base@_WV?$string_output_adapter@_W@__crt_stdio_output@@@2@@__crt_stdio_output@@QAE@XZ 1004b480 f i libucrtd:output.obj
 0001:0004a4a0       ??1?$output_processor@_WV?$string_output_adapter@_W@__crt_stdio_output@@V?$standard_base@_WV?$string_output_adapter@_W@__crt_stdio_output@@@2@@__crt_stdio_output@@QAE@XZ 1004b4a0 f i libucrtd:output.obj
 0001:0004a4c0       ??1?$positional_parameter_base@DV?$stream_output_adapter@D@__crt_stdio_output@@@__crt_stdio_output@@QAE@XZ 1004b4c0 f i libucrtd:output.obj
 0001:0004a4e0       ??1?$positional_parameter_base@DV?$string_output_adapter@D@__crt_stdio_output@@@__crt_stdio_output@@QAE@XZ 1004b4e0 f i libucrtd:output.obj
 0001:0004a500       ??1?$positional_parameter_base@_WV?$stream_output_adapter@_W@__crt_stdio_output@@@__crt_stdio_output@@QAE@XZ 1004b500 f i libucrtd:output.obj
 0001:0004a520       ??1?$positional_parameter_base@_WV?$string_output_adapter@_W@__crt_stdio_output@@@__crt_stdio_output@@QAE@XZ 1004b520 f i libucrtd:output.obj
 0001:0004a540       ??1?$standard_base@DV?$stream_output_adapter@D@__crt_stdio_output@@@__crt_stdio_output@@QAE@XZ 1004b540 f i libucrtd:output.obj
 0001:0004a560       ??1?$standard_base@DV?$string_output_adapter@D@__crt_stdio_output@@@__crt_stdio_output@@QAE@XZ 1004b560 f i libucrtd:output.obj
 0001:0004a580       ??1?$standard_base@_WV?$stream_output_adapter@_W@__crt_stdio_output@@@__crt_stdio_output@@QAE@XZ 1004b580 f i libucrtd:output.obj
 0001:0004a5a0       ??1?$standard_base@_WV?$string_output_adapter@_W@__crt_stdio_output@@@__crt_stdio_output@@QAE@XZ 1004b5a0 f i libucrtd:output.obj
 0001:0004a5c0       ??1_LocaleUpdate@@QAE@XZ   1004b5c0 f i libucrtd:output.obj
 0001:0004a600       ??1__acrt_stdio_temporary_buffering_guard@@QAE@XZ 1004b600 f i libucrtd:output.obj
 0001:0004a630       ??1__crt_errno_guard@@QAE@XZ 1004b630 f i libucrtd:output.obj
 0001:0004a660       ??1formatting_buffer@__crt_stdio_output@@QAE@XZ 1004b660 f i libucrtd:output.obj
 0001:0004a680       ??4?$__crt_unique_heap_ptr@DU__crt_internal_free_policy@@@@QAEAAV0@$$QAV0@@Z 1004b680 f i libucrtd:output.obj
 0001:0004a6b0       ??C__crt_stdio_stream@@QBEPAU__crt_stdio_stream_data@@XZ 1004b6b0 f i libucrtd:output.obj
 0001:0004adf0       ?GetLocaleT@_LocaleUpdate@@QAEPAU__crt_locale_pointers@@XZ 1004bdf0 f i libucrtd:output.obj
 0001:0004ae10       ?adjust_hexit@?$output_processor@DV?$stream_output_adapter@D@__crt_stdio_output@@V?$format_validation_base@DV?$stream_output_adapter@D@__crt_stdio_output@@@2@@__crt_stdio_output@@CADH_N@Z 1004be10 f i libucrtd:output.obj
 0001:0004ae50       ?adjust_hexit@?$output_processor@DV?$stream_output_adapter@D@__crt_stdio_output@@V?$positional_parameter_base@DV?$stream_output_adapter@D@__crt_stdio_output@@@2@@__crt_stdio_output@@CADH_N@Z 1004be50 f i libucrtd:output.obj
 0001:0004ae90       ?adjust_hexit@?$output_processor@DV?$stream_output_adapter@D@__crt_stdio_output@@V?$standard_base@DV?$stream_output_adapter@D@__crt_stdio_output@@@2@@__crt_stdio_output@@CADH_N@Z 1004be90 f i libucrtd:output.obj
 0001:0004aed0       ?adjust_hexit@?$output_processor@DV?$string_output_adapter@D@__crt_stdio_output@@V?$format_validation_base@DV?$string_output_adapter@D@__crt_stdio_output@@@2@@__crt_stdio_output@@CADH_N@Z 1004bed0 f i libucrtd:output.obj
 0001:0004af10       ?adjust_hexit@?$output_processor@DV?$string_output_adapter@D@__crt_stdio_output@@V?$positional_parameter_base@DV?$string_output_adapter@D@__crt_stdio_output@@@2@@__crt_stdio_output@@CADH_N@Z 1004bf10 f i libucrtd:output.obj
 0001:0004af50       ?adjust_hexit@?$output_processor@DV?$string_output_adapter@D@__crt_stdio_output@@V?$standard_base@DV?$string_output_adapter@D@__crt_stdio_output@@@2@@__crt_stdio_output@@CADH_N@Z 1004bf50 f i libucrtd:output.obj
 0001:0004af90       ?adjust_hexit@?$output_processor@_WV?$stream_output_adapter@_W@__crt_stdio_output@@V?$format_validation_base@_WV?$stream_output_adapter@_W@__crt_stdio_output@@@2@@__crt_stdio_output@@CADH_N@Z 1004bf90 f i libucrtd:output.obj
 0001:0004afd0       ?adjust_hexit@?$output_processor@_WV?$stream_output_adapter@_W@__crt_stdio_output@@V?$positional_parameter_base@_WV?$stream_output_adapter@_W@__crt_stdio_output@@@2@@__crt_stdio_output@@CADH_N@Z 1004bfd0 f i libucrtd:output.obj
 0001:0004b010       ?adjust_hexit@?$output_processor@_WV?$stream_output_adapter@_W@__crt_stdio_output@@V?$standard_base@_WV?$stream_output_adapter@_W@__crt_stdio_output@@@2@@__crt_stdio_output@@CADH_N@Z 1004c010 f i libucrtd:output.obj
 0001:0004b050       ?adjust_hexit@?$output_processor@_WV?$string_output_adapter@_W@__crt_stdio_output@@V?$format_validation_base@_WV?$string_output_adapter@_W@__crt_stdio_output@@@2@@__crt_stdio_output@@CADH_N@Z 1004c050 f i libucrtd:output.obj
 0001:0004b090       ?adjust_hexit@?$output_processor@_WV?$string_output_adapter@_W@__crt_stdio_output@@V?$positional_parameter_base@_WV?$string_output_adapter@_W@__crt_stdio_output@@@2@@__crt_stdio_output@@CADH_N@Z 1004c090 f i libucrtd:output.obj
 0001:0004b0d0       ?adjust_hexit@?$output_processor@_WV?$string_output_adapter@_W@__crt_stdio_output@@V?$standard_base@_WV?$string_output_adapter@_W@__crt_stdio_output@@@2@@__crt_stdio_output@@CADH_N@Z 1004c0d0 f i libucrtd:output.obj
 0001:0004b110       ?advance_to_next_pass@?$positional_parameter_base@DV?$stream_output_adapter@D@__crt_stdio_output@@@__crt_stdio_output@@IAE_NXZ 1004c110 f i libucrtd:output.obj
 0001:0004b1b0       ?advance_to_next_pass@?$positional_parameter_base@DV?$string_output_adapter@D@__crt_stdio_output@@@__crt_stdio_output@@IAE_NXZ 1004c1b0 f i libucrtd:output.obj
 0001:0004b250       ?advance_to_next_pass@?$positional_parameter_base@_WV?$stream_output_adapter@_W@__crt_stdio_output@@@__crt_stdio_output@@IAE_NXZ 1004c250 f i libucrtd:output.obj
 0001:0004b2f0       ?advance_to_next_pass@?$positional_parameter_base@_WV?$string_output_adapter@_W@__crt_stdio_output@@@__crt_stdio_output@@IAE_NXZ 1004c2f0 f i libucrtd:output.obj
 0001:0004b390       ?advance_to_next_pass@?$standard_base@DV?$stream_output_adapter@D@__crt_stdio_output@@@__crt_stdio_output@@IAE_NXZ 1004c390 f i libucrtd:output.obj
 0001:0004b3e0       ?advance_to_next_pass@?$standard_base@DV?$string_output_adapter@D@__crt_stdio_output@@@__crt_stdio_output@@IAE_NXZ 1004c3e0 f i libucrtd:output.obj
 0001:0004b430       ?advance_to_next_pass@?$standard_base@_WV?$stream_output_adapter@_W@__crt_stdio_output@@@__crt_stdio_output@@IAE_NXZ 1004c430 f i libucrtd:output.obj
 0001:0004b480       ?advance_to_next_pass@?$standard_base@_WV?$string_output_adapter@_W@__crt_stdio_output@@@__crt_stdio_output@@IAE_NXZ 1004c480 f i libucrtd:output.obj
 0001:0004b4d0       ?crop_zeroes@__crt_stdio_output@@YAXPADQAU__crt_locale_pointers@@@Z 1004c4d0 f i libucrtd:output.obj
 0001:0004b5d0       ?find_next_state@?$output_processor@DV?$stream_output_adapter@D@__crt_stdio_output@@V?$format_validation_base@DV?$stream_output_adapter@D@__crt_stdio_output@@@2@@__crt_stdio_output@@ABE?AW4state@2@DW432@@Z 1004c5d0 f i libucrtd:output.obj
 0001:0004b650       ?find_next_state@?$output_processor@DV?$stream_output_adapter@D@__crt_stdio_output@@V?$positional_parameter_base@DV?$stream_output_adapter@D@__crt_stdio_output@@@2@@__crt_stdio_output@@ABE?AW4state@2@DW432@@Z 1004c650 f i libucrtd:output.obj
 0001:0004b6d0       ?find_next_state@?$output_processor@DV?$stream_output_adapter@D@__crt_stdio_output@@V?$standard_base@DV?$stream_output_adapter@D@__crt_stdio_output@@@2@@__crt_stdio_output@@ABE?AW4state@2@DW432@@Z 1004c6d0 f i libucrtd:output.obj
 0001:0004b750       ?find_next_state@?$output_processor@DV?$string_output_adapter@D@__crt_stdio_output@@V?$format_validation_base@DV?$string_output_adapter@D@__crt_stdio_output@@@2@@__crt_stdio_output@@ABE?AW4state@2@DW432@@Z 1004c750 f i libucrtd:output.obj
 0001:0004b7d0       ?find_next_state@?$output_processor@DV?$string_output_adapter@D@__crt_stdio_output@@V?$positional_parameter_base@DV?$string_output_adapter@D@__crt_stdio_output@@@2@@__crt_stdio_output@@ABE?AW4state@2@DW432@@Z 1004c7d0 f i libucrtd:output.obj
 0001:0004b850       ?find_next_state@?$output_processor@DV?$string_output_adapter@D@__crt_stdio_output@@V?$standard_base@DV?$string_output_adapter@D@__crt_stdio_output@@@2@@__crt_stdio_output@@ABE?AW4state@2@DW432@@Z 1004c850 f i libucrtd:output.obj
 0001:0004b8d0       ?find_next_state@?$output_processor@_WV?$stream_output_adapter@_W@__crt_stdio_output@@V?$format_validation_base@_WV?$stream_output_adapter@_W@__crt_stdio_output@@@2@@__crt_stdio_output@@ABE?AW4state@2@_WW432@@Z 1004c8d0 f i libucrtd:output.obj
 0001:0004b950       ?find_next_state@?$output_processor@_WV?$stream_output_adapter@_W@__crt_stdio_output@@V?$positional_parameter_base@_WV?$stream_output_adapter@_W@__crt_stdio_output@@@2@@__crt_stdio_output@@ABE?AW4state@2@_WW432@@Z 1004c950 f i libucrtd:output.obj
 0001:0004b9d0       ?find_next_state@?$output_processor@_WV?$stream_output_adapter@_W@__crt_stdio_output@@V?$standard_base@_WV?$stream_output_adapter@_W@__crt_stdio_output@@@2@@__crt_stdio_output@@ABE?AW4state@2@_WW432@@Z 1004c9d0 f i libucrtd:output.obj
 0001:0004ba50       ?find_next_state@?$output_processor@_WV?$string_output_adapter@_W@__crt_stdio_output@@V?$format_validation_base@_WV?$string_output_adapter@_W@__crt_stdio_output@@@2@@__crt_stdio_output@@ABE?AW4state@2@_WW432@@Z 1004ca50 f i libucrtd:output.obj
 0001:0004bad0       ?find_next_state@?$output_processor@_WV?$string_output_adapter@_W@__crt_stdio_output@@V?$positional_parameter_base@_WV?$string_output_adapter@_W@__crt_stdio_output@@@2@@__crt_stdio_output@@ABE?AW4state@2@_WW432@@Z 1004cad0 f i libucrtd:output.obj
 0001:0004bb50       ?find_next_state@?$output_processor@_WV?$string_output_adapter@_W@__crt_stdio_output@@V?$standard_base@_WV?$string_output_adapter@_W@__crt_stdio_output@@@2@@__crt_stdio_output@@ABE?AW4state@2@_WW432@@Z 1004cb50 f i libucrtd:output.obj
 0001:0004bbd0       ?force_decimal_point@__crt_stdio_output@@YAXPADQAU__crt_locale_pointers@@@Z 1004cbd0 f i libucrtd:output.obj
 0001:0004bca0       ?get@__crt_deferred_errno_cache@@QAEAAHXZ 1004cca0 f i libucrtd:output.obj
 0001:0004bcd0       ?get_flags@__crt_stdio_stream@@QBEJXZ 1004ccd0 f i libucrtd:output.obj
 0001:0004bcf0       ?get_parameter_type@?$positional_parameter_base@DV?$stream_output_adapter@D@__crt_stdio_output@@@__crt_stdio_output@@CA?AW4parameter_type@12@F@Z 1004ccf0 f i libucrtd:output.obj
 0001:0004bd00       ?get_parameter_type@?$positional_parameter_base@DV?$stream_output_adapter@D@__crt_stdio_output@@@__crt_stdio_output@@CA?AW4parameter_type@12@G@Z 1004cd00 f i libucrtd:output.obj
 0001:0004bd10       ?get_parameter_type@?$positional_parameter_base@DV?$stream_output_adapter@D@__crt_stdio_output@@@__crt_stdio_output@@CA?AW4parameter_type@12@H@Z 1004cd10 f i libucrtd:output.obj
 0001:0004bd20       ?get_parameter_type@?$positional_parameter_base@DV?$stream_output_adapter@D@__crt_stdio_output@@@__crt_stdio_output@@CA?AW4parameter_type@12@I@Z 1004cd20 f i libucrtd:output.obj
 0001:0004bd30       ?get_parameter_type@?$positional_parameter_base@DV?$stream_output_adapter@D@__crt_stdio_output@@@__crt_stdio_output@@CA?AW4parameter_type@12@U_CRT_DOUBLE@@@Z 1004cd30 f i libucrtd:output.obj
 0001:0004bd40       ?get_parameter_type@?$positional_parameter_base@DV?$stream_output_adapter@D@__crt_stdio_output@@@__crt_stdio_output@@CA?AW4parameter_type@12@_J@Z 1004cd40 f i libucrtd:output.obj
 0001:0004bd50       ?get_parameter_type@?$positional_parameter_base@DV?$stream_output_adapter@D@__crt_stdio_output@@@__crt_stdio_output@@CA?AW4parameter_type@12@_K@Z 1004cd50 f i libucrtd:output.obj
 0001:0004bd60       ?get_parameter_type@?$positional_parameter_base@DV?$stream_output_adapter@D@__crt_stdio_output@@@__crt_stdio_output@@CA?AW4parameter_type@12@_W@Z 1004cd60 f i libucrtd:output.obj
 0001:0004bd70       ?get_parameter_type@?$positional_parameter_base@DV?$string_output_adapter@D@__crt_stdio_output@@@__crt_stdio_output@@CA?AW4parameter_type@12@F@Z 1004cd70 f i libucrtd:output.obj
 0001:0004bd80       ?get_parameter_type@?$positional_parameter_base@DV?$string_output_adapter@D@__crt_stdio_output@@@__crt_stdio_output@@CA?AW4parameter_type@12@G@Z 1004cd80 f i libucrtd:output.obj
 0001:0004bd90       ?get_parameter_type@?$positional_parameter_base@DV?$string_output_adapter@D@__crt_stdio_output@@@__crt_stdio_output@@CA?AW4parameter_type@12@H@Z 1004cd90 f i libucrtd:output.obj
 0001:0004bda0       ?get_parameter_type@?$positional_parameter_base@DV?$string_output_adapter@D@__crt_stdio_output@@@__crt_stdio_output@@CA?AW4parameter_type@12@I@Z 1004cda0 f i libucrtd:output.obj
 0001:0004bdb0       ?get_parameter_type@?$positional_parameter_base@DV?$string_output_adapter@D@__crt_stdio_output@@@__crt_stdio_output@@CA?AW4parameter_type@12@U_CRT_DOUBLE@@@Z 1004cdb0 f i libucrtd:output.obj
 0001:0004bdc0       ?get_parameter_type@?$positional_parameter_base@DV?$string_output_adapter@D@__crt_stdio_output@@@__crt_stdio_output@@CA?AW4parameter_type@12@_J@Z 1004cdc0 f i libucrtd:output.obj
 0001:0004bdd0       ?get_parameter_type@?$positional_parameter_base@DV?$string_output_adapter@D@__crt_stdio_output@@@__crt_stdio_output@@CA?AW4parameter_type@12@_K@Z 1004cdd0 f i libucrtd:output.obj
 0001:0004bde0       ?get_parameter_type@?$positional_parameter_base@DV?$string_output_adapter@D@__crt_stdio_output@@@__crt_stdio_output@@CA?AW4parameter_type@12@_W@Z 1004cde0 f i libucrtd:output.obj
 0001:0004bdf0       ?get_parameter_type@?$positional_parameter_base@_WV?$stream_output_adapter@_W@__crt_stdio_output@@@__crt_stdio_output@@CA?AW4parameter_type@12@F@Z 1004cdf0 f i libucrtd:output.obj
 0001:0004be00       ?get_parameter_type@?$positional_parameter_base@_WV?$stream_output_adapter@_W@__crt_stdio_output@@@__crt_stdio_output@@CA?AW4parameter_type@12@G@Z 1004ce00 f i libucrtd:output.obj
 0001:0004be10       ?get_parameter_type@?$positional_parameter_base@_WV?$stream_output_adapter@_W@__crt_stdio_output@@@__crt_stdio_output@@CA?AW4parameter_type@12@H@Z 1004ce10 f i libucrtd:output.obj
 0001:0004be20       ?get_parameter_type@?$positional_parameter_base@_WV?$stream_output_adapter@_W@__crt_stdio_output@@@__crt_stdio_output@@CA?AW4parameter_type@12@I@Z 1004ce20 f i libucrtd:output.obj
 0001:0004be30       ?get_parameter_type@?$positional_parameter_base@_WV?$stream_output_adapter@_W@__crt_stdio_output@@@__crt_stdio_output@@CA?AW4parameter_type@12@U_CRT_DOUBLE@@@Z 1004ce30 f i libucrtd:output.obj
 0001:0004be40       ?get_parameter_type@?$positional_parameter_base@_WV?$stream_output_adapter@_W@__crt_stdio_output@@@__crt_stdio_output@@CA?AW4parameter_type@12@_J@Z 1004ce40 f i libucrtd:output.obj
 0001:0004be50       ?get_parameter_type@?$positional_parameter_base@_WV?$stream_output_adapter@_W@__crt_stdio_output@@@__crt_stdio_output@@CA?AW4parameter_type@12@_K@Z 1004ce50 f i libucrtd:output.obj
 0001:0004be60       ?get_parameter_type@?$positional_parameter_base@_WV?$stream_output_adapter@_W@__crt_stdio_output@@@__crt_stdio_output@@CA?AW4parameter_type@12@_W@Z 1004ce60 f i libucrtd:output.obj
 0001:0004be70       ?get_parameter_type@?$positional_parameter_base@_WV?$string_output_adapter@_W@__crt_stdio_output@@@__crt_stdio_output@@CA?AW4parameter_type@12@F@Z 1004ce70 f i libucrtd:output.obj
 0001:0004be80       ?get_parameter_type@?$positional_parameter_base@_WV?$string_output_adapter@_W@__crt_stdio_output@@@__crt_stdio_output@@CA?AW4parameter_type@12@G@Z 1004ce80 f i libucrtd:output.obj
 0001:0004be90       ?get_parameter_type@?$positional_parameter_base@_WV?$string_output_adapter@_W@__crt_stdio_output@@@__crt_stdio_output@@CA?AW4parameter_type@12@H@Z 1004ce90 f i libucrtd:output.obj
 0001:0004bea0       ?get_parameter_type@?$positional_parameter_base@_WV?$string_output_adapter@_W@__crt_stdio_output@@@__crt_stdio_output@@CA?AW4parameter_type@12@I@Z 1004cea0 f i libucrtd:output.obj
 0001:0004beb0       ?get_parameter_type@?$positional_parameter_base@_WV?$string_output_adapter@_W@__crt_stdio_output@@@__crt_stdio_output@@CA?AW4parameter_type@12@U_CRT_DOUBLE@@@Z 1004ceb0 f i libucrtd:output.obj
 0001:0004bec0       ?get_parameter_type@?$positional_parameter_base@_WV?$string_output_adapter@_W@__crt_stdio_output@@@__crt_stdio_output@@CA?AW4parameter_type@12@_J@Z 1004cec0 f i libucrtd:output.obj
 0001:0004bed0       ?get_parameter_type@?$positional_parameter_base@_WV?$string_output_adapter@_W@__crt_stdio_output@@@__crt_stdio_output@@CA?AW4parameter_type@12@_K@Z 1004ced0 f i libucrtd:output.obj
 0001:0004bee0       ?get_parameter_type@?$positional_parameter_base@_WV?$string_output_adapter@_W@__crt_stdio_output@@@__crt_stdio_output@@CA?AW4parameter_type@12@_W@Z 1004cee0 f i libucrtd:output.obj
 0001:0004bef0       ?has_flag@?$output_processor@DV?$stream_output_adapter@D@__crt_stdio_output@@V?$format_validation_base@DV?$stream_output_adapter@D@__crt_stdio_output@@@2@@__crt_stdio_output@@ABE_NI@Z 1004cef0 f i libucrtd:output.obj
 0001:0004bf20       ?has_flag@?$output_processor@DV?$stream_output_adapter@D@__crt_stdio_output@@V?$positional_parameter_base@DV?$stream_output_adapter@D@__crt_stdio_output@@@2@@__crt_stdio_output@@ABE_NI@Z 1004cf20 f i libucrtd:output.obj
 0001:0004bf50       ?has_flag@?$output_processor@DV?$stream_output_adapter@D@__crt_stdio_output@@V?$standard_base@DV?$stream_output_adapter@D@__crt_stdio_output@@@2@@__crt_stdio_output@@ABE_NI@Z 1004cf50 f i libucrtd:output.obj
 0001:0004bf80       ?has_flag@?$output_processor@DV?$string_output_adapter@D@__crt_stdio_output@@V?$format_validation_base@DV?$string_output_adapter@D@__crt_stdio_output@@@2@@__crt_stdio_output@@ABE_NI@Z 1004cf80 f i libucrtd:output.obj
 0001:0004bfb0       ?has_flag@?$output_processor@DV?$string_output_adapter@D@__crt_stdio_output@@V?$positional_parameter_base@DV?$string_output_adapter@D@__crt_stdio_output@@@2@@__crt_stdio_output@@ABE_NI@Z 1004cfb0 f i libucrtd:output.obj
 0001:0004bfe0       ?has_flag@?$output_processor@DV?$string_output_adapter@D@__crt_stdio_output@@V?$standard_base@DV?$string_output_adapter@D@__crt_stdio_output@@@2@@__crt_stdio_output@@ABE_NI@Z 1004cfe0 f i libucrtd:output.obj
 0001:0004c010       ?has_flag@?$output_processor@_WV?$stream_output_adapter@_W@__crt_stdio_output@@V?$format_validation_base@_WV?$stream_output_adapter@_W@__crt_stdio_output@@@2@@__crt_stdio_output@@ABE_NI@Z 1004d010 f i libucrtd:output.obj
 0001:0004c040       ?has_flag@?$output_processor@_WV?$stream_output_adapter@_W@__crt_stdio_output@@V?$positional_parameter_base@_WV?$stream_output_adapter@_W@__crt_stdio_output@@@2@@__crt_stdio_output@@ABE_NI@Z 1004d040 f i libucrtd:output.obj
 0001:0004c070       ?has_flag@?$output_processor@_WV?$stream_output_adapter@_W@__crt_stdio_output@@V?$standard_base@_WV?$stream_output_adapter@_W@__crt_stdio_output@@@2@@__crt_stdio_output@@ABE_NI@Z 1004d070 f i libucrtd:output.obj
 0001:0004c0a0       ?has_flag@?$output_processor@_WV?$string_output_adapter@_W@__crt_stdio_output@@V?$format_validation_base@_WV?$string_output_adapter@_W@__crt_stdio_output@@@2@@__crt_stdio_output@@ABE_NI@Z 1004d0a0 f i libucrtd:output.obj
 0001:0004c0d0       ?has_flag@?$output_processor@_WV?$string_output_adapter@_W@__crt_stdio_output@@V?$positional_parameter_base@_WV?$string_output_adapter@_W@__crt_stdio_output@@@2@@__crt_stdio_output@@ABE_NI@Z 1004d0d0 f i libucrtd:output.obj
 0001:0004c100       ?has_flag@?$output_processor@_WV?$string_output_adapter@_W@__crt_stdio_output@@V?$standard_base@_WV?$string_output_adapter@_W@__crt_stdio_output@@@2@@__crt_stdio_output@@ABE_NI@Z 1004d100 f i libucrtd:output.obj
 0001:0004c130       ?is_positional_parameter_reappearance_consistent@?$positional_parameter_base@DV?$stream_output_adapter@D@__crt_stdio_output@@@__crt_stdio_output@@AAE_NABUparameter_data@12@W4parameter_type@12@DW4length_modifier@2@@Z 1004d130 f i libucrtd:output.obj
 0001:0004c360       ?is_positional_parameter_reappearance_consistent@?$positional_parameter_base@DV?$string_output_adapter@D@__crt_stdio_output@@@__crt_stdio_output@@AAE_NABUparameter_data@12@W4parameter_type@12@DW4length_modifier@2@@Z 1004d360 f i libucrtd:output.obj
 0001:0004c590       ?is_positional_parameter_reappearance_consistent@?$positional_parameter_base@_WV?$stream_output_adapter@_W@__crt_stdio_output@@@__crt_stdio_output@@AAE_NABUparameter_data@12@W4parameter_type@12@_WW4length_modifier@2@@Z 1004d590 f i libucrtd:output.obj
 0001:0004c7c0       ?is_positional_parameter_reappearance_consistent@?$positional_parameter_base@_WV?$string_output_adapter@_W@__crt_stdio_output@@@__crt_stdio_output@@AAE_NABUparameter_data@12@W4parameter_type@12@_WW4length_modifier@2@@Z 1004d7c0 f i libucrtd:output.obj
 0001:0004c9f0       ?is_string_backed@__crt_stdio_stream@@QBE_NXZ 1004d9f0 f i libucrtd:output.obj
 0001:0004ca30       ?narrow_null_string@?$output_processor@DV?$stream_output_adapter@D@__crt_stdio_output@@V?$format_validation_base@DV?$stream_output_adapter@D@__crt_stdio_output@@@2@@__crt_stdio_output@@CAPADXZ 1004da30 f i libucrtd:output.obj
 0001:0004ca40       ?narrow_null_string@?$output_processor@DV?$stream_output_adapter@D@__crt_stdio_output@@V?$positional_parameter_base@DV?$stream_output_adapter@D@__crt_stdio_output@@@2@@__crt_stdio_output@@CAPADXZ 1004da40 f i libucrtd:output.obj
 0001:0004ca50       ?narrow_null_string@?$output_processor@DV?$stream_output_adapter@D@__crt_stdio_output@@V?$standard_base@DV?$stream_output_adapter@D@__crt_stdio_output@@@2@@__crt_stdio_output@@CAPADXZ 1004da50 f i libucrtd:output.obj
 0001:0004ca60       ?narrow_null_string@?$output_processor@DV?$string_output_adapter@D@__crt_stdio_output@@V?$format_validation_base@DV?$string_output_adapter@D@__crt_stdio_output@@@2@@__crt_stdio_output@@CAPADXZ 1004da60 f i libucrtd:output.obj
 0001:0004ca70       ?narrow_null_string@?$output_processor@DV?$string_output_adapter@D@__crt_stdio_output@@V?$positional_parameter_base@DV?$string_output_adapter@D@__crt_stdio_output@@@2@@__crt_stdio_output@@CAPADXZ 1004da70 f i libucrtd:output.obj
 0001:0004ca80       ?narrow_null_string@?$output_processor@DV?$string_output_adapter@D@__crt_stdio_output@@V?$standard_base@DV?$string_output_adapter@D@__crt_stdio_output@@@2@@__crt_stdio_output@@CAPADXZ 1004da80 f i libucrtd:output.obj
 0001:0004ca90       ?narrow_null_string@?$output_processor@_WV?$stream_output_adapter@_W@__crt_stdio_output@@V?$format_validation_base@_WV?$stream_output_adapter@_W@__crt_stdio_output@@@2@@__crt_stdio_output@@CAPADXZ 1004da90 f i libucrtd:output.obj
 0001:0004caa0       ?narrow_null_string@?$output_processor@_WV?$stream_output_adapter@_W@__crt_stdio_output@@V?$positional_parameter_base@_WV?$stream_output_adapter@_W@__crt_stdio_output@@@2@@__crt_stdio_output@@CAPADXZ 1004daa0 f i libucrtd:output.obj
 0001:0004cab0       ?narrow_null_string@?$output_processor@_WV?$stream_output_adapter@_W@__crt_stdio_output@@V?$standard_base@_WV?$stream_output_adapter@_W@__crt_stdio_output@@@2@@__crt_stdio_output@@CAPADXZ 1004dab0 f i libucrtd:output.obj
 0001:0004cac0       ?narrow_null_string@?$output_processor@_WV?$string_output_adapter@_W@__crt_stdio_output@@V?$format_validation_base@_WV?$string_output_adapter@_W@__crt_stdio_output@@@2@@__crt_stdio_output@@CAPADXZ 1004dac0 f i libucrtd:output.obj
 0001:0004cad0       ?narrow_null_string@?$output_processor@_WV?$string_output_adapter@_W@__crt_stdio_output@@V?$positional_parameter_base@_WV?$string_output_adapter@_W@__crt_stdio_output@@@2@@__crt_stdio_output@@CAPADXZ 1004dad0 f i libucrtd:output.obj
 0001:0004cae0       ?narrow_null_string@?$output_processor@_WV?$string_output_adapter@_W@__crt_stdio_output@@V?$standard_base@_WV?$string_output_adapter@_W@__crt_stdio_output@@@2@@__crt_stdio_output@@CAPADXZ 1004dae0 f i libucrtd:output.obj
 0001:0004caf0       ?parse_int_from_format_string@?$output_processor@DV?$stream_output_adapter@D@__crt_stdio_output@@V?$format_validation_base@DV?$stream_output_adapter@D@__crt_stdio_output@@@2@@__crt_stdio_output@@AAE_NQAH@Z 1004daf0 f i libucrtd:output.obj
 0001:0004cbb0       ?parse_int_from_format_string@?$output_processor@DV?$stream_output_adapter@D@__crt_stdio_output@@V?$positional_parameter_base@DV?$stream_output_adapter@D@__crt_stdio_output@@@2@@__crt_stdio_output@@AAE_NQAH@Z 1004dbb0 f i libucrtd:output.obj
 0001:0004cc70       ?parse_int_from_format_string@?$output_processor@DV?$stream_output_adapter@D@__crt_stdio_output@@V?$standard_base@DV?$stream_output_adapter@D@__crt_stdio_output@@@2@@__crt_stdio_output@@AAE_NQAH@Z 1004dc70 f i libucrtd:output.obj
 0001:0004cd30       ?parse_int_from_format_string@?$output_processor@DV?$string_output_adapter@D@__crt_stdio_output@@V?$format_validation_base@DV?$string_output_adapter@D@__crt_stdio_output@@@2@@__crt_stdio_output@@AAE_NQAH@Z 1004dd30 f i libucrtd:output.obj
 0001:0004cdf0       ?parse_int_from_format_string@?$output_processor@DV?$string_output_adapter@D@__crt_stdio_output@@V?$positional_parameter_base@DV?$string_output_adapter@D@__crt_stdio_output@@@2@@__crt_stdio_output@@AAE_NQAH@Z 1004ddf0 f i libucrtd:output.obj
 0001:0004ceb0       ?parse_int_from_format_string@?$output_processor@DV?$string_output_adapter@D@__crt_stdio_output@@V?$standard_base@DV?$string_output_adapter@D@__crt_stdio_output@@@2@@__crt_stdio_output@@AAE_NQAH@Z 1004deb0 f i libucrtd:output.obj
 0001:0004cf70       ?parse_int_from_format_string@?$output_processor@_WV?$stream_output_adapter@_W@__crt_stdio_output@@V?$format_validation_base@_WV?$stream_output_adapter@_W@__crt_stdio_output@@@2@@__crt_stdio_output@@AAE_NQAH@Z 1004df70 f i libucrtd:output.obj
 0001:0004d030       ?parse_int_from_format_string@?$output_processor@_WV?$stream_output_adapter@_W@__crt_stdio_output@@V?$positional_parameter_base@_WV?$stream_output_adapter@_W@__crt_stdio_output@@@2@@__crt_stdio_output@@AAE_NQAH@Z 1004e030 f i libucrtd:output.obj
 0001:0004d0f0       ?parse_int_from_format_string@?$output_processor@_WV?$stream_output_adapter@_W@__crt_stdio_output@@V?$standard_base@_WV?$stream_output_adapter@_W@__crt_stdio_output@@@2@@__crt_stdio_output@@AAE_NQAH@Z 1004e0f0 f i libucrtd:output.obj
 0001:0004d1b0       ?parse_int_from_format_string@?$output_processor@_WV?$string_output_adapter@_W@__crt_stdio_output@@V?$format_validation_base@_WV?$string_output_adapter@_W@__crt_stdio_output@@@2@@__crt_stdio_output@@AAE_NQAH@Z 1004e1b0 f i libucrtd:output.obj
 0001:0004d270       ?parse_int_from_format_string@?$output_processor@_WV?$string_output_adapter@_W@__crt_stdio_output@@V?$positional_parameter_base@_WV?$string_output_adapter@_W@__crt_stdio_output@@@2@@__crt_stdio_output@@AAE_NQAH@Z 1004e270 f i libucrtd:output.obj
 0001:0004d330       ?parse_int_from_format_string@?$output_processor@_WV?$string_output_adapter@_W@__crt_stdio_output@@V?$standard_base@_WV?$string_output_adapter@_W@__crt_stdio_output@@@2@@__crt_stdio_output@@AAE_NQAH@Z 1004e330 f i libucrtd:output.obj
 0001:0004d3f0       ?process@?$output_processor@DV?$stream_output_adapter@D@__crt_stdio_output@@V?$format_validation_base@DV?$stream_output_adapter@D@__crt_stdio_output@@@2@@__crt_stdio_output@@QAEHXZ 1004e3f0 f i libucrtd:output.obj
 0001:0004d6a0       ?process@?$output_processor@DV?$stream_output_adapter@D@__crt_stdio_output@@V?$positional_parameter_base@DV?$stream_output_adapter@D@__crt_stdio_output@@@2@@__crt_stdio_output@@QAEHXZ 1004e6a0 f i libucrtd:output.obj
 0001:0004d950       ?process@?$output_processor@DV?$stream_output_adapter@D@__crt_stdio_output@@V?$standard_base@DV?$stream_output_adapter@D@__crt_stdio_output@@@2@@__crt_stdio_output@@QAEHXZ 1004e950 f i libucrtd:output.obj
 0001:0004dc00       ?process@?$output_processor@DV?$string_output_adapter@D@__crt_stdio_output@@V?$format_validation_base@DV?$string_output_adapter@D@__crt_stdio_output@@@2@@__crt_stdio_output@@QAEHXZ 1004ec00 f i libucrtd:output.obj
 0001:0004deb0       ?process@?$output_processor@DV?$string_output_adapter@D@__crt_stdio_output@@V?$positional_parameter_base@DV?$string_output_adapter@D@__crt_stdio_output@@@2@@__crt_stdio_output@@QAEHXZ 1004eeb0 f i libucrtd:output.obj
 0001:0004e160       ?process@?$output_processor@DV?$string_output_adapter@D@__crt_stdio_output@@V?$standard_base@DV?$string_output_adapter@D@__crt_stdio_output@@@2@@__crt_stdio_output@@QAEHXZ 1004f160 f i libucrtd:output.obj
 0001:0004e410       ?process@?$output_processor@_WV?$stream_output_adapter@_W@__crt_stdio_output@@V?$format_validation_base@_WV?$stream_output_adapter@_W@__crt_stdio_output@@@2@@__crt_stdio_output@@QAEHXZ 1004f410 f i libucrtd:output.obj
 0001:0004e6c0       ?process@?$output_processor@_WV?$stream_output_adapter@_W@__crt_stdio_output@@V?$positional_parameter_base@_WV?$stream_output_adapter@_W@__crt_stdio_output@@@2@@__crt_stdio_output@@QAEHXZ 1004f6c0 f i libucrtd:output.obj
 0001:0004e970       ?process@?$output_processor@_WV?$stream_output_adapter@_W@__crt_stdio_output@@V?$standard_base@_WV?$stream_output_adapter@_W@__crt_stdio_output@@@2@@__crt_stdio_output@@QAEHXZ 1004f970 f i libucrtd:output.obj
 0001:0004ec20       ?process@?$output_processor@_WV?$string_output_adapter@_W@__crt_stdio_output@@V?$format_validation_base@_WV?$string_output_adapter@_W@__crt_stdio_output@@@2@@__crt_stdio_output@@QAEHXZ 1004fc20 f i libucrtd:output.obj
 0001:0004eed0       ?process@?$output_processor@_WV?$string_output_adapter@_W@__crt_stdio_output@@V?$positional_parameter_base@_WV?$string_output_adapter@_W@__crt_stdio_output@@@2@@__crt_stdio_output@@QAEHXZ 1004fed0 f i libucrtd:output.obj
 0001:0004f180       ?process@?$output_processor@_WV?$string_output_adapter@_W@__crt_stdio_output@@V?$standard_base@_WV?$string_output_adapter@_W@__crt_stdio_output@@@2@@__crt_stdio_output@@QAEHXZ 10050180 f i libucrtd:output.obj
 0001:0004f430       ?public_stream@__crt_stdio_stream@@QBEPAU_iobuf@@XZ 10050430 f i libucrtd:output.obj
 0001:0004f450       ?set_flag@?$output_processor@DV?$stream_output_adapter@D@__crt_stdio_output@@V?$format_validation_base@DV?$stream_output_adapter@D@__crt_stdio_output@@@2@@__crt_stdio_output@@AAEXI@Z 10050450 f i libucrtd:output.obj
 0001:0004f470       ?set_flag@?$output_processor@DV?$stream_output_adapter@D@__crt_stdio_output@@V?$positional_parameter_base@DV?$stream_output_adapter@D@__crt_stdio_output@@@2@@__crt_stdio_output@@AAEXI@Z 10050470 f i libucrtd:output.obj
 0001:0004f490       ?set_flag@?$output_processor@DV?$stream_output_adapter@D@__crt_stdio_output@@V?$standard_base@DV?$stream_output_adapter@D@__crt_stdio_output@@@2@@__crt_stdio_output@@AAEXI@Z 10050490 f i libucrtd:output.obj
 0001:0004f4b0       ?set_flag@?$output_processor@DV?$string_output_adapter@D@__crt_stdio_output@@V?$format_validation_base@DV?$string_output_adapter@D@__crt_stdio_output@@@2@@__crt_stdio_output@@AAEXI@Z 100504b0 f i libucrtd:output.obj
 0001:0004f4d0       ?set_flag@?$output_processor@DV?$string_output_adapter@D@__crt_stdio_output@@V?$positional_parameter_base@DV?$string_output_adapter@D@__crt_stdio_output@@@2@@__crt_stdio_output@@AAEXI@Z 100504d0 f i libucrtd:output.obj
 0001:0004f4f0       ?set_flag@?$output_processor@DV?$string_output_adapter@D@__crt_stdio_output@@V?$standard_base@DV?$string_output_adapter@D@__crt_stdio_output@@@2@@__crt_stdio_output@@AAEXI@Z 100504f0 f i libucrtd:output.obj
 0001:0004f510       ?set_flag@?$output_processor@_WV?$stream_output_adapter@_W@__crt_stdio_output@@V?$format_validation_base@_WV?$stream_output_adapter@_W@__crt_stdio_output@@@2@@__crt_stdio_output@@AAEXI@Z 10050510 f i libucrtd:output.obj
 0001:0004f530       ?set_flag@?$output_processor@_WV?$stream_output_adapter@_W@__crt_stdio_output@@V?$positional_parameter_base@_WV?$stream_output_adapter@_W@__crt_stdio_output@@@2@@__crt_stdio_output@@AAEXI@Z 10050530 f i libucrtd:output.obj
 0001:0004f550       ?set_flag@?$output_processor@_WV?$stream_output_adapter@_W@__crt_stdio_output@@V?$standard_base@_WV?$stream_output_adapter@_W@__crt_stdio_output@@@2@@__crt_stdio_output@@AAEXI@Z 10050550 f i libucrtd:output.obj
 0001:0004f570       ?set_flag@?$output_processor@_WV?$string_output_adapter@_W@__crt_stdio_output@@V?$format_validation_base@_WV?$string_output_adapter@_W@__crt_stdio_output@@@2@@__crt_stdio_output@@AAEXI@Z 10050570 f i libucrtd:output.obj
 0001:0004f590       ?set_flag@?$output_processor@_WV?$string_output_adapter@_W@__crt_stdio_output@@V?$positional_parameter_base@_WV?$string_output_adapter@_W@__crt_stdio_output@@@2@@__crt_stdio_output@@AAEXI@Z 10050590 f i libucrtd:output.obj
 0001:0004f5b0       ?set_flag@?$output_processor@_WV?$string_output_adapter@_W@__crt_stdio_output@@V?$standard_base@_WV?$string_output_adapter@_W@__crt_stdio_output@@@2@@__crt_stdio_output@@AAEXI@Z 100505b0 f i libucrtd:output.obj
 0001:0004f5d0       ?should_format@?$positional_parameter_base@DV?$stream_output_adapter@D@__crt_stdio_output@@@__crt_stdio_output@@IAE_NXZ 100505d0 f i libucrtd:output.obj
 0001:0004f610       ?should_format@?$positional_parameter_base@DV?$string_output_adapter@D@__crt_stdio_output@@@__crt_stdio_output@@IAE_NXZ 10050610 f i libucrtd:output.obj
 0001:0004f650       ?should_format@?$positional_parameter_base@_WV?$stream_output_adapter@_W@__crt_stdio_output@@@__crt_stdio_output@@IAE_NXZ 10050650 f i libucrtd:output.obj
 0001:0004f690       ?should_format@?$positional_parameter_base@_WV?$string_output_adapter@_W@__crt_stdio_output@@@__crt_stdio_output@@IAE_NXZ 10050690 f i libucrtd:output.obj
 0001:0004f6d0       ?should_format@?$standard_base@DV?$stream_output_adapter@D@__crt_stdio_output@@@__crt_stdio_output@@IAE_NXZ 100506d0 f i libucrtd:output.obj
 0001:0004f6e0       ?should_format@?$standard_base@DV?$string_output_adapter@D@__crt_stdio_output@@@__crt_stdio_output@@IAE_NXZ 100506e0 f i libucrtd:output.obj
 0001:0004f6f0       ?should_format@?$standard_base@_WV?$stream_output_adapter@_W@__crt_stdio_output@@@__crt_stdio_output@@IAE_NXZ 100506f0 f i libucrtd:output.obj
 0001:0004f700       ?should_format@?$standard_base@_WV?$string_output_adapter@_W@__crt_stdio_output@@@__crt_stdio_output@@IAE_NXZ 10050700 f i libucrtd:output.obj
 0001:0004f710       ?should_skip_normal_state_processing@?$positional_parameter_base@DV?$stream_output_adapter@D@__crt_stdio_output@@@__crt_stdio_output@@IAE_NXZ 10050710 f i libucrtd:output.obj
 0001:0004f760       ?should_skip_normal_state_processing@?$positional_parameter_base@DV?$string_output_adapter@D@__crt_stdio_output@@@__crt_stdio_output@@IAE_NXZ 10050760 f i libucrtd:output.obj
 0001:0004f7b0       ?should_skip_normal_state_processing@?$positional_parameter_base@_WV?$stream_output_adapter@_W@__crt_stdio_output@@@__crt_stdio_output@@IAE_NXZ 100507b0 f i libucrtd:output.obj
 0001:0004f800       ?should_skip_normal_state_processing@?$positional_parameter_base@_WV?$string_output_adapter@_W@__crt_stdio_output@@@__crt_stdio_output@@IAE_NXZ 10050800 f i libucrtd:output.obj
 0001:0004f850       ?should_skip_normal_state_processing@?$standard_base@DV?$stream_output_adapter@D@__crt_stdio_output@@@__crt_stdio_output@@IAE_NXZ 10050850 f i libucrtd:output.obj
 0001:0004f860       ?should_skip_normal_state_processing@?$standard_base@DV?$string_output_adapter@D@__crt_stdio_output@@@__crt_stdio_output@@IAE_NXZ 10050860 f i libucrtd:output.obj
 0001:0004f870       ?should_skip_normal_state_processing@?$standard_base@_WV?$stream_output_adapter@_W@__crt_stdio_output@@@__crt_stdio_output@@IAE_NXZ 10050870 f i libucrtd:output.obj
 0001:0004f880       ?should_skip_normal_state_processing@?$standard_base@_WV?$string_output_adapter@_W@__crt_stdio_output@@@__crt_stdio_output@@IAE_NXZ 10050880 f i libucrtd:output.obj
 0001:0004f890       ?should_skip_type_state_output@?$positional_parameter_base@DV?$stream_output_adapter@D@__crt_stdio_output@@@__crt_stdio_output@@IBE_NXZ 10050890 f i libucrtd:output.obj
 0001:0004f8d0       ?should_skip_type_state_output@?$positional_parameter_base@DV?$string_output_adapter@D@__crt_stdio_output@@@__crt_stdio_output@@IBE_NXZ 100508d0 f i libucrtd:output.obj
 0001:0004f910       ?should_skip_type_state_output@?$positional_parameter_base@_WV?$stream_output_adapter@_W@__crt_stdio_output@@@__crt_stdio_output@@IBE_NXZ 10050910 f i libucrtd:output.obj
 0001:0004f950       ?should_skip_type_state_output@?$positional_parameter_base@_WV?$string_output_adapter@_W@__crt_stdio_output@@@__crt_stdio_output@@IBE_NXZ 10050950 f i libucrtd:output.obj
 0001:0004f990       ?should_skip_type_state_output@?$standard_base@DV?$stream_output_adapter@D@__crt_stdio_output@@@__crt_stdio_output@@IBE_NXZ 10050990 f i libucrtd:output.obj
 0001:0004f9a0       ?should_skip_type_state_output@?$standard_base@DV?$string_output_adapter@D@__crt_stdio_output@@@__crt_stdio_output@@IBE_NXZ 100509a0 f i libucrtd:output.obj
 0001:0004f9b0       ?should_skip_type_state_output@?$standard_base@_WV?$stream_output_adapter@_W@__crt_stdio_output@@@__crt_stdio_output@@IBE_NXZ 100509b0 f i libucrtd:output.obj
 0001:0004f9c0       ?should_skip_type_state_output@?$standard_base@_WV?$string_output_adapter@_W@__crt_stdio_output@@@__crt_stdio_output@@IBE_NXZ 100509c0 f i libucrtd:output.obj
 0001:0004f9d0       ?state_case_dot@?$output_processor@DV?$stream_output_adapter@D@__crt_stdio_output@@V?$format_validation_base@DV?$stream_output_adapter@D@__crt_stdio_output@@@2@@__crt_stdio_output@@AAE_NXZ 100509d0 f i libucrtd:output.obj
 0001:0004f9f0       ?state_case_dot@?$output_processor@DV?$stream_output_adapter@D@__crt_stdio_output@@V?$positional_parameter_base@DV?$stream_output_adapter@D@__crt_stdio_output@@@2@@__crt_stdio_output@@AAE_NXZ 100509f0 f i libucrtd:output.obj
 0001:0004fa10       ?state_case_dot@?$output_processor@DV?$stream_output_adapter@D@__crt_stdio_output@@V?$standard_base@DV?$stream_output_adapter@D@__crt_stdio_output@@@2@@__crt_stdio_output@@AAE_NXZ 10050a10 f i libucrtd:output.obj
 0001:0004fa30       ?state_case_dot@?$output_processor@DV?$string_output_adapter@D@__crt_stdio_output@@V?$format_validation_base@DV?$string_output_adapter@D@__crt_stdio_output@@@2@@__crt_stdio_output@@AAE_NXZ 10050a30 f i libucrtd:output.obj
 0001:0004fa50       ?state_case_dot@?$output_processor@DV?$string_output_adapter@D@__crt_stdio_output@@V?$positional_parameter_base@DV?$string_output_adapter@D@__crt_stdio_output@@@2@@__crt_stdio_output@@AAE_NXZ 10050a50 f i libucrtd:output.obj
 0001:0004fa70       ?state_case_dot@?$output_processor@DV?$string_output_adapter@D@__crt_stdio_output@@V?$standard_base@DV?$string_output_adapter@D@__crt_stdio_output@@@2@@__crt_stdio_output@@AAE_NXZ 10050a70 f i libucrtd:output.obj
 0001:0004fa90       ?state_case_dot@?$output_processor@_WV?$stream_output_adapter@_W@__crt_stdio_output@@V?$format_validation_base@_WV?$stream_output_adapter@_W@__crt_stdio_output@@@2@@__crt_stdio_output@@AAE_NXZ 10050a90 f i libucrtd:output.obj
 0001:0004fab0       ?state_case_dot@?$output_processor@_WV?$stream_output_adapter@_W@__crt_stdio_output@@V?$positional_parameter_base@_WV?$stream_output_adapter@_W@__crt_stdio_output@@@2@@__crt_stdio_output@@AAE_NXZ 10050ab0 f i libucrtd:output.obj
 0001:0004fad0       ?state_case_dot@?$output_processor@_WV?$stream_output_adapter@_W@__crt_stdio_output@@V?$standard_base@_WV?$stream_output_adapter@_W@__crt_stdio_output@@@2@@__crt_stdio_output@@AAE_NXZ 10050ad0 f i libucrtd:output.obj
 0001:0004faf0       ?state_case_dot@?$output_processor@_WV?$string_output_adapter@_W@__crt_stdio_output@@V?$format_validation_base@_WV?$string_output_adapter@_W@__crt_stdio_output@@@2@@__crt_stdio_output@@AAE_NXZ 10050af0 f i libucrtd:output.obj
 0001:0004fb10       ?state_case_dot@?$output_processor@_WV?$string_output_adapter@_W@__crt_stdio_output@@V?$positional_parameter_base@_WV?$string_output_adapter@_W@__crt_stdio_output@@@2@@__crt_stdio_output@@AAE_NXZ 10050b10 f i libucrtd:output.obj
 0001:0004fb30       ?state_case_dot@?$output_processor@_WV?$string_output_adapter@_W@__crt_stdio_output@@V?$standard_base@_WV?$string_output_adapter@_W@__crt_stdio_output@@@2@@__crt_stdio_output@@AAE_NXZ 10050b30 f i libucrtd:output.obj
 0001:0004fb50       ?state_case_flag@?$output_processor@DV?$stream_output_adapter@D@__crt_stdio_output@@V?$format_validation_base@DV?$stream_output_adapter@D@__crt_stdio_output@@@2@@__crt_stdio_output@@AAE_NXZ 10050b50 f i libucrtd:output.obj
 0001:0004fc00       ?state_case_flag@?$output_processor@DV?$stream_output_adapter@D@__crt_stdio_output@@V?$positional_parameter_base@DV?$stream_output_adapter@D@__crt_stdio_output@@@2@@__crt_stdio_output@@AAE_NXZ 10050c00 f i libucrtd:output.obj
 0001:0004fcb0       ?state_case_flag@?$output_processor@DV?$stream_output_adapter@D@__crt_stdio_output@@V?$standard_base@DV?$stream_output_adapter@D@__crt_stdio_output@@@2@@__crt_stdio_output@@AAE_NXZ 10050cb0 f i libucrtd:output.obj
 0001:0004fd60       ?state_case_flag@?$output_processor@DV?$string_output_adapter@D@__crt_stdio_output@@V?$format_validation_base@DV?$string_output_adapter@D@__crt_stdio_output@@@2@@__crt_stdio_output@@AAE_NXZ 10050d60 f i libucrtd:output.obj
 0001:0004fe10       ?state_case_flag@?$output_processor@DV?$string_output_adapter@D@__crt_stdio_output@@V?$positional_parameter_base@DV?$string_output_adapter@D@__crt_stdio_output@@@2@@__crt_stdio_output@@AAE_NXZ 10050e10 f i libucrtd:output.obj
 0001:0004fec0       ?state_case_flag@?$output_processor@DV?$string_output_adapter@D@__crt_stdio_output@@V?$standard_base@DV?$string_output_adapter@D@__crt_stdio_output@@@2@@__crt_stdio_output@@AAE_NXZ 10050ec0 f i libucrtd:output.obj
 0001:0004ff70       ?state_case_flag@?$output_processor@_WV?$stream_output_adapter@_W@__crt_stdio_output@@V?$format_validation_base@_WV?$stream_output_adapter@_W@__crt_stdio_output@@@2@@__crt_stdio_output@@AAE_NXZ 10050f70 f i libucrtd:output.obj
 0001:00050020       ?state_case_flag@?$output_processor@_WV?$stream_output_adapter@_W@__crt_stdio_output@@V?$positional_parameter_base@_WV?$stream_output_adapter@_W@__crt_stdio_output@@@2@@__crt_stdio_output@@AAE_NXZ 10051020 f i libucrtd:output.obj
 0001:000500d0       ?state_case_flag@?$output_processor@_WV?$stream_output_adapter@_W@__crt_stdio_output@@V?$standard_base@_WV?$stream_output_adapter@_W@__crt_stdio_output@@@2@@__crt_stdio_output@@AAE_NXZ 100510d0 f i libucrtd:output.obj
 0001:00050180       ?state_case_flag@?$output_processor@_WV?$string_output_adapter@_W@__crt_stdio_output@@V?$format_validation_base@_WV?$string_output_adapter@_W@__crt_stdio_output@@@2@@__crt_stdio_output@@AAE_NXZ 10051180 f i libucrtd:output.obj
 0001:00050230       ?state_case_flag@?$output_processor@_WV?$string_output_adapter@_W@__crt_stdio_output@@V?$positional_parameter_base@_WV?$string_output_adapter@_W@__crt_stdio_output@@@2@@__crt_stdio_output@@AAE_NXZ 10051230 f i libucrtd:output.obj
 0001:000502e0       ?state_case_flag@?$output_processor@_WV?$string_output_adapter@_W@__crt_stdio_output@@V?$standard_base@_WV?$string_output_adapter@_W@__crt_stdio_output@@@2@@__crt_stdio_output@@AAE_NXZ 100512e0 f i libucrtd:output.obj
 0001:00050390       ?state_case_normal@?$output_processor@DV?$stream_output_adapter@D@__crt_stdio_output@@V?$format_validation_base@DV?$stream_output_adapter@D@__crt_stdio_output@@@2@@__crt_stdio_output@@AAE_NXZ 10051390 f i libucrtd:output.obj
 0001:00050440       ?state_case_normal@?$output_processor@DV?$stream_output_adapter@D@__crt_stdio_output@@V?$positional_parameter_base@DV?$stream_output_adapter@D@__crt_stdio_output@@@2@@__crt_stdio_output@@AAE_NXZ 10051440 f i libucrtd:output.obj
 0001:000504f0       ?state_case_normal@?$output_processor@DV?$stream_output_adapter@D@__crt_stdio_output@@V?$standard_base@DV?$stream_output_adapter@D@__crt_stdio_output@@@2@@__crt_stdio_output@@AAE_NXZ 100514f0 f i libucrtd:output.obj
 0001:000505a0       ?state_case_normal@?$output_processor@DV?$string_output_adapter@D@__crt_stdio_output@@V?$format_validation_base@DV?$string_output_adapter@D@__crt_stdio_output@@@2@@__crt_stdio_output@@AAE_NXZ 100515a0 f i libucrtd:output.obj
 0001:00050650       ?state_case_normal@?$output_processor@DV?$string_output_adapter@D@__crt_stdio_output@@V?$positional_parameter_base@DV?$string_output_adapter@D@__crt_stdio_output@@@2@@__crt_stdio_output@@AAE_NXZ 10051650 f i libucrtd:output.obj
 0001:00050700       ?state_case_normal@?$output_processor@DV?$string_output_adapter@D@__crt_stdio_output@@V?$standard_base@DV?$string_output_adapter@D@__crt_stdio_output@@@2@@__crt_stdio_output@@AAE_NXZ 10051700 f i libucrtd:output.obj
 0001:000507b0       ?state_case_normal@?$output_processor@_WV?$stream_output_adapter@_W@__crt_stdio_output@@V?$format_validation_base@_WV?$stream_output_adapter@_W@__crt_stdio_output@@@2@@__crt_stdio_output@@AAE_NXZ 100517b0 f i libucrtd:output.obj
 0001:00050860       ?state_case_normal@?$output_processor@_WV?$stream_output_adapter@_W@__crt_stdio_output@@V?$positional_parameter_base@_WV?$stream_output_adapter@_W@__crt_stdio_output@@@2@@__crt_stdio_output@@AAE_NXZ 10051860 f i libucrtd:output.obj
 0001:00050910       ?state_case_normal@?$output_processor@_WV?$stream_output_adapter@_W@__crt_stdio_output@@V?$standard_base@_WV?$stream_output_adapter@_W@__crt_stdio_output@@@2@@__crt_stdio_output@@AAE_NXZ 10051910 f i libucrtd:output.obj
 0001:000509c0       ?state_case_normal@?$output_processor@_WV?$string_output_adapter@_W@__crt_stdio_output@@V?$format_validation_base@_WV?$string_output_adapter@_W@__crt_stdio_output@@@2@@__crt_stdio_output@@AAE_NXZ 100519c0 f i libucrtd:output.obj
 0001:00050a70       ?state_case_normal@?$output_processor@_WV?$string_output_adapter@_W@__crt_stdio_output@@V?$positional_parameter_base@_WV?$string_output_adapter@_W@__crt_stdio_output@@@2@@__crt_stdio_output@@AAE_NXZ 10051a70 f i libucrtd:output.obj
 0001:00050b20       ?state_case_normal@?$output_processor@_WV?$string_output_adapter@_W@__crt_stdio_output@@V?$standard_base@_WV?$string_output_adapter@_W@__crt_stdio_output@@@2@@__crt_stdio_output@@AAE_NXZ 10051b20 f i libucrtd:output.obj
 0001:00050bd0       ?state_case_normal_common@?$output_processor@DV?$stream_output_adapter@D@__crt_stdio_output@@V?$format_validation_base@DV?$stream_output_adapter@D@__crt_stdio_output@@@2@@__crt_stdio_output@@AAE_NXZ 10051bd0 f i libucrtd:output.obj
 0001:00050c20       ?state_case_normal_common@?$output_processor@DV?$stream_output_adapter@D@__crt_stdio_output@@V?$positional_parameter_base@DV?$stream_output_adapter@D@__crt_stdio_output@@@2@@__crt_stdio_output@@AAE_NXZ 10051c20 f i libucrtd:output.obj
 0001:00050c70       ?state_case_normal_common@?$output_processor@DV?$stream_output_adapter@D@__crt_stdio_output@@V?$standard_base@DV?$stream_output_adapter@D@__crt_stdio_output@@@2@@__crt_stdio_output@@AAE_NXZ 10051c70 f i libucrtd:output.obj
 0001:00050cc0       ?state_case_normal_common@?$output_processor@DV?$string_output_adapter@D@__crt_stdio_output@@V?$format_validation_base@DV?$string_output_adapter@D@__crt_stdio_output@@@2@@__crt_stdio_output@@AAE_NXZ 10051cc0 f i libucrtd:output.obj
 0001:00050d10       ?state_case_normal_common@?$output_processor@DV?$string_output_adapter@D@__crt_stdio_output@@V?$positional_parameter_base@DV?$string_output_adapter@D@__crt_stdio_output@@@2@@__crt_stdio_output@@AAE_NXZ 10051d10 f i libucrtd:output.obj
 0001:00050d60       ?state_case_normal_common@?$output_processor@DV?$string_output_adapter@D@__crt_stdio_output@@V?$standard_base@DV?$string_output_adapter@D@__crt_stdio_output@@@2@@__crt_stdio_output@@AAE_NXZ 10051d60 f i libucrtd:output.obj
 0001:00050db0       ?state_case_normal_common@?$output_processor@_WV?$stream_output_adapter@_W@__crt_stdio_output@@V?$format_validation_base@_WV?$stream_output_adapter@_W@__crt_stdio_output@@@2@@__crt_stdio_output@@AAE_NXZ 10051db0 f i libucrtd:output.obj
 0001:00050e00       ?state_case_normal_common@?$output_processor@_WV?$stream_output_adapter@_W@__crt_stdio_output@@V?$positional_parameter_base@_WV?$stream_output_adapter@_W@__crt_stdio_output@@@2@@__crt_stdio_output@@AAE_NXZ 10051e00 f i libucrtd:output.obj
 0001:00050e50       ?state_case_normal_common@?$output_processor@_WV?$stream_output_adapter@_W@__crt_stdio_output@@V?$standard_base@_WV?$stream_output_adapter@_W@__crt_stdio_output@@@2@@__crt_stdio_output@@AAE_NXZ 10051e50 f i libucrtd:output.obj
 0001:00050ea0       ?state_case_normal_common@?$output_processor@_WV?$string_output_adapter@_W@__crt_stdio_output@@V?$format_validation_base@_WV?$string_output_adapter@_W@__crt_stdio_output@@@2@@__crt_stdio_output@@AAE_NXZ 10051ea0 f i libucrtd:output.obj
 0001:00050ef0       ?state_case_normal_common@?$output_processor@_WV?$string_output_adapter@_W@__crt_stdio_output@@V?$positional_parameter_base@_WV?$string_output_adapter@_W@__crt_stdio_output@@@2@@__crt_stdio_output@@AAE_NXZ 10051ef0 f i libucrtd:output.obj
 0001:00050f40       ?state_case_normal_common@?$output_processor@_WV?$string_output_adapter@_W@__crt_stdio_output@@V?$standard_base@_WV?$string_output_adapter@_W@__crt_stdio_output@@@2@@__crt_stdio_output@@AAE_NXZ 10051f40 f i libucrtd:output.obj
 0001:00050f90       ?state_case_normal_tchar@?$output_processor@DV?$stream_output_adapter@D@__crt_stdio_output@@V?$format_validation_base@DV?$stream_output_adapter@D@__crt_stdio_output@@@2@@__crt_stdio_output@@AAE_ND@Z 10051f90 f i libucrtd:output.obj
 0001:00051090       ?state_case_normal_tchar@?$output_processor@DV?$stream_output_adapter@D@__crt_stdio_output@@V?$positional_parameter_base@DV?$stream_output_adapter@D@__crt_stdio_output@@@2@@__crt_stdio_output@@AAE_ND@Z 10052090 f i libucrtd:output.obj
 0001:00051190       ?state_case_normal_tchar@?$output_processor@DV?$stream_output_adapter@D@__crt_stdio_output@@V?$standard_base@DV?$stream_output_adapter@D@__crt_stdio_output@@@2@@__crt_stdio_output@@AAE_ND@Z 10052190 f i libucrtd:output.obj
 0001:00051290       ?state_case_normal_tchar@?$output_processor@DV?$string_output_adapter@D@__crt_stdio_output@@V?$format_validation_base@DV?$string_output_adapter@D@__crt_stdio_output@@@2@@__crt_stdio_output@@AAE_ND@Z 10052290 f i libucrtd:output.obj
 0001:00051390       ?state_case_normal_tchar@?$output_processor@DV?$string_output_adapter@D@__crt_stdio_output@@V?$positional_parameter_base@DV?$string_output_adapter@D@__crt_stdio_output@@@2@@__crt_stdio_output@@AAE_ND@Z 10052390 f i libucrtd:output.obj
 0001:00051490       ?state_case_normal_tchar@?$output_processor@DV?$string_output_adapter@D@__crt_stdio_output@@V?$standard_base@DV?$string_output_adapter@D@__crt_stdio_output@@@2@@__crt_stdio_output@@AAE_ND@Z 10052490 f i libucrtd:output.obj
 0001:00051590       ?state_case_normal_tchar@?$output_processor@_WV?$stream_output_adapter@_W@__crt_stdio_output@@V?$format_validation_base@_WV?$stream_output_adapter@_W@__crt_stdio_output@@@2@@__crt_stdio_output@@AAE_N_W@Z 10052590 f i libucrtd:output.obj
 0001:000515b0       ?state_case_normal_tchar@?$output_processor@_WV?$stream_output_adapter@_W@__crt_stdio_output@@V?$positional_parameter_base@_WV?$stream_output_adapter@_W@__crt_stdio_output@@@2@@__crt_stdio_output@@AAE_N_W@Z 100525b0 f i libucrtd:output.obj
 0001:000515d0       ?state_case_normal_tchar@?$output_processor@_WV?$stream_output_adapter@_W@__crt_stdio_output@@V?$standard_base@_WV?$stream_output_adapter@_W@__crt_stdio_output@@@2@@__crt_stdio_output@@AAE_N_W@Z 100525d0 f i libucrtd:output.obj
 0001:000515f0       ?state_case_normal_tchar@?$output_processor@_WV?$string_output_adapter@_W@__crt_stdio_output@@V?$format_validation_base@_WV?$string_output_adapter@_W@__crt_stdio_output@@@2@@__crt_stdio_output@@AAE_N_W@Z 100525f0 f i libucrtd:output.obj
 0001:00051610       ?state_case_normal_tchar@?$output_processor@_WV?$string_output_adapter@_W@__crt_stdio_output@@V?$positional_parameter_base@_WV?$string_output_adapter@_W@__crt_stdio_output@@@2@@__crt_stdio_output@@AAE_N_W@Z 10052610 f i libucrtd:output.obj
 0001:00051630       ?state_case_normal_tchar@?$output_processor@_WV?$string_output_adapter@_W@__crt_stdio_output@@V?$standard_base@_WV?$string_output_adapter@_W@__crt_stdio_output@@@2@@__crt_stdio_output@@AAE_N_W@Z 10052630 f i libucrtd:output.obj
 0001:00051650       ?state_case_percent@?$output_processor@DV?$stream_output_adapter@D@__crt_stdio_output@@V?$format_validation_base@DV?$stream_output_adapter@D@__crt_stdio_output@@@2@@__crt_stdio_output@@AAE_NXZ 10052650 f i libucrtd:output.obj
 0001:000516a0       ?state_case_percent@?$output_processor@DV?$stream_output_adapter@D@__crt_stdio_output@@V?$positional_parameter_base@DV?$stream_output_adapter@D@__crt_stdio_output@@@2@@__crt_stdio_output@@AAE_NXZ 100526a0 f i libucrtd:output.obj
 0001:000516f0       ?state_case_percent@?$output_processor@DV?$stream_output_adapter@D@__crt_stdio_output@@V?$standard_base@DV?$stream_output_adapter@D@__crt_stdio_output@@@2@@__crt_stdio_output@@AAE_NXZ 100526f0 f i libucrtd:output.obj
 0001:00051740       ?state_case_percent@?$output_processor@DV?$string_output_adapter@D@__crt_stdio_output@@V?$format_validation_base@DV?$string_output_adapter@D@__crt_stdio_output@@@2@@__crt_stdio_output@@AAE_NXZ 10052740 f i libucrtd:output.obj
 0001:00051790       ?state_case_percent@?$output_processor@DV?$string_output_adapter@D@__crt_stdio_output@@V?$positional_parameter_base@DV?$string_output_adapter@D@__crt_stdio_output@@@2@@__crt_stdio_output@@AAE_NXZ 10052790 f i libucrtd:output.obj
 0001:000517e0       ?state_case_percent@?$output_processor@DV?$string_output_adapter@D@__crt_stdio_output@@V?$standard_base@DV?$string_output_adapter@D@__crt_stdio_output@@@2@@__crt_stdio_output@@AAE_NXZ 100527e0 f i libucrtd:output.obj
 0001:00051830       ?state_case_percent@?$output_processor@_WV?$stream_output_adapter@_W@__crt_stdio_output@@V?$format_validation_base@_WV?$stream_output_adapter@_W@__crt_stdio_output@@@2@@__crt_stdio_output@@AAE_NXZ 10052830 f i libucrtd:output.obj
 0001:00051880       ?state_case_percent@?$output_processor@_WV?$stream_output_adapter@_W@__crt_stdio_output@@V?$positional_parameter_base@_WV?$stream_output_adapter@_W@__crt_stdio_output@@@2@@__crt_stdio_output@@AAE_NXZ 10052880 f i libucrtd:output.obj
 0001:000518d0       ?state_case_percent@?$output_processor@_WV?$stream_output_adapter@_W@__crt_stdio_output@@V?$standard_base@_WV?$stream_output_adapter@_W@__crt_stdio_output@@@2@@__crt_stdio_output@@AAE_NXZ 100528d0 f i libucrtd:output.obj
 0001:00051920       ?state_case_percent@?$output_processor@_WV?$string_output_adapter@_W@__crt_stdio_output@@V?$format_validation_base@_WV?$string_output_adapter@_W@__crt_stdio_output@@@2@@__crt_stdio_output@@AAE_NXZ 10052920 f i libucrtd:output.obj
 0001:00051970       ?state_case_percent@?$output_processor@_WV?$string_output_adapter@_W@__crt_stdio_output@@V?$positional_parameter_base@_WV?$string_output_adapter@_W@__crt_stdio_output@@@2@@__crt_stdio_output@@AAE_NXZ 10052970 f i libucrtd:output.obj
 0001:000519c0       ?state_case_percent@?$output_processor@_WV?$string_output_adapter@_W@__crt_stdio_output@@V?$standard_base@_WV?$string_output_adapter@_W@__crt_stdio_output@@@2@@__crt_stdio_output@@AAE_NXZ 100529c0 f i libucrtd:output.obj
 0001:00051a10       ?state_case_precision@?$output_processor@DV?$stream_output_adapter@D@__crt_stdio_output@@V?$format_validation_base@DV?$stream_output_adapter@D@__crt_stdio_output@@@2@@__crt_stdio_output@@AAE_NXZ 10052a10 f i libucrtd:output.obj
 0001:00051a80       ?state_case_precision@?$output_processor@DV?$stream_output_adapter@D@__crt_stdio_output@@V?$positional_parameter_base@DV?$stream_output_adapter@D@__crt_stdio_output@@@2@@__crt_stdio_output@@AAE_NXZ 10052a80 f i libucrtd:output.obj
 0001:00051af0       ?state_case_precision@?$output_processor@DV?$stream_output_adapter@D@__crt_stdio_output@@V?$standard_base@DV?$stream_output_adapter@D@__crt_stdio_output@@@2@@__crt_stdio_output@@AAE_NXZ 10052af0 f i libucrtd:output.obj
 0001:00051b60       ?state_case_precision@?$output_processor@DV?$string_output_adapter@D@__crt_stdio_output@@V?$format_validation_base@DV?$string_output_adapter@D@__crt_stdio_output@@@2@@__crt_stdio_output@@AAE_NXZ 10052b60 f i libucrtd:output.obj
 0001:00051bd0       ?state_case_precision@?$output_processor@DV?$string_output_adapter@D@__crt_stdio_output@@V?$positional_parameter_base@DV?$string_output_adapter@D@__crt_stdio_output@@@2@@__crt_stdio_output@@AAE_NXZ 10052bd0 f i libucrtd:output.obj
 0001:00051c40       ?state_case_precision@?$output_processor@DV?$string_output_adapter@D@__crt_stdio_output@@V?$standard_base@DV?$string_output_adapter@D@__crt_stdio_output@@@2@@__crt_stdio_output@@AAE_NXZ 10052c40 f i libucrtd:output.obj
 0001:00051cb0       ?state_case_precision@?$output_processor@_WV?$stream_output_adapter@_W@__crt_stdio_output@@V?$format_validation_base@_WV?$stream_output_adapter@_W@__crt_stdio_output@@@2@@__crt_stdio_output@@AAE_NXZ 10052cb0 f i libucrtd:output.obj
 0001:00051d20       ?state_case_precision@?$output_processor@_WV?$stream_output_adapter@_W@__crt_stdio_output@@V?$positional_parameter_base@_WV?$stream_output_adapter@_W@__crt_stdio_output@@@2@@__crt_stdio_output@@AAE_NXZ 10052d20 f i libucrtd:output.obj
 0001:00051d90       ?state_case_precision@?$output_processor@_WV?$stream_output_adapter@_W@__crt_stdio_output@@V?$standard_base@_WV?$stream_output_adapter@_W@__crt_stdio_output@@@2@@__crt_stdio_output@@AAE_NXZ 10052d90 f i libucrtd:output.obj
 0001:00051e00       ?state_case_precision@?$output_processor@_WV?$string_output_adapter@_W@__crt_stdio_output@@V?$format_validation_base@_WV?$string_output_adapter@_W@__crt_stdio_output@@@2@@__crt_stdio_output@@AAE_NXZ 10052e00 f i libucrtd:output.obj
 0001:00051e70       ?state_case_precision@?$output_processor@_WV?$string_output_adapter@_W@__crt_stdio_output@@V?$positional_parameter_base@_WV?$string_output_adapter@_W@__crt_stdio_output@@@2@@__crt_stdio_output@@AAE_NXZ 10052e70 f i libucrtd:output.obj
 0001:00051ee0       ?state_case_precision@?$output_processor@_WV?$string_output_adapter@_W@__crt_stdio_output@@V?$standard_base@_WV?$string_output_adapter@_W@__crt_stdio_output@@@2@@__crt_stdio_output@@AAE_NXZ 10052ee0 f i libucrtd:output.obj
 0001:00051f50       ?state_case_size@?$output_processor@DV?$stream_output_adapter@D@__crt_stdio_output@@V?$format_validation_base@DV?$stream_output_adapter@D@__crt_stdio_output@@@2@@__crt_stdio_output@@AAE_NXZ 10052f50 f i libucrtd:output.obj
 0001:00052320       ?state_case_size@?$output_processor@DV?$stream_output_adapter@D@__crt_stdio_output@@V?$positional_parameter_base@DV?$stream_output_adapter@D@__crt_stdio_output@@@2@@__crt_stdio_output@@AAE_NXZ 10053320 f i libucrtd:output.obj
 0001:000526f0       ?state_case_size@?$output_processor@DV?$stream_output_adapter@D@__crt_stdio_output@@V?$standard_base@DV?$stream_output_adapter@D@__crt_stdio_output@@@2@@__crt_stdio_output@@AAE_NXZ 100536f0 f i libucrtd:output.obj
 0001:00052ac0       ?state_case_size@?$output_processor@DV?$string_output_adapter@D@__crt_stdio_output@@V?$format_validation_base@DV?$string_output_adapter@D@__crt_stdio_output@@@2@@__crt_stdio_output@@AAE_NXZ 10053ac0 f i libucrtd:output.obj
 0001:00052e90       ?state_case_size@?$output_processor@DV?$string_output_adapter@D@__crt_stdio_output@@V?$positional_parameter_base@DV?$string_output_adapter@D@__crt_stdio_output@@@2@@__crt_stdio_output@@AAE_NXZ 10053e90 f i libucrtd:output.obj
 0001:00053260       ?state_case_size@?$output_processor@DV?$string_output_adapter@D@__crt_stdio_output@@V?$standard_base@DV?$string_output_adapter@D@__crt_stdio_output@@@2@@__crt_stdio_output@@AAE_NXZ 10054260 f i libucrtd:output.obj
 0001:00053630       ?state_case_size@?$output_processor@_WV?$stream_output_adapter@_W@__crt_stdio_output@@V?$format_validation_base@_WV?$stream_output_adapter@_W@__crt_stdio_output@@@2@@__crt_stdio_output@@AAE_NXZ 10054630 f i libucrtd:output.obj
 0001:00053a00       ?state_case_size@?$output_processor@_WV?$stream_output_adapter@_W@__crt_stdio_output@@V?$positional_parameter_base@_WV?$stream_output_adapter@_W@__crt_stdio_output@@@2@@__crt_stdio_output@@AAE_NXZ 10054a00 f i libucrtd:output.obj
 0001:00053dd0       ?state_case_size@?$output_processor@_WV?$stream_output_adapter@_W@__crt_stdio_output@@V?$standard_base@_WV?$stream_output_adapter@_W@__crt_stdio_output@@@2@@__crt_stdio_output@@AAE_NXZ 10054dd0 f i libucrtd:output.obj
 0001:000541a0       ?state_case_size@?$output_processor@_WV?$string_output_adapter@_W@__crt_stdio_output@@V?$format_validation_base@_WV?$string_output_adapter@_W@__crt_stdio_output@@@2@@__crt_stdio_output@@AAE_NXZ 100551a0 f i libucrtd:output.obj
 0001:00054570       ?state_case_size@?$output_processor@_WV?$string_output_adapter@_W@__crt_stdio_output@@V?$positional_parameter_base@_WV?$string_output_adapter@_W@__crt_stdio_output@@@2@@__crt_stdio_output@@AAE_NXZ 10055570 f i libucrtd:output.obj
 0001:00054940       ?state_case_size@?$output_processor@_WV?$string_output_adapter@_W@__crt_stdio_output@@V?$standard_base@_WV?$string_output_adapter@_W@__crt_stdio_output@@@2@@__crt_stdio_output@@AAE_NXZ 10055940 f i libucrtd:output.obj
 0001:00054d10       ?state_case_type@?$output_processor@DV?$stream_output_adapter@D@__crt_stdio_output@@V?$format_validation_base@DV?$stream_output_adapter@D@__crt_stdio_output@@@2@@__crt_stdio_output@@AAE_NXZ 10055d10 f i libucrtd:output.obj
 0001:000550c0       ?state_case_type@?$output_processor@DV?$stream_output_adapter@D@__crt_stdio_output@@V?$positional_parameter_base@DV?$stream_output_adapter@D@__crt_stdio_output@@@2@@__crt_stdio_output@@AAE_NXZ 100560c0 f i libucrtd:output.obj
 0001:00055470       ?state_case_type@?$output_processor@DV?$stream_output_adapter@D@__crt_stdio_output@@V?$standard_base@DV?$stream_output_adapter@D@__crt_stdio_output@@@2@@__crt_stdio_output@@AAE_NXZ 10056470 f i libucrtd:output.obj
 0001:00055820       ?state_case_type@?$output_processor@DV?$string_output_adapter@D@__crt_stdio_output@@V?$format_validation_base@DV?$string_output_adapter@D@__crt_stdio_output@@@2@@__crt_stdio_output@@AAE_NXZ 10056820 f i libucrtd:output.obj
 0001:00055bd0       ?state_case_type@?$output_processor@DV?$string_output_adapter@D@__crt_stdio_output@@V?$positional_parameter_base@DV?$string_output_adapter@D@__crt_stdio_output@@@2@@__crt_stdio_output@@AAE_NXZ 10056bd0 f i libucrtd:output.obj
 0001:00055f80       ?state_case_type@?$output_processor@DV?$string_output_adapter@D@__crt_stdio_output@@V?$standard_base@DV?$string_output_adapter@D@__crt_stdio_output@@@2@@__crt_stdio_output@@AAE_NXZ 10056f80 f i libucrtd:output.obj
 0001:00056330       ?state_case_type@?$output_processor@_WV?$stream_output_adapter@_W@__crt_stdio_output@@V?$format_validation_base@_WV?$stream_output_adapter@_W@__crt_stdio_output@@@2@@__crt_stdio_output@@AAE_NXZ 10057330 f i libucrtd:output.obj
 0001:00056710       ?state_case_type@?$output_processor@_WV?$stream_output_adapter@_W@__crt_stdio_output@@V?$positional_parameter_base@_WV?$stream_output_adapter@_W@__crt_stdio_output@@@2@@__crt_stdio_output@@AAE_NXZ 10057710 f i libucrtd:output.obj
 0001:00056af0       ?state_case_type@?$output_processor@_WV?$stream_output_adapter@_W@__crt_stdio_output@@V?$standard_base@_WV?$stream_output_adapter@_W@__crt_stdio_output@@@2@@__crt_stdio_output@@AAE_NXZ 10057af0 f i libucrtd:output.obj
 0001:00056ed0       ?state_case_type@?$output_processor@_WV?$string_output_adapter@_W@__crt_stdio_output@@V?$format_validation_base@_WV?$string_output_adapter@_W@__crt_stdio_output@@@2@@__crt_stdio_output@@AAE_NXZ 10057ed0 f i libucrtd:output.obj
 0001:000572b0       ?state_case_type@?$output_processor@_WV?$string_output_adapter@_W@__crt_stdio_output@@V?$positional_parameter_base@_WV?$string_output_adapter@_W@__crt_stdio_output@@@2@@__crt_stdio_output@@AAE_NXZ 100582b0 f i libucrtd:output.obj
 0001:00057690       ?state_case_type@?$output_processor@_WV?$string_output_adapter@_W@__crt_stdio_output@@V?$standard_base@_WV?$string_output_adapter@_W@__crt_stdio_output@@@2@@__crt_stdio_output@@AAE_NXZ 10058690 f i libucrtd:output.obj
 0001:00057a70       ?state_case_width@?$output_processor@DV?$stream_output_adapter@D@__crt_stdio_output@@V?$format_validation_base@DV?$stream_output_adapter@D@__crt_stdio_output@@@2@@__crt_stdio_output@@AAE_NXZ 10058a70 f i libucrtd:output.obj
 0001:00057af0       ?state_case_width@?$output_processor@DV?$stream_output_adapter@D@__crt_stdio_output@@V?$positional_parameter_base@DV?$stream_output_adapter@D@__crt_stdio_output@@@2@@__crt_stdio_output@@AAE_NXZ 10058af0 f i libucrtd:output.obj
 0001:00057b70       ?state_case_width@?$output_processor@DV?$stream_output_adapter@D@__crt_stdio_output@@V?$standard_base@DV?$stream_output_adapter@D@__crt_stdio_output@@@2@@__crt_stdio_output@@AAE_NXZ 10058b70 f i libucrtd:output.obj
 0001:00057bf0       ?state_case_width@?$output_processor@DV?$string_output_adapter@D@__crt_stdio_output@@V?$format_validation_base@DV?$string_output_adapter@D@__crt_stdio_output@@@2@@__crt_stdio_output@@AAE_NXZ 10058bf0 f i libucrtd:output.obj
 0001:00057c70       ?state_case_width@?$output_processor@DV?$string_output_adapter@D@__crt_stdio_output@@V?$positional_parameter_base@DV?$string_output_adapter@D@__crt_stdio_output@@@2@@__crt_stdio_output@@AAE_NXZ 10058c70 f i libucrtd:output.obj
 0001:00057cf0       ?state_case_width@?$output_processor@DV?$string_output_adapter@D@__crt_stdio_output@@V?$standard_base@DV?$string_output_adapter@D@__crt_stdio_output@@@2@@__crt_stdio_output@@AAE_NXZ 10058cf0 f i libucrtd:output.obj
 0001:00057d70       ?state_case_width@?$output_processor@_WV?$stream_output_adapter@_W@__crt_stdio_output@@V?$format_validation_base@_WV?$stream_output_adapter@_W@__crt_stdio_output@@@2@@__crt_stdio_output@@AAE_NXZ 10058d70 f i libucrtd:output.obj
 0001:00057df0       ?state_case_width@?$output_processor@_WV?$stream_output_adapter@_W@__crt_stdio_output@@V?$positional_parameter_base@_WV?$stream_output_adapter@_W@__crt_stdio_output@@@2@@__crt_stdio_output@@AAE_NXZ 10058df0 f i libucrtd:output.obj
 0001:00057e70       ?state_case_width@?$output_processor@_WV?$stream_output_adapter@_W@__crt_stdio_output@@V?$standard_base@_WV?$stream_output_adapter@_W@__crt_stdio_output@@@2@@__crt_stdio_output@@AAE_NXZ 10058e70 f i libucrtd:output.obj
 0001:00057ef0       ?state_case_width@?$output_processor@_WV?$string_output_adapter@_W@__crt_stdio_output@@V?$format_validation_base@_WV?$string_output_adapter@_W@__crt_stdio_output@@@2@@__crt_stdio_output@@AAE_NXZ 10058ef0 f i libucrtd:output.obj
 0001:00057f70       ?state_case_width@?$output_processor@_WV?$string_output_adapter@_W@__crt_stdio_output@@V?$positional_parameter_base@_WV?$string_output_adapter@_W@__crt_stdio_output@@@2@@__crt_stdio_output@@AAE_NXZ 10058f70 f i libucrtd:output.obj
 0001:00057ff0       ?state_case_width@?$output_processor@_WV?$string_output_adapter@_W@__crt_stdio_output@@V?$standard_base@_WV?$string_output_adapter@_W@__crt_stdio_output@@@2@@__crt_stdio_output@@AAE_NXZ 10058ff0 f i libucrtd:output.obj
 0001:00058070       ?state_count@?$format_validation_base@DV?$stream_output_adapter@D@__crt_stdio_output@@@__crt_stdio_output@@KAIXZ 10059070 f i libucrtd:output.obj
 0001:00058080       ?state_count@?$format_validation_base@DV?$string_output_adapter@D@__crt_stdio_output@@@__crt_stdio_output@@KAIXZ 10059080 f i libucrtd:output.obj
 0001:00058090       ?state_count@?$format_validation_base@_WV?$stream_output_adapter@_W@__crt_stdio_output@@@__crt_stdio_output@@KAIXZ 10059090 f i libucrtd:output.obj
 0001:000580a0       ?state_count@?$format_validation_base@_WV?$string_output_adapter@_W@__crt_stdio_output@@@__crt_stdio_output@@KAIXZ 100590a0 f i libucrtd:output.obj
 0001:000580b0       ?state_count@?$standard_base@DV?$stream_output_adapter@D@__crt_stdio_output@@@__crt_stdio_output@@KAIXZ 100590b0 f i libucrtd:output.obj
 0001:000580c0       ?state_count@?$standard_base@DV?$string_output_adapter@D@__crt_stdio_output@@@__crt_stdio_output@@KAIXZ 100590c0 f i libucrtd:output.obj
 0001:000580d0       ?state_count@?$standard_base@_WV?$stream_output_adapter@_W@__crt_stdio_output@@@__crt_stdio_output@@KAIXZ 100590d0 f i libucrtd:output.obj
 0001:000580e0       ?state_count@?$standard_base@_WV?$string_output_adapter@_W@__crt_stdio_output@@@__crt_stdio_output@@KAIXZ 100590e0 f i libucrtd:output.obj
 0001:000580f0       ?state_transition_table@?$format_validation_base@DV?$stream_output_adapter@D@__crt_stdio_output@@@__crt_stdio_output@@KAPBEXZ 100590f0 f i libucrtd:output.obj
 0001:00058100       ?state_transition_table@?$format_validation_base@DV?$string_output_adapter@D@__crt_stdio_output@@@__crt_stdio_output@@KAPBEXZ 10059100 f i libucrtd:output.obj
 0001:00058110       ?state_transition_table@?$format_validation_base@_WV?$stream_output_adapter@_W@__crt_stdio_output@@@__crt_stdio_output@@KAPBEXZ 10059110 f i libucrtd:output.obj
 0001:00058120       ?state_transition_table@?$format_validation_base@_WV?$string_output_adapter@_W@__crt_stdio_output@@@__crt_stdio_output@@KAPBEXZ 10059120 f i libucrtd:output.obj
 0001:00058130       ?state_transition_table@?$standard_base@DV?$stream_output_adapter@D@__crt_stdio_output@@@__crt_stdio_output@@KAPBEXZ 10059130 f i libucrtd:output.obj
 0001:00058140       ?state_transition_table@?$standard_base@DV?$string_output_adapter@D@__crt_stdio_output@@@__crt_stdio_output@@KAPBEXZ 10059140 f i libucrtd:output.obj
 0001:00058150       ?state_transition_table@?$standard_base@_WV?$stream_output_adapter@_W@__crt_stdio_output@@@__crt_stdio_output@@KAPBEXZ 10059150 f i libucrtd:output.obj
 0001:00058160       ?state_transition_table@?$standard_base@_WV?$string_output_adapter@_W@__crt_stdio_output@@@__crt_stdio_output@@KAPBEXZ 10059160 f i libucrtd:output.obj
 0001:00058170       ?tchar_string@?$common_data@D@__crt_stdio_output@@IAEAAPADD@Z 10059170 f i libucrtd:output.obj
 0001:00058190       ?tchar_string@?$common_data@D@__crt_stdio_output@@IAEAAPADXZ 10059190 f i libucrtd:output.obj
 0001:000581b0       ?tchar_string@?$common_data@_W@__crt_stdio_output@@IAEAAPA_WXZ 100591b0 f i libucrtd:output.obj
 0001:000581d0       ?tchar_string@?$common_data@_W@__crt_stdio_output@@IAEAAPA_W_W@Z 100591d0 f i libucrtd:output.obj
 0001:000581f0       ?to_integer_size@__crt_stdio_output@@YAIW4length_modifier@1@@Z 100591f0 f i libucrtd:output.obj
 0001:00058290       ?type_case_X@?$output_processor@DV?$stream_output_adapter@D@__crt_stdio_output@@V?$format_validation_base@DV?$stream_output_adapter@D@__crt_stdio_output@@@2@@__crt_stdio_output@@AAE_NXZ 10059290 f i libucrtd:output.obj
 0001:000582b0       ?type_case_X@?$output_processor@DV?$stream_output_adapter@D@__crt_stdio_output@@V?$positional_parameter_base@DV?$stream_output_adapter@D@__crt_stdio_output@@@2@@__crt_stdio_output@@AAE_NXZ 100592b0 f i libucrtd:output.obj
 0001:000582d0       ?type_case_X@?$output_processor@DV?$stream_output_adapter@D@__crt_stdio_output@@V?$standard_base@DV?$stream_output_adapter@D@__crt_stdio_output@@@2@@__crt_stdio_output@@AAE_NXZ 100592d0 f i libucrtd:output.obj
 0001:000582f0       ?type_case_X@?$output_processor@DV?$string_output_adapter@D@__crt_stdio_output@@V?$format_validation_base@DV?$string_output_adapter@D@__crt_stdio_output@@@2@@__crt_stdio_output@@AAE_NXZ 100592f0 f i libucrtd:output.obj
 0001:00058310       ?type_case_X@?$output_processor@DV?$string_output_adapter@D@__crt_stdio_output@@V?$positional_parameter_base@DV?$string_output_adapter@D@__crt_stdio_output@@@2@@__crt_stdio_output@@AAE_NXZ 10059310 f i libucrtd:output.obj
 0001:00058330       ?type_case_X@?$output_processor@DV?$string_output_adapter@D@__crt_stdio_output@@V?$standard_base@DV?$string_output_adapter@D@__crt_stdio_output@@@2@@__crt_stdio_output@@AAE_NXZ 10059330 f i libucrtd:output.obj
 0001:00058350       ?type_case_X@?$output_processor@_WV?$stream_output_adapter@_W@__crt_stdio_output@@V?$format_validation_base@_WV?$stream_output_adapter@_W@__crt_stdio_output@@@2@@__crt_stdio_output@@AAE_NXZ 10059350 f i libucrtd:output.obj
 0001:00058370       ?type_case_X@?$output_processor@_WV?$stream_output_adapter@_W@__crt_stdio_output@@V?$positional_parameter_base@_WV?$stream_output_adapter@_W@__crt_stdio_output@@@2@@__crt_stdio_output@@AAE_NXZ 10059370 f i libucrtd:output.obj
 0001:00058390       ?type_case_X@?$output_processor@_WV?$stream_output_adapter@_W@__crt_stdio_output@@V?$standard_base@_WV?$stream_output_adapter@_W@__crt_stdio_output@@@2@@__crt_stdio_output@@AAE_NXZ 10059390 f i libucrtd:output.obj
 0001:000583b0       ?type_case_X@?$output_processor@_WV?$string_output_adapter@_W@__crt_stdio_output@@V?$format_validation_base@_WV?$string_output_adapter@_W@__crt_stdio_output@@@2@@__crt_stdio_output@@AAE_NXZ 100593b0 f i libucrtd:output.obj
 0001:000583d0       ?type_case_X@?$output_processor@_WV?$string_output_adapter@_W@__crt_stdio_output@@V?$positional_parameter_base@_WV?$string_output_adapter@_W@__crt_stdio_output@@@2@@__crt_stdio_output@@AAE_NXZ 100593d0 f i libucrtd:output.obj
 0001:000583f0       ?type_case_X@?$output_processor@_WV?$string_output_adapter@_W@__crt_stdio_output@@V?$standard_base@_WV?$string_output_adapter@_W@__crt_stdio_output@@@2@@__crt_stdio_output@@AAE_NXZ 100593f0 f i libucrtd:output.obj
 0001:00058410       ?type_case_Z@?$output_processor@DV?$stream_output_adapter@D@__crt_stdio_output@@V?$format_validation_base@DV?$stream_output_adapter@D@__crt_stdio_output@@@2@@__crt_stdio_output@@AAE_NXZ 10059410 f i libucrtd:output.obj
 0001:00058500       ?type_case_Z@?$output_processor@DV?$stream_output_adapter@D@__crt_stdio_output@@V?$positional_parameter_base@DV?$stream_output_adapter@D@__crt_stdio_output@@@2@@__crt_stdio_output@@AAE_NXZ 10059500 f i libucrtd:output.obj
 0001:000585f0       ?type_case_Z@?$output_processor@DV?$stream_output_adapter@D@__crt_stdio_output@@V?$standard_base@DV?$stream_output_adapter@D@__crt_stdio_output@@@2@@__crt_stdio_output@@AAE_NXZ 100595f0 f i libucrtd:output.obj
 0001:000586e0       ?type_case_Z@?$output_processor@DV?$string_output_adapter@D@__crt_stdio_output@@V?$format_validation_base@DV?$string_output_adapter@D@__crt_stdio_output@@@2@@__crt_stdio_output@@AAE_NXZ 100596e0 f i libucrtd:output.obj
 0001:000587d0       ?type_case_Z@?$output_processor@DV?$string_output_adapter@D@__crt_stdio_output@@V?$positional_parameter_base@DV?$string_output_adapter@D@__crt_stdio_output@@@2@@__crt_stdio_output@@AAE_NXZ 100597d0 f i libucrtd:output.obj
 0001:000588c0       ?type_case_Z@?$output_processor@DV?$string_output_adapter@D@__crt_stdio_output@@V?$standard_base@DV?$string_output_adapter@D@__crt_stdio_output@@@2@@__crt_stdio_output@@AAE_NXZ 100598c0 f i libucrtd:output.obj
 0001:000589b0       ?type_case_Z@?$output_processor@_WV?$stream_output_adapter@_W@__crt_stdio_output@@V?$format_validation_base@_WV?$stream_output_adapter@_W@__crt_stdio_output@@@2@@__crt_stdio_output@@AAE_NXZ 100599b0 f i libucrtd:output.obj
 0001:00058aa0       ?type_case_Z@?$output_processor@_WV?$stream_output_adapter@_W@__crt_stdio_output@@V?$positional_parameter_base@_WV?$stream_output_adapter@_W@__crt_stdio_output@@@2@@__crt_stdio_output@@AAE_NXZ 10059aa0 f i libucrtd:output.obj
 0001:00058b90       ?type_case_Z@?$output_processor@_WV?$stream_output_adapter@_W@__crt_stdio_output@@V?$standard_base@_WV?$stream_output_adapter@_W@__crt_stdio_output@@@2@@__crt_stdio_output@@AAE_NXZ 10059b90 f i libucrtd:output.obj
 0001:00058c80       ?type_case_Z@?$output_processor@_WV?$string_output_adapter@_W@__crt_stdio_output@@V?$format_validation_base@_WV?$string_output_adapter@_W@__crt_stdio_output@@@2@@__crt_stdio_output@@AAE_NXZ 10059c80 f i libucrtd:output.obj
 0001:00058d70       ?type_case_Z@?$output_processor@_WV?$string_output_adapter@_W@__crt_stdio_output@@V?$positional_parameter_base@_WV?$string_output_adapter@_W@__crt_stdio_output@@@2@@__crt_stdio_output@@AAE_NXZ 10059d70 f i libucrtd:output.obj
 0001:00058e60       ?type_case_Z@?$output_processor@_WV?$string_output_adapter@_W@__crt_stdio_output@@V?$standard_base@_WV?$string_output_adapter@_W@__crt_stdio_output@@@2@@__crt_stdio_output@@AAE_NXZ 10059e60 f i libucrtd:output.obj
 0001:00058f50       ?type_case_a@?$output_processor@DV?$stream_output_adapter@D@__crt_stdio_output@@V?$format_validation_base@DV?$stream_output_adapter@D@__crt_stdio_output@@@2@@__crt_stdio_output@@AAE_NXZ 10059f50 f i libucrtd:output.obj
 0001:000591c0       ?type_case_a@?$output_processor@DV?$stream_output_adapter@D@__crt_stdio_output@@V?$positional_parameter_base@DV?$stream_output_adapter@D@__crt_stdio_output@@@2@@__crt_stdio_output@@AAE_NXZ 1005a1c0 f i libucrtd:output.obj
 0001:00059430       ?type_case_a@?$output_processor@DV?$stream_output_adapter@D@__crt_stdio_output@@V?$standard_base@DV?$stream_output_adapter@D@__crt_stdio_output@@@2@@__crt_stdio_output@@AAE_NXZ 1005a430 f i libucrtd:output.obj
 0001:000596a0       ?type_case_a@?$output_processor@DV?$string_output_adapter@D@__crt_stdio_output@@V?$format_validation_base@DV?$string_output_adapter@D@__crt_stdio_output@@@2@@__crt_stdio_output@@AAE_NXZ 1005a6a0 f i libucrtd:output.obj
 0001:00059910       ?type_case_a@?$output_processor@DV?$string_output_adapter@D@__crt_stdio_output@@V?$positional_parameter_base@DV?$string_output_adapter@D@__crt_stdio_output@@@2@@__crt_stdio_output@@AAE_NXZ 1005a910 f i libucrtd:output.obj
 0001:00059b80       ?type_case_a@?$output_processor@DV?$string_output_adapter@D@__crt_stdio_output@@V?$standard_base@DV?$string_output_adapter@D@__crt_stdio_output@@@2@@__crt_stdio_output@@AAE_NXZ 1005ab80 f i libucrtd:output.obj
 0001:00059df0       ?type_case_a@?$output_processor@_WV?$stream_output_adapter@_W@__crt_stdio_output@@V?$format_validation_base@_WV?$stream_output_adapter@_W@__crt_stdio_output@@@2@@__crt_stdio_output@@AAE_NXZ 1005adf0 f i libucrtd:output.obj
 0001:0005a060       ?type_case_a@?$output_processor@_WV?$stream_output_adapter@_W@__crt_stdio_output@@V?$positional_parameter_base@_WV?$stream_output_adapter@_W@__crt_stdio_output@@@2@@__crt_stdio_output@@AAE_NXZ 1005b060 f i libucrtd:output.obj
 0001:0005a2d0       ?type_case_a@?$output_processor@_WV?$stream_output_adapter@_W@__crt_stdio_output@@V?$standard_base@_WV?$stream_output_adapter@_W@__crt_stdio_output@@@2@@__crt_stdio_output@@AAE_NXZ 1005b2d0 f i libucrtd:output.obj
 0001:0005a540       ?type_case_a@?$output_processor@_WV?$string_output_adapter@_W@__crt_stdio_output@@V?$format_validation_base@_WV?$string_output_adapter@_W@__crt_stdio_output@@@2@@__crt_stdio_output@@AAE_NXZ 1005b540 f i libucrtd:output.obj
 0001:0005a7b0       ?type_case_a@?$output_processor@_WV?$string_output_adapter@_W@__crt_stdio_output@@V?$positional_parameter_base@_WV?$string_output_adapter@_W@__crt_stdio_output@@@2@@__crt_stdio_output@@AAE_NXZ 1005b7b0 f i libucrtd:output.obj
 0001:0005aa20       ?type_case_a@?$output_processor@_WV?$string_output_adapter@_W@__crt_stdio_output@@V?$standard_base@_WV?$string_output_adapter@_W@__crt_stdio_output@@@2@@__crt_stdio_output@@AAE_NXZ 1005ba20 f i libucrtd:output.obj
 0001:0005ac90       ?type_case_c@?$output_processor@DV?$stream_output_adapter@D@__crt_stdio_output@@V?$format_validation_base@DV?$stream_output_adapter@D@__crt_stdio_output@@@2@@__crt_stdio_output@@AAE_NXZ 1005bc90 f i libucrtd:output.obj
 0001:0005acb0       ?type_case_c@?$output_processor@DV?$stream_output_adapter@D@__crt_stdio_output@@V?$positional_parameter_base@DV?$stream_output_adapter@D@__crt_stdio_output@@@2@@__crt_stdio_output@@AAE_NXZ 1005bcb0 f i libucrtd:output.obj
 0001:0005acd0       ?type_case_c@?$output_processor@DV?$stream_output_adapter@D@__crt_stdio_output@@V?$standard_base@DV?$stream_output_adapter@D@__crt_stdio_output@@@2@@__crt_stdio_output@@AAE_NXZ 1005bcd0 f i libucrtd:output.obj
 0001:0005acf0       ?type_case_c@?$output_processor@DV?$string_output_adapter@D@__crt_stdio_output@@V?$format_validation_base@DV?$string_output_adapter@D@__crt_stdio_output@@@2@@__crt_stdio_output@@AAE_NXZ 1005bcf0 f i libucrtd:output.obj
 0001:0005ad10       ?type_case_c@?$output_processor@DV?$string_output_adapter@D@__crt_stdio_output@@V?$positional_parameter_base@DV?$string_output_adapter@D@__crt_stdio_output@@@2@@__crt_stdio_output@@AAE_NXZ 1005bd10 f i libucrtd:output.obj
 0001:0005ad30       ?type_case_c@?$output_processor@DV?$string_output_adapter@D@__crt_stdio_output@@V?$standard_base@DV?$string_output_adapter@D@__crt_stdio_output@@@2@@__crt_stdio_output@@AAE_NXZ 1005bd30 f i libucrtd:output.obj
 0001:0005ad50       ?type_case_c@?$output_processor@_WV?$stream_output_adapter@_W@__crt_stdio_output@@V?$format_validation_base@_WV?$stream_output_adapter@_W@__crt_stdio_output@@@2@@__crt_stdio_output@@AAE_NXZ 1005bd50 f i libucrtd:output.obj
 0001:0005ad70       ?type_case_c@?$output_processor@_WV?$stream_output_adapter@_W@__crt_stdio_output@@V?$positional_parameter_base@_WV?$stream_output_adapter@_W@__crt_stdio_output@@@2@@__crt_stdio_output@@AAE_NXZ 1005bd70 f i libucrtd:output.obj
 0001:0005ad90       ?type_case_c@?$output_processor@_WV?$stream_output_adapter@_W@__crt_stdio_output@@V?$standard_base@_WV?$stream_output_adapter@_W@__crt_stdio_output@@@2@@__crt_stdio_output@@AAE_NXZ 1005bd90 f i libucrtd:output.obj
 0001:0005adb0       ?type_case_c@?$output_processor@_WV?$string_output_adapter@_W@__crt_stdio_output@@V?$format_validation_base@_WV?$string_output_adapter@_W@__crt_stdio_output@@@2@@__crt_stdio_output@@AAE_NXZ 1005bdb0 f i libucrtd:output.obj
 0001:0005add0       ?type_case_c@?$output_processor@_WV?$string_output_adapter@_W@__crt_stdio_output@@V?$positional_parameter_base@_WV?$string_output_adapter@_W@__crt_stdio_output@@@2@@__crt_stdio_output@@AAE_NXZ 1005bdd0 f i libucrtd:output.obj
 0001:0005adf0       ?type_case_c@?$output_processor@_WV?$string_output_adapter@_W@__crt_stdio_output@@V?$standard_base@_WV?$string_output_adapter@_W@__crt_stdio_output@@@2@@__crt_stdio_output@@AAE_NXZ 1005bdf0 f i libucrtd:output.obj
 0001:0005ae10       ?type_case_c_tchar@?$output_processor@DV?$stream_output_adapter@D@__crt_stdio_output@@V?$format_validation_base@DV?$stream_output_adapter@D@__crt_stdio_output@@@2@@__crt_stdio_output@@AAE_ND@Z 1005be10 f i libucrtd:output.obj
 0001:0005af20       ?type_case_c_tchar@?$output_processor@DV?$stream_output_adapter@D@__crt_stdio_output@@V?$positional_parameter_base@DV?$stream_output_adapter@D@__crt_stdio_output@@@2@@__crt_stdio_output@@AAE_ND@Z 1005bf20 f i libucrtd:output.obj
 0001:0005b030       ?type_case_c_tchar@?$output_processor@DV?$stream_output_adapter@D@__crt_stdio_output@@V?$standard_base@DV?$stream_output_adapter@D@__crt_stdio_output@@@2@@__crt_stdio_output@@AAE_ND@Z 1005c030 f i libucrtd:output.obj
 0001:0005b140       ?type_case_c_tchar@?$output_processor@DV?$string_output_adapter@D@__crt_stdio_output@@V?$format_validation_base@DV?$string_output_adapter@D@__crt_stdio_output@@@2@@__crt_stdio_output@@AAE_ND@Z 1005c140 f i libucrtd:output.obj
 0001:0005b250       ?type_case_c_tchar@?$output_processor@DV?$string_output_adapter@D@__crt_stdio_output@@V?$positional_parameter_base@DV?$string_output_adapter@D@__crt_stdio_output@@@2@@__crt_stdio_output@@AAE_ND@Z 1005c250 f i libucrtd:output.obj
 0001:0005b360       ?type_case_c_tchar@?$output_processor@DV?$string_output_adapter@D@__crt_stdio_output@@V?$standard_base@DV?$string_output_adapter@D@__crt_stdio_output@@@2@@__crt_stdio_output@@AAE_ND@Z 1005c360 f i libucrtd:output.obj
 0001:0005b470       ?type_case_c_tchar@?$output_processor@_WV?$stream_output_adapter@_W@__crt_stdio_output@@V?$format_validation_base@_WV?$stream_output_adapter@_W@__crt_stdio_output@@@2@@__crt_stdio_output@@AAE_N_W@Z 1005c470 f i libucrtd:output.obj
 0001:0005b570       ?type_case_c_tchar@?$output_processor@_WV?$stream_output_adapter@_W@__crt_stdio_output@@V?$positional_parameter_base@_WV?$stream_output_adapter@_W@__crt_stdio_output@@@2@@__crt_stdio_output@@AAE_N_W@Z 1005c570 f i libucrtd:output.obj
 0001:0005b670       ?type_case_c_tchar@?$output_processor@_WV?$stream_output_adapter@_W@__crt_stdio_output@@V?$standard_base@_WV?$stream_output_adapter@_W@__crt_stdio_output@@@2@@__crt_stdio_output@@AAE_N_W@Z 1005c670 f i libucrtd:output.obj
 0001:0005b770       ?type_case_c_tchar@?$output_processor@_WV?$string_output_adapter@_W@__crt_stdio_output@@V?$format_validation_base@_WV?$string_output_adapter@_W@__crt_stdio_output@@@2@@__crt_stdio_output@@AAE_N_W@Z 1005c770 f i libucrtd:output.obj
 0001:0005b870       ?type_case_c_tchar@?$output_processor@_WV?$string_output_adapter@_W@__crt_stdio_output@@V?$positional_parameter_base@_WV?$string_output_adapter@_W@__crt_stdio_output@@@2@@__crt_stdio_output@@AAE_N_W@Z 1005c870 f i libucrtd:output.obj
 0001:0005b970       ?type_case_c_tchar@?$output_processor@_WV?$string_output_adapter@_W@__crt_stdio_output@@V?$standard_base@_WV?$string_output_adapter@_W@__crt_stdio_output@@@2@@__crt_stdio_output@@AAE_N_W@Z 1005c970 f i libucrtd:output.obj
 0001:0005ba70       ?type_case_d@?$output_processor@DV?$stream_output_adapter@D@__crt_stdio_output@@V?$format_validation_base@DV?$stream_output_adapter@D@__crt_stdio_output@@@2@@__crt_stdio_output@@AAE_NXZ 1005ca70 f i libucrtd:output.obj
 0001:0005baa0       ?type_case_d@?$output_processor@DV?$stream_output_adapter@D@__crt_stdio_output@@V?$positional_parameter_base@DV?$stream_output_adapter@D@__crt_stdio_output@@@2@@__crt_stdio_output@@AAE_NXZ 1005caa0 f i libucrtd:output.obj
 0001:0005bad0       ?type_case_d@?$output_processor@DV?$stream_output_adapter@D@__crt_stdio_output@@V?$standard_base@DV?$stream_output_adapter@D@__crt_stdio_output@@@2@@__crt_stdio_output@@AAE_NXZ 1005cad0 f i libucrtd:output.obj
 0001:0005bb00       ?type_case_d@?$output_processor@DV?$string_output_adapter@D@__crt_stdio_output@@V?$format_validation_base@DV?$string_output_adapter@D@__crt_stdio_output@@@2@@__crt_stdio_output@@AAE_NXZ 1005cb00 f i libucrtd:output.obj
 0001:0005bb30       ?type_case_d@?$output_processor@DV?$string_output_adapter@D@__crt_stdio_output@@V?$positional_parameter_base@DV?$string_output_adapter@D@__crt_stdio_output@@@2@@__crt_stdio_output@@AAE_NXZ 1005cb30 f i libucrtd:output.obj
 0001:0005bb60       ?type_case_d@?$output_processor@DV?$string_output_adapter@D@__crt_stdio_output@@V?$standard_base@DV?$string_output_adapter@D@__crt_stdio_output@@@2@@__crt_stdio_output@@AAE_NXZ 1005cb60 f i libucrtd:output.obj
 0001:0005bb90       ?type_case_d@?$output_processor@_WV?$stream_output_adapter@_W@__crt_stdio_output@@V?$format_validation_base@_WV?$stream_output_adapter@_W@__crt_stdio_output@@@2@@__crt_stdio_output@@AAE_NXZ 1005cb90 f i libucrtd:output.obj
 0001:0005bbc0       ?type_case_d@?$output_processor@_WV?$stream_output_adapter@_W@__crt_stdio_output@@V?$positional_parameter_base@_WV?$stream_output_adapter@_W@__crt_stdio_output@@@2@@__crt_stdio_output@@AAE_NXZ 1005cbc0 f i libucrtd:output.obj
 0001:0005bbf0       ?type_case_d@?$output_processor@_WV?$stream_output_adapter@_W@__crt_stdio_output@@V?$standard_base@_WV?$stream_output_adapter@_W@__crt_stdio_output@@@2@@__crt_stdio_output@@AAE_NXZ 1005cbf0 f i libucrtd:output.obj
 0001:0005bc20       ?type_case_d@?$output_processor@_WV?$string_output_adapter@_W@__crt_stdio_output@@V?$format_validation_base@_WV?$string_output_adapter@_W@__crt_stdio_output@@@2@@__crt_stdio_output@@AAE_NXZ 1005cc20 f i libucrtd:output.obj
 0001:0005bc50       ?type_case_d@?$output_processor@_WV?$string_output_adapter@_W@__crt_stdio_output@@V?$positional_parameter_base@_WV?$string_output_adapter@_W@__crt_stdio_output@@@2@@__crt_stdio_output@@AAE_NXZ 1005cc50 f i libucrtd:output.obj
 0001:0005bc80       ?type_case_d@?$output_processor@_WV?$string_output_adapter@_W@__crt_stdio_output@@V?$standard_base@_WV?$string_output_adapter@_W@__crt_stdio_output@@@2@@__crt_stdio_output@@AAE_NXZ 1005cc80 f i libucrtd:output.obj
 0001:0005bcb0       ?type_case_integer@?$output_processor@DV?$stream_output_adapter@D@__crt_stdio_output@@V?$format_validation_base@DV?$stream_output_adapter@D@__crt_stdio_output@@@2@@__crt_stdio_output@@AAE_NI_N@Z 1005ccb0 f i libucrtd:output.obj
 0001:0005c000       ?type_case_integer@?$output_processor@DV?$stream_output_adapter@D@__crt_stdio_output@@V?$positional_parameter_base@DV?$stream_output_adapter@D@__crt_stdio_output@@@2@@__crt_stdio_output@@AAE_NI_N@Z 1005d000 f i libucrtd:output.obj
 0001:0005c350       ?type_case_integer@?$output_processor@DV?$stream_output_adapter@D@__crt_stdio_output@@V?$standard_base@DV?$stream_output_adapter@D@__crt_stdio_output@@@2@@__crt_stdio_output@@AAE_NI_N@Z 1005d350 f i libucrtd:output.obj
 0001:0005c6a0       ?type_case_integer@?$output_processor@DV?$string_output_adapter@D@__crt_stdio_output@@V?$format_validation_base@DV?$string_output_adapter@D@__crt_stdio_output@@@2@@__crt_stdio_output@@AAE_NI_N@Z 1005d6a0 f i libucrtd:output.obj
 0001:0005c9f0       ?type_case_integer@?$output_processor@DV?$string_output_adapter@D@__crt_stdio_output@@V?$positional_parameter_base@DV?$string_output_adapter@D@__crt_stdio_output@@@2@@__crt_stdio_output@@AAE_NI_N@Z 1005d9f0 f i libucrtd:output.obj
 0001:0005cd40       ?type_case_integer@?$output_processor@DV?$string_output_adapter@D@__crt_stdio_output@@V?$standard_base@DV?$string_output_adapter@D@__crt_stdio_output@@@2@@__crt_stdio_output@@AAE_NI_N@Z 1005dd40 f i libucrtd:output.obj
 0001:0005d090       ?type_case_integer@?$output_processor@_WV?$stream_output_adapter@_W@__crt_stdio_output@@V?$format_validation_base@_WV?$stream_output_adapter@_W@__crt_stdio_output@@@2@@__crt_stdio_output@@AAE_NI_N@Z 1005e090 f i libucrtd:output.obj
 0001:0005d3e0       ?type_case_integer@?$output_processor@_WV?$stream_output_adapter@_W@__crt_stdio_output@@V?$positional_parameter_base@_WV?$stream_output_adapter@_W@__crt_stdio_output@@@2@@__crt_stdio_output@@AAE_NI_N@Z 1005e3e0 f i libucrtd:output.obj
 0001:0005d730       ?type_case_integer@?$output_processor@_WV?$stream_output_adapter@_W@__crt_stdio_output@@V?$standard_base@_WV?$stream_output_adapter@_W@__crt_stdio_output@@@2@@__crt_stdio_output@@AAE_NI_N@Z 1005e730 f i libucrtd:output.obj
 0001:0005da80       ?type_case_integer@?$output_processor@_WV?$string_output_adapter@_W@__crt_stdio_output@@V?$format_validation_base@_WV?$string_output_adapter@_W@__crt_stdio_output@@@2@@__crt_stdio_output@@AAE_NI_N@Z 1005ea80 f i libucrtd:output.obj
 0001:0005ddd0       ?type_case_integer@?$output_processor@_WV?$string_output_adapter@_W@__crt_stdio_output@@V?$positional_parameter_base@_WV?$string_output_adapter@_W@__crt_stdio_output@@@2@@__crt_stdio_output@@AAE_NI_N@Z 1005edd0 f i libucrtd:output.obj
 0001:0005e120       ?type_case_integer@?$output_processor@_WV?$string_output_adapter@_W@__crt_stdio_output@@V?$standard_base@_WV?$string_output_adapter@_W@__crt_stdio_output@@@2@@__crt_stdio_output@@AAE_NI_N@Z 1005f120 f i libucrtd:output.obj
 0001:0005e470       ?type_case_n@?$output_processor@DV?$stream_output_adapter@D@__crt_stdio_output@@V?$format_validation_base@DV?$stream_output_adapter@D@__crt_stdio_output@@@2@@__crt_stdio_output@@AAE_NXZ 1005f470 f i libucrtd:output.obj
 0001:0005e660       ?type_case_n@?$output_processor@DV?$stream_output_adapter@D@__crt_stdio_output@@V?$positional_parameter_base@DV?$stream_output_adapter@D@__crt_stdio_output@@@2@@__crt_stdio_output@@AAE_NXZ 1005f660 f i libucrtd:output.obj
 0001:0005e850       ?type_case_n@?$output_processor@DV?$stream_output_adapter@D@__crt_stdio_output@@V?$standard_base@DV?$stream_output_adapter@D@__crt_stdio_output@@@2@@__crt_stdio_output@@AAE_NXZ 1005f850 f i libucrtd:output.obj
 0001:0005ea40       ?type_case_n@?$output_processor@DV?$string_output_adapter@D@__crt_stdio_output@@V?$format_validation_base@DV?$string_output_adapter@D@__crt_stdio_output@@@2@@__crt_stdio_output@@AAE_NXZ 1005fa40 f i libucrtd:output.obj
 0001:0005ec30       ?type_case_n@?$output_processor@DV?$string_output_adapter@D@__crt_stdio_output@@V?$positional_parameter_base@DV?$string_output_adapter@D@__crt_stdio_output@@@2@@__crt_stdio_output@@AAE_NXZ 1005fc30 f i libucrtd:output.obj
 0001:0005ee20       ?type_case_n@?$output_processor@DV?$string_output_adapter@D@__crt_stdio_output@@V?$standard_base@DV?$string_output_adapter@D@__crt_stdio_output@@@2@@__crt_stdio_output@@AAE_NXZ 1005fe20 f i libucrtd:output.obj
 0001:0005f010       ?type_case_n@?$output_processor@_WV?$stream_output_adapter@_W@__crt_stdio_output@@V?$format_validation_base@_WV?$stream_output_adapter@_W@__crt_stdio_output@@@2@@__crt_stdio_output@@AAE_NXZ 10060010 f i libucrtd:output.obj
 0001:0005f200       ?type_case_n@?$output_processor@_WV?$stream_output_adapter@_W@__crt_stdio_output@@V?$positional_parameter_base@_WV?$stream_output_adapter@_W@__crt_stdio_output@@@2@@__crt_stdio_output@@AAE_NXZ 10060200 f i libucrtd:output.obj
 0001:0005f3f0       ?type_case_n@?$output_processor@_WV?$stream_output_adapter@_W@__crt_stdio_output@@V?$standard_base@_WV?$stream_output_adapter@_W@__crt_stdio_output@@@2@@__crt_stdio_output@@AAE_NXZ 100603f0 f i libucrtd:output.obj
 0001:0005f5e0       ?type_case_n@?$output_processor@_WV?$string_output_adapter@_W@__crt_stdio_output@@V?$format_validation_base@_WV?$string_output_adapter@_W@__crt_stdio_output@@@2@@__crt_stdio_output@@AAE_NXZ 100605e0 f i libucrtd:output.obj
 0001:0005f7d0       ?type_case_n@?$output_processor@_WV?$string_output_adapter@_W@__crt_stdio_output@@V?$positional_parameter_base@_WV?$string_output_adapter@_W@__crt_stdio_output@@@2@@__crt_stdio_output@@AAE_NXZ 100607d0 f i libucrtd:output.obj
 0001:0005f9c0       ?type_case_n@?$output_processor@_WV?$string_output_adapter@_W@__crt_stdio_output@@V?$standard_base@_WV?$string_output_adapter@_W@__crt_stdio_output@@@2@@__crt_stdio_output@@AAE_NXZ 100609c0 f i libucrtd:output.obj
 0001:0005fbb0       ?type_case_o@?$output_processor@DV?$stream_output_adapter@D@__crt_stdio_output@@V?$format_validation_base@DV?$stream_output_adapter@D@__crt_stdio_output@@@2@@__crt_stdio_output@@AAE_NXZ 10060bb0 f i libucrtd:output.obj
 0001:0005fbf0       ?type_case_o@?$output_processor@DV?$stream_output_adapter@D@__crt_stdio_output@@V?$positional_parameter_base@DV?$stream_output_adapter@D@__crt_stdio_output@@@2@@__crt_stdio_output@@AAE_NXZ 10060bf0 f i libucrtd:output.obj
 0001:0005fc30       ?type_case_o@?$output_processor@DV?$stream_output_adapter@D@__crt_stdio_output@@V?$standard_base@DV?$stream_output_adapter@D@__crt_stdio_output@@@2@@__crt_stdio_output@@AAE_NXZ 10060c30 f i libucrtd:output.obj
 0001:0005fc70       ?type_case_o@?$output_processor@DV?$string_output_adapter@D@__crt_stdio_output@@V?$format_validation_base@DV?$string_output_adapter@D@__crt_stdio_output@@@2@@__crt_stdio_output@@AAE_NXZ 10060c70 f i libucrtd:output.obj
 0001:0005fcb0       ?type_case_o@?$output_processor@DV?$string_output_adapter@D@__crt_stdio_output@@V?$positional_parameter_base@DV?$string_output_adapter@D@__crt_stdio_output@@@2@@__crt_stdio_output@@AAE_NXZ 10060cb0 f i libucrtd:output.obj
 0001:0005fcf0       ?type_case_o@?$output_processor@DV?$string_output_adapter@D@__crt_stdio_output@@V?$standard_base@DV?$string_output_adapter@D@__crt_stdio_output@@@2@@__crt_stdio_output@@AAE_NXZ 10060cf0 f i libucrtd:output.obj
 0001:0005fd30       ?type_case_o@?$output_processor@_WV?$stream_output_adapter@_W@__crt_stdio_output@@V?$format_validation_base@_WV?$stream_output_adapter@_W@__crt_stdio_output@@@2@@__crt_stdio_output@@AAE_NXZ 10060d30 f i libucrtd:output.obj
 0001:0005fd70       ?type_case_o@?$output_processor@_WV?$stream_output_adapter@_W@__crt_stdio_output@@V?$positional_parameter_base@_WV?$stream_output_adapter@_W@__crt_stdio_output@@@2@@__crt_stdio_output@@AAE_NXZ 10060d70 f i libucrtd:output.obj
 0001:0005fdb0       ?type_case_o@?$output_processor@_WV?$stream_output_adapter@_W@__crt_stdio_output@@V?$standard_base@_WV?$stream_output_adapter@_W@__crt_stdio_output@@@2@@__crt_stdio_output@@AAE_NXZ 10060db0 f i libucrtd:output.obj
 0001:0005fdf0       ?type_case_o@?$output_processor@_WV?$string_output_adapter@_W@__crt_stdio_output@@V?$format_validation_base@_WV?$string_output_adapter@_W@__crt_stdio_output@@@2@@__crt_stdio_output@@AAE_NXZ 10060df0 f i libucrtd:output.obj
 0001:0005fe30       ?type_case_o@?$output_processor@_WV?$string_output_adapter@_W@__crt_stdio_output@@V?$positional_parameter_base@_WV?$string_output_adapter@_W@__crt_stdio_output@@@2@@__crt_stdio_output@@AAE_NXZ 10060e30 f i libucrtd:output.obj
 0001:0005fe70       ?type_case_o@?$output_processor@_WV?$string_output_adapter@_W@__crt_stdio_output@@V?$standard_base@_WV?$string_output_adapter@_W@__crt_stdio_output@@@2@@__crt_stdio_output@@AAE_NXZ 10060e70 f i libucrtd:output.obj
 0001:0005feb0       ?type_case_p@?$output_processor@DV?$stream_output_adapter@D@__crt_stdio_output@@V?$format_validation_base@DV?$stream_output_adapter@D@__crt_stdio_output@@@2@@__crt_stdio_output@@AAE_NXZ 10060eb0 f i libucrtd:output.obj
 0001:0005fee0       ?type_case_p@?$output_processor@DV?$stream_output_adapter@D@__crt_stdio_output@@V?$positional_parameter_base@DV?$stream_output_adapter@D@__crt_stdio_output@@@2@@__crt_stdio_output@@AAE_NXZ 10060ee0 f i libucrtd:output.obj
 0001:0005ff10       ?type_case_p@?$output_processor@DV?$stream_output_adapter@D@__crt_stdio_output@@V?$standard_base@DV?$stream_output_adapter@D@__crt_stdio_output@@@2@@__crt_stdio_output@@AAE_NXZ 10060f10 f i libucrtd:output.obj
 0001:0005ff40       ?type_case_p@?$output_processor@DV?$string_output_adapter@D@__crt_stdio_output@@V?$format_validation_base@DV?$string_output_adapter@D@__crt_stdio_output@@@2@@__crt_stdio_output@@AAE_NXZ 10060f40 f i libucrtd:output.obj
 0001:0005ff70       ?type_case_p@?$output_processor@DV?$string_output_adapter@D@__crt_stdio_output@@V?$positional_parameter_base@DV?$string_output_adapter@D@__crt_stdio_output@@@2@@__crt_stdio_output@@AAE_NXZ 10060f70 f i libucrtd:output.obj
 0001:0005ffa0       ?type_case_p@?$output_processor@DV?$string_output_adapter@D@__crt_stdio_output@@V?$standard_base@DV?$string_output_adapter@D@__crt_stdio_output@@@2@@__crt_stdio_output@@AAE_NXZ 10060fa0 f i libucrtd:output.obj
 0001:0005ffd0       ?type_case_p@?$output_processor@_WV?$stream_output_adapter@_W@__crt_stdio_output@@V?$format_validation_base@_WV?$stream_output_adapter@_W@__crt_stdio_output@@@2@@__crt_stdio_output@@AAE_NXZ 10060fd0 f i libucrtd:output.obj
 0001:00060000       ?type_case_p@?$output_processor@_WV?$stream_output_adapter@_W@__crt_stdio_output@@V?$positional_parameter_base@_WV?$stream_output_adapter@_W@__crt_stdio_output@@@2@@__crt_stdio_output@@AAE_NXZ 10061000 f i libucrtd:output.obj
 0001:00060030       ?type_case_p@?$output_processor@_WV?$stream_output_adapter@_W@__crt_stdio_output@@V?$standard_base@_WV?$stream_output_adapter@_W@__crt_stdio_output@@@2@@__crt_stdio_output@@AAE_NXZ 10061030 f i libucrtd:output.obj
 0001:00060060       ?type_case_p@?$output_processor@_WV?$string_output_adapter@_W@__crt_stdio_output@@V?$format_validation_base@_WV?$string_output_adapter@_W@__crt_stdio_output@@@2@@__crt_stdio_output@@AAE_NXZ 10061060 f i libucrtd:output.obj
 0001:00060090       ?type_case_p@?$output_processor@_WV?$string_output_adapter@_W@__crt_stdio_output@@V?$positional_parameter_base@_WV?$string_output_adapter@_W@__crt_stdio_output@@@2@@__crt_stdio_output@@AAE_NXZ 10061090 f i libucrtd:output.obj
 0001:000600c0       ?type_case_p@?$output_processor@_WV?$string_output_adapter@_W@__crt_stdio_output@@V?$standard_base@_WV?$string_output_adapter@_W@__crt_stdio_output@@@2@@__crt_stdio_output@@AAE_NXZ 100610c0 f i libucrtd:output.obj
 0001:000600f0       ?type_case_s@?$output_processor@DV?$stream_output_adapter@D@__crt_stdio_output@@V?$format_validation_base@DV?$stream_output_adapter@D@__crt_stdio_output@@@2@@__crt_stdio_output@@AAE_NXZ 100610f0 f i libucrtd:output.obj
 0001:000601e0       ?type_case_s@?$output_processor@DV?$stream_output_adapter@D@__crt_stdio_output@@V?$positional_parameter_base@DV?$stream_output_adapter@D@__crt_stdio_output@@@2@@__crt_stdio_output@@AAE_NXZ 100611e0 f i libucrtd:output.obj
 0001:000602d0       ?type_case_s@?$output_processor@DV?$stream_output_adapter@D@__crt_stdio_output@@V?$standard_base@DV?$stream_output_adapter@D@__crt_stdio_output@@@2@@__crt_stdio_output@@AAE_NXZ 100612d0 f i libucrtd:output.obj
 0001:000603c0       ?type_case_s@?$output_processor@DV?$string_output_adapter@D@__crt_stdio_output@@V?$format_validation_base@DV?$string_output_adapter@D@__crt_stdio_output@@@2@@__crt_stdio_output@@AAE_NXZ 100613c0 f i libucrtd:output.obj
 0001:000604b0       ?type_case_s@?$output_processor@DV?$string_output_adapter@D@__crt_stdio_output@@V?$positional_parameter_base@DV?$string_output_adapter@D@__crt_stdio_output@@@2@@__crt_stdio_output@@AAE_NXZ 100614b0 f i libucrtd:output.obj
 0001:000605a0       ?type_case_s@?$output_processor@DV?$string_output_adapter@D@__crt_stdio_output@@V?$standard_base@DV?$string_output_adapter@D@__crt_stdio_output@@@2@@__crt_stdio_output@@AAE_NXZ 100615a0 f i libucrtd:output.obj
 0001:00060690       ?type_case_s@?$output_processor@_WV?$stream_output_adapter@_W@__crt_stdio_output@@V?$format_validation_base@_WV?$stream_output_adapter@_W@__crt_stdio_output@@@2@@__crt_stdio_output@@AAE_NXZ 10061690 f i libucrtd:output.obj
 0001:00060780       ?type_case_s@?$output_processor@_WV?$stream_output_adapter@_W@__crt_stdio_output@@V?$positional_parameter_base@_WV?$stream_output_adapter@_W@__crt_stdio_output@@@2@@__crt_stdio_output@@AAE_NXZ 10061780 f i libucrtd:output.obj
 0001:00060870       ?type_case_s@?$output_processor@_WV?$stream_output_adapter@_W@__crt_stdio_output@@V?$standard_base@_WV?$stream_output_adapter@_W@__crt_stdio_output@@@2@@__crt_stdio_output@@AAE_NXZ 10061870 f i libucrtd:output.obj
 0001:00060960       ?type_case_s@?$output_processor@_WV?$string_output_adapter@_W@__crt_stdio_output@@V?$format_validation_base@_WV?$string_output_adapter@_W@__crt_stdio_output@@@2@@__crt_stdio_output@@AAE_NXZ 10061960 f i libucrtd:output.obj
 0001:00060a50       ?type_case_s@?$output_processor@_WV?$string_output_adapter@_W@__crt_stdio_output@@V?$positional_parameter_base@_WV?$string_output_adapter@_W@__crt_stdio_output@@@2@@__crt_stdio_output@@AAE_NXZ 10061a50 f i libucrtd:output.obj
 0001:00060b40       ?type_case_s@?$output_processor@_WV?$string_output_adapter@_W@__crt_stdio_output@@V?$standard_base@_WV?$string_output_adapter@_W@__crt_stdio_output@@@2@@__crt_stdio_output@@AAE_NXZ 10061b40 f i libucrtd:output.obj
 0001:00060c30       ?type_case_s_compute_narrow_string_length@?$output_processor@DV?$stream_output_adapter@D@__crt_stdio_output@@V?$format_validation_base@DV?$stream_output_adapter@D@__crt_stdio_output@@@2@@__crt_stdio_output@@ABEHHD@Z 10061c30 f i libucrtd:output.obj
 0001:00060c60       ?type_case_s_compute_narrow_string_length@?$output_processor@DV?$stream_output_adapter@D@__crt_stdio_output@@V?$positional_parameter_base@DV?$stream_output_adapter@D@__crt_stdio_output@@@2@@__crt_stdio_output@@ABEHHD@Z 10061c60 f i libucrtd:output.obj
 0001:00060c90       ?type_case_s_compute_narrow_string_length@?$output_processor@DV?$stream_output_adapter@D@__crt_stdio_output@@V?$standard_base@DV?$stream_output_adapter@D@__crt_stdio_output@@@2@@__crt_stdio_output@@ABEHHD@Z 10061c90 f i libucrtd:output.obj
 0001:00060cc0       ?type_case_s_compute_narrow_string_length@?$output_processor@DV?$string_output_adapter@D@__crt_stdio_output@@V?$format_validation_base@DV?$string_output_adapter@D@__crt_stdio_output@@@2@@__crt_stdio_output@@ABEHHD@Z 10061cc0 f i libucrtd:output.obj
 0001:00060cf0       ?type_case_s_compute_narrow_string_length@?$output_processor@DV?$string_output_adapter@D@__crt_stdio_output@@V?$positional_parameter_base@DV?$string_output_adapter@D@__crt_stdio_output@@@2@@__crt_stdio_output@@ABEHHD@Z 10061cf0 f i libucrtd:output.obj
 0001:00060d20       ?type_case_s_compute_narrow_string_length@?$output_processor@DV?$string_output_adapter@D@__crt_stdio_output@@V?$standard_base@DV?$string_output_adapter@D@__crt_stdio_output@@@2@@__crt_stdio_output@@ABEHHD@Z 10061d20 f i libucrtd:output.obj
 0001:00060d50       ?type_case_s_compute_narrow_string_length@?$output_processor@_WV?$stream_output_adapter@_W@__crt_stdio_output@@V?$format_validation_base@_WV?$stream_output_adapter@_W@__crt_stdio_output@@@2@@__crt_stdio_output@@ABEHH_W@Z 10061d50 f i libucrtd:output.obj
 0001:00060dc0       ?type_case_s_compute_narrow_string_length@?$output_processor@_WV?$stream_output_adapter@_W@__crt_stdio_output@@V?$positional_parameter_base@_WV?$stream_output_adapter@_W@__crt_stdio_output@@@2@@__crt_stdio_output@@ABEHH_W@Z 10061dc0 f i libucrtd:output.obj
 0001:00060e30       ?type_case_s_compute_narrow_string_length@?$output_processor@_WV?$stream_output_adapter@_W@__crt_stdio_output@@V?$standard_base@_WV?$stream_output_adapter@_W@__crt_stdio_output@@@2@@__crt_stdio_output@@ABEHH_W@Z 10061e30 f i libucrtd:output.obj
 0001:00060ea0       ?type_case_s_compute_narrow_string_length@?$output_processor@_WV?$string_output_adapter@_W@__crt_stdio_output@@V?$format_validation_base@_WV?$string_output_adapter@_W@__crt_stdio_output@@@2@@__crt_stdio_output@@ABEHH_W@Z 10061ea0 f i libucrtd:output.obj
 0001:00060f10       ?type_case_s_compute_narrow_string_length@?$output_processor@_WV?$string_output_adapter@_W@__crt_stdio_output@@V?$positional_parameter_base@_WV?$string_output_adapter@_W@__crt_stdio_output@@@2@@__crt_stdio_output@@ABEHH_W@Z 10061f10 f i libucrtd:output.obj
 0001:00060f80       ?type_case_s_compute_narrow_string_length@?$output_processor@_WV?$string_output_adapter@_W@__crt_stdio_output@@V?$standard_base@_WV?$string_output_adapter@_W@__crt_stdio_output@@@2@@__crt_stdio_output@@ABEHH_W@Z 10061f80 f i libucrtd:output.obj
 0001:00060ff0       ?type_case_u@?$output_processor@DV?$stream_output_adapter@D@__crt_stdio_output@@V?$format_validation_base@DV?$stream_output_adapter@D@__crt_stdio_output@@@2@@__crt_stdio_output@@AAE_NXZ 10061ff0 f i libucrtd:output.obj
 0001:00061010       ?type_case_u@?$output_processor@DV?$stream_output_adapter@D@__crt_stdio_output@@V?$positional_parameter_base@DV?$stream_output_adapter@D@__crt_stdio_output@@@2@@__crt_stdio_output@@AAE_NXZ 10062010 f i libucrtd:output.obj
 0001:00061030       ?type_case_u@?$output_processor@DV?$stream_output_adapter@D@__crt_stdio_output@@V?$standard_base@DV?$stream_output_adapter@D@__crt_stdio_output@@@2@@__crt_stdio_output@@AAE_NXZ 10062030 f i libucrtd:output.obj
 0001:00061050       ?type_case_u@?$output_processor@DV?$string_output_adapter@D@__crt_stdio_output@@V?$format_validation_base@DV?$string_output_adapter@D@__crt_stdio_output@@@2@@__crt_stdio_output@@AAE_NXZ 10062050 f i libucrtd:output.obj
 0001:00061070       ?type_case_u@?$output_processor@DV?$string_output_adapter@D@__crt_stdio_output@@V?$positional_parameter_base@DV?$string_output_adapter@D@__crt_stdio_output@@@2@@__crt_stdio_output@@AAE_NXZ 10062070 f i libucrtd:output.obj
 0001:00061090       ?type_case_u@?$output_processor@DV?$string_output_adapter@D@__crt_stdio_output@@V?$standard_base@DV?$string_output_adapter@D@__crt_stdio_output@@@2@@__crt_stdio_output@@AAE_NXZ 10062090 f i libucrtd:output.obj
 0001:000610b0       ?type_case_u@?$output_processor@_WV?$stream_output_adapter@_W@__crt_stdio_output@@V?$format_validation_base@_WV?$stream_output_adapter@_W@__crt_stdio_output@@@2@@__crt_stdio_output@@AAE_NXZ 100620b0 f i libucrtd:output.obj
 0001:000610d0       ?type_case_u@?$output_processor@_WV?$stream_output_adapter@_W@__crt_stdio_output@@V?$positional_parameter_base@_WV?$stream_output_adapter@_W@__crt_stdio_output@@@2@@__crt_stdio_output@@AAE_NXZ 100620d0 f i libucrtd:output.obj
 0001:000610f0       ?type_case_u@?$output_processor@_WV?$stream_output_adapter@_W@__crt_stdio_output@@V?$standard_base@_WV?$stream_output_adapter@_W@__crt_stdio_output@@@2@@__crt_stdio_output@@AAE_NXZ 100620f0 f i libucrtd:output.obj
 0001:00061110       ?type_case_u@?$output_processor@_WV?$string_output_adapter@_W@__crt_stdio_output@@V?$format_validation_base@_WV?$string_output_adapter@_W@__crt_stdio_output@@@2@@__crt_stdio_output@@AAE_NXZ 10062110 f i libucrtd:output.obj
 0001:00061130       ?type_case_u@?$output_processor@_WV?$string_output_adapter@_W@__crt_stdio_output@@V?$positional_parameter_base@_WV?$string_output_adapter@_W@__crt_stdio_output@@@2@@__crt_stdio_output@@AAE_NXZ 10062130 f i libucrtd:output.obj
 0001:00061150       ?type_case_u@?$output_processor@_WV?$string_output_adapter@_W@__crt_stdio_output@@V?$standard_base@_WV?$string_output_adapter@_W@__crt_stdio_output@@@2@@__crt_stdio_output@@AAE_NXZ 10062150 f i libucrtd:output.obj
 0001:00061170       ?type_case_x@?$output_processor@DV?$stream_output_adapter@D@__crt_stdio_output@@V?$format_validation_base@DV?$stream_output_adapter@D@__crt_stdio_output@@@2@@__crt_stdio_output@@AAE_NXZ 10062170 f i libucrtd:output.obj
 0001:00061190       ?type_case_x@?$output_processor@DV?$stream_output_adapter@D@__crt_stdio_output@@V?$positional_parameter_base@DV?$stream_output_adapter@D@__crt_stdio_output@@@2@@__crt_stdio_output@@AAE_NXZ 10062190 f i libucrtd:output.obj
 0001:000611b0       ?type_case_x@?$output_processor@DV?$stream_output_adapter@D@__crt_stdio_output@@V?$standard_base@DV?$stream_output_adapter@D@__crt_stdio_output@@@2@@__crt_stdio_output@@AAE_NXZ 100621b0 f i libucrtd:output.obj
 0001:000611d0       ?type_case_x@?$output_processor@DV?$string_output_adapter@D@__crt_stdio_output@@V?$format_validation_base@DV?$string_output_adapter@D@__crt_stdio_output@@@2@@__crt_stdio_output@@AAE_NXZ 100621d0 f i libucrtd:output.obj
 0001:000611f0       ?type_case_x@?$output_processor@DV?$string_output_adapter@D@__crt_stdio_output@@V?$positional_parameter_base@DV?$string_output_adapter@D@__crt_stdio_output@@@2@@__crt_stdio_output@@AAE_NXZ 100621f0 f i libucrtd:output.obj
 0001:00061210       ?type_case_x@?$output_processor@DV?$string_output_adapter@D@__crt_stdio_output@@V?$standard_base@DV?$string_output_adapter@D@__crt_stdio_output@@@2@@__crt_stdio_output@@AAE_NXZ 10062210 f i libucrtd:output.obj
 0001:00061230       ?type_case_x@?$output_processor@_WV?$stream_output_adapter@_W@__crt_stdio_output@@V?$format_validation_base@_WV?$stream_output_adapter@_W@__crt_stdio_output@@@2@@__crt_stdio_output@@AAE_NXZ 10062230 f i libucrtd:output.obj
 0001:00061250       ?type_case_x@?$output_processor@_WV?$stream_output_adapter@_W@__crt_stdio_output@@V?$positional_parameter_base@_WV?$stream_output_adapter@_W@__crt_stdio_output@@@2@@__crt_stdio_output@@AAE_NXZ 10062250 f i libucrtd:output.obj
 0001:00061270       ?type_case_x@?$output_processor@_WV?$stream_output_adapter@_W@__crt_stdio_output@@V?$standard_base@_WV?$stream_output_adapter@_W@__crt_stdio_output@@@2@@__crt_stdio_output@@AAE_NXZ 10062270 f i libucrtd:output.obj
 0001:00061290       ?type_case_x@?$output_processor@_WV?$string_output_adapter@_W@__crt_stdio_output@@V?$format_validation_base@_WV?$string_output_adapter@_W@__crt_stdio_output@@@2@@__crt_stdio_output@@AAE_NXZ 10062290 f i libucrtd:output.obj
 0001:000612b0       ?type_case_x@?$output_processor@_WV?$string_output_adapter@_W@__crt_stdio_output@@V?$positional_parameter_base@_WV?$string_output_adapter@_W@__crt_stdio_output@@@2@@__crt_stdio_output@@AAE_NXZ 100622b0 f i libucrtd:output.obj
 0001:000612d0       ?type_case_x@?$output_processor@_WV?$string_output_adapter@_W@__crt_stdio_output@@V?$standard_base@_WV?$string_output_adapter@_W@__crt_stdio_output@@@2@@__crt_stdio_output@@AAE_NXZ 100622d0 f i libucrtd:output.obj
 0001:000612f0       ?unset_flag@?$output_processor@DV?$stream_output_adapter@D@__crt_stdio_output@@V?$format_validation_base@DV?$stream_output_adapter@D@__crt_stdio_output@@@2@@__crt_stdio_output@@AAEXI@Z 100622f0 f i libucrtd:output.obj
 0001:00061310       ?unset_flag@?$output_processor@DV?$stream_output_adapter@D@__crt_stdio_output@@V?$positional_parameter_base@DV?$stream_output_adapter@D@__crt_stdio_output@@@2@@__crt_stdio_output@@AAEXI@Z 10062310 f i libucrtd:output.obj
 0001:00061330       ?unset_flag@?$output_processor@DV?$stream_output_adapter@D@__crt_stdio_output@@V?$standard_base@DV?$stream_output_adapter@D@__crt_stdio_output@@@2@@__crt_stdio_output@@AAEXI@Z 10062330 f i libucrtd:output.obj
 0001:00061350       ?unset_flag@?$output_processor@DV?$string_output_adapter@D@__crt_stdio_output@@V?$format_validation_base@DV?$string_output_adapter@D@__crt_stdio_output@@@2@@__crt_stdio_output@@AAEXI@Z 10062350 f i libucrtd:output.obj
 0001:00061370       ?unset_flag@?$output_processor@DV?$string_output_adapter@D@__crt_stdio_output@@V?$positional_parameter_base@DV?$string_output_adapter@D@__crt_stdio_output@@@2@@__crt_stdio_output@@AAEXI@Z 10062370 f i libucrtd:output.obj
 0001:00061390       ?unset_flag@?$output_processor@DV?$string_output_adapter@D@__crt_stdio_output@@V?$standard_base@DV?$string_output_adapter@D@__crt_stdio_output@@@2@@__crt_stdio_output@@AAEXI@Z 10062390 f i libucrtd:output.obj
 0001:000613b0       ?unset_flag@?$output_processor@_WV?$stream_output_adapter@_W@__crt_stdio_output@@V?$format_validation_base@_WV?$stream_output_adapter@_W@__crt_stdio_output@@@2@@__crt_stdio_output@@AAEXI@Z 100623b0 f i libucrtd:output.obj
 0001:000613d0       ?unset_flag@?$output_processor@_WV?$stream_output_adapter@_W@__crt_stdio_output@@V?$positional_parameter_base@_WV?$stream_output_adapter@_W@__crt_stdio_output@@@2@@__crt_stdio_output@@AAEXI@Z 100623d0 f i libucrtd:output.obj
 0001:000613f0       ?unset_flag@?$output_processor@_WV?$stream_output_adapter@_W@__crt_stdio_output@@V?$standard_base@_WV?$stream_output_adapter@_W@__crt_stdio_output@@@2@@__crt_stdio_output@@AAEXI@Z 100623f0 f i libucrtd:output.obj
 0001:00061410       ?unset_flag@?$output_processor@_WV?$string_output_adapter@_W@__crt_stdio_output@@V?$format_validation_base@_WV?$string_output_adapter@_W@__crt_stdio_output@@@2@@__crt_stdio_output@@AAEXI@Z 10062410 f i libucrtd:output.obj
 0001:00061430       ?unset_flag@?$output_processor@_WV?$string_output_adapter@_W@__crt_stdio_output@@V?$positional_parameter_base@_WV?$string_output_adapter@_W@__crt_stdio_output@@@2@@__crt_stdio_output@@AAEXI@Z 10062430 f i libucrtd:output.obj
 0001:00061450       ?unset_flag@?$output_processor@_WV?$string_output_adapter@_W@__crt_stdio_output@@V?$standard_base@_WV?$string_output_adapter@_W@__crt_stdio_output@@@2@@__crt_stdio_output@@AAEXI@Z 10062450 f i libucrtd:output.obj
 0001:00061470       ?update_field_width@?$positional_parameter_base@DV?$stream_output_adapter@D@__crt_stdio_output@@@__crt_stdio_output@@IAE_NXZ 10062470 f i libucrtd:output.obj
 0001:000615f0       ?update_field_width@?$positional_parameter_base@DV?$string_output_adapter@D@__crt_stdio_output@@@__crt_stdio_output@@IAE_NXZ 100625f0 f i libucrtd:output.obj
 0001:00061770       ?update_field_width@?$positional_parameter_base@_WV?$stream_output_adapter@_W@__crt_stdio_output@@@__crt_stdio_output@@IAE_NXZ 10062770 f i libucrtd:output.obj
 0001:000618f0       ?update_field_width@?$positional_parameter_base@_WV?$string_output_adapter@_W@__crt_stdio_output@@@__crt_stdio_output@@IAE_NXZ 100628f0 f i libucrtd:output.obj
 0001:00061a70       ?update_field_width@?$standard_base@DV?$stream_output_adapter@D@__crt_stdio_output@@@__crt_stdio_output@@IAE_NXZ 10062a70 f i libucrtd:output.obj
 0001:00061aa0       ?update_field_width@?$standard_base@DV?$string_output_adapter@D@__crt_stdio_output@@@__crt_stdio_output@@IAE_NXZ 10062aa0 f i libucrtd:output.obj
 0001:00061ad0       ?update_field_width@?$standard_base@_WV?$stream_output_adapter@_W@__crt_stdio_output@@@__crt_stdio_output@@IAE_NXZ 10062ad0 f i libucrtd:output.obj
 0001:00061b00       ?update_field_width@?$standard_base@_WV?$string_output_adapter@_W@__crt_stdio_output@@@__crt_stdio_output@@IAE_NXZ 10062b00 f i libucrtd:output.obj
 0001:00061b30       ?update_precision@?$positional_parameter_base@DV?$stream_output_adapter@D@__crt_stdio_output@@@__crt_stdio_output@@IAE_NXZ 10062b30 f i libucrtd:output.obj
 0001:00061cb0       ?update_precision@?$positional_parameter_base@DV?$string_output_adapter@D@__crt_stdio_output@@@__crt_stdio_output@@IAE_NXZ 10062cb0 f i libucrtd:output.obj
 0001:00061e30       ?update_precision@?$positional_parameter_base@_WV?$stream_output_adapter@_W@__crt_stdio_output@@@__crt_stdio_output@@IAE_NXZ 10062e30 f i libucrtd:output.obj
 0001:00061fb0       ?update_precision@?$positional_parameter_base@_WV?$string_output_adapter@_W@__crt_stdio_output@@@__crt_stdio_output@@IAE_NXZ 10062fb0 f i libucrtd:output.obj
 0001:00062130       ?update_precision@?$standard_base@DV?$stream_output_adapter@D@__crt_stdio_output@@@__crt_stdio_output@@IAE_NXZ 10063130 f i libucrtd:output.obj
 0001:00062160       ?update_precision@?$standard_base@DV?$string_output_adapter@D@__crt_stdio_output@@@__crt_stdio_output@@IAE_NXZ 10063160 f i libucrtd:output.obj
 0001:00062190       ?update_precision@?$standard_base@_WV?$stream_output_adapter@_W@__crt_stdio_output@@@__crt_stdio_output@@IAE_NXZ 10063190 f i libucrtd:output.obj
 0001:000621c0       ?update_precision@?$standard_base@_WV?$string_output_adapter@_W@__crt_stdio_output@@@__crt_stdio_output@@IAE_NXZ 100631c0 f i libucrtd:output.obj
 0001:000621f0       ?valid@__crt_stdio_stream@@QBE_NXZ 100631f0 f i libucrtd:output.obj
 0001:00062220       ?validate@?$stream_output_adapter@D@__crt_stdio_output@@QBE_NXZ 10063220 f i libucrtd:output.obj
 0001:000622d0       ?validate@?$stream_output_adapter@_W@__crt_stdio_output@@QBE_NXZ 100632d0 f i libucrtd:output.obj
 0001:00062380       ?validate@?$string_output_adapter@D@__crt_stdio_output@@QBE_NXZ 10063380 f i libucrtd:output.obj
 0001:00062410       ?validate@?$string_output_adapter@_W@__crt_stdio_output@@QBE_NXZ 10063410 f i libucrtd:output.obj
 0001:000624a0       ?validate_and_store_parameter_data@?$positional_parameter_base@DV?$stream_output_adapter@D@__crt_stdio_output@@@__crt_stdio_output@@AAE_NAAUparameter_data@12@W4parameter_type@12@DW4length_modifier@2@@Z 100634a0 f i libucrtd:output.obj
 0001:00062570       ?validate_and_store_parameter_data@?$positional_parameter_base@DV?$string_output_adapter@D@__crt_stdio_output@@@__crt_stdio_output@@AAE_NAAUparameter_data@12@W4parameter_type@12@DW4length_modifier@2@@Z 10063570 f i libucrtd:output.obj
 0001:00062640       ?validate_and_store_parameter_data@?$positional_parameter_base@_WV?$stream_output_adapter@_W@__crt_stdio_output@@@__crt_stdio_output@@AAE_NAAUparameter_data@12@W4parameter_type@12@_WW4length_modifier@2@@Z 10063640 f i libucrtd:output.obj
 0001:00062720       ?validate_and_store_parameter_data@?$positional_parameter_base@_WV?$string_output_adapter@_W@__crt_stdio_output@@@__crt_stdio_output@@AAE_NAAUparameter_data@12@W4parameter_type@12@_WW4length_modifier@2@@Z 10063720 f i libucrtd:output.obj
 0001:00062800       ?validate_and_update_state_at_beginning_of_format_character@?$positional_parameter_base@DV?$stream_output_adapter@D@__crt_stdio_output@@@__crt_stdio_output@@IAE_NXZ 10063800 f i libucrtd:output.obj
 0001:00062a20       ?validate_and_update_state_at_beginning_of_format_character@?$positional_parameter_base@DV?$string_output_adapter@D@__crt_stdio_output@@@__crt_stdio_output@@IAE_NXZ 10063a20 f i libucrtd:output.obj
 0001:00062c40       ?validate_and_update_state_at_beginning_of_format_character@?$positional_parameter_base@_WV?$stream_output_adapter@_W@__crt_stdio_output@@@__crt_stdio_output@@IAE_NXZ 10063c40 f i libucrtd:output.obj
 0001:00062e60       ?validate_and_update_state_at_beginning_of_format_character@?$positional_parameter_base@_WV?$string_output_adapter@_W@__crt_stdio_output@@@__crt_stdio_output@@IAE_NXZ 10063e60 f i libucrtd:output.obj
 0001:00063080       ?validate_and_update_state_at_beginning_of_format_character@?$standard_base@DV?$stream_output_adapter@D@__crt_stdio_output@@@__crt_stdio_output@@IAE_NXZ 10064080 f i libucrtd:output.obj
 0001:00063090       ?validate_and_update_state_at_beginning_of_format_character@?$standard_base@DV?$string_output_adapter@D@__crt_stdio_output@@@__crt_stdio_output@@IAE_NXZ 10064090 f i libucrtd:output.obj
 0001:000630a0       ?validate_and_update_state_at_beginning_of_format_character@?$standard_base@_WV?$stream_output_adapter@_W@__crt_stdio_output@@@__crt_stdio_output@@IAE_NXZ 100640a0 f i libucrtd:output.obj
 0001:000630b0       ?validate_and_update_state_at_beginning_of_format_character@?$standard_base@_WV?$string_output_adapter@_W@__crt_stdio_output@@@__crt_stdio_output@@IAE_NXZ 100640b0 f i libucrtd:output.obj
 0001:000630c0       ?validate_and_update_state_at_end_of_format_string@?$format_validation_base@DV?$stream_output_adapter@D@__crt_stdio_output@@@__crt_stdio_output@@IBE_NXZ 100640c0 f i libucrtd:output.obj
 0001:00063160       ?validate_and_update_state_at_end_of_format_string@?$format_validation_base@DV?$string_output_adapter@D@__crt_stdio_output@@@__crt_stdio_output@@IBE_NXZ 10064160 f i libucrtd:output.obj
 0001:00063200       ?validate_and_update_state_at_end_of_format_string@?$format_validation_base@_WV?$stream_output_adapter@_W@__crt_stdio_output@@@__crt_stdio_output@@IBE_NXZ 10064200 f i libucrtd:output.obj
 0001:000632a0       ?validate_and_update_state_at_end_of_format_string@?$format_validation_base@_WV?$string_output_adapter@_W@__crt_stdio_output@@@__crt_stdio_output@@IBE_NXZ 100642a0 f i libucrtd:output.obj
 0001:00063340       ?validate_and_update_state_at_end_of_format_string@?$positional_parameter_base@DV?$stream_output_adapter@D@__crt_stdio_output@@@__crt_stdio_output@@IAE_NXZ 10064340 f i libucrtd:output.obj
 0001:000634e0       ?validate_and_update_state_at_end_of_format_string@?$positional_parameter_base@DV?$string_output_adapter@D@__crt_stdio_output@@@__crt_stdio_output@@IAE_NXZ 100644e0 f i libucrtd:output.obj
 0001:00063680       ?validate_and_update_state_at_end_of_format_string@?$positional_parameter_base@_WV?$stream_output_adapter@_W@__crt_stdio_output@@@__crt_stdio_output@@IAE_NXZ 10064680 f i libucrtd:output.obj
 0001:00063820       ?validate_and_update_state_at_end_of_format_string@?$positional_parameter_base@_WV?$string_output_adapter@_W@__crt_stdio_output@@@__crt_stdio_output@@IAE_NXZ 10064820 f i libucrtd:output.obj
 0001:000639c0       ?validate_and_update_state_at_end_of_format_string@?$standard_base@DV?$stream_output_adapter@D@__crt_stdio_output@@@__crt_stdio_output@@IBE_NXZ 100649c0 f i libucrtd:output.obj
 0001:000639d0       ?validate_and_update_state_at_end_of_format_string@?$standard_base@DV?$string_output_adapter@D@__crt_stdio_output@@@__crt_stdio_output@@IBE_NXZ 100649d0 f i libucrtd:output.obj
 0001:000639e0       ?validate_and_update_state_at_end_of_format_string@?$standard_base@_WV?$stream_output_adapter@_W@__crt_stdio_output@@@__crt_stdio_output@@IBE_NXZ 100649e0 f i libucrtd:output.obj
 0001:000639f0       ?validate_and_update_state_at_end_of_format_string@?$standard_base@_WV?$string_output_adapter@_W@__crt_stdio_output@@@__crt_stdio_output@@IBE_NXZ 100649f0 f i libucrtd:output.obj
 0001:00063a00       ?validate_state_for_type_case_a@?$positional_parameter_base@DV?$stream_output_adapter@D@__crt_stdio_output@@@__crt_stdio_output@@IAE_NXZ 10064a00 f i libucrtd:output.obj
 0001:00063af0       ?validate_state_for_type_case_a@?$positional_parameter_base@DV?$string_output_adapter@D@__crt_stdio_output@@@__crt_stdio_output@@IAE_NXZ 10064af0 f i libucrtd:output.obj
 0001:00063be0       ?validate_state_for_type_case_a@?$positional_parameter_base@_WV?$stream_output_adapter@_W@__crt_stdio_output@@@__crt_stdio_output@@IAE_NXZ 10064be0 f i libucrtd:output.obj
 0001:00063cd0       ?validate_state_for_type_case_a@?$positional_parameter_base@_WV?$string_output_adapter@_W@__crt_stdio_output@@@__crt_stdio_output@@IAE_NXZ 10064cd0 f i libucrtd:output.obj
 0001:00063dc0       ?validate_state_for_type_case_a@?$standard_base@DV?$stream_output_adapter@D@__crt_stdio_output@@@__crt_stdio_output@@IBE_NXZ 10064dc0 f i libucrtd:output.obj
 0001:00063dd0       ?validate_state_for_type_case_a@?$standard_base@DV?$string_output_adapter@D@__crt_stdio_output@@@__crt_stdio_output@@IBE_NXZ 10064dd0 f i libucrtd:output.obj
 0001:00063de0       ?validate_state_for_type_case_a@?$standard_base@_WV?$stream_output_adapter@_W@__crt_stdio_output@@@__crt_stdio_output@@IBE_NXZ 10064de0 f i libucrtd:output.obj
 0001:00063df0       ?validate_state_for_type_case_a@?$standard_base@_WV?$string_output_adapter@_W@__crt_stdio_output@@@__crt_stdio_output@@IBE_NXZ 10064df0 f i libucrtd:output.obj
 0001:00063e00       ?validate_stream_is_ansi_if_required@?$__acrt_stdio_char_traits@D@@SA_NQAU_iobuf@@@Z 10064e00 f i libucrtd:output.obj
 0001:00063f30       ?validate_stream_is_ansi_if_required@?$__acrt_stdio_char_traits@_W@@SA_NQAU_iobuf@@@Z 10064f30 f i libucrtd:output.obj
 0001:00063f40       ?wide_null_string@?$output_processor@DV?$stream_output_adapter@D@__crt_stdio_output@@V?$format_validation_base@DV?$stream_output_adapter@D@__crt_stdio_output@@@2@@__crt_stdio_output@@CAPA_WXZ 10064f40 f i libucrtd:output.obj
 0001:00063f50       ?wide_null_string@?$output_processor@DV?$stream_output_adapter@D@__crt_stdio_output@@V?$positional_parameter_base@DV?$stream_output_adapter@D@__crt_stdio_output@@@2@@__crt_stdio_output@@CAPA_WXZ 10064f50 f i libucrtd:output.obj
 0001:00063f60       ?wide_null_string@?$output_processor@DV?$stream_output_adapter@D@__crt_stdio_output@@V?$standard_base@DV?$stream_output_adapter@D@__crt_stdio_output@@@2@@__crt_stdio_output@@CAPA_WXZ 10064f60 f i libucrtd:output.obj
 0001:00063f70       ?wide_null_string@?$output_processor@DV?$string_output_adapter@D@__crt_stdio_output@@V?$format_validation_base@DV?$string_output_adapter@D@__crt_stdio_output@@@2@@__crt_stdio_output@@CAPA_WXZ 10064f70 f i libucrtd:output.obj
 0001:00063f80       ?wide_null_string@?$output_processor@DV?$string_output_adapter@D@__crt_stdio_output@@V?$positional_parameter_base@DV?$string_output_adapter@D@__crt_stdio_output@@@2@@__crt_stdio_output@@CAPA_WXZ 10064f80 f i libucrtd:output.obj
 0001:00063f90       ?wide_null_string@?$output_processor@DV?$string_output_adapter@D@__crt_stdio_output@@V?$standard_base@DV?$string_output_adapter@D@__crt_stdio_output@@@2@@__crt_stdio_output@@CAPA_WXZ 10064f90 f i libucrtd:output.obj
 0001:00063fa0       ?wide_null_string@?$output_processor@_WV?$stream_output_adapter@_W@__crt_stdio_output@@V?$format_validation_base@_WV?$stream_output_adapter@_W@__crt_stdio_output@@@2@@__crt_stdio_output@@CAPA_WXZ 10064fa0 f i libucrtd:output.obj
 0001:00063fb0       ?wide_null_string@?$output_processor@_WV?$stream_output_adapter@_W@__crt_stdio_output@@V?$positional_parameter_base@_WV?$stream_output_adapter@_W@__crt_stdio_output@@@2@@__crt_stdio_output@@CAPA_WXZ 10064fb0 f i libucrtd:output.obj
 0001:00063fc0       ?wide_null_string@?$output_processor@_WV?$stream_output_adapter@_W@__crt_stdio_output@@V?$standard_base@_WV?$stream_output_adapter@_W@__crt_stdio_output@@@2@@__crt_stdio_output@@CAPA_WXZ 10064fc0 f i libucrtd:output.obj
 0001:00063fd0       ?wide_null_string@?$output_processor@_WV?$string_output_adapter@_W@__crt_stdio_output@@V?$format_validation_base@_WV?$string_output_adapter@_W@__crt_stdio_output@@@2@@__crt_stdio_output@@CAPA_WXZ 10064fd0 f i libucrtd:output.obj
 0001:00063fe0       ?wide_null_string@?$output_processor@_WV?$string_output_adapter@_W@__crt_stdio_output@@V?$positional_parameter_base@_WV?$string_output_adapter@_W@__crt_stdio_output@@@2@@__crt_stdio_output@@CAPA_WXZ 10064fe0 f i libucrtd:output.obj
 0001:00063ff0       ?wide_null_string@?$output_processor@_WV?$string_output_adapter@_W@__crt_stdio_output@@V?$standard_base@_WV?$string_output_adapter@_W@__crt_stdio_output@@@2@@__crt_stdio_output@@CAPA_WXZ 10064ff0 f i libucrtd:output.obj
 0001:00064000       ?write_character@?$output_adapter_common@DV?$stream_output_adapter@D@__crt_stdio_output@@@__crt_stdio_output@@QBEXDQAH@Z 10065000 f i libucrtd:output.obj
 0001:00064040       ?write_character@?$output_adapter_common@_WV?$stream_output_adapter@_W@__crt_stdio_output@@@__crt_stdio_output@@QBEX_WQAH@Z 10065040 f i libucrtd:output.obj
 0001:00064080       ?write_character@?$string_output_adapter@D@__crt_stdio_output@@QBE_NDQAH@Z 10065080 f i libucrtd:output.obj
 0001:00064110       ?write_character@?$string_output_adapter@_W@__crt_stdio_output@@QBE_N_WQAH@Z 10065110 f i libucrtd:output.obj
 0001:000641b0       ?write_character_without_count_update@?$stream_output_adapter@D@__crt_stdio_output@@QBE_ND@Z 100651b0 f i libucrtd:output.obj
 0001:00064220       ?write_character_without_count_update@?$stream_output_adapter@_W@__crt_stdio_output@@QBE_N_W@Z 10065220 f i libucrtd:output.obj
 0001:00064290       ?write_stored_string_tchar@?$output_processor@DV?$stream_output_adapter@D@__crt_stdio_output@@V?$format_validation_base@DV?$stream_output_adapter@D@__crt_stdio_output@@@2@@__crt_stdio_output@@AAE_ND@Z 10065290 f i libucrtd:output.obj
 0001:000643a0       ?write_stored_string_tchar@?$output_processor@DV?$stream_output_adapter@D@__crt_stdio_output@@V?$positional_parameter_base@DV?$stream_output_adapter@D@__crt_stdio_output@@@2@@__crt_stdio_output@@AAE_ND@Z 100653a0 f i libucrtd:output.obj
 0001:000644b0       ?write_stored_string_tchar@?$output_processor@DV?$stream_output_adapter@D@__crt_stdio_output@@V?$standard_base@DV?$stream_output_adapter@D@__crt_stdio_output@@@2@@__crt_stdio_output@@AAE_ND@Z 100654b0 f i libucrtd:output.obj
 0001:000645c0       ?write_stored_string_tchar@?$output_processor@DV?$string_output_adapter@D@__crt_stdio_output@@V?$format_validation_base@DV?$string_output_adapter@D@__crt_stdio_output@@@2@@__crt_stdio_output@@AAE_ND@Z 100655c0 f i libucrtd:output.obj
 0001:000646d0       ?write_stored_string_tchar@?$output_processor@DV?$string_output_adapter@D@__crt_stdio_output@@V?$positional_parameter_base@DV?$string_output_adapter@D@__crt_stdio_output@@@2@@__crt_stdio_output@@AAE_ND@Z 100656d0 f i libucrtd:output.obj
 0001:000647e0       ?write_stored_string_tchar@?$output_processor@DV?$string_output_adapter@D@__crt_stdio_output@@V?$standard_base@DV?$string_output_adapter@D@__crt_stdio_output@@@2@@__crt_stdio_output@@AAE_ND@Z 100657e0 f i libucrtd:output.obj
 0001:000648f0       ?write_stored_string_tchar@?$output_processor@_WV?$stream_output_adapter@_W@__crt_stdio_output@@V?$format_validation_base@_WV?$stream_output_adapter@_W@__crt_stdio_output@@@2@@__crt_stdio_output@@AAE_N_W@Z 100658f0 f i libucrtd:output.obj
 0001:000649e0       ?write_stored_string_tchar@?$output_processor@_WV?$stream_output_adapter@_W@__crt_stdio_output@@V?$positional_parameter_base@_WV?$stream_output_adapter@_W@__crt_stdio_output@@@2@@__crt_stdio_output@@AAE_N_W@Z 100659e0 f i libucrtd:output.obj
 0001:00064ad0       ?write_stored_string_tchar@?$output_processor@_WV?$stream_output_adapter@_W@__crt_stdio_output@@V?$standard_base@_WV?$stream_output_adapter@_W@__crt_stdio_output@@@2@@__crt_stdio_output@@AAE_N_W@Z 10065ad0 f i libucrtd:output.obj
 0001:00064bc0       ?write_stored_string_tchar@?$output_processor@_WV?$string_output_adapter@_W@__crt_stdio_output@@V?$format_validation_base@_WV?$string_output_adapter@_W@__crt_stdio_output@@@2@@__crt_stdio_output@@AAE_N_W@Z 10065bc0 f i libucrtd:output.obj
 0001:00064cb0       ?write_stored_string_tchar@?$output_processor@_WV?$string_output_adapter@_W@__crt_stdio_output@@V?$positional_parameter_base@_WV?$string_output_adapter@_W@__crt_stdio_output@@@2@@__crt_stdio_output@@AAE_N_W@Z 10065cb0 f i libucrtd:output.obj
 0001:00064da0       ?write_stored_string_tchar@?$output_processor@_WV?$string_output_adapter@_W@__crt_stdio_output@@V?$standard_base@_WV?$string_output_adapter@_W@__crt_stdio_output@@@2@@__crt_stdio_output@@AAE_N_W@Z 10065da0 f i libucrtd:output.obj
 0001:00064e90       ?write_string@?$stream_output_adapter@D@__crt_stdio_output@@QBEXQBDHQAHAAV__crt_deferred_errno_cache@@@Z 10065e90 f i libucrtd:output.obj
 0001:00064ef0       ?write_string@?$stream_output_adapter@_W@__crt_stdio_output@@QBEXQB_WHQAHAAV__crt_deferred_errno_cache@@@Z 10065ef0 f i libucrtd:output.obj
 0001:00064f50       ?write_string@?$string_output_adapter@D@__crt_stdio_output@@QBEXQBDHQAHAAV__crt_deferred_errno_cache@@@Z 10065f50 f i libucrtd:output.obj
 0001:00065050       ?write_string@?$string_output_adapter@_W@__crt_stdio_output@@QBEXQB_WHQAHAAV__crt_deferred_errno_cache@@@Z 10066050 f i libucrtd:output.obj
 0001:00065160       ?write_string_impl@?$output_adapter_common@DV?$stream_output_adapter@D@__crt_stdio_output@@@__crt_stdio_output@@IBEXQBDHQAHAAV__crt_deferred_errno_cache@@@Z 10066160 f i libucrtd:output.obj
 0001:00065200       ?write_string_impl@?$output_adapter_common@_WV?$stream_output_adapter@_W@__crt_stdio_output@@@__crt_stdio_output@@IBEXQB_WHQAHAAV__crt_deferred_errno_cache@@@Z 10066200 f i libucrtd:output.obj
 0001:000652a0       ___acrt_isleadbyte_l_noupdate 100662a0 f i libucrtd:output.obj
 0001:000652c0       ___acrt_locale_changed     100662c0 f i libucrtd:output.obj
 0001:000652f0       ___acrt_locale_get_ctype_array_value 100662f0 f i libucrtd:output.obj
 0001:00065320       ___stdio_common_vfprintf   10066320 f   libucrtd:output.obj
 0001:00065350       ___stdio_common_vfprintf_p 10066350 f   libucrtd:output.obj
 0001:00065380       ___stdio_common_vfprintf_s 10066380 f   libucrtd:output.obj
 0001:000653b0       ___stdio_common_vfwprintf  100663b0 f   libucrtd:output.obj
 0001:000653e0       ___stdio_common_vfwprintf_p 100663e0 f   libucrtd:output.obj
 0001:00065410       ___stdio_common_vfwprintf_s 10066410 f   libucrtd:output.obj
 0001:00065440       ___stdio_common_vsnprintf_s 10066440 f   libucrtd:output.obj
 0001:00065470       ___stdio_common_vsnwprintf_s 10066470 f   libucrtd:output.obj
 0001:000654a0       ___stdio_common_vsprintf   100664a0 f   libucrtd:output.obj
 0001:000654d0       ___stdio_common_vsprintf_p 100664d0 f   libucrtd:output.obj
 0001:00065500       ___stdio_common_vsprintf_s 10066500 f   libucrtd:output.obj
 0001:00065530       ___stdio_common_vswprintf  10066530 f   libucrtd:output.obj
 0001:00065560       ___stdio_common_vswprintf_p 10066560 f   libucrtd:output.obj
 0001:00065590       ___stdio_common_vswprintf_s 10066590 f   libucrtd:output.obj
 0001:000655c0       __ctype_fast_check_internal 100665c0 f i libucrtd:output.obj
 0001:000655e0       __isdigit_fast_internal    100665e0 f i libucrtd:output.obj
 0001:00065600       __tolower_fast_internal    10066600 f i libucrtd:output.obj
 0001:00065620       _free                      10066620 f   libucrtd:free.obj
 0001:00065650       _malloc                    10066650 f   libucrtd:malloc.obj
 0001:00065670       ??$?RU?$__crt_report_hook_node@D@@@__crt_internal_free_policy@@QBEXQBU?$__crt_report_hook_node@D@@@Z 10066670 f i libucrtd:dbgrpt.obj
 0001:00065690       ??$?RU?$__crt_report_hook_node@_W@@@__crt_internal_free_policy@@QBEXQBU?$__crt_report_hook_node@_W@@@Z 10066690 f i libucrtd:dbgrpt.obj
 0001:00066480       ??$get_module_file_name@AAPAUHINSTANCE__@@AAY0BAF@DK@?$__crt_char_traits@D@@SAKAAPAUHINSTANCE__@@AAY0BAF@D$$QAK@Z 10067480 f i libucrtd:dbgrpt.obj
 0001:000664a0       ??$get_module_file_name@AAPAUHINSTANCE__@@AAY0BAF@_WK@?$__crt_char_traits@_W@@SAKAAPAUHINSTANCE__@@AAY0BAF@_W$$QAK@Z 100674a0 f i libucrtd:dbgrpt.obj
 0001:000664c0       ??$tcscpy_s@AAY0BAF@DIPBD@?$__crt_char_traits@D@@SAHAAY0BAF@D$$QAI$$QAPBD@Z 100674c0 f i libucrtd:dbgrpt.obj
 0001:000664e0       ??$tcscpy_s@AAY0BAF@_WIPB_W@?$__crt_char_traits@_W@@SAHAAY0BAF@_W$$QAI$$QAPB_W@Z 100674e0 f i libucrtd:dbgrpt.obj
 0001:00066500       ??$tcslen@AAY0BAF@D@?$__crt_char_traits@D@@SAIAAY0BAF@D@Z 10067500 f i libucrtd:dbgrpt.obj
 0001:00066520       ??$tcslen@AAY0BAF@_W@?$__crt_char_traits@_W@@SAIAAY0BAF@_W@Z 10067520 f i libucrtd:dbgrpt.obj
 0001:00066540       ??$tcslen@ABQBD@?$__crt_char_traits@D@@SAIABQBD@Z 10067540 f i libucrtd:dbgrpt.obj
 0001:00066560       ??$tcslen@ABQB_W@?$__crt_char_traits@_W@@SAIABQB_W@Z 10067560 f i libucrtd:dbgrpt.obj
 0001:00066660       ??0?$__crt_unique_heap_ptr@U?$__crt_report_hook_node@D@@U__crt_internal_free_policy@@@@QAE@QAU?$__crt_report_hook_node@D@@@Z 10067660 f i libucrtd:dbgrpt.obj
 0001:00066680       ??0?$__crt_unique_heap_ptr@U?$__crt_report_hook_node@_W@@U__crt_internal_free_policy@@@@QAE@QAU?$__crt_report_hook_node@_W@@@Z 10067680 f i libucrtd:dbgrpt.obj
 0001:000666a0       ??1?$__crt_unique_heap_ptr@U?$__crt_report_hook_node@D@@U__crt_internal_free_policy@@@@QAE@XZ 100676a0 f i libucrtd:dbgrpt.obj
 0001:000666c0       ??1?$__crt_unique_heap_ptr@U?$__crt_report_hook_node@_W@@U__crt_internal_free_policy@@@@QAE@XZ 100676c0 f i libucrtd:dbgrpt.obj
 0001:000666e0       ??B?$__crt_unique_heap_ptr@U?$__crt_report_hook_node@D@@U__crt_internal_free_policy@@@@QBE_NXZ 100676e0 f i libucrtd:dbgrpt.obj
 0001:00066700       ??B?$__crt_unique_heap_ptr@U?$__crt_report_hook_node@_W@@U__crt_internal_free_policy@@@@QBE_NXZ 10067700 f i libucrtd:dbgrpt.obj
 0001:00066c40       ?detach@?$__crt_unique_heap_ptr@U?$__crt_report_hook_node@D@@U__crt_internal_free_policy@@@@QAEPAU?$__crt_report_hook_node@D@@XZ 10067c40 f i libucrtd:dbgrpt.obj
 0001:00066c70       ?detach@?$__crt_unique_heap_ptr@U?$__crt_report_hook_node@_W@@U__crt_internal_free_policy@@@@QAEPAU?$__crt_report_hook_node@_W@@XZ 10067c70 f i libucrtd:dbgrpt.obj
 0001:00066ca0       ?get@?$__crt_unique_heap_ptr@U?$__crt_report_hook_node@D@@U__crt_internal_free_policy@@@@QBEPAU?$__crt_report_hook_node@D@@XZ 10067ca0 f i libucrtd:dbgrpt.obj
 0001:00066cc0       ?get@?$__crt_unique_heap_ptr@U?$__crt_report_hook_node@_W@@U__crt_internal_free_policy@@@@QBEPAU?$__crt_report_hook_node@_W@@XZ 10067cc0 f i libucrtd:dbgrpt.obj
 0001:00066d40       ?is_valid@?$__crt_unique_heap_ptr@U?$__crt_report_hook_node@D@@U__crt_internal_free_policy@@@@QBE_NXZ 10067d40 f i libucrtd:dbgrpt.obj
 0001:00066d70       ?is_valid@?$__crt_unique_heap_ptr@U?$__crt_report_hook_node@_W@@U__crt_internal_free_policy@@@@QBE_NXZ 10067d70 f i libucrtd:dbgrpt.obj
 0001:00066da0       ?release@?$__crt_unique_heap_ptr@U?$__crt_report_hook_node@D@@U__crt_internal_free_policy@@@@QAEXXZ 10067da0 f i libucrtd:dbgrpt.obj
 0001:00066dd0       ?release@?$__crt_unique_heap_ptr@U?$__crt_report_hook_node@_W@@U__crt_internal_free_policy@@@@QAEXXZ 10067dd0 f i libucrtd:dbgrpt.obj
 0001:00066e00       __CrtDbgReport             10067e00 f   libucrtd:dbgrpt.obj
 0001:00066e50       __CrtDbgReportW            10067e50 f   libucrtd:dbgrpt.obj
 0001:00066ea0       __CrtSetReportHook2        10067ea0 f   libucrtd:dbgrpt.obj
 0001:00066ec0       __CrtSetReportHookW2       10067ec0 f   libucrtd:dbgrpt.obj
 0001:00066ee0       ___acrt_MessageWindowA     10067ee0 f   libucrtd:dbgrpt.obj
 0001:00066f10       ___acrt_MessageWindowW     10067f10 f   libucrtd:dbgrpt.obj
 0001:00066f40       __invoke_watson_if_error   10067f40 f i libucrtd:dbgrpt.obj
 0001:00066f70       __invoke_watson_if_oneof   10067f70 f i libucrtd:dbgrpt.obj
 0001:00066fb0       __snwprintf_s              10067fb0 f i libucrtd:dbgrpt.obj
 0001:00066ff0       __vsnwprintf_s_l           10067ff0 f i libucrtd:dbgrpt.obj
 0001:00067370       _wcscpy_s                  10068370 f   libucrtd:wcscpy_s.obj
 0001:00068090       ??1?$__crt_simd_cleanup_guard@$00@@QAE@XZ 10069090 f i libucrtd:strnlen.obj
 0001:000680a0       ??1?$__crt_simd_cleanup_guard@$0A@@@QAE@XZ 100690a0 f i libucrtd:strnlen.obj
 0001:000680b0       ?compare_equals@?$__crt_simd_traits@$00E@@SA?AT__m256i@@T2@0@Z 100690b0 f i libucrtd:strnlen.obj
 0001:000680f0       ?compare_equals@?$__crt_simd_traits@$00G@@SA?AT__m256i@@T2@0@Z 100690f0 f i libucrtd:strnlen.obj
 0001:00068130       ?compare_equals@?$__crt_simd_traits@$0A@E@@SA?AT__m128i@@T2@0@Z 10069130 f i libucrtd:strnlen.obj
 0001:00068170       ?compare_equals@?$__crt_simd_traits@$0A@G@@SA?AT__m128i@@T2@0@Z 10069170 f i libucrtd:strnlen.obj
 0001:000681b0       ?compute_byte_mask@?$__crt_simd_pack_traits@$00@@SAHT__m256i@@@Z 100691b0 f i libucrtd:strnlen.obj
 0001:000681e0       ?compute_byte_mask@?$__crt_simd_pack_traits@$0A@@@SAHT__m128i@@@Z 100691e0 f i libucrtd:strnlen.obj
 0001:00068210       ?get_zero_pack@?$__crt_simd_pack_traits@$00@@SA?AT__m256i@@XZ 10069210 f i libucrtd:strnlen.obj
 0001:00068240       ?get_zero_pack@?$__crt_simd_pack_traits@$0A@@@SA?AT__m128i@@XZ 10069240 f i libucrtd:strnlen.obj
 0001:00068270       _strnlen                   10069270 f   libucrtd:strnlen.obj
 0001:00068290       _wcslen                    10069290 f   libucrtd:strnlen.obj
 0001:000682b0       _wcsnlen                   100692b0 f   libucrtd:strnlen.obj
 0001:000682d0       ??$__crt_fast_decode_pointer@P6AXPB_W00II@Z@@YAP6AXPB_W00II@ZQ6AX000II@Z@Z 100692d0 f i libucrtd:invalid_parameter.obj
 0001:00068300       ??$__crt_fast_encode_pointer@P6AXPB_W00II@Z@@YAP6AXPB_W00II@ZQ6AX000II@Z@Z 10069300 f i libucrtd:invalid_parameter.obj
 0001:00068330       ??$initialize_from_array@$$BY00Q6AXPB_W00II@Z@?$dual_state_global@P6AXPB_W00II@Z@__crt_state_management@@QAAXAAY00Q6AXPB_W00II@Z@Z 10069330 f i libucrtd:invalid_parameter.obj
 0001:00068380       ?__crt_rotate_pointer_value@@YAIIH@Z 10069380 f i libucrtd:invalid_parameter.obj
 0001:00068390       ?dangerous_get_state_array@?$dual_state_global@P6AXPB_W00II@Z@__crt_state_management@@QAEPAP6AXPB_W00II@ZXZ 10069390 f i libucrtd:invalid_parameter.obj
 0001:000683a0       ?get_current_state_index@__crt_state_management@@YAIXZ 100693a0 f i libucrtd:invalid_parameter.obj
 0001:000683b0       ?value@?$dual_state_global@P6AXPB_W00II@Z@__crt_state_management@@QAEAAP6AXPB_W00II@ZXZ 100693b0 f i libucrtd:invalid_parameter.obj
 0001:000683d0       ___acrt_call_reportfault   100693d0 f   libucrtd:invalid_parameter.obj
 0001:00068530       ___acrt_initialize_invalid_parameter_handler 10069530 f   libucrtd:invalid_parameter.obj
 0001:00068560       __get_invalid_parameter_handler 10069560 f   libucrtd:invalid_parameter.obj
 0001:00068580       __get_thread_local_invalid_parameter_handler 10069580 f   libucrtd:invalid_parameter.obj
 0001:000685b0       __invalid_parameter        100695b0 f   libucrtd:invalid_parameter.obj
 0001:00068670       __invalid_parameter_noinfo 10069670 f   libucrtd:invalid_parameter.obj
 0001:00068690       __invalid_parameter_noinfo_noreturn 10069690 f   libucrtd:invalid_parameter.obj
 0001:000686c0       __invoke_watson            100696c0 f   libucrtd:invalid_parameter.obj
 0001:00068700       __set_invalid_parameter_handler 10069700 f   libucrtd:invalid_parameter.obj
 0001:00068750       __set_thread_local_invalid_parameter_handler 10069750 f   libucrtd:invalid_parameter.obj
 0001:00068780       ___acrt_errno_from_os_error 10069780 f   libucrtd:errno.obj
 0001:00068800       ___acrt_errno_map_os_error 10069800 f   libucrtd:errno.obj
 0001:00068830       ___doserrno                10069830 f   libucrtd:errno.obj
 0001:00068860       __errno                    10069860 f   libucrtd:errno.obj
 0001:00068890       __get_doserrno             10069890 f   libucrtd:errno.obj
 0001:00068920       __get_errno                10069920 f   libucrtd:errno.obj
 0001:000689b0       __set_doserrno             100699b0 f   libucrtd:errno.obj
 0001:000689e0       __set_errno                100699e0 f   libucrtd:errno.obj
 0001:00068a10       _calloc                    10069a10 f   libucrtd:calloc.obj
 0001:00068a30       __recalloc                 10069a30 f   libucrtd:recalloc.obj
 0001:00068a60       __recalloc_base            10069a60 f   libucrtd:recalloc.obj
 0001:00068afa       __resetstkoflw             10069afa f   libucrtd:resetstk.obj
 0001:00068fe0       _wcscat_s                  10069fe0 f   libucrtd:wcscat_s.obj
 0001:00069430       _wcsncpy_s                 1006a430 f   libucrtd:wcsncpy_s.obj
 0001:00069470       ___acrt_get_locale_data_prefix 1006a470 f i libucrtd:_ctype.obj
 0001:00069490       ___isascii                 1006a490 f i libucrtd:_ctype.obj
 0001:000694c0       ___iscsym                  1006a4c0 f i libucrtd:_ctype.obj
 0001:00069500       ___iscsymf                 1006a500 f i libucrtd:_ctype.obj
 0001:00069540       ___toascii                 1006a540 f i libucrtd:_ctype.obj
 0001:00069550       __chvalidchk_l             1006a550 f i libucrtd:_ctype.obj
 0001:00069570       __isalnum_l                1006a570 f i libucrtd:_ctype.obj
 0001:000695b0       __isalpha_l                1006a5b0 f i libucrtd:_ctype.obj
 0001:000695f0       __isblank_l                1006a5f0 f i libucrtd:_ctype.obj
 0001:00069650       __ischartype_l             1006a650 f i libucrtd:_ctype.obj
 0001:000696d0       __iscntrl_l                1006a6d0 f i libucrtd:_ctype.obj
 0001:00069710       __iscsym_l                 1006a710 f i libucrtd:_ctype.obj
 0001:00069750       __iscsymf_l                1006a750 f i libucrtd:_ctype.obj
 0001:00069790       __isdigit_l                1006a790 f i libucrtd:_ctype.obj
 0001:000697d0       __isgraph_l                1006a7d0 f i libucrtd:_ctype.obj
 0001:00069810       __islower_l                1006a810 f i libucrtd:_ctype.obj
 0001:00069850       __isprint_l                1006a850 f i libucrtd:_ctype.obj
 0001:00069890       __ispunct_l                1006a890 f i libucrtd:_ctype.obj
 0001:000698d0       __isspace_l                1006a8d0 f i libucrtd:_ctype.obj
 0001:00069910       __isupper_l                1006a910 f i libucrtd:_ctype.obj
 0001:00069950       __isxdigit_l               1006a950 f i libucrtd:_ctype.obj
 0001:00069990       _isalnum                   1006a990 f i libucrtd:_ctype.obj
 0001:000699d0       _isalpha                   1006a9d0 f i libucrtd:_ctype.obj
 0001:00069a10       _isblank                   1006aa10 f i libucrtd:_ctype.obj
 0001:00069a70       _iscntrl                   1006aa70 f i libucrtd:_ctype.obj
 0001:00069ab0       _isdigit                   1006aab0 f i libucrtd:_ctype.obj
 0001:00069af0       _isgraph                   1006aaf0 f i libucrtd:_ctype.obj
 0001:00069b30       _islower                   1006ab30 f i libucrtd:_ctype.obj
 0001:00069b70       _isprint                   1006ab70 f i libucrtd:_ctype.obj
 0001:00069bb0       _ispunct                   1006abb0 f i libucrtd:_ctype.obj
 0001:00069bf0       _isspace                   1006abf0 f i libucrtd:_ctype.obj
 0001:00069c30       _isupper                   1006ac30 f i libucrtd:_ctype.obj
 0001:00069c70       _isxdigit                  1006ac70 f i libucrtd:_ctype.obj
 0001:00069cb0       _wcscat                    1006acb0 f   libucrtd:wcscat.obj
 0001:00069d10       _wcscpy                    1006ad10 f   libucrtd:wcscpy.obj
 0001:0006a3a0       ??$open_file@ABQBDABQBDABHPAU_iobuf@@@?$__crt_char_traits@D@@SAPAU_iobuf@@ABQBD0ABH$$QAPAU1@@Z 1006b3a0 f i libucrtd:fopen.obj
 0001:0006a3d0       ??$open_file@ABQB_WABQB_WABHPAU_iobuf@@@?$__crt_char_traits@_W@@SAPAU_iobuf@@ABQB_W0ABH$$QAPAU1@@Z 1006b3d0 f i libucrtd:fopen.obj
 0001:0006a400       ?unlock@__crt_stdio_stream@@QBEXXZ 1006b400 f i libucrtd:fopen.obj
 0001:0006a420       __fsopen                   1006b420 f   libucrtd:fopen.obj
 0001:0006a440       __wfopen                   1006b440 f   libucrtd:fopen.obj
 0001:0006a460       __wfopen_s                 1006b460 f   libucrtd:fopen.obj
 0001:0006a480       __wfsopen                  1006b480 f   libucrtd:fopen.obj
 0001:0006a4a0       _fopen                     1006b4a0 f   libucrtd:fopen.obj
 0001:0006a4c0       _fopen_s                   1006b4c0 f   libucrtd:fopen.obj
 0001:0006a4e0       ?is_in_use@__crt_stdio_stream@@QBE_NXZ 1006b4e0 f i libucrtd:fclose.obj
 0001:0006a520       __fclose_nolock            1006b520 f   libucrtd:fclose.obj
 0001:0006a660       _fclose                    1006b660 f   libucrtd:fclose.obj
 0001:0006a7b0       __fputc_nolock             1006b7b0 f   libucrtd:fputc.obj
 0001:0006a840       __fputchar                 1006b840 f   libucrtd:fputc.obj
 0001:0006a860       __putc_nolock              1006b860 f   libucrtd:fputc.obj
 0001:0006a880       _fputc                     1006b880 f   libucrtd:fputc.obj
 0001:0006aac0       _putc                      1006bac0 f   libucrtd:fputc.obj
 0001:0006aae0       _putchar                   1006bae0 f   libucrtd:fputc.obj
 0001:0006ab50       __seh_filter_dll           1006bb50 f   libucrtd:exception_filter.obj
 0001:0006ab80       __seh_filter_exe           1006bb80 f   libucrtd:exception_filter.obj
 0001:0006ad90       ??$?B$$A6GXPAXK0@Z@__crt_fast_encoded_nullptr_t@@QBEP6GXPAXK0@ZXZ 1006bd90 f i libucrtd:exit.obj
 0001:0006ae70       ??$__crt_fast_decode_pointer@P6GXPAXK0@Z@@YAP6GXPAXK0@ZQ6GX0K0@Z@Z 1006be70 f i libucrtd:exit.obj
 0001:0006aea0       ??$__crt_fast_encode_pointer@P6GXPAXK0@Z@@YAP6GXPAXK0@ZQ6GX0K0@Z@Z 1006bea0 f i libucrtd:exit.obj
 0001:0006aed0       ??$__crt_get_proc_address@P6GXI@Z@@YAP6GXI@ZQAUHINSTANCE__@@QBD@Z 1006bed0 f i libucrtd:exit.obj
 0001:0006af60       ??0?$__crt_unique_handle_t@U__crt_hmodule_traits@@@@QAE@QAUHINSTANCE__@@@Z 1006bf60 f i libucrtd:exit.obj
 0001:0006af80       ??1?$__crt_unique_handle_t@U__crt_hmodule_traits@@@@QAE@XZ 1006bf80 f i libucrtd:exit.obj
 0001:0006b140       ?__acrt_select_exit_lock@@YA?AW4__acrt_lock_id@@XZ 1006c140 f i libucrtd:exit.obj
 0001:0006b150       ?__crt_fast_encode_pointer@@YA?AU__crt_fast_encoded_nullptr_t@@$$T@Z 1006c150 f i libucrtd:exit.obj
 0001:0006b180       ?close@?$__crt_unique_handle_t@U__crt_hmodule_traits@@@@QAEXXZ 1006c180 f i libucrtd:exit.obj
 0001:0006b1c0       ?close@__crt_hmodule_traits@@SA_NPAUHINSTANCE__@@@Z 1006c1c0 f i libucrtd:exit.obj
 0001:0006b2b0       ?get@?$__crt_unique_handle_t@U__crt_hmodule_traits@@@@QBEPAUHINSTANCE__@@XZ 1006c2b0 f i libucrtd:exit.obj
 0001:0006b2d0       ?get_address_of@?$__crt_unique_handle_t@U__crt_hmodule_traits@@@@QAEPAPAUHINSTANCE__@@XZ 1006c2d0 f i libucrtd:exit.obj
 0001:0006b2e0       ?get_invalid_value@__crt_hmodule_traits@@SAPAUHINSTANCE__@@XZ 1006c2e0 f i libucrtd:exit.obj
 0001:0006b460       __Exit                     1006c460 f   libucrtd:exit.obj
 0001:0006b480       ___acrt_initialize_thread_local_exit_callback 1006c480 f   libucrtd:exit.obj
 0001:0006b490       __c_exit                   1006c490 f   libucrtd:exit.obj
 0001:0006b4b0       __cexit                    1006c4b0 f   libucrtd:exit.obj
 0001:0006b4d0       __exit                     1006c4d0 f   libucrtd:exit.obj
 0001:0006b4f0       __is_c_termination_complete 1006c4f0 f   libucrtd:exit.obj
 0001:0006b510       __register_thread_local_exe_atexit_callback 1006c510 f   libucrtd:exit.obj
 0001:0006b550       _exit                      1006c550 f   libucrtd:exit.obj
 0001:0006b570       _quick_exit                1006c570 f   libucrtd:exit.obj
 0001:0006b590       ??$?RE@__crt_internal_free_policy@@QBEXQBE@Z 1006c590 f i libucrtd:argv_parsing.obj
 0001:0006b5b0       ??$?RPAD@__crt_internal_free_policy@@QBEXQBQAD@Z 1006c5b0 f i libucrtd:argv_parsing.obj
 0001:0006b5d0       ??$?RPA_W@__crt_internal_free_policy@@QBEXQBQA_W@Z 1006c5d0 f i libucrtd:argv_parsing.obj
 0001:0006bb30       ??$get_module_file_name@$$TAAY0BAF@DH@?$__crt_char_traits@D@@SAK$$QA$$TAAY0BAF@D$$QAH@Z 1006cb30 f i libucrtd:argv_parsing.obj
 0001:0006bb50       ??$get_module_file_name@$$TAAY0BAF@_WH@?$__crt_char_traits@_W@@SAK$$QA$$TAAY0BAF@_W$$QAH@Z 1006cb50 f i libucrtd:argv_parsing.obj
 0001:0006c270       ??$set_program_name@PAD@?$__crt_char_traits@D@@SAX$$QAPAD@Z 1006d270 f i libucrtd:argv_parsing.obj
 0001:0006c290       ??$set_program_name@PA_W@?$__crt_char_traits@_W@@SAX$$QAPA_W@Z 1006d290 f i libucrtd:argv_parsing.obj
 0001:0006c2f0       ??0?$__crt_unique_heap_ptr@EU__crt_internal_free_policy@@@@QAE@QAE@Z 1006d2f0 f i libucrtd:argv_parsing.obj
 0001:0006c310       ??0?$__crt_unique_heap_ptr@PADU__crt_internal_free_policy@@@@QAE@QAPAD@Z 1006d310 f i libucrtd:argv_parsing.obj
 0001:0006c330       ??0?$__crt_unique_heap_ptr@PA_WU__crt_internal_free_policy@@@@QAE@QAPA_W@Z 1006d330 f i libucrtd:argv_parsing.obj
 0001:0006c350       ??1?$__crt_unique_heap_ptr@EU__crt_internal_free_policy@@@@QAE@XZ 1006d350 f i libucrtd:argv_parsing.obj
 0001:0006c370       ??1?$__crt_unique_heap_ptr@PADU__crt_internal_free_policy@@@@QAE@XZ 1006d370 f i libucrtd:argv_parsing.obj
 0001:0006c390       ??1?$__crt_unique_heap_ptr@PA_WU__crt_internal_free_policy@@@@QAE@XZ 1006d390 f i libucrtd:argv_parsing.obj
 0001:0006c3b0       ??B?$__crt_unique_heap_ptr@EU__crt_internal_free_policy@@@@QBE_NXZ 1006d3b0 f i libucrtd:argv_parsing.obj
 0001:0006c470       ?detach@?$__crt_unique_heap_ptr@EU__crt_internal_free_policy@@@@QAEPAEXZ 1006d470 f i libucrtd:argv_parsing.obj
 0001:0006c4a0       ?detach@?$__crt_unique_heap_ptr@PADU__crt_internal_free_policy@@@@QAEPAPADXZ 1006d4a0 f i libucrtd:argv_parsing.obj
 0001:0006c4d0       ?detach@?$__crt_unique_heap_ptr@PA_WU__crt_internal_free_policy@@@@QAEPAPA_WXZ 1006d4d0 f i libucrtd:argv_parsing.obj
 0001:0006c560       ?get@?$__crt_unique_heap_ptr@EU__crt_internal_free_policy@@@@QBEPAEXZ 1006d560 f i libucrtd:argv_parsing.obj
 0001:0006c580       ?get@?$__crt_unique_heap_ptr@PADU__crt_internal_free_policy@@@@QBEPAPADXZ 1006d580 f i libucrtd:argv_parsing.obj
 0001:0006c5a0       ?get@?$__crt_unique_heap_ptr@PA_WU__crt_internal_free_policy@@@@QBEPAPA_WXZ 1006d5a0 f i libucrtd:argv_parsing.obj
 0001:0006c5c0       ?get_address_of@?$__crt_unique_heap_ptr@PADU__crt_internal_free_policy@@@@QAEPAPAPADXZ 1006d5c0 f i libucrtd:argv_parsing.obj
 0001:0006c5d0       ?get_address_of@?$__crt_unique_heap_ptr@PA_WU__crt_internal_free_policy@@@@QAEPAPAPA_WXZ 1006d5d0 f i libucrtd:argv_parsing.obj
 0001:0006c620       ?is_valid@?$__crt_unique_heap_ptr@EU__crt_internal_free_policy@@@@QBE_NXZ 1006d620 f i libucrtd:argv_parsing.obj
 0001:0006c650       ?release@?$__crt_unique_heap_ptr@EU__crt_internal_free_policy@@@@QAEXXZ 1006d650 f i libucrtd:argv_parsing.obj
 0001:0006c680       ?release@?$__crt_unique_heap_ptr@PADU__crt_internal_free_policy@@@@QAEXXZ 1006d680 f i libucrtd:argv_parsing.obj
 0001:0006c6b0       ?release@?$__crt_unique_heap_ptr@PA_WU__crt_internal_free_policy@@@@QAEXXZ 1006d6b0 f i libucrtd:argv_parsing.obj
 0001:0006c720       ___acrt_allocate_buffer_for_argv 1006d720 f   libucrtd:argv_parsing.obj
 0001:0006c7e0       __configure_narrow_argv    1006d7e0 f   libucrtd:argv_parsing.obj
 0001:0006c800       __configure_wide_argv      1006d800 f   libucrtd:argv_parsing.obj
 0001:0006c820       __set_pgmptr               1006d820 f i libucrtd:argv_parsing.obj
 0001:0006c830       __set_wpgmptr              1006d830 f i libucrtd:argv_parsing.obj
 0001:0006c83f       ??$?R_W@__crt_internal_free_policy@@QBEXQB_W@Z 1006d83f f i libucrtd:environment_initialization.obj
 0001:0006cca8       ??$get_environment_from_os@$$V@?$__crt_char_traits@D@@SAPADXZ 1006dca8 f i libucrtd:environment_initialization.obj
 0001:0006ccad       ??$get_environment_from_os@$$V@?$__crt_char_traits@_W@@SAPA_WXZ 1006dcad f i libucrtd:environment_initialization.obj
 0001:0006cdd6       ??$set_variable_in_environment_nolock@PADH@?$__crt_char_traits@D@@SAH$$QAPAD$$QAH@Z 1006ddd6 f i libucrtd:environment_initialization.obj
 0001:0006cdee       ??$set_variable_in_environment_nolock@PA_WH@?$__crt_char_traits@_W@@SAH$$QAPA_W$$QAH@Z 1006ddee f i libucrtd:environment_initialization.obj
 0001:0006ce06       ??$tcscpy_s@PADABIAAPAD@?$__crt_char_traits@D@@SAH$$QAPADABIAAPAD@Z 1006de06 f i libucrtd:environment_initialization.obj
 0001:0006ce24       ??$tcscpy_s@PA_WABIAAPA_W@?$__crt_char_traits@_W@@SAH$$QAPA_WABIAAPA_W@Z 1006de24 f i libucrtd:environment_initialization.obj
 0001:0006ce42       ??$tcslen@AAPAD@?$__crt_char_traits@D@@SAIAAPAD@Z 1006de42 f i libucrtd:environment_initialization.obj
 0001:0006ce5a       ??$tcslen@AAPA_W@?$__crt_char_traits@_W@@SAIAAPA_W@Z 1006de5a f i libucrtd:environment_initialization.obj
 0001:0006ce78       ??$uninitialize@A6AXAAPAPAD@Z@?$dual_state_global@PAPAD@__crt_state_management@@QAEXA6AXAAPAPAD@Z@Z 1006de78 f i libucrtd:environment_initialization.obj
 0001:0006cea1       ??$uninitialize@A6AXAAPAPA_W@Z@?$dual_state_global@PAPA_W@__crt_state_management@@QAEXA6AXAAPAPA_W@Z@Z 1006dea1 f i libucrtd:environment_initialization.obj
 0001:0006cf00       ??0?$__crt_unique_heap_ptr@_WU__crt_internal_free_policy@@@@QAE@QA_W@Z 1006df00 f i libucrtd:environment_initialization.obj
 0001:0006cf10       ??1?$__crt_unique_heap_ptr@_WU__crt_internal_free_policy@@@@QAE@XZ 1006df10 f i libucrtd:environment_initialization.obj
 0001:0006cf25       ??B?$__crt_unique_heap_ptr@PADU__crt_internal_free_policy@@@@QBE_NXZ 1006df25 f i libucrtd:environment_initialization.obj
 0001:0006cf2c       ??B?$__crt_unique_heap_ptr@PA_WU__crt_internal_free_policy@@@@QBE_NXZ 1006df2c f i libucrtd:environment_initialization.obj
 0001:0006cf33       ??B?$__crt_unique_heap_ptr@_WU__crt_internal_free_policy@@@@QBE_NXZ 1006df33 f i libucrtd:environment_initialization.obj
 0001:0006cf3a       ?__crt_compute_required_transform_buffer_count@@YAIIQBD@Z 1006df3a f i libucrtd:environment_initialization.obj
 0001:0006cf56       ?__crt_compute_required_transform_buffer_count@@YAIIQB_W@Z 1006df56 f i libucrtd:environment_initialization.obj
 0001:0006cf74       ?__crt_transform_string@@YAIIQBDQA_WI@Z 1006df74 f i libucrtd:environment_initialization.obj
 0001:0006cf93       ?__crt_transform_string@@YAIIQB_WQADI@Z 1006df93 f i libucrtd:environment_initialization.obj
 0001:0006cfb5       ?detach@?$__crt_unique_heap_ptr@DU__crt_internal_free_policy@@@@QAEPADXZ 1006dfb5 f i libucrtd:environment_initialization.obj
 0001:0006cfbb       ?detach@?$__crt_unique_heap_ptr@_WU__crt_internal_free_policy@@@@QAEPA_WXZ 1006dfbb f i libucrtd:environment_initialization.obj
 0001:0006cfc1       ?get@?$__crt_unique_heap_ptr@_WU__crt_internal_free_policy@@@@QBEPA_WXZ 1006dfc1 f i libucrtd:environment_initialization.obj
 0001:0006cfe8       ?initialize@?$dual_state_global@PAPAD@__crt_state_management@@QAEXQAPAD@Z 1006dfe8 f i libucrtd:environment_initialization.obj
 0001:0006d00e       ?initialize@?$dual_state_global@PAPA_W@__crt_state_management@@QAEXQAPA_W@Z 1006e00e f i libucrtd:environment_initialization.obj
 0001:0006d034       ?is_valid@?$__crt_unique_heap_ptr@PADU__crt_internal_free_policy@@@@QBE_NXZ 1006e034 f i libucrtd:environment_initialization.obj
 0001:0006d03b       ?is_valid@?$__crt_unique_heap_ptr@PA_WU__crt_internal_free_policy@@@@QBE_NXZ 1006e03b f i libucrtd:environment_initialization.obj
 0001:0006d042       ?is_valid@?$__crt_unique_heap_ptr@_WU__crt_internal_free_policy@@@@QBE_NXZ 1006e042 f i libucrtd:environment_initialization.obj
 0001:0006d051       ?release@?$__crt_unique_heap_ptr@_WU__crt_internal_free_policy@@@@QAEXXZ 1006e051 f i libucrtd:environment_initialization.obj
 0001:0006d066       ?value@?$dual_state_global@PAPAD@__crt_state_management@@QAEAAPAPADXZ 1006e066 f i libucrtd:environment_initialization.obj
 0001:0006d069       ?value@?$dual_state_global@PAPA_W@__crt_state_management@@QAEAAPAPA_WXZ 1006e069 f i libucrtd:environment_initialization.obj
 0001:0006d06c       ___dcrt_get_or_create_narrow_environment_nolock 1006e06c f   libucrtd:environment_initialization.obj
 0001:0006d071       ___dcrt_get_or_create_wide_environment_nolock 1006e071 f   libucrtd:environment_initialization.obj
 0001:0006d076       ___dcrt_uninitialize_environments_nolock 1006e076 f   libucrtd:environment_initialization.obj
 0001:0006d0ad       ___p__environ              1006e0ad f   libucrtd:environment_initialization.obj
 0001:0006d0b3       ___p__wenviron             1006e0b3 f   libucrtd:environment_initialization.obj
 0001:0006d0b9       __get_initial_narrow_environment 1006e0b9 f   libucrtd:environment_initialization.obj
 0001:0006d0cd       __get_initial_wide_environment 1006e0cd f   libucrtd:environment_initialization.obj
 0001:0006d0e1       __initialize_narrow_environment 1006e0e1 f   libucrtd:environment_initialization.obj
 0001:0006d0e6       __initialize_wide_environment 1006e0e6 f   libucrtd:environment_initialization.obj
 0001:0006d0f0       ??$?B$$A6AXXZ@__crt_fast_encoded_nullptr_t@@QBEP6AXXZXZ 1006e0f0 f i libucrtd:onexit.obj
 0001:0006d110       ??$?BP6AXXZ@__crt_fast_encoded_nullptr_t@@QBEPAP6AXXZXZ 1006e110 f i libucrtd:onexit.obj
 0001:0006d130       ??$?RP6AXXZ@__crt_internal_free_policy@@QBEXQBQ6AXXZ@Z 1006e130 f i libucrtd:onexit.obj
 0001:0006d2f0       ??$__crt_fast_decode_pointer@P6AXXZ@@YAP6AXXZQ6AXXZ@Z 1006e2f0 f i libucrtd:onexit.obj
 0001:0006d320       ??$__crt_fast_decode_pointer@PAP6AXXZ@@YAPAP6AXXZQAP6AXXZ@Z 1006e320 f i libucrtd:onexit.obj
 0001:0006d350       ??$__crt_fast_encode_pointer@P6AHXZ@@YAP6AHXZQ6AHXZ@Z 1006e350 f i libucrtd:onexit.obj
 0001:0006d380       ??$__crt_fast_encode_pointer@P6AXXZ@@YAP6AXXZQ6AXXZ@Z 1006e380 f i libucrtd:onexit.obj
 0001:0006d3b0       ??$__crt_fast_encode_pointer@PAP6AXXZ@@YAPAP6AXXZQAP6AXXZ@Z 1006e3b0 f i libucrtd:onexit.obj
 0001:0006d4b0       ??0?$__crt_unique_heap_ptr@P6AXXZU__crt_internal_free_policy@@@@QAE@QAP6AXXZ@Z 1006e4b0 f i libucrtd:onexit.obj
 0001:0006d4d0       ??1?$__crt_unique_heap_ptr@P6AXXZU__crt_internal_free_policy@@@@QAE@XZ 1006e4d0 f i libucrtd:onexit.obj
 0001:0006d4f0       ??1scoped_global_state_reset@__crt_state_management@@QAE@XZ 1006e4f0 f i libucrtd:onexit.obj
 0001:0006d960       ?detach@?$__crt_unique_heap_ptr@P6AXXZU__crt_internal_free_policy@@@@QAEPAP6AXXZXZ 1006e960 f i libucrtd:onexit.obj
 0001:0006d990       ?release@?$__crt_unique_heap_ptr@P6AXXZU__crt_internal_free_policy@@@@QAEXXZ 1006e990 f i libucrtd:onexit.obj
 0001:0006d9c0       __crt_at_quick_exit        1006e9c0 f   libucrtd:onexit.obj
 0001:0006d9e0       __crt_atexit               1006e9e0 f   libucrtd:onexit.obj
 0001:0006da00       __execute_onexit_table     1006ea00 f   libucrtd:onexit.obj
 0001:0006da30       __initialize_onexit_table  1006ea30 f   libucrtd:onexit.obj
 0001:0006da90       __register_onexit_function 1006ea90 f   libucrtd:onexit.obj
 0001:0006dcd0       ??$?BX@__crt_fast_encoded_nullptr_t@@QBEPAXXZ 1006ecd0 f i libucrtd:initialization.obj
 0001:0006dcf0       ??$__crt_fast_encode_pointer@PAX@@YAPAXQAX@Z 1006ecf0 f i libucrtd:initialization.obj
 0001:0006ddb0       ?initialize@?$dual_state_global@PAU__crt_locale_data@@@__crt_state_management@@QAEXQAU__crt_locale_data@@@Z 1006edb0 f i libucrtd:initialization.obj
 0001:0006ddf0       ___acrt_initialize         1006edf0 f   libucrtd:initialization.obj
 0001:0006de10       ___acrt_thread_attach      1006ee10 f   libucrtd:initialization.obj
 0001:0006de30       ___acrt_thread_detach      1006ee30 f   libucrtd:initialization.obj
 0001:0006de40       ___acrt_uninitialize       1006ee40 f   libucrtd:initialization.obj
 0001:0006de60       ___acrt_uninitialize_critical 1006ee60 f   libucrtd:initialization.obj
 0001:0006f6d0       __CrtCheckMemory           100706d0 f   libucrtd:debug_heap.obj
 0001:0006f860       __CrtDoForAllClientObjects 10070860 f   libucrtd:debug_heap.obj
 0001:0006f9b0       __CrtDumpMemoryLeaks       100709b0 f   libucrtd:debug_heap.obj
 0001:0006fa50       __CrtGetAllocHook          10070a50 f   libucrtd:debug_heap.obj
 0001:0006fa60       __CrtGetDumpClient         10070a60 f   libucrtd:debug_heap.obj
 0001:0006fa70       __CrtIsMemoryBlock         10070a70 f   libucrtd:debug_heap.obj
 0001:0006fbc0       __CrtIsValidHeapPointer    10070bc0 f   libucrtd:debug_heap.obj
 0001:0006fbf0       __CrtIsValidPointer        10070bf0 f   libucrtd:debug_heap.obj
 0001:0006fc20       __CrtMemCheckpoint         10070c20 f   libucrtd:debug_heap.obj
 0001:0006fe50       __CrtMemDifference         10070e50 f   libucrtd:debug_heap.obj
 0001:000700c0       __CrtMemDumpAllObjectsSince 100710c0 f   libucrtd:debug_heap.obj
 0001:00070160       __CrtMemDumpStatistics     10071160 f   libucrtd:debug_heap.obj
 0001:00070290       __CrtReportBlockType       10071290 f   libucrtd:debug_heap.obj
 0001:000702c0       __CrtSetAllocHook          100712c0 f   libucrtd:debug_heap.obj
 0001:000702e0       __CrtSetBreakAlloc         100712e0 f   libucrtd:debug_heap.obj
 0001:00070300       __CrtSetDbgBlockType       10071300 f   libucrtd:debug_heap.obj
 0001:000703e0       __CrtSetDbgFlag            100713e0 f   libucrtd:debug_heap.obj
 0001:00070550       __CrtSetDumpClient         10071550 f   libucrtd:debug_heap.obj
 0001:00070570       ___p__crtBreakAlloc        10071570 f   libucrtd:debug_heap.obj
 0001:00070580       ___p__crtDbgFlag           10071580 f   libucrtd:debug_heap.obj
 0001:00070590       __aligned_free_dbg         10071590 f   libucrtd:debug_heap.obj
 0001:00070640       __aligned_malloc_dbg       10071640 f   libucrtd:debug_heap.obj
 0001:00070670       __aligned_msize_dbg        10071670 f   libucrtd:debug_heap.obj
 0001:000707a0       __aligned_offset_malloc_dbg 100717a0 f   libucrtd:debug_heap.obj
 0001:00070980       __aligned_offset_realloc_dbg 10071980 f   libucrtd:debug_heap.obj
 0001:00070c90       __aligned_offset_recalloc_dbg 10071c90 f   libucrtd:debug_heap.obj
 0001:00070d50       __aligned_realloc_dbg      10071d50 f   libucrtd:debug_heap.obj
 0001:00070d80       __aligned_recalloc_dbg     10071d80 f   libucrtd:debug_heap.obj
 0001:00070db0       __calloc_dbg               10071db0 f   libucrtd:debug_heap.obj
 0001:00070e20       __expand_dbg               10071e20 f   libucrtd:debug_heap.obj
 0001:00070f50       __free_dbg                 10071f50 f   libucrtd:debug_heap.obj
 0001:00071000       __malloc_dbg               10072000 f   libucrtd:debug_heap.obj
 0001:00071020       __msize_dbg                10072020 f   libucrtd:debug_heap.obj
 0001:000711b0       __realloc_dbg              100721b0 f   libucrtd:debug_heap.obj
 0001:00071250       __recalloc_dbg             10072250 f   libucrtd:debug_heap.obj
 0001:00071300       __initterm                 10072300 f   libucrtd:initterm.obj
 0001:00071350       __initterm_e               10072350 f   libucrtd:initterm.obj
 0001:000716c0       _strcpy_s                  100726c0 f   libucrtd:strcpy_s.obj
 0001:00071af0       _strcat_s                  10072af0 f   libucrtd:strcat_s.obj
 0001:00071b10       ??$?B$$A6AHI@Z@__crt_fast_encoded_nullptr_t@@QBEP6AHI@ZXZ 10072b10 f i libucrtd:new_handler.obj
 0001:00071b30       ??$__crt_fast_decode_pointer@P6AHI@Z@@YAP6AHI@ZQ6AHI@Z@Z 10072b30 f i libucrtd:new_handler.obj
 0001:00071b60       ??$__crt_fast_encode_pointer@P6AHI@Z@@YAP6AHI@ZQ6AHI@Z@Z 10072b60 f i libucrtd:new_handler.obj
 0001:00071b90       ?_set_new_handler@@YAP6AHI@ZH@Z 10072b90 f   libucrtd:new_handler.obj
 0001:00071bf0       ?initialize@?$dual_state_global@P6AHI@Z@__crt_state_management@@QAEXQ6AHI@Z@Z 10072bf0 f i libucrtd:new_handler.obj
 0001:00071c30       ?value@?$dual_state_global@P6AHI@Z@__crt_state_management@@QAEAAP6AHI@ZXZ 10072c30 f i libucrtd:new_handler.obj
 0001:00071c50       ___acrt_initialize_new_handler 10072c50 f   libucrtd:new_handler.obj
 0001:00071c70       __callnewh                 10072c70 f   libucrtd:new_handler.obj
 0001:00071cb0       __query_new_handler        10072cb0 f   libucrtd:new_handler.obj
 0001:00071d40       __set_new_handler          10072d40 f   libucrtd:new_handler.obj
 0001:00071e20       __get_terminate            10072e20 f   libucrtd:terminate.obj
 0001:00071e40       _set_terminate             10072e40 f   libucrtd:terminate.obj
 0001:00071e70       _terminate                 10072e70 f   libucrtd:terminate.obj
 0001:00072840       __makepath                 10073840 f   libucrtd:makepath.obj
 0001:00072870       __makepath_s               10073870 f   libucrtd:makepath.obj
 0001:000728a0       __wmakepath                100738a0 f   libucrtd:makepath.obj
 0001:000728d0       __wmakepath_s              100738d0 f   libucrtd:makepath.obj
 0001:00074220       ??$tcsncpy_s@AAPADIAAPBDABI@?$__crt_char_traits@D@@SAHAAPAD$$QAIAAPBDABI@Z 10075220 f i libucrtd:splitpath.obj
 0001:00074250       ??$tcsncpy_s@AAPADIAAPBDH@?$__crt_char_traits@D@@SAHAAPAD$$QAIAAPBD$$QAH@Z 10075250 f i libucrtd:splitpath.obj
 0001:00074280       ??$tcsncpy_s@AAPA_WIAAPB_WABI@?$__crt_char_traits@_W@@SAHAAPA_W$$QAIAAPB_WABI@Z 10075280 f i libucrtd:splitpath.obj
 0001:000742b0       ??$tcsncpy_s@AAPA_WIAAPB_WH@?$__crt_char_traits@_W@@SAHAAPA_W$$QAIAAPB_W$$QAH@Z 100752b0 f i libucrtd:splitpath.obj
 0001:000744f0       __splitpath                100754f0 f   libucrtd:splitpath.obj
 0001:00074520       __splitpath_s              10075520 f   libucrtd:splitpath.obj
 0001:00074570       __wsplitpath               10075570 f   libucrtd:splitpath.obj
 0001:000745a0       __wsplitpath_s             100755a0 f   libucrtd:splitpath.obj
 0001:000745f0       __set_abort_behavior       100755f0 f   libucrtd:abort.obj
 0001:00074620       _abort                     10075620 f   libucrtd:abort.obj
 0001:00074690       _strcmp                    10075690 f   libucrtd:strcmp.obj
 0001:00074720       _strlen                    10075720 f   libucrtd:strlen.obj
 0001:000747b0       ??$is_overflow_condition@K@__crt_strtox@@YA_NIK@Z 100757b0 f i libucrtd:atox.obj
 0001:00074810       ??$is_overflow_condition@_K@__crt_strtox@@YA_NI_K@Z 10075810 f i libucrtd:atox.obj
 0001:000748a0       ??$make_c_string_character_source@D$$T@__crt_strtox@@YA?AV?$c_string_character_source@D@0@QBD$$T@Z 100758a0 f i libucrtd:atox.obj
 0001:000748c0       ??$make_c_string_character_source@_W$$T@__crt_strtox@@YA?AV?$c_string_character_source@_W@0@QB_W$$T@Z 100758c0 f i libucrtd:atox.obj
 0001:000748e0       ??$parse_integer@KV?$c_string_character_source@D@__crt_strtox@@@__crt_strtox@@YAKQAU__crt_locale_pointers@@V?$c_string_character_source@D@0@H_N@Z 100758e0 f i libucrtd:atox.obj
 0001:00074c50       ??$parse_integer@KV?$c_string_character_source@_W@__crt_strtox@@@__crt_strtox@@YAKQAU__crt_locale_pointers@@V?$c_string_character_source@_W@0@H_N@Z 10075c50 f i libucrtd:atox.obj
 0001:00074fc0       ??$parse_integer@_KV?$c_string_character_source@D@__crt_strtox@@@__crt_strtox@@YA_KQAU__crt_locale_pointers@@V?$c_string_character_source@D@0@H_N@Z 10075fc0 f i libucrtd:atox.obj
 0001:000753e0       ??$parse_integer@_KV?$c_string_character_source@_W@__crt_strtox@@@__crt_strtox@@YA_KQAU__crt_locale_pointers@@V?$c_string_character_source@_W@0@H_N@Z 100763e0 f i libucrtd:atox.obj
 0001:00075810       ??$parse_integer_from_string@JD$$T@__crt_strtox@@YAJQBD$$THQAU__crt_locale_pointers@@@Z 10076810 f i libucrtd:atox.obj
 0001:00075850       ??$parse_integer_from_string@J_W$$T@__crt_strtox@@YAJQB_W$$THQAU__crt_locale_pointers@@@Z 10076850 f i libucrtd:atox.obj
 0001:00075890       ??$parse_integer_from_string@_JD$$T@__crt_strtox@@YA_JQBD$$THQAU__crt_locale_pointers@@@Z 10076890 f i libucrtd:atox.obj
 0001:000758d0       ??$parse_integer_from_string@_J_W$$T@__crt_strtox@@YA_JQB_W$$THQAU__crt_locale_pointers@@@Z 100768d0 f i libucrtd:atox.obj
 0001:00075910       ??0?$c_string_character_source@D@__crt_strtox@@QAE@QBDQAPBD@Z 10076910 f i libucrtd:atox.obj
 0001:00075950       ??0?$c_string_character_source@_W@__crt_strtox@@QAE@QB_WQAPB_W@Z 10076950 f i libucrtd:atox.obj
 0001:00075990       ??1?$c_string_character_source@D@__crt_strtox@@QAE@XZ 10076990 f i libucrtd:atox.obj
 0001:000759c0       ??1?$c_string_character_source@_W@__crt_strtox@@QAE@XZ 100769c0 f i libucrtd:atox.obj
 0001:000759f0       ?get@?$c_string_character_source@D@__crt_strtox@@QAEDXZ 100769f0 f i libucrtd:atox.obj
 0001:00075a20       ?get@?$c_string_character_source@_W@__crt_strtox@@QAE_WXZ 10076a20 f i libucrtd:atox.obj
 0001:00075a50       ?is_space@__crt_strtox@@YA_NDQAU__crt_locale_pointers@@@Z 10076a50 f i libucrtd:atox.obj
 0001:00075a90       ?is_space@__crt_strtox@@YA_N_WPAU__crt_locale_pointers@@@Z 10076a90 f i libucrtd:atox.obj
 0001:00075ac0       ?maximum_signed_value@__crt_strtox@@YAJK@Z 10076ac0 f i libucrtd:atox.obj
 0001:00075ad0       ?maximum_signed_value@__crt_strtox@@YA_J_K@Z 10076ad0 f i libucrtd:atox.obj
 0001:00075ae0       ?minimum_signed_value@__crt_strtox@@YAJK@Z 10076ae0 f i libucrtd:atox.obj
 0001:00075af0       ?minimum_signed_value@__crt_strtox@@YA_J_K@Z 10076af0 f i libucrtd:atox.obj
 0001:00075b00       ?parse_digit@__crt_strtox@@YAID@Z 10076b00 f i libucrtd:atox.obj
 0001:00075b60       ?parse_digit@__crt_strtox@@YAI_W@Z 10076b60 f i libucrtd:atox.obj
 0001:00075bb0       ?restore_state@?$c_string_character_source@D@__crt_strtox@@QAE_NQBD@Z 10076bb0 f i libucrtd:atox.obj
 0001:00075bd0       ?restore_state@?$c_string_character_source@_W@__crt_strtox@@QAE_NQB_W@Z 10076bd0 f i libucrtd:atox.obj
 0001:00075bf0       ?save_state@?$c_string_character_source@D@__crt_strtox@@QBEPBDXZ 10076bf0 f i libucrtd:atox.obj
 0001:00075c10       ?save_state@?$c_string_character_source@_W@__crt_strtox@@QBEPB_WXZ 10076c10 f i libucrtd:atox.obj
 0001:00075c30       ?unget@?$c_string_character_source@D@__crt_strtox@@QAEXD@Z 10076c30 f i libucrtd:atox.obj
 0001:00075ce0       ?unget@?$c_string_character_source@_W@__crt_strtox@@QAEX_W@Z 10076ce0 f i libucrtd:atox.obj
 0001:00075d90       ?validate@?$c_string_character_source@D@__crt_strtox@@QBE_NXZ 10076d90 f i libucrtd:atox.obj
 0001:00075e20       ?validate@?$c_string_character_source@_W@__crt_strtox@@QBE_NXZ 10076e20 f i libucrtd:atox.obj
 0001:00075eb0       ?wide_character_to_digit@__crt_strtox@@YAH_W@Z 10076eb0 f i libucrtd:atox.obj
 0001:000761e0       ___ascii_iswalpha          100771e0 f i libucrtd:atox.obj
 0001:00076220       ___ascii_toupper           10077220 f i libucrtd:atox.obj
 0001:00076240       ___ascii_towupper          10077240 f i libucrtd:atox.obj
 0001:00076260       __atoi64                   10077260 f   libucrtd:atox.obj
 0001:00076280       __atoi64_l                 10077280 f   libucrtd:atox.obj
 0001:000762a0       __atoi_l                   100772a0 f   libucrtd:atox.obj
 0001:000762c0       __atol_l                   100772c0 f   libucrtd:atox.obj
 0001:000762e0       __atoll_l                  100772e0 f   libucrtd:atox.obj
 0001:00076300       __wtoi                     10077300 f   libucrtd:atox.obj
 0001:00076320       __wtoi64                   10077320 f   libucrtd:atox.obj
 0001:00076340       __wtoi64_l                 10077340 f   libucrtd:atox.obj
 0001:00076360       __wtoi_l                   10077360 f   libucrtd:atox.obj
 0001:00076380       __wtol                     10077380 f   libucrtd:atox.obj
 0001:000763a0       __wtol_l                   100773a0 f   libucrtd:atox.obj
 0001:000763c0       __wtoll                    100773c0 f   libucrtd:atox.obj
 0001:000763e0       __wtoll_l                  100773e0 f   libucrtd:atox.obj
 0001:00076400       _atoi                      10077400 f   libucrtd:atox.obj
 0001:00076420       _atol                      10077420 f   libucrtd:atox.obj
 0001:00076440       _atoll                     10077440 f   libucrtd:atox.obj
 0001:00076460       _strncmp                   10077460 f   libucrtd:strncmp.obj
 0001:000764e0       _wcsncmp                   100774e0 f   libucrtd:wcsncmp.obj
 0001:00076540       __CrtGetDebugFillThreshold 10077540 f   libucrtd:debug_fill_threshold.obj
 0001:00076550       __CrtSetDebugFillThreshold 10077550 f   libucrtd:debug_fill_threshold.obj
 0001:00076570       ??$make_c_string_character_source@DPAPAD@__crt_strtox@@YA?AV?$c_string_character_source@D@0@QBDQAPAD@Z 10077570 f i libucrtd:strtox.obj
 0001:00076590       ??$make_c_string_character_source@_WPAPA_W@__crt_strtox@@YA?AV?$c_string_character_source@_W@0@QB_WQAPA_W@Z 10077590 f i libucrtd:strtox.obj
 0001:000765b0       ??$parse_integer_from_string@JDPAPAD@__crt_strtox@@YAJQBDQAPADHQAU__crt_locale_pointers@@@Z 100775b0 f i libucrtd:strtox.obj
 0001:000765f0       ??$parse_integer_from_string@J_WPAPA_W@__crt_strtox@@YAJQB_WQAPA_WHQAU__crt_locale_pointers@@@Z 100775f0 f i libucrtd:strtox.obj
 0001:00076630       ??$parse_integer_from_string@KDPAPAD@__crt_strtox@@YAKQBDQAPADHQAU__crt_locale_pointers@@@Z 10077630 f i libucrtd:strtox.obj
 0001:00076670       ??$parse_integer_from_string@K_WPAPA_W@__crt_strtox@@YAKQB_WQAPA_WHQAU__crt_locale_pointers@@@Z 10077670 f i libucrtd:strtox.obj
 0001:000766b0       ??$parse_integer_from_string@_JDPAPAD@__crt_strtox@@YA_JQBDQAPADHQAU__crt_locale_pointers@@@Z 100776b0 f i libucrtd:strtox.obj
 0001:000766f0       ??$parse_integer_from_string@_J_WPAPA_W@__crt_strtox@@YA_JQB_WQAPA_WHQAU__crt_locale_pointers@@@Z 100776f0 f i libucrtd:strtox.obj
 0001:00076730       ??$parse_integer_from_string@_KDPAPAD@__crt_strtox@@YA_KQBDQAPADHQAU__crt_locale_pointers@@@Z 10077730 f i libucrtd:strtox.obj
 0001:00076770       ??$parse_integer_from_string@_K_WPAPA_W@__crt_strtox@@YA_KQB_WQAPA_WHQAU__crt_locale_pointers@@@Z 10077770 f i libucrtd:strtox.obj
 0001:000767b0       __strtoi64                 100777b0 f   libucrtd:strtox.obj
 0001:000767d0       __strtoi64_l               100777d0 f   libucrtd:strtox.obj
 0001:000767f0       __strtoimax_l              100777f0 f   libucrtd:strtox.obj
 0001:00076810       __strtol_l                 10077810 f   libucrtd:strtox.obj
 0001:00076830       __strtoll_l                10077830 f   libucrtd:strtox.obj
 0001:00076850       __strtoui64                10077850 f   libucrtd:strtox.obj
 0001:00076870       __strtoui64_l              10077870 f   libucrtd:strtox.obj
 0001:00076890       __strtoul_l                10077890 f   libucrtd:strtox.obj
 0001:000768b0       __strtoull_l               100778b0 f   libucrtd:strtox.obj
 0001:000768d0       __strtoumax_l              100778d0 f   libucrtd:strtox.obj
 0001:000768f0       __wcstoi64                 100778f0 f   libucrtd:strtox.obj
 0001:00076910       __wcstoi64_l               10077910 f   libucrtd:strtox.obj
 0001:00076930       __wcstoimax_l              10077930 f   libucrtd:strtox.obj
 0001:00076950       __wcstol_l                 10077950 f   libucrtd:strtox.obj
 0001:00076970       __wcstoll_l                10077970 f   libucrtd:strtox.obj
 0001:00076990       __wcstoui64                10077990 f   libucrtd:strtox.obj
 0001:000769b0       __wcstoui64_l              100779b0 f   libucrtd:strtox.obj
 0001:000769d0       __wcstoul_l                100779d0 f   libucrtd:strtox.obj
 0001:000769f0       __wcstoull_l               100779f0 f   libucrtd:strtox.obj
 0001:00076a10       __wcstoumax_l              10077a10 f   libucrtd:strtox.obj
 0001:00076a30       _strtoimax                 10077a30 f   libucrtd:strtox.obj
 0001:00076a50       _strtol                    10077a50 f   libucrtd:strtox.obj
 0001:00076a70       _strtoll                   10077a70 f   libucrtd:strtox.obj
 0001:00076a90       _strtoul                   10077a90 f   libucrtd:strtox.obj
 0001:00076ab0       _strtoull                  10077ab0 f   libucrtd:strtox.obj
 0001:00076ad0       _strtoumax                 10077ad0 f   libucrtd:strtox.obj
 0001:00076af0       _wcstoimax                 10077af0 f   libucrtd:strtox.obj
 0001:00076b10       _wcstol                    10077b10 f   libucrtd:strtox.obj
 0001:00076b30       _wcstoll                   10077b30 f   libucrtd:strtox.obj
 0001:00076b50       _wcstoul                   10077b50 f   libucrtd:strtox.obj
 0001:00076b70       _wcstoull                  10077b70 f   libucrtd:strtox.obj
 0001:00076b90       _wcstoumax                 10077b90 f   libucrtd:strtox.obj
 0001:00076bb0       __mbtowc_l                 10077bb0 f   libucrtd:mbtowc.obj
 0001:00076ed0       _mbtowc                    10077ed0 f   libucrtd:mbtowc.obj
 0001:00076ef0       __wctomb_l                 10077ef0 f   libucrtd:wctomb.obj
 0001:00076f70       __wctomb_s_l               10077f70 f   libucrtd:wctomb.obj
 0001:00077330       _wctomb                    10078330 f   libucrtd:wctomb.obj
 0001:00077380       _wctomb_s                  10078380 f   libucrtd:wctomb.obj
 0001:000773b0       ??$?RU__acrt_ptd@@@__crt_internal_free_policy@@QBEXQBU__acrt_ptd@@@Z 100783b0 f i libucrtd:per_thread_data.obj
 0001:00077860       ??0?$__crt_unique_heap_ptr@U__acrt_ptd@@U__crt_internal_free_policy@@@@QAE@QAU__acrt_ptd@@@Z 10078860 f i libucrtd:per_thread_data.obj
 0001:00077880       ??0__crt_scoped_get_last_error_reset@@QAE@XZ 10078880 f i libucrtd:per_thread_data.obj
 0001:000778a0       ??1?$__crt_unique_heap_ptr@U__acrt_ptd@@U__crt_internal_free_policy@@@@QAE@XZ 100788a0 f i libucrtd:per_thread_data.obj
 0001:000778c0       ??1__crt_scoped_get_last_error_reset@@QAE@XZ 100788c0 f i libucrtd:per_thread_data.obj
 0001:000778e0       ??B?$__crt_unique_heap_ptr@U__acrt_ptd@@U__crt_internal_free_policy@@@@QBE_NXZ 100788e0 f i libucrtd:per_thread_data.obj
 0001:00077bc0       ?dangerous_get_state_array@?$dual_state_global@PAU__crt_locale_data@@@__crt_state_management@@QAEPAPAU__crt_locale_data@@XZ 10078bc0 f i libucrtd:per_thread_data.obj
 0001:00077d40       ?detach@?$__crt_unique_heap_ptr@U__acrt_ptd@@U__crt_internal_free_policy@@@@QAEPAU__acrt_ptd@@XZ 10078d40 f i libucrtd:per_thread_data.obj
 0001:00077d70       ?get@?$__crt_unique_heap_ptr@U__acrt_ptd@@U__crt_internal_free_policy@@@@QBEPAU__acrt_ptd@@XZ 10078d70 f i libucrtd:per_thread_data.obj
 0001:00077d90       ?get_current_state_index@__crt_state_management@@YAIABV__crt_scoped_get_last_error_reset@@@Z 10078d90 f i libucrtd:per_thread_data.obj
 0001:00077f00       ?is_valid@?$__crt_unique_heap_ptr@U__acrt_ptd@@U__crt_internal_free_policy@@@@QBE_NXZ 10078f00 f i libucrtd:per_thread_data.obj
 0001:00077f30       ?release@?$__crt_unique_heap_ptr@U__acrt_ptd@@U__crt_internal_free_policy@@@@QAEXXZ 10078f30 f i libucrtd:per_thread_data.obj
 0001:00078020       ?value@?$dual_state_global@PAU__crt_locale_data@@@__crt_state_management@@QAEAAPAU__crt_locale_data@@XZ 10079020 f i libucrtd:per_thread_data.obj
 0001:00078040       ___acrt_freeptd            10079040 f   libucrtd:per_thread_data.obj
 0001:00078070       ___acrt_getptd             10079070 f   libucrtd:per_thread_data.obj
 0001:00078090       ___acrt_getptd_head        10079090 f   libucrtd:per_thread_data.obj
 0001:000780b0       ___acrt_getptd_noexit      100790b0 f   libucrtd:per_thread_data.obj
 0001:000780c0       ___acrt_initialize_ptd     100790c0 f   libucrtd:per_thread_data.obj
 0001:00078100       ___acrt_uninitialize_ptd   10079100 f   libucrtd:per_thread_data.obj
 0001:00078130       ___threadhandle            10079130 f   libucrtd:per_thread_data.obj
 0001:00078140       ___threadid                10079140 f   libucrtd:per_thread_data.obj
 0001:00078150       ?value@?$dual_state_global@PAU__crt_multibyte_data@@@__crt_state_management@@QAEAAPAU__crt_multibyte_data@@XZ 10079150 f i libucrtd:locale_update.obj
 0001:00078170       ___acrt_update_locale_info 10079170 f   libucrtd:locale_update.obj
 0001:000781b0       ___acrt_update_multibyte_info 100791b0 f   libucrtd:locale_update.obj
 0001:000781f0       ?__acrt_fp_classify@@YA?AW4__acrt_fp_class@@ABN@Z 100791f0 f i libucrtd:cvt.obj
 0001:00078310       ?__acrt_fp_is_negative@@YA_NABN@Z 10079310 f i libucrtd:cvt.obj
 0001:00079360       ?strrchr@@YAPADQADH@Z      1007a360 f i libucrtd:cvt.obj
 0001:00079380       ___acrt_fp_format          1007a380 f   libucrtd:cvt.obj
 0001:00079810       __fputwc_nolock            1007a810 f   libucrtd:fputwc.obj
 0001:00079a00       __fputwchar                1007aa00 f   libucrtd:fputwc.obj
 0001:00079a20       __putwc_nolock             1007aa20 f   libucrtd:fputwc.obj
 0001:00079a40       _fputwc                    1007aa40 f   libucrtd:fputwc.obj
 0001:00079b50       _putwc                     1007ab50 f   libucrtd:fputwc.obj
 0001:00079b70       _putwchar                  1007ab70 f   libucrtd:fputwc.obj
 0001:00079b90       ?lowio_handle@__crt_stdio_stream@@QBEHXZ 1007ab90 f i libucrtd:fileno.obj
 0001:00079bb0       __fileno                   1007abb0 f   libucrtd:fileno.obj
 0001:00079c50       ??$?RPAU__crt_stdio_stream_data@@@__crt_internal_free_policy@@QBEXQBQAU__crt_stdio_stream_data@@@Z 1007ac50 f i libucrtd:_file.obj
 0001:00079c70       ??0?$__crt_unique_heap_ptr@PAU__crt_stdio_stream_data@@U__crt_internal_free_policy@@@@QAE@QAPAU__crt_stdio_stream_data@@@Z 1007ac70 f i libucrtd:_file.obj
 0001:00079c90       ??1?$__crt_unique_heap_ptr@PAU__crt_stdio_stream_data@@U__crt_internal_free_policy@@@@QAE@XZ 1007ac90 f i libucrtd:_file.obj
 0001:00079cb0       ?detach@?$__crt_unique_heap_ptr@PAU__crt_stdio_stream_data@@U__crt_internal_free_policy@@@@QAEPAPAU__crt_stdio_stream_data@@XZ 1007acb0 f i libucrtd:_file.obj
 0001:00079ce0       ?release@?$__crt_unique_heap_ptr@PAU__crt_stdio_stream_data@@U__crt_internal_free_policy@@@@QAEXXZ 1007ace0 f i libucrtd:_file.obj
 0001:00079d10       ___acrt_initialize_stdio   1007ad10 f   libucrtd:_file.obj
 0001:00079e80       ___acrt_iob_func           1007ae80 f   libucrtd:_file.obj
 0001:00079e90       ___acrt_uninitialize_stdio 1007ae90 f   libucrtd:_file.obj
 0001:00079f10       __get_stream_buffer_pointers 1007af10 f   libucrtd:_file.obj
 0001:00079ff0       __lock_file                1007aff0 f   libucrtd:_file.obj
 0001:0007a020       __unlock_file              1007b020 f   libucrtd:_file.obj
 0001:0007a050       __get_printf_count_output  1007b050 f   libucrtd:printf_count_output.obj
 0001:0007a080       __set_printf_count_output  1007b080 f   libucrtd:printf_count_output.obj
 0001:0007a0e0       ?has_any_buffer@__crt_stdio_stream@@QBE_NXZ 1007b0e0 f i libucrtd:_sftbuf.obj
 0001:0007a100       ?has_any_of@__crt_stdio_stream@@QBE_NJ@Z 1007b100 f i libucrtd:_sftbuf.obj
 0001:0007a140       ?has_temporary_buffer@__crt_stdio_stream@@QBE_NXZ 1007b140 f i libucrtd:_sftbuf.obj
 0001:0007a160       ?set_flags@__crt_stdio_stream@@QBE_NJ@Z 1007b160 f i libucrtd:_sftbuf.obj
 0001:0007a1b0       ?unset_flags@__crt_stdio_stream@@QBE_NJ@Z 1007b1b0 f i libucrtd:_sftbuf.obj
 0001:0007a200       ___acrt_stdio_begin_temporary_buffering_nolock 1007b200 f   libucrtd:_sftbuf.obj
 0001:0007a3c0       ___acrt_stdio_end_temporary_buffering_nolock 1007b3c0 f   libucrtd:_sftbuf.obj
 0001:0007a450       ??$?RU__crt_locale_data@@@__crt_internal_free_policy@@QBEXQBU__crt_locale_data@@@Z 1007b450 f i libucrtd:wsetlocale.obj
 0001:0007a470       ??$?RU__crt_locale_pointers@@@__crt_internal_free_policy@@QBEXQBU__crt_locale_pointers@@@Z 1007b470 f i libucrtd:wsetlocale.obj
 0001:0007a490       ??$?RU__crt_multibyte_data@@@__crt_internal_free_policy@@QBEXQBU__crt_multibyte_data@@@Z 1007b490 f i libucrtd:wsetlocale.obj
 0001:0007aa80       ??0?$__crt_unique_heap_ptr@U__crt_locale_data@@U__crt_internal_free_policy@@@@QAE@QAU__crt_locale_data@@@Z 1007ba80 f i libucrtd:wsetlocale.obj
 0001:0007aaa0       ??0?$__crt_unique_heap_ptr@U__crt_locale_pointers@@U__crt_internal_free_policy@@@@QAE@QAU__crt_locale_pointers@@@Z 1007baa0 f i libucrtd:wsetlocale.obj
 0001:0007aac0       ??0?$__crt_unique_heap_ptr@U__crt_multibyte_data@@U__crt_internal_free_policy@@@@QAE@QAU__crt_multibyte_data@@@Z 1007bac0 f i libucrtd:wsetlocale.obj
 0001:0007aae0       ??0_expandlocale_locale_name_cache@@QAE@QA_WIQAU__crt_qualified_locale_data@@@Z 1007bae0 f i libucrtd:wsetlocale.obj
 0001:0007ab50       ??1?$__crt_unique_heap_ptr@U__crt_locale_data@@U__crt_internal_free_policy@@@@QAE@XZ 1007bb50 f i libucrtd:wsetlocale.obj
 0001:0007ab70       ??1?$__crt_unique_heap_ptr@U__crt_locale_pointers@@U__crt_internal_free_policy@@@@QAE@XZ 1007bb70 f i libucrtd:wsetlocale.obj
 0001:0007ab90       ??1?$__crt_unique_heap_ptr@U__crt_multibyte_data@@U__crt_internal_free_policy@@@@QAE@XZ 1007bb90 f i libucrtd:wsetlocale.obj
 0001:0007abb0       ??1_expandlocale_locale_name_cache@@QAE@XZ 1007bbb0 f i libucrtd:wsetlocale.obj
 0001:0007ac10       ??B?$__crt_unique_heap_ptr@U__crt_locale_data@@U__crt_internal_free_policy@@@@QBE_NXZ 1007bc10 f i libucrtd:wsetlocale.obj
 0001:0007ac30       ??B?$__crt_unique_heap_ptr@U__crt_locale_pointers@@U__crt_internal_free_policy@@@@QBE_NXZ 1007bc30 f i libucrtd:wsetlocale.obj
 0001:0007ac50       ??B?$__crt_unique_heap_ptr@U__crt_multibyte_data@@U__crt_internal_free_policy@@@@QBE_NXZ 1007bc50 f i libucrtd:wsetlocale.obj
 0001:0007b040       ?commit_locale_name@_expandlocale_locale_name_cache@@QAEXQB_WI@Z 1007c040 f i libucrtd:wsetlocale.obj
 0001:0007b0a0       ?commit_locale_name_cache_already_updated@_expandlocale_locale_name_cache@@QAEXQB_WI@Z 1007c0a0 f i libucrtd:wsetlocale.obj
 0001:0007b100       ?detach@?$__crt_unique_heap_ptr@U__crt_locale_data@@U__crt_internal_free_policy@@@@QAEPAU__crt_locale_data@@XZ 1007c100 f i libucrtd:wsetlocale.obj
 0001:0007b130       ?detach@?$__crt_unique_heap_ptr@U__crt_locale_pointers@@U__crt_internal_free_policy@@@@QAEPAU__crt_locale_pointers@@XZ 1007c130 f i libucrtd:wsetlocale.obj
 0001:0007b160       ?detach@?$__crt_unique_heap_ptr@U__crt_multibyte_data@@U__crt_internal_free_policy@@@@QAEPAU__crt_multibyte_data@@XZ 1007c160 f i libucrtd:wsetlocale.obj
 0001:0007b190       ?get@?$__crt_unique_heap_ptr@U__crt_locale_data@@U__crt_internal_free_policy@@@@QBEPAU__crt_locale_data@@XZ 1007c190 f i libucrtd:wsetlocale.obj
 0001:0007b1b0       ?get@?$__crt_unique_heap_ptr@U__crt_locale_pointers@@U__crt_internal_free_policy@@@@QBEPAU__crt_locale_pointers@@XZ 1007c1b0 f i libucrtd:wsetlocale.obj
 0001:0007b1d0       ?get@?$__crt_unique_heap_ptr@U__crt_multibyte_data@@U__crt_internal_free_policy@@@@QBEPAU__crt_multibyte_data@@XZ 1007c1d0 f i libucrtd:wsetlocale.obj
 0001:0007b1f0       ?is_valid@?$__crt_unique_heap_ptr@U__crt_locale_data@@U__crt_internal_free_policy@@@@QBE_NXZ 1007c1f0 f i libucrtd:wsetlocale.obj
 0001:0007b220       ?is_valid@?$__crt_unique_heap_ptr@U__crt_locale_pointers@@U__crt_internal_free_policy@@@@QBE_NXZ 1007c220 f i libucrtd:wsetlocale.obj
 0001:0007b250       ?is_valid@?$__crt_unique_heap_ptr@U__crt_multibyte_data@@U__crt_internal_free_policy@@@@QBE_NXZ 1007c250 f i libucrtd:wsetlocale.obj
 0001:0007b280       ?release@?$__crt_unique_heap_ptr@U__crt_locale_data@@U__crt_internal_free_policy@@@@QAEXXZ 1007c280 f i libucrtd:wsetlocale.obj
 0001:0007b2b0       ?release@?$__crt_unique_heap_ptr@U__crt_locale_pointers@@U__crt_internal_free_policy@@@@QAEXXZ 1007c2b0 f i libucrtd:wsetlocale.obj
 0001:0007b2e0       ?release@?$__crt_unique_heap_ptr@U__crt_multibyte_data@@U__crt_internal_free_policy@@@@QAEXXZ 1007c2e0 f i libucrtd:wsetlocale.obj
 0001:0007b310       ___acrt_copy_locale_name   1007c310 f   libucrtd:wsetlocale.obj
 0001:0007b3b0       ___acrt_set_locale_changed 1007c3b0 f   libucrtd:wsetlocale.obj
 0001:0007b3d0       ___acrt_uninitialize_locale 1007c3d0 f   libucrtd:wsetlocale.obj
 0001:0007b3f0       ___ascii_tolower           1007c3f0 f i libucrtd:wsetlocale.obj
 0001:0007b410       ___ascii_towlower          1007c410 f i libucrtd:wsetlocale.obj
 0001:0007b430       ___lc_lctowcs              1007c430 f   libucrtd:wsetlocale.obj
 0001:0007b4e0       ___lc_wcstolc              1007c4e0 f   libucrtd:wsetlocale.obj
 0001:0007b710       __configthreadlocale       1007c710 f   libucrtd:wsetlocale.obj
 0001:0007b890       __create_locale            1007c890 f   libucrtd:wsetlocale.obj
 0001:0007bed0       __free_locale              1007ced0 f   libucrtd:wsetlocale.obj
 0001:0007c000       __get_current_locale       1007d000 f   libucrtd:wsetlocale.obj
 0001:0007c0d0       __wcreate_locale           1007d0d0 f   libucrtd:wsetlocale.obj
 0001:0007c310       __wcscats                  1007d310 f   libucrtd:wsetlocale.obj
 0001:0007c390       __wsetlocale               1007d390 f   libucrtd:wsetlocale.obj
 0001:0007da90       ___p___mb_cur_max          1007ea90 f   libucrtd:nlsdata.obj
 0001:0007dd90       ___acrt_initialize_lowio   1007ed90 f   libucrtd:ioinit.obj
 0001:0007de30       ___acrt_uninitialize_lowio 1007ee30 f   libucrtd:ioinit.obj
 0001:0007de90       __CrtGetReportHook         1007ee90 f   libucrtd:dbgrptt.obj
 0001:0007dea0       __CrtSetReportFile         1007eea0 f   libucrtd:dbgrptt.obj
 0001:0007dfa0       __CrtSetReportHook         1007efa0 f   libucrtd:dbgrptt.obj
 0001:0007dfc0       __CrtSetReportMode         1007efc0 f   libucrtd:dbgrptt.obj
 0001:0007e100       __VCrtDbgReportA           1007f100 f   libucrtd:dbgrptt.obj
 0001:0007e980       __VCrtDbgReportW           1007f980 f   libucrtd:dbgrptt.obj
 0001:0007f330       __snprintf_s               10080330 f i libucrtd:dbgrptt.obj
 0001:0007f370       __vsnprintf_s              10080370 f i libucrtd:dbgrptt.obj
 0001:0007f3a0       __vsnprintf_s_l            100803a0 f i libucrtd:dbgrptt.obj
 0001:0007f530       ??$__acrt_wcs_to_mbs_cp@U__crt_win32_buffer_no_resizing@@@@YAHQB_WAAV?$__crt_win32_buffer@DU__crt_win32_buffer_no_resizing@@@@I@Z 10080530 f i libucrtd:getmodulefilenamea.obj
 0001:0007f560       ??0?$__crt_win32_buffer@DU__crt_win32_buffer_no_resizing@@@@QAE@QADI@Z 10080560 f i libucrtd:getmodulefilenamea.obj
 0001:0007f5b0       ??1?$__crt_win32_buffer@DU__crt_win32_buffer_no_resizing@@@@QAE@XZ 100805b0 f i libucrtd:getmodulefilenamea.obj
 0001:0007f620       ?__acrt_get_utf8_acp_compatibility_codepage@@YAIXZ 10080620 f i libucrtd:getmodulefilenamea.obj
 0001:0007f6b0       ?_deallocate@?$__crt_win32_buffer@DU__crt_win32_buffer_no_resizing@@@@AAEXXZ 100806b0 f i libucrtd:getmodulefilenamea.obj
 0001:0007f6f0       ?allocate@?$__crt_win32_buffer@DU__crt_win32_buffer_no_resizing@@@@QAEHI@Z 100806f0 f i libucrtd:getmodulefilenamea.obj
 0001:0007f760       ?allocate@__crt_win32_buffer_no_resizing@@SAHQAPAXIABV__crt_win32_buffer_empty_debug_info@@@Z 10080760 f i libucrtd:getmodulefilenamea.obj
 0001:0007f780       ?capacity@?$__crt_win32_buffer@DU__crt_win32_buffer_no_resizing@@@@QBEIXZ 10080780 f i libucrtd:getmodulefilenamea.obj
 0001:0007f7a0       ?data@?$__crt_win32_buffer@DU__crt_win32_buffer_no_resizing@@@@QAEPADXZ 100807a0 f i libucrtd:getmodulefilenamea.obj
 0001:0007f7c0       ?deallocate@__crt_win32_buffer_no_resizing@@SAXQAXABV__crt_win32_buffer_empty_debug_info@@@Z 100807c0 f i libucrtd:getmodulefilenamea.obj
 0001:0007f7d0       ?debug_info@?$__crt_win32_buffer@DU__crt_win32_buffer_no_resizing@@@@QBEABV__crt_win32_buffer_empty_debug_info@@XZ 100807d0 f i libucrtd:getmodulefilenamea.obj
 0001:0007f7e0       ?set_to_nullptr@?$__crt_win32_buffer@DU__crt_win32_buffer_no_resizing@@@@QAEXXZ 100807e0 f i libucrtd:getmodulefilenamea.obj
 0001:0007f820       ?size@?$__crt_win32_buffer@DU__crt_win32_buffer_no_resizing@@@@QAEXI@Z 10080820 f i libucrtd:getmodulefilenamea.obj
 0001:0007f840       ?size@?$__crt_win32_buffer@DU__crt_win32_buffer_no_resizing@@@@QBEIXZ 10080840 f i libucrtd:getmodulefilenamea.obj
 0001:0007f860       ___acrt_GetModuleFileNameA 10080860 f   libucrtd:getmodulefilenamea.obj
 0001:0007fb40       ??$message_box@$$TABQBDABQBDK@?$__crt_char_traits@D@@SAH$$QA$$TABQBD1$$QAK@Z 10080b40 f i libucrtd:crtmbox.obj
 0001:0007fb70       ??$message_box@$$TABQB_WABQB_WK@?$__crt_char_traits@_W@@SAH$$QA$$TABQB_W1$$QAK@Z 10080b70 f i libucrtd:crtmbox.obj
 0001:0007fba0       ??$message_box@PAUHWND__@@ABQBDABQBDABI@?$__crt_char_traits@D@@SAH$$QAPAUHWND__@@ABQBD1ABI@Z 10080ba0 f i libucrtd:crtmbox.obj
 0001:0007fbd0       ??$message_box@PAUHWND__@@ABQB_WABQB_WABI@?$__crt_char_traits@_W@@SAH$$QAPAUHWND__@@ABQB_W1ABI@Z 10080bd0 f i libucrtd:crtmbox.obj
 0001:0007fc00       ??$output_debug_string@ABQBD@?$__crt_char_traits@D@@SAXABQBD@Z 10080c00 f i libucrtd:crtmbox.obj
 0001:0007fc20       ??$output_debug_string@ABQB_W@?$__crt_char_traits@_W@@SAXABQB_W@Z 10080c20 f i libucrtd:crtmbox.obj
 0001:0007fc40       ___acrt_show_narrow_message_box 10080c40 f   libucrtd:crtmbox.obj
 0001:0007fc60       ___acrt_show_wide_message_box 10080c60 f   libucrtd:crtmbox.obj
 0001:0007fc80       ___acrt_initialize_locks   10080c80 f   libucrtd:locks.obj
 0001:0007fce0       ___acrt_lock               10080ce0 f   libucrtd:locks.obj
 0001:0007fd00       ___acrt_uninitialize_locks 10080d00 f   libucrtd:locks.obj
 0001:0007fd50       ___acrt_unlock             10080d50 f   libucrtd:locks.obj
 0001:0007fd70       __lock_locales             10080d70 f   libucrtd:locks.obj
 0001:0007fd90       __unlock_locales           10080d90 f   libucrtd:locks.obj
 0001:0007fdb0       ??$?B$$A6AXH@Z@__crt_fast_encoded_nullptr_t@@QBEP6AXH@ZXZ 10080db0 f i libucrtd:signal.obj
 0001:0007fea0       ??$__crt_fast_decode_pointer@P6AXH@Z@@YAP6AXH@ZQ6AXH@Z@Z 10080ea0 f i libucrtd:signal.obj
 0001:0007fed0       ??$__crt_fast_encode_pointer@P6AXH@Z@@YAP6AXH@ZQ6AXH@Z@Z 10080ed0 f i libucrtd:signal.obj
 0001:00080180       ?initialize@?$dual_state_global@P6AXH@Z@__crt_state_management@@QAEXQ6AXH@Z@Z 10081180 f i libucrtd:signal.obj
 0001:000802c0       ?value@?$dual_state_global@P6AXH@Z@__crt_state_management@@QAEAAP6AXH@ZXZ 100812c0 f i libucrtd:signal.obj
 0001:000802e0       ___acrt_get_sigabrt_handler 100812e0 f   libucrtd:signal.obj
 0001:00080300       ___acrt_initialize_signal_handlers 10081300 f   libucrtd:signal.obj
 0001:00080340       ___fpecode                 10081340 f   libucrtd:signal.obj
 0001:00080350       ___pxcptinfoptrs           10081350 f   libucrtd:signal.obj
 0001:00080360       _raise                     10081360 f   libucrtd:signal.obj
 0001:00080730       _signal                    10081730 f   libucrtd:signal.obj
 0001:000809b0       __msize                    100819b0 f   libucrtd:msize.obj
 0001:000809d0       __msize_base               100819d0 f   libucrtd:msize.obj
 0001:00080a70       __realloc_base             10081a70 f   libucrtd:realloc_base.obj
 0001:00080b30       ??$?B$$A6GHPA_WKJ@Z@__crt_fast_encoded_nullptr_t@@QBEP6GHPA_WKJ@ZXZ 10081b30 f i libucrtd:winapi_thunks.obj
 0001:00080c20       ??$__crt_fast_decode_pointer@P6GHPA_WKJ@Z@@YAP6GHPA_WKJ@ZQ6GH0KJ@Z@Z 10081c20 f i libucrtd:winapi_thunks.obj
 0001:00080c50       ??$__crt_fast_decode_pointer@PAX@@YAPAXQAX@Z 10081c50 f i libucrtd:winapi_thunks.obj
 0001:00080c80       ??$__crt_fast_encode_pointer@P6GHPA_WKJ@Z@@YAP6GHPA_WKJ@ZQ6GH0KJ@Z@Z 10081c80 f i libucrtd:winapi_thunks.obj
 0001:000815e0       _GetCurrentThreadEffectiveToken 100825e0 f i libucrtd:winapi_thunks.obj
 0001:000815f0       ___acrt_AppPolicyGetProcessTerminationMethodInternal@4 100825f0 f   libucrtd:winapi_thunks.obj
 0001:00081630       ___acrt_AppPolicyGetShowDeveloperDiagnosticInternal@4 10082630 f   libucrtd:winapi_thunks.obj
 0001:00081670       ___acrt_AppPolicyGetThreadInitializationTypeInternal@4 10082670 f   libucrtd:winapi_thunks.obj
 0001:000816b0       ___acrt_AppPolicyGetWindowingModelInternal@4 100826b0 f   libucrtd:winapi_thunks.obj
 0001:000816f0       ___acrt_AreFileApisANSI@0  100826f0 f   libucrtd:winapi_thunks.obj
 0001:00081730       ___acrt_CompareStringEx@36 10082730 f   libucrtd:winapi_thunks.obj
 0001:000817b0       ___acrt_EnumSystemLocalesEx@16 100827b0 f   libucrtd:winapi_thunks.obj
 0001:00081810       ___acrt_FlsAlloc@4         10082810 f   libucrtd:winapi_thunks.obj
 0001:00081850       ___acrt_FlsFree@4          10082850 f   libucrtd:winapi_thunks.obj
 0001:00081890       ___acrt_FlsGetValue@4      10082890 f   libucrtd:winapi_thunks.obj
 0001:000818d0       ___acrt_FlsSetValue@8      100828d0 f   libucrtd:winapi_thunks.obj
 0001:00081920       ___acrt_GetDateFormatEx@28 10082920 f   libucrtd:winapi_thunks.obj
 0001:000819a0       ___acrt_GetEnabledXStateFeatures@0 100829a0 f   libucrtd:winapi_thunks.obj
 0001:000819e0       ___acrt_GetLocaleInfoEx@16 100829e0 f   libucrtd:winapi_thunks.obj
 0001:00081a40       ___acrt_GetSystemTimePreciseAsFileTime@4 10082a40 f   libucrtd:winapi_thunks.obj
 0001:00081a80       ___acrt_GetTimeFormatEx@24 10082a80 f   libucrtd:winapi_thunks.obj
 0001:00081af0       ___acrt_GetUserDefaultLocaleName@8 10082af0 f   libucrtd:winapi_thunks.obj
 0001:00081b40       ___acrt_GetXStateFeaturesMask@8 10082b40 f   libucrtd:winapi_thunks.obj
 0001:00081b80       ___acrt_InitializeCriticalSectionEx@12 10082b80 f   libucrtd:winapi_thunks.obj
 0001:00081bd0       ___acrt_IsValidLocaleName@4 10082bd0 f   libucrtd:winapi_thunks.obj
 0001:00081c20       ___acrt_LCIDToLocaleName@16 10082c20 f   libucrtd:winapi_thunks.obj
 0001:00081c80       ___acrt_LCMapStringEx@36   10082c80 f   libucrtd:winapi_thunks.obj
 0001:00081d00       ___acrt_LocaleNameToLCID@8 10082d00 f   libucrtd:winapi_thunks.obj
 0001:00081d50       ___acrt_LocateXStateFeature@12 10082d50 f   libucrtd:winapi_thunks.obj
 0001:00081da0       ___acrt_MessageBoxA@16     10082da0 f   libucrtd:winapi_thunks.obj
 0001:00081df0       ___acrt_MessageBoxW@16     10082df0 f   libucrtd:winapi_thunks.obj
 0001:00081e40       ___acrt_RoInitialize@4     10082e40 f   libucrtd:winapi_thunks.obj
 0001:00081e80       ___acrt_RoUninitialize@0   10082e80 f   libucrtd:winapi_thunks.obj
 0001:00081eb0       ___acrt_RtlGenRandom@8     10082eb0 f   libucrtd:winapi_thunks.obj
 0001:00081ef0       ___acrt_SetThreadStackGuarantee@4 10082ef0 f   libucrtd:winapi_thunks.obj
 0001:00081f30       ___acrt_can_show_message_box 10082f30 f   libucrtd:winapi_thunks.obj
 0001:00081f70       ___acrt_can_use_vista_locale_apis 10082f70 f   libucrtd:winapi_thunks.obj
 0001:00081fa0       ___acrt_can_use_xstate_apis 10082fa0 f   libucrtd:winapi_thunks.obj
 0001:00081fd0       ___acrt_eagerly_load_locale_apis 10082fd0 f   libucrtd:winapi_thunks.obj
 0001:00082010       ___acrt_get_parent_window  10083010 f   libucrtd:winapi_thunks.obj
 0001:00082080       ___acrt_initialize_winapi_thunks 10083080 f   libucrtd:winapi_thunks.obj
 0001:000820f0       ___acrt_is_interactive     100830f0 f   libucrtd:winapi_thunks.obj
 0001:000821a0       ___acrt_uninitialize_winapi_thunks 100831a0 f   libucrtd:winapi_thunks.obj
 0001:00082210       __chvalidator              10083210 f   libucrtd:isctype.obj
 0001:00082260       __chvalidator_l            10083260 f   libucrtd:isctype.obj
 0001:000822e0       __isctype                  100832e0 f   libucrtd:isctype.obj
 0001:00082320       __isctype_l                10083320 f   libucrtd:isctype.obj
 0001:000824a0       __isleadbyte_fast_internal 100834a0 f i libucrtd:isctype.obj
 0001:000824c0       ??$?RU__crt_stdio_stream_data@@@__crt_internal_free_policy@@QBEXQBU__crt_stdio_stream_data@@@Z 100834c0 f i libucrtd:stream.obj
 0001:000824e0       ??0?$__crt_unique_heap_ptr@U__crt_stdio_stream_data@@U__crt_internal_free_policy@@@@QAE@QAU__crt_stdio_stream_data@@@Z 100834e0 f i libucrtd:stream.obj
 0001:00082500       ??0__crt_stdio_stream@@QAE@QAU__crt_stdio_stream_data@@@Z 10083500 f i libucrtd:stream.obj
 0001:00082520       ??0__crt_stdio_stream@@QAE@XZ 10083520 f i libucrtd:stream.obj
 0001:00082540       ??1?$__crt_unique_heap_ptr@U__crt_stdio_stream_data@@U__crt_internal_free_policy@@@@QAE@XZ 10083540 f i libucrtd:stream.obj
 0001:00082560       ?__acrt_stdio_allocate_stream@@YA?AV__crt_stdio_stream@@XZ 10083560 f   libucrtd:stream.obj
 0001:00082650       ?__acrt_stdio_free_stream@@YAXV__crt_stdio_stream@@@Z 10083650 f   libucrtd:stream.obj
 0001:000826d0       ?deallocate@__crt_stdio_stream@@QAEXXZ 100836d0 f i libucrtd:stream.obj
 0001:000826f0       ?detach@?$__crt_unique_heap_ptr@U__crt_stdio_stream_data@@U__crt_internal_free_policy@@@@QAEPAU__crt_stdio_stream_data@@XZ 100836f0 f i libucrtd:stream.obj
 0001:00082860       ?lock@__crt_stdio_stream@@QBEXXZ 10083860 f i libucrtd:stream.obj
 0001:00082880       ?release@?$__crt_unique_heap_ptr@U__crt_stdio_stream_data@@U__crt_internal_free_policy@@@@QAEXXZ 10083880 f i libucrtd:stream.obj
 0001:000828b0       ?try_allocate@__crt_stdio_stream@@QAE_NXZ 100838b0 f i libucrtd:stream.obj
 0001:00082900       ??$__acrt_stdio_parse_mode@D@@YA?AU__acrt_stdio_stream_mode@@QBD@Z 10083900 f i libucrtd:openfile.obj
 0001:00083170       ??$__acrt_stdio_parse_mode@_W@@YA?AU__acrt_stdio_stream_mode@@QB_W@Z 10084170 f i libucrtd:openfile.obj
 0001:00083d00       ??$tcsncmp@AAPBDAAY02$$CBDI@?$__crt_char_traits@D@@SAHAAPBDAAY02$$CBD$$QAI@Z 10084d00 f i libucrtd:openfile.obj
 0001:00083d20       ??$tcsncmp@AAPB_WAAY02$$CB_WI@?$__crt_char_traits@_W@@SAHAAPB_WAAY02$$CB_W$$QAI@Z 10084d20 f i libucrtd:openfile.obj
 0001:00083d40       ??$tcsnicmp@AAPBDAAY04$$CBDI@?$__crt_char_traits@D@@SAHAAPBDAAY04$$CBD$$QAI@Z 10084d40 f i libucrtd:openfile.obj
 0001:00083d60       ??$tcsnicmp@AAPBDAAY06$$CBDI@?$__crt_char_traits@D@@SAHAAPBDAAY06$$CBD$$QAI@Z 10084d60 f i libucrtd:openfile.obj
 0001:00083d80       ??$tcsnicmp@AAPBDAAY07$$CBDI@?$__crt_char_traits@D@@SAHAAPBDAAY07$$CBD$$QAI@Z 10084d80 f i libucrtd:openfile.obj
 0001:00083da0       ??$tcsnicmp@AAPB_WAAY04$$CB_WI@?$__crt_char_traits@_W@@SAHAAPB_WAAY04$$CB_W$$QAI@Z 10084da0 f i libucrtd:openfile.obj
 0001:00083dc0       ??$tcsnicmp@AAPB_WAAY06$$CB_WI@?$__crt_char_traits@_W@@SAHAAPB_WAAY06$$CB_W$$QAI@Z 10084dc0 f i libucrtd:openfile.obj
 0001:00083de0       ??$tcsnicmp@AAPB_WAAY07$$CB_WI@?$__crt_char_traits@_W@@SAHAAPB_WAAY07$$CB_W$$QAI@Z 10084de0 f i libucrtd:openfile.obj
 0001:00083e00       ??$tsopen_s@PAHABQBDABHABHH@?$__crt_char_traits@D@@SAH$$QAPAHABQBDABH2$$QAH@Z 10084e00 f i libucrtd:openfile.obj
 0001:00083e30       ??$tsopen_s@PAHABQB_WABHABHH@?$__crt_char_traits@_W@@SAH$$QAPAHABQB_WABH2$$QAH@Z 10084e30 f i libucrtd:openfile.obj
 0001:00083e60       ?__acrt_stdio_parse_mode_D@@YA_NAAU__acrt_stdio_stream_mode@@@Z 10084e60 f i libucrtd:openfile.obj
 0001:00083e90       ?__acrt_stdio_parse_mode_N@@YA_NAAU__acrt_stdio_stream_mode@@@Z 10084e90 f i libucrtd:openfile.obj
 0001:00083eb0       ?__acrt_stdio_parse_mode_R@@YA_NAAU__acrt_stdio_stream_mode@@AA_N@Z 10084eb0 f i libucrtd:openfile.obj
 0001:00083ee0       ?__acrt_stdio_parse_mode_S@@YA_NAAU__acrt_stdio_stream_mode@@AA_N@Z 10084ee0 f i libucrtd:openfile.obj
 0001:00083f10       ?__acrt_stdio_parse_mode_T@@YA_NAAU__acrt_stdio_stream_mode@@@Z 10084f10 f i libucrtd:openfile.obj
 0001:00083f40       ?__acrt_stdio_parse_mode_b@@YA_NAAU__acrt_stdio_stream_mode@@@Z 10084f40 f i libucrtd:openfile.obj
 0001:00083f70       ?__acrt_stdio_parse_mode_c@@YA_NAAU__acrt_stdio_stream_mode@@AA_N@Z 10084f70 f i libucrtd:openfile.obj
 0001:00083fa0       ?__acrt_stdio_parse_mode_n@@YA_NAAU__acrt_stdio_stream_mode@@AA_N@Z 10084fa0 f i libucrtd:openfile.obj
 0001:00083fd0       ?__acrt_stdio_parse_mode_plus@@YA_NAAU__acrt_stdio_stream_mode@@AA_N@Z 10084fd0 f i libucrtd:openfile.obj
 0001:00084040       ?__acrt_stdio_parse_mode_t@@YA_NAAU__acrt_stdio_stream_mode@@@Z 10085040 f i libucrtd:openfile.obj
 0001:00084070       ?__acrt_stdio_parse_mode_x@@YA_NAAU__acrt_stdio_stream_mode@@@Z 10085070 f i libucrtd:openfile.obj
 0001:000840a0       __openfile                 100850a0 f   libucrtd:openfile.obj
 0001:000840d0       __wopenfile                100850d0 f   libucrtd:openfile.obj
 0001:000843b0       __close                    100853b0 f   libucrtd:close.obj
 0001:00084530       __close_nolock             10085530 f   libucrtd:close.obj
 0001:00084590       ?has_crt_buffer@__crt_stdio_stream@@QBE_NXZ 10085590 f i libucrtd:_freebuf.obj
 0001:000845b0       ___acrt_stdio_free_buffer_nolock 100855b0 f   libucrtd:_freebuf.obj
 0001:00084c10       ?__acrt_stdio_reset_buffer@@YAXV__crt_stdio_stream@@@Z 10085c10 f i libucrtd:fflush.obj
 0001:00084d10       ?has_all_of@__crt_stdio_stream@@QBE_NJ@Z 10085d10 f i libucrtd:fflush.obj
 0001:00084de0       ___acrt_stdio_flush_nolock 10085de0 f   libucrtd:fflush.obj
 0001:00084eb0       __fflush_nolock            10085eb0 f   libucrtd:fflush.obj
 0001:00084f30       __flushall                 10085f30 f   libucrtd:fflush.obj
 0001:00084f50       _fflush                    10085f50 f   libucrtd:fflush.obj
 0001:00085700       ?has_big_buffer@__crt_stdio_stream@@QBE_NXZ 10086700 f i libucrtd:_flsbuf.obj
 0001:00085800       ___acrt_stdio_flush_and_write_narrow_nolock 10086800 f   libucrtd:_flsbuf.obj
 0001:00085830       ___acrt_stdio_flush_and_write_wide_nolock 10086830 f   libucrtd:_flsbuf.obj
 0001:00085b60       ___acrt_get_begin_thread_init_policy 10086b60 f   libucrtd:win_policies.obj
 0001:00085b80       ___acrt_get_developer_information_policy 10086b80 f   libucrtd:win_policies.obj
 0001:00085ba0       ___acrt_get_process_end_policy 10086ba0 f   libucrtd:win_policies.obj
 0001:00085bc0       ___acrt_get_windowing_model_policy 10086bc0 f   libucrtd:win_policies.obj
 0001:00085e90       ??$__acrt_mbs_to_wcs_cp@U__crt_win32_buffer_internal_dynamic_resizing@@@@YAHQBDAAV?$__crt_win32_buffer@_WU__crt_win32_buffer_internal_dynamic_resizing@@@@I@Z 10086e90 f i libucrtd:argv_wildcards.obj
 0001:00085ec0       ??$__acrt_wcs_to_mbs_cp@U__crt_win32_buffer_internal_dynamic_resizing@@@@YAHQB_WAAV?$__crt_win32_buffer@DU__crt_win32_buffer_internal_dynamic_resizing@@@@I@Z 10086ec0 f i libucrtd:argv_wildcards.obj
 0001:00086e10       ??$tcsncpy_s@AAPADIAAPADABI@?$__crt_char_traits@D@@SAHAAPAD$$QAI0ABI@Z 10087e10 f i libucrtd:argv_wildcards.obj
 0001:00086e40       ??$tcsncpy_s@AAPA_WIAAPA_WABI@?$__crt_char_traits@_W@@SAHAAPA_W$$QAI0ABI@Z 10087e40 f i libucrtd:argv_wildcards.obj
 0001:00086e70       ??$tcsncpy_s@PADABIABQBDABI@?$__crt_char_traits@D@@SAH$$QAPADABIABQBD1@Z 10087e70 f i libucrtd:argv_wildcards.obj
 0001:00086ea0       ??$tcsncpy_s@PADIABQBDABI@?$__crt_char_traits@D@@SAH$$QAPAD$$QAIABQBDABI@Z 10087ea0 f i libucrtd:argv_wildcards.obj
 0001:00086ed0       ??$tcsncpy_s@PA_WABIABQB_WABI@?$__crt_char_traits@_W@@SAH$$QAPA_WABIABQB_W1@Z 10087ed0 f i libucrtd:argv_wildcards.obj
 0001:00086f00       ??$tcsncpy_s@PA_WIABQB_WABI@?$__crt_char_traits@_W@@SAH$$QAPA_W$$QAIABQB_WABI@Z 10087f00 f i libucrtd:argv_wildcards.obj
 0001:00086f30       ??$tcspbrk@AAPADAAY02$$CBD@?$__crt_char_traits@D@@SAPADAAPADAAY02$$CBD@Z 10087f30 f i libucrtd:argv_wildcards.obj
 0001:00086f50       ??$tcspbrk@AAPA_WAAY02$$CB_W@?$__crt_char_traits@_W@@SAPA_WAAPA_WAAY02$$CB_W@Z 10087f50 f i libucrtd:argv_wildcards.obj
 0001:00086f70       ??0?$__crt_unique_handle_t@U__crt_findfile_traits@@@@QAE@QAX@Z 10087f70 f i libucrtd:argv_wildcards.obj
 0001:00086f90       ??0?$__crt_win32_buffer@DU__crt_win32_buffer_internal_dynamic_resizing@@@@QAE@XZ 10087f90 f i libucrtd:argv_wildcards.obj
 0001:00086fe0       ??0?$__crt_win32_buffer@_WU__crt_win32_buffer_internal_dynamic_resizing@@@@QAE@XZ 10087fe0 f i libucrtd:argv_wildcards.obj
 0001:00087090       ??1?$__crt_unique_handle_t@U__crt_findfile_traits@@@@QAE@XZ 10088090 f i libucrtd:argv_wildcards.obj
 0001:000870b0       ??1?$__crt_win32_buffer@DU__crt_win32_buffer_internal_dynamic_resizing@@@@QAE@XZ 100880b0 f i libucrtd:argv_wildcards.obj
 0001:000870f0       ??1?$__crt_win32_buffer@_WU__crt_win32_buffer_internal_dynamic_resizing@@@@QAE@XZ 100880f0 f i libucrtd:argv_wildcards.obj
 0001:00087350       ?_deallocate@?$__crt_win32_buffer@DU__crt_win32_buffer_internal_dynamic_resizing@@@@AAEXXZ 10088350 f i libucrtd:argv_wildcards.obj
 0001:00087390       ?_deallocate@?$__crt_win32_buffer@_WU__crt_win32_buffer_internal_dynamic_resizing@@@@AAEXXZ 10088390 f i libucrtd:argv_wildcards.obj
 0001:000873d0       ?allocate@?$__crt_win32_buffer@DU__crt_win32_buffer_internal_dynamic_resizing@@@@QAEHI@Z 100883d0 f i libucrtd:argv_wildcards.obj
 0001:00087440       ?allocate@?$__crt_win32_buffer@_WU__crt_win32_buffer_internal_dynamic_resizing@@@@QAEHI@Z 10088440 f i libucrtd:argv_wildcards.obj
 0001:000874b0       ?allocate@__crt_win32_buffer_internal_dynamic_resizing@@SAHQAPAXIABV__crt_win32_buffer_empty_debug_info@@@Z 100884b0 f i libucrtd:argv_wildcards.obj
 0001:000875f0       ?capacity@?$__crt_win32_buffer@DU__crt_win32_buffer_internal_dynamic_resizing@@@@QBEIXZ 100885f0 f i libucrtd:argv_wildcards.obj
 0001:00087610       ?capacity@?$__crt_win32_buffer@_WU__crt_win32_buffer_internal_dynamic_resizing@@@@QBEIXZ 10088610 f i libucrtd:argv_wildcards.obj
 0001:00087630       ?close@?$__crt_unique_handle_t@U__crt_findfile_traits@@@@QAEXXZ 10088630 f i libucrtd:argv_wildcards.obj
 0001:00087670       ?close@__crt_findfile_traits@@SA_NPAX@Z 10088670 f i libucrtd:argv_wildcards.obj
 0001:000876a0       ?data@?$__crt_win32_buffer@DU__crt_win32_buffer_internal_dynamic_resizing@@@@QAEPADXZ 100886a0 f i libucrtd:argv_wildcards.obj
 0001:000876c0       ?data@?$__crt_win32_buffer@_WU__crt_win32_buffer_internal_dynamic_resizing@@@@QAEPA_WXZ 100886c0 f i libucrtd:argv_wildcards.obj
 0001:000876e0       ?deallocate@__crt_win32_buffer_internal_dynamic_resizing@@SAXQAXABV__crt_win32_buffer_empty_debug_info@@@Z 100886e0 f i libucrtd:argv_wildcards.obj
 0001:00087700       ?debug_info@?$__crt_win32_buffer@DU__crt_win32_buffer_internal_dynamic_resizing@@@@QBEABV__crt_win32_buffer_empty_debug_info@@XZ 10088700 f i libucrtd:argv_wildcards.obj
 0001:00087710       ?debug_info@?$__crt_win32_buffer@_WU__crt_win32_buffer_internal_dynamic_resizing@@@@QBEABV__crt_win32_buffer_empty_debug_info@@XZ 10088710 f i libucrtd:argv_wildcards.obj
 0001:00087a20       ?get@?$__crt_unique_handle_t@U__crt_findfile_traits@@@@QBEPAXXZ 10088a20 f i libucrtd:argv_wildcards.obj
 0001:00087a90       ?get_invalid_value@__crt_findfile_traits@@SAPAXXZ 10088a90 f i libucrtd:argv_wildcards.obj
 0001:00087b20       ?set_to_nullptr@?$__crt_win32_buffer@DU__crt_win32_buffer_internal_dynamic_resizing@@@@QAEXXZ 10088b20 f i libucrtd:argv_wildcards.obj
 0001:00087b60       ?set_to_nullptr@?$__crt_win32_buffer@_WU__crt_win32_buffer_internal_dynamic_resizing@@@@QAEXXZ 10088b60 f i libucrtd:argv_wildcards.obj
 0001:00087ba0       ?size@?$__crt_win32_buffer@DU__crt_win32_buffer_internal_dynamic_resizing@@@@QAEXI@Z 10088ba0 f i libucrtd:argv_wildcards.obj
 0001:00087bc0       ?size@?$__crt_win32_buffer@_WU__crt_win32_buffer_internal_dynamic_resizing@@@@QAEXI@Z 10088bc0 f i libucrtd:argv_wildcards.obj
 0001:00087c20       ?strpbrk@@YAPADQADQBD@Z    10088c20 f i libucrtd:argv_wildcards.obj
 0001:00087c40       ?wcspbrk@@YAPA_WPA_WPB_W@Z 10088c40 f i libucrtd:argv_wildcards.obj
 0001:00087c60       ___acrt_expand_narrow_argv_wildcards 10088c60 f   libucrtd:argv_wildcards.obj
 0001:00087c80       ___acrt_expand_wide_argv_wildcards 10088c80 f   libucrtd:argv_wildcards.obj
 0001:00087d60       ??$initialize_from_array@$$BY10BAA@E@?$dual_state_global@PAE@__crt_state_management@@QAAXAAY10BAA@E@Z 10088d60 f i libucrtd:mbctype.obj
 0001:00087db0       ??$initialize_from_array@$$BY10BAB@E@?$dual_state_global@PAE@__crt_state_management@@QAAXAAY10BAB@E@Z 10088db0 f i libucrtd:mbctype.obj
 0001:00088020       ?dangerous_get_state_array@?$dual_state_global@PAE@__crt_state_management@@QAEPAPAEXZ 10089020 f i libucrtd:mbctype.obj
 0001:00088030       ?dangerous_get_state_array@?$dual_state_global@PAU__crt_multibyte_data@@@__crt_state_management@@QAEPAPAU__crt_multibyte_data@@XZ 10089030 f i libucrtd:mbctype.obj
 0001:00088100       ?initialize@?$dual_state_global@PAU__crt_multibyte_data@@@__crt_state_management@@QAEXQAU__crt_multibyte_data@@@Z 10089100 f i libucrtd:mbctype.obj
 0001:00088860       ?value@?$dual_state_global@PAE@__crt_state_management@@QAEAAPAEXZ 10089860 f i libucrtd:mbctype.obj
 0001:00088880       ___acrt_initialize_multibyte 10089880 f   libucrtd:mbctype.obj
 0001:00088930       ___acrt_update_thread_multibyte_data 10089930 f   libucrtd:mbctype.obj
 0001:00088950       ___p__mbcasemap            10089950 f   libucrtd:mbctype.obj
 0001:00088970       ___p__mbctype              10089970 f   libucrtd:mbctype.obj
 0001:00088990       __getmbcp                  10089990 f   libucrtd:mbctype.obj
 0001:00088a00       __setmbcp                  10089a00 f   libucrtd:mbctype.obj
 0001:00088a30       __setmbcp_nolock           10089a30 f   libucrtd:mbctype.obj
 0001:00088fa1       __ismbbalnum               10089fa1 f   libucrtd:ismbbyte.obj
 0001:00088fbc       __ismbbalnum_l             10089fbc f   libucrtd:ismbbyte.obj
 0001:00088fd8       __ismbbalpha               10089fd8 f   libucrtd:ismbbyte.obj
 0001:00088ff3       __ismbbalpha_l             10089ff3 f   libucrtd:ismbbyte.obj
 0001:0008900f       __ismbbblank               1008a00f f   libucrtd:ismbbyte.obj
 0001:00089032       __ismbbblank_l             1008a032 f   libucrtd:ismbbyte.obj
 0001:00089056       __ismbbgraph               1008a056 f   libucrtd:ismbbyte.obj
 0001:00089071       __ismbbgraph_l             1008a071 f   libucrtd:ismbbyte.obj
 0001:0008908d       __ismbbkalnum              1008a08d f   libucrtd:ismbbyte.obj
 0001:000890a5       __ismbbkalnum_l            1008a0a5 f   libucrtd:ismbbyte.obj
 0001:000890be       __ismbbkana                1008a0be f   libucrtd:ismbbyte.obj
 0001:000890d1       __ismbbkana_l              1008a0d1 f   libucrtd:ismbbyte.obj
 0001:00089120       __ismbbkprint              1008a120 f   libucrtd:ismbbyte.obj
 0001:00089138       __ismbbkprint_l            1008a138 f   libucrtd:ismbbyte.obj
 0001:00089151       __ismbbkpunct              1008a151 f   libucrtd:ismbbyte.obj
 0001:00089169       __ismbbkpunct_l            1008a169 f   libucrtd:ismbbyte.obj
 0001:00089182       __ismbblead                1008a182 f   libucrtd:ismbbyte.obj
 0001:0008919a       __ismbblead_l              1008a19a f   libucrtd:ismbbyte.obj
 0001:000891b3       __ismbbprint               1008a1b3 f   libucrtd:ismbbyte.obj
 0001:000891ce       __ismbbprint_l             1008a1ce f   libucrtd:ismbbyte.obj
 0001:000891ea       __ismbbpunct               1008a1ea f   libucrtd:ismbbyte.obj
 0001:00089202       __ismbbpunct_l             1008a202 f   libucrtd:ismbbyte.obj
 0001:0008921b       __ismbbtrail               1008a21b f   libucrtd:ismbbyte.obj
 0001:00089233       __ismbbtrail_l             1008a233 f   libucrtd:ismbbyte.obj
 0001:00089250       ___acrt_initialize_command_line 1008a250 f   libucrtd:argv_data.obj
 0001:00089270       ___acrt_uninitialize_command_line 1008a270 f   libucrtd:argv_data.obj
 0001:00089280       ___p___argc                1008a280 f   libucrtd:argv_data.obj
 0001:00089290       ___p___argv                1008a290 f   libucrtd:argv_data.obj
 0001:000892a0       ___p___wargv               1008a2a0 f   libucrtd:argv_data.obj
 0001:000892b0       ___p__acmdln               1008a2b0 f   libucrtd:argv_data.obj
 0001:000892c0       ___p__pgmptr               1008a2c0 f   libucrtd:argv_data.obj
 0001:000892d0       ___p__wcmdln               1008a2d0 f   libucrtd:argv_data.obj
 0001:000892e0       ___p__wpgmptr              1008a2e0 f   libucrtd:argv_data.obj
 0001:000892f0       __get_pgmptr               1008a2f0 f   libucrtd:argv_data.obj
 0001:00089400       __get_wpgmptr              1008a400 f   libucrtd:argv_data.obj
 0001:000895c0       ___acrt_MultiByteToWideChar 1008a5c0 f   libucrtd:multibytetowidechar.obj
 0001:000896c0       ___acrt_WideCharToMultiByte 1008a6c0 f   libucrtd:widechartomultibyte.obj
 0001:00089802       ___dcrt_get_narrow_environment_from_os 1008a802 f   libucrtd:get_environment_from_os.obj
 0001:00089894       ___dcrt_get_wide_environment_from_os 1008a894 f   libucrtd:get_environment_from_os.obj
 0001:0008a229       ??$get_or_create_environment_nolock@$$V@?$__crt_char_traits@D@@SAPAPADXZ 1008b229 f i libucrtd:setenv.obj
 0001:0008a22e       ??$get_or_create_environment_nolock@$$V@?$__crt_char_traits@_W@@SAPAPA_WXZ 1008b22e f i libucrtd:setenv.obj
 0001:0008a233       ??$set_environment_variable@ABQADQAD@?$__crt_char_traits@D@@SAHABQAD$$QBQAD@Z 1008b233 f i libucrtd:setenv.obj
 0001:0008a24b       ??$set_environment_variable@ABQA_WQA_W@?$__crt_char_traits@_W@@SAHABQA_W$$QBQA_W@Z 1008b24b f i libucrtd:setenv.obj
 0001:0008a262       ??$tcschr@ABQADD@?$__crt_char_traits@D@@SAPADABQAD$$QAD@Z 1008b262 f i libucrtd:setenv.obj
 0001:0008a27c       ??$tcschr@ABQA_WD@?$__crt_char_traits@_W@@SAPA_WABQA_W$$QAD@Z 1008b27c f i libucrtd:setenv.obj
 0001:0008a29a       ??$tcscpy_s@AAPADABIAAPAD@?$__crt_char_traits@D@@SAHAAPADABI0@Z 1008b29a f i libucrtd:setenv.obj
 0001:0008a2b8       ??$tcscpy_s@AAPA_WABIAAPA_W@?$__crt_char_traits@_W@@SAHAAPA_WABI0@Z 1008b2b8 f i libucrtd:setenv.obj
 0001:0008a2d6       ??$tcscpy_s@ABQADABIABQAD@?$__crt_char_traits@D@@SAHABQADABI0@Z 1008b2d6 f i libucrtd:setenv.obj
 0001:0008a2f4       ??$tcscpy_s@ABQA_WABIABQA_W@?$__crt_char_traits@_W@@SAHABQA_WABI0@Z 1008b2f4 f i libucrtd:setenv.obj
 0001:0008a312       ??$tcslen@ABQAD@?$__crt_char_traits@D@@SAIABQAD@Z 1008b312 f i libucrtd:setenv.obj
 0001:0008a32a       ??$tcslen@ABQA_W@?$__crt_char_traits@_W@@SAIABQA_W@Z 1008b32a f i libucrtd:setenv.obj
 0001:0008a348       ??$tcsnicoll@ABQBDAAPADABI@?$__crt_char_traits@D@@SAHABQBDAAPADABI@Z 1008b348 f i libucrtd:setenv.obj
 0001:0008a366       ??$tcsnicoll@ABQB_WAAPA_WABI@?$__crt_char_traits@_W@@SAHABQB_WAAPA_WABI@Z 1008b366 f i libucrtd:setenv.obj
 0001:0008a384       ??$tcsnlen@PADH@?$__crt_char_traits@D@@SAI$$QAPAD$$QAH@Z 1008b384 f i libucrtd:setenv.obj
 0001:0008a39c       ??$tcsnlen@PA_WH@?$__crt_char_traits@_W@@SAI$$QAPA_W$$QAH@Z 1008b39c f i libucrtd:setenv.obj
 0001:0008a3d8       ?strchr@@YAPADQADH@Z       1008b3d8 f i libucrtd:setenv.obj
 0001:0008a3e3       ?wcschr@@YAPA_WPA_W_W@Z    1008b3e3 f i libucrtd:setenv.obj
 0001:0008a3ee       ___dcrt_set_variable_in_narrow_environment_nolock 1008b3ee f   libucrtd:setenv.obj
 0001:0008a3f9       ___dcrt_set_variable_in_wide_environment_nolock 1008b3f9 f   libucrtd:setenv.obj
 0001:0008a410       ___acrt_getheap            1008b410 f   libucrtd:heap_handle.obj
 0001:0008a450       ___acrt_initialize_heap    1008b450 f   libucrtd:heap_handle.obj
 0001:0008a480       ___acrt_uninitialize_heap  1008b480 f   libucrtd:heap_handle.obj
 0001:0008a4a0       __get_heap_handle          1008b4a0 f   libucrtd:heap_handle.obj
 0001:0008a4e0       ___acrt_execute_initializers 1008b4e0 f   libucrtd:shared_initialization.obj
 0001:0008a590       ___acrt_execute_uninitializers 1008b590 f   libucrtd:shared_initialization.obj
 0001:0008a5f0       ??$__crt_fast_decode_pointer@P6AHPAU_exception@@@Z@@YAP6AHPAU_exception@@@ZQ6AH0@Z@Z 1008b5f0 f i libucrtd:matherr.obj
 0001:0008a620       ??$__crt_fast_encode_pointer@P6AHPAU_exception@@@Z@@YAP6AHPAU_exception@@@ZQ6AH0@Z@Z 1008b620 f i libucrtd:matherr.obj
 0001:0008a650       ?initialize@?$dual_state_global@P6AHPAU_exception@@@Z@__crt_state_management@@QAEXQ6AHPAU_exception@@@Z@Z 1008b650 f i libucrtd:matherr.obj
 0001:0008a690       ?value@?$dual_state_global@P6AHPAU_exception@@@Z@__crt_state_management@@QAEAAP6AHPAU_exception@@@ZXZ 1008b690 f i libucrtd:matherr.obj
 0001:0008a6b0       ___acrt_has_user_matherr   1008b6b0 f   libucrtd:matherr.obj
 0001:0008a6f0       ___acrt_initialize_user_matherr 1008b6f0 f   libucrtd:matherr.obj
 0001:0008a710       ___acrt_invoke_user_matherr 1008b710 f   libucrtd:matherr.obj
 0001:0008a760       ___setusermatherr          1008b760 f   libucrtd:matherr.obj
 0001:0008a7a0       __free_base                1008b7a0 f   libucrtd:free_base.obj
 0001:0008a850       __expand                   1008b850 f   libucrtd:expand.obj
 0001:0008a870       __expand_base              1008b870 f   libucrtd:expand.obj
 0001:0008a9a0       ?value@?$dual_state_global@J@__crt_state_management@@QAEAAJXZ 1008b9a0 f i libucrtd:new_mode.obj
 0001:0008a9c0       __query_new_mode           1008b9c0 f   libucrtd:new_mode.obj
 0001:0008a9e0       __set_new_mode             1008b9e0 f   libucrtd:new_mode.obj
 0001:0008aa80       __CrtDefaultAllocHook      1008ba80 f   libucrtd:debug_heap_hook.obj
 0001:0008aa8c       __mbsdec                   1008ba8c f   libucrtd:mbsdec.obj
 0001:0008aaa3       __mbsdec_l                 1008baa3 f   libucrtd:mbsdec.obj
 0001:0008af90       _strncpy_s                 1008bf90 f   libucrtd:strncpy_s.obj
 0001:0008b160       ___acrt_report_runtime_error 1008c160 f   libucrtd:report_runtime_error.obj
 0001:0008b350       __query_app_type           1008c350 f   libucrtd:report_runtime_error.obj
 0001:0008b360       __set_app_type             1008c360 f   libucrtd:report_runtime_error.obj
 0001:0008b370       __iswctype_l               1008c370 f   libucrtd:iswctype.obj
 0001:0008b390       _iswctype                  1008c390 f   libucrtd:iswctype.obj
 0001:0008b400       ___iswcsym                 1008c400 f i libucrtd:_wctype.obj
 0001:0008b440       ___iswcsymf                1008c440 f i libucrtd:_wctype.obj
 0001:0008b480       __isleadbyte_l             1008c480 f i libucrtd:_wctype.obj
 0001:0008b4d0       __iswalnum_l               1008c4d0 f i libucrtd:_wctype.obj
 0001:0008b4f0       __iswalpha_l               1008c4f0 f i libucrtd:_wctype.obj
 0001:0008b510       __iswblank_l               1008c510 f i libucrtd:_wctype.obj
 0001:0008b550       __iswcntrl_l               1008c550 f i libucrtd:_wctype.obj
 0001:0008b570       __iswcsym_l                1008c570 f i libucrtd:_wctype.obj
 0001:0008b5b0       __iswcsymf_l               1008c5b0 f i libucrtd:_wctype.obj
 0001:0008b5f0       __iswdigit_l               1008c5f0 f i libucrtd:_wctype.obj
 0001:0008b610       __iswgraph_l               1008c610 f i libucrtd:_wctype.obj
 0001:0008b630       __iswlower_l               1008c630 f i libucrtd:_wctype.obj
 0001:0008b650       __iswprint_l               1008c650 f i libucrtd:_wctype.obj
 0001:0008b670       __iswpunct_l               1008c670 f i libucrtd:_wctype.obj
 0001:0008b690       __iswspace_l               1008c690 f i libucrtd:_wctype.obj
 0001:0008b6b0       __iswupper_l               1008c6b0 f i libucrtd:_wctype.obj
 0001:0008b6d0       __iswxdigit_l              1008c6d0 f i libucrtd:_wctype.obj
 0001:0008b6f0       _isleadbyte                1008c6f0 f i libucrtd:_wctype.obj
 0001:0008b710       _iswalnum                  1008c710 f i libucrtd:_wctype.obj
 0001:0008b730       _iswalpha                  1008c730 f i libucrtd:_wctype.obj
 0001:0008b750       _iswascii                  1008c750 f i libucrtd:_wctype.obj
 0001:0008b780       _iswblank                  1008c780 f i libucrtd:_wctype.obj
 0001:0008b7c0       _iswcntrl                  1008c7c0 f i libucrtd:_wctype.obj
 0001:0008b7e0       _iswdigit                  1008c7e0 f i libucrtd:_wctype.obj
 0001:0008b800       _iswgraph                  1008c800 f i libucrtd:_wctype.obj
 0001:0008b820       _iswlower                  1008c820 f i libucrtd:_wctype.obj
 0001:0008b840       _iswprint                  1008c840 f i libucrtd:_wctype.obj
 0001:0008b860       _iswpunct                  1008c860 f i libucrtd:_wctype.obj
 0001:0008b880       _iswspace                  1008c880 f i libucrtd:_wctype.obj
 0001:0008b8a0       _iswupper                  1008c8a0 f i libucrtd:_wctype.obj
 0001:0008b8c0       _iswxdigit                 1008c8c0 f i libucrtd:_wctype.obj
 0001:0008b950       ?__mbrtowc_utf8@__crt_mbstring@@YAIPA_WPBDIPAU_Mbstatet@@@Z 1008c950 f   libucrtd:mbrtowc.obj
 0001:0008b9a0       ?__mbsrtowcs_utf8@__crt_mbstring@@YAIPA_WPAPBDIPAU_Mbstatet@@@Z 1008c9a0 f   libucrtd:mbrtowc.obj
 0001:0008c210       _btowc                     1008d210 f   libucrtd:mbrtowc.obj
 0001:0008c280       _mbrlen                    1008d280 f   libucrtd:mbrtowc.obj
 0001:0008c2d0       _mbrtowc                   1008d2d0 f   libucrtd:mbrtowc.obj
 0001:0008c360       _mbsrtowcs                 1008d360 f   libucrtd:mbrtowc.obj
 0001:0008c380       _mbsrtowcs_s               1008d380 f   libucrtd:mbrtowc.obj
 0001:0008c6d0       ??$?RG@__crt_internal_free_policy@@QBEXQBG@Z 1008d6d0 f i libucrtd:initctype.obj
 0001:0008c6f0       ??$?RJ@__crt_internal_free_policy@@QBEXQBJ@Z 1008d6f0 f i libucrtd:initctype.obj
 0001:0008c710       ??0?$__crt_unique_heap_ptr@GU__crt_internal_free_policy@@@@QAE@QAG@Z 1008d710 f i libucrtd:initctype.obj
 0001:0008c730       ??0?$__crt_unique_heap_ptr@JU__crt_internal_free_policy@@@@QAE@QAJ@Z 1008d730 f i libucrtd:initctype.obj
 0001:0008c750       ??1?$__crt_unique_heap_ptr@GU__crt_internal_free_policy@@@@QAE@XZ 1008d750 f i libucrtd:initctype.obj
 0001:0008c770       ??1?$__crt_unique_heap_ptr@JU__crt_internal_free_policy@@@@QAE@XZ 1008d770 f i libucrtd:initctype.obj
 0001:0008c790       ?detach@?$__crt_unique_heap_ptr@GU__crt_internal_free_policy@@@@QAEPAGXZ 1008d790 f i libucrtd:initctype.obj
 0001:0008c7c0       ?detach@?$__crt_unique_heap_ptr@JU__crt_internal_free_policy@@@@QAEPAJXZ 1008d7c0 f i libucrtd:initctype.obj
 0001:0008c7f0       ?release@?$__crt_unique_heap_ptr@GU__crt_internal_free_policy@@@@QAEXXZ 1008d7f0 f i libucrtd:initctype.obj
 0001:0008c820       ?release@?$__crt_unique_heap_ptr@JU__crt_internal_free_policy@@@@QAEXXZ 1008d820 f i libucrtd:initctype.obj
 0001:0008c850       ____lc_codepage_func       1008d850 f   libucrtd:initctype.obj
 0001:0008c890       ____lc_collate_cp_func     1008d890 f   libucrtd:initctype.obj
 0001:0008c8d0       ____lc_locale_name_func    1008d8d0 f   libucrtd:initctype.obj
 0001:0008c910       ____mb_cur_max_func        1008d910 f   libucrtd:initctype.obj
 0001:0008c950       ____mb_cur_max_l_func      1008d950 f   libucrtd:initctype.obj
 0001:0008c980       ___acrt_locale_initialize_ctype 1008d980 f   libucrtd:initctype.obj
 0001:0008d100       ?__c32rtomb_utf8@__crt_mbstring@@YAIPAD_UPAU_Mbstatet@@@Z 1008e100 f   libucrtd:c32rtomb.obj
 0001:0008d2e0       ?reset_and_return@__crt_mbstring@@YAIIPAU_Mbstatet@@@Z 1008e2e0 f i libucrtd:c32rtomb.obj
 0001:0008d310       ?return_illegal_sequence@__crt_mbstring@@YAIPAU_Mbstatet@@@Z 1008e310 f i libucrtd:c32rtomb.obj
 0001:0008d340       _c32rtomb                  1008e340 f   libucrtd:c32rtomb.obj
 0001:0008d360       ___acrt_add_locale_ref     1008e360 f   libucrtd:locale_refcounting.obj
 0001:0008d470       ___acrt_free_locale        1008e470 f   libucrtd:locale_refcounting.obj
 0001:0008d740       ___acrt_locale_add_lc_time_reference 1008e740 f   libucrtd:locale_refcounting.obj
 0001:0008d780       ___acrt_locale_free_lc_time_if_unreferenced 1008e780 f   libucrtd:locale_refcounting.obj
 0001:0008d7d0       ___acrt_locale_release_lc_time_reference 1008e7d0 f   libucrtd:locale_refcounting.obj
 0001:0008d800       ___acrt_release_locale_ref 1008e800 f   libucrtd:locale_refcounting.obj
 0001:0008d910       ___acrt_update_thread_locale_data 1008e910 f   libucrtd:locale_refcounting.obj
 0001:0008d9e0       __updatetlocinfoEx_nolock  1008e9e0 f   libucrtd:locale_refcounting.obj
 0001:0008da60       ___acrt_fp_strflt_to_string 1008ea60 f   libucrtd:_fptostr.obj
 0001:0008e3a0       ??0big_integer@__crt_strtox@@QAE@ABU01@@Z 1008f3a0 f i libucrtd:cfout.obj
 0001:0008e3e0       ??0big_integer@__crt_strtox@@QAE@XZ 1008f3e0 f i libucrtd:cfout.obj
 0001:0008e4a0       ??4big_integer@__crt_strtox@@QAEAAU01@ABU01@@Z 1008f4a0 f i libucrtd:cfout.obj
 0001:0008e4e0       ??8__crt_strtox@@YA_NABUbig_integer@0@0@Z 1008f4e0 f i libucrtd:cfout.obj
 0001:0008e540       ??9__crt_strtox@@YA_NABUbig_integer@0@0@Z 1008f540 f i libucrtd:cfout.obj
 0001:0008e580       ?add_carry@__crt_strtox@@YAIAAIII@Z 1008f580 f i libucrtd:cfout.obj
 0001:0008e5c0       ?add_multiply_carry@__crt_strtox@@YAIAAIIII@Z 1008f5c0 f i libucrtd:cfout.obj
 0001:0008e600       ?bit_scan_reverse@__crt_strtox@@YAII@Z 1008f600 f i libucrtd:cfout.obj
 0001:0008e630       ?count_sequential_high_zeroes@__crt_strtox@@YAII@Z 1008f630 f i libucrtd:cfout.obj
 0001:0008e670       ?divide@__crt_strtox@@YA_KAAUbig_integer@1@ABU21@@Z 1008f670 f i libucrtd:cfout.obj
 0001:0008f0f0       ?is_zero@__crt_strtox@@YA_NABUbig_integer@1@@Z 100900f0 f i libucrtd:cfout.obj
 0001:0008f120       ?make_big_integer@__crt_strtox@@YA?AUbig_integer@1@_K@Z 10090120 f i libucrtd:cfout.obj
 0001:0008f1d0       ?make_big_integer_power_of_two@__crt_strtox@@YA?AUbig_integer@1@I@Z 100901d0 f i libucrtd:cfout.obj
 0001:0008f280       ?multiply@__crt_strtox@@YA_NAAUbig_integer@1@ABU21@@Z 10090280 f i libucrtd:cfout.obj
 0001:0008f600       ?multiply@__crt_strtox@@YA_NAAUbig_integer@1@I@Z 10090600 f i libucrtd:cfout.obj
 0001:0008f6d0       ?multiply_64_32@__crt_strtox@@YA_K_KI@Z 100906d0 f i libucrtd:cfout.obj
 0001:0008f6f0       ?multiply_by_power_of_ten@__crt_strtox@@YA_NAAUbig_integer@1@I@Z 100906f0 f i libucrtd:cfout.obj
 0001:0008f890       ?multiply_core@__crt_strtox@@YAIQAIII@Z 10090890 f i libucrtd:cfout.obj
 0001:0008f900       ?shift_left@__crt_strtox@@YA_NAAUbig_integer@1@I@Z 10090900 f i libucrtd:cfout.obj
 0001:0008fc50       ___acrt_fltout             10090c50 f   libucrtd:cfout.obj
 0001:00090000       __fcloseall                10091000 f   libucrtd:closeall.obj
 0001:00090130       __isatty                   10091130 f   libucrtd:isatty.obj
 0001:00090200       ??$?RUlconv@@@__crt_internal_free_policy@@QBEXQBUlconv@@@Z 10091200 f i libucrtd:initmon.obj
 0001:00090220       ??0?$__crt_unique_heap_ptr@Ulconv@@U__crt_internal_free_policy@@@@QAE@QAUlconv@@@Z 10091220 f i libucrtd:initmon.obj
 0001:00090240       ??1?$__crt_unique_heap_ptr@Ulconv@@U__crt_internal_free_policy@@@@QAE@XZ 10091240 f i libucrtd:initmon.obj
 0001:00090260       ?detach@?$__crt_unique_heap_ptr@Ulconv@@U__crt_internal_free_policy@@@@QAEPAUlconv@@XZ 10091260 f i libucrtd:initmon.obj
 0001:00090290       ?release@?$__crt_unique_heap_ptr@Ulconv@@U__crt_internal_free_policy@@@@QAEXXZ 10091290 f i libucrtd:initmon.obj
 0001:000902c0       ___acrt_locale_free_monetary 100912c0 f   libucrtd:initmon.obj
 0001:00090470       ___acrt_locale_initialize_monetary 10091470 f   libucrtd:initmon.obj
 0001:00090b10       ___acrt_locale_free_numeric 10091b10 f   libucrtd:initnum.obj
 0001:00090bc0       ___acrt_locale_initialize_numeric 10091bc0 f   libucrtd:initnum.obj
 0001:00091010       ??$?RU__crt_lc_time_data@@@__crt_internal_free_policy@@QBEXQBU__crt_lc_time_data@@@Z 10092010 f i libucrtd:inittime.obj
 0001:000910f0       ??0?$__crt_unique_heap_ptr@U__crt_lc_time_data@@U__crt_internal_free_policy@@@@QAE@QAU__crt_lc_time_data@@@Z 100920f0 f i libucrtd:inittime.obj
 0001:00091110       ??1?$__crt_unique_heap_ptr@U__crt_lc_time_data@@U__crt_internal_free_policy@@@@QAE@XZ 10092110 f i libucrtd:inittime.obj
 0001:00091130       ??B?$__crt_unique_heap_ptr@U__crt_lc_time_data@@U__crt_internal_free_policy@@@@QBE_NXZ 10092130 f i libucrtd:inittime.obj
 0001:00091150       ?detach@?$__crt_unique_heap_ptr@U__crt_lc_time_data@@U__crt_internal_free_policy@@@@QAEPAU__crt_lc_time_data@@XZ 10092150 f i libucrtd:inittime.obj
 0001:000911c0       ?get@?$__crt_unique_heap_ptr@U__crt_lc_time_data@@U__crt_internal_free_policy@@@@QBEPAU__crt_lc_time_data@@XZ 100921c0 f i libucrtd:inittime.obj
 0001:00091690       ?is_valid@?$__crt_unique_heap_ptr@U__crt_lc_time_data@@U__crt_internal_free_policy@@@@QBE_NXZ 10092690 f i libucrtd:inittime.obj
 0001:000916c0       ?release@?$__crt_unique_heap_ptr@U__crt_lc_time_data@@U__crt_internal_free_policy@@@@QAEXXZ 100926c0 f i libucrtd:inittime.obj
 0001:000916f0       ___acrt_locale_free_time   100926f0 f   libucrtd:inittime.obj
 0001:00091840       ___acrt_locale_initialize_time 10092840 f   libucrtd:inittime.obj
 0001:000918c0       ___pctype_func             100928c0 f   libucrtd:ctype.obj
 0001:00091900       ___pwctype_func            10092900 f   libucrtd:ctype.obj
 0001:00091de0       _wcsncat_s                 10092de0 f   libucrtd:wcsncat_s.obj
 0001:00091e00       _wcscmp                    10092e00 f   libucrtd:wcscmp.obj
 0001:00091e80       _wcscspn                   10092e80 f   libucrtd:wcscspn.obj
 0001:00091ef0       _wcspbrk                   10092ef0 f   libucrtd:wcspbrk.obj
 0001:00091f50       ??0?$__crt_scoped_stack_ptr@_W@@QAE@U?$__crt_scoped_stack_ptr_tag@_W@@@Z 10092f50 f i libucrtd:getstringtypea.obj
 0001:00091f70       ??0?$__crt_scoped_stack_ptr_tag@_W@@QAE@QA_W@Z 10092f70 f i libucrtd:getstringtypea.obj
 0001:00091f90       ??1?$__crt_scoped_stack_ptr@_W@@QAE@XZ 10092f90 f i libucrtd:getstringtypea.obj
 0001:00091fb0       ?get@?$__crt_scoped_stack_ptr@_W@@QBEPA_WXZ 10092fb0 f i libucrtd:getstringtypea.obj
 0001:00091fd0       __MallocaComputeSize       10092fd0 f i libucrtd:getstringtypea.obj
 0001:00092000       __MarkAllocaS              10093000 f i libucrtd:getstringtypea.obj
 0001:00092030       ___acrt_GetStringTypeA     10093030 f   libucrtd:getstringtypea.obj
 0001:000921e0       __freea_crt                100931e0 f i libucrtd:getstringtypea.obj
 0001:00092db0       ___acrt_get_qualified_locale 10093db0 f   libucrtd:get_qualified_locale.obj
 0001:00093dc0       ___acrt_get_qualified_locale_downlevel 10094dc0 f   libucrtd:getqloc_downlevel.obj
 0001:00094060       _localeconv                10095060 f   libucrtd:localeconv.obj
 0001:000940a0       ??$?RU__crt_lowio_handle_data@@@__crt_internal_free_policy@@QBEXQBU__crt_lowio_handle_data@@@Z 100950a0 f i libucrtd:osfinfo.obj
 0001:000940c0       ??0?$__crt_unique_heap_ptr@U__crt_lowio_handle_data@@U__crt_internal_free_policy@@@@QAE@QAU__crt_lowio_handle_data@@@Z 100950c0 f i libucrtd:osfinfo.obj
 0001:000940e0       ??1?$__crt_unique_heap_ptr@U__crt_lowio_handle_data@@U__crt_internal_free_policy@@@@QAE@XZ 100950e0 f i libucrtd:osfinfo.obj
 0001:00094100       ??B?$__crt_unique_heap_ptr@U__crt_lowio_handle_data@@U__crt_internal_free_policy@@@@QBE_NXZ 10095100 f i libucrtd:osfinfo.obj
 0001:00094120       ?detach@?$__crt_unique_heap_ptr@U__crt_lowio_handle_data@@U__crt_internal_free_policy@@@@QAEPAU__crt_lowio_handle_data@@XZ 10095120 f i libucrtd:osfinfo.obj
 0001:00094150       ?get@?$__crt_unique_heap_ptr@U__crt_lowio_handle_data@@U__crt_internal_free_policy@@@@QBEPAU__crt_lowio_handle_data@@XZ 10095150 f i libucrtd:osfinfo.obj
 0001:00094170       ?is_valid@?$__crt_unique_heap_ptr@U__crt_lowio_handle_data@@U__crt_internal_free_policy@@@@QBE_NXZ 10095170 f i libucrtd:osfinfo.obj
 0001:000941a0       ?release@?$__crt_unique_heap_ptr@U__crt_lowio_handle_data@@U__crt_internal_free_policy@@@@QAEXXZ 100951a0 f i libucrtd:osfinfo.obj
 0001:000941d0       ___acrt_lowio_create_handle_array 100951d0 f   libucrtd:osfinfo.obj
 0001:00094330       ___acrt_lowio_destroy_handle_array 10095330 f   libucrtd:osfinfo.obj
 0001:00094390       ___acrt_lowio_ensure_fh_exists 10095390 f   libucrtd:osfinfo.obj
 0001:000944f0       ___acrt_lowio_lock_fh      100954f0 f   libucrtd:osfinfo.obj
 0001:00094520       ___acrt_lowio_set_os_handle 10095520 f   libucrtd:osfinfo.obj
 0001:000945f0       ___acrt_lowio_unlock_fh    100955f0 f   libucrtd:osfinfo.obj
 0001:00094620       __alloc_osfhnd             10095620 f   libucrtd:osfinfo.obj
 0001:00094800       __free_osfhnd              10095800 f   libucrtd:osfinfo.obj
 0001:000948f0       __get_osfhandle            100958f0 f   libucrtd:osfinfo.obj
 0001:00094a70       __open_osfhandle           10095a70 f   libucrtd:osfinfo.obj
 0001:00095d80       __i64toa                   10096d80 f   libucrtd:xtoa.obj
 0001:00095dd0       __i64toa_s                 10096dd0 f   libucrtd:xtoa.obj
 0001:00095e20       __i64tow                   10096e20 f   libucrtd:xtoa.obj
 0001:00095e70       __i64tow_s                 10096e70 f   libucrtd:xtoa.obj
 0001:00095ec0       __itoa                     10096ec0 f   libucrtd:xtoa.obj
 0001:00095f10       __itoa_s                   10096f10 f   libucrtd:xtoa.obj
 0001:00095f60       __itow                     10096f60 f   libucrtd:xtoa.obj
 0001:00095fb0       __itow_s                   10096fb0 f   libucrtd:xtoa.obj
 0001:00096000       __ltoa                     10097000 f   libucrtd:xtoa.obj
 0001:00096050       __ltoa_s                   10097050 f   libucrtd:xtoa.obj
 0001:000960a0       __ltow                     100970a0 f   libucrtd:xtoa.obj
 0001:000960f0       __ltow_s                   100970f0 f   libucrtd:xtoa.obj
 0001:00096140       __ui64toa                  10097140 f   libucrtd:xtoa.obj
 0001:00096170       __ui64toa_s                10097170 f   libucrtd:xtoa.obj
 0001:000961a0       __ui64tow                  100971a0 f   libucrtd:xtoa.obj
 0001:000961d0       __ui64tow_s                100971d0 f   libucrtd:xtoa.obj
 0001:00096200       __ultoa                    10097200 f   libucrtd:xtoa.obj
 0001:00096230       __ultoa_s                  10097230 f   libucrtd:xtoa.obj
 0001:00096260       __ultow                    10097260 f   libucrtd:xtoa.obj
 0001:00096290       __ultow_s                  10097290 f   libucrtd:xtoa.obj
 0001:000966a0       __mbstowcs_l               100976a0 f   libucrtd:mbstowcs.obj
 0001:000966c0       __mbstowcs_s_l             100976c0 f   libucrtd:mbstowcs.obj
 0001:00096a80       _mbstowcs                  10097a80 f   libucrtd:mbstowcs.obj
 0001:00096ad0       _mbstowcs_s                10097ad0 f   libucrtd:mbstowcs.obj
 0001:000971c0       __wcstombs_l               100981c0 f   libucrtd:wcstombs.obj
 0001:000971e0       __wcstombs_s_l             100981e0 f   libucrtd:wcstombs.obj
 0001:00097550       _wcstombs                  10098550 f   libucrtd:wcstombs.obj
 0001:00097570       _wcstombs_s                10098570 f   libucrtd:wcstombs.obj
 0001:000975a0       ___acrt_OutputDebugStringA@4 100985a0 f   libucrtd:outputdebugstringa.obj
 0001:00097630       __malloc_base              10098630 f   libucrtd:malloc_base.obj
 0001:000977c0       ___acrt_DownlevelLCIDToLocaleName 100987c0 f   libucrtd:lcidtoname_downlevel.obj
 0001:00097890       ___acrt_DownlevelLocaleNameToLCID 10098890 f   libucrtd:lcidtoname_downlevel.obj
 0001:000978d0       ___ascii_wcsnicmp          100988d0 f   libucrtd:wcsnicmp.obj
 0001:00097960       __towlower_fast_internal   10098960 f i libucrtd:wcsnicmp.obj
 0001:000979a0       __towlower_internal        100989a0 f i libucrtd:wcsnicmp.obj
 0001:000979e0       __wcsnicmp                 100989e0 f   libucrtd:wcsnicmp.obj
 0001:00097b20       __wcsnicmp_l               10098b20 f   libucrtd:wcsnicmp.obj
 0001:00097d20       __strnicmp                 10098d20 f   libucrtd:strnicmp.obj
 0001:00097ee0       __strnicmp_l               10098ee0 f   libucrtd:strnicmp.obj
 0001:00098ae0       ??$tsopen_nolock@PAHABQAHABQBDABHABHABHABH@?$__crt_char_traits@D@@SAH$$QAPAHABQAHABQBDABH333@Z 10099ae0 f i libucrtd:open.obj
 0001:00098b20       ??$tsopen_nolock@PAHABQAHABQB_WABHABHABHABH@?$__crt_char_traits@_W@@SAH$$QAPAHABQAHABQB_WABH333@Z 10099b20 f i libucrtd:open.obj
 0001:00098b60       ??$tsopen_nolock@PAHPAHABQBDABHHABHH@?$__crt_char_traits@D@@SAH$$QAPAH0ABQBDABH$$QAH23@Z 10099b60 f i libucrtd:open.obj
 0001:00098ba0       ??$tsopen_nolock@PAHPAHABQB_WABHHABHH@?$__crt_char_traits@_W@@SAH$$QAPAH0ABQB_WABH$$QAH23@Z 10099ba0 f i libucrtd:open.obj
 0001:00099740       __open                     1009a740 f   libucrtd:open.obj
 0001:00099780       __sopen                    1009a780 f   libucrtd:open.obj
 0001:000997f0       __sopen_dispatch           1009a7f0 f   libucrtd:open.obj
 0001:00099820       __sopen_nolock             1009a820 f   libucrtd:open.obj
 0001:000998a0       __sopen_s                  1009a8a0 f   libucrtd:open.obj
