 OPOSRFIDScanner

 Timestamp is 5defaac9 (Tue Dec 10 23:25:13 2019)

 Preferred load address is 10000000

 Start         Length     Name                   Class
 0001:00000000 00000d90H .text$di                CODE
 0001:00000d90 000a97e0H .text$mn                CODE
 0001:000aa570 000001c0H .text$x                 CODE
 0001:000aa730 00000120H .text$yd                CODE
 0002:00000000 00000358H .idata$5                DATA
 0002:00000358 00000004H .00cfg                  DATA
 0002:0000035c 00000004H .CRT$XCA                DATA
 0002:00000360 00000004H .CRT$XCL                DATA
 0002:00000364 0000006cH .CRT$XCU                DATA
 0002:000003d0 00000004H .CRT$XCZ                DATA
 0002:000003d4 00000004H .CRT$XIA                DATA
 0002:000003d8 00000010H .CRT$XIC                DATA
 0002:000003e8 00000004H .CRT$XIZ                DATA
 0002:000003ec 00000004H .CRT$XLA                DATA
 0002:000003f0 00000004H .CRT$XLZ                DATA
 0002:000003f4 00000004H .CRT$XPA                DATA
 0002:000003f8 00000008H .CRT$XPX                DATA
 0002:00000400 00000004H .CRT$XPXA               DATA
 0002:00000404 00000004H .CRT$XPZ                DATA
 0002:00000408 00000004H .CRT$XTA                DATA
 0002:0000040c 00000004H .CRT$XTZ                DATA
 0002:00000410 00000000H .gfids$y                DATA
 0002:00000410 0002f94cH .rdata                  DATA
 0002:0002fd5c 00000018H .rdata$T                DATA
 0002:0002fd74 0000033cH .rdata$r                DATA
 0002:000300b0 00000044H .rdata$sxdata           DATA
 0002:000300f4 00000404H .rdata$zzzdbg           DATA
 0002:000304f8 00000004H .rtc$IAA                DATA
 0002:000304fc 00000018H .rtc$IMZ                DATA
 0002:00030514 00000004H .rtc$IZZ                DATA
 0002:00030518 00000004H .rtc$TAA                DATA
 0002:0003051c 00000018H .rtc$TMZ                DATA
 0002:00030534 00000004H .rtc$TZZ                DATA
 0002:00030538 00000004H .tls                    DATA
 0002:0003053c 00000004H .tls$                   DATA
 0002:00030540 00000008H .tls$ZZZ                DATA
 0002:00030548 00000e4cH .xdata$x                DATA
 0002:00031394 00000004H ATL$__a                 DATA
 0002:00031398 00000008H ATL$__z                 DATA
 0002:000313a0 000000acH .edata                  DATA
 0002:0003144c 00000078H .idata$2                DATA
 0002:000314c4 00000014H .idata$3                DATA
 0002:000314d8 00000358H .idata$4                DATA
 0002:00031830 00000d50H .idata$6                DATA
 0003:00000000 00000bb0H .data                   DATA
 0003:00000bb0 00000138H .data$r                 DATA
 0003:00000ce8 00003580H .bss                    DATA
 0004:00000000 00000220H .rsrc$01                DATA
 0004:00000220 00004640H .rsrc$02                DATA

  Address         Publics by Value              Rva+Base       Lib:Object

 0000:00000000       ___guard_iat_table         00000000     <absolute>
 0000:00000000       __except_list              00000000     <absolute>
 0000:00000000       ___hybrid_code_map         00000000     <absolute>
 0000:00000000       ___enclave_config          00000000     <absolute>
 0000:00000000       ___guard_fids_table        00000000     <absolute>
 0000:00000000       ___guard_fids_count        00000000     <absolute>
 0000:00000000       ___volatile_metadata       00000000     <absolute>
 0000:00000000       ___dynamic_value_reloc_table 00000000     <absolute>
 0000:00000000       ___guard_longjmp_table     00000000     <absolute>
 0000:00000000       ___hybrid_auxiliary_iat    00000000     <absolute>
 0000:00000000       ___guard_longjmp_count     00000000     <absolute>
 0000:00000000       ___hybrid_code_map_count   00000000     <absolute>
 0000:00000000       ___AbsoluteZero            00000000     <absolute>
 0000:00000000       ___guard_iat_count         00000000     <absolute>
 0000:00000011       ___safe_se_handler_count   00000011     <absolute>
 0000:0000002c       __tls_array                0000002c     <absolute>
 0000:00000100       ___guard_flags             00000100     <absolute>
 0000:00000000       ___ImageBase               10000000     <linker-defined>
 0001:00000d90       ?_assert@@YAXPB_W0I@Z      10001d90 f   Assert.obj
 0001:00000ec0       ___local_stdio_printf_options 10001ec0 f i Assert.obj
 0001:00000ed0       ___vswprintf_l             10001ed0 f i Assert.obj
 0001:00000f00       __swprintf                 10001f00 f i Assert.obj
 0001:00000f60       __vswprintf_c_l            10001f60 f i Assert.obj
 0001:00000fd0       __vswprintf_l              10001fd0 f i Assert.obj
 0001:00001000       ?cw_memcpy@@YGHPADPB_WH@Z  10002000 f   CWString.obj
 0001:00001060       ?cw_memcpy@@YGHPA_WPBDH@Z  10002060 f   CWString.obj
 0001:000010c0       ?cw_memcpy@@YGHPADPBDH@Z   100020c0 f   CWString.obj
 0001:00001110       ?cw_memcpy@@YGHPA_WPB_WH@Z 10002110 f   CWString.obj
 0001:00001150       ?cw_memset@@YAXPADDH@Z     10002150 f   CWString.obj
 0001:00001170       ?cw_memset@@YAXPA_W_WH@Z   10002170 f   CWString.obj
 0001:00001190       ?cw_strlen@@YAHPBD@Z       10002190 f   CWString.obj
 0001:000011e0       ?cw_strlen@@YAHPB_W@Z      100021e0 f   CWString.obj
 0001:00001230       ?cw_strcpy@@YAHPADPB_W@Z   10002230 f   CWString.obj
 0001:00001250       ?cw_strcpy@@YAHPA_WPBD@Z   10002250 f   CWString.obj
 0001:00001270       ?cw_strcpy@@YAHPADPBD@Z    10002270 f   CWString.obj
 0001:00001290       ?cw_strcpy@@YAHPA_WPB_W@Z  10002290 f   CWString.obj
 0001:000012b0       ?cw_strcat@@YAHPADPB_W@Z   100022b0 f   CWString.obj
 0001:000012e0       ?cw_strcat@@YAHPA_WPBD@Z   100022e0 f   CWString.obj
 0001:00001310       ?cw_strcat@@YAHPADPBD@Z    10002310 f   CWString.obj
 0001:00001340       ?cw_strcat@@YAHPA_WPB_W@Z  10002340 f   CWString.obj
 0001:00001370       ?cw_dup@@YGXPBDAAHAAPA_W1@Z 10002370 f   CWString.obj
 0001:00001430       ?cw_dup@@YGXPB_WAAHAAPAD1@Z 10002430 f   CWString.obj
 0001:000014e0       ?DupChar@_CW@@AAEXXZ       100024e0 f   CWString.obj
 0001:00001530       ?DupWide@_CW@@AAEXXZ       10002530 f   CWString.obj
 0001:00001580       ?GetCharsMbcs@_CW@@QAEHXZ  10002580 f   CWString.obj
 0001:000015e0       ?GetCharsWide@_CW@@QAEHXZ  100025e0 f   CWString.obj
 0001:00001640       ?SetVARIANT_BOOL@OposVariant@@QAEXF@Z 10002640 f   OposVariant.obj
 0001:000016a0       ?SetVARIANT_BOOL_Ptr@OposVariant@@QAEXPAFAAJ@Z 100026a0 f   OposVariant.obj
 0001:000016f0       ?GetLONG@OposVariant@@QAEJXZ 100026f0 f   OposVariant.obj
 0001:00001780       ?ChangeLONG@OposVariant@@QAEXPAJAAJ@Z 10002780 f   OposVariant.obj
 0001:00001840       ?SetLONG@OposVariant@@QAEXJ@Z 10002840 f   OposVariant.obj
 0001:00001880       ?SetLONG_Ptr@OposVariant@@QAEXPAJAAJ@Z 10002880 f   OposVariant.obj
 0001:000018d0       ?ChangeCURRENCY@OposVariant@@QAEXPATtagCY@@AAJ@Z 100028d0 f   OposVariant.obj
 0001:00001990       ?SetCURRENCY@OposVariant@@QAEXTtagCY@@@Z 10002990 f   OposVariant.obj
 0001:000019d0       ?SetCURRENCY_Ptr@OposVariant@@QAEXPATtagCY@@AAJ@Z 100029d0 f   OposVariant.obj
 0001:00001a20       ?ChangeBSTR@OposVariant@@QAEXPAPA_WAAJ@Z 10002a20 f   OposVariant.obj
 0001:00001ae0       ?SetBSTR@OposVariant@@QAEXPA_WAAJ@Z 10002ae0 f   OposVariant.obj
 0001:00001b30       ?SetBSTR_Copy@OposVariant@@QAEXPA_WAAJ@Z 10002b30 f   OposVariant.obj
 0001:00001bd0       ?SetBSTR_OutPtr@OposVariant@@QAE_NPAPA_WAAJ@Z 10002bd0 f   OposVariant.obj
 0001:00001c20       ?SetBSTR_InOutPtr@OposVariant@@QAE_NPAPA_WAAJ@Z 10002c20 f   OposVariant.obj
 0001:00001c70       ?SetVARIANT@OposVariant@@QAEXAAUtagVARIANT@@GAAJ@Z 10002c70 f   OposVariant.obj
 0001:00001cf0       ?SetVARIANT_Ptr@OposVariant@@QAEXAAPAUtagVARIANT@@GAAJ@Z 10002cf0 f   OposVariant.obj
 0001:00001d90       ?SetString@OposVariant@@QAEXPB_WAAJ@Z 10002d90 f   OposVariant.obj
 0001:00001e20       ?SetDispatch_Ptr@OposVariant@@QAEXPAUIDispatch@@AAJ@Z 10002e20 f   OposVariant.obj
 0001:00001e90       ??0OposDispParms@@QAE@PAVOposVariant@@H@Z 10002e90 f   OposVariant.obj
 0001:00001f60       ??1OposDispParms@@QAE@XZ   10002f60 f   OposVariant.obj
 0001:00001fb0       ??$AtlMultiply@I@ATL@@YAJPAIII@Z 10002fb0 f i OposVariant.obj
 0001:00002010       ??0?$CHeapPtr@_WVCCRTAllocator@ATL@@@ATL@@QAE@XZ 10003010 f i OposVariant.obj
 0001:00002040       ??0?$CHeapPtrBase@_WVCCRTAllocator@ATL@@@ATL@@IAE@XZ 10003040 f i OposVariant.obj
 0001:00002060       ??0?$CSimpleArray@GV?$CSimpleArrayEqualHelper@G@ATL@@@ATL@@QAE@XZ 10003060 f i OposVariant.obj
 0001:000020a0       ??0?$CTraceCategoryEx@$00$0A@@ATL@@QAE@PB_W@Z 100030a0 f i OposVariant.obj
 0001:000020d0       ??0?$CTraceCategoryEx@$01$0A@@ATL@@QAE@PB_W@Z 100030d0 f i OposVariant.obj
 0001:00002100       ??0?$CTraceCategoryEx@$03$0A@@ATL@@QAE@PB_W@Z 10003100 f i OposVariant.obj
 0001:00002130       ??0?$CTraceCategoryEx@$07$0A@@ATL@@QAE@PB_W@Z 10003130 f i OposVariant.obj
 0001:00002160       ??0?$CTraceCategoryEx@$0BA@$0A@@ATL@@QAE@PB_W@Z 10003160 f i OposVariant.obj
 0001:00002190       ??0?$CTraceCategoryEx@$0BAA@$0A@@ATL@@QAE@PB_W@Z 10003190 f i OposVariant.obj
 0001:000021d0       ??0?$CTraceCategoryEx@$0BAAA@$0A@@ATL@@QAE@PB_W@Z 100031d0 f i OposVariant.obj
 0001:00002210       ??0?$CTraceCategoryEx@$0BAAAA@$0A@@ATL@@QAE@PB_W@Z 10003210 f i OposVariant.obj
 0001:00002250       ??0?$CTraceCategoryEx@$0BAAAAA@$0A@@ATL@@QAE@PB_W@Z 10003250 f i OposVariant.obj
 0001:00002290       ??0?$CTraceCategoryEx@$0CA@$0A@@ATL@@QAE@PB_W@Z 10003290 f i OposVariant.obj
 0001:000022c0       ??0?$CTraceCategoryEx@$0CAA@$0A@@ATL@@QAE@PB_W@Z 100032c0 f i OposVariant.obj
 0001:00002300       ??0?$CTraceCategoryEx@$0CAAA@$0A@@ATL@@QAE@PB_W@Z 10003300 f i OposVariant.obj
 0001:00002340       ??0?$CTraceCategoryEx@$0CAAAA@$0A@@ATL@@QAE@PB_W@Z 10003340 f i OposVariant.obj
 0001:00002380       ??0?$CTraceCategoryEx@$0CAAAAA@$0A@@ATL@@QAE@PB_W@Z 10003380 f i OposVariant.obj
 0001:000023c0       ??0?$CTraceCategoryEx@$0EA@$0A@@ATL@@QAE@PB_W@Z 100033c0 f i OposVariant.obj
 0001:000023f0       ??0?$CTraceCategoryEx@$0EAA@$0A@@ATL@@QAE@PB_W@Z 100033f0 f i OposVariant.obj
 0001:00002430       ??0?$CTraceCategoryEx@$0EAAA@$0A@@ATL@@QAE@PB_W@Z 10003430 f i OposVariant.obj
 0001:00002470       ??0?$CTraceCategoryEx@$0EAAAA@$0A@@ATL@@QAE@PB_W@Z 10003470 f i OposVariant.obj
 0001:000024b0       ??0?$CTraceCategoryEx@$0EAAAAA@$0A@@ATL@@QAE@PB_W@Z 100034b0 f i OposVariant.obj
 0001:000024f0       ??0?$CTraceCategoryEx@$0IA@$0A@@ATL@@QAE@PB_W@Z 100034f0 f i OposVariant.obj
 0001:00002530       ??0?$CTraceCategoryEx@$0IAA@$0A@@ATL@@QAE@PB_W@Z 10003530 f i OposVariant.obj
 0001:00002570       ??0?$CTraceCategoryEx@$0IAAA@$0A@@ATL@@QAE@PB_W@Z 10003570 f i OposVariant.obj
 0001:000025b0       ??0?$CTraceCategoryEx@$0IAAAA@$0A@@ATL@@QAE@PB_W@Z 100035b0 f i OposVariant.obj
 0001:000025f0       ??0CAtlComModule@ATL@@QAE@XZ 100035f0 f i OposVariant.obj
 0001:000026d0       ??0CAtlWinModule@ATL@@QAE@XZ 100036d0 f i OposVariant.obj
 0001:00002760       ??0CComCriticalSection@ATL@@QAE@XZ 10003760 f i OposVariant.obj
 0001:00002790       ??0CPreserveLastError@ATL@@QAE@XZ 10003790 f i OposVariant.obj
 0001:000027d0       ??0CTraceFileAndLineInfo@ATL@@QAE@PBDH@Z 100037d0 f i OposVariant.obj
 0001:00002800       ??0_ATL_COM_MODULE70@ATL@@QAE@XZ 10003800 f i OposVariant.obj
 0001:00002830       ??0_ATL_WIN_MODULE70@ATL@@QAE@XZ 10003830 f i OposVariant.obj
 0001:00002870       ??1?$CHeapPtr@_WVCCRTAllocator@ATL@@@ATL@@QAE@XZ 10003870 f i OposVariant.obj
 0001:000028a0       ??1?$CHeapPtrBase@_WVCCRTAllocator@ATL@@@ATL@@QAE@XZ 100038a0 f i OposVariant.obj
 0001:000028d0       ??1?$CSimpleArray@GV?$CSimpleArrayEqualHelper@G@ATL@@@ATL@@QAE@XZ 100038d0 f i OposVariant.obj
 0001:00002900       ??1CAtlComModule@ATL@@QAE@XZ 10003900 f i OposVariant.obj
 0001:00002930       ??1CAtlWinModule@ATL@@QAE@XZ 10003930 f i OposVariant.obj
 0001:00002960       ??1CComBSTR@ATL@@QAE@XZ    10003960 f i OposVariant.obj
 0001:000029a0       ??1CComCriticalSection@ATL@@QAE@XZ 100039a0 f i OposVariant.obj
 0001:000029c0       ??1CPreserveLastError@ATL@@QAE@XZ 100039c0 f i OposVariant.obj
 0001:00002a00       ??1_ATL_COM_MODULE70@ATL@@QAE@XZ 10003a00 f i OposVariant.obj
 0001:00002a30       ??1_ATL_WIN_MODULE70@ATL@@QAE@XZ 10003a30 f i OposVariant.obj
 0001:00002a70       ??1stringdispid@CComTypeInfoHolder@ATL@@QAE@XZ 10003a70 f i OposVariant.obj
 0001:00002aa0       ??A?$CSimpleArray@GV?$CSimpleArrayEqualHelper@G@ATL@@@ATL@@QAEAAGH@Z 10003aa0 f i OposVariant.obj
 0001:00002b20       ??B?$CHeapPtrBase@_WVCCRTAllocator@ATL@@@ATL@@QBEPA_WXZ 10003b20 f i OposVariant.obj
 0001:00002b40       ??B?$CTraceCategoryEx@$01$0A@@ATL@@QAEIXZ 10003b40 f i OposVariant.obj
 0001:00002b60       ??B?$CTraceCategoryEx@$0CA@$0A@@ATL@@QAEIXZ 10003b60 f i OposVariant.obj
 0001:00002b80       ??RCTraceFileAndLineInfo@ATL@@QBAXHIPB_WZZ 10003b80 f i OposVariant.obj
 0001:00002c20       ??_Estringdispid@CComTypeInfoHolder@ATL@@QAEPAXI@Z 10003c20 f i OposVariant.obj
 0001:00002cb0       ??_H@YGXPAXIIP6EPAX0@Z@Z   10003cb0 f i OposVariant.obj
 0001:00002d20       ??_I@YGXPAXIIP6EX0@Z@Z     10003d20 f i OposVariant.obj
 0001:00002da0       ?Allocate@?$CHeapPtr@_WVCCRTAllocator@ATL@@@ATL@@QAE_NI@Z 10003da0 f i OposVariant.obj
 0001:00002e30       ?Allocate@CCRTAllocator@ATL@@SAPAXI@Z 10003e30 f i OposVariant.obj
 0001:00002e50       ?AllocateBytes@?$CHeapPtrBase@_WVCCRTAllocator@ATL@@@ATL@@QAE_NI@Z 10003e50 f i OposVariant.obj
 0001:00002ec0       ?AtlWinModuleInit@ATL@@YGJPAU_ATL_WIN_MODULE70@1@@Z 10003ec0 f i OposVariant.obj
 0001:00002f90       ?AtlWinModuleTerm@ATL@@YGJPAU_ATL_WIN_MODULE70@1@PAUHINSTANCE__@@@Z 10003f90 f i OposVariant.obj
 0001:00003050       ?Clear@OposVariant@@QAEJXZ 10004050 f i OposVariant.obj
 0001:00003090       ?Free@?$CHeapPtrBase@_WVCCRTAllocator@ATL@@@ATL@@QAEXXZ 10004090 f i OposVariant.obj
 0001:000030d0       ?Free@CCRTAllocator@ATL@@SAXPAX@Z 100040d0 f i OposVariant.obj
 0001:000030f0       ?GetCategoryName@CTrace@ATL@@CAPA_WI@Z 100040f0 f i OposVariant.obj
 0001:00003140       ?GetModuleInstance@CAtlBaseModule@ATL@@QAEPAUHINSTANCE__@@XZ 10004140 f i OposVariant.obj
 0001:00003160       ?GetSize@?$CSimpleArray@GV?$CSimpleArrayEqualHelper@G@ATL@@@ATL@@QBEHXZ 10004160 f i OposVariant.obj
 0001:00003180       ?Init@CComCriticalSection@ATL@@QAEJXZ 10004180 f i OposVariant.obj
 0001:000031e0       ?RegisterCategory@CTrace@ATL@@SAXPB_WI@Z 100041e0 f i OposVariant.obj
 0001:00003270       ?RemoveAll@?$CSimpleArray@GV?$CSimpleArrayEqualHelper@G@ATL@@@ATL@@QAEXXZ 10004270 f i OposVariant.obj
 0001:000032f0       ?Term@CAtlComModule@ATL@@QAEXXZ 100042f0 f i OposVariant.obj
 0001:000033b0       ?Term@CAtlWinModule@ATL@@QAEXXZ 100043b0 f i OposVariant.obj
 0001:000033e0       ?Term@CComCriticalSection@ATL@@QAEJXZ 100043e0 f i OposVariant.obj
 0001:00003420       ?TraceV@CTrace@ATL@@CAXPBDHIIPB_W@Z 10004420 f i OposVariant.obj
 0001:000036a0       ?TraceV@CTrace@ATL@@SAXPBDHIIPB_WPAD@Z 100046a0 f i OposVariant.obj
 0001:000037e0       ?_AtlInitializeCriticalSectionEx@ATL@@YAHPAU_RTL_CRITICAL_SECTION@@KK@Z 100047e0 f i OposVariant.obj
 0001:00003810       ?_AtlRaiseException@ATL@@YAXKK@Z 10004810 f i OposVariant.obj
 0001:00003840       _HRESULT_FROM_WIN32        10004840 f i OposVariant.obj
 0001:00003880       __vswprintf_s_l            10004880 f i OposVariant.obj
 0001:000038f0       _swprintf_s                100048f0 f i OposVariant.obj
 0001:00003950       ?ObjectMain@CComObjectRootBase@ATL@@SGX_N@Z 10004950 f i RFIDScanner.obj
 0001:00003960       ?GetCategoryMap@CComObjectRootBase@ATL@@SAPBU_ATL_CATMAP_ENTRY@2@XZ 10004960 f i RFIDScanner.obj
 0001:00003970       ?GetObjectDescription@?$CComCoClass@VCOPOSRFIDScanner@@$1?CLSID_OPOSRFIDScanner@@3U_GUID@@B@ATL@@SGPB_WXZ 10004970 f i RFIDScanner.obj
 0001:00003980       ?UpdateRegistry@COPOSRFIDScanner@@SGJH@Z 10004980 f i RFIDScanner.obj
 0001:000039a0       ?CreateInstance@?$CComCreator@V?$CComObjectCached@VCComClassFactory@ATL@@@ATL@@@ATL@@SGJPAXABU_GUID@@PAPAX@Z 100049a0 f i RFIDScanner.obj
 0001:00003b20       ?CreateInstance@?$CComCreator2@V?$CComCreator@V?$CComObject@VCOPOSRFIDScanner@@@ATL@@@ATL@@V?$CComCreator@V?$CComAggObject@VCOPOSRFIDScanner@@@ATL@@@2@@ATL@@SGJPAXABU_GUID@@PAPAX@Z 10004b20 f i RFIDScanner.obj
 0001:00003cd0       _DllGetClassObject@12      10004cd0 f   RFIDScanner.obj
 0001:00003d00       _DllCanUnloadNow@0         10004d00 f   RFIDScanner.obj
 0001:00003d40       _DllRegisterServer@0       10004d40 f   RFIDScanner.obj
 0001:00003d60       _DllUnregisterServer@0     10004d60 f   RFIDScanner.obj
 0001:00003ef0       _DllMain@12                10004ef0 f   RFIDScanner.obj
 0001:00003f50       ??$?2G@Wrapper@?$CSimpleArray@GV?$CSimpleArrayEqualHelper@G@ATL@@@ATL@@SAPAXIPAG@Z 10004f50 f i RFIDScanner.obj
 0001:00003f60       ??$?2PA_W@?$Wrapper@PA_W@?$CSimpleMap@PA_WPA_WVCExpansionVectorEqualHelper@ATL@@@ATL@@SAPAXIPAPA_W@Z 10004f60 f i RFIDScanner.obj
 0001:00003f70       ??$?4UITypeInfo2@@@?$CComPtr@UITypeInfo@@@ATL@@QAEPAUITypeInfo@@ABV?$CComPtr@UITypeInfo2@@@1@@Z 10004f70 f i RFIDScanner.obj
 0001:00003fd0       ??$AtlAdd@K@ATL@@YAJPAKKK@Z 10004fd0 f i RFIDScanner.obj
 0001:00004010       ??$AtlAdd@_K@ATL@@YAJPA_K_K1@Z 10005010 f i RFIDScanner.obj
 0001:00004080       ??$AtlAddThrow@K@ATL@@YAKKK@Z 10005080 f i RFIDScanner.obj
 0001:00004100       ??$AtlModuleRegisterWndClassInfoT@VAtlModuleRegisterWndClassInfoParamW@ATL@@@ATL@@YAGPAU_ATL_BASE_MODULE70@0@PAU_ATL_WIN_MODULE70@0@PAU_ATL_WNDCLASSINFOW@0@PAP6GJPAUHWND__@@IIJ@ZVAtlModuleRegisterWndClassInfoParamW@0@@Z 10005100 f i RFIDScanner.obj
 0001:00004510       ??$AtlMultiply@H@ATL@@YAJPAHHH@Z 10005510 f i RFIDScanner.obj
 0001:00004590       ??$AtlMultiply@K@ATL@@YAJPAKKK@Z 10005590 f i RFIDScanner.obj
 0001:000045f0       ??$AtlMultiplyThrow@I@ATL@@YAIII@Z 100055f0 f i RFIDScanner.obj
 0001:00004670       ??$QueryInterface@UIPersistStream@@@IUnknown@@QAGJPAPAUIPersistStream@@@Z 10005670 f i RFIDScanner.obj
 0001:000046a0       ??$QueryInterface@UITypeInfo2@@@IUnknown@@QAGJPAPAUITypeInfo2@@@Z 100056a0 f i RFIDScanner.obj
 0001:000046d0       ??0?$CAtlModuleT@VCComModule@ATL@@@ATL@@QAE@XZ 100056d0 f i RFIDScanner.obj
 0001:00004700       ??0?$CAtlSafeAllocBufferManager@VCCRTAllocator@ATL@@@_ATL_SAFE_ALLOCA_IMPL@ATL@@QAE@XZ 10005700 f i RFIDScanner.obj
 0001:00004720       ??0?$CAutoVectorPtr@_W@ATL@@QAE@XZ 10005720 f i RFIDScanner.obj
 0001:00004740       ??0?$CComAggObject@VCOPOSRFIDScanner@@@ATL@@QAE@PAX@Z 10005740 f i RFIDScanner.obj
 0001:000047b0       ??0?$CComContainedObject@VCOPOSRFIDScanner@@@ATL@@QAE@PAX@Z 100057b0 f i RFIDScanner.obj
 0001:000048c0       ??0?$CComCritSecLock@VCComCriticalSection@ATL@@@ATL@@QAE@AAVCComCriticalSection@1@_N@Z 100058c0 f i RFIDScanner.obj
 0001:00004920       ??0?$CComEnum@UIEnumConnectionPoints@@$1?_GUID_b196b285_bab4_101a_b69c_00aa00341d07@@3U__s_GUID@@BPAUIConnectionPoint@@V?$_CopyInterface@UIConnectionPoint@@@ATL@@VCComSingleThreadModel@6@@ATL@@QAE@XZ 10005920 f i RFIDScanner.obj
 0001:00004960       ??0?$CComEnum@UIEnumConnections@@$1?_GUID_b196b287_bab4_101a_b69c_00aa00341d07@@3U__s_GUID@@BUtagCONNECTDATA@@V?$_Copy@UtagCONNECTDATA@@@ATL@@VCComSingleThreadModel@6@@ATL@@QAE@XZ 10005960 f i RFIDScanner.obj
 0001:000049a0       ??0?$CComEnumImpl@UIEnumConnectionPoints@@$1?_GUID_b196b285_bab4_101a_b69c_00aa00341d07@@3U__s_GUID@@BPAUIConnectionPoint@@V?$_CopyInterface@UIConnectionPoint@@@ATL@@@ATL@@QAE@XZ 100059a0 f i RFIDScanner.obj
 0001:00004a00       ??0?$CComEnumImpl@UIEnumConnections@@$1?_GUID_b196b287_bab4_101a_b69c_00aa00341d07@@3U__s_GUID@@BUtagCONNECTDATA@@V?$_Copy@UtagCONNECTDATA@@@ATL@@@ATL@@QAE@XZ 10005a00 f i RFIDScanner.obj
 0001:00004a60       ??0?$CComObject@V?$CComEnum@UIEnumConnectionPoints@@$1?_GUID_b196b285_bab4_101a_b69c_00aa00341d07@@3U__s_GUID@@BPAUIConnectionPoint@@V?$_CopyInterface@UIConnectionPoint@@@ATL@@VCComSingleThreadModel@6@@ATL@@@ATL@@QAE@PAX@Z 10005a60 f i RFIDScanner.obj
 0001:00004ab0       ??0?$CComObject@V?$CComEnum@UIEnumConnections@@$1?_GUID_b196b287_bab4_101a_b69c_00aa00341d07@@3U__s_GUID@@BUtagCONNECTDATA@@V?$_Copy@UtagCONNECTDATA@@@ATL@@VCComSingleThreadModel@6@@ATL@@@ATL@@QAE@PAX@Z 10005ab0 f i RFIDScanner.obj
 0001:00004b00       ??0?$CComObject@VCOPOSRFIDScanner@@@ATL@@QAE@PAX@Z 10005b00 f i RFIDScanner.obj
 0001:00004c20       ??0?$CComObjectCached@VCComClassFactory@ATL@@@ATL@@QAE@PAX@Z 10005c20 f i RFIDScanner.obj
 0001:00004c60       ??0?$CComObjectRootEx@VCComMultiThreadModel@ATL@@@ATL@@QAE@XZ 10005c60 f i RFIDScanner.obj
 0001:00004ca0       ??0?$CComObjectRootEx@VCComSingleThreadModel@ATL@@@ATL@@QAE@XZ 10005ca0 f i RFIDScanner.obj
 0001:00004cd0       ??0?$CComPtr@UIAdviseSink@@@ATL@@QAE@PAUIAdviseSink@@@Z 10005cd0 f i RFIDScanner.obj
 0001:00004d00       ??0?$CComPtr@UICatRegister@@@ATL@@QAE@XZ 10005d00 f i RFIDScanner.obj
 0001:00004d30       ??0?$CComPtr@UIConnectionPoint@@@ATL@@QAE@XZ 10005d30 f i RFIDScanner.obj
 0001:00004d60       ??0?$CComPtr@UIConnectionPointContainer@@@ATL@@QAE@XZ 10005d60 f i RFIDScanner.obj
 0001:00004d90       ??0?$CComPtr@UIDataObject@@@ATL@@QAE@XZ 10005d90 f i RFIDScanner.obj
 0001:00004dc0       ??0?$CComPtr@UIDispatch@@@ATL@@QAE@XZ 10005dc0 f i RFIDScanner.obj
 0001:00004df0       ??0?$CComPtr@UIOleClientSite@@@ATL@@QAE@PAUIOleClientSite@@@Z 10005df0 f i RFIDScanner.obj
 0001:00004e20       ??0?$CComPtr@UIOleControlSite@@@ATL@@QAE@XZ 10005e20 f i RFIDScanner.obj
 0001:00004e50       ??0?$CComPtr@UIOleInPlaceActiveObject@@@ATL@@QAE@XZ 10005e50 f i RFIDScanner.obj
 0001:00004e80       ??0?$CComPtr@UIOleInPlaceFrame@@@ATL@@QAE@XZ 10005e80 f i RFIDScanner.obj
 0001:00004eb0       ??0?$CComPtr@UIOleInPlaceObject@@@ATL@@QAE@XZ 10005eb0 f i RFIDScanner.obj
 0001:00004ee0       ??0?$CComPtr@UIOleInPlaceUIWindow@@@ATL@@QAE@XZ 10005ee0 f i RFIDScanner.obj
 0001:00004f10       ??0?$CComPtr@UIOleObject@@@ATL@@QAE@XZ 10005f10 f i RFIDScanner.obj
 0001:00004f40       ??0?$CComPtr@UIPersistStream@@@ATL@@QAE@XZ 10005f40 f i RFIDScanner.obj
 0001:00004f70       ??0?$CComPtr@UIPersistStreamInit@@@ATL@@QAE@XZ 10005f70 f i RFIDScanner.obj
 0001:00004fa0       ??0?$CComPtr@UIPointerInactive@@@ATL@@QAE@XZ 10005fa0 f i RFIDScanner.obj
 0001:00004fd0       ??0?$CComPtr@UIProvideClassInfo2@@@ATL@@QAE@XZ 10005fd0 f i RFIDScanner.obj
 0001:00005000       ??0?$CComPtr@UISpecifyPropertyPages@@@ATL@@QAE@XZ 10006000 f i RFIDScanner.obj
 0001:00005030       ??0?$CComPtr@UIStream@@@ATL@@QAE@XZ 10006030 f i RFIDScanner.obj
 0001:00005060       ??0?$CComPtr@UITypeInfo2@@@ATL@@QAE@XZ 10006060 f i RFIDScanner.obj
 0001:00005090       ??0?$CComPtr@UITypeInfo@@@ATL@@QAE@ABV01@@Z 10006090 f i RFIDScanner.obj
 0001:000050c0       ??0?$CComPtr@UITypeInfo@@@ATL@@QAE@XZ 100060c0 f i RFIDScanner.obj
 0001:000050f0       ??0?$CComPtr@UITypeLib@@@ATL@@QAE@XZ 100060f0 f i RFIDScanner.obj
 0001:00005120       ??0?$CComPtr@UIUnknown@@@ATL@@QAE@ABV01@@Z 10006120 f i RFIDScanner.obj
 0001:00005150       ??0?$CComPtr@UIUnknown@@@ATL@@QAE@PAUIUnknown@@@Z 10006150 f i RFIDScanner.obj
 0001:00005180       ??0?$CComPtr@UIUnknown@@@ATL@@QAE@XZ 10006180 f i RFIDScanner.obj
 0001:000051b0       ??0?$CComPtr@UIViewObjectEx@@@ATL@@QAE@XZ 100061b0 f i RFIDScanner.obj
 0001:000051e0       ??0?$CComPtrBase@UIAdviseSink@@@ATL@@IAE@PAUIAdviseSink@@@Z 100061e0 f i RFIDScanner.obj
 0001:00005230       ??0?$CComPtrBase@UICatRegister@@@ATL@@IAE@XZ 10006230 f i RFIDScanner.obj
 0001:00005250       ??0?$CComPtrBase@UIConnectionPoint@@@ATL@@IAE@XZ 10006250 f i RFIDScanner.obj
 0001:00005270       ??0?$CComPtrBase@UIConnectionPointContainer@@@ATL@@IAE@XZ 10006270 f i RFIDScanner.obj
 0001:00005290       ??0?$CComPtrBase@UIDataObject@@@ATL@@IAE@XZ 10006290 f i RFIDScanner.obj
 0001:000052b0       ??0?$CComPtrBase@UIDispatch@@@ATL@@IAE@XZ 100062b0 f i RFIDScanner.obj
 0001:000052d0       ??0?$CComPtrBase@UIOleClientSite@@@ATL@@IAE@PAUIOleClientSite@@@Z 100062d0 f i RFIDScanner.obj
 0001:00005320       ??0?$CComPtrBase@UIOleControlSite@@@ATL@@IAE@XZ 10006320 f i RFIDScanner.obj
 0001:00005340       ??0?$CComPtrBase@UIOleInPlaceActiveObject@@@ATL@@IAE@XZ 10006340 f i RFIDScanner.obj
 0001:00005360       ??0?$CComPtrBase@UIOleInPlaceFrame@@@ATL@@IAE@XZ 10006360 f i RFIDScanner.obj
 0001:00005380       ??0?$CComPtrBase@UIOleInPlaceObject@@@ATL@@IAE@XZ 10006380 f i RFIDScanner.obj
 0001:000053a0       ??0?$CComPtrBase@UIOleInPlaceUIWindow@@@ATL@@IAE@XZ 100063a0 f i RFIDScanner.obj
 0001:000053c0       ??0?$CComPtrBase@UIOleObject@@@ATL@@IAE@XZ 100063c0 f i RFIDScanner.obj
 0001:000053e0       ??0?$CComPtrBase@UIPersistStream@@@ATL@@IAE@XZ 100063e0 f i RFIDScanner.obj
 0001:00005400       ??0?$CComPtrBase@UIPersistStreamInit@@@ATL@@IAE@XZ 10006400 f i RFIDScanner.obj
 0001:00005420       ??0?$CComPtrBase@UIPointerInactive@@@ATL@@IAE@XZ 10006420 f i RFIDScanner.obj
 0001:00005440       ??0?$CComPtrBase@UIProvideClassInfo2@@@ATL@@IAE@XZ 10006440 f i RFIDScanner.obj
 0001:00005460       ??0?$CComPtrBase@UISpecifyPropertyPages@@@ATL@@IAE@XZ 10006460 f i RFIDScanner.obj
 0001:00005480       ??0?$CComPtrBase@UIStream@@@ATL@@IAE@XZ 10006480 f i RFIDScanner.obj
 0001:000054a0       ??0?$CComPtrBase@UITypeInfo2@@@ATL@@IAE@XZ 100064a0 f i RFIDScanner.obj
 0001:000054c0       ??0?$CComPtrBase@UITypeInfo@@@ATL@@IAE@PAUITypeInfo@@@Z 100064c0 f i RFIDScanner.obj
 0001:00005510       ??0?$CComPtrBase@UITypeInfo@@@ATL@@IAE@XZ 10006510 f i RFIDScanner.obj
 0001:00005530       ??0?$CComPtrBase@UITypeLib@@@ATL@@IAE@XZ 10006530 f i RFIDScanner.obj
 0001:00005550       ??0?$CComPtrBase@UIUnknown@@@ATL@@IAE@PAUIUnknown@@@Z 10006550 f i RFIDScanner.obj
 0001:000055a0       ??0?$CComPtrBase@UIUnknown@@@ATL@@IAE@XZ 100065a0 f i RFIDScanner.obj
 0001:000055c0       ??0?$CComPtrBase@UIViewObjectEx@@@ATL@@IAE@XZ 100065c0 f i RFIDScanner.obj
 0001:000055e0       ??0?$CComQIPtr@UIOleControlSite@@$1?_GUID_b196b289_bab4_101a_b69c_00aa00341d07@@3U__s_GUID@@B@ATL@@QAE@PAUIUnknown@@@Z 100065e0 f i RFIDScanner.obj
 0001:00005640       ??0?$CComQIPtr@UIOleObject@@$1?_GUID_00000112_0000_0000_c000_000000000046@@3U__s_GUID@@B@ATL@@QAE@XZ 10006640 f i RFIDScanner.obj
 0001:00005670       ??0?$CComQIPtr@UISpecifyPropertyPages@@$1?_GUID_b196b28b_bab4_101a_b69c_00aa00341d07@@3U__s_GUID@@B@ATL@@QAE@XZ 10006670 f i RFIDScanner.obj
 0001:000056a0       ??0?$CSimpleMap@PA_WPA_WVCExpansionVectorEqualHelper@ATL@@@ATL@@QAE@XZ 100066a0 f i RFIDScanner.obj
 0001:000056e0       ??0?$CTempBuffer@E$0BAA@VCCRTAllocator@ATL@@@ATL@@QAE@XZ 100066e0 f i RFIDScanner.obj
 0001:00005700       ??0?$CTempBuffer@_W$0BAA@VCCRTAllocator@ATL@@@ATL@@QAE@XZ 10006700 f i RFIDScanner.obj
 0001:00005720       ??0?$CTempBuffer@_W$0EAA@VCCRTAllocator@ATL@@@ATL@@QAE@XZ 10006720 f i RFIDScanner.obj
 0001:00005740       ??0?$Wrapper@PA_W@?$CSimpleMap@PA_WPA_WVCExpansionVectorEqualHelper@ATL@@@ATL@@QAE@ABQA_W@Z 10006740 f i RFIDScanner.obj
 0001:00005770       ??0CAtlModule@ATL@@QAE@XZ  10006770 f i RFIDScanner.obj
 0001:00005890       ??0CComAutoDeleteCriticalSection@ATL@@QAE@XZ 10006890 f i RFIDScanner.obj
 0001:000058c0       ??0CComBSTR@ATL@@QAE@XZ    100068c0 f i RFIDScanner.obj
 0001:000058e0       ??0CComClassFactory@ATL@@QAE@XZ 100068e0 f i RFIDScanner.obj
 0001:00005920       ??0CComModule@ATL@@QAE@XZ  10006920 f i RFIDScanner.obj
 0001:00005990       ??0CComObjectRootBase@ATL@@QAE@XZ 10006990 f i RFIDScanner.obj
 0001:000059b0       ??0CComSafeDeleteCriticalSection@ATL@@QAE@XZ 100069b0 f i RFIDScanner.obj
 0001:000059e0       ??0CComVariant@ATL@@QAE@XZ 100069e0 f i RFIDScanner.obj
 0001:00005a30       ??0CExpansionVector@ATL@@QAE@XZ 10006a30 f i RFIDScanner.obj
 0001:00005a60       ??0CParseBuffer@CRegParser@ATL@@QAE@H@Z 10006a60 f i RFIDScanner.obj
 0001:00005ad0       ??0CRegKey@ATL@@QAE@PAUHKEY__@@@Z 10006ad0 f i RFIDScanner.obj
 0001:00005b10       ??0CRegKey@ATL@@QAE@PAVCAtlTransactionManager@1@@Z 10006b10 f i RFIDScanner.obj
 0001:00005b50       ??0CRegObject@ATL@@QAE@XZ  10006b50 f i RFIDScanner.obj
 0001:00005b90       ??0CRegParser@ATL@@QAE@PAVCRegObject@1@@Z 10006b90 f i RFIDScanner.obj
 0001:00005bc0       ??0IClassFactory@@QAE@XZ   10006bc0 f i RFIDScanner.obj
 0001:00005bf0       ??0IEnumConnectionPoints@@QAE@XZ 10006bf0 f i RFIDScanner.obj
 0001:00005c20       ??0IEnumConnections@@QAE@XZ 10006c20 f i RFIDScanner.obj
 0001:00005c50       ??0IRegistrarBase@@QAE@XZ  10006c50 f i RFIDScanner.obj
 0001:00005c80       ??0IUnknown@@QAE@XZ        10006c80 f i RFIDScanner.obj
 0001:00005ca0       ??0ModuleLockHelper@ATL@@QAE@XZ 10006ca0 f i RFIDScanner.obj
 0001:00005ce0       ??0OposVariant@@QAE@XZ     10006ce0 f i RFIDScanner.obj
 0001:00005d10       ??0Wrapper@?$CSimpleArray@GV?$CSimpleArrayEqualHelper@G@ATL@@@ATL@@QAE@ABG@Z 10006d10 f i RFIDScanner.obj
 0001:00005d40       ??0_ATL_MODULE70@ATL@@QAE@XZ 10006d40 f i RFIDScanner.obj
 0001:00005d70       ??0_ATL_MSG@ATL@@QAE@PAUHWND__@@IIJH@Z 10006d70 f i RFIDScanner.obj
 0001:00005de0       ??0_U_MENUorID@ATL@@QAE@I@Z 10006de0 f i RFIDScanner.obj
 0001:00005e00       ??0_U_RECT@ATL@@QAE@AAUtagRECT@@@Z 10006e00 f i RFIDScanner.obj
 0001:00005e20       ??0stringdispid@CComTypeInfoHolder@ATL@@QAE@XZ 10006e20 f i RFIDScanner.obj
 0001:00005e60       ??1?$CAtlModuleT@VCComModule@ATL@@@ATL@@UAE@XZ 10006e60 f i RFIDScanner.obj
 0001:00005e90       ??1?$CAtlSafeAllocBufferManager@VCCRTAllocator@ATL@@@_ATL_SAFE_ALLOCA_IMPL@ATL@@QAE@XZ 10006e90 f i RFIDScanner.obj
 0001:00005ee0       ??1?$CAutoVectorPtr@_W@ATL@@QAE@XZ 10006ee0 f i RFIDScanner.obj
 0001:00005f10       ??1?$CComAggObject@VCOPOSRFIDScanner@@@ATL@@UAE@XZ 10006f10 f i RFIDScanner.obj
 0001:00005f80       ??1?$CComContainedObject@VCOPOSRFIDScanner@@@ATL@@UAE@XZ 10006f80 f i RFIDScanner.obj
 0001:00005fb0       ??1?$CComCritSecLock@VCComCriticalSection@ATL@@@ATL@@QAE@XZ 10006fb0 f i RFIDScanner.obj
 0001:00005fe0       ??1?$CComEnum@UIEnumConnectionPoints@@$1?_GUID_b196b285_bab4_101a_b69c_00aa00341d07@@3U__s_GUID@@BPAUIConnectionPoint@@V?$_CopyInterface@UIConnectionPoint@@@ATL@@VCComSingleThreadModel@6@@ATL@@UAE@XZ 10006fe0 f i RFIDScanner.obj
 0001:00006010       ??1?$CComEnum@UIEnumConnections@@$1?_GUID_b196b287_bab4_101a_b69c_00aa00341d07@@3U__s_GUID@@BUtagCONNECTDATA@@V?$_Copy@UtagCONNECTDATA@@@ATL@@VCComSingleThreadModel@6@@ATL@@UAE@XZ 10007010 f i RFIDScanner.obj
 0001:00006040       ??1?$CComEnumImpl@UIEnumConnectionPoints@@$1?_GUID_b196b285_bab4_101a_b69c_00aa00341d07@@3U__s_GUID@@BPAUIConnectionPoint@@V?$_CopyInterface@UIConnectionPoint@@@ATL@@@ATL@@UAE@XZ 10007040 f i RFIDScanner.obj
 0001:000060d0       ??1?$CComEnumImpl@UIEnumConnections@@$1?_GUID_b196b287_bab4_101a_b69c_00aa00341d07@@3U__s_GUID@@BUtagCONNECTDATA@@V?$_Copy@UtagCONNECTDATA@@@ATL@@@ATL@@UAE@XZ 100070d0 f i RFIDScanner.obj
 0001:00006160       ??1?$CComObject@V?$CComEnum@UIEnumConnectionPoints@@$1?_GUID_b196b285_bab4_101a_b69c_00aa00341d07@@3U__s_GUID@@BPAUIConnectionPoint@@V?$_CopyInterface@UIConnectionPoint@@@ATL@@VCComSingleThreadModel@6@@ATL@@@ATL@@UAE@XZ 10007160 f i RFIDScanner.obj
 0001:000061c0       ??1?$CComObject@V?$CComEnum@UIEnumConnections@@$1?_GUID_b196b287_bab4_101a_b69c_00aa00341d07@@3U__s_GUID@@BUtagCONNECTDATA@@V?$_Copy@UtagCONNECTDATA@@@ATL@@VCComSingleThreadModel@6@@ATL@@@ATL@@UAE@XZ 100071c0 f i RFIDScanner.obj
 0001:00006220       ??1?$CComObject@VCOPOSRFIDScanner@@@ATL@@UAE@XZ 10007220 f i RFIDScanner.obj
 0001:00006360       ??1?$CComObjectCached@VCComClassFactory@ATL@@@ATL@@UAE@XZ 10007360 f i RFIDScanner.obj
 0001:000063b0       ??1?$CComObjectRootEx@VCComMultiThreadModel@ATL@@@ATL@@QAE@XZ 100073b0 f i RFIDScanner.obj
 0001:000063e0       ??1?$CComObjectRootEx@VCComSingleThreadModel@ATL@@@ATL@@QAE@XZ 100073e0 f i RFIDScanner.obj
 0001:00006410       ??1?$CComPtr@UIAdviseSink@@@ATL@@QAE@XZ 10007410 f i RFIDScanner.obj
 0001:00006440       ??1?$CComPtr@UICatRegister@@@ATL@@QAE@XZ 10007440 f i RFIDScanner.obj
 0001:00006470       ??1?$CComPtr@UIConnectionPoint@@@ATL@@QAE@XZ 10007470 f i RFIDScanner.obj
 0001:000064a0       ??1?$CComPtr@UIConnectionPointContainer@@@ATL@@QAE@XZ 100074a0 f i RFIDScanner.obj
 0001:000064d0       ??1?$CComPtr@UIDataObject@@@ATL@@QAE@XZ 100074d0 f i RFIDScanner.obj
 0001:00006500       ??1?$CComPtr@UIDispatch@@@ATL@@QAE@XZ 10007500 f i RFIDScanner.obj
 0001:00006530       ??1?$CComPtr@UIOleClientSite@@@ATL@@QAE@XZ 10007530 f i RFIDScanner.obj
 0001:00006560       ??1?$CComPtr@UIOleControlSite@@@ATL@@QAE@XZ 10007560 f i RFIDScanner.obj
 0001:00006590       ??1?$CComPtr@UIOleInPlaceActiveObject@@@ATL@@QAE@XZ 10007590 f i RFIDScanner.obj
 0001:000065c0       ??1?$CComPtr@UIOleInPlaceFrame@@@ATL@@QAE@XZ 100075c0 f i RFIDScanner.obj
 0001:000065f0       ??1?$CComPtr@UIOleInPlaceObject@@@ATL@@QAE@XZ 100075f0 f i RFIDScanner.obj
 0001:00006620       ??1?$CComPtr@UIOleInPlaceUIWindow@@@ATL@@QAE@XZ 10007620 f i RFIDScanner.obj
 0001:00006650       ??1?$CComPtr@UIOleObject@@@ATL@@QAE@XZ 10007650 f i RFIDScanner.obj
 0001:00006680       ??1?$CComPtr@UIPersistStream@@@ATL@@QAE@XZ 10007680 f i RFIDScanner.obj
 0001:000066b0       ??1?$CComPtr@UIPersistStreamInit@@@ATL@@QAE@XZ 100076b0 f i RFIDScanner.obj
 0001:000066e0       ??1?$CComPtr@UIPointerInactive@@@ATL@@QAE@XZ 100076e0 f i RFIDScanner.obj
 0001:00006710       ??1?$CComPtr@UIProvideClassInfo2@@@ATL@@QAE@XZ 10007710 f i RFIDScanner.obj
 0001:00006740       ??1?$CComPtr@UISpecifyPropertyPages@@@ATL@@QAE@XZ 10007740 f i RFIDScanner.obj
 0001:00006770       ??1?$CComPtr@UIStream@@@ATL@@QAE@XZ 10007770 f i RFIDScanner.obj
 0001:000067a0       ??1?$CComPtr@UITypeInfo2@@@ATL@@QAE@XZ 100077a0 f i RFIDScanner.obj
 0001:000067d0       ??1?$CComPtr@UITypeInfo@@@ATL@@QAE@XZ 100077d0 f i RFIDScanner.obj
 0001:00006800       ??1?$CComPtr@UITypeLib@@@ATL@@QAE@XZ 10007800 f i RFIDScanner.obj
 0001:00006830       ??1?$CComPtr@UIUnknown@@@ATL@@QAE@XZ 10007830 f i RFIDScanner.obj
 0001:00006860       ??1?$CComPtr@UIViewObjectEx@@@ATL@@QAE@XZ 10007860 f i RFIDScanner.obj
 0001:00006890       ??1?$CComPtrBase@UIAdviseSink@@@ATL@@QAE@XZ 10007890 f i RFIDScanner.obj
 0001:000068e0       ??1?$CComPtrBase@UICatRegister@@@ATL@@QAE@XZ 100078e0 f i RFIDScanner.obj
 0001:00006930       ??1?$CComPtrBase@UIConnectionPoint@@@ATL@@QAE@XZ 10007930 f i RFIDScanner.obj
 0001:00006980       ??1?$CComPtrBase@UIConnectionPointContainer@@@ATL@@QAE@XZ 10007980 f i RFIDScanner.obj
 0001:000069d0       ??1?$CComPtrBase@UIDataObject@@@ATL@@QAE@XZ 100079d0 f i RFIDScanner.obj
 0001:00006a20       ??1?$CComPtrBase@UIDispatch@@@ATL@@QAE@XZ 10007a20 f i RFIDScanner.obj
 0001:00006a70       ??1?$CComPtrBase@UIOleClientSite@@@ATL@@QAE@XZ 10007a70 f i RFIDScanner.obj
 0001:00006ac0       ??1?$CComPtrBase@UIOleControlSite@@@ATL@@QAE@XZ 10007ac0 f i RFIDScanner.obj
 0001:00006b10       ??1?$CComPtrBase@UIOleInPlaceActiveObject@@@ATL@@QAE@XZ 10007b10 f i RFIDScanner.obj
 0001:00006b60       ??1?$CComPtrBase@UIOleInPlaceFrame@@@ATL@@QAE@XZ 10007b60 f i RFIDScanner.obj
 0001:00006bb0       ??1?$CComPtrBase@UIOleInPlaceObject@@@ATL@@QAE@XZ 10007bb0 f i RFIDScanner.obj
 0001:00006c00       ??1?$CComPtrBase@UIOleInPlaceUIWindow@@@ATL@@QAE@XZ 10007c00 f i RFIDScanner.obj
 0001:00006c50       ??1?$CComPtrBase@UIOleObject@@@ATL@@QAE@XZ 10007c50 f i RFIDScanner.obj
 0001:00006ca0       ??1?$CComPtrBase@UIPersistStream@@@ATL@@QAE@XZ 10007ca0 f i RFIDScanner.obj
 0001:00006cf0       ??1?$CComPtrBase@UIPersistStreamInit@@@ATL@@QAE@XZ 10007cf0 f i RFIDScanner.obj
 0001:00006d40       ??1?$CComPtrBase@UIPointerInactive@@@ATL@@QAE@XZ 10007d40 f i RFIDScanner.obj
 0001:00006d90       ??1?$CComPtrBase@UIProvideClassInfo2@@@ATL@@QAE@XZ 10007d90 f i RFIDScanner.obj
 0001:00006de0       ??1?$CComPtrBase@UISpecifyPropertyPages@@@ATL@@QAE@XZ 10007de0 f i RFIDScanner.obj
 0001:00006e30       ??1?$CComPtrBase@UIStream@@@ATL@@QAE@XZ 10007e30 f i RFIDScanner.obj
 0001:00006e80       ??1?$CComPtrBase@UITypeInfo2@@@ATL@@QAE@XZ 10007e80 f i RFIDScanner.obj
 0001:00006ed0       ??1?$CComPtrBase@UITypeInfo@@@ATL@@QAE@XZ 10007ed0 f i RFIDScanner.obj
 0001:00006f20       ??1?$CComPtrBase@UITypeLib@@@ATL@@QAE@XZ 10007f20 f i RFIDScanner.obj
 0001:00006f70       ??1?$CComPtrBase@UIUnknown@@@ATL@@QAE@XZ 10007f70 f i RFIDScanner.obj
 0001:00006fc0       ??1?$CComPtrBase@UIViewObjectEx@@@ATL@@QAE@XZ 10007fc0 f i RFIDScanner.obj
 0001:00007010       ??1?$CComQIPtr@UIOleControlSite@@$1?_GUID_b196b289_bab4_101a_b69c_00aa00341d07@@3U__s_GUID@@B@ATL@@QAE@XZ 10008010 f i RFIDScanner.obj
 0001:00007040       ??1?$CComQIPtr@UIOleObject@@$1?_GUID_00000112_0000_0000_c000_000000000046@@3U__s_GUID@@B@ATL@@QAE@XZ 10008040 f i RFIDScanner.obj
 0001:00007070       ??1?$CComQIPtr@UISpecifyPropertyPages@@$1?_GUID_b196b28b_bab4_101a_b69c_00aa00341d07@@3U__s_GUID@@B@ATL@@QAE@XZ 10008070 f i RFIDScanner.obj
 0001:000070a0       ??1?$CSimpleMap@PA_WPA_WVCExpansionVectorEqualHelper@ATL@@@ATL@@QAE@XZ 100080a0 f i RFIDScanner.obj
 0001:000070d0       ??1?$CTempBuffer@E$0BAA@VCCRTAllocator@ATL@@@ATL@@QAE@XZ 100080d0 f i RFIDScanner.obj
 0001:00007110       ??1?$CTempBuffer@_W$0BAA@VCCRTAllocator@ATL@@@ATL@@QAE@XZ 10008110 f i RFIDScanner.obj
 0001:00007150       ??1?$CTempBuffer@_W$0EAA@VCCRTAllocator@ATL@@@ATL@@QAE@XZ 10008150 f i RFIDScanner.obj
 0001:00007190       ??1CAtlModule@ATL@@UAE@XZ  10008190 f i RFIDScanner.obj
 0001:000071c0       ??1CComAutoDeleteCriticalSection@ATL@@QAE@XZ 100081c0 f i RFIDScanner.obj
 0001:000071f0       ??1CComClassFactory@ATL@@UAE@XZ 100081f0 f i RFIDScanner.obj
 0001:00007220       ??1CComModule@ATL@@UAE@XZ  10008220 f i RFIDScanner.obj
 0001:00007250       ??1CComObjectRootBase@ATL@@QAE@XZ 10008250 f i RFIDScanner.obj
 0001:00007270       ??1CComSafeDeleteCriticalSection@ATL@@QAE@XZ 10008270 f i RFIDScanner.obj
 0001:000072b0       ??1CComVariant@ATL@@QAE@XZ 100082b0 f i RFIDScanner.obj
 0001:00007310       ??1CExpansionVector@ATL@@QAE@XZ 10008310 f i RFIDScanner.obj
 0001:00007340       ??1CParseBuffer@CRegParser@ATL@@QAE@XZ 10008340 f i RFIDScanner.obj
 0001:00007380       ??1CRegKey@ATL@@QAE@XZ     10008380 f i RFIDScanner.obj
 0001:000073b0       ??1CRegObject@ATL@@UAE@XZ  100083b0 f i RFIDScanner.obj
 0001:000073f0       ??1ModuleLockHelper@ATL@@QAE@XZ 100083f0 f i RFIDScanner.obj
 0001:00007430       ??1OposVariant@@QAE@XZ     10008430 f i RFIDScanner.obj
 0001:00007460       ??1_ATL_MODULE70@ATL@@QAE@XZ 10008460 f i RFIDScanner.obj
 0001:00007490       ??4?$CComPtr@UIAdviseSink@@@ATL@@QAEPAUIAdviseSink@@PAU2@@Z 10008490 f i RFIDScanner.obj
 0001:00007500       ??4?$CComPtr@UIOleClientSite@@@ATL@@QAEPAUIOleClientSite@@PAU2@@Z 10008500 f i RFIDScanner.obj
 0001:00007570       ??4?$CComPtr@UIUnknown@@@ATL@@QAEPAUIUnknown@@PAU2@@Z 10008570 f i RFIDScanner.obj
 0001:000075e0       ??4?$CComQIPtr@UIOleObject@@$1?_GUID_00000112_0000_0000_c000_000000000046@@3U__s_GUID@@B@ATL@@QAEPAUIOleObject@@PAUIUnknown@@@Z 100085e0 f i RFIDScanner.obj
 0001:00007630       ??4?$CComQIPtr@UISpecifyPropertyPages@@$1?_GUID_b196b28b_bab4_101a_b69c_00aa00341d07@@3U__s_GUID@@B@ATL@@QAEPAUISpecifyPropertyPages@@PAUIUnknown@@@Z 10008630 f i RFIDScanner.obj
 0001:00007680       ??7?$CComPtrBase@UIOleClientSite@@@ATL@@QBE_NXZ 10008680 f i RFIDScanner.obj
 0001:000076c0       ??7?$CComPtrBase@UIOleInPlaceSiteWindowless@@@ATL@@QBE_NXZ 100086c0 f i RFIDScanner.obj
 0001:00007700       ??7CComBSTR@ATL@@QBE_NXZ   10008700 f i RFIDScanner.obj
 0001:00007740       ??8?$CComPtrBase@UIAdviseSink@@@ATL@@QBE_NPAUIAdviseSink@@@Z 10008740 f i RFIDScanner.obj
 0001:00007780       ??8?$CComPtrBase@UIConnectionPointContainer@@@ATL@@QBE_NPAUIConnectionPointContainer@@@Z 10008780 f i RFIDScanner.obj
 0001:000077c0       ??8?$CComPtrBase@UIDataAdviseHolder@@@ATL@@QBE_NPAUIDataAdviseHolder@@@Z 100087c0 f i RFIDScanner.obj
 0001:00007800       ??8?$CComPtrBase@UIOleAdviseHolder@@@ATL@@QBE_NPAUIOleAdviseHolder@@@Z 10008800 f i RFIDScanner.obj
 0001:00007840       ??8?$CComPtrBase@UIOleClientSite@@@ATL@@QBE_NPAUIOleClientSite@@@Z 10008840 f i RFIDScanner.obj
 0001:00007880       ??8?$CComPtrBase@UIOleControlSite@@@ATL@@QBE_NPAUIOleControlSite@@@Z 10008880 f i RFIDScanner.obj
 0001:000078c0       ??8?$CComPtrBase@UIOleInPlaceObject@@@ATL@@QBE_NPAUIOleInPlaceObject@@@Z 100088c0 f i RFIDScanner.obj
 0001:00007900       ??8?$CComPtrBase@UIOleInPlaceSiteWindowless@@@ATL@@QBE_NPAUIOleInPlaceSiteWindowless@@@Z 10008900 f i RFIDScanner.obj
 0001:00007940       ??8?$CComPtrBase@UIOleObject@@@ATL@@QBE_NPAUIOleObject@@@Z 10008940 f i RFIDScanner.obj
 0001:00007980       ??8?$CComPtrBase@UIPersistStream@@@ATL@@QBE_NPAUIPersistStream@@@Z 10008980 f i RFIDScanner.obj
 0001:000079c0       ??8?$CComPtrBase@UIPersistStreamInit@@@ATL@@QBE_NPAUIPersistStreamInit@@@Z 100089c0 f i RFIDScanner.obj
 0001:00007a00       ??8?$CComPtrBase@UIPointerInactive@@@ATL@@QBE_NPAUIPointerInactive@@@Z 10008a00 f i RFIDScanner.obj
 0001:00007a40       ??8?$CComPtrBase@UIUnknown@@@ATL@@QBE_NPAUIUnknown@@@Z 10008a40 f i RFIDScanner.obj
 0001:00007a80       ??8?$CComPtrBase@UIViewObjectEx@@@ATL@@QBE_NPAUIViewObjectEx@@@Z 10008a80 f i RFIDScanner.obj
 0001:00007ac0       ??8CComBSTR@ATL@@QBE_NH@Z  10008ac0 f i RFIDScanner.obj
 0001:00007b20       ??9?$CComPtrBase@UIAdviseSink@@@ATL@@QBE_NPAUIAdviseSink@@@Z 10008b20 f i RFIDScanner.obj
 0001:00007b70       ??9?$CComPtrBase@UIConnectionPointContainer@@@ATL@@QBE_NPAUIConnectionPointContainer@@@Z 10008b70 f i RFIDScanner.obj
 0001:00007bc0       ??9?$CComPtrBase@UIDataAdviseHolder@@@ATL@@QBE_NPAUIDataAdviseHolder@@@Z 10008bc0 f i RFIDScanner.obj
 0001:00007c10       ??9?$CComPtrBase@UIOleAdviseHolder@@@ATL@@QBE_NPAUIOleAdviseHolder@@@Z 10008c10 f i RFIDScanner.obj
 0001:00007c60       ??9?$CComPtrBase@UIOleClientSite@@@ATL@@QBE_NPAUIOleClientSite@@@Z 10008c60 f i RFIDScanner.obj
 0001:00007cb0       ??9?$CComPtrBase@UIOleControlSite@@@ATL@@QBE_NPAUIOleControlSite@@@Z 10008cb0 f i RFIDScanner.obj
 0001:00007d00       ??9?$CComPtrBase@UIOleInPlaceObject@@@ATL@@QBE_NPAUIOleInPlaceObject@@@Z 10008d00 f i RFIDScanner.obj
 0001:00007d50       ??9?$CComPtrBase@UIOleInPlaceSiteWindowless@@@ATL@@QBE_NPAUIOleInPlaceSiteWindowless@@@Z 10008d50 f i RFIDScanner.obj
 0001:00007da0       ??9?$CComPtrBase@UIOleObject@@@ATL@@QBE_NPAUIOleObject@@@Z 10008da0 f i RFIDScanner.obj
 0001:00007df0       ??9?$CComPtrBase@UIPersistStream@@@ATL@@QBE_NPAUIPersistStream@@@Z 10008df0 f i RFIDScanner.obj
 0001:00007e40       ??9?$CComPtrBase@UIPersistStreamInit@@@ATL@@QBE_NPAUIPersistStreamInit@@@Z 10008e40 f i RFIDScanner.obj
 0001:00007e90       ??9?$CComPtrBase@UIPointerInactive@@@ATL@@QBE_NPAUIPointerInactive@@@Z 10008e90 f i RFIDScanner.obj
 0001:00007ee0       ??9?$CComPtrBase@UIUnknown@@@ATL@@QBE_NPAUIUnknown@@@Z 10008ee0 f i RFIDScanner.obj
 0001:00007f30       ??9?$CComPtrBase@UIViewObjectEx@@@ATL@@QBE_NPAUIViewObjectEx@@@Z 10008f30 f i RFIDScanner.obj
 0001:00007f80       ??9CComBSTR@ATL@@QBE_NH@Z  10008f80 f i RFIDScanner.obj
 0001:00007fd0       ??B?$CComPtrBase@UIAdviseSink@@@ATL@@QBEPAUIAdviseSink@@XZ 10008fd0 f i RFIDScanner.obj
 0001:00007ff0       ??B?$CComPtrBase@UIDataAdviseHolder@@@ATL@@QBEPAUIDataAdviseHolder@@XZ 10008ff0 f i RFIDScanner.obj
 0001:00008010       ??B?$CComPtrBase@UIDataObject@@@ATL@@QBEPAUIDataObject@@XZ 10009010 f i RFIDScanner.obj
 0001:00008030       ??B?$CComPtrBase@UIOleAdviseHolder@@@ATL@@QBEPAUIOleAdviseHolder@@XZ 10009030 f i RFIDScanner.obj
 0001:00008050       ??B?$CComPtrBase@UIOleClientSite@@@ATL@@QBEPAUIOleClientSite@@XZ 10009050 f i RFIDScanner.obj
 0001:00008070       ??B?$CComPtrBase@UIOleControlSite@@@ATL@@QBEPAUIOleControlSite@@XZ 10009070 f i RFIDScanner.obj
 0001:00008090       ??B?$CComPtrBase@UIOleInPlaceActiveObject@@@ATL@@QBEPAUIOleInPlaceActiveObject@@XZ 10009090 f i RFIDScanner.obj
 0001:000080b0       ??B?$CComPtrBase@UIOleInPlaceFrame@@@ATL@@QBEPAUIOleInPlaceFrame@@XZ 100090b0 f i RFIDScanner.obj
 0001:000080d0       ??B?$CComPtrBase@UIOleInPlaceSiteWindowless@@@ATL@@QBEPAUIOleInPlaceSiteWindowless@@XZ 100090d0 f i RFIDScanner.obj
 0001:000080f0       ??B?$CComPtrBase@UIOleInPlaceUIWindow@@@ATL@@QBEPAUIOleInPlaceUIWindow@@XZ 100090f0 f i RFIDScanner.obj
 0001:00008110       ??B?$CComPtrBase@UIOleObject@@@ATL@@QBEPAUIOleObject@@XZ 10009110 f i RFIDScanner.obj
 0001:00008130       ??B?$CComPtrBase@UIPersistStream@@@ATL@@QBEPAUIPersistStream@@XZ 10009130 f i RFIDScanner.obj
 0001:00008150       ??B?$CComPtrBase@UIProvideClassInfo2@@@ATL@@QBEPAUIProvideClassInfo2@@XZ 10009150 f i RFIDScanner.obj
 0001:00008170       ??B?$CComPtrBase@UISpecifyPropertyPages@@@ATL@@QBEPAUISpecifyPropertyPages@@XZ 10009170 f i RFIDScanner.obj
 0001:00008190       ??B?$CComPtrBase@UIStream@@@ATL@@QBEPAUIStream@@XZ 10009190 f i RFIDScanner.obj
 0001:000081b0       ??B?$CComPtrBase@UITypeInfo2@@@ATL@@QBEPAUITypeInfo2@@XZ 100091b0 f i RFIDScanner.obj
 0001:000081d0       ??B?$CComPtrBase@UITypeInfo@@@ATL@@QBEPAUITypeInfo@@XZ 100091d0 f i RFIDScanner.obj
 0001:000081f0       ??B?$CComPtrBase@UITypeLib@@@ATL@@QBEPAUITypeLib@@XZ 100091f0 f i RFIDScanner.obj
 0001:00008210       ??B?$CComPtrBase@UIUnknown@@@ATL@@QBEPAUIUnknown@@XZ 10009210 f i RFIDScanner.obj
 0001:00008230       ??B?$CTempBuffer@E$0BAA@VCCRTAllocator@ATL@@@ATL@@QBEPAEXZ 10009230 f i RFIDScanner.obj
 0001:00008250       ??B?$CTempBuffer@_W$0BAA@VCCRTAllocator@ATL@@@ATL@@QBEPA_WXZ 10009250 f i RFIDScanner.obj
 0001:00008270       ??B?$CTempBuffer@_W$0EAA@VCCRTAllocator@ATL@@@ATL@@QBEPA_WXZ 10009270 f i RFIDScanner.obj
 0001:00008290       ??B?$CTraceCategoryEx@$00$0A@@ATL@@QAEIXZ 10009290 f i RFIDScanner.obj
 0001:000082b0       ??B?$CTraceCategoryEx@$07$0A@@ATL@@QAEIXZ 100092b0 f i RFIDScanner.obj
 0001:000082d0       ??B?$CTraceCategoryEx@$0CAAA@$0A@@ATL@@QAEIXZ 100092d0 f i RFIDScanner.obj
 0001:000082f0       ??B?$CTraceCategoryEx@$0EA@$0A@@ATL@@QAEIXZ 100092f0 f i RFIDScanner.obj
 0001:00008310       ??B?$CTraceCategoryEx@$0IAA@$0A@@ATL@@QAEIXZ 10009310 f i RFIDScanner.obj
 0001:00008330       ??BCComBSTR@ATL@@QBEPA_WXZ 10009330 f i RFIDScanner.obj
 0001:00008350       ??BCRegKey@ATL@@QBEPAUHKEY__@@XZ 10009350 f i RFIDScanner.obj
 0001:00008370       ??C?$CComPtrBase@UIAdviseSink@@@ATL@@QBEPAV?$_NoAddRefReleaseOnCComPtr@UIAdviseSink@@@1@XZ 10009370 f i RFIDScanner.obj
 0001:000083c0       ??C?$CComPtrBase@UICatRegister@@@ATL@@QBEPAV?$_NoAddRefReleaseOnCComPtr@UICatRegister@@@1@XZ 100093c0 f i RFIDScanner.obj
 0001:00008410       ??C?$CComPtrBase@UIConnectionPoint@@@ATL@@QBEPAV?$_NoAddRefReleaseOnCComPtr@UIConnectionPoint@@@1@XZ 10009410 f i RFIDScanner.obj
 0001:00008460       ??C?$CComPtrBase@UIConnectionPointContainer@@@ATL@@QBEPAV?$_NoAddRefReleaseOnCComPtr@UIConnectionPointContainer@@@1@XZ 10009460 f i RFIDScanner.obj
 0001:000084b0       ??C?$CComPtrBase@UIDataAdviseHolder@@@ATL@@QBEPAV?$_NoAddRefReleaseOnCComPtr@UIDataAdviseHolder@@@1@XZ 100094b0 f i RFIDScanner.obj
 0001:00008500       ??C?$CComPtrBase@UIOleAdviseHolder@@@ATL@@QBEPAV?$_NoAddRefReleaseOnCComPtr@UIOleAdviseHolder@@@1@XZ 10009500 f i RFIDScanner.obj
 0001:00008550       ??C?$CComPtrBase@UIOleClientSite@@@ATL@@QBEPAV?$_NoAddRefReleaseOnCComPtr@UIOleClientSite@@@1@XZ 10009550 f i RFIDScanner.obj
 0001:000085a0       ??C?$CComPtrBase@UIOleControlSite@@@ATL@@QBEPAV?$_NoAddRefReleaseOnCComPtr@UIOleControlSite@@@1@XZ 100095a0 f i RFIDScanner.obj
 0001:000085f0       ??C?$CComPtrBase@UIOleInPlaceFrame@@@ATL@@QBEPAV?$_NoAddRefReleaseOnCComPtr@UIOleInPlaceFrame@@@1@XZ 100095f0 f i RFIDScanner.obj
 0001:00008640       ??C?$CComPtrBase@UIOleInPlaceObject@@@ATL@@QBEPAV?$_NoAddRefReleaseOnCComPtr@UIOleInPlaceObject@@@1@XZ 10009640 f i RFIDScanner.obj
 0001:00008690       ??C?$CComPtrBase@UIOleInPlaceSiteWindowless@@@ATL@@QBEPAV?$_NoAddRefReleaseOnCComPtr@UIOleInPlaceSiteWindowless@@@1@XZ 10009690 f i RFIDScanner.obj
 0001:000086e0       ??C?$CComPtrBase@UIOleInPlaceUIWindow@@@ATL@@QBEPAV?$_NoAddRefReleaseOnCComPtr@UIOleInPlaceUIWindow@@@1@XZ 100096e0 f i RFIDScanner.obj
 0001:00008730       ??C?$CComPtrBase@UIOleObject@@@ATL@@QBEPAV?$_NoAddRefReleaseOnCComPtr@UIOleObject@@@1@XZ 10009730 f i RFIDScanner.obj
 0001:00008780       ??C?$CComPtrBase@UIPersistStream@@@ATL@@QBEPAV?$_NoAddRefReleaseOnCComPtr@UIPersistStream@@@1@XZ 10009780 f i RFIDScanner.obj
 0001:000087d0       ??C?$CComPtrBase@UIPersistStreamInit@@@ATL@@QBEPAV?$_NoAddRefReleaseOnCComPtr@UIPersistStreamInit@@@1@XZ 100097d0 f i RFIDScanner.obj
 0001:00008820       ??C?$CComPtrBase@UIPointerInactive@@@ATL@@QBEPAV?$_NoAddRefReleaseOnCComPtr@UIPointerInactive@@@1@XZ 10009820 f i RFIDScanner.obj
 0001:00008870       ??C?$CComPtrBase@UIProvideClassInfo2@@@ATL@@QBEPAV?$_NoAddRefReleaseOnCComPtr@UIProvideClassInfo2@@@1@XZ 10009870 f i RFIDScanner.obj
 0001:000088c0       ??C?$CComPtrBase@UISpecifyPropertyPages@@@ATL@@QBEPAV?$_NoAddRefReleaseOnCComPtr@UISpecifyPropertyPages@@@1@XZ 100098c0 f i RFIDScanner.obj
 0001:00008910       ??C?$CComPtrBase@UITypeInfo@@@ATL@@QBEPAV?$_NoAddRefReleaseOnCComPtr@UITypeInfo@@@1@XZ 10009910 f i RFIDScanner.obj
 0001:00008960       ??C?$CComPtrBase@UITypeLib@@@ATL@@QBEPAV?$_NoAddRefReleaseOnCComPtr@UITypeLib@@@1@XZ 10009960 f i RFIDScanner.obj
 0001:000089b0       ??C?$CComPtrBase@UIUnknown@@@ATL@@QBEPAV?$_NoAddRefReleaseOnCComPtr@UIUnknown@@@1@XZ 100099b0 f i RFIDScanner.obj
 0001:00008a00       ??C?$CComPtrBase@UIViewObjectEx@@@ATL@@QBEPAV?$_NoAddRefReleaseOnCComPtr@UIViewObjectEx@@@1@XZ 10009a00 f i RFIDScanner.obj
 0001:00008a50       ??I?$CComPtrBase@UICatRegister@@@ATL@@QAEPAPAUICatRegister@@XZ 10009a50 f i RFIDScanner.obj
 0001:00008aa0       ??I?$CComPtrBase@UIConnectionPoint@@@ATL@@QAEPAPAUIConnectionPoint@@XZ 10009aa0 f i RFIDScanner.obj
 0001:00008af0       ??I?$CComPtrBase@UIConnectionPointContainer@@@ATL@@QAEPAPAUIConnectionPointContainer@@XZ 10009af0 f i RFIDScanner.obj
 0001:00008b40       ??I?$CComPtrBase@UIDataAdviseHolder@@@ATL@@QAEPAPAUIDataAdviseHolder@@XZ 10009b40 f i RFIDScanner.obj
 0001:00008b90       ??I?$CComPtrBase@UIDataObject@@@ATL@@QAEPAPAUIDataObject@@XZ 10009b90 f i RFIDScanner.obj
 0001:00008be0       ??I?$CComPtrBase@UIDispatch@@@ATL@@QAEPAPAUIDispatch@@XZ 10009be0 f i RFIDScanner.obj
 0001:00008c30       ??I?$CComPtrBase@UIOleAdviseHolder@@@ATL@@QAEPAPAUIOleAdviseHolder@@XZ 10009c30 f i RFIDScanner.obj
 0001:00008c80       ??I?$CComPtrBase@UIOleControlSite@@@ATL@@QAEPAPAUIOleControlSite@@XZ 10009c80 f i RFIDScanner.obj
 0001:00008cd0       ??I?$CComPtrBase@UIOleInPlaceActiveObject@@@ATL@@QAEPAPAUIOleInPlaceActiveObject@@XZ 10009cd0 f i RFIDScanner.obj
 0001:00008d20       ??I?$CComPtrBase@UIOleInPlaceFrame@@@ATL@@QAEPAPAUIOleInPlaceFrame@@XZ 10009d20 f i RFIDScanner.obj
 0001:00008d70       ??I?$CComPtrBase@UIOleInPlaceObject@@@ATL@@QAEPAPAUIOleInPlaceObject@@XZ 10009d70 f i RFIDScanner.obj
 0001:00008dc0       ??I?$CComPtrBase@UIOleInPlaceSiteWindowless@@@ATL@@QAEPAPAUIOleInPlaceSiteWindowless@@XZ 10009dc0 f i RFIDScanner.obj
 0001:00008e10       ??I?$CComPtrBase@UIOleInPlaceUIWindow@@@ATL@@QAEPAPAUIOleInPlaceUIWindow@@XZ 10009e10 f i RFIDScanner.obj
 0001:00008e60       ??I?$CComPtrBase@UIOleObject@@@ATL@@QAEPAPAUIOleObject@@XZ 10009e60 f i RFIDScanner.obj
 0001:00008eb0       ??I?$CComPtrBase@UIPersistStream@@@ATL@@QAEPAPAUIPersistStream@@XZ 10009eb0 f i RFIDScanner.obj
 0001:00008f00       ??I?$CComPtrBase@UIPointerInactive@@@ATL@@QAEPAPAUIPointerInactive@@XZ 10009f00 f i RFIDScanner.obj
 0001:00008f50       ??I?$CComPtrBase@UIProvideClassInfo2@@@ATL@@QAEPAPAUIProvideClassInfo2@@XZ 10009f50 f i RFIDScanner.obj
 0001:00008fa0       ??I?$CComPtrBase@UIStream@@@ATL@@QAEPAPAUIStream@@XZ 10009fa0 f i RFIDScanner.obj
 0001:00008ff0       ??I?$CComPtrBase@UITypeInfo2@@@ATL@@QAEPAPAUITypeInfo2@@XZ 10009ff0 f i RFIDScanner.obj
 0001:00009040       ??I?$CComPtrBase@UITypeInfo@@@ATL@@QAEPAPAUITypeInfo@@XZ 1000a040 f i RFIDScanner.obj
 0001:00009090       ??I?$CComPtrBase@UITypeLib@@@ATL@@QAEPAPAUITypeLib@@XZ 1000a090 f i RFIDScanner.obj
 0001:000090e0       ??I?$CComPtrBase@UIUnknown@@@ATL@@QAEPAPAUIUnknown@@XZ 1000a0e0 f i RFIDScanner.obj
 0001:00009130       ??I?$CComPtrBase@UIViewObjectEx@@@ATL@@QAEPAPAUIViewObjectEx@@XZ 1000a130 f i RFIDScanner.obj
 0001:00009180       ??ICComBSTR@ATL@@QAEPAPA_WXZ 1000a180 f i RFIDScanner.obj
 0001:00009195       ??_E?$CComContainedObject@VCOPOSRFIDScanner@@@ATL@@W3AEPAXI@Z 1000a195 f i RFIDScanner.obj
 0001:0000919d       ??_E?$CComContainedObject@VCOPOSRFIDScanner@@@ATL@@WEM@AEPAXI@Z 1000a19d f i RFIDScanner.obj
 0001:000091a5       ??_E?$CComObject@VCOPOSRFIDScanner@@@ATL@@W3AEPAXI@Z 1000a1a5 f i RFIDScanner.obj
 0001:000091ad       ??_E?$CComObject@VCOPOSRFIDScanner@@@ATL@@WEM@AEPAXI@Z 1000a1ad f i RFIDScanner.obj
 0001:000091c0       ??_E?$CComAggObject@VCOPOSRFIDScanner@@@ATL@@UAEPAXI@Z 1000a1c0 f i RFIDScanner.obj
 0001:000091c0       ??_G?$CComAggObject@VCOPOSRFIDScanner@@@ATL@@UAEPAXI@Z 1000a1c0 f i RFIDScanner.obj
 0001:00009210       ??_E?$CComContainedObject@VCOPOSRFIDScanner@@@ATL@@UAEPAXI@Z 1000a210 f i RFIDScanner.obj
 0001:00009210       ??_G?$CComContainedObject@VCOPOSRFIDScanner@@@ATL@@UAEPAXI@Z 1000a210 f i RFIDScanner.obj
 0001:00009260       ??_E?$CComObject@V?$CComEnum@UIEnumConnectionPoints@@$1?_GUID_b196b285_bab4_101a_b69c_00aa00341d07@@3U__s_GUID@@BPAUIConnectionPoint@@V?$_CopyInterface@UIConnectionPoint@@@ATL@@VCComSingleThreadModel@6@@ATL@@@ATL@@UAEPAXI@Z 1000a260 f i RFIDScanner.obj
 0001:00009260       ??_G?$CComObject@V?$CComEnum@UIEnumConnectionPoints@@$1?_GUID_b196b285_bab4_101a_b69c_00aa00341d07@@3U__s_GUID@@BPAUIConnectionPoint@@V?$_CopyInterface@UIConnectionPoint@@@ATL@@VCComSingleThreadModel@6@@ATL@@@ATL@@UAEPAXI@Z 1000a260 f i RFIDScanner.obj
 0001:000092a0       ??_E?$CComObject@V?$CComEnum@UIEnumConnections@@$1?_GUID_b196b287_bab4_101a_b69c_00aa00341d07@@3U__s_GUID@@BUtagCONNECTDATA@@V?$_Copy@UtagCONNECTDATA@@@ATL@@VCComSingleThreadModel@6@@ATL@@@ATL@@UAEPAXI@Z 1000a2a0 f i RFIDScanner.obj
 0001:000092a0       ??_G?$CComObject@V?$CComEnum@UIEnumConnections@@$1?_GUID_b196b287_bab4_101a_b69c_00aa00341d07@@3U__s_GUID@@BUtagCONNECTDATA@@V?$_Copy@UtagCONNECTDATA@@@ATL@@VCComSingleThreadModel@6@@ATL@@@ATL@@UAEPAXI@Z 1000a2a0 f i RFIDScanner.obj
 0001:000092e0       ??_G?$CComObject@VCOPOSRFIDScanner@@@ATL@@UAEPAXI@Z 1000a2e0 f i RFIDScanner.obj
 0001:000092e0       ??_E?$CComObject@VCOPOSRFIDScanner@@@ATL@@UAEPAXI@Z 1000a2e0 f i RFIDScanner.obj
 0001:00009330       ??_G?$CComObjectCached@VCComClassFactory@ATL@@@ATL@@UAEPAXI@Z 1000a330 f i RFIDScanner.obj
 0001:00009330       ??_E?$CComObjectCached@VCComClassFactory@ATL@@@ATL@@UAEPAXI@Z 1000a330 f i RFIDScanner.obj
 0001:00009370       ??_GCComClassFactory@ATL@@UAEPAXI@Z 1000a370 f i RFIDScanner.obj
 0001:00009370       ??_ECComClassFactory@ATL@@UAEPAXI@Z 1000a370 f i RFIDScanner.obj
 0001:000093b0       ??_GCComModule@ATL@@UAEPAXI@Z 1000a3b0 f i RFIDScanner.obj
 0001:000093b0       ??_ECComModule@ATL@@UAEPAXI@Z 1000a3b0 f i RFIDScanner.obj
 0001:000093f0       ??_GCRegObject@ATL@@UAEPAXI@Z 1000a3f0 f i RFIDScanner.obj
 0001:000093f0       ??_ECRegObject@ATL@@UAEPAXI@Z 1000a3f0 f i RFIDScanner.obj
 0001:00009430       ?Add@?$CSimpleArray@GV?$CSimpleArrayEqualHelper@G@ATL@@@ATL@@QAEHABG@Z 1000a430 f i RFIDScanner.obj
 0001:00009580       ?Add@?$CSimpleMap@PA_WPA_WVCExpansionVectorEqualHelper@ATL@@@ATL@@QAEHABQA_W0@Z 1000a580 f i RFIDScanner.obj
 0001:00009640       ?Add@CComDynamicUnkArray@ATL@@QAEKPAUIUnknown@@@Z 1000a640 f i RFIDScanner.obj
 0001:000097e0       ?Add@CExpansionVector@ATL@@QAEHPB_W0@Z 1000a7e0 f i RFIDScanner.obj
 0001:00009a70       ?AddChar@CParseBuffer@CRegParser@ATL@@QAEHPB_W@Z 1000aa70 f i RFIDScanner.obj
 0001:00009ab0       ?AddCommonRGSReplacements@?$CAtlModuleT@VCComModule@ATL@@@ATL@@UAEJPAUIRegistrarBase@@@Z 1000aab0 f i RFIDScanner.obj
 0001:00009b00       ?AddCreateWndData@CAtlWinModule@ATL@@QAEXPAU_AtlCreateWndData@2@PAX@Z 1000ab00 f i RFIDScanner.obj
 0001:00009b30       ?AddRef@?$CComAggObject@VCOPOSRFIDScanner@@@ATL@@UAGKXZ 1000ab30 f i RFIDScanner.obj
 0001:00009b50       ?AddRef@?$CComContainedObject@VCOPOSRFIDScanner@@@ATL@@UAGKXZ 1000ab50 f i RFIDScanner.obj
 0001:00009b6c       ?AddRef@?$CComContainedObject@VCOPOSRFIDScanner@@@ATL@@WHA@AGKXZ 1000ab6c f i RFIDScanner.obj
 0001:00009b76       ?AddRef@?$CComContainedObject@VCOPOSRFIDScanner@@@ATL@@WHE@AGKXZ 1000ab76 f i RFIDScanner.obj
 0001:00009b80       ?AddRef@?$CComContainedObject@VCOPOSRFIDScanner@@@ATL@@WHI@AGKXZ 1000ab80 f i RFIDScanner.obj
 0001:00009b8a       ?AddRef@?$CComContainedObject@VCOPOSRFIDScanner@@@ATL@@WHM@AGKXZ 1000ab8a f i RFIDScanner.obj
 0001:00009b94       ?AddRef@?$CComContainedObject@VCOPOSRFIDScanner@@@ATL@@WIA@AGKXZ 1000ab94 f i RFIDScanner.obj
 0001:00009ba1       ?AddRef@?$CComContainedObject@VCOPOSRFIDScanner@@@ATL@@WIE@AGKXZ 1000aba1 f i RFIDScanner.obj
 0001:00009bae       ?AddRef@?$CComContainedObject@VCOPOSRFIDScanner@@@ATL@@WII@AGKXZ 1000abae f i RFIDScanner.obj
 0001:00009bbb       ?AddRef@?$CComContainedObject@VCOPOSRFIDScanner@@@ATL@@WIM@AGKXZ 1000abbb f i RFIDScanner.obj
 0001:00009bc8       ?AddRef@?$CComContainedObject@VCOPOSRFIDScanner@@@ATL@@WJA@AGKXZ 1000abc8 f i RFIDScanner.obj
 0001:00009bd5       ?AddRef@?$CComContainedObject@VCOPOSRFIDScanner@@@ATL@@WJE@AGKXZ 1000abd5 f i RFIDScanner.obj
 0001:00009be2       ?AddRef@?$CComContainedObject@VCOPOSRFIDScanner@@@ATL@@WJI@AGKXZ 1000abe2 f i RFIDScanner.obj
 0001:00009bef       ?AddRef@?$CComContainedObject@VCOPOSRFIDScanner@@@ATL@@WJM@AGKXZ 1000abef f i RFIDScanner.obj
 0001:00009bfc       ?AddRef@?$CComContainedObject@VCOPOSRFIDScanner@@@ATL@@WKA@AGKXZ 1000abfc f i RFIDScanner.obj
 0001:00009c09       ?AddRef@?$CComContainedObject@VCOPOSRFIDScanner@@@ATL@@WKI@AGKXZ 1000ac09 f i RFIDScanner.obj
 0001:00009c16       ?AddRef@?$CComContainedObject@VCOPOSRFIDScanner@@@ATL@@WLE@AGKXZ 1000ac16 f i RFIDScanner.obj
 0001:00009c30       ?AddRef@?$CComObject@V?$CComEnum@UIEnumConnectionPoints@@$1?_GUID_b196b285_bab4_101a_b69c_00aa00341d07@@3U__s_GUID@@BPAUIConnectionPoint@@V?$_CopyInterface@UIConnectionPoint@@@ATL@@VCComSingleThreadModel@6@@ATL@@@ATL@@UAGKXZ 1000ac30 f i RFIDScanner.obj
 0001:00009c50       ?AddRef@?$CComObject@V?$CComEnum@UIEnumConnections@@$1?_GUID_b196b287_bab4_101a_b69c_00aa00341d07@@3U__s_GUID@@BUtagCONNECTDATA@@V?$_Copy@UtagCONNECTDATA@@@ATL@@VCComSingleThreadModel@6@@ATL@@@ATL@@UAGKXZ 1000ac50 f i RFIDScanner.obj
 0001:00009c70       ?AddRef@?$CComObject@VCOPOSRFIDScanner@@@ATL@@UAGKXZ 1000ac70 f i RFIDScanner.obj
 0001:00009c8c       ?AddRef@?$CComObject@VCOPOSRFIDScanner@@@ATL@@WHA@AGKXZ 1000ac8c f i RFIDScanner.obj
 0001:00009c96       ?AddRef@?$CComObject@VCOPOSRFIDScanner@@@ATL@@WHE@AGKXZ 1000ac96 f i RFIDScanner.obj
 0001:00009ca0       ?AddRef@?$CComObject@VCOPOSRFIDScanner@@@ATL@@WHI@AGKXZ 1000aca0 f i RFIDScanner.obj
 0001:00009caa       ?AddRef@?$CComObject@VCOPOSRFIDScanner@@@ATL@@WHM@AGKXZ 1000acaa f i RFIDScanner.obj
 0001:00009cb4       ?AddRef@?$CComObject@VCOPOSRFIDScanner@@@ATL@@WIA@AGKXZ 1000acb4 f i RFIDScanner.obj
 0001:00009cc1       ?AddRef@?$CComObject@VCOPOSRFIDScanner@@@ATL@@WIE@AGKXZ 1000acc1 f i RFIDScanner.obj
 0001:00009cce       ?AddRef@?$CComObject@VCOPOSRFIDScanner@@@ATL@@WII@AGKXZ 1000acce f i RFIDScanner.obj
 0001:00009cdb       ?AddRef@?$CComObject@VCOPOSRFIDScanner@@@ATL@@WIM@AGKXZ 1000acdb f i RFIDScanner.obj
 0001:00009ce8       ?AddRef@?$CComObject@VCOPOSRFIDScanner@@@ATL@@WJA@AGKXZ 1000ace8 f i RFIDScanner.obj
 0001:00009cf5       ?AddRef@?$CComObject@VCOPOSRFIDScanner@@@ATL@@WJE@AGKXZ 1000acf5 f i RFIDScanner.obj
 0001:00009d02       ?AddRef@?$CComObject@VCOPOSRFIDScanner@@@ATL@@WJI@AGKXZ 1000ad02 f i RFIDScanner.obj
 0001:00009d0f       ?AddRef@?$CComObject@VCOPOSRFIDScanner@@@ATL@@WJM@AGKXZ 1000ad0f f i RFIDScanner.obj
 0001:00009d1c       ?AddRef@?$CComObject@VCOPOSRFIDScanner@@@ATL@@WKA@AGKXZ 1000ad1c f i RFIDScanner.obj
 0001:00009d29       ?AddRef@?$CComObject@VCOPOSRFIDScanner@@@ATL@@WKI@AGKXZ 1000ad29 f i RFIDScanner.obj
 0001:00009d36       ?AddRef@?$CComObject@VCOPOSRFIDScanner@@@ATL@@WLE@AGKXZ 1000ad36 f i RFIDScanner.obj
 0001:00009d50       ?AddRef@?$CComObjectCached@VCComClassFactory@ATL@@@ATL@@UAGKXZ 1000ad50 f i RFIDScanner.obj
 0001:00009da0       ?AddRef@CRegObject@ATL@@UAGKXZ 1000ada0 f i RFIDScanner.obj
 0001:00009df0       ?AddReplacement@CRegObject@ATL@@UAGJPB_W0@Z 1000adf0 f i RFIDScanner.obj
 0001:00009f00       ?AddString@CParseBuffer@CRegParser@ATL@@QAEHPB_W@Z 1000af00 f i RFIDScanner.obj
 0001:00009ff0       ?AddTermFunc@CAtlModule@ATL@@QAEJP6GXK@ZK@Z 1000aff0 f i RFIDScanner.obj
 0001:0000a040       ?AddValue@CRegParser@ATL@@IAEJAAVCRegKey@2@PB_WPA_W@Z 1000b040 f i RFIDScanner.obj
 0001:0000a7d0       ?Advise@?$CProxy_IOPOSEvents@VCOPOSRFIDScanner@@@@UAGJPAUIUnknown@@PAK@Z 1000b7d0 f i RFIDScanner.obj
 0001:0000a820       ?Advise@?$IConnectionPointImpl@VCOPOSRFIDScanner@@$1?DIID__IOPOSRFIDScannerEvents@@3U_GUID@@BVCComDynamicUnkArray@ATL@@@ATL@@UAGJPAUIUnknown@@PAK@Z 1000b820 f i RFIDScanner.obj
 0001:0000a9c0       ?Advise@?$IConnectionPointImpl@VCOPOSRFIDScanner@@$1?IID_IPropertyNotifySink@@3U_GUID@@BVCComDynamicUnkArray@ATL@@@ATL@@UAGJPAUIUnknown@@PAK@Z 1000b9c0 f i RFIDScanner.obj
 0001:0000ab60       ?Advise@?$IOleObjectImpl@VCOPOSRFIDScanner@@@ATL@@UAGJPAUIAdviseSink@@PAK@Z 1000bb60 f i RFIDScanner.obj
 0001:0000abf0       ?Allocate@?$CAtlSafeAllocBufferManager@VCCRTAllocator@ATL@@@_ATL_SAFE_ALLOCA_IMPL@ATL@@QAEPAXK@Z 1000bbf0 f i RFIDScanner.obj
 0001:0000ac60       ?Allocate@?$CTempBuffer@E$0BAA@VCCRTAllocator@ATL@@@ATL@@QAEPAEI@Z 1000bc60 f i RFIDScanner.obj
 0001:0000aca0       ?Allocate@?$CTempBuffer@_W$0BAA@VCCRTAllocator@ATL@@@ATL@@QAEPA_WI@Z 1000bca0 f i RFIDScanner.obj
 0001:0000ace0       ?Allocate@?$CTempBuffer@_W$0EAA@VCCRTAllocator@ATL@@@ATL@@QAEPA_WI@Z 1000bce0 f i RFIDScanner.obj
 0001:0000ad20       ?AllocateBytes@?$CTempBuffer@E$0BAA@VCCRTAllocator@ATL@@@ATL@@QAEPAEI@Z 1000bd20 f i RFIDScanner.obj
 0001:0000ada0       ?AllocateBytes@?$CTempBuffer@_W$0BAA@VCCRTAllocator@ATL@@@ATL@@QAEPA_WI@Z 1000bda0 f i RFIDScanner.obj
 0001:0000ae20       ?AllocateBytes@?$CTempBuffer@_W$0EAA@VCCRTAllocator@ATL@@@ATL@@QAEPA_WI@Z 1000be20 f i RFIDScanner.obj
 0001:0000aea0       ?AllocateHeap@?$CTempBuffer@E$0BAA@VCCRTAllocator@ATL@@@ATL@@AAEXI@Z 1000bea0 f i RFIDScanner.obj
 0001:0000aef0       ?AllocateHeap@?$CTempBuffer@_W$0BAA@VCCRTAllocator@ATL@@@ATL@@AAEXI@Z 1000bef0 f i RFIDScanner.obj
 0001:0000af40       ?AllocateHeap@?$CTempBuffer@_W$0EAA@VCCRTAllocator@ATL@@@ATL@@AAEXI@Z 1000bf40 f i RFIDScanner.obj
 0001:0000af90       ?Append@CParseBuffer@CRegParser@ATL@@QAEHPB_WH@Z 1000bf90 f i RFIDScanner.obj
 0001:0000b130       ?AtlCallTermFunc@ATL@@YGXPAU_ATL_MODULE70@1@@Z 1000c130 f i RFIDScanner.obj
 0001:0000b1d0       ?AtlCoTaskMemCAlloc@ATL@@YAPAXKK@Z 1000c1d0 f i RFIDScanner.obj
 0001:0000b260       ?AtlCoTaskMemRecalloc@ATL@@YAPAXPAXKK@Z 1000c260 f i RFIDScanner.obj
 0001:0000b300       ?AtlComModuleGetClassObject@ATL@@YGJPAU_ATL_COM_MODULE70@1@ABU_GUID@@1PAPAX@Z 1000c300 f i RFIDScanner.obj
 0001:0000b590       ?AtlComModuleRegisterServer@ATL@@YGJPAU_ATL_COM_MODULE70@1@HPBU_GUID@@@Z 1000c590 f i RFIDScanner.obj
 0001:0000b720       ?AtlComModuleUnregisterServer@ATL@@YGJPAU_ATL_COM_MODULE70@1@HPBU_GUID@@@Z 1000c720 f i RFIDScanner.obj
 0001:0000b850       ?AtlComQIPtrAssign2@ATL@@YAXPAPAUIUnknown@@PAU2@ABU_GUID@@@Z 1000c850 f i RFIDScanner.obj
 0001:0000b8d0       ?AtlCreateTargetDC@ATL@@YGPAUHDC__@@PAU2@PAUtagDVTARGETDEVICE@@@Z 1000c8d0 f i RFIDScanner.obj
 0001:0000ba70       ?AtlCrtErrorCheck@ATL@@YAHH@Z 1000ca70 f i RFIDScanner.obj
 0001:0000bb40       ?AtlGetPerUserRegistration@ATL@@YGJPA_N@Z 1000cb40 f i RFIDScanner.obj
 0001:0000bb70       ?AtlHiMetricToPixel@ATL@@YGXPBUtagSIZE@@PAU2@@Z 1000cb70 f i RFIDScanner.obj
 0001:0000bd40       ?AtlHresultFromLastError@ATL@@YAJXZ 1000cd40 f i RFIDScanner.obj
 0001:0000bd80       ?AtlHresultFromWin32@ATL@@YAJK@Z 1000cd80 f i RFIDScanner.obj
 0001:0000bda0       ?AtlIPersistStreamInit_Load@ATL@@YGJPAUIStream@@PBUATL_PROPMAP_ENTRY@1@PAXPAUIUnknown@@@Z 1000cda0 f i RFIDScanner.obj
 0001:0000c200       ?AtlIPersistStreamInit_Save@ATL@@YGJPAUIStream@@HPBUATL_PROPMAP_ENTRY@1@PAXPAUIUnknown@@@Z 1000d200 f i RFIDScanner.obj
 0001:0000c5e0       ?AtlInternalOleLoadFromStream@ATL@@YAJPAUIStream@@ABU_GUID@@PAPAXTClassesAllowedInStream@1@K@Z 1000d5e0 f i RFIDScanner.obj
 0001:0000c880       ?AtlInternalQueryInterface@ATL@@YGJPAXPBU_ATL_INTMAP_ENTRY@1@ABU_GUID@@PAPAX@Z 1000d880 f i RFIDScanner.obj
 0001:0000cab0       ?AtlLoadTypeLib@ATL@@YGJPAUHINSTANCE__@@PB_WPAPA_WPAPAUITypeLib@@@Z 1000dab0 f i RFIDScanner.obj
 0001:0000cf10       ?AtlModuleAddTermFunc@ATL@@YGJPAU_ATL_MODULE70@1@P6GXK@ZK@Z 1000df10 f i RFIDScanner.obj
 0001:0000d070       ?AtlRegisterClassCategoriesHelper@ATL@@YGJABU_GUID@@PBU_ATL_CATMAP_ENTRY@1@H@Z 1000e070 f i RFIDScanner.obj
 0001:0000d750       ?AtlRegisterTypeLib@ATL@@YGJPAUHINSTANCE__@@PB_W@Z 1000e750 f i RFIDScanner.obj
 0001:0000da90       ?AtlThrowImpl@ATL@@YGXJ@Z  1000ea90 f i RFIDScanner.obj
 0001:0000db40       ?AtlUnRegisterTypeLib@ATL@@YGJPAUHINSTANCE__@@PB_W@Z 1000eb40 f i RFIDScanner.obj
 0001:0000dd50       ?AtlWinModuleAddCreateWndData@ATL@@YGXPAU_ATL_WIN_MODULE70@1@PAU_AtlCreateWndData@1@PAX@Z 1000ed50 f i RFIDScanner.obj
 0001:0000dec0       ?AtlWinModuleExtractCreateWndData@ATL@@YGPAXPAU_ATL_WIN_MODULE70@1@@Z 1000eec0 f i RFIDScanner.obj
 0001:0000e040       ?AtlWinModuleRegisterClassExW@ATL@@YGGPAU_ATL_WIN_MODULE70@1@PBUtagWNDCLASSEXW@@@Z 1000f040 f i RFIDScanner.obj
 0001:0000e110       ?AtlWinModuleRegisterWndClassInfoW@ATL@@YGGPAU_ATL_WIN_MODULE70@1@PAU_ATL_BASE_MODULE70@1@PAU_ATL_WNDCLASSINFOW@1@PAP6GJPAUHWND__@@IIJ@Z@Z 1000f110 f i RFIDScanner.obj
 0001:0000e1a0       ?Attach@?$CAutoVectorPtr@_W@ATL@@QAEXPA_W@Z 1000f1a0 f i RFIDScanner.obj
 0001:0000e200       ?Attach@CComBSTR@ATL@@QAEXPA_W@Z 1000f200 f i RFIDScanner.obj
 0001:0000e250       ?Attach@CRegKey@ATL@@QAEXPAUHKEY__@@@Z 1000f250 f i RFIDScanner.obj
 0001:0000e2c0       ?CanForceRemoveKey@CRegParser@ATL@@IAEHPB_W@Z 1000f2c0 f i RFIDScanner.obj
 0001:0000e330       ?ChToByte@CRegParser@ATL@@KAE_W@Z 1000f330 f i RFIDScanner.obj
 0001:0000e450       ?ChangeType@CComVariant@ATL@@QAEJGPBUtagVARIANT@@@Z 1000f450 f i RFIDScanner.obj
 0001:0000e4b0       ?Cleanup@CComTypeInfoHolder@ATL@@SGXK@Z 1000f4b0 f i RFIDScanner.obj
 0001:0000e580       ?Clear@CComVariant@ATL@@QAEJXZ 1000f580 f i RFIDScanner.obj
 0001:0000e5c0       ?ClearReplacements@CExpansionVector@ATL@@QAEJXZ 1000f5c0 f i RFIDScanner.obj
 0001:0000e650       ?ClearReplacements@CRegObject@ATL@@UAGJXZ 1000f650 f i RFIDScanner.obj
 0001:0000e6a0       ?Clone@?$CComEnumImpl@UIEnumConnectionPoints@@$1?_GUID_b196b285_bab4_101a_b69c_00aa00341d07@@3U__s_GUID@@BPAUIConnectionPoint@@V?$_CopyInterface@UIConnectionPoint@@@ATL@@@ATL@@UAGJPAPAUIEnumConnectionPoints@@@Z 1000f6a0 f i RFIDScanner.obj
 0001:0000e810       ?Clone@?$CComEnumImpl@UIEnumConnections@@$1?_GUID_b196b287_bab4_101a_b69c_00aa00341d07@@3U__s_GUID@@BUtagCONNECTDATA@@V?$_Copy@UtagCONNECTDATA@@@ATL@@@ATL@@UAGJPAPAUIEnumConnections@@@Z 1000f810 f i RFIDScanner.obj
 0001:0000e980       ?Close@?$IOleObjectImpl@VCOPOSRFIDScanner@@@ATL@@UAGJK@Z 1000f980 f i RFIDScanner.obj
 0001:0000ea10       ?Close@CRegKey@ATL@@QAEJXZ 1000fa10 f i RFIDScanner.obj
 0001:0000ea80       ?ContextSensitiveHelp@?$IOleInPlaceActiveObjectImpl@VCOPOSRFIDScanner@@@ATL@@UAGJH@Z 1000fa80 f i RFIDScanner.obj
 0001:0000eaf0       ?ContextSensitiveHelp@?$IOleInPlaceObjectWindowlessImpl@VCOPOSRFIDScanner@@@ATL@@UAGJH@Z 1000faf0 f i RFIDScanner.obj
 0001:0000eb60       ?ControlQueryInterface@?$CComControl@VCOPOSRFIDScanner@@V?$CWindowImpl@VCOPOSRFIDScanner@@VCWindow@ATL@@V?$CWinTraits@$0FGAAAAAA@$0A@@3@@ATL@@@ATL@@UAEJABU_GUID@@PAPAX@Z 1000fb60 f i RFIDScanner.obj
 0001:0000ebe0       ?CreateControlWindow@?$CComControl@VCOPOSRFIDScanner@@V?$CWindowImpl@VCOPOSRFIDScanner@@VCWindow@ATL@@V?$CWinTraits@$0FGAAAAAA@$0A@@3@@ATL@@@ATL@@UAEPAUHWND__@@PAU3@AAUtagRECT@@@Z 1000fbe0 f i RFIDScanner.obj
 0001:0000ec60       ?CreateInstance@?$CComCreator@V?$CComAggObject@VCOPOSRFIDScanner@@@ATL@@@ATL@@SGJPAXABU_GUID@@PAPAX@Z 1000fc60 f i RFIDScanner.obj
 0001:0000ede0       ?CreateInstance@?$CComCreator@V?$CComObject@VCOPOSRFIDScanner@@@ATL@@@ATL@@SGJPAXABU_GUID@@PAPAX@Z 1000fde0 f i RFIDScanner.obj
 0001:0000ef70       ?CreateInstance@?$CComObject@V?$CComEnum@UIEnumConnectionPoints@@$1?_GUID_b196b285_bab4_101a_b69c_00aa00341d07@@3U__s_GUID@@BPAUIConnectionPoint@@V?$_CopyInterface@UIConnectionPoint@@@ATL@@VCComSingleThreadModel@6@@ATL@@@ATL@@SGJPAPAV12@@Z 1000ff70 f i RFIDScanner.obj
 0001:0000f0e0       ?CreateInstance@?$CComObject@V?$CComEnum@UIEnumConnections@@$1?_GUID_b196b287_bab4_101a_b69c_00aa00341d07@@3U__s_GUID@@BUtagCONNECTDATA@@V?$_Copy@UtagCONNECTDATA@@@ATL@@VCComSingleThreadModel@6@@ATL@@@ATL@@SGJPAPAV12@@Z 100100e0 f i RFIDScanner.obj
 0001:0000f250       ?CreateInstance@CComClassFactory@ATL@@UAGJPAUIUnknown@@ABU_GUID@@PAPAX@Z 10010250 f i RFIDScanner.obj
 0001:0000f340       ?DAdvise@?$IDataObjectImpl@VCOPOSRFIDScanner@@@ATL@@UAGJPAUtagFORMATETC@@KPAUIAdviseSink@@PAK@Z 10010340 f i RFIDScanner.obj
 0001:0000f440       ?DEVMODEOLE2T_EX@@YAPAU_devicemodeW@@PAU1@@Z 10010440 f i RFIDScanner.obj
 0001:0000f450       ?DUnadvise@?$IDataObjectImpl@VCOPOSRFIDScanner@@@ATL@@UAGJK@Z 10010450 f i RFIDScanner.obj
 0001:0000f520       ?Decrement@CComMultiThreadModel@ATL@@SGKPAJ@Z 10010520 f i RFIDScanner.obj
 0001:0000f540       ?Decrement@CComSingleThreadModel@ATL@@SGKPAJ@Z 10010540 f i RFIDScanner.obj
 0001:0000f560       ?DefWindowProcW@?$CWindowImplBaseT@VCWindow@ATL@@V?$CWinTraits@$0FGAAAAAA@$0A@@2@@ATL@@QAEJIIJ@Z 10010560 f i RFIDScanner.obj
 0001:0000f5b0       ?DefaultReflectionHandler@?$CWindowImplRoot@VCWindow@ATL@@@ATL@@SAHPAUHWND__@@IIJAAJ@Z 100105b0 f i RFIDScanner.obj
 0001:0000f7a0       ?DeleteSubKey@CRegKey@ATL@@QAEJPB_W@Z 100107a0 f i RFIDScanner.obj
 0001:0000f8b0       ?DeleteValue@CRegKey@ATL@@QAEJPB_W@Z 100108b0 f i RFIDScanner.obj
 0001:0000f920       ?Detach@?$CAutoVectorPtr@_W@ATL@@QAEPA_WXZ 10010920 f i RFIDScanner.obj
 0001:0000f950       ?Detach@?$CComPtrBase@UIPersistStream@@@ATL@@QAEPAUIPersistStream@@XZ 10010950 f i RFIDScanner.obj
 0001:0000f980       ?Detach@?$CComPtrBase@UITypeInfo@@@ATL@@QAEPAUITypeInfo@@XZ 10010980 f i RFIDScanner.obj
 0001:0000f9b0       ?Detach@?$CComPtrBase@UIUnknown@@@ATL@@QAEPAUIUnknown@@XZ 100109b0 f i RFIDScanner.obj
 0001:0000f9e0       ?Detach@CComBSTR@ATL@@QAEPA_WXZ 100109e0 f i RFIDScanner.obj
 0001:0000fa10       ?Detach@CParseBuffer@CRegParser@ATL@@QAEPA_WXZ 10010a10 f i RFIDScanner.obj
 0001:0000fa60       ?Detach@CRegKey@ATL@@QAEPAUHKEY__@@XZ 10010a60 f i RFIDScanner.obj
 0001:0000fab0       ?DoEvent@COPOSRFIDScanner@@IAEXIIJ@Z 10010ab0 f i RFIDScanner.obj
 0001:0000fbf0       ?DoVerb@?$IOleObjectImpl@VCOPOSRFIDScanner@@@ATL@@UAGJJPAUtagMSG@@PAUIOleClientSite@@JPAUHWND__@@PBUtagRECT@@@Z 10010bf0 f i RFIDScanner.obj
 0001:0000fe00       ?DoVerbDiscardUndo@?$IOleObjectImpl@VCOPOSRFIDScanner@@@ATL@@QAEJPBUtagRECT@@PAUHWND__@@@Z 10010e00 f i RFIDScanner.obj
 0001:0000fe70       ?DoVerbHide@?$IOleObjectImpl@VCOPOSRFIDScanner@@@ATL@@QAEJPBUtagRECT@@PAUHWND__@@@Z 10010e70 f i RFIDScanner.obj
 0001:0000ff20       ?DoVerbInPlaceActivate@?$IOleObjectImpl@VCOPOSRFIDScanner@@@ATL@@QAEJPBUtagRECT@@PAUHWND__@@@Z 10010f20 f i RFIDScanner.obj
 0001:0000ffc0       ?DoVerbOpen@?$IOleObjectImpl@VCOPOSRFIDScanner@@@ATL@@QAEJPBUtagRECT@@PAUHWND__@@@Z 10010fc0 f i RFIDScanner.obj
 0001:00010030       ?DoVerbPrimary@?$IOleObjectImpl@VCOPOSRFIDScanner@@@ATL@@QAEJPBUtagRECT@@PAUHWND__@@@Z 10011030 f i RFIDScanner.obj
 0001:00010140       ?DoVerbProperties@CComControlBase@ATL@@QAEJPBUtagRECT@@PAUHWND__@@@Z 10011140 f i RFIDScanner.obj
 0001:00010460       ?DoVerbShow@?$IOleObjectImpl@VCOPOSRFIDScanner@@@ATL@@QAEJPBUtagRECT@@PAUHWND__@@@Z 10011460 f i RFIDScanner.obj
 0001:000104f0       ?DoVerbUIActivate@?$IOleObjectImpl@VCOPOSRFIDScanner@@@ATL@@QAEJPBUtagRECT@@PAUHWND__@@@Z 100114f0 f i RFIDScanner.obj
 0001:00010590       ?DoesVerbActivate@CComControlBase@ATL@@QAEHJ@Z 10011590 f i RFIDScanner.obj
 0001:00010600       ?DoesVerbUIActivate@CComControlBase@ATL@@QAEHJ@Z 10011600 f i RFIDScanner.obj
 0001:00010680       ?Draw@?$IViewObjectExImpl@VCOPOSRFIDScanner@@@ATL@@UAGJKJPAXPAUtagDVTARGETDEVICE@@PAUHDC__@@2PBU_RECTL@@3P6GHK@ZK@Z 10011680 f i RFIDScanner.obj
 0001:00010720       ?Empty@CComBSTR@ATL@@QAEXXZ 10011720 f i RFIDScanner.obj
 0001:00010760       ?EnableModeless@?$IOleInPlaceActiveObjectImpl@VCOPOSRFIDScanner@@@ATL@@UAGJH@Z 10011760 f i RFIDScanner.obj
 0001:000107c0       ?EndOfVar@CRegParser@ATL@@IAEHXZ 100117c0 f i RFIDScanner.obj
 0001:00010830       ?EnsureTI@CComTypeInfoHolder@ATL@@QAEJK@Z 10011830 f i RFIDScanner.obj
 0001:00010890       ?EnumAdvise@?$IOleObjectImpl@VCOPOSRFIDScanner@@@ATL@@UAGJPAPAUIEnumSTATDATA@@@Z 10011890 f i RFIDScanner.obj
 0001:000109a0       ?EnumConnectionPoints@?$IConnectionPointContainerImpl@VCOPOSRFIDScanner@@@ATL@@UAGJPAPAUIEnumConnectionPoints@@@Z 100119a0 f i RFIDScanner.obj
 0001:00010dd0       ?EnumConnections@?$IConnectionPointImpl@VCOPOSRFIDScanner@@$1?DIID__IOPOSRFIDScannerEvents@@3U_GUID@@BVCComDynamicUnkArray@ATL@@@ATL@@UAGJPAPAUIEnumConnections@@@Z 10011dd0 f i RFIDScanner.obj
 0001:00011020       ?EnumConnections@?$IConnectionPointImpl@VCOPOSRFIDScanner@@$1?IID_IPropertyNotifySink@@3U_GUID@@BVCComDynamicUnkArray@ATL@@@ATL@@UAGJPAPAUIEnumConnections@@@Z 10012020 f i RFIDScanner.obj
 0001:00011270       ?EnumDAdvise@?$IDataObjectImpl@VCOPOSRFIDScanner@@@ATL@@UAGJPAPAUIEnumSTATDATA@@@Z 10012270 f i RFIDScanner.obj
 0001:00011370       ?EnumFormatEtc@?$IDataObjectImpl@VCOPOSRFIDScanner@@@ATL@@UAGJKPAPAUIEnumFORMATETC@@@Z 10012370 f i RFIDScanner.obj
 0001:000113e0       ?EnumVerbs@?$IOleObjectImpl@VCOPOSRFIDScanner@@@ATL@@UAGJPAPAUIEnumOLEVERB@@@Z 100123e0 f i RFIDScanner.obj
 0001:00011490       ?EscapeSingleQuote@CAtlModule@ATL@@SAXPA_WIPB_W@Z 10012490 f i RFIDScanner.obj
 0001:00011540       ?ExtractCreateWndData@CAtlWinModule@ATL@@QAEPAXXZ 10012540 f i RFIDScanner.obj
 0001:00011570       ?FAccessAllowed@?$IObjectSafetyImpl@VCOPOSRFIDScanner@@$02@ATL@@MAEHXZ 10012570 f i RFIDScanner.obj
 0001:00011590       ?FinalConstruct@?$CComAggObject@VCOPOSRFIDScanner@@@ATL@@QAEJXZ 10012590 f i RFIDScanner.obj
 0001:000115d0       ?FinalConstruct@CComObjectRootBase@ATL@@QAEJXZ 100125d0 f i RFIDScanner.obj
 0001:000115f0       ?FinalConstruct@CRegObject@ATL@@QAEJXZ 100125f0 f i RFIDScanner.obj
 0001:00011620       ?FinalRelease@?$CComAggObject@VCOPOSRFIDScanner@@@ATL@@QAEXXZ 10012620 f i RFIDScanner.obj
 0001:00011660       ?FinalRelease@CComObjectRootBase@ATL@@QAEXXZ 10012660 f i RFIDScanner.obj
 0001:00011680       ?FindConnectionPoint@?$IConnectionPointContainerImpl@VCOPOSRFIDScanner@@@ATL@@UAGJABU_GUID@@PAPAUIConnectionPoint@@@Z 10012680 f i RFIDScanner.obj
 0001:000117d0       ?FindKey@?$CSimpleMap@PA_WPA_WVCExpansionVectorEqualHelper@ATL@@@ATL@@QBEHABQA_W@Z 100127d0 f i RFIDScanner.obj
 0001:00011840       ?FireTheEvent@?$CProxy_IOPOSEvents@VCOPOSRFIDScanner@@@@IAEXPAUIUnknown@@PAVOposVariant@@IAAJPB_WJ@Z 10012840 f i RFIDScanner.obj
 0001:000119b0       ?FireViewChange@CComControlBase@ATL@@QAEJXZ 100129b0 f i RFIDScanner.obj
 0001:00011a70       ?Fire_DataEvent@?$CProxy_IOPOSEvents@VCOPOSRFIDScanner@@@@QAEXJ@Z 10012a70 f i RFIDScanner.obj
 0001:00011bd0       ?Fire_DirectIOEvent@?$CProxy_IOPOSEvents@VCOPOSRFIDScanner@@@@QAEXJPAJPAPA_W@Z 10012bd0 f i RFIDScanner.obj
 0001:00011da0       ?Fire_ErrorEvent@?$CProxy_IOPOSEvents@VCOPOSRFIDScanner@@@@QAEXJJJPAJ@Z 10012da0 f i RFIDScanner.obj
 0001:00011f90       ?Fire_OutputCompleteEvent@?$CProxy_IOPOSEvents@VCOPOSRFIDScanner@@@@QAEXJ@Z 10012f90 f i RFIDScanner.obj
 0001:000120f0       ?Fire_StatusUpdateEvent@?$CProxy_IOPOSEvents@VCOPOSRFIDScanner@@@@QAEXJ@Z 100130f0 f i RFIDScanner.obj
 0001:00012250       ?FormatWindowClassName@AtlModuleRegisterWndClassInfoParamW@ATL@@SAXPA_WKPAX@Z 10013250 f i RFIDScanner.obj
 0001:00012280       ?Free@?$CAutoVectorPtr@_W@ATL@@QAEXXZ 10013280 f i RFIDScanner.obj
 0001:000122d0       ?FreeHeap@?$CTempBuffer@E$0BAA@VCCRTAllocator@ATL@@@ATL@@AAEXXZ 100132d0 f i RFIDScanner.obj
 0001:00012300       ?FreeHeap@?$CTempBuffer@_W$0BAA@VCCRTAllocator@ATL@@@ATL@@AAEXXZ 10013300 f i RFIDScanner.obj
 0001:00012330       ?FreeHeap@?$CTempBuffer@_W$0EAA@VCCRTAllocator@ATL@@@ATL@@AAEXXZ 10013330 f i RFIDScanner.obj
 0001:00012360       ?Freeze@?$IViewObjectExImpl@VCOPOSRFIDScanner@@@ATL@@UAGJKJPAXPAK@Z 10013360 f i RFIDScanner.obj
 0001:000123d0       ?GenerateError@CRegParser@ATL@@IAEJI@Z 100133d0 f i RFIDScanner.obj
 0001:000123f0       ?GetAdvise@?$IViewObjectExImpl@VCOPOSRFIDScanner@@@ATL@@UAGJPAK0PAPAUIAdviseSink@@@Z 100133f0 f i RFIDScanner.obj
 0001:000124f0       ?GetAmbientLocaleID@CComControlBase@ATL@@QAEJAAK@Z 100134f0 f i RFIDScanner.obj
 0001:000125d0       ?GetAmbientProperty@CComControlBase@ATL@@QAEJJAAUtagVARIANT@@@Z 100135d0 f i RFIDScanner.obj
 0001:00012620       ?GetAmbientUserMode@CComControlBase@ATL@@QAEJAAH@Z 10013620 f i RFIDScanner.obj
 0001:00012720       ?GetAppId@?$CAtlModuleT@VCComModule@ATL@@@ATL@@SAPB_WXZ 10013720 f i RFIDScanner.obj
 0001:00012730       ?GetAt@CComDynamicUnkArray@ATL@@QAEPAUIUnknown@@H@Z 10013730 f i RFIDScanner.obj
 0001:000127b0       ?GetCanonicalFormatEtc@?$IDataObjectImpl@VCOPOSRFIDScanner@@@ATL@@UAGJPAUtagFORMATETC@@0@Z 100137b0 f i RFIDScanner.obj
 0001:00012820       ?GetClassID@?$IPersistStorageImpl@VCOPOSRFIDScanner@@@ATL@@UAGJPAU_GUID@@@Z 10013820 f i RFIDScanner.obj
 0001:000128a0       ?GetClassID@?$IPersistStreamInitImpl@VCOPOSRFIDScanner@@@ATL@@UAGJPAU_GUID@@@Z 100138a0 f i RFIDScanner.obj
 0001:00012920       ?GetClassInfoExW@AtlModuleRegisterWndClassInfoParamW@ATL@@SAHPAUHINSTANCE__@@PB_WPAUtagWNDCLASSEXW@@@Z 10013920 f i RFIDScanner.obj
 0001:00012950       ?GetClassInfoW@?$IProvideClassInfo2Impl@$1?CLSID_OPOSRFIDScanner@@3U_GUID@@B$1?DIID__IOPOSRFIDScannerEvents@@3U2@B$1?LIBID_OposRFIDScanner_CCO@@3U2@B$00$0A@VCComTypeInfoHolder@ATL@@@ATL@@UAGJPAPAUITypeInfo@@@Z 10013950 f i RFIDScanner.obj
 0001:00012970       ?GetClassObject@CComModule@ATL@@QAEJABU_GUID@@0PAPAX@Z 10013970 f i RFIDScanner.obj
 0001:00012b70       ?GetClientSite@?$IOleObjectImpl@VCOPOSRFIDScanner@@@ATL@@UAGJPAPAUIOleClientSite@@@Z 10013b70 f i RFIDScanner.obj
 0001:00012c00       ?GetClipboardData@?$IOleObjectImpl@VCOPOSRFIDScanner@@@ATL@@UAGJKPAPAUIDataObject@@@Z 10013c00 f i RFIDScanner.obj
 0001:00012c70       ?GetCodeAddress@CDynamicStdCallThunk2@ATL@@QAEPAXXZ 10013c70 f i RFIDScanner.obj
 0001:00012ca0       ?GetColorSet@?$IViewObjectExImpl@VCOPOSRFIDScanner@@@ATL@@UAGJKJPAXPAUtagDVTARGETDEVICE@@PAUHDC__@@PAPAUtagLOGPALETTE@@@Z 10013ca0 f i RFIDScanner.obj
 0001:00012d10       ?GetConnMap@COPOSRFIDScanner@@SAPBU_ATL_CONNMAP_ENTRY@ATL@@PAH@Z 10013d10 f i RFIDScanner.obj
 0001:00012e50       ?GetConnectionInterface@?$IConnectionPointImpl@VCOPOSRFIDScanner@@$1?DIID__IOPOSRFIDScannerEvents@@3U_GUID@@BVCComDynamicUnkArray@ATL@@@ATL@@UAGJPAU_GUID@@@Z 10013e50 f i RFIDScanner.obj
 0001:00012e90       ?GetConnectionInterface@?$IConnectionPointImpl@VCOPOSRFIDScanner@@$1?IID_IPropertyNotifySink@@3U_GUID@@BVCComDynamicUnkArray@ATL@@@ATL@@UAGJPAU_GUID@@@Z 10013e90 f i RFIDScanner.obj
 0001:00012ed0       ?GetConnectionPointContainer@?$IConnectionPointImpl@VCOPOSRFIDScanner@@$1?DIID__IOPOSRFIDScannerEvents@@3U_GUID@@BVCComDynamicUnkArray@ATL@@@ATL@@UAGJPAPAUIConnectionPointContainer@@@Z 10013ed0 f i RFIDScanner.obj
 0001:00012f40       ?GetConnectionPointContainer@?$IConnectionPointImpl@VCOPOSRFIDScanner@@$1?IID_IPropertyNotifySink@@3U_GUID@@BVCComDynamicUnkArray@ATL@@@ATL@@UAGJPAPAUIConnectionPointContainer@@@Z 10013f40 f i RFIDScanner.obj
 0001:00012fb0       ?GetContentExtent@?$IQuickActivateImpl@VCOPOSRFIDScanner@@@ATL@@UAGJPAUtagSIZE@@@Z 10013fb0 f i RFIDScanner.obj
 0001:00013040       ?GetControlInfo@?$IOleControlImpl@VCOPOSRFIDScanner@@@ATL@@UAGJPAUtagCONTROLINFO@@@Z 10014040 f i RFIDScanner.obj
 0001:000130b0       ?GetCookie@CComDynamicUnkArray@ATL@@QAGKPAPAUIUnknown@@@Z 100140b0 f i RFIDScanner.obj
 0001:00013170       ?GetData@?$IDataObjectImpl@VCOPOSRFIDScanner@@@ATL@@UAGJPAUtagFORMATETC@@PAUtagSTGMEDIUM@@@Z 10014170 f i RFIDScanner.obj
 0001:00013200       ?GetData@CAtlSafeAllocBufferNode@?$CAtlSafeAllocBufferManager@VCCRTAllocator@ATL@@@_ATL_SAFE_ALLOCA_IMPL@ATL@@QAEPAXXZ 10014200 f i RFIDScanner.obj
 0001:00013220       ?GetDataHere@?$IDataObjectImpl@VCOPOSRFIDScanner@@@ATL@@UAGJPAUtagFORMATETC@@PAUtagSTGMEDIUM@@@Z 10014220 f i RFIDScanner.obj
 0001:00013290       ?GetDropTarget@?$IOleInPlaceObjectWindowlessImpl@VCOPOSRFIDScanner@@@ATL@@UAGJPAPAUIDropTarget@@@Z 10014290 f i RFIDScanner.obj
 0001:00013300       ?GetExtent@?$IOleObjectImpl@VCOPOSRFIDScanner@@@ATL@@UAGJKPAUtagSIZE@@@Z 10014300 f i RFIDScanner.obj
 0001:000133a0       ?GetExtent@?$IViewObjectExImpl@VCOPOSRFIDScanner@@@ATL@@UAGJKJPAUtagDVTARGETDEVICE@@PAUtagSIZE@@@Z 100143a0 f i RFIDScanner.obj
 0001:00013470       ?GetGITPtr@CAtlModule@ATL@@UAEJPAPAUIGlobalInterfaceTable@@@Z 10014470 f i RFIDScanner.obj
 0001:00013570       ?GetGUID@?$IProvideClassInfo2Impl@$1?CLSID_OPOSRFIDScanner@@3U_GUID@@B$1?DIID__IOPOSRFIDScannerEvents@@3U2@B$1?LIBID_OposRFIDScanner_CCO@@3U2@B$00$0A@VCComTypeInfoHolder@ATL@@@ATL@@UAGJKPAU_GUID@@@Z 10014570 f i RFIDScanner.obj
 0001:000135f0       ?GetIDsOfNames@?$IDispatchImpl@UIOPOSRFIDScanner@@$1?IID_IOPOSRFIDScanner@@3U_GUID@@B$1?LIBID_OposRFIDScanner_CCO@@3U3@B$00$0A@VCComTypeInfoHolder@ATL@@@ATL@@UAGJABU_GUID@@PAPA_WIKPAJ@Z 100145f0 f i RFIDScanner.obj
 0001:00013620       ?GetIDsOfNames@CComTypeInfoHolder@ATL@@QAEJABU_GUID@@PAPA_WIKPAJ@Z 10014620 f i RFIDScanner.obj
 0001:000137d0       ?GetInterfaceSafetyOptions@?$IObjectSafetyImpl@VCOPOSRFIDScanner@@$02@ATL@@UAGJABU_GUID@@PAK1@Z 100147d0 f i RFIDScanner.obj
 0001:00013940       ?GetKeyAt@?$CSimpleMap@PA_WPA_WVCExpansionVectorEqualHelper@ATL@@@ATL@@QBEAAPA_WH@Z 10014940 f i RFIDScanner.obj
 0001:000139c0       ?GetLockCount@CAtlModule@ATL@@UAEJXZ 100149c0 f i RFIDScanner.obj
 0001:000139e0       ?GetMiscStatus@?$IOleObjectImpl@VCOPOSRFIDScanner@@@ATL@@UAGJKPAK@Z 100149e0 f i RFIDScanner.obj
 0001:00013a50       ?GetMoniker@?$IOleObjectImpl@VCOPOSRFIDScanner@@@ATL@@UAGJKKPAPAUIMoniker@@@Z 10014a50 f i RFIDScanner.obj
 0001:00013ac0       ?GetNaturalExtent@?$IViewObjectExImpl@VCOPOSRFIDScanner@@@ATL@@UAGJKJPAUtagDVTARGETDEVICE@@PAUHDC__@@PAUtagExtentInfo@@PAUtagSIZE@@@Z 10014ac0 f i RFIDScanner.obj
 0001:00013be0       ?GetObjectCLSID@?$CComCoClass@VCOPOSRFIDScanner@@$1?CLSID_OPOSRFIDScanner@@3U_GUID@@B@ATL@@SGABU_GUID@@XZ 10014be0 f i RFIDScanner.obj
 0001:00013bf0       ?GetPages@?$ISpecifyPropertyPagesImpl@VCOPOSRFIDScanner@@@ATL@@UAGJPAUtagCAUUID@@@Z 10014bf0 f i RFIDScanner.obj
 0001:00013c60       ?GetPagesHelper@?$ISpecifyPropertyPagesImpl@VCOPOSRFIDScanner@@@ATL@@IAEJPAUtagCAUUID@@PBUATL_PROPMAP_ENTRY@2@@Z 10014c60 f i RFIDScanner.obj
 0001:00013e60       ?GetProperty@?$CComPtr@UIDispatch@@@ATL@@QAEJJPAUtagVARIANT@@@Z 10014e60 f i RFIDScanner.obj
 0001:00013ea0       ?GetProperty@?$CComPtr@UIDispatch@@@ATL@@SAJPAUIDispatch@@JPAUtagVARIANT@@@Z 10014ea0 f i RFIDScanner.obj
 0001:00014000       ?GetPropertyMap@COPOSRFIDScanner@@SAPBUATL_PROPMAP_ENTRY@ATL@@XZ 10015000 f i RFIDScanner.obj
 0001:00014010       ?GetRect@?$IViewObjectExImpl@VCOPOSRFIDScanner@@@ATL@@UAGJKPAU_RECTL@@@Z 10015010 f i RFIDScanner.obj
 0001:00014080       ?GetSize@?$CSimpleMap@PA_WPA_WVCExpansionVectorEqualHelper@ATL@@@ATL@@QBEHXZ 10015080 f i RFIDScanner.obj
 0001:000140a0       ?GetSize@CComDynamicUnkArray@ATL@@QBEHXZ 100150a0 f i RFIDScanner.obj
 0001:000140c0       ?GetSizeMax@?$IPersistStreamInitImpl@VCOPOSRFIDScanner@@@ATL@@UAGJPAT_ULARGE_INTEGER@@@Z 100150c0 f i RFIDScanner.obj
 0001:00014630       ?GetSizeMax@CComVariant@ATL@@QBEJPAT_ULARGE_INTEGER@@@Z 10015630 f i RFIDScanner.obj
 0001:00014990       ?GetStreamSize@CComBSTR@ATL@@SAKPA_W@Z 10015990 f i RFIDScanner.obj
 0001:000149e0       ?GetTI@CComTypeInfoHolder@ATL@@QAEJK@Z 100159e0 f i RFIDScanner.obj
 0001:000151f0       ?GetTI@CComTypeInfoHolder@ATL@@QAEJKPAPAUITypeInfo@@@Z 100161f0 f i RFIDScanner.obj
 0001:000152b0       ?GetTypeInfo@?$IDispatchImpl@UIOPOSRFIDScanner@@$1?IID_IOPOSRFIDScanner@@3U_GUID@@B$1?LIBID_OposRFIDScanner_CCO@@3U3@B$00$0A@VCComTypeInfoHolder@ATL@@@ATL@@UAGJIKPAPAUITypeInfo@@@Z 100162b0 f i RFIDScanner.obj
 0001:000152e0       ?GetTypeInfo@CComTypeInfoHolder@ATL@@QAEJIKPAPAUITypeInfo@@@Z 100162e0 f i RFIDScanner.obj
 0001:00015320       ?GetTypeInfoCount@?$IDispatchImpl@UIOPOSRFIDScanner@@$1?IID_IOPOSRFIDScanner@@3U_GUID@@B$1?LIBID_OposRFIDScanner_CCO@@3U3@B$00$0A@VCComTypeInfoHolder@ATL@@@ATL@@UAGJPAI@Z 10016320 f i RFIDScanner.obj
 0001:00015340       ?GetUnknown@CComDynamicUnkArray@ATL@@QAGPAUIUnknown@@K@Z 10016340 f i RFIDScanner.obj
 0001:000153b0       ?GetUnknown@COPOSRFIDScanner@@QAEPAUIUnknown@@XZ 100163b0 f i RFIDScanner.obj
 0001:000153e0       ?GetUserClassID@?$IOleObjectImpl@VCOPOSRFIDScanner@@@ATL@@UAGJPAU_GUID@@@Z 100163e0 f i RFIDScanner.obj
 0001:00015490       ?GetUserType@?$IOleObjectImpl@VCOPOSRFIDScanner@@@ATL@@UAGJKPAPA_W@Z 10016490 f i RFIDScanner.obj
 0001:00015500       ?GetValueAt@?$CSimpleMap@PA_WPA_WVCExpansionVectorEqualHelper@ATL@@@ATL@@QBEAAPA_WH@Z 10016500 f i RFIDScanner.obj
 0001:00015580       ?GetViewStatus@?$IViewObjectExImpl@VCOPOSRFIDScanner@@@ATL@@UAGJPAK@Z 10016580 f i RFIDScanner.obj
 0001:00015640       ?GetWNDPROC@CWndProcThunk@ATL@@QAEP6GJPAUHWND__@@IIJ@ZXZ 10016640 f i RFIDScanner.obj
 0001:00015670       ?GetWindow@?$IOleInPlaceActiveObjectImpl@VCOPOSRFIDScanner@@@ATL@@UAGJPAPAUHWND__@@@Z 10016670 f i RFIDScanner.obj
 0001:00015740       ?GetWindow@?$IOleInPlaceObjectWindowlessImpl@VCOPOSRFIDScanner@@@ATL@@UAGJPAPAUHWND__@@@Z 10016740 f i RFIDScanner.obj
 0001:00015810       ?GetWindowLongPtrW@@YAJPAUHWND__@@H@Z 10016810 f i RFIDScanner.obj
 0001:00015840       ?GetWindowProc@?$CWindowImplBaseT@VCWindow@ATL@@V?$CWinTraits@$0FGAAAAAA@$0A@@2@@ATL@@UAEP6GJPAUHWND__@@IIJ@ZXZ 10016840 f i RFIDScanner.obj
 0001:00015860       ?GetWndCaption@?$CWindowImpl@VCOPOSRFIDScanner@@VCWindow@ATL@@V?$CWinTraits@$0FGAAAAAA@$0A@@3@@ATL@@SAPB_WXZ 10016860 f i RFIDScanner.obj
 0001:00015870       ?GetWndClassInfo@?$CWindowImpl@VCOPOSRFIDScanner@@VCWindow@ATL@@V?$CWinTraits@$0FGAAAAAA@$0A@@3@@ATL@@SAAAU_ATL_WNDCLASSINFOW@2@XZ 10016870 f i RFIDScanner.obj
 0001:00015880       ?GetWndClassName@CWindow@ATL@@SAPB_WXZ 10016880 f i RFIDScanner.obj
 0001:00015890       ?GetWndExStyle@?$CWinTraits@$0FGAAAAAA@$0A@@ATL@@SAKK@Z 10016890 f i RFIDScanner.obj
 0001:000158c0       ?GetWndExStyle@?$CWindowImplBaseT@VCWindow@ATL@@V?$CWinTraits@$0FGAAAAAA@$0A@@2@@ATL@@SAKK@Z 100168c0 f i RFIDScanner.obj
 0001:000158e0       ?GetWndStyle@?$CWinTraits@$0FGAAAAAA@$0A@@ATL@@SAKK@Z 100168e0 f i RFIDScanner.obj
 0001:00015910       ?GetWndStyle@?$CWindowImplBaseT@VCWindow@ATL@@V?$CWinTraits@$0FGAAAAAA@$0A@@2@@ATL@@SAKK@Z 10016910 f i RFIDScanner.obj
 0001:00015930       ?GetZoomInfo@CComControlBase@ATL@@QAEXAAUATL_DRAWINFO@@@Z 10016930 f i RFIDScanner.obj
 0001:00015aa0       ?HKeyFromString@CRegParser@ATL@@KAPAUHKEY__@@PA_W@Z 10016aa0 f i RFIDScanner.obj
 0001:00015b10       ?HandsOffStorage@?$IPersistStorageImpl@VCOPOSRFIDScanner@@@ATL@@UAGJXZ 10016b10 f i RFIDScanner.obj
 0001:00015b70       ?HasSubKeys@CRegParser@ATL@@IAEHPAUHKEY__@@@Z 10016b70 f i RFIDScanner.obj
 0001:00015c80       ?IDataObject_GetData@CComControlBase@ATL@@QAEJPAUtagFORMATETC@@PAUtagSTGMEDIUM@@@Z 10016c80 f i RFIDScanner.obj
 0001:000160a0       ?IOleInPlaceObject_InPlaceDeactivate@CComControlBase@ATL@@QAEJXZ 100170a0 f i RFIDScanner.obj
 0001:000162a0       ?IOleInPlaceObject_SetObjectRects@CComControlBase@ATL@@QAEJPBUtagRECT@@0@Z 100172a0 f i RFIDScanner.obj
 0001:00016460       ?IOleInPlaceObject_UIDeactivate@CComControlBase@ATL@@QAEJXZ 10017460 f i RFIDScanner.obj
 0001:000166d0       ?IOleObject_Advise@CComControlBase@ATL@@QAEJPAUIAdviseSink@@PAK@Z 100176d0 f i RFIDScanner.obj
 0001:00016780       ?IOleObject_Close@CComControlBase@ATL@@QAEJK@Z 10017780 f i RFIDScanner.obj
 0001:00016a30       ?IOleObject_GetClientSite@CComControlBase@ATL@@QAEJPAPAUIOleClientSite@@@Z 10017a30 f i RFIDScanner.obj
 0001:00016ad0       ?IOleObject_SetClientSite@CComControlBase@ATL@@QAEJPAUIOleClientSite@@@Z 10017ad0 f i RFIDScanner.obj
 0001:00016ba0       ?IOleObject_SetExtent@CComControlBase@ATL@@QAEJKPAUtagSIZE@@@Z 10017ba0 f i RFIDScanner.obj
 0001:00016ce0       ?IPSI_GetIPersistStreamInit@?$IPersistStorageImpl@VCOPOSRFIDScanner@@@ATL@@AAEPAUIPersistStreamInit@@XZ 10017ce0 f i RFIDScanner.obj
 0001:00016db0       ?IPersistStreamInit_Load@?$IPersistStreamInitImpl@VCOPOSRFIDScanner@@@ATL@@QAEJPAUIStream@@PBUATL_PROPMAP_ENTRY@2@@Z 10017db0 f i RFIDScanner.obj
 0001:00016e30       ?IPersistStreamInit_Save@?$IPersistStreamInitImpl@VCOPOSRFIDScanner@@@ATL@@QAEJPAUIStream@@HPBUATL_PROPMAP_ENTRY@2@@Z 10017e30 f i RFIDScanner.obj
 0001:00016ec0       ?IQuickActivate_QuickActivate@CComControlBase@ATL@@QAEJPAUtagQACONTAINER@@PAUtagQACONTROL@@@Z 10017ec0 f i RFIDScanner.obj
 0001:00017510       ?IViewObject_Draw@CComControlBase@ATL@@QAEJKJPAXPAUtagDVTARGETDEVICE@@PAUHDC__@@2PBU_RECTL@@3@Z 10018510 f i RFIDScanner.obj
 0001:000177b0       ?InPlaceActivate@CComControlBase@ATL@@QAEJJPBUtagRECT@@@Z 100187b0 f i RFIDScanner.obj
 0001:00018140       ?InPlaceDeactivate@?$IOleInPlaceObjectWindowlessImpl@VCOPOSRFIDScanner@@@ATL@@UAGJXZ 10019140 f i RFIDScanner.obj
 0001:000181c0       ?Increment@CComMultiThreadModel@ATL@@SGKPAJ@Z 100191c0 f i RFIDScanner.obj
 0001:000181e0       ?Increment@CComSingleThreadModel@ATL@@SGKPAJ@Z 100191e0 f i RFIDScanner.obj
 0001:00018200       ?Init@?$CComEnumImpl@UIEnumConnectionPoints@@$1?_GUID_b196b285_bab4_101a_b69c_00aa00341d07@@3U__s_GUID@@BPAUIConnectionPoint@@V?$_CopyInterface@UIConnectionPoint@@@ATL@@@ATL@@QAEJPAPAUIConnectionPoint@@0PAUIUnknown@@W4CComEnumFlags@2@@Z 10019200 f i RFIDScanner.obj
 0001:000183e0       ?Init@?$CComEnumImpl@UIEnumConnections@@$1?_GUID_b196b287_bab4_101a_b69c_00aa00341d07@@3U__s_GUID@@BUtagCONNECTDATA@@V?$_Copy@UtagCONNECTDATA@@@ATL@@@ATL@@QAEJPAUtagCONNECTDATA@@0PAUIUnknown@@W4CComEnumFlags@2@@Z 100193e0 f i RFIDScanner.obj
 0001:000185c0       ?Init@CComFakeCriticalSection@ATL@@QAEJXZ 100195c0 f i RFIDScanner.obj
 0001:000185e0       ?Init@CComModule@ATL@@QAEJPAU_ATL_OBJMAP_ENTRY30@2@PAUHINSTANCE__@@PBU_GUID@@@Z 100195e0 f i RFIDScanner.obj
 0001:000186d0       ?Init@CComSafeDeleteCriticalSection@ATL@@QAEJXZ 100196d0 f i RFIDScanner.obj
 0001:00018750       ?Init@CDynamicStdCallThunk2@ATL@@QAEHKPAX@Z 10019750 f i RFIDScanner.obj
 0001:000187b0       ?Init@CWndProcThunk@ATL@@QAEHP6GJPAUHWND__@@IIJ@ZPAX@Z 100197b0 f i RFIDScanner.obj
 0001:000187f0       ?InitFromData@?$IOleObjectImpl@VCOPOSRFIDScanner@@@ATL@@UAGJPAUIDataObject@@HK@Z 100197f0 f i RFIDScanner.obj
 0001:00018860       ?InitLibId@?$CAtlModuleT@VCComModule@ATL@@@ATL@@SAXXZ 10019860 f i RFIDScanner.obj
 0001:00018870       ?InitNew@?$IPersistStorageImpl@VCOPOSRFIDScanner@@@ATL@@UAGJPAUIStorage@@@Z 10019870 f i RFIDScanner.obj
 0001:00018960       ?InitNew@?$IPersistStreamInitImpl@VCOPOSRFIDScanner@@@ATL@@UAGJXZ 10019960 f i RFIDScanner.obj
 0001:000189f0       ?InlineIsEqualUnknown@ATL@@YGHABU_GUID@@@Z 100199f0 f i RFIDScanner.obj
 0001:00018a60       ?InternalAddRef@?$CComObjectRootEx@VCComMultiThreadModel@ATL@@@ATL@@QAEKXZ 10019a60 f i RFIDScanner.obj
 0001:00018ac0       ?InternalAddRef@?$CComObjectRootEx@VCComSingleThreadModel@ATL@@@ATL@@QAEKXZ 10019ac0 f i RFIDScanner.obj
 0001:00018b20       ?InternalFinalConstructAddRef@CComObjectRootBase@ATL@@QAEXXZ 10019b20 f i RFIDScanner.obj
 0001:00018b40       ?InternalFinalConstructAddRef@COPOSRFIDScanner@@QAEXXZ 10019b40 f i RFIDScanner.obj
 0001:00018b70       ?InternalFinalConstructRelease@CComObjectRootBase@ATL@@QAEXXZ 10019b70 f i RFIDScanner.obj
 0001:00018bc0       ?InternalFinalConstructRelease@COPOSRFIDScanner@@QAEXXZ 10019bc0 f i RFIDScanner.obj
 0001:00018bf0       ?InternalGetSite@CComControlBase@ATL@@QAEJABU_GUID@@PAPAX@Z 10019bf0 f i RFIDScanner.obj
 0001:00018cb0       ?InternalQueryInterface@CComObjectRootBase@ATL@@SGJPAXPBU_ATL_INTMAP_ENTRY@2@ABU_GUID@@PAPAX@Z 10019cb0 f i RFIDScanner.obj
 0001:00018d70       ?InternalRelease@?$CComObjectRootEx@VCComMultiThreadModel@ATL@@@ATL@@QAEKXZ 10019d70 f i RFIDScanner.obj
 0001:00018de0       ?InternalRelease@?$CComObjectRootEx@VCComSingleThreadModel@ATL@@@ATL@@QAEKXZ 10019de0 f i RFIDScanner.obj
 0001:00018e50       ?InternalSetAtIndex@?$CSimpleArray@GV?$CSimpleArrayEqualHelper@G@ATL@@@ATL@@QAEXHABG@Z 10019e50 f i RFIDScanner.obj
 0001:00018ec0       ?InternalSetAtIndex@?$CSimpleMap@PA_WPA_WVCExpansionVectorEqualHelper@ATL@@@ATL@@QAEXHABQA_W0@Z 10019ec0 f i RFIDScanner.obj
 0001:00018f60       ?Invoke@?$IDispatchImpl@UIOPOSRFIDScanner@@$1?IID_IOPOSRFIDScanner@@3U_GUID@@B$1?LIBID_OposRFIDScanner_CCO@@3U3@B$00$0A@VCComTypeInfoHolder@ATL@@@ATL@@UAGJJABU_GUID@@KGPAUtagDISPPARAMS@@PAUtagVARIANT@@PAUtagEXCEPINFO@@PAI@Z 10019f60 f i RFIDScanner.obj
 0001:00018fa0       ?Invoke@CComTypeInfoHolder@ATL@@QAEJPAUIDispatch@@JABU_GUID@@KGPAUtagDISPPARAMS@@PAUtagVARIANT@@PAUtagEXCEPINFO@@PAI@Z 10019fa0 f i RFIDScanner.obj
 0001:00019030       ?IsDirty@?$IPersistStorageImpl@VCOPOSRFIDScanner@@@ATL@@UAGJXZ 1001a030 f i RFIDScanner.obj
 0001:00019120       ?IsDirty@?$IPersistStreamInitImpl@VCOPOSRFIDScanner@@@ATL@@UAGJXZ 1001a120 f i RFIDScanner.obj
 0001:000191c0       ?IsEqualKey@CExpansionVectorEqualHelper@ATL@@SA_NQA_W0@Z 1001a1c0 f i RFIDScanner.obj
 0001:000191f0       ?IsEqualObject@?$CComPtrBase@UIOleClientSite@@@ATL@@QAE_NPAUIUnknown@@@Z 1001a1f0 f i RFIDScanner.obj
 0001:00019320       ?IsEqualObject@?$CComPtrBase@UITypeInfo@@@ATL@@QAE_NPAUIUnknown@@@Z 1001a320 f i RFIDScanner.obj
 0001:00019450       ?IsSpace@CRegParser@ATL@@IAEH_W@Z 1001a450 f i RFIDScanner.obj
 0001:000194c0       ?IsUpToDate@?$IOleObjectImpl@VCOPOSRFIDScanner@@@ATL@@UAGJXZ 1001a4c0 f i RFIDScanner.obj
 0001:00019520       ?Length@CComBSTR@ATL@@QBEIXZ 1001a520 f i RFIDScanner.obj
 0001:00019560       ?Load@?$IPersistStorageImpl@VCOPOSRFIDScanner@@@ATL@@UAGJPAUIStorage@@@Z 1001a560 f i RFIDScanner.obj
 0001:000196c0       ?Load@?$IPersistStreamInitImpl@VCOPOSRFIDScanner@@@ATL@@UAGJPAUIStream@@@Z 1001a6c0 f i RFIDScanner.obj
 0001:00019750       ?LoadCursorW@AtlModuleRegisterWndClassInfoParamW@ATL@@SAPAUHICON__@@PAUHINSTANCE__@@PB_W@Z 1001a750 f i RFIDScanner.obj
 0001:00019780       ?LoadNameCache@CComTypeInfoHolder@ATL@@QAEJPAUITypeInfo@@@Z 1001a780 f i RFIDScanner.obj
 0001:00019a10       ?Lock@?$CComCritSecLock@VCComCriticalSection@ATL@@@ATL@@QAEJXZ 1001aa10 f i RFIDScanner.obj
 0001:00019ac0       ?Lock@?$CComObjectRootEx@VCComSingleThreadModel@ATL@@@ATL@@QAEXXZ 1001aac0 f i RFIDScanner.obj
 0001:00019ae0       ?Lock@CAtlModule@ATL@@UAEJXZ 1001aae0 f i RFIDScanner.obj
 0001:00019b10       ?Lock@CComCriticalSection@ATL@@QAEJXZ 1001ab10 f i RFIDScanner.obj
 0001:00019b50       ?Lock@CComFakeCriticalSection@ATL@@QAEJXZ 1001ab50 f i RFIDScanner.obj
 0001:00019b70       ?LockServer@CComClassFactory@ATL@@UAGJH@Z 1001ab70 f i RFIDScanner.obj
 0001:00019bd0       ?Lookup@?$CSimpleMap@PA_WPA_WVCExpansionVectorEqualHelper@ATL@@@ATL@@QBEPA_WABQA_W@Z 1001abd0 f i RFIDScanner.obj
 0001:00019c20       ?Next@?$CComEnumImpl@UIEnumConnectionPoints@@$1?_GUID_b196b285_bab4_101a_b69c_00aa00341d07@@3U__s_GUID@@BPAUIConnectionPoint@@V?$_CopyInterface@UIConnectionPoint@@@ATL@@@ATL@@UAGJKPAPAUIConnectionPoint@@PAK@Z 1001ac20 f i RFIDScanner.obj
 0001:00019d90       ?Next@?$CComEnumImpl@UIEnumConnections@@$1?_GUID_b196b287_bab4_101a_b69c_00aa00341d07@@3U__s_GUID@@BUtagCONNECTDATA@@V?$_Copy@UtagCONNECTDATA@@@ATL@@@ATL@@UAGJKPAUtagCONNECTDATA@@PAK@Z 1001ad90 f i RFIDScanner.obj
 0001:00019f00       ?NextToken@CRegParser@ATL@@IAEJPA_W@Z 1001af00 f i RFIDScanner.obj
 0001:0001a1a0       ?OLE2CT_EX@@YAPB_WPB_WI@Z  1001b1a0 f i RFIDScanner.obj
 0001:0001a1b0       ?OLE2CT_EX_DEF@@YAPB_WPB_W@Z 1001b1b0 f i RFIDScanner.obj
 0001:0001a1c0       ?OLE2T_EX@@YAPA_WPA_WI@Z   1001b1c0 f i RFIDScanner.obj
 0001:0001a1d0       ?OnAmbientPropertyChange@?$IOleControlImpl@VCOPOSRFIDScanner@@@ATL@@UAGJJ@Z 1001b1d0 f i RFIDScanner.obj
 0001:0001a260       ?OnDocWindowActivate@?$IOleInPlaceActiveObjectImpl@VCOPOSRFIDScanner@@@ATL@@UAGJH@Z 1001b260 f i RFIDScanner.obj
 0001:0001a2f0       ?OnDrawAdvanced@CComControlBase@ATL@@UAEJAAUATL_DRAWINFO@@@Z 1001b2f0 f i RFIDScanner.obj
 0001:0001a510       ?OnFinalMessage@?$CWindowImplBaseT@VCWindow@ATL@@V?$CWinTraits@$0FGAAAAAA@$0A@@2@@ATL@@UAEXPAUHWND__@@@Z 1001b510 f i RFIDScanner.obj
 0001:0001a530       ?OnFrameWindowActivate@?$IOleInPlaceActiveObjectImpl@VCOPOSRFIDScanner@@@ATL@@UAGJH@Z 1001b530 f i RFIDScanner.obj
 0001:0001a590       ?OnKillFocus@CComControlBase@ATL@@QAEJIIJAAH@Z 1001b590 f i RFIDScanner.obj
 0001:0001a690       ?OnMnemonic@?$IOleControlImpl@VCOPOSRFIDScanner@@@ATL@@UAGJPAUtagMSG@@@Z 1001b690 f i RFIDScanner.obj
 0001:0001a700       ?OnMouseActivate@CComControlBase@ATL@@QAEJIIJAAH@Z 1001b700 f i RFIDScanner.obj
 0001:0001a850       ?OnPaint@CComControlBase@ATL@@QAEJIIJAAH@Z 1001b850 f i RFIDScanner.obj
 0001:0001a9d0       ?OnPostVerbDiscardUndo@?$IOleObjectImpl@VCOPOSRFIDScanner@@@ATL@@QAEJXZ 1001b9d0 f i RFIDScanner.obj
 0001:0001a9f0       ?OnPostVerbHide@?$IOleObjectImpl@VCOPOSRFIDScanner@@@ATL@@QAEJXZ 1001b9f0 f i RFIDScanner.obj
 0001:0001aa10       ?OnPostVerbInPlaceActivate@?$IOleObjectImpl@VCOPOSRFIDScanner@@@ATL@@QAEJXZ 1001ba10 f i RFIDScanner.obj
 0001:0001aa30       ?OnPostVerbOpen@?$IOleObjectImpl@VCOPOSRFIDScanner@@@ATL@@QAEJXZ 1001ba30 f i RFIDScanner.obj
 0001:0001aa50       ?OnPostVerbShow@?$IOleObjectImpl@VCOPOSRFIDScanner@@@ATL@@QAEJXZ 1001ba50 f i RFIDScanner.obj
 0001:0001aa70       ?OnPostVerbUIActivate@?$IOleObjectImpl@VCOPOSRFIDScanner@@@ATL@@QAEJXZ 1001ba70 f i RFIDScanner.obj
 0001:0001aa90       ?OnPreVerbDiscardUndo@?$IOleObjectImpl@VCOPOSRFIDScanner@@@ATL@@QAEJXZ 1001ba90 f i RFIDScanner.obj
 0001:0001aab0       ?OnPreVerbHide@?$IOleObjectImpl@VCOPOSRFIDScanner@@@ATL@@QAEJXZ 1001bab0 f i RFIDScanner.obj
 0001:0001aad0       ?OnPreVerbInPlaceActivate@?$IOleObjectImpl@VCOPOSRFIDScanner@@@ATL@@QAEJXZ 1001bad0 f i RFIDScanner.obj
 0001:0001aaf0       ?OnPreVerbOpen@?$IOleObjectImpl@VCOPOSRFIDScanner@@@ATL@@QAEJXZ 1001baf0 f i RFIDScanner.obj
 0001:0001ab10       ?OnPreVerbShow@?$IOleObjectImpl@VCOPOSRFIDScanner@@@ATL@@QAEJXZ 1001bb10 f i RFIDScanner.obj
 0001:0001ab30       ?OnPreVerbUIActivate@?$IOleObjectImpl@VCOPOSRFIDScanner@@@ATL@@QAEJXZ 1001bb30 f i RFIDScanner.obj
 0001:0001ab50       ?OnSetFocus@CComControlBase@ATL@@QAEJIIJAAH@Z 1001bb50 f i RFIDScanner.obj
 0001:0001ace0       ?OnWindowMessage@?$IOleInPlaceObjectWindowlessImpl@VCOPOSRFIDScanner@@@ATL@@UAGJIIJPAJ@Z 1001bce0 f i RFIDScanner.obj
 0001:0001ae40       ?Open@CRegKey@ATL@@QAEJPAUHKEY__@@PB_WK@Z 1001be40 f i RFIDScanner.obj
 0001:0001af90       ?OuterAddRef@CComObjectRootBase@ATL@@QAEKXZ 1001bf90 f i RFIDScanner.obj
 0001:0001afd0       ?OuterQueryInterface@CComObjectRootBase@ATL@@QAEJABU_GUID@@PAPAX@Z 1001bfd0 f i RFIDScanner.obj
 0001:0001b020       ?OuterRelease@CComObjectRootBase@ATL@@QAEKXZ 1001c020 f i RFIDScanner.obj
 0001:0001b060       ?PreProcessBuffer@CRegParser@ATL@@QAEJPA_WPAPA_W@Z 1001c060 f i RFIDScanner.obj
 0001:0001b5a0       ?PreTranslateAccelerator@CComControlBase@ATL@@QAEHPAUtagMSG@@AAJ@Z 1001c5a0 f i RFIDScanner.obj
 0001:0001b5c0       ?ProcessWindowMessage@?$CComControl@VCOPOSRFIDScanner@@V?$CWindowImpl@VCOPOSRFIDScanner@@VCWindow@ATL@@V?$CWinTraits@$0FGAAAAAA@$0A@@3@@ATL@@@ATL@@UAEHPAUHWND__@@IIJAAJK@Z 1001c5c0 f i RFIDScanner.obj
 0001:0001b790       ?ProcessWindowMessage@COPOSRFIDScanner@@UAEHPAUHWND__@@IIJAAJK@Z 1001c790 f i RFIDScanner.obj
 0001:0001b890       ?PutProperty@?$CComPtr@UIDispatch@@@ATL@@QAEJJPAUtagVARIANT@@@Z 1001c890 f i RFIDScanner.obj
 0001:0001b8d0       ?PutProperty@?$CComPtr@UIDispatch@@@ATL@@SAJPAUIDispatch@@JPAUtagVARIANT@@@Z 1001c8d0 f i RFIDScanner.obj
 0001:0001bac0       ?QueryGetData@?$IDataObjectImpl@VCOPOSRFIDScanner@@@ATL@@UAGJPAUtagFORMATETC@@@Z 1001cac0 f i RFIDScanner.obj
 0001:0001bb30       ?QueryHitPoint@?$IViewObjectExImpl@VCOPOSRFIDScanner@@@ATL@@UAGJKPBUtagRECT@@UtagPOINT@@JPAK@Z 1001cb30 f i RFIDScanner.obj
 0001:0001bc40       ?QueryHitRect@?$IViewObjectExImpl@VCOPOSRFIDScanner@@@ATL@@UAGJKPBUtagRECT@@0JPAK@Z 1001cc40 f i RFIDScanner.obj
 0001:0001bd90       ?QueryInterface@?$CComAggObject@VCOPOSRFIDScanner@@@ATL@@UAGJABU_GUID@@PAPAX@Z 1001cd90 f i RFIDScanner.obj
 0001:0001be40       ?QueryInterface@?$CComContainedObject@VCOPOSRFIDScanner@@@ATL@@UAGJABU_GUID@@PAPAX@Z 1001ce40 f i RFIDScanner.obj
 0001:0001be64       ?QueryInterface@?$CComContainedObject@VCOPOSRFIDScanner@@@ATL@@WHA@AGJABU_GUID@@PAPAX@Z 1001ce64 f i RFIDScanner.obj
 0001:0001be6e       ?QueryInterface@?$CComContainedObject@VCOPOSRFIDScanner@@@ATL@@WHE@AGJABU_GUID@@PAPAX@Z 1001ce6e f i RFIDScanner.obj
 0001:0001be78       ?QueryInterface@?$CComContainedObject@VCOPOSRFIDScanner@@@ATL@@WHI@AGJABU_GUID@@PAPAX@Z 1001ce78 f i RFIDScanner.obj
 0001:0001be82       ?QueryInterface@?$CComContainedObject@VCOPOSRFIDScanner@@@ATL@@WHM@AGJABU_GUID@@PAPAX@Z 1001ce82 f i RFIDScanner.obj
 0001:0001be8c       ?QueryInterface@?$CComContainedObject@VCOPOSRFIDScanner@@@ATL@@WIA@AGJABU_GUID@@PAPAX@Z 1001ce8c f i RFIDScanner.obj
 0001:0001be99       ?QueryInterface@?$CComContainedObject@VCOPOSRFIDScanner@@@ATL@@WIE@AGJABU_GUID@@PAPAX@Z 1001ce99 f i RFIDScanner.obj
 0001:0001bea6       ?QueryInterface@?$CComContainedObject@VCOPOSRFIDScanner@@@ATL@@WII@AGJABU_GUID@@PAPAX@Z 1001cea6 f i RFIDScanner.obj
 0001:0001beb3       ?QueryInterface@?$CComContainedObject@VCOPOSRFIDScanner@@@ATL@@WIM@AGJABU_GUID@@PAPAX@Z 1001ceb3 f i RFIDScanner.obj
 0001:0001bec0       ?QueryInterface@?$CComContainedObject@VCOPOSRFIDScanner@@@ATL@@WJA@AGJABU_GUID@@PAPAX@Z 1001cec0 f i RFIDScanner.obj
 0001:0001becd       ?QueryInterface@?$CComContainedObject@VCOPOSRFIDScanner@@@ATL@@WJE@AGJABU_GUID@@PAPAX@Z 1001cecd f i RFIDScanner.obj
 0001:0001beda       ?QueryInterface@?$CComContainedObject@VCOPOSRFIDScanner@@@ATL@@WJI@AGJABU_GUID@@PAPAX@Z 1001ceda f i RFIDScanner.obj
 0001:0001bee7       ?QueryInterface@?$CComContainedObject@VCOPOSRFIDScanner@@@ATL@@WJM@AGJABU_GUID@@PAPAX@Z 1001cee7 f i RFIDScanner.obj
 0001:0001bef4       ?QueryInterface@?$CComContainedObject@VCOPOSRFIDScanner@@@ATL@@WKA@AGJABU_GUID@@PAPAX@Z 1001cef4 f i RFIDScanner.obj
 0001:0001bf10       ?QueryInterface@?$CComObject@V?$CComEnum@UIEnumConnectionPoints@@$1?_GUID_b196b285_bab4_101a_b69c_00aa00341d07@@3U__s_GUID@@BPAUIConnectionPoint@@V?$_CopyInterface@UIConnectionPoint@@@ATL@@VCComSingleThreadModel@6@@ATL@@@ATL@@UAGJABU_GUID@@PAPAX@Z 1001cf10 f i RFIDScanner.obj
 0001:0001bf30       ?QueryInterface@?$CComObject@V?$CComEnum@UIEnumConnections@@$1?_GUID_b196b287_bab4_101a_b69c_00aa00341d07@@3U__s_GUID@@BUtagCONNECTDATA@@V?$_Copy@UtagCONNECTDATA@@@ATL@@VCComSingleThreadModel@6@@ATL@@@ATL@@UAGJABU_GUID@@PAPAX@Z 1001cf30 f i RFIDScanner.obj
 0001:0001bf50       ?QueryInterface@?$CComObject@VCOPOSRFIDScanner@@@ATL@@UAGJABU_GUID@@PAPAX@Z 1001cf50 f i RFIDScanner.obj
 0001:0001bf6e       ?QueryInterface@?$CComObject@VCOPOSRFIDScanner@@@ATL@@WHA@AGJABU_GUID@@PAPAX@Z 1001cf6e f i RFIDScanner.obj
 0001:0001bf78       ?QueryInterface@?$CComObject@VCOPOSRFIDScanner@@@ATL@@WHE@AGJABU_GUID@@PAPAX@Z 1001cf78 f i RFIDScanner.obj
 0001:0001bf82       ?QueryInterface@?$CComObject@VCOPOSRFIDScanner@@@ATL@@WHI@AGJABU_GUID@@PAPAX@Z 1001cf82 f i RFIDScanner.obj
 0001:0001bf8c       ?QueryInterface@?$CComObject@VCOPOSRFIDScanner@@@ATL@@WHM@AGJABU_GUID@@PAPAX@Z 1001cf8c f i RFIDScanner.obj
 0001:0001bf96       ?QueryInterface@?$CComObject@VCOPOSRFIDScanner@@@ATL@@WIA@AGJABU_GUID@@PAPAX@Z 1001cf96 f i RFIDScanner.obj
 0001:0001bfa3       ?QueryInterface@?$CComObject@VCOPOSRFIDScanner@@@ATL@@WIE@AGJABU_GUID@@PAPAX@Z 1001cfa3 f i RFIDScanner.obj
 0001:0001bfb0       ?QueryInterface@?$CComObject@VCOPOSRFIDScanner@@@ATL@@WII@AGJABU_GUID@@PAPAX@Z 1001cfb0 f i RFIDScanner.obj
 0001:0001bfbd       ?QueryInterface@?$CComObject@VCOPOSRFIDScanner@@@ATL@@WIM@AGJABU_GUID@@PAPAX@Z 1001cfbd f i RFIDScanner.obj
 0001:0001bfca       ?QueryInterface@?$CComObject@VCOPOSRFIDScanner@@@ATL@@WJA@AGJABU_GUID@@PAPAX@Z 1001cfca f i RFIDScanner.obj
 0001:0001bfd7       ?QueryInterface@?$CComObject@VCOPOSRFIDScanner@@@ATL@@WJE@AGJABU_GUID@@PAPAX@Z 1001cfd7 f i RFIDScanner.obj
 0001:0001bfe4       ?QueryInterface@?$CComObject@VCOPOSRFIDScanner@@@ATL@@WJI@AGJABU_GUID@@PAPAX@Z 1001cfe4 f i RFIDScanner.obj
 0001:0001bff1       ?QueryInterface@?$CComObject@VCOPOSRFIDScanner@@@ATL@@WJM@AGJABU_GUID@@PAPAX@Z 1001cff1 f i RFIDScanner.obj
 0001:0001bffe       ?QueryInterface@?$CComObject@VCOPOSRFIDScanner@@@ATL@@WKA@AGJABU_GUID@@PAPAX@Z 1001cffe f i RFIDScanner.obj
 0001:0001c010       ?QueryInterface@?$CComObjectCached@VCComClassFactory@ATL@@@ATL@@UAGJABU_GUID@@PAPAX@Z 1001d010 f i RFIDScanner.obj
 0001:0001c030       ?QueryInterface@CRegObject@ATL@@UAGJABU_GUID@@PAPAX@Z 1001d030 f i RFIDScanner.obj
 0001:0001c080       ?QuickActivate@?$IQuickActivateImpl@VCOPOSRFIDScanner@@@ATL@@UAGJPAUtagQACONTAINER@@PAUtagQACONTROL@@@Z 1001d080 f i RFIDScanner.obj
 0001:0001c110       ?ReactivateAndUndo@?$IOleInPlaceObjectWindowlessImpl@VCOPOSRFIDScanner@@@ATL@@UAGJXZ 1001d110 f i RFIDScanner.obj
 0001:0001c180       ?ReadFromStream@CComBSTR@ATL@@QAEJPAUIStream@@@Z 1001d180 f i RFIDScanner.obj
 0001:0001c580       ?ReadFromStream@CComVariant@ATL@@QAEJPAUIStream@@GTClassesAllowedInStream@2@K@Z 1001d580 f i RFIDScanner.obj
 0001:0001c8e0       ?RecurseDeleteKey@CRegKey@ATL@@QAEJPB_W@Z 1001d8e0 f i RFIDScanner.obj
 0001:0001cac0       ?RegCreateKeyExW@CAtlTransactionManager@ATL@@QAEJPAUHKEY__@@PB_WKPA_WKKQAU_SECURITY_ATTRIBUTES@@PAPAU3@PAK@Z 1001dac0 f i RFIDScanner.obj
 0001:0001cbf0       ?RegDeleteKeyW@CAtlTransactionManager@ATL@@QAEJPAUHKEY__@@PB_W@Z 1001dbf0 f i RFIDScanner.obj
 0001:0001ccf0       ?RegOpenKeyExW@CAtlTransactionManager@ATL@@QAEJPAUHKEY__@@PB_WKKPAPAU3@@Z 1001dcf0 f i RFIDScanner.obj
 0001:0001ce00       ?Register@_ATL_WNDCLASSINFOW@ATL@@QAEGPAP6GJPAUHWND__@@IIJ@Z@Z 1001de00 f i RFIDScanner.obj
 0001:0001ce40       ?RegisterBuffer@CRegParser@ATL@@QAEJPA_WH@Z 1001de40 f i RFIDScanner.obj
 0001:0001d170       ?RegisterClassExW@AtlModuleRegisterWndClassInfoParamW@ATL@@SAGPAU_ATL_WIN_MODULE70@2@PBUtagWNDCLASSEXW@@@Z 1001e170 f i RFIDScanner.obj
 0001:0001d190       ?RegisterFromResource@CRegObject@ATL@@IAEJPB_W00H@Z 1001e190 f i RFIDScanner.obj
 0001:0001d520       ?RegisterServer@?$CAtlModuleT@VCComModule@ATL@@@ATL@@QAEJHPBU_GUID@@@Z 1001e520 f i RFIDScanner.obj
 0001:0001d5a0       ?RegisterServer@CAtlComModule@ATL@@QAEJHPBU_GUID@@@Z 1001e5a0 f i RFIDScanner.obj
 0001:0001d5d0       ?RegisterServer@CComModule@ATL@@QAEJHPBU_GUID@@@Z 1001e5d0 f i RFIDScanner.obj
 0001:0001d6b0       ?RegisterSubkeys@CRegParser@ATL@@IAEJPA_WPAUHKEY__@@HH@Z 1001e6b0 f i RFIDScanner.obj
 0001:0001e1d0       ?Release@?$CComAggObject@VCOPOSRFIDScanner@@@ATL@@UAGKXZ 1001f1d0 f i RFIDScanner.obj
 0001:0001e290       ?Release@?$CComContainedObject@VCOPOSRFIDScanner@@@ATL@@UAGKXZ 1001f290 f i RFIDScanner.obj
 0001:0001e2ac       ?Release@?$CComContainedObject@VCOPOSRFIDScanner@@@ATL@@WHA@AGKXZ 1001f2ac f i RFIDScanner.obj
 0001:0001e2b6       ?Release@?$CComContainedObject@VCOPOSRFIDScanner@@@ATL@@WHE@AGKXZ 1001f2b6 f i RFIDScanner.obj
 0001:0001e2c0       ?Release@?$CComContainedObject@VCOPOSRFIDScanner@@@ATL@@WHI@AGKXZ 1001f2c0 f i RFIDScanner.obj
 0001:0001e2ca       ?Release@?$CComContainedObject@VCOPOSRFIDScanner@@@ATL@@WHM@AGKXZ 1001f2ca f i RFIDScanner.obj
 0001:0001e2d4       ?Release@?$CComContainedObject@VCOPOSRFIDScanner@@@ATL@@WIA@AGKXZ 1001f2d4 f i RFIDScanner.obj
 0001:0001e2e1       ?Release@?$CComContainedObject@VCOPOSRFIDScanner@@@ATL@@WIE@AGKXZ 1001f2e1 f i RFIDScanner.obj
 0001:0001e2ee       ?Release@?$CComContainedObject@VCOPOSRFIDScanner@@@ATL@@WII@AGKXZ 1001f2ee f i RFIDScanner.obj
 0001:0001e2fb       ?Release@?$CComContainedObject@VCOPOSRFIDScanner@@@ATL@@WIM@AGKXZ 1001f2fb f i RFIDScanner.obj
 0001:0001e308       ?Release@?$CComContainedObject@VCOPOSRFIDScanner@@@ATL@@WJA@AGKXZ 1001f308 f i RFIDScanner.obj
 0001:0001e315       ?Release@?$CComContainedObject@VCOPOSRFIDScanner@@@ATL@@WJE@AGKXZ 1001f315 f i RFIDScanner.obj
 0001:0001e322       ?Release@?$CComContainedObject@VCOPOSRFIDScanner@@@ATL@@WJI@AGKXZ 1001f322 f i RFIDScanner.obj
 0001:0001e32f       ?Release@?$CComContainedObject@VCOPOSRFIDScanner@@@ATL@@WJM@AGKXZ 1001f32f f i RFIDScanner.obj
 0001:0001e33c       ?Release@?$CComContainedObject@VCOPOSRFIDScanner@@@ATL@@WKA@AGKXZ 1001f33c f i RFIDScanner.obj
 0001:0001e349       ?Release@?$CComContainedObject@VCOPOSRFIDScanner@@@ATL@@WKI@AGKXZ 1001f349 f i RFIDScanner.obj
 0001:0001e356       ?Release@?$CComContainedObject@VCOPOSRFIDScanner@@@ATL@@WLE@AGKXZ 1001f356 f i RFIDScanner.obj
 0001:0001e370       ?Release@?$CComObject@V?$CComEnum@UIEnumConnectionPoints@@$1?_GUID_b196b285_bab4_101a_b69c_00aa00341d07@@3U__s_GUID@@BPAUIConnectionPoint@@V?$_CopyInterface@UIConnectionPoint@@@ATL@@VCComSingleThreadModel@6@@ATL@@@ATL@@UAGKXZ 1001f370 f i RFIDScanner.obj
 0001:0001e430       ?Release@?$CComObject@V?$CComEnum@UIEnumConnections@@$1?_GUID_b196b287_bab4_101a_b69c_00aa00341d07@@3U__s_GUID@@BUtagCONNECTDATA@@V?$_Copy@UtagCONNECTDATA@@@ATL@@VCComSingleThreadModel@6@@ATL@@@ATL@@UAGKXZ 1001f430 f i RFIDScanner.obj
 0001:0001e4f0       ?Release@?$CComObject@VCOPOSRFIDScanner@@@ATL@@UAGKXZ 1001f4f0 f i RFIDScanner.obj
 0001:0001e5a9       ?Release@?$CComObject@VCOPOSRFIDScanner@@@ATL@@WHA@AGKXZ 1001f5a9 f i RFIDScanner.obj
 0001:0001e5b3       ?Release@?$CComObject@VCOPOSRFIDScanner@@@ATL@@WHE@AGKXZ 1001f5b3 f i RFIDScanner.obj
 0001:0001e5bd       ?Release@?$CComObject@VCOPOSRFIDScanner@@@ATL@@WHI@AGKXZ 1001f5bd f i RFIDScanner.obj
 0001:0001e5c7       ?Release@?$CComObject@VCOPOSRFIDScanner@@@ATL@@WHM@AGKXZ 1001f5c7 f i RFIDScanner.obj
 0001:0001e5d1       ?Release@?$CComObject@VCOPOSRFIDScanner@@@ATL@@WIA@AGKXZ 1001f5d1 f i RFIDScanner.obj
 0001:0001e5de       ?Release@?$CComObject@VCOPOSRFIDScanner@@@ATL@@WIE@AGKXZ 1001f5de f i RFIDScanner.obj
 0001:0001e5eb       ?Release@?$CComObject@VCOPOSRFIDScanner@@@ATL@@WII@AGKXZ 1001f5eb f i RFIDScanner.obj
 0001:0001e5f8       ?Release@?$CComObject@VCOPOSRFIDScanner@@@ATL@@WIM@AGKXZ 1001f5f8 f i RFIDScanner.obj
 0001:0001e605       ?Release@?$CComObject@VCOPOSRFIDScanner@@@ATL@@WJA@AGKXZ 1001f605 f i RFIDScanner.obj
 0001:0001e612       ?Release@?$CComObject@VCOPOSRFIDScanner@@@ATL@@WJE@AGKXZ 1001f612 f i RFIDScanner.obj
 0001:0001e61f       ?Release@?$CComObject@VCOPOSRFIDScanner@@@ATL@@WJI@AGKXZ 1001f61f f i RFIDScanner.obj
 0001:0001e62c       ?Release@?$CComObject@VCOPOSRFIDScanner@@@ATL@@WJM@AGKXZ 1001f62c f i RFIDScanner.obj
 0001:0001e639       ?Release@?$CComObject@VCOPOSRFIDScanner@@@ATL@@WKA@AGKXZ 1001f639 f i RFIDScanner.obj
 0001:0001e646       ?Release@?$CComObject@VCOPOSRFIDScanner@@@ATL@@WKI@AGKXZ 1001f646 f i RFIDScanner.obj
 0001:0001e653       ?Release@?$CComObject@VCOPOSRFIDScanner@@@ATL@@WLE@AGKXZ 1001f653 f i RFIDScanner.obj
 0001:0001e660       ?Release@?$CComObjectCached@VCComClassFactory@ATL@@@ATL@@UAGKXZ 1001f660 f i RFIDScanner.obj
 0001:0001e700       ?Release@?$CComPtrBase@UIAdviseSink@@@ATL@@QAEXXZ 1001f700 f i RFIDScanner.obj
 0001:0001e760       ?Release@?$CComPtrBase@UIDispatch@@@ATL@@QAEXXZ 1001f760 f i RFIDScanner.obj
 0001:0001e7c0       ?Release@?$CComPtrBase@UIOleInPlaceSiteWindowless@@@ATL@@QAEXXZ 1001f7c0 f i RFIDScanner.obj
 0001:0001e820       ?Release@CRegObject@ATL@@UAGKXZ 1001f820 f i RFIDScanner.obj
 0001:0001e860       ?Remove@CComDynamicUnkArray@ATL@@QAEHK@Z 1001f860 f i RFIDScanner.obj
 0001:0001e910       ?RemoveAll@?$CSimpleMap@PA_WPA_WVCExpansionVectorEqualHelper@ATL@@@ATL@@QAEXXZ 1001f910 f i RFIDScanner.obj
 0001:0001e9a0       ?Reset@?$CComEnumImpl@UIEnumConnectionPoints@@$1?_GUID_b196b285_bab4_101a_b69c_00aa00341d07@@3U__s_GUID@@BPAUIConnectionPoint@@V?$_CopyInterface@UIConnectionPoint@@@ATL@@@ATL@@UAGJXZ 1001f9a0 f i RFIDScanner.obj
 0001:0001e9c0       ?Reset@?$CComEnumImpl@UIEnumConnections@@$1?_GUID_b196b287_bab4_101a_b69c_00aa00341d07@@3U__s_GUID@@BUtagCONNECTDATA@@V?$_Copy@UtagCONNECTDATA@@@ATL@@@ATL@@UAGJXZ 1001f9c0 f i RFIDScanner.obj
 0001:0001e9e0       ?ResizeBorder@?$IOleInPlaceActiveObjectImpl@VCOPOSRFIDScanner@@@ATL@@UAGJPBUtagRECT@@PAUIOleInPlaceUIWindow@@H@Z 1001f9e0 f i RFIDScanner.obj
 0001:0001ea40       ?ResourceRegister@CRegObject@ATL@@QAGJPB_WI0@Z 1001fa40 f i RFIDScanner.obj
 0001:0001eb20       ?ResourceRegisterSz@CRegObject@ATL@@QAGJPB_W00@Z 1001fb20 f i RFIDScanner.obj
 0001:0001ec20       ?ResourceUnregister@CRegObject@ATL@@QAGJPB_WI0@Z 1001fc20 f i RFIDScanner.obj
 0001:0001ed00       ?ResourceUnregisterSz@CRegObject@ATL@@QAGJPB_W00@Z 1001fd00 f i RFIDScanner.obj
 0001:0001ee00       ?SOData@COPOSRFIDScanner@@MAGJJ@Z 1001fe00 f i RFIDScanner.obj
 0001:0001ee80       ?SODirectIO@COPOSRFIDScanner@@MAGJJPAJPAPA_W@Z 1001fe80 f i RFIDScanner.obj
 0001:0001f040       ?SOError@COPOSRFIDScanner@@MAGJJJJPAJ@Z 10020040 f i RFIDScanner.obj
 0001:0001f100       ?SOOutputComplete@COPOSRFIDScanner@@MAGJJ@Z 10020100 f i RFIDScanner.obj
 0001:0001f180       ?SOStatusUpdate@COPOSRFIDScanner@@MAGJJ@Z 10020180 f i RFIDScanner.obj
 0001:0001f200       ?Save@?$IPersistStorageImpl@VCOPOSRFIDScanner@@@ATL@@UAGJPAUIStorage@@H@Z 10020200 f i RFIDScanner.obj
 0001:0001f360       ?Save@?$IPersistStreamInitImpl@VCOPOSRFIDScanner@@@ATL@@UAGJPAUIStream@@H@Z 10020360 f i RFIDScanner.obj
 0001:0001f3f0       ?SaveCompleted@?$IPersistStorageImpl@VCOPOSRFIDScanner@@@ATL@@UAGJPAUIStorage@@@Z 100203f0 f i RFIDScanner.obj
 0001:0001f450       ?SendOnDataChange@CComControlBase@ATL@@QAEJK@Z 10020450 f i RFIDScanner.obj
 0001:0001f540       ?SendOnSave@CComControlBase@ATL@@QAEJXZ 10020540 f i RFIDScanner.obj
 0001:0001f5b0       ?SendOnViewChange@CComControlBase@ATL@@QAEJKJ@Z 100205b0 f i RFIDScanner.obj
 0001:0001f620       ?SetAdvise@?$IViewObjectExImpl@VCOPOSRFIDScanner@@@ATL@@UAGJKKPAUIAdviseSink@@@Z 10020620 f i RFIDScanner.obj
 0001:0001f6b0       ?SetClientSite@?$IOleObjectImpl@VCOPOSRFIDScanner@@@ATL@@UAGJPAUIOleClientSite@@@Z 100206b0 f i RFIDScanner.obj
 0001:0001f740       ?SetColorScheme@?$IOleObjectImpl@VCOPOSRFIDScanner@@@ATL@@UAGJPAUtagLOGPALETTE@@@Z 10020740 f i RFIDScanner.obj
 0001:0001f7b0       ?SetContentExtent@?$IQuickActivateImpl@VCOPOSRFIDScanner@@@ATL@@UAGJPAUtagSIZE@@@Z 100207b0 f i RFIDScanner.obj
 0001:0001f840       ?SetControlFocus@CComControlBase@ATL@@QAEHH@Z 10020840 f i RFIDScanner.obj
 0001:0001f9c0       ?SetDWORDValue@CRegKey@ATL@@QAEJPB_WK@Z 100209c0 f i RFIDScanner.obj
 0001:0001fa40       ?SetData@?$IDataObjectImpl@VCOPOSRFIDScanner@@@ATL@@UAGJPAUtagFORMATETC@@PAUtagSTGMEDIUM@@H@Z 10020a40 f i RFIDScanner.obj
 0001:0001fab0       ?SetExtent@?$IOleObjectImpl@VCOPOSRFIDScanner@@@ATL@@UAGJKPAUtagSIZE@@@Z 10020ab0 f i RFIDScanner.obj
 0001:0001fb40       ?SetHostNames@?$IOleObjectImpl@VCOPOSRFIDScanner@@@ATL@@UAGJPB_W0@Z 10020b40 f i RFIDScanner.obj
 0001:0001fba0       ?SetInterfaceSafetyOptions@?$IObjectSafetyImpl@VCOPOSRFIDScanner@@$02@ATL@@UAGJABU_GUID@@KK@Z 10020ba0 f i RFIDScanner.obj
 0001:0001fd10       ?SetMoniker@?$IOleObjectImpl@VCOPOSRFIDScanner@@@ATL@@UAGJKPAUIMoniker@@@Z 10020d10 f i RFIDScanner.obj
 0001:0001fd80       ?SetMultiStringValue@CRegKey@ATL@@QAEJPB_W0@Z 10020d80 f i RFIDScanner.obj
 0001:0001fea0       ?SetObjectRects@?$IOleInPlaceObjectWindowlessImpl@VCOPOSRFIDScanner@@@ATL@@UAGJPBUtagRECT@@0@Z 10020ea0 f i RFIDScanner.obj
 0001:0001ff30       ?SetStringValue@CRegKey@ATL@@QAEJPB_W0K@Z 10020f30 f i RFIDScanner.obj
 0001:00020060       ?SetVoid@CComClassFactory@ATL@@QAEXPAX@Z 10021060 f i RFIDScanner.obj
 0001:00020080       ?SetVoid@CComObjectRootBase@ATL@@QAEXPAX@Z 10021080 f i RFIDScanner.obj
 0001:000200a0       ?SetWindowLongPtrW@@YAJPAUHWND__@@HJ@Z 100210a0 f i RFIDScanner.obj
 0001:000200d0       ?ShowWindow@CWindow@ATL@@QAEHH@Z 100210d0 f i RFIDScanner.obj
 0001:00020150       ?Skip@?$CComEnumImpl@UIEnumConnectionPoints@@$1?_GUID_b196b285_bab4_101a_b69c_00aa00341d07@@3U__s_GUID@@BPAUIConnectionPoint@@V?$_CopyInterface@UIConnectionPoint@@@ATL@@@ATL@@UAGJK@Z 10021150 f i RFIDScanner.obj
 0001:000201d0       ?Skip@?$CComEnumImpl@UIEnumConnections@@$1?_GUID_b196b287_bab4_101a_b69c_00aa00341d07@@3U__s_GUID@@BUtagCONNECTDATA@@V?$_Copy@UtagCONNECTDATA@@@ATL@@@ATL@@UAGJK@Z 100211d0 f i RFIDScanner.obj
 0001:00020250       ?SkipAssignment@CRegParser@ATL@@IAEJPA_W@Z 10021250 f i RFIDScanner.obj
 0001:00020330       ?SkipWhiteSpace@CRegParser@ATL@@IAEXXZ 10021330 f i RFIDScanner.obj
 0001:00020380       ?StartWindowProc@?$CWindowImplBaseT@VCWindow@ATL@@V?$CWinTraits@$0FGAAAAAA@$0A@@2@@ATL@@SGJPAUHWND__@@IIJ@Z 10021380 f i RFIDScanner.obj
 0001:000204a0       ?StrChrW@CRegParser@ATL@@KAPA_WPA_W_W@Z 100214a0 f i RFIDScanner.obj
 0001:00020510       ?StrFromMap@CRegObject@ATL@@QAEPB_WPA_W@Z 10021510 f i RFIDScanner.obj
 0001:000205a0       ?Swap@?$CComPtrBase@UIAdviseSink@@@ATL@@IAEXAAV12@@Z 100215a0 f i RFIDScanner.obj
 0001:000205e0       ?Swap@?$CComPtrBase@UIOleClientSite@@@ATL@@IAEXAAV12@@Z 100215e0 f i RFIDScanner.obj
 0001:00020620       ?Swap@?$CComPtrBase@UIUnknown@@@ATL@@IAEXAAV12@@Z 10021620 f i RFIDScanner.obj
 0001:00020660       ?T2COLE_EX@@YAPB_WPB_WI@Z  10021660 f i RFIDScanner.obj
 0001:00020670       ?T2OLE_EX@@YAPA_WPA_WI@Z   10021670 f i RFIDScanner.obj
 0001:00020680       ?Term@CAtlModule@ATL@@QAEXXZ 10021680 f i RFIDScanner.obj
 0001:00020730       ?Term@CComModule@ATL@@QAEXXZ 10021730 f i RFIDScanner.obj
 0001:00020820       ?TranslateAcceleratorW@?$IOleInPlaceActiveObjectImpl@VCOPOSRFIDScanner@@@ATL@@UAGJPAUtagMSG@@@Z 10021820 f i RFIDScanner.obj
 0001:00020a20       ?UIDeactivate@?$IOleInPlaceObjectWindowlessImpl@VCOPOSRFIDScanner@@@ATL@@UAGJXZ 10021a20 f i RFIDScanner.obj
 0001:00020aa0       ?Unadvise@?$CProxy_IOPOSEvents@VCOPOSRFIDScanner@@@@UAGJK@Z 10021aa0 f i RFIDScanner.obj
 0001:00020ae0       ?Unadvise@?$IConnectionPointImpl@VCOPOSRFIDScanner@@$1?DIID__IOPOSRFIDScannerEvents@@3U_GUID@@BVCComDynamicUnkArray@ATL@@@ATL@@UAGJK@Z 10021ae0 f i RFIDScanner.obj
 0001:00020bb0       ?Unadvise@?$IConnectionPointImpl@VCOPOSRFIDScanner@@$1?IID_IPropertyNotifySink@@3U_GUID@@BVCComDynamicUnkArray@ATL@@@ATL@@UAGJK@Z 10021bb0 f i RFIDScanner.obj
 0001:00020c80       ?Unadvise@?$IOleObjectImpl@VCOPOSRFIDScanner@@@ATL@@UAGJK@Z 10021c80 f i RFIDScanner.obj
 0001:00020d50       ?Unfreeze@?$IViewObjectExImpl@VCOPOSRFIDScanner@@@ATL@@UAGJK@Z 10021d50 f i RFIDScanner.obj
 0001:00020dc0       ?Unlock@?$CComCritSecLock@VCComCriticalSection@ATL@@@ATL@@QAEXXZ 10021dc0 f i RFIDScanner.obj
 0001:00020e30       ?Unlock@?$CComObjectRootEx@VCComSingleThreadModel@ATL@@@ATL@@QAEXXZ 10021e30 f i RFIDScanner.obj
 0001:00020e50       ?Unlock@CAtlModule@ATL@@UAEJXZ 10021e50 f i RFIDScanner.obj
 0001:00020e80       ?Unlock@CComCriticalSection@ATL@@QAEJXZ 10021e80 f i RFIDScanner.obj
 0001:00020ec0       ?Unlock@CComFakeCriticalSection@ATL@@QAEJXZ 10021ec0 f i RFIDScanner.obj
 0001:00020ee0       ?UnregisterServer@?$CAtlModuleT@VCComModule@ATL@@@ATL@@QAEJHPBU_GUID@@@Z 10021ee0 f i RFIDScanner.obj
 0001:00020f50       ?UnregisterServer@CAtlComModule@ATL@@QAEJHPBU_GUID@@@Z 10021f50 f i RFIDScanner.obj
 0001:00020f80       ?UnregisterServer@CComModule@ATL@@QAEJHPBU_GUID@@@Z 10021f80 f i RFIDScanner.obj
 0001:00021060       ?Update@?$IOleObjectImpl@VCOPOSRFIDScanner@@@ATL@@UAGJXZ 10022060 f i RFIDScanner.obj
 0001:000210c0       ?UpdateRegistryFromResource@CAtlModule@ATL@@QAGJIHPAU_ATL_REGMAP_ENTRY@2@@Z 100220c0 f i RFIDScanner.obj
 0001:00021590       ?UpdateRegistryFromResource@CAtlModule@ATL@@QAGJPB_WHPAU_ATL_REGMAP_ENTRY@2@@Z 10022590 f i RFIDScanner.obj
 0001:00021a80       ?UpdateRegistryFromResource@CComModule@ATL@@UAGJIHPAU_ATL_REGMAP_ENTRY@2@@Z 10022a80 f i RFIDScanner.obj
 0001:00021ab0       ?UpdateRegistryFromResource@CComModule@ATL@@UAGJPB_WHPAU_ATL_REGMAP_ENTRY@2@@Z 10022ab0 f i RFIDScanner.obj
 0001:00021ae0       ?UpdateRegistryFromResourceD@CComModule@ATL@@UAGJIHPAU_ATL_REGMAP_ENTRY@2@@Z 10022ae0 f i RFIDScanner.obj
 0001:00021af0       ?UpdateRegistryFromResourceD@CComModule@ATL@@UAGJPB_WHPAU_ATL_REGMAP_ENTRY@2@@Z 10022af0 f i RFIDScanner.obj
 0001:00021b00       ?VTFromRegType@CRegParser@ATL@@KAHPB_WAAG@Z 10022b00 f i RFIDScanner.obj
 0001:00021be0       ?WindowProc@?$CWindowImplBaseT@VCWindow@ATL@@V?$CWinTraits@$0FGAAAAAA@$0A@@2@@ATL@@SGJPAUHWND__@@IIJ@Z 10022be0 f i RFIDScanner.obj
 0001:00021df0       ?WriteToStream@CComBSTR@ATL@@QAEJPAUIStream@@@Z 10022df0 f i RFIDScanner.obj
 0001:00021f50       ?WriteToStream@CComVariant@ATL@@QAEJPAUIStream@@@Z 10022f50 f i RFIDScanner.obj
 0001:00022290       ?WriteToStream@CComVariant@ATL@@QAEJPAUIStream@@G@Z 10023290 f i RFIDScanner.obj
 0001:00022360       ?_AtlFinalConstruct@CComObjectRootBase@ATL@@QAEJXZ 10023360 f i RFIDScanner.obj
 0001:00022380       ?_AtlGetConversionACP@ATL@@YGIXZ 10023380 f i RFIDScanner.obj
 0001:00022390       ?_AtlInitialConstruct@?$CComAggObject@VCOPOSRFIDScanner@@@ATL@@QAEJXZ 10023390 f i RFIDScanner.obj
 0001:000223e0       ?_AtlInitialConstruct@?$CComObjectRootEx@VCComMultiThreadModel@ATL@@@ATL@@QAEJXZ 100233e0 f i RFIDScanner.obj
 0001:00022410       ?_AtlInitialConstruct@?$CComObjectRootEx@VCComSingleThreadModel@ATL@@@ATL@@QAEJXZ 10023410 f i RFIDScanner.obj
 0001:00022430       ?_AtlVerifyStackAvailable@_ATL_SAFE_ALLOCA_IMPL@ATL@@YA_NK@Z 10023430 f i RFIDScanner.obj
 0001:000225e0       ?_GetEntries@?$CComEnum@UIEnumConnectionPoints@@$1?_GUID_b196b285_bab4_101a_b69c_00aa00341d07@@3U__s_GUID@@BPAUIConnectionPoint@@V?$_CopyInterface@UIConnectionPoint@@@ATL@@VCComSingleThreadModel@6@@ATL@@SGPBU_ATL_INTMAP_ENTRY@2@XZ 100235e0 f i RFIDScanner.obj
 0001:00022600       ?_GetEntries@?$CComEnum@UIEnumConnections@@$1?_GUID_b196b287_bab4_101a_b69c_00aa00341d07@@3U__s_GUID@@BUtagCONNECTDATA@@V?$_Copy@UtagCONNECTDATA@@@ATL@@VCComSingleThreadModel@6@@ATL@@SGPBU_ATL_INTMAP_ENTRY@2@XZ 10023600 f i RFIDScanner.obj
 0001:00022620       ?_GetEntries@CComClassFactory@ATL@@SGPBU_ATL_INTMAP_ENTRY@2@XZ 10023620 f i RFIDScanner.obj
 0001:00022640       ?_GetEntries@COPOSRFIDScanner@@SGPBU_ATL_INTMAP_ENTRY@ATL@@XZ 10023640 f i RFIDScanner.obj
 0001:00022660       ?_GetRawUnknown@COPOSRFIDScanner@@QAEPAUIUnknown@@XZ 10023660 f i RFIDScanner.obj
 0001:000226d0       ?_GetViewStatus@COPOSRFIDScanner@@QAEKXZ 100236d0 f i RFIDScanner.obj
 0001:000226f0       ?_InternalQueryInterface@?$CComEnum@UIEnumConnectionPoints@@$1?_GUID_b196b285_bab4_101a_b69c_00aa00341d07@@3U__s_GUID@@BPAUIConnectionPoint@@V?$_CopyInterface@UIConnectionPoint@@@ATL@@VCComSingleThreadModel@6@@ATL@@QAEJABU_GUID@@PAPAX@Z 100236f0 f i RFIDScanner.obj
 0001:00022730       ?_InternalQueryInterface@?$CComEnum@UIEnumConnections@@$1?_GUID_b196b287_bab4_101a_b69c_00aa00341d07@@3U__s_GUID@@BUtagCONNECTDATA@@V?$_Copy@UtagCONNECTDATA@@@ATL@@VCComSingleThreadModel@6@@ATL@@QAEJABU_GUID@@PAPAX@Z 10023730 f i RFIDScanner.obj
 0001:00022770       ?_InternalQueryInterface@CComClassFactory@ATL@@QAEJABU_GUID@@PAPAX@Z 10023770 f i RFIDScanner.obj
 0001:000227b0       ?_InternalQueryInterface@COPOSRFIDScanner@@QAEJABU_GUID@@PAPAX@Z 100237b0 f i RFIDScanner.obj
 0001:000227f0       ?_LocCPQueryInterface@?$IConnectionPointImpl@VCOPOSRFIDScanner@@$1?DIID__IOPOSRFIDScannerEvents@@3U_GUID@@BVCComDynamicUnkArray@ATL@@@ATL@@UAGJABU_GUID@@PAPAX@Z 100237f0 f i RFIDScanner.obj
 0001:00022890       ?_LocCPQueryInterface@?$IConnectionPointImpl@VCOPOSRFIDScanner@@$1?IID_IPropertyNotifySink@@3U_GUID@@BVCComDynamicUnkArray@ATL@@@ATL@@UAGJABU_GUID@@PAPAX@Z 10023890 f i RFIDScanner.obj
 0001:00022930       ?atlCreate@?$CWindowImpl@VCOPOSRFIDScanner@@VCWindow@ATL@@V?$CWinTraits@$0FGAAAAAA@$0A@@3@@ATL@@QAEPAUHWND__@@PAU3@V_U_RECT@2@PB_WKKV_U_MENUorID@2@PAX@Z 10023930 f i RFIDScanner.obj
 0001:000229e0       ?atlCreate@?$CWindowImplBaseT@VCWindow@ATL@@V?$CWinTraits@$0FGAAAAAA@$0A@@2@@ATL@@QAEPAUHWND__@@PAU3@V_U_RECT@2@PB_WKKV_U_MENUorID@2@GPAX@Z 100239e0 f i RFIDScanner.obj
 0001:00022b60       ?atlCreate@CRegKey@ATL@@QAEJPAUHKEY__@@PB_WPA_WKKPAU_SECURITY_ATTRIBUTES@@PAK@Z 10023b60 f i RFIDScanner.obj
 0001:00022cc0       ?begin@CComDynamicUnkArray@ATL@@QAEPAPAUIUnknown@@XZ 10023cc0 f i RFIDScanner.obj
 0001:00022ce0       ?copy@?$_Copy@UtagCONNECTDATA@@@ATL@@SAJPAUtagCONNECTDATA@@PBU3@@Z 10023ce0 f i RFIDScanner.obj
 0001:00022da0       ?copy@?$_CopyInterface@UIConnectionPoint@@@ATL@@SAJPAPAUIConnectionPoint@@PBQAU3@@Z 10023da0 f i RFIDScanner.obj
 0001:00022e60       ?destroy@?$_Copy@UtagCONNECTDATA@@@ATL@@SAXPAUtagCONNECTDATA@@@Z 10023e60 f i RFIDScanner.obj
 0001:00022ea0       ?destroy@?$_CopyInterface@UIConnectionPoint@@@ATL@@SAXPAPAUIConnectionPoint@@@Z 10023ea0 f i RFIDScanner.obj
 0001:00022ee0       ?end@CComDynamicUnkArray@ATL@@QAEPAPAUIUnknown@@XZ 10023ee0 f i RFIDScanner.obj
 0001:00022f00       ?init@?$_Copy@UtagCONNECTDATA@@@ATL@@SAXPAUtagCONNECTDATA@@@Z 10023f00 f i RFIDScanner.obj
 0001:00022f10       ?init@?$_CopyInterface@UIConnectionPoint@@@ATL@@SAXPAPAUIConnectionPoint@@@Z 10023f10 f i RFIDScanner.obj
 0001:00022f20       ?memcpy_s@Checked@ATL@@YAXPAXIPBXI@Z 10023f20 f i RFIDScanner.obj
 0001:00022f50       ?ocscpy_s@@YA_NPA_WIPB_W@Z 10023f50 f i RFIDScanner.obj
 0001:00022fb0       ?ocslen@@YAHPB_W@Z         10023fb0 f i RFIDScanner.obj
 0001:00022fe0       ?tcsncpy_s@Checked@ATL@@YAHPA_WIPB_WI@Z 10023fe0 f i RFIDScanner.obj
 0001:00023010       ?wcscat_s@Checked@ATL@@YAXPA_WIPB_W@Z 10024010 f i RFIDScanner.obj
 0001:00023040       ?wcscpy_s@Checked@ATL@@YAXPA_WIPB_W@Z 10024040 f i RFIDScanner.obj
 0001:00023070       ?wcsncpy_s@Checked@ATL@@YAHPA_WIPB_WI@Z 10024070 f i RFIDScanner.obj
 0001:000230a0       ?wcsstr@@YAPA_WPA_WPB_W@Z  100240a0 f i RFIDScanner.obj
 0001:000230c0       _InlineIsEqualGUID         100240c0 f i RFIDScanner.obj
 0001:00023160       _IsEqualGUID               10024160 f i RFIDScanner.obj
 0001:000231b0       ??0COPOSRFIDScanner@@QAE@XZ 100241b0 f   RFIDScannerImpl.obj
 0001:000232c0       ?FinalConstruct@COPOSRFIDScanner@@QAEJXZ 100242c0 f   RFIDScannerImpl.obj
 0001:00023390       ??1COPOSRFIDScanner@@UAE@XZ 10024390 f   RFIDScannerImpl.obj
 0001:00023470       ?WriteTrace@COPOSRFIDScanner@@QAAXPB_WZZ 10024470 f   RFIDScannerImpl.obj
 0001:00023520       ?WriteTraceString@COPOSRFIDScanner@@QAEXPB_WPA_W@Z 10024520 f   RFIDScannerImpl.obj
 0001:00023890       ?WriteTraceString@COPOSRFIDScanner@@QAAXPAXHHHPB_WZZ 10024890 f   RFIDScannerImpl.obj
 0001:00023ac0       ?WriteTraceError@COPOSRFIDScanner@@QAEXPB_WK@Z 10024ac0 f   RFIDScannerImpl.obj
 0001:00023bb0       ?WriteTraceMethods@COPOSRFIDScanner@@QAEXPAJH@Z 10024bb0 f   RFIDScannerImpl.obj
 0001:00023c20       ?GetOposProp@COPOSRFIDScanner@@IAEJPBDJPAJJ@Z 10024c20 f   RFIDScannerImpl.obj
 0001:00023e90       ?SetOposProp@COPOSRFIDScanner@@IAEJPBDJJJ@Z 10024e90 f   RFIDScannerImpl.obj
 0001:00024120       ?GetOposProp@COPOSRFIDScanner@@IAEJPBDJPAFJ@Z 10025120 f   RFIDScannerImpl.obj
 0001:000241c0       ?SetOposProp@COPOSRFIDScanner@@IAEJPBDJFJ@Z 100251c0 f   RFIDScannerImpl.obj
 0001:00024220       ?GetOposProp@COPOSRFIDScanner@@IAEJPBDJPAPA_WJ@Z 10025220 f   RFIDScannerImpl.obj
 0001:000244a0       ?SetOposProp@COPOSRFIDScanner@@IAEJPBDJPA_WJ@Z 100254a0 f   RFIDScannerImpl.obj
 0001:000247e0       ?DoInvoke@COPOSRFIDScanner@@IAEJPBDJPAVOposVariant@@IHPAJ_N@Z 100257e0 f   RFIDScannerImpl.obj
 0001:00025110       ?SetCOFreezeEvents@COPOSRFIDScanner@@IAEXF@Z 10026110 f   RFIDScannerImpl.obj
 0001:00025250       ?FreezeEvents@COPOSRFIDScanner@@MAGJH@Z 10026250 f   RFIDScannerImpl.obj
 0001:00025330       ?OnDraw@COPOSRFIDScanner@@MAEJAAUATL_DRAWINFO@@@Z 10026330 f   RFIDScannerImpl.obj
 0001:000254d0       ?SOProcessID@COPOSRFIDScanner@@UAGJPAJ@Z 100264d0 f   RFIDScannerImpl.obj
 0001:00025510       ?get_OpenResult@COPOSRFIDScanner@@UAGJPAJ@Z 10026510 f   RFIDScannerImpl.obj
 0001:00025550       ?get_AutoDisable@COPOSRFIDScanner@@UAGJPAF@Z 10026550 f   RFIDScannerImpl.obj
 0001:00025580       ?put_AutoDisable@COPOSRFIDScanner@@UAGJF@Z 10026580 f   RFIDScannerImpl.obj
 0001:000255b0       ?get_BinaryConversion@COPOSRFIDScanner@@UAGJPAJ@Z 100265b0 f   RFIDScannerImpl.obj
 0001:000255e0       ?put_BinaryConversion@COPOSRFIDScanner@@UAGJJ@Z 100265e0 f   RFIDScannerImpl.obj
 0001:00025610       ?get_CapPowerReporting@COPOSRFIDScanner@@UAGJPAJ@Z 10026610 f   RFIDScannerImpl.obj
 0001:00025640       ?get_CheckHealthText@COPOSRFIDScanner@@UAGJPAPA_W@Z 10026640 f   RFIDScannerImpl.obj
 0001:00025670       ?get_Claimed@COPOSRFIDScanner@@UAGJPAF@Z 10026670 f   RFIDScannerImpl.obj
 0001:000256a0       ?get_DataCount@COPOSRFIDScanner@@UAGJPAJ@Z 100266a0 f   RFIDScannerImpl.obj
 0001:000256d0       ?get_DataEventEnabled@COPOSRFIDScanner@@UAGJPAF@Z 100266d0 f   RFIDScannerImpl.obj
 0001:00025700       ?put_DataEventEnabled@COPOSRFIDScanner@@UAGJF@Z 10026700 f   RFIDScannerImpl.obj
 0001:00025730       ?get_DeviceEnabled@COPOSRFIDScanner@@UAGJPAF@Z 10026730 f   RFIDScannerImpl.obj
 0001:00025760       ?put_DeviceEnabled@COPOSRFIDScanner@@UAGJF@Z 10026760 f   RFIDScannerImpl.obj
 0001:00025790       ?get_FreezeEvents@COPOSRFIDScanner@@UAGJPAF@Z 10026790 f   RFIDScannerImpl.obj
 0001:000257c0       ?put_FreezeEvents@COPOSRFIDScanner@@UAGJF@Z 100267c0 f   RFIDScannerImpl.obj
 0001:00025850       ?get_OutputID@COPOSRFIDScanner@@UAGJPAJ@Z 10026850 f   RFIDScannerImpl.obj
 0001:00025880       ?get_PowerNotify@COPOSRFIDScanner@@UAGJPAJ@Z 10026880 f   RFIDScannerImpl.obj
 0001:000258b0       ?put_PowerNotify@COPOSRFIDScanner@@UAGJJ@Z 100268b0 f   RFIDScannerImpl.obj
 0001:000258e0       ?get_PowerState@COPOSRFIDScanner@@UAGJPAJ@Z 100268e0 f   RFIDScannerImpl.obj
 0001:00025910       ?get_ResultCode@COPOSRFIDScanner@@UAGJPAJ@Z 10026910 f   RFIDScannerImpl.obj
 0001:000259a0       ?get_ResultCodeExtended@COPOSRFIDScanner@@UAGJPAJ@Z 100269a0 f   RFIDScannerImpl.obj
 0001:000259d0       ?get_State@COPOSRFIDScanner@@UAGJPAJ@Z 100269d0 f   RFIDScannerImpl.obj
 0001:00025a20       ?get_ControlObjectDescription@COPOSRFIDScanner@@UAGJPAPA_W@Z 10026a20 f   RFIDScannerImpl.obj
 0001:00025aa0       ?get_ControlObjectVersion@COPOSRFIDScanner@@UAGJPAJ@Z 10026aa0 f   RFIDScannerImpl.obj
 0001:00025ae0       ?get_ServiceObjectDescription@COPOSRFIDScanner@@UAGJPAPA_W@Z 10026ae0 f   RFIDScannerImpl.obj
 0001:00025b10       ?get_ServiceObjectVersion@COPOSRFIDScanner@@UAGJPAJ@Z 10026b10 f   RFIDScannerImpl.obj
 0001:00025b40       ?get_DeviceDescription@COPOSRFIDScanner@@UAGJPAPA_W@Z 10026b40 f   RFIDScannerImpl.obj
 0001:00025b70       ?get_DeviceName@COPOSRFIDScanner@@UAGJPAPA_W@Z 10026b70 f   RFIDScannerImpl.obj
 0001:00025ba0       ?get_CapStatisticsReporting@COPOSRFIDScanner@@UAGJPAF@Z 10026ba0 f   RFIDScannerImpl.obj
 0001:00025bd0       ?get_CapUpdateStatistics@COPOSRFIDScanner@@UAGJPAF@Z 10026bd0 f   RFIDScannerImpl.obj
 0001:00025c00       ?get_CapCompareFirmwareVersion@COPOSRFIDScanner@@UAGJPAF@Z 10026c00 f   RFIDScannerImpl.obj
 0001:00025c30       ?get_CapUpdateFirmware@COPOSRFIDScanner@@UAGJPAF@Z 10026c30 f   RFIDScannerImpl.obj
 0001:00025c60       ?CheckHealth@COPOSRFIDScanner@@UAGJJPAJ@Z 10026c60 f   RFIDScannerImpl.obj
 0001:00025d00       ?ClaimDevice@COPOSRFIDScanner@@UAGJJPAJ@Z 10026d00 f   RFIDScannerImpl.obj
 0001:00025de0       ?ClearInput@COPOSRFIDScanner@@UAGJPAJ@Z 10026de0 f   RFIDScannerImpl.obj
 0001:00025e10       ?ClearOutput@COPOSRFIDScanner@@UAGJPAJ@Z 10026e10 f   RFIDScannerImpl.obj
 0001:00025e40       ?Close@COPOSRFIDScanner@@UAGJPAJ@Z 10026e40 f   RFIDScannerImpl.obj
 0001:00025f10       ?DirectIO@COPOSRFIDScanner@@UAGJJPAJPAPA_W0@Z 10026f10 f   RFIDScannerImpl.obj
 0001:00026020       ?Open@COPOSRFIDScanner@@UAGJPA_WPAJ@Z 10027020 f   RFIDScannerImpl.obj
 0001:00027210       ?ReleaseDevice@COPOSRFIDScanner@@UAGJPAJ@Z 10028210 f   RFIDScannerImpl.obj
 0001:00027280       ?ResetStatistics@COPOSRFIDScanner@@UAGJPA_WPAJ@Z 10028280 f   RFIDScannerImpl.obj
 0001:00027330       ?RetrieveStatistics@COPOSRFIDScanner@@UAGJPAPA_WPAJ@Z 10028330 f   RFIDScannerImpl.obj
 0001:000273e0       ?UpdateStatistics@COPOSRFIDScanner@@UAGJPA_WPAJ@Z 100283e0 f   RFIDScannerImpl.obj
 0001:00027490       ?CompareFirmwareVersion@COPOSRFIDScanner@@UAGJPA_WPAJ1@Z 10028490 f   RFIDScannerImpl.obj
 0001:00027580       ?UpdateFirmware@COPOSRFIDScanner@@UAGJPA_WPAJ@Z 10028580 f   RFIDScannerImpl.obj
 0001:00027630       ?ClearInputProperties@COPOSRFIDScanner@@UAGJPAJ@Z 10028630 f   RFIDScannerImpl.obj
 0001:00027660       ?get_CapContinuousRead@COPOSRFIDScanner@@UAGJPAF@Z 10028660 f   RFIDScannerImpl.obj
 0001:00027690       ?get_CapDisableTag@COPOSRFIDScanner@@UAGJPAF@Z 10028690 f   RFIDScannerImpl.obj
 0001:000276c0       ?get_CapLockTag@COPOSRFIDScanner@@UAGJPAF@Z 100286c0 f   RFIDScannerImpl.obj
 0001:000276f0       ?get_CapMultipleProtocols@COPOSRFIDScanner@@UAGJPAJ@Z 100286f0 f   RFIDScannerImpl.obj
 0001:00027720       ?get_CapReadTimer@COPOSRFIDScanner@@UAGJPAF@Z 10028720 f   RFIDScannerImpl.obj
 0001:00027750       ?get_CapWriteTag@COPOSRFIDScanner@@UAGJPAJ@Z 10028750 f   RFIDScannerImpl.obj
 0001:00027780       ?get_ContinuousReadMode@COPOSRFIDScanner@@UAGJPAF@Z 10028780 f   RFIDScannerImpl.obj
 0001:000277b0       ?get_CurrentTagID@COPOSRFIDScanner@@UAGJPAPA_W@Z 100287b0 f   RFIDScannerImpl.obj
 0001:000277e0       ?get_CurrentTagProtocol@COPOSRFIDScanner@@UAGJPAJ@Z 100287e0 f   RFIDScannerImpl.obj
 0001:00027810       ?get_CurrentTagUserData@COPOSRFIDScanner@@UAGJPAPA_W@Z 10028810 f   RFIDScannerImpl.obj
 0001:00027840       ?get_ProtocolMask@COPOSRFIDScanner@@UAGJPAJ@Z 10028840 f   RFIDScannerImpl.obj
 0001:00027870       ?put_ProtocolMask@COPOSRFIDScanner@@UAGJJ@Z 10028870 f   RFIDScannerImpl.obj
 0001:000278a0       ?get_ReadTimerInterval@COPOSRFIDScanner@@UAGJPAJ@Z 100288a0 f   RFIDScannerImpl.obj
 0001:000278d0       ?put_ReadTimerInterval@COPOSRFIDScanner@@UAGJJ@Z 100288d0 f   RFIDScannerImpl.obj
 0001:00027900       ?get_TagCount@COPOSRFIDScanner@@UAGJPAJ@Z 10028900 f   RFIDScannerImpl.obj
 0001:00027930       ?DisableTag@COPOSRFIDScanner@@UAGJPA_WJ0PAJ@Z 10028930 f   RFIDScannerImpl.obj
 0001:00027a40       ?FirstTag@COPOSRFIDScanner@@UAGJPAJ@Z 10028a40 f   RFIDScannerImpl.obj
 0001:00027a70       ?LockTag@COPOSRFIDScanner@@UAGJPA_WJ0PAJ@Z 10028a70 f   RFIDScannerImpl.obj
 0001:00027b80       ?NextTag@COPOSRFIDScanner@@UAGJPAJ@Z 10028b80 f   RFIDScannerImpl.obj
 0001:00027bb0       ?PreviousTag@COPOSRFIDScanner@@UAGJPAJ@Z 10028bb0 f   RFIDScannerImpl.obj
 0001:00027be0       ?ReadTags@COPOSRFIDScanner@@UAGJJPA_W0JJJ0PAJ@Z 10028be0 f   RFIDScannerImpl.obj
 0001:00027d90       ?StartReadTags@COPOSRFIDScanner@@UAGJJPA_W0JJ0PAJ@Z 10028d90 f   RFIDScannerImpl.obj
 0001:00027f20       ?StopReadTags@COPOSRFIDScanner@@UAGJPA_WPAJ@Z 10028f20 f   RFIDScannerImpl.obj
 0001:00027fd0       ?WriteTagData@COPOSRFIDScanner@@UAGJPA_W0JJ0PAJ@Z 10028fd0 f   RFIDScannerImpl.obj
 0001:00028130       ?WriteTagID@COPOSRFIDScanner@@UAGJPA_W0J0PAJ@Z 10029130 f   RFIDScannerImpl.obj
 0001:00028260       ??0?$CComControl@VCOPOSRFIDScanner@@V?$CWindowImpl@VCOPOSRFIDScanner@@VCWindow@ATL@@V?$CWinTraits@$0FGAAAAAA@$0A@@3@@ATL@@@ATL@@QAE@XZ 10029260 f i RFIDScannerImpl.obj
 0001:000282a0       ??0?$CComPtr@UIAdviseSink@@@ATL@@QAE@XZ 100292a0 f i RFIDScannerImpl.obj
 0001:000282d0       ??0?$CComPtr@UIDataAdviseHolder@@@ATL@@QAE@XZ 100292d0 f i RFIDScannerImpl.obj
 0001:00028300       ??0?$CComPtr@UIOleAdviseHolder@@@ATL@@QAE@XZ 10029300 f i RFIDScannerImpl.obj
 0001:00028330       ??0?$CComPtr@UIOleClientSite@@@ATL@@QAE@XZ 10029330 f i RFIDScannerImpl.obj
 0001:00028360       ??0?$CComPtr@UIOleInPlaceSiteWindowless@@@ATL@@QAE@XZ 10029360 f i RFIDScannerImpl.obj
 0001:00028390       ??0?$CComPtrBase@UIAdviseSink@@@ATL@@IAE@XZ 10029390 f i RFIDScannerImpl.obj
 0001:000283b0       ??0?$CComPtrBase@UIDataAdviseHolder@@@ATL@@IAE@XZ 100293b0 f i RFIDScannerImpl.obj
 0001:000283d0       ??0?$CComPtrBase@UIOleAdviseHolder@@@ATL@@IAE@XZ 100293d0 f i RFIDScannerImpl.obj
 0001:000283f0       ??0?$CComPtrBase@UIOleClientSite@@@ATL@@IAE@XZ 100293f0 f i RFIDScannerImpl.obj
 0001:00028410       ??0?$CComPtrBase@UIOleInPlaceSiteWindowless@@@ATL@@IAE@XZ 10029410 f i RFIDScannerImpl.obj
 0001:00028430       ??0?$CComQIPtr@UIDispatch@@$1?_GUID_00020400_0000_0000_c000_000000000046@@3U__s_GUID@@B@ATL@@QAE@XZ 10029430 f i RFIDScannerImpl.obj
 0001:00028460       ??0?$CProxy_IOPOSEvents@VCOPOSRFIDScanner@@@@QAE@PAVCOPOSRFIDScanner@@@Z 10029460 f i RFIDScannerImpl.obj
 0001:000284d0       ??0?$CWindowImpl@VCOPOSRFIDScanner@@VCWindow@ATL@@V?$CWinTraits@$0FGAAAAAA@$0A@@3@@ATL@@QAE@XZ 100294d0 f i RFIDScannerImpl.obj
 0001:00028500       ??0?$CWindowImplBaseT@VCWindow@ATL@@V?$CWinTraits@$0FGAAAAAA@$0A@@2@@ATL@@QAE@XZ 10029500 f i RFIDScannerImpl.obj
 0001:00028540       ??0?$CWindowImplRoot@VCWindow@ATL@@@ATL@@QAE@XZ 10029540 f i RFIDScannerImpl.obj
 0001:000285a0       ??0?$IConnectionPointContainerImpl@VCOPOSRFIDScanner@@@ATL@@QAE@XZ 100295a0 f i RFIDScannerImpl.obj
 0001:000285d0       ??0?$IConnectionPointImpl@VCOPOSRFIDScanner@@$1?DIID__IOPOSRFIDScannerEvents@@3U_GUID@@BVCComDynamicUnkArray@ATL@@@ATL@@QAE@XZ 100295d0 f i RFIDScannerImpl.obj
 0001:00028610       ??0?$IConnectionPointImpl@VCOPOSRFIDScanner@@$1?IID_IPropertyNotifySink@@3U_GUID@@BVCComDynamicUnkArray@ATL@@@ATL@@QAE@XZ 10029610 f i RFIDScannerImpl.obj
 0001:00028650       ??0?$IDataObjectImpl@VCOPOSRFIDScanner@@@ATL@@QAE@XZ 10029650 f i RFIDScannerImpl.obj
 0001:00028680       ??0?$IDispatchImpl@UIOPOSRFIDScanner@@$1?IID_IOPOSRFIDScanner@@3U_GUID@@B$1?LIBID_OposRFIDScanner_CCO@@3U3@B$00$0A@VCComTypeInfoHolder@ATL@@@ATL@@QAE@XZ 10029680 f i RFIDScannerImpl.obj
 0001:000286b0       ??0?$IObjectSafetyImpl@VCOPOSRFIDScanner@@$02@ATL@@QAE@XZ 100296b0 f i RFIDScannerImpl.obj
 0001:000286f0       ??0?$IOleControlImpl@VCOPOSRFIDScanner@@@ATL@@QAE@XZ 100296f0 f i RFIDScannerImpl.obj
 0001:00028720       ??0?$IOleInPlaceActiveObjectImpl@VCOPOSRFIDScanner@@@ATL@@QAE@XZ 10029720 f i RFIDScannerImpl.obj
 0001:00028750       ??0?$IOleInPlaceObjectWindowlessImpl@VCOPOSRFIDScanner@@@ATL@@QAE@XZ 10029750 f i RFIDScannerImpl.obj
 0001:00028780       ??0?$IOleObjectImpl@VCOPOSRFIDScanner@@@ATL@@QAE@XZ 10029780 f i RFIDScannerImpl.obj
 0001:000287b0       ??0?$IPersistStorageImpl@VCOPOSRFIDScanner@@@ATL@@QAE@XZ 100297b0 f i RFIDScannerImpl.obj
 0001:000287e0       ??0?$IPersistStreamInitImpl@VCOPOSRFIDScanner@@@ATL@@QAE@XZ 100297e0 f i RFIDScannerImpl.obj
 0001:00028810       ??0?$IPropertyNotifySinkCP@VCOPOSRFIDScanner@@VCComDynamicUnkArray@ATL@@@ATL@@QAE@XZ 10029810 f i RFIDScannerImpl.obj
 0001:00028840       ??0?$IProvideClassInfo2Impl@$1?CLSID_OPOSRFIDScanner@@3U_GUID@@B$1?DIID__IOPOSRFIDScannerEvents@@3U2@B$1?LIBID_OposRFIDScanner_CCO@@3U2@B$00$0A@VCComTypeInfoHolder@ATL@@@ATL@@QAE@XZ 10029840 f i RFIDScannerImpl.obj
 0001:00028870       ??0?$IQuickActivateImpl@VCOPOSRFIDScanner@@@ATL@@QAE@XZ 10029870 f i RFIDScannerImpl.obj
 0001:000288a0       ??0?$ISpecifyPropertyPagesImpl@VCOPOSRFIDScanner@@@ATL@@QAE@XZ 100298a0 f i RFIDScannerImpl.obj
 0001:000288d0       ??0?$IViewObjectExImpl@VCOPOSRFIDScanner@@@ATL@@QAE@XZ 100298d0 f i RFIDScannerImpl.obj
 0001:00028900       ??0?$_ICPLocator@$1?DIID__IOPOSRFIDScannerEvents@@3U_GUID@@B@ATL@@QAE@XZ 10029900 f i RFIDScannerImpl.obj
 0001:00028920       ??0?$_ICPLocator@$1?IID_IPropertyNotifySink@@3U_GUID@@B@ATL@@QAE@XZ 10029920 f i RFIDScannerImpl.obj
 0001:00028940       ??0CComControlBase@ATL@@QAE@AAPAUHWND__@@@Z 10029940 f i RFIDScannerImpl.obj
 0001:00028af0       ??0CComDynamicUnkArray@ATL@@QAE@XZ 10029af0 f i RFIDScannerImpl.obj
 0001:00028b20       ??0CDynamicStdCallThunk2@ATL@@QAE@XZ 10029b20 f i RFIDScannerImpl.obj
 0001:00028b40       ??0CMessageMap@ATL@@QAE@XZ 10029b40 f i RFIDScannerImpl.obj
 0001:00028b60       ??0CWindow@ATL@@QAE@PAUHWND__@@@Z 10029b60 f i RFIDScannerImpl.obj
 0001:00028b80       ??0CWndProcThunk@ATL@@QAE@XZ 10029b80 f i RFIDScannerImpl.obj
 0001:00028bb0       ??0IConnectionPointContainer@@QAE@XZ 10029bb0 f i RFIDScannerImpl.obj
 0001:00028be0       ??0IDataObject@@QAE@XZ     10029be0 f i RFIDScannerImpl.obj
 0001:00028c10       ??0IDispatch@@QAE@XZ       10029c10 f i RFIDScannerImpl.obj
 0001:00028c40       ??0IOPOSRFIDScanner@@QAE@XZ 10029c40 f i RFIDScannerImpl.obj
 0001:00028c70       ??0IOPOSRFIDScanner_1_12@@QAE@XZ 10029c70 f i RFIDScannerImpl.obj
 0001:00028ca0       ??0IObjectSafety@@QAE@XZ   10029ca0 f i RFIDScannerImpl.obj
 0001:00028cd0       ??0IOleControl@@QAE@XZ     10029cd0 f i RFIDScannerImpl.obj
 0001:00028d00       ??0IOleInPlaceActiveObject@@QAE@XZ 10029d00 f i RFIDScannerImpl.obj
 0001:00028d30       ??0IOleInPlaceObject@@QAE@XZ 10029d30 f i RFIDScannerImpl.obj
 0001:00028d60       ??0IOleInPlaceObjectWindowless@@QAE@XZ 10029d60 f i RFIDScannerImpl.obj
 0001:00028d90       ??0IOleObject@@QAE@XZ      10029d90 f i RFIDScannerImpl.obj
 0001:00028dc0       ??0IOleWindow@@QAE@XZ      10029dc0 f i RFIDScannerImpl.obj
 0001:00028df0       ??0IPersist@@QAE@XZ        10029df0 f i RFIDScannerImpl.obj
 0001:00028e20       ??0IPersistStorage@@QAE@XZ 10029e20 f i RFIDScannerImpl.obj
 0001:00028e50       ??0IPersistStreamInit@@QAE@XZ 10029e50 f i RFIDScannerImpl.obj
 0001:00028e80       ??0IProvideClassInfo2@@QAE@XZ 10029e80 f i RFIDScannerImpl.obj
 0001:00028eb0       ??0IProvideClassInfo@@QAE@XZ 10029eb0 f i RFIDScannerImpl.obj
 0001:00028ee0       ??0IQuickActivate@@QAE@XZ  10029ee0 f i RFIDScannerImpl.obj
 0001:00028f10       ??0ISpecifyPropertyPages@@QAE@XZ 10029f10 f i RFIDScannerImpl.obj
 0001:00028f40       ??0IViewObject2@@QAE@XZ    10029f40 f i RFIDScannerImpl.obj
 0001:00028f70       ??0IViewObject@@QAE@XZ     10029f70 f i RFIDScannerImpl.obj
 0001:00028fa0       ??0IViewObjectEx@@QAE@XZ   10029fa0 f i RFIDScannerImpl.obj
 0001:00028fd0       ??0OposVariantResult@@QAE@XZ 10029fd0 f i RFIDScannerImpl.obj
 0001:00029000       ??0_CW@@QAE@PBD@Z          1002a000 f i RFIDScannerImpl.obj
 0001:00029040       ??0_CW@@QAE@PB_W@Z         1002a040 f i RFIDScannerImpl.obj
 0001:00029080       ??0_CWNCC@@QAE@PBD@Z       1002a080 f i RFIDScannerImpl.obj
 0001:000290b0       ??1?$CComControl@VCOPOSRFIDScanner@@V?$CWindowImpl@VCOPOSRFIDScanner@@VCWindow@ATL@@V?$CWinTraits@$0FGAAAAAA@$0A@@3@@ATL@@@ATL@@UAE@XZ 1002a0b0 f i RFIDScannerImpl.obj
 0001:000290e0       ??1?$CComPtr@UIDataAdviseHolder@@@ATL@@QAE@XZ 1002a0e0 f i RFIDScannerImpl.obj
 0001:00029110       ??1?$CComPtr@UIOleAdviseHolder@@@ATL@@QAE@XZ 1002a110 f i RFIDScannerImpl.obj
 0001:00029140       ??1?$CComPtr@UIOleInPlaceSiteWindowless@@@ATL@@QAE@XZ 1002a140 f i RFIDScannerImpl.obj
 0001:00029170       ??1?$CComPtrBase@UIDataAdviseHolder@@@ATL@@QAE@XZ 1002a170 f i RFIDScannerImpl.obj
 0001:000291c0       ??1?$CComPtrBase@UIOleAdviseHolder@@@ATL@@QAE@XZ 1002a1c0 f i RFIDScannerImpl.obj
 0001:00029210       ??1?$CComPtrBase@UIOleInPlaceSiteWindowless@@@ATL@@QAE@XZ 1002a210 f i RFIDScannerImpl.obj
 0001:00029260       ??1?$CComQIPtr@UIDispatch@@$1?_GUID_00020400_0000_0000_c000_000000000046@@3U__s_GUID@@B@ATL@@QAE@XZ 1002a260 f i RFIDScannerImpl.obj
 0001:00029290       ??1?$CProxy_IOPOSEvents@VCOPOSRFIDScanner@@@@QAE@XZ 1002a290 f i RFIDScannerImpl.obj
 0001:000292c0       ??1?$CWindowImpl@VCOPOSRFIDScanner@@VCWindow@ATL@@V?$CWinTraits@$0FGAAAAAA@$0A@@3@@ATL@@UAE@XZ 1002a2c0 f i RFIDScannerImpl.obj
 0001:000292f0       ??1?$CWindowImplBaseT@VCWindow@ATL@@V?$CWinTraits@$0FGAAAAAA@$0A@@2@@ATL@@UAE@XZ 1002a2f0 f i RFIDScannerImpl.obj
 0001:00029320       ??1?$CWindowImplRoot@VCWindow@ATL@@@ATL@@UAE@XZ 1002a320 f i RFIDScannerImpl.obj
 0001:000293c0       ??1?$IConnectionPointImpl@VCOPOSRFIDScanner@@$1?DIID__IOPOSRFIDScannerEvents@@3U_GUID@@BVCComDynamicUnkArray@ATL@@@ATL@@QAE@XZ 1002a3c0 f i RFIDScannerImpl.obj
 0001:00029440       ??1?$IConnectionPointImpl@VCOPOSRFIDScanner@@$1?IID_IPropertyNotifySink@@3U_GUID@@BVCComDynamicUnkArray@ATL@@@ATL@@QAE@XZ 1002a440 f i RFIDScannerImpl.obj
 0001:000294c0       ??1?$IPropertyNotifySinkCP@VCOPOSRFIDScanner@@VCComDynamicUnkArray@ATL@@@ATL@@QAE@XZ 1002a4c0 f i RFIDScannerImpl.obj
 0001:000294f0       ??1CComControlBase@ATL@@UAE@XZ 1002a4f0 f i RFIDScannerImpl.obj
 0001:000295b0       ??1CComDynamicUnkArray@ATL@@QAE@XZ 1002a5b0 f i RFIDScannerImpl.obj
 0001:000295f0       ??1CDynamicStdCallThunk2@ATL@@QAE@XZ 1002a5f0 f i RFIDScannerImpl.obj
 0001:00029620       ??1CWndProcThunk@ATL@@QAE@XZ 1002a620 f i RFIDScannerImpl.obj
 0001:00029650       ??1OposVariantResult@@QAE@XZ 1002a650 f i RFIDScannerImpl.obj
 0001:00029680       ??1_CW@@QAE@XZ             1002a680 f i RFIDScannerImpl.obj
 0001:000296f0       ??1_CWNCC@@QAE@XZ          1002a6f0 f i RFIDScannerImpl.obj
 0001:00029720       ??B_CW@@QAEPB_WXZ          1002a720 f i RFIDScannerImpl.obj
 0001:00029760       ??B_CWNCC@@QAEPA_WXZ       1002a760 f i RFIDScannerImpl.obj
 0001:00029790       ??_EOposVariant@@QAEPAXI@Z 1002a790 f i RFIDScannerImpl.obj
 0001:00029820       ?EventClaim@COPOSRFIDScanner@@IAEXXZ 1002a820 f i RFIDScannerImpl.obj
 0001:00029860       ?EventClose@COPOSRFIDScanner@@IAEXXZ 1002a860 f i RFIDScannerImpl.obj
 0001:00029900       ?EventInit@COPOSRFIDScanner@@IAEJXZ 1002a900 f i RFIDScannerImpl.obj
 0001:00029b30       ?EventOpen@COPOSRFIDScanner@@IAEXXZ 1002ab30 f i RFIDScannerImpl.obj
 0001:00029b70       ?EventPreCloseRelease@COPOSRFIDScanner@@IAEXXZ 1002ab70 f i RFIDScannerImpl.obj
 0001:00029bf0       ?EventUninit@COPOSRFIDScanner@@IAEXXZ 1002abf0 f i RFIDScannerImpl.obj
 0001:00029d20       ?EventWindowProc@COPOSRFIDScanner@@IAGJIIJ@Z 1002ad20 f i RFIDScannerImpl.obj
 0001:00029ef0       ?FireEventCleanup@COPOSRFIDScanner@@IAEXXZ 1002aef0 f i RFIDScannerImpl.obj
 0001:00029f40       ?FireEventSetup@COPOSRFIDScanner@@IAE_NXZ 1002af40 f i RFIDScannerImpl.obj
 0001:00029fb0       ?GetModuleInstance@CComModule@ATL@@QAEPAUHINSTANCE__@@XZ 1002afb0 f i RFIDScannerImpl.obj
 0001:00029fd0       ?SetRC@COPOSRFIDScanner@@IAEJJ@Z 1002afd0 f i RFIDScannerImpl.obj
 0001:0002a000       ?s_EventWindowProc@COPOSRFIDScanner@@KGJPAUHWND__@@IIJ@Z 1002b000 f i RFIDScannerImpl.obj
 0001:0002a0a0       __snwprintf                1002b0a0 f i RFIDScannerImpl.obj
 0001:0002a100       __vfwprintf_l              1002b100 f i RFIDScannerImpl.obj
 0001:0002a130       __vsnwprintf               1002b130 f i RFIDScannerImpl.obj
 0001:0002a160       __vsnwprintf_l             1002b160 f i RFIDScannerImpl.obj
 0001:0002a1d0       _vfwprintf                 1002b1d0 f i RFIDScannerImpl.obj
 0001:0002a1f2       _DebugBreak@0              1002b1f2 f   kernel32:KERNEL32.dll
 0001:0002a1f8       _Sleep@4                   1002b1f8 f   kernel32:KERNEL32.dll
 0001:0002a1fe       _GetCurrentProcess@0       1002b1fe f   kernel32:KERNEL32.dll
 0001:0002a204       _TerminateProcess@8        1002b204 f   kernel32:KERNEL32.dll
 0001:0002a20a       _MultiByteToWideChar@24    1002b20a f   kernel32:KERNEL32.dll
 0001:0002a210       _WideCharToMultiByte@32    1002b210 f   kernel32:KERNEL32.dll
 0001:0002a216       _DecodePointer@4           1002b216 f   kernel32:KERNEL32.dll
 0001:0002a21c       _RaiseException@16         1002b21c f   kernel32:KERNEL32.dll
 0001:0002a222       _GetLastError@0            1002b222 f   kernel32:KERNEL32.dll
 0001:0002a228       _SetLastError@4            1002b228 f   kernel32:KERNEL32.dll
 0001:0002a22e       _InitializeCriticalSectionEx@12 1002b22e f   kernel32:KERNEL32.dll
 0001:0002a234       _DeleteCriticalSection@4   1002b234 f   kernel32:KERNEL32.dll
 0001:0002a23a       _EncodePointer@4           1002b23a f   kernel32:KERNEL32.dll
 0001:0002a240       _EnterCriticalSection@4    1002b240 f   kernel32:KERNEL32.dll
 0001:0002a246       _LeaveCriticalSection@4    1002b246 f   kernel32:KERNEL32.dll
 0001:0002a24c       _ResetEvent@4              1002b24c f   kernel32:KERNEL32.dll
 0001:0002a252       _ReleaseMutex@4            1002b252 f   kernel32:KERNEL32.dll
 0001:0002a258       _WaitForSingleObject@8     1002b258 f   kernel32:KERNEL32.dll
 0001:0002a25e       _GetCurrentThreadId@0      1002b25e f   kernel32:KERNEL32.dll
 0001:0002a264       _DisableThreadLibraryCalls@4 1002b264 f   kernel32:KERNEL32.dll
 0001:0002a26a       _FreeLibrary@4             1002b26a f   kernel32:KERNEL32.dll
 0001:0002a270       _GetModuleFileNameW@12     1002b270 f   kernel32:KERNEL32.dll
 0001:0002a276       _GetModuleHandleW@4        1002b276 f   kernel32:KERNEL32.dll
 0001:0002a27c       _GetProcAddress@8          1002b27c f   kernel32:KERNEL32.dll
 0001:0002a282       _LoadLibraryExW@12         1002b282 f   kernel32:KERNEL32.dll
 0001:0002a288       _LoadResource@8            1002b288 f   kernel32:KERNEL32.dll
 0001:0002a28e       _SizeofResource@8          1002b28e f   kernel32:KERNEL32.dll
 0001:0002a294       _FindResourceW@12          1002b294 f   kernel32:KERNEL32.dll
 0001:0002a29a       _GlobalAlloc@8             1002b29a f   kernel32:KERNEL32.dll
 0001:0002a2a0       _GlobalUnlock@4            1002b2a0 f   kernel32:KERNEL32.dll
 0001:0002a2a6       _GlobalLock@4              1002b2a6 f   kernel32:KERNEL32.dll
 0001:0002a2ac       _MulDiv@12                 1002b2ac f   kernel32:KERNEL32.dll
 0001:0002a2b2       _lstrcmpiW@8               1002b2b2 f   kernel32:KERNEL32.dll
 0001:0002a2b8       _DeleteFileW@4             1002b2b8 f   kernel32:KERNEL32.dll
 0001:0002a2be       _CloseHandle@4             1002b2be f   kernel32:KERNEL32.dll
 0001:0002a2c4       _SetEvent@4                1002b2c4 f   kernel32:KERNEL32.dll
 0001:0002a2ca       _CreateMutexW@12           1002b2ca f   kernel32:KERNEL32.dll
 0001:0002a2d0       _CreateEventW@16           1002b2d0 f   kernel32:KERNEL32.dll
 0001:0002a2d6       _GetCurrentProcessId@0     1002b2d6 f   kernel32:KERNEL32.dll
 0001:0002a2dc       _LocalFree@4               1002b2dc f   kernel32:KERNEL32.dll
 0001:0002a2e2       _FormatMessageW@28         1002b2e2 f   kernel32:KERNEL32.dll
 0001:0002a2e8       _GetActiveWindow@0         1002b2e8 f   user32:USER32.dll
 0001:0002a2ee       _MessageBoxW@16            1002b2ee f   user32:USER32.dll
 0001:0002a2f4       _UnregisterClassW@8        1002b2f4 f   user32:USER32.dll
 0001:0002a2fa       _PostMessageW@16           1002b2fa f   user32:USER32.dll
 0001:0002a300       _DefWindowProcW@16         1002b300 f   user32:USER32.dll
 0001:0002a306       _CallWindowProcW@20        1002b306 f   user32:USER32.dll
 0001:0002a30c       _RegisterClassExW@4        1002b30c f   user32:USER32.dll
 0001:0002a312       _GetClassInfoExW@12        1002b312 f   user32:USER32.dll
 0001:0002a318       _CreateWindowExW@48        1002b318 f   user32:USER32.dll
 0001:0002a31e       _IsWindow@4                1002b31e f   user32:USER32.dll
 0001:0002a324       _IsChild@8                 1002b324 f   user32:USER32.dll
 0001:0002a32a       _DestroyWindow@4           1002b32a f   user32:USER32.dll
 0001:0002a330       _ShowWindow@8              1002b330 f   user32:USER32.dll
 0001:0002a336       _SetWindowPos@28           1002b336 f   user32:USER32.dll
 0001:0002a33c       _CharNextW@4               1002b33c f   user32:USER32.dll
 0001:0002a342       _SetFocus@4                1002b342 f   user32:USER32.dll
 0001:0002a348       _GetFocus@0                1002b348 f   user32:USER32.dll
 0001:0002a34e       _GetKeyState@4             1002b34e f   user32:USER32.dll
 0001:0002a354       _GetDC@4                   1002b354 f   user32:USER32.dll
 0001:0002a35a       _ReleaseDC@8               1002b35a f   user32:USER32.dll
 0001:0002a360       _BeginPaint@8              1002b360 f   user32:USER32.dll
 0001:0002a366       _EndPaint@8                1002b366 f   user32:USER32.dll
 0001:0002a36c       _SetWindowRgn@12           1002b36c f   user32:USER32.dll
 0001:0002a372       _InvalidateRect@12         1002b372 f   user32:USER32.dll
 0001:0002a378       _GetClientRect@8           1002b378 f   user32:USER32.dll
 0001:0002a37e       _IntersectRect@12          1002b37e f   user32:USER32.dll
 0001:0002a384       _UnionRect@12              1002b384 f   user32:USER32.dll
 0001:0002a38a       _OffsetRect@12             1002b38a f   user32:USER32.dll
 0001:0002a390       _EqualRect@8               1002b390 f   user32:USER32.dll
 0001:0002a396       _PtInRect@12               1002b396 f   user32:USER32.dll
 0001:0002a39c       _GetWindowLongW@8          1002b39c f   user32:USER32.dll
 0001:0002a3a2       _SetWindowLongW@12         1002b3a2 f   user32:USER32.dll
 0001:0002a3a8       _GetParent@4               1002b3a8 f   user32:USER32.dll
 0001:0002a3ae       _LoadCursorW@8             1002b3ae f   user32:USER32.dll
 0001:0002a3b4       _PeekMessageW@20           1002b3b4 f   user32:USER32.dll
 0001:0002a3ba       _RegisterClassW@4          1002b3ba f   user32:USER32.dll
 0001:0002a3c0       _LoadBitmapW@8             1002b3c0 f   user32:USER32.dll
 0001:0002a3c6       _CloseMetaFile@4           1002b3c6 f   gdi32:GDI32.dll
 0001:0002a3cc       _CreateDCW@16              1002b3cc f   gdi32:GDI32.dll
 0001:0002a3d2       _CreateMetaFileW@4         1002b3d2 f   gdi32:GDI32.dll
 0001:0002a3d8       _CreateRectRgnIndirect@4   1002b3d8 f   gdi32:GDI32.dll
 0001:0002a3de       _DeleteDC@4                1002b3de f   gdi32:GDI32.dll
 0001:0002a3e4       _DeleteMetaFile@4          1002b3e4 f   gdi32:GDI32.dll
 0001:0002a3ea       _GetDeviceCaps@8           1002b3ea f   gdi32:GDI32.dll
 0001:0002a3f0       _RestoreDC@8               1002b3f0 f   gdi32:GDI32.dll
 0001:0002a3f6       _SaveDC@4                  1002b3f6 f   gdi32:GDI32.dll
 0001:0002a3fc       _SetMapMode@8              1002b3fc f   gdi32:GDI32.dll
 0001:0002a402       _LPtoDP@12                 1002b402 f   gdi32:GDI32.dll
 0001:0002a408       _SetViewportOrgEx@16       1002b408 f   gdi32:GDI32.dll
 0001:0002a40e       _SetWindowExtEx@16         1002b40e f   gdi32:GDI32.dll
 0001:0002a414       _SetWindowOrgEx@16         1002b414 f   gdi32:GDI32.dll
 0001:0002a41a       _BitBlt@36                 1002b41a f   gdi32:GDI32.dll
 0001:0002a420       _CreateCompatibleDC@4      1002b420 f   gdi32:GDI32.dll
 0001:0002a426       _DeleteObject@4            1002b426 f   gdi32:GDI32.dll
 0001:0002a42c       _SelectObject@8            1002b42c f   gdi32:GDI32.dll
 0001:0002a432       _GetObjectW@12             1002b432 f   gdi32:GDI32.dll
 0001:0002a438       _RegCloseKey@4             1002b438 f   advapi32:ADVAPI32.dll
 0001:0002a43e       _RegCreateKeyExW@36        1002b43e f   advapi32:ADVAPI32.dll
 0001:0002a444       _RegDeleteKeyW@8           1002b444 f   advapi32:ADVAPI32.dll
 0001:0002a44a       _RegDeleteValueW@8         1002b44a f   advapi32:ADVAPI32.dll
 0001:0002a450       _RegEnumKeyExW@32          1002b450 f   advapi32:ADVAPI32.dll
 0001:0002a456       _RegOpenKeyExW@20          1002b456 f   advapi32:ADVAPI32.dll
 0001:0002a45c       _RegQueryInfoKeyW@48       1002b45c f   advapi32:ADVAPI32.dll
 0001:0002a462       _RegSetValueExW@24         1002b462 f   advapi32:ADVAPI32.dll
 0001:0002a468       _RegQueryValueExW@24       1002b468 f   advapi32:ADVAPI32.dll
 0001:0002a46e       _CoCreateInstance@20       1002b46e f   ole32:ole32.dll
 0001:0002a474       _StringFromGUID2@12        1002b474 f   ole32:ole32.dll
 0001:0002a47a       _CoTaskMemAlloc@4          1002b47a f   ole32:ole32.dll
 0001:0002a480       _CoTaskMemRealloc@8        1002b480 f   ole32:ole32.dll
 0001:0002a486       _CoTaskMemFree@4           1002b486 f   ole32:ole32.dll
 0001:0002a48c       _ReadClassStm@8            1002b48c f   ole32:ole32.dll
 0001:0002a492       _WriteClassStm@8           1002b492 f   ole32:ole32.dll
 0001:0002a498       _CreateDataAdviseHolder@4  1002b498 f   ole32:ole32.dll
 0001:0002a49e       _OleSaveToStream@8         1002b49e f   ole32:ole32.dll
 0001:0002a4a4       _CreateOleAdviseHolder@4   1002b4a4 f   ole32:ole32.dll
 0001:0002a4aa       _OleRegGetUserType@12      1002b4aa f   ole32:ole32.dll
 0001:0002a4b0       _OleRegGetMiscStatus@12    1002b4b0 f   ole32:ole32.dll
 0001:0002a4b6       _OleRegEnumVerbs@8         1002b4b6 f   ole32:ole32.dll
 0001:0002a4bc       _CLSIDFromProgID@8         1002b4bc f   ole32:ole32.dll
 0001:0002a4c2       _SysAllocString@4          1002b4c2 f   oleaut32:OLEAUT32.dll
 0001:0002a4c8       _SysAllocStringLen@8       1002b4c8 f   oleaut32:OLEAUT32.dll
 0001:0002a4ce       _SysFreeString@4           1002b4ce f   oleaut32:OLEAUT32.dll
 0001:0002a4d4       _SysStringLen@4            1002b4d4 f   oleaut32:OLEAUT32.dll
 0001:0002a4da       _VariantClear@4            1002b4da f   oleaut32:OLEAUT32.dll
 0001:0002a4e0       _VariantCopyInd@8          1002b4e0 f   oleaut32:OLEAUT32.dll
 0001:0002a4e6       _VariantChangeType@16      1002b4e6 f   oleaut32:OLEAUT32.dll
 0001:0002a4ec       _SysStringByteLen@4        1002b4ec f   oleaut32:OLEAUT32.dll
 0001:0002a4f2       _SysAllocStringByteLen@8   1002b4f2 f   oleaut32:OLEAUT32.dll
 0001:0002a4f8       _VariantInit@4             1002b4f8 f   oleaut32:OLEAUT32.dll
 0001:0002a4fe       _VarUI4FromStr@16          1002b4fe f   oleaut32:OLEAUT32.dll
 0001:0002a504       _LoadTypeLib@8             1002b504 f   oleaut32:OLEAUT32.dll
 0001:0002a50a       _LoadRegTypeLib@20         1002b50a f   oleaut32:OLEAUT32.dll
 0001:0002a510       _RegisterTypeLib@12        1002b510 f   oleaut32:OLEAUT32.dll
 0001:0002a516       _UnRegisterTypeLib@20      1002b516 f   oleaut32:OLEAUT32.dll
 0001:0002a51c       _OleCreatePropertyFrame@44 1002b51c f   oleaut32:OLEAUT32.dll
 0001:0002a530       @_RTC_AllocaHelper@12      1002b530 f   LIBCMTD:stack.obj
 0001:0002a570       @_RTC_CheckStackVars2@12   1002b570 f   LIBCMTD:stack.obj
 0001:0002a650       @_RTC_CheckStackVars@8     1002b650 f   LIBCMTD:stack.obj
 0001:0002a6b0       __RTC_CheckEsp             1002b6b0 f   LIBCMTD:stack.obj
 0001:0002a6f0       @__security_check_cookie@4 1002b6f0 f   LIBCMTD:secchk.obj
 0001:0002a710       __CRT_RTC_INIT             1002b710 f   LIBCMTD:init.obj
 0001:0002a720       __CRT_RTC_INITW            1002b720 f   LIBCMTD:init.obj
 0001:0002a730       __RTC_InitBase             1002b730 f   LIBCMTD:init.obj
 0001:0002a760       __RTC_Shutdown             1002b760 f   LIBCMTD:init.obj
 0001:0002a780       ??_U@YAPAXI@Z              1002b780 f   LIBCMTD:new_array.obj
 0001:0002a7a0       ??3@YAXPAXI@Z              1002b7a0 f   LIBCMTD:delete_scalar_size.obj
 0001:0002a7c0       ??_V@YAXPAX@Z              1002b7c0 f   LIBCMTD:delete_array.obj
 0001:0002a7e0       ??_V@YAXPAXI@Z             1002b7e0 f   LIBCMTD:delete_array_size.obj
 0001:0002a800       ?configure_argv@__scrt_narrow_argv_policy@@SAHXZ 1002b800 f i LIBCMTD:utility.obj
 0001:0002a8b0       ?initialize_environment@__scrt_narrow_environment_policy@@SAHXZ 1002b8b0 f i LIBCMTD:utility.obj
 0001:0002a930       _NtCurrentTeb              1002b930 f i LIBCMTD:utility.obj
 0001:0002a940       ___scrt_acquire_startup_lock 1002b940 f   LIBCMTD:utility.obj
 0001:0002a990       ___scrt_dllmain_after_initialize_c 1002b990 f   LIBCMTD:utility.obj
 0001:0002a9c0       ___scrt_dllmain_before_initialize_c 1002b9c0 f   LIBCMTD:utility.obj
 0001:0002a9e0       ___scrt_dllmain_crt_thread_attach 1002b9e0 f   LIBCMTD:utility.obj
 0001:0002aa10       ___scrt_dllmain_crt_thread_detach 1002ba10 f   LIBCMTD:utility.obj
 0001:0002aa30       ___scrt_dllmain_exception_filter 1002ba30 f   LIBCMTD:utility.obj
 0001:0002aa80       ___scrt_dllmain_uninitialize_c 1002ba80 f   LIBCMTD:utility.obj
 0001:0002aab0       ___scrt_dllmain_uninitialize_critical 1002bab0 f   LIBCMTD:utility.obj
 0001:0002aad0       ___scrt_initialize_crt     1002bad0 f   LIBCMTD:utility.obj
 0001:0002ab20       ___scrt_initialize_onexit_tables 1002bb20 f   LIBCMTD:utility.obj
 0001:0002ac00       ___scrt_is_nonwritable_in_current_image 1002bc00 f   LIBCMTD:utility.obj
 0001:0002ad30       ___scrt_release_startup_lock 1002bd30 f   LIBCMTD:utility.obj
 0001:0002ad60       ___scrt_uninitialize_crt   1002bd60 f   LIBCMTD:utility.obj
 0001:0002ada0       __onexit                   1002bda0 f   LIBCMTD:utility.obj
 0001:0002ae10       _at_quick_exit             1002be10 f   LIBCMTD:utility.obj
 0001:0002ae50       _atexit                    1002be50 f   LIBCMTD:utility.obj
 0001:0002ae80       ??3@YAXPAX@Z               1002be80 f   LIBCMTD:delete_scalar.obj
 0001:0002aea0       ___raise_securityfailure   1002bea0 f   LIBCMTD:gs_report.obj
 0001:0002aed0       ___report_gsfailure        1002bed0 f   LIBCMTD:gs_report.obj
 0001:0002afe0       ___report_rangecheckfailure 1002bfe0 f   LIBCMTD:gs_report.obj
 0001:0002aff0       ___report_securityfailure  1002bff0 f   LIBCMTD:gs_report.obj
 0001:0002b0d0       ___report_securityfailureEx 1002c0d0 f   LIBCMTD:gs_report.obj
 0001:0002b320       __Init_thread_abort        1002c320 f   LIBCMTD:thread_safe_statics.obj
 0001:0002b340       __Init_thread_footer       1002c340 f   LIBCMTD:thread_safe_statics.obj
 0001:0002b390       __Init_thread_header       1002c390 f   LIBCMTD:thread_safe_statics.obj
 0001:0002b400       __Init_thread_lock         1002c400 f   LIBCMTD:thread_safe_statics.obj
 0001:0002b410       __Init_thread_notify       1002c410 f   LIBCMTD:thread_safe_statics.obj
 0001:0002b460       __Init_thread_unlock       1002c460 f   LIBCMTD:thread_safe_statics.obj
 0001:0002b470       __Init_thread_wait         1002c470 f   LIBCMTD:thread_safe_statics.obj
 0001:0002b500       ??2@YAPAXIABUnothrow_t@std@@@Z 1002c500 f   LIBCMTD:new_scalar_nothrow.obj
 0001:0002b580       ??_U@YAPAXIABUnothrow_t@std@@@Z 1002c580 f   LIBCMTD:new_array_nothrow.obj
 0001:0002b5a0       __allmul                   1002c5a0 f   LIBCMTD:llmul.obj
 0001:0002b5e0       __alloca_probe_16          1002c5e0 f   LIBCMTD:alloca16.obj
 0001:0002b5f6       __alloca_probe_8           1002c5f6     LIBCMTD:alloca16.obj
 0001:0002b610       __alloca_probe             1002c610 f   LIBCMTD:chkstk.obj
 0001:0002b610       __chkstk                   1002c610 f   LIBCMTD:chkstk.obj
 0001:0002bb10       __CRT_INIT@12              1002cb10 f   LIBCMTD:dll_dllmain.obj
 0001:0002bb30       __DllMainCRTStartup@12     1002cb30 f   LIBCMTD:dll_dllmain.obj
 0001:0002bbf0       ?_RTC_AllocaFailure@@YAXPAXPAU_RTC_ALLOCA_NODE@@H@Z 1002cbf0 f   LIBCMTD:error.obj
 0001:0002bce0       ?_RTC_Failure@@YAXPAXH@Z   1002cce0 f   LIBCMTD:error.obj
 0001:0002bd30       ?_RTC_StackFailure@@YAXPAXPBD@Z 1002cd30 f   LIBCMTD:error.obj
 0001:0002c0f0       __RTC_UninitUse            1002d0f0 f   LIBCMTD:error.obj
 0001:0002c1a0       __vsprintf_s_l             1002d1a0 f i LIBCMTD:error.obj
 0001:0002c1d0       _sprintf_s                 1002d1d0 f i LIBCMTD:error.obj
 0001:0002c1f0       ?_RTC_GetErrorFunc@@YAP6AHHPBDH00ZZPBX@Z 1002d1f0 f   LIBCMTD:userapi.obj
 0001:0002c200       ?_RTC_GetErrorFuncW@@YAP6AHHPB_WH00ZZPBX@Z 1002d200 f   LIBCMTD:userapi.obj
 0001:0002c210       __RTC_GetErrDesc           1002d210 f   LIBCMTD:userapi.obj
 0001:0002c230       __RTC_NumErrors            1002d230 f   LIBCMTD:userapi.obj
 0001:0002c240       __RTC_SetErrorFunc         1002d240 f   LIBCMTD:userapi.obj
 0001:0002c260       __RTC_SetErrorFuncW        1002d260 f   LIBCMTD:userapi.obj
 0001:0002c280       __RTC_SetErrorType         1002d280 f   LIBCMTD:userapi.obj
 0001:0002c2b0       ??2@YAPAXI@Z               1002d2b0 f   LIBCMTD:new_scalar.obj
 0001:0002c300       ___isa_available_init      1002d300 f   LIBCMTD:cpu_disp.obj
 0001:0002c640       __get_startup_argv_mode    1002d640 f   LIBCMTD:argv_mode.obj
 0001:0002c650       ___scrt_is_ucrt_dll_in_use 1002d650 f   LIBCMTD:ucrt_detection.obj
 0001:0002c680       ___scrt_fastfail           1002d680 f   LIBCMTD:utility_desktop.obj
 0001:0002c7c0       ___scrt_get_show_window_mode 1002d7c0 f   LIBCMTD:utility_desktop.obj
 0001:0002c800       ___scrt_initialize_mta     1002d800 f   LIBCMTD:utility_desktop.obj
 0001:0002c810       ___scrt_initialize_winrt   1002d810 f   LIBCMTD:utility_desktop.obj
 0001:0002c820       ___scrt_is_managed_app     1002d820 f   LIBCMTD:utility_desktop.obj
 0001:0002c8b0       ___scrt_set_unhandled_exception_filter 1002d8b0 f   LIBCMTD:utility_desktop.obj
 0001:0002c8c0       ___scrt_exe_initialize_mta 1002d8c0 f   LIBCMTD:utility_desktop.obj
 0001:0002c8c0       ___scrt_stub_for_initialize_mta 1002d8c0 f   LIBCMTD:utility_desktop.obj
 0001:0002c8d0       ___scrt_unhandled_exception_filter@4 1002d8d0 f   LIBCMTD:utility_desktop.obj
 0001:0002c950       __crt_debugger_hook        1002d950 f   LIBCMTD:utility_desktop.obj
 0001:0002c960       @_guard_check_icall_nop@4  1002d960 f i LIBCMTD:guard_support.obj
 0001:0002c970       _ReadNoFence               1002d970 f i LIBCMTD:guard_support.obj
 0001:0002c990       _ReadPointerNoFence        1002d990 f i LIBCMTD:guard_support.obj
 0001:0002c9b0       __guard_icall_checks_enforced 1002d9b0 f i LIBCMTD:guard_support.obj
 0001:0002ca50       ___security_init_cookie    1002da50 f   LIBCMTD:gs_support.obj
 0001:0002cad0       ?__scrt_initialize_type_info@@YAXXZ 1002dad0 f   LIBCMTD:tncleanup.obj
 0001:0002cae0       ?__scrt_uninitialize_type_info@@YAXXZ 1002dae0 f   LIBCMTD:tncleanup.obj
 0001:0002cb00       ___local_stdio_scanf_options 1002db00 f i LIBCMTD:default_local_stdio_options.obj
 0001:0002cb10       ___scrt_initialize_default_local_stdio_options 1002db10 f   LIBCMTD:default_local_stdio_options.obj
 0001:0002cb50       ___scrt_get_dyn_tls_init_callback 1002db50 f   LIBCMTD:dyn_tls_init.obj
 0001:0002cb60       __RTC_Initialize           1002db60 f   LIBCMTD:initsect.obj
 0001:0002cb90       __RTC_Terminate            1002db90 f   LIBCMTD:initsect.obj
 0001:0002d040       ?_RTC_GetSrcLine@@YAHPAEPA_WKPAH1K@Z 1002e040 f   LIBCMTD:pdblkup.obj
 0001:0002d3c0       __except_handler4_noexcept 1002e3c0 f   LIBCMTD:chandler4_noexcept.obj
 0001:0002d420       ??0bad_alloc@std@@AAE@QBD@Z 1002e420 f i LIBCMTD:throw_bad_alloc.obj
 0001:0002d450       ??0bad_alloc@std@@QAE@ABV01@@Z 1002e450 f i LIBCMTD:throw_bad_alloc.obj
 0001:0002d480       ??0bad_alloc@std@@QAE@XZ   1002e480 f i LIBCMTD:throw_bad_alloc.obj
 0001:0002d4b0       ??0bad_array_new_length@std@@QAE@ABV01@@Z 1002e4b0 f i LIBCMTD:throw_bad_alloc.obj
 0001:0002d4e0       ??0bad_array_new_length@std@@QAE@XZ 1002e4e0 f i LIBCMTD:throw_bad_alloc.obj
 0001:0002d510       ??0exception@std@@QAE@ABV01@@Z 1002e510 f i LIBCMTD:throw_bad_alloc.obj
 0001:0002d550       ??0exception@std@@QAE@QBDH@Z 1002e550 f i LIBCMTD:throw_bad_alloc.obj
 0001:0002d580       ??1bad_alloc@std@@UAE@XZ   1002e580 f i LIBCMTD:throw_bad_alloc.obj
 0001:0002d5a0       ??1bad_array_new_length@std@@UAE@XZ 1002e5a0 f i LIBCMTD:throw_bad_alloc.obj
 0001:0002d5c0       ??1exception@std@@UAE@XZ   1002e5c0 f i LIBCMTD:throw_bad_alloc.obj
 0001:0002d5f0       ??_Gbad_alloc@std@@UAEPAXI@Z 1002e5f0 f i LIBCMTD:throw_bad_alloc.obj
 0001:0002d5f0       ??_Ebad_alloc@std@@UAEPAXI@Z 1002e5f0 f i LIBCMTD:throw_bad_alloc.obj
 0001:0002d620       ??_Gbad_array_new_length@std@@UAEPAXI@Z 1002e620 f i LIBCMTD:throw_bad_alloc.obj
 0001:0002d620       ??_Ebad_array_new_length@std@@UAEPAXI@Z 1002e620 f i LIBCMTD:throw_bad_alloc.obj
 0001:0002d650       ??_Eexception@std@@UAEPAXI@Z 1002e650 f i LIBCMTD:throw_bad_alloc.obj
 0001:0002d650       ??_Gexception@std@@UAEPAXI@Z 1002e650 f i LIBCMTD:throw_bad_alloc.obj
 0001:0002d680       ?__scrt_throw_std_bad_alloc@@YAXXZ 1002e680 f   LIBCMTD:throw_bad_alloc.obj
 0001:0002d6a0       ?__scrt_throw_std_bad_array_new_length@@YAXXZ 1002e6a0 f   LIBCMTD:throw_bad_alloc.obj
 0001:0002d6c0       ?what@exception@std@@UBEPBDXZ 1002e6c0 f i LIBCMTD:throw_bad_alloc.obj
 0001:0002d6f0       ??1type_info@@UAE@XZ       1002e6f0 f   LIBCMTD:std_type_info_static.obj
 0001:0002d710       ??_Gtype_info@@UAEPAXI@Z   1002e710 f i LIBCMTD:std_type_info_static.obj
 0001:0002d710       ??_Etype_info@@UAEPAXI@Z   1002e710 f i LIBCMTD:std_type_info_static.obj
 0001:0002d73e       ??$?2PAUHINSTANCE__@@@Wrapper@?$CSimpleArray@PAUHINSTANCE__@@V?$CSimpleArrayEqualHelper@PAUHINSTANCE__@@@ATL@@@ATL@@SAPAXIPAPAUHINSTANCE__@@@Z 1002e73e f i atls:atlbase.obj
 0001:0002d746       ??0?$CSimpleArray@PAUHINSTANCE__@@V?$CSimpleArrayEqualHelper@PAUHINSTANCE__@@@ATL@@@ATL@@QAE@XZ 1002e746 f i atls:atlbase.obj
 0001:0002d753       ??0CAtlBaseModule@ATL@@QAE@XZ 1002e753 f   atls:atlbase.obj
 0001:0002d7a6       ??0Wrapper@?$CSimpleArray@PAUHINSTANCE__@@V?$CSimpleArrayEqualHelper@PAUHINSTANCE__@@@ATL@@@ATL@@QAE@ABQAUHINSTANCE__@@@Z 1002e7a6 f i atls:atlbase.obj
 0001:0002d7b6       ??0_ATL_BASE_MODULE70@ATL@@QAE@XZ 1002e7b6 f i atls:atlbase.obj
 0001:0002d7d9       ??1?$CSimpleArray@PAUHINSTANCE__@@V?$CSimpleArrayEqualHelper@PAUHINSTANCE__@@@ATL@@@ATL@@QAE@XZ 1002e7d9 f i atls:atlbase.obj
 0001:0002d7de       ??1CAtlBaseModule@ATL@@QAE@XZ 1002e7de f   atls:atlbase.obj
 0001:0002d7f4       ??1_ATL_BASE_MODULE70@ATL@@QAE@XZ 1002e7f4 f i atls:atlbase.obj
 0001:0002d7fc       ??A?$CSimpleArray@PAUHINSTANCE__@@V?$CSimpleArrayEqualHelper@PAUHINSTANCE__@@@ATL@@@ATL@@QAEAAPAUHINSTANCE__@@H@Z 1002e7fc f i atls:atlbase.obj
 0001:0002d821       ?Add@?$CSimpleArray@PAUHINSTANCE__@@V?$CSimpleArrayEqualHelper@PAUHINSTANCE__@@@ATL@@@ATL@@QAEHABQAUHINSTANCE__@@@Z 1002e821 f i atls:atlbase.obj
 0001:0002d8a3       ?AddResourceInstance@CAtlBaseModule@ATL@@QAE_NPAUHINSTANCE__@@@Z 1002e8a3 f   atls:atlbase.obj
 0001:0002d8d6       ?GetHInstanceAt@CAtlBaseModule@ATL@@QAEPAUHINSTANCE__@@H@Z 1002e8d6 f   atls:atlbase.obj
 0001:0002d91b       ?GetSize@?$CSimpleArray@PAUHINSTANCE__@@V?$CSimpleArrayEqualHelper@PAUHINSTANCE__@@@ATL@@@ATL@@QBEHXZ 1002e91b f i atls:atlbase.obj
 0001:0002d91f       ?InternalSetAtIndex@?$CSimpleArray@PAUHINSTANCE__@@V?$CSimpleArrayEqualHelper@PAUHINSTANCE__@@@ATL@@@ATL@@QAEXHABQAUHINSTANCE__@@@Z 1002e91f f i atls:atlbase.obj
 0001:0002d939       ?RemoveAll@?$CSimpleArray@PAUHINSTANCE__@@V?$CSimpleArrayEqualHelper@PAUHINSTANCE__@@@ATL@@@ATL@@QAEXXZ 1002e939 f i atls:atlbase.obj
 0001:0002d956       ?RemoveAt@?$CSimpleArray@PAUHINSTANCE__@@V?$CSimpleArrayEqualHelper@PAUHINSTANCE__@@@ATL@@@ATL@@QAEHH@Z 1002e956 f i atls:atlbase.obj
 0001:0002d9a4       ?RemoveResourceInstance@CAtlBaseModule@ATL@@QAE_NPAUHINSTANCE__@@@Z 1002e9a4 f   atls:atlbase.obj
 0001:0002da01       ?memmove_s@Checked@ATL@@YAXPAXIPBXI@Z 1002ea01 f i atls:atlbase.obj
 0001:0002dd5e       ?GetCodeAddress@_stdcallthunk@ATL@@QAEPAXXZ 1002ed5e f i atls:atlthunk.obj
 0001:0002dd88       ?Init@_stdcallthunk@ATL@@QAEHKPAX@Z 1002ed88 f i atls:atlthunk.obj
 0001:0002ddbd       ?__AllocStdCallThunk@@YGPAXXZ 1002edbd f   atls:atlthunk.obj
 0001:0002ddc2       ?__AllocStdCallThunk@ATL@@YGPAXXZ 1002edc2 f   atls:atlthunk.obj
 0001:0002ddc7       ?__AllocStdCallThunk_cmn@@YAPAXXZ 1002edc7 f   atls:atlthunk.obj
 0001:0002de8d       ?__FreeStdCallThunk@@YGXPAX@Z 1002ee8d f   atls:atlthunk.obj
 0001:0002de9d       ?__FreeStdCallThunk@ATL@@YGXPAX@Z 1002ee9d f   atls:atlthunk.obj
 0001:0002dead       ?__FreeStdCallThunk_cmn@@YAXPAX@Z 1002eead f   atls:atlthunk.obj
 0001:0002df48       _AtlThunk_AllocateData@0   1002ef48 f   atls:atlthunk.obj
 0001:0002dfad       _AtlThunk_DataToCode@4     1002efad f   atls:atlthunk.obj
 0001:0002dff4       _AtlThunk_FreeData@4       1002eff4 f   atls:atlthunk.obj
 0001:0002e04a       _AtlThunk_InitData@12      1002f04a f   atls:atlthunk.obj
 0001:0002e099       _MemoryBarrier             1002f099 f i atls:atlthunk.obj
 0001:0002e0a7       __InlineInterlockedCompareExchangePointer 1002f0a7 f i atls:atlthunk.obj
 0001:0002e0c0       _memset                    1002f0c0 f   libvcruntimed:memset.obj
 0001:0002e220       ??$__crt_interlocked_exchange_pointer@$$A6AXXZP6AXXZ@@YAP6AXXZPDS6AXXZQ6AXXZ@Z 1002f220 f i libvcruntimed:purevirt.obj
 0001:0002e230       ??$__crt_interlocked_read_pointer@$$A6AXXZ@@YAP6AXXZPDS6AXXZ@Z 1002f230 f i libvcruntimed:purevirt.obj
 0001:0002e250       ?__crt_interlocked_read_32@@YAHPDH@Z 1002f250 f i libvcruntimed:purevirt.obj
 0001:0002e270       __get_purecall_handler     1002f270 f   libvcruntimed:purevirt.obj
 0001:0002e290       __purecall                 1002f290 f   libvcruntimed:purevirt.obj
 0001:0002e2c0       __set_purecall_handler     1002f2c0 f   libvcruntimed:purevirt.obj
 0001:0002e490       _memcmp                    1002f490 f   libvcruntimed:memcmp.obj
 0001:0002ed60       _memcpy                    1002fd60 f   libvcruntimed:memcpy.obj
 0001:0002f2e0       _wcsstr                    100302e0 f   libvcruntimed:wcsstr.obj
 0001:0002f810       __except_handler4          10030810 f   libvcruntimed:chandler4.obj
 0001:0002fa00       ___vcrt_initialize         10030a00 f   libvcruntimed:initialization.obj
 0001:0002fa40       ___vcrt_thread_attach      10030a40 f   libvcruntimed:initialization.obj
 0001:0002fa60       ___vcrt_thread_detach      10030a60 f   libvcruntimed:initialization.obj
 0001:0002fa80       ___vcrt_uninitialize       10030a80 f   libvcruntimed:initialization.obj
 0001:0002faa0       ___vcrt_uninitialize_critical 10030aa0 f   libvcruntimed:initialization.obj
 0001:0002fac0       ??$?0AAViterator@TryBlockMap@__FrameHandler3@@AAV012@$0A@@?$pair@Viterator@TryBlockMap@__FrameHandler3@@V123@@std@@QAE@AAViterator@TryBlockMap@__FrameHandler3@@0@Z 10030ac0 f i libvcruntimed:trnsctrl.obj
 0001:0002fb10       ??$forward@AAViterator@TryBlockMap@__FrameHandler3@@@std@@YAAAViterator@TryBlockMap@__FrameHandler3@@AAV123@@Z 10030b10 f i libvcruntimed:trnsctrl.obj
 0001:0002fb20       ??0iterator@TryBlockMap@__FrameHandler3@@QAE@AAV12@I@Z 10030b20 f i libvcruntimed:trnsctrl.obj
 0001:0002fb50       ?GetRangeOfTrysToCheck@__FrameHandler3@@SA?AU?$pair@Viterator@TryBlockMap@__FrameHandler3@@V123@@std@@AAVTryBlockMap@1@HPAXPBU_s_FuncInfo@@H@Z 10030b50 f   libvcruntimed:trnsctrl.obj
 0001:0002fc30       ?_CallCatchBlock2@@YAPAXPAUEHRegistrationNode@@PBU_s_FuncInfo@@PAXHK@Z 10030c30 f   libvcruntimed:trnsctrl.obj
 0001:0002fca0       ?_CallSETranslator@@YAHPAUEHExceptionRecord@@PAUEHRegistrationNode@@PAX2PBU_s_FuncInfo@@H1@Z 10030ca0 f   libvcruntimed:trnsctrl.obj
 0001:0002fda0       ?_JumpToContinuation@@YGXPAXPAUEHRegistrationNode@@@Z 10030da0 f   libvcruntimed:trnsctrl.obj
 0001:0002fde0       ?_UnwindNestedFrames@@YGXPAUEHRegistrationNode@@PAUEHExceptionRecord@@@Z 10030de0 f   libvcruntimed:trnsctrl.obj
 0001:0002fe40       __CatchGuardHandler        10030e40 f   libvcruntimed:trnsctrl.obj
 0001:0002fe90       __CreateFrameInfo          10030e90 f   libvcruntimed:trnsctrl.obj
 0001:0002fec0       __FindAndUnlinkFrame       10030ec0 f   libvcruntimed:trnsctrl.obj
 0001:0002ff30       __TranslatorGuardHandler   10030f30 f   libvcruntimed:trnsctrl.obj
 0001:0002ffe0       ___CxxFrameHandler         10030fe0 f   libvcruntimed:trnsctrl.obj
 0001:00030020       ___CxxFrameHandler2        10031020 f   libvcruntimed:trnsctrl.obj
 0001:00030060       ___CxxFrameHandler3        10031060 f   libvcruntimed:trnsctrl.obj
 0001:000300a0       ___CxxLongjmpUnwind@4      100310a0 f   libvcruntimed:trnsctrl.obj
 0001:000300e0       ___DestructExceptionObject 100310e0 f   libvcruntimed:ehhelpers.obj
 0001:00030200       ?_CallMemberFunction0@@YGXQAX0@Z 10031200 f i libvcruntimed:ehhelpers.obj
 0001:000302a0       ?raw_name@type_info@@QBEPBDXZ 100312a0 f i libvcruntimed:ehhelpers.obj
 0001:000302c0       __IsExceptionObjectToBeDestroyed 100312c0 f   libvcruntimed:ehhelpers.obj
 0001:00030300       __SetWinRTOutOfMemoryExceptionCallback 10031300 f   libvcruntimed:ehhelpers.obj
 0001:00030310       ___AdjustPointer           10031310 f   libvcruntimed:ehhelpers.obj
 0001:00030360       ___FrameUnwindFilter       10031360 f   libvcruntimed:ehhelpers.obj
 0001:000303f0       ___GetPlatformExceptionInfo 100313f0 f   libvcruntimed:ehhelpers.obj
 0001:00030470       ___current_exception       10031470 f   libvcruntimed:ehhelpers.obj
 0001:00030480       ___current_exception_context 10031480 f   libvcruntimed:ehhelpers.obj
 0001:00030490       ___processing_throw        10031490 f   libvcruntimed:ehhelpers.obj
 0001:000304a0       ___std_terminate           100314a0 f   libvcruntimed:ehhelpers.obj
 0001:000304b0       __is_exception_typeof      100314b0 f   libvcruntimed:ehhelpers.obj
 0001:000305b0       ??$?RD@__crt_internal_free_policy@@QBEXQBD@Z 100315b0 f i libvcruntimed:std_type_info.obj
 0001:000305d0       ??$?RX@__crt_internal_free_policy@@QBEXQBX@Z 100315d0 f i libvcruntimed:std_type_info.obj
 0001:000305f0       ??$__crt_interlocked_compare_exchange_pointer@$$CBDPAD$$T@@YAPBDPDSBDQAD$$T@Z 100315f0 f i libvcruntimed:std_type_info.obj
 0001:00030610       ??$__crt_interlocked_read_pointer@$$CBD@@YAPBDPDSBD@Z 10031610 f i libvcruntimed:std_type_info.obj
 0001:00030630       ??0?$__crt_unique_heap_ptr@DU__crt_internal_free_policy@@@@QAE@QAD@Z 10031630 f i libvcruntimed:std_type_info.obj
 0001:00030650       ??0?$__crt_unique_heap_ptr@XU__crt_internal_free_policy@@@@QAE@QAX@Z 10031650 f i libvcruntimed:std_type_info.obj
 0001:00030670       ??1?$__crt_unique_heap_ptr@DU__crt_internal_free_policy@@@@QAE@XZ 10031670 f i libvcruntimed:std_type_info.obj
 0001:00030690       ??1?$__crt_unique_heap_ptr@XU__crt_internal_free_policy@@@@QAE@XZ 10031690 f i libvcruntimed:std_type_info.obj
 0001:000306b0       ??B?$__crt_unique_heap_ptr@DU__crt_internal_free_policy@@@@QBE_NXZ 100316b0 f i libvcruntimed:std_type_info.obj
 0001:000306d0       ??B?$__crt_unique_heap_ptr@XU__crt_internal_free_policy@@@@QBE_NXZ 100316d0 f i libvcruntimed:std_type_info.obj
 0001:00030760       ?detach@?$__crt_unique_heap_ptr@XU__crt_internal_free_policy@@@@QAEPAXXZ 10031760 f i libvcruntimed:std_type_info.obj
 0001:00030790       ?get@?$__crt_unique_heap_ptr@DU__crt_internal_free_policy@@@@QBEPADXZ 10031790 f i libvcruntimed:std_type_info.obj
 0001:000307a0       ?get@?$__crt_unique_heap_ptr@XU__crt_internal_free_policy@@@@QBEPAXXZ 100317a0 f i libvcruntimed:std_type_info.obj
 0001:000307b0       ?is_valid@?$__crt_unique_heap_ptr@DU__crt_internal_free_policy@@@@QBE_NXZ 100317b0 f i libvcruntimed:std_type_info.obj
 0001:000307e0       ?is_valid@?$__crt_unique_heap_ptr@XU__crt_internal_free_policy@@@@QBE_NXZ 100317e0 f i libvcruntimed:std_type_info.obj
 0001:00030810       ?release@?$__crt_unique_heap_ptr@DU__crt_internal_free_policy@@@@QAEXXZ 10031810 f i libvcruntimed:std_type_info.obj
 0001:00030840       ?release@?$__crt_unique_heap_ptr@XU__crt_internal_free_policy@@@@QAEXXZ 10031840 f i libvcruntimed:std_type_info.obj
 0001:00030870       ___std_type_info_compare   10031870 f   libvcruntimed:std_type_info.obj
 0001:000308a0       ___std_type_info_destroy_list 100318a0 f   libvcruntimed:std_type_info.obj
 0001:000308e0       ___std_type_info_hash      100318e0 f   libvcruntimed:std_type_info.obj
 0001:00030940       ___std_type_info_name      10031940 f   libvcruntimed:std_type_info.obj
 0001:00030b20       ___vcrt_GetModuleFileNameW 10031b20 f   libvcruntimed:winapi_thunks.obj
 0001:00030b40       ___vcrt_GetModuleHandleW   10031b40 f   libvcruntimed:winapi_thunks.obj
 0001:00030b50       ___vcrt_LoadLibraryExW     10031b50 f   libvcruntimed:winapi_thunks.obj
 0001:00030b70       ??$?RD@__crt_public_free_policy@@QBEXQBD@Z 10031b70 f i libvcruntimed:std_exception.obj
 0001:00030b90       ??0?$__crt_unique_heap_ptr@DU__crt_public_free_policy@@@@QAE@QAD@Z 10031b90 f i libvcruntimed:std_exception.obj
 0001:00030bb0       ??1?$__crt_unique_heap_ptr@DU__crt_public_free_policy@@@@QAE@XZ 10031bb0 f i libvcruntimed:std_exception.obj
 0001:00030bd0       ??B?$__crt_unique_heap_ptr@DU__crt_public_free_policy@@@@QBE_NXZ 10031bd0 f i libvcruntimed:std_exception.obj
 0001:00030bf0       ?detach@?$__crt_unique_heap_ptr@DU__crt_public_free_policy@@@@QAEPADXZ 10031bf0 f i libvcruntimed:std_exception.obj
 0001:00030c20       ?get@?$__crt_unique_heap_ptr@DU__crt_public_free_policy@@@@QBEPADXZ 10031c20 f i libvcruntimed:std_exception.obj
 0001:00030c30       ?is_valid@?$__crt_unique_heap_ptr@DU__crt_public_free_policy@@@@QBE_NXZ 10031c30 f i libvcruntimed:std_exception.obj
 0001:00030c60       ?release@?$__crt_unique_heap_ptr@DU__crt_public_free_policy@@@@QAEXXZ 10031c60 f i libvcruntimed:std_exception.obj
 0001:00030c90       ___std_exception_copy      10031c90 f   libvcruntimed:std_exception.obj
 0001:00030d80       ___std_exception_destroy   10031d80 f   libvcruntimed:std_exception.obj
 0001:00030db0       __CxxThrowException@8      10031db0 f   libvcruntimed:throw.obj
 0001:00030e60       _memmove                   10031e60 f   libvcruntimed:memmove.obj
 0001:000313e0       __local_unwind4            100323e0 f   libvcruntimed:exsup4.obj
 0001:000314b8       __seh_longjmp_unwind4@4    100324b8 f   libvcruntimed:exsup4.obj
 0001:000314e0       @_EH4_CallFilterFunc@8     100324e0 f   libvcruntimed:exsup4.obj
 0001:000314f8       @_EH4_TransferToHandler@8  100324f8 f   libvcruntimed:exsup4.obj
 0001:00031514       @_EH4_GlobalUnwind2@8      10032514 f   libvcruntimed:exsup4.obj
 0001:00031530       @_EH4_LocalUnwind@16       10032530 f   libvcruntimed:exsup4.obj
 0001:00031560       ___except_validate_context_record 10032560 f   libvcruntimed:jbcxrval.obj
 0001:000315b0       ___except_validate_jump_buffer 100325b0 f   libvcruntimed:jbcxrval.obj
 0001:000315d0       ___except_validate_jump_buffer_common 100325d0 f i libvcruntimed:jbcxrval.obj
 0001:00031630       ??$?RU__vcrt_ptd@@@__crt_internal_free_policy@@QBEXQBU__vcrt_ptd@@@Z 10032630 f i libvcruntimed:per_thread_data.obj
 0001:00031650       ??0?$__crt_unique_heap_ptr@U__vcrt_ptd@@U__crt_internal_free_policy@@@@QAE@QAU__vcrt_ptd@@@Z 10032650 f i libvcruntimed:per_thread_data.obj
 0001:00031690       ??1?$__crt_unique_heap_ptr@U__vcrt_ptd@@U__crt_internal_free_policy@@@@QAE@XZ 10032690 f i libvcruntimed:per_thread_data.obj
 0001:000316d0       ??B?$__crt_unique_heap_ptr@U__vcrt_ptd@@U__crt_internal_free_policy@@@@QBE_NXZ 100326d0 f i libvcruntimed:per_thread_data.obj
 0001:000316f0       ?detach@?$__crt_unique_heap_ptr@U__vcrt_ptd@@U__crt_internal_free_policy@@@@QAEPAU__vcrt_ptd@@XZ 100326f0 f i libvcruntimed:per_thread_data.obj
 0001:00031720       ?get@?$__crt_unique_heap_ptr@U__vcrt_ptd@@U__crt_internal_free_policy@@@@QBEPAU__vcrt_ptd@@XZ 10032720 f i libvcruntimed:per_thread_data.obj
 0001:00031730       ?is_valid@?$__crt_unique_heap_ptr@U__vcrt_ptd@@U__crt_internal_free_policy@@@@QBE_NXZ 10032730 f i libvcruntimed:per_thread_data.obj
 0001:00031760       ?release@?$__crt_unique_heap_ptr@U__vcrt_ptd@@U__crt_internal_free_policy@@@@QAEXXZ 10032760 f i libvcruntimed:per_thread_data.obj
 0001:000317c0       ___vcrt_freefls@4          100327c0 f   libvcruntimed:per_thread_data.obj
 0001:000317f0       ___vcrt_freeptd            100327f0 f   libvcruntimed:per_thread_data.obj
 0001:00031850       ___vcrt_getptd             10032850 f   libvcruntimed:per_thread_data.obj
 0001:00031870       ___vcrt_getptd_noexit      10032870 f   libvcruntimed:per_thread_data.obj
 0001:000319d0       ___vcrt_getptd_noinit      100329d0 f   libvcruntimed:per_thread_data.obj
 0001:00031a30       ___vcrt_initialize_ptd     10032a30 f   libvcruntimed:per_thread_data.obj
 0001:00031a80       ___vcrt_uninitialize_ptd   10032a80 f   libvcruntimed:per_thread_data.obj
 0001:00031ab0       ___vcrt_initialize_locks   10032ab0 f   libvcruntimed:locks.obj
 0001:00031b10       ___vcrt_lock               10032b10 f   libvcruntimed:locks.obj
 0001:00031b30       ___vcrt_uninitialize_locks 10032b30 f   libvcruntimed:locks.obj
 0001:00031b80       ___vcrt_unlock             10032b80 f   libvcruntimed:locks.obj
 0001:00032710       ??$TypeMatchHelper@V__FrameHandler3@@@@YAHPBU_s_HandlerType@@PBU_s_CatchableType@@PBU_s_ThrowInfo@@@Z 10033710 f i libvcruntimed:frame.obj
 0001:000327f0       ??$__InternalCxxFrameHandler@V__FrameHandler3@@@@YA?AW4_EXCEPTION_DISPOSITION@@PAUEHExceptionRecord@@PAUEHRegistrationNode@@PAU_CONTEXT@@PAXPBU_s_FuncInfo@@H1E@Z 100337f0 f i libvcruntimed:frame.obj
 0001:000329b0       ??0HandlerMap@__FrameHandler3@@QAE@PBU_s_TryBlockMapEntry@@II@Z 100339b0 f i libvcruntimed:frame.obj
 0001:000329e0       ??0TryBlockMap@__FrameHandler3@@QAE@PBU_s_FuncInfo@@I@Z 100339e0 f i libvcruntimed:frame.obj
 0001:00032a10       ??0bad_exception@std@@QAE@ABV01@@Z 10033a10 f i libvcruntimed:frame.obj
 0001:00032a40       ??0bad_exception@std@@QAE@XZ 10033a40 f i libvcruntimed:frame.obj
 0001:00032a70       ??0iterator@HandlerMap@__FrameHandler3@@QAE@AAV12@I@Z 10033a70 f i libvcruntimed:frame.obj
 0001:00032aa0       ??1bad_exception@std@@UAE@XZ 10033aa0 f i libvcruntimed:frame.obj
 0001:00032ac0       ??8iterator@HandlerMap@__FrameHandler3@@QBE_NABV012@@Z 10033ac0 f i libvcruntimed:frame.obj
 0001:00032af0       ??8type_info@@QBE_NABV0@@Z 10033af0 f i libvcruntimed:frame.obj
 0001:00032b30       ??9iterator@HandlerMap@__FrameHandler3@@QBE_NABV012@@Z 10033b30 f i libvcruntimed:frame.obj
 0001:00032b70       ??Diterator@HandlerMap@__FrameHandler3@@QAE?BU_s_HandlerType@@XZ 10033b70 f i libvcruntimed:frame.obj
 0001:00032bb0       ??Diterator@TryBlockMap@__FrameHandler3@@QAE?BU_s_TryBlockMapEntry@@XZ 10033bb0 f i libvcruntimed:frame.obj
 0001:00032c00       ??Eiterator@HandlerMap@__FrameHandler3@@QAEAAV012@XZ 10033c00 f i libvcruntimed:frame.obj
 0001:00032c20       ??Eiterator@TryBlockMap@__FrameHandler3@@QAEAAV012@XZ 10033c20 f i libvcruntimed:frame.obj
 0001:00032c40       ??Miterator@TryBlockMap@__FrameHandler3@@QBE_NABV012@@Z 10033c40 f i libvcruntimed:frame.obj
 0001:00032c70       ??_Ebad_exception@std@@UAEPAXI@Z 10033c70 f i libvcruntimed:frame.obj
 0001:00032c70       ??_Gbad_exception@std@@UAEPAXI@Z 10033c70 f i libvcruntimed:frame.obj
 0001:00032ca0       ?BuildCatchObject@__FrameHandler3@@SAXPAUEHExceptionRecord@@PAXPBU_s_HandlerType@@PBU_s_CatchableType@@@Z 10033ca0 f   libvcruntimed:frame.obj
 0001:00032cc0       ?BuildCatchObjectHelper@__FrameHandler3@@SAHPAUEHExceptionRecord@@PAXPBU_s_HandlerType@@PBU_s_CatchableType@@@Z 10033cc0 f   libvcruntimed:frame.obj
 0001:00033060       ?FrameUnwindToEmptyState@__FrameHandler3@@SAXPAUEHRegistrationNode@@PAXPBU_s_FuncInfo@@@Z 10034060 f   libvcruntimed:frame.obj
 0001:00033080       ?FrameUnwindToState@__FrameHandler3@@SAXPAUEHRegistrationNode@@PAXPBU_s_FuncInfo@@H@Z 10034080 f   libvcruntimed:frame.obj
 0001:00033200       ?GetMaxState@__FrameHandler3@@SAHPAXPBU_s_FuncInfo@@@Z 10034200 f i libvcruntimed:frame.obj
 0001:00033320       ?TypeMatch@__FrameHandler3@@SAHPBU_s_HandlerType@@PBU_s_CatchableType@@PBU_s_ThrowInfo@@@Z 10034320 f   libvcruntimed:frame.obj
 0001:00033340       ?_CallMemberFunction1@@YGXQAX00@Z 10034340 f i libvcruntimed:frame.obj
 0001:00033370       ?_CallMemberFunction2@@YGXQAX00H@Z 10034370 f i libvcruntimed:frame.obj
 0001:000333a0       ?begin@HandlerMap@__FrameHandler3@@QAE?AViterator@12@XZ 100343a0 f i libvcruntimed:frame.obj
 0001:000333c0       ?end@HandlerMap@__FrameHandler3@@QAE?AViterator@12@XZ 100343c0 f i libvcruntimed:frame.obj
 0001:000333f0       ?getESTypes@__FrameHandler3@@SAPBU_s_ESTypeList@@PBU_s_FuncInfo@@@Z 100343f0 f i libvcruntimed:frame.obj
 0001:00033400       ?getLastEntry@HandlerMap@__FrameHandler3@@QAEPBU_s_HandlerType@@XZ 10034400 f i libvcruntimed:frame.obj
 0001:00033420       ?getMagicNum@__FrameHandler3@@SAIPBU_s_FuncInfo@@@Z 10034420 f i libvcruntimed:frame.obj
 0001:00033430       ?getNumTryBlocks@TryBlockMap@__FrameHandler3@@QAEIXZ 10034430 f i libvcruntimed:frame.obj
 0001:00033450       ?isEHs@__FrameHandler3@@SA_NPBU_s_FuncInfo@@@Z 10034450 f i libvcruntimed:frame.obj
 0001:00033480       ?isNoExcept@__FrameHandler3@@SA_NPBU_s_FuncInfo@@@Z 10034480 f i libvcruntimed:frame.obj
 0001:000334b0       ___BuildCatchObject        100344b0 f   libvcruntimed:frame.obj
 0001:000334d0       ___BuildCatchObjectHelper  100344d0 f   libvcruntimed:frame.obj
 0001:000334f0       ___TypeMatch               100344f0 f   libvcruntimed:frame.obj
 0001:00033510       ___vcrt_EncodePointer      10034510 f i libvcruntimed:frame.obj
 0001:00033520       __CallSettingFrame@12      10034520 f   libvcruntimed:lowhelpr.obj
 0001:00033547       __NLG_Return               10034547     libvcruntimed:lowhelpr.obj
 0001:00033570       ??$?0$00@DName@@QAE@PBDU?$StringLifeSelector@$00@@@Z 10034570 f i libvcruntimed:undname.obj
 0001:000335c0       ??$?0$00@pcharNode@@QAE@PBDHU?$StringLifeSelector@$00@@@Z 100345c0 f i libvcruntimed:undname.obj
 0001:00033600       ??$?0$01@DName@@QAE@PBDU?$StringLifeSelector@$01@@@Z 10034600 f i libvcruntimed:undname.obj
 0001:00033650       ??$?0$01@pcharNode@@QAE@PBDHU?$StringLifeSelector@$01@@@Z 10034650 f i libvcruntimed:undname.obj
 0001:000336d0       ??$?0$0A@@DName@@QAE@PBDU?$StringLifeSelector@$0A@@@@Z 100346d0 f i libvcruntimed:undname.obj
 0001:00033720       ??$?0$0A@@pcharNode@@QAE@PBDHU?$StringLifeSelector@$0A@@@@Z 10034720 f i libvcruntimed:undname.obj
 0001:000337a0       ??$append@VDNameNode@@@DName@@AAEXPBVDNameNode@@@Z 100347a0 f i libvcruntimed:undname.obj
 0001:00033830       ??$append@VDNameStatusNode@@@DName@@AAEXPBVDNameStatusNode@@@Z 10034830 f i libvcruntimed:undname.obj
 0001:000338c0       ??$append@VcharNode@@@DName@@AAEXPBVcharNode@@@Z 100348c0 f i libvcruntimed:undname.obj
 0001:00033950       ??$append@VpDNameNode@@@DName@@AAEXPBVpDNameNode@@@Z 10034950 f i libvcruntimed:undname.obj
 0001:000339e0       ??$append@VpcharNode@@@DName@@AAEXPBVpcharNode@@@Z 100349e0 f i libvcruntimed:undname.obj
 0001:00033a70       ??$doPchar@$00@DName@@AAEXPBDH@Z 10034a70 f i libvcruntimed:undname.obj
 0001:00033b80       ??$doPchar@$01@DName@@AAEXPBDH@Z 10034b80 f i libvcruntimed:undname.obj
 0001:00033c90       ??$doPchar@$0A@@DName@@AAEXPBDH@Z 10034c90 f i libvcruntimed:undname.obj
 0001:00033da0       ??0Block@_HeapManager@@QAE@XZ 10034da0 f i libvcruntimed:undname.obj
 0001:00033dc0       ??0DName@@QAE@AAPBDD@Z     10034dc0 f   libvcruntimed:undname.obj
 0001:00033f30       ??0DName@@QAE@ABUStringLiteral@@@Z 10034f30 f   libvcruntimed:undname.obj
 0001:00033f80       ??0DName@@QAE@ABV0@@Z      10034f80 f i libvcruntimed:undname.obj
 0001:00033fb0       ??0DName@@QAE@D@Z          10034fb0 f   libvcruntimed:undname.obj
 0001:00033fe0       ??0DName@@QAE@PAV0@@Z      10034fe0 f   libvcruntimed:undname.obj
 0001:00034090       ??0DName@@QAE@W4DNameStatus@@@Z 10035090 f   libvcruntimed:undname.obj
 0001:00034130       ??0DName@@QAE@XZ           10035130 f i libvcruntimed:undname.obj
 0001:00034160       ??0DName@@QAE@_J@Z         10035160 f   libvcruntimed:undname.obj
 0001:00034250       ??0DName@@QAE@_K@Z         10035250 f   libvcruntimed:undname.obj
 0001:00034300       ??0DNameNode@@IAE@XZ       10035300 f i libvcruntimed:undname.obj
 0001:00034320       ??0Replicator@@QAE@XZ      10035320 f i libvcruntimed:undname.obj
 0001:00034360       ??0UnDecorator@@QAE@PBDP6APADJ@ZK@Z 10035360 f i libvcruntimed:undname.obj
 0001:000343e0       ??0charNode@@QAE@D@Z       100353e0 f i libvcruntimed:undname.obj
 0001:00034410       ??0pDNameNode@@QAE@PAVDName@@@Z 10035410 f   libvcruntimed:undname.obj
 0001:00034470       ??0pairNode@@QAE@PBVDNameNode@@0@Z 10035470 f i libvcruntimed:undname.obj
 0001:000344d0       ??2@YAPAXIAAV_HeapManager@@H@Z 100354d0 f   libvcruntimed:undname.obj
 0001:00034510       ??4DName@@QAEAAV0@ABUStringLiteral@@@Z 10035510 f   libvcruntimed:undname.obj
 0001:00034550       ??4DName@@QAEAAV0@ABV0@@Z  10035550 f   libvcruntimed:undname.obj
 0001:00034580       ??4DName@@QAEAAV0@D@Z      10035580 f i libvcruntimed:undname.obj
 0001:000345b0       ??4DName@@QAEAAV0@PAV0@@Z  100355b0 f   libvcruntimed:undname.obj
 0001:00034650       ??4DName@@QAEAAV0@W4DNameStatus@@@Z 10035650 f   libvcruntimed:undname.obj
 0001:000346d0       ??AReplicator@@QBE?AVDName@@H@Z 100356d0 f   libvcruntimed:undname.obj
 0001:00034740       ??H@YA?AVDName@@ABUStringLiteral@@ABV0@@Z 10035740 f i libvcruntimed:undname.obj
 0001:00034770       ??H@YA?AVDName@@DABV0@@Z   10035770 f i libvcruntimed:undname.obj
 0001:000347a0       ??H@YA?AVDName@@W4DNameStatus@@ABV0@@Z 100357a0 f i libvcruntimed:undname.obj
 0001:000347d0       ??HDName@@QBE?AV0@ABUStringLiteral@@@Z 100357d0 f   libvcruntimed:undname.obj
 0001:00034810       ??HDName@@QBE?AV0@ABV0@@Z  10035810 f   libvcruntimed:undname.obj
 0001:00034850       ??HDName@@QBE?AV0@D@Z      10035850 f   libvcruntimed:undname.obj
 0001:00034890       ??HDName@@QBE?AV0@PAV0@@Z  10035890 f   libvcruntimed:undname.obj
 0001:000348d0       ??HDName@@QBE?AV0@W4DNameStatus@@@Z 100358d0 f   libvcruntimed:undname.obj
 0001:00034910       ??HStringLiteral@@QBE?AU0@H@Z 10035910 f i libvcruntimed:undname.obj
 0001:00034940       ??YDName@@QAEAAV0@ABUStringLiteral@@@Z 10035940 f   libvcruntimed:undname.obj
 0001:000349e0       ??YDName@@QAEAAV0@ABV0@@Z  100359e0 f   libvcruntimed:undname.obj
 0001:00034a80       ??YDName@@QAEAAV0@D@Z      10035a80 f   libvcruntimed:undname.obj
 0001:00034b00       ??YDName@@QAEAAV0@PAV0@@Z  10035b00 f   libvcruntimed:undname.obj
 0001:00034bb0       ??YDName@@QAEAAV0@W4DNameStatus@@@Z 10035bb0 f   libvcruntimed:undname.obj
 0001:00034c10       ??YReplicator@@QAEAAV0@ABVDName@@@Z 10035c10 f   libvcruntimed:undname.obj
 0001:00034ca0       ??_5DName@@QAEAAV0@ABV0@@Z 10035ca0 f   libvcruntimed:undname.obj
 0001:00034d00       ??__K_l@@YA?AUStringLiteral@@PBDI@Z 10035d00 f i libvcruntimed:undname.obj
 0001:00034d20       ?Constructor@_HeapManager@@QAEXP6APAXI@ZP6AXPAX@Z@Z 10035d20 f i libvcruntimed:undname.obj
 0001:00034d60       ?Destructor@_HeapManager@@QAEXXZ 10035d60 f i libvcruntimed:undname.obj
 0001:00034dd0       ?UScore@UnDecorator@@SA?AUStringLiteral@@W4Tokens@@@Z 10035dd0 f   libvcruntimed:undname.obj
 0001:00034e20       ?composeDeclaration@UnDecorator@@CA?AVDName@@ABV2@@Z 10035e20 f i libvcruntimed:undname.obj
 0001:00036d90       ?dbGetString@DName@@QBEPADXZ 10037d90 f   libvcruntimed:undname.obj
 0001:00036db0       ?doAccessSpecifiers@UnDecorator@@SAHXZ 10037db0 f i libvcruntimed:undname.obj
 0001:00036de0       ?doAllocationLanguage@UnDecorator@@SAHXZ 10037de0 f i libvcruntimed:undname.obj
 0001:00036e10       ?doAllocationModel@UnDecorator@@SAHXZ 10037e10 f i libvcruntimed:undname.obj
 0001:00036e40       ?doEcsu@UnDecorator@@SAHXZ 10037e40 f i libvcruntimed:undname.obj
 0001:00036e70       ?doEllipsis@UnDecorator@@SAHXZ 10037e70 f i libvcruntimed:undname.obj
 0001:00036ea0       ?doFunctionReturns@UnDecorator@@SAHXZ 10037ea0 f i libvcruntimed:undname.obj
 0001:00036ed0       ?doMSKeywords@UnDecorator@@SAHXZ 10037ed0 f i libvcruntimed:undname.obj
 0001:00036f00       ?doMemberTypes@UnDecorator@@SAHXZ 10037f00 f i libvcruntimed:undname.obj
 0001:00036f30       ?doNameOnly@UnDecorator@@SAHXZ 10037f30 f i libvcruntimed:undname.obj
 0001:00036f40       ?doNoIdentCharCheck@UnDecorator@@SAHXZ 10037f40 f i libvcruntimed:undname.obj
 0001:00036f50       ?doPchar@DName@@AAEXD@Z    10037f50 f   libvcruntimed:undname.obj
 0001:00036fc0       ?doPtr64@UnDecorator@@SAHXZ 10037fc0 f i libvcruntimed:undname.obj
 0001:00036ff0       ?doRestrictionSpec@UnDecorator@@SAHXZ 10037ff0 f i libvcruntimed:undname.obj
 0001:00037020       ?doThisTypes@UnDecorator@@SAHXZ 10038020 f i libvcruntimed:undname.obj
 0001:00037050       ?doThrowTypes@UnDecorator@@SAHXZ 10038050 f i libvcruntimed:undname.obj
 0001:00037080       ?doTypeOnly@UnDecorator@@SAHXZ 10038080 f i libvcruntimed:undname.obj
 0001:00037090       ?doUnderScore@UnDecorator@@SAHXZ 10038090 f i libvcruntimed:undname.obj
 0001:000370c0       ?getArgumentList@UnDecorator@@CA?AVDName@@XZ 100380c0 f   libvcruntimed:undname.obj
 0001:00037210       ?getArgumentTypes@UnDecorator@@CA?AVDName@@XZ 10038210 f   libvcruntimed:undname.obj
 0001:00037420       ?getArrayType@UnDecorator@@CA?AVDName@@ABV2@@Z 10038420 f i libvcruntimed:undname.obj
 0001:000376c0       ?getBasedType@UnDecorator@@CA?AVDName@@XZ 100386c0 f   libvcruntimed:undname.obj
 0001:000377b0       ?getBasicDataType@UnDecorator@@CA?AVDName@@ABV2@@Z 100387b0 f   libvcruntimed:undname.obj
 0001:000380c0       ?getCHPEName@UnDecorator@@QAEPADPADH@Z 100390c0 f i libvcruntimed:undname.obj
 0001:00038220       ?getCallIndex@UnDecorator@@CA?AVDName@@XZ 10039220 f i libvcruntimed:undname.obj
 0001:00038240       ?getCallingConvention@UnDecorator@@CA?AVDName@@XZ 10039240 f   libvcruntimed:undname.obj
 0001:00038480       ?getDataIndirectType@UnDecorator@@CA?AVDName@@ABV2@W4IndirectionKind@@0H@Z 10039480 f   libvcruntimed:undname.obj
 0001:00038da0       ?getDataIndirectType@UnDecorator@@CA?AVDName@@XZ 10039da0 f i libvcruntimed:undname.obj
 0001:00038de0       ?getDataType@UnDecorator@@CA?AVDName@@PAV2@@Z 10039de0 f   libvcruntimed:undname.obj
 0001:00038f20       ?getDecoratedName@UnDecorator@@CA?AVDName@@XZ 10039f20 f   libvcruntimed:undname.obj
 0001:00039360       ?getDimension@UnDecorator@@CA?AVDName@@_N@Z 1003a360 f   libvcruntimed:undname.obj
 0001:00039640       ?getDispatchTarget@UnDecorator@@CA?AVDName@@XZ 1003a640 f   libvcruntimed:undname.obj
 0001:000396e0       ?getDisplacement@UnDecorator@@CA?AVDName@@XZ 1003a6e0 f i libvcruntimed:undname.obj
 0001:00039700       ?getECSUDataType@UnDecorator@@CA?AVDName@@XZ 1003a700 f   libvcruntimed:undname.obj
 0001:00039940       ?getECSUName@UnDecorator@@CA?AVDName@@XZ 1003a940 f i libvcruntimed:undname.obj
 0001:00039960       ?getEnumType@UnDecorator@@CA?AVDName@@XZ 1003a960 f i libvcruntimed:undname.obj
 0001:00039b10       ?getExtendedDataIndirectType@UnDecorator@@CA?AVDName@@AAW4IndirectionKind@@AA_NH@Z 1003ab10 f   libvcruntimed:undname.obj
 0001:00039d60       ?getExternalDataType@UnDecorator@@CA?AVDName@@ABV2@@Z 1003ad60 f i libvcruntimed:undname.obj
 0001:00039e00       ?getFunctionIndirectType@UnDecorator@@CA?AVDName@@ABV2@@Z 1003ae00 f   libvcruntimed:undname.obj
 0001:0003a2e0       ?getGuardNumber@UnDecorator@@CA?AVDName@@XZ 1003b2e0 f i libvcruntimed:undname.obj
 0001:0003a300       ?getLastChar@DName@@QBEDXZ 1003b300 f i libvcruntimed:undname.obj
 0001:0003a340       ?getLastChar@DNameStatusNode@@UBEDXZ 1003b340 f i libvcruntimed:undname.obj
 0001:0003a370       ?getLastChar@charNode@@UBEDXZ 1003b370 f i libvcruntimed:undname.obj
 0001:0003a390       ?getLastChar@pDNameNode@@UBEDXZ 1003b390 f i libvcruntimed:undname.obj
 0001:0003a3c0       ?getLastChar@pairNode@@UBEDXZ 1003b3c0 f i libvcruntimed:undname.obj
 0001:0003a430       ?getLastChar@pcharNode@@UBEDXZ 1003b430 f i libvcruntimed:undname.obj
 0001:0003a470       ?getLexicalFrame@UnDecorator@@CA?AVDName@@XZ 1003b470 f i libvcruntimed:undname.obj
 0001:0003a4b0       ?getMemoryWithBuffer@_HeapManager@@QAEPAXI@Z 1003b4b0 f   libvcruntimed:undname.obj
 0001:0003a5a0       ?getMemoryWithoutBuffer@_HeapManager@@QAEPAXI@Z 1003b5a0 f   libvcruntimed:undname.obj
 0001:0003a5e0       ?getNoexcept@UnDecorator@@CA?AVDName@@XZ 1003b5e0 f   libvcruntimed:undname.obj
 0001:0003a660       ?getNumberOfDimensions@UnDecorator@@CAHXZ 1003b660 f   libvcruntimed:undname.obj
 0001:0003a760       ?getOperatorName@UnDecorator@@CA?AVDName@@_NPA_N@Z 1003b760 f i libvcruntimed:undname.obj
 0001:0003b200       ?getPointerType@UnDecorator@@CA?AVDName@@ABV2@0@Z 1003c200 f i libvcruntimed:undname.obj
 0001:0003b220       ?getPointerTypeArray@UnDecorator@@CA?AVDName@@ABV2@0@Z 1003c220 f i libvcruntimed:undname.obj
 0001:0003b240       ?getPrimaryDataType@UnDecorator@@CA?AVDName@@ABV2@@Z 1003c240 f   libvcruntimed:undname.obj
 0001:0003b6b0       ?getPtrRefDataType@UnDecorator@@CA?AVDName@@ABV2@H@Z 1003c6b0 f   libvcruntimed:undname.obj
 0001:0003b960       ?getPtrRefType@UnDecorator@@CA?AVDName@@ABV2@0W4IndirectionKind@@@Z 1003c960 f   libvcruntimed:undname.obj
 0001:0003bae0       ?getReferenceType@UnDecorator@@CA?AVDName@@ABV2@0W4IndirectionKind@@@Z 1003cae0 f i libvcruntimed:undname.obj
 0001:0003bb00       ?getRestrictionSpec@UnDecorator@@CA?AVDName@@XZ 1003cb00 f   libvcruntimed:undname.obj
 0001:0003bcc0       ?getReturnType@UnDecorator@@CA?AVDName@@PAV2@@Z 1003ccc0 f   libvcruntimed:undname.obj
 0001:0003bd10       ?getScope@UnDecorator@@CA?AVDName@@XZ 1003cd10 f   libvcruntimed:undname.obj
 0001:0003c2a0       ?getScopedName@UnDecorator@@CA?AVDName@@XZ 1003d2a0 f   libvcruntimed:undname.obj
 0001:0003c3f0       ?getSignedDimension@UnDecorator@@CA?AVDName@@XZ 1003d3f0 f   libvcruntimed:undname.obj
 0001:0003c470       ?getStorageConvention@UnDecorator@@CA?AVDName@@XZ 1003d470 f i libvcruntimed:undname.obj
 0001:0003c490       ?getString@DName@@QBEPADPAD0@Z 1003d490 f i libvcruntimed:undname.obj
 0001:0003c4f0       ?getString@DName@@QBEPADPADH@Z 1003d4f0 f i libvcruntimed:undname.obj
 0001:0003c580       ?getString@DNameStatusNode@@UBEPADPAD0@Z 1003d580 f i libvcruntimed:undname.obj
 0001:0003c5c0       ?getString@charNode@@UBEPADPAD0@Z 1003d5c0 f i libvcruntimed:undname.obj
 0001:0003c5f0       ?getString@pDNameNode@@UBEPADPAD0@Z 1003d5f0 f i libvcruntimed:undname.obj
 0001:0003c630       ?getString@pairNode@@UBEPADPAD0@Z 1003d630 f i libvcruntimed:undname.obj
 0001:0003c6c0       ?getString@pcharNode@@UBEPADPAD0@Z 1003d6c0 f i libvcruntimed:undname.obj
 0001:0003c6f0       ?getStringEncoding@UnDecorator@@CA?AVDName@@W4PrefixKind@@H@Z 1003d6f0 f   libvcruntimed:undname.obj
 0001:0003c800       ?getStringHelper@@YAPADPADPBD1H@Z 1003d800 f i libvcruntimed:undname.obj
 0001:0003c840       ?getSymbolName@UnDecorator@@CA?AVDName@@XZ 1003d840 f i libvcruntimed:undname.obj
 0001:0003c8d0       ?getTemplateArgumentList@UnDecorator@@CA?AVDName@@XZ 1003d8d0 f   libvcruntimed:undname.obj
 0001:0003cba0       ?getTemplateName@UnDecorator@@CA?AVDName@@_N@Z 1003dba0 f   libvcruntimed:undname.obj
 0001:0003cd60       ?getTemplateNonTypeArgument@UnDecorator@@CA?AVDName@@XZ 1003dd60 f   libvcruntimed:undname.obj
 0001:0003d420       ?getTemplateTypeArgument@UnDecorator@@CA?AVDName@@XZ 1003e420 f   libvcruntimed:undname.obj
 0001:0003d5c0       ?getThisType@UnDecorator@@CA?AVDName@@XZ 1003e5c0 f i libvcruntimed:undname.obj
 0001:0003d600       ?getThrowTypes@UnDecorator@@CA?AVDName@@XZ 1003e600 f   libvcruntimed:undname.obj
 0001:0003d640       ?getTypeEncoding@UnDecorator@@CAHXZ 1003e640 f i libvcruntimed:undname.obj
 0001:0003e100       ?getUndecoratedName@UnDecorator@@QAEPADPADH@Z 1003f100 f i libvcruntimed:undname.obj
 0001:0003e260       ?getVCallThunkType@UnDecorator@@CA?AVDName@@XZ 1003f260 f i libvcruntimed:undname.obj
 0001:0003e2e0       ?getVbTableType@UnDecorator@@CA?AVDName@@ABV2@@Z 1003f2e0 f i libvcruntimed:undname.obj
 0001:0003e300       ?getVdispMapType@UnDecorator@@CA?AVDName@@ABV2@@Z 1003f300 f i libvcruntimed:undname.obj
 0001:0003e390       ?getVfTableType@UnDecorator@@CA?AVDName@@ABV2@@Z 1003f390 f i libvcruntimed:undname.obj
 0001:0003e590       ?getZName@UnDecorator@@CA?AVDName@@_N0@Z 1003f590 f   libvcruntimed:undname.obj
 0001:0003e8d0       ?haveTemplateParameters@UnDecorator@@SAHXZ 1003f8d0 f i libvcruntimed:undname.obj
 0001:0003e8e0       ?isArray@DName@@QBEHXZ     1003f8e0 f i libvcruntimed:undname.obj
 0001:0003e900       ?isComArray@DName@@QBEHXZ  1003f900 f i libvcruntimed:undname.obj
 0001:0003e920       ?isEmpty@DName@@QBEHXZ     1003f920 f i libvcruntimed:undname.obj
 0001:0003e950       ?isFull@Replicator@@QBEHXZ 1003f950 f i libvcruntimed:undname.obj
 0001:0003e980       ?isNoTE@DName@@QBEHXZ      1003f980 f i libvcruntimed:undname.obj
 0001:0003e9a0       ?isPinPtr@DName@@QBEHXZ    1003f9a0 f i libvcruntimed:undname.obj
 0001:0003e9c0       ?isPtrRef@DName@@QBEHXZ    1003f9c0 f i libvcruntimed:undname.obj
 0001:0003e9e0       ?isUDC@DName@@QBEHXZ       1003f9e0 f i libvcruntimed:undname.obj
 0001:0003ea20       ?isUDTThunk@DName@@QBEHXZ  1003fa20 f i libvcruntimed:undname.obj
 0001:0003ea60       ?isVCallThunk@DName@@QBEHXZ 1003fa60 f i libvcruntimed:undname.obj
 0001:0003ea80       ?isValid@DName@@QBEHXZ     1003fa80 f i libvcruntimed:undname.obj
 0001:0003eac0       ?length@DName@@QBEHXZ      1003fac0 f i libvcruntimed:undname.obj
 0001:0003eb00       ?length@DNameStatusNode@@UBEHXZ 1003fb00 f i libvcruntimed:undname.obj
 0001:0003eb20       ?length@charNode@@UBEHXZ   1003fb20 f i libvcruntimed:undname.obj
 0001:0003eb30       ?length@pDNameNode@@UBEHXZ 1003fb30 f i libvcruntimed:undname.obj
 0001:0003eb60       ?length@pairNode@@UBEHXZ   1003fb60 f i libvcruntimed:undname.obj
 0001:0003ebd0       ?length@pcharNode@@UBEHXZ  1003fbd0 f i libvcruntimed:undname.obj
 0001:0003ebf0       ?make@DNameStatusNode@@SAPBV1@W4DNameStatus@@@Z 1003fbf0 f i libvcruntimed:undname.obj
 0001:0003ec20       ?parseDecoratedName@UnDecorator@@CA?AVDName@@XZ 1003fc20 f   libvcruntimed:undname.obj
 0001:0003edb0       ?raw_length@DNameStatusNode@@UBEHXZ 1003fdb0 f i libvcruntimed:undname.obj
 0001:0003edd0       ?raw_length@charNode@@UBEHXZ 1003fdd0 f i libvcruntimed:undname.obj
 0001:0003edf0       ?raw_length@pDNameNode@@UBEHXZ 1003fdf0 f i libvcruntimed:undname.obj
 0001:0003ee00       ?raw_length@pairNode@@UBEHXZ 1003fe00 f i libvcruntimed:undname.obj
 0001:0003ee20       ?raw_length@pcharNode@@UBEHXZ 1003fe20 f i libvcruntimed:undname.obj
 0001:0003ee40       ?setIsArray@DName@@QAEXXZ  1003fe40 f i libvcruntimed:undname.obj
 0001:0003ee60       ?setIsComArray@DName@@QAEXXZ 1003fe60 f i libvcruntimed:undname.obj
 0001:0003ee80       ?setIsNoTE@DName@@QAEXXZ   1003fe80 f i libvcruntimed:undname.obj
 0001:0003eea0       ?setIsPinPtr@DName@@QAEXXZ 1003fea0 f i libvcruntimed:undname.obj
 0001:0003eec0       ?setIsUDC@DName@@QAEXXZ    1003fec0 f i libvcruntimed:undname.obj
 0001:0003eef0       ?setIsVCallThunk@DName@@QAEXXZ 1003fef0 f i libvcruntimed:undname.obj
 0001:0003ef10       ?setPtrRef@DName@@QAEAAV1@XZ 1003ff10 f i libvcruntimed:undname.obj
 0001:0003ef30       ?status@DName@@QBE?AW4DNameStatus@@XZ 1003ff30 f i libvcruntimed:undname.obj
 0001:0003f030       ___unDName                 10040030 f   libvcruntimed:undname.obj
 0001:0003f060       ___unDNameEx               10040060 f   libvcruntimed:undname.obj
 0001:0003f130       _unDNameGenerateCHPE       10040130 f   libvcruntimed:undname.obj
 0001:0003f190       __global_unwind2           10040190 f   libvcruntimed:exsup.obj
 0001:0003f1f6       __local_unwind2            100401f6 f   libvcruntimed:exsup.obj
 0001:0003f27a       __abnormal_termination     1004027a f   libvcruntimed:exsup.obj
 0001:0003f2a0       __NLG_Notify1              100402a0 f   libvcruntimed:exsup.obj
 0001:0003f2ac       __NLG_Notify               100402ac f   libvcruntimed:exsup.obj
 0001:0003f2c3       __NLG_Dispatch2            100402c3     libvcruntimed:exsup.obj
 0001:0003f2c3       __NLG_Dispatch             100402c3     libvcruntimed:exsup.obj
 0001:0003f2cb       __NLG_Call                 100402cb f   libvcruntimed:exsup.obj
 0001:0003f2cd       __NLG_Return2              100402cd     libvcruntimed:exsup.obj
 0001:0003f2d0       ??$__crt_interlocked_exchange_pointer@UHINSTANCE__@@PAU1@@@YAPAUHINSTANCE__@@PDSAU0@QAU0@@Z 100402d0 f i libvcruntimed:winapi_downlevel.obj
 0001:0003f2e0       ??$__crt_interlocked_exchange_pointer@UHINSTANCE__@@PAX@@YAPAUHINSTANCE__@@PDSAU0@QAX@Z 100402e0 f i libvcruntimed:winapi_downlevel.obj
 0001:0003f2f0       ??$__crt_interlocked_exchange_pointer@XPAX@@YAPAXPDSAXQAX@Z 100402f0 f i libvcruntimed:winapi_downlevel.obj
 0001:0003f300       ??$__crt_interlocked_read_pointer@UHINSTANCE__@@@@YAPAUHINSTANCE__@@PDSAU0@@Z 10040300 f i libvcruntimed:winapi_downlevel.obj
 0001:0003f320       ??$__crt_interlocked_read_pointer@X@@YAPAXPDSAX@Z 10040320 f i libvcruntimed:winapi_downlevel.obj
 0001:0003f6f0       ___vcrt_FlsAlloc           100406f0 f   libvcruntimed:winapi_downlevel.obj
 0001:0003f730       ___vcrt_FlsFree            10040730 f   libvcruntimed:winapi_downlevel.obj
 0001:0003f770       ___vcrt_FlsGetValue        10040770 f   libvcruntimed:winapi_downlevel.obj
 0001:0003f7b0       ___vcrt_FlsSetValue        100407b0 f   libvcruntimed:winapi_downlevel.obj
 0001:0003f800       ___vcrt_InitializeCriticalSectionEx 10040800 f   libvcruntimed:winapi_downlevel.obj
 0001:0003f880       __get_unexpected           10040880 f   libvcruntimed:unexpected.obj
 0001:0003f8a0       _set_unexpected            100408a0 f   libvcruntimed:unexpected.obj
 0001:0003f8d0       _unexpected                100408d0 f   libvcruntimed:unexpected.obj
 0001:0003f910       ?GetCurrentState@__FrameHandler3@@SAHPAUEHRegistrationNode@@PAXPBU_s_FuncInfo@@@Z 10040910 f   libvcruntimed:ehstate.obj
 0001:0003f940       ?SetState@__FrameHandler3@@SAXPAUEHRegistrationNode@@PBU_s_FuncInfo@@H@Z 10040940 f   libvcruntimed:ehstate.obj
 0001:0003f950       ??$?0ABV?$stream_output_adapter@D@__crt_stdio_output@@AB_KABQBDABQAU__crt_locale_pointers@@ABQAD@?$format_validation_base@DV?$stream_output_adapter@D@__crt_stdio_output@@@__crt_stdio_output@@IAE@ABV?$stream_output_adapter@D@1@AB_KABQBDABQAU__crt_locale_pointers@@ABQAD@Z 10040950 f i libucrtd:output.obj
 0001:0003f980       ??$?0ABV?$stream_output_adapter@D@__crt_stdio_output@@AB_KABQBDABQAU__crt_locale_pointers@@ABQAD@?$positional_parameter_base@DV?$stream_output_adapter@D@__crt_stdio_output@@@__crt_stdio_output@@IAE@ABV?$stream_output_adapter@D@1@AB_KABQBDABQAU__crt_locale_pointers@@ABQAD@Z 10040980 f i libucrtd:output.obj
 0001:0003fa00       ??$?0ABV?$stream_output_adapter@D@__crt_stdio_output@@AB_KABQBDABQAU__crt_locale_pointers@@ABQAD@?$standard_base@DV?$stream_output_adapter@D@__crt_stdio_output@@@__crt_stdio_output@@IAE@ABV?$stream_output_adapter@D@1@AB_KABQBDABQAU__crt_locale_pointers@@ABQAD@Z 10040a00 f i libucrtd:output.obj
 0001:0003fa50       ??$?0ABV?$stream_output_adapter@_W@__crt_stdio_output@@AB_KABQB_WABQAU__crt_locale_pointers@@ABQAD@?$format_validation_base@_WV?$stream_output_adapter@_W@__crt_stdio_output@@@__crt_stdio_output@@IAE@ABV?$stream_output_adapter@_W@1@AB_KABQB_WABQAU__crt_locale_pointers@@ABQAD@Z 10040a50 f i libucrtd:output.obj
 0001:0003fa80       ??$?0ABV?$stream_output_adapter@_W@__crt_stdio_output@@AB_KABQB_WABQAU__crt_locale_pointers@@ABQAD@?$positional_parameter_base@_WV?$stream_output_adapter@_W@__crt_stdio_output@@@__crt_stdio_output@@IAE@ABV?$stream_output_adapter@_W@1@AB_KABQB_WABQAU__crt_locale_pointers@@ABQAD@Z 10040a80 f i libucrtd:output.obj
 0001:0003fb00       ??$?0ABV?$stream_output_adapter@_W@__crt_stdio_output@@AB_KABQB_WABQAU__crt_locale_pointers@@ABQAD@?$standard_base@_WV?$stream_output_adapter@_W@__crt_stdio_output@@@__crt_stdio_output@@IAE@ABV?$stream_output_adapter@_W@1@AB_KABQB_WABQAU__crt_locale_pointers@@ABQAD@Z 10040b00 f i libucrtd:output.obj
 0001:0003fb50       ??$?0ABV?$string_output_adapter@D@__crt_stdio_output@@AB_KABQBDABQAU__crt_locale_pointers@@ABQAD@?$format_validation_base@DV?$string_output_adapter@D@__crt_stdio_output@@@__crt_stdio_output@@IAE@ABV?$string_output_adapter@D@1@AB_KABQBDABQAU__crt_locale_pointers@@ABQAD@Z 10040b50 f i libucrtd:output.obj
 0001:0003fb80       ??$?0ABV?$string_output_adapter@D@__crt_stdio_output@@AB_KABQBDABQAU__crt_locale_pointers@@ABQAD@?$positional_parameter_base@DV?$string_output_adapter@D@__crt_stdio_output@@@__crt_stdio_output@@IAE@ABV?$string_output_adapter@D@1@AB_KABQBDABQAU__crt_locale_pointers@@ABQAD@Z 10040b80 f i libucrtd:output.obj
 0001:0003fc00       ??$?0ABV?$string_output_adapter@D@__crt_stdio_output@@AB_KABQBDABQAU__crt_locale_pointers@@ABQAD@?$standard_base@DV?$string_output_adapter@D@__crt_stdio_output@@@__crt_stdio_output@@IAE@ABV?$string_output_adapter@D@1@AB_KABQBDABQAU__crt_locale_pointers@@ABQAD@Z 10040c00 f i libucrtd:output.obj
 0001:0003fc50       ??$?0ABV?$string_output_adapter@_W@__crt_stdio_output@@AB_KABQB_WABQAU__crt_locale_pointers@@ABQAD@?$format_validation_base@_WV?$string_output_adapter@_W@__crt_stdio_output@@@__crt_stdio_output@@IAE@ABV?$string_output_adapter@_W@1@AB_KABQB_WABQAU__crt_locale_pointers@@ABQAD@Z 10040c50 f i libucrtd:output.obj
 0001:0003fc80       ??$?0ABV?$string_output_adapter@_W@__crt_stdio_output@@AB_KABQB_WABQAU__crt_locale_pointers@@ABQAD@?$positional_parameter_base@_WV?$string_output_adapter@_W@__crt_stdio_output@@@__crt_stdio_output@@IAE@ABV?$string_output_adapter@_W@1@AB_KABQB_WABQAU__crt_locale_pointers@@ABQAD@Z 10040c80 f i libucrtd:output.obj
 0001:0003fd00       ??$?0ABV?$string_output_adapter@_W@__crt_stdio_output@@AB_KABQB_WABQAU__crt_locale_pointers@@ABQAD@?$standard_base@_WV?$string_output_adapter@_W@__crt_stdio_output@@@__crt_stdio_output@@IAE@ABV?$string_output_adapter@_W@1@AB_KABQB_WABQAU__crt_locale_pointers@@ABQAD@Z 10040d00 f i libucrtd:output.obj
 0001:00040230       ??$__crt_interlocked_read@J@@YAJPDJ@Z 10041230 f i libucrtd:output.obj
 0001:00042fd0       ??$count@D@formatting_buffer@__crt_stdio_output@@QBEIXZ 10043fd0 f i libucrtd:output.obj
 0001:00043010       ??$count@_W@formatting_buffer@__crt_stdio_output@@QBEIXZ 10044010 f i libucrtd:output.obj
 0001:00043050       ??$data@D@formatting_buffer@__crt_stdio_output@@QAEPADXZ 10044050 f i libucrtd:output.obj
 0001:00043090       ??$data@_W@formatting_buffer@__crt_stdio_output@@QAEPA_WXZ 10044090 f i libucrtd:output.obj
 0001:000430d0       ??$ensure_buffer_is_big_enough@D@formatting_buffer@__crt_stdio_output@@QAE_NI@Z 100440d0 f i libucrtd:output.obj
 0001:000431b0       ??$ensure_buffer_is_big_enough@_W@formatting_buffer@__crt_stdio_output@@QAE_NI@Z 100441b0 f i libucrtd:output.obj
 0001:000432a0       ??$extract_argument_from_va_list@C_J@?$positional_parameter_base@DV?$stream_output_adapter@D@__crt_stdio_output@@@__crt_stdio_output@@IAE_NAA_J@Z 100442a0 f i libucrtd:output.obj
 0001:000433e0       ??$extract_argument_from_va_list@C_J@?$positional_parameter_base@DV?$string_output_adapter@D@__crt_stdio_output@@@__crt_stdio_output@@IAE_NAA_J@Z 100443e0 f i libucrtd:output.obj
 0001:00043520       ??$extract_argument_from_va_list@C_J@?$positional_parameter_base@_WV?$stream_output_adapter@_W@__crt_stdio_output@@@__crt_stdio_output@@IAE_NAA_J@Z 10044520 f i libucrtd:output.obj
 0001:00043660       ??$extract_argument_from_va_list@C_J@?$positional_parameter_base@_WV?$string_output_adapter@_W@__crt_stdio_output@@@__crt_stdio_output@@IAE_NAA_J@Z 10044660 f i libucrtd:output.obj
 0001:000437a0       ??$extract_argument_from_va_list@C_J@?$standard_base@DV?$stream_output_adapter@D@__crt_stdio_output@@@__crt_stdio_output@@IAE_NAA_J@Z 100447a0 f i libucrtd:output.obj
 0001:000437d0       ??$extract_argument_from_va_list@C_J@?$standard_base@DV?$string_output_adapter@D@__crt_stdio_output@@@__crt_stdio_output@@IAE_NAA_J@Z 100447d0 f i libucrtd:output.obj
 0001:00043800       ??$extract_argument_from_va_list@C_J@?$standard_base@_WV?$stream_output_adapter@_W@__crt_stdio_output@@@__crt_stdio_output@@IAE_NAA_J@Z 10044800 f i libucrtd:output.obj
 0001:00043830       ??$extract_argument_from_va_list@C_J@?$standard_base@_WV?$string_output_adapter@_W@__crt_stdio_output@@@__crt_stdio_output@@IAE_NAA_J@Z 10044830 f i libucrtd:output.obj
 0001:00043860       ??$extract_argument_from_va_list@E_J@?$positional_parameter_base@DV?$stream_output_adapter@D@__crt_stdio_output@@@__crt_stdio_output@@IAE_NAA_J@Z 10044860 f i libucrtd:output.obj
 0001:000439a0       ??$extract_argument_from_va_list@E_J@?$positional_parameter_base@DV?$string_output_adapter@D@__crt_stdio_output@@@__crt_stdio_output@@IAE_NAA_J@Z 100449a0 f i libucrtd:output.obj
 0001:00043ae0       ??$extract_argument_from_va_list@E_J@?$positional_parameter_base@_WV?$stream_output_adapter@_W@__crt_stdio_output@@@__crt_stdio_output@@IAE_NAA_J@Z 10044ae0 f i libucrtd:output.obj
 0001:00043c20       ??$extract_argument_from_va_list@E_J@?$positional_parameter_base@_WV?$string_output_adapter@_W@__crt_stdio_output@@@__crt_stdio_output@@IAE_NAA_J@Z 10044c20 f i libucrtd:output.obj
 0001:00043d60       ??$extract_argument_from_va_list@E_J@?$standard_base@DV?$stream_output_adapter@D@__crt_stdio_output@@@__crt_stdio_output@@IAE_NAA_J@Z 10044d60 f i libucrtd:output.obj
 0001:00043d90       ??$extract_argument_from_va_list@E_J@?$standard_base@DV?$string_output_adapter@D@__crt_stdio_output@@@__crt_stdio_output@@IAE_NAA_J@Z 10044d90 f i libucrtd:output.obj
 0001:00043dc0       ??$extract_argument_from_va_list@E_J@?$standard_base@_WV?$stream_output_adapter@_W@__crt_stdio_output@@@__crt_stdio_output@@IAE_NAA_J@Z 10044dc0 f i libucrtd:output.obj
 0001:00043df0       ??$extract_argument_from_va_list@E_J@?$standard_base@_WV?$string_output_adapter@_W@__crt_stdio_output@@@__crt_stdio_output@@IAE_NAA_J@Z 10044df0 f i libucrtd:output.obj
 0001:00043e20       ??$extract_argument_from_va_list@F_J@?$positional_parameter_base@DV?$stream_output_adapter@D@__crt_stdio_output@@@__crt_stdio_output@@IAE_NAA_J@Z 10044e20 f i libucrtd:output.obj
 0001:00043f50       ??$extract_argument_from_va_list@F_J@?$positional_parameter_base@DV?$string_output_adapter@D@__crt_stdio_output@@@__crt_stdio_output@@IAE_NAA_J@Z 10044f50 f i libucrtd:output.obj
 0001:00044080       ??$extract_argument_from_va_list@F_J@?$positional_parameter_base@_WV?$stream_output_adapter@_W@__crt_stdio_output@@@__crt_stdio_output@@IAE_NAA_J@Z 10045080 f i libucrtd:output.obj
 0001:000441b0       ??$extract_argument_from_va_list@F_J@?$positional_parameter_base@_WV?$string_output_adapter@_W@__crt_stdio_output@@@__crt_stdio_output@@IAE_NAA_J@Z 100451b0 f i libucrtd:output.obj
 0001:000442e0       ??$extract_argument_from_va_list@F_J@?$standard_base@DV?$stream_output_adapter@D@__crt_stdio_output@@@__crt_stdio_output@@IAE_NAA_J@Z 100452e0 f i libucrtd:output.obj
 0001:00044310       ??$extract_argument_from_va_list@F_J@?$standard_base@DV?$string_output_adapter@D@__crt_stdio_output@@@__crt_stdio_output@@IAE_NAA_J@Z 10045310 f i libucrtd:output.obj
 0001:00044340       ??$extract_argument_from_va_list@F_J@?$standard_base@_WV?$stream_output_adapter@_W@__crt_stdio_output@@@__crt_stdio_output@@IAE_NAA_J@Z 10045340 f i libucrtd:output.obj
 0001:00044370       ??$extract_argument_from_va_list@F_J@?$standard_base@_WV?$string_output_adapter@_W@__crt_stdio_output@@@__crt_stdio_output@@IAE_NAA_J@Z 10045370 f i libucrtd:output.obj
 0001:000443a0       ??$extract_argument_from_va_list@GD@?$positional_parameter_base@DV?$stream_output_adapter@D@__crt_stdio_output@@@__crt_stdio_output@@IAE_NAAD@Z 100453a0 f i libucrtd:output.obj
 0001:000444d0       ??$extract_argument_from_va_list@GD@?$positional_parameter_base@DV?$string_output_adapter@D@__crt_stdio_output@@@__crt_stdio_output@@IAE_NAAD@Z 100454d0 f i libucrtd:output.obj
 0001:00044600       ??$extract_argument_from_va_list@GD@?$standard_base@DV?$stream_output_adapter@D@__crt_stdio_output@@@__crt_stdio_output@@IAE_NAAD@Z 10045600 f i libucrtd:output.obj
 0001:00044630       ??$extract_argument_from_va_list@GD@?$standard_base@DV?$string_output_adapter@D@__crt_stdio_output@@@__crt_stdio_output@@IAE_NAAD@Z 10045630 f i libucrtd:output.obj
 0001:00044660       ??$extract_argument_from_va_list@G_J@?$positional_parameter_base@DV?$stream_output_adapter@D@__crt_stdio_output@@@__crt_stdio_output@@IAE_NAA_J@Z 10045660 f i libucrtd:output.obj
 0001:000447a0       ??$extract_argument_from_va_list@G_J@?$positional_parameter_base@DV?$string_output_adapter@D@__crt_stdio_output@@@__crt_stdio_output@@IAE_NAA_J@Z 100457a0 f i libucrtd:output.obj
 0001:000448e0       ??$extract_argument_from_va_list@G_J@?$positional_parameter_base@_WV?$stream_output_adapter@_W@__crt_stdio_output@@@__crt_stdio_output@@IAE_NAA_J@Z 100458e0 f i libucrtd:output.obj
 0001:00044a20       ??$extract_argument_from_va_list@G_J@?$positional_parameter_base@_WV?$string_output_adapter@_W@__crt_stdio_output@@@__crt_stdio_output@@IAE_NAA_J@Z 10045a20 f i libucrtd:output.obj
 0001:00044b60       ??$extract_argument_from_va_list@G_J@?$standard_base@DV?$stream_output_adapter@D@__crt_stdio_output@@@__crt_stdio_output@@IAE_NAA_J@Z 10045b60 f i libucrtd:output.obj
 0001:00044b90       ??$extract_argument_from_va_list@G_J@?$standard_base@DV?$string_output_adapter@D@__crt_stdio_output@@@__crt_stdio_output@@IAE_NAA_J@Z 10045b90 f i libucrtd:output.obj
 0001:00044bc0       ??$extract_argument_from_va_list@G_J@?$standard_base@_WV?$stream_output_adapter@_W@__crt_stdio_output@@@__crt_stdio_output@@IAE_NAA_J@Z 10045bc0 f i libucrtd:output.obj
 0001:00044bf0       ??$extract_argument_from_va_list@G_J@?$standard_base@_WV?$string_output_adapter@_W@__crt_stdio_output@@@__crt_stdio_output@@IAE_NAA_J@Z 10045bf0 f i libucrtd:output.obj
 0001:00044c20       ??$extract_argument_from_va_list@H_J@?$positional_parameter_base@DV?$stream_output_adapter@D@__crt_stdio_output@@@__crt_stdio_output@@IAE_NAA_J@Z 10045c20 f i libucrtd:output.obj
 0001:00044d50       ??$extract_argument_from_va_list@H_J@?$positional_parameter_base@DV?$string_output_adapter@D@__crt_stdio_output@@@__crt_stdio_output@@IAE_NAA_J@Z 10045d50 f i libucrtd:output.obj
 0001:00044e80       ??$extract_argument_from_va_list@H_J@?$positional_parameter_base@_WV?$stream_output_adapter@_W@__crt_stdio_output@@@__crt_stdio_output@@IAE_NAA_J@Z 10045e80 f i libucrtd:output.obj
 0001:00044fb0       ??$extract_argument_from_va_list@H_J@?$positional_parameter_base@_WV?$string_output_adapter@_W@__crt_stdio_output@@@__crt_stdio_output@@IAE_NAA_J@Z 10045fb0 f i libucrtd:output.obj
 0001:000450e0       ??$extract_argument_from_va_list@H_J@?$standard_base@DV?$stream_output_adapter@D@__crt_stdio_output@@@__crt_stdio_output@@IAE_NAA_J@Z 100460e0 f i libucrtd:output.obj
 0001:00045110       ??$extract_argument_from_va_list@H_J@?$standard_base@DV?$string_output_adapter@D@__crt_stdio_output@@@__crt_stdio_output@@IAE_NAA_J@Z 10046110 f i libucrtd:output.obj
 0001:00045140       ??$extract_argument_from_va_list@H_J@?$standard_base@_WV?$stream_output_adapter@_W@__crt_stdio_output@@@__crt_stdio_output@@IAE_NAA_J@Z 10046140 f i libucrtd:output.obj
 0001:00045170       ??$extract_argument_from_va_list@H_J@?$standard_base@_WV?$string_output_adapter@_W@__crt_stdio_output@@@__crt_stdio_output@@IAE_NAA_J@Z 10046170 f i libucrtd:output.obj
 0001:000451a0       ??$extract_argument_from_va_list@I_J@?$positional_parameter_base@DV?$stream_output_adapter@D@__crt_stdio_output@@@__crt_stdio_output@@IAE_NAA_J@Z 100461a0 f i libucrtd:output.obj
 0001:000452d0       ??$extract_argument_from_va_list@I_J@?$positional_parameter_base@DV?$string_output_adapter@D@__crt_stdio_output@@@__crt_stdio_output@@IAE_NAA_J@Z 100462d0 f i libucrtd:output.obj
 0001:00045400       ??$extract_argument_from_va_list@I_J@?$positional_parameter_base@_WV?$stream_output_adapter@_W@__crt_stdio_output@@@__crt_stdio_output@@IAE_NAA_J@Z 10046400 f i libucrtd:output.obj
 0001:00045530       ??$extract_argument_from_va_list@I_J@?$positional_parameter_base@_WV?$string_output_adapter@_W@__crt_stdio_output@@@__crt_stdio_output@@IAE_NAA_J@Z 10046530 f i libucrtd:output.obj
 0001:00045660       ??$extract_argument_from_va_list@I_J@?$standard_base@DV?$stream_output_adapter@D@__crt_stdio_output@@@__crt_stdio_output@@IAE_NAA_J@Z 10046660 f i libucrtd:output.obj
 0001:00045690       ??$extract_argument_from_va_list@I_J@?$standard_base@DV?$string_output_adapter@D@__crt_stdio_output@@@__crt_stdio_output@@IAE_NAA_J@Z 10046690 f i libucrtd:output.obj
 0001:000456c0       ??$extract_argument_from_va_list@I_J@?$standard_base@_WV?$stream_output_adapter@_W@__crt_stdio_output@@@__crt_stdio_output@@IAE_NAA_J@Z 100466c0 f i libucrtd:output.obj
 0001:000456f0       ??$extract_argument_from_va_list@I_J@?$standard_base@_WV?$string_output_adapter@_W@__crt_stdio_output@@@__crt_stdio_output@@IAE_NAA_J@Z 100466f0 f i libucrtd:output.obj
 0001:00045720       ??$extract_argument_from_va_list@PADPAD@?$positional_parameter_base@DV?$stream_output_adapter@D@__crt_stdio_output@@@__crt_stdio_output@@IAE_NAAPAD@Z 10046720 f i libucrtd:output.obj
 0001:00045850       ??$extract_argument_from_va_list@PADPAD@?$positional_parameter_base@DV?$string_output_adapter@D@__crt_stdio_output@@@__crt_stdio_output@@IAE_NAAPAD@Z 10046850 f i libucrtd:output.obj
 0001:00045980       ??$extract_argument_from_va_list@PADPAD@?$positional_parameter_base@_WV?$stream_output_adapter@_W@__crt_stdio_output@@@__crt_stdio_output@@IAE_NAAPAD@Z 10046980 f i libucrtd:output.obj
 0001:00045ab0       ??$extract_argument_from_va_list@PADPAD@?$positional_parameter_base@_WV?$string_output_adapter@_W@__crt_stdio_output@@@__crt_stdio_output@@IAE_NAAPAD@Z 10046ab0 f i libucrtd:output.obj
 0001:00045be0       ??$extract_argument_from_va_list@PADPAD@?$standard_base@DV?$stream_output_adapter@D@__crt_stdio_output@@@__crt_stdio_output@@IAE_NAAPAD@Z 10046be0 f i libucrtd:output.obj
 0001:00045c10       ??$extract_argument_from_va_list@PADPAD@?$standard_base@DV?$string_output_adapter@D@__crt_stdio_output@@@__crt_stdio_output@@IAE_NAAPAD@Z 10046c10 f i libucrtd:output.obj
 0001:00045c40       ??$extract_argument_from_va_list@PADPAD@?$standard_base@_WV?$stream_output_adapter@_W@__crt_stdio_output@@@__crt_stdio_output@@IAE_NAAPAD@Z 10046c40 f i libucrtd:output.obj
 0001:00045c70       ??$extract_argument_from_va_list@PADPAD@?$standard_base@_WV?$string_output_adapter@_W@__crt_stdio_output@@@__crt_stdio_output@@IAE_NAAPAD@Z 10046c70 f i libucrtd:output.obj
 0001:000463a0       ??$extract_argument_from_va_list@PAXPAX@?$positional_parameter_base@DV?$stream_output_adapter@D@__crt_stdio_output@@@__crt_stdio_output@@IAE_NAAPAX@Z 100473a0 f i libucrtd:output.obj
 0001:000464d0       ??$extract_argument_from_va_list@PAXPAX@?$positional_parameter_base@DV?$string_output_adapter@D@__crt_stdio_output@@@__crt_stdio_output@@IAE_NAAPAX@Z 100474d0 f i libucrtd:output.obj
 0001:00046600       ??$extract_argument_from_va_list@PAXPAX@?$positional_parameter_base@_WV?$stream_output_adapter@_W@__crt_stdio_output@@@__crt_stdio_output@@IAE_NAAPAX@Z 10047600 f i libucrtd:output.obj
 0001:00046730       ??$extract_argument_from_va_list@PAXPAX@?$positional_parameter_base@_WV?$string_output_adapter@_W@__crt_stdio_output@@@__crt_stdio_output@@IAE_NAAPAX@Z 10047730 f i libucrtd:output.obj
 0001:00046860       ??$extract_argument_from_va_list@PAXPAX@?$standard_base@DV?$stream_output_adapter@D@__crt_stdio_output@@@__crt_stdio_output@@IAE_NAAPAX@Z 10047860 f i libucrtd:output.obj
 0001:00046890       ??$extract_argument_from_va_list@PAXPAX@?$standard_base@DV?$string_output_adapter@D@__crt_stdio_output@@@__crt_stdio_output@@IAE_NAAPAX@Z 10047890 f i libucrtd:output.obj
 0001:000468c0       ??$extract_argument_from_va_list@PAXPAX@?$standard_base@_WV?$stream_output_adapter@_W@__crt_stdio_output@@@__crt_stdio_output@@IAE_NAAPAX@Z 100478c0 f i libucrtd:output.obj
 0001:000468f0       ??$extract_argument_from_va_list@PAXPAX@?$standard_base@_WV?$string_output_adapter@_W@__crt_stdio_output@@@__crt_stdio_output@@IAE_NAAPAX@Z 100478f0 f i libucrtd:output.obj
 0001:00046920       ??$extract_argument_from_va_list@U_CRT_DOUBLE@@U1@@?$positional_parameter_base@DV?$stream_output_adapter@D@__crt_stdio_output@@@__crt_stdio_output@@IAE_NAAU_CRT_DOUBLE@@@Z 10047920 f i libucrtd:output.obj
 0001:00046a80       ??$extract_argument_from_va_list@U_CRT_DOUBLE@@U1@@?$positional_parameter_base@DV?$string_output_adapter@D@__crt_stdio_output@@@__crt_stdio_output@@IAE_NAAU_CRT_DOUBLE@@@Z 10047a80 f i libucrtd:output.obj
 0001:00046be0       ??$extract_argument_from_va_list@U_CRT_DOUBLE@@U1@@?$positional_parameter_base@_WV?$stream_output_adapter@_W@__crt_stdio_output@@@__crt_stdio_output@@IAE_NAAU_CRT_DOUBLE@@@Z 10047be0 f i libucrtd:output.obj
 0001:00046d40       ??$extract_argument_from_va_list@U_CRT_DOUBLE@@U1@@?$positional_parameter_base@_WV?$string_output_adapter@_W@__crt_stdio_output@@@__crt_stdio_output@@IAE_NAAU_CRT_DOUBLE@@@Z 10047d40 f i libucrtd:output.obj
 0001:00046ea0       ??$extract_argument_from_va_list@U_CRT_DOUBLE@@U1@@?$standard_base@DV?$stream_output_adapter@D@__crt_stdio_output@@@__crt_stdio_output@@IAE_NAAU_CRT_DOUBLE@@@Z 10047ea0 f i libucrtd:output.obj
 0001:00046ef0       ??$extract_argument_from_va_list@U_CRT_DOUBLE@@U1@@?$standard_base@DV?$string_output_adapter@D@__crt_stdio_output@@@__crt_stdio_output@@IAE_NAAU_CRT_DOUBLE@@@Z 10047ef0 f i libucrtd:output.obj
 0001:00046f40       ??$extract_argument_from_va_list@U_CRT_DOUBLE@@U1@@?$standard_base@_WV?$stream_output_adapter@_W@__crt_stdio_output@@@__crt_stdio_output@@IAE_NAAU_CRT_DOUBLE@@@Z 10047f40 f i libucrtd:output.obj
 0001:00046f90       ??$extract_argument_from_va_list@U_CRT_DOUBLE@@U1@@?$standard_base@_WV?$string_output_adapter@_W@__crt_stdio_output@@@__crt_stdio_output@@IAE_NAAU_CRT_DOUBLE@@@Z 10047f90 f i libucrtd:output.obj
 0001:00046fe0       ??$extract_argument_from_va_list@_J_J@?$positional_parameter_base@DV?$stream_output_adapter@D@__crt_stdio_output@@@__crt_stdio_output@@IAE_NAA_J@Z 10047fe0 f i libucrtd:output.obj
 0001:00047110       ??$extract_argument_from_va_list@_J_J@?$positional_parameter_base@DV?$string_output_adapter@D@__crt_stdio_output@@@__crt_stdio_output@@IAE_NAA_J@Z 10048110 f i libucrtd:output.obj
 0001:00047240       ??$extract_argument_from_va_list@_J_J@?$positional_parameter_base@_WV?$stream_output_adapter@_W@__crt_stdio_output@@@__crt_stdio_output@@IAE_NAA_J@Z 10048240 f i libucrtd:output.obj
 0001:00047370       ??$extract_argument_from_va_list@_J_J@?$positional_parameter_base@_WV?$string_output_adapter@_W@__crt_stdio_output@@@__crt_stdio_output@@IAE_NAA_J@Z 10048370 f i libucrtd:output.obj
 0001:000474a0       ??$extract_argument_from_va_list@_J_J@?$standard_base@DV?$stream_output_adapter@D@__crt_stdio_output@@@__crt_stdio_output@@IAE_NAA_J@Z 100484a0 f i libucrtd:output.obj
 0001:000474d0       ??$extract_argument_from_va_list@_J_J@?$standard_base@DV?$string_output_adapter@D@__crt_stdio_output@@@__crt_stdio_output@@IAE_NAA_J@Z 100484d0 f i libucrtd:output.obj
 0001:00047500       ??$extract_argument_from_va_list@_J_J@?$standard_base@_WV?$stream_output_adapter@_W@__crt_stdio_output@@@__crt_stdio_output@@IAE_NAA_J@Z 10048500 f i libucrtd:output.obj
 0001:00047530       ??$extract_argument_from_va_list@_J_J@?$standard_base@_WV?$string_output_adapter@_W@__crt_stdio_output@@@__crt_stdio_output@@IAE_NAA_J@Z 10048530 f i libucrtd:output.obj
 0001:00047560       ??$extract_argument_from_va_list@_K_J@?$positional_parameter_base@DV?$stream_output_adapter@D@__crt_stdio_output@@@__crt_stdio_output@@IAE_NAA_J@Z 10048560 f i libucrtd:output.obj
 0001:00047690       ??$extract_argument_from_va_list@_K_J@?$positional_parameter_base@DV?$string_output_adapter@D@__crt_stdio_output@@@__crt_stdio_output@@IAE_NAA_J@Z 10048690 f i libucrtd:output.obj
 0001:000477c0       ??$extract_argument_from_va_list@_K_J@?$positional_parameter_base@_WV?$stream_output_adapter@_W@__crt_stdio_output@@@__crt_stdio_output@@IAE_NAA_J@Z 100487c0 f i libucrtd:output.obj
 0001:000478f0       ??$extract_argument_from_va_list@_K_J@?$positional_parameter_base@_WV?$string_output_adapter@_W@__crt_stdio_output@@@__crt_stdio_output@@IAE_NAA_J@Z 100488f0 f i libucrtd:output.obj
 0001:00047a20       ??$extract_argument_from_va_list@_K_J@?$standard_base@DV?$stream_output_adapter@D@__crt_stdio_output@@@__crt_stdio_output@@IAE_NAA_J@Z 10048a20 f i libucrtd:output.obj
 0001:00047a50       ??$extract_argument_from_va_list@_K_J@?$standard_base@DV?$string_output_adapter@D@__crt_stdio_output@@@__crt_stdio_output@@IAE_NAA_J@Z 10048a50 f i libucrtd:output.obj
 0001:00047a80       ??$extract_argument_from_va_list@_K_J@?$standard_base@_WV?$stream_output_adapter@_W@__crt_stdio_output@@@__crt_stdio_output@@IAE_NAA_J@Z 10048a80 f i libucrtd:output.obj
 0001:00047ab0       ??$extract_argument_from_va_list@_K_J@?$standard_base@_WV?$string_output_adapter@_W@__crt_stdio_output@@@__crt_stdio_output@@IAE_NAA_J@Z 10048ab0 f i libucrtd:output.obj
 0001:00047ae0       ??$extract_argument_from_va_list@_W_W@?$positional_parameter_base@DV?$stream_output_adapter@D@__crt_stdio_output@@@__crt_stdio_output@@IAE_NAA_W@Z 10048ae0 f i libucrtd:output.obj
 0001:00047c10       ??$extract_argument_from_va_list@_W_W@?$positional_parameter_base@DV?$string_output_adapter@D@__crt_stdio_output@@@__crt_stdio_output@@IAE_NAA_W@Z 10048c10 f i libucrtd:output.obj
 0001:00047d40       ??$extract_argument_from_va_list@_W_W@?$positional_parameter_base@_WV?$stream_output_adapter@_W@__crt_stdio_output@@@__crt_stdio_output@@IAE_NAA_W@Z 10048d40 f i libucrtd:output.obj
 0001:00047e70       ??$extract_argument_from_va_list@_W_W@?$positional_parameter_base@_WV?$string_output_adapter@_W@__crt_stdio_output@@@__crt_stdio_output@@IAE_NAA_W@Z 10048e70 f i libucrtd:output.obj
 0001:00047fa0       ??$extract_argument_from_va_list@_W_W@?$standard_base@DV?$stream_output_adapter@D@__crt_stdio_output@@@__crt_stdio_output@@IAE_NAA_W@Z 10048fa0 f i libucrtd:output.obj
 0001:00047fd0       ??$extract_argument_from_va_list@_W_W@?$standard_base@DV?$string_output_adapter@D@__crt_stdio_output@@@__crt_stdio_output@@IAE_NAA_W@Z 10048fd0 f i libucrtd:output.obj
 0001:00048000       ??$extract_argument_from_va_list@_W_W@?$standard_base@_WV?$stream_output_adapter@_W@__crt_stdio_output@@@__crt_stdio_output@@IAE_NAA_W@Z 10049000 f i libucrtd:output.obj
 0001:00048030       ??$extract_argument_from_va_list@_W_W@?$standard_base@_WV?$string_output_adapter@_W@__crt_stdio_output@@@__crt_stdio_output@@IAE_NAA_W@Z 10049030 f i libucrtd:output.obj
 0001:00048060       ??$get_parameter_type@D@?$positional_parameter_base@DV?$stream_output_adapter@D@__crt_stdio_output@@@__crt_stdio_output@@CA?AW4parameter_type@01@PAD@Z 10049060 f i libucrtd:output.obj
 0001:00048070       ??$get_parameter_type@D@?$positional_parameter_base@DV?$string_output_adapter@D@__crt_stdio_output@@@__crt_stdio_output@@CA?AW4parameter_type@01@PAD@Z 10049070 f i libucrtd:output.obj
 0001:00048080       ??$get_parameter_type@D@?$positional_parameter_base@_WV?$stream_output_adapter@_W@__crt_stdio_output@@@__crt_stdio_output@@CA?AW4parameter_type@01@PAD@Z 10049080 f i libucrtd:output.obj
 0001:00048090       ??$get_parameter_type@D@?$positional_parameter_base@_WV?$string_output_adapter@_W@__crt_stdio_output@@@__crt_stdio_output@@CA?AW4parameter_type@01@PAD@Z 10049090 f i libucrtd:output.obj
 0001:000480e0       ??$get_parameter_type@X@?$positional_parameter_base@DV?$stream_output_adapter@D@__crt_stdio_output@@@__crt_stdio_output@@CA?AW4parameter_type@01@PAX@Z 100490e0 f i libucrtd:output.obj
 0001:000480f0       ??$get_parameter_type@X@?$positional_parameter_base@DV?$string_output_adapter@D@__crt_stdio_output@@@__crt_stdio_output@@CA?AW4parameter_type@01@PAX@Z 100490f0 f i libucrtd:output.obj
 0001:00048100       ??$get_parameter_type@X@?$positional_parameter_base@_WV?$stream_output_adapter@_W@__crt_stdio_output@@@__crt_stdio_output@@CA?AW4parameter_type@01@PAX@Z 10049100 f i libucrtd:output.obj
 0001:00048110       ??$get_parameter_type@X@?$positional_parameter_base@_WV?$string_output_adapter@_W@__crt_stdio_output@@@__crt_stdio_output@@CA?AW4parameter_type@01@PAX@Z 10049110 f i libucrtd:output.obj
 0001:00048120       ??$is_character_specifier@D@?$positional_parameter_base@DV?$stream_output_adapter@D@__crt_stdio_output@@@__crt_stdio_output@@CA_ND@Z 10049120 f i libucrtd:output.obj
 0001:00048150       ??$is_character_specifier@D@?$positional_parameter_base@DV?$string_output_adapter@D@__crt_stdio_output@@@__crt_stdio_output@@CA_ND@Z 10049150 f i libucrtd:output.obj
 0001:00048180       ??$is_character_specifier@_W@?$positional_parameter_base@_WV?$stream_output_adapter@_W@__crt_stdio_output@@@__crt_stdio_output@@CA_N_W@Z 10049180 f i libucrtd:output.obj
 0001:000481b0       ??$is_character_specifier@_W@?$positional_parameter_base@_WV?$string_output_adapter@_W@__crt_stdio_output@@@__crt_stdio_output@@CA_N_W@Z 100491b0 f i libucrtd:output.obj
 0001:000481e0       ??$is_integral_specifier@D@?$positional_parameter_base@DV?$stream_output_adapter@D@__crt_stdio_output@@@__crt_stdio_output@@CA_ND@Z 100491e0 f i libucrtd:output.obj
 0001:00048240       ??$is_integral_specifier@D@?$positional_parameter_base@DV?$string_output_adapter@D@__crt_stdio_output@@@__crt_stdio_output@@CA_ND@Z 10049240 f i libucrtd:output.obj
 0001:000482a0       ??$is_integral_specifier@_W@?$positional_parameter_base@_WV?$stream_output_adapter@_W@__crt_stdio_output@@@__crt_stdio_output@@CA_N_W@Z 100492a0 f i libucrtd:output.obj
 0001:00048300       ??$is_integral_specifier@_W@?$positional_parameter_base@_WV?$string_output_adapter@_W@__crt_stdio_output@@@__crt_stdio_output@@CA_N_W@Z 10049300 f i libucrtd:output.obj
 0001:00048360       ??$is_pointer_specifier@D@?$positional_parameter_base@DV?$stream_output_adapter@D@__crt_stdio_output@@@__crt_stdio_output@@CA_ND@Z 10049360 f i libucrtd:output.obj
 0001:00048390       ??$is_pointer_specifier@D@?$positional_parameter_base@DV?$string_output_adapter@D@__crt_stdio_output@@@__crt_stdio_output@@CA_ND@Z 10049390 f i libucrtd:output.obj
 0001:000483c0       ??$is_pointer_specifier@_W@?$positional_parameter_base@_WV?$stream_output_adapter@_W@__crt_stdio_output@@@__crt_stdio_output@@CA_N_W@Z 100493c0 f i libucrtd:output.obj
 0001:000483f0       ??$is_pointer_specifier@_W@?$positional_parameter_base@_WV?$string_output_adapter@_W@__crt_stdio_output@@@__crt_stdio_output@@CA_N_W@Z 100493f0 f i libucrtd:output.obj
 0001:00048420       ??$is_string_specifier@D@?$positional_parameter_base@DV?$stream_output_adapter@D@__crt_stdio_output@@@__crt_stdio_output@@CA_ND@Z 10049420 f i libucrtd:output.obj
 0001:00048450       ??$is_string_specifier@D@?$positional_parameter_base@DV?$string_output_adapter@D@__crt_stdio_output@@@__crt_stdio_output@@CA_ND@Z 10049450 f i libucrtd:output.obj
 0001:00048480       ??$is_string_specifier@_W@?$positional_parameter_base@_WV?$stream_output_adapter@_W@__crt_stdio_output@@@__crt_stdio_output@@CA_N_W@Z 10049480 f i libucrtd:output.obj
 0001:000484b0       ??$is_string_specifier@_W@?$positional_parameter_base@_WV?$string_output_adapter@_W@__crt_stdio_output@@@__crt_stdio_output@@CA_N_W@Z 100494b0 f i libucrtd:output.obj
 0001:000484e0       ??$is_wide_character_specifier@D@__crt_stdio_output@@YA_N_KDW4length_modifier@0@@Z 100494e0 f i libucrtd:output.obj
 0001:00048560       ??$is_wide_character_specifier@_W@__crt_stdio_output@@YA_N_K_WW4length_modifier@0@@Z 10049560 f i libucrtd:output.obj
 0001:00048620       ??$peek_va_arg@C@__crt_stdio_output@@YACPAD@Z 10049620 f i libucrtd:output.obj
 0001:00048640       ??$peek_va_arg@E@__crt_stdio_output@@YAEPAD@Z 10049640 f i libucrtd:output.obj
 0001:00048660       ??$peek_va_arg@F@__crt_stdio_output@@YAFPAD@Z 10049660 f i libucrtd:output.obj
 0001:00048680       ??$peek_va_arg@G@__crt_stdio_output@@YAGPAD@Z 10049680 f i libucrtd:output.obj
 0001:000486a0       ??$peek_va_arg@H@__crt_stdio_output@@YAHPAD@Z 100496a0 f i libucrtd:output.obj
 0001:000486c0       ??$peek_va_arg@I@__crt_stdio_output@@YAIPAD@Z 100496c0 f i libucrtd:output.obj
 0001:000486e0       ??$peek_va_arg@PAD@__crt_stdio_output@@YAPADPAD@Z 100496e0 f i libucrtd:output.obj
 0001:00048780       ??$peek_va_arg@PAX@__crt_stdio_output@@YAPAXPAD@Z 10049780 f i libucrtd:output.obj
 0001:000487a0       ??$peek_va_arg@U_CRT_DOUBLE@@@__crt_stdio_output@@YA?AU_CRT_DOUBLE@@PAD@Z 100497a0 f i libucrtd:output.obj
 0001:000487c0       ??$peek_va_arg@_J@__crt_stdio_output@@YA_JPAD@Z 100497c0 f i libucrtd:output.obj
 0001:000487e0       ??$peek_va_arg@_K@__crt_stdio_output@@YA_KPAD@Z 100497e0 f i libucrtd:output.obj
 0001:00048800       ??$peek_va_arg@_W@__crt_stdio_output@@YA_WPAD@Z 10049800 f i libucrtd:output.obj
 0001:00048820       ??$puttc_nolock@ABDPAU_iobuf@@@?$__crt_char_traits@D@@SAHABD$$QAPAU_iobuf@@@Z 10049820 f i libucrtd:output.obj
 0001:00048840       ??$puttc_nolock@AB_WPAU_iobuf@@@?$__crt_char_traits@_W@@SAGAB_W$$QAPAU_iobuf@@@Z 10049840 f i libucrtd:output.obj
 0001:00048860       ??$read_va_arg@C@__crt_stdio_output@@YACAAPAD@Z 10049860 f i libucrtd:output.obj
 0001:00048880       ??$read_va_arg@E@__crt_stdio_output@@YAEAAPAD@Z 10049880 f i libucrtd:output.obj
 0001:000488a0       ??$read_va_arg@F@__crt_stdio_output@@YAFAAPAD@Z 100498a0 f i libucrtd:output.obj
 0001:000488c0       ??$read_va_arg@G@__crt_stdio_output@@YAGAAPAD@Z 100498c0 f i libucrtd:output.obj
 0001:000488e0       ??$read_va_arg@H@__crt_stdio_output@@YAHAAPAD@Z 100498e0 f i libucrtd:output.obj
 0001:00048900       ??$read_va_arg@I@__crt_stdio_output@@YAIAAPAD@Z 10049900 f i libucrtd:output.obj
 0001:00048920       ??$read_va_arg@PAD@__crt_stdio_output@@YAPADAAPAD@Z 10049920 f i libucrtd:output.obj
 0001:00048ac0       ??$read_va_arg@PAX@__crt_stdio_output@@YAPAXAAPAD@Z 10049ac0 f i libucrtd:output.obj
 0001:00048ae0       ??$read_va_arg@U_CRT_DOUBLE@@@__crt_stdio_output@@YA?AU_CRT_DOUBLE@@AAPAD@Z 10049ae0 f i libucrtd:output.obj
 0001:00048b00       ??$read_va_arg@_J@__crt_stdio_output@@YA_JAAPAD@Z 10049b00 f i libucrtd:output.obj
 0001:00048b20       ??$read_va_arg@_K@__crt_stdio_output@@YA_KAAPAD@Z 10049b20 f i libucrtd:output.obj
 0001:00048b40       ??$read_va_arg@_W@__crt_stdio_output@@YA_WAAPAD@Z 10049b40 f i libucrtd:output.obj
 0001:00048b60       ??$scratch_count@D@formatting_buffer@__crt_stdio_output@@QBEIXZ 10049b60 f i libucrtd:output.obj
 0001:00048b80       ??$scratch_data@D@formatting_buffer@__crt_stdio_output@@QAEPADXZ 10049b80 f i libucrtd:output.obj
 0001:00048bd0       ??$tcstol@AAPBDPAPADH@?$__crt_char_traits@D@@SAJAAPBD$$QAPAPAD$$QAH@Z 10049bd0 f i libucrtd:output.obj
 0001:00048c00       ??$tcstol@AAPB_WPAPA_WH@?$__crt_char_traits@_W@@SAJAAPB_W$$QAPAPA_W$$QAH@Z 10049c00 f i libucrtd:output.obj
 0001:00048c30       ??$tcstol@PBDPAPADH@?$__crt_char_traits@D@@SAJ$$QAPBD$$QAPAPAD$$QAH@Z 10049c30 f i libucrtd:output.obj
 0001:00048c60       ??$tcstol@PB_WPAPA_WH@?$__crt_char_traits@_W@@SAJ$$QAPB_W$$QAPAPA_W$$QAH@Z 10049c60 f i libucrtd:output.obj
 0001:00048c90       ??$type_case_integer_parse_into_buffer@I@?$output_processor@DV?$stream_output_adapter@D@__crt_stdio_output@@V?$format_validation_base@DV?$stream_output_adapter@D@__crt_stdio_output@@@2@@__crt_stdio_output@@AAEXII_N@Z 10049c90 f i libucrtd:output.obj
 0001:00048d60       ??$type_case_integer_parse_into_buffer@I@?$output_processor@DV?$stream_output_adapter@D@__crt_stdio_output@@V?$positional_parameter_base@DV?$stream_output_adapter@D@__crt_stdio_output@@@2@@__crt_stdio_output@@AAEXII_N@Z 10049d60 f i libucrtd:output.obj
 0001:00048e30       ??$type_case_integer_parse_into_buffer@I@?$output_processor@DV?$stream_output_adapter@D@__crt_stdio_output@@V?$standard_base@DV?$stream_output_adapter@D@__crt_stdio_output@@@2@@__crt_stdio_output@@AAEXII_N@Z 10049e30 f i libucrtd:output.obj
 0001:00048f00       ??$type_case_integer_parse_into_buffer@I@?$output_processor@DV?$string_output_adapter@D@__crt_stdio_output@@V?$format_validation_base@DV?$string_output_adapter@D@__crt_stdio_output@@@2@@__crt_stdio_output@@AAEXII_N@Z 10049f00 f i libucrtd:output.obj
 0001:00048fd0       ??$type_case_integer_parse_into_buffer@I@?$output_processor@DV?$string_output_adapter@D@__crt_stdio_output@@V?$positional_parameter_base@DV?$string_output_adapter@D@__crt_stdio_output@@@2@@__crt_stdio_output@@AAEXII_N@Z 10049fd0 f i libucrtd:output.obj
 0001:000490a0       ??$type_case_integer_parse_into_buffer@I@?$output_processor@DV?$string_output_adapter@D@__crt_stdio_output@@V?$standard_base@DV?$string_output_adapter@D@__crt_stdio_output@@@2@@__crt_stdio_output@@AAEXII_N@Z 1004a0a0 f i libucrtd:output.obj
 0001:00049170       ??$type_case_integer_parse_into_buffer@I@?$output_processor@_WV?$stream_output_adapter@_W@__crt_stdio_output@@V?$format_validation_base@_WV?$stream_output_adapter@_W@__crt_stdio_output@@@2@@__crt_stdio_output@@AAEXII_N@Z 1004a170 f i libucrtd:output.obj
 0001:00049250       ??$type_case_integer_parse_into_buffer@I@?$output_processor@_WV?$stream_output_adapter@_W@__crt_stdio_output@@V?$positional_parameter_base@_WV?$stream_output_adapter@_W@__crt_stdio_output@@@2@@__crt_stdio_output@@AAEXII_N@Z 1004a250 f i libucrtd:output.obj
 0001:00049330       ??$type_case_integer_parse_into_buffer@I@?$output_processor@_WV?$stream_output_adapter@_W@__crt_stdio_output@@V?$standard_base@_WV?$stream_output_adapter@_W@__crt_stdio_output@@@2@@__crt_stdio_output@@AAEXII_N@Z 1004a330 f i libucrtd:output.obj
 0001:00049410       ??$type_case_integer_parse_into_buffer@I@?$output_processor@_WV?$string_output_adapter@_W@__crt_stdio_output@@V?$format_validation_base@_WV?$string_output_adapter@_W@__crt_stdio_output@@@2@@__crt_stdio_output@@AAEXII_N@Z 1004a410 f i libucrtd:output.obj
 0001:000494f0       ??$type_case_integer_parse_into_buffer@I@?$output_processor@_WV?$string_output_adapter@_W@__crt_stdio_output@@V?$positional_parameter_base@_WV?$string_output_adapter@_W@__crt_stdio_output@@@2@@__crt_stdio_output@@AAEXII_N@Z 1004a4f0 f i libucrtd:output.obj
 0001:000495d0       ??$type_case_integer_parse_into_buffer@I@?$output_processor@_WV?$string_output_adapter@_W@__crt_stdio_output@@V?$standard_base@_WV?$string_output_adapter@_W@__crt_stdio_output@@@2@@__crt_stdio_output@@AAEXII_N@Z 1004a5d0 f i libucrtd:output.obj
 0001:000496b0       ??$type_case_integer_parse_into_buffer@_K@?$output_processor@DV?$stream_output_adapter@D@__crt_stdio_output@@V?$format_validation_base@DV?$stream_output_adapter@D@__crt_stdio_output@@@2@@__crt_stdio_output@@AAEX_KI_N@Z 1004a6b0 f i libucrtd:output.obj
 0001:000497a0       ??$type_case_integer_parse_into_buffer@_K@?$output_processor@DV?$stream_output_adapter@D@__crt_stdio_output@@V?$positional_parameter_base@DV?$stream_output_adapter@D@__crt_stdio_output@@@2@@__crt_stdio_output@@AAEX_KI_N@Z 1004a7a0 f i libucrtd:output.obj
 0001:00049890       ??$type_case_integer_parse_into_buffer@_K@?$output_processor@DV?$stream_output_adapter@D@__crt_stdio_output@@V?$standard_base@DV?$stream_output_adapter@D@__crt_stdio_output@@@2@@__crt_stdio_output@@AAEX_KI_N@Z 1004a890 f i libucrtd:output.obj
 0001:00049980       ??$type_case_integer_parse_into_buffer@_K@?$output_processor@DV?$string_output_adapter@D@__crt_stdio_output@@V?$format_validation_base@DV?$string_output_adapter@D@__crt_stdio_output@@@2@@__crt_stdio_output@@AAEX_KI_N@Z 1004a980 f i libucrtd:output.obj
 0001:00049a70       ??$type_case_integer_parse_into_buffer@_K@?$output_processor@DV?$string_output_adapter@D@__crt_stdio_output@@V?$positional_parameter_base@DV?$string_output_adapter@D@__crt_stdio_output@@@2@@__crt_stdio_output@@AAEX_KI_N@Z 1004aa70 f i libucrtd:output.obj
 0001:00049b60       ??$type_case_integer_parse_into_buffer@_K@?$output_processor@DV?$string_output_adapter@D@__crt_stdio_output@@V?$standard_base@DV?$string_output_adapter@D@__crt_stdio_output@@@2@@__crt_stdio_output@@AAEX_KI_N@Z 1004ab60 f i libucrtd:output.obj
 0001:00049c50       ??$type_case_integer_parse_into_buffer@_K@?$output_processor@_WV?$stream_output_adapter@_W@__crt_stdio_output@@V?$format_validation_base@_WV?$stream_output_adapter@_W@__crt_stdio_output@@@2@@__crt_stdio_output@@AAEX_KI_N@Z 1004ac50 f i libucrtd:output.obj
 0001:00049d50       ??$type_case_integer_parse_into_buffer@_K@?$output_processor@_WV?$stream_output_adapter@_W@__crt_stdio_output@@V?$positional_parameter_base@_WV?$stream_output_adapter@_W@__crt_stdio_output@@@2@@__crt_stdio_output@@AAEX_KI_N@Z 1004ad50 f i libucrtd:output.obj
 0001:00049e50       ??$type_case_integer_parse_into_buffer@_K@?$output_processor@_WV?$stream_output_adapter@_W@__crt_stdio_output@@V?$standard_base@_WV?$stream_output_adapter@_W@__crt_stdio_output@@@2@@__crt_stdio_output@@AAEX_KI_N@Z 1004ae50 f i libucrtd:output.obj
 0001:00049f50       ??$type_case_integer_parse_into_buffer@_K@?$output_processor@_WV?$string_output_adapter@_W@__crt_stdio_output@@V?$format_validation_base@_WV?$string_output_adapter@_W@__crt_stdio_output@@@2@@__crt_stdio_output@@AAEX_KI_N@Z 1004af50 f i libucrtd:output.obj
 0001:0004a050       ??$type_case_integer_parse_into_buffer@_K@?$output_processor@_WV?$string_output_adapter@_W@__crt_stdio_output@@V?$positional_parameter_base@_WV?$string_output_adapter@_W@__crt_stdio_output@@@2@@__crt_stdio_output@@AAEX_KI_N@Z 1004b050 f i libucrtd:output.obj
 0001:0004a150       ??$type_case_integer_parse_into_buffer@_K@?$output_processor@_WV?$string_output_adapter@_W@__crt_stdio_output@@V?$standard_base@_WV?$string_output_adapter@_W@__crt_stdio_output@@@2@@__crt_stdio_output@@AAEX_KI_N@Z 1004b150 f i libucrtd:output.obj
 0001:0004a250       ??$write_multiple_characters@V?$stream_output_adapter@D@__crt_stdio_output@@D@__crt_stdio_output@@YAXABV?$stream_output_adapter@D@0@DHQAH@Z 1004b250 f i libucrtd:output.obj
 0001:0004a2a0       ??$write_multiple_characters@V?$stream_output_adapter@_W@__crt_stdio_output@@D@__crt_stdio_output@@YAXABV?$stream_output_adapter@_W@0@DHQAH@Z 1004b2a0 f i libucrtd:output.obj
 0001:0004a2f0       ??$write_multiple_characters@V?$string_output_adapter@D@__crt_stdio_output@@D@__crt_stdio_output@@YAXABV?$string_output_adapter@D@0@DHQAH@Z 1004b2f0 f i libucrtd:output.obj
 0001:0004a340       ??$write_multiple_characters@V?$string_output_adapter@_W@__crt_stdio_output@@D@__crt_stdio_output@@YAXABV?$string_output_adapter@_W@0@DHQAH@Z 1004b340 f i libucrtd:output.obj
 0001:0004a690       ??0?$common_data@D@__crt_stdio_output@@IAE@XZ 1004b690 f i libucrtd:output.obj
 0001:0004a740       ??0?$common_data@_W@__crt_stdio_output@@IAE@XZ 1004b740 f i libucrtd:output.obj
 0001:0004a7f0       ??0?$output_adapter_data@DV?$stream_output_adapter@D@__crt_stdio_output@@@__crt_stdio_output@@IAE@ABV?$stream_output_adapter@D@1@_KQBDQAU__crt_locale_pointers@@QAD@Z 1004b7f0 f i libucrtd:output.obj
 0001:0004a850       ??0?$output_adapter_data@DV?$string_output_adapter@D@__crt_stdio_output@@@__crt_stdio_output@@IAE@ABV?$string_output_adapter@D@1@_KQBDQAU__crt_locale_pointers@@QAD@Z 1004b850 f i libucrtd:output.obj
 0001:0004a8b0       ??0?$output_adapter_data@_WV?$stream_output_adapter@_W@__crt_stdio_output@@@__crt_stdio_output@@IAE@ABV?$stream_output_adapter@_W@1@_KQB_WQAU__crt_locale_pointers@@QAD@Z 1004b8b0 f i libucrtd:output.obj
 0001:0004a910       ??0?$output_adapter_data@_WV?$string_output_adapter@_W@__crt_stdio_output@@@__crt_stdio_output@@IAE@ABV?$string_output_adapter@_W@1@_KQB_WQAU__crt_locale_pointers@@QAD@Z 1004b910 f i libucrtd:output.obj
 0001:0004a970       ??0?$output_processor@DV?$stream_output_adapter@D@__crt_stdio_output@@V?$format_validation_base@DV?$stream_output_adapter@D@__crt_stdio_output@@@2@@__crt_stdio_output@@QAE@ABV?$stream_output_adapter@D@1@_KQBDQAU__crt_locale_pointers@@QAD@Z 1004b970 f i libucrtd:output.obj
 0001:0004a9a0       ??0?$output_processor@DV?$stream_output_adapter@D@__crt_stdio_output@@V?$positional_parameter_base@DV?$stream_output_adapter@D@__crt_stdio_output@@@2@@__crt_stdio_output@@QAE@ABV?$stream_output_adapter@D@1@_KQBDQAU__crt_locale_pointers@@QAD@Z 1004b9a0 f i libucrtd:output.obj
 0001:0004a9d0       ??0?$output_processor@DV?$stream_output_adapter@D@__crt_stdio_output@@V?$standard_base@DV?$stream_output_adapter@D@__crt_stdio_output@@@2@@__crt_stdio_output@@QAE@ABV?$stream_output_adapter@D@1@_KQBDQAU__crt_locale_pointers@@QAD@Z 1004b9d0 f i libucrtd:output.obj
 0001:0004aa00       ??0?$output_processor@DV?$string_output_adapter@D@__crt_stdio_output@@V?$format_validation_base@DV?$string_output_adapter@D@__crt_stdio_output@@@2@@__crt_stdio_output@@QAE@ABV?$string_output_adapter@D@1@_KQBDQAU__crt_locale_pointers@@QAD@Z 1004ba00 f i libucrtd:output.obj
 0001:0004aa30       ??0?$output_processor@DV?$string_output_adapter@D@__crt_stdio_output@@V?$positional_parameter_base@DV?$string_output_adapter@D@__crt_stdio_output@@@2@@__crt_stdio_output@@QAE@ABV?$string_output_adapter@D@1@_KQBDQAU__crt_locale_pointers@@QAD@Z 1004ba30 f i libucrtd:output.obj
 0001:0004aa60       ??0?$output_processor@DV?$string_output_adapter@D@__crt_stdio_output@@V?$standard_base@DV?$string_output_adapter@D@__crt_stdio_output@@@2@@__crt_stdio_output@@QAE@ABV?$string_output_adapter@D@1@_KQBDQAU__crt_locale_pointers@@QAD@Z 1004ba60 f i libucrtd:output.obj
 0001:0004aa90       ??0?$output_processor@_WV?$stream_output_adapter@_W@__crt_stdio_output@@V?$format_validation_base@_WV?$stream_output_adapter@_W@__crt_stdio_output@@@2@@__crt_stdio_output@@QAE@ABV?$stream_output_adapter@_W@1@_KQB_WQAU__crt_locale_pointers@@QAD@Z 1004ba90 f i libucrtd:output.obj
 0001:0004aac0       ??0?$output_processor@_WV?$stream_output_adapter@_W@__crt_stdio_output@@V?$positional_parameter_base@_WV?$stream_output_adapter@_W@__crt_stdio_output@@@2@@__crt_stdio_output@@QAE@ABV?$stream_output_adapter@_W@1@_KQB_WQAU__crt_locale_pointers@@QAD@Z 1004bac0 f i libucrtd:output.obj
 0001:0004aaf0       ??0?$output_processor@_WV?$stream_output_adapter@_W@__crt_stdio_output@@V?$standard_base@_WV?$stream_output_adapter@_W@__crt_stdio_output@@@2@@__crt_stdio_output@@QAE@ABV?$stream_output_adapter@_W@1@_KQB_WQAU__crt_locale_pointers@@QAD@Z 1004baf0 f i libucrtd:output.obj
 0001:0004ab20       ??0?$output_processor@_WV?$string_output_adapter@_W@__crt_stdio_output@@V?$format_validation_base@_WV?$string_output_adapter@_W@__crt_stdio_output@@@2@@__crt_stdio_output@@QAE@ABV?$string_output_adapter@_W@1@_KQB_WQAU__crt_locale_pointers@@QAD@Z 1004bb20 f i libucrtd:output.obj
 0001:0004ab50       ??0?$output_processor@_WV?$string_output_adapter@_W@__crt_stdio_output@@V?$positional_parameter_base@_WV?$string_output_adapter@_W@__crt_stdio_output@@@2@@__crt_stdio_output@@QAE@ABV?$string_output_adapter@_W@1@_KQB_WQAU__crt_locale_pointers@@QAD@Z 1004bb50 f i libucrtd:output.obj
 0001:0004ab80       ??0?$output_processor@_WV?$string_output_adapter@_W@__crt_stdio_output@@V?$standard_base@_WV?$string_output_adapter@_W@__crt_stdio_output@@@2@@__crt_stdio_output@@QAE@ABV?$string_output_adapter@_W@1@_KQB_WQAU__crt_locale_pointers@@QAD@Z 1004bb80 f i libucrtd:output.obj
 0001:0004abb0       ??0?$stream_output_adapter@D@__crt_stdio_output@@QAE@QAU_iobuf@@@Z 1004bbb0 f i libucrtd:output.obj
 0001:0004abd0       ??0?$stream_output_adapter@_W@__crt_stdio_output@@QAE@QAU_iobuf@@@Z 1004bbd0 f i libucrtd:output.obj
 0001:0004abf0       ??0?$string_output_adapter@D@__crt_stdio_output@@QAE@QAU?$string_output_adapter_context@D@1@@Z 1004bbf0 f i libucrtd:output.obj
 0001:0004ac10       ??0?$string_output_adapter@_W@__crt_stdio_output@@QAE@QAU?$string_output_adapter_context@_W@1@@Z 1004bc10 f i libucrtd:output.obj
 0001:0004ac30       ??0_LocaleUpdate@@QAE@QAU__crt_locale_pointers@@@Z 1004bc30 f i libucrtd:output.obj
 0001:0004ad10       ??0__acrt_stdio_temporary_buffering_guard@@QAE@QAU_iobuf@@@Z 1004bd10 f i libucrtd:output.obj
 0001:0004ad40       ??0__crt_deferred_errno_cache@@QAE@XZ 1004bd40 f i libucrtd:output.obj
 0001:0004ad60       ??0__crt_errno_guard@@QAE@QAH@Z 1004bd60 f i libucrtd:output.obj
 0001:0004ad90       ??0__crt_stdio_stream@@QAE@QAU_iobuf@@@Z 1004bd90 f i libucrtd:output.obj
 0001:0004adb0       ??0formatting_buffer@__crt_stdio_output@@QAE@XZ 1004bdb0 f i libucrtd:output.obj
 0001:0004ade0       ??1?$common_data@D@__crt_stdio_output@@QAE@XZ 1004bde0 f i libucrtd:output.obj
 0001:0004ae00       ??1?$common_data@_W@__crt_stdio_output@@QAE@XZ 1004be00 f i libucrtd:output.obj
 0001:0004ae20       ??1?$format_validation_base@DV?$stream_output_adapter@D@__crt_stdio_output@@@__crt_stdio_output@@QAE@XZ 1004be20 f i libucrtd:output.obj
 0001:0004ae40       ??1?$format_validation_base@DV?$string_output_adapter@D@__crt_stdio_output@@@__crt_stdio_output@@QAE@XZ 1004be40 f i libucrtd:output.obj
 0001:0004ae60       ??1?$format_validation_base@_WV?$stream_output_adapter@_W@__crt_stdio_output@@@__crt_stdio_output@@QAE@XZ 1004be60 f i libucrtd:output.obj
 0001:0004ae80       ??1?$format_validation_base@_WV?$string_output_adapter@_W@__crt_stdio_output@@@__crt_stdio_output@@QAE@XZ 1004be80 f i libucrtd:output.obj
 0001:0004aea0       ??1?$output_adapter_data@DV?$stream_output_adapter@D@__crt_stdio_output@@@__crt_stdio_output@@QAE@XZ 1004bea0 f i libucrtd:output.obj
 0001:0004aec0       ??1?$output_adapter_data@DV?$string_output_adapter@D@__crt_stdio_output@@@__crt_stdio_output@@QAE@XZ 1004bec0 f i libucrtd:output.obj
 0001:0004aee0       ??1?$output_adapter_data@_WV?$stream_output_adapter@_W@__crt_stdio_output@@@__crt_stdio_output@@QAE@XZ 1004bee0 f i libucrtd:output.obj
 0001:0004af00       ??1?$output_adapter_data@_WV?$string_output_adapter@_W@__crt_stdio_output@@@__crt_stdio_output@@QAE@XZ 1004bf00 f i libucrtd:output.obj
 0001:0004af20       ??1?$output_processor@DV?$stream_output_adapter@D@__crt_stdio_output@@V?$format_validation_base@DV?$stream_output_adapter@D@__crt_stdio_output@@@2@@__crt_stdio_output@@QAE@XZ 1004bf20 f i libucrtd:output.obj
 0001:0004af40       ??1?$output_processor@DV?$stream_output_adapter@D@__crt_stdio_output@@V?$positional_parameter_base@DV?$stream_output_adapter@D@__crt_stdio_output@@@2@@__crt_stdio_output@@QAE@XZ 1004bf40 f i libucrtd:output.obj
 0001:0004af60       ??1?$output_processor@DV?$stream_output_adapter@D@__crt_stdio_output@@V?$standard_base@DV?$stream_output_adapter@D@__crt_stdio_output@@@2@@__crt_stdio_output@@QAE@XZ 1004bf60 f i libucrtd:output.obj
 0001:0004af80       ??1?$output_processor@DV?$string_output_adapter@D@__crt_stdio_output@@V?$format_validation_base@DV?$string_output_adapter@D@__crt_stdio_output@@@2@@__crt_stdio_output@@QAE@XZ 1004bf80 f i libucrtd:output.obj
 0001:0004afa0       ??1?$output_processor@DV?$string_output_adapter@D@__crt_stdio_output@@V?$positional_parameter_base@DV?$string_output_adapter@D@__crt_stdio_output@@@2@@__crt_stdio_output@@QAE@XZ 1004bfa0 f i libucrtd:output.obj
 0001:0004afc0       ??1?$output_processor@DV?$string_output_adapter@D@__crt_stdio_output@@V?$standard_base@DV?$string_output_adapter@D@__crt_stdio_output@@@2@@__crt_stdio_output@@QAE@XZ 1004bfc0 f i libucrtd:output.obj
 0001:0004afe0       ??1?$output_processor@_WV?$stream_output_adapter@_W@__crt_stdio_output@@V?$format_validation_base@_WV?$stream_output_adapter@_W@__crt_stdio_output@@@2@@__crt_stdio_output@@QAE@XZ 1004bfe0 f i libucrtd:output.obj
 0001:0004b000       ??1?$output_processor@_WV?$stream_output_adapter@_W@__crt_stdio_output@@V?$positional_parameter_base@_WV?$stream_output_adapter@_W@__crt_stdio_output@@@2@@__crt_stdio_output@@QAE@XZ 1004c000 f i libucrtd:output.obj
 0001:0004b020       ??1?$output_processor@_WV?$stream_output_adapter@_W@__crt_stdio_output@@V?$standard_base@_WV?$stream_output_adapter@_W@__crt_stdio_output@@@2@@__crt_stdio_output@@QAE@XZ 1004c020 f i libucrtd:output.obj
 0001:0004b040       ??1?$output_processor@_WV?$string_output_adapter@_W@__crt_stdio_output@@V?$format_validation_base@_WV?$string_output_adapter@_W@__crt_stdio_output@@@2@@__crt_stdio_output@@QAE@XZ 1004c040 f i libucrtd:output.obj
 0001:0004b060       ??1?$output_processor@_WV?$string_output_adapter@_W@__crt_stdio_output@@V?$positional_parameter_base@_WV?$string_output_adapter@_W@__crt_stdio_output@@@2@@__crt_stdio_output@@QAE@XZ 1004c060 f i libucrtd:output.obj
 0001:0004b080       ??1?$output_processor@_WV?$string_output_adapter@_W@__crt_stdio_output@@V?$standard_base@_WV?$string_output_adapter@_W@__crt_stdio_output@@@2@@__crt_stdio_output@@QAE@XZ 1004c080 f i libucrtd:output.obj
 0001:0004b0a0       ??1?$positional_parameter_base@DV?$stream_output_adapter@D@__crt_stdio_output@@@__crt_stdio_output@@QAE@XZ 1004c0a0 f i libucrtd:output.obj
 0001:0004b0c0       ??1?$positional_parameter_base@DV?$string_output_adapter@D@__crt_stdio_output@@@__crt_stdio_output@@QAE@XZ 1004c0c0 f i libucrtd:output.obj
 0001:0004b0e0       ??1?$positional_parameter_base@_WV?$stream_output_adapter@_W@__crt_stdio_output@@@__crt_stdio_output@@QAE@XZ 1004c0e0 f i libucrtd:output.obj
 0001:0004b100       ??1?$positional_parameter_base@_WV?$string_output_adapter@_W@__crt_stdio_output@@@__crt_stdio_output@@QAE@XZ 1004c100 f i libucrtd:output.obj
 0001:0004b120       ??1?$standard_base@DV?$stream_output_adapter@D@__crt_stdio_output@@@__crt_stdio_output@@QAE@XZ 1004c120 f i libucrtd:output.obj
 0001:0004b140       ??1?$standard_base@DV?$string_output_adapter@D@__crt_stdio_output@@@__crt_stdio_output@@QAE@XZ 1004c140 f i libucrtd:output.obj
 0001:0004b160       ??1?$standard_base@_WV?$stream_output_adapter@_W@__crt_stdio_output@@@__crt_stdio_output@@QAE@XZ 1004c160 f i libucrtd:output.obj
 0001:0004b180       ??1?$standard_base@_WV?$string_output_adapter@_W@__crt_stdio_output@@@__crt_stdio_output@@QAE@XZ 1004c180 f i libucrtd:output.obj
 0001:0004b1a0       ??1_LocaleUpdate@@QAE@XZ   1004c1a0 f i libucrtd:output.obj
 0001:0004b1e0       ??1__acrt_stdio_temporary_buffering_guard@@QAE@XZ 1004c1e0 f i libucrtd:output.obj
 0001:0004b210       ??1__crt_errno_guard@@QAE@XZ 1004c210 f i libucrtd:output.obj
 0001:0004b240       ??1formatting_buffer@__crt_stdio_output@@QAE@XZ 1004c240 f i libucrtd:output.obj
 0001:0004b260       ??4?$__crt_unique_heap_ptr@DU__crt_internal_free_policy@@@@QAEAAV0@$$QAV0@@Z 1004c260 f i libucrtd:output.obj
 0001:0004b290       ??C__crt_stdio_stream@@QBEPAU__crt_stdio_stream_data@@XZ 1004c290 f i libucrtd:output.obj
 0001:0004b9d0       ?GetLocaleT@_LocaleUpdate@@QAEPAU__crt_locale_pointers@@XZ 1004c9d0 f i libucrtd:output.obj
 0001:0004b9f0       ?adjust_hexit@?$output_processor@DV?$stream_output_adapter@D@__crt_stdio_output@@V?$format_validation_base@DV?$stream_output_adapter@D@__crt_stdio_output@@@2@@__crt_stdio_output@@CADH_N@Z 1004c9f0 f i libucrtd:output.obj
 0001:0004ba30       ?adjust_hexit@?$output_processor@DV?$stream_output_adapter@D@__crt_stdio_output@@V?$positional_parameter_base@DV?$stream_output_adapter@D@__crt_stdio_output@@@2@@__crt_stdio_output@@CADH_N@Z 1004ca30 f i libucrtd:output.obj
 0001:0004ba70       ?adjust_hexit@?$output_processor@DV?$stream_output_adapter@D@__crt_stdio_output@@V?$standard_base@DV?$stream_output_adapter@D@__crt_stdio_output@@@2@@__crt_stdio_output@@CADH_N@Z 1004ca70 f i libucrtd:output.obj
 0001:0004bab0       ?adjust_hexit@?$output_processor@DV?$string_output_adapter@D@__crt_stdio_output@@V?$format_validation_base@DV?$string_output_adapter@D@__crt_stdio_output@@@2@@__crt_stdio_output@@CADH_N@Z 1004cab0 f i libucrtd:output.obj
 0001:0004baf0       ?adjust_hexit@?$output_processor@DV?$string_output_adapter@D@__crt_stdio_output@@V?$positional_parameter_base@DV?$string_output_adapter@D@__crt_stdio_output@@@2@@__crt_stdio_output@@CADH_N@Z 1004caf0 f i libucrtd:output.obj
 0001:0004bb30       ?adjust_hexit@?$output_processor@DV?$string_output_adapter@D@__crt_stdio_output@@V?$standard_base@DV?$string_output_adapter@D@__crt_stdio_output@@@2@@__crt_stdio_output@@CADH_N@Z 1004cb30 f i libucrtd:output.obj
 0001:0004bb70       ?adjust_hexit@?$output_processor@_WV?$stream_output_adapter@_W@__crt_stdio_output@@V?$format_validation_base@_WV?$stream_output_adapter@_W@__crt_stdio_output@@@2@@__crt_stdio_output@@CADH_N@Z 1004cb70 f i libucrtd:output.obj
 0001:0004bbb0       ?adjust_hexit@?$output_processor@_WV?$stream_output_adapter@_W@__crt_stdio_output@@V?$positional_parameter_base@_WV?$stream_output_adapter@_W@__crt_stdio_output@@@2@@__crt_stdio_output@@CADH_N@Z 1004cbb0 f i libucrtd:output.obj
 0001:0004bbf0       ?adjust_hexit@?$output_processor@_WV?$stream_output_adapter@_W@__crt_stdio_output@@V?$standard_base@_WV?$stream_output_adapter@_W@__crt_stdio_output@@@2@@__crt_stdio_output@@CADH_N@Z 1004cbf0 f i libucrtd:output.obj
 0001:0004bc30       ?adjust_hexit@?$output_processor@_WV?$string_output_adapter@_W@__crt_stdio_output@@V?$format_validation_base@_WV?$string_output_adapter@_W@__crt_stdio_output@@@2@@__crt_stdio_output@@CADH_N@Z 1004cc30 f i libucrtd:output.obj
 0001:0004bc70       ?adjust_hexit@?$output_processor@_WV?$string_output_adapter@_W@__crt_stdio_output@@V?$positional_parameter_base@_WV?$string_output_adapter@_W@__crt_stdio_output@@@2@@__crt_stdio_output@@CADH_N@Z 1004cc70 f i libucrtd:output.obj
 0001:0004bcb0       ?adjust_hexit@?$output_processor@_WV?$string_output_adapter@_W@__crt_stdio_output@@V?$standard_base@_WV?$string_output_adapter@_W@__crt_stdio_output@@@2@@__crt_stdio_output@@CADH_N@Z 1004ccb0 f i libucrtd:output.obj
 0001:0004bcf0       ?advance_to_next_pass@?$positional_parameter_base@DV?$stream_output_adapter@D@__crt_stdio_output@@@__crt_stdio_output@@IAE_NXZ 1004ccf0 f i libucrtd:output.obj
 0001:0004bd90       ?advance_to_next_pass@?$positional_parameter_base@DV?$string_output_adapter@D@__crt_stdio_output@@@__crt_stdio_output@@IAE_NXZ 1004cd90 f i libucrtd:output.obj
 0001:0004be30       ?advance_to_next_pass@?$positional_parameter_base@_WV?$stream_output_adapter@_W@__crt_stdio_output@@@__crt_stdio_output@@IAE_NXZ 1004ce30 f i libucrtd:output.obj
 0001:0004bed0       ?advance_to_next_pass@?$positional_parameter_base@_WV?$string_output_adapter@_W@__crt_stdio_output@@@__crt_stdio_output@@IAE_NXZ 1004ced0 f i libucrtd:output.obj
 0001:0004bf70       ?advance_to_next_pass@?$standard_base@DV?$stream_output_adapter@D@__crt_stdio_output@@@__crt_stdio_output@@IAE_NXZ 1004cf70 f i libucrtd:output.obj
 0001:0004bfc0       ?advance_to_next_pass@?$standard_base@DV?$string_output_adapter@D@__crt_stdio_output@@@__crt_stdio_output@@IAE_NXZ 1004cfc0 f i libucrtd:output.obj
 0001:0004c010       ?advance_to_next_pass@?$standard_base@_WV?$stream_output_adapter@_W@__crt_stdio_output@@@__crt_stdio_output@@IAE_NXZ 1004d010 f i libucrtd:output.obj
 0001:0004c060       ?advance_to_next_pass@?$standard_base@_WV?$string_output_adapter@_W@__crt_stdio_output@@@__crt_stdio_output@@IAE_NXZ 1004d060 f i libucrtd:output.obj
 0001:0004c0b0       ?crop_zeroes@__crt_stdio_output@@YAXPADQAU__crt_locale_pointers@@@Z 1004d0b0 f i libucrtd:output.obj
 0001:0004c1b0       ?find_next_state@?$output_processor@DV?$stream_output_adapter@D@__crt_stdio_output@@V?$format_validation_base@DV?$stream_output_adapter@D@__crt_stdio_output@@@2@@__crt_stdio_output@@ABE?AW4state@2@DW432@@Z 1004d1b0 f i libucrtd:output.obj
 0001:0004c230       ?find_next_state@?$output_processor@DV?$stream_output_adapter@D@__crt_stdio_output@@V?$positional_parameter_base@DV?$stream_output_adapter@D@__crt_stdio_output@@@2@@__crt_stdio_output@@ABE?AW4state@2@DW432@@Z 1004d230 f i libucrtd:output.obj
 0001:0004c2b0       ?find_next_state@?$output_processor@DV?$stream_output_adapter@D@__crt_stdio_output@@V?$standard_base@DV?$stream_output_adapter@D@__crt_stdio_output@@@2@@__crt_stdio_output@@ABE?AW4state@2@DW432@@Z 1004d2b0 f i libucrtd:output.obj
 0001:0004c330       ?find_next_state@?$output_processor@DV?$string_output_adapter@D@__crt_stdio_output@@V?$format_validation_base@DV?$string_output_adapter@D@__crt_stdio_output@@@2@@__crt_stdio_output@@ABE?AW4state@2@DW432@@Z 1004d330 f i libucrtd:output.obj
 0001:0004c3b0       ?find_next_state@?$output_processor@DV?$string_output_adapter@D@__crt_stdio_output@@V?$positional_parameter_base@DV?$string_output_adapter@D@__crt_stdio_output@@@2@@__crt_stdio_output@@ABE?AW4state@2@DW432@@Z 1004d3b0 f i libucrtd:output.obj
 0001:0004c430       ?find_next_state@?$output_processor@DV?$string_output_adapter@D@__crt_stdio_output@@V?$standard_base@DV?$string_output_adapter@D@__crt_stdio_output@@@2@@__crt_stdio_output@@ABE?AW4state@2@DW432@@Z 1004d430 f i libucrtd:output.obj
 0001:0004c4b0       ?find_next_state@?$output_processor@_WV?$stream_output_adapter@_W@__crt_stdio_output@@V?$format_validation_base@_WV?$stream_output_adapter@_W@__crt_stdio_output@@@2@@__crt_stdio_output@@ABE?AW4state@2@_WW432@@Z 1004d4b0 f i libucrtd:output.obj
 0001:0004c530       ?find_next_state@?$output_processor@_WV?$stream_output_adapter@_W@__crt_stdio_output@@V?$positional_parameter_base@_WV?$stream_output_adapter@_W@__crt_stdio_output@@@2@@__crt_stdio_output@@ABE?AW4state@2@_WW432@@Z 1004d530 f i libucrtd:output.obj
 0001:0004c5b0       ?find_next_state@?$output_processor@_WV?$stream_output_adapter@_W@__crt_stdio_output@@V?$standard_base@_WV?$stream_output_adapter@_W@__crt_stdio_output@@@2@@__crt_stdio_output@@ABE?AW4state@2@_WW432@@Z 1004d5b0 f i libucrtd:output.obj
 0001:0004c630       ?find_next_state@?$output_processor@_WV?$string_output_adapter@_W@__crt_stdio_output@@V?$format_validation_base@_WV?$string_output_adapter@_W@__crt_stdio_output@@@2@@__crt_stdio_output@@ABE?AW4state@2@_WW432@@Z 1004d630 f i libucrtd:output.obj
 0001:0004c6b0       ?find_next_state@?$output_processor@_WV?$string_output_adapter@_W@__crt_stdio_output@@V?$positional_parameter_base@_WV?$string_output_adapter@_W@__crt_stdio_output@@@2@@__crt_stdio_output@@ABE?AW4state@2@_WW432@@Z 1004d6b0 f i libucrtd:output.obj
 0001:0004c730       ?find_next_state@?$output_processor@_WV?$string_output_adapter@_W@__crt_stdio_output@@V?$standard_base@_WV?$string_output_adapter@_W@__crt_stdio_output@@@2@@__crt_stdio_output@@ABE?AW4state@2@_WW432@@Z 1004d730 f i libucrtd:output.obj
 0001:0004c7b0       ?force_decimal_point@__crt_stdio_output@@YAXPADQAU__crt_locale_pointers@@@Z 1004d7b0 f i libucrtd:output.obj
 0001:0004c880       ?get@__crt_deferred_errno_cache@@QAEAAHXZ 1004d880 f i libucrtd:output.obj
 0001:0004c8b0       ?get_flags@__crt_stdio_stream@@QBEJXZ 1004d8b0 f i libucrtd:output.obj
 0001:0004c8d0       ?get_parameter_type@?$positional_parameter_base@DV?$stream_output_adapter@D@__crt_stdio_output@@@__crt_stdio_output@@CA?AW4parameter_type@12@F@Z 1004d8d0 f i libucrtd:output.obj
 0001:0004c8e0       ?get_parameter_type@?$positional_parameter_base@DV?$stream_output_adapter@D@__crt_stdio_output@@@__crt_stdio_output@@CA?AW4parameter_type@12@G@Z 1004d8e0 f i libucrtd:output.obj
 0001:0004c8f0       ?get_parameter_type@?$positional_parameter_base@DV?$stream_output_adapter@D@__crt_stdio_output@@@__crt_stdio_output@@CA?AW4parameter_type@12@H@Z 1004d8f0 f i libucrtd:output.obj
 0001:0004c900       ?get_parameter_type@?$positional_parameter_base@DV?$stream_output_adapter@D@__crt_stdio_output@@@__crt_stdio_output@@CA?AW4parameter_type@12@I@Z 1004d900 f i libucrtd:output.obj
 0001:0004c910       ?get_parameter_type@?$positional_parameter_base@DV?$stream_output_adapter@D@__crt_stdio_output@@@__crt_stdio_output@@CA?AW4parameter_type@12@U_CRT_DOUBLE@@@Z 1004d910 f i libucrtd:output.obj
 0001:0004c920       ?get_parameter_type@?$positional_parameter_base@DV?$stream_output_adapter@D@__crt_stdio_output@@@__crt_stdio_output@@CA?AW4parameter_type@12@_J@Z 1004d920 f i libucrtd:output.obj
 0001:0004c930       ?get_parameter_type@?$positional_parameter_base@DV?$stream_output_adapter@D@__crt_stdio_output@@@__crt_stdio_output@@CA?AW4parameter_type@12@_K@Z 1004d930 f i libucrtd:output.obj
 0001:0004c940       ?get_parameter_type@?$positional_parameter_base@DV?$stream_output_adapter@D@__crt_stdio_output@@@__crt_stdio_output@@CA?AW4parameter_type@12@_W@Z 1004d940 f i libucrtd:output.obj
 0001:0004c950       ?get_parameter_type@?$positional_parameter_base@DV?$string_output_adapter@D@__crt_stdio_output@@@__crt_stdio_output@@CA?AW4parameter_type@12@F@Z 1004d950 f i libucrtd:output.obj
 0001:0004c960       ?get_parameter_type@?$positional_parameter_base@DV?$string_output_adapter@D@__crt_stdio_output@@@__crt_stdio_output@@CA?AW4parameter_type@12@G@Z 1004d960 f i libucrtd:output.obj
 0001:0004c970       ?get_parameter_type@?$positional_parameter_base@DV?$string_output_adapter@D@__crt_stdio_output@@@__crt_stdio_output@@CA?AW4parameter_type@12@H@Z 1004d970 f i libucrtd:output.obj
 0001:0004c980       ?get_parameter_type@?$positional_parameter_base@DV?$string_output_adapter@D@__crt_stdio_output@@@__crt_stdio_output@@CA?AW4parameter_type@12@I@Z 1004d980 f i libucrtd:output.obj
 0001:0004c990       ?get_parameter_type@?$positional_parameter_base@DV?$string_output_adapter@D@__crt_stdio_output@@@__crt_stdio_output@@CA?AW4parameter_type@12@U_CRT_DOUBLE@@@Z 1004d990 f i libucrtd:output.obj
 0001:0004c9a0       ?get_parameter_type@?$positional_parameter_base@DV?$string_output_adapter@D@__crt_stdio_output@@@__crt_stdio_output@@CA?AW4parameter_type@12@_J@Z 1004d9a0 f i libucrtd:output.obj
 0001:0004c9b0       ?get_parameter_type@?$positional_parameter_base@DV?$string_output_adapter@D@__crt_stdio_output@@@__crt_stdio_output@@CA?AW4parameter_type@12@_K@Z 1004d9b0 f i libucrtd:output.obj
 0001:0004c9c0       ?get_parameter_type@?$positional_parameter_base@DV?$string_output_adapter@D@__crt_stdio_output@@@__crt_stdio_output@@CA?AW4parameter_type@12@_W@Z 1004d9c0 f i libucrtd:output.obj
 0001:0004c9d0       ?get_parameter_type@?$positional_parameter_base@_WV?$stream_output_adapter@_W@__crt_stdio_output@@@__crt_stdio_output@@CA?AW4parameter_type@12@F@Z 1004d9d0 f i libucrtd:output.obj
 0001:0004c9e0       ?get_parameter_type@?$positional_parameter_base@_WV?$stream_output_adapter@_W@__crt_stdio_output@@@__crt_stdio_output@@CA?AW4parameter_type@12@G@Z 1004d9e0 f i libucrtd:output.obj
 0001:0004c9f0       ?get_parameter_type@?$positional_parameter_base@_WV?$stream_output_adapter@_W@__crt_stdio_output@@@__crt_stdio_output@@CA?AW4parameter_type@12@H@Z 1004d9f0 f i libucrtd:output.obj
 0001:0004ca00       ?get_parameter_type@?$positional_parameter_base@_WV?$stream_output_adapter@_W@__crt_stdio_output@@@__crt_stdio_output@@CA?AW4parameter_type@12@I@Z 1004da00 f i libucrtd:output.obj
 0001:0004ca10       ?get_parameter_type@?$positional_parameter_base@_WV?$stream_output_adapter@_W@__crt_stdio_output@@@__crt_stdio_output@@CA?AW4parameter_type@12@U_CRT_DOUBLE@@@Z 1004da10 f i libucrtd:output.obj
 0001:0004ca20       ?get_parameter_type@?$positional_parameter_base@_WV?$stream_output_adapter@_W@__crt_stdio_output@@@__crt_stdio_output@@CA?AW4parameter_type@12@_J@Z 1004da20 f i libucrtd:output.obj
 0001:0004ca30       ?get_parameter_type@?$positional_parameter_base@_WV?$stream_output_adapter@_W@__crt_stdio_output@@@__crt_stdio_output@@CA?AW4parameter_type@12@_K@Z 1004da30 f i libucrtd:output.obj
 0001:0004ca40       ?get_parameter_type@?$positional_parameter_base@_WV?$stream_output_adapter@_W@__crt_stdio_output@@@__crt_stdio_output@@CA?AW4parameter_type@12@_W@Z 1004da40 f i libucrtd:output.obj
 0001:0004ca50       ?get_parameter_type@?$positional_parameter_base@_WV?$string_output_adapter@_W@__crt_stdio_output@@@__crt_stdio_output@@CA?AW4parameter_type@12@F@Z 1004da50 f i libucrtd:output.obj
 0001:0004ca60       ?get_parameter_type@?$positional_parameter_base@_WV?$string_output_adapter@_W@__crt_stdio_output@@@__crt_stdio_output@@CA?AW4parameter_type@12@G@Z 1004da60 f i libucrtd:output.obj
 0001:0004ca70       ?get_parameter_type@?$positional_parameter_base@_WV?$string_output_adapter@_W@__crt_stdio_output@@@__crt_stdio_output@@CA?AW4parameter_type@12@H@Z 1004da70 f i libucrtd:output.obj
 0001:0004ca80       ?get_parameter_type@?$positional_parameter_base@_WV?$string_output_adapter@_W@__crt_stdio_output@@@__crt_stdio_output@@CA?AW4parameter_type@12@I@Z 1004da80 f i libucrtd:output.obj
 0001:0004ca90       ?get_parameter_type@?$positional_parameter_base@_WV?$string_output_adapter@_W@__crt_stdio_output@@@__crt_stdio_output@@CA?AW4parameter_type@12@U_CRT_DOUBLE@@@Z 1004da90 f i libucrtd:output.obj
 0001:0004caa0       ?get_parameter_type@?$positional_parameter_base@_WV?$string_output_adapter@_W@__crt_stdio_output@@@__crt_stdio_output@@CA?AW4parameter_type@12@_J@Z 1004daa0 f i libucrtd:output.obj
 0001:0004cab0       ?get_parameter_type@?$positional_parameter_base@_WV?$string_output_adapter@_W@__crt_stdio_output@@@__crt_stdio_output@@CA?AW4parameter_type@12@_K@Z 1004dab0 f i libucrtd:output.obj
 0001:0004cac0       ?get_parameter_type@?$positional_parameter_base@_WV?$string_output_adapter@_W@__crt_stdio_output@@@__crt_stdio_output@@CA?AW4parameter_type@12@_W@Z 1004dac0 f i libucrtd:output.obj
 0001:0004cad0       ?has_flag@?$output_processor@DV?$stream_output_adapter@D@__crt_stdio_output@@V?$format_validation_base@DV?$stream_output_adapter@D@__crt_stdio_output@@@2@@__crt_stdio_output@@ABE_NI@Z 1004dad0 f i libucrtd:output.obj
 0001:0004cb00       ?has_flag@?$output_processor@DV?$stream_output_adapter@D@__crt_stdio_output@@V?$positional_parameter_base@DV?$stream_output_adapter@D@__crt_stdio_output@@@2@@__crt_stdio_output@@ABE_NI@Z 1004db00 f i libucrtd:output.obj
 0001:0004cb30       ?has_flag@?$output_processor@DV?$stream_output_adapter@D@__crt_stdio_output@@V?$standard_base@DV?$stream_output_adapter@D@__crt_stdio_output@@@2@@__crt_stdio_output@@ABE_NI@Z 1004db30 f i libucrtd:output.obj
 0001:0004cb60       ?has_flag@?$output_processor@DV?$string_output_adapter@D@__crt_stdio_output@@V?$format_validation_base@DV?$string_output_adapter@D@__crt_stdio_output@@@2@@__crt_stdio_output@@ABE_NI@Z 1004db60 f i libucrtd:output.obj
 0001:0004cb90       ?has_flag@?$output_processor@DV?$string_output_adapter@D@__crt_stdio_output@@V?$positional_parameter_base@DV?$string_output_adapter@D@__crt_stdio_output@@@2@@__crt_stdio_output@@ABE_NI@Z 1004db90 f i libucrtd:output.obj
 0001:0004cbc0       ?has_flag@?$output_processor@DV?$string_output_adapter@D@__crt_stdio_output@@V?$standard_base@DV?$string_output_adapter@D@__crt_stdio_output@@@2@@__crt_stdio_output@@ABE_NI@Z 1004dbc0 f i libucrtd:output.obj
 0001:0004cbf0       ?has_flag@?$output_processor@_WV?$stream_output_adapter@_W@__crt_stdio_output@@V?$format_validation_base@_WV?$stream_output_adapter@_W@__crt_stdio_output@@@2@@__crt_stdio_output@@ABE_NI@Z 1004dbf0 f i libucrtd:output.obj
 0001:0004cc20       ?has_flag@?$output_processor@_WV?$stream_output_adapter@_W@__crt_stdio_output@@V?$positional_parameter_base@_WV?$stream_output_adapter@_W@__crt_stdio_output@@@2@@__crt_stdio_output@@ABE_NI@Z 1004dc20 f i libucrtd:output.obj
 0001:0004cc50       ?has_flag@?$output_processor@_WV?$stream_output_adapter@_W@__crt_stdio_output@@V?$standard_base@_WV?$stream_output_adapter@_W@__crt_stdio_output@@@2@@__crt_stdio_output@@ABE_NI@Z 1004dc50 f i libucrtd:output.obj
 0001:0004cc80       ?has_flag@?$output_processor@_WV?$string_output_adapter@_W@__crt_stdio_output@@V?$format_validation_base@_WV?$string_output_adapter@_W@__crt_stdio_output@@@2@@__crt_stdio_output@@ABE_NI@Z 1004dc80 f i libucrtd:output.obj
 0001:0004ccb0       ?has_flag@?$output_processor@_WV?$string_output_adapter@_W@__crt_stdio_output@@V?$positional_parameter_base@_WV?$string_output_adapter@_W@__crt_stdio_output@@@2@@__crt_stdio_output@@ABE_NI@Z 1004dcb0 f i libucrtd:output.obj
 0001:0004cce0       ?has_flag@?$output_processor@_WV?$string_output_adapter@_W@__crt_stdio_output@@V?$standard_base@_WV?$string_output_adapter@_W@__crt_stdio_output@@@2@@__crt_stdio_output@@ABE_NI@Z 1004dce0 f i libucrtd:output.obj
 0001:0004cd10       ?is_positional_parameter_reappearance_consistent@?$positional_parameter_base@DV?$stream_output_adapter@D@__crt_stdio_output@@@__crt_stdio_output@@AAE_NABUparameter_data@12@W4parameter_type@12@DW4length_modifier@2@@Z 1004dd10 f i libucrtd:output.obj
 0001:0004cf40       ?is_positional_parameter_reappearance_consistent@?$positional_parameter_base@DV?$string_output_adapter@D@__crt_stdio_output@@@__crt_stdio_output@@AAE_NABUparameter_data@12@W4parameter_type@12@DW4length_modifier@2@@Z 1004df40 f i libucrtd:output.obj
 0001:0004d170       ?is_positional_parameter_reappearance_consistent@?$positional_parameter_base@_WV?$stream_output_adapter@_W@__crt_stdio_output@@@__crt_stdio_output@@AAE_NABUparameter_data@12@W4parameter_type@12@_WW4length_modifier@2@@Z 1004e170 f i libucrtd:output.obj
 0001:0004d3a0       ?is_positional_parameter_reappearance_consistent@?$positional_parameter_base@_WV?$string_output_adapter@_W@__crt_stdio_output@@@__crt_stdio_output@@AAE_NABUparameter_data@12@W4parameter_type@12@_WW4length_modifier@2@@Z 1004e3a0 f i libucrtd:output.obj
 0001:0004d5d0       ?is_string_backed@__crt_stdio_stream@@QBE_NXZ 1004e5d0 f i libucrtd:output.obj
 0001:0004d610       ?narrow_null_string@?$output_processor@DV?$stream_output_adapter@D@__crt_stdio_output@@V?$format_validation_base@DV?$stream_output_adapter@D@__crt_stdio_output@@@2@@__crt_stdio_output@@CAPADXZ 1004e610 f i libucrtd:output.obj
 0001:0004d620       ?narrow_null_string@?$output_processor@DV?$stream_output_adapter@D@__crt_stdio_output@@V?$positional_parameter_base@DV?$stream_output_adapter@D@__crt_stdio_output@@@2@@__crt_stdio_output@@CAPADXZ 1004e620 f i libucrtd:output.obj
 0001:0004d630       ?narrow_null_string@?$output_processor@DV?$stream_output_adapter@D@__crt_stdio_output@@V?$standard_base@DV?$stream_output_adapter@D@__crt_stdio_output@@@2@@__crt_stdio_output@@CAPADXZ 1004e630 f i libucrtd:output.obj
 0001:0004d640       ?narrow_null_string@?$output_processor@DV?$string_output_adapter@D@__crt_stdio_output@@V?$format_validation_base@DV?$string_output_adapter@D@__crt_stdio_output@@@2@@__crt_stdio_output@@CAPADXZ 1004e640 f i libucrtd:output.obj
 0001:0004d650       ?narrow_null_string@?$output_processor@DV?$string_output_adapter@D@__crt_stdio_output@@V?$positional_parameter_base@DV?$string_output_adapter@D@__crt_stdio_output@@@2@@__crt_stdio_output@@CAPADXZ 1004e650 f i libucrtd:output.obj
 0001:0004d660       ?narrow_null_string@?$output_processor@DV?$string_output_adapter@D@__crt_stdio_output@@V?$standard_base@DV?$string_output_adapter@D@__crt_stdio_output@@@2@@__crt_stdio_output@@CAPADXZ 1004e660 f i libucrtd:output.obj
 0001:0004d670       ?narrow_null_string@?$output_processor@_WV?$stream_output_adapter@_W@__crt_stdio_output@@V?$format_validation_base@_WV?$stream_output_adapter@_W@__crt_stdio_output@@@2@@__crt_stdio_output@@CAPADXZ 1004e670 f i libucrtd:output.obj
 0001:0004d680       ?narrow_null_string@?$output_processor@_WV?$stream_output_adapter@_W@__crt_stdio_output@@V?$positional_parameter_base@_WV?$stream_output_adapter@_W@__crt_stdio_output@@@2@@__crt_stdio_output@@CAPADXZ 1004e680 f i libucrtd:output.obj
 0001:0004d690       ?narrow_null_string@?$output_processor@_WV?$stream_output_adapter@_W@__crt_stdio_output@@V?$standard_base@_WV?$stream_output_adapter@_W@__crt_stdio_output@@@2@@__crt_stdio_output@@CAPADXZ 1004e690 f i libucrtd:output.obj
 0001:0004d6a0       ?narrow_null_string@?$output_processor@_WV?$string_output_adapter@_W@__crt_stdio_output@@V?$format_validation_base@_WV?$string_output_adapter@_W@__crt_stdio_output@@@2@@__crt_stdio_output@@CAPADXZ 1004e6a0 f i libucrtd:output.obj
 0001:0004d6b0       ?narrow_null_string@?$output_processor@_WV?$string_output_adapter@_W@__crt_stdio_output@@V?$positional_parameter_base@_WV?$string_output_adapter@_W@__crt_stdio_output@@@2@@__crt_stdio_output@@CAPADXZ 1004e6b0 f i libucrtd:output.obj
 0001:0004d6c0       ?narrow_null_string@?$output_processor@_WV?$string_output_adapter@_W@__crt_stdio_output@@V?$standard_base@_WV?$string_output_adapter@_W@__crt_stdio_output@@@2@@__crt_stdio_output@@CAPADXZ 1004e6c0 f i libucrtd:output.obj
 0001:0004d6d0       ?parse_int_from_format_string@?$output_processor@DV?$stream_output_adapter@D@__crt_stdio_output@@V?$format_validation_base@DV?$stream_output_adapter@D@__crt_stdio_output@@@2@@__crt_stdio_output@@AAE_NQAH@Z 1004e6d0 f i libucrtd:output.obj
 0001:0004d790       ?parse_int_from_format_string@?$output_processor@DV?$stream_output_adapter@D@__crt_stdio_output@@V?$positional_parameter_base@DV?$stream_output_adapter@D@__crt_stdio_output@@@2@@__crt_stdio_output@@AAE_NQAH@Z 1004e790 f i libucrtd:output.obj
 0001:0004d850       ?parse_int_from_format_string@?$output_processor@DV?$stream_output_adapter@D@__crt_stdio_output@@V?$standard_base@DV?$stream_output_adapter@D@__crt_stdio_output@@@2@@__crt_stdio_output@@AAE_NQAH@Z 1004e850 f i libucrtd:output.obj
 0001:0004d910       ?parse_int_from_format_string@?$output_processor@DV?$string_output_adapter@D@__crt_stdio_output@@V?$format_validation_base@DV?$string_output_adapter@D@__crt_stdio_output@@@2@@__crt_stdio_output@@AAE_NQAH@Z 1004e910 f i libucrtd:output.obj
 0001:0004d9d0       ?parse_int_from_format_string@?$output_processor@DV?$string_output_adapter@D@__crt_stdio_output@@V?$positional_parameter_base@DV?$string_output_adapter@D@__crt_stdio_output@@@2@@__crt_stdio_output@@AAE_NQAH@Z 1004e9d0 f i libucrtd:output.obj
 0001:0004da90       ?parse_int_from_format_string@?$output_processor@DV?$string_output_adapter@D@__crt_stdio_output@@V?$standard_base@DV?$string_output_adapter@D@__crt_stdio_output@@@2@@__crt_stdio_output@@AAE_NQAH@Z 1004ea90 f i libucrtd:output.obj
 0001:0004db50       ?parse_int_from_format_string@?$output_processor@_WV?$stream_output_adapter@_W@__crt_stdio_output@@V?$format_validation_base@_WV?$stream_output_adapter@_W@__crt_stdio_output@@@2@@__crt_stdio_output@@AAE_NQAH@Z 1004eb50 f i libucrtd:output.obj
 0001:0004dc10       ?parse_int_from_format_string@?$output_processor@_WV?$stream_output_adapter@_W@__crt_stdio_output@@V?$positional_parameter_base@_WV?$stream_output_adapter@_W@__crt_stdio_output@@@2@@__crt_stdio_output@@AAE_NQAH@Z 1004ec10 f i libucrtd:output.obj
 0001:0004dcd0       ?parse_int_from_format_string@?$output_processor@_WV?$stream_output_adapter@_W@__crt_stdio_output@@V?$standard_base@_WV?$stream_output_adapter@_W@__crt_stdio_output@@@2@@__crt_stdio_output@@AAE_NQAH@Z 1004ecd0 f i libucrtd:output.obj
 0001:0004dd90       ?parse_int_from_format_string@?$output_processor@_WV?$string_output_adapter@_W@__crt_stdio_output@@V?$format_validation_base@_WV?$string_output_adapter@_W@__crt_stdio_output@@@2@@__crt_stdio_output@@AAE_NQAH@Z 1004ed90 f i libucrtd:output.obj
 0001:0004de50       ?parse_int_from_format_string@?$output_processor@_WV?$string_output_adapter@_W@__crt_stdio_output@@V?$positional_parameter_base@_WV?$string_output_adapter@_W@__crt_stdio_output@@@2@@__crt_stdio_output@@AAE_NQAH@Z 1004ee50 f i libucrtd:output.obj
 0001:0004df10       ?parse_int_from_format_string@?$output_processor@_WV?$string_output_adapter@_W@__crt_stdio_output@@V?$standard_base@_WV?$string_output_adapter@_W@__crt_stdio_output@@@2@@__crt_stdio_output@@AAE_NQAH@Z 1004ef10 f i libucrtd:output.obj
 0001:0004dfd0       ?process@?$output_processor@DV?$stream_output_adapter@D@__crt_stdio_output@@V?$format_validation_base@DV?$stream_output_adapter@D@__crt_stdio_output@@@2@@__crt_stdio_output@@QAEHXZ 1004efd0 f i libucrtd:output.obj
 0001:0004e280       ?process@?$output_processor@DV?$stream_output_adapter@D@__crt_stdio_output@@V?$positional_parameter_base@DV?$stream_output_adapter@D@__crt_stdio_output@@@2@@__crt_stdio_output@@QAEHXZ 1004f280 f i libucrtd:output.obj
 0001:0004e530       ?process@?$output_processor@DV?$stream_output_adapter@D@__crt_stdio_output@@V?$standard_base@DV?$stream_output_adapter@D@__crt_stdio_output@@@2@@__crt_stdio_output@@QAEHXZ 1004f530 f i libucrtd:output.obj
 0001:0004e7e0       ?process@?$output_processor@DV?$string_output_adapter@D@__crt_stdio_output@@V?$format_validation_base@DV?$string_output_adapter@D@__crt_stdio_output@@@2@@__crt_stdio_output@@QAEHXZ 1004f7e0 f i libucrtd:output.obj
 0001:0004ea90       ?process@?$output_processor@DV?$string_output_adapter@D@__crt_stdio_output@@V?$positional_parameter_base@DV?$string_output_adapter@D@__crt_stdio_output@@@2@@__crt_stdio_output@@QAEHXZ 1004fa90 f i libucrtd:output.obj
 0001:0004ed40       ?process@?$output_processor@DV?$string_output_adapter@D@__crt_stdio_output@@V?$standard_base@DV?$string_output_adapter@D@__crt_stdio_output@@@2@@__crt_stdio_output@@QAEHXZ 1004fd40 f i libucrtd:output.obj
 0001:0004eff0       ?process@?$output_processor@_WV?$stream_output_adapter@_W@__crt_stdio_output@@V?$format_validation_base@_WV?$stream_output_adapter@_W@__crt_stdio_output@@@2@@__crt_stdio_output@@QAEHXZ 1004fff0 f i libucrtd:output.obj
 0001:0004f2a0       ?process@?$output_processor@_WV?$stream_output_adapter@_W@__crt_stdio_output@@V?$positional_parameter_base@_WV?$stream_output_adapter@_W@__crt_stdio_output@@@2@@__crt_stdio_output@@QAEHXZ 100502a0 f i libucrtd:output.obj
 0001:0004f550       ?process@?$output_processor@_WV?$stream_output_adapter@_W@__crt_stdio_output@@V?$standard_base@_WV?$stream_output_adapter@_W@__crt_stdio_output@@@2@@__crt_stdio_output@@QAEHXZ 10050550 f i libucrtd:output.obj
 0001:0004f800       ?process@?$output_processor@_WV?$string_output_adapter@_W@__crt_stdio_output@@V?$format_validation_base@_WV?$string_output_adapter@_W@__crt_stdio_output@@@2@@__crt_stdio_output@@QAEHXZ 10050800 f i libucrtd:output.obj
 0001:0004fab0       ?process@?$output_processor@_WV?$string_output_adapter@_W@__crt_stdio_output@@V?$positional_parameter_base@_WV?$string_output_adapter@_W@__crt_stdio_output@@@2@@__crt_stdio_output@@QAEHXZ 10050ab0 f i libucrtd:output.obj
 0001:0004fd60       ?process@?$output_processor@_WV?$string_output_adapter@_W@__crt_stdio_output@@V?$standard_base@_WV?$string_output_adapter@_W@__crt_stdio_output@@@2@@__crt_stdio_output@@QAEHXZ 10050d60 f i libucrtd:output.obj
 0001:00050010       ?public_stream@__crt_stdio_stream@@QBEPAU_iobuf@@XZ 10051010 f i libucrtd:output.obj
 0001:00050030       ?set_flag@?$output_processor@DV?$stream_output_adapter@D@__crt_stdio_output@@V?$format_validation_base@DV?$stream_output_adapter@D@__crt_stdio_output@@@2@@__crt_stdio_output@@AAEXI@Z 10051030 f i libucrtd:output.obj
 0001:00050050       ?set_flag@?$output_processor@DV?$stream_output_adapter@D@__crt_stdio_output@@V?$positional_parameter_base@DV?$stream_output_adapter@D@__crt_stdio_output@@@2@@__crt_stdio_output@@AAEXI@Z 10051050 f i libucrtd:output.obj
 0001:00050070       ?set_flag@?$output_processor@DV?$stream_output_adapter@D@__crt_stdio_output@@V?$standard_base@DV?$stream_output_adapter@D@__crt_stdio_output@@@2@@__crt_stdio_output@@AAEXI@Z 10051070 f i libucrtd:output.obj
 0001:00050090       ?set_flag@?$output_processor@DV?$string_output_adapter@D@__crt_stdio_output@@V?$format_validation_base@DV?$string_output_adapter@D@__crt_stdio_output@@@2@@__crt_stdio_output@@AAEXI@Z 10051090 f i libucrtd:output.obj
 0001:000500b0       ?set_flag@?$output_processor@DV?$string_output_adapter@D@__crt_stdio_output@@V?$positional_parameter_base@DV?$string_output_adapter@D@__crt_stdio_output@@@2@@__crt_stdio_output@@AAEXI@Z 100510b0 f i libucrtd:output.obj
 0001:000500d0       ?set_flag@?$output_processor@DV?$string_output_adapter@D@__crt_stdio_output@@V?$standard_base@DV?$string_output_adapter@D@__crt_stdio_output@@@2@@__crt_stdio_output@@AAEXI@Z 100510d0 f i libucrtd:output.obj
 0001:000500f0       ?set_flag@?$output_processor@_WV?$stream_output_adapter@_W@__crt_stdio_output@@V?$format_validation_base@_WV?$stream_output_adapter@_W@__crt_stdio_output@@@2@@__crt_stdio_output@@AAEXI@Z 100510f0 f i libucrtd:output.obj
 0001:00050110       ?set_flag@?$output_processor@_WV?$stream_output_adapter@_W@__crt_stdio_output@@V?$positional_parameter_base@_WV?$stream_output_adapter@_W@__crt_stdio_output@@@2@@__crt_stdio_output@@AAEXI@Z 10051110 f i libucrtd:output.obj
 0001:00050130       ?set_flag@?$output_processor@_WV?$stream_output_adapter@_W@__crt_stdio_output@@V?$standard_base@_WV?$stream_output_adapter@_W@__crt_stdio_output@@@2@@__crt_stdio_output@@AAEXI@Z 10051130 f i libucrtd:output.obj
 0001:00050150       ?set_flag@?$output_processor@_WV?$string_output_adapter@_W@__crt_stdio_output@@V?$format_validation_base@_WV?$string_output_adapter@_W@__crt_stdio_output@@@2@@__crt_stdio_output@@AAEXI@Z 10051150 f i libucrtd:output.obj
 0001:00050170       ?set_flag@?$output_processor@_WV?$string_output_adapter@_W@__crt_stdio_output@@V?$positional_parameter_base@_WV?$string_output_adapter@_W@__crt_stdio_output@@@2@@__crt_stdio_output@@AAEXI@Z 10051170 f i libucrtd:output.obj
 0001:00050190       ?set_flag@?$output_processor@_WV?$string_output_adapter@_W@__crt_stdio_output@@V?$standard_base@_WV?$string_output_adapter@_W@__crt_stdio_output@@@2@@__crt_stdio_output@@AAEXI@Z 10051190 f i libucrtd:output.obj
 0001:000501b0       ?should_format@?$positional_parameter_base@DV?$stream_output_adapter@D@__crt_stdio_output@@@__crt_stdio_output@@IAE_NXZ 100511b0 f i libucrtd:output.obj
 0001:000501f0       ?should_format@?$positional_parameter_base@DV?$string_output_adapter@D@__crt_stdio_output@@@__crt_stdio_output@@IAE_NXZ 100511f0 f i libucrtd:output.obj
 0001:00050230       ?should_format@?$positional_parameter_base@_WV?$stream_output_adapter@_W@__crt_stdio_output@@@__crt_stdio_output@@IAE_NXZ 10051230 f i libucrtd:output.obj
 0001:00050270       ?should_format@?$positional_parameter_base@_WV?$string_output_adapter@_W@__crt_stdio_output@@@__crt_stdio_output@@IAE_NXZ 10051270 f i libucrtd:output.obj
 0001:000502b0       ?should_format@?$standard_base@DV?$stream_output_adapter@D@__crt_stdio_output@@@__crt_stdio_output@@IAE_NXZ 100512b0 f i libucrtd:output.obj
 0001:000502c0       ?should_format@?$standard_base@DV?$string_output_adapter@D@__crt_stdio_output@@@__crt_stdio_output@@IAE_NXZ 100512c0 f i libucrtd:output.obj
 0001:000502d0       ?should_format@?$standard_base@_WV?$stream_output_adapter@_W@__crt_stdio_output@@@__crt_stdio_output@@IAE_NXZ 100512d0 f i libucrtd:output.obj
 0001:000502e0       ?should_format@?$standard_base@_WV?$string_output_adapter@_W@__crt_stdio_output@@@__crt_stdio_output@@IAE_NXZ 100512e0 f i libucrtd:output.obj
 0001:000502f0       ?should_skip_normal_state_processing@?$positional_parameter_base@DV?$stream_output_adapter@D@__crt_stdio_output@@@__crt_stdio_output@@IAE_NXZ 100512f0 f i libucrtd:output.obj
 0001:00050340       ?should_skip_normal_state_processing@?$positional_parameter_base@DV?$string_output_adapter@D@__crt_stdio_output@@@__crt_stdio_output@@IAE_NXZ 10051340 f i libucrtd:output.obj
 0001:00050390       ?should_skip_normal_state_processing@?$positional_parameter_base@_WV?$stream_output_adapter@_W@__crt_stdio_output@@@__crt_stdio_output@@IAE_NXZ 10051390 f i libucrtd:output.obj
 0001:000503e0       ?should_skip_normal_state_processing@?$positional_parameter_base@_WV?$string_output_adapter@_W@__crt_stdio_output@@@__crt_stdio_output@@IAE_NXZ 100513e0 f i libucrtd:output.obj
 0001:00050430       ?should_skip_normal_state_processing@?$standard_base@DV?$stream_output_adapter@D@__crt_stdio_output@@@__crt_stdio_output@@IAE_NXZ 10051430 f i libucrtd:output.obj
 0001:00050440       ?should_skip_normal_state_processing@?$standard_base@DV?$string_output_adapter@D@__crt_stdio_output@@@__crt_stdio_output@@IAE_NXZ 10051440 f i libucrtd:output.obj
 0001:00050450       ?should_skip_normal_state_processing@?$standard_base@_WV?$stream_output_adapter@_W@__crt_stdio_output@@@__crt_stdio_output@@IAE_NXZ 10051450 f i libucrtd:output.obj
 0001:00050460       ?should_skip_normal_state_processing@?$standard_base@_WV?$string_output_adapter@_W@__crt_stdio_output@@@__crt_stdio_output@@IAE_NXZ 10051460 f i libucrtd:output.obj
 0001:00050470       ?should_skip_type_state_output@?$positional_parameter_base@DV?$stream_output_adapter@D@__crt_stdio_output@@@__crt_stdio_output@@IBE_NXZ 10051470 f i libucrtd:output.obj
 0001:000504b0       ?should_skip_type_state_output@?$positional_parameter_base@DV?$string_output_adapter@D@__crt_stdio_output@@@__crt_stdio_output@@IBE_NXZ 100514b0 f i libucrtd:output.obj
 0001:000504f0       ?should_skip_type_state_output@?$positional_parameter_base@_WV?$stream_output_adapter@_W@__crt_stdio_output@@@__crt_stdio_output@@IBE_NXZ 100514f0 f i libucrtd:output.obj
 0001:00050530       ?should_skip_type_state_output@?$positional_parameter_base@_WV?$string_output_adapter@_W@__crt_stdio_output@@@__crt_stdio_output@@IBE_NXZ 10051530 f i libucrtd:output.obj
 0001:00050570       ?should_skip_type_state_output@?$standard_base@DV?$stream_output_adapter@D@__crt_stdio_output@@@__crt_stdio_output@@IBE_NXZ 10051570 f i libucrtd:output.obj
 0001:00050580       ?should_skip_type_state_output@?$standard_base@DV?$string_output_adapter@D@__crt_stdio_output@@@__crt_stdio_output@@IBE_NXZ 10051580 f i libucrtd:output.obj
 0001:00050590       ?should_skip_type_state_output@?$standard_base@_WV?$stream_output_adapter@_W@__crt_stdio_output@@@__crt_stdio_output@@IBE_NXZ 10051590 f i libucrtd:output.obj
 0001:000505a0       ?should_skip_type_state_output@?$standard_base@_WV?$string_output_adapter@_W@__crt_stdio_output@@@__crt_stdio_output@@IBE_NXZ 100515a0 f i libucrtd:output.obj
 0001:000505b0       ?state_case_dot@?$output_processor@DV?$stream_output_adapter@D@__crt_stdio_output@@V?$format_validation_base@DV?$stream_output_adapter@D@__crt_stdio_output@@@2@@__crt_stdio_output@@AAE_NXZ 100515b0 f i libucrtd:output.obj
 0001:000505d0       ?state_case_dot@?$output_processor@DV?$stream_output_adapter@D@__crt_stdio_output@@V?$positional_parameter_base@DV?$stream_output_adapter@D@__crt_stdio_output@@@2@@__crt_stdio_output@@AAE_NXZ 100515d0 f i libucrtd:output.obj
 0001:000505f0       ?state_case_dot@?$output_processor@DV?$stream_output_adapter@D@__crt_stdio_output@@V?$standard_base@DV?$stream_output_adapter@D@__crt_stdio_output@@@2@@__crt_stdio_output@@AAE_NXZ 100515f0 f i libucrtd:output.obj
 0001:00050610       ?state_case_dot@?$output_processor@DV?$string_output_adapter@D@__crt_stdio_output@@V?$format_validation_base@DV?$string_output_adapter@D@__crt_stdio_output@@@2@@__crt_stdio_output@@AAE_NXZ 10051610 f i libucrtd:output.obj
 0001:00050630       ?state_case_dot@?$output_processor@DV?$string_output_adapter@D@__crt_stdio_output@@V?$positional_parameter_base@DV?$string_output_adapter@D@__crt_stdio_output@@@2@@__crt_stdio_output@@AAE_NXZ 10051630 f i libucrtd:output.obj
 0001:00050650       ?state_case_dot@?$output_processor@DV?$string_output_adapter@D@__crt_stdio_output@@V?$standard_base@DV?$string_output_adapter@D@__crt_stdio_output@@@2@@__crt_stdio_output@@AAE_NXZ 10051650 f i libucrtd:output.obj
 0001:00050670       ?state_case_dot@?$output_processor@_WV?$stream_output_adapter@_W@__crt_stdio_output@@V?$format_validation_base@_WV?$stream_output_adapter@_W@__crt_stdio_output@@@2@@__crt_stdio_output@@AAE_NXZ 10051670 f i libucrtd:output.obj
 0001:00050690       ?state_case_dot@?$output_processor@_WV?$stream_output_adapter@_W@__crt_stdio_output@@V?$positional_parameter_base@_WV?$stream_output_adapter@_W@__crt_stdio_output@@@2@@__crt_stdio_output@@AAE_NXZ 10051690 f i libucrtd:output.obj
 0001:000506b0       ?state_case_dot@?$output_processor@_WV?$stream_output_adapter@_W@__crt_stdio_output@@V?$standard_base@_WV?$stream_output_adapter@_W@__crt_stdio_output@@@2@@__crt_stdio_output@@AAE_NXZ 100516b0 f i libucrtd:output.obj
 0001:000506d0       ?state_case_dot@?$output_processor@_WV?$string_output_adapter@_W@__crt_stdio_output@@V?$format_validation_base@_WV?$string_output_adapter@_W@__crt_stdio_output@@@2@@__crt_stdio_output@@AAE_NXZ 100516d0 f i libucrtd:output.obj
 0001:000506f0       ?state_case_dot@?$output_processor@_WV?$string_output_adapter@_W@__crt_stdio_output@@V?$positional_parameter_base@_WV?$string_output_adapter@_W@__crt_stdio_output@@@2@@__crt_stdio_output@@AAE_NXZ 100516f0 f i libucrtd:output.obj
 0001:00050710       ?state_case_dot@?$output_processor@_WV?$string_output_adapter@_W@__crt_stdio_output@@V?$standard_base@_WV?$string_output_adapter@_W@__crt_stdio_output@@@2@@__crt_stdio_output@@AAE_NXZ 10051710 f i libucrtd:output.obj
 0001:00050730       ?state_case_flag@?$output_processor@DV?$stream_output_adapter@D@__crt_stdio_output@@V?$format_validation_base@DV?$stream_output_adapter@D@__crt_stdio_output@@@2@@__crt_stdio_output@@AAE_NXZ 10051730 f i libucrtd:output.obj
 0001:000507e0       ?state_case_flag@?$output_processor@DV?$stream_output_adapter@D@__crt_stdio_output@@V?$positional_parameter_base@DV?$stream_output_adapter@D@__crt_stdio_output@@@2@@__crt_stdio_output@@AAE_NXZ 100517e0 f i libucrtd:output.obj
 0001:00050890       ?state_case_flag@?$output_processor@DV?$stream_output_adapter@D@__crt_stdio_output@@V?$standard_base@DV?$stream_output_adapter@D@__crt_stdio_output@@@2@@__crt_stdio_output@@AAE_NXZ 10051890 f i libucrtd:output.obj
 0001:00050940       ?state_case_flag@?$output_processor@DV?$string_output_adapter@D@__crt_stdio_output@@V?$format_validation_base@DV?$string_output_adapter@D@__crt_stdio_output@@@2@@__crt_stdio_output@@AAE_NXZ 10051940 f i libucrtd:output.obj
 0001:000509f0       ?state_case_flag@?$output_processor@DV?$string_output_adapter@D@__crt_stdio_output@@V?$positional_parameter_base@DV?$string_output_adapter@D@__crt_stdio_output@@@2@@__crt_stdio_output@@AAE_NXZ 100519f0 f i libucrtd:output.obj
 0001:00050aa0       ?state_case_flag@?$output_processor@DV?$string_output_adapter@D@__crt_stdio_output@@V?$standard_base@DV?$string_output_adapter@D@__crt_stdio_output@@@2@@__crt_stdio_output@@AAE_NXZ 10051aa0 f i libucrtd:output.obj
 0001:00050b50       ?state_case_flag@?$output_processor@_WV?$stream_output_adapter@_W@__crt_stdio_output@@V?$format_validation_base@_WV?$stream_output_adapter@_W@__crt_stdio_output@@@2@@__crt_stdio_output@@AAE_NXZ 10051b50 f i libucrtd:output.obj
 0001:00050c00       ?state_case_flag@?$output_processor@_WV?$stream_output_adapter@_W@__crt_stdio_output@@V?$positional_parameter_base@_WV?$stream_output_adapter@_W@__crt_stdio_output@@@2@@__crt_stdio_output@@AAE_NXZ 10051c00 f i libucrtd:output.obj
 0001:00050cb0       ?state_case_flag@?$output_processor@_WV?$stream_output_adapter@_W@__crt_stdio_output@@V?$standard_base@_WV?$stream_output_adapter@_W@__crt_stdio_output@@@2@@__crt_stdio_output@@AAE_NXZ 10051cb0 f i libucrtd:output.obj
 0001:00050d60       ?state_case_flag@?$output_processor@_WV?$string_output_adapter@_W@__crt_stdio_output@@V?$format_validation_base@_WV?$string_output_adapter@_W@__crt_stdio_output@@@2@@__crt_stdio_output@@AAE_NXZ 10051d60 f i libucrtd:output.obj
 0001:00050e10       ?state_case_flag@?$output_processor@_WV?$string_output_adapter@_W@__crt_stdio_output@@V?$positional_parameter_base@_WV?$string_output_adapter@_W@__crt_stdio_output@@@2@@__crt_stdio_output@@AAE_NXZ 10051e10 f i libucrtd:output.obj
 0001:00050ec0       ?state_case_flag@?$output_processor@_WV?$string_output_adapter@_W@__crt_stdio_output@@V?$standard_base@_WV?$string_output_adapter@_W@__crt_stdio_output@@@2@@__crt_stdio_output@@AAE_NXZ 10051ec0 f i libucrtd:output.obj
 0001:00050f70       ?state_case_normal@?$output_processor@DV?$stream_output_adapter@D@__crt_stdio_output@@V?$format_validation_base@DV?$stream_output_adapter@D@__crt_stdio_output@@@2@@__crt_stdio_output@@AAE_NXZ 10051f70 f i libucrtd:output.obj
 0001:00051020       ?state_case_normal@?$output_processor@DV?$stream_output_adapter@D@__crt_stdio_output@@V?$positional_parameter_base@DV?$stream_output_adapter@D@__crt_stdio_output@@@2@@__crt_stdio_output@@AAE_NXZ 10052020 f i libucrtd:output.obj
 0001:000510d0       ?state_case_normal@?$output_processor@DV?$stream_output_adapter@D@__crt_stdio_output@@V?$standard_base@DV?$stream_output_adapter@D@__crt_stdio_output@@@2@@__crt_stdio_output@@AAE_NXZ 100520d0 f i libucrtd:output.obj
 0001:00051180       ?state_case_normal@?$output_processor@DV?$string_output_adapter@D@__crt_stdio_output@@V?$format_validation_base@DV?$string_output_adapter@D@__crt_stdio_output@@@2@@__crt_stdio_output@@AAE_NXZ 10052180 f i libucrtd:output.obj
 0001:00051230       ?state_case_normal@?$output_processor@DV?$string_output_adapter@D@__crt_stdio_output@@V?$positional_parameter_base@DV?$string_output_adapter@D@__crt_stdio_output@@@2@@__crt_stdio_output@@AAE_NXZ 10052230 f i libucrtd:output.obj
 0001:000512e0       ?state_case_normal@?$output_processor@DV?$string_output_adapter@D@__crt_stdio_output@@V?$standard_base@DV?$string_output_adapter@D@__crt_stdio_output@@@2@@__crt_stdio_output@@AAE_NXZ 100522e0 f i libucrtd:output.obj
 0001:00051390       ?state_case_normal@?$output_processor@_WV?$stream_output_adapter@_W@__crt_stdio_output@@V?$format_validation_base@_WV?$stream_output_adapter@_W@__crt_stdio_output@@@2@@__crt_stdio_output@@AAE_NXZ 10052390 f i libucrtd:output.obj
 0001:00051440       ?state_case_normal@?$output_processor@_WV?$stream_output_adapter@_W@__crt_stdio_output@@V?$positional_parameter_base@_WV?$stream_output_adapter@_W@__crt_stdio_output@@@2@@__crt_stdio_output@@AAE_NXZ 10052440 f i libucrtd:output.obj
 0001:000514f0       ?state_case_normal@?$output_processor@_WV?$stream_output_adapter@_W@__crt_stdio_output@@V?$standard_base@_WV?$stream_output_adapter@_W@__crt_stdio_output@@@2@@__crt_stdio_output@@AAE_NXZ 100524f0 f i libucrtd:output.obj
 0001:000515a0       ?state_case_normal@?$output_processor@_WV?$string_output_adapter@_W@__crt_stdio_output@@V?$format_validation_base@_WV?$string_output_adapter@_W@__crt_stdio_output@@@2@@__crt_stdio_output@@AAE_NXZ 100525a0 f i libucrtd:output.obj
 0001:00051650       ?state_case_normal@?$output_processor@_WV?$string_output_adapter@_W@__crt_stdio_output@@V?$positional_parameter_base@_WV?$string_output_adapter@_W@__crt_stdio_output@@@2@@__crt_stdio_output@@AAE_NXZ 10052650 f i libucrtd:output.obj
 0001:00051700       ?state_case_normal@?$output_processor@_WV?$string_output_adapter@_W@__crt_stdio_output@@V?$standard_base@_WV?$string_output_adapter@_W@__crt_stdio_output@@@2@@__crt_stdio_output@@AAE_NXZ 10052700 f i libucrtd:output.obj
 0001:000517b0       ?state_case_normal_common@?$output_processor@DV?$stream_output_adapter@D@__crt_stdio_output@@V?$format_validation_base@DV?$stream_output_adapter@D@__crt_stdio_output@@@2@@__crt_stdio_output@@AAE_NXZ 100527b0 f i libucrtd:output.obj
 0001:00051800       ?state_case_normal_common@?$output_processor@DV?$stream_output_adapter@D@__crt_stdio_output@@V?$positional_parameter_base@DV?$stream_output_adapter@D@__crt_stdio_output@@@2@@__crt_stdio_output@@AAE_NXZ 10052800 f i libucrtd:output.obj
 0001:00051850       ?state_case_normal_common@?$output_processor@DV?$stream_output_adapter@D@__crt_stdio_output@@V?$standard_base@DV?$stream_output_adapter@D@__crt_stdio_output@@@2@@__crt_stdio_output@@AAE_NXZ 10052850 f i libucrtd:output.obj
 0001:000518a0       ?state_case_normal_common@?$output_processor@DV?$string_output_adapter@D@__crt_stdio_output@@V?$format_validation_base@DV?$string_output_adapter@D@__crt_stdio_output@@@2@@__crt_stdio_output@@AAE_NXZ 100528a0 f i libucrtd:output.obj
 0001:000518f0       ?state_case_normal_common@?$output_processor@DV?$string_output_adapter@D@__crt_stdio_output@@V?$positional_parameter_base@DV?$string_output_adapter@D@__crt_stdio_output@@@2@@__crt_stdio_output@@AAE_NXZ 100528f0 f i libucrtd:output.obj
 0001:00051940       ?state_case_normal_common@?$output_processor@DV?$string_output_adapter@D@__crt_stdio_output@@V?$standard_base@DV?$string_output_adapter@D@__crt_stdio_output@@@2@@__crt_stdio_output@@AAE_NXZ 10052940 f i libucrtd:output.obj
 0001:00051990       ?state_case_normal_common@?$output_processor@_WV?$stream_output_adapter@_W@__crt_stdio_output@@V?$format_validation_base@_WV?$stream_output_adapter@_W@__crt_stdio_output@@@2@@__crt_stdio_output@@AAE_NXZ 10052990 f i libucrtd:output.obj
 0001:000519e0       ?state_case_normal_common@?$output_processor@_WV?$stream_output_adapter@_W@__crt_stdio_output@@V?$positional_parameter_base@_WV?$stream_output_adapter@_W@__crt_stdio_output@@@2@@__crt_stdio_output@@AAE_NXZ 100529e0 f i libucrtd:output.obj
 0001:00051a30       ?state_case_normal_common@?$output_processor@_WV?$stream_output_adapter@_W@__crt_stdio_output@@V?$standard_base@_WV?$stream_output_adapter@_W@__crt_stdio_output@@@2@@__crt_stdio_output@@AAE_NXZ 10052a30 f i libucrtd:output.obj
 0001:00051a80       ?state_case_normal_common@?$output_processor@_WV?$string_output_adapter@_W@__crt_stdio_output@@V?$format_validation_base@_WV?$string_output_adapter@_W@__crt_stdio_output@@@2@@__crt_stdio_output@@AAE_NXZ 10052a80 f i libucrtd:output.obj
 0001:00051ad0       ?state_case_normal_common@?$output_processor@_WV?$string_output_adapter@_W@__crt_stdio_output@@V?$positional_parameter_base@_WV?$string_output_adapter@_W@__crt_stdio_output@@@2@@__crt_stdio_output@@AAE_NXZ 10052ad0 f i libucrtd:output.obj
 0001:00051b20       ?state_case_normal_common@?$output_processor@_WV?$string_output_adapter@_W@__crt_stdio_output@@V?$standard_base@_WV?$string_output_adapter@_W@__crt_stdio_output@@@2@@__crt_stdio_output@@AAE_NXZ 10052b20 f i libucrtd:output.obj
 0001:00051b70       ?state_case_normal_tchar@?$output_processor@DV?$stream_output_adapter@D@__crt_stdio_output@@V?$format_validation_base@DV?$stream_output_adapter@D@__crt_stdio_output@@@2@@__crt_stdio_output@@AAE_ND@Z 10052b70 f i libucrtd:output.obj
 0001:00051c70       ?state_case_normal_tchar@?$output_processor@DV?$stream_output_adapter@D@__crt_stdio_output@@V?$positional_parameter_base@DV?$stream_output_adapter@D@__crt_stdio_output@@@2@@__crt_stdio_output@@AAE_ND@Z 10052c70 f i libucrtd:output.obj
 0001:00051d70       ?state_case_normal_tchar@?$output_processor@DV?$stream_output_adapter@D@__crt_stdio_output@@V?$standard_base@DV?$stream_output_adapter@D@__crt_stdio_output@@@2@@__crt_stdio_output@@AAE_ND@Z 10052d70 f i libucrtd:output.obj
 0001:00051e70       ?state_case_normal_tchar@?$output_processor@DV?$string_output_adapter@D@__crt_stdio_output@@V?$format_validation_base@DV?$string_output_adapter@D@__crt_stdio_output@@@2@@__crt_stdio_output@@AAE_ND@Z 10052e70 f i libucrtd:output.obj
 0001:00051f70       ?state_case_normal_tchar@?$output_processor@DV?$string_output_adapter@D@__crt_stdio_output@@V?$positional_parameter_base@DV?$string_output_adapter@D@__crt_stdio_output@@@2@@__crt_stdio_output@@AAE_ND@Z 10052f70 f i libucrtd:output.obj
 0001:00052070       ?state_case_normal_tchar@?$output_processor@DV?$string_output_adapter@D@__crt_stdio_output@@V?$standard_base@DV?$string_output_adapter@D@__crt_stdio_output@@@2@@__crt_stdio_output@@AAE_ND@Z 10053070 f i libucrtd:output.obj
 0001:00052170       ?state_case_normal_tchar@?$output_processor@_WV?$stream_output_adapter@_W@__crt_stdio_output@@V?$format_validation_base@_WV?$stream_output_adapter@_W@__crt_stdio_output@@@2@@__crt_stdio_output@@AAE_N_W@Z 10053170 f i libucrtd:output.obj
 0001:00052190       ?state_case_normal_tchar@?$output_processor@_WV?$stream_output_adapter@_W@__crt_stdio_output@@V?$positional_parameter_base@_WV?$stream_output_adapter@_W@__crt_stdio_output@@@2@@__crt_stdio_output@@AAE_N_W@Z 10053190 f i libucrtd:output.obj
 0001:000521b0       ?state_case_normal_tchar@?$output_processor@_WV?$stream_output_adapter@_W@__crt_stdio_output@@V?$standard_base@_WV?$stream_output_adapter@_W@__crt_stdio_output@@@2@@__crt_stdio_output@@AAE_N_W@Z 100531b0 f i libucrtd:output.obj
 0001:000521d0       ?state_case_normal_tchar@?$output_processor@_WV?$string_output_adapter@_W@__crt_stdio_output@@V?$format_validation_base@_WV?$string_output_adapter@_W@__crt_stdio_output@@@2@@__crt_stdio_output@@AAE_N_W@Z 100531d0 f i libucrtd:output.obj
 0001:000521f0       ?state_case_normal_tchar@?$output_processor@_WV?$string_output_adapter@_W@__crt_stdio_output@@V?$positional_parameter_base@_WV?$string_output_adapter@_W@__crt_stdio_output@@@2@@__crt_stdio_output@@AAE_N_W@Z 100531f0 f i libucrtd:output.obj
 0001:00052210       ?state_case_normal_tchar@?$output_processor@_WV?$string_output_adapter@_W@__crt_stdio_output@@V?$standard_base@_WV?$string_output_adapter@_W@__crt_stdio_output@@@2@@__crt_stdio_output@@AAE_N_W@Z 10053210 f i libucrtd:output.obj
 0001:00052230       ?state_case_percent@?$output_processor@DV?$stream_output_adapter@D@__crt_stdio_output@@V?$format_validation_base@DV?$stream_output_adapter@D@__crt_stdio_output@@@2@@__crt_stdio_output@@AAE_NXZ 10053230 f i libucrtd:output.obj
 0001:00052280       ?state_case_percent@?$output_processor@DV?$stream_output_adapter@D@__crt_stdio_output@@V?$positional_parameter_base@DV?$stream_output_adapter@D@__crt_stdio_output@@@2@@__crt_stdio_output@@AAE_NXZ 10053280 f i libucrtd:output.obj
 0001:000522d0       ?state_case_percent@?$output_processor@DV?$stream_output_adapter@D@__crt_stdio_output@@V?$standard_base@DV?$stream_output_adapter@D@__crt_stdio_output@@@2@@__crt_stdio_output@@AAE_NXZ 100532d0 f i libucrtd:output.obj
 0001:00052320       ?state_case_percent@?$output_processor@DV?$string_output_adapter@D@__crt_stdio_output@@V?$format_validation_base@DV?$string_output_adapter@D@__crt_stdio_output@@@2@@__crt_stdio_output@@AAE_NXZ 10053320 f i libucrtd:output.obj
 0001:00052370       ?state_case_percent@?$output_processor@DV?$string_output_adapter@D@__crt_stdio_output@@V?$positional_parameter_base@DV?$string_output_adapter@D@__crt_stdio_output@@@2@@__crt_stdio_output@@AAE_NXZ 10053370 f i libucrtd:output.obj
 0001:000523c0       ?state_case_percent@?$output_processor@DV?$string_output_adapter@D@__crt_stdio_output@@V?$standard_base@DV?$string_output_adapter@D@__crt_stdio_output@@@2@@__crt_stdio_output@@AAE_NXZ 100533c0 f i libucrtd:output.obj
 0001:00052410       ?state_case_percent@?$output_processor@_WV?$stream_output_adapter@_W@__crt_stdio_output@@V?$format_validation_base@_WV?$stream_output_adapter@_W@__crt_stdio_output@@@2@@__crt_stdio_output@@AAE_NXZ 10053410 f i libucrtd:output.obj
 0001:00052460       ?state_case_percent@?$output_processor@_WV?$stream_output_adapter@_W@__crt_stdio_output@@V?$positional_parameter_base@_WV?$stream_output_adapter@_W@__crt_stdio_output@@@2@@__crt_stdio_output@@AAE_NXZ 10053460 f i libucrtd:output.obj
 0001:000524b0       ?state_case_percent@?$output_processor@_WV?$stream_output_adapter@_W@__crt_stdio_output@@V?$standard_base@_WV?$stream_output_adapter@_W@__crt_stdio_output@@@2@@__crt_stdio_output@@AAE_NXZ 100534b0 f i libucrtd:output.obj
 0001:00052500       ?state_case_percent@?$output_processor@_WV?$string_output_adapter@_W@__crt_stdio_output@@V?$format_validation_base@_WV?$string_output_adapter@_W@__crt_stdio_output@@@2@@__crt_stdio_output@@AAE_NXZ 10053500 f i libucrtd:output.obj
 0001:00052550       ?state_case_percent@?$output_processor@_WV?$string_output_adapter@_W@__crt_stdio_output@@V?$positional_parameter_base@_WV?$string_output_adapter@_W@__crt_stdio_output@@@2@@__crt_stdio_output@@AAE_NXZ 10053550 f i libucrtd:output.obj
 0001:000525a0       ?state_case_percent@?$output_processor@_WV?$string_output_adapter@_W@__crt_stdio_output@@V?$standard_base@_WV?$string_output_adapter@_W@__crt_stdio_output@@@2@@__crt_stdio_output@@AAE_NXZ 100535a0 f i libucrtd:output.obj
 0001:000525f0       ?state_case_precision@?$output_processor@DV?$stream_output_adapter@D@__crt_stdio_output@@V?$format_validation_base@DV?$stream_output_adapter@D@__crt_stdio_output@@@2@@__crt_stdio_output@@AAE_NXZ 100535f0 f i libucrtd:output.obj
 0001:00052660       ?state_case_precision@?$output_processor@DV?$stream_output_adapter@D@__crt_stdio_output@@V?$positional_parameter_base@DV?$stream_output_adapter@D@__crt_stdio_output@@@2@@__crt_stdio_output@@AAE_NXZ 10053660 f i libucrtd:output.obj
 0001:000526d0       ?state_case_precision@?$output_processor@DV?$stream_output_adapter@D@__crt_stdio_output@@V?$standard_base@DV?$stream_output_adapter@D@__crt_stdio_output@@@2@@__crt_stdio_output@@AAE_NXZ 100536d0 f i libucrtd:output.obj
 0001:00052740       ?state_case_precision@?$output_processor@DV?$string_output_adapter@D@__crt_stdio_output@@V?$format_validation_base@DV?$string_output_adapter@D@__crt_stdio_output@@@2@@__crt_stdio_output@@AAE_NXZ 10053740 f i libucrtd:output.obj
 0001:000527b0       ?state_case_precision@?$output_processor@DV?$string_output_adapter@D@__crt_stdio_output@@V?$positional_parameter_base@DV?$string_output_adapter@D@__crt_stdio_output@@@2@@__crt_stdio_output@@AAE_NXZ 100537b0 f i libucrtd:output.obj
 0001:00052820       ?state_case_precision@?$output_processor@DV?$string_output_adapter@D@__crt_stdio_output@@V?$standard_base@DV?$string_output_adapter@D@__crt_stdio_output@@@2@@__crt_stdio_output@@AAE_NXZ 10053820 f i libucrtd:output.obj
 0001:00052890       ?state_case_precision@?$output_processor@_WV?$stream_output_adapter@_W@__crt_stdio_output@@V?$format_validation_base@_WV?$stream_output_adapter@_W@__crt_stdio_output@@@2@@__crt_stdio_output@@AAE_NXZ 10053890 f i libucrtd:output.obj
 0001:00052900       ?state_case_precision@?$output_processor@_WV?$stream_output_adapter@_W@__crt_stdio_output@@V?$positional_parameter_base@_WV?$stream_output_adapter@_W@__crt_stdio_output@@@2@@__crt_stdio_output@@AAE_NXZ 10053900 f i libucrtd:output.obj
 0001:00052970       ?state_case_precision@?$output_processor@_WV?$stream_output_adapter@_W@__crt_stdio_output@@V?$standard_base@_WV?$stream_output_adapter@_W@__crt_stdio_output@@@2@@__crt_stdio_output@@AAE_NXZ 10053970 f i libucrtd:output.obj
 0001:000529e0       ?state_case_precision@?$output_processor@_WV?$string_output_adapter@_W@__crt_stdio_output@@V?$format_validation_base@_WV?$string_output_adapter@_W@__crt_stdio_output@@@2@@__crt_stdio_output@@AAE_NXZ 100539e0 f i libucrtd:output.obj
 0001:00052a50       ?state_case_precision@?$output_processor@_WV?$string_output_adapter@_W@__crt_stdio_output@@V?$positional_parameter_base@_WV?$string_output_adapter@_W@__crt_stdio_output@@@2@@__crt_stdio_output@@AAE_NXZ 10053a50 f i libucrtd:output.obj
 0001:00052ac0       ?state_case_precision@?$output_processor@_WV?$string_output_adapter@_W@__crt_stdio_output@@V?$standard_base@_WV?$string_output_adapter@_W@__crt_stdio_output@@@2@@__crt_stdio_output@@AAE_NXZ 10053ac0 f i libucrtd:output.obj
 0001:00052b30       ?state_case_size@?$output_processor@DV?$stream_output_adapter@D@__crt_stdio_output@@V?$format_validation_base@DV?$stream_output_adapter@D@__crt_stdio_output@@@2@@__crt_stdio_output@@AAE_NXZ 10053b30 f i libucrtd:output.obj
 0001:00052f00       ?state_case_size@?$output_processor@DV?$stream_output_adapter@D@__crt_stdio_output@@V?$positional_parameter_base@DV?$stream_output_adapter@D@__crt_stdio_output@@@2@@__crt_stdio_output@@AAE_NXZ 10053f00 f i libucrtd:output.obj
 0001:000532d0       ?state_case_size@?$output_processor@DV?$stream_output_adapter@D@__crt_stdio_output@@V?$standard_base@DV?$stream_output_adapter@D@__crt_stdio_output@@@2@@__crt_stdio_output@@AAE_NXZ 100542d0 f i libucrtd:output.obj
 0001:000536a0       ?state_case_size@?$output_processor@DV?$string_output_adapter@D@__crt_stdio_output@@V?$format_validation_base@DV?$string_output_adapter@D@__crt_stdio_output@@@2@@__crt_stdio_output@@AAE_NXZ 100546a0 f i libucrtd:output.obj
 0001:00053a70       ?state_case_size@?$output_processor@DV?$string_output_adapter@D@__crt_stdio_output@@V?$positional_parameter_base@DV?$string_output_adapter@D@__crt_stdio_output@@@2@@__crt_stdio_output@@AAE_NXZ 10054a70 f i libucrtd:output.obj
 0001:00053e40       ?state_case_size@?$output_processor@DV?$string_output_adapter@D@__crt_stdio_output@@V?$standard_base@DV?$string_output_adapter@D@__crt_stdio_output@@@2@@__crt_stdio_output@@AAE_NXZ 10054e40 f i libucrtd:output.obj
 0001:00054210       ?state_case_size@?$output_processor@_WV?$stream_output_adapter@_W@__crt_stdio_output@@V?$format_validation_base@_WV?$stream_output_adapter@_W@__crt_stdio_output@@@2@@__crt_stdio_output@@AAE_NXZ 10055210 f i libucrtd:output.obj
 0001:000545e0       ?state_case_size@?$output_processor@_WV?$stream_output_adapter@_W@__crt_stdio_output@@V?$positional_parameter_base@_WV?$stream_output_adapter@_W@__crt_stdio_output@@@2@@__crt_stdio_output@@AAE_NXZ 100555e0 f i libucrtd:output.obj
 0001:000549b0       ?state_case_size@?$output_processor@_WV?$stream_output_adapter@_W@__crt_stdio_output@@V?$standard_base@_WV?$stream_output_adapter@_W@__crt_stdio_output@@@2@@__crt_stdio_output@@AAE_NXZ 100559b0 f i libucrtd:output.obj
 0001:00054d80       ?state_case_size@?$output_processor@_WV?$string_output_adapter@_W@__crt_stdio_output@@V?$format_validation_base@_WV?$string_output_adapter@_W@__crt_stdio_output@@@2@@__crt_stdio_output@@AAE_NXZ 10055d80 f i libucrtd:output.obj
 0001:00055150       ?state_case_size@?$output_processor@_WV?$string_output_adapter@_W@__crt_stdio_output@@V?$positional_parameter_base@_WV?$string_output_adapter@_W@__crt_stdio_output@@@2@@__crt_stdio_output@@AAE_NXZ 10056150 f i libucrtd:output.obj
 0001:00055520       ?state_case_size@?$output_processor@_WV?$string_output_adapter@_W@__crt_stdio_output@@V?$standard_base@_WV?$string_output_adapter@_W@__crt_stdio_output@@@2@@__crt_stdio_output@@AAE_NXZ 10056520 f i libucrtd:output.obj
 0001:000558f0       ?state_case_type@?$output_processor@DV?$stream_output_adapter@D@__crt_stdio_output@@V?$format_validation_base@DV?$stream_output_adapter@D@__crt_stdio_output@@@2@@__crt_stdio_output@@AAE_NXZ 100568f0 f i libucrtd:output.obj
 0001:00055ca0       ?state_case_type@?$output_processor@DV?$stream_output_adapter@D@__crt_stdio_output@@V?$positional_parameter_base@DV?$stream_output_adapter@D@__crt_stdio_output@@@2@@__crt_stdio_output@@AAE_NXZ 10056ca0 f i libucrtd:output.obj
 0001:00056050       ?state_case_type@?$output_processor@DV?$stream_output_adapter@D@__crt_stdio_output@@V?$standard_base@DV?$stream_output_adapter@D@__crt_stdio_output@@@2@@__crt_stdio_output@@AAE_NXZ 10057050 f i libucrtd:output.obj
 0001:00056400       ?state_case_type@?$output_processor@DV?$string_output_adapter@D@__crt_stdio_output@@V?$format_validation_base@DV?$string_output_adapter@D@__crt_stdio_output@@@2@@__crt_stdio_output@@AAE_NXZ 10057400 f i libucrtd:output.obj
 0001:000567b0       ?state_case_type@?$output_processor@DV?$string_output_adapter@D@__crt_stdio_output@@V?$positional_parameter_base@DV?$string_output_adapter@D@__crt_stdio_output@@@2@@__crt_stdio_output@@AAE_NXZ 100577b0 f i libucrtd:output.obj
 0001:00056b60       ?state_case_type@?$output_processor@DV?$string_output_adapter@D@__crt_stdio_output@@V?$standard_base@DV?$string_output_adapter@D@__crt_stdio_output@@@2@@__crt_stdio_output@@AAE_NXZ 10057b60 f i libucrtd:output.obj
 0001:00056f10       ?state_case_type@?$output_processor@_WV?$stream_output_adapter@_W@__crt_stdio_output@@V?$format_validation_base@_WV?$stream_output_adapter@_W@__crt_stdio_output@@@2@@__crt_stdio_output@@AAE_NXZ 10057f10 f i libucrtd:output.obj
 0001:000572f0       ?state_case_type@?$output_processor@_WV?$stream_output_adapter@_W@__crt_stdio_output@@V?$positional_parameter_base@_WV?$stream_output_adapter@_W@__crt_stdio_output@@@2@@__crt_stdio_output@@AAE_NXZ 100582f0 f i libucrtd:output.obj
 0001:000576d0       ?state_case_type@?$output_processor@_WV?$stream_output_adapter@_W@__crt_stdio_output@@V?$standard_base@_WV?$stream_output_adapter@_W@__crt_stdio_output@@@2@@__crt_stdio_output@@AAE_NXZ 100586d0 f i libucrtd:output.obj
 0001:00057ab0       ?state_case_type@?$output_processor@_WV?$string_output_adapter@_W@__crt_stdio_output@@V?$format_validation_base@_WV?$string_output_adapter@_W@__crt_stdio_output@@@2@@__crt_stdio_output@@AAE_NXZ 10058ab0 f i libucrtd:output.obj
 0001:00057e90       ?state_case_type@?$output_processor@_WV?$string_output_adapter@_W@__crt_stdio_output@@V?$positional_parameter_base@_WV?$string_output_adapter@_W@__crt_stdio_output@@@2@@__crt_stdio_output@@AAE_NXZ 10058e90 f i libucrtd:output.obj
 0001:00058270       ?state_case_type@?$output_processor@_WV?$string_output_adapter@_W@__crt_stdio_output@@V?$standard_base@_WV?$string_output_adapter@_W@__crt_stdio_output@@@2@@__crt_stdio_output@@AAE_NXZ 10059270 f i libucrtd:output.obj
 0001:00058650       ?state_case_width@?$output_processor@DV?$stream_output_adapter@D@__crt_stdio_output@@V?$format_validation_base@DV?$stream_output_adapter@D@__crt_stdio_output@@@2@@__crt_stdio_output@@AAE_NXZ 10059650 f i libucrtd:output.obj
 0001:000586d0       ?state_case_width@?$output_processor@DV?$stream_output_adapter@D@__crt_stdio_output@@V?$positional_parameter_base@DV?$stream_output_adapter@D@__crt_stdio_output@@@2@@__crt_stdio_output@@AAE_NXZ 100596d0 f i libucrtd:output.obj
 0001:00058750       ?state_case_width@?$output_processor@DV?$stream_output_adapter@D@__crt_stdio_output@@V?$standard_base@DV?$stream_output_adapter@D@__crt_stdio_output@@@2@@__crt_stdio_output@@AAE_NXZ 10059750 f i libucrtd:output.obj
 0001:000587d0       ?state_case_width@?$output_processor@DV?$string_output_adapter@D@__crt_stdio_output@@V?$format_validation_base@DV?$string_output_adapter@D@__crt_stdio_output@@@2@@__crt_stdio_output@@AAE_NXZ 100597d0 f i libucrtd:output.obj
 0001:00058850       ?state_case_width@?$output_processor@DV?$string_output_adapter@D@__crt_stdio_output@@V?$positional_parameter_base@DV?$string_output_adapter@D@__crt_stdio_output@@@2@@__crt_stdio_output@@AAE_NXZ 10059850 f i libucrtd:output.obj
 0001:000588d0       ?state_case_width@?$output_processor@DV?$string_output_adapter@D@__crt_stdio_output@@V?$standard_base@DV?$string_output_adapter@D@__crt_stdio_output@@@2@@__crt_stdio_output@@AAE_NXZ 100598d0 f i libucrtd:output.obj
 0001:00058950       ?state_case_width@?$output_processor@_WV?$stream_output_adapter@_W@__crt_stdio_output@@V?$format_validation_base@_WV?$stream_output_adapter@_W@__crt_stdio_output@@@2@@__crt_stdio_output@@AAE_NXZ 10059950 f i libucrtd:output.obj
 0001:000589d0       ?state_case_width@?$output_processor@_WV?$stream_output_adapter@_W@__crt_stdio_output@@V?$positional_parameter_base@_WV?$stream_output_adapter@_W@__crt_stdio_output@@@2@@__crt_stdio_output@@AAE_NXZ 100599d0 f i libucrtd:output.obj
 0001:00058a50       ?state_case_width@?$output_processor@_WV?$stream_output_adapter@_W@__crt_stdio_output@@V?$standard_base@_WV?$stream_output_adapter@_W@__crt_stdio_output@@@2@@__crt_stdio_output@@AAE_NXZ 10059a50 f i libucrtd:output.obj
 0001:00058ad0       ?state_case_width@?$output_processor@_WV?$string_output_adapter@_W@__crt_stdio_output@@V?$format_validation_base@_WV?$string_output_adapter@_W@__crt_stdio_output@@@2@@__crt_stdio_output@@AAE_NXZ 10059ad0 f i libucrtd:output.obj
 0001:00058b50       ?state_case_width@?$output_processor@_WV?$string_output_adapter@_W@__crt_stdio_output@@V?$positional_parameter_base@_WV?$string_output_adapter@_W@__crt_stdio_output@@@2@@__crt_stdio_output@@AAE_NXZ 10059b50 f i libucrtd:output.obj
 0001:00058bd0       ?state_case_width@?$output_processor@_WV?$string_output_adapter@_W@__crt_stdio_output@@V?$standard_base@_WV?$string_output_adapter@_W@__crt_stdio_output@@@2@@__crt_stdio_output@@AAE_NXZ 10059bd0 f i libucrtd:output.obj
 0001:00058c50       ?state_count@?$format_validation_base@DV?$stream_output_adapter@D@__crt_stdio_output@@@__crt_stdio_output@@KAIXZ 10059c50 f i libucrtd:output.obj
 0001:00058c60       ?state_count@?$format_validation_base@DV?$string_output_adapter@D@__crt_stdio_output@@@__crt_stdio_output@@KAIXZ 10059c60 f i libucrtd:output.obj
 0001:00058c70       ?state_count@?$format_validation_base@_WV?$stream_output_adapter@_W@__crt_stdio_output@@@__crt_stdio_output@@KAIXZ 10059c70 f i libucrtd:output.obj
 0001:00058c80       ?state_count@?$format_validation_base@_WV?$string_output_adapter@_W@__crt_stdio_output@@@__crt_stdio_output@@KAIXZ 10059c80 f i libucrtd:output.obj
 0001:00058c90       ?state_count@?$standard_base@DV?$stream_output_adapter@D@__crt_stdio_output@@@__crt_stdio_output@@KAIXZ 10059c90 f i libucrtd:output.obj
 0001:00058ca0       ?state_count@?$standard_base@DV?$string_output_adapter@D@__crt_stdio_output@@@__crt_stdio_output@@KAIXZ 10059ca0 f i libucrtd:output.obj
 0001:00058cb0       ?state_count@?$standard_base@_WV?$stream_output_adapter@_W@__crt_stdio_output@@@__crt_stdio_output@@KAIXZ 10059cb0 f i libucrtd:output.obj
 0001:00058cc0       ?state_count@?$standard_base@_WV?$string_output_adapter@_W@__crt_stdio_output@@@__crt_stdio_output@@KAIXZ 10059cc0 f i libucrtd:output.obj
 0001:00058cd0       ?state_transition_table@?$format_validation_base@DV?$stream_output_adapter@D@__crt_stdio_output@@@__crt_stdio_output@@KAPBEXZ 10059cd0 f i libucrtd:output.obj
 0001:00058ce0       ?state_transition_table@?$format_validation_base@DV?$string_output_adapter@D@__crt_stdio_output@@@__crt_stdio_output@@KAPBEXZ 10059ce0 f i libucrtd:output.obj
 0001:00058cf0       ?state_transition_table@?$format_validation_base@_WV?$stream_output_adapter@_W@__crt_stdio_output@@@__crt_stdio_output@@KAPBEXZ 10059cf0 f i libucrtd:output.obj
 0001:00058d00       ?state_transition_table@?$format_validation_base@_WV?$string_output_adapter@_W@__crt_stdio_output@@@__crt_stdio_output@@KAPBEXZ 10059d00 f i libucrtd:output.obj
 0001:00058d10       ?state_transition_table@?$standard_base@DV?$stream_output_adapter@D@__crt_stdio_output@@@__crt_stdio_output@@KAPBEXZ 10059d10 f i libucrtd:output.obj
 0001:00058d20       ?state_transition_table@?$standard_base@DV?$string_output_adapter@D@__crt_stdio_output@@@__crt_stdio_output@@KAPBEXZ 10059d20 f i libucrtd:output.obj
 0001:00058d30       ?state_transition_table@?$standard_base@_WV?$stream_output_adapter@_W@__crt_stdio_output@@@__crt_stdio_output@@KAPBEXZ 10059d30 f i libucrtd:output.obj
 0001:00058d40       ?state_transition_table@?$standard_base@_WV?$string_output_adapter@_W@__crt_stdio_output@@@__crt_stdio_output@@KAPBEXZ 10059d40 f i libucrtd:output.obj
 0001:00058d50       ?tchar_string@?$common_data@D@__crt_stdio_output@@IAEAAPADD@Z 10059d50 f i libucrtd:output.obj
 0001:00058d70       ?tchar_string@?$common_data@D@__crt_stdio_output@@IAEAAPADXZ 10059d70 f i libucrtd:output.obj
 0001:00058d90       ?tchar_string@?$common_data@_W@__crt_stdio_output@@IAEAAPA_WXZ 10059d90 f i libucrtd:output.obj
 0001:00058db0       ?tchar_string@?$common_data@_W@__crt_stdio_output@@IAEAAPA_W_W@Z 10059db0 f i libucrtd:output.obj
 0001:00058dd0       ?to_integer_size@__crt_stdio_output@@YAIW4length_modifier@1@@Z 10059dd0 f i libucrtd:output.obj
 0001:00058e70       ?type_case_X@?$output_processor@DV?$stream_output_adapter@D@__crt_stdio_output@@V?$format_validation_base@DV?$stream_output_adapter@D@__crt_stdio_output@@@2@@__crt_stdio_output@@AAE_NXZ 10059e70 f i libucrtd:output.obj
 0001:00058e90       ?type_case_X@?$output_processor@DV?$stream_output_adapter@D@__crt_stdio_output@@V?$positional_parameter_base@DV?$stream_output_adapter@D@__crt_stdio_output@@@2@@__crt_stdio_output@@AAE_NXZ 10059e90 f i libucrtd:output.obj
 0001:00058eb0       ?type_case_X@?$output_processor@DV?$stream_output_adapter@D@__crt_stdio_output@@V?$standard_base@DV?$stream_output_adapter@D@__crt_stdio_output@@@2@@__crt_stdio_output@@AAE_NXZ 10059eb0 f i libucrtd:output.obj
 0001:00058ed0       ?type_case_X@?$output_processor@DV?$string_output_adapter@D@__crt_stdio_output@@V?$format_validation_base@DV?$string_output_adapter@D@__crt_stdio_output@@@2@@__crt_stdio_output@@AAE_NXZ 10059ed0 f i libucrtd:output.obj
 0001:00058ef0       ?type_case_X@?$output_processor@DV?$string_output_adapter@D@__crt_stdio_output@@V?$positional_parameter_base@DV?$string_output_adapter@D@__crt_stdio_output@@@2@@__crt_stdio_output@@AAE_NXZ 10059ef0 f i libucrtd:output.obj
 0001:00058f10       ?type_case_X@?$output_processor@DV?$string_output_adapter@D@__crt_stdio_output@@V?$standard_base@DV?$string_output_adapter@D@__crt_stdio_output@@@2@@__crt_stdio_output@@AAE_NXZ 10059f10 f i libucrtd:output.obj
 0001:00058f30       ?type_case_X@?$output_processor@_WV?$stream_output_adapter@_W@__crt_stdio_output@@V?$format_validation_base@_WV?$stream_output_adapter@_W@__crt_stdio_output@@@2@@__crt_stdio_output@@AAE_NXZ 10059f30 f i libucrtd:output.obj
 0001:00058f50       ?type_case_X@?$output_processor@_WV?$stream_output_adapter@_W@__crt_stdio_output@@V?$positional_parameter_base@_WV?$stream_output_adapter@_W@__crt_stdio_output@@@2@@__crt_stdio_output@@AAE_NXZ 10059f50 f i libucrtd:output.obj
 0001:00058f70       ?type_case_X@?$output_processor@_WV?$stream_output_adapter@_W@__crt_stdio_output@@V?$standard_base@_WV?$stream_output_adapter@_W@__crt_stdio_output@@@2@@__crt_stdio_output@@AAE_NXZ 10059f70 f i libucrtd:output.obj
 0001:00058f90       ?type_case_X@?$output_processor@_WV?$string_output_adapter@_W@__crt_stdio_output@@V?$format_validation_base@_WV?$string_output_adapter@_W@__crt_stdio_output@@@2@@__crt_stdio_output@@AAE_NXZ 10059f90 f i libucrtd:output.obj
 0001:00058fb0       ?type_case_X@?$output_processor@_WV?$string_output_adapter@_W@__crt_stdio_output@@V?$positional_parameter_base@_WV?$string_output_adapter@_W@__crt_stdio_output@@@2@@__crt_stdio_output@@AAE_NXZ 10059fb0 f i libucrtd:output.obj
 0001:00058fd0       ?type_case_X@?$output_processor@_WV?$string_output_adapter@_W@__crt_stdio_output@@V?$standard_base@_WV?$string_output_adapter@_W@__crt_stdio_output@@@2@@__crt_stdio_output@@AAE_NXZ 10059fd0 f i libucrtd:output.obj
 0001:00058ff0       ?type_case_Z@?$output_processor@DV?$stream_output_adapter@D@__crt_stdio_output@@V?$format_validation_base@DV?$stream_output_adapter@D@__crt_stdio_output@@@2@@__crt_stdio_output@@AAE_NXZ 10059ff0 f i libucrtd:output.obj
 0001:000590e0       ?type_case_Z@?$output_processor@DV?$stream_output_adapter@D@__crt_stdio_output@@V?$positional_parameter_base@DV?$stream_output_adapter@D@__crt_stdio_output@@@2@@__crt_stdio_output@@AAE_NXZ 1005a0e0 f i libucrtd:output.obj
 0001:000591d0       ?type_case_Z@?$output_processor@DV?$stream_output_adapter@D@__crt_stdio_output@@V?$standard_base@DV?$stream_output_adapter@D@__crt_stdio_output@@@2@@__crt_stdio_output@@AAE_NXZ 1005a1d0 f i libucrtd:output.obj
 0001:000592c0       ?type_case_Z@?$output_processor@DV?$string_output_adapter@D@__crt_stdio_output@@V?$format_validation_base@DV?$string_output_adapter@D@__crt_stdio_output@@@2@@__crt_stdio_output@@AAE_NXZ 1005a2c0 f i libucrtd:output.obj
 0001:000593b0       ?type_case_Z@?$output_processor@DV?$string_output_adapter@D@__crt_stdio_output@@V?$positional_parameter_base@DV?$string_output_adapter@D@__crt_stdio_output@@@2@@__crt_stdio_output@@AAE_NXZ 1005a3b0 f i libucrtd:output.obj
 0001:000594a0       ?type_case_Z@?$output_processor@DV?$string_output_adapter@D@__crt_stdio_output@@V?$standard_base@DV?$string_output_adapter@D@__crt_stdio_output@@@2@@__crt_stdio_output@@AAE_NXZ 1005a4a0 f i libucrtd:output.obj
 0001:00059590       ?type_case_Z@?$output_processor@_WV?$stream_output_adapter@_W@__crt_stdio_output@@V?$format_validation_base@_WV?$stream_output_adapter@_W@__crt_stdio_output@@@2@@__crt_stdio_output@@AAE_NXZ 1005a590 f i libucrtd:output.obj
 0001:00059680       ?type_case_Z@?$output_processor@_WV?$stream_output_adapter@_W@__crt_stdio_output@@V?$positional_parameter_base@_WV?$stream_output_adapter@_W@__crt_stdio_output@@@2@@__crt_stdio_output@@AAE_NXZ 1005a680 f i libucrtd:output.obj
 0001:00059770       ?type_case_Z@?$output_processor@_WV?$stream_output_adapter@_W@__crt_stdio_output@@V?$standard_base@_WV?$stream_output_adapter@_W@__crt_stdio_output@@@2@@__crt_stdio_output@@AAE_NXZ 1005a770 f i libucrtd:output.obj
 0001:00059860       ?type_case_Z@?$output_processor@_WV?$string_output_adapter@_W@__crt_stdio_output@@V?$format_validation_base@_WV?$string_output_adapter@_W@__crt_stdio_output@@@2@@__crt_stdio_output@@AAE_NXZ 1005a860 f i libucrtd:output.obj
 0001:00059950       ?type_case_Z@?$output_processor@_WV?$string_output_adapter@_W@__crt_stdio_output@@V?$positional_parameter_base@_WV?$string_output_adapter@_W@__crt_stdio_output@@@2@@__crt_stdio_output@@AAE_NXZ 1005a950 f i libucrtd:output.obj
 0001:00059a40       ?type_case_Z@?$output_processor@_WV?$string_output_adapter@_W@__crt_stdio_output@@V?$standard_base@_WV?$string_output_adapter@_W@__crt_stdio_output@@@2@@__crt_stdio_output@@AAE_NXZ 1005aa40 f i libucrtd:output.obj
 0001:00059b30       ?type_case_a@?$output_processor@DV?$stream_output_adapter@D@__crt_stdio_output@@V?$format_validation_base@DV?$stream_output_adapter@D@__crt_stdio_output@@@2@@__crt_stdio_output@@AAE_NXZ 1005ab30 f i libucrtd:output.obj
 0001:00059da0       ?type_case_a@?$output_processor@DV?$stream_output_adapter@D@__crt_stdio_output@@V?$positional_parameter_base@DV?$stream_output_adapter@D@__crt_stdio_output@@@2@@__crt_stdio_output@@AAE_NXZ 1005ada0 f i libucrtd:output.obj
 0001:0005a010       ?type_case_a@?$output_processor@DV?$stream_output_adapter@D@__crt_stdio_output@@V?$standard_base@DV?$stream_output_adapter@D@__crt_stdio_output@@@2@@__crt_stdio_output@@AAE_NXZ 1005b010 f i libucrtd:output.obj
 0001:0005a280       ?type_case_a@?$output_processor@DV?$string_output_adapter@D@__crt_stdio_output@@V?$format_validation_base@DV?$string_output_adapter@D@__crt_stdio_output@@@2@@__crt_stdio_output@@AAE_NXZ 1005b280 f i libucrtd:output.obj
 0001:0005a4f0       ?type_case_a@?$output_processor@DV?$string_output_adapter@D@__crt_stdio_output@@V?$positional_parameter_base@DV?$string_output_adapter@D@__crt_stdio_output@@@2@@__crt_stdio_output@@AAE_NXZ 1005b4f0 f i libucrtd:output.obj
 0001:0005a760       ?type_case_a@?$output_processor@DV?$string_output_adapter@D@__crt_stdio_output@@V?$standard_base@DV?$string_output_adapter@D@__crt_stdio_output@@@2@@__crt_stdio_output@@AAE_NXZ 1005b760 f i libucrtd:output.obj
 0001:0005a9d0       ?type_case_a@?$output_processor@_WV?$stream_output_adapter@_W@__crt_stdio_output@@V?$format_validation_base@_WV?$stream_output_adapter@_W@__crt_stdio_output@@@2@@__crt_stdio_output@@AAE_NXZ 1005b9d0 f i libucrtd:output.obj
 0001:0005ac40       ?type_case_a@?$output_processor@_WV?$stream_output_adapter@_W@__crt_stdio_output@@V?$positional_parameter_base@_WV?$stream_output_adapter@_W@__crt_stdio_output@@@2@@__crt_stdio_output@@AAE_NXZ 1005bc40 f i libucrtd:output.obj
 0001:0005aeb0       ?type_case_a@?$output_processor@_WV?$stream_output_adapter@_W@__crt_stdio_output@@V?$standard_base@_WV?$stream_output_adapter@_W@__crt_stdio_output@@@2@@__crt_stdio_output@@AAE_NXZ 1005beb0 f i libucrtd:output.obj
 0001:0005b120       ?type_case_a@?$output_processor@_WV?$string_output_adapter@_W@__crt_stdio_output@@V?$format_validation_base@_WV?$string_output_adapter@_W@__crt_stdio_output@@@2@@__crt_stdio_output@@AAE_NXZ 1005c120 f i libucrtd:output.obj
 0001:0005b390       ?type_case_a@?$output_processor@_WV?$string_output_adapter@_W@__crt_stdio_output@@V?$positional_parameter_base@_WV?$string_output_adapter@_W@__crt_stdio_output@@@2@@__crt_stdio_output@@AAE_NXZ 1005c390 f i libucrtd:output.obj
 0001:0005b600       ?type_case_a@?$output_processor@_WV?$string_output_adapter@_W@__crt_stdio_output@@V?$standard_base@_WV?$string_output_adapter@_W@__crt_stdio_output@@@2@@__crt_stdio_output@@AAE_NXZ 1005c600 f i libucrtd:output.obj
 0001:0005b870       ?type_case_c@?$output_processor@DV?$stream_output_adapter@D@__crt_stdio_output@@V?$format_validation_base@DV?$stream_output_adapter@D@__crt_stdio_output@@@2@@__crt_stdio_output@@AAE_NXZ 1005c870 f i libucrtd:output.obj
 0001:0005b890       ?type_case_c@?$output_processor@DV?$stream_output_adapter@D@__crt_stdio_output@@V?$positional_parameter_base@DV?$stream_output_adapter@D@__crt_stdio_output@@@2@@__crt_stdio_output@@AAE_NXZ 1005c890 f i libucrtd:output.obj
 0001:0005b8b0       ?type_case_c@?$output_processor@DV?$stream_output_adapter@D@__crt_stdio_output@@V?$standard_base@DV?$stream_output_adapter@D@__crt_stdio_output@@@2@@__crt_stdio_output@@AAE_NXZ 1005c8b0 f i libucrtd:output.obj
 0001:0005b8d0       ?type_case_c@?$output_processor@DV?$string_output_adapter@D@__crt_stdio_output@@V?$format_validation_base@DV?$string_output_adapter@D@__crt_stdio_output@@@2@@__crt_stdio_output@@AAE_NXZ 1005c8d0 f i libucrtd:output.obj
 0001:0005b8f0       ?type_case_c@?$output_processor@DV?$string_output_adapter@D@__crt_stdio_output@@V?$positional_parameter_base@DV?$string_output_adapter@D@__crt_stdio_output@@@2@@__crt_stdio_output@@AAE_NXZ 1005c8f0 f i libucrtd:output.obj
 0001:0005b910       ?type_case_c@?$output_processor@DV?$string_output_adapter@D@__crt_stdio_output@@V?$standard_base@DV?$string_output_adapter@D@__crt_stdio_output@@@2@@__crt_stdio_output@@AAE_NXZ 1005c910 f i libucrtd:output.obj
 0001:0005b930       ?type_case_c@?$output_processor@_WV?$stream_output_adapter@_W@__crt_stdio_output@@V?$format_validation_base@_WV?$stream_output_adapter@_W@__crt_stdio_output@@@2@@__crt_stdio_output@@AAE_NXZ 1005c930 f i libucrtd:output.obj
 0001:0005b950       ?type_case_c@?$output_processor@_WV?$stream_output_adapter@_W@__crt_stdio_output@@V?$positional_parameter_base@_WV?$stream_output_adapter@_W@__crt_stdio_output@@@2@@__crt_stdio_output@@AAE_NXZ 1005c950 f i libucrtd:output.obj
 0001:0005b970       ?type_case_c@?$output_processor@_WV?$stream_output_adapter@_W@__crt_stdio_output@@V?$standard_base@_WV?$stream_output_adapter@_W@__crt_stdio_output@@@2@@__crt_stdio_output@@AAE_NXZ 1005c970 f i libucrtd:output.obj
 0001:0005b990       ?type_case_c@?$output_processor@_WV?$string_output_adapter@_W@__crt_stdio_output@@V?$format_validation_base@_WV?$string_output_adapter@_W@__crt_stdio_output@@@2@@__crt_stdio_output@@AAE_NXZ 1005c990 f i libucrtd:output.obj
 0001:0005b9b0       ?type_case_c@?$output_processor@_WV?$string_output_adapter@_W@__crt_stdio_output@@V?$positional_parameter_base@_WV?$string_output_adapter@_W@__crt_stdio_output@@@2@@__crt_stdio_output@@AAE_NXZ 1005c9b0 f i libucrtd:output.obj
 0001:0005b9d0       ?type_case_c@?$output_processor@_WV?$string_output_adapter@_W@__crt_stdio_output@@V?$standard_base@_WV?$string_output_adapter@_W@__crt_stdio_output@@@2@@__crt_stdio_output@@AAE_NXZ 1005c9d0 f i libucrtd:output.obj
 0001:0005b9f0       ?type_case_c_tchar@?$output_processor@DV?$stream_output_adapter@D@__crt_stdio_output@@V?$format_validation_base@DV?$stream_output_adapter@D@__crt_stdio_output@@@2@@__crt_stdio_output@@AAE_ND@Z 1005c9f0 f i libucrtd:output.obj
 0001:0005bb00       ?type_case_c_tchar@?$output_processor@DV?$stream_output_adapter@D@__crt_stdio_output@@V?$positional_parameter_base@DV?$stream_output_adapter@D@__crt_stdio_output@@@2@@__crt_stdio_output@@AAE_ND@Z 1005cb00 f i libucrtd:output.obj
 0001:0005bc10       ?type_case_c_tchar@?$output_processor@DV?$stream_output_adapter@D@__crt_stdio_output@@V?$standard_base@DV?$stream_output_adapter@D@__crt_stdio_output@@@2@@__crt_stdio_output@@AAE_ND@Z 1005cc10 f i libucrtd:output.obj
 0001:0005bd20       ?type_case_c_tchar@?$output_processor@DV?$string_output_adapter@D@__crt_stdio_output@@V?$format_validation_base@DV?$string_output_adapter@D@__crt_stdio_output@@@2@@__crt_stdio_output@@AAE_ND@Z 1005cd20 f i libucrtd:output.obj
 0001:0005be30       ?type_case_c_tchar@?$output_processor@DV?$string_output_adapter@D@__crt_stdio_output@@V?$positional_parameter_base@DV?$string_output_adapter@D@__crt_stdio_output@@@2@@__crt_stdio_output@@AAE_ND@Z 1005ce30 f i libucrtd:output.obj
 0001:0005bf40       ?type_case_c_tchar@?$output_processor@DV?$string_output_adapter@D@__crt_stdio_output@@V?$standard_base@DV?$string_output_adapter@D@__crt_stdio_output@@@2@@__crt_stdio_output@@AAE_ND@Z 1005cf40 f i libucrtd:output.obj
 0001:0005c050       ?type_case_c_tchar@?$output_processor@_WV?$stream_output_adapter@_W@__crt_stdio_output@@V?$format_validation_base@_WV?$stream_output_adapter@_W@__crt_stdio_output@@@2@@__crt_stdio_output@@AAE_N_W@Z 1005d050 f i libucrtd:output.obj
 0001:0005c150       ?type_case_c_tchar@?$output_processor@_WV?$stream_output_adapter@_W@__crt_stdio_output@@V?$positional_parameter_base@_WV?$stream_output_adapter@_W@__crt_stdio_output@@@2@@__crt_stdio_output@@AAE_N_W@Z 1005d150 f i libucrtd:output.obj
 0001:0005c250       ?type_case_c_tchar@?$output_processor@_WV?$stream_output_adapter@_W@__crt_stdio_output@@V?$standard_base@_WV?$stream_output_adapter@_W@__crt_stdio_output@@@2@@__crt_stdio_output@@AAE_N_W@Z 1005d250 f i libucrtd:output.obj
 0001:0005c350       ?type_case_c_tchar@?$output_processor@_WV?$string_output_adapter@_W@__crt_stdio_output@@V?$format_validation_base@_WV?$string_output_adapter@_W@__crt_stdio_output@@@2@@__crt_stdio_output@@AAE_N_W@Z 1005d350 f i libucrtd:output.obj
 0001:0005c450       ?type_case_c_tchar@?$output_processor@_WV?$string_output_adapter@_W@__crt_stdio_output@@V?$positional_parameter_base@_WV?$string_output_adapter@_W@__crt_stdio_output@@@2@@__crt_stdio_output@@AAE_N_W@Z 1005d450 f i libucrtd:output.obj
 0001:0005c550       ?type_case_c_tchar@?$output_processor@_WV?$string_output_adapter@_W@__crt_stdio_output@@V?$standard_base@_WV?$string_output_adapter@_W@__crt_stdio_output@@@2@@__crt_stdio_output@@AAE_N_W@Z 1005d550 f i libucrtd:output.obj
 0001:0005c650       ?type_case_d@?$output_processor@DV?$stream_output_adapter@D@__crt_stdio_output@@V?$format_validation_base@DV?$stream_output_adapter@D@__crt_stdio_output@@@2@@__crt_stdio_output@@AAE_NXZ 1005d650 f i libucrtd:output.obj
 0001:0005c680       ?type_case_d@?$output_processor@DV?$stream_output_adapter@D@__crt_stdio_output@@V?$positional_parameter_base@DV?$stream_output_adapter@D@__crt_stdio_output@@@2@@__crt_stdio_output@@AAE_NXZ 1005d680 f i libucrtd:output.obj
 0001:0005c6b0       ?type_case_d@?$output_processor@DV?$stream_output_adapter@D@__crt_stdio_output@@V?$standard_base@DV?$stream_output_adapter@D@__crt_stdio_output@@@2@@__crt_stdio_output@@AAE_NXZ 1005d6b0 f i libucrtd:output.obj
 0001:0005c6e0       ?type_case_d@?$output_processor@DV?$string_output_adapter@D@__crt_stdio_output@@V?$format_validation_base@DV?$string_output_adapter@D@__crt_stdio_output@@@2@@__crt_stdio_output@@AAE_NXZ 1005d6e0 f i libucrtd:output.obj
 0001:0005c710       ?type_case_d@?$output_processor@DV?$string_output_adapter@D@__crt_stdio_output@@V?$positional_parameter_base@DV?$string_output_adapter@D@__crt_stdio_output@@@2@@__crt_stdio_output@@AAE_NXZ 1005d710 f i libucrtd:output.obj
 0001:0005c740       ?type_case_d@?$output_processor@DV?$string_output_adapter@D@__crt_stdio_output@@V?$standard_base@DV?$string_output_adapter@D@__crt_stdio_output@@@2@@__crt_stdio_output@@AAE_NXZ 1005d740 f i libucrtd:output.obj
 0001:0005c770       ?type_case_d@?$output_processor@_WV?$stream_output_adapter@_W@__crt_stdio_output@@V?$format_validation_base@_WV?$stream_output_adapter@_W@__crt_stdio_output@@@2@@__crt_stdio_output@@AAE_NXZ 1005d770 f i libucrtd:output.obj
 0001:0005c7a0       ?type_case_d@?$output_processor@_WV?$stream_output_adapter@_W@__crt_stdio_output@@V?$positional_parameter_base@_WV?$stream_output_adapter@_W@__crt_stdio_output@@@2@@__crt_stdio_output@@AAE_NXZ 1005d7a0 f i libucrtd:output.obj
 0001:0005c7d0       ?type_case_d@?$output_processor@_WV?$stream_output_adapter@_W@__crt_stdio_output@@V?$standard_base@_WV?$stream_output_adapter@_W@__crt_stdio_output@@@2@@__crt_stdio_output@@AAE_NXZ 1005d7d0 f i libucrtd:output.obj
 0001:0005c800       ?type_case_d@?$output_processor@_WV?$string_output_adapter@_W@__crt_stdio_output@@V?$format_validation_base@_WV?$string_output_adapter@_W@__crt_stdio_output@@@2@@__crt_stdio_output@@AAE_NXZ 1005d800 f i libucrtd:output.obj
 0001:0005c830       ?type_case_d@?$output_processor@_WV?$string_output_adapter@_W@__crt_stdio_output@@V?$positional_parameter_base@_WV?$string_output_adapter@_W@__crt_stdio_output@@@2@@__crt_stdio_output@@AAE_NXZ 1005d830 f i libucrtd:output.obj
 0001:0005c860       ?type_case_d@?$output_processor@_WV?$string_output_adapter@_W@__crt_stdio_output@@V?$standard_base@_WV?$string_output_adapter@_W@__crt_stdio_output@@@2@@__crt_stdio_output@@AAE_NXZ 1005d860 f i libucrtd:output.obj
 0001:0005c890       ?type_case_integer@?$output_processor@DV?$stream_output_adapter@D@__crt_stdio_output@@V?$format_validation_base@DV?$stream_output_adapter@D@__crt_stdio_output@@@2@@__crt_stdio_output@@AAE_NI_N@Z 1005d890 f i libucrtd:output.obj
 0001:0005cbe0       ?type_case_integer@?$output_processor@DV?$stream_output_adapter@D@__crt_stdio_output@@V?$positional_parameter_base@DV?$stream_output_adapter@D@__crt_stdio_output@@@2@@__crt_stdio_output@@AAE_NI_N@Z 1005dbe0 f i libucrtd:output.obj
 0001:0005cf30       ?type_case_integer@?$output_processor@DV?$stream_output_adapter@D@__crt_stdio_output@@V?$standard_base@DV?$stream_output_adapter@D@__crt_stdio_output@@@2@@__crt_stdio_output@@AAE_NI_N@Z 1005df30 f i libucrtd:output.obj
 0001:0005d280       ?type_case_integer@?$output_processor@DV?$string_output_adapter@D@__crt_stdio_output@@V?$format_validation_base@DV?$string_output_adapter@D@__crt_stdio_output@@@2@@__crt_stdio_output@@AAE_NI_N@Z 1005e280 f i libucrtd:output.obj
 0001:0005d5d0       ?type_case_integer@?$output_processor@DV?$string_output_adapter@D@__crt_stdio_output@@V?$positional_parameter_base@DV?$string_output_adapter@D@__crt_stdio_output@@@2@@__crt_stdio_output@@AAE_NI_N@Z 1005e5d0 f i libucrtd:output.obj
 0001:0005d920       ?type_case_integer@?$output_processor@DV?$string_output_adapter@D@__crt_stdio_output@@V?$standard_base@DV?$string_output_adapter@D@__crt_stdio_output@@@2@@__crt_stdio_output@@AAE_NI_N@Z 1005e920 f i libucrtd:output.obj
 0001:0005dc70       ?type_case_integer@?$output_processor@_WV?$stream_output_adapter@_W@__crt_stdio_output@@V?$format_validation_base@_WV?$stream_output_adapter@_W@__crt_stdio_output@@@2@@__crt_stdio_output@@AAE_NI_N@Z 1005ec70 f i libucrtd:output.obj
 0001:0005dfc0       ?type_case_integer@?$output_processor@_WV?$stream_output_adapter@_W@__crt_stdio_output@@V?$positional_parameter_base@_WV?$stream_output_adapter@_W@__crt_stdio_output@@@2@@__crt_stdio_output@@AAE_NI_N@Z 1005efc0 f i libucrtd:output.obj
 0001:0005e310       ?type_case_integer@?$output_processor@_WV?$stream_output_adapter@_W@__crt_stdio_output@@V?$standard_base@_WV?$stream_output_adapter@_W@__crt_stdio_output@@@2@@__crt_stdio_output@@AAE_NI_N@Z 1005f310 f i libucrtd:output.obj
 0001:0005e660       ?type_case_integer@?$output_processor@_WV?$string_output_adapter@_W@__crt_stdio_output@@V?$format_validation_base@_WV?$string_output_adapter@_W@__crt_stdio_output@@@2@@__crt_stdio_output@@AAE_NI_N@Z 1005f660 f i libucrtd:output.obj
 0001:0005e9b0       ?type_case_integer@?$output_processor@_WV?$string_output_adapter@_W@__crt_stdio_output@@V?$positional_parameter_base@_WV?$string_output_adapter@_W@__crt_stdio_output@@@2@@__crt_stdio_output@@AAE_NI_N@Z 1005f9b0 f i libucrtd:output.obj
 0001:0005ed00       ?type_case_integer@?$output_processor@_WV?$string_output_adapter@_W@__crt_stdio_output@@V?$standard_base@_WV?$string_output_adapter@_W@__crt_stdio_output@@@2@@__crt_stdio_output@@AAE_NI_N@Z 1005fd00 f i libucrtd:output.obj
 0001:0005f050       ?type_case_n@?$output_processor@DV?$stream_output_adapter@D@__crt_stdio_output@@V?$format_validation_base@DV?$stream_output_adapter@D@__crt_stdio_output@@@2@@__crt_stdio_output@@AAE_NXZ 10060050 f i libucrtd:output.obj
 0001:0005f240       ?type_case_n@?$output_processor@DV?$stream_output_adapter@D@__crt_stdio_output@@V?$positional_parameter_base@DV?$stream_output_adapter@D@__crt_stdio_output@@@2@@__crt_stdio_output@@AAE_NXZ 10060240 f i libucrtd:output.obj
 0001:0005f430       ?type_case_n@?$output_processor@DV?$stream_output_adapter@D@__crt_stdio_output@@V?$standard_base@DV?$stream_output_adapter@D@__crt_stdio_output@@@2@@__crt_stdio_output@@AAE_NXZ 10060430 f i libucrtd:output.obj
 0001:0005f620       ?type_case_n@?$output_processor@DV?$string_output_adapter@D@__crt_stdio_output@@V?$format_validation_base@DV?$string_output_adapter@D@__crt_stdio_output@@@2@@__crt_stdio_output@@AAE_NXZ 10060620 f i libucrtd:output.obj
 0001:0005f810       ?type_case_n@?$output_processor@DV?$string_output_adapter@D@__crt_stdio_output@@V?$positional_parameter_base@DV?$string_output_adapter@D@__crt_stdio_output@@@2@@__crt_stdio_output@@AAE_NXZ 10060810 f i libucrtd:output.obj
 0001:0005fa00       ?type_case_n@?$output_processor@DV?$string_output_adapter@D@__crt_stdio_output@@V?$standard_base@DV?$string_output_adapter@D@__crt_stdio_output@@@2@@__crt_stdio_output@@AAE_NXZ 10060a00 f i libucrtd:output.obj
 0001:0005fbf0       ?type_case_n@?$output_processor@_WV?$stream_output_adapter@_W@__crt_stdio_output@@V?$format_validation_base@_WV?$stream_output_adapter@_W@__crt_stdio_output@@@2@@__crt_stdio_output@@AAE_NXZ 10060bf0 f i libucrtd:output.obj
 0001:0005fde0       ?type_case_n@?$output_processor@_WV?$stream_output_adapter@_W@__crt_stdio_output@@V?$positional_parameter_base@_WV?$stream_output_adapter@_W@__crt_stdio_output@@@2@@__crt_stdio_output@@AAE_NXZ 10060de0 f i libucrtd:output.obj
 0001:0005ffd0       ?type_case_n@?$output_processor@_WV?$stream_output_adapter@_W@__crt_stdio_output@@V?$standard_base@_WV?$stream_output_adapter@_W@__crt_stdio_output@@@2@@__crt_stdio_output@@AAE_NXZ 10060fd0 f i libucrtd:output.obj
 0001:000601c0       ?type_case_n@?$output_processor@_WV?$string_output_adapter@_W@__crt_stdio_output@@V?$format_validation_base@_WV?$string_output_adapter@_W@__crt_stdio_output@@@2@@__crt_stdio_output@@AAE_NXZ 100611c0 f i libucrtd:output.obj
 0001:000603b0       ?type_case_n@?$output_processor@_WV?$string_output_adapter@_W@__crt_stdio_output@@V?$positional_parameter_base@_WV?$string_output_adapter@_W@__crt_stdio_output@@@2@@__crt_stdio_output@@AAE_NXZ 100613b0 f i libucrtd:output.obj
 0001:000605a0       ?type_case_n@?$output_processor@_WV?$string_output_adapter@_W@__crt_stdio_output@@V?$standard_base@_WV?$string_output_adapter@_W@__crt_stdio_output@@@2@@__crt_stdio_output@@AAE_NXZ 100615a0 f i libucrtd:output.obj
 0001:00060790       ?type_case_o@?$output_processor@DV?$stream_output_adapter@D@__crt_stdio_output@@V?$format_validation_base@DV?$stream_output_adapter@D@__crt_stdio_output@@@2@@__crt_stdio_output@@AAE_NXZ 10061790 f i libucrtd:output.obj
 0001:000607d0       ?type_case_o@?$output_processor@DV?$stream_output_adapter@D@__crt_stdio_output@@V?$positional_parameter_base@DV?$stream_output_adapter@D@__crt_stdio_output@@@2@@__crt_stdio_output@@AAE_NXZ 100617d0 f i libucrtd:output.obj
 0001:00060810       ?type_case_o@?$output_processor@DV?$stream_output_adapter@D@__crt_stdio_output@@V?$standard_base@DV?$stream_output_adapter@D@__crt_stdio_output@@@2@@__crt_stdio_output@@AAE_NXZ 10061810 f i libucrtd:output.obj
 0001:00060850       ?type_case_o@?$output_processor@DV?$string_output_adapter@D@__crt_stdio_output@@V?$format_validation_base@DV?$string_output_adapter@D@__crt_stdio_output@@@2@@__crt_stdio_output@@AAE_NXZ 10061850 f i libucrtd:output.obj
 0001:00060890       ?type_case_o@?$output_processor@DV?$string_output_adapter@D@__crt_stdio_output@@V?$positional_parameter_base@DV?$string_output_adapter@D@__crt_stdio_output@@@2@@__crt_stdio_output@@AAE_NXZ 10061890 f i libucrtd:output.obj
 0001:000608d0       ?type_case_o@?$output_processor@DV?$string_output_adapter@D@__crt_stdio_output@@V?$standard_base@DV?$string_output_adapter@D@__crt_stdio_output@@@2@@__crt_stdio_output@@AAE_NXZ 100618d0 f i libucrtd:output.obj
 0001:00060910       ?type_case_o@?$output_processor@_WV?$stream_output_adapter@_W@__crt_stdio_output@@V?$format_validation_base@_WV?$stream_output_adapter@_W@__crt_stdio_output@@@2@@__crt_stdio_output@@AAE_NXZ 10061910 f i libucrtd:output.obj
 0001:00060950       ?type_case_o@?$output_processor@_WV?$stream_output_adapter@_W@__crt_stdio_output@@V?$positional_parameter_base@_WV?$stream_output_adapter@_W@__crt_stdio_output@@@2@@__crt_stdio_output@@AAE_NXZ 10061950 f i libucrtd:output.obj
 0001:00060990       ?type_case_o@?$output_processor@_WV?$stream_output_adapter@_W@__crt_stdio_output@@V?$standard_base@_WV?$stream_output_adapter@_W@__crt_stdio_output@@@2@@__crt_stdio_output@@AAE_NXZ 10061990 f i libucrtd:output.obj
 0001:000609d0       ?type_case_o@?$output_processor@_WV?$string_output_adapter@_W@__crt_stdio_output@@V?$format_validation_base@_WV?$string_output_adapter@_W@__crt_stdio_output@@@2@@__crt_stdio_output@@AAE_NXZ 100619d0 f i libucrtd:output.obj
 0001:00060a10       ?type_case_o@?$output_processor@_WV?$string_output_adapter@_W@__crt_stdio_output@@V?$positional_parameter_base@_WV?$string_output_adapter@_W@__crt_stdio_output@@@2@@__crt_stdio_output@@AAE_NXZ 10061a10 f i libucrtd:output.obj
 0001:00060a50       ?type_case_o@?$output_processor@_WV?$string_output_adapter@_W@__crt_stdio_output@@V?$standard_base@_WV?$string_output_adapter@_W@__crt_stdio_output@@@2@@__crt_stdio_output@@AAE_NXZ 10061a50 f i libucrtd:output.obj
 0001:00060a90       ?type_case_p@?$output_processor@DV?$stream_output_adapter@D@__crt_stdio_output@@V?$format_validation_base@DV?$stream_output_adapter@D@__crt_stdio_output@@@2@@__crt_stdio_output@@AAE_NXZ 10061a90 f i libucrtd:output.obj
 0001:00060ac0       ?type_case_p@?$output_processor@DV?$stream_output_adapter@D@__crt_stdio_output@@V?$positional_parameter_base@DV?$stream_output_adapter@D@__crt_stdio_output@@@2@@__crt_stdio_output@@AAE_NXZ 10061ac0 f i libucrtd:output.obj
 0001:00060af0       ?type_case_p@?$output_processor@DV?$stream_output_adapter@D@__crt_stdio_output@@V?$standard_base@DV?$stream_output_adapter@D@__crt_stdio_output@@@2@@__crt_stdio_output@@AAE_NXZ 10061af0 f i libucrtd:output.obj
 0001:00060b20       ?type_case_p@?$output_processor@DV?$string_output_adapter@D@__crt_stdio_output@@V?$format_validation_base@DV?$string_output_adapter@D@__crt_stdio_output@@@2@@__crt_stdio_output@@AAE_NXZ 10061b20 f i libucrtd:output.obj
 0001:00060b50       ?type_case_p@?$output_processor@DV?$string_output_adapter@D@__crt_stdio_output@@V?$positional_parameter_base@DV?$string_output_adapter@D@__crt_stdio_output@@@2@@__crt_stdio_output@@AAE_NXZ 10061b50 f i libucrtd:output.obj
 0001:00060b80       ?type_case_p@?$output_processor@DV?$string_output_adapter@D@__crt_stdio_output@@V?$standard_base@DV?$string_output_adapter@D@__crt_stdio_output@@@2@@__crt_stdio_output@@AAE_NXZ 10061b80 f i libucrtd:output.obj
 0001:00060bb0       ?type_case_p@?$output_processor@_WV?$stream_output_adapter@_W@__crt_stdio_output@@V?$format_validation_base@_WV?$stream_output_adapter@_W@__crt_stdio_output@@@2@@__crt_stdio_output@@AAE_NXZ 10061bb0 f i libucrtd:output.obj
 0001:00060be0       ?type_case_p@?$output_processor@_WV?$stream_output_adapter@_W@__crt_stdio_output@@V?$positional_parameter_base@_WV?$stream_output_adapter@_W@__crt_stdio_output@@@2@@__crt_stdio_output@@AAE_NXZ 10061be0 f i libucrtd:output.obj
 0001:00060c10       ?type_case_p@?$output_processor@_WV?$stream_output_adapter@_W@__crt_stdio_output@@V?$standard_base@_WV?$stream_output_adapter@_W@__crt_stdio_output@@@2@@__crt_stdio_output@@AAE_NXZ 10061c10 f i libucrtd:output.obj
 0001:00060c40       ?type_case_p@?$output_processor@_WV?$string_output_adapter@_W@__crt_stdio_output@@V?$format_validation_base@_WV?$string_output_adapter@_W@__crt_stdio_output@@@2@@__crt_stdio_output@@AAE_NXZ 10061c40 f i libucrtd:output.obj
 0001:00060c70       ?type_case_p@?$output_processor@_WV?$string_output_adapter@_W@__crt_stdio_output@@V?$positional_parameter_base@_WV?$string_output_adapter@_W@__crt_stdio_output@@@2@@__crt_stdio_output@@AAE_NXZ 10061c70 f i libucrtd:output.obj
 0001:00060ca0       ?type_case_p@?$output_processor@_WV?$string_output_adapter@_W@__crt_stdio_output@@V?$standard_base@_WV?$string_output_adapter@_W@__crt_stdio_output@@@2@@__crt_stdio_output@@AAE_NXZ 10061ca0 f i libucrtd:output.obj
 0001:00060cd0       ?type_case_s@?$output_processor@DV?$stream_output_adapter@D@__crt_stdio_output@@V?$format_validation_base@DV?$stream_output_adapter@D@__crt_stdio_output@@@2@@__crt_stdio_output@@AAE_NXZ 10061cd0 f i libucrtd:output.obj
 0001:00060dc0       ?type_case_s@?$output_processor@DV?$stream_output_adapter@D@__crt_stdio_output@@V?$positional_parameter_base@DV?$stream_output_adapter@D@__crt_stdio_output@@@2@@__crt_stdio_output@@AAE_NXZ 10061dc0 f i libucrtd:output.obj
 0001:00060eb0       ?type_case_s@?$output_processor@DV?$stream_output_adapter@D@__crt_stdio_output@@V?$standard_base@DV?$stream_output_adapter@D@__crt_stdio_output@@@2@@__crt_stdio_output@@AAE_NXZ 10061eb0 f i libucrtd:output.obj
 0001:00060fa0       ?type_case_s@?$output_processor@DV?$string_output_adapter@D@__crt_stdio_output@@V?$format_validation_base@DV?$string_output_adapter@D@__crt_stdio_output@@@2@@__crt_stdio_output@@AAE_NXZ 10061fa0 f i libucrtd:output.obj
 0001:00061090       ?type_case_s@?$output_processor@DV?$string_output_adapter@D@__crt_stdio_output@@V?$positional_parameter_base@DV?$string_output_adapter@D@__crt_stdio_output@@@2@@__crt_stdio_output@@AAE_NXZ 10062090 f i libucrtd:output.obj
 0001:00061180       ?type_case_s@?$output_processor@DV?$string_output_adapter@D@__crt_stdio_output@@V?$standard_base@DV?$string_output_adapter@D@__crt_stdio_output@@@2@@__crt_stdio_output@@AAE_NXZ 10062180 f i libucrtd:output.obj
 0001:00061270       ?type_case_s@?$output_processor@_WV?$stream_output_adapter@_W@__crt_stdio_output@@V?$format_validation_base@_WV?$stream_output_adapter@_W@__crt_stdio_output@@@2@@__crt_stdio_output@@AAE_NXZ 10062270 f i libucrtd:output.obj
 0001:00061360       ?type_case_s@?$output_processor@_WV?$stream_output_adapter@_W@__crt_stdio_output@@V?$positional_parameter_base@_WV?$stream_output_adapter@_W@__crt_stdio_output@@@2@@__crt_stdio_output@@AAE_NXZ 10062360 f i libucrtd:output.obj
 0001:00061450       ?type_case_s@?$output_processor@_WV?$stream_output_adapter@_W@__crt_stdio_output@@V?$standard_base@_WV?$stream_output_adapter@_W@__crt_stdio_output@@@2@@__crt_stdio_output@@AAE_NXZ 10062450 f i libucrtd:output.obj
 0001:00061540       ?type_case_s@?$output_processor@_WV?$string_output_adapter@_W@__crt_stdio_output@@V?$format_validation_base@_WV?$string_output_adapter@_W@__crt_stdio_output@@@2@@__crt_stdio_output@@AAE_NXZ 10062540 f i libucrtd:output.obj
 0001:00061630       ?type_case_s@?$output_processor@_WV?$string_output_adapter@_W@__crt_stdio_output@@V?$positional_parameter_base@_WV?$string_output_adapter@_W@__crt_stdio_output@@@2@@__crt_stdio_output@@AAE_NXZ 10062630 f i libucrtd:output.obj
 0001:00061720       ?type_case_s@?$output_processor@_WV?$string_output_adapter@_W@__crt_stdio_output@@V?$standard_base@_WV?$string_output_adapter@_W@__crt_stdio_output@@@2@@__crt_stdio_output@@AAE_NXZ 10062720 f i libucrtd:output.obj
 0001:00061810       ?type_case_s_compute_narrow_string_length@?$output_processor@DV?$stream_output_adapter@D@__crt_stdio_output@@V?$format_validation_base@DV?$stream_output_adapter@D@__crt_stdio_output@@@2@@__crt_stdio_output@@ABEHHD@Z 10062810 f i libucrtd:output.obj
 0001:00061840       ?type_case_s_compute_narrow_string_length@?$output_processor@DV?$stream_output_adapter@D@__crt_stdio_output@@V?$positional_parameter_base@DV?$stream_output_adapter@D@__crt_stdio_output@@@2@@__crt_stdio_output@@ABEHHD@Z 10062840 f i libucrtd:output.obj
 0001:00061870       ?type_case_s_compute_narrow_string_length@?$output_processor@DV?$stream_output_adapter@D@__crt_stdio_output@@V?$standard_base@DV?$stream_output_adapter@D@__crt_stdio_output@@@2@@__crt_stdio_output@@ABEHHD@Z 10062870 f i libucrtd:output.obj
 0001:000618a0       ?type_case_s_compute_narrow_string_length@?$output_processor@DV?$string_output_adapter@D@__crt_stdio_output@@V?$format_validation_base@DV?$string_output_adapter@D@__crt_stdio_output@@@2@@__crt_stdio_output@@ABEHHD@Z 100628a0 f i libucrtd:output.obj
 0001:000618d0       ?type_case_s_compute_narrow_string_length@?$output_processor@DV?$string_output_adapter@D@__crt_stdio_output@@V?$positional_parameter_base@DV?$string_output_adapter@D@__crt_stdio_output@@@2@@__crt_stdio_output@@ABEHHD@Z 100628d0 f i libucrtd:output.obj
 0001:00061900       ?type_case_s_compute_narrow_string_length@?$output_processor@DV?$string_output_adapter@D@__crt_stdio_output@@V?$standard_base@DV?$string_output_adapter@D@__crt_stdio_output@@@2@@__crt_stdio_output@@ABEHHD@Z 10062900 f i libucrtd:output.obj
 0001:00061930       ?type_case_s_compute_narrow_string_length@?$output_processor@_WV?$stream_output_adapter@_W@__crt_stdio_output@@V?$format_validation_base@_WV?$stream_output_adapter@_W@__crt_stdio_output@@@2@@__crt_stdio_output@@ABEHH_W@Z 10062930 f i libucrtd:output.obj
 0001:000619a0       ?type_case_s_compute_narrow_string_length@?$output_processor@_WV?$stream_output_adapter@_W@__crt_stdio_output@@V?$positional_parameter_base@_WV?$stream_output_adapter@_W@__crt_stdio_output@@@2@@__crt_stdio_output@@ABEHH_W@Z 100629a0 f i libucrtd:output.obj
 0001:00061a10       ?type_case_s_compute_narrow_string_length@?$output_processor@_WV?$stream_output_adapter@_W@__crt_stdio_output@@V?$standard_base@_WV?$stream_output_adapter@_W@__crt_stdio_output@@@2@@__crt_stdio_output@@ABEHH_W@Z 10062a10 f i libucrtd:output.obj
 0001:00061a80       ?type_case_s_compute_narrow_string_length@?$output_processor@_WV?$string_output_adapter@_W@__crt_stdio_output@@V?$format_validation_base@_WV?$string_output_adapter@_W@__crt_stdio_output@@@2@@__crt_stdio_output@@ABEHH_W@Z 10062a80 f i libucrtd:output.obj
 0001:00061af0       ?type_case_s_compute_narrow_string_length@?$output_processor@_WV?$string_output_adapter@_W@__crt_stdio_output@@V?$positional_parameter_base@_WV?$string_output_adapter@_W@__crt_stdio_output@@@2@@__crt_stdio_output@@ABEHH_W@Z 10062af0 f i libucrtd:output.obj
 0001:00061b60       ?type_case_s_compute_narrow_string_length@?$output_processor@_WV?$string_output_adapter@_W@__crt_stdio_output@@V?$standard_base@_WV?$string_output_adapter@_W@__crt_stdio_output@@@2@@__crt_stdio_output@@ABEHH_W@Z 10062b60 f i libucrtd:output.obj
 0001:00061bd0       ?type_case_u@?$output_processor@DV?$stream_output_adapter@D@__crt_stdio_output@@V?$format_validation_base@DV?$stream_output_adapter@D@__crt_stdio_output@@@2@@__crt_stdio_output@@AAE_NXZ 10062bd0 f i libucrtd:output.obj
 0001:00061bf0       ?type_case_u@?$output_processor@DV?$stream_output_adapter@D@__crt_stdio_output@@V?$positional_parameter_base@DV?$stream_output_adapter@D@__crt_stdio_output@@@2@@__crt_stdio_output@@AAE_NXZ 10062bf0 f i libucrtd:output.obj
 0001:00061c10       ?type_case_u@?$output_processor@DV?$stream_output_adapter@D@__crt_stdio_output@@V?$standard_base@DV?$stream_output_adapter@D@__crt_stdio_output@@@2@@__crt_stdio_output@@AAE_NXZ 10062c10 f i libucrtd:output.obj
 0001:00061c30       ?type_case_u@?$output_processor@DV?$string_output_adapter@D@__crt_stdio_output@@V?$format_validation_base@DV?$string_output_adapter@D@__crt_stdio_output@@@2@@__crt_stdio_output@@AAE_NXZ 10062c30 f i libucrtd:output.obj
 0001:00061c50       ?type_case_u@?$output_processor@DV?$string_output_adapter@D@__crt_stdio_output@@V?$positional_parameter_base@DV?$string_output_adapter@D@__crt_stdio_output@@@2@@__crt_stdio_output@@AAE_NXZ 10062c50 f i libucrtd:output.obj
 0001:00061c70       ?type_case_u@?$output_processor@DV?$string_output_adapter@D@__crt_stdio_output@@V?$standard_base@DV?$string_output_adapter@D@__crt_stdio_output@@@2@@__crt_stdio_output@@AAE_NXZ 10062c70 f i libucrtd:output.obj
 0001:00061c90       ?type_case_u@?$output_processor@_WV?$stream_output_adapter@_W@__crt_stdio_output@@V?$format_validation_base@_WV?$stream_output_adapter@_W@__crt_stdio_output@@@2@@__crt_stdio_output@@AAE_NXZ 10062c90 f i libucrtd:output.obj
 0001:00061cb0       ?type_case_u@?$output_processor@_WV?$stream_output_adapter@_W@__crt_stdio_output@@V?$positional_parameter_base@_WV?$stream_output_adapter@_W@__crt_stdio_output@@@2@@__crt_stdio_output@@AAE_NXZ 10062cb0 f i libucrtd:output.obj
 0001:00061cd0       ?type_case_u@?$output_processor@_WV?$stream_output_adapter@_W@__crt_stdio_output@@V?$standard_base@_WV?$stream_output_adapter@_W@__crt_stdio_output@@@2@@__crt_stdio_output@@AAE_NXZ 10062cd0 f i libucrtd:output.obj
 0001:00061cf0       ?type_case_u@?$output_processor@_WV?$string_output_adapter@_W@__crt_stdio_output@@V?$format_validation_base@_WV?$string_output_adapter@_W@__crt_stdio_output@@@2@@__crt_stdio_output@@AAE_NXZ 10062cf0 f i libucrtd:output.obj
 0001:00061d10       ?type_case_u@?$output_processor@_WV?$string_output_adapter@_W@__crt_stdio_output@@V?$positional_parameter_base@_WV?$string_output_adapter@_W@__crt_stdio_output@@@2@@__crt_stdio_output@@AAE_NXZ 10062d10 f i libucrtd:output.obj
 0001:00061d30       ?type_case_u@?$output_processor@_WV?$string_output_adapter@_W@__crt_stdio_output@@V?$standard_base@_WV?$string_output_adapter@_W@__crt_stdio_output@@@2@@__crt_stdio_output@@AAE_NXZ 10062d30 f i libucrtd:output.obj
 0001:00061d50       ?type_case_x@?$output_processor@DV?$stream_output_adapter@D@__crt_stdio_output@@V?$format_validation_base@DV?$stream_output_adapter@D@__crt_stdio_output@@@2@@__crt_stdio_output@@AAE_NXZ 10062d50 f i libucrtd:output.obj
 0001:00061d70       ?type_case_x@?$output_processor@DV?$stream_output_adapter@D@__crt_stdio_output@@V?$positional_parameter_base@DV?$stream_output_adapter@D@__crt_stdio_output@@@2@@__crt_stdio_output@@AAE_NXZ 10062d70 f i libucrtd:output.obj
 0001:00061d90       ?type_case_x@?$output_processor@DV?$stream_output_adapter@D@__crt_stdio_output@@V?$standard_base@DV?$stream_output_adapter@D@__crt_stdio_output@@@2@@__crt_stdio_output@@AAE_NXZ 10062d90 f i libucrtd:output.obj
 0001:00061db0       ?type_case_x@?$output_processor@DV?$string_output_adapter@D@__crt_stdio_output@@V?$format_validation_base@DV?$string_output_adapter@D@__crt_stdio_output@@@2@@__crt_stdio_output@@AAE_NXZ 10062db0 f i libucrtd:output.obj
 0001:00061dd0       ?type_case_x@?$output_processor@DV?$string_output_adapter@D@__crt_stdio_output@@V?$positional_parameter_base@DV?$string_output_adapter@D@__crt_stdio_output@@@2@@__crt_stdio_output@@AAE_NXZ 10062dd0 f i libucrtd:output.obj
 0001:00061df0       ?type_case_x@?$output_processor@DV?$string_output_adapter@D@__crt_stdio_output@@V?$standard_base@DV?$string_output_adapter@D@__crt_stdio_output@@@2@@__crt_stdio_output@@AAE_NXZ 10062df0 f i libucrtd:output.obj
 0001:00061e10       ?type_case_x@?$output_processor@_WV?$stream_output_adapter@_W@__crt_stdio_output@@V?$format_validation_base@_WV?$stream_output_adapter@_W@__crt_stdio_output@@@2@@__crt_stdio_output@@AAE_NXZ 10062e10 f i libucrtd:output.obj
 0001:00061e30       ?type_case_x@?$output_processor@_WV?$stream_output_adapter@_W@__crt_stdio_output@@V?$positional_parameter_base@_WV?$stream_output_adapter@_W@__crt_stdio_output@@@2@@__crt_stdio_output@@AAE_NXZ 10062e30 f i libucrtd:output.obj
 0001:00061e50       ?type_case_x@?$output_processor@_WV?$stream_output_adapter@_W@__crt_stdio_output@@V?$standard_base@_WV?$stream_output_adapter@_W@__crt_stdio_output@@@2@@__crt_stdio_output@@AAE_NXZ 10062e50 f i libucrtd:output.obj
 0001:00061e70       ?type_case_x@?$output_processor@_WV?$string_output_adapter@_W@__crt_stdio_output@@V?$format_validation_base@_WV?$string_output_adapter@_W@__crt_stdio_output@@@2@@__crt_stdio_output@@AAE_NXZ 10062e70 f i libucrtd:output.obj
 0001:00061e90       ?type_case_x@?$output_processor@_WV?$string_output_adapter@_W@__crt_stdio_output@@V?$positional_parameter_base@_WV?$string_output_adapter@_W@__crt_stdio_output@@@2@@__crt_stdio_output@@AAE_NXZ 10062e90 f i libucrtd:output.obj
 0001:00061eb0       ?type_case_x@?$output_processor@_WV?$string_output_adapter@_W@__crt_stdio_output@@V?$standard_base@_WV?$string_output_adapter@_W@__crt_stdio_output@@@2@@__crt_stdio_output@@AAE_NXZ 10062eb0 f i libucrtd:output.obj
 0001:00061ed0       ?unset_flag@?$output_processor@DV?$stream_output_adapter@D@__crt_stdio_output@@V?$format_validation_base@DV?$stream_output_adapter@D@__crt_stdio_output@@@2@@__crt_stdio_output@@AAEXI@Z 10062ed0 f i libucrtd:output.obj
 0001:00061ef0       ?unset_flag@?$output_processor@DV?$stream_output_adapter@D@__crt_stdio_output@@V?$positional_parameter_base@DV?$stream_output_adapter@D@__crt_stdio_output@@@2@@__crt_stdio_output@@AAEXI@Z 10062ef0 f i libucrtd:output.obj
 0001:00061f10       ?unset_flag@?$output_processor@DV?$stream_output_adapter@D@__crt_stdio_output@@V?$standard_base@DV?$stream_output_adapter@D@__crt_stdio_output@@@2@@__crt_stdio_output@@AAEXI@Z 10062f10 f i libucrtd:output.obj
 0001:00061f30       ?unset_flag@?$output_processor@DV?$string_output_adapter@D@__crt_stdio_output@@V?$format_validation_base@DV?$string_output_adapter@D@__crt_stdio_output@@@2@@__crt_stdio_output@@AAEXI@Z 10062f30 f i libucrtd:output.obj
 0001:00061f50       ?unset_flag@?$output_processor@DV?$string_output_adapter@D@__crt_stdio_output@@V?$positional_parameter_base@DV?$string_output_adapter@D@__crt_stdio_output@@@2@@__crt_stdio_output@@AAEXI@Z 10062f50 f i libucrtd:output.obj
 0001:00061f70       ?unset_flag@?$output_processor@DV?$string_output_adapter@D@__crt_stdio_output@@V?$standard_base@DV?$string_output_adapter@D@__crt_stdio_output@@@2@@__crt_stdio_output@@AAEXI@Z 10062f70 f i libucrtd:output.obj
 0001:00061f90       ?unset_flag@?$output_processor@_WV?$stream_output_adapter@_W@__crt_stdio_output@@V?$format_validation_base@_WV?$stream_output_adapter@_W@__crt_stdio_output@@@2@@__crt_stdio_output@@AAEXI@Z 10062f90 f i libucrtd:output.obj
 0001:00061fb0       ?unset_flag@?$output_processor@_WV?$stream_output_adapter@_W@__crt_stdio_output@@V?$positional_parameter_base@_WV?$stream_output_adapter@_W@__crt_stdio_output@@@2@@__crt_stdio_output@@AAEXI@Z 10062fb0 f i libucrtd:output.obj
 0001:00061fd0       ?unset_flag@?$output_processor@_WV?$stream_output_adapter@_W@__crt_stdio_output@@V?$standard_base@_WV?$stream_output_adapter@_W@__crt_stdio_output@@@2@@__crt_stdio_output@@AAEXI@Z 10062fd0 f i libucrtd:output.obj
 0001:00061ff0       ?unset_flag@?$output_processor@_WV?$string_output_adapter@_W@__crt_stdio_output@@V?$format_validation_base@_WV?$string_output_adapter@_W@__crt_stdio_output@@@2@@__crt_stdio_output@@AAEXI@Z 10062ff0 f i libucrtd:output.obj
 0001:00062010       ?unset_flag@?$output_processor@_WV?$string_output_adapter@_W@__crt_stdio_output@@V?$positional_parameter_base@_WV?$string_output_adapter@_W@__crt_stdio_output@@@2@@__crt_stdio_output@@AAEXI@Z 10063010 f i libucrtd:output.obj
 0001:00062030       ?unset_flag@?$output_processor@_WV?$string_output_adapter@_W@__crt_stdio_output@@V?$standard_base@_WV?$string_output_adapter@_W@__crt_stdio_output@@@2@@__crt_stdio_output@@AAEXI@Z 10063030 f i libucrtd:output.obj
 0001:00062050       ?update_field_width@?$positional_parameter_base@DV?$stream_output_adapter@D@__crt_stdio_output@@@__crt_stdio_output@@IAE_NXZ 10063050 f i libucrtd:output.obj
 0001:000621d0       ?update_field_width@?$positional_parameter_base@DV?$string_output_adapter@D@__crt_stdio_output@@@__crt_stdio_output@@IAE_NXZ 100631d0 f i libucrtd:output.obj
 0001:00062350       ?update_field_width@?$positional_parameter_base@_WV?$stream_output_adapter@_W@__crt_stdio_output@@@__crt_stdio_output@@IAE_NXZ 10063350 f i libucrtd:output.obj
 0001:000624d0       ?update_field_width@?$positional_parameter_base@_WV?$string_output_adapter@_W@__crt_stdio_output@@@__crt_stdio_output@@IAE_NXZ 100634d0 f i libucrtd:output.obj
 0001:00062650       ?update_field_width@?$standard_base@DV?$stream_output_adapter@D@__crt_stdio_output@@@__crt_stdio_output@@IAE_NXZ 10063650 f i libucrtd:output.obj
 0001:00062680       ?update_field_width@?$standard_base@DV?$string_output_adapter@D@__crt_stdio_output@@@__crt_stdio_output@@IAE_NXZ 10063680 f i libucrtd:output.obj
 0001:000626b0       ?update_field_width@?$standard_base@_WV?$stream_output_adapter@_W@__crt_stdio_output@@@__crt_stdio_output@@IAE_NXZ 100636b0 f i libucrtd:output.obj
 0001:000626e0       ?update_field_width@?$standard_base@_WV?$string_output_adapter@_W@__crt_stdio_output@@@__crt_stdio_output@@IAE_NXZ 100636e0 f i libucrtd:output.obj
 0001:00062710       ?update_precision@?$positional_parameter_base@DV?$stream_output_adapter@D@__crt_stdio_output@@@__crt_stdio_output@@IAE_NXZ 10063710 f i libucrtd:output.obj
 0001:00062890       ?update_precision@?$positional_parameter_base@DV?$string_output_adapter@D@__crt_stdio_output@@@__crt_stdio_output@@IAE_NXZ 10063890 f i libucrtd:output.obj
 0001:00062a10       ?update_precision@?$positional_parameter_base@_WV?$stream_output_adapter@_W@__crt_stdio_output@@@__crt_stdio_output@@IAE_NXZ 10063a10 f i libucrtd:output.obj
 0001:00062b90       ?update_precision@?$positional_parameter_base@_WV?$string_output_adapter@_W@__crt_stdio_output@@@__crt_stdio_output@@IAE_NXZ 10063b90 f i libucrtd:output.obj
 0001:00062d10       ?update_precision@?$standard_base@DV?$stream_output_adapter@D@__crt_stdio_output@@@__crt_stdio_output@@IAE_NXZ 10063d10 f i libucrtd:output.obj
 0001:00062d40       ?update_precision@?$standard_base@DV?$string_output_adapter@D@__crt_stdio_output@@@__crt_stdio_output@@IAE_NXZ 10063d40 f i libucrtd:output.obj
 0001:00062d70       ?update_precision@?$standard_base@_WV?$stream_output_adapter@_W@__crt_stdio_output@@@__crt_stdio_output@@IAE_NXZ 10063d70 f i libucrtd:output.obj
 0001:00062da0       ?update_precision@?$standard_base@_WV?$string_output_adapter@_W@__crt_stdio_output@@@__crt_stdio_output@@IAE_NXZ 10063da0 f i libucrtd:output.obj
 0001:00062dd0       ?valid@__crt_stdio_stream@@QBE_NXZ 10063dd0 f i libucrtd:output.obj
 0001:00062e00       ?validate@?$stream_output_adapter@D@__crt_stdio_output@@QBE_NXZ 10063e00 f i libucrtd:output.obj
 0001:00062eb0       ?validate@?$stream_output_adapter@_W@__crt_stdio_output@@QBE_NXZ 10063eb0 f i libucrtd:output.obj
 0001:00062f60       ?validate@?$string_output_adapter@D@__crt_stdio_output@@QBE_NXZ 10063f60 f i libucrtd:output.obj
 0001:00062ff0       ?validate@?$string_output_adapter@_W@__crt_stdio_output@@QBE_NXZ 10063ff0 f i libucrtd:output.obj
 0001:00063080       ?validate_and_store_parameter_data@?$positional_parameter_base@DV?$stream_output_adapter@D@__crt_stdio_output@@@__crt_stdio_output@@AAE_NAAUparameter_data@12@W4parameter_type@12@DW4length_modifier@2@@Z 10064080 f i libucrtd:output.obj
 0001:00063150       ?validate_and_store_parameter_data@?$positional_parameter_base@DV?$string_output_adapter@D@__crt_stdio_output@@@__crt_stdio_output@@AAE_NAAUparameter_data@12@W4parameter_type@12@DW4length_modifier@2@@Z 10064150 f i libucrtd:output.obj
 0001:00063220       ?validate_and_store_parameter_data@?$positional_parameter_base@_WV?$stream_output_adapter@_W@__crt_stdio_output@@@__crt_stdio_output@@AAE_NAAUparameter_data@12@W4parameter_type@12@_WW4length_modifier@2@@Z 10064220 f i libucrtd:output.obj
 0001:00063300       ?validate_and_store_parameter_data@?$positional_parameter_base@_WV?$string_output_adapter@_W@__crt_stdio_output@@@__crt_stdio_output@@AAE_NAAUparameter_data@12@W4parameter_type@12@_WW4length_modifier@2@@Z 10064300 f i libucrtd:output.obj
 0001:000633e0       ?validate_and_update_state_at_beginning_of_format_character@?$positional_parameter_base@DV?$stream_output_adapter@D@__crt_stdio_output@@@__crt_stdio_output@@IAE_NXZ 100643e0 f i libucrtd:output.obj
 0001:00063600       ?validate_and_update_state_at_beginning_of_format_character@?$positional_parameter_base@DV?$string_output_adapter@D@__crt_stdio_output@@@__crt_stdio_output@@IAE_NXZ 10064600 f i libucrtd:output.obj
 0001:00063820       ?validate_and_update_state_at_beginning_of_format_character@?$positional_parameter_base@_WV?$stream_output_adapter@_W@__crt_stdio_output@@@__crt_stdio_output@@IAE_NXZ 10064820 f i libucrtd:output.obj
 0001:00063a40       ?validate_and_update_state_at_beginning_of_format_character@?$positional_parameter_base@_WV?$string_output_adapter@_W@__crt_stdio_output@@@__crt_stdio_output@@IAE_NXZ 10064a40 f i libucrtd:output.obj
 0001:00063c60       ?validate_and_update_state_at_beginning_of_format_character@?$standard_base@DV?$stream_output_adapter@D@__crt_stdio_output@@@__crt_stdio_output@@IAE_NXZ 10064c60 f i libucrtd:output.obj
 0001:00063c70       ?validate_and_update_state_at_beginning_of_format_character@?$standard_base@DV?$string_output_adapter@D@__crt_stdio_output@@@__crt_stdio_output@@IAE_NXZ 10064c70 f i libucrtd:output.obj
 0001:00063c80       ?validate_and_update_state_at_beginning_of_format_character@?$standard_base@_WV?$stream_output_adapter@_W@__crt_stdio_output@@@__crt_stdio_output@@IAE_NXZ 10064c80 f i libucrtd:output.obj
 0001:00063c90       ?validate_and_update_state_at_beginning_of_format_character@?$standard_base@_WV?$string_output_adapter@_W@__crt_stdio_output@@@__crt_stdio_output@@IAE_NXZ 10064c90 f i libucrtd:output.obj
 0001:00063ca0       ?validate_and_update_state_at_end_of_format_string@?$format_validation_base@DV?$stream_output_adapter@D@__crt_stdio_output@@@__crt_stdio_output@@IBE_NXZ 10064ca0 f i libucrtd:output.obj
 0001:00063d40       ?validate_and_update_state_at_end_of_format_string@?$format_validation_base@DV?$string_output_adapter@D@__crt_stdio_output@@@__crt_stdio_output@@IBE_NXZ 10064d40 f i libucrtd:output.obj
 0001:00063de0       ?validate_and_update_state_at_end_of_format_string@?$format_validation_base@_WV?$stream_output_adapter@_W@__crt_stdio_output@@@__crt_stdio_output@@IBE_NXZ 10064de0 f i libucrtd:output.obj
 0001:00063e80       ?validate_and_update_state_at_end_of_format_string@?$format_validation_base@_WV?$string_output_adapter@_W@__crt_stdio_output@@@__crt_stdio_output@@IBE_NXZ 10064e80 f i libucrtd:output.obj
 0001:00063f20       ?validate_and_update_state_at_end_of_format_string@?$positional_parameter_base@DV?$stream_output_adapter@D@__crt_stdio_output@@@__crt_stdio_output@@IAE_NXZ 10064f20 f i libucrtd:output.obj
 0001:000640c0       ?validate_and_update_state_at_end_of_format_string@?$positional_parameter_base@DV?$string_output_adapter@D@__crt_stdio_output@@@__crt_stdio_output@@IAE_NXZ 100650c0 f i libucrtd:output.obj
 0001:00064260       ?validate_and_update_state_at_end_of_format_string@?$positional_parameter_base@_WV?$stream_output_adapter@_W@__crt_stdio_output@@@__crt_stdio_output@@IAE_NXZ 10065260 f i libucrtd:output.obj
 0001:00064400       ?validate_and_update_state_at_end_of_format_string@?$positional_parameter_base@_WV?$string_output_adapter@_W@__crt_stdio_output@@@__crt_stdio_output@@IAE_NXZ 10065400 f i libucrtd:output.obj
 0001:000645a0       ?validate_and_update_state_at_end_of_format_string@?$standard_base@DV?$stream_output_adapter@D@__crt_stdio_output@@@__crt_stdio_output@@IBE_NXZ 100655a0 f i libucrtd:output.obj
 0001:000645b0       ?validate_and_update_state_at_end_of_format_string@?$standard_base@DV?$string_output_adapter@D@__crt_stdio_output@@@__crt_stdio_output@@IBE_NXZ 100655b0 f i libucrtd:output.obj
 0001:000645c0       ?validate_and_update_state_at_end_of_format_string@?$standard_base@_WV?$stream_output_adapter@_W@__crt_stdio_output@@@__crt_stdio_output@@IBE_NXZ 100655c0 f i libucrtd:output.obj
 0001:000645d0       ?validate_and_update_state_at_end_of_format_string@?$standard_base@_WV?$string_output_adapter@_W@__crt_stdio_output@@@__crt_stdio_output@@IBE_NXZ 100655d0 f i libucrtd:output.obj
 0001:000645e0       ?validate_state_for_type_case_a@?$positional_parameter_base@DV?$stream_output_adapter@D@__crt_stdio_output@@@__crt_stdio_output@@IAE_NXZ 100655e0 f i libucrtd:output.obj
 0001:000646d0       ?validate_state_for_type_case_a@?$positional_parameter_base@DV?$string_output_adapter@D@__crt_stdio_output@@@__crt_stdio_output@@IAE_NXZ 100656d0 f i libucrtd:output.obj
 0001:000647c0       ?validate_state_for_type_case_a@?$positional_parameter_base@_WV?$stream_output_adapter@_W@__crt_stdio_output@@@__crt_stdio_output@@IAE_NXZ 100657c0 f i libucrtd:output.obj
 0001:000648b0       ?validate_state_for_type_case_a@?$positional_parameter_base@_WV?$string_output_adapter@_W@__crt_stdio_output@@@__crt_stdio_output@@IAE_NXZ 100658b0 f i libucrtd:output.obj
 0001:000649a0       ?validate_state_for_type_case_a@?$standard_base@DV?$stream_output_adapter@D@__crt_stdio_output@@@__crt_stdio_output@@IBE_NXZ 100659a0 f i libucrtd:output.obj
 0001:000649b0       ?validate_state_for_type_case_a@?$standard_base@DV?$string_output_adapter@D@__crt_stdio_output@@@__crt_stdio_output@@IBE_NXZ 100659b0 f i libucrtd:output.obj
 0001:000649c0       ?validate_state_for_type_case_a@?$standard_base@_WV?$stream_output_adapter@_W@__crt_stdio_output@@@__crt_stdio_output@@IBE_NXZ 100659c0 f i libucrtd:output.obj
 0001:000649d0       ?validate_state_for_type_case_a@?$standard_base@_WV?$string_output_adapter@_W@__crt_stdio_output@@@__crt_stdio_output@@IBE_NXZ 100659d0 f i libucrtd:output.obj
 0001:000649e0       ?validate_stream_is_ansi_if_required@?$__acrt_stdio_char_traits@D@@SA_NQAU_iobuf@@@Z 100659e0 f i libucrtd:output.obj
 0001:00064b10       ?validate_stream_is_ansi_if_required@?$__acrt_stdio_char_traits@_W@@SA_NQAU_iobuf@@@Z 10065b10 f i libucrtd:output.obj
 0001:00064b20       ?wide_null_string@?$output_processor@DV?$stream_output_adapter@D@__crt_stdio_output@@V?$format_validation_base@DV?$stream_output_adapter@D@__crt_stdio_output@@@2@@__crt_stdio_output@@CAPA_WXZ 10065b20 f i libucrtd:output.obj
 0001:00064b30       ?wide_null_string@?$output_processor@DV?$stream_output_adapter@D@__crt_stdio_output@@V?$positional_parameter_base@DV?$stream_output_adapter@D@__crt_stdio_output@@@2@@__crt_stdio_output@@CAPA_WXZ 10065b30 f i libucrtd:output.obj
 0001:00064b40       ?wide_null_string@?$output_processor@DV?$stream_output_adapter@D@__crt_stdio_output@@V?$standard_base@DV?$stream_output_adapter@D@__crt_stdio_output@@@2@@__crt_stdio_output@@CAPA_WXZ 10065b40 f i libucrtd:output.obj
 0001:00064b50       ?wide_null_string@?$output_processor@DV?$string_output_adapter@D@__crt_stdio_output@@V?$format_validation_base@DV?$string_output_adapter@D@__crt_stdio_output@@@2@@__crt_stdio_output@@CAPA_WXZ 10065b50 f i libucrtd:output.obj
 0001:00064b60       ?wide_null_string@?$output_processor@DV?$string_output_adapter@D@__crt_stdio_output@@V?$positional_parameter_base@DV?$string_output_adapter@D@__crt_stdio_output@@@2@@__crt_stdio_output@@CAPA_WXZ 10065b60 f i libucrtd:output.obj
 0001:00064b70       ?wide_null_string@?$output_processor@DV?$string_output_adapter@D@__crt_stdio_output@@V?$standard_base@DV?$string_output_adapter@D@__crt_stdio_output@@@2@@__crt_stdio_output@@CAPA_WXZ 10065b70 f i libucrtd:output.obj
 0001:00064b80       ?wide_null_string@?$output_processor@_WV?$stream_output_adapter@_W@__crt_stdio_output@@V?$format_validation_base@_WV?$stream_output_adapter@_W@__crt_stdio_output@@@2@@__crt_stdio_output@@CAPA_WXZ 10065b80 f i libucrtd:output.obj
 0001:00064b90       ?wide_null_string@?$output_processor@_WV?$stream_output_adapter@_W@__crt_stdio_output@@V?$positional_parameter_base@_WV?$stream_output_adapter@_W@__crt_stdio_output@@@2@@__crt_stdio_output@@CAPA_WXZ 10065b90 f i libucrtd:output.obj
 0001:00064ba0       ?wide_null_string@?$output_processor@_WV?$stream_output_adapter@_W@__crt_stdio_output@@V?$standard_base@_WV?$stream_output_adapter@_W@__crt_stdio_output@@@2@@__crt_stdio_output@@CAPA_WXZ 10065ba0 f i libucrtd:output.obj
 0001:00064bb0       ?wide_null_string@?$output_processor@_WV?$string_output_adapter@_W@__crt_stdio_output@@V?$format_validation_base@_WV?$string_output_adapter@_W@__crt_stdio_output@@@2@@__crt_stdio_output@@CAPA_WXZ 10065bb0 f i libucrtd:output.obj
 0001:00064bc0       ?wide_null_string@?$output_processor@_WV?$string_output_adapter@_W@__crt_stdio_output@@V?$positional_parameter_base@_WV?$string_output_adapter@_W@__crt_stdio_output@@@2@@__crt_stdio_output@@CAPA_WXZ 10065bc0 f i libucrtd:output.obj
 0001:00064bd0       ?wide_null_string@?$output_processor@_WV?$string_output_adapter@_W@__crt_stdio_output@@V?$standard_base@_WV?$string_output_adapter@_W@__crt_stdio_output@@@2@@__crt_stdio_output@@CAPA_WXZ 10065bd0 f i libucrtd:output.obj
 0001:00064be0       ?write_character@?$output_adapter_common@DV?$stream_output_adapter@D@__crt_stdio_output@@@__crt_stdio_output@@QBEXDQAH@Z 10065be0 f i libucrtd:output.obj
 0001:00064c20       ?write_character@?$output_adapter_common@_WV?$stream_output_adapter@_W@__crt_stdio_output@@@__crt_stdio_output@@QBEX_WQAH@Z 10065c20 f i libucrtd:output.obj
 0001:00064c60       ?write_character@?$string_output_adapter@D@__crt_stdio_output@@QBE_NDQAH@Z 10065c60 f i libucrtd:output.obj
 0001:00064cf0       ?write_character@?$string_output_adapter@_W@__crt_stdio_output@@QBE_N_WQAH@Z 10065cf0 f i libucrtd:output.obj
 0001:00064d90       ?write_character_without_count_update@?$stream_output_adapter@D@__crt_stdio_output@@QBE_ND@Z 10065d90 f i libucrtd:output.obj
 0001:00064e00       ?write_character_without_count_update@?$stream_output_adapter@_W@__crt_stdio_output@@QBE_N_W@Z 10065e00 f i libucrtd:output.obj
 0001:00064e70       ?write_stored_string_tchar@?$output_processor@DV?$stream_output_adapter@D@__crt_stdio_output@@V?$format_validation_base@DV?$stream_output_adapter@D@__crt_stdio_output@@@2@@__crt_stdio_output@@AAE_ND@Z 10065e70 f i libucrtd:output.obj
 0001:00064f80       ?write_stored_string_tchar@?$output_processor@DV?$stream_output_adapter@D@__crt_stdio_output@@V?$positional_parameter_base@DV?$stream_output_adapter@D@__crt_stdio_output@@@2@@__crt_stdio_output@@AAE_ND@Z 10065f80 f i libucrtd:output.obj
 0001:00065090       ?write_stored_string_tchar@?$output_processor@DV?$stream_output_adapter@D@__crt_stdio_output@@V?$standard_base@DV?$stream_output_adapter@D@__crt_stdio_output@@@2@@__crt_stdio_output@@AAE_ND@Z 10066090 f i libucrtd:output.obj
 0001:000651a0       ?write_stored_string_tchar@?$output_processor@DV?$string_output_adapter@D@__crt_stdio_output@@V?$format_validation_base@DV?$string_output_adapter@D@__crt_stdio_output@@@2@@__crt_stdio_output@@AAE_ND@Z 100661a0 f i libucrtd:output.obj
 0001:000652b0       ?write_stored_string_tchar@?$output_processor@DV?$string_output_adapter@D@__crt_stdio_output@@V?$positional_parameter_base@DV?$string_output_adapter@D@__crt_stdio_output@@@2@@__crt_stdio_output@@AAE_ND@Z 100662b0 f i libucrtd:output.obj
 0001:000653c0       ?write_stored_string_tchar@?$output_processor@DV?$string_output_adapter@D@__crt_stdio_output@@V?$standard_base@DV?$string_output_adapter@D@__crt_stdio_output@@@2@@__crt_stdio_output@@AAE_ND@Z 100663c0 f i libucrtd:output.obj
 0001:000654d0       ?write_stored_string_tchar@?$output_processor@_WV?$stream_output_adapter@_W@__crt_stdio_output@@V?$format_validation_base@_WV?$stream_output_adapter@_W@__crt_stdio_output@@@2@@__crt_stdio_output@@AAE_N_W@Z 100664d0 f i libucrtd:output.obj
 0001:000655c0       ?write_stored_string_tchar@?$output_processor@_WV?$stream_output_adapter@_W@__crt_stdio_output@@V?$positional_parameter_base@_WV?$stream_output_adapter@_W@__crt_stdio_output@@@2@@__crt_stdio_output@@AAE_N_W@Z 100665c0 f i libucrtd:output.obj
 0001:000656b0       ?write_stored_string_tchar@?$output_processor@_WV?$stream_output_adapter@_W@__crt_stdio_output@@V?$standard_base@_WV?$stream_output_adapter@_W@__crt_stdio_output@@@2@@__crt_stdio_output@@AAE_N_W@Z 100666b0 f i libucrtd:output.obj
 0001:000657a0       ?write_stored_string_tchar@?$output_processor@_WV?$string_output_adapter@_W@__crt_stdio_output@@V?$format_validation_base@_WV?$string_output_adapter@_W@__crt_stdio_output@@@2@@__crt_stdio_output@@AAE_N_W@Z 100667a0 f i libucrtd:output.obj
 0001:00065890       ?write_stored_string_tchar@?$output_processor@_WV?$string_output_adapter@_W@__crt_stdio_output@@V?$positional_parameter_base@_WV?$string_output_adapter@_W@__crt_stdio_output@@@2@@__crt_stdio_output@@AAE_N_W@Z 10066890 f i libucrtd:output.obj
 0001:00065980       ?write_stored_string_tchar@?$output_processor@_WV?$string_output_adapter@_W@__crt_stdio_output@@V?$standard_base@_WV?$string_output_adapter@_W@__crt_stdio_output@@@2@@__crt_stdio_output@@AAE_N_W@Z 10066980 f i libucrtd:output.obj
 0001:00065a70       ?write_string@?$stream_output_adapter@D@__crt_stdio_output@@QBEXQBDHQAHAAV__crt_deferred_errno_cache@@@Z 10066a70 f i libucrtd:output.obj
 0001:00065ad0       ?write_string@?$stream_output_adapter@_W@__crt_stdio_output@@QBEXQB_WHQAHAAV__crt_deferred_errno_cache@@@Z 10066ad0 f i libucrtd:output.obj
 0001:00065b30       ?write_string@?$string_output_adapter@D@__crt_stdio_output@@QBEXQBDHQAHAAV__crt_deferred_errno_cache@@@Z 10066b30 f i libucrtd:output.obj
 0001:00065c30       ?write_string@?$string_output_adapter@_W@__crt_stdio_output@@QBEXQB_WHQAHAAV__crt_deferred_errno_cache@@@Z 10066c30 f i libucrtd:output.obj
 0001:00065d40       ?write_string_impl@?$output_adapter_common@DV?$stream_output_adapter@D@__crt_stdio_output@@@__crt_stdio_output@@IBEXQBDHQAHAAV__crt_deferred_errno_cache@@@Z 10066d40 f i libucrtd:output.obj
 0001:00065de0       ?write_string_impl@?$output_adapter_common@_WV?$stream_output_adapter@_W@__crt_stdio_output@@@__crt_stdio_output@@IBEXQB_WHQAHAAV__crt_deferred_errno_cache@@@Z 10066de0 f i libucrtd:output.obj
 0001:00065e80       ___acrt_isleadbyte_l_noupdate 10066e80 f i libucrtd:output.obj
 0001:00065ea0       ___acrt_locale_changed     10066ea0 f i libucrtd:output.obj
 0001:00065ed0       ___acrt_locale_get_ctype_array_value 10066ed0 f i libucrtd:output.obj
 0001:00065f00       ___stdio_common_vfprintf   10066f00 f   libucrtd:output.obj
 0001:00065f30       ___stdio_common_vfprintf_p 10066f30 f   libucrtd:output.obj
 0001:00065f60       ___stdio_common_vfprintf_s 10066f60 f   libucrtd:output.obj
 0001:00065f90       ___stdio_common_vfwprintf  10066f90 f   libucrtd:output.obj
 0001:00065fc0       ___stdio_common_vfwprintf_p 10066fc0 f   libucrtd:output.obj
 0001:00065ff0       ___stdio_common_vfwprintf_s 10066ff0 f   libucrtd:output.obj
 0001:00066020       ___stdio_common_vsnprintf_s 10067020 f   libucrtd:output.obj
 0001:00066050       ___stdio_common_vsnwprintf_s 10067050 f   libucrtd:output.obj
 0001:00066080       ___stdio_common_vsprintf   10067080 f   libucrtd:output.obj
 0001:000660b0       ___stdio_common_vsprintf_p 100670b0 f   libucrtd:output.obj
 0001:000660e0       ___stdio_common_vsprintf_s 100670e0 f   libucrtd:output.obj
 0001:00066110       ___stdio_common_vswprintf  10067110 f   libucrtd:output.obj
 0001:00066140       ___stdio_common_vswprintf_p 10067140 f   libucrtd:output.obj
 0001:00066170       ___stdio_common_vswprintf_s 10067170 f   libucrtd:output.obj
 0001:000661a0       __ctype_fast_check_internal 100671a0 f i libucrtd:output.obj
 0001:000661c0       __isdigit_fast_internal    100671c0 f i libucrtd:output.obj
 0001:000661e0       __tolower_fast_internal    100671e0 f i libucrtd:output.obj
 0001:00066200       _free                      10067200 f   libucrtd:free.obj
 0001:00066230       _malloc                    10067230 f   libucrtd:malloc.obj
 0001:00066250       ??$?RU?$__crt_report_hook_node@D@@@__crt_internal_free_policy@@QBEXQBU?$__crt_report_hook_node@D@@@Z 10067250 f i libucrtd:dbgrpt.obj
 0001:00066270       ??$?RU?$__crt_report_hook_node@_W@@@__crt_internal_free_policy@@QBEXQBU?$__crt_report_hook_node@_W@@@Z 10067270 f i libucrtd:dbgrpt.obj
 0001:00067060       ??$get_module_file_name@AAPAUHINSTANCE__@@AAY0BAF@DK@?$__crt_char_traits@D@@SAKAAPAUHINSTANCE__@@AAY0BAF@D$$QAK@Z 10068060 f i libucrtd:dbgrpt.obj
 0001:00067080       ??$get_module_file_name@AAPAUHINSTANCE__@@AAY0BAF@_WK@?$__crt_char_traits@_W@@SAKAAPAUHINSTANCE__@@AAY0BAF@_W$$QAK@Z 10068080 f i libucrtd:dbgrpt.obj
 0001:000670a0       ??$tcscpy_s@AAY0BAF@DIPBD@?$__crt_char_traits@D@@SAHAAY0BAF@D$$QAI$$QAPBD@Z 100680a0 f i libucrtd:dbgrpt.obj
 0001:000670c0       ??$tcscpy_s@AAY0BAF@_WIPB_W@?$__crt_char_traits@_W@@SAHAAY0BAF@_W$$QAI$$QAPB_W@Z 100680c0 f i libucrtd:dbgrpt.obj
 0001:000670e0       ??$tcslen@AAY0BAF@D@?$__crt_char_traits@D@@SAIAAY0BAF@D@Z 100680e0 f i libucrtd:dbgrpt.obj
 0001:00067100       ??$tcslen@AAY0BAF@_W@?$__crt_char_traits@_W@@SAIAAY0BAF@_W@Z 10068100 f i libucrtd:dbgrpt.obj
 0001:00067120       ??$tcslen@ABQBD@?$__crt_char_traits@D@@SAIABQBD@Z 10068120 f i libucrtd:dbgrpt.obj
 0001:00067140       ??$tcslen@ABQB_W@?$__crt_char_traits@_W@@SAIABQB_W@Z 10068140 f i libucrtd:dbgrpt.obj
 0001:00067240       ??0?$__crt_unique_heap_ptr@U?$__crt_report_hook_node@D@@U__crt_internal_free_policy@@@@QAE@QAU?$__crt_report_hook_node@D@@@Z 10068240 f i libucrtd:dbgrpt.obj
 0001:00067260       ??0?$__crt_unique_heap_ptr@U?$__crt_report_hook_node@_W@@U__crt_internal_free_policy@@@@QAE@QAU?$__crt_report_hook_node@_W@@@Z 10068260 f i libucrtd:dbgrpt.obj
 0001:00067280       ??1?$__crt_unique_heap_ptr@U?$__crt_report_hook_node@D@@U__crt_internal_free_policy@@@@QAE@XZ 10068280 f i libucrtd:dbgrpt.obj
 0001:000672a0       ??1?$__crt_unique_heap_ptr@U?$__crt_report_hook_node@_W@@U__crt_internal_free_policy@@@@QAE@XZ 100682a0 f i libucrtd:dbgrpt.obj
 0001:000672c0       ??B?$__crt_unique_heap_ptr@U?$__crt_report_hook_node@D@@U__crt_internal_free_policy@@@@QBE_NXZ 100682c0 f i libucrtd:dbgrpt.obj
 0001:000672e0       ??B?$__crt_unique_heap_ptr@U?$__crt_report_hook_node@_W@@U__crt_internal_free_policy@@@@QBE_NXZ 100682e0 f i libucrtd:dbgrpt.obj
 0001:00067820       ?detach@?$__crt_unique_heap_ptr@U?$__crt_report_hook_node@D@@U__crt_internal_free_policy@@@@QAEPAU?$__crt_report_hook_node@D@@XZ 10068820 f i libucrtd:dbgrpt.obj
 0001:00067850       ?detach@?$__crt_unique_heap_ptr@U?$__crt_report_hook_node@_W@@U__crt_internal_free_policy@@@@QAEPAU?$__crt_report_hook_node@_W@@XZ 10068850 f i libucrtd:dbgrpt.obj
 0001:00067880       ?get@?$__crt_unique_heap_ptr@U?$__crt_report_hook_node@D@@U__crt_internal_free_policy@@@@QBEPAU?$__crt_report_hook_node@D@@XZ 10068880 f i libucrtd:dbgrpt.obj
 0001:000678a0       ?get@?$__crt_unique_heap_ptr@U?$__crt_report_hook_node@_W@@U__crt_internal_free_policy@@@@QBEPAU?$__crt_report_hook_node@_W@@XZ 100688a0 f i libucrtd:dbgrpt.obj
 0001:00067920       ?is_valid@?$__crt_unique_heap_ptr@U?$__crt_report_hook_node@D@@U__crt_internal_free_policy@@@@QBE_NXZ 10068920 f i libucrtd:dbgrpt.obj
 0001:00067950       ?is_valid@?$__crt_unique_heap_ptr@U?$__crt_report_hook_node@_W@@U__crt_internal_free_policy@@@@QBE_NXZ 10068950 f i libucrtd:dbgrpt.obj
 0001:00067980       ?release@?$__crt_unique_heap_ptr@U?$__crt_report_hook_node@D@@U__crt_internal_free_policy@@@@QAEXXZ 10068980 f i libucrtd:dbgrpt.obj
 0001:000679b0       ?release@?$__crt_unique_heap_ptr@U?$__crt_report_hook_node@_W@@U__crt_internal_free_policy@@@@QAEXXZ 100689b0 f i libucrtd:dbgrpt.obj
 0001:000679e0       __CrtDbgReport             100689e0 f   libucrtd:dbgrpt.obj
 0001:00067a30       __CrtDbgReportW            10068a30 f   libucrtd:dbgrpt.obj
 0001:00067a80       __CrtSetReportHook2        10068a80 f   libucrtd:dbgrpt.obj
 0001:00067aa0       __CrtSetReportHookW2       10068aa0 f   libucrtd:dbgrpt.obj
 0001:00067ac0       ___acrt_MessageWindowA     10068ac0 f   libucrtd:dbgrpt.obj
 0001:00067af0       ___acrt_MessageWindowW     10068af0 f   libucrtd:dbgrpt.obj
 0001:00067b20       __invoke_watson_if_error   10068b20 f i libucrtd:dbgrpt.obj
 0001:00067b50       __invoke_watson_if_oneof   10068b50 f i libucrtd:dbgrpt.obj
 0001:00067b90       __snwprintf_s              10068b90 f i libucrtd:dbgrpt.obj
 0001:00067bd0       __vsnwprintf_s_l           10068bd0 f i libucrtd:dbgrpt.obj
 0001:00067f50       _wcscpy_s                  10068f50 f   libucrtd:wcscpy_s.obj
 0001:00068c70       ??1?$__crt_simd_cleanup_guard@$00@@QAE@XZ 10069c70 f i libucrtd:strnlen.obj
 0001:00068c80       ??1?$__crt_simd_cleanup_guard@$0A@@@QAE@XZ 10069c80 f i libucrtd:strnlen.obj
 0001:00068c90       ?compare_equals@?$__crt_simd_traits@$00E@@SA?AT__m256i@@T2@0@Z 10069c90 f i libucrtd:strnlen.obj
 0001:00068cd0       ?compare_equals@?$__crt_simd_traits@$00G@@SA?AT__m256i@@T2@0@Z 10069cd0 f i libucrtd:strnlen.obj
 0001:00068d10       ?compare_equals@?$__crt_simd_traits@$0A@E@@SA?AT__m128i@@T2@0@Z 10069d10 f i libucrtd:strnlen.obj
 0001:00068d50       ?compare_equals@?$__crt_simd_traits@$0A@G@@SA?AT__m128i@@T2@0@Z 10069d50 f i libucrtd:strnlen.obj
 0001:00068d90       ?compute_byte_mask@?$__crt_simd_pack_traits@$00@@SAHT__m256i@@@Z 10069d90 f i libucrtd:strnlen.obj
 0001:00068dc0       ?compute_byte_mask@?$__crt_simd_pack_traits@$0A@@@SAHT__m128i@@@Z 10069dc0 f i libucrtd:strnlen.obj
 0001:00068df0       ?get_zero_pack@?$__crt_simd_pack_traits@$00@@SA?AT__m256i@@XZ 10069df0 f i libucrtd:strnlen.obj
 0001:00068e20       ?get_zero_pack@?$__crt_simd_pack_traits@$0A@@@SA?AT__m128i@@XZ 10069e20 f i libucrtd:strnlen.obj
 0001:00068e50       _strnlen                   10069e50 f   libucrtd:strnlen.obj
 0001:00068e70       _wcslen                    10069e70 f   libucrtd:strnlen.obj
 0001:00068e90       _wcsnlen                   10069e90 f   libucrtd:strnlen.obj
 0001:00068eb0       ??$__crt_fast_decode_pointer@P6AXPB_W00II@Z@@YAP6AXPB_W00II@ZQ6AX000II@Z@Z 10069eb0 f i libucrtd:invalid_parameter.obj
 0001:00068ee0       ??$__crt_fast_encode_pointer@P6AXPB_W00II@Z@@YAP6AXPB_W00II@ZQ6AX000II@Z@Z 10069ee0 f i libucrtd:invalid_parameter.obj
 0001:00068f10       ??$initialize_from_array@$$BY00Q6AXPB_W00II@Z@?$dual_state_global@P6AXPB_W00II@Z@__crt_state_management@@QAAXAAY00Q6AXPB_W00II@Z@Z 10069f10 f i libucrtd:invalid_parameter.obj
 0001:00068f60       ?__crt_rotate_pointer_value@@YAIIH@Z 10069f60 f i libucrtd:invalid_parameter.obj
 0001:00068f70       ?dangerous_get_state_array@?$dual_state_global@P6AXPB_W00II@Z@__crt_state_management@@QAEPAP6AXPB_W00II@ZXZ 10069f70 f i libucrtd:invalid_parameter.obj
 0001:00068f80       ?get_current_state_index@__crt_state_management@@YAIXZ 10069f80 f i libucrtd:invalid_parameter.obj
 0001:00068f90       ?value@?$dual_state_global@P6AXPB_W00II@Z@__crt_state_management@@QAEAAP6AXPB_W00II@ZXZ 10069f90 f i libucrtd:invalid_parameter.obj
 0001:00068fb0       ___acrt_call_reportfault   10069fb0 f   libucrtd:invalid_parameter.obj
 0001:00069110       ___acrt_initialize_invalid_parameter_handler 1006a110 f   libucrtd:invalid_parameter.obj
 0001:00069140       __get_invalid_parameter_handler 1006a140 f   libucrtd:invalid_parameter.obj
 0001:00069160       __get_thread_local_invalid_parameter_handler 1006a160 f   libucrtd:invalid_parameter.obj
 0001:00069190       __invalid_parameter        1006a190 f   libucrtd:invalid_parameter.obj
 0001:00069250       __invalid_parameter_noinfo 1006a250 f   libucrtd:invalid_parameter.obj
 0001:00069270       __invalid_parameter_noinfo_noreturn 1006a270 f   libucrtd:invalid_parameter.obj
 0001:000692a0       __invoke_watson            1006a2a0 f   libucrtd:invalid_parameter.obj
 0001:000692e0       __set_invalid_parameter_handler 1006a2e0 f   libucrtd:invalid_parameter.obj
 0001:00069330       __set_thread_local_invalid_parameter_handler 1006a330 f   libucrtd:invalid_parameter.obj
 0001:00069360       ___acrt_errno_from_os_error 1006a360 f   libucrtd:errno.obj
 0001:000693e0       ___acrt_errno_map_os_error 1006a3e0 f   libucrtd:errno.obj
 0001:00069410       ___doserrno                1006a410 f   libucrtd:errno.obj
 0001:00069440       __errno                    1006a440 f   libucrtd:errno.obj
 0001:00069470       __get_doserrno             1006a470 f   libucrtd:errno.obj
 0001:00069500       __get_errno                1006a500 f   libucrtd:errno.obj
 0001:00069590       __set_doserrno             1006a590 f   libucrtd:errno.obj
 0001:000695c0       __set_errno                1006a5c0 f   libucrtd:errno.obj
 0001:000695f0       _calloc                    1006a5f0 f   libucrtd:calloc.obj
 0001:00069610       __recalloc                 1006a610 f   libucrtd:recalloc.obj
 0001:00069640       __recalloc_base            1006a640 f   libucrtd:recalloc.obj
 0001:000696da       __resetstkoflw             1006a6da f   libucrtd:resetstk.obj
 0001:00069bc0       _wcscat_s                  1006abc0 f   libucrtd:wcscat_s.obj
 0001:0006a010       _wcsncpy_s                 1006b010 f   libucrtd:wcsncpy_s.obj
 0001:0006a050       ___acrt_get_locale_data_prefix 1006b050 f i libucrtd:_ctype.obj
 0001:0006a070       ___isascii                 1006b070 f i libucrtd:_ctype.obj
 0001:0006a0a0       ___iscsym                  1006b0a0 f i libucrtd:_ctype.obj
 0001:0006a0e0       ___iscsymf                 1006b0e0 f i libucrtd:_ctype.obj
 0001:0006a120       ___toascii                 1006b120 f i libucrtd:_ctype.obj
 0001:0006a130       __chvalidchk_l             1006b130 f i libucrtd:_ctype.obj
 0001:0006a150       __isalnum_l                1006b150 f i libucrtd:_ctype.obj
 0001:0006a190       __isalpha_l                1006b190 f i libucrtd:_ctype.obj
 0001:0006a1d0       __isblank_l                1006b1d0 f i libucrtd:_ctype.obj
 0001:0006a230       __ischartype_l             1006b230 f i libucrtd:_ctype.obj
 0001:0006a2b0       __iscntrl_l                1006b2b0 f i libucrtd:_ctype.obj
 0001:0006a2f0       __iscsym_l                 1006b2f0 f i libucrtd:_ctype.obj
 0001:0006a330       __iscsymf_l                1006b330 f i libucrtd:_ctype.obj
 0001:0006a370       __isdigit_l                1006b370 f i libucrtd:_ctype.obj
 0001:0006a3b0       __isgraph_l                1006b3b0 f i libucrtd:_ctype.obj
 0001:0006a3f0       __islower_l                1006b3f0 f i libucrtd:_ctype.obj
 0001:0006a430       __isprint_l                1006b430 f i libucrtd:_ctype.obj
 0001:0006a470       __ispunct_l                1006b470 f i libucrtd:_ctype.obj
 0001:0006a4b0       __isspace_l                1006b4b0 f i libucrtd:_ctype.obj
 0001:0006a4f0       __isupper_l                1006b4f0 f i libucrtd:_ctype.obj
 0001:0006a530       __isxdigit_l               1006b530 f i libucrtd:_ctype.obj
 0001:0006a570       _isalnum                   1006b570 f i libucrtd:_ctype.obj
 0001:0006a5b0       _isalpha                   1006b5b0 f i libucrtd:_ctype.obj
 0001:0006a5f0       _isblank                   1006b5f0 f i libucrtd:_ctype.obj
 0001:0006a650       _iscntrl                   1006b650 f i libucrtd:_ctype.obj
 0001:0006a690       _isdigit                   1006b690 f i libucrtd:_ctype.obj
 0001:0006a6d0       _isgraph                   1006b6d0 f i libucrtd:_ctype.obj
 0001:0006a710       _islower                   1006b710 f i libucrtd:_ctype.obj
 0001:0006a750       _isprint                   1006b750 f i libucrtd:_ctype.obj
 0001:0006a790       _ispunct                   1006b790 f i libucrtd:_ctype.obj
 0001:0006a7d0       _isspace                   1006b7d0 f i libucrtd:_ctype.obj
 0001:0006a810       _isupper                   1006b810 f i libucrtd:_ctype.obj
 0001:0006a850       _isxdigit                  1006b850 f i libucrtd:_ctype.obj
 0001:0006a890       _wcscat                    1006b890 f   libucrtd:wcscat.obj
 0001:0006a8f0       _wcscpy                    1006b8f0 f   libucrtd:wcscpy.obj
 0001:0006af80       ??$open_file@ABQBDABQBDABHPAU_iobuf@@@?$__crt_char_traits@D@@SAPAU_iobuf@@ABQBD0ABH$$QAPAU1@@Z 1006bf80 f i libucrtd:fopen.obj
 0001:0006afb0       ??$open_file@ABQB_WABQB_WABHPAU_iobuf@@@?$__crt_char_traits@_W@@SAPAU_iobuf@@ABQB_W0ABH$$QAPAU1@@Z 1006bfb0 f i libucrtd:fopen.obj
 0001:0006afe0       ?unlock@__crt_stdio_stream@@QBEXXZ 1006bfe0 f i libucrtd:fopen.obj
 0001:0006b000       __fsopen                   1006c000 f   libucrtd:fopen.obj
 0001:0006b020       __wfopen                   1006c020 f   libucrtd:fopen.obj
 0001:0006b040       __wfopen_s                 1006c040 f   libucrtd:fopen.obj
 0001:0006b060       __wfsopen                  1006c060 f   libucrtd:fopen.obj
 0001:0006b080       _fopen                     1006c080 f   libucrtd:fopen.obj
 0001:0006b0a0       _fopen_s                   1006c0a0 f   libucrtd:fopen.obj
 0001:0006b0c0       ?is_in_use@__crt_stdio_stream@@QBE_NXZ 1006c0c0 f i libucrtd:fclose.obj
 0001:0006b100       __fclose_nolock            1006c100 f   libucrtd:fclose.obj
 0001:0006b240       _fclose                    1006c240 f   libucrtd:fclose.obj
 0001:0006b390       __fputc_nolock             1006c390 f   libucrtd:fputc.obj
 0001:0006b420       __fputchar                 1006c420 f   libucrtd:fputc.obj
 0001:0006b440       __putc_nolock              1006c440 f   libucrtd:fputc.obj
 0001:0006b460       _fputc                     1006c460 f   libucrtd:fputc.obj
 0001:0006b6a0       _putc                      1006c6a0 f   libucrtd:fputc.obj
 0001:0006b6c0       _putchar                   1006c6c0 f   libucrtd:fputc.obj
 0001:0006b730       __seh_filter_dll           1006c730 f   libucrtd:exception_filter.obj
 0001:0006b760       __seh_filter_exe           1006c760 f   libucrtd:exception_filter.obj
 0001:0006b970       ??$?B$$A6GXPAXK0@Z@__crt_fast_encoded_nullptr_t@@QBEP6GXPAXK0@ZXZ 1006c970 f i libucrtd:exit.obj
 0001:0006ba50       ??$__crt_fast_decode_pointer@P6GXPAXK0@Z@@YAP6GXPAXK0@ZQ6GX0K0@Z@Z 1006ca50 f i libucrtd:exit.obj
 0001:0006ba80       ??$__crt_fast_encode_pointer@P6GXPAXK0@Z@@YAP6GXPAXK0@ZQ6GX0K0@Z@Z 1006ca80 f i libucrtd:exit.obj
 0001:0006bab0       ??$__crt_get_proc_address@P6GXI@Z@@YAP6GXI@ZQAUHINSTANCE__@@QBD@Z 1006cab0 f i libucrtd:exit.obj
 0001:0006bb40       ??0?$__crt_unique_handle_t@U__crt_hmodule_traits@@@@QAE@QAUHINSTANCE__@@@Z 1006cb40 f i libucrtd:exit.obj
 0001:0006bb60       ??1?$__crt_unique_handle_t@U__crt_hmodule_traits@@@@QAE@XZ 1006cb60 f i libucrtd:exit.obj
 0001:0006bd20       ?__acrt_select_exit_lock@@YA?AW4__acrt_lock_id@@XZ 1006cd20 f i libucrtd:exit.obj
 0001:0006bd30       ?__crt_fast_encode_pointer@@YA?AU__crt_fast_encoded_nullptr_t@@$$T@Z 1006cd30 f i libucrtd:exit.obj
 0001:0006bd60       ?close@?$__crt_unique_handle_t@U__crt_hmodule_traits@@@@QAEXXZ 1006cd60 f i libucrtd:exit.obj
 0001:0006bda0       ?close@__crt_hmodule_traits@@SA_NPAUHINSTANCE__@@@Z 1006cda0 f i libucrtd:exit.obj
 0001:0006be90       ?get@?$__crt_unique_handle_t@U__crt_hmodule_traits@@@@QBEPAUHINSTANCE__@@XZ 1006ce90 f i libucrtd:exit.obj
 0001:0006beb0       ?get_address_of@?$__crt_unique_handle_t@U__crt_hmodule_traits@@@@QAEPAPAUHINSTANCE__@@XZ 1006ceb0 f i libucrtd:exit.obj
 0001:0006bec0       ?get_invalid_value@__crt_hmodule_traits@@SAPAUHINSTANCE__@@XZ 1006cec0 f i libucrtd:exit.obj
 0001:0006c040       __Exit                     1006d040 f   libucrtd:exit.obj
 0001:0006c060       ___acrt_initialize_thread_local_exit_callback 1006d060 f   libucrtd:exit.obj
 0001:0006c070       __c_exit                   1006d070 f   libucrtd:exit.obj
 0001:0006c090       __cexit                    1006d090 f   libucrtd:exit.obj
 0001:0006c0b0       __exit                     1006d0b0 f   libucrtd:exit.obj
 0001:0006c0d0       __is_c_termination_complete 1006d0d0 f   libucrtd:exit.obj
 0001:0006c0f0       __register_thread_local_exe_atexit_callback 1006d0f0 f   libucrtd:exit.obj
 0001:0006c130       _exit                      1006d130 f   libucrtd:exit.obj
 0001:0006c150       _quick_exit                1006d150 f   libucrtd:exit.obj
 0001:0006c170       ??$?RE@__crt_internal_free_policy@@QBEXQBE@Z 1006d170 f i libucrtd:argv_parsing.obj
 0001:0006c190       ??$?RPAD@__crt_internal_free_policy@@QBEXQBQAD@Z 1006d190 f i libucrtd:argv_parsing.obj
 0001:0006c1b0       ??$?RPA_W@__crt_internal_free_policy@@QBEXQBQA_W@Z 1006d1b0 f i libucrtd:argv_parsing.obj
 0001:0006c710       ??$get_module_file_name@$$TAAY0BAF@DH@?$__crt_char_traits@D@@SAK$$QA$$TAAY0BAF@D$$QAH@Z 1006d710 f i libucrtd:argv_parsing.obj
 0001:0006c730       ??$get_module_file_name@$$TAAY0BAF@_WH@?$__crt_char_traits@_W@@SAK$$QA$$TAAY0BAF@_W$$QAH@Z 1006d730 f i libucrtd:argv_parsing.obj
 0001:0006ce50       ??$set_program_name@PAD@?$__crt_char_traits@D@@SAX$$QAPAD@Z 1006de50 f i libucrtd:argv_parsing.obj
 0001:0006ce70       ??$set_program_name@PA_W@?$__crt_char_traits@_W@@SAX$$QAPA_W@Z 1006de70 f i libucrtd:argv_parsing.obj
 0001:0006ced0       ??0?$__crt_unique_heap_ptr@EU__crt_internal_free_policy@@@@QAE@QAE@Z 1006ded0 f i libucrtd:argv_parsing.obj
 0001:0006cef0       ??0?$__crt_unique_heap_ptr@PADU__crt_internal_free_policy@@@@QAE@QAPAD@Z 1006def0 f i libucrtd:argv_parsing.obj
 0001:0006cf10       ??0?$__crt_unique_heap_ptr@PA_WU__crt_internal_free_policy@@@@QAE@QAPA_W@Z 1006df10 f i libucrtd:argv_parsing.obj
 0001:0006cf30       ??1?$__crt_unique_heap_ptr@EU__crt_internal_free_policy@@@@QAE@XZ 1006df30 f i libucrtd:argv_parsing.obj
 0001:0006cf50       ??1?$__crt_unique_heap_ptr@PADU__crt_internal_free_policy@@@@QAE@XZ 1006df50 f i libucrtd:argv_parsing.obj
 0001:0006cf70       ??1?$__crt_unique_heap_ptr@PA_WU__crt_internal_free_policy@@@@QAE@XZ 1006df70 f i libucrtd:argv_parsing.obj
 0001:0006cf90       ??B?$__crt_unique_heap_ptr@EU__crt_internal_free_policy@@@@QBE_NXZ 1006df90 f i libucrtd:argv_parsing.obj
 0001:0006d050       ?detach@?$__crt_unique_heap_ptr@EU__crt_internal_free_policy@@@@QAEPAEXZ 1006e050 f i libucrtd:argv_parsing.obj
 0001:0006d080       ?detach@?$__crt_unique_heap_ptr@PADU__crt_internal_free_policy@@@@QAEPAPADXZ 1006e080 f i libucrtd:argv_parsing.obj
 0001:0006d0b0       ?detach@?$__crt_unique_heap_ptr@PA_WU__crt_internal_free_policy@@@@QAEPAPA_WXZ 1006e0b0 f i libucrtd:argv_parsing.obj
 0001:0006d140       ?get@?$__crt_unique_heap_ptr@EU__crt_internal_free_policy@@@@QBEPAEXZ 1006e140 f i libucrtd:argv_parsing.obj
 0001:0006d160       ?get@?$__crt_unique_heap_ptr@PADU__crt_internal_free_policy@@@@QBEPAPADXZ 1006e160 f i libucrtd:argv_parsing.obj
 0001:0006d180       ?get@?$__crt_unique_heap_ptr@PA_WU__crt_internal_free_policy@@@@QBEPAPA_WXZ 1006e180 f i libucrtd:argv_parsing.obj
 0001:0006d1a0       ?get_address_of@?$__crt_unique_heap_ptr@PADU__crt_internal_free_policy@@@@QAEPAPAPADXZ 1006e1a0 f i libucrtd:argv_parsing.obj
 0001:0006d1b0       ?get_address_of@?$__crt_unique_heap_ptr@PA_WU__crt_internal_free_policy@@@@QAEPAPAPA_WXZ 1006e1b0 f i libucrtd:argv_parsing.obj
 0001:0006d200       ?is_valid@?$__crt_unique_heap_ptr@EU__crt_internal_free_policy@@@@QBE_NXZ 1006e200 f i libucrtd:argv_parsing.obj
 0001:0006d230       ?release@?$__crt_unique_heap_ptr@EU__crt_internal_free_policy@@@@QAEXXZ 1006e230 f i libucrtd:argv_parsing.obj
 0001:0006d260       ?release@?$__crt_unique_heap_ptr@PADU__crt_internal_free_policy@@@@QAEXXZ 1006e260 f i libucrtd:argv_parsing.obj
 0001:0006d290       ?release@?$__crt_unique_heap_ptr@PA_WU__crt_internal_free_policy@@@@QAEXXZ 1006e290 f i libucrtd:argv_parsing.obj
 0001:0006d300       ___acrt_allocate_buffer_for_argv 1006e300 f   libucrtd:argv_parsing.obj
 0001:0006d3c0       __configure_narrow_argv    1006e3c0 f   libucrtd:argv_parsing.obj
 0001:0006d3e0       __configure_wide_argv      1006e3e0 f   libucrtd:argv_parsing.obj
 0001:0006d400       __set_pgmptr               1006e400 f i libucrtd:argv_parsing.obj
 0001:0006d410       __set_wpgmptr              1006e410 f i libucrtd:argv_parsing.obj
 0001:0006d41f       ??$?R_W@__crt_internal_free_policy@@QBEXQB_W@Z 1006e41f f i libucrtd:environment_initialization.obj
 0001:0006d888       ??$get_environment_from_os@$$V@?$__crt_char_traits@D@@SAPADXZ 1006e888 f i libucrtd:environment_initialization.obj
 0001:0006d88d       ??$get_environment_from_os@$$V@?$__crt_char_traits@_W@@SAPA_WXZ 1006e88d f i libucrtd:environment_initialization.obj
 0001:0006d9b6       ??$set_variable_in_environment_nolock@PADH@?$__crt_char_traits@D@@SAH$$QAPAD$$QAH@Z 1006e9b6 f i libucrtd:environment_initialization.obj
 0001:0006d9ce       ??$set_variable_in_environment_nolock@PA_WH@?$__crt_char_traits@_W@@SAH$$QAPA_W$$QAH@Z 1006e9ce f i libucrtd:environment_initialization.obj
 0001:0006d9e6       ??$tcscpy_s@PADABIAAPAD@?$__crt_char_traits@D@@SAH$$QAPADABIAAPAD@Z 1006e9e6 f i libucrtd:environment_initialization.obj
 0001:0006da04       ??$tcscpy_s@PA_WABIAAPA_W@?$__crt_char_traits@_W@@SAH$$QAPA_WABIAAPA_W@Z 1006ea04 f i libucrtd:environment_initialization.obj
 0001:0006da22       ??$tcslen@AAPAD@?$__crt_char_traits@D@@SAIAAPAD@Z 1006ea22 f i libucrtd:environment_initialization.obj
 0001:0006da3a       ??$tcslen@AAPA_W@?$__crt_char_traits@_W@@SAIAAPA_W@Z 1006ea3a f i libucrtd:environment_initialization.obj
 0001:0006da58       ??$uninitialize@A6AXAAPAPAD@Z@?$dual_state_global@PAPAD@__crt_state_management@@QAEXA6AXAAPAPAD@Z@Z 1006ea58 f i libucrtd:environment_initialization.obj
 0001:0006da81       ??$uninitialize@A6AXAAPAPA_W@Z@?$dual_state_global@PAPA_W@__crt_state_management@@QAEXA6AXAAPAPA_W@Z@Z 1006ea81 f i libucrtd:environment_initialization.obj
 0001:0006dae0       ??0?$__crt_unique_heap_ptr@_WU__crt_internal_free_policy@@@@QAE@QA_W@Z 1006eae0 f i libucrtd:environment_initialization.obj
 0001:0006daf0       ??1?$__crt_unique_heap_ptr@_WU__crt_internal_free_policy@@@@QAE@XZ 1006eaf0 f i libucrtd:environment_initialization.obj
 0001:0006db05       ??B?$__crt_unique_heap_ptr@PADU__crt_internal_free_policy@@@@QBE_NXZ 1006eb05 f i libucrtd:environment_initialization.obj
 0001:0006db0c       ??B?$__crt_unique_heap_ptr@PA_WU__crt_internal_free_policy@@@@QBE_NXZ 1006eb0c f i libucrtd:environment_initialization.obj
 0001:0006db13       ??B?$__crt_unique_heap_ptr@_WU__crt_internal_free_policy@@@@QBE_NXZ 1006eb13 f i libucrtd:environment_initialization.obj
 0001:0006db1a       ?__crt_compute_required_transform_buffer_count@@YAIIQBD@Z 1006eb1a f i libucrtd:environment_initialization.obj
 0001:0006db36       ?__crt_compute_required_transform_buffer_count@@YAIIQB_W@Z 1006eb36 f i libucrtd:environment_initialization.obj
 0001:0006db54       ?__crt_transform_string@@YAIIQBDQA_WI@Z 1006eb54 f i libucrtd:environment_initialization.obj
 0001:0006db73       ?__crt_transform_string@@YAIIQB_WQADI@Z 1006eb73 f i libucrtd:environment_initialization.obj
 0001:0006db95       ?detach@?$__crt_unique_heap_ptr@DU__crt_internal_free_policy@@@@QAEPADXZ 1006eb95 f i libucrtd:environment_initialization.obj
 0001:0006db9b       ?detach@?$__crt_unique_heap_ptr@_WU__crt_internal_free_policy@@@@QAEPA_WXZ 1006eb9b f i libucrtd:environment_initialization.obj
 0001:0006dba1       ?get@?$__crt_unique_heap_ptr@_WU__crt_internal_free_policy@@@@QBEPA_WXZ 1006eba1 f i libucrtd:environment_initialization.obj
 0001:0006dbc8       ?initialize@?$dual_state_global@PAPAD@__crt_state_management@@QAEXQAPAD@Z 1006ebc8 f i libucrtd:environment_initialization.obj
 0001:0006dbee       ?initialize@?$dual_state_global@PAPA_W@__crt_state_management@@QAEXQAPA_W@Z 1006ebee f i libucrtd:environment_initialization.obj
 0001:0006dc14       ?is_valid@?$__crt_unique_heap_ptr@PADU__crt_internal_free_policy@@@@QBE_NXZ 1006ec14 f i libucrtd:environment_initialization.obj
 0001:0006dc1b       ?is_valid@?$__crt_unique_heap_ptr@PA_WU__crt_internal_free_policy@@@@QBE_NXZ 1006ec1b f i libucrtd:environment_initialization.obj
 0001:0006dc22       ?is_valid@?$__crt_unique_heap_ptr@_WU__crt_internal_free_policy@@@@QBE_NXZ 1006ec22 f i libucrtd:environment_initialization.obj
 0001:0006dc31       ?release@?$__crt_unique_heap_ptr@_WU__crt_internal_free_policy@@@@QAEXXZ 1006ec31 f i libucrtd:environment_initialization.obj
 0001:0006dc46       ?value@?$dual_state_global@PAPAD@__crt_state_management@@QAEAAPAPADXZ 1006ec46 f i libucrtd:environment_initialization.obj
 0001:0006dc49       ?value@?$dual_state_global@PAPA_W@__crt_state_management@@QAEAAPAPA_WXZ 1006ec49 f i libucrtd:environment_initialization.obj
 0001:0006dc4c       ___dcrt_get_or_create_narrow_environment_nolock 1006ec4c f   libucrtd:environment_initialization.obj
 0001:0006dc51       ___dcrt_get_or_create_wide_environment_nolock 1006ec51 f   libucrtd:environment_initialization.obj
 0001:0006dc56       ___dcrt_uninitialize_environments_nolock 1006ec56 f   libucrtd:environment_initialization.obj
 0001:0006dc8d       ___p__environ              1006ec8d f   libucrtd:environment_initialization.obj
 0001:0006dc93       ___p__wenviron             1006ec93 f   libucrtd:environment_initialization.obj
 0001:0006dc99       __get_initial_narrow_environment 1006ec99 f   libucrtd:environment_initialization.obj
 0001:0006dcad       __get_initial_wide_environment 1006ecad f   libucrtd:environment_initialization.obj
 0001:0006dcc1       __initialize_narrow_environment 1006ecc1 f   libucrtd:environment_initialization.obj
 0001:0006dcc6       __initialize_wide_environment 1006ecc6 f   libucrtd:environment_initialization.obj
 0001:0006dcd0       ??$?B$$A6AXXZ@__crt_fast_encoded_nullptr_t@@QBEP6AXXZXZ 1006ecd0 f i libucrtd:onexit.obj
 0001:0006dcf0       ??$?BP6AXXZ@__crt_fast_encoded_nullptr_t@@QBEPAP6AXXZXZ 1006ecf0 f i libucrtd:onexit.obj
 0001:0006dd10       ??$?RP6AXXZ@__crt_internal_free_policy@@QBEXQBQ6AXXZ@Z 1006ed10 f i libucrtd:onexit.obj
 0001:0006ded0       ??$__crt_fast_decode_pointer@P6AXXZ@@YAP6AXXZQ6AXXZ@Z 1006eed0 f i libucrtd:onexit.obj
 0001:0006df00       ??$__crt_fast_decode_pointer@PAP6AXXZ@@YAPAP6AXXZQAP6AXXZ@Z 1006ef00 f i libucrtd:onexit.obj
 0001:0006df30       ??$__crt_fast_encode_pointer@P6AHXZ@@YAP6AHXZQ6AHXZ@Z 1006ef30 f i libucrtd:onexit.obj
 0001:0006df60       ??$__crt_fast_encode_pointer@P6AXXZ@@YAP6AXXZQ6AXXZ@Z 1006ef60 f i libucrtd:onexit.obj
 0001:0006df90       ??$__crt_fast_encode_pointer@PAP6AXXZ@@YAPAP6AXXZQAP6AXXZ@Z 1006ef90 f i libucrtd:onexit.obj
 0001:0006e090       ??0?$__crt_unique_heap_ptr@P6AXXZU__crt_internal_free_policy@@@@QAE@QAP6AXXZ@Z 1006f090 f i libucrtd:onexit.obj
 0001:0006e0b0       ??1?$__crt_unique_heap_ptr@P6AXXZU__crt_internal_free_policy@@@@QAE@XZ 1006f0b0 f i libucrtd:onexit.obj
 0001:0006e0d0       ??1scoped_global_state_reset@__crt_state_management@@QAE@XZ 1006f0d0 f i libucrtd:onexit.obj
 0001:0006e540       ?detach@?$__crt_unique_heap_ptr@P6AXXZU__crt_internal_free_policy@@@@QAEPAP6AXXZXZ 1006f540 f i libucrtd:onexit.obj
 0001:0006e570       ?release@?$__crt_unique_heap_ptr@P6AXXZU__crt_internal_free_policy@@@@QAEXXZ 1006f570 f i libucrtd:onexit.obj
 0001:0006e5a0       __crt_at_quick_exit        1006f5a0 f   libucrtd:onexit.obj
 0001:0006e5c0       __crt_atexit               1006f5c0 f   libucrtd:onexit.obj
 0001:0006e5e0       __execute_onexit_table     1006f5e0 f   libucrtd:onexit.obj
 0001:0006e610       __initialize_onexit_table  1006f610 f   libucrtd:onexit.obj
 0001:0006e670       __register_onexit_function 1006f670 f   libucrtd:onexit.obj
 0001:0006e8b0       ??$?BX@__crt_fast_encoded_nullptr_t@@QBEPAXXZ 1006f8b0 f i libucrtd:initialization.obj
 0001:0006e8d0       ??$__crt_fast_encode_pointer@PAX@@YAPAXQAX@Z 1006f8d0 f i libucrtd:initialization.obj
 0001:0006e990       ?initialize@?$dual_state_global@PAU__crt_locale_data@@@__crt_state_management@@QAEXQAU__crt_locale_data@@@Z 1006f990 f i libucrtd:initialization.obj
 0001:0006e9d0       ___acrt_initialize         1006f9d0 f   libucrtd:initialization.obj
 0001:0006e9f0       ___acrt_thread_attach      1006f9f0 f   libucrtd:initialization.obj
 0001:0006ea10       ___acrt_thread_detach      1006fa10 f   libucrtd:initialization.obj
 0001:0006ea20       ___acrt_uninitialize       1006fa20 f   libucrtd:initialization.obj
 0001:0006ea40       ___acrt_uninitialize_critical 1006fa40 f   libucrtd:initialization.obj
 0001:000702b0       __CrtCheckMemory           100712b0 f   libucrtd:debug_heap.obj
 0001:00070440       __CrtDoForAllClientObjects 10071440 f   libucrtd:debug_heap.obj
 0001:00070590       __CrtDumpMemoryLeaks       10071590 f   libucrtd:debug_heap.obj
 0001:00070630       __CrtGetAllocHook          10071630 f   libucrtd:debug_heap.obj
 0001:00070640       __CrtGetDumpClient         10071640 f   libucrtd:debug_heap.obj
 0001:00070650       __CrtIsMemoryBlock         10071650 f   libucrtd:debug_heap.obj
 0001:000707a0       __CrtIsValidHeapPointer    100717a0 f   libucrtd:debug_heap.obj
 0001:000707d0       __CrtIsValidPointer        100717d0 f   libucrtd:debug_heap.obj
 0001:00070800       __CrtMemCheckpoint         10071800 f   libucrtd:debug_heap.obj
 0001:00070a30       __CrtMemDifference         10071a30 f   libucrtd:debug_heap.obj
 0001:00070ca0       __CrtMemDumpAllObjectsSince 10071ca0 f   libucrtd:debug_heap.obj
 0001:00070d40       __CrtMemDumpStatistics     10071d40 f   libucrtd:debug_heap.obj
 0001:00070e70       __CrtReportBlockType       10071e70 f   libucrtd:debug_heap.obj
 0001:00070ea0       __CrtSetAllocHook          10071ea0 f   libucrtd:debug_heap.obj
 0001:00070ec0       __CrtSetBreakAlloc         10071ec0 f   libucrtd:debug_heap.obj
 0001:00070ee0       __CrtSetDbgBlockType       10071ee0 f   libucrtd:debug_heap.obj
 0001:00070fc0       __CrtSetDbgFlag            10071fc0 f   libucrtd:debug_heap.obj
 0001:00071130       __CrtSetDumpClient         10072130 f   libucrtd:debug_heap.obj
 0001:00071150       ___p__crtBreakAlloc        10072150 f   libucrtd:debug_heap.obj
 0001:00071160       ___p__crtDbgFlag           10072160 f   libucrtd:debug_heap.obj
 0001:00071170       __aligned_free_dbg         10072170 f   libucrtd:debug_heap.obj
 0001:00071220       __aligned_malloc_dbg       10072220 f   libucrtd:debug_heap.obj
 0001:00071250       __aligned_msize_dbg        10072250 f   libucrtd:debug_heap.obj
 0001:00071380       __aligned_offset_malloc_dbg 10072380 f   libucrtd:debug_heap.obj
 0001:00071560       __aligned_offset_realloc_dbg 10072560 f   libucrtd:debug_heap.obj
 0001:00071870       __aligned_offset_recalloc_dbg 10072870 f   libucrtd:debug_heap.obj
 0001:00071930       __aligned_realloc_dbg      10072930 f   libucrtd:debug_heap.obj
 0001:00071960       __aligned_recalloc_dbg     10072960 f   libucrtd:debug_heap.obj
 0001:00071990       __calloc_dbg               10072990 f   libucrtd:debug_heap.obj
 0001:00071a00       __expand_dbg               10072a00 f   libucrtd:debug_heap.obj
 0001:00071b30       __free_dbg                 10072b30 f   libucrtd:debug_heap.obj
 0001:00071be0       __malloc_dbg               10072be0 f   libucrtd:debug_heap.obj
 0001:00071c00       __msize_dbg                10072c00 f   libucrtd:debug_heap.obj
 0001:00071d90       __realloc_dbg              10072d90 f   libucrtd:debug_heap.obj
 0001:00071e30       __recalloc_dbg             10072e30 f   libucrtd:debug_heap.obj
 0001:00071ee0       __initterm                 10072ee0 f   libucrtd:initterm.obj
 0001:00071f30       __initterm_e               10072f30 f   libucrtd:initterm.obj
 0001:000722a0       _strcpy_s                  100732a0 f   libucrtd:strcpy_s.obj
 0001:000726d0       _strcat_s                  100736d0 f   libucrtd:strcat_s.obj
 0001:000726f0       ??$?B$$A6AHI@Z@__crt_fast_encoded_nullptr_t@@QBEP6AHI@ZXZ 100736f0 f i libucrtd:new_handler.obj
 0001:00072710       ??$__crt_fast_decode_pointer@P6AHI@Z@@YAP6AHI@ZQ6AHI@Z@Z 10073710 f i libucrtd:new_handler.obj
 0001:00072740       ??$__crt_fast_encode_pointer@P6AHI@Z@@YAP6AHI@ZQ6AHI@Z@Z 10073740 f i libucrtd:new_handler.obj
 0001:00072770       ?_set_new_handler@@YAP6AHI@ZH@Z 10073770 f   libucrtd:new_handler.obj
 0001:000727d0       ?initialize@?$dual_state_global@P6AHI@Z@__crt_state_management@@QAEXQ6AHI@Z@Z 100737d0 f i libucrtd:new_handler.obj
 0001:00072810       ?value@?$dual_state_global@P6AHI@Z@__crt_state_management@@QAEAAP6AHI@ZXZ 10073810 f i libucrtd:new_handler.obj
 0001:00072830       ___acrt_initialize_new_handler 10073830 f   libucrtd:new_handler.obj
 0001:00072850       __callnewh                 10073850 f   libucrtd:new_handler.obj
 0001:00072890       __query_new_handler        10073890 f   libucrtd:new_handler.obj
 0001:00072920       __set_new_handler          10073920 f   libucrtd:new_handler.obj
 0001:00072a00       __get_terminate            10073a00 f   libucrtd:terminate.obj
 0001:00072a20       _set_terminate             10073a20 f   libucrtd:terminate.obj
 0001:00072a50       _terminate                 10073a50 f   libucrtd:terminate.obj
 0001:00073420       __makepath                 10074420 f   libucrtd:makepath.obj
 0001:00073450       __makepath_s               10074450 f   libucrtd:makepath.obj
 0001:00073480       __wmakepath                10074480 f   libucrtd:makepath.obj
 0001:000734b0       __wmakepath_s              100744b0 f   libucrtd:makepath.obj
 0001:00074e00       ??$tcsncpy_s@AAPADIAAPBDABI@?$__crt_char_traits@D@@SAHAAPAD$$QAIAAPBDABI@Z 10075e00 f i libucrtd:splitpath.obj
 0001:00074e30       ??$tcsncpy_s@AAPADIAAPBDH@?$__crt_char_traits@D@@SAHAAPAD$$QAIAAPBD$$QAH@Z 10075e30 f i libucrtd:splitpath.obj
 0001:00074e60       ??$tcsncpy_s@AAPA_WIAAPB_WABI@?$__crt_char_traits@_W@@SAHAAPA_W$$QAIAAPB_WABI@Z 10075e60 f i libucrtd:splitpath.obj
 0001:00074e90       ??$tcsncpy_s@AAPA_WIAAPB_WH@?$__crt_char_traits@_W@@SAHAAPA_W$$QAIAAPB_W$$QAH@Z 10075e90 f i libucrtd:splitpath.obj
 0001:000750d0       __splitpath                100760d0 f   libucrtd:splitpath.obj
 0001:00075100       __splitpath_s              10076100 f   libucrtd:splitpath.obj
 0001:00075150       __wsplitpath               10076150 f   libucrtd:splitpath.obj
 0001:00075180       __wsplitpath_s             10076180 f   libucrtd:splitpath.obj
 0001:000751d0       __set_abort_behavior       100761d0 f   libucrtd:abort.obj
 0001:00075200       _abort                     10076200 f   libucrtd:abort.obj
 0001:00075270       _strcmp                    10076270 f   libucrtd:strcmp.obj
 0001:00075300       _strlen                    10076300 f   libucrtd:strlen.obj
 0001:00075390       ??$is_overflow_condition@K@__crt_strtox@@YA_NIK@Z 10076390 f i libucrtd:atox.obj
 0001:000753f0       ??$is_overflow_condition@_K@__crt_strtox@@YA_NI_K@Z 100763f0 f i libucrtd:atox.obj
 0001:00075480       ??$make_c_string_character_source@D$$T@__crt_strtox@@YA?AV?$c_string_character_source@D@0@QBD$$T@Z 10076480 f i libucrtd:atox.obj
 0001:000754a0       ??$make_c_string_character_source@_W$$T@__crt_strtox@@YA?AV?$c_string_character_source@_W@0@QB_W$$T@Z 100764a0 f i libucrtd:atox.obj
 0001:000754c0       ??$parse_integer@KV?$c_string_character_source@D@__crt_strtox@@@__crt_strtox@@YAKQAU__crt_locale_pointers@@V?$c_string_character_source@D@0@H_N@Z 100764c0 f i libucrtd:atox.obj
 0001:00075830       ??$parse_integer@KV?$c_string_character_source@_W@__crt_strtox@@@__crt_strtox@@YAKQAU__crt_locale_pointers@@V?$c_string_character_source@_W@0@H_N@Z 10076830 f i libucrtd:atox.obj
 0001:00075ba0       ??$parse_integer@_KV?$c_string_character_source@D@__crt_strtox@@@__crt_strtox@@YA_KQAU__crt_locale_pointers@@V?$c_string_character_source@D@0@H_N@Z 10076ba0 f i libucrtd:atox.obj
 0001:00075fc0       ??$parse_integer@_KV?$c_string_character_source@_W@__crt_strtox@@@__crt_strtox@@YA_KQAU__crt_locale_pointers@@V?$c_string_character_source@_W@0@H_N@Z 10076fc0 f i libucrtd:atox.obj
 0001:000763f0       ??$parse_integer_from_string@JD$$T@__crt_strtox@@YAJQBD$$THQAU__crt_locale_pointers@@@Z 100773f0 f i libucrtd:atox.obj
 0001:00076430       ??$parse_integer_from_string@J_W$$T@__crt_strtox@@YAJQB_W$$THQAU__crt_locale_pointers@@@Z 10077430 f i libucrtd:atox.obj
 0001:00076470       ??$parse_integer_from_string@_JD$$T@__crt_strtox@@YA_JQBD$$THQAU__crt_locale_pointers@@@Z 10077470 f i libucrtd:atox.obj
 0001:000764b0       ??$parse_integer_from_string@_J_W$$T@__crt_strtox@@YA_JQB_W$$THQAU__crt_locale_pointers@@@Z 100774b0 f i libucrtd:atox.obj
 0001:000764f0       ??0?$c_string_character_source@D@__crt_strtox@@QAE@QBDQAPBD@Z 100774f0 f i libucrtd:atox.obj
 0001:00076530       ??0?$c_string_character_source@_W@__crt_strtox@@QAE@QB_WQAPB_W@Z 10077530 f i libucrtd:atox.obj
 0001:00076570       ??1?$c_string_character_source@D@__crt_strtox@@QAE@XZ 10077570 f i libucrtd:atox.obj
 0001:000765a0       ??1?$c_string_character_source@_W@__crt_strtox@@QAE@XZ 100775a0 f i libucrtd:atox.obj
 0001:000765d0       ?get@?$c_string_character_source@D@__crt_strtox@@QAEDXZ 100775d0 f i libucrtd:atox.obj
 0001:00076600       ?get@?$c_string_character_source@_W@__crt_strtox@@QAE_WXZ 10077600 f i libucrtd:atox.obj
 0001:00076630       ?is_space@__crt_strtox@@YA_NDQAU__crt_locale_pointers@@@Z 10077630 f i libucrtd:atox.obj
 0001:00076670       ?is_space@__crt_strtox@@YA_N_WPAU__crt_locale_pointers@@@Z 10077670 f i libucrtd:atox.obj
 0001:000766a0       ?maximum_signed_value@__crt_strtox@@YAJK@Z 100776a0 f i libucrtd:atox.obj
 0001:000766b0       ?maximum_signed_value@__crt_strtox@@YA_J_K@Z 100776b0 f i libucrtd:atox.obj
 0001:000766c0       ?minimum_signed_value@__crt_strtox@@YAJK@Z 100776c0 f i libucrtd:atox.obj
 0001:000766d0       ?minimum_signed_value@__crt_strtox@@YA_J_K@Z 100776d0 f i libucrtd:atox.obj
 0001:000766e0       ?parse_digit@__crt_strtox@@YAID@Z 100776e0 f i libucrtd:atox.obj
 0001:00076740       ?parse_digit@__crt_strtox@@YAI_W@Z 10077740 f i libucrtd:atox.obj
 0001:00076790       ?restore_state@?$c_string_character_source@D@__crt_strtox@@QAE_NQBD@Z 10077790 f i libucrtd:atox.obj
 0001:000767b0       ?restore_state@?$c_string_character_source@_W@__crt_strtox@@QAE_NQB_W@Z 100777b0 f i libucrtd:atox.obj
 0001:000767d0       ?save_state@?$c_string_character_source@D@__crt_strtox@@QBEPBDXZ 100777d0 f i libucrtd:atox.obj
 0001:000767f0       ?save_state@?$c_string_character_source@_W@__crt_strtox@@QBEPB_WXZ 100777f0 f i libucrtd:atox.obj
 0001:00076810       ?unget@?$c_string_character_source@D@__crt_strtox@@QAEXD@Z 10077810 f i libucrtd:atox.obj
 0001:000768c0       ?unget@?$c_string_character_source@_W@__crt_strtox@@QAEX_W@Z 100778c0 f i libucrtd:atox.obj
 0001:00076970       ?validate@?$c_string_character_source@D@__crt_strtox@@QBE_NXZ 10077970 f i libucrtd:atox.obj
 0001:00076a00       ?validate@?$c_string_character_source@_W@__crt_strtox@@QBE_NXZ 10077a00 f i libucrtd:atox.obj
 0001:00076a90       ?wide_character_to_digit@__crt_strtox@@YAH_W@Z 10077a90 f i libucrtd:atox.obj
 0001:00076dc0       ___ascii_iswalpha          10077dc0 f i libucrtd:atox.obj
 0001:00076e00       ___ascii_toupper           10077e00 f i libucrtd:atox.obj
 0001:00076e20       ___ascii_towupper          10077e20 f i libucrtd:atox.obj
 0001:00076e40       __atoi64                   10077e40 f   libucrtd:atox.obj
 0001:00076e60       __atoi64_l                 10077e60 f   libucrtd:atox.obj
 0001:00076e80       __atoi_l                   10077e80 f   libucrtd:atox.obj
 0001:00076ea0       __atol_l                   10077ea0 f   libucrtd:atox.obj
 0001:00076ec0       __atoll_l                  10077ec0 f   libucrtd:atox.obj
 0001:00076ee0       __wtoi                     10077ee0 f   libucrtd:atox.obj
 0001:00076f00       __wtoi64                   10077f00 f   libucrtd:atox.obj
 0001:00076f20       __wtoi64_l                 10077f20 f   libucrtd:atox.obj
 0001:00076f40       __wtoi_l                   10077f40 f   libucrtd:atox.obj
 0001:00076f60       __wtol                     10077f60 f   libucrtd:atox.obj
 0001:00076f80       __wtol_l                   10077f80 f   libucrtd:atox.obj
 0001:00076fa0       __wtoll                    10077fa0 f   libucrtd:atox.obj
 0001:00076fc0       __wtoll_l                  10077fc0 f   libucrtd:atox.obj
 0001:00076fe0       _atoi                      10077fe0 f   libucrtd:atox.obj
 0001:00077000       _atol                      10078000 f   libucrtd:atox.obj
 0001:00077020       _atoll                     10078020 f   libucrtd:atox.obj
 0001:00077040       _strncmp                   10078040 f   libucrtd:strncmp.obj
 0001:000770c0       _wcsncmp                   100780c0 f   libucrtd:wcsncmp.obj
 0001:00077120       __CrtGetDebugFillThreshold 10078120 f   libucrtd:debug_fill_threshold.obj
 0001:00077130       __CrtSetDebugFillThreshold 10078130 f   libucrtd:debug_fill_threshold.obj
 0001:00077150       ??$make_c_string_character_source@DPAPAD@__crt_strtox@@YA?AV?$c_string_character_source@D@0@QBDQAPAD@Z 10078150 f i libucrtd:strtox.obj
 0001:00077170       ??$make_c_string_character_source@_WPAPA_W@__crt_strtox@@YA?AV?$c_string_character_source@_W@0@QB_WQAPA_W@Z 10078170 f i libucrtd:strtox.obj
 0001:00077190       ??$parse_integer_from_string@JDPAPAD@__crt_strtox@@YAJQBDQAPADHQAU__crt_locale_pointers@@@Z 10078190 f i libucrtd:strtox.obj
 0001:000771d0       ??$parse_integer_from_string@J_WPAPA_W@__crt_strtox@@YAJQB_WQAPA_WHQAU__crt_locale_pointers@@@Z 100781d0 f i libucrtd:strtox.obj
 0001:00077210       ??$parse_integer_from_string@KDPAPAD@__crt_strtox@@YAKQBDQAPADHQAU__crt_locale_pointers@@@Z 10078210 f i libucrtd:strtox.obj
 0001:00077250       ??$parse_integer_from_string@K_WPAPA_W@__crt_strtox@@YAKQB_WQAPA_WHQAU__crt_locale_pointers@@@Z 10078250 f i libucrtd:strtox.obj
 0001:00077290       ??$parse_integer_from_string@_JDPAPAD@__crt_strtox@@YA_JQBDQAPADHQAU__crt_locale_pointers@@@Z 10078290 f i libucrtd:strtox.obj
 0001:000772d0       ??$parse_integer_from_string@_J_WPAPA_W@__crt_strtox@@YA_JQB_WQAPA_WHQAU__crt_locale_pointers@@@Z 100782d0 f i libucrtd:strtox.obj
 0001:00077310       ??$parse_integer_from_string@_KDPAPAD@__crt_strtox@@YA_KQBDQAPADHQAU__crt_locale_pointers@@@Z 10078310 f i libucrtd:strtox.obj
 0001:00077350       ??$parse_integer_from_string@_K_WPAPA_W@__crt_strtox@@YA_KQB_WQAPA_WHQAU__crt_locale_pointers@@@Z 10078350 f i libucrtd:strtox.obj
 0001:00077390       __strtoi64                 10078390 f   libucrtd:strtox.obj
 0001:000773b0       __strtoi64_l               100783b0 f   libucrtd:strtox.obj
 0001:000773d0       __strtoimax_l              100783d0 f   libucrtd:strtox.obj
 0001:000773f0       __strtol_l                 100783f0 f   libucrtd:strtox.obj
 0001:00077410       __strtoll_l                10078410 f   libucrtd:strtox.obj
 0001:00077430       __strtoui64                10078430 f   libucrtd:strtox.obj
 0001:00077450       __strtoui64_l              10078450 f   libucrtd:strtox.obj
 0001:00077470       __strtoul_l                10078470 f   libucrtd:strtox.obj
 0001:00077490       __strtoull_l               10078490 f   libucrtd:strtox.obj
 0001:000774b0       __strtoumax_l              100784b0 f   libucrtd:strtox.obj
 0001:000774d0       __wcstoi64                 100784d0 f   libucrtd:strtox.obj
 0001:000774f0       __wcstoi64_l               100784f0 f   libucrtd:strtox.obj
 0001:00077510       __wcstoimax_l              10078510 f   libucrtd:strtox.obj
 0001:00077530       __wcstol_l                 10078530 f   libucrtd:strtox.obj
 0001:00077550       __wcstoll_l                10078550 f   libucrtd:strtox.obj
 0001:00077570       __wcstoui64                10078570 f   libucrtd:strtox.obj
 0001:00077590       __wcstoui64_l              10078590 f   libucrtd:strtox.obj
 0001:000775b0       __wcstoul_l                100785b0 f   libucrtd:strtox.obj
 0001:000775d0       __wcstoull_l               100785d0 f   libucrtd:strtox.obj
 0001:000775f0       __wcstoumax_l              100785f0 f   libucrtd:strtox.obj
 0001:00077610       _strtoimax                 10078610 f   libucrtd:strtox.obj
 0001:00077630       _strtol                    10078630 f   libucrtd:strtox.obj
 0001:00077650       _strtoll                   10078650 f   libucrtd:strtox.obj
 0001:00077670       _strtoul                   10078670 f   libucrtd:strtox.obj
 0001:00077690       _strtoull                  10078690 f   libucrtd:strtox.obj
 0001:000776b0       _strtoumax                 100786b0 f   libucrtd:strtox.obj
 0001:000776d0       _wcstoimax                 100786d0 f   libucrtd:strtox.obj
 0001:000776f0       _wcstol                    100786f0 f   libucrtd:strtox.obj
 0001:00077710       _wcstoll                   10078710 f   libucrtd:strtox.obj
 0001:00077730       _wcstoul                   10078730 f   libucrtd:strtox.obj
 0001:00077750       _wcstoull                  10078750 f   libucrtd:strtox.obj
 0001:00077770       _wcstoumax                 10078770 f   libucrtd:strtox.obj
 0001:00077790       __mbtowc_l                 10078790 f   libucrtd:mbtowc.obj
 0001:00077ab0       _mbtowc                    10078ab0 f   libucrtd:mbtowc.obj
 0001:00077ad0       __wctomb_l                 10078ad0 f   libucrtd:wctomb.obj
 0001:00077b50       __wctomb_s_l               10078b50 f   libucrtd:wctomb.obj
 0001:00077f10       _wctomb                    10078f10 f   libucrtd:wctomb.obj
 0001:00077f60       _wctomb_s                  10078f60 f   libucrtd:wctomb.obj
 0001:00077f90       ??$?RU__acrt_ptd@@@__crt_internal_free_policy@@QBEXQBU__acrt_ptd@@@Z 10078f90 f i libucrtd:per_thread_data.obj
 0001:00078440       ??0?$__crt_unique_heap_ptr@U__acrt_ptd@@U__crt_internal_free_policy@@@@QAE@QAU__acrt_ptd@@@Z 10079440 f i libucrtd:per_thread_data.obj
 0001:00078460       ??0__crt_scoped_get_last_error_reset@@QAE@XZ 10079460 f i libucrtd:per_thread_data.obj
 0001:00078480       ??1?$__crt_unique_heap_ptr@U__acrt_ptd@@U__crt_internal_free_policy@@@@QAE@XZ 10079480 f i libucrtd:per_thread_data.obj
 0001:000784a0       ??1__crt_scoped_get_last_error_reset@@QAE@XZ 100794a0 f i libucrtd:per_thread_data.obj
 0001:000784c0       ??B?$__crt_unique_heap_ptr@U__acrt_ptd@@U__crt_internal_free_policy@@@@QBE_NXZ 100794c0 f i libucrtd:per_thread_data.obj
 0001:000787a0       ?dangerous_get_state_array@?$dual_state_global@PAU__crt_locale_data@@@__crt_state_management@@QAEPAPAU__crt_locale_data@@XZ 100797a0 f i libucrtd:per_thread_data.obj
 0001:00078920       ?detach@?$__crt_unique_heap_ptr@U__acrt_ptd@@U__crt_internal_free_policy@@@@QAEPAU__acrt_ptd@@XZ 10079920 f i libucrtd:per_thread_data.obj
 0001:00078950       ?get@?$__crt_unique_heap_ptr@U__acrt_ptd@@U__crt_internal_free_policy@@@@QBEPAU__acrt_ptd@@XZ 10079950 f i libucrtd:per_thread_data.obj
 0001:00078970       ?get_current_state_index@__crt_state_management@@YAIABV__crt_scoped_get_last_error_reset@@@Z 10079970 f i libucrtd:per_thread_data.obj
 0001:00078ae0       ?is_valid@?$__crt_unique_heap_ptr@U__acrt_ptd@@U__crt_internal_free_policy@@@@QBE_NXZ 10079ae0 f i libucrtd:per_thread_data.obj
 0001:00078b10       ?release@?$__crt_unique_heap_ptr@U__acrt_ptd@@U__crt_internal_free_policy@@@@QAEXXZ 10079b10 f i libucrtd:per_thread_data.obj
 0001:00078c00       ?value@?$dual_state_global@PAU__crt_locale_data@@@__crt_state_management@@QAEAAPAU__crt_locale_data@@XZ 10079c00 f i libucrtd:per_thread_data.obj
 0001:00078c20       ___acrt_freeptd            10079c20 f   libucrtd:per_thread_data.obj
 0001:00078c50       ___acrt_getptd             10079c50 f   libucrtd:per_thread_data.obj
 0001:00078c70       ___acrt_getptd_head        10079c70 f   libucrtd:per_thread_data.obj
 0001:00078c90       ___acrt_getptd_noexit      10079c90 f   libucrtd:per_thread_data.obj
 0001:00078ca0       ___acrt_initialize_ptd     10079ca0 f   libucrtd:per_thread_data.obj
 0001:00078ce0       ___acrt_uninitialize_ptd   10079ce0 f   libucrtd:per_thread_data.obj
 0001:00078d10       ___threadhandle            10079d10 f   libucrtd:per_thread_data.obj
 0001:00078d20       ___threadid                10079d20 f   libucrtd:per_thread_data.obj
 0001:00078d30       ?value@?$dual_state_global@PAU__crt_multibyte_data@@@__crt_state_management@@QAEAAPAU__crt_multibyte_data@@XZ 10079d30 f i libucrtd:locale_update.obj
 0001:00078d50       ___acrt_update_locale_info 10079d50 f   libucrtd:locale_update.obj
 0001:00078d90       ___acrt_update_multibyte_info 10079d90 f   libucrtd:locale_update.obj
 0001:00078dd0       ?__acrt_fp_classify@@YA?AW4__acrt_fp_class@@ABN@Z 10079dd0 f i libucrtd:cvt.obj
 0001:00078ef0       ?__acrt_fp_is_negative@@YA_NABN@Z 10079ef0 f i libucrtd:cvt.obj
 0001:00079f40       ?strrchr@@YAPADQADH@Z      1007af40 f i libucrtd:cvt.obj
 0001:00079f60       ___acrt_fp_format          1007af60 f   libucrtd:cvt.obj
 0001:0007a3f0       __fputwc_nolock            1007b3f0 f   libucrtd:fputwc.obj
 0001:0007a5e0       __fputwchar                1007b5e0 f   libucrtd:fputwc.obj
 0001:0007a600       __putwc_nolock             1007b600 f   libucrtd:fputwc.obj
 0001:0007a620       _fputwc                    1007b620 f   libucrtd:fputwc.obj
 0001:0007a730       _putwc                     1007b730 f   libucrtd:fputwc.obj
 0001:0007a750       _putwchar                  1007b750 f   libucrtd:fputwc.obj
 0001:0007a770       ?lowio_handle@__crt_stdio_stream@@QBEHXZ 1007b770 f i libucrtd:fileno.obj
 0001:0007a790       __fileno                   1007b790 f   libucrtd:fileno.obj
 0001:0007a830       ??$?RPAU__crt_stdio_stream_data@@@__crt_internal_free_policy@@QBEXQBQAU__crt_stdio_stream_data@@@Z 1007b830 f i libucrtd:_file.obj
 0001:0007a850       ??0?$__crt_unique_heap_ptr@PAU__crt_stdio_stream_data@@U__crt_internal_free_policy@@@@QAE@QAPAU__crt_stdio_stream_data@@@Z 1007b850 f i libucrtd:_file.obj
 0001:0007a870       ??1?$__crt_unique_heap_ptr@PAU__crt_stdio_stream_data@@U__crt_internal_free_policy@@@@QAE@XZ 1007b870 f i libucrtd:_file.obj
 0001:0007a890       ?detach@?$__crt_unique_heap_ptr@PAU__crt_stdio_stream_data@@U__crt_internal_free_policy@@@@QAEPAPAU__crt_stdio_stream_data@@XZ 1007b890 f i libucrtd:_file.obj
 0001:0007a8c0       ?release@?$__crt_unique_heap_ptr@PAU__crt_stdio_stream_data@@U__crt_internal_free_policy@@@@QAEXXZ 1007b8c0 f i libucrtd:_file.obj
 0001:0007a8f0       ___acrt_initialize_stdio   1007b8f0 f   libucrtd:_file.obj
 0001:0007aa60       ___acrt_iob_func           1007ba60 f   libucrtd:_file.obj
 0001:0007aa70       ___acrt_uninitialize_stdio 1007ba70 f   libucrtd:_file.obj
 0001:0007aaf0       __get_stream_buffer_pointers 1007baf0 f   libucrtd:_file.obj
 0001:0007abd0       __lock_file                1007bbd0 f   libucrtd:_file.obj
 0001:0007ac00       __unlock_file              1007bc00 f   libucrtd:_file.obj
 0001:0007ac30       __get_printf_count_output  1007bc30 f   libucrtd:printf_count_output.obj
 0001:0007ac60       __set_printf_count_output  1007bc60 f   libucrtd:printf_count_output.obj
 0001:0007acc0       ?has_any_buffer@__crt_stdio_stream@@QBE_NXZ 1007bcc0 f i libucrtd:_sftbuf.obj
 0001:0007ace0       ?has_any_of@__crt_stdio_stream@@QBE_NJ@Z 1007bce0 f i libucrtd:_sftbuf.obj
 0001:0007ad20       ?has_temporary_buffer@__crt_stdio_stream@@QBE_NXZ 1007bd20 f i libucrtd:_sftbuf.obj
 0001:0007ad40       ?set_flags@__crt_stdio_stream@@QBE_NJ@Z 1007bd40 f i libucrtd:_sftbuf.obj
 0001:0007ad90       ?unset_flags@__crt_stdio_stream@@QBE_NJ@Z 1007bd90 f i libucrtd:_sftbuf.obj
 0001:0007ade0       ___acrt_stdio_begin_temporary_buffering_nolock 1007bde0 f   libucrtd:_sftbuf.obj
 0001:0007afa0       ___acrt_stdio_end_temporary_buffering_nolock 1007bfa0 f   libucrtd:_sftbuf.obj
 0001:0007b030       ??$?RU__crt_locale_data@@@__crt_internal_free_policy@@QBEXQBU__crt_locale_data@@@Z 1007c030 f i libucrtd:wsetlocale.obj
 0001:0007b050       ??$?RU__crt_locale_pointers@@@__crt_internal_free_policy@@QBEXQBU__crt_locale_pointers@@@Z 1007c050 f i libucrtd:wsetlocale.obj
 0001:0007b070       ??$?RU__crt_multibyte_data@@@__crt_internal_free_policy@@QBEXQBU__crt_multibyte_data@@@Z 1007c070 f i libucrtd:wsetlocale.obj
 0001:0007b660       ??0?$__crt_unique_heap_ptr@U__crt_locale_data@@U__crt_internal_free_policy@@@@QAE@QAU__crt_locale_data@@@Z 1007c660 f i libucrtd:wsetlocale.obj
 0001:0007b680       ??0?$__crt_unique_heap_ptr@U__crt_locale_pointers@@U__crt_internal_free_policy@@@@QAE@QAU__crt_locale_pointers@@@Z 1007c680 f i libucrtd:wsetlocale.obj
 0001:0007b6a0       ??0?$__crt_unique_heap_ptr@U__crt_multibyte_data@@U__crt_internal_free_policy@@@@QAE@QAU__crt_multibyte_data@@@Z 1007c6a0 f i libucrtd:wsetlocale.obj
 0001:0007b6c0       ??0_expandlocale_locale_name_cache@@QAE@QA_WIQAU__crt_qualified_locale_data@@@Z 1007c6c0 f i libucrtd:wsetlocale.obj
 0001:0007b730       ??1?$__crt_unique_heap_ptr@U__crt_locale_data@@U__crt_internal_free_policy@@@@QAE@XZ 1007c730 f i libucrtd:wsetlocale.obj
 0001:0007b750       ??1?$__crt_unique_heap_ptr@U__crt_locale_pointers@@U__crt_internal_free_policy@@@@QAE@XZ 1007c750 f i libucrtd:wsetlocale.obj
 0001:0007b770       ??1?$__crt_unique_heap_ptr@U__crt_multibyte_data@@U__crt_internal_free_policy@@@@QAE@XZ 1007c770 f i libucrtd:wsetlocale.obj
 0001:0007b790       ??1_expandlocale_locale_name_cache@@QAE@XZ 1007c790 f i libucrtd:wsetlocale.obj
 0001:0007b7f0       ??B?$__crt_unique_heap_ptr@U__crt_locale_data@@U__crt_internal_free_policy@@@@QBE_NXZ 1007c7f0 f i libucrtd:wsetlocale.obj
 0001:0007b810       ??B?$__crt_unique_heap_ptr@U__crt_locale_pointers@@U__crt_internal_free_policy@@@@QBE_NXZ 1007c810 f i libucrtd:wsetlocale.obj
 0001:0007b830       ??B?$__crt_unique_heap_ptr@U__crt_multibyte_data@@U__crt_internal_free_policy@@@@QBE_NXZ 1007c830 f i libucrtd:wsetlocale.obj
 0001:0007bc20       ?commit_locale_name@_expandlocale_locale_name_cache@@QAEXQB_WI@Z 1007cc20 f i libucrtd:wsetlocale.obj
 0001:0007bc80       ?commit_locale_name_cache_already_updated@_expandlocale_locale_name_cache@@QAEXQB_WI@Z 1007cc80 f i libucrtd:wsetlocale.obj
 0001:0007bce0       ?detach@?$__crt_unique_heap_ptr@U__crt_locale_data@@U__crt_internal_free_policy@@@@QAEPAU__crt_locale_data@@XZ 1007cce0 f i libucrtd:wsetlocale.obj
 0001:0007bd10       ?detach@?$__crt_unique_heap_ptr@U__crt_locale_pointers@@U__crt_internal_free_policy@@@@QAEPAU__crt_locale_pointers@@XZ 1007cd10 f i libucrtd:wsetlocale.obj
 0001:0007bd40       ?detach@?$__crt_unique_heap_ptr@U__crt_multibyte_data@@U__crt_internal_free_policy@@@@QAEPAU__crt_multibyte_data@@XZ 1007cd40 f i libucrtd:wsetlocale.obj
 0001:0007bd70       ?get@?$__crt_unique_heap_ptr@U__crt_locale_data@@U__crt_internal_free_policy@@@@QBEPAU__crt_locale_data@@XZ 1007cd70 f i libucrtd:wsetlocale.obj
 0001:0007bd90       ?get@?$__crt_unique_heap_ptr@U__crt_locale_pointers@@U__crt_internal_free_policy@@@@QBEPAU__crt_locale_pointers@@XZ 1007cd90 f i libucrtd:wsetlocale.obj
 0001:0007bdb0       ?get@?$__crt_unique_heap_ptr@U__crt_multibyte_data@@U__crt_internal_free_policy@@@@QBEPAU__crt_multibyte_data@@XZ 1007cdb0 f i libucrtd:wsetlocale.obj
 0001:0007bdd0       ?is_valid@?$__crt_unique_heap_ptr@U__crt_locale_data@@U__crt_internal_free_policy@@@@QBE_NXZ 1007cdd0 f i libucrtd:wsetlocale.obj
 0001:0007be00       ?is_valid@?$__crt_unique_heap_ptr@U__crt_locale_pointers@@U__crt_internal_free_policy@@@@QBE_NXZ 1007ce00 f i libucrtd:wsetlocale.obj
 0001:0007be30       ?is_valid@?$__crt_unique_heap_ptr@U__crt_multibyte_data@@U__crt_internal_free_policy@@@@QBE_NXZ 1007ce30 f i libucrtd:wsetlocale.obj
 0001:0007be60       ?release@?$__crt_unique_heap_ptr@U__crt_locale_data@@U__crt_internal_free_policy@@@@QAEXXZ 1007ce60 f i libucrtd:wsetlocale.obj
 0001:0007be90       ?release@?$__crt_unique_heap_ptr@U__crt_locale_pointers@@U__crt_internal_free_policy@@@@QAEXXZ 1007ce90 f i libucrtd:wsetlocale.obj
 0001:0007bec0       ?release@?$__crt_unique_heap_ptr@U__crt_multibyte_data@@U__crt_internal_free_policy@@@@QAEXXZ 1007cec0 f i libucrtd:wsetlocale.obj
 0001:0007bef0       ___acrt_copy_locale_name   1007cef0 f   libucrtd:wsetlocale.obj
 0001:0007bf90       ___acrt_set_locale_changed 1007cf90 f   libucrtd:wsetlocale.obj
 0001:0007bfb0       ___acrt_uninitialize_locale 1007cfb0 f   libucrtd:wsetlocale.obj
 0001:0007bfd0       ___ascii_tolower           1007cfd0 f i libucrtd:wsetlocale.obj
 0001:0007bff0       ___ascii_towlower          1007cff0 f i libucrtd:wsetlocale.obj
 0001:0007c010       ___lc_lctowcs              1007d010 f   libucrtd:wsetlocale.obj
 0001:0007c0c0       ___lc_wcstolc              1007d0c0 f   libucrtd:wsetlocale.obj
 0001:0007c2f0       __configthreadlocale       1007d2f0 f   libucrtd:wsetlocale.obj
 0001:0007c470       __create_locale            1007d470 f   libucrtd:wsetlocale.obj
 0001:0007cab0       __free_locale              1007dab0 f   libucrtd:wsetlocale.obj
 0001:0007cbe0       __get_current_locale       1007dbe0 f   libucrtd:wsetlocale.obj
 0001:0007ccb0       __wcreate_locale           1007dcb0 f   libucrtd:wsetlocale.obj
 0001:0007cef0       __wcscats                  1007def0 f   libucrtd:wsetlocale.obj
 0001:0007cf70       __wsetlocale               1007df70 f   libucrtd:wsetlocale.obj
 0001:0007e670       ___p___mb_cur_max          1007f670 f   libucrtd:nlsdata.obj
 0001:0007e970       ___acrt_initialize_lowio   1007f970 f   libucrtd:ioinit.obj
 0001:0007ea10       ___acrt_uninitialize_lowio 1007fa10 f   libucrtd:ioinit.obj
 0001:0007ea70       __CrtGetReportHook         1007fa70 f   libucrtd:dbgrptt.obj
 0001:0007ea80       __CrtSetReportFile         1007fa80 f   libucrtd:dbgrptt.obj
 0001:0007eb80       __CrtSetReportHook         1007fb80 f   libucrtd:dbgrptt.obj
 0001:0007eba0       __CrtSetReportMode         1007fba0 f   libucrtd:dbgrptt.obj
 0001:0007ece0       __VCrtDbgReportA           1007fce0 f   libucrtd:dbgrptt.obj
 0001:0007f560       __VCrtDbgReportW           10080560 f   libucrtd:dbgrptt.obj
 0001:0007ff10       __snprintf_s               10080f10 f i libucrtd:dbgrptt.obj
 0001:0007ff50       __vsnprintf_s              10080f50 f i libucrtd:dbgrptt.obj
 0001:0007ff80       __vsnprintf_s_l            10080f80 f i libucrtd:dbgrptt.obj
 0001:00080110       ??$__acrt_wcs_to_mbs_cp@U__crt_win32_buffer_no_resizing@@@@YAHQB_WAAV?$__crt_win32_buffer@DU__crt_win32_buffer_no_resizing@@@@I@Z 10081110 f i libucrtd:getmodulefilenamea.obj
 0001:00080140       ??0?$__crt_win32_buffer@DU__crt_win32_buffer_no_resizing@@@@QAE@QADI@Z 10081140 f i libucrtd:getmodulefilenamea.obj
 0001:00080190       ??1?$__crt_win32_buffer@DU__crt_win32_buffer_no_resizing@@@@QAE@XZ 10081190 f i libucrtd:getmodulefilenamea.obj
 0001:00080200       ?__acrt_get_utf8_acp_compatibility_codepage@@YAIXZ 10081200 f i libucrtd:getmodulefilenamea.obj
 0001:00080290       ?_deallocate@?$__crt_win32_buffer@DU__crt_win32_buffer_no_resizing@@@@AAEXXZ 10081290 f i libucrtd:getmodulefilenamea.obj
 0001:000802d0       ?allocate@?$__crt_win32_buffer@DU__crt_win32_buffer_no_resizing@@@@QAEHI@Z 100812d0 f i libucrtd:getmodulefilenamea.obj
 0001:00080340       ?allocate@__crt_win32_buffer_no_resizing@@SAHQAPAXIABV__crt_win32_buffer_empty_debug_info@@@Z 10081340 f i libucrtd:getmodulefilenamea.obj
 0001:00080360       ?capacity@?$__crt_win32_buffer@DU__crt_win32_buffer_no_resizing@@@@QBEIXZ 10081360 f i libucrtd:getmodulefilenamea.obj
 0001:00080380       ?data@?$__crt_win32_buffer@DU__crt_win32_buffer_no_resizing@@@@QAEPADXZ 10081380 f i libucrtd:getmodulefilenamea.obj
 0001:000803a0       ?deallocate@__crt_win32_buffer_no_resizing@@SAXQAXABV__crt_win32_buffer_empty_debug_info@@@Z 100813a0 f i libucrtd:getmodulefilenamea.obj
 0001:000803b0       ?debug_info@?$__crt_win32_buffer@DU__crt_win32_buffer_no_resizing@@@@QBEABV__crt_win32_buffer_empty_debug_info@@XZ 100813b0 f i libucrtd:getmodulefilenamea.obj
 0001:000803c0       ?set_to_nullptr@?$__crt_win32_buffer@DU__crt_win32_buffer_no_resizing@@@@QAEXXZ 100813c0 f i libucrtd:getmodulefilenamea.obj
 0001:00080400       ?size@?$__crt_win32_buffer@DU__crt_win32_buffer_no_resizing@@@@QAEXI@Z 10081400 f i libucrtd:getmodulefilenamea.obj
 0001:00080420       ?size@?$__crt_win32_buffer@DU__crt_win32_buffer_no_resizing@@@@QBEIXZ 10081420 f i libucrtd:getmodulefilenamea.obj
 0001:00080440       ___acrt_GetModuleFileNameA 10081440 f   libucrtd:getmodulefilenamea.obj
 0001:00080720       ??$message_box@$$TABQBDABQBDK@?$__crt_char_traits@D@@SAH$$QA$$TABQBD1$$QAK@Z 10081720 f i libucrtd:crtmbox.obj
 0001:00080750       ??$message_box@$$TABQB_WABQB_WK@?$__crt_char_traits@_W@@SAH$$QA$$TABQB_W1$$QAK@Z 10081750 f i libucrtd:crtmbox.obj
 0001:00080780       ??$message_box@PAUHWND__@@ABQBDABQBDABI@?$__crt_char_traits@D@@SAH$$QAPAUHWND__@@ABQBD1ABI@Z 10081780 f i libucrtd:crtmbox.obj
 0001:000807b0       ??$message_box@PAUHWND__@@ABQB_WABQB_WABI@?$__crt_char_traits@_W@@SAH$$QAPAUHWND__@@ABQB_W1ABI@Z 100817b0 f i libucrtd:crtmbox.obj
 0001:000807e0       ??$output_debug_string@ABQBD@?$__crt_char_traits@D@@SAXABQBD@Z 100817e0 f i libucrtd:crtmbox.obj
 0001:00080800       ??$output_debug_string@ABQB_W@?$__crt_char_traits@_W@@SAXABQB_W@Z 10081800 f i libucrtd:crtmbox.obj
 0001:00080820       ___acrt_show_narrow_message_box 10081820 f   libucrtd:crtmbox.obj
 0001:00080840       ___acrt_show_wide_message_box 10081840 f   libucrtd:crtmbox.obj
 0001:00080860       ___acrt_initialize_locks   10081860 f   libucrtd:locks.obj
 0001:000808c0       ___acrt_lock               100818c0 f   libucrtd:locks.obj
 0001:000808e0       ___acrt_uninitialize_locks 100818e0 f   libucrtd:locks.obj
 0001:00080930       ___acrt_unlock             10081930 f   libucrtd:locks.obj
 0001:00080950       __lock_locales             10081950 f   libucrtd:locks.obj
 0001:00080970       __unlock_locales           10081970 f   libucrtd:locks.obj
 0001:00080990       ??$?B$$A6AXH@Z@__crt_fast_encoded_nullptr_t@@QBEP6AXH@ZXZ 10081990 f i libucrtd:signal.obj
 0001:00080a80       ??$__crt_fast_decode_pointer@P6AXH@Z@@YAP6AXH@ZQ6AXH@Z@Z 10081a80 f i libucrtd:signal.obj
 0001:00080ab0       ??$__crt_fast_encode_pointer@P6AXH@Z@@YAP6AXH@ZQ6AXH@Z@Z 10081ab0 f i libucrtd:signal.obj
 0001:00080d60       ?initialize@?$dual_state_global@P6AXH@Z@__crt_state_management@@QAEXQ6AXH@Z@Z 10081d60 f i libucrtd:signal.obj
 0001:00080ea0       ?value@?$dual_state_global@P6AXH@Z@__crt_state_management@@QAEAAP6AXH@ZXZ 10081ea0 f i libucrtd:signal.obj
 0001:00080ec0       ___acrt_get_sigabrt_handler 10081ec0 f   libucrtd:signal.obj
 0001:00080ee0       ___acrt_initialize_signal_handlers 10081ee0 f   libucrtd:signal.obj
 0001:00080f20       ___fpecode                 10081f20 f   libucrtd:signal.obj
 0001:00080f30       ___pxcptinfoptrs           10081f30 f   libucrtd:signal.obj
 0001:00080f40       _raise                     10081f40 f   libucrtd:signal.obj
 0001:00081310       _signal                    10082310 f   libucrtd:signal.obj
 0001:00081590       __msize                    10082590 f   libucrtd:msize.obj
 0001:000815b0       __msize_base               100825b0 f   libucrtd:msize.obj
 0001:00081650       __realloc_base             10082650 f   libucrtd:realloc_base.obj
 0001:00081710       ??$?B$$A6GHPA_WKJ@Z@__crt_fast_encoded_nullptr_t@@QBEP6GHPA_WKJ@ZXZ 10082710 f i libucrtd:winapi_thunks.obj
 0001:00081800       ??$__crt_fast_decode_pointer@P6GHPA_WKJ@Z@@YAP6GHPA_WKJ@ZQ6GH0KJ@Z@Z 10082800 f i libucrtd:winapi_thunks.obj
 0001:00081830       ??$__crt_fast_decode_pointer@PAX@@YAPAXQAX@Z 10082830 f i libucrtd:winapi_thunks.obj
 0001:00081860       ??$__crt_fast_encode_pointer@P6GHPA_WKJ@Z@@YAP6GHPA_WKJ@ZQ6GH0KJ@Z@Z 10082860 f i libucrtd:winapi_thunks.obj
 0001:000821c0       _GetCurrentThreadEffectiveToken 100831c0 f i libucrtd:winapi_thunks.obj
 0001:000821d0       ___acrt_AppPolicyGetProcessTerminationMethodInternal@4 100831d0 f   libucrtd:winapi_thunks.obj
 0001:00082210       ___acrt_AppPolicyGetShowDeveloperDiagnosticInternal@4 10083210 f   libucrtd:winapi_thunks.obj
 0001:00082250       ___acrt_AppPolicyGetThreadInitializationTypeInternal@4 10083250 f   libucrtd:winapi_thunks.obj
 0001:00082290       ___acrt_AppPolicyGetWindowingModelInternal@4 10083290 f   libucrtd:winapi_thunks.obj
 0001:000822d0       ___acrt_AreFileApisANSI@0  100832d0 f   libucrtd:winapi_thunks.obj
 0001:00082310       ___acrt_CompareStringEx@36 10083310 f   libucrtd:winapi_thunks.obj
 0001:00082390       ___acrt_EnumSystemLocalesEx@16 10083390 f   libucrtd:winapi_thunks.obj
 0001:000823f0       ___acrt_FlsAlloc@4         100833f0 f   libucrtd:winapi_thunks.obj
 0001:00082430       ___acrt_FlsFree@4          10083430 f   libucrtd:winapi_thunks.obj
 0001:00082470       ___acrt_FlsGetValue@4      10083470 f   libucrtd:winapi_thunks.obj
 0001:000824b0       ___acrt_FlsSetValue@8      100834b0 f   libucrtd:winapi_thunks.obj
 0001:00082500       ___acrt_GetDateFormatEx@28 10083500 f   libucrtd:winapi_thunks.obj
 0001:00082580       ___acrt_GetEnabledXStateFeatures@0 10083580 f   libucrtd:winapi_thunks.obj
 0001:000825c0       ___acrt_GetLocaleInfoEx@16 100835c0 f   libucrtd:winapi_thunks.obj
 0001:00082620       ___acrt_GetSystemTimePreciseAsFileTime@4 10083620 f   libucrtd:winapi_thunks.obj
 0001:00082660       ___acrt_GetTimeFormatEx@24 10083660 f   libucrtd:winapi_thunks.obj
 0001:000826d0       ___acrt_GetUserDefaultLocaleName@8 100836d0 f   libucrtd:winapi_thunks.obj
 0001:00082720       ___acrt_GetXStateFeaturesMask@8 10083720 f   libucrtd:winapi_thunks.obj
 0001:00082760       ___acrt_InitializeCriticalSectionEx@12 10083760 f   libucrtd:winapi_thunks.obj
 0001:000827b0       ___acrt_IsValidLocaleName@4 100837b0 f   libucrtd:winapi_thunks.obj
 0001:00082800       ___acrt_LCIDToLocaleName@16 10083800 f   libucrtd:winapi_thunks.obj
 0001:00082860       ___acrt_LCMapStringEx@36   10083860 f   libucrtd:winapi_thunks.obj
 0001:000828e0       ___acrt_LocaleNameToLCID@8 100838e0 f   libucrtd:winapi_thunks.obj
 0001:00082930       ___acrt_LocateXStateFeature@12 10083930 f   libucrtd:winapi_thunks.obj
 0001:00082980       ___acrt_MessageBoxA@16     10083980 f   libucrtd:winapi_thunks.obj
 0001:000829d0       ___acrt_MessageBoxW@16     100839d0 f   libucrtd:winapi_thunks.obj
 0001:00082a20       ___acrt_RoInitialize@4     10083a20 f   libucrtd:winapi_thunks.obj
 0001:00082a60       ___acrt_RoUninitialize@0   10083a60 f   libucrtd:winapi_thunks.obj
 0001:00082a90       ___acrt_RtlGenRandom@8     10083a90 f   libucrtd:winapi_thunks.obj
 0001:00082ad0       ___acrt_SetThreadStackGuarantee@4 10083ad0 f   libucrtd:winapi_thunks.obj
 0001:00082b10       ___acrt_can_show_message_box 10083b10 f   libucrtd:winapi_thunks.obj
 0001:00082b50       ___acrt_can_use_vista_locale_apis 10083b50 f   libucrtd:winapi_thunks.obj
 0001:00082b80       ___acrt_can_use_xstate_apis 10083b80 f   libucrtd:winapi_thunks.obj
 0001:00082bb0       ___acrt_eagerly_load_locale_apis 10083bb0 f   libucrtd:winapi_thunks.obj
 0001:00082bf0       ___acrt_get_parent_window  10083bf0 f   libucrtd:winapi_thunks.obj
 0001:00082c60       ___acrt_initialize_winapi_thunks 10083c60 f   libucrtd:winapi_thunks.obj
 0001:00082cd0       ___acrt_is_interactive     10083cd0 f   libucrtd:winapi_thunks.obj
 0001:00082d80       ___acrt_uninitialize_winapi_thunks 10083d80 f   libucrtd:winapi_thunks.obj
 0001:00082df0       __chvalidator              10083df0 f   libucrtd:isctype.obj
 0001:00082e40       __chvalidator_l            10083e40 f   libucrtd:isctype.obj
 0001:00082ec0       __isctype                  10083ec0 f   libucrtd:isctype.obj
 0001:00082f00       __isctype_l                10083f00 f   libucrtd:isctype.obj
 0001:00083080       __isleadbyte_fast_internal 10084080 f i libucrtd:isctype.obj
 0001:000830a0       ??$?RU__crt_stdio_stream_data@@@__crt_internal_free_policy@@QBEXQBU__crt_stdio_stream_data@@@Z 100840a0 f i libucrtd:stream.obj
 0001:000830c0       ??0?$__crt_unique_heap_ptr@U__crt_stdio_stream_data@@U__crt_internal_free_policy@@@@QAE@QAU__crt_stdio_stream_data@@@Z 100840c0 f i libucrtd:stream.obj
 0001:000830e0       ??0__crt_stdio_stream@@QAE@QAU__crt_stdio_stream_data@@@Z 100840e0 f i libucrtd:stream.obj
 0001:00083100       ??0__crt_stdio_stream@@QAE@XZ 10084100 f i libucrtd:stream.obj
 0001:00083120       ??1?$__crt_unique_heap_ptr@U__crt_stdio_stream_data@@U__crt_internal_free_policy@@@@QAE@XZ 10084120 f i libucrtd:stream.obj
 0001:00083140       ?__acrt_stdio_allocate_stream@@YA?AV__crt_stdio_stream@@XZ 10084140 f   libucrtd:stream.obj
 0001:00083230       ?__acrt_stdio_free_stream@@YAXV__crt_stdio_stream@@@Z 10084230 f   libucrtd:stream.obj
 0001:000832b0       ?deallocate@__crt_stdio_stream@@QAEXXZ 100842b0 f i libucrtd:stream.obj
 0001:000832d0       ?detach@?$__crt_unique_heap_ptr@U__crt_stdio_stream_data@@U__crt_internal_free_policy@@@@QAEPAU__crt_stdio_stream_data@@XZ 100842d0 f i libucrtd:stream.obj
 0001:00083440       ?lock@__crt_stdio_stream@@QBEXXZ 10084440 f i libucrtd:stream.obj
 0001:00083460       ?release@?$__crt_unique_heap_ptr@U__crt_stdio_stream_data@@U__crt_internal_free_policy@@@@QAEXXZ 10084460 f i libucrtd:stream.obj
 0001:00083490       ?try_allocate@__crt_stdio_stream@@QAE_NXZ 10084490 f i libucrtd:stream.obj
 0001:000834e0       ??$__acrt_stdio_parse_mode@D@@YA?AU__acrt_stdio_stream_mode@@QBD@Z 100844e0 f i libucrtd:openfile.obj
 0001:00083d50       ??$__acrt_stdio_parse_mode@_W@@YA?AU__acrt_stdio_stream_mode@@QB_W@Z 10084d50 f i libucrtd:openfile.obj
 0001:000848e0       ??$tcsncmp@AAPBDAAY02$$CBDI@?$__crt_char_traits@D@@SAHAAPBDAAY02$$CBD$$QAI@Z 100858e0 f i libucrtd:openfile.obj
 0001:00084900       ??$tcsncmp@AAPB_WAAY02$$CB_WI@?$__crt_char_traits@_W@@SAHAAPB_WAAY02$$CB_W$$QAI@Z 10085900 f i libucrtd:openfile.obj
 0001:00084920       ??$tcsnicmp@AAPBDAAY04$$CBDI@?$__crt_char_traits@D@@SAHAAPBDAAY04$$CBD$$QAI@Z 10085920 f i libucrtd:openfile.obj
 0001:00084940       ??$tcsnicmp@AAPBDAAY06$$CBDI@?$__crt_char_traits@D@@SAHAAPBDAAY06$$CBD$$QAI@Z 10085940 f i libucrtd:openfile.obj
 0001:00084960       ??$tcsnicmp@AAPBDAAY07$$CBDI@?$__crt_char_traits@D@@SAHAAPBDAAY07$$CBD$$QAI@Z 10085960 f i libucrtd:openfile.obj
 0001:00084980       ??$tcsnicmp@AAPB_WAAY04$$CB_WI@?$__crt_char_traits@_W@@SAHAAPB_WAAY04$$CB_W$$QAI@Z 10085980 f i libucrtd:openfile.obj
 0001:000849a0       ??$tcsnicmp@AAPB_WAAY06$$CB_WI@?$__crt_char_traits@_W@@SAHAAPB_WAAY06$$CB_W$$QAI@Z 100859a0 f i libucrtd:openfile.obj
 0001:000849c0       ??$tcsnicmp@AAPB_WAAY07$$CB_WI@?$__crt_char_traits@_W@@SAHAAPB_WAAY07$$CB_W$$QAI@Z 100859c0 f i libucrtd:openfile.obj
 0001:000849e0       ??$tsopen_s@PAHABQBDABHABHH@?$__crt_char_traits@D@@SAH$$QAPAHABQBDABH2$$QAH@Z 100859e0 f i libucrtd:openfile.obj
 0001:00084a10       ??$tsopen_s@PAHABQB_WABHABHH@?$__crt_char_traits@_W@@SAH$$QAPAHABQB_WABH2$$QAH@Z 10085a10 f i libucrtd:openfile.obj
 0001:00084a40       ?__acrt_stdio_parse_mode_D@@YA_NAAU__acrt_stdio_stream_mode@@@Z 10085a40 f i libucrtd:openfile.obj
 0001:00084a70       ?__acrt_stdio_parse_mode_N@@YA_NAAU__acrt_stdio_stream_mode@@@Z 10085a70 f i libucrtd:openfile.obj
 0001:00084a90       ?__acrt_stdio_parse_mode_R@@YA_NAAU__acrt_stdio_stream_mode@@AA_N@Z 10085a90 f i libucrtd:openfile.obj
 0001:00084ac0       ?__acrt_stdio_parse_mode_S@@YA_NAAU__acrt_stdio_stream_mode@@AA_N@Z 10085ac0 f i libucrtd:openfile.obj
 0001:00084af0       ?__acrt_stdio_parse_mode_T@@YA_NAAU__acrt_stdio_stream_mode@@@Z 10085af0 f i libucrtd:openfile.obj
 0001:00084b20       ?__acrt_stdio_parse_mode_b@@YA_NAAU__acrt_stdio_stream_mode@@@Z 10085b20 f i libucrtd:openfile.obj
 0001:00084b50       ?__acrt_stdio_parse_mode_c@@YA_NAAU__acrt_stdio_stream_mode@@AA_N@Z 10085b50 f i libucrtd:openfile.obj
 0001:00084b80       ?__acrt_stdio_parse_mode_n@@YA_NAAU__acrt_stdio_stream_mode@@AA_N@Z 10085b80 f i libucrtd:openfile.obj
 0001:00084bb0       ?__acrt_stdio_parse_mode_plus@@YA_NAAU__acrt_stdio_stream_mode@@AA_N@Z 10085bb0 f i libucrtd:openfile.obj
 0001:00084c20       ?__acrt_stdio_parse_mode_t@@YA_NAAU__acrt_stdio_stream_mode@@@Z 10085c20 f i libucrtd:openfile.obj
 0001:00084c50       ?__acrt_stdio_parse_mode_x@@YA_NAAU__acrt_stdio_stream_mode@@@Z 10085c50 f i libucrtd:openfile.obj
 0001:00084c80       __openfile                 10085c80 f   libucrtd:openfile.obj
 0001:00084cb0       __wopenfile                10085cb0 f   libucrtd:openfile.obj
 0001:00084f90       __close                    10085f90 f   libucrtd:close.obj
 0001:00085110       __close_nolock             10086110 f   libucrtd:close.obj
 0001:00085170       ?has_crt_buffer@__crt_stdio_stream@@QBE_NXZ 10086170 f i libucrtd:_freebuf.obj
 0001:00085190       ___acrt_stdio_free_buffer_nolock 10086190 f   libucrtd:_freebuf.obj
 0001:000857f0       ?__acrt_stdio_reset_buffer@@YAXV__crt_stdio_stream@@@Z 100867f0 f i libucrtd:fflush.obj
 0001:000858f0       ?has_all_of@__crt_stdio_stream@@QBE_NJ@Z 100868f0 f i libucrtd:fflush.obj
 0001:000859c0       ___acrt_stdio_flush_nolock 100869c0 f   libucrtd:fflush.obj
 0001:00085a90       __fflush_nolock            10086a90 f   libucrtd:fflush.obj
 0001:00085b10       __flushall                 10086b10 f   libucrtd:fflush.obj
 0001:00085b30       _fflush                    10086b30 f   libucrtd:fflush.obj
 0001:000862e0       ?has_big_buffer@__crt_stdio_stream@@QBE_NXZ 100872e0 f i libucrtd:_flsbuf.obj
 0001:000863e0       ___acrt_stdio_flush_and_write_narrow_nolock 100873e0 f   libucrtd:_flsbuf.obj
 0001:00086410       ___acrt_stdio_flush_and_write_wide_nolock 10087410 f   libucrtd:_flsbuf.obj
 0001:00086740       ___acrt_get_begin_thread_init_policy 10087740 f   libucrtd:win_policies.obj
 0001:00086760       ___acrt_get_developer_information_policy 10087760 f   libucrtd:win_policies.obj
 0001:00086780       ___acrt_get_process_end_policy 10087780 f   libucrtd:win_policies.obj
 0001:000867a0       ___acrt_get_windowing_model_policy 100877a0 f   libucrtd:win_policies.obj
 0001:00086a70       ??$__acrt_mbs_to_wcs_cp@U__crt_win32_buffer_internal_dynamic_resizing@@@@YAHQBDAAV?$__crt_win32_buffer@_WU__crt_win32_buffer_internal_dynamic_resizing@@@@I@Z 10087a70 f i libucrtd:argv_wildcards.obj
 0001:00086aa0       ??$__acrt_wcs_to_mbs_cp@U__crt_win32_buffer_internal_dynamic_resizing@@@@YAHQB_WAAV?$__crt_win32_buffer@DU__crt_win32_buffer_internal_dynamic_resizing@@@@I@Z 10087aa0 f i libucrtd:argv_wildcards.obj
 0001:000879f0       ??$tcsncpy_s@AAPADIAAPADABI@?$__crt_char_traits@D@@SAHAAPAD$$QAI0ABI@Z 100889f0 f i libucrtd:argv_wildcards.obj
 0001:00087a20       ??$tcsncpy_s@AAPA_WIAAPA_WABI@?$__crt_char_traits@_W@@SAHAAPA_W$$QAI0ABI@Z 10088a20 f i libucrtd:argv_wildcards.obj
 0001:00087a50       ??$tcsncpy_s@PADABIABQBDABI@?$__crt_char_traits@D@@SAH$$QAPADABIABQBD1@Z 10088a50 f i libucrtd:argv_wildcards.obj
 0001:00087a80       ??$tcsncpy_s@PADIABQBDABI@?$__crt_char_traits@D@@SAH$$QAPAD$$QAIABQBDABI@Z 10088a80 f i libucrtd:argv_wildcards.obj
 0001:00087ab0       ??$tcsncpy_s@PA_WABIABQB_WABI@?$__crt_char_traits@_W@@SAH$$QAPA_WABIABQB_W1@Z 10088ab0 f i libucrtd:argv_wildcards.obj
 0001:00087ae0       ??$tcsncpy_s@PA_WIABQB_WABI@?$__crt_char_traits@_W@@SAH$$QAPA_W$$QAIABQB_WABI@Z 10088ae0 f i libucrtd:argv_wildcards.obj
 0001:00087b10       ??$tcspbrk@AAPADAAY02$$CBD@?$__crt_char_traits@D@@SAPADAAPADAAY02$$CBD@Z 10088b10 f i libucrtd:argv_wildcards.obj
 0001:00087b30       ??$tcspbrk@AAPA_WAAY02$$CB_W@?$__crt_char_traits@_W@@SAPA_WAAPA_WAAY02$$CB_W@Z 10088b30 f i libucrtd:argv_wildcards.obj
 0001:00087b50       ??0?$__crt_unique_handle_t@U__crt_findfile_traits@@@@QAE@QAX@Z 10088b50 f i libucrtd:argv_wildcards.obj
 0001:00087b70       ??0?$__crt_win32_buffer@DU__crt_win32_buffer_internal_dynamic_resizing@@@@QAE@XZ 10088b70 f i libucrtd:argv_wildcards.obj
 0001:00087bc0       ??0?$__crt_win32_buffer@_WU__crt_win32_buffer_internal_dynamic_resizing@@@@QAE@XZ 10088bc0 f i libucrtd:argv_wildcards.obj
 0001:00087c70       ??1?$__crt_unique_handle_t@U__crt_findfile_traits@@@@QAE@XZ 10088c70 f i libucrtd:argv_wildcards.obj
 0001:00087c90       ??1?$__crt_win32_buffer@DU__crt_win32_buffer_internal_dynamic_resizing@@@@QAE@XZ 10088c90 f i libucrtd:argv_wildcards.obj
 0001:00087cd0       ??1?$__crt_win32_buffer@_WU__crt_win32_buffer_internal_dynamic_resizing@@@@QAE@XZ 10088cd0 f i libucrtd:argv_wildcards.obj
 0001:00087f30       ?_deallocate@?$__crt_win32_buffer@DU__crt_win32_buffer_internal_dynamic_resizing@@@@AAEXXZ 10088f30 f i libucrtd:argv_wildcards.obj
 0001:00087f70       ?_deallocate@?$__crt_win32_buffer@_WU__crt_win32_buffer_internal_dynamic_resizing@@@@AAEXXZ 10088f70 f i libucrtd:argv_wildcards.obj
 0001:00087fb0       ?allocate@?$__crt_win32_buffer@DU__crt_win32_buffer_internal_dynamic_resizing@@@@QAEHI@Z 10088fb0 f i libucrtd:argv_wildcards.obj
 0001:00088020       ?allocate@?$__crt_win32_buffer@_WU__crt_win32_buffer_internal_dynamic_resizing@@@@QAEHI@Z 10089020 f i libucrtd:argv_wildcards.obj
 0001:00088090       ?allocate@__crt_win32_buffer_internal_dynamic_resizing@@SAHQAPAXIABV__crt_win32_buffer_empty_debug_info@@@Z 10089090 f i libucrtd:argv_wildcards.obj
 0001:000881d0       ?capacity@?$__crt_win32_buffer@DU__crt_win32_buffer_internal_dynamic_resizing@@@@QBEIXZ 100891d0 f i libucrtd:argv_wildcards.obj
 0001:000881f0       ?capacity@?$__crt_win32_buffer@_WU__crt_win32_buffer_internal_dynamic_resizing@@@@QBEIXZ 100891f0 f i libucrtd:argv_wildcards.obj
 0001:00088210       ?close@?$__crt_unique_handle_t@U__crt_findfile_traits@@@@QAEXXZ 10089210 f i libucrtd:argv_wildcards.obj
 0001:00088250       ?close@__crt_findfile_traits@@SA_NPAX@Z 10089250 f i libucrtd:argv_wildcards.obj
 0001:00088280       ?data@?$__crt_win32_buffer@DU__crt_win32_buffer_internal_dynamic_resizing@@@@QAEPADXZ 10089280 f i libucrtd:argv_wildcards.obj
 0001:000882a0       ?data@?$__crt_win32_buffer@_WU__crt_win32_buffer_internal_dynamic_resizing@@@@QAEPA_WXZ 100892a0 f i libucrtd:argv_wildcards.obj
 0001:000882c0       ?deallocate@__crt_win32_buffer_internal_dynamic_resizing@@SAXQAXABV__crt_win32_buffer_empty_debug_info@@@Z 100892c0 f i libucrtd:argv_wildcards.obj
 0001:000882e0       ?debug_info@?$__crt_win32_buffer@DU__crt_win32_buffer_internal_dynamic_resizing@@@@QBEABV__crt_win32_buffer_empty_debug_info@@XZ 100892e0 f i libucrtd:argv_wildcards.obj
 0001:000882f0       ?debug_info@?$__crt_win32_buffer@_WU__crt_win32_buffer_internal_dynamic_resizing@@@@QBEABV__crt_win32_buffer_empty_debug_info@@XZ 100892f0 f i libucrtd:argv_wildcards.obj
 0001:00088600       ?get@?$__crt_unique_handle_t@U__crt_findfile_traits@@@@QBEPAXXZ 10089600 f i libucrtd:argv_wildcards.obj
 0001:00088670       ?get_invalid_value@__crt_findfile_traits@@SAPAXXZ 10089670 f i libucrtd:argv_wildcards.obj
 0001:00088700       ?set_to_nullptr@?$__crt_win32_buffer@DU__crt_win32_buffer_internal_dynamic_resizing@@@@QAEXXZ 10089700 f i libucrtd:argv_wildcards.obj
 0001:00088740       ?set_to_nullptr@?$__crt_win32_buffer@_WU__crt_win32_buffer_internal_dynamic_resizing@@@@QAEXXZ 10089740 f i libucrtd:argv_wildcards.obj
 0001:00088780       ?size@?$__crt_win32_buffer@DU__crt_win32_buffer_internal_dynamic_resizing@@@@QAEXI@Z 10089780 f i libucrtd:argv_wildcards.obj
 0001:000887a0       ?size@?$__crt_win32_buffer@_WU__crt_win32_buffer_internal_dynamic_resizing@@@@QAEXI@Z 100897a0 f i libucrtd:argv_wildcards.obj
 0001:00088800       ?strpbrk@@YAPADQADQBD@Z    10089800 f i libucrtd:argv_wildcards.obj
 0001:00088820       ?wcspbrk@@YAPA_WPA_WPB_W@Z 10089820 f i libucrtd:argv_wildcards.obj
 0001:00088840       ___acrt_expand_narrow_argv_wildcards 10089840 f   libucrtd:argv_wildcards.obj
 0001:00088860       ___acrt_expand_wide_argv_wildcards 10089860 f   libucrtd:argv_wildcards.obj
 0001:00088940       ??$initialize_from_array@$$BY10BAA@E@?$dual_state_global@PAE@__crt_state_management@@QAAXAAY10BAA@E@Z 10089940 f i libucrtd:mbctype.obj
 0001:00088990       ??$initialize_from_array@$$BY10BAB@E@?$dual_state_global@PAE@__crt_state_management@@QAAXAAY10BAB@E@Z 10089990 f i libucrtd:mbctype.obj
 0001:00088c00       ?dangerous_get_state_array@?$dual_state_global@PAE@__crt_state_management@@QAEPAPAEXZ 10089c00 f i libucrtd:mbctype.obj
 0001:00088c10       ?dangerous_get_state_array@?$dual_state_global@PAU__crt_multibyte_data@@@__crt_state_management@@QAEPAPAU__crt_multibyte_data@@XZ 10089c10 f i libucrtd:mbctype.obj
 0001:00088ce0       ?initialize@?$dual_state_global@PAU__crt_multibyte_data@@@__crt_state_management@@QAEXQAU__crt_multibyte_data@@@Z 10089ce0 f i libucrtd:mbctype.obj
 0001:00089440       ?value@?$dual_state_global@PAE@__crt_state_management@@QAEAAPAEXZ 1008a440 f i libucrtd:mbctype.obj
 0001:00089460       ___acrt_initialize_multibyte 1008a460 f   libucrtd:mbctype.obj
 0001:00089510       ___acrt_update_thread_multibyte_data 1008a510 f   libucrtd:mbctype.obj
 0001:00089530       ___p__mbcasemap            1008a530 f   libucrtd:mbctype.obj
 0001:00089550       ___p__mbctype              1008a550 f   libucrtd:mbctype.obj
 0001:00089570       __getmbcp                  1008a570 f   libucrtd:mbctype.obj
 0001:000895e0       __setmbcp                  1008a5e0 f   libucrtd:mbctype.obj
 0001:00089610       __setmbcp_nolock           1008a610 f   libucrtd:mbctype.obj
 0001:00089b81       __ismbbalnum               1008ab81 f   libucrtd:ismbbyte.obj
 0001:00089b9c       __ismbbalnum_l             1008ab9c f   libucrtd:ismbbyte.obj
 0001:00089bb8       __ismbbalpha               1008abb8 f   libucrtd:ismbbyte.obj
 0001:00089bd3       __ismbbalpha_l             1008abd3 f   libucrtd:ismbbyte.obj
 0001:00089bef       __ismbbblank               1008abef f   libucrtd:ismbbyte.obj
 0001:00089c12       __ismbbblank_l             1008ac12 f   libucrtd:ismbbyte.obj
 0001:00089c36       __ismbbgraph               1008ac36 f   libucrtd:ismbbyte.obj
 0001:00089c51       __ismbbgraph_l             1008ac51 f   libucrtd:ismbbyte.obj
 0001:00089c6d       __ismbbkalnum              1008ac6d f   libucrtd:ismbbyte.obj
 0001:00089c85       __ismbbkalnum_l            1008ac85 f   libucrtd:ismbbyte.obj
 0001:00089c9e       __ismbbkana                1008ac9e f   libucrtd:ismbbyte.obj
 0001:00089cb1       __ismbbkana_l              1008acb1 f   libucrtd:ismbbyte.obj
 0001:00089d00       __ismbbkprint              1008ad00 f   libucrtd:ismbbyte.obj
 0001:00089d18       __ismbbkprint_l            1008ad18 f   libucrtd:ismbbyte.obj
 0001:00089d31       __ismbbkpunct              1008ad31 f   libucrtd:ismbbyte.obj
 0001:00089d49       __ismbbkpunct_l            1008ad49 f   libucrtd:ismbbyte.obj
 0001:00089d62       __ismbblead                1008ad62 f   libucrtd:ismbbyte.obj
 0001:00089d7a       __ismbblead_l              1008ad7a f   libucrtd:ismbbyte.obj
 0001:00089d93       __ismbbprint               1008ad93 f   libucrtd:ismbbyte.obj
 0001:00089dae       __ismbbprint_l             1008adae f   libucrtd:ismbbyte.obj
 0001:00089dca       __ismbbpunct               1008adca f   libucrtd:ismbbyte.obj
 0001:00089de2       __ismbbpunct_l             1008ade2 f   libucrtd:ismbbyte.obj
 0001:00089dfb       __ismbbtrail               1008adfb f   libucrtd:ismbbyte.obj
 0001:00089e13       __ismbbtrail_l             1008ae13 f   libucrtd:ismbbyte.obj
 0001:00089e30       ___acrt_initialize_command_line 1008ae30 f   libucrtd:argv_data.obj
 0001:00089e50       ___acrt_uninitialize_command_line 1008ae50 f   libucrtd:argv_data.obj
 0001:00089e60       ___p___argc                1008ae60 f   libucrtd:argv_data.obj
 0001:00089e70       ___p___argv                1008ae70 f   libucrtd:argv_data.obj
 0001:00089e80       ___p___wargv               1008ae80 f   libucrtd:argv_data.obj
 0001:00089e90       ___p__acmdln               1008ae90 f   libucrtd:argv_data.obj
 0001:00089ea0       ___p__pgmptr               1008aea0 f   libucrtd:argv_data.obj
 0001:00089eb0       ___p__wcmdln               1008aeb0 f   libucrtd:argv_data.obj
 0001:00089ec0       ___p__wpgmptr              1008aec0 f   libucrtd:argv_data.obj
 0001:00089ed0       __get_pgmptr               1008aed0 f   libucrtd:argv_data.obj
 0001:00089fe0       __get_wpgmptr              1008afe0 f   libucrtd:argv_data.obj
 0001:0008a1a0       ___acrt_MultiByteToWideChar 1008b1a0 f   libucrtd:multibytetowidechar.obj
 0001:0008a2a0       ___acrt_WideCharToMultiByte 1008b2a0 f   libucrtd:widechartomultibyte.obj
 0001:0008a3e2       ___dcrt_get_narrow_environment_from_os 1008b3e2 f   libucrtd:get_environment_from_os.obj
 0001:0008a474       ___dcrt_get_wide_environment_from_os 1008b474 f   libucrtd:get_environment_from_os.obj
 0001:0008ae09       ??$get_or_create_environment_nolock@$$V@?$__crt_char_traits@D@@SAPAPADXZ 1008be09 f i libucrtd:setenv.obj
 0001:0008ae0e       ??$get_or_create_environment_nolock@$$V@?$__crt_char_traits@_W@@SAPAPA_WXZ 1008be0e f i libucrtd:setenv.obj
 0001:0008ae13       ??$set_environment_variable@ABQADQAD@?$__crt_char_traits@D@@SAHABQAD$$QBQAD@Z 1008be13 f i libucrtd:setenv.obj
 0001:0008ae2b       ??$set_environment_variable@ABQA_WQA_W@?$__crt_char_traits@_W@@SAHABQA_W$$QBQA_W@Z 1008be2b f i libucrtd:setenv.obj
 0001:0008ae42       ??$tcschr@ABQADD@?$__crt_char_traits@D@@SAPADABQAD$$QAD@Z 1008be42 f i libucrtd:setenv.obj
 0001:0008ae5c       ??$tcschr@ABQA_WD@?$__crt_char_traits@_W@@SAPA_WABQA_W$$QAD@Z 1008be5c f i libucrtd:setenv.obj
 0001:0008ae7a       ??$tcscpy_s@AAPADABIAAPAD@?$__crt_char_traits@D@@SAHAAPADABI0@Z 1008be7a f i libucrtd:setenv.obj
 0001:0008ae98       ??$tcscpy_s@AAPA_WABIAAPA_W@?$__crt_char_traits@_W@@SAHAAPA_WABI0@Z 1008be98 f i libucrtd:setenv.obj
 0001:0008aeb6       ??$tcscpy_s@ABQADABIABQAD@?$__crt_char_traits@D@@SAHABQADABI0@Z 1008beb6 f i libucrtd:setenv.obj
 0001:0008aed4       ??$tcscpy_s@ABQA_WABIABQA_W@?$__crt_char_traits@_W@@SAHABQA_WABI0@Z 1008bed4 f i libucrtd:setenv.obj
 0001:0008aef2       ??$tcslen@ABQAD@?$__crt_char_traits@D@@SAIABQAD@Z 1008bef2 f i libucrtd:setenv.obj
 0001:0008af0a       ??$tcslen@ABQA_W@?$__crt_char_traits@_W@@SAIABQA_W@Z 1008bf0a f i libucrtd:setenv.obj
 0001:0008af28       ??$tcsnicoll@ABQBDAAPADABI@?$__crt_char_traits@D@@SAHABQBDAAPADABI@Z 1008bf28 f i libucrtd:setenv.obj
 0001:0008af46       ??$tcsnicoll@ABQB_WAAPA_WABI@?$__crt_char_traits@_W@@SAHABQB_WAAPA_WABI@Z 1008bf46 f i libucrtd:setenv.obj
 0001:0008af64       ??$tcsnlen@PADH@?$__crt_char_traits@D@@SAI$$QAPAD$$QAH@Z 1008bf64 f i libucrtd:setenv.obj
 0001:0008af7c       ??$tcsnlen@PA_WH@?$__crt_char_traits@_W@@SAI$$QAPA_W$$QAH@Z 1008bf7c f i libucrtd:setenv.obj
 0001:0008afb8       ?strchr@@YAPADQADH@Z       1008bfb8 f i libucrtd:setenv.obj
 0001:0008afc3       ?wcschr@@YAPA_WPA_W_W@Z    1008bfc3 f i libucrtd:setenv.obj
 0001:0008afce       ___dcrt_set_variable_in_narrow_environment_nolock 1008bfce f   libucrtd:setenv.obj
 0001:0008afd9       ___dcrt_set_variable_in_wide_environment_nolock 1008bfd9 f   libucrtd:setenv.obj
 0001:0008aff0       ___acrt_getheap            1008bff0 f   libucrtd:heap_handle.obj
 0001:0008b030       ___acrt_initialize_heap    1008c030 f   libucrtd:heap_handle.obj
 0001:0008b060       ___acrt_uninitialize_heap  1008c060 f   libucrtd:heap_handle.obj
 0001:0008b080       __get_heap_handle          1008c080 f   libucrtd:heap_handle.obj
 0001:0008b0c0       ___acrt_execute_initializers 1008c0c0 f   libucrtd:shared_initialization.obj
 0001:0008b170       ___acrt_execute_uninitializers 1008c170 f   libucrtd:shared_initialization.obj
 0001:0008b1d0       ??$__crt_fast_decode_pointer@P6AHPAU_exception@@@Z@@YAP6AHPAU_exception@@@ZQ6AH0@Z@Z 1008c1d0 f i libucrtd:matherr.obj
 0001:0008b200       ??$__crt_fast_encode_pointer@P6AHPAU_exception@@@Z@@YAP6AHPAU_exception@@@ZQ6AH0@Z@Z 1008c200 f i libucrtd:matherr.obj
 0001:0008b230       ?initialize@?$dual_state_global@P6AHPAU_exception@@@Z@__crt_state_management@@QAEXQ6AHPAU_exception@@@Z@Z 1008c230 f i libucrtd:matherr.obj
 0001:0008b270       ?value@?$dual_state_global@P6AHPAU_exception@@@Z@__crt_state_management@@QAEAAP6AHPAU_exception@@@ZXZ 1008c270 f i libucrtd:matherr.obj
 0001:0008b290       ___acrt_has_user_matherr   1008c290 f   libucrtd:matherr.obj
 0001:0008b2d0       ___acrt_initialize_user_matherr 1008c2d0 f   libucrtd:matherr.obj
 0001:0008b2f0       ___acrt_invoke_user_matherr 1008c2f0 f   libucrtd:matherr.obj
 0001:0008b340       ___setusermatherr          1008c340 f   libucrtd:matherr.obj
 0001:0008b380       __free_base                1008c380 f   libucrtd:free_base.obj
 0001:0008b430       __expand                   1008c430 f   libucrtd:expand.obj
 0001:0008b450       __expand_base              1008c450 f   libucrtd:expand.obj
 0001:0008b580       ?value@?$dual_state_global@J@__crt_state_management@@QAEAAJXZ 1008c580 f i libucrtd:new_mode.obj
 0001:0008b5a0       __query_new_mode           1008c5a0 f   libucrtd:new_mode.obj
 0001:0008b5c0       __set_new_mode             1008c5c0 f   libucrtd:new_mode.obj
 0001:0008b660       __CrtDefaultAllocHook      1008c660 f   libucrtd:debug_heap_hook.obj
 0001:0008b66c       __mbsdec                   1008c66c f   libucrtd:mbsdec.obj
 0001:0008b683       __mbsdec_l                 1008c683 f   libucrtd:mbsdec.obj
 0001:0008bb70       _strncpy_s                 1008cb70 f   libucrtd:strncpy_s.obj
 0001:0008bd40       ___acrt_report_runtime_error 1008cd40 f   libucrtd:report_runtime_error.obj
 0001:0008bf30       __query_app_type           1008cf30 f   libucrtd:report_runtime_error.obj
 0001:0008bf40       __set_app_type             1008cf40 f   libucrtd:report_runtime_error.obj
 0001:0008bf50       __iswctype_l               1008cf50 f   libucrtd:iswctype.obj
 0001:0008bf70       _iswctype                  1008cf70 f   libucrtd:iswctype.obj
 0001:0008bfe0       ___iswcsym                 1008cfe0 f i libucrtd:_wctype.obj
 0001:0008c020       ___iswcsymf                1008d020 f i libucrtd:_wctype.obj
 0001:0008c060       __isleadbyte_l             1008d060 f i libucrtd:_wctype.obj
 0001:0008c0b0       __iswalnum_l               1008d0b0 f i libucrtd:_wctype.obj
 0001:0008c0d0       __iswalpha_l               1008d0d0 f i libucrtd:_wctype.obj
 0001:0008c0f0       __iswblank_l               1008d0f0 f i libucrtd:_wctype.obj
 0001:0008c130       __iswcntrl_l               1008d130 f i libucrtd:_wctype.obj
 0001:0008c150       __iswcsym_l                1008d150 f i libucrtd:_wctype.obj
 0001:0008c190       __iswcsymf_l               1008d190 f i libucrtd:_wctype.obj
 0001:0008c1d0       __iswdigit_l               1008d1d0 f i libucrtd:_wctype.obj
 0001:0008c1f0       __iswgraph_l               1008d1f0 f i libucrtd:_wctype.obj
 0001:0008c210       __iswlower_l               1008d210 f i libucrtd:_wctype.obj
 0001:0008c230       __iswprint_l               1008d230 f i libucrtd:_wctype.obj
 0001:0008c250       __iswpunct_l               1008d250 f i libucrtd:_wctype.obj
 0001:0008c270       __iswspace_l               1008d270 f i libucrtd:_wctype.obj
 0001:0008c290       __iswupper_l               1008d290 f i libucrtd:_wctype.obj
 0001:0008c2b0       __iswxdigit_l              1008d2b0 f i libucrtd:_wctype.obj
 0001:0008c2d0       _isleadbyte                1008d2d0 f i libucrtd:_wctype.obj
 0001:0008c2f0       _iswalnum                  1008d2f0 f i libucrtd:_wctype.obj
 0001:0008c310       _iswalpha                  1008d310 f i libucrtd:_wctype.obj
 0001:0008c330       _iswascii                  1008d330 f i libucrtd:_wctype.obj
 0001:0008c360       _iswblank                  1008d360 f i libucrtd:_wctype.obj
 0001:0008c3a0       _iswcntrl                  1008d3a0 f i libucrtd:_wctype.obj
 0001:0008c3c0       _iswdigit                  1008d3c0 f i libucrtd:_wctype.obj
 0001:0008c3e0       _iswgraph                  1008d3e0 f i libucrtd:_wctype.obj
 0001:0008c400       _iswlower                  1008d400 f i libucrtd:_wctype.obj
 0001:0008c420       _iswprint                  1008d420 f i libucrtd:_wctype.obj
 0001:0008c440       _iswpunct                  1008d440 f i libucrtd:_wctype.obj
 0001:0008c460       _iswspace                  1008d460 f i libucrtd:_wctype.obj
 0001:0008c480       _iswupper                  1008d480 f i libucrtd:_wctype.obj
 0001:0008c4a0       _iswxdigit                 1008d4a0 f i libucrtd:_wctype.obj
 0001:0008c530       ?__mbrtowc_utf8@__crt_mbstring@@YAIPA_WPBDIPAU_Mbstatet@@@Z 1008d530 f   libucrtd:mbrtowc.obj
 0001:0008c580       ?__mbsrtowcs_utf8@__crt_mbstring@@YAIPA_WPAPBDIPAU_Mbstatet@@@Z 1008d580 f   libucrtd:mbrtowc.obj
 0001:0008cdf0       _btowc                     1008ddf0 f   libucrtd:mbrtowc.obj
 0001:0008ce60       _mbrlen                    1008de60 f   libucrtd:mbrtowc.obj
 0001:0008ceb0       _mbrtowc                   1008deb0 f   libucrtd:mbrtowc.obj
 0001:0008cf40       _mbsrtowcs                 1008df40 f   libucrtd:mbrtowc.obj
 0001:0008cf60       _mbsrtowcs_s               1008df60 f   libucrtd:mbrtowc.obj
 0001:0008d2b0       ??$?RG@__crt_internal_free_policy@@QBEXQBG@Z 1008e2b0 f i libucrtd:initctype.obj
 0001:0008d2d0       ??$?RJ@__crt_internal_free_policy@@QBEXQBJ@Z 1008e2d0 f i libucrtd:initctype.obj
 0001:0008d2f0       ??0?$__crt_unique_heap_ptr@GU__crt_internal_free_policy@@@@QAE@QAG@Z 1008e2f0 f i libucrtd:initctype.obj
 0001:0008d310       ??0?$__crt_unique_heap_ptr@JU__crt_internal_free_policy@@@@QAE@QAJ@Z 1008e310 f i libucrtd:initctype.obj
 0001:0008d330       ??1?$__crt_unique_heap_ptr@GU__crt_internal_free_policy@@@@QAE@XZ 1008e330 f i libucrtd:initctype.obj
 0001:0008d350       ??1?$__crt_unique_heap_ptr@JU__crt_internal_free_policy@@@@QAE@XZ 1008e350 f i libucrtd:initctype.obj
 0001:0008d370       ?detach@?$__crt_unique_heap_ptr@GU__crt_internal_free_policy@@@@QAEPAGXZ 1008e370 f i libucrtd:initctype.obj
 0001:0008d3a0       ?detach@?$__crt_unique_heap_ptr@JU__crt_internal_free_policy@@@@QAEPAJXZ 1008e3a0 f i libucrtd:initctype.obj
 0001:0008d3d0       ?release@?$__crt_unique_heap_ptr@GU__crt_internal_free_policy@@@@QAEXXZ 1008e3d0 f i libucrtd:initctype.obj
 0001:0008d400       ?release@?$__crt_unique_heap_ptr@JU__crt_internal_free_policy@@@@QAEXXZ 1008e400 f i libucrtd:initctype.obj
 0001:0008d430       ____lc_codepage_func       1008e430 f   libucrtd:initctype.obj
 0001:0008d470       ____lc_collate_cp_func     1008e470 f   libucrtd:initctype.obj
 0001:0008d4b0       ____lc_locale_name_func    1008e4b0 f   libucrtd:initctype.obj
 0001:0008d4f0       ____mb_cur_max_func        1008e4f0 f   libucrtd:initctype.obj
 0001:0008d530       ____mb_cur_max_l_func      1008e530 f   libucrtd:initctype.obj
 0001:0008d560       ___acrt_locale_initialize_ctype 1008e560 f   libucrtd:initctype.obj
 0001:0008dce0       ?__c32rtomb_utf8@__crt_mbstring@@YAIPAD_UPAU_Mbstatet@@@Z 1008ece0 f   libucrtd:c32rtomb.obj
 0001:0008dec0       ?reset_and_return@__crt_mbstring@@YAIIPAU_Mbstatet@@@Z 1008eec0 f i libucrtd:c32rtomb.obj
 0001:0008def0       ?return_illegal_sequence@__crt_mbstring@@YAIPAU_Mbstatet@@@Z 1008eef0 f i libucrtd:c32rtomb.obj
 0001:0008df20       _c32rtomb                  1008ef20 f   libucrtd:c32rtomb.obj
 0001:0008df40       ___acrt_add_locale_ref     1008ef40 f   libucrtd:locale_refcounting.obj
 0001:0008e050       ___acrt_free_locale        1008f050 f   libucrtd:locale_refcounting.obj
 0001:0008e320       ___acrt_locale_add_lc_time_reference 1008f320 f   libucrtd:locale_refcounting.obj
 0001:0008e360       ___acrt_locale_free_lc_time_if_unreferenced 1008f360 f   libucrtd:locale_refcounting.obj
 0001:0008e3b0       ___acrt_locale_release_lc_time_reference 1008f3b0 f   libucrtd:locale_refcounting.obj
 0001:0008e3e0       ___acrt_release_locale_ref 1008f3e0 f   libucrtd:locale_refcounting.obj
 0001:0008e4f0       ___acrt_update_thread_locale_data 1008f4f0 f   libucrtd:locale_refcounting.obj
 0001:0008e5c0       __updatetlocinfoEx_nolock  1008f5c0 f   libucrtd:locale_refcounting.obj
 0001:0008e640       ___acrt_fp_strflt_to_string 1008f640 f   libucrtd:_fptostr.obj
 0001:0008ef80       ??0big_integer@__crt_strtox@@QAE@ABU01@@Z 1008ff80 f i libucrtd:cfout.obj
 0001:0008efc0       ??0big_integer@__crt_strtox@@QAE@XZ 1008ffc0 f i libucrtd:cfout.obj
 0001:0008f080       ??4big_integer@__crt_strtox@@QAEAAU01@ABU01@@Z 10090080 f i libucrtd:cfout.obj
 0001:0008f0c0       ??8__crt_strtox@@YA_NABUbig_integer@0@0@Z 100900c0 f i libucrtd:cfout.obj
 0001:0008f120       ??9__crt_strtox@@YA_NABUbig_integer@0@0@Z 10090120 f i libucrtd:cfout.obj
 0001:0008f160       ?add_carry@__crt_strtox@@YAIAAIII@Z 10090160 f i libucrtd:cfout.obj
 0001:0008f1a0       ?add_multiply_carry@__crt_strtox@@YAIAAIIII@Z 100901a0 f i libucrtd:cfout.obj
 0001:0008f1e0       ?bit_scan_reverse@__crt_strtox@@YAII@Z 100901e0 f i libucrtd:cfout.obj
 0001:0008f210       ?count_sequential_high_zeroes@__crt_strtox@@YAII@Z 10090210 f i libucrtd:cfout.obj
 0001:0008f250       ?divide@__crt_strtox@@YA_KAAUbig_integer@1@ABU21@@Z 10090250 f i libucrtd:cfout.obj
 0001:0008fcd0       ?is_zero@__crt_strtox@@YA_NABUbig_integer@1@@Z 10090cd0 f i libucrtd:cfout.obj
 0001:0008fd00       ?make_big_integer@__crt_strtox@@YA?AUbig_integer@1@_K@Z 10090d00 f i libucrtd:cfout.obj
 0001:0008fdb0       ?make_big_integer_power_of_two@__crt_strtox@@YA?AUbig_integer@1@I@Z 10090db0 f i libucrtd:cfout.obj
 0001:0008fe60       ?multiply@__crt_strtox@@YA_NAAUbig_integer@1@ABU21@@Z 10090e60 f i libucrtd:cfout.obj
 0001:000901e0       ?multiply@__crt_strtox@@YA_NAAUbig_integer@1@I@Z 100911e0 f i libucrtd:cfout.obj
 0001:000902b0       ?multiply_64_32@__crt_strtox@@YA_K_KI@Z 100912b0 f i libucrtd:cfout.obj
 0001:000902d0       ?multiply_by_power_of_ten@__crt_strtox@@YA_NAAUbig_integer@1@I@Z 100912d0 f i libucrtd:cfout.obj
 0001:00090470       ?multiply_core@__crt_strtox@@YAIQAIII@Z 10091470 f i libucrtd:cfout.obj
 0001:000904e0       ?shift_left@__crt_strtox@@YA_NAAUbig_integer@1@I@Z 100914e0 f i libucrtd:cfout.obj
 0001:00090830       ___acrt_fltout             10091830 f   libucrtd:cfout.obj
 0001:00090be0       __fcloseall                10091be0 f   libucrtd:closeall.obj
 0001:00090d10       __isatty                   10091d10 f   libucrtd:isatty.obj
 0001:00090de0       ??$?RUlconv@@@__crt_internal_free_policy@@QBEXQBUlconv@@@Z 10091de0 f i libucrtd:initmon.obj
 0001:00090e00       ??0?$__crt_unique_heap_ptr@Ulconv@@U__crt_internal_free_policy@@@@QAE@QAUlconv@@@Z 10091e00 f i libucrtd:initmon.obj
 0001:00090e20       ??1?$__crt_unique_heap_ptr@Ulconv@@U__crt_internal_free_policy@@@@QAE@XZ 10091e20 f i libucrtd:initmon.obj
 0001:00090e40       ?detach@?$__crt_unique_heap_ptr@Ulconv@@U__crt_internal_free_policy@@@@QAEPAUlconv@@XZ 10091e40 f i libucrtd:initmon.obj
 0001:00090e70       ?release@?$__crt_unique_heap_ptr@Ulconv@@U__crt_internal_free_policy@@@@QAEXXZ 10091e70 f i libucrtd:initmon.obj
 0001:00090ea0       ___acrt_locale_free_monetary 10091ea0 f   libucrtd:initmon.obj
 0001:00091050       ___acrt_locale_initialize_monetary 10092050 f   libucrtd:initmon.obj
 0001:000916f0       ___acrt_locale_free_numeric 100926f0 f   libucrtd:initnum.obj
 0001:000917a0       ___acrt_locale_initialize_numeric 100927a0 f   libucrtd:initnum.obj
 0001:00091bf0       ??$?RU__crt_lc_time_data@@@__crt_internal_free_policy@@QBEXQBU__crt_lc_time_data@@@Z 10092bf0 f i libucrtd:inittime.obj
 0001:00091cd0       ??0?$__crt_unique_heap_ptr@U__crt_lc_time_data@@U__crt_internal_free_policy@@@@QAE@QAU__crt_lc_time_data@@@Z 10092cd0 f i libucrtd:inittime.obj
 0001:00091cf0       ??1?$__crt_unique_heap_ptr@U__crt_lc_time_data@@U__crt_internal_free_policy@@@@QAE@XZ 10092cf0 f i libucrtd:inittime.obj
 0001:00091d10       ??B?$__crt_unique_heap_ptr@U__crt_lc_time_data@@U__crt_internal_free_policy@@@@QBE_NXZ 10092d10 f i libucrtd:inittime.obj
 0001:00091d30       ?detach@?$__crt_unique_heap_ptr@U__crt_lc_time_data@@U__crt_internal_free_policy@@@@QAEPAU__crt_lc_time_data@@XZ 10092d30 f i libucrtd:inittime.obj
 0001:00091da0       ?get@?$__crt_unique_heap_ptr@U__crt_lc_time_data@@U__crt_internal_free_policy@@@@QBEPAU__crt_lc_time_data@@XZ 10092da0 f i libucrtd:inittime.obj
 0001:00092270       ?is_valid@?$__crt_unique_heap_ptr@U__crt_lc_time_data@@U__crt_internal_free_policy@@@@QBE_NXZ 10093270 f i libucrtd:inittime.obj
 0001:000922a0       ?release@?$__crt_unique_heap_ptr@U__crt_lc_time_data@@U__crt_internal_free_policy@@@@QAEXXZ 100932a0 f i libucrtd:inittime.obj
 0001:000922d0       ___acrt_locale_free_time   100932d0 f   libucrtd:inittime.obj
 0001:00092420       ___acrt_locale_initialize_time 10093420 f   libucrtd:inittime.obj
 0001:000924a0       ___pctype_func             100934a0 f   libucrtd:ctype.obj
 0001:000924e0       ___pwctype_func            100934e0 f   libucrtd:ctype.obj
 0001:000929c0       _wcsncat_s                 100939c0 f   libucrtd:wcsncat_s.obj
 0001:000929e0       _wcscmp                    100939e0 f   libucrtd:wcscmp.obj
 0001:00092a60       _wcscspn                   10093a60 f   libucrtd:wcscspn.obj
 0001:00092ad0       _wcspbrk                   10093ad0 f   libucrtd:wcspbrk.obj
 0001:00092b30       ??0?$__crt_scoped_stack_ptr@_W@@QAE@U?$__crt_scoped_stack_ptr_tag@_W@@@Z 10093b30 f i libucrtd:getstringtypea.obj
 0001:00092b50       ??0?$__crt_scoped_stack_ptr_tag@_W@@QAE@QA_W@Z 10093b50 f i libucrtd:getstringtypea.obj
 0001:00092b70       ??1?$__crt_scoped_stack_ptr@_W@@QAE@XZ 10093b70 f i libucrtd:getstringtypea.obj
 0001:00092b90       ?get@?$__crt_scoped_stack_ptr@_W@@QBEPA_WXZ 10093b90 f i libucrtd:getstringtypea.obj
 0001:00092bb0       __MallocaComputeSize       10093bb0 f i libucrtd:getstringtypea.obj
 0001:00092be0       __MarkAllocaS              10093be0 f i libucrtd:getstringtypea.obj
 0001:00092c10       ___acrt_GetStringTypeA     10093c10 f   libucrtd:getstringtypea.obj
 0001:00092dc0       __freea_crt                10093dc0 f i libucrtd:getstringtypea.obj
 0001:00093990       ___acrt_get_qualified_locale 10094990 f   libucrtd:get_qualified_locale.obj
 0001:000949a0       ___acrt_get_qualified_locale_downlevel 100959a0 f   libucrtd:getqloc_downlevel.obj
 0001:00094c40       _localeconv                10095c40 f   libucrtd:localeconv.obj
 0001:00094c80       ??$?RU__crt_lowio_handle_data@@@__crt_internal_free_policy@@QBEXQBU__crt_lowio_handle_data@@@Z 10095c80 f i libucrtd:osfinfo.obj
 0001:00094ca0       ??0?$__crt_unique_heap_ptr@U__crt_lowio_handle_data@@U__crt_internal_free_policy@@@@QAE@QAU__crt_lowio_handle_data@@@Z 10095ca0 f i libucrtd:osfinfo.obj
 0001:00094cc0       ??1?$__crt_unique_heap_ptr@U__crt_lowio_handle_data@@U__crt_internal_free_policy@@@@QAE@XZ 10095cc0 f i libucrtd:osfinfo.obj
 0001:00094ce0       ??B?$__crt_unique_heap_ptr@U__crt_lowio_handle_data@@U__crt_internal_free_policy@@@@QBE_NXZ 10095ce0 f i libucrtd:osfinfo.obj
 0001:00094d00       ?detach@?$__crt_unique_heap_ptr@U__crt_lowio_handle_data@@U__crt_internal_free_policy@@@@QAEPAU__crt_lowio_handle_data@@XZ 10095d00 f i libucrtd:osfinfo.obj
 0001:00094d30       ?get@?$__crt_unique_heap_ptr@U__crt_lowio_handle_data@@U__crt_internal_free_policy@@@@QBEPAU__crt_lowio_handle_data@@XZ 10095d30 f i libucrtd:osfinfo.obj
 0001:00094d50       ?is_valid@?$__crt_unique_heap_ptr@U__crt_lowio_handle_data@@U__crt_internal_free_policy@@@@QBE_NXZ 10095d50 f i libucrtd:osfinfo.obj
 0001:00094d80       ?release@?$__crt_unique_heap_ptr@U__crt_lowio_handle_data@@U__crt_internal_free_policy@@@@QAEXXZ 10095d80 f i libucrtd:osfinfo.obj
 0001:00094db0       ___acrt_lowio_create_handle_array 10095db0 f   libucrtd:osfinfo.obj
 0001:00094f10       ___acrt_lowio_destroy_handle_array 10095f10 f   libucrtd:osfinfo.obj
 0001:00094f70       ___acrt_lowio_ensure_fh_exists 10095f70 f   libucrtd:osfinfo.obj
 0001:000950d0       ___acrt_lowio_lock_fh      100960d0 f   libucrtd:osfinfo.obj
 0001:00095100       ___acrt_lowio_set_os_handle 10096100 f   libucrtd:osfinfo.obj
 0001:000951d0       ___acrt_lowio_unlock_fh    100961d0 f   libucrtd:osfinfo.obj
 0001:00095200       __alloc_osfhnd             10096200 f   libucrtd:osfinfo.obj
 0001:000953e0       __free_osfhnd              100963e0 f   libucrtd:osfinfo.obj
 0001:000954d0       __get_osfhandle            100964d0 f   libucrtd:osfinfo.obj
 0001:00095650       __open_osfhandle           10096650 f   libucrtd:osfinfo.obj
 0001:00096960       __i64toa                   10097960 f   libucrtd:xtoa.obj
 0001:000969b0       __i64toa_s                 100979b0 f   libucrtd:xtoa.obj
 0001:00096a00       __i64tow                   10097a00 f   libucrtd:xtoa.obj
 0001:00096a50       __i64tow_s                 10097a50 f   libucrtd:xtoa.obj
 0001:00096aa0       __itoa                     10097aa0 f   libucrtd:xtoa.obj
 0001:00096af0       __itoa_s                   10097af0 f   libucrtd:xtoa.obj
 0001:00096b40       __itow                     10097b40 f   libucrtd:xtoa.obj
 0001:00096b90       __itow_s                   10097b90 f   libucrtd:xtoa.obj
 0001:00096be0       __ltoa                     10097be0 f   libucrtd:xtoa.obj
 0001:00096c30       __ltoa_s                   10097c30 f   libucrtd:xtoa.obj
 0001:00096c80       __ltow                     10097c80 f   libucrtd:xtoa.obj
 0001:00096cd0       __ltow_s                   10097cd0 f   libucrtd:xtoa.obj
 0001:00096d20       __ui64toa                  10097d20 f   libucrtd:xtoa.obj
 0001:00096d50       __ui64toa_s                10097d50 f   libucrtd:xtoa.obj
 0001:00096d80       __ui64tow                  10097d80 f   libucrtd:xtoa.obj
 0001:00096db0       __ui64tow_s                10097db0 f   libucrtd:xtoa.obj
 0001:00096de0       __ultoa                    10097de0 f   libucrtd:xtoa.obj
 0001:00096e10       __ultoa_s                  10097e10 f   libucrtd:xtoa.obj
 0001:00096e40       __ultow                    10097e40 f   libucrtd:xtoa.obj
 0001:00096e70       __ultow_s                  10097e70 f   libucrtd:xtoa.obj
 0001:00097280       __mbstowcs_l               10098280 f   libucrtd:mbstowcs.obj
 0001:000972a0       __mbstowcs_s_l             100982a0 f   libucrtd:mbstowcs.obj
 0001:00097660       _mbstowcs                  10098660 f   libucrtd:mbstowcs.obj
 0001:000976b0       _mbstowcs_s                100986b0 f   libucrtd:mbstowcs.obj
 0001:00097da0       __wcstombs_l               10098da0 f   libucrtd:wcstombs.obj
 0001:00097dc0       __wcstombs_s_l             10098dc0 f   libucrtd:wcstombs.obj
 0001:00098130       _wcstombs                  10099130 f   libucrtd:wcstombs.obj
 0001:00098150       _wcstombs_s                10099150 f   libucrtd:wcstombs.obj
 0001:00098180       ___acrt_OutputDebugStringA@4 10099180 f   libucrtd:outputdebugstringa.obj
 0001:00098210       __malloc_base              10099210 f   libucrtd:malloc_base.obj
 0001:000983a0       ___acrt_DownlevelLCIDToLocaleName 100993a0 f   libucrtd:lcidtoname_downlevel.obj
 0001:00098470       ___acrt_DownlevelLocaleNameToLCID 10099470 f   libucrtd:lcidtoname_downlevel.obj
 0001:000984b0       ___ascii_wcsnicmp          100994b0 f   libucrtd:wcsnicmp.obj
 0001:00098540       __towlower_fast_internal   10099540 f i libucrtd:wcsnicmp.obj
 0001:00098580       __towlower_internal        10099580 f i libucrtd:wcsnicmp.obj
 0001:000985c0       __wcsnicmp                 100995c0 f   libucrtd:wcsnicmp.obj
 0001:00098700       __wcsnicmp_l               10099700 f   libucrtd:wcsnicmp.obj
 0001:00098900       __strnicmp                 10099900 f   libucrtd:strnicmp.obj
 0001:00098ac0       __strnicmp_l               10099ac0 f   libucrtd:strnicmp.obj
 0001:000996c0       ??$tsopen_nolock@PAHABQAHABQBDABHABHABHABH@?$__crt_char_traits@D@@SAH$$QAPAHABQAHABQBDABH333@Z 1009a6c0 f i libucrtd:open.obj
 0001:00099700       ??$tsopen_nolock@PAHABQAHABQB_WABHABHABHABH@?$__crt_char_traits@_W@@SAH$$QAPAHABQAHABQB_WABH333@Z 1009a700 f i libucrtd:open.obj
 0001:00099740       ??$tsopen_nolock@PAHPAHABQBDABHHABHH@?$__crt_char_traits@D@@SAH$$QAPAH0ABQBDABH$$QAH23@Z 1009a740 f i libucrtd:open.obj
 0001:00099780       ??$tsopen_nolock@PAHPAHABQB_WABHHABHH@?$__crt_char_traits@_W@@SAH$$QAPAH0ABQB_WABH$$QAH23@Z 1009a780 f i libucrtd:open.obj
 0001:0009a320       __open                     1009b320 f   libucrtd:open.obj
 0001:0009a360       __sopen                    1009b360 f   libucrtd:open.obj
 0001:0009a3d0       __sopen_dispatch           1009b3d0 f   libucrtd:open.obj
 0001:0009a400       __sopen_nolock             1009b400 f   libucrtd:open.obj
 0001:0009a480       __sopen_s                  1009b480 f   libucrtd:open.obj
 0001:0009a4b0       __wopen                    1009b4b0 f   libucrtd:open.obj
 0001:0009a4f0       __wsopen                   1009b4f0 f   libucrtd:open.obj
 0001:0009a560       __wsopen_dispatch          1009b560 f   libucrtd:open.obj
 0001:0009a590       __wsopen_nolock            1009b590 f   libucrtd:open.obj
 0001:0009ab20       __wsopen_s                 1009bb20 f   libucrtd:open.obj
 0001:0009ab50       ___p__commode              1009bb50 f   libucrtd:ncommode.obj
