 OPOSCoinAcceptor

 Timestamp is 5c4437c4 (Sun Jan 20 17:56:36 2019)

 Preferred load address is 10000000

 Start         Length     Name                   Class
 0001:00000000 00000d90H .text$di                CODE
 0001:00000d90 000a1a10H .text$mn                CODE
 0001:000a27a0 00000140H .text$x                 CODE
 0001:000a28e0 00000120H .text$yd                CODE
 0002:00000000 0000036cH .idata$5                DATA
 0002:0000036c 00000004H .00cfg                  DATA
 0002:00000370 00000004H .CRT$XCA                DATA
 0002:00000374 00000004H .CRT$XCL                DATA
 0002:00000378 0000006cH .CRT$XCU                DATA
 0002:000003e4 00000004H .CRT$XCZ                DATA
 0002:000003e8 00000004H .CRT$XIA                DATA
 0002:000003ec 00000010H .CRT$XIC                DATA
 0002:000003fc 00000004H .CRT$XIZ                DATA
 0002:00000400 00000004H .CRT$XLA                DATA
 0002:00000404 00000004H .CRT$XLZ                DATA
 0002:00000408 00000004H .CRT$XPA                DATA
 0002:0000040c 00000008H .CRT$XPX                DATA
 0002:00000414 00000004H .CRT$XPXA               DATA
 0002:00000418 00000004H .CRT$XPZ                DATA
 0002:0000041c 00000004H .CRT$XTA                DATA
 0002:00000420 00000010H .CRT$XTZ                DATA
 0002:00000424 00000000H .gfids$x                DATA
 0002:00000424 00000000H .gfids$y                DATA
 0002:00000430 0002ded8H .rdata                  DATA
 0002:0002e308 00000018H .rdata$T                DATA
 0002:0002e320 00000340H .rdata$r                DATA
 0002:0002e660 00000038H .rdata$sxdata           DATA
 0002:0002e698 00000408H .rdata$zzzdbg           DATA
 0002:0002eaa0 00000004H .rtc$IAA                DATA
 0002:0002eaa4 00000018H .rtc$IMZ                DATA
 0002:0002eabc 00000004H .rtc$IZZ                DATA
 0002:0002eac0 00000004H .rtc$TAA                DATA
 0002:0002eac4 00000018H .rtc$TMZ                DATA
 0002:0002eadc 00000004H .rtc$TZZ                DATA
 0002:0002eae0 00000004H .tls                    DATA
 0002:0002eae4 00000004H .tls$                   DATA
 0002:0002eae8 00000008H .tls$ZZZ                DATA
 0002:0002eaf0 00000d94H .xdata$x                DATA
 0002:0002f884 00000004H ATL$__a                 DATA
 0002:0002f888 00000008H ATL$__z                 DATA
 0002:0002f890 000000b0H .edata                  DATA
 0002:0002f940 00000078H .idata$2                DATA
 0002:0002f9b8 00000014H .idata$3                DATA
 0002:0002f9cc 0000036cH .idata$4                DATA
 0002:0002fd38 00000dbaH .idata$6                DATA
 0003:00000000 00000b70H .data                   DATA
 0003:00000b70 00000138H .data$r                 DATA
 0003:00000ca8 00003530H .bss                    DATA
 0004:00000000 00000220H .rsrc$01                DATA
 0004:00000220 00004068H .rsrc$02                DATA

  Address         Publics by Value              Rva+Base       Lib:Object

 0000:00000000       ___guard_iat_table         00000000     <absolute>
 0000:00000000       ___enclave_config          00000000     <absolute>
 0000:00000000       ___guard_longjmp_table     00000000     <absolute>
 0000:00000000       ___guard_fids_count        00000000     <absolute>
 0000:00000000       ___volatile_metadata       00000000     <absolute>
 0000:00000000       __except_list              00000000     <absolute>
 0000:00000000       ___guard_longjmp_count     00000000     <absolute>
 0000:00000000       ___dynamic_value_reloc_table 00000000     <absolute>
 0000:00000000       ___guard_fids_table        00000000     <absolute>
 0000:00000000       ___hybrid_auxiliary_iat    00000000     <absolute>
 0000:00000000       ___hybrid_code_map_count   00000000     <absolute>
 0000:00000000       ___guard_iat_count         00000000     <absolute>
 0000:00000000       ___hybrid_code_map         00000000     <absolute>
 0000:0000000e       ___safe_se_handler_count   0000000e     <absolute>
 0000:0000002c       __tls_array                0000002c     <absolute>
 0000:00000100       ___guard_flags             00000100     <absolute>
 0000:00000000       ___ImageBase               10000000     <linker-defined>
 0001:00000d90       ?_assert@@YAXPB_W0I@Z      10001d90 f   Assert.obj
 0001:00000ec0       ___local_stdio_printf_options 10001ec0 f i Assert.obj
 0001:00000ed0       ___vswprintf_l             10001ed0 f i Assert.obj
 0001:00000f00       __swprintf                 10001f00 f i Assert.obj
 0001:00000f60       __vswprintf_c_l            10001f60 f i Assert.obj
 0001:00000fd0       __vswprintf_l              10001fd0 f i Assert.obj
 0001:00001000       ?cw_memcpy@@YGHPADPB_WH@Z  10002000 f   CWString.obj
 0001:00001060       ?cw_memcpy@@YGHPA_WPBDH@Z  10002060 f   CWString.obj
 0001:000010c0       ?cw_memcpy@@YGHPADPBDH@Z   100020c0 f   CWString.obj
 0001:00001110       ?cw_memcpy@@YGHPA_WPB_WH@Z 10002110 f   CWString.obj
 0001:00001150       ?cw_memset@@YAXPADDH@Z     10002150 f   CWString.obj
 0001:00001170       ?cw_memset@@YAXPA_W_WH@Z   10002170 f   CWString.obj
 0001:00001190       ?cw_strlen@@YAHPBD@Z       10002190 f   CWString.obj
 0001:000011e0       ?cw_strlen@@YAHPB_W@Z      100021e0 f   CWString.obj
 0001:00001230       ?cw_strcpy@@YAHPADPB_W@Z   10002230 f   CWString.obj
 0001:00001250       ?cw_strcpy@@YAHPA_WPBD@Z   10002250 f   CWString.obj
 0001:00001270       ?cw_strcpy@@YAHPADPBD@Z    10002270 f   CWString.obj
 0001:00001290       ?cw_strcpy@@YAHPA_WPB_W@Z  10002290 f   CWString.obj
 0001:000012b0       ?cw_strcat@@YAHPADPB_W@Z   100022b0 f   CWString.obj
 0001:000012e0       ?cw_strcat@@YAHPA_WPBD@Z   100022e0 f   CWString.obj
 0001:00001310       ?cw_strcat@@YAHPADPBD@Z    10002310 f   CWString.obj
 0001:00001340       ?cw_strcat@@YAHPA_WPB_W@Z  10002340 f   CWString.obj
 0001:00001370       ?cw_dup@@YGXPBDAAHAAPA_W1@Z 10002370 f   CWString.obj
 0001:00001430       ?cw_dup@@YGXPB_WAAHAAPAD1@Z 10002430 f   CWString.obj
 0001:000014e0       ?DupChar@_CW@@AAEXXZ       100024e0 f   CWString.obj
 0001:00001530       ?DupWide@_CW@@AAEXXZ       10002530 f   CWString.obj
 0001:00001580       ?GetCharsMbcs@_CW@@QAEHXZ  10002580 f   CWString.obj
 0001:000015e0       ?GetCharsWide@_CW@@QAEHXZ  100025e0 f   CWString.obj
 0001:00001640       ?SetVARIANT_BOOL@OposVariant@@QAEXF@Z 10002640 f   OposVariant.obj
 0001:000016a0       ?SetVARIANT_BOOL_Ptr@OposVariant@@QAEXPAFAAJ@Z 100026a0 f   OposVariant.obj
 0001:000016f0       ?GetLONG@OposVariant@@QAEJXZ 100026f0 f   OposVariant.obj
 0001:00001780       ?ChangeLONG@OposVariant@@QAEXPAJAAJ@Z 10002780 f   OposVariant.obj
 0001:00001840       ?SetLONG@OposVariant@@QAEXJ@Z 10002840 f   OposVariant.obj
 0001:00001880       ?SetLONG_Ptr@OposVariant@@QAEXPAJAAJ@Z 10002880 f   OposVariant.obj
 0001:000018d0       ?ChangeCURRENCY@OposVariant@@QAEXPATtagCY@@AAJ@Z 100028d0 f   OposVariant.obj
 0001:00001990       ?SetCURRENCY@OposVariant@@QAEXTtagCY@@@Z 10002990 f   OposVariant.obj
 0001:000019d0       ?SetCURRENCY_Ptr@OposVariant@@QAEXPATtagCY@@AAJ@Z 100029d0 f   OposVariant.obj
 0001:00001a20       ?ChangeBSTR@OposVariant@@QAEXPAPA_WAAJ@Z 10002a20 f   OposVariant.obj
 0001:00001ae0       ?SetBSTR@OposVariant@@QAEXPA_WAAJ@Z 10002ae0 f   OposVariant.obj
 0001:00001b30       ?SetBSTR_Copy@OposVariant@@QAEXPA_WAAJ@Z 10002b30 f   OposVariant.obj
 0001:00001bd0       ?SetBSTR_OutPtr@OposVariant@@QAE_NPAPA_WAAJ@Z 10002bd0 f   OposVariant.obj
 0001:00001c20       ?SetBSTR_InOutPtr@OposVariant@@QAE_NPAPA_WAAJ@Z 10002c20 f   OposVariant.obj
 0001:00001c70       ?SetVARIANT@OposVariant@@QAEXAAUtagVARIANT@@GAAJ@Z 10002c70 f   OposVariant.obj
 0001:00001cf0       ?SetVARIANT_Ptr@OposVariant@@QAEXAAPAUtagVARIANT@@GAAJ@Z 10002cf0 f   OposVariant.obj
 0001:00001d90       ?SetString@OposVariant@@QAEXPB_WAAJ@Z 10002d90 f   OposVariant.obj
 0001:00001e20       ?SetDispatch_Ptr@OposVariant@@QAEXPAUIDispatch@@AAJ@Z 10002e20 f   OposVariant.obj
 0001:00001e90       ??0OposDispParms@@QAE@PAVOposVariant@@H@Z 10002e90 f   OposVariant.obj
 0001:00001f60       ??1OposDispParms@@QAE@XZ   10002f60 f   OposVariant.obj
 0001:00001fb0       ??$AtlMultiply@I@ATL@@YAJPAIII@Z 10002fb0 f i OposVariant.obj
 0001:00002010       ??0?$CHeapPtr@_WVCCRTAllocator@ATL@@@ATL@@QAE@XZ 10003010 f i OposVariant.obj
 0001:00002040       ??0?$CHeapPtrBase@_WVCCRTAllocator@ATL@@@ATL@@IAE@XZ 10003040 f i OposVariant.obj
 0001:00002060       ??0?$CSimpleArray@GV?$CSimpleArrayEqualHelper@G@ATL@@@ATL@@QAE@XZ 10003060 f i OposVariant.obj
 0001:000020a0       ??0?$CTraceCategoryEx@$00$0A@@ATL@@QAE@PB_W@Z 100030a0 f i OposVariant.obj
 0001:000020d0       ??0?$CTraceCategoryEx@$01$0A@@ATL@@QAE@PB_W@Z 100030d0 f i OposVariant.obj
 0001:00002100       ??0?$CTraceCategoryEx@$03$0A@@ATL@@QAE@PB_W@Z 10003100 f i OposVariant.obj
 0001:00002130       ??0?$CTraceCategoryEx@$07$0A@@ATL@@QAE@PB_W@Z 10003130 f i OposVariant.obj
 0001:00002160       ??0?$CTraceCategoryEx@$0BA@$0A@@ATL@@QAE@PB_W@Z 10003160 f i OposVariant.obj
 0001:00002190       ??0?$CTraceCategoryEx@$0BAA@$0A@@ATL@@QAE@PB_W@Z 10003190 f i OposVariant.obj
 0001:000021d0       ??0?$CTraceCategoryEx@$0BAAA@$0A@@ATL@@QAE@PB_W@Z 100031d0 f i OposVariant.obj
 0001:00002210       ??0?$CTraceCategoryEx@$0BAAAA@$0A@@ATL@@QAE@PB_W@Z 10003210 f i OposVariant.obj
 0001:00002250       ??0?$CTraceCategoryEx@$0BAAAAA@$0A@@ATL@@QAE@PB_W@Z 10003250 f i OposVariant.obj
 0001:00002290       ??0?$CTraceCategoryEx@$0CA@$0A@@ATL@@QAE@PB_W@Z 10003290 f i OposVariant.obj
 0001:000022c0       ??0?$CTraceCategoryEx@$0CAA@$0A@@ATL@@QAE@PB_W@Z 100032c0 f i OposVariant.obj
 0001:00002300       ??0?$CTraceCategoryEx@$0CAAA@$0A@@ATL@@QAE@PB_W@Z 10003300 f i OposVariant.obj
 0001:00002340       ??0?$CTraceCategoryEx@$0CAAAA@$0A@@ATL@@QAE@PB_W@Z 10003340 f i OposVariant.obj
 0001:00002380       ??0?$CTraceCategoryEx@$0CAAAAA@$0A@@ATL@@QAE@PB_W@Z 10003380 f i OposVariant.obj
 0001:000023c0       ??0?$CTraceCategoryEx@$0EA@$0A@@ATL@@QAE@PB_W@Z 100033c0 f i OposVariant.obj
 0001:000023f0       ??0?$CTraceCategoryEx@$0EAA@$0A@@ATL@@QAE@PB_W@Z 100033f0 f i OposVariant.obj
 0001:00002430       ??0?$CTraceCategoryEx@$0EAAA@$0A@@ATL@@QAE@PB_W@Z 10003430 f i OposVariant.obj
 0001:00002470       ??0?$CTraceCategoryEx@$0EAAAA@$0A@@ATL@@QAE@PB_W@Z 10003470 f i OposVariant.obj
 0001:000024b0       ??0?$CTraceCategoryEx@$0EAAAAA@$0A@@ATL@@QAE@PB_W@Z 100034b0 f i OposVariant.obj
 0001:000024f0       ??0?$CTraceCategoryEx@$0IA@$0A@@ATL@@QAE@PB_W@Z 100034f0 f i OposVariant.obj
 0001:00002530       ??0?$CTraceCategoryEx@$0IAA@$0A@@ATL@@QAE@PB_W@Z 10003530 f i OposVariant.obj
 0001:00002570       ??0?$CTraceCategoryEx@$0IAAA@$0A@@ATL@@QAE@PB_W@Z 10003570 f i OposVariant.obj
 0001:000025b0       ??0?$CTraceCategoryEx@$0IAAAA@$0A@@ATL@@QAE@PB_W@Z 100035b0 f i OposVariant.obj
 0001:000025f0       ??0CAtlComModule@ATL@@QAE@XZ 100035f0 f i OposVariant.obj
 0001:000026d0       ??0CAtlWinModule@ATL@@QAE@XZ 100036d0 f i OposVariant.obj
 0001:00002760       ??0CComCriticalSection@ATL@@QAE@XZ 10003760 f i OposVariant.obj
 0001:00002790       ??0CPreserveLastError@ATL@@QAE@XZ 10003790 f i OposVariant.obj
 0001:000027d0       ??0CTraceFileAndLineInfo@ATL@@QAE@PBDH@Z 100037d0 f i OposVariant.obj
 0001:00002800       ??0_ATL_COM_MODULE70@ATL@@QAE@XZ 10003800 f i OposVariant.obj
 0001:00002830       ??0_ATL_WIN_MODULE70@ATL@@QAE@XZ 10003830 f i OposVariant.obj
 0001:00002870       ??1?$CHeapPtr@_WVCCRTAllocator@ATL@@@ATL@@QAE@XZ 10003870 f i OposVariant.obj
 0001:000028a0       ??1?$CHeapPtrBase@_WVCCRTAllocator@ATL@@@ATL@@QAE@XZ 100038a0 f i OposVariant.obj
 0001:000028d0       ??1?$CSimpleArray@GV?$CSimpleArrayEqualHelper@G@ATL@@@ATL@@QAE@XZ 100038d0 f i OposVariant.obj
 0001:00002900       ??1CAtlComModule@ATL@@QAE@XZ 10003900 f i OposVariant.obj
 0001:00002930       ??1CAtlWinModule@ATL@@QAE@XZ 10003930 f i OposVariant.obj
 0001:00002960       ??1CComBSTR@ATL@@QAE@XZ    10003960 f i OposVariant.obj
 0001:000029a0       ??1CComCriticalSection@ATL@@QAE@XZ 100039a0 f i OposVariant.obj
 0001:000029c0       ??1CPreserveLastError@ATL@@QAE@XZ 100039c0 f i OposVariant.obj
 0001:00002a00       ??1_ATL_COM_MODULE70@ATL@@QAE@XZ 10003a00 f i OposVariant.obj
 0001:00002a30       ??1_ATL_WIN_MODULE70@ATL@@QAE@XZ 10003a30 f i OposVariant.obj
 0001:00002a70       ??1stringdispid@CComTypeInfoHolder@ATL@@QAE@XZ 10003a70 f i OposVariant.obj
 0001:00002aa0       ??A?$CSimpleArray@GV?$CSimpleArrayEqualHelper@G@ATL@@@ATL@@QAEAAGH@Z 10003aa0 f i OposVariant.obj
 0001:00002b20       ??B?$CHeapPtrBase@_WVCCRTAllocator@ATL@@@ATL@@QBEPA_WXZ 10003b20 f i OposVariant.obj
 0001:00002b40       ??B?$CTraceCategoryEx@$01$0A@@ATL@@QAEIXZ 10003b40 f i OposVariant.obj
 0001:00002b60       ??B?$CTraceCategoryEx@$0CA@$0A@@ATL@@QAEIXZ 10003b60 f i OposVariant.obj
 0001:00002b80       ??RCTraceFileAndLineInfo@ATL@@QBAXHIPB_WZZ 10003b80 f i OposVariant.obj
 0001:00002c20       ??_Estringdispid@CComTypeInfoHolder@ATL@@QAEPAXI@Z 10003c20 f i OposVariant.obj
 0001:00002cb0       ??_H@YGXPAXIIP6EPAX0@Z@Z   10003cb0 f i OposVariant.obj
 0001:00002d20       ??_I@YGXPAXIIP6EX0@Z@Z     10003d20 f i OposVariant.obj
 0001:00002da0       ?Allocate@?$CHeapPtr@_WVCCRTAllocator@ATL@@@ATL@@QAE_NI@Z 10003da0 f i OposVariant.obj
 0001:00002e30       ?Allocate@CCRTAllocator@ATL@@SAPAXI@Z 10003e30 f i OposVariant.obj
 0001:00002e50       ?AllocateBytes@?$CHeapPtrBase@_WVCCRTAllocator@ATL@@@ATL@@QAE_NI@Z 10003e50 f i OposVariant.obj
 0001:00002ec0       ?AtlWinModuleInit@ATL@@YGJPAU_ATL_WIN_MODULE70@1@@Z 10003ec0 f i OposVariant.obj
 0001:00002f90       ?AtlWinModuleTerm@ATL@@YGJPAU_ATL_WIN_MODULE70@1@PAUHINSTANCE__@@@Z 10003f90 f i OposVariant.obj
 0001:00003050       ?Clear@OposVariant@@QAEJXZ 10004050 f i OposVariant.obj
 0001:00003090       ?Free@?$CHeapPtrBase@_WVCCRTAllocator@ATL@@@ATL@@QAEXXZ 10004090 f i OposVariant.obj
 0001:000030d0       ?Free@CCRTAllocator@ATL@@SAXPAX@Z 100040d0 f i OposVariant.obj
 0001:000030f0       ?GetCategoryName@CTrace@ATL@@CAPA_WI@Z 100040f0 f i OposVariant.obj
 0001:00003140       ?GetModuleInstance@CAtlBaseModule@ATL@@QAEPAUHINSTANCE__@@XZ 10004140 f i OposVariant.obj
 0001:00003160       ?GetSize@?$CSimpleArray@GV?$CSimpleArrayEqualHelper@G@ATL@@@ATL@@QBEHXZ 10004160 f i OposVariant.obj
 0001:00003180       ?Init@CComCriticalSection@ATL@@QAEJXZ 10004180 f i OposVariant.obj
 0001:000031e0       ?RegisterCategory@CTrace@ATL@@SAXPB_WI@Z 100041e0 f i OposVariant.obj
 0001:00003270       ?RemoveAll@?$CSimpleArray@GV?$CSimpleArrayEqualHelper@G@ATL@@@ATL@@QAEXXZ 10004270 f i OposVariant.obj
 0001:000032f0       ?Term@CAtlComModule@ATL@@QAEXXZ 100042f0 f i OposVariant.obj
 0001:000033b0       ?Term@CAtlWinModule@ATL@@QAEXXZ 100043b0 f i OposVariant.obj
 0001:000033e0       ?Term@CComCriticalSection@ATL@@QAEJXZ 100043e0 f i OposVariant.obj
 0001:00003420       ?TraceV@CTrace@ATL@@CAXPBDHIIPB_W@Z 10004420 f i OposVariant.obj
 0001:000036a0       ?TraceV@CTrace@ATL@@SAXPBDHIIPB_WPAD@Z 100046a0 f i OposVariant.obj
 0001:000037e0       ?_AtlInitializeCriticalSectionEx@ATL@@YAHPAU_RTL_CRITICAL_SECTION@@KK@Z 100047e0 f i OposVariant.obj
 0001:00003810       ?_AtlRaiseException@ATL@@YAXKK@Z 10004810 f i OposVariant.obj
 0001:00003840       _HRESULT_FROM_WIN32        10004840 f i OposVariant.obj
 0001:00003880       __vswprintf_s_l            10004880 f i OposVariant.obj
 0001:000038f0       _swprintf_s                100048f0 f i OposVariant.obj
 0001:00003950       ?CreateInstance@?$CComCreator@V?$CComObjectCached@VCComClassFactory@ATL@@@ATL@@@ATL@@SGJPAXABU_GUID@@PAPAX@Z 10004950 f i CoinAcceptor.obj
 0001:00003ae0       ?CreateInstance@?$CComCreator2@V?$CComCreator@V?$CComObject@VCOPOSCoinAcceptor@@@ATL@@@ATL@@V?$CComCreator@V?$CComAggObject@VCOPOSCoinAcceptor@@@ATL@@@2@@ATL@@SGJPAXABU_GUID@@PAPAX@Z 10004ae0 f i CoinAcceptor.obj
 0001:00003b60       ?ObjectMain@CComObjectRootBase@ATL@@SGX_N@Z 10004b60 f i CoinAcceptor.obj
 0001:00003b70       ?GetCategoryMap@CComObjectRootBase@ATL@@SAPBU_ATL_CATMAP_ENTRY@2@XZ 10004b70 f i CoinAcceptor.obj
 0001:00003b80       ?GetObjectDescription@?$CComCoClass@VCOPOSCoinAcceptor@@$1?CLSID_OPOSCoinAcceptor@@3U_GUID@@B@ATL@@SGPB_WXZ 10004b80 f i CoinAcceptor.obj
 0001:00003b90       ?UpdateRegistry@COPOSCoinAcceptor@@SGJH@Z 10004b90 f i CoinAcceptor.obj
 0001:00003ce0       _DllGetClassObject@12      10004ce0 f   CoinAcceptor.obj
 0001:00003d10       _DllCanUnloadNow@0         10004d10 f   CoinAcceptor.obj
 0001:00003d50       _DllRegisterServer@0       10004d50 f   CoinAcceptor.obj
 0001:00003d70       _DllUnregisterServer@0     10004d70 f   CoinAcceptor.obj
 0001:00003f00       _DllMain@12                10004f00 f   CoinAcceptor.obj
 0001:00003f60       ??$?2G@Wrapper@?$CSimpleArray@GV?$CSimpleArrayEqualHelper@G@ATL@@@ATL@@SAPAXIPAG@Z 10004f60 f i CoinAcceptor.obj
 0001:00003f70       ??$?2PA_W@?$Wrapper@PA_W@?$CSimpleMap@PA_WPA_WVCExpansionVectorEqualHelper@ATL@@@ATL@@SAPAXIPAPA_W@Z 10004f70 f i CoinAcceptor.obj
 0001:00003f80       ??$?4UITypeInfo2@@@?$CComPtr@UITypeInfo@@@ATL@@QAEPAUITypeInfo@@ABV?$CComPtr@UITypeInfo2@@@1@@Z 10004f80 f i CoinAcceptor.obj
 0001:00003fe0       ??$AtlAdd@K@ATL@@YAJPAKKK@Z 10004fe0 f i CoinAcceptor.obj
 0001:00004020       ??$AtlAdd@_K@ATL@@YAJPA_K_K1@Z 10005020 f i CoinAcceptor.obj
 0001:00004090       ??$AtlAddThrow@K@ATL@@YAKKK@Z 10005090 f i CoinAcceptor.obj
 0001:00004110       ??$AtlModuleRegisterWndClassInfoT@VAtlModuleRegisterWndClassInfoParamW@ATL@@@ATL@@YAGPAU_ATL_BASE_MODULE70@0@PAU_ATL_WIN_MODULE70@0@PAU_ATL_WNDCLASSINFOW@0@PAP6GJPAUHWND__@@IIJ@ZVAtlModuleRegisterWndClassInfoParamW@0@@Z 10005110 f i CoinAcceptor.obj
 0001:00004520       ??$AtlMultiply@H@ATL@@YAJPAHHH@Z 10005520 f i CoinAcceptor.obj
 0001:000045a0       ??$AtlMultiply@K@ATL@@YAJPAKKK@Z 100055a0 f i CoinAcceptor.obj
 0001:00004600       ??$AtlMultiplyThrow@I@ATL@@YAIII@Z 10005600 f i CoinAcceptor.obj
 0001:00004680       ??$QueryInterface@UIPersistStream@@@IUnknown@@QAGJPAPAUIPersistStream@@@Z 10005680 f i CoinAcceptor.obj
 0001:000046b0       ??$QueryInterface@UITypeInfo2@@@IUnknown@@QAGJPAPAUITypeInfo2@@@Z 100056b0 f i CoinAcceptor.obj
 0001:000046e0       ??0?$CAtlModuleT@VCComModule@ATL@@@ATL@@QAE@XZ 100056e0 f i CoinAcceptor.obj
 0001:00004710       ??0?$CAtlSafeAllocBufferManager@VCCRTAllocator@ATL@@@_ATL_SAFE_ALLOCA_IMPL@ATL@@QAE@XZ 10005710 f i CoinAcceptor.obj
 0001:00004730       ??0?$CAutoVectorPtr@_W@ATL@@QAE@XZ 10005730 f i CoinAcceptor.obj
 0001:00004750       ??0?$CComAggObject@VCOPOSCoinAcceptor@@@ATL@@QAE@PAX@Z 10005750 f i CoinAcceptor.obj
 0001:000047c0       ??0?$CComContainedObject@VCOPOSCoinAcceptor@@@ATL@@QAE@PAX@Z 100057c0 f i CoinAcceptor.obj
 0001:000048d0       ??0?$CComCritSecLock@VCComCriticalSection@ATL@@@ATL@@QAE@AAVCComCriticalSection@1@_N@Z 100058d0 f i CoinAcceptor.obj
 0001:00004930       ??0?$CComEnum@UIEnumConnectionPoints@@$1?_GUID_b196b285_bab4_101a_b69c_00aa00341d07@@3U__s_GUID@@BPAUIConnectionPoint@@V?$_CopyInterface@UIConnectionPoint@@@ATL@@VCComSingleThreadModel@6@@ATL@@QAE@XZ 10005930 f i CoinAcceptor.obj
 0001:00004970       ??0?$CComEnum@UIEnumConnections@@$1?_GUID_b196b287_bab4_101a_b69c_00aa00341d07@@3U__s_GUID@@BUtagCONNECTDATA@@V?$_Copy@UtagCONNECTDATA@@@ATL@@VCComSingleThreadModel@6@@ATL@@QAE@XZ 10005970 f i CoinAcceptor.obj
 0001:000049b0       ??0?$CComEnumImpl@UIEnumConnectionPoints@@$1?_GUID_b196b285_bab4_101a_b69c_00aa00341d07@@3U__s_GUID@@BPAUIConnectionPoint@@V?$_CopyInterface@UIConnectionPoint@@@ATL@@@ATL@@QAE@XZ 100059b0 f i CoinAcceptor.obj
 0001:00004a10       ??0?$CComEnumImpl@UIEnumConnections@@$1?_GUID_b196b287_bab4_101a_b69c_00aa00341d07@@3U__s_GUID@@BUtagCONNECTDATA@@V?$_Copy@UtagCONNECTDATA@@@ATL@@@ATL@@QAE@XZ 10005a10 f i CoinAcceptor.obj
 0001:00004a70       ??0?$CComObject@V?$CComEnum@UIEnumConnectionPoints@@$1?_GUID_b196b285_bab4_101a_b69c_00aa00341d07@@3U__s_GUID@@BPAUIConnectionPoint@@V?$_CopyInterface@UIConnectionPoint@@@ATL@@VCComSingleThreadModel@6@@ATL@@@ATL@@QAE@PAX@Z 10005a70 f i CoinAcceptor.obj
 0001:00004ac0       ??0?$CComObject@V?$CComEnum@UIEnumConnections@@$1?_GUID_b196b287_bab4_101a_b69c_00aa00341d07@@3U__s_GUID@@BUtagCONNECTDATA@@V?$_Copy@UtagCONNECTDATA@@@ATL@@VCComSingleThreadModel@6@@ATL@@@ATL@@QAE@PAX@Z 10005ac0 f i CoinAcceptor.obj
 0001:00004b10       ??0?$CComObject@VCOPOSCoinAcceptor@@@ATL@@QAE@PAX@Z 10005b10 f i CoinAcceptor.obj
 0001:00004c30       ??0?$CComObjectCached@VCComClassFactory@ATL@@@ATL@@QAE@PAX@Z 10005c30 f i CoinAcceptor.obj
 0001:00004c70       ??0?$CComObjectRootEx@VCComMultiThreadModel@ATL@@@ATL@@QAE@XZ 10005c70 f i CoinAcceptor.obj
 0001:00004cb0       ??0?$CComObjectRootEx@VCComSingleThreadModel@ATL@@@ATL@@QAE@XZ 10005cb0 f i CoinAcceptor.obj
 0001:00004ce0       ??0?$CComPtr@UIAdviseSink@@@ATL@@QAE@PAUIAdviseSink@@@Z 10005ce0 f i CoinAcceptor.obj
 0001:00004d10       ??0?$CComPtr@UICatRegister@@@ATL@@QAE@XZ 10005d10 f i CoinAcceptor.obj
 0001:00004d40       ??0?$CComPtr@UIConnectionPoint@@@ATL@@QAE@XZ 10005d40 f i CoinAcceptor.obj
 0001:00004d70       ??0?$CComPtr@UIConnectionPointContainer@@@ATL@@QAE@XZ 10005d70 f i CoinAcceptor.obj
 0001:00004da0       ??0?$CComPtr@UIDataObject@@@ATL@@QAE@XZ 10005da0 f i CoinAcceptor.obj
 0001:00004dd0       ??0?$CComPtr@UIDispatch@@@ATL@@QAE@XZ 10005dd0 f i CoinAcceptor.obj
 0001:00004e00       ??0?$CComPtr@UIOleClientSite@@@ATL@@QAE@PAUIOleClientSite@@@Z 10005e00 f i CoinAcceptor.obj
 0001:00004e30       ??0?$CComPtr@UIOleControlSite@@@ATL@@QAE@XZ 10005e30 f i CoinAcceptor.obj
 0001:00004e60       ??0?$CComPtr@UIOleInPlaceActiveObject@@@ATL@@QAE@XZ 10005e60 f i CoinAcceptor.obj
 0001:00004e90       ??0?$CComPtr@UIOleInPlaceFrame@@@ATL@@QAE@XZ 10005e90 f i CoinAcceptor.obj
 0001:00004ec0       ??0?$CComPtr@UIOleInPlaceObject@@@ATL@@QAE@XZ 10005ec0 f i CoinAcceptor.obj
 0001:00004ef0       ??0?$CComPtr@UIOleInPlaceUIWindow@@@ATL@@QAE@XZ 10005ef0 f i CoinAcceptor.obj
 0001:00004f20       ??0?$CComPtr@UIOleObject@@@ATL@@QAE@XZ 10005f20 f i CoinAcceptor.obj
 0001:00004f50       ??0?$CComPtr@UIPersistStream@@@ATL@@QAE@XZ 10005f50 f i CoinAcceptor.obj
 0001:00004f80       ??0?$CComPtr@UIPersistStreamInit@@@ATL@@QAE@XZ 10005f80 f i CoinAcceptor.obj
 0001:00004fb0       ??0?$CComPtr@UIPointerInactive@@@ATL@@QAE@XZ 10005fb0 f i CoinAcceptor.obj
 0001:00004fe0       ??0?$CComPtr@UIProvideClassInfo2@@@ATL@@QAE@XZ 10005fe0 f i CoinAcceptor.obj
 0001:00005010       ??0?$CComPtr@UISpecifyPropertyPages@@@ATL@@QAE@XZ 10006010 f i CoinAcceptor.obj
 0001:00005040       ??0?$CComPtr@UIStream@@@ATL@@QAE@XZ 10006040 f i CoinAcceptor.obj
 0001:00005070       ??0?$CComPtr@UITypeInfo2@@@ATL@@QAE@XZ 10006070 f i CoinAcceptor.obj
 0001:000050a0       ??0?$CComPtr@UITypeInfo@@@ATL@@QAE@ABV01@@Z 100060a0 f i CoinAcceptor.obj
 0001:000050d0       ??0?$CComPtr@UITypeInfo@@@ATL@@QAE@XZ 100060d0 f i CoinAcceptor.obj
 0001:00005100       ??0?$CComPtr@UITypeLib@@@ATL@@QAE@XZ 10006100 f i CoinAcceptor.obj
 0001:00005130       ??0?$CComPtr@UIUnknown@@@ATL@@QAE@ABV01@@Z 10006130 f i CoinAcceptor.obj
 0001:00005160       ??0?$CComPtr@UIUnknown@@@ATL@@QAE@PAUIUnknown@@@Z 10006160 f i CoinAcceptor.obj
 0001:00005190       ??0?$CComPtr@UIUnknown@@@ATL@@QAE@XZ 10006190 f i CoinAcceptor.obj
 0001:000051c0       ??0?$CComPtr@UIViewObjectEx@@@ATL@@QAE@XZ 100061c0 f i CoinAcceptor.obj
 0001:000051f0       ??0?$CComPtrBase@UIAdviseSink@@@ATL@@IAE@PAUIAdviseSink@@@Z 100061f0 f i CoinAcceptor.obj
 0001:00005240       ??0?$CComPtrBase@UICatRegister@@@ATL@@IAE@XZ 10006240 f i CoinAcceptor.obj
 0001:00005260       ??0?$CComPtrBase@UIConnectionPoint@@@ATL@@IAE@XZ 10006260 f i CoinAcceptor.obj
 0001:00005280       ??0?$CComPtrBase@UIConnectionPointContainer@@@ATL@@IAE@XZ 10006280 f i CoinAcceptor.obj
 0001:000052a0       ??0?$CComPtrBase@UIDataObject@@@ATL@@IAE@XZ 100062a0 f i CoinAcceptor.obj
 0001:000052c0       ??0?$CComPtrBase@UIDispatch@@@ATL@@IAE@XZ 100062c0 f i CoinAcceptor.obj
 0001:000052e0       ??0?$CComPtrBase@UIOleClientSite@@@ATL@@IAE@PAUIOleClientSite@@@Z 100062e0 f i CoinAcceptor.obj
 0001:00005330       ??0?$CComPtrBase@UIOleControlSite@@@ATL@@IAE@XZ 10006330 f i CoinAcceptor.obj
 0001:00005350       ??0?$CComPtrBase@UIOleInPlaceActiveObject@@@ATL@@IAE@XZ 10006350 f i CoinAcceptor.obj
 0001:00005370       ??0?$CComPtrBase@UIOleInPlaceFrame@@@ATL@@IAE@XZ 10006370 f i CoinAcceptor.obj
 0001:00005390       ??0?$CComPtrBase@UIOleInPlaceObject@@@ATL@@IAE@XZ 10006390 f i CoinAcceptor.obj
 0001:000053b0       ??0?$CComPtrBase@UIOleInPlaceUIWindow@@@ATL@@IAE@XZ 100063b0 f i CoinAcceptor.obj
 0001:000053d0       ??0?$CComPtrBase@UIOleObject@@@ATL@@IAE@XZ 100063d0 f i CoinAcceptor.obj
 0001:000053f0       ??0?$CComPtrBase@UIPersistStream@@@ATL@@IAE@XZ 100063f0 f i CoinAcceptor.obj
 0001:00005410       ??0?$CComPtrBase@UIPersistStreamInit@@@ATL@@IAE@XZ 10006410 f i CoinAcceptor.obj
 0001:00005430       ??0?$CComPtrBase@UIPointerInactive@@@ATL@@IAE@XZ 10006430 f i CoinAcceptor.obj
 0001:00005450       ??0?$CComPtrBase@UIProvideClassInfo2@@@ATL@@IAE@XZ 10006450 f i CoinAcceptor.obj
 0001:00005470       ??0?$CComPtrBase@UISpecifyPropertyPages@@@ATL@@IAE@XZ 10006470 f i CoinAcceptor.obj
 0001:00005490       ??0?$CComPtrBase@UIStream@@@ATL@@IAE@XZ 10006490 f i CoinAcceptor.obj
 0001:000054b0       ??0?$CComPtrBase@UITypeInfo2@@@ATL@@IAE@XZ 100064b0 f i CoinAcceptor.obj
 0001:000054d0       ??0?$CComPtrBase@UITypeInfo@@@ATL@@IAE@PAUITypeInfo@@@Z 100064d0 f i CoinAcceptor.obj
 0001:00005520       ??0?$CComPtrBase@UITypeInfo@@@ATL@@IAE@XZ 10006520 f i CoinAcceptor.obj
 0001:00005540       ??0?$CComPtrBase@UITypeLib@@@ATL@@IAE@XZ 10006540 f i CoinAcceptor.obj
 0001:00005560       ??0?$CComPtrBase@UIUnknown@@@ATL@@IAE@PAUIUnknown@@@Z 10006560 f i CoinAcceptor.obj
 0001:000055b0       ??0?$CComPtrBase@UIUnknown@@@ATL@@IAE@XZ 100065b0 f i CoinAcceptor.obj
 0001:000055d0       ??0?$CComPtrBase@UIViewObjectEx@@@ATL@@IAE@XZ 100065d0 f i CoinAcceptor.obj
 0001:000055f0       ??0?$CComQIPtr@UIOleControlSite@@$1?_GUID_b196b289_bab4_101a_b69c_00aa00341d07@@3U__s_GUID@@B@ATL@@QAE@PAUIUnknown@@@Z 100065f0 f i CoinAcceptor.obj
 0001:00005650       ??0?$CComQIPtr@UIOleObject@@$1?_GUID_00000112_0000_0000_c000_000000000046@@3U__s_GUID@@B@ATL@@QAE@XZ 10006650 f i CoinAcceptor.obj
 0001:00005680       ??0?$CComQIPtr@UISpecifyPropertyPages@@$1?_GUID_b196b28b_bab4_101a_b69c_00aa00341d07@@3U__s_GUID@@B@ATL@@QAE@XZ 10006680 f i CoinAcceptor.obj
 0001:000056b0       ??0?$CSimpleMap@PA_WPA_WVCExpansionVectorEqualHelper@ATL@@@ATL@@QAE@XZ 100066b0 f i CoinAcceptor.obj
 0001:000056f0       ??0?$CTempBuffer@E$0BAA@VCCRTAllocator@ATL@@@ATL@@QAE@XZ 100066f0 f i CoinAcceptor.obj
 0001:00005710       ??0?$CTempBuffer@_W$0BAA@VCCRTAllocator@ATL@@@ATL@@QAE@XZ 10006710 f i CoinAcceptor.obj
 0001:00005730       ??0?$CTempBuffer@_W$0EAA@VCCRTAllocator@ATL@@@ATL@@QAE@XZ 10006730 f i CoinAcceptor.obj
 0001:00005750       ??0?$Wrapper@PA_W@?$CSimpleMap@PA_WPA_WVCExpansionVectorEqualHelper@ATL@@@ATL@@QAE@ABQA_W@Z 10006750 f i CoinAcceptor.obj
 0001:00005780       ??0CAtlModule@ATL@@QAE@XZ  10006780 f i CoinAcceptor.obj
 0001:000058a0       ??0CComAutoDeleteCriticalSection@ATL@@QAE@XZ 100068a0 f i CoinAcceptor.obj
 0001:000058d0       ??0CComBSTR@ATL@@QAE@XZ    100068d0 f i CoinAcceptor.obj
 0001:000058f0       ??0CComClassFactory@ATL@@QAE@XZ 100068f0 f i CoinAcceptor.obj
 0001:00005930       ??0CComModule@ATL@@QAE@XZ  10006930 f i CoinAcceptor.obj
 0001:000059a0       ??0CComObjectRootBase@ATL@@QAE@XZ 100069a0 f i CoinAcceptor.obj
 0001:000059c0       ??0CComSafeDeleteCriticalSection@ATL@@QAE@XZ 100069c0 f i CoinAcceptor.obj
 0001:000059f0       ??0CComVariant@ATL@@QAE@XZ 100069f0 f i CoinAcceptor.obj
 0001:00005a40       ??0CExpansionVector@ATL@@QAE@XZ 10006a40 f i CoinAcceptor.obj
 0001:00005a70       ??0CParseBuffer@CRegParser@ATL@@QAE@H@Z 10006a70 f i CoinAcceptor.obj
 0001:00005ae0       ??0CRegKey@ATL@@QAE@PAUHKEY__@@@Z 10006ae0 f i CoinAcceptor.obj
 0001:00005b20       ??0CRegKey@ATL@@QAE@PAVCAtlTransactionManager@1@@Z 10006b20 f i CoinAcceptor.obj
 0001:00005b60       ??0CRegObject@ATL@@QAE@XZ  10006b60 f i CoinAcceptor.obj
 0001:00005ba0       ??0CRegParser@ATL@@QAE@PAVCRegObject@1@@Z 10006ba0 f i CoinAcceptor.obj
 0001:00005bd0       ??0IClassFactory@@QAE@XZ   10006bd0 f i CoinAcceptor.obj
 0001:00005c00       ??0IEnumConnectionPoints@@QAE@XZ 10006c00 f i CoinAcceptor.obj
 0001:00005c30       ??0IEnumConnections@@QAE@XZ 10006c30 f i CoinAcceptor.obj
 0001:00005c60       ??0IRegistrarBase@@QAE@XZ  10006c60 f i CoinAcceptor.obj
 0001:00005c90       ??0IUnknown@@QAE@XZ        10006c90 f i CoinAcceptor.obj
 0001:00005cb0       ??0ModuleLockHelper@ATL@@QAE@XZ 10006cb0 f i CoinAcceptor.obj
 0001:00005cf0       ??0OposVariant@@QAE@XZ     10006cf0 f i CoinAcceptor.obj
 0001:00005d20       ??0Wrapper@?$CSimpleArray@GV?$CSimpleArrayEqualHelper@G@ATL@@@ATL@@QAE@ABG@Z 10006d20 f i CoinAcceptor.obj
 0001:00005d50       ??0_ATL_MODULE70@ATL@@QAE@XZ 10006d50 f i CoinAcceptor.obj
 0001:00005d80       ??0_ATL_MSG@ATL@@QAE@PAUHWND__@@IIJH@Z 10006d80 f i CoinAcceptor.obj
 0001:00005df0       ??0_U_MENUorID@ATL@@QAE@I@Z 10006df0 f i CoinAcceptor.obj
 0001:00005e10       ??0_U_RECT@ATL@@QAE@AAUtagRECT@@@Z 10006e10 f i CoinAcceptor.obj
 0001:00005e30       ??0stringdispid@CComTypeInfoHolder@ATL@@QAE@XZ 10006e30 f i CoinAcceptor.obj
 0001:00005e70       ??1?$CAtlModuleT@VCComModule@ATL@@@ATL@@UAE@XZ 10006e70 f i CoinAcceptor.obj
 0001:00005ea0       ??1?$CAtlSafeAllocBufferManager@VCCRTAllocator@ATL@@@_ATL_SAFE_ALLOCA_IMPL@ATL@@QAE@XZ 10006ea0 f i CoinAcceptor.obj
 0001:00005ef0       ??1?$CAutoVectorPtr@_W@ATL@@QAE@XZ 10006ef0 f i CoinAcceptor.obj
 0001:00005f20       ??1?$CComAggObject@VCOPOSCoinAcceptor@@@ATL@@UAE@XZ 10006f20 f i CoinAcceptor.obj
 0001:00005f90       ??1?$CComContainedObject@VCOPOSCoinAcceptor@@@ATL@@UAE@XZ 10006f90 f i CoinAcceptor.obj
 0001:00005fc0       ??1?$CComCritSecLock@VCComCriticalSection@ATL@@@ATL@@QAE@XZ 10006fc0 f i CoinAcceptor.obj
 0001:00005ff0       ??1?$CComEnum@UIEnumConnectionPoints@@$1?_GUID_b196b285_bab4_101a_b69c_00aa00341d07@@3U__s_GUID@@BPAUIConnectionPoint@@V?$_CopyInterface@UIConnectionPoint@@@ATL@@VCComSingleThreadModel@6@@ATL@@UAE@XZ 10006ff0 f i CoinAcceptor.obj
 0001:00006020       ??1?$CComEnum@UIEnumConnections@@$1?_GUID_b196b287_bab4_101a_b69c_00aa00341d07@@3U__s_GUID@@BUtagCONNECTDATA@@V?$_Copy@UtagCONNECTDATA@@@ATL@@VCComSingleThreadModel@6@@ATL@@UAE@XZ 10007020 f i CoinAcceptor.obj
 0001:00006050       ??1?$CComEnumImpl@UIEnumConnectionPoints@@$1?_GUID_b196b285_bab4_101a_b69c_00aa00341d07@@3U__s_GUID@@BPAUIConnectionPoint@@V?$_CopyInterface@UIConnectionPoint@@@ATL@@@ATL@@UAE@XZ 10007050 f i CoinAcceptor.obj
 0001:000060e0       ??1?$CComEnumImpl@UIEnumConnections@@$1?_GUID_b196b287_bab4_101a_b69c_00aa00341d07@@3U__s_GUID@@BUtagCONNECTDATA@@V?$_Copy@UtagCONNECTDATA@@@ATL@@@ATL@@UAE@XZ 100070e0 f i CoinAcceptor.obj
 0001:00006170       ??1?$CComObject@V?$CComEnum@UIEnumConnectionPoints@@$1?_GUID_b196b285_bab4_101a_b69c_00aa00341d07@@3U__s_GUID@@BPAUIConnectionPoint@@V?$_CopyInterface@UIConnectionPoint@@@ATL@@VCComSingleThreadModel@6@@ATL@@@ATL@@UAE@XZ 10007170 f i CoinAcceptor.obj
 0001:000061d0       ??1?$CComObject@V?$CComEnum@UIEnumConnections@@$1?_GUID_b196b287_bab4_101a_b69c_00aa00341d07@@3U__s_GUID@@BUtagCONNECTDATA@@V?$_Copy@UtagCONNECTDATA@@@ATL@@VCComSingleThreadModel@6@@ATL@@@ATL@@UAE@XZ 100071d0 f i CoinAcceptor.obj
 0001:00006230       ??1?$CComObject@VCOPOSCoinAcceptor@@@ATL@@UAE@XZ 10007230 f i CoinAcceptor.obj
 0001:00006370       ??1?$CComObjectCached@VCComClassFactory@ATL@@@ATL@@UAE@XZ 10007370 f i CoinAcceptor.obj
 0001:000063c0       ??1?$CComObjectRootEx@VCComMultiThreadModel@ATL@@@ATL@@QAE@XZ 100073c0 f i CoinAcceptor.obj
 0001:000063f0       ??1?$CComObjectRootEx@VCComSingleThreadModel@ATL@@@ATL@@QAE@XZ 100073f0 f i CoinAcceptor.obj
 0001:00006420       ??1?$CComPtr@UIAdviseSink@@@ATL@@QAE@XZ 10007420 f i CoinAcceptor.obj
 0001:00006450       ??1?$CComPtr@UICatRegister@@@ATL@@QAE@XZ 10007450 f i CoinAcceptor.obj
 0001:00006480       ??1?$CComPtr@UIConnectionPoint@@@ATL@@QAE@XZ 10007480 f i CoinAcceptor.obj
 0001:000064b0       ??1?$CComPtr@UIConnectionPointContainer@@@ATL@@QAE@XZ 100074b0 f i CoinAcceptor.obj
 0001:000064e0       ??1?$CComPtr@UIDataObject@@@ATL@@QAE@XZ 100074e0 f i CoinAcceptor.obj
 0001:00006510       ??1?$CComPtr@UIDispatch@@@ATL@@QAE@XZ 10007510 f i CoinAcceptor.obj
 0001:00006540       ??1?$CComPtr@UIOleClientSite@@@ATL@@QAE@XZ 10007540 f i CoinAcceptor.obj
 0001:00006570       ??1?$CComPtr@UIOleControlSite@@@ATL@@QAE@XZ 10007570 f i CoinAcceptor.obj
 0001:000065a0       ??1?$CComPtr@UIOleInPlaceActiveObject@@@ATL@@QAE@XZ 100075a0 f i CoinAcceptor.obj
 0001:000065d0       ??1?$CComPtr@UIOleInPlaceFrame@@@ATL@@QAE@XZ 100075d0 f i CoinAcceptor.obj
 0001:00006600       ??1?$CComPtr@UIOleInPlaceObject@@@ATL@@QAE@XZ 10007600 f i CoinAcceptor.obj
 0001:00006630       ??1?$CComPtr@UIOleInPlaceUIWindow@@@ATL@@QAE@XZ 10007630 f i CoinAcceptor.obj
 0001:00006660       ??1?$CComPtr@UIOleObject@@@ATL@@QAE@XZ 10007660 f i CoinAcceptor.obj
 0001:00006690       ??1?$CComPtr@UIPersistStream@@@ATL@@QAE@XZ 10007690 f i CoinAcceptor.obj
 0001:000066c0       ??1?$CComPtr@UIPersistStreamInit@@@ATL@@QAE@XZ 100076c0 f i CoinAcceptor.obj
 0001:000066f0       ??1?$CComPtr@UIPointerInactive@@@ATL@@QAE@XZ 100076f0 f i CoinAcceptor.obj
 0001:00006720       ??1?$CComPtr@UIProvideClassInfo2@@@ATL@@QAE@XZ 10007720 f i CoinAcceptor.obj
 0001:00006750       ??1?$CComPtr@UISpecifyPropertyPages@@@ATL@@QAE@XZ 10007750 f i CoinAcceptor.obj
 0001:00006780       ??1?$CComPtr@UIStream@@@ATL@@QAE@XZ 10007780 f i CoinAcceptor.obj
 0001:000067b0       ??1?$CComPtr@UITypeInfo2@@@ATL@@QAE@XZ 100077b0 f i CoinAcceptor.obj
 0001:000067e0       ??1?$CComPtr@UITypeInfo@@@ATL@@QAE@XZ 100077e0 f i CoinAcceptor.obj
 0001:00006810       ??1?$CComPtr@UITypeLib@@@ATL@@QAE@XZ 10007810 f i CoinAcceptor.obj
 0001:00006840       ??1?$CComPtr@UIUnknown@@@ATL@@QAE@XZ 10007840 f i CoinAcceptor.obj
 0001:00006870       ??1?$CComPtr@UIViewObjectEx@@@ATL@@QAE@XZ 10007870 f i CoinAcceptor.obj
 0001:000068a0       ??1?$CComPtrBase@UIAdviseSink@@@ATL@@QAE@XZ 100078a0 f i CoinAcceptor.obj
 0001:000068f0       ??1?$CComPtrBase@UICatRegister@@@ATL@@QAE@XZ 100078f0 f i CoinAcceptor.obj
 0001:00006940       ??1?$CComPtrBase@UIConnectionPoint@@@ATL@@QAE@XZ 10007940 f i CoinAcceptor.obj
 0001:00006990       ??1?$CComPtrBase@UIConnectionPointContainer@@@ATL@@QAE@XZ 10007990 f i CoinAcceptor.obj
 0001:000069e0       ??1?$CComPtrBase@UIDataObject@@@ATL@@QAE@XZ 100079e0 f i CoinAcceptor.obj
 0001:00006a30       ??1?$CComPtrBase@UIDispatch@@@ATL@@QAE@XZ 10007a30 f i CoinAcceptor.obj
 0001:00006a80       ??1?$CComPtrBase@UIOleClientSite@@@ATL@@QAE@XZ 10007a80 f i CoinAcceptor.obj
 0001:00006ad0       ??1?$CComPtrBase@UIOleControlSite@@@ATL@@QAE@XZ 10007ad0 f i CoinAcceptor.obj
 0001:00006b20       ??1?$CComPtrBase@UIOleInPlaceActiveObject@@@ATL@@QAE@XZ 10007b20 f i CoinAcceptor.obj
 0001:00006b70       ??1?$CComPtrBase@UIOleInPlaceFrame@@@ATL@@QAE@XZ 10007b70 f i CoinAcceptor.obj
 0001:00006bc0       ??1?$CComPtrBase@UIOleInPlaceObject@@@ATL@@QAE@XZ 10007bc0 f i CoinAcceptor.obj
 0001:00006c10       ??1?$CComPtrBase@UIOleInPlaceUIWindow@@@ATL@@QAE@XZ 10007c10 f i CoinAcceptor.obj
 0001:00006c60       ??1?$CComPtrBase@UIOleObject@@@ATL@@QAE@XZ 10007c60 f i CoinAcceptor.obj
 0001:00006cb0       ??1?$CComPtrBase@UIPersistStream@@@ATL@@QAE@XZ 10007cb0 f i CoinAcceptor.obj
 0001:00006d00       ??1?$CComPtrBase@UIPersistStreamInit@@@ATL@@QAE@XZ 10007d00 f i CoinAcceptor.obj
 0001:00006d50       ??1?$CComPtrBase@UIPointerInactive@@@ATL@@QAE@XZ 10007d50 f i CoinAcceptor.obj
 0001:00006da0       ??1?$CComPtrBase@UIProvideClassInfo2@@@ATL@@QAE@XZ 10007da0 f i CoinAcceptor.obj
 0001:00006df0       ??1?$CComPtrBase@UISpecifyPropertyPages@@@ATL@@QAE@XZ 10007df0 f i CoinAcceptor.obj
 0001:00006e40       ??1?$CComPtrBase@UIStream@@@ATL@@QAE@XZ 10007e40 f i CoinAcceptor.obj
 0001:00006e90       ??1?$CComPtrBase@UITypeInfo2@@@ATL@@QAE@XZ 10007e90 f i CoinAcceptor.obj
 0001:00006ee0       ??1?$CComPtrBase@UITypeInfo@@@ATL@@QAE@XZ 10007ee0 f i CoinAcceptor.obj
 0001:00006f30       ??1?$CComPtrBase@UITypeLib@@@ATL@@QAE@XZ 10007f30 f i CoinAcceptor.obj
 0001:00006f80       ??1?$CComPtrBase@UIUnknown@@@ATL@@QAE@XZ 10007f80 f i CoinAcceptor.obj
 0001:00006fd0       ??1?$CComPtrBase@UIViewObjectEx@@@ATL@@QAE@XZ 10007fd0 f i CoinAcceptor.obj
 0001:00007020       ??1?$CComQIPtr@UIOleControlSite@@$1?_GUID_b196b289_bab4_101a_b69c_00aa00341d07@@3U__s_GUID@@B@ATL@@QAE@XZ 10008020 f i CoinAcceptor.obj
 0001:00007050       ??1?$CComQIPtr@UIOleObject@@$1?_GUID_00000112_0000_0000_c000_000000000046@@3U__s_GUID@@B@ATL@@QAE@XZ 10008050 f i CoinAcceptor.obj
 0001:00007080       ??1?$CComQIPtr@UISpecifyPropertyPages@@$1?_GUID_b196b28b_bab4_101a_b69c_00aa00341d07@@3U__s_GUID@@B@ATL@@QAE@XZ 10008080 f i CoinAcceptor.obj
 0001:000070b0       ??1?$CSimpleMap@PA_WPA_WVCExpansionVectorEqualHelper@ATL@@@ATL@@QAE@XZ 100080b0 f i CoinAcceptor.obj
 0001:000070e0       ??1?$CTempBuffer@E$0BAA@VCCRTAllocator@ATL@@@ATL@@QAE@XZ 100080e0 f i CoinAcceptor.obj
 0001:00007120       ??1?$CTempBuffer@_W$0BAA@VCCRTAllocator@ATL@@@ATL@@QAE@XZ 10008120 f i CoinAcceptor.obj
 0001:00007160       ??1?$CTempBuffer@_W$0EAA@VCCRTAllocator@ATL@@@ATL@@QAE@XZ 10008160 f i CoinAcceptor.obj
 0001:000071a0       ??1CAtlModule@ATL@@UAE@XZ  100081a0 f i CoinAcceptor.obj
 0001:000071d0       ??1CComAutoDeleteCriticalSection@ATL@@QAE@XZ 100081d0 f i CoinAcceptor.obj
 0001:00007200       ??1CComClassFactory@ATL@@UAE@XZ 10008200 f i CoinAcceptor.obj
 0001:00007230       ??1CComModule@ATL@@UAE@XZ  10008230 f i CoinAcceptor.obj
 0001:00007260       ??1CComObjectRootBase@ATL@@QAE@XZ 10008260 f i CoinAcceptor.obj
 0001:00007280       ??1CComSafeDeleteCriticalSection@ATL@@QAE@XZ 10008280 f i CoinAcceptor.obj
 0001:000072c0       ??1CComVariant@ATL@@QAE@XZ 100082c0 f i CoinAcceptor.obj
 0001:00007320       ??1CExpansionVector@ATL@@QAE@XZ 10008320 f i CoinAcceptor.obj
 0001:00007350       ??1CParseBuffer@CRegParser@ATL@@QAE@XZ 10008350 f i CoinAcceptor.obj
 0001:00007390       ??1CRegKey@ATL@@QAE@XZ     10008390 f i CoinAcceptor.obj
 0001:000073c0       ??1CRegObject@ATL@@UAE@XZ  100083c0 f i CoinAcceptor.obj
 0001:00007400       ??1ModuleLockHelper@ATL@@QAE@XZ 10008400 f i CoinAcceptor.obj
 0001:00007440       ??1OposVariant@@QAE@XZ     10008440 f i CoinAcceptor.obj
 0001:00007470       ??1_ATL_MODULE70@ATL@@QAE@XZ 10008470 f i CoinAcceptor.obj
 0001:000074a0       ??4?$CComPtr@UIAdviseSink@@@ATL@@QAEPAUIAdviseSink@@PAU2@@Z 100084a0 f i CoinAcceptor.obj
 0001:00007510       ??4?$CComPtr@UIOleClientSite@@@ATL@@QAEPAUIOleClientSite@@PAU2@@Z 10008510 f i CoinAcceptor.obj
 0001:00007580       ??4?$CComPtr@UIUnknown@@@ATL@@QAEPAUIUnknown@@PAU2@@Z 10008580 f i CoinAcceptor.obj
 0001:000075f0       ??4?$CComQIPtr@UIOleObject@@$1?_GUID_00000112_0000_0000_c000_000000000046@@3U__s_GUID@@B@ATL@@QAEPAUIOleObject@@PAUIUnknown@@@Z 100085f0 f i CoinAcceptor.obj
 0001:00007640       ??4?$CComQIPtr@UISpecifyPropertyPages@@$1?_GUID_b196b28b_bab4_101a_b69c_00aa00341d07@@3U__s_GUID@@B@ATL@@QAEPAUISpecifyPropertyPages@@PAUIUnknown@@@Z 10008640 f i CoinAcceptor.obj
 0001:00007690       ??7?$CComPtrBase@UIOleClientSite@@@ATL@@QBE_NXZ 10008690 f i CoinAcceptor.obj
 0001:000076d0       ??7?$CComPtrBase@UIOleInPlaceSiteWindowless@@@ATL@@QBE_NXZ 100086d0 f i CoinAcceptor.obj
 0001:00007710       ??7CComBSTR@ATL@@QBE_NXZ   10008710 f i CoinAcceptor.obj
 0001:00007750       ??8?$CComPtrBase@UIAdviseSink@@@ATL@@QBE_NPAUIAdviseSink@@@Z 10008750 f i CoinAcceptor.obj
 0001:00007790       ??8?$CComPtrBase@UIConnectionPointContainer@@@ATL@@QBE_NPAUIConnectionPointContainer@@@Z 10008790 f i CoinAcceptor.obj
 0001:000077d0       ??8?$CComPtrBase@UIDataAdviseHolder@@@ATL@@QBE_NPAUIDataAdviseHolder@@@Z 100087d0 f i CoinAcceptor.obj
 0001:00007810       ??8?$CComPtrBase@UIOleAdviseHolder@@@ATL@@QBE_NPAUIOleAdviseHolder@@@Z 10008810 f i CoinAcceptor.obj
 0001:00007850       ??8?$CComPtrBase@UIOleClientSite@@@ATL@@QBE_NPAUIOleClientSite@@@Z 10008850 f i CoinAcceptor.obj
 0001:00007890       ??8?$CComPtrBase@UIOleControlSite@@@ATL@@QBE_NPAUIOleControlSite@@@Z 10008890 f i CoinAcceptor.obj
 0001:000078d0       ??8?$CComPtrBase@UIOleInPlaceObject@@@ATL@@QBE_NPAUIOleInPlaceObject@@@Z 100088d0 f i CoinAcceptor.obj
 0001:00007910       ??8?$CComPtrBase@UIOleInPlaceSiteWindowless@@@ATL@@QBE_NPAUIOleInPlaceSiteWindowless@@@Z 10008910 f i CoinAcceptor.obj
 0001:00007950       ??8?$CComPtrBase@UIOleObject@@@ATL@@QBE_NPAUIOleObject@@@Z 10008950 f i CoinAcceptor.obj
 0001:00007990       ??8?$CComPtrBase@UIPersistStream@@@ATL@@QBE_NPAUIPersistStream@@@Z 10008990 f i CoinAcceptor.obj
 0001:000079d0       ??8?$CComPtrBase@UIPersistStreamInit@@@ATL@@QBE_NPAUIPersistStreamInit@@@Z 100089d0 f i CoinAcceptor.obj
 0001:00007a10       ??8?$CComPtrBase@UIPointerInactive@@@ATL@@QBE_NPAUIPointerInactive@@@Z 10008a10 f i CoinAcceptor.obj
 0001:00007a50       ??8?$CComPtrBase@UIUnknown@@@ATL@@QBE_NPAUIUnknown@@@Z 10008a50 f i CoinAcceptor.obj
 0001:00007a90       ??8?$CComPtrBase@UIViewObjectEx@@@ATL@@QBE_NPAUIViewObjectEx@@@Z 10008a90 f i CoinAcceptor.obj
 0001:00007ad0       ??8CComBSTR@ATL@@QBE_NH@Z  10008ad0 f i CoinAcceptor.obj
 0001:00007b30       ??9?$CComPtrBase@UIAdviseSink@@@ATL@@QBE_NPAUIAdviseSink@@@Z 10008b30 f i CoinAcceptor.obj
 0001:00007b80       ??9?$CComPtrBase@UIConnectionPointContainer@@@ATL@@QBE_NPAUIConnectionPointContainer@@@Z 10008b80 f i CoinAcceptor.obj
 0001:00007bd0       ??9?$CComPtrBase@UIDataAdviseHolder@@@ATL@@QBE_NPAUIDataAdviseHolder@@@Z 10008bd0 f i CoinAcceptor.obj
 0001:00007c20       ??9?$CComPtrBase@UIOleAdviseHolder@@@ATL@@QBE_NPAUIOleAdviseHolder@@@Z 10008c20 f i CoinAcceptor.obj
 0001:00007c70       ??9?$CComPtrBase@UIOleClientSite@@@ATL@@QBE_NPAUIOleClientSite@@@Z 10008c70 f i CoinAcceptor.obj
 0001:00007cc0       ??9?$CComPtrBase@UIOleControlSite@@@ATL@@QBE_NPAUIOleControlSite@@@Z 10008cc0 f i CoinAcceptor.obj
 0001:00007d10       ??9?$CComPtrBase@UIOleInPlaceObject@@@ATL@@QBE_NPAUIOleInPlaceObject@@@Z 10008d10 f i CoinAcceptor.obj
 0001:00007d60       ??9?$CComPtrBase@UIOleInPlaceSiteWindowless@@@ATL@@QBE_NPAUIOleInPlaceSiteWindowless@@@Z 10008d60 f i CoinAcceptor.obj
 0001:00007db0       ??9?$CComPtrBase@UIOleObject@@@ATL@@QBE_NPAUIOleObject@@@Z 10008db0 f i CoinAcceptor.obj
 0001:00007e00       ??9?$CComPtrBase@UIPersistStream@@@ATL@@QBE_NPAUIPersistStream@@@Z 10008e00 f i CoinAcceptor.obj
 0001:00007e50       ??9?$CComPtrBase@UIPersistStreamInit@@@ATL@@QBE_NPAUIPersistStreamInit@@@Z 10008e50 f i CoinAcceptor.obj
 0001:00007ea0       ??9?$CComPtrBase@UIPointerInactive@@@ATL@@QBE_NPAUIPointerInactive@@@Z 10008ea0 f i CoinAcceptor.obj
 0001:00007ef0       ??9?$CComPtrBase@UIUnknown@@@ATL@@QBE_NPAUIUnknown@@@Z 10008ef0 f i CoinAcceptor.obj
 0001:00007f40       ??9?$CComPtrBase@UIViewObjectEx@@@ATL@@QBE_NPAUIViewObjectEx@@@Z 10008f40 f i CoinAcceptor.obj
 0001:00007f90       ??9CComBSTR@ATL@@QBE_NH@Z  10008f90 f i CoinAcceptor.obj
 0001:00007fe0       ??B?$CComPtrBase@UIAdviseSink@@@ATL@@QBEPAUIAdviseSink@@XZ 10008fe0 f i CoinAcceptor.obj
 0001:00008000       ??B?$CComPtrBase@UIDataAdviseHolder@@@ATL@@QBEPAUIDataAdviseHolder@@XZ 10009000 f i CoinAcceptor.obj
 0001:00008020       ??B?$CComPtrBase@UIDataObject@@@ATL@@QBEPAUIDataObject@@XZ 10009020 f i CoinAcceptor.obj
 0001:00008040       ??B?$CComPtrBase@UIOleAdviseHolder@@@ATL@@QBEPAUIOleAdviseHolder@@XZ 10009040 f i CoinAcceptor.obj
 0001:00008060       ??B?$CComPtrBase@UIOleClientSite@@@ATL@@QBEPAUIOleClientSite@@XZ 10009060 f i CoinAcceptor.obj
 0001:00008080       ??B?$CComPtrBase@UIOleControlSite@@@ATL@@QBEPAUIOleControlSite@@XZ 10009080 f i CoinAcceptor.obj
 0001:000080a0       ??B?$CComPtrBase@UIOleInPlaceActiveObject@@@ATL@@QBEPAUIOleInPlaceActiveObject@@XZ 100090a0 f i CoinAcceptor.obj
 0001:000080c0       ??B?$CComPtrBase@UIOleInPlaceFrame@@@ATL@@QBEPAUIOleInPlaceFrame@@XZ 100090c0 f i CoinAcceptor.obj
 0001:000080e0       ??B?$CComPtrBase@UIOleInPlaceSiteWindowless@@@ATL@@QBEPAUIOleInPlaceSiteWindowless@@XZ 100090e0 f i CoinAcceptor.obj
 0001:00008100       ??B?$CComPtrBase@UIOleInPlaceUIWindow@@@ATL@@QBEPAUIOleInPlaceUIWindow@@XZ 10009100 f i CoinAcceptor.obj
 0001:00008120       ??B?$CComPtrBase@UIOleObject@@@ATL@@QBEPAUIOleObject@@XZ 10009120 f i CoinAcceptor.obj
 0001:00008140       ??B?$CComPtrBase@UIPersistStream@@@ATL@@QBEPAUIPersistStream@@XZ 10009140 f i CoinAcceptor.obj
 0001:00008160       ??B?$CComPtrBase@UIProvideClassInfo2@@@ATL@@QBEPAUIProvideClassInfo2@@XZ 10009160 f i CoinAcceptor.obj
 0001:00008180       ??B?$CComPtrBase@UISpecifyPropertyPages@@@ATL@@QBEPAUISpecifyPropertyPages@@XZ 10009180 f i CoinAcceptor.obj
 0001:000081a0       ??B?$CComPtrBase@UIStream@@@ATL@@QBEPAUIStream@@XZ 100091a0 f i CoinAcceptor.obj
 0001:000081c0       ??B?$CComPtrBase@UITypeInfo2@@@ATL@@QBEPAUITypeInfo2@@XZ 100091c0 f i CoinAcceptor.obj
 0001:000081e0       ??B?$CComPtrBase@UITypeInfo@@@ATL@@QBEPAUITypeInfo@@XZ 100091e0 f i CoinAcceptor.obj
 0001:00008200       ??B?$CComPtrBase@UITypeLib@@@ATL@@QBEPAUITypeLib@@XZ 10009200 f i CoinAcceptor.obj
 0001:00008220       ??B?$CComPtrBase@UIUnknown@@@ATL@@QBEPAUIUnknown@@XZ 10009220 f i CoinAcceptor.obj
 0001:00008240       ??B?$CTempBuffer@E$0BAA@VCCRTAllocator@ATL@@@ATL@@QBEPAEXZ 10009240 f i CoinAcceptor.obj
 0001:00008260       ??B?$CTempBuffer@_W$0BAA@VCCRTAllocator@ATL@@@ATL@@QBEPA_WXZ 10009260 f i CoinAcceptor.obj
 0001:00008280       ??B?$CTempBuffer@_W$0EAA@VCCRTAllocator@ATL@@@ATL@@QBEPA_WXZ 10009280 f i CoinAcceptor.obj
 0001:000082a0       ??B?$CTraceCategoryEx@$00$0A@@ATL@@QAEIXZ 100092a0 f i CoinAcceptor.obj
 0001:000082c0       ??B?$CTraceCategoryEx@$07$0A@@ATL@@QAEIXZ 100092c0 f i CoinAcceptor.obj
 0001:000082e0       ??B?$CTraceCategoryEx@$0CAAA@$0A@@ATL@@QAEIXZ 100092e0 f i CoinAcceptor.obj
 0001:00008300       ??B?$CTraceCategoryEx@$0EA@$0A@@ATL@@QAEIXZ 10009300 f i CoinAcceptor.obj
 0001:00008320       ??B?$CTraceCategoryEx@$0IAA@$0A@@ATL@@QAEIXZ 10009320 f i CoinAcceptor.obj
 0001:00008340       ??BCComBSTR@ATL@@QBEPA_WXZ 10009340 f i CoinAcceptor.obj
 0001:00008360       ??BCRegKey@ATL@@QBEPAUHKEY__@@XZ 10009360 f i CoinAcceptor.obj
 0001:00008380       ??C?$CComPtrBase@UIAdviseSink@@@ATL@@QBEPAV?$_NoAddRefReleaseOnCComPtr@UIAdviseSink@@@1@XZ 10009380 f i CoinAcceptor.obj
 0001:000083d0       ??C?$CComPtrBase@UICatRegister@@@ATL@@QBEPAV?$_NoAddRefReleaseOnCComPtr@UICatRegister@@@1@XZ 100093d0 f i CoinAcceptor.obj
 0001:00008420       ??C?$CComPtrBase@UIConnectionPoint@@@ATL@@QBEPAV?$_NoAddRefReleaseOnCComPtr@UIConnectionPoint@@@1@XZ 10009420 f i CoinAcceptor.obj
 0001:00008470       ??C?$CComPtrBase@UIConnectionPointContainer@@@ATL@@QBEPAV?$_NoAddRefReleaseOnCComPtr@UIConnectionPointContainer@@@1@XZ 10009470 f i CoinAcceptor.obj
 0001:000084c0       ??C?$CComPtrBase@UIDataAdviseHolder@@@ATL@@QBEPAV?$_NoAddRefReleaseOnCComPtr@UIDataAdviseHolder@@@1@XZ 100094c0 f i CoinAcceptor.obj
 0001:00008510       ??C?$CComPtrBase@UIOleAdviseHolder@@@ATL@@QBEPAV?$_NoAddRefReleaseOnCComPtr@UIOleAdviseHolder@@@1@XZ 10009510 f i CoinAcceptor.obj
 0001:00008560       ??C?$CComPtrBase@UIOleClientSite@@@ATL@@QBEPAV?$_NoAddRefReleaseOnCComPtr@UIOleClientSite@@@1@XZ 10009560 f i CoinAcceptor.obj
 0001:000085b0       ??C?$CComPtrBase@UIOleControlSite@@@ATL@@QBEPAV?$_NoAddRefReleaseOnCComPtr@UIOleControlSite@@@1@XZ 100095b0 f i CoinAcceptor.obj
 0001:00008600       ??C?$CComPtrBase@UIOleInPlaceFrame@@@ATL@@QBEPAV?$_NoAddRefReleaseOnCComPtr@UIOleInPlaceFrame@@@1@XZ 10009600 f i CoinAcceptor.obj
 0001:00008650       ??C?$CComPtrBase@UIOleInPlaceObject@@@ATL@@QBEPAV?$_NoAddRefReleaseOnCComPtr@UIOleInPlaceObject@@@1@XZ 10009650 f i CoinAcceptor.obj
 0001:000086a0       ??C?$CComPtrBase@UIOleInPlaceSiteWindowless@@@ATL@@QBEPAV?$_NoAddRefReleaseOnCComPtr@UIOleInPlaceSiteWindowless@@@1@XZ 100096a0 f i CoinAcceptor.obj
 0001:000086f0       ??C?$CComPtrBase@UIOleInPlaceUIWindow@@@ATL@@QBEPAV?$_NoAddRefReleaseOnCComPtr@UIOleInPlaceUIWindow@@@1@XZ 100096f0 f i CoinAcceptor.obj
 0001:00008740       ??C?$CComPtrBase@UIOleObject@@@ATL@@QBEPAV?$_NoAddRefReleaseOnCComPtr@UIOleObject@@@1@XZ 10009740 f i CoinAcceptor.obj
 0001:00008790       ??C?$CComPtrBase@UIPersistStream@@@ATL@@QBEPAV?$_NoAddRefReleaseOnCComPtr@UIPersistStream@@@1@XZ 10009790 f i CoinAcceptor.obj
 0001:000087e0       ??C?$CComPtrBase@UIPersistStreamInit@@@ATL@@QBEPAV?$_NoAddRefReleaseOnCComPtr@UIPersistStreamInit@@@1@XZ 100097e0 f i CoinAcceptor.obj
 0001:00008830       ??C?$CComPtrBase@UIPointerInactive@@@ATL@@QBEPAV?$_NoAddRefReleaseOnCComPtr@UIPointerInactive@@@1@XZ 10009830 f i CoinAcceptor.obj
 0001:00008880       ??C?$CComPtrBase@UIProvideClassInfo2@@@ATL@@QBEPAV?$_NoAddRefReleaseOnCComPtr@UIProvideClassInfo2@@@1@XZ 10009880 f i CoinAcceptor.obj
 0001:000088d0       ??C?$CComPtrBase@UISpecifyPropertyPages@@@ATL@@QBEPAV?$_NoAddRefReleaseOnCComPtr@UISpecifyPropertyPages@@@1@XZ 100098d0 f i CoinAcceptor.obj
 0001:00008920       ??C?$CComPtrBase@UITypeInfo@@@ATL@@QBEPAV?$_NoAddRefReleaseOnCComPtr@UITypeInfo@@@1@XZ 10009920 f i CoinAcceptor.obj
 0001:00008970       ??C?$CComPtrBase@UITypeLib@@@ATL@@QBEPAV?$_NoAddRefReleaseOnCComPtr@UITypeLib@@@1@XZ 10009970 f i CoinAcceptor.obj
 0001:000089c0       ??C?$CComPtrBase@UIUnknown@@@ATL@@QBEPAV?$_NoAddRefReleaseOnCComPtr@UIUnknown@@@1@XZ 100099c0 f i CoinAcceptor.obj
 0001:00008a10       ??C?$CComPtrBase@UIViewObjectEx@@@ATL@@QBEPAV?$_NoAddRefReleaseOnCComPtr@UIViewObjectEx@@@1@XZ 10009a10 f i CoinAcceptor.obj
 0001:00008a60       ??I?$CComPtrBase@UICatRegister@@@ATL@@QAEPAPAUICatRegister@@XZ 10009a60 f i CoinAcceptor.obj
 0001:00008ab0       ??I?$CComPtrBase@UIConnectionPoint@@@ATL@@QAEPAPAUIConnectionPoint@@XZ 10009ab0 f i CoinAcceptor.obj
 0001:00008b00       ??I?$CComPtrBase@UIConnectionPointContainer@@@ATL@@QAEPAPAUIConnectionPointContainer@@XZ 10009b00 f i CoinAcceptor.obj
 0001:00008b50       ??I?$CComPtrBase@UIDataAdviseHolder@@@ATL@@QAEPAPAUIDataAdviseHolder@@XZ 10009b50 f i CoinAcceptor.obj
 0001:00008ba0       ??I?$CComPtrBase@UIDataObject@@@ATL@@QAEPAPAUIDataObject@@XZ 10009ba0 f i CoinAcceptor.obj
 0001:00008bf0       ??I?$CComPtrBase@UIDispatch@@@ATL@@QAEPAPAUIDispatch@@XZ 10009bf0 f i CoinAcceptor.obj
 0001:00008c40       ??I?$CComPtrBase@UIOleAdviseHolder@@@ATL@@QAEPAPAUIOleAdviseHolder@@XZ 10009c40 f i CoinAcceptor.obj
 0001:00008c90       ??I?$CComPtrBase@UIOleControlSite@@@ATL@@QAEPAPAUIOleControlSite@@XZ 10009c90 f i CoinAcceptor.obj
 0001:00008ce0       ??I?$CComPtrBase@UIOleInPlaceActiveObject@@@ATL@@QAEPAPAUIOleInPlaceActiveObject@@XZ 10009ce0 f i CoinAcceptor.obj
 0001:00008d30       ??I?$CComPtrBase@UIOleInPlaceFrame@@@ATL@@QAEPAPAUIOleInPlaceFrame@@XZ 10009d30 f i CoinAcceptor.obj
 0001:00008d80       ??I?$CComPtrBase@UIOleInPlaceObject@@@ATL@@QAEPAPAUIOleInPlaceObject@@XZ 10009d80 f i CoinAcceptor.obj
 0001:00008dd0       ??I?$CComPtrBase@UIOleInPlaceSiteWindowless@@@ATL@@QAEPAPAUIOleInPlaceSiteWindowless@@XZ 10009dd0 f i CoinAcceptor.obj
 0001:00008e20       ??I?$CComPtrBase@UIOleInPlaceUIWindow@@@ATL@@QAEPAPAUIOleInPlaceUIWindow@@XZ 10009e20 f i CoinAcceptor.obj
 0001:00008e70       ??I?$CComPtrBase@UIOleObject@@@ATL@@QAEPAPAUIOleObject@@XZ 10009e70 f i CoinAcceptor.obj
 0001:00008ec0       ??I?$CComPtrBase@UIPersistStream@@@ATL@@QAEPAPAUIPersistStream@@XZ 10009ec0 f i CoinAcceptor.obj
 0001:00008f10       ??I?$CComPtrBase@UIPointerInactive@@@ATL@@QAEPAPAUIPointerInactive@@XZ 10009f10 f i CoinAcceptor.obj
 0001:00008f60       ??I?$CComPtrBase@UIProvideClassInfo2@@@ATL@@QAEPAPAUIProvideClassInfo2@@XZ 10009f60 f i CoinAcceptor.obj
 0001:00008fb0       ??I?$CComPtrBase@UIStream@@@ATL@@QAEPAPAUIStream@@XZ 10009fb0 f i CoinAcceptor.obj
 0001:00009000       ??I?$CComPtrBase@UITypeInfo2@@@ATL@@QAEPAPAUITypeInfo2@@XZ 1000a000 f i CoinAcceptor.obj
 0001:00009050       ??I?$CComPtrBase@UITypeInfo@@@ATL@@QAEPAPAUITypeInfo@@XZ 1000a050 f i CoinAcceptor.obj
 0001:000090a0       ??I?$CComPtrBase@UITypeLib@@@ATL@@QAEPAPAUITypeLib@@XZ 1000a0a0 f i CoinAcceptor.obj
 0001:000090f0       ??I?$CComPtrBase@UIUnknown@@@ATL@@QAEPAPAUIUnknown@@XZ 1000a0f0 f i CoinAcceptor.obj
 0001:00009140       ??I?$CComPtrBase@UIViewObjectEx@@@ATL@@QAEPAPAUIViewObjectEx@@XZ 1000a140 f i CoinAcceptor.obj
 0001:00009190       ??ICComBSTR@ATL@@QAEPAPA_WXZ 1000a190 f i CoinAcceptor.obj
 0001:000091a5       ??_E?$CComContainedObject@VCOPOSCoinAcceptor@@@ATL@@W3AEPAXI@Z 1000a1a5 f i CoinAcceptor.obj
 0001:000091ad       ??_E?$CComContainedObject@VCOPOSCoinAcceptor@@@ATL@@WEM@AEPAXI@Z 1000a1ad f i CoinAcceptor.obj
 0001:000091b5       ??_E?$CComObject@VCOPOSCoinAcceptor@@@ATL@@W3AEPAXI@Z 1000a1b5 f i CoinAcceptor.obj
 0001:000091bd       ??_E?$CComObject@VCOPOSCoinAcceptor@@@ATL@@WEM@AEPAXI@Z 1000a1bd f i CoinAcceptor.obj
 0001:000091d0       ??_E?$CComAggObject@VCOPOSCoinAcceptor@@@ATL@@UAEPAXI@Z 1000a1d0 f i CoinAcceptor.obj
 0001:000091d0       ??_G?$CComAggObject@VCOPOSCoinAcceptor@@@ATL@@UAEPAXI@Z 1000a1d0 f i CoinAcceptor.obj
 0001:00009220       ??_G?$CComContainedObject@VCOPOSCoinAcceptor@@@ATL@@UAEPAXI@Z 1000a220 f i CoinAcceptor.obj
 0001:00009220       ??_E?$CComContainedObject@VCOPOSCoinAcceptor@@@ATL@@UAEPAXI@Z 1000a220 f i CoinAcceptor.obj
 0001:00009270       ??_E?$CComObject@V?$CComEnum@UIEnumConnectionPoints@@$1?_GUID_b196b285_bab4_101a_b69c_00aa00341d07@@3U__s_GUID@@BPAUIConnectionPoint@@V?$_CopyInterface@UIConnectionPoint@@@ATL@@VCComSingleThreadModel@6@@ATL@@@ATL@@UAEPAXI@Z 1000a270 f i CoinAcceptor.obj
 0001:00009270       ??_G?$CComObject@V?$CComEnum@UIEnumConnectionPoints@@$1?_GUID_b196b285_bab4_101a_b69c_00aa00341d07@@3U__s_GUID@@BPAUIConnectionPoint@@V?$_CopyInterface@UIConnectionPoint@@@ATL@@VCComSingleThreadModel@6@@ATL@@@ATL@@UAEPAXI@Z 1000a270 f i CoinAcceptor.obj
 0001:000092b0       ??_G?$CComObject@V?$CComEnum@UIEnumConnections@@$1?_GUID_b196b287_bab4_101a_b69c_00aa00341d07@@3U__s_GUID@@BUtagCONNECTDATA@@V?$_Copy@UtagCONNECTDATA@@@ATL@@VCComSingleThreadModel@6@@ATL@@@ATL@@UAEPAXI@Z 1000a2b0 f i CoinAcceptor.obj
 0001:000092b0       ??_E?$CComObject@V?$CComEnum@UIEnumConnections@@$1?_GUID_b196b287_bab4_101a_b69c_00aa00341d07@@3U__s_GUID@@BUtagCONNECTDATA@@V?$_Copy@UtagCONNECTDATA@@@ATL@@VCComSingleThreadModel@6@@ATL@@@ATL@@UAEPAXI@Z 1000a2b0 f i CoinAcceptor.obj
 0001:000092f0       ??_E?$CComObject@VCOPOSCoinAcceptor@@@ATL@@UAEPAXI@Z 1000a2f0 f i CoinAcceptor.obj
 0001:000092f0       ??_G?$CComObject@VCOPOSCoinAcceptor@@@ATL@@UAEPAXI@Z 1000a2f0 f i CoinAcceptor.obj
 0001:00009340       ??_G?$CComObjectCached@VCComClassFactory@ATL@@@ATL@@UAEPAXI@Z 1000a340 f i CoinAcceptor.obj
 0001:00009340       ??_E?$CComObjectCached@VCComClassFactory@ATL@@@ATL@@UAEPAXI@Z 1000a340 f i CoinAcceptor.obj
 0001:00009380       ??_GCComClassFactory@ATL@@UAEPAXI@Z 1000a380 f i CoinAcceptor.obj
 0001:00009380       ??_ECComClassFactory@ATL@@UAEPAXI@Z 1000a380 f i CoinAcceptor.obj
 0001:000093c0       ??_ECComModule@ATL@@UAEPAXI@Z 1000a3c0 f i CoinAcceptor.obj
 0001:000093c0       ??_GCComModule@ATL@@UAEPAXI@Z 1000a3c0 f i CoinAcceptor.obj
 0001:00009400       ??_ECRegObject@ATL@@UAEPAXI@Z 1000a400 f i CoinAcceptor.obj
 0001:00009400       ??_GCRegObject@ATL@@UAEPAXI@Z 1000a400 f i CoinAcceptor.obj
 0001:00009440       ?Add@?$CSimpleArray@GV?$CSimpleArrayEqualHelper@G@ATL@@@ATL@@QAEHABG@Z 1000a440 f i CoinAcceptor.obj
 0001:00009590       ?Add@?$CSimpleMap@PA_WPA_WVCExpansionVectorEqualHelper@ATL@@@ATL@@QAEHABQA_W0@Z 1000a590 f i CoinAcceptor.obj
 0001:00009650       ?Add@CComDynamicUnkArray@ATL@@QAEKPAUIUnknown@@@Z 1000a650 f i CoinAcceptor.obj
 0001:000097f0       ?Add@CExpansionVector@ATL@@QAEHPB_W0@Z 1000a7f0 f i CoinAcceptor.obj
 0001:00009a80       ?AddChar@CParseBuffer@CRegParser@ATL@@QAEHPB_W@Z 1000aa80 f i CoinAcceptor.obj
 0001:00009ac0       ?AddCommonRGSReplacements@?$CAtlModuleT@VCComModule@ATL@@@ATL@@UAEJPAUIRegistrarBase@@@Z 1000aac0 f i CoinAcceptor.obj
 0001:00009b10       ?AddCreateWndData@CAtlWinModule@ATL@@QAEXPAU_AtlCreateWndData@2@PAX@Z 1000ab10 f i CoinAcceptor.obj
 0001:00009b40       ?AddRef@?$CComAggObject@VCOPOSCoinAcceptor@@@ATL@@UAGKXZ 1000ab40 f i CoinAcceptor.obj
 0001:00009b60       ?AddRef@?$CComContainedObject@VCOPOSCoinAcceptor@@@ATL@@UAGKXZ 1000ab60 f i CoinAcceptor.obj
 0001:00009b7c       ?AddRef@?$CComContainedObject@VCOPOSCoinAcceptor@@@ATL@@WHA@AGKXZ 1000ab7c f i CoinAcceptor.obj
 0001:00009b86       ?AddRef@?$CComContainedObject@VCOPOSCoinAcceptor@@@ATL@@WHE@AGKXZ 1000ab86 f i CoinAcceptor.obj
 0001:00009b90       ?AddRef@?$CComContainedObject@VCOPOSCoinAcceptor@@@ATL@@WHI@AGKXZ 1000ab90 f i CoinAcceptor.obj
 0001:00009b9a       ?AddRef@?$CComContainedObject@VCOPOSCoinAcceptor@@@ATL@@WHM@AGKXZ 1000ab9a f i CoinAcceptor.obj
 0001:00009ba4       ?AddRef@?$CComContainedObject@VCOPOSCoinAcceptor@@@ATL@@WIA@AGKXZ 1000aba4 f i CoinAcceptor.obj
 0001:00009bb1       ?AddRef@?$CComContainedObject@VCOPOSCoinAcceptor@@@ATL@@WIE@AGKXZ 1000abb1 f i CoinAcceptor.obj
 0001:00009bbe       ?AddRef@?$CComContainedObject@VCOPOSCoinAcceptor@@@ATL@@WII@AGKXZ 1000abbe f i CoinAcceptor.obj
 0001:00009bcb       ?AddRef@?$CComContainedObject@VCOPOSCoinAcceptor@@@ATL@@WIM@AGKXZ 1000abcb f i CoinAcceptor.obj
 0001:00009bd8       ?AddRef@?$CComContainedObject@VCOPOSCoinAcceptor@@@ATL@@WJA@AGKXZ 1000abd8 f i CoinAcceptor.obj
 0001:00009be5       ?AddRef@?$CComContainedObject@VCOPOSCoinAcceptor@@@ATL@@WJE@AGKXZ 1000abe5 f i CoinAcceptor.obj
 0001:00009bf2       ?AddRef@?$CComContainedObject@VCOPOSCoinAcceptor@@@ATL@@WJI@AGKXZ 1000abf2 f i CoinAcceptor.obj
 0001:00009bff       ?AddRef@?$CComContainedObject@VCOPOSCoinAcceptor@@@ATL@@WJM@AGKXZ 1000abff f i CoinAcceptor.obj
 0001:00009c0c       ?AddRef@?$CComContainedObject@VCOPOSCoinAcceptor@@@ATL@@WKA@AGKXZ 1000ac0c f i CoinAcceptor.obj
 0001:00009c19       ?AddRef@?$CComContainedObject@VCOPOSCoinAcceptor@@@ATL@@WKI@AGKXZ 1000ac19 f i CoinAcceptor.obj
 0001:00009c26       ?AddRef@?$CComContainedObject@VCOPOSCoinAcceptor@@@ATL@@WLE@AGKXZ 1000ac26 f i CoinAcceptor.obj
 0001:00009c40       ?AddRef@?$CComObject@V?$CComEnum@UIEnumConnectionPoints@@$1?_GUID_b196b285_bab4_101a_b69c_00aa00341d07@@3U__s_GUID@@BPAUIConnectionPoint@@V?$_CopyInterface@UIConnectionPoint@@@ATL@@VCComSingleThreadModel@6@@ATL@@@ATL@@UAGKXZ 1000ac40 f i CoinAcceptor.obj
 0001:00009c60       ?AddRef@?$CComObject@V?$CComEnum@UIEnumConnections@@$1?_GUID_b196b287_bab4_101a_b69c_00aa00341d07@@3U__s_GUID@@BUtagCONNECTDATA@@V?$_Copy@UtagCONNECTDATA@@@ATL@@VCComSingleThreadModel@6@@ATL@@@ATL@@UAGKXZ 1000ac60 f i CoinAcceptor.obj
 0001:00009c80       ?AddRef@?$CComObject@VCOPOSCoinAcceptor@@@ATL@@UAGKXZ 1000ac80 f i CoinAcceptor.obj
 0001:00009c9c       ?AddRef@?$CComObject@VCOPOSCoinAcceptor@@@ATL@@WHA@AGKXZ 1000ac9c f i CoinAcceptor.obj
 0001:00009ca6       ?AddRef@?$CComObject@VCOPOSCoinAcceptor@@@ATL@@WHE@AGKXZ 1000aca6 f i CoinAcceptor.obj
 0001:00009cb0       ?AddRef@?$CComObject@VCOPOSCoinAcceptor@@@ATL@@WHI@AGKXZ 1000acb0 f i CoinAcceptor.obj
 0001:00009cba       ?AddRef@?$CComObject@VCOPOSCoinAcceptor@@@ATL@@WHM@AGKXZ 1000acba f i CoinAcceptor.obj
 0001:00009cc4       ?AddRef@?$CComObject@VCOPOSCoinAcceptor@@@ATL@@WIA@AGKXZ 1000acc4 f i CoinAcceptor.obj
 0001:00009cd1       ?AddRef@?$CComObject@VCOPOSCoinAcceptor@@@ATL@@WIE@AGKXZ 1000acd1 f i CoinAcceptor.obj
 0001:00009cde       ?AddRef@?$CComObject@VCOPOSCoinAcceptor@@@ATL@@WII@AGKXZ 1000acde f i CoinAcceptor.obj
 0001:00009ceb       ?AddRef@?$CComObject@VCOPOSCoinAcceptor@@@ATL@@WIM@AGKXZ 1000aceb f i CoinAcceptor.obj
 0001:00009cf8       ?AddRef@?$CComObject@VCOPOSCoinAcceptor@@@ATL@@WJA@AGKXZ 1000acf8 f i CoinAcceptor.obj
 0001:00009d05       ?AddRef@?$CComObject@VCOPOSCoinAcceptor@@@ATL@@WJE@AGKXZ 1000ad05 f i CoinAcceptor.obj
 0001:00009d12       ?AddRef@?$CComObject@VCOPOSCoinAcceptor@@@ATL@@WJI@AGKXZ 1000ad12 f i CoinAcceptor.obj
 0001:00009d1f       ?AddRef@?$CComObject@VCOPOSCoinAcceptor@@@ATL@@WJM@AGKXZ 1000ad1f f i CoinAcceptor.obj
 0001:00009d2c       ?AddRef@?$CComObject@VCOPOSCoinAcceptor@@@ATL@@WKA@AGKXZ 1000ad2c f i CoinAcceptor.obj
 0001:00009d39       ?AddRef@?$CComObject@VCOPOSCoinAcceptor@@@ATL@@WKI@AGKXZ 1000ad39 f i CoinAcceptor.obj
 0001:00009d46       ?AddRef@?$CComObject@VCOPOSCoinAcceptor@@@ATL@@WLE@AGKXZ 1000ad46 f i CoinAcceptor.obj
 0001:00009d60       ?AddRef@?$CComObjectCached@VCComClassFactory@ATL@@@ATL@@UAGKXZ 1000ad60 f i CoinAcceptor.obj
 0001:00009db0       ?AddRef@CRegObject@ATL@@UAGKXZ 1000adb0 f i CoinAcceptor.obj
 0001:00009e00       ?AddReplacement@CRegObject@ATL@@UAGJPB_W0@Z 1000ae00 f i CoinAcceptor.obj
 0001:00009f10       ?AddString@CParseBuffer@CRegParser@ATL@@QAEHPB_W@Z 1000af10 f i CoinAcceptor.obj
 0001:0000a000       ?AddTermFunc@CAtlModule@ATL@@QAEJP6GXK@ZK@Z 1000b000 f i CoinAcceptor.obj
 0001:0000a050       ?AddValue@CRegParser@ATL@@IAEJAAVCRegKey@2@PB_WPA_W@Z 1000b050 f i CoinAcceptor.obj
 0001:0000a7e0       ?Advise@?$CProxy_IOPOSEvents@VCOPOSCoinAcceptor@@@@UAGJPAUIUnknown@@PAK@Z 1000b7e0 f i CoinAcceptor.obj
 0001:0000a830       ?Advise@?$IConnectionPointImpl@VCOPOSCoinAcceptor@@$1?DIID__IOPOSCoinAcceptorEvents@@3U_GUID@@BVCComDynamicUnkArray@ATL@@@ATL@@UAGJPAUIUnknown@@PAK@Z 1000b830 f i CoinAcceptor.obj
 0001:0000a9d0       ?Advise@?$IConnectionPointImpl@VCOPOSCoinAcceptor@@$1?IID_IPropertyNotifySink@@3U_GUID@@BVCComDynamicUnkArray@ATL@@@ATL@@UAGJPAUIUnknown@@PAK@Z 1000b9d0 f i CoinAcceptor.obj
 0001:0000ab70       ?Advise@?$IOleObjectImpl@VCOPOSCoinAcceptor@@@ATL@@UAGJPAUIAdviseSink@@PAK@Z 1000bb70 f i CoinAcceptor.obj
 0001:0000ac00       ?Allocate@?$CAtlSafeAllocBufferManager@VCCRTAllocator@ATL@@@_ATL_SAFE_ALLOCA_IMPL@ATL@@QAEPAXK@Z 1000bc00 f i CoinAcceptor.obj
 0001:0000ac70       ?Allocate@?$CTempBuffer@E$0BAA@VCCRTAllocator@ATL@@@ATL@@QAEPAEI@Z 1000bc70 f i CoinAcceptor.obj
 0001:0000acb0       ?Allocate@?$CTempBuffer@_W$0BAA@VCCRTAllocator@ATL@@@ATL@@QAEPA_WI@Z 1000bcb0 f i CoinAcceptor.obj
 0001:0000acf0       ?Allocate@?$CTempBuffer@_W$0EAA@VCCRTAllocator@ATL@@@ATL@@QAEPA_WI@Z 1000bcf0 f i CoinAcceptor.obj
 0001:0000ad30       ?AllocateBytes@?$CTempBuffer@E$0BAA@VCCRTAllocator@ATL@@@ATL@@QAEPAEI@Z 1000bd30 f i CoinAcceptor.obj
 0001:0000adb0       ?AllocateBytes@?$CTempBuffer@_W$0BAA@VCCRTAllocator@ATL@@@ATL@@QAEPA_WI@Z 1000bdb0 f i CoinAcceptor.obj
 0001:0000ae30       ?AllocateBytes@?$CTempBuffer@_W$0EAA@VCCRTAllocator@ATL@@@ATL@@QAEPA_WI@Z 1000be30 f i CoinAcceptor.obj
 0001:0000aeb0       ?AllocateHeap@?$CTempBuffer@E$0BAA@VCCRTAllocator@ATL@@@ATL@@AAEXI@Z 1000beb0 f i CoinAcceptor.obj
 0001:0000af00       ?AllocateHeap@?$CTempBuffer@_W$0BAA@VCCRTAllocator@ATL@@@ATL@@AAEXI@Z 1000bf00 f i CoinAcceptor.obj
 0001:0000af50       ?AllocateHeap@?$CTempBuffer@_W$0EAA@VCCRTAllocator@ATL@@@ATL@@AAEXI@Z 1000bf50 f i CoinAcceptor.obj
 0001:0000afa0       ?Append@CParseBuffer@CRegParser@ATL@@QAEHPB_WH@Z 1000bfa0 f i CoinAcceptor.obj
 0001:0000b140       ?AtlCallTermFunc@ATL@@YGXPAU_ATL_MODULE70@1@@Z 1000c140 f i CoinAcceptor.obj
 0001:0000b1e0       ?AtlCoTaskMemCAlloc@ATL@@YAPAXKK@Z 1000c1e0 f i CoinAcceptor.obj
 0001:0000b270       ?AtlCoTaskMemRecalloc@ATL@@YAPAXPAXKK@Z 1000c270 f i CoinAcceptor.obj
 0001:0000b310       ?AtlComModuleGetClassObject@ATL@@YGJPAU_ATL_COM_MODULE70@1@ABU_GUID@@1PAPAX@Z 1000c310 f i CoinAcceptor.obj
 0001:0000b5a0       ?AtlComModuleRegisterServer@ATL@@YGJPAU_ATL_COM_MODULE70@1@HPBU_GUID@@@Z 1000c5a0 f i CoinAcceptor.obj
 0001:0000b730       ?AtlComModuleUnregisterServer@ATL@@YGJPAU_ATL_COM_MODULE70@1@HPBU_GUID@@@Z 1000c730 f i CoinAcceptor.obj
 0001:0000b860       ?AtlComQIPtrAssign2@ATL@@YAXPAPAUIUnknown@@PAU2@ABU_GUID@@@Z 1000c860 f i CoinAcceptor.obj
 0001:0000b8e0       ?AtlCreateTargetDC@ATL@@YGPAUHDC__@@PAU2@PAUtagDVTARGETDEVICE@@@Z 1000c8e0 f i CoinAcceptor.obj
 0001:0000ba80       ?AtlCrtErrorCheck@ATL@@YAHH@Z 1000ca80 f i CoinAcceptor.obj
 0001:0000bb50       ?AtlGetPerUserRegistration@ATL@@YGJPA_N@Z 1000cb50 f i CoinAcceptor.obj
 0001:0000bb80       ?AtlHiMetricToPixel@ATL@@YGXPBUtagSIZE@@PAU2@@Z 1000cb80 f i CoinAcceptor.obj
 0001:0000bd50       ?AtlHresultFromLastError@ATL@@YAJXZ 1000cd50 f i CoinAcceptor.obj
 0001:0000bd90       ?AtlHresultFromWin32@ATL@@YAJK@Z 1000cd90 f i CoinAcceptor.obj
 0001:0000bdb0       ?AtlIPersistStreamInit_Load@ATL@@YGJPAUIStream@@PBUATL_PROPMAP_ENTRY@1@PAXPAUIUnknown@@@Z 1000cdb0 f i CoinAcceptor.obj
 0001:0000c210       ?AtlIPersistStreamInit_Save@ATL@@YGJPAUIStream@@HPBUATL_PROPMAP_ENTRY@1@PAXPAUIUnknown@@@Z 1000d210 f i CoinAcceptor.obj
 0001:0000c5f0       ?AtlInternalOleLoadFromStream@ATL@@YAJPAUIStream@@ABU_GUID@@PAPAXTClassesAllowedInStream@1@K@Z 1000d5f0 f i CoinAcceptor.obj
 0001:0000c890       ?AtlInternalQueryInterface@ATL@@YGJPAXPBU_ATL_INTMAP_ENTRY@1@ABU_GUID@@PAPAX@Z 1000d890 f i CoinAcceptor.obj
 0001:0000cac0       ?AtlLoadTypeLib@ATL@@YGJPAUHINSTANCE__@@PB_WPAPA_WPAPAUITypeLib@@@Z 1000dac0 f i CoinAcceptor.obj
 0001:0000cf20       ?AtlModuleAddTermFunc@ATL@@YGJPAU_ATL_MODULE70@1@P6GXK@ZK@Z 1000df20 f i CoinAcceptor.obj
 0001:0000d080       ?AtlRegisterClassCategoriesHelper@ATL@@YGJABU_GUID@@PBU_ATL_CATMAP_ENTRY@1@H@Z 1000e080 f i CoinAcceptor.obj
 0001:0000d760       ?AtlRegisterTypeLib@ATL@@YGJPAUHINSTANCE__@@PB_W@Z 1000e760 f i CoinAcceptor.obj
 0001:0000daa0       ?AtlThrowImpl@ATL@@YGXJ@Z  1000eaa0 f i CoinAcceptor.obj
 0001:0000db50       ?AtlUnRegisterTypeLib@ATL@@YGJPAUHINSTANCE__@@PB_W@Z 1000eb50 f i CoinAcceptor.obj
 0001:0000dd60       ?AtlWinModuleAddCreateWndData@ATL@@YGXPAU_ATL_WIN_MODULE70@1@PAU_AtlCreateWndData@1@PAX@Z 1000ed60 f i CoinAcceptor.obj
 0001:0000ded0       ?AtlWinModuleExtractCreateWndData@ATL@@YGPAXPAU_ATL_WIN_MODULE70@1@@Z 1000eed0 f i CoinAcceptor.obj
 0001:0000e050       ?AtlWinModuleRegisterClassExW@ATL@@YGGPAU_ATL_WIN_MODULE70@1@PBUtagWNDCLASSEXW@@@Z 1000f050 f i CoinAcceptor.obj
 0001:0000e120       ?AtlWinModuleRegisterWndClassInfoW@ATL@@YGGPAU_ATL_WIN_MODULE70@1@PAU_ATL_BASE_MODULE70@1@PAU_ATL_WNDCLASSINFOW@1@PAP6GJPAUHWND__@@IIJ@Z@Z 1000f120 f i CoinAcceptor.obj
 0001:0000e1b0       ?Attach@?$CAutoVectorPtr@_W@ATL@@QAEXPA_W@Z 1000f1b0 f i CoinAcceptor.obj
 0001:0000e210       ?Attach@CComBSTR@ATL@@QAEXPA_W@Z 1000f210 f i CoinAcceptor.obj
 0001:0000e260       ?Attach@CRegKey@ATL@@QAEXPAUHKEY__@@@Z 1000f260 f i CoinAcceptor.obj
 0001:0000e2d0       ?CanForceRemoveKey@CRegParser@ATL@@IAEHPB_W@Z 1000f2d0 f i CoinAcceptor.obj
 0001:0000e340       ?ChToByte@CRegParser@ATL@@KAE_W@Z 1000f340 f i CoinAcceptor.obj
 0001:0000e460       ?ChangeType@CComVariant@ATL@@QAEJGPBUtagVARIANT@@@Z 1000f460 f i CoinAcceptor.obj
 0001:0000e4c0       ?Cleanup@CComTypeInfoHolder@ATL@@SGXK@Z 1000f4c0 f i CoinAcceptor.obj
 0001:0000e590       ?Clear@CComVariant@ATL@@QAEJXZ 1000f590 f i CoinAcceptor.obj
 0001:0000e5d0       ?ClearReplacements@CExpansionVector@ATL@@QAEJXZ 1000f5d0 f i CoinAcceptor.obj
 0001:0000e660       ?ClearReplacements@CRegObject@ATL@@UAGJXZ 1000f660 f i CoinAcceptor.obj
 0001:0000e6b0       ?Clone@?$CComEnumImpl@UIEnumConnectionPoints@@$1?_GUID_b196b285_bab4_101a_b69c_00aa00341d07@@3U__s_GUID@@BPAUIConnectionPoint@@V?$_CopyInterface@UIConnectionPoint@@@ATL@@@ATL@@UAGJPAPAUIEnumConnectionPoints@@@Z 1000f6b0 f i CoinAcceptor.obj
 0001:0000e830       ?Clone@?$CComEnumImpl@UIEnumConnections@@$1?_GUID_b196b287_bab4_101a_b69c_00aa00341d07@@3U__s_GUID@@BUtagCONNECTDATA@@V?$_Copy@UtagCONNECTDATA@@@ATL@@@ATL@@UAGJPAPAUIEnumConnections@@@Z 1000f830 f i CoinAcceptor.obj
 0001:0000e9b0       ?Close@?$IOleObjectImpl@VCOPOSCoinAcceptor@@@ATL@@UAGJK@Z 1000f9b0 f i CoinAcceptor.obj
 0001:0000ea40       ?Close@CRegKey@ATL@@QAEJXZ 1000fa40 f i CoinAcceptor.obj
 0001:0000eab0       ?ContextSensitiveHelp@?$IOleInPlaceActiveObjectImpl@VCOPOSCoinAcceptor@@@ATL@@UAGJH@Z 1000fab0 f i CoinAcceptor.obj
 0001:0000eb20       ?ContextSensitiveHelp@?$IOleInPlaceObjectWindowlessImpl@VCOPOSCoinAcceptor@@@ATL@@UAGJH@Z 1000fb20 f i CoinAcceptor.obj
 0001:0000eb90       ?ControlQueryInterface@?$CComControl@VCOPOSCoinAcceptor@@V?$CWindowImpl@VCOPOSCoinAcceptor@@VCWindow@ATL@@V?$CWinTraits@$0FGAAAAAA@$0A@@3@@ATL@@@ATL@@UAEJABU_GUID@@PAPAX@Z 1000fb90 f i CoinAcceptor.obj
 0001:0000ec10       ?CreateControlWindow@?$CComControl@VCOPOSCoinAcceptor@@V?$CWindowImpl@VCOPOSCoinAcceptor@@VCWindow@ATL@@V?$CWinTraits@$0FGAAAAAA@$0A@@3@@ATL@@@ATL@@UAEPAUHWND__@@PAU3@AAUtagRECT@@@Z 1000fc10 f i CoinAcceptor.obj
 0001:0000ec90       ?CreateInstance@?$CComCreator@V?$CComAggObject@VCOPOSCoinAcceptor@@@ATL@@@ATL@@SGJPAXABU_GUID@@PAPAX@Z 1000fc90 f i CoinAcceptor.obj
 0001:0000ee20       ?CreateInstance@?$CComCreator@V?$CComObject@VCOPOSCoinAcceptor@@@ATL@@@ATL@@SGJPAXABU_GUID@@PAPAX@Z 1000fe20 f i CoinAcceptor.obj
 0001:0000efb0       ?CreateInstance@?$CComObject@V?$CComEnum@UIEnumConnectionPoints@@$1?_GUID_b196b285_bab4_101a_b69c_00aa00341d07@@3U__s_GUID@@BPAUIConnectionPoint@@V?$_CopyInterface@UIConnectionPoint@@@ATL@@VCComSingleThreadModel@6@@ATL@@@ATL@@SGJPAPAV12@@Z 1000ffb0 f i CoinAcceptor.obj
 0001:0000f120       ?CreateInstance@?$CComObject@V?$CComEnum@UIEnumConnections@@$1?_GUID_b196b287_bab4_101a_b69c_00aa00341d07@@3U__s_GUID@@BUtagCONNECTDATA@@V?$_Copy@UtagCONNECTDATA@@@ATL@@VCComSingleThreadModel@6@@ATL@@@ATL@@SGJPAPAV12@@Z 10010120 f i CoinAcceptor.obj
 0001:0000f290       ?CreateInstance@CComClassFactory@ATL@@UAGJPAUIUnknown@@ABU_GUID@@PAPAX@Z 10010290 f i CoinAcceptor.obj
 0001:0000f380       ?DAdvise@?$IDataObjectImpl@VCOPOSCoinAcceptor@@@ATL@@UAGJPAUtagFORMATETC@@KPAUIAdviseSink@@PAK@Z 10010380 f i CoinAcceptor.obj
 0001:0000f480       ?DEVMODEOLE2T_EX@@YAPAU_devicemodeW@@PAU1@@Z 10010480 f i CoinAcceptor.obj
 0001:0000f490       ?DUnadvise@?$IDataObjectImpl@VCOPOSCoinAcceptor@@@ATL@@UAGJK@Z 10010490 f i CoinAcceptor.obj
 0001:0000f560       ?Decrement@CComMultiThreadModel@ATL@@SGKPAJ@Z 10010560 f i CoinAcceptor.obj
 0001:0000f580       ?Decrement@CComSingleThreadModel@ATL@@SGKPAJ@Z 10010580 f i CoinAcceptor.obj
 0001:0000f5a0       ?DefWindowProcW@?$CWindowImplBaseT@VCWindow@ATL@@V?$CWinTraits@$0FGAAAAAA@$0A@@2@@ATL@@QAEJIIJ@Z 100105a0 f i CoinAcceptor.obj
 0001:0000f5f0       ?DefaultReflectionHandler@?$CWindowImplRoot@VCWindow@ATL@@@ATL@@SAHPAUHWND__@@IIJAAJ@Z 100105f0 f i CoinAcceptor.obj
 0001:0000f7e0       ?DeleteSubKey@CRegKey@ATL@@QAEJPB_W@Z 100107e0 f i CoinAcceptor.obj
 0001:0000f8f0       ?DeleteValue@CRegKey@ATL@@QAEJPB_W@Z 100108f0 f i CoinAcceptor.obj
 0001:0000f960       ?Detach@?$CAutoVectorPtr@_W@ATL@@QAEPA_WXZ 10010960 f i CoinAcceptor.obj
 0001:0000f990       ?Detach@?$CComPtrBase@UIPersistStream@@@ATL@@QAEPAUIPersistStream@@XZ 10010990 f i CoinAcceptor.obj
 0001:0000f9c0       ?Detach@?$CComPtrBase@UITypeInfo@@@ATL@@QAEPAUITypeInfo@@XZ 100109c0 f i CoinAcceptor.obj
 0001:0000f9f0       ?Detach@?$CComPtrBase@UIUnknown@@@ATL@@QAEPAUIUnknown@@XZ 100109f0 f i CoinAcceptor.obj
 0001:0000fa20       ?Detach@CComBSTR@ATL@@QAEPA_WXZ 10010a20 f i CoinAcceptor.obj
 0001:0000fa50       ?Detach@CParseBuffer@CRegParser@ATL@@QAEPA_WXZ 10010a50 f i CoinAcceptor.obj
 0001:0000faa0       ?Detach@CRegKey@ATL@@QAEPAUHKEY__@@XZ 10010aa0 f i CoinAcceptor.obj
 0001:0000faf0       ?DoEvent@COPOSCoinAcceptor@@IAEXIIJ@Z 10010af0 f i CoinAcceptor.obj
 0001:0000fc30       ?DoVerb@?$IOleObjectImpl@VCOPOSCoinAcceptor@@@ATL@@UAGJJPAUtagMSG@@PAUIOleClientSite@@JPAUHWND__@@PBUtagRECT@@@Z 10010c30 f i CoinAcceptor.obj
 0001:0000fe40       ?DoVerbDiscardUndo@?$IOleObjectImpl@VCOPOSCoinAcceptor@@@ATL@@QAEJPBUtagRECT@@PAUHWND__@@@Z 10010e40 f i CoinAcceptor.obj
 0001:0000feb0       ?DoVerbHide@?$IOleObjectImpl@VCOPOSCoinAcceptor@@@ATL@@QAEJPBUtagRECT@@PAUHWND__@@@Z 10010eb0 f i CoinAcceptor.obj
 0001:0000ff60       ?DoVerbInPlaceActivate@?$IOleObjectImpl@VCOPOSCoinAcceptor@@@ATL@@QAEJPBUtagRECT@@PAUHWND__@@@Z 10010f60 f i CoinAcceptor.obj
 0001:00010000       ?DoVerbOpen@?$IOleObjectImpl@VCOPOSCoinAcceptor@@@ATL@@QAEJPBUtagRECT@@PAUHWND__@@@Z 10011000 f i CoinAcceptor.obj
 0001:00010070       ?DoVerbPrimary@?$IOleObjectImpl@VCOPOSCoinAcceptor@@@ATL@@QAEJPBUtagRECT@@PAUHWND__@@@Z 10011070 f i CoinAcceptor.obj
 0001:00010180       ?DoVerbProperties@CComControlBase@ATL@@QAEJPBUtagRECT@@PAUHWND__@@@Z 10011180 f i CoinAcceptor.obj
 0001:000104a0       ?DoVerbShow@?$IOleObjectImpl@VCOPOSCoinAcceptor@@@ATL@@QAEJPBUtagRECT@@PAUHWND__@@@Z 100114a0 f i CoinAcceptor.obj
 0001:00010530       ?DoVerbUIActivate@?$IOleObjectImpl@VCOPOSCoinAcceptor@@@ATL@@QAEJPBUtagRECT@@PAUHWND__@@@Z 10011530 f i CoinAcceptor.obj
 0001:000105d0       ?DoesVerbActivate@CComControlBase@ATL@@QAEHJ@Z 100115d0 f i CoinAcceptor.obj
 0001:00010640       ?DoesVerbUIActivate@CComControlBase@ATL@@QAEHJ@Z 10011640 f i CoinAcceptor.obj
 0001:000106c0       ?Draw@?$IViewObjectExImpl@VCOPOSCoinAcceptor@@@ATL@@UAGJKJPAXPAUtagDVTARGETDEVICE@@PAUHDC__@@2PBU_RECTL@@3P6GHK@ZK@Z 100116c0 f i CoinAcceptor.obj
 0001:00010760       ?Empty@CComBSTR@ATL@@QAEXXZ 10011760 f i CoinAcceptor.obj
 0001:000107a0       ?EnableModeless@?$IOleInPlaceActiveObjectImpl@VCOPOSCoinAcceptor@@@ATL@@UAGJH@Z 100117a0 f i CoinAcceptor.obj
 0001:00010800       ?EndOfVar@CRegParser@ATL@@IAEHXZ 10011800 f i CoinAcceptor.obj
 0001:00010870       ?EnsureTI@CComTypeInfoHolder@ATL@@QAEJK@Z 10011870 f i CoinAcceptor.obj
 0001:000108d0       ?EnumAdvise@?$IOleObjectImpl@VCOPOSCoinAcceptor@@@ATL@@UAGJPAPAUIEnumSTATDATA@@@Z 100118d0 f i CoinAcceptor.obj
 0001:000109e0       ?EnumConnectionPoints@?$IConnectionPointContainerImpl@VCOPOSCoinAcceptor@@@ATL@@UAGJPAPAUIEnumConnectionPoints@@@Z 100119e0 f i CoinAcceptor.obj
 0001:00010e40       ?EnumConnections@?$IConnectionPointImpl@VCOPOSCoinAcceptor@@$1?DIID__IOPOSCoinAcceptorEvents@@3U_GUID@@BVCComDynamicUnkArray@ATL@@@ATL@@UAGJPAPAUIEnumConnections@@@Z 10011e40 f i CoinAcceptor.obj
 0001:00011090       ?EnumConnections@?$IConnectionPointImpl@VCOPOSCoinAcceptor@@$1?IID_IPropertyNotifySink@@3U_GUID@@BVCComDynamicUnkArray@ATL@@@ATL@@UAGJPAPAUIEnumConnections@@@Z 10012090 f i CoinAcceptor.obj
 0001:000112e0       ?EnumDAdvise@?$IDataObjectImpl@VCOPOSCoinAcceptor@@@ATL@@UAGJPAPAUIEnumSTATDATA@@@Z 100122e0 f i CoinAcceptor.obj
 0001:000113e0       ?EnumFormatEtc@?$IDataObjectImpl@VCOPOSCoinAcceptor@@@ATL@@UAGJKPAPAUIEnumFORMATETC@@@Z 100123e0 f i CoinAcceptor.obj
 0001:00011450       ?EnumVerbs@?$IOleObjectImpl@VCOPOSCoinAcceptor@@@ATL@@UAGJPAPAUIEnumOLEVERB@@@Z 10012450 f i CoinAcceptor.obj
 0001:00011500       ?EscapeSingleQuote@CAtlModule@ATL@@SAXPA_WIPB_W@Z 10012500 f i CoinAcceptor.obj
 0001:000115b0       ?ExtractCreateWndData@CAtlWinModule@ATL@@QAEPAXXZ 100125b0 f i CoinAcceptor.obj
 0001:000115e0       ?FAccessAllowed@?$IObjectSafetyImpl@VCOPOSCoinAcceptor@@$02@ATL@@MAEHXZ 100125e0 f i CoinAcceptor.obj
 0001:00011600       ?FinalConstruct@?$CComAggObject@VCOPOSCoinAcceptor@@@ATL@@QAEJXZ 10012600 f i CoinAcceptor.obj
 0001:00011640       ?FinalConstruct@CComObjectRootBase@ATL@@QAEJXZ 10012640 f i CoinAcceptor.obj
 0001:00011660       ?FinalConstruct@CRegObject@ATL@@QAEJXZ 10012660 f i CoinAcceptor.obj
 0001:00011690       ?FinalRelease@?$CComAggObject@VCOPOSCoinAcceptor@@@ATL@@QAEXXZ 10012690 f i CoinAcceptor.obj
 0001:000116d0       ?FinalRelease@CComObjectRootBase@ATL@@QAEXXZ 100126d0 f i CoinAcceptor.obj
 0001:000116f0       ?FindConnectionPoint@?$IConnectionPointContainerImpl@VCOPOSCoinAcceptor@@@ATL@@UAGJABU_GUID@@PAPAUIConnectionPoint@@@Z 100126f0 f i CoinAcceptor.obj
 0001:00011840       ?FindKey@?$CSimpleMap@PA_WPA_WVCExpansionVectorEqualHelper@ATL@@@ATL@@QBEHABQA_W@Z 10012840 f i CoinAcceptor.obj
 0001:000118b0       ?FireTheEvent@?$CProxy_IOPOSEvents@VCOPOSCoinAcceptor@@@@IAEXPAUIUnknown@@PAVOposVariant@@IAAJPB_WJ@Z 100128b0 f i CoinAcceptor.obj
 0001:00011a20       ?FireViewChange@CComControlBase@ATL@@QAEJXZ 10012a20 f i CoinAcceptor.obj
 0001:00011ae0       ?Fire_DataEvent@?$CProxy_IOPOSEvents@VCOPOSCoinAcceptor@@@@QAEXJ@Z 10012ae0 f i CoinAcceptor.obj
 0001:00011c40       ?Fire_DirectIOEvent@?$CProxy_IOPOSEvents@VCOPOSCoinAcceptor@@@@QAEXJPAJPAPA_W@Z 10012c40 f i CoinAcceptor.obj
 0001:00011e10       ?Fire_StatusUpdateEvent@?$CProxy_IOPOSEvents@VCOPOSCoinAcceptor@@@@QAEXJ@Z 10012e10 f i CoinAcceptor.obj
 0001:00011f70       ?FormatWindowClassName@AtlModuleRegisterWndClassInfoParamW@ATL@@SAXPA_WKPAX@Z 10012f70 f i CoinAcceptor.obj
 0001:00011fa0       ?Free@?$CAutoVectorPtr@_W@ATL@@QAEXXZ 10012fa0 f i CoinAcceptor.obj
 0001:00011ff0       ?FreeHeap@?$CTempBuffer@E$0BAA@VCCRTAllocator@ATL@@@ATL@@AAEXXZ 10012ff0 f i CoinAcceptor.obj
 0001:00012020       ?FreeHeap@?$CTempBuffer@_W$0BAA@VCCRTAllocator@ATL@@@ATL@@AAEXXZ 10013020 f i CoinAcceptor.obj
 0001:00012050       ?FreeHeap@?$CTempBuffer@_W$0EAA@VCCRTAllocator@ATL@@@ATL@@AAEXXZ 10013050 f i CoinAcceptor.obj
 0001:00012080       ?Freeze@?$IViewObjectExImpl@VCOPOSCoinAcceptor@@@ATL@@UAGJKJPAXPAK@Z 10013080 f i CoinAcceptor.obj
 0001:000120f0       ?GenerateError@CRegParser@ATL@@IAEJI@Z 100130f0 f i CoinAcceptor.obj
 0001:00012110       ?GetAdvise@?$IViewObjectExImpl@VCOPOSCoinAcceptor@@@ATL@@UAGJPAK0PAPAUIAdviseSink@@@Z 10013110 f i CoinAcceptor.obj
 0001:00012210       ?GetAmbientLocaleID@CComControlBase@ATL@@QAEJAAK@Z 10013210 f i CoinAcceptor.obj
 0001:000122f0       ?GetAmbientProperty@CComControlBase@ATL@@QAEJJAAUtagVARIANT@@@Z 100132f0 f i CoinAcceptor.obj
 0001:00012340       ?GetAmbientUserMode@CComControlBase@ATL@@QAEJAAH@Z 10013340 f i CoinAcceptor.obj
 0001:00012440       ?GetAppId@?$CAtlModuleT@VCComModule@ATL@@@ATL@@SAPB_WXZ 10013440 f i CoinAcceptor.obj
 0001:00012450       ?GetAt@CComDynamicUnkArray@ATL@@QAEPAUIUnknown@@H@Z 10013450 f i CoinAcceptor.obj
 0001:000124d0       ?GetCanonicalFormatEtc@?$IDataObjectImpl@VCOPOSCoinAcceptor@@@ATL@@UAGJPAUtagFORMATETC@@0@Z 100134d0 f i CoinAcceptor.obj
 0001:00012540       ?GetClassID@?$IPersistStorageImpl@VCOPOSCoinAcceptor@@@ATL@@UAGJPAU_GUID@@@Z 10013540 f i CoinAcceptor.obj
 0001:000125c0       ?GetClassID@?$IPersistStreamInitImpl@VCOPOSCoinAcceptor@@@ATL@@UAGJPAU_GUID@@@Z 100135c0 f i CoinAcceptor.obj
 0001:00012640       ?GetClassInfoExW@AtlModuleRegisterWndClassInfoParamW@ATL@@SAHPAUHINSTANCE__@@PB_WPAUtagWNDCLASSEXW@@@Z 10013640 f i CoinAcceptor.obj
 0001:00012670       ?GetClassInfoW@?$IProvideClassInfo2Impl@$1?CLSID_OPOSCoinAcceptor@@3U_GUID@@B$1?DIID__IOPOSCoinAcceptorEvents@@3U2@B$1?LIBID_OposCoinAcceptor_CCO@@3U2@B$00$0A@VCComTypeInfoHolder@ATL@@@ATL@@UAGJPAPAUITypeInfo@@@Z 10013670 f i CoinAcceptor.obj
 0001:00012690       ?GetClassObject@CComModule@ATL@@QAEJABU_GUID@@0PAPAX@Z 10013690 f i CoinAcceptor.obj
 0001:00012890       ?GetClientSite@?$IOleObjectImpl@VCOPOSCoinAcceptor@@@ATL@@UAGJPAPAUIOleClientSite@@@Z 10013890 f i CoinAcceptor.obj
 0001:00012920       ?GetClipboardData@?$IOleObjectImpl@VCOPOSCoinAcceptor@@@ATL@@UAGJKPAPAUIDataObject@@@Z 10013920 f i CoinAcceptor.obj
 0001:00012990       ?GetCodeAddress@CDynamicStdCallThunk2@ATL@@QAEPAXXZ 10013990 f i CoinAcceptor.obj
 0001:000129c0       ?GetColorSet@?$IViewObjectExImpl@VCOPOSCoinAcceptor@@@ATL@@UAGJKJPAXPAUtagDVTARGETDEVICE@@PAUHDC__@@PAPAUtagLOGPALETTE@@@Z 100139c0 f i CoinAcceptor.obj
 0001:00012a30       ?GetConnMap@COPOSCoinAcceptor@@SAPBU_ATL_CONNMAP_ENTRY@ATL@@PAH@Z 10013a30 f i CoinAcceptor.obj
 0001:00012b70       ?GetConnectionInterface@?$IConnectionPointImpl@VCOPOSCoinAcceptor@@$1?DIID__IOPOSCoinAcceptorEvents@@3U_GUID@@BVCComDynamicUnkArray@ATL@@@ATL@@UAGJPAU_GUID@@@Z 10013b70 f i CoinAcceptor.obj
 0001:00012bb0       ?GetConnectionInterface@?$IConnectionPointImpl@VCOPOSCoinAcceptor@@$1?IID_IPropertyNotifySink@@3U_GUID@@BVCComDynamicUnkArray@ATL@@@ATL@@UAGJPAU_GUID@@@Z 10013bb0 f i CoinAcceptor.obj
 0001:00012bf0       ?GetConnectionPointContainer@?$IConnectionPointImpl@VCOPOSCoinAcceptor@@$1?DIID__IOPOSCoinAcceptorEvents@@3U_GUID@@BVCComDynamicUnkArray@ATL@@@ATL@@UAGJPAPAUIConnectionPointContainer@@@Z 10013bf0 f i CoinAcceptor.obj
 0001:00012c60       ?GetConnectionPointContainer@?$IConnectionPointImpl@VCOPOSCoinAcceptor@@$1?IID_IPropertyNotifySink@@3U_GUID@@BVCComDynamicUnkArray@ATL@@@ATL@@UAGJPAPAUIConnectionPointContainer@@@Z 10013c60 f i CoinAcceptor.obj
 0001:00012cd0       ?GetContentExtent@?$IQuickActivateImpl@VCOPOSCoinAcceptor@@@ATL@@UAGJPAUtagSIZE@@@Z 10013cd0 f i CoinAcceptor.obj
 0001:00012d60       ?GetControlInfo@?$IOleControlImpl@VCOPOSCoinAcceptor@@@ATL@@UAGJPAUtagCONTROLINFO@@@Z 10013d60 f i CoinAcceptor.obj
 0001:00012dd0       ?GetCookie@CComDynamicUnkArray@ATL@@QAGKPAPAUIUnknown@@@Z 10013dd0 f i CoinAcceptor.obj
 0001:00012e90       ?GetData@?$IDataObjectImpl@VCOPOSCoinAcceptor@@@ATL@@UAGJPAUtagFORMATETC@@PAUtagSTGMEDIUM@@@Z 10013e90 f i CoinAcceptor.obj
 0001:00012f20       ?GetData@CAtlSafeAllocBufferNode@?$CAtlSafeAllocBufferManager@VCCRTAllocator@ATL@@@_ATL_SAFE_ALLOCA_IMPL@ATL@@QAEPAXXZ 10013f20 f i CoinAcceptor.obj
 0001:00012f40       ?GetDataHere@?$IDataObjectImpl@VCOPOSCoinAcceptor@@@ATL@@UAGJPAUtagFORMATETC@@PAUtagSTGMEDIUM@@@Z 10013f40 f i CoinAcceptor.obj
 0001:00012fb0       ?GetDropTarget@?$IOleInPlaceObjectWindowlessImpl@VCOPOSCoinAcceptor@@@ATL@@UAGJPAPAUIDropTarget@@@Z 10013fb0 f i CoinAcceptor.obj
 0001:00013020       ?GetExtent@?$IOleObjectImpl@VCOPOSCoinAcceptor@@@ATL@@UAGJKPAUtagSIZE@@@Z 10014020 f i CoinAcceptor.obj
 0001:000130c0       ?GetExtent@?$IViewObjectExImpl@VCOPOSCoinAcceptor@@@ATL@@UAGJKJPAUtagDVTARGETDEVICE@@PAUtagSIZE@@@Z 100140c0 f i CoinAcceptor.obj
 0001:00013190       ?GetGITPtr@CAtlModule@ATL@@UAEJPAPAUIGlobalInterfaceTable@@@Z 10014190 f i CoinAcceptor.obj
 0001:00013290       ?GetGUID@?$IProvideClassInfo2Impl@$1?CLSID_OPOSCoinAcceptor@@3U_GUID@@B$1?DIID__IOPOSCoinAcceptorEvents@@3U2@B$1?LIBID_OposCoinAcceptor_CCO@@3U2@B$00$0A@VCComTypeInfoHolder@ATL@@@ATL@@UAGJKPAU_GUID@@@Z 10014290 f i CoinAcceptor.obj
 0001:00013310       ?GetIDsOfNames@?$IDispatchImpl@UIOPOSCoinAcceptor@@$1?IID_IOPOSCoinAcceptor@@3U_GUID@@B$1?LIBID_OposCoinAcceptor_CCO@@3U3@B$00$0A@VCComTypeInfoHolder@ATL@@@ATL@@UAGJABU_GUID@@PAPA_WIKPAJ@Z 10014310 f i CoinAcceptor.obj
 0001:00013340       ?GetIDsOfNames@CComTypeInfoHolder@ATL@@QAEJABU_GUID@@PAPA_WIKPAJ@Z 10014340 f i CoinAcceptor.obj
 0001:000134f0       ?GetInterfaceSafetyOptions@?$IObjectSafetyImpl@VCOPOSCoinAcceptor@@$02@ATL@@UAGJABU_GUID@@PAK1@Z 100144f0 f i CoinAcceptor.obj
 0001:00013660       ?GetKeyAt@?$CSimpleMap@PA_WPA_WVCExpansionVectorEqualHelper@ATL@@@ATL@@QBEAAPA_WH@Z 10014660 f i CoinAcceptor.obj
 0001:000136e0       ?GetLockCount@CAtlModule@ATL@@UAEJXZ 100146e0 f i CoinAcceptor.obj
 0001:00013700       ?GetMiscStatus@?$IOleObjectImpl@VCOPOSCoinAcceptor@@@ATL@@UAGJKPAK@Z 10014700 f i CoinAcceptor.obj
 0001:00013770       ?GetMoniker@?$IOleObjectImpl@VCOPOSCoinAcceptor@@@ATL@@UAGJKKPAPAUIMoniker@@@Z 10014770 f i CoinAcceptor.obj
 0001:000137e0       ?GetNaturalExtent@?$IViewObjectExImpl@VCOPOSCoinAcceptor@@@ATL@@UAGJKJPAUtagDVTARGETDEVICE@@PAUHDC__@@PAUtagExtentInfo@@PAUtagSIZE@@@Z 100147e0 f i CoinAcceptor.obj
 0001:00013900       ?GetObjectCLSID@?$CComCoClass@VCOPOSCoinAcceptor@@$1?CLSID_OPOSCoinAcceptor@@3U_GUID@@B@ATL@@SGABU_GUID@@XZ 10014900 f i CoinAcceptor.obj
 0001:00013910       ?GetPages@?$ISpecifyPropertyPagesImpl@VCOPOSCoinAcceptor@@@ATL@@UAGJPAUtagCAUUID@@@Z 10014910 f i CoinAcceptor.obj
 0001:00013980       ?GetPagesHelper@?$ISpecifyPropertyPagesImpl@VCOPOSCoinAcceptor@@@ATL@@IAEJPAUtagCAUUID@@PBUATL_PROPMAP_ENTRY@2@@Z 10014980 f i CoinAcceptor.obj
 0001:00013b80       ?GetProperty@?$CComPtr@UIDispatch@@@ATL@@QAEJJPAUtagVARIANT@@@Z 10014b80 f i CoinAcceptor.obj
 0001:00013bc0       ?GetProperty@?$CComPtr@UIDispatch@@@ATL@@SAJPAUIDispatch@@JPAUtagVARIANT@@@Z 10014bc0 f i CoinAcceptor.obj
 0001:00013d20       ?GetPropertyMap@COPOSCoinAcceptor@@SAPBUATL_PROPMAP_ENTRY@ATL@@XZ 10014d20 f i CoinAcceptor.obj
 0001:00013d30       ?GetRect@?$IViewObjectExImpl@VCOPOSCoinAcceptor@@@ATL@@UAGJKPAU_RECTL@@@Z 10014d30 f i CoinAcceptor.obj
 0001:00013da0       ?GetSize@?$CSimpleMap@PA_WPA_WVCExpansionVectorEqualHelper@ATL@@@ATL@@QBEHXZ 10014da0 f i CoinAcceptor.obj
 0001:00013dc0       ?GetSize@CComDynamicUnkArray@ATL@@QBEHXZ 10014dc0 f i CoinAcceptor.obj
 0001:00013de0       ?GetSizeMax@?$IPersistStreamInitImpl@VCOPOSCoinAcceptor@@@ATL@@UAGJPAT_ULARGE_INTEGER@@@Z 10014de0 f i CoinAcceptor.obj
 0001:00014350       ?GetSizeMax@CComVariant@ATL@@QBEJPAT_ULARGE_INTEGER@@@Z 10015350 f i CoinAcceptor.obj
 0001:000146b0       ?GetStreamSize@CComBSTR@ATL@@SAKPA_W@Z 100156b0 f i CoinAcceptor.obj
 0001:00014700       ?GetTI@CComTypeInfoHolder@ATL@@QAEJK@Z 10015700 f i CoinAcceptor.obj
 0001:00014f10       ?GetTI@CComTypeInfoHolder@ATL@@QAEJKPAPAUITypeInfo@@@Z 10015f10 f i CoinAcceptor.obj
 0001:00014fd0       ?GetTypeInfo@?$IDispatchImpl@UIOPOSCoinAcceptor@@$1?IID_IOPOSCoinAcceptor@@3U_GUID@@B$1?LIBID_OposCoinAcceptor_CCO@@3U3@B$00$0A@VCComTypeInfoHolder@ATL@@@ATL@@UAGJIKPAPAUITypeInfo@@@Z 10015fd0 f i CoinAcceptor.obj
 0001:00015000       ?GetTypeInfo@CComTypeInfoHolder@ATL@@QAEJIKPAPAUITypeInfo@@@Z 10016000 f i CoinAcceptor.obj
 0001:00015040       ?GetTypeInfoCount@?$IDispatchImpl@UIOPOSCoinAcceptor@@$1?IID_IOPOSCoinAcceptor@@3U_GUID@@B$1?LIBID_OposCoinAcceptor_CCO@@3U3@B$00$0A@VCComTypeInfoHolder@ATL@@@ATL@@UAGJPAI@Z 10016040 f i CoinAcceptor.obj
 0001:00015060       ?GetUnknown@CComDynamicUnkArray@ATL@@QAGPAUIUnknown@@K@Z 10016060 f i CoinAcceptor.obj
 0001:000150d0       ?GetUnknown@COPOSCoinAcceptor@@QAEPAUIUnknown@@XZ 100160d0 f i CoinAcceptor.obj
 0001:00015100       ?GetUserClassID@?$IOleObjectImpl@VCOPOSCoinAcceptor@@@ATL@@UAGJPAU_GUID@@@Z 10016100 f i CoinAcceptor.obj
 0001:000151b0       ?GetUserType@?$IOleObjectImpl@VCOPOSCoinAcceptor@@@ATL@@UAGJKPAPA_W@Z 100161b0 f i CoinAcceptor.obj
 0001:00015220       ?GetValueAt@?$CSimpleMap@PA_WPA_WVCExpansionVectorEqualHelper@ATL@@@ATL@@QBEAAPA_WH@Z 10016220 f i CoinAcceptor.obj
 0001:000152a0       ?GetViewStatus@?$IViewObjectExImpl@VCOPOSCoinAcceptor@@@ATL@@UAGJPAK@Z 100162a0 f i CoinAcceptor.obj
 0001:00015360       ?GetWNDPROC@CWndProcThunk@ATL@@QAEP6GJPAUHWND__@@IIJ@ZXZ 10016360 f i CoinAcceptor.obj
 0001:00015390       ?GetWindow@?$IOleInPlaceActiveObjectImpl@VCOPOSCoinAcceptor@@@ATL@@UAGJPAPAUHWND__@@@Z 10016390 f i CoinAcceptor.obj
 0001:00015460       ?GetWindow@?$IOleInPlaceObjectWindowlessImpl@VCOPOSCoinAcceptor@@@ATL@@UAGJPAPAUHWND__@@@Z 10016460 f i CoinAcceptor.obj
 0001:00015530       ?GetWindowLongPtrW@@YAJPAUHWND__@@H@Z 10016530 f i CoinAcceptor.obj
 0001:00015560       ?GetWindowProc@?$CWindowImplBaseT@VCWindow@ATL@@V?$CWinTraits@$0FGAAAAAA@$0A@@2@@ATL@@UAEP6GJPAUHWND__@@IIJ@ZXZ 10016560 f i CoinAcceptor.obj
 0001:00015580       ?GetWndCaption@?$CWindowImpl@VCOPOSCoinAcceptor@@VCWindow@ATL@@V?$CWinTraits@$0FGAAAAAA@$0A@@3@@ATL@@SAPB_WXZ 10016580 f i CoinAcceptor.obj
 0001:00015590       ?GetWndClassInfo@?$CWindowImpl@VCOPOSCoinAcceptor@@VCWindow@ATL@@V?$CWinTraits@$0FGAAAAAA@$0A@@3@@ATL@@SAAAU_ATL_WNDCLASSINFOW@2@XZ 10016590 f i CoinAcceptor.obj
 0001:000155a0       ?GetWndClassName@CWindow@ATL@@SAPB_WXZ 100165a0 f i CoinAcceptor.obj
 0001:000155b0       ?GetWndExStyle@?$CWinTraits@$0FGAAAAAA@$0A@@ATL@@SAKK@Z 100165b0 f i CoinAcceptor.obj
 0001:000155e0       ?GetWndExStyle@?$CWindowImplBaseT@VCWindow@ATL@@V?$CWinTraits@$0FGAAAAAA@$0A@@2@@ATL@@SAKK@Z 100165e0 f i CoinAcceptor.obj
 0001:00015600       ?GetWndStyle@?$CWinTraits@$0FGAAAAAA@$0A@@ATL@@SAKK@Z 10016600 f i CoinAcceptor.obj
 0001:00015630       ?GetWndStyle@?$CWindowImplBaseT@VCWindow@ATL@@V?$CWinTraits@$0FGAAAAAA@$0A@@2@@ATL@@SAKK@Z 10016630 f i CoinAcceptor.obj
 0001:00015650       ?GetZoomInfo@CComControlBase@ATL@@QAEXAAUATL_DRAWINFO@@@Z 10016650 f i CoinAcceptor.obj
 0001:000157c0       ?HKeyFromString@CRegParser@ATL@@KAPAUHKEY__@@PA_W@Z 100167c0 f i CoinAcceptor.obj
 0001:00015830       ?HandsOffStorage@?$IPersistStorageImpl@VCOPOSCoinAcceptor@@@ATL@@UAGJXZ 10016830 f i CoinAcceptor.obj
 0001:00015890       ?HasSubKeys@CRegParser@ATL@@IAEHPAUHKEY__@@@Z 10016890 f i CoinAcceptor.obj
 0001:000159a0       ?IDataObject_GetData@CComControlBase@ATL@@QAEJPAUtagFORMATETC@@PAUtagSTGMEDIUM@@@Z 100169a0 f i CoinAcceptor.obj
 0001:00015dc0       ?IOleInPlaceObject_InPlaceDeactivate@CComControlBase@ATL@@QAEJXZ 10016dc0 f i CoinAcceptor.obj
 0001:00015fc0       ?IOleInPlaceObject_SetObjectRects@CComControlBase@ATL@@QAEJPBUtagRECT@@0@Z 10016fc0 f i CoinAcceptor.obj
 0001:00016180       ?IOleInPlaceObject_UIDeactivate@CComControlBase@ATL@@QAEJXZ 10017180 f i CoinAcceptor.obj
 0001:000163f0       ?IOleObject_Advise@CComControlBase@ATL@@QAEJPAUIAdviseSink@@PAK@Z 100173f0 f i CoinAcceptor.obj
 0001:000164a0       ?IOleObject_Close@CComControlBase@ATL@@QAEJK@Z 100174a0 f i CoinAcceptor.obj
 0001:00016750       ?IOleObject_GetClientSite@CComControlBase@ATL@@QAEJPAPAUIOleClientSite@@@Z 10017750 f i CoinAcceptor.obj
 0001:000167f0       ?IOleObject_SetClientSite@CComControlBase@ATL@@QAEJPAUIOleClientSite@@@Z 100177f0 f i CoinAcceptor.obj
 0001:000168c0       ?IOleObject_SetExtent@CComControlBase@ATL@@QAEJKPAUtagSIZE@@@Z 100178c0 f i CoinAcceptor.obj
 0001:00016a00       ?IPSI_GetIPersistStreamInit@?$IPersistStorageImpl@VCOPOSCoinAcceptor@@@ATL@@AAEPAUIPersistStreamInit@@XZ 10017a00 f i CoinAcceptor.obj
 0001:00016ad0       ?IPersistStreamInit_Load@?$IPersistStreamInitImpl@VCOPOSCoinAcceptor@@@ATL@@QAEJPAUIStream@@PBUATL_PROPMAP_ENTRY@2@@Z 10017ad0 f i CoinAcceptor.obj
 0001:00016b50       ?IPersistStreamInit_Save@?$IPersistStreamInitImpl@VCOPOSCoinAcceptor@@@ATL@@QAEJPAUIStream@@HPBUATL_PROPMAP_ENTRY@2@@Z 10017b50 f i CoinAcceptor.obj
 0001:00016be0       ?IQuickActivate_QuickActivate@CComControlBase@ATL@@QAEJPAUtagQACONTAINER@@PAUtagQACONTROL@@@Z 10017be0 f i CoinAcceptor.obj
 0001:00017230       ?IViewObject_Draw@CComControlBase@ATL@@QAEJKJPAXPAUtagDVTARGETDEVICE@@PAUHDC__@@2PBU_RECTL@@3@Z 10018230 f i CoinAcceptor.obj
 0001:000174d0       ?InPlaceActivate@CComControlBase@ATL@@QAEJJPBUtagRECT@@@Z 100184d0 f i CoinAcceptor.obj
 0001:00017e60       ?InPlaceDeactivate@?$IOleInPlaceObjectWindowlessImpl@VCOPOSCoinAcceptor@@@ATL@@UAGJXZ 10018e60 f i CoinAcceptor.obj
 0001:00017ee0       ?Increment@CComMultiThreadModel@ATL@@SGKPAJ@Z 10018ee0 f i CoinAcceptor.obj
 0001:00017f00       ?Increment@CComSingleThreadModel@ATL@@SGKPAJ@Z 10018f00 f i CoinAcceptor.obj
 0001:00017f20       ?Init@?$CComEnumImpl@UIEnumConnectionPoints@@$1?_GUID_b196b285_bab4_101a_b69c_00aa00341d07@@3U__s_GUID@@BPAUIConnectionPoint@@V?$_CopyInterface@UIConnectionPoint@@@ATL@@@ATL@@QAEJPAPAUIConnectionPoint@@0PAUIUnknown@@W4CComEnumFlags@2@@Z 10018f20 f i CoinAcceptor.obj
 0001:00018100       ?Init@?$CComEnumImpl@UIEnumConnections@@$1?_GUID_b196b287_bab4_101a_b69c_00aa00341d07@@3U__s_GUID@@BUtagCONNECTDATA@@V?$_Copy@UtagCONNECTDATA@@@ATL@@@ATL@@QAEJPAUtagCONNECTDATA@@0PAUIUnknown@@W4CComEnumFlags@2@@Z 10019100 f i CoinAcceptor.obj
 0001:000182e0       ?Init@CComFakeCriticalSection@ATL@@QAEJXZ 100192e0 f i CoinAcceptor.obj
 0001:00018300       ?Init@CComModule@ATL@@QAEJPAU_ATL_OBJMAP_ENTRY30@2@PAUHINSTANCE__@@PBU_GUID@@@Z 10019300 f i CoinAcceptor.obj
 0001:000183f0       ?Init@CComSafeDeleteCriticalSection@ATL@@QAEJXZ 100193f0 f i CoinAcceptor.obj
 0001:00018470       ?Init@CDynamicStdCallThunk2@ATL@@QAEHKPAX@Z 10019470 f i CoinAcceptor.obj
 0001:000184d0       ?Init@CWndProcThunk@ATL@@QAEHP6GJPAUHWND__@@IIJ@ZPAX@Z 100194d0 f i CoinAcceptor.obj
 0001:00018510       ?InitFromData@?$IOleObjectImpl@VCOPOSCoinAcceptor@@@ATL@@UAGJPAUIDataObject@@HK@Z 10019510 f i CoinAcceptor.obj
 0001:00018580       ?InitLibId@?$CAtlModuleT@VCComModule@ATL@@@ATL@@SAXXZ 10019580 f i CoinAcceptor.obj
 0001:00018590       ?InitNew@?$IPersistStorageImpl@VCOPOSCoinAcceptor@@@ATL@@UAGJPAUIStorage@@@Z 10019590 f i CoinAcceptor.obj
 0001:00018680       ?InitNew@?$IPersistStreamInitImpl@VCOPOSCoinAcceptor@@@ATL@@UAGJXZ 10019680 f i CoinAcceptor.obj
 0001:00018710       ?InlineIsEqualUnknown@ATL@@YGHABU_GUID@@@Z 10019710 f i CoinAcceptor.obj
 0001:00018780       ?InternalAddRef@?$CComObjectRootEx@VCComMultiThreadModel@ATL@@@ATL@@QAEKXZ 10019780 f i CoinAcceptor.obj
 0001:000187e0       ?InternalAddRef@?$CComObjectRootEx@VCComSingleThreadModel@ATL@@@ATL@@QAEKXZ 100197e0 f i CoinAcceptor.obj
 0001:00018840       ?InternalFinalConstructAddRef@CComObjectRootBase@ATL@@QAEXXZ 10019840 f i CoinAcceptor.obj
 0001:00018860       ?InternalFinalConstructAddRef@COPOSCoinAcceptor@@QAEXXZ 10019860 f i CoinAcceptor.obj
 0001:00018890       ?InternalFinalConstructRelease@CComObjectRootBase@ATL@@QAEXXZ 10019890 f i CoinAcceptor.obj
 0001:000188e0       ?InternalFinalConstructRelease@COPOSCoinAcceptor@@QAEXXZ 100198e0 f i CoinAcceptor.obj
 0001:00018910       ?InternalGetSite@CComControlBase@ATL@@QAEJABU_GUID@@PAPAX@Z 10019910 f i CoinAcceptor.obj
 0001:000189d0       ?InternalQueryInterface@CComObjectRootBase@ATL@@SGJPAXPBU_ATL_INTMAP_ENTRY@2@ABU_GUID@@PAPAX@Z 100199d0 f i CoinAcceptor.obj
 0001:00018a90       ?InternalRelease@?$CComObjectRootEx@VCComMultiThreadModel@ATL@@@ATL@@QAEKXZ 10019a90 f i CoinAcceptor.obj
 0001:00018b00       ?InternalRelease@?$CComObjectRootEx@VCComSingleThreadModel@ATL@@@ATL@@QAEKXZ 10019b00 f i CoinAcceptor.obj
 0001:00018b70       ?InternalSetAtIndex@?$CSimpleArray@GV?$CSimpleArrayEqualHelper@G@ATL@@@ATL@@QAEXHABG@Z 10019b70 f i CoinAcceptor.obj
 0001:00018be0       ?InternalSetAtIndex@?$CSimpleMap@PA_WPA_WVCExpansionVectorEqualHelper@ATL@@@ATL@@QAEXHABQA_W0@Z 10019be0 f i CoinAcceptor.obj
 0001:00018c80       ?Invoke@?$IDispatchImpl@UIOPOSCoinAcceptor@@$1?IID_IOPOSCoinAcceptor@@3U_GUID@@B$1?LIBID_OposCoinAcceptor_CCO@@3U3@B$00$0A@VCComTypeInfoHolder@ATL@@@ATL@@UAGJJABU_GUID@@KGPAUtagDISPPARAMS@@PAUtagVARIANT@@PAUtagEXCEPINFO@@PAI@Z 10019c80 f i CoinAcceptor.obj
 0001:00018cc0       ?Invoke@CComTypeInfoHolder@ATL@@QAEJPAUIDispatch@@JABU_GUID@@KGPAUtagDISPPARAMS@@PAUtagVARIANT@@PAUtagEXCEPINFO@@PAI@Z 10019cc0 f i CoinAcceptor.obj
 0001:00018d50       ?IsDirty@?$IPersistStorageImpl@VCOPOSCoinAcceptor@@@ATL@@UAGJXZ 10019d50 f i CoinAcceptor.obj
 0001:00018e40       ?IsDirty@?$IPersistStreamInitImpl@VCOPOSCoinAcceptor@@@ATL@@UAGJXZ 10019e40 f i CoinAcceptor.obj
 0001:00018ee0       ?IsEqualKey@CExpansionVectorEqualHelper@ATL@@SA_NQA_W0@Z 10019ee0 f i CoinAcceptor.obj
 0001:00018f10       ?IsEqualObject@?$CComPtrBase@UIOleClientSite@@@ATL@@QAE_NPAUIUnknown@@@Z 10019f10 f i CoinAcceptor.obj
 0001:00019040       ?IsEqualObject@?$CComPtrBase@UITypeInfo@@@ATL@@QAE_NPAUIUnknown@@@Z 1001a040 f i CoinAcceptor.obj
 0001:00019170       ?IsSpace@CRegParser@ATL@@IAEH_W@Z 1001a170 f i CoinAcceptor.obj
 0001:000191e0       ?IsUpToDate@?$IOleObjectImpl@VCOPOSCoinAcceptor@@@ATL@@UAGJXZ 1001a1e0 f i CoinAcceptor.obj
 0001:00019240       ?Length@CComBSTR@ATL@@QBEIXZ 1001a240 f i CoinAcceptor.obj
 0001:00019280       ?Load@?$IPersistStorageImpl@VCOPOSCoinAcceptor@@@ATL@@UAGJPAUIStorage@@@Z 1001a280 f i CoinAcceptor.obj
 0001:000193e0       ?Load@?$IPersistStreamInitImpl@VCOPOSCoinAcceptor@@@ATL@@UAGJPAUIStream@@@Z 1001a3e0 f i CoinAcceptor.obj
 0001:00019470       ?LoadCursorW@AtlModuleRegisterWndClassInfoParamW@ATL@@SAPAUHICON__@@PAUHINSTANCE__@@PB_W@Z 1001a470 f i CoinAcceptor.obj
 0001:000194a0       ?LoadNameCache@CComTypeInfoHolder@ATL@@QAEJPAUITypeInfo@@@Z 1001a4a0 f i CoinAcceptor.obj
 0001:00019730       ?Lock@?$CComCritSecLock@VCComCriticalSection@ATL@@@ATL@@QAEJXZ 1001a730 f i CoinAcceptor.obj
 0001:000197e0       ?Lock@?$CComObjectRootEx@VCComSingleThreadModel@ATL@@@ATL@@QAEXXZ 1001a7e0 f i CoinAcceptor.obj
 0001:00019800       ?Lock@CAtlModule@ATL@@UAEJXZ 1001a800 f i CoinAcceptor.obj
 0001:00019830       ?Lock@CComCriticalSection@ATL@@QAEJXZ 1001a830 f i CoinAcceptor.obj
 0001:00019870       ?Lock@CComFakeCriticalSection@ATL@@QAEJXZ 1001a870 f i CoinAcceptor.obj
 0001:00019890       ?LockServer@CComClassFactory@ATL@@UAGJH@Z 1001a890 f i CoinAcceptor.obj
 0001:000198f0       ?Lookup@?$CSimpleMap@PA_WPA_WVCExpansionVectorEqualHelper@ATL@@@ATL@@QBEPA_WABQA_W@Z 1001a8f0 f i CoinAcceptor.obj
 0001:00019940       ?Next@?$CComEnumImpl@UIEnumConnectionPoints@@$1?_GUID_b196b285_bab4_101a_b69c_00aa00341d07@@3U__s_GUID@@BPAUIConnectionPoint@@V?$_CopyInterface@UIConnectionPoint@@@ATL@@@ATL@@UAGJKPAPAUIConnectionPoint@@PAK@Z 1001a940 f i CoinAcceptor.obj
 0001:00019ab0       ?Next@?$CComEnumImpl@UIEnumConnections@@$1?_GUID_b196b287_bab4_101a_b69c_00aa00341d07@@3U__s_GUID@@BUtagCONNECTDATA@@V?$_Copy@UtagCONNECTDATA@@@ATL@@@ATL@@UAGJKPAUtagCONNECTDATA@@PAK@Z 1001aab0 f i CoinAcceptor.obj
 0001:00019c20       ?NextToken@CRegParser@ATL@@IAEJPA_W@Z 1001ac20 f i CoinAcceptor.obj
 0001:00019ec0       ?OLE2CT_EX@@YAPB_WPB_WI@Z  1001aec0 f i CoinAcceptor.obj
 0001:00019ed0       ?OLE2CT_EX_DEF@@YAPB_WPB_W@Z 1001aed0 f i CoinAcceptor.obj
 0001:00019ee0       ?OLE2T_EX@@YAPA_WPA_WI@Z   1001aee0 f i CoinAcceptor.obj
 0001:00019ef0       ?OnAmbientPropertyChange@?$IOleControlImpl@VCOPOSCoinAcceptor@@@ATL@@UAGJJ@Z 1001aef0 f i CoinAcceptor.obj
 0001:00019f80       ?OnDocWindowActivate@?$IOleInPlaceActiveObjectImpl@VCOPOSCoinAcceptor@@@ATL@@UAGJH@Z 1001af80 f i CoinAcceptor.obj
 0001:0001a010       ?OnDrawAdvanced@CComControlBase@ATL@@UAEJAAUATL_DRAWINFO@@@Z 1001b010 f i CoinAcceptor.obj
 0001:0001a230       ?OnFinalMessage@?$CWindowImplBaseT@VCWindow@ATL@@V?$CWinTraits@$0FGAAAAAA@$0A@@2@@ATL@@UAEXPAUHWND__@@@Z 1001b230 f i CoinAcceptor.obj
 0001:0001a250       ?OnFrameWindowActivate@?$IOleInPlaceActiveObjectImpl@VCOPOSCoinAcceptor@@@ATL@@UAGJH@Z 1001b250 f i CoinAcceptor.obj
 0001:0001a2b0       ?OnKillFocus@CComControlBase@ATL@@QAEJIIJAAH@Z 1001b2b0 f i CoinAcceptor.obj
 0001:0001a3b0       ?OnMnemonic@?$IOleControlImpl@VCOPOSCoinAcceptor@@@ATL@@UAGJPAUtagMSG@@@Z 1001b3b0 f i CoinAcceptor.obj
 0001:0001a420       ?OnMouseActivate@CComControlBase@ATL@@QAEJIIJAAH@Z 1001b420 f i CoinAcceptor.obj
 0001:0001a570       ?OnPaint@CComControlBase@ATL@@QAEJIIJAAH@Z 1001b570 f i CoinAcceptor.obj
 0001:0001a6f0       ?OnPostVerbDiscardUndo@?$IOleObjectImpl@VCOPOSCoinAcceptor@@@ATL@@QAEJXZ 1001b6f0 f i CoinAcceptor.obj
 0001:0001a710       ?OnPostVerbHide@?$IOleObjectImpl@VCOPOSCoinAcceptor@@@ATL@@QAEJXZ 1001b710 f i CoinAcceptor.obj
 0001:0001a730       ?OnPostVerbInPlaceActivate@?$IOleObjectImpl@VCOPOSCoinAcceptor@@@ATL@@QAEJXZ 1001b730 f i CoinAcceptor.obj
 0001:0001a750       ?OnPostVerbOpen@?$IOleObjectImpl@VCOPOSCoinAcceptor@@@ATL@@QAEJXZ 1001b750 f i CoinAcceptor.obj
 0001:0001a770       ?OnPostVerbShow@?$IOleObjectImpl@VCOPOSCoinAcceptor@@@ATL@@QAEJXZ 1001b770 f i CoinAcceptor.obj
 0001:0001a790       ?OnPostVerbUIActivate@?$IOleObjectImpl@VCOPOSCoinAcceptor@@@ATL@@QAEJXZ 1001b790 f i CoinAcceptor.obj
 0001:0001a7b0       ?OnPreVerbDiscardUndo@?$IOleObjectImpl@VCOPOSCoinAcceptor@@@ATL@@QAEJXZ 1001b7b0 f i CoinAcceptor.obj
 0001:0001a7d0       ?OnPreVerbHide@?$IOleObjectImpl@VCOPOSCoinAcceptor@@@ATL@@QAEJXZ 1001b7d0 f i CoinAcceptor.obj
 0001:0001a7f0       ?OnPreVerbInPlaceActivate@?$IOleObjectImpl@VCOPOSCoinAcceptor@@@ATL@@QAEJXZ 1001b7f0 f i CoinAcceptor.obj
 0001:0001a810       ?OnPreVerbOpen@?$IOleObjectImpl@VCOPOSCoinAcceptor@@@ATL@@QAEJXZ 1001b810 f i CoinAcceptor.obj
 0001:0001a830       ?OnPreVerbShow@?$IOleObjectImpl@VCOPOSCoinAcceptor@@@ATL@@QAEJXZ 1001b830 f i CoinAcceptor.obj
 0001:0001a850       ?OnPreVerbUIActivate@?$IOleObjectImpl@VCOPOSCoinAcceptor@@@ATL@@QAEJXZ 1001b850 f i CoinAcceptor.obj
 0001:0001a870       ?OnSetFocus@CComControlBase@ATL@@QAEJIIJAAH@Z 1001b870 f i CoinAcceptor.obj
 0001:0001aa00       ?OnWindowMessage@?$IOleInPlaceObjectWindowlessImpl@VCOPOSCoinAcceptor@@@ATL@@UAGJIIJPAJ@Z 1001ba00 f i CoinAcceptor.obj
 0001:0001ab60       ?Open@CRegKey@ATL@@QAEJPAUHKEY__@@PB_WK@Z 1001bb60 f i CoinAcceptor.obj
 0001:0001acb0       ?OuterAddRef@CComObjectRootBase@ATL@@QAEKXZ 1001bcb0 f i CoinAcceptor.obj
 0001:0001acf0       ?OuterQueryInterface@CComObjectRootBase@ATL@@QAEJABU_GUID@@PAPAX@Z 1001bcf0 f i CoinAcceptor.obj
 0001:0001ad40       ?OuterRelease@CComObjectRootBase@ATL@@QAEKXZ 1001bd40 f i CoinAcceptor.obj
 0001:0001ad80       ?PreProcessBuffer@CRegParser@ATL@@QAEJPA_WPAPA_W@Z 1001bd80 f i CoinAcceptor.obj
 0001:0001b2c0       ?PreTranslateAccelerator@CComControlBase@ATL@@QAEHPAUtagMSG@@AAJ@Z 1001c2c0 f i CoinAcceptor.obj
 0001:0001b2e0       ?ProcessWindowMessage@?$CComControl@VCOPOSCoinAcceptor@@V?$CWindowImpl@VCOPOSCoinAcceptor@@VCWindow@ATL@@V?$CWinTraits@$0FGAAAAAA@$0A@@3@@ATL@@@ATL@@UAEHPAUHWND__@@IIJAAJK@Z 1001c2e0 f i CoinAcceptor.obj
 0001:0001b4b0       ?ProcessWindowMessage@COPOSCoinAcceptor@@UAEHPAUHWND__@@IIJAAJK@Z 1001c4b0 f i CoinAcceptor.obj
 0001:0001b5b0       ?PutProperty@?$CComPtr@UIDispatch@@@ATL@@QAEJJPAUtagVARIANT@@@Z 1001c5b0 f i CoinAcceptor.obj
 0001:0001b5f0       ?PutProperty@?$CComPtr@UIDispatch@@@ATL@@SAJPAUIDispatch@@JPAUtagVARIANT@@@Z 1001c5f0 f i CoinAcceptor.obj
 0001:0001b7e0       ?QueryGetData@?$IDataObjectImpl@VCOPOSCoinAcceptor@@@ATL@@UAGJPAUtagFORMATETC@@@Z 1001c7e0 f i CoinAcceptor.obj
 0001:0001b850       ?QueryHitPoint@?$IViewObjectExImpl@VCOPOSCoinAcceptor@@@ATL@@UAGJKPBUtagRECT@@UtagPOINT@@JPAK@Z 1001c850 f i CoinAcceptor.obj
 0001:0001b960       ?QueryHitRect@?$IViewObjectExImpl@VCOPOSCoinAcceptor@@@ATL@@UAGJKPBUtagRECT@@0JPAK@Z 1001c960 f i CoinAcceptor.obj
 0001:0001bab0       ?QueryInterface@?$CComAggObject@VCOPOSCoinAcceptor@@@ATL@@UAGJABU_GUID@@PAPAX@Z 1001cab0 f i CoinAcceptor.obj
 0001:0001bb60       ?QueryInterface@?$CComContainedObject@VCOPOSCoinAcceptor@@@ATL@@UAGJABU_GUID@@PAPAX@Z 1001cb60 f i CoinAcceptor.obj
 0001:0001bb84       ?QueryInterface@?$CComContainedObject@VCOPOSCoinAcceptor@@@ATL@@WHA@AGJABU_GUID@@PAPAX@Z 1001cb84 f i CoinAcceptor.obj
 0001:0001bb8e       ?QueryInterface@?$CComContainedObject@VCOPOSCoinAcceptor@@@ATL@@WHE@AGJABU_GUID@@PAPAX@Z 1001cb8e f i CoinAcceptor.obj
 0001:0001bb98       ?QueryInterface@?$CComContainedObject@VCOPOSCoinAcceptor@@@ATL@@WHI@AGJABU_GUID@@PAPAX@Z 1001cb98 f i CoinAcceptor.obj
 0001:0001bba2       ?QueryInterface@?$CComContainedObject@VCOPOSCoinAcceptor@@@ATL@@WHM@AGJABU_GUID@@PAPAX@Z 1001cba2 f i CoinAcceptor.obj
 0001:0001bbac       ?QueryInterface@?$CComContainedObject@VCOPOSCoinAcceptor@@@ATL@@WIA@AGJABU_GUID@@PAPAX@Z 1001cbac f i CoinAcceptor.obj
 0001:0001bbb9       ?QueryInterface@?$CComContainedObject@VCOPOSCoinAcceptor@@@ATL@@WIE@AGJABU_GUID@@PAPAX@Z 1001cbb9 f i CoinAcceptor.obj
 0001:0001bbc6       ?QueryInterface@?$CComContainedObject@VCOPOSCoinAcceptor@@@ATL@@WII@AGJABU_GUID@@PAPAX@Z 1001cbc6 f i CoinAcceptor.obj
 0001:0001bbd3       ?QueryInterface@?$CComContainedObject@VCOPOSCoinAcceptor@@@ATL@@WIM@AGJABU_GUID@@PAPAX@Z 1001cbd3 f i CoinAcceptor.obj
 0001:0001bbe0       ?QueryInterface@?$CComContainedObject@VCOPOSCoinAcceptor@@@ATL@@WJA@AGJABU_GUID@@PAPAX@Z 1001cbe0 f i CoinAcceptor.obj
 0001:0001bbed       ?QueryInterface@?$CComContainedObject@VCOPOSCoinAcceptor@@@ATL@@WJE@AGJABU_GUID@@PAPAX@Z 1001cbed f i CoinAcceptor.obj
 0001:0001bbfa       ?QueryInterface@?$CComContainedObject@VCOPOSCoinAcceptor@@@ATL@@WJI@AGJABU_GUID@@PAPAX@Z 1001cbfa f i CoinAcceptor.obj
 0001:0001bc07       ?QueryInterface@?$CComContainedObject@VCOPOSCoinAcceptor@@@ATL@@WJM@AGJABU_GUID@@PAPAX@Z 1001cc07 f i CoinAcceptor.obj
 0001:0001bc14       ?QueryInterface@?$CComContainedObject@VCOPOSCoinAcceptor@@@ATL@@WKA@AGJABU_GUID@@PAPAX@Z 1001cc14 f i CoinAcceptor.obj
 0001:0001bc30       ?QueryInterface@?$CComObject@V?$CComEnum@UIEnumConnectionPoints@@$1?_GUID_b196b285_bab4_101a_b69c_00aa00341d07@@3U__s_GUID@@BPAUIConnectionPoint@@V?$_CopyInterface@UIConnectionPoint@@@ATL@@VCComSingleThreadModel@6@@ATL@@@ATL@@UAGJABU_GUID@@PAPAX@Z 1001cc30 f i CoinAcceptor.obj
 0001:0001bc50       ?QueryInterface@?$CComObject@V?$CComEnum@UIEnumConnections@@$1?_GUID_b196b287_bab4_101a_b69c_00aa00341d07@@3U__s_GUID@@BUtagCONNECTDATA@@V?$_Copy@UtagCONNECTDATA@@@ATL@@VCComSingleThreadModel@6@@ATL@@@ATL@@UAGJABU_GUID@@PAPAX@Z 1001cc50 f i CoinAcceptor.obj
 0001:0001bc70       ?QueryInterface@?$CComObject@VCOPOSCoinAcceptor@@@ATL@@UAGJABU_GUID@@PAPAX@Z 1001cc70 f i CoinAcceptor.obj
 0001:0001bc8e       ?QueryInterface@?$CComObject@VCOPOSCoinAcceptor@@@ATL@@WHA@AGJABU_GUID@@PAPAX@Z 1001cc8e f i CoinAcceptor.obj
 0001:0001bc98       ?QueryInterface@?$CComObject@VCOPOSCoinAcceptor@@@ATL@@WHE@AGJABU_GUID@@PAPAX@Z 1001cc98 f i CoinAcceptor.obj
 0001:0001bca2       ?QueryInterface@?$CComObject@VCOPOSCoinAcceptor@@@ATL@@WHI@AGJABU_GUID@@PAPAX@Z 1001cca2 f i CoinAcceptor.obj
 0001:0001bcac       ?QueryInterface@?$CComObject@VCOPOSCoinAcceptor@@@ATL@@WHM@AGJABU_GUID@@PAPAX@Z 1001ccac f i CoinAcceptor.obj
 0001:0001bcb6       ?QueryInterface@?$CComObject@VCOPOSCoinAcceptor@@@ATL@@WIA@AGJABU_GUID@@PAPAX@Z 1001ccb6 f i CoinAcceptor.obj
 0001:0001bcc3       ?QueryInterface@?$CComObject@VCOPOSCoinAcceptor@@@ATL@@WIE@AGJABU_GUID@@PAPAX@Z 1001ccc3 f i CoinAcceptor.obj
 0001:0001bcd0       ?QueryInterface@?$CComObject@VCOPOSCoinAcceptor@@@ATL@@WII@AGJABU_GUID@@PAPAX@Z 1001ccd0 f i CoinAcceptor.obj
 0001:0001bcdd       ?QueryInterface@?$CComObject@VCOPOSCoinAcceptor@@@ATL@@WIM@AGJABU_GUID@@PAPAX@Z 1001ccdd f i CoinAcceptor.obj
 0001:0001bcea       ?QueryInterface@?$CComObject@VCOPOSCoinAcceptor@@@ATL@@WJA@AGJABU_GUID@@PAPAX@Z 1001ccea f i CoinAcceptor.obj
 0001:0001bcf7       ?QueryInterface@?$CComObject@VCOPOSCoinAcceptor@@@ATL@@WJE@AGJABU_GUID@@PAPAX@Z 1001ccf7 f i CoinAcceptor.obj
 0001:0001bd04       ?QueryInterface@?$CComObject@VCOPOSCoinAcceptor@@@ATL@@WJI@AGJABU_GUID@@PAPAX@Z 1001cd04 f i CoinAcceptor.obj
 0001:0001bd11       ?QueryInterface@?$CComObject@VCOPOSCoinAcceptor@@@ATL@@WJM@AGJABU_GUID@@PAPAX@Z 1001cd11 f i CoinAcceptor.obj
 0001:0001bd1e       ?QueryInterface@?$CComObject@VCOPOSCoinAcceptor@@@ATL@@WKA@AGJABU_GUID@@PAPAX@Z 1001cd1e f i CoinAcceptor.obj
 0001:0001bd30       ?QueryInterface@?$CComObjectCached@VCComClassFactory@ATL@@@ATL@@UAGJABU_GUID@@PAPAX@Z 1001cd30 f i CoinAcceptor.obj
 0001:0001bd50       ?QueryInterface@CRegObject@ATL@@UAGJABU_GUID@@PAPAX@Z 1001cd50 f i CoinAcceptor.obj
 0001:0001bda0       ?QuickActivate@?$IQuickActivateImpl@VCOPOSCoinAcceptor@@@ATL@@UAGJPAUtagQACONTAINER@@PAUtagQACONTROL@@@Z 1001cda0 f i CoinAcceptor.obj
 0001:0001be30       ?ReactivateAndUndo@?$IOleInPlaceObjectWindowlessImpl@VCOPOSCoinAcceptor@@@ATL@@UAGJXZ 1001ce30 f i CoinAcceptor.obj
 0001:0001bea0       ?ReadFromStream@CComBSTR@ATL@@QAEJPAUIStream@@@Z 1001cea0 f i CoinAcceptor.obj
 0001:0001c2a0       ?ReadFromStream@CComVariant@ATL@@QAEJPAUIStream@@GTClassesAllowedInStream@2@K@Z 1001d2a0 f i CoinAcceptor.obj
 0001:0001c600       ?RecurseDeleteKey@CRegKey@ATL@@QAEJPB_W@Z 1001d600 f i CoinAcceptor.obj
 0001:0001c7e0       ?RegCreateKeyExW@CAtlTransactionManager@ATL@@QAEJPAUHKEY__@@PB_WKPA_WKKQAU_SECURITY_ATTRIBUTES@@PAPAU3@PAK@Z 1001d7e0 f i CoinAcceptor.obj
 0001:0001c910       ?RegDeleteKeyW@CAtlTransactionManager@ATL@@QAEJPAUHKEY__@@PB_W@Z 1001d910 f i CoinAcceptor.obj
 0001:0001ca10       ?RegOpenKeyExW@CAtlTransactionManager@ATL@@QAEJPAUHKEY__@@PB_WKKPAPAU3@@Z 1001da10 f i CoinAcceptor.obj
 0001:0001cb20       ?Register@_ATL_WNDCLASSINFOW@ATL@@QAEGPAP6GJPAUHWND__@@IIJ@Z@Z 1001db20 f i CoinAcceptor.obj
 0001:0001cb60       ?RegisterBuffer@CRegParser@ATL@@QAEJPA_WH@Z 1001db60 f i CoinAcceptor.obj
 0001:0001ce90       ?RegisterClassExW@AtlModuleRegisterWndClassInfoParamW@ATL@@SAGPAU_ATL_WIN_MODULE70@2@PBUtagWNDCLASSEXW@@@Z 1001de90 f i CoinAcceptor.obj
 0001:0001ceb0       ?RegisterFromResource@CRegObject@ATL@@IAEJPB_W00H@Z 1001deb0 f i CoinAcceptor.obj
 0001:0001d240       ?RegisterServer@?$CAtlModuleT@VCComModule@ATL@@@ATL@@QAEJHPBU_GUID@@@Z 1001e240 f i CoinAcceptor.obj
 0001:0001d2c0       ?RegisterServer@CAtlComModule@ATL@@QAEJHPBU_GUID@@@Z 1001e2c0 f i CoinAcceptor.obj
 0001:0001d2f0       ?RegisterServer@CComModule@ATL@@QAEJHPBU_GUID@@@Z 1001e2f0 f i CoinAcceptor.obj
 0001:0001d3d0       ?RegisterSubkeys@CRegParser@ATL@@IAEJPA_WPAUHKEY__@@HH@Z 1001e3d0 f i CoinAcceptor.obj
 0001:0001def0       ?Release@?$CComAggObject@VCOPOSCoinAcceptor@@@ATL@@UAGKXZ 1001eef0 f i CoinAcceptor.obj
 0001:0001dfb0       ?Release@?$CComContainedObject@VCOPOSCoinAcceptor@@@ATL@@UAGKXZ 1001efb0 f i CoinAcceptor.obj
 0001:0001dfcc       ?Release@?$CComContainedObject@VCOPOSCoinAcceptor@@@ATL@@WHA@AGKXZ 1001efcc f i CoinAcceptor.obj
 0001:0001dfd6       ?Release@?$CComContainedObject@VCOPOSCoinAcceptor@@@ATL@@WHE@AGKXZ 1001efd6 f i CoinAcceptor.obj
 0001:0001dfe0       ?Release@?$CComContainedObject@VCOPOSCoinAcceptor@@@ATL@@WHI@AGKXZ 1001efe0 f i CoinAcceptor.obj
 0001:0001dfea       ?Release@?$CComContainedObject@VCOPOSCoinAcceptor@@@ATL@@WHM@AGKXZ 1001efea f i CoinAcceptor.obj
 0001:0001dff4       ?Release@?$CComContainedObject@VCOPOSCoinAcceptor@@@ATL@@WIA@AGKXZ 1001eff4 f i CoinAcceptor.obj
 0001:0001e001       ?Release@?$CComContainedObject@VCOPOSCoinAcceptor@@@ATL@@WIE@AGKXZ 1001f001 f i CoinAcceptor.obj
 0001:0001e00e       ?Release@?$CComContainedObject@VCOPOSCoinAcceptor@@@ATL@@WII@AGKXZ 1001f00e f i CoinAcceptor.obj
 0001:0001e01b       ?Release@?$CComContainedObject@VCOPOSCoinAcceptor@@@ATL@@WIM@AGKXZ 1001f01b f i CoinAcceptor.obj
 0001:0001e028       ?Release@?$CComContainedObject@VCOPOSCoinAcceptor@@@ATL@@WJA@AGKXZ 1001f028 f i CoinAcceptor.obj
 0001:0001e035       ?Release@?$CComContainedObject@VCOPOSCoinAcceptor@@@ATL@@WJE@AGKXZ 1001f035 f i CoinAcceptor.obj
 0001:0001e042       ?Release@?$CComContainedObject@VCOPOSCoinAcceptor@@@ATL@@WJI@AGKXZ 1001f042 f i CoinAcceptor.obj
 0001:0001e04f       ?Release@?$CComContainedObject@VCOPOSCoinAcceptor@@@ATL@@WJM@AGKXZ 1001f04f f i CoinAcceptor.obj
 0001:0001e05c       ?Release@?$CComContainedObject@VCOPOSCoinAcceptor@@@ATL@@WKA@AGKXZ 1001f05c f i CoinAcceptor.obj
 0001:0001e069       ?Release@?$CComContainedObject@VCOPOSCoinAcceptor@@@ATL@@WKI@AGKXZ 1001f069 f i CoinAcceptor.obj
 0001:0001e076       ?Release@?$CComContainedObject@VCOPOSCoinAcceptor@@@ATL@@WLE@AGKXZ 1001f076 f i CoinAcceptor.obj
 0001:0001e090       ?Release@?$CComObject@V?$CComEnum@UIEnumConnectionPoints@@$1?_GUID_b196b285_bab4_101a_b69c_00aa00341d07@@3U__s_GUID@@BPAUIConnectionPoint@@V?$_CopyInterface@UIConnectionPoint@@@ATL@@VCComSingleThreadModel@6@@ATL@@@ATL@@UAGKXZ 1001f090 f i CoinAcceptor.obj
 0001:0001e150       ?Release@?$CComObject@V?$CComEnum@UIEnumConnections@@$1?_GUID_b196b287_bab4_101a_b69c_00aa00341d07@@3U__s_GUID@@BUtagCONNECTDATA@@V?$_Copy@UtagCONNECTDATA@@@ATL@@VCComSingleThreadModel@6@@ATL@@@ATL@@UAGKXZ 1001f150 f i CoinAcceptor.obj
 0001:0001e210       ?Release@?$CComObject@VCOPOSCoinAcceptor@@@ATL@@UAGKXZ 1001f210 f i CoinAcceptor.obj
 0001:0001e2d1       ?Release@?$CComObject@VCOPOSCoinAcceptor@@@ATL@@WHA@AGKXZ 1001f2d1 f i CoinAcceptor.obj
 0001:0001e2db       ?Release@?$CComObject@VCOPOSCoinAcceptor@@@ATL@@WHE@AGKXZ 1001f2db f i CoinAcceptor.obj
 0001:0001e2e5       ?Release@?$CComObject@VCOPOSCoinAcceptor@@@ATL@@WHI@AGKXZ 1001f2e5 f i CoinAcceptor.obj
 0001:0001e2ef       ?Release@?$CComObject@VCOPOSCoinAcceptor@@@ATL@@WHM@AGKXZ 1001f2ef f i CoinAcceptor.obj
 0001:0001e2f9       ?Release@?$CComObject@VCOPOSCoinAcceptor@@@ATL@@WIA@AGKXZ 1001f2f9 f i CoinAcceptor.obj
 0001:0001e306       ?Release@?$CComObject@VCOPOSCoinAcceptor@@@ATL@@WIE@AGKXZ 1001f306 f i CoinAcceptor.obj
 0001:0001e313       ?Release@?$CComObject@VCOPOSCoinAcceptor@@@ATL@@WII@AGKXZ 1001f313 f i CoinAcceptor.obj
 0001:0001e320       ?Release@?$CComObject@VCOPOSCoinAcceptor@@@ATL@@WIM@AGKXZ 1001f320 f i CoinAcceptor.obj
 0001:0001e32d       ?Release@?$CComObject@VCOPOSCoinAcceptor@@@ATL@@WJA@AGKXZ 1001f32d f i CoinAcceptor.obj
 0001:0001e33a       ?Release@?$CComObject@VCOPOSCoinAcceptor@@@ATL@@WJE@AGKXZ 1001f33a f i CoinAcceptor.obj
 0001:0001e347       ?Release@?$CComObject@VCOPOSCoinAcceptor@@@ATL@@WJI@AGKXZ 1001f347 f i CoinAcceptor.obj
 0001:0001e354       ?Release@?$CComObject@VCOPOSCoinAcceptor@@@ATL@@WJM@AGKXZ 1001f354 f i CoinAcceptor.obj
 0001:0001e361       ?Release@?$CComObject@VCOPOSCoinAcceptor@@@ATL@@WKA@AGKXZ 1001f361 f i CoinAcceptor.obj
 0001:0001e36e       ?Release@?$CComObject@VCOPOSCoinAcceptor@@@ATL@@WKI@AGKXZ 1001f36e f i CoinAcceptor.obj
 0001:0001e37b       ?Release@?$CComObject@VCOPOSCoinAcceptor@@@ATL@@WLE@AGKXZ 1001f37b f i CoinAcceptor.obj
 0001:0001e390       ?Release@?$CComObjectCached@VCComClassFactory@ATL@@@ATL@@UAGKXZ 1001f390 f i CoinAcceptor.obj
 0001:0001e430       ?Release@?$CComPtrBase@UIAdviseSink@@@ATL@@QAEXXZ 1001f430 f i CoinAcceptor.obj
 0001:0001e490       ?Release@?$CComPtrBase@UIDispatch@@@ATL@@QAEXXZ 1001f490 f i CoinAcceptor.obj
 0001:0001e4f0       ?Release@?$CComPtrBase@UIOleInPlaceSiteWindowless@@@ATL@@QAEXXZ 1001f4f0 f i CoinAcceptor.obj
 0001:0001e550       ?Release@CRegObject@ATL@@UAGKXZ 1001f550 f i CoinAcceptor.obj
 0001:0001e590       ?Remove@CComDynamicUnkArray@ATL@@QAEHK@Z 1001f590 f i CoinAcceptor.obj
 0001:0001e640       ?RemoveAll@?$CSimpleMap@PA_WPA_WVCExpansionVectorEqualHelper@ATL@@@ATL@@QAEXXZ 1001f640 f i CoinAcceptor.obj
 0001:0001e6d0       ?Reset@?$CComEnumImpl@UIEnumConnectionPoints@@$1?_GUID_b196b285_bab4_101a_b69c_00aa00341d07@@3U__s_GUID@@BPAUIConnectionPoint@@V?$_CopyInterface@UIConnectionPoint@@@ATL@@@ATL@@UAGJXZ 1001f6d0 f i CoinAcceptor.obj
 0001:0001e6f0       ?Reset@?$CComEnumImpl@UIEnumConnections@@$1?_GUID_b196b287_bab4_101a_b69c_00aa00341d07@@3U__s_GUID@@BUtagCONNECTDATA@@V?$_Copy@UtagCONNECTDATA@@@ATL@@@ATL@@UAGJXZ 1001f6f0 f i CoinAcceptor.obj
 0001:0001e710       ?ResizeBorder@?$IOleInPlaceActiveObjectImpl@VCOPOSCoinAcceptor@@@ATL@@UAGJPBUtagRECT@@PAUIOleInPlaceUIWindow@@H@Z 1001f710 f i CoinAcceptor.obj
 0001:0001e770       ?ResourceRegister@CRegObject@ATL@@QAGJPB_WI0@Z 1001f770 f i CoinAcceptor.obj
 0001:0001e850       ?ResourceRegisterSz@CRegObject@ATL@@QAGJPB_W00@Z 1001f850 f i CoinAcceptor.obj
 0001:0001e950       ?ResourceUnregister@CRegObject@ATL@@QAGJPB_WI0@Z 1001f950 f i CoinAcceptor.obj
 0001:0001ea30       ?ResourceUnregisterSz@CRegObject@ATL@@QAGJPB_W00@Z 1001fa30 f i CoinAcceptor.obj
 0001:0001eb30       ?SOData@COPOSCoinAcceptor@@MAGJJ@Z 1001fb30 f i CoinAcceptor.obj
 0001:0001ebb0       ?SODirectIO@COPOSCoinAcceptor@@MAGJJPAJPAPA_W@Z 1001fbb0 f i CoinAcceptor.obj
 0001:0001ed70       ?SOErrorDummy@COPOSCoinAcceptor@@MAGJJJJPAJ@Z 1001fd70 f i CoinAcceptor.obj
 0001:0001ed80       ?SOOutputCompleteDummy@COPOSCoinAcceptor@@MAGJJ@Z 1001fd80 f i CoinAcceptor.obj
 0001:0001ed90       ?SOStatusUpdate@COPOSCoinAcceptor@@MAGJJ@Z 1001fd90 f i CoinAcceptor.obj
 0001:0001ee10       ?Save@?$IPersistStorageImpl@VCOPOSCoinAcceptor@@@ATL@@UAGJPAUIStorage@@H@Z 1001fe10 f i CoinAcceptor.obj
 0001:0001ef70       ?Save@?$IPersistStreamInitImpl@VCOPOSCoinAcceptor@@@ATL@@UAGJPAUIStream@@H@Z 1001ff70 f i CoinAcceptor.obj
 0001:0001f000       ?SaveCompleted@?$IPersistStorageImpl@VCOPOSCoinAcceptor@@@ATL@@UAGJPAUIStorage@@@Z 10020000 f i CoinAcceptor.obj
 0001:0001f060       ?SendOnDataChange@CComControlBase@ATL@@QAEJK@Z 10020060 f i CoinAcceptor.obj
 0001:0001f150       ?SendOnSave@CComControlBase@ATL@@QAEJXZ 10020150 f i CoinAcceptor.obj
 0001:0001f1c0       ?SendOnViewChange@CComControlBase@ATL@@QAEJKJ@Z 100201c0 f i CoinAcceptor.obj
 0001:0001f230       ?SetAdvise@?$IViewObjectExImpl@VCOPOSCoinAcceptor@@@ATL@@UAGJKKPAUIAdviseSink@@@Z 10020230 f i CoinAcceptor.obj
 0001:0001f2c0       ?SetClientSite@?$IOleObjectImpl@VCOPOSCoinAcceptor@@@ATL@@UAGJPAUIOleClientSite@@@Z 100202c0 f i CoinAcceptor.obj
 0001:0001f350       ?SetColorScheme@?$IOleObjectImpl@VCOPOSCoinAcceptor@@@ATL@@UAGJPAUtagLOGPALETTE@@@Z 10020350 f i CoinAcceptor.obj
 0001:0001f3c0       ?SetContentExtent@?$IQuickActivateImpl@VCOPOSCoinAcceptor@@@ATL@@UAGJPAUtagSIZE@@@Z 100203c0 f i CoinAcceptor.obj
 0001:0001f450       ?SetControlFocus@CComControlBase@ATL@@QAEHH@Z 10020450 f i CoinAcceptor.obj
 0001:0001f5d0       ?SetDWORDValue@CRegKey@ATL@@QAEJPB_WK@Z 100205d0 f i CoinAcceptor.obj
 0001:0001f650       ?SetData@?$IDataObjectImpl@VCOPOSCoinAcceptor@@@ATL@@UAGJPAUtagFORMATETC@@PAUtagSTGMEDIUM@@H@Z 10020650 f i CoinAcceptor.obj
 0001:0001f6c0       ?SetExtent@?$IOleObjectImpl@VCOPOSCoinAcceptor@@@ATL@@UAGJKPAUtagSIZE@@@Z 100206c0 f i CoinAcceptor.obj
 0001:0001f750       ?SetHostNames@?$IOleObjectImpl@VCOPOSCoinAcceptor@@@ATL@@UAGJPB_W0@Z 10020750 f i CoinAcceptor.obj
 0001:0001f7b0       ?SetInterfaceSafetyOptions@?$IObjectSafetyImpl@VCOPOSCoinAcceptor@@$02@ATL@@UAGJABU_GUID@@KK@Z 100207b0 f i CoinAcceptor.obj
 0001:0001f920       ?SetMoniker@?$IOleObjectImpl@VCOPOSCoinAcceptor@@@ATL@@UAGJKPAUIMoniker@@@Z 10020920 f i CoinAcceptor.obj
 0001:0001f990       ?SetMultiStringValue@CRegKey@ATL@@QAEJPB_W0@Z 10020990 f i CoinAcceptor.obj
 0001:0001fab0       ?SetObjectRects@?$IOleInPlaceObjectWindowlessImpl@VCOPOSCoinAcceptor@@@ATL@@UAGJPBUtagRECT@@0@Z 10020ab0 f i CoinAcceptor.obj
 0001:0001fb40       ?SetStringValue@CRegKey@ATL@@QAEJPB_W0K@Z 10020b40 f i CoinAcceptor.obj
 0001:0001fc70       ?SetVoid@CComClassFactory@ATL@@QAEXPAX@Z 10020c70 f i CoinAcceptor.obj
 0001:0001fc90       ?SetVoid@CComObjectRootBase@ATL@@QAEXPAX@Z 10020c90 f i CoinAcceptor.obj
 0001:0001fcb0       ?SetWindowLongPtrW@@YAJPAUHWND__@@HJ@Z 10020cb0 f i CoinAcceptor.obj
 0001:0001fce0       ?ShowWindow@CWindow@ATL@@QAEHH@Z 10020ce0 f i CoinAcceptor.obj
 0001:0001fd60       ?Skip@?$CComEnumImpl@UIEnumConnectionPoints@@$1?_GUID_b196b285_bab4_101a_b69c_00aa00341d07@@3U__s_GUID@@BPAUIConnectionPoint@@V?$_CopyInterface@UIConnectionPoint@@@ATL@@@ATL@@UAGJK@Z 10020d60 f i CoinAcceptor.obj
 0001:0001fde0       ?Skip@?$CComEnumImpl@UIEnumConnections@@$1?_GUID_b196b287_bab4_101a_b69c_00aa00341d07@@3U__s_GUID@@BUtagCONNECTDATA@@V?$_Copy@UtagCONNECTDATA@@@ATL@@@ATL@@UAGJK@Z 10020de0 f i CoinAcceptor.obj
 0001:0001fe60       ?SkipAssignment@CRegParser@ATL@@IAEJPA_W@Z 10020e60 f i CoinAcceptor.obj
 0001:0001ff40       ?SkipWhiteSpace@CRegParser@ATL@@IAEXXZ 10020f40 f i CoinAcceptor.obj
 0001:0001ff90       ?StartWindowProc@?$CWindowImplBaseT@VCWindow@ATL@@V?$CWinTraits@$0FGAAAAAA@$0A@@2@@ATL@@SGJPAUHWND__@@IIJ@Z 10020f90 f i CoinAcceptor.obj
 0001:000200b0       ?StrChrW@CRegParser@ATL@@KAPA_WPA_W_W@Z 100210b0 f i CoinAcceptor.obj
 0001:00020120       ?StrFromMap@CRegObject@ATL@@QAEPB_WPA_W@Z 10021120 f i CoinAcceptor.obj
 0001:000201b0       ?Swap@?$CComPtrBase@UIAdviseSink@@@ATL@@IAEXAAV12@@Z 100211b0 f i CoinAcceptor.obj
 0001:000201f0       ?Swap@?$CComPtrBase@UIOleClientSite@@@ATL@@IAEXAAV12@@Z 100211f0 f i CoinAcceptor.obj
 0001:00020230       ?Swap@?$CComPtrBase@UIUnknown@@@ATL@@IAEXAAV12@@Z 10021230 f i CoinAcceptor.obj
 0001:00020270       ?T2COLE_EX@@YAPB_WPB_WI@Z  10021270 f i CoinAcceptor.obj
 0001:00020280       ?T2OLE_EX@@YAPA_WPA_WI@Z   10021280 f i CoinAcceptor.obj
 0001:00020290       ?Term@CAtlModule@ATL@@QAEXXZ 10021290 f i CoinAcceptor.obj
 0001:00020340       ?Term@CComModule@ATL@@QAEXXZ 10021340 f i CoinAcceptor.obj
 0001:00020430       ?TranslateAcceleratorW@?$IOleInPlaceActiveObjectImpl@VCOPOSCoinAcceptor@@@ATL@@UAGJPAUtagMSG@@@Z 10021430 f i CoinAcceptor.obj
 0001:00020630       ?UIDeactivate@?$IOleInPlaceObjectWindowlessImpl@VCOPOSCoinAcceptor@@@ATL@@UAGJXZ 10021630 f i CoinAcceptor.obj
 0001:000206b0       ?Unadvise@?$CProxy_IOPOSEvents@VCOPOSCoinAcceptor@@@@UAGJK@Z 100216b0 f i CoinAcceptor.obj
 0001:000206f0       ?Unadvise@?$IConnectionPointImpl@VCOPOSCoinAcceptor@@$1?DIID__IOPOSCoinAcceptorEvents@@3U_GUID@@BVCComDynamicUnkArray@ATL@@@ATL@@UAGJK@Z 100216f0 f i CoinAcceptor.obj
 0001:000207c0       ?Unadvise@?$IConnectionPointImpl@VCOPOSCoinAcceptor@@$1?IID_IPropertyNotifySink@@3U_GUID@@BVCComDynamicUnkArray@ATL@@@ATL@@UAGJK@Z 100217c0 f i CoinAcceptor.obj
 0001:00020890       ?Unadvise@?$IOleObjectImpl@VCOPOSCoinAcceptor@@@ATL@@UAGJK@Z 10021890 f i CoinAcceptor.obj
 0001:00020960       ?Unfreeze@?$IViewObjectExImpl@VCOPOSCoinAcceptor@@@ATL@@UAGJK@Z 10021960 f i CoinAcceptor.obj
 0001:000209d0       ?Unlock@?$CComCritSecLock@VCComCriticalSection@ATL@@@ATL@@QAEXXZ 100219d0 f i CoinAcceptor.obj
 0001:00020a40       ?Unlock@?$CComObjectRootEx@VCComSingleThreadModel@ATL@@@ATL@@QAEXXZ 10021a40 f i CoinAcceptor.obj
 0001:00020a60       ?Unlock@CAtlModule@ATL@@UAEJXZ 10021a60 f i CoinAcceptor.obj
 0001:00020a90       ?Unlock@CComCriticalSection@ATL@@QAEJXZ 10021a90 f i CoinAcceptor.obj
 0001:00020ad0       ?Unlock@CComFakeCriticalSection@ATL@@QAEJXZ 10021ad0 f i CoinAcceptor.obj
 0001:00020af0       ?UnregisterServer@?$CAtlModuleT@VCComModule@ATL@@@ATL@@QAEJHPBU_GUID@@@Z 10021af0 f i CoinAcceptor.obj
 0001:00020b60       ?UnregisterServer@CAtlComModule@ATL@@QAEJHPBU_GUID@@@Z 10021b60 f i CoinAcceptor.obj
 0001:00020b90       ?UnregisterServer@CComModule@ATL@@QAEJHPBU_GUID@@@Z 10021b90 f i CoinAcceptor.obj
 0001:00020c70       ?Update@?$IOleObjectImpl@VCOPOSCoinAcceptor@@@ATL@@UAGJXZ 10021c70 f i CoinAcceptor.obj
 0001:00020cd0       ?UpdateRegistryFromResource@CAtlModule@ATL@@QAGJIHPAU_ATL_REGMAP_ENTRY@2@@Z 10021cd0 f i CoinAcceptor.obj
 0001:000211a0       ?UpdateRegistryFromResource@CAtlModule@ATL@@QAGJPB_WHPAU_ATL_REGMAP_ENTRY@2@@Z 100221a0 f i CoinAcceptor.obj
 0001:00021690       ?UpdateRegistryFromResource@CComModule@ATL@@UAGJIHPAU_ATL_REGMAP_ENTRY@2@@Z 10022690 f i CoinAcceptor.obj
 0001:000216c0       ?UpdateRegistryFromResource@CComModule@ATL@@UAGJPB_WHPAU_ATL_REGMAP_ENTRY@2@@Z 100226c0 f i CoinAcceptor.obj
 0001:000216f0       ?UpdateRegistryFromResourceD@CComModule@ATL@@UAGJIHPAU_ATL_REGMAP_ENTRY@2@@Z 100226f0 f i CoinAcceptor.obj
 0001:00021700       ?UpdateRegistryFromResourceD@CComModule@ATL@@UAGJPB_WHPAU_ATL_REGMAP_ENTRY@2@@Z 10022700 f i CoinAcceptor.obj
 0001:00021710       ?VTFromRegType@CRegParser@ATL@@KAHPB_WAAG@Z 10022710 f i CoinAcceptor.obj
 0001:000217f0       ?WindowProc@?$CWindowImplBaseT@VCWindow@ATL@@V?$CWinTraits@$0FGAAAAAA@$0A@@2@@ATL@@SGJPAUHWND__@@IIJ@Z 100227f0 f i CoinAcceptor.obj
 0001:00021a00       ?WriteToStream@CComBSTR@ATL@@QAEJPAUIStream@@@Z 10022a00 f i CoinAcceptor.obj
 0001:00021b60       ?WriteToStream@CComVariant@ATL@@QAEJPAUIStream@@@Z 10022b60 f i CoinAcceptor.obj
 0001:00021ea0       ?WriteToStream@CComVariant@ATL@@QAEJPAUIStream@@G@Z 10022ea0 f i CoinAcceptor.obj
 0001:00021f70       ?_AtlFinalConstruct@CComObjectRootBase@ATL@@QAEJXZ 10022f70 f i CoinAcceptor.obj
 0001:00021f90       ?_AtlGetConversionACP@ATL@@YGIXZ 10022f90 f i CoinAcceptor.obj
 0001:00021fa0       ?_AtlInitialConstruct@?$CComAggObject@VCOPOSCoinAcceptor@@@ATL@@QAEJXZ 10022fa0 f i CoinAcceptor.obj
 0001:00021ff0       ?_AtlInitialConstruct@?$CComObjectRootEx@VCComMultiThreadModel@ATL@@@ATL@@QAEJXZ 10022ff0 f i CoinAcceptor.obj
 0001:00022020       ?_AtlInitialConstruct@?$CComObjectRootEx@VCComSingleThreadModel@ATL@@@ATL@@QAEJXZ 10023020 f i CoinAcceptor.obj
 0001:00022040       ?_AtlVerifyStackAvailable@_ATL_SAFE_ALLOCA_IMPL@ATL@@YA_NK@Z 10023040 f i CoinAcceptor.obj
 0001:000221f0       ?_GetEntries@?$CComEnum@UIEnumConnectionPoints@@$1?_GUID_b196b285_bab4_101a_b69c_00aa00341d07@@3U__s_GUID@@BPAUIConnectionPoint@@V?$_CopyInterface@UIConnectionPoint@@@ATL@@VCComSingleThreadModel@6@@ATL@@SGPBU_ATL_INTMAP_ENTRY@2@XZ 100231f0 f i CoinAcceptor.obj
 0001:00022210       ?_GetEntries@?$CComEnum@UIEnumConnections@@$1?_GUID_b196b287_bab4_101a_b69c_00aa00341d07@@3U__s_GUID@@BUtagCONNECTDATA@@V?$_Copy@UtagCONNECTDATA@@@ATL@@VCComSingleThreadModel@6@@ATL@@SGPBU_ATL_INTMAP_ENTRY@2@XZ 10023210 f i CoinAcceptor.obj
 0001:00022230       ?_GetEntries@CComClassFactory@ATL@@SGPBU_ATL_INTMAP_ENTRY@2@XZ 10023230 f i CoinAcceptor.obj
 0001:00022250       ?_GetEntries@COPOSCoinAcceptor@@SGPBU_ATL_INTMAP_ENTRY@ATL@@XZ 10023250 f i CoinAcceptor.obj
 0001:00022270       ?_GetRawUnknown@COPOSCoinAcceptor@@QAEPAUIUnknown@@XZ 10023270 f i CoinAcceptor.obj
 0001:000222e0       ?_GetViewStatus@COPOSCoinAcceptor@@QAEKXZ 100232e0 f i CoinAcceptor.obj
 0001:00022300       ?_InternalQueryInterface@?$CComEnum@UIEnumConnectionPoints@@$1?_GUID_b196b285_bab4_101a_b69c_00aa00341d07@@3U__s_GUID@@BPAUIConnectionPoint@@V?$_CopyInterface@UIConnectionPoint@@@ATL@@VCComSingleThreadModel@6@@ATL@@QAEJABU_GUID@@PAPAX@Z 10023300 f i CoinAcceptor.obj
 0001:00022340       ?_InternalQueryInterface@?$CComEnum@UIEnumConnections@@$1?_GUID_b196b287_bab4_101a_b69c_00aa00341d07@@3U__s_GUID@@BUtagCONNECTDATA@@V?$_Copy@UtagCONNECTDATA@@@ATL@@VCComSingleThreadModel@6@@ATL@@QAEJABU_GUID@@PAPAX@Z 10023340 f i CoinAcceptor.obj
 0001:00022380       ?_InternalQueryInterface@CComClassFactory@ATL@@QAEJABU_GUID@@PAPAX@Z 10023380 f i CoinAcceptor.obj
 0001:000223c0       ?_InternalQueryInterface@COPOSCoinAcceptor@@QAEJABU_GUID@@PAPAX@Z 100233c0 f i CoinAcceptor.obj
 0001:00022400       ?_LocCPQueryInterface@?$IConnectionPointImpl@VCOPOSCoinAcceptor@@$1?DIID__IOPOSCoinAcceptorEvents@@3U_GUID@@BVCComDynamicUnkArray@ATL@@@ATL@@UAGJABU_GUID@@PAPAX@Z 10023400 f i CoinAcceptor.obj
 0001:000224a0       ?_LocCPQueryInterface@?$IConnectionPointImpl@VCOPOSCoinAcceptor@@$1?IID_IPropertyNotifySink@@3U_GUID@@BVCComDynamicUnkArray@ATL@@@ATL@@UAGJABU_GUID@@PAPAX@Z 100234a0 f i CoinAcceptor.obj
 0001:00022540       ?atlCreate@?$CWindowImpl@VCOPOSCoinAcceptor@@VCWindow@ATL@@V?$CWinTraits@$0FGAAAAAA@$0A@@3@@ATL@@QAEPAUHWND__@@PAU3@V_U_RECT@2@PB_WKKV_U_MENUorID@2@PAX@Z 10023540 f i CoinAcceptor.obj
 0001:000225f0       ?atlCreate@?$CWindowImplBaseT@VCWindow@ATL@@V?$CWinTraits@$0FGAAAAAA@$0A@@2@@ATL@@QAEPAUHWND__@@PAU3@V_U_RECT@2@PB_WKKV_U_MENUorID@2@GPAX@Z 100235f0 f i CoinAcceptor.obj
 0001:00022770       ?atlCreate@CRegKey@ATL@@QAEJPAUHKEY__@@PB_WPA_WKKPAU_SECURITY_ATTRIBUTES@@PAK@Z 10023770 f i CoinAcceptor.obj
 0001:000228d0       ?begin@CComDynamicUnkArray@ATL@@QAEPAPAUIUnknown@@XZ 100238d0 f i CoinAcceptor.obj
 0001:000228f0       ?copy@?$_Copy@UtagCONNECTDATA@@@ATL@@SAJPAUtagCONNECTDATA@@PBU3@@Z 100238f0 f i CoinAcceptor.obj
 0001:000229b0       ?copy@?$_CopyInterface@UIConnectionPoint@@@ATL@@SAJPAPAUIConnectionPoint@@PBQAU3@@Z 100239b0 f i CoinAcceptor.obj
 0001:00022a70       ?destroy@?$_Copy@UtagCONNECTDATA@@@ATL@@SAXPAUtagCONNECTDATA@@@Z 10023a70 f i CoinAcceptor.obj
 0001:00022ab0       ?destroy@?$_CopyInterface@UIConnectionPoint@@@ATL@@SAXPAPAUIConnectionPoint@@@Z 10023ab0 f i CoinAcceptor.obj
 0001:00022af0       ?end@CComDynamicUnkArray@ATL@@QAEPAPAUIUnknown@@XZ 10023af0 f i CoinAcceptor.obj
 0001:00022b10       ?init@?$_Copy@UtagCONNECTDATA@@@ATL@@SAXPAUtagCONNECTDATA@@@Z 10023b10 f i CoinAcceptor.obj
 0001:00022b20       ?init@?$_CopyInterface@UIConnectionPoint@@@ATL@@SAXPAPAUIConnectionPoint@@@Z 10023b20 f i CoinAcceptor.obj
 0001:00022b30       ?memcpy_s@Checked@ATL@@YAXPAXIPBXI@Z 10023b30 f i CoinAcceptor.obj
 0001:00022b60       ?ocscpy_s@@YA_NPA_WIPB_W@Z 10023b60 f i CoinAcceptor.obj
 0001:00022bc0       ?ocslen@@YAHPB_W@Z         10023bc0 f i CoinAcceptor.obj
 0001:00022bf0       ?tcsncpy_s@Checked@ATL@@YAHPA_WIPB_WI@Z 10023bf0 f i CoinAcceptor.obj
 0001:00022c20       ?wcscat_s@Checked@ATL@@YAXPA_WIPB_W@Z 10023c20 f i CoinAcceptor.obj
 0001:00022c50       ?wcscpy_s@Checked@ATL@@YAXPA_WIPB_W@Z 10023c50 f i CoinAcceptor.obj
 0001:00022c80       ?wcsncpy_s@Checked@ATL@@YAHPA_WIPB_WI@Z 10023c80 f i CoinAcceptor.obj
 0001:00022cb0       ?wcsstr@@YAPA_WPA_WPB_W@Z  10023cb0 f i CoinAcceptor.obj
 0001:00022cd0       _InlineIsEqualGUID         10023cd0 f i CoinAcceptor.obj
 0001:00022d70       _IsEqualGUID               10023d70 f i CoinAcceptor.obj
 0001:00022dc0       ??0COPOSCoinAcceptor@@QAE@XZ 10023dc0 f   CoinAcceptorImpl.obj
 0001:00022ed0       ?FinalConstruct@COPOSCoinAcceptor@@QAEJXZ 10023ed0 f   CoinAcceptorImpl.obj
 0001:00022fa0       ??1COPOSCoinAcceptor@@UAE@XZ 10023fa0 f   CoinAcceptorImpl.obj
 0001:00023080       ?WriteTrace@COPOSCoinAcceptor@@QAAXPB_WZZ 10024080 f   CoinAcceptorImpl.obj
 0001:00023130       ?WriteTraceString@COPOSCoinAcceptor@@QAEXPB_WPA_W@Z 10024130 f   CoinAcceptorImpl.obj
 0001:000234a0       ?WriteTraceString@COPOSCoinAcceptor@@QAAXPAXHHHPB_WZZ 100244a0 f   CoinAcceptorImpl.obj
 0001:000236d0       ?WriteTraceError@COPOSCoinAcceptor@@QAEXPB_WK@Z 100246d0 f   CoinAcceptorImpl.obj
 0001:000237c0       ?WriteTraceMethods@COPOSCoinAcceptor@@QAEXPAJH@Z 100247c0 f   CoinAcceptorImpl.obj
 0001:00023830       ?GetOposProp@COPOSCoinAcceptor@@IAEJPBDJPAJJ@Z 10024830 f   CoinAcceptorImpl.obj
 0001:00023aa0       ?SetOposProp@COPOSCoinAcceptor@@IAEJPBDJJJ@Z 10024aa0 f   CoinAcceptorImpl.obj
 0001:00023d30       ?GetOposProp@COPOSCoinAcceptor@@IAEJPBDJPAFJ@Z 10024d30 f   CoinAcceptorImpl.obj
 0001:00023dd0       ?SetOposProp@COPOSCoinAcceptor@@IAEJPBDJFJ@Z 10024dd0 f   CoinAcceptorImpl.obj
 0001:00023e30       ?GetOposProp@COPOSCoinAcceptor@@IAEJPBDJPAPA_WJ@Z 10024e30 f   CoinAcceptorImpl.obj
 0001:000240b0       ?SetOposProp@COPOSCoinAcceptor@@IAEJPBDJPA_WJ@Z 100250b0 f   CoinAcceptorImpl.obj
 0001:000243f0       ?DoInvoke@COPOSCoinAcceptor@@IAEJPBDJPAVOposVariant@@IHPAJ_N@Z 100253f0 f   CoinAcceptorImpl.obj
 0001:00024d30       ?SetCOFreezeEvents@COPOSCoinAcceptor@@IAEXF@Z 10025d30 f   CoinAcceptorImpl.obj
 0001:00024e70       ?FreezeEvents@COPOSCoinAcceptor@@MAGJH@Z 10025e70 f   CoinAcceptorImpl.obj
 0001:00024f50       ?OnDraw@COPOSCoinAcceptor@@MAEJAAUATL_DRAWINFO@@@Z 10025f50 f   CoinAcceptorImpl.obj
 0001:000250f0       ?SOProcessID@COPOSCoinAcceptor@@UAGJPAJ@Z 100260f0 f   CoinAcceptorImpl.obj
 0001:00025130       ?get_OpenResult@COPOSCoinAcceptor@@UAGJPAJ@Z 10026130 f   CoinAcceptorImpl.obj
 0001:00025170       ?get_BinaryConversion@COPOSCoinAcceptor@@UAGJPAJ@Z 10026170 f   CoinAcceptorImpl.obj
 0001:000251a0       ?put_BinaryConversion@COPOSCoinAcceptor@@UAGJJ@Z 100261a0 f   CoinAcceptorImpl.obj
 0001:000251d0       ?get_CapPowerReporting@COPOSCoinAcceptor@@UAGJPAJ@Z 100261d0 f   CoinAcceptorImpl.obj
 0001:00025200       ?get_CheckHealthText@COPOSCoinAcceptor@@UAGJPAPA_W@Z 10026200 f   CoinAcceptorImpl.obj
 0001:00025230       ?get_Claimed@COPOSCoinAcceptor@@UAGJPAF@Z 10026230 f   CoinAcceptorImpl.obj
 0001:00025260       ?get_DataCount@COPOSCoinAcceptor@@UAGJPAJ@Z 10026260 f   CoinAcceptorImpl.obj
 0001:00025290       ?get_DataEventEnabled@COPOSCoinAcceptor@@UAGJPAF@Z 10026290 f   CoinAcceptorImpl.obj
 0001:000252c0       ?put_DataEventEnabled@COPOSCoinAcceptor@@UAGJF@Z 100262c0 f   CoinAcceptorImpl.obj
 0001:000252f0       ?get_DeviceEnabled@COPOSCoinAcceptor@@UAGJPAF@Z 100262f0 f   CoinAcceptorImpl.obj
 0001:00025320       ?put_DeviceEnabled@COPOSCoinAcceptor@@UAGJF@Z 10026320 f   CoinAcceptorImpl.obj
 0001:00025350       ?get_FreezeEvents@COPOSCoinAcceptor@@UAGJPAF@Z 10026350 f   CoinAcceptorImpl.obj
 0001:00025380       ?put_FreezeEvents@COPOSCoinAcceptor@@UAGJF@Z 10026380 f   CoinAcceptorImpl.obj
 0001:00025410       ?get_PowerNotify@COPOSCoinAcceptor@@UAGJPAJ@Z 10026410 f   CoinAcceptorImpl.obj
 0001:00025440       ?put_PowerNotify@COPOSCoinAcceptor@@UAGJJ@Z 10026440 f   CoinAcceptorImpl.obj
 0001:00025470       ?get_PowerState@COPOSCoinAcceptor@@UAGJPAJ@Z 10026470 f   CoinAcceptorImpl.obj
 0001:000254a0       ?get_ResultCode@COPOSCoinAcceptor@@UAGJPAJ@Z 100264a0 f   CoinAcceptorImpl.obj
 0001:00025530       ?get_ResultCodeExtended@COPOSCoinAcceptor@@UAGJPAJ@Z 10026530 f   CoinAcceptorImpl.obj
 0001:00025560       ?get_State@COPOSCoinAcceptor@@UAGJPAJ@Z 10026560 f   CoinAcceptorImpl.obj
 0001:000255b0       ?get_ControlObjectDescription@COPOSCoinAcceptor@@UAGJPAPA_W@Z 100265b0 f   CoinAcceptorImpl.obj
 0001:00025630       ?get_ControlObjectVersion@COPOSCoinAcceptor@@UAGJPAJ@Z 10026630 f   CoinAcceptorImpl.obj
 0001:00025670       ?get_ServiceObjectDescription@COPOSCoinAcceptor@@UAGJPAPA_W@Z 10026670 f   CoinAcceptorImpl.obj
 0001:000256a0       ?get_ServiceObjectVersion@COPOSCoinAcceptor@@UAGJPAJ@Z 100266a0 f   CoinAcceptorImpl.obj
 0001:000256d0       ?get_DeviceDescription@COPOSCoinAcceptor@@UAGJPAPA_W@Z 100266d0 f   CoinAcceptorImpl.obj
 0001:00025700       ?get_DeviceName@COPOSCoinAcceptor@@UAGJPAPA_W@Z 10026700 f   CoinAcceptorImpl.obj
 0001:00025730       ?get_CapStatisticsReporting@COPOSCoinAcceptor@@UAGJPAF@Z 10026730 f   CoinAcceptorImpl.obj
 0001:00025760       ?get_CapUpdateStatistics@COPOSCoinAcceptor@@UAGJPAF@Z 10026760 f   CoinAcceptorImpl.obj
 0001:00025790       ?get_CapCompareFirmwareVersion@COPOSCoinAcceptor@@UAGJPAF@Z 10026790 f   CoinAcceptorImpl.obj
 0001:000257c0       ?get_CapUpdateFirmware@COPOSCoinAcceptor@@UAGJPAF@Z 100267c0 f   CoinAcceptorImpl.obj
 0001:000257f0       ?CheckHealth@COPOSCoinAcceptor@@UAGJJPAJ@Z 100267f0 f   CoinAcceptorImpl.obj
 0001:00025890       ?ClaimDevice@COPOSCoinAcceptor@@UAGJJPAJ@Z 10026890 f   CoinAcceptorImpl.obj
 0001:00025970       ?ClearInput@COPOSCoinAcceptor@@UAGJPAJ@Z 10026970 f   CoinAcceptorImpl.obj
 0001:000259a0       ?Close@COPOSCoinAcceptor@@UAGJPAJ@Z 100269a0 f   CoinAcceptorImpl.obj
 0001:00025a70       ?DirectIO@COPOSCoinAcceptor@@UAGJJPAJPAPA_W0@Z 10026a70 f   CoinAcceptorImpl.obj
 0001:00025b80       ?Open@COPOSCoinAcceptor@@UAGJPA_WPAJ@Z 10026b80 f   CoinAcceptorImpl.obj
 0001:00026d70       ?ReleaseDevice@COPOSCoinAcceptor@@UAGJPAJ@Z 10027d70 f   CoinAcceptorImpl.obj
 0001:00026de0       ?ResetStatistics@COPOSCoinAcceptor@@UAGJPA_WPAJ@Z 10027de0 f   CoinAcceptorImpl.obj
 0001:00026e90       ?RetrieveStatistics@COPOSCoinAcceptor@@UAGJPAPA_WPAJ@Z 10027e90 f   CoinAcceptorImpl.obj
 0001:00026f40       ?UpdateStatistics@COPOSCoinAcceptor@@UAGJPA_WPAJ@Z 10027f40 f   CoinAcceptorImpl.obj
 0001:00026ff0       ?CompareFirmwareVersion@COPOSCoinAcceptor@@UAGJPA_WPAJ1@Z 10027ff0 f   CoinAcceptorImpl.obj
 0001:000270e0       ?UpdateFirmware@COPOSCoinAcceptor@@UAGJPA_WPAJ@Z 100280e0 f   CoinAcceptorImpl.obj
 0001:00027190       ?get_CapDiscrepancy@COPOSCoinAcceptor@@UAGJPAF@Z 10028190 f   CoinAcceptorImpl.obj
 0001:000271c0       ?get_CapFullSensor@COPOSCoinAcceptor@@UAGJPAF@Z 100281c0 f   CoinAcceptorImpl.obj
 0001:000271f0       ?get_CapJamSensor@COPOSCoinAcceptor@@UAGJPAF@Z 100281f0 f   CoinAcceptorImpl.obj
 0001:00027220       ?get_CapNearFullSensor@COPOSCoinAcceptor@@UAGJPAF@Z 10028220 f   CoinAcceptorImpl.obj
 0001:00027250       ?get_CapPauseDeposit@COPOSCoinAcceptor@@UAGJPAF@Z 10028250 f   CoinAcceptorImpl.obj
 0001:00027280       ?get_CapRealTimeData@COPOSCoinAcceptor@@UAGJPAF@Z 10028280 f   CoinAcceptorImpl.obj
 0001:000272b0       ?get_CurrencyCode@COPOSCoinAcceptor@@UAGJPAPA_W@Z 100282b0 f   CoinAcceptorImpl.obj
 0001:000272e0       ?put_CurrencyCode@COPOSCoinAcceptor@@UAGJPA_W@Z 100282e0 f   CoinAcceptorImpl.obj
 0001:00027310       ?get_DepositAmount@COPOSCoinAcceptor@@UAGJPAJ@Z 10028310 f   CoinAcceptorImpl.obj
 0001:00027340       ?get_DepositCashList@COPOSCoinAcceptor@@UAGJPAPA_W@Z 10028340 f   CoinAcceptorImpl.obj
 0001:00027370       ?get_DepositCodeList@COPOSCoinAcceptor@@UAGJPAPA_W@Z 10028370 f   CoinAcceptorImpl.obj
 0001:000273a0       ?get_DepositCounts@COPOSCoinAcceptor@@UAGJPAPA_W@Z 100283a0 f   CoinAcceptorImpl.obj
 0001:000273d0       ?get_DepositStatus@COPOSCoinAcceptor@@UAGJPAJ@Z 100283d0 f   CoinAcceptorImpl.obj
 0001:00027400       ?get_FullStatus@COPOSCoinAcceptor@@UAGJPAJ@Z 10028400 f   CoinAcceptorImpl.obj
 0001:00027430       ?get_RealTimeDataEnabled@COPOSCoinAcceptor@@UAGJPAF@Z 10028430 f   CoinAcceptorImpl.obj
 0001:00027460       ?AdjustCashCounts@COPOSCoinAcceptor@@UAGJPA_WPAJ@Z 10028460 f   CoinAcceptorImpl.obj
 0001:00027510       ?BeginDeposit@COPOSCoinAcceptor@@UAGJPAJ@Z 10028510 f   CoinAcceptorImpl.obj
 0001:00027540       ?EndDeposit@COPOSCoinAcceptor@@UAGJJPAJ@Z 10028540 f   CoinAcceptorImpl.obj
 0001:000275e0       ?FixDeposit@COPOSCoinAcceptor@@UAGJPAJ@Z 100285e0 f   CoinAcceptorImpl.obj
 0001:00027610       ?PauseDeposit@COPOSCoinAcceptor@@UAGJJPAJ@Z 10028610 f   CoinAcceptorImpl.obj
 0001:000276b0       ?ReadCashCounts@COPOSCoinAcceptor@@UAGJPAPA_WPAFPAJ@Z 100286b0 f   CoinAcceptorImpl.obj
 0001:000277a0       ??0?$CComControl@VCOPOSCoinAcceptor@@V?$CWindowImpl@VCOPOSCoinAcceptor@@VCWindow@ATL@@V?$CWinTraits@$0FGAAAAAA@$0A@@3@@ATL@@@ATL@@QAE@XZ 100287a0 f i CoinAcceptorImpl.obj
 0001:000277e0       ??0?$CComPtr@UIAdviseSink@@@ATL@@QAE@XZ 100287e0 f i CoinAcceptorImpl.obj
 0001:00027810       ??0?$CComPtr@UIDataAdviseHolder@@@ATL@@QAE@XZ 10028810 f i CoinAcceptorImpl.obj
 0001:00027840       ??0?$CComPtr@UIOleAdviseHolder@@@ATL@@QAE@XZ 10028840 f i CoinAcceptorImpl.obj
 0001:00027870       ??0?$CComPtr@UIOleClientSite@@@ATL@@QAE@XZ 10028870 f i CoinAcceptorImpl.obj
 0001:000278a0       ??0?$CComPtr@UIOleInPlaceSiteWindowless@@@ATL@@QAE@XZ 100288a0 f i CoinAcceptorImpl.obj
 0001:000278d0       ??0?$CComPtrBase@UIAdviseSink@@@ATL@@IAE@XZ 100288d0 f i CoinAcceptorImpl.obj
 0001:000278f0       ??0?$CComPtrBase@UIDataAdviseHolder@@@ATL@@IAE@XZ 100288f0 f i CoinAcceptorImpl.obj
 0001:00027910       ??0?$CComPtrBase@UIOleAdviseHolder@@@ATL@@IAE@XZ 10028910 f i CoinAcceptorImpl.obj
 0001:00027930       ??0?$CComPtrBase@UIOleClientSite@@@ATL@@IAE@XZ 10028930 f i CoinAcceptorImpl.obj
 0001:00027950       ??0?$CComPtrBase@UIOleInPlaceSiteWindowless@@@ATL@@IAE@XZ 10028950 f i CoinAcceptorImpl.obj
 0001:00027970       ??0?$CComQIPtr@UIDispatch@@$1?_GUID_00020400_0000_0000_c000_000000000046@@3U__s_GUID@@B@ATL@@QAE@XZ 10028970 f i CoinAcceptorImpl.obj
 0001:000279a0       ??0?$CProxy_IOPOSEvents@VCOPOSCoinAcceptor@@@@QAE@PAVCOPOSCoinAcceptor@@@Z 100289a0 f i CoinAcceptorImpl.obj
 0001:00027a00       ??0?$CWindowImpl@VCOPOSCoinAcceptor@@VCWindow@ATL@@V?$CWinTraits@$0FGAAAAAA@$0A@@3@@ATL@@QAE@XZ 10028a00 f i CoinAcceptorImpl.obj
 0001:00027a30       ??0?$CWindowImplBaseT@VCWindow@ATL@@V?$CWinTraits@$0FGAAAAAA@$0A@@2@@ATL@@QAE@XZ 10028a30 f i CoinAcceptorImpl.obj
 0001:00027a70       ??0?$CWindowImplRoot@VCWindow@ATL@@@ATL@@QAE@XZ 10028a70 f i CoinAcceptorImpl.obj
 0001:00027ad0       ??0?$IConnectionPointContainerImpl@VCOPOSCoinAcceptor@@@ATL@@QAE@XZ 10028ad0 f i CoinAcceptorImpl.obj
 0001:00027b00       ??0?$IConnectionPointImpl@VCOPOSCoinAcceptor@@$1?DIID__IOPOSCoinAcceptorEvents@@3U_GUID@@BVCComDynamicUnkArray@ATL@@@ATL@@QAE@XZ 10028b00 f i CoinAcceptorImpl.obj
 0001:00027b40       ??0?$IConnectionPointImpl@VCOPOSCoinAcceptor@@$1?IID_IPropertyNotifySink@@3U_GUID@@BVCComDynamicUnkArray@ATL@@@ATL@@QAE@XZ 10028b40 f i CoinAcceptorImpl.obj
 0001:00027b80       ??0?$IDataObjectImpl@VCOPOSCoinAcceptor@@@ATL@@QAE@XZ 10028b80 f i CoinAcceptorImpl.obj
 0001:00027bb0       ??0?$IDispatchImpl@UIOPOSCoinAcceptor@@$1?IID_IOPOSCoinAcceptor@@3U_GUID@@B$1?LIBID_OposCoinAcceptor_CCO@@3U3@B$00$0A@VCComTypeInfoHolder@ATL@@@ATL@@QAE@XZ 10028bb0 f i CoinAcceptorImpl.obj
 0001:00027be0       ??0?$IObjectSafetyImpl@VCOPOSCoinAcceptor@@$02@ATL@@QAE@XZ 10028be0 f i CoinAcceptorImpl.obj
 0001:00027c20       ??0?$IOleControlImpl@VCOPOSCoinAcceptor@@@ATL@@QAE@XZ 10028c20 f i CoinAcceptorImpl.obj
 0001:00027c50       ??0?$IOleInPlaceActiveObjectImpl@VCOPOSCoinAcceptor@@@ATL@@QAE@XZ 10028c50 f i CoinAcceptorImpl.obj
 0001:00027c80       ??0?$IOleInPlaceObjectWindowlessImpl@VCOPOSCoinAcceptor@@@ATL@@QAE@XZ 10028c80 f i CoinAcceptorImpl.obj
 0001:00027cb0       ??0?$IOleObjectImpl@VCOPOSCoinAcceptor@@@ATL@@QAE@XZ 10028cb0 f i CoinAcceptorImpl.obj
 0001:00027ce0       ??0?$IPersistStorageImpl@VCOPOSCoinAcceptor@@@ATL@@QAE@XZ 10028ce0 f i CoinAcceptorImpl.obj
 0001:00027d10       ??0?$IPersistStreamInitImpl@VCOPOSCoinAcceptor@@@ATL@@QAE@XZ 10028d10 f i CoinAcceptorImpl.obj
 0001:00027d40       ??0?$IPropertyNotifySinkCP@VCOPOSCoinAcceptor@@VCComDynamicUnkArray@ATL@@@ATL@@QAE@XZ 10028d40 f i CoinAcceptorImpl.obj
 0001:00027d70       ??0?$IProvideClassInfo2Impl@$1?CLSID_OPOSCoinAcceptor@@3U_GUID@@B$1?DIID__IOPOSCoinAcceptorEvents@@3U2@B$1?LIBID_OposCoinAcceptor_CCO@@3U2@B$00$0A@VCComTypeInfoHolder@ATL@@@ATL@@QAE@XZ 10028d70 f i CoinAcceptorImpl.obj
 0001:00027da0       ??0?$IQuickActivateImpl@VCOPOSCoinAcceptor@@@ATL@@QAE@XZ 10028da0 f i CoinAcceptorImpl.obj
 0001:00027dd0       ??0?$ISpecifyPropertyPagesImpl@VCOPOSCoinAcceptor@@@ATL@@QAE@XZ 10028dd0 f i CoinAcceptorImpl.obj
 0001:00027e00       ??0?$IViewObjectExImpl@VCOPOSCoinAcceptor@@@ATL@@QAE@XZ 10028e00 f i CoinAcceptorImpl.obj
 0001:00027e30       ??0?$_ICPLocator@$1?DIID__IOPOSCoinAcceptorEvents@@3U_GUID@@B@ATL@@QAE@XZ 10028e30 f i CoinAcceptorImpl.obj
 0001:00027e50       ??0?$_ICPLocator@$1?IID_IPropertyNotifySink@@3U_GUID@@B@ATL@@QAE@XZ 10028e50 f i CoinAcceptorImpl.obj
 0001:00027e70       ??0CComControlBase@ATL@@QAE@AAPAUHWND__@@@Z 10028e70 f i CoinAcceptorImpl.obj
 0001:00028020       ??0CComDynamicUnkArray@ATL@@QAE@XZ 10029020 f i CoinAcceptorImpl.obj
 0001:00028050       ??0CDynamicStdCallThunk2@ATL@@QAE@XZ 10029050 f i CoinAcceptorImpl.obj
 0001:00028070       ??0CMessageMap@ATL@@QAE@XZ 10029070 f i CoinAcceptorImpl.obj
 0001:00028090       ??0CWindow@ATL@@QAE@PAUHWND__@@@Z 10029090 f i CoinAcceptorImpl.obj
 0001:000280b0       ??0CWndProcThunk@ATL@@QAE@XZ 100290b0 f i CoinAcceptorImpl.obj
 0001:000280e0       ??0IConnectionPointContainer@@QAE@XZ 100290e0 f i CoinAcceptorImpl.obj
 0001:00028110       ??0IDataObject@@QAE@XZ     10029110 f i CoinAcceptorImpl.obj
 0001:00028140       ??0IDispatch@@QAE@XZ       10029140 f i CoinAcceptorImpl.obj
 0001:00028170       ??0IOPOSCoinAcceptor@@QAE@XZ 10029170 f i CoinAcceptorImpl.obj
 0001:000281a0       ??0IOPOSCoinAcceptor_1_11@@QAE@XZ 100291a0 f i CoinAcceptorImpl.obj
 0001:000281d0       ??0IObjectSafety@@QAE@XZ   100291d0 f i CoinAcceptorImpl.obj
 0001:00028200       ??0IOleControl@@QAE@XZ     10029200 f i CoinAcceptorImpl.obj
 0001:00028230       ??0IOleInPlaceActiveObject@@QAE@XZ 10029230 f i CoinAcceptorImpl.obj
 0001:00028260       ??0IOleInPlaceObject@@QAE@XZ 10029260 f i CoinAcceptorImpl.obj
 0001:00028290       ??0IOleInPlaceObjectWindowless@@QAE@XZ 10029290 f i CoinAcceptorImpl.obj
 0001:000282c0       ??0IOleObject@@QAE@XZ      100292c0 f i CoinAcceptorImpl.obj
 0001:000282f0       ??0IOleWindow@@QAE@XZ      100292f0 f i CoinAcceptorImpl.obj
 0001:00028320       ??0IPersist@@QAE@XZ        10029320 f i CoinAcceptorImpl.obj
 0001:00028350       ??0IPersistStorage@@QAE@XZ 10029350 f i CoinAcceptorImpl.obj
 0001:00028380       ??0IPersistStreamInit@@QAE@XZ 10029380 f i CoinAcceptorImpl.obj
 0001:000283b0       ??0IProvideClassInfo2@@QAE@XZ 100293b0 f i CoinAcceptorImpl.obj
 0001:000283e0       ??0IProvideClassInfo@@QAE@XZ 100293e0 f i CoinAcceptorImpl.obj
 0001:00028410       ??0IQuickActivate@@QAE@XZ  10029410 f i CoinAcceptorImpl.obj
 0001:00028440       ??0ISpecifyPropertyPages@@QAE@XZ 10029440 f i CoinAcceptorImpl.obj
 0001:00028470       ??0IViewObject2@@QAE@XZ    10029470 f i CoinAcceptorImpl.obj
 0001:000284a0       ??0IViewObject@@QAE@XZ     100294a0 f i CoinAcceptorImpl.obj
 0001:000284d0       ??0IViewObjectEx@@QAE@XZ   100294d0 f i CoinAcceptorImpl.obj
 0001:00028500       ??0OposVariantResult@@QAE@XZ 10029500 f i CoinAcceptorImpl.obj
 0001:00028530       ??0_CW@@QAE@PBD@Z          10029530 f i CoinAcceptorImpl.obj
 0001:00028570       ??0_CW@@QAE@PB_W@Z         10029570 f i CoinAcceptorImpl.obj
 0001:000285b0       ??0_CWNCC@@QAE@PBD@Z       100295b0 f i CoinAcceptorImpl.obj
 0001:000285e0       ??1?$CComControl@VCOPOSCoinAcceptor@@V?$CWindowImpl@VCOPOSCoinAcceptor@@VCWindow@ATL@@V?$CWinTraits@$0FGAAAAAA@$0A@@3@@ATL@@@ATL@@UAE@XZ 100295e0 f i CoinAcceptorImpl.obj
 0001:00028610       ??1?$CComPtr@UIDataAdviseHolder@@@ATL@@QAE@XZ 10029610 f i CoinAcceptorImpl.obj
 0001:00028640       ??1?$CComPtr@UIOleAdviseHolder@@@ATL@@QAE@XZ 10029640 f i CoinAcceptorImpl.obj
 0001:00028670       ??1?$CComPtr@UIOleInPlaceSiteWindowless@@@ATL@@QAE@XZ 10029670 f i CoinAcceptorImpl.obj
 0001:000286a0       ??1?$CComPtrBase@UIDataAdviseHolder@@@ATL@@QAE@XZ 100296a0 f i CoinAcceptorImpl.obj
 0001:000286f0       ??1?$CComPtrBase@UIOleAdviseHolder@@@ATL@@QAE@XZ 100296f0 f i CoinAcceptorImpl.obj
 0001:00028740       ??1?$CComPtrBase@UIOleInPlaceSiteWindowless@@@ATL@@QAE@XZ 10029740 f i CoinAcceptorImpl.obj
 0001:00028790       ??1?$CComQIPtr@UIDispatch@@$1?_GUID_00020400_0000_0000_c000_000000000046@@3U__s_GUID@@B@ATL@@QAE@XZ 10029790 f i CoinAcceptorImpl.obj
 0001:000287c0       ??1?$CProxy_IOPOSEvents@VCOPOSCoinAcceptor@@@@QAE@XZ 100297c0 f i CoinAcceptorImpl.obj
 0001:000287f0       ??1?$CWindowImpl@VCOPOSCoinAcceptor@@VCWindow@ATL@@V?$CWinTraits@$0FGAAAAAA@$0A@@3@@ATL@@UAE@XZ 100297f0 f i CoinAcceptorImpl.obj
 0001:00028820       ??1?$CWindowImplBaseT@VCWindow@ATL@@V?$CWinTraits@$0FGAAAAAA@$0A@@2@@ATL@@UAE@XZ 10029820 f i CoinAcceptorImpl.obj
 0001:00028850       ??1?$CWindowImplRoot@VCWindow@ATL@@@ATL@@UAE@XZ 10029850 f i CoinAcceptorImpl.obj
 0001:000288f0       ??1?$IConnectionPointImpl@VCOPOSCoinAcceptor@@$1?DIID__IOPOSCoinAcceptorEvents@@3U_GUID@@BVCComDynamicUnkArray@ATL@@@ATL@@QAE@XZ 100298f0 f i CoinAcceptorImpl.obj
 0001:00028970       ??1?$IConnectionPointImpl@VCOPOSCoinAcceptor@@$1?IID_IPropertyNotifySink@@3U_GUID@@BVCComDynamicUnkArray@ATL@@@ATL@@QAE@XZ 10029970 f i CoinAcceptorImpl.obj
 0001:000289f0       ??1?$IPropertyNotifySinkCP@VCOPOSCoinAcceptor@@VCComDynamicUnkArray@ATL@@@ATL@@QAE@XZ 100299f0 f i CoinAcceptorImpl.obj
 0001:00028a20       ??1CComControlBase@ATL@@UAE@XZ 10029a20 f i CoinAcceptorImpl.obj
 0001:00028ae0       ??1CComDynamicUnkArray@ATL@@QAE@XZ 10029ae0 f i CoinAcceptorImpl.obj
 0001:00028b20       ??1CDynamicStdCallThunk2@ATL@@QAE@XZ 10029b20 f i CoinAcceptorImpl.obj
 0001:00028b50       ??1CWndProcThunk@ATL@@QAE@XZ 10029b50 f i CoinAcceptorImpl.obj
 0001:00028b80       ??1OposVariantResult@@QAE@XZ 10029b80 f i CoinAcceptorImpl.obj
 0001:00028bb0       ??1_CW@@QAE@XZ             10029bb0 f i CoinAcceptorImpl.obj
 0001:00028c20       ??1_CWNCC@@QAE@XZ          10029c20 f i CoinAcceptorImpl.obj
 0001:00028c50       ??B_CW@@QAEPB_WXZ          10029c50 f i CoinAcceptorImpl.obj
 0001:00028c90       ??B_CWNCC@@QAEPA_WXZ       10029c90 f i CoinAcceptorImpl.obj
 0001:00028cc0       ??_EOposVariant@@QAEPAXI@Z 10029cc0 f i CoinAcceptorImpl.obj
 0001:00028d50       ?EventClaim@COPOSCoinAcceptor@@IAEXXZ 10029d50 f i CoinAcceptorImpl.obj
 0001:00028d90       ?EventClose@COPOSCoinAcceptor@@IAEXXZ 10029d90 f i CoinAcceptorImpl.obj
 0001:00028e30       ?EventInit@COPOSCoinAcceptor@@IAEJXZ 10029e30 f i CoinAcceptorImpl.obj
 0001:00029060       ?EventOpen@COPOSCoinAcceptor@@IAEXXZ 1002a060 f i CoinAcceptorImpl.obj
 0001:000290a0       ?EventPreCloseRelease@COPOSCoinAcceptor@@IAEXXZ 1002a0a0 f i CoinAcceptorImpl.obj
 0001:00029120       ?EventUninit@COPOSCoinAcceptor@@IAEXXZ 1002a120 f i CoinAcceptorImpl.obj
 0001:00029250       ?EventWindowProc@COPOSCoinAcceptor@@IAGJIIJ@Z 1002a250 f i CoinAcceptorImpl.obj
 0001:00029370       ?FireEventCleanup@COPOSCoinAcceptor@@IAEXXZ 1002a370 f i CoinAcceptorImpl.obj
 0001:000293c0       ?FireEventSetup@COPOSCoinAcceptor@@IAE_NXZ 1002a3c0 f i CoinAcceptorImpl.obj
 0001:00029430       ?GetModuleInstance@CComModule@ATL@@QAEPAUHINSTANCE__@@XZ 1002a430 f i CoinAcceptorImpl.obj
 0001:00029450       ?SetRC@COPOSCoinAcceptor@@IAEJJ@Z 1002a450 f i CoinAcceptorImpl.obj
 0001:00029480       ?s_EventWindowProc@COPOSCoinAcceptor@@KGJPAUHWND__@@IIJ@Z 1002a480 f i CoinAcceptorImpl.obj
 0001:00029520       __snwprintf                1002a520 f i CoinAcceptorImpl.obj
 0001:00029580       __vfwprintf_l              1002a580 f i CoinAcceptorImpl.obj
 0001:000295b0       __vsnwprintf               1002a5b0 f i CoinAcceptorImpl.obj
 0001:000295e0       __vsnwprintf_l             1002a5e0 f i CoinAcceptorImpl.obj
 0001:00029650       _vfwprintf                 1002a650 f i CoinAcceptorImpl.obj
 0001:00029672       _DebugBreak@0              1002a672 f   kernel32:KERNEL32.dll
 0001:00029678       _Sleep@4                   1002a678 f   kernel32:KERNEL32.dll
 0001:0002967e       _GetCurrentProcess@0       1002a67e f   kernel32:KERNEL32.dll
 0001:00029684       _TerminateProcess@8        1002a684 f   kernel32:KERNEL32.dll
 0001:0002968a       _MultiByteToWideChar@24    1002a68a f   kernel32:KERNEL32.dll
 0001:00029690       _WideCharToMultiByte@32    1002a690 f   kernel32:KERNEL32.dll
 0001:00029696       _DecodePointer@4           1002a696 f   kernel32:KERNEL32.dll
 0001:0002969c       _RaiseException@16         1002a69c f   kernel32:KERNEL32.dll
 0001:000296a2       _GetLastError@0            1002a6a2 f   kernel32:KERNEL32.dll
 0001:000296a8       _SetLastError@4            1002a6a8 f   kernel32:KERNEL32.dll
 0001:000296ae       _InitializeCriticalSectionEx@12 1002a6ae f   kernel32:KERNEL32.dll
 0001:000296b4       _DeleteCriticalSection@4   1002a6b4 f   kernel32:KERNEL32.dll
 0001:000296ba       _EncodePointer@4           1002a6ba f   kernel32:KERNEL32.dll
 0001:000296c0       _EnterCriticalSection@4    1002a6c0 f   kernel32:KERNEL32.dll
 0001:000296c6       _LeaveCriticalSection@4    1002a6c6 f   kernel32:KERNEL32.dll
 0001:000296cc       _ResetEvent@4              1002a6cc f   kernel32:KERNEL32.dll
 0001:000296d2       _ReleaseMutex@4            1002a6d2 f   kernel32:KERNEL32.dll
 0001:000296d8       _WaitForSingleObject@8     1002a6d8 f   kernel32:KERNEL32.dll
 0001:000296de       _GetCurrentThreadId@0      1002a6de f   kernel32:KERNEL32.dll
 0001:000296e4       _DisableThreadLibraryCalls@4 1002a6e4 f   kernel32:KERNEL32.dll
 0001:000296ea       _FreeLibrary@4             1002a6ea f   kernel32:KERNEL32.dll
 0001:000296f0       _GetModuleFileNameW@12     1002a6f0 f   kernel32:KERNEL32.dll
 0001:000296f6       _GetModuleHandleW@4        1002a6f6 f   kernel32:KERNEL32.dll
 0001:000296fc       _GetProcAddress@8          1002a6fc f   kernel32:KERNEL32.dll
 0001:00029702       _LoadLibraryExW@12         1002a702 f   kernel32:KERNEL32.dll
 0001:00029708       _LoadResource@8            1002a708 f   kernel32:KERNEL32.dll
 0001:0002970e       _SizeofResource@8          1002a70e f   kernel32:KERNEL32.dll
 0001:00029714       _GlobalAlloc@8             1002a714 f   kernel32:KERNEL32.dll
 0001:0002971a       _GlobalLock@4              1002a71a f   kernel32:KERNEL32.dll
 0001:00029720       _GlobalUnlock@4            1002a720 f   kernel32:KERNEL32.dll
 0001:00029726       _MulDiv@12                 1002a726 f   kernel32:KERNEL32.dll
 0001:0002972c       _lstrcmpiW@8               1002a72c f   kernel32:KERNEL32.dll
 0001:00029732       _FindResourceW@12          1002a732 f   kernel32:KERNEL32.dll
 0001:00029738       _DeleteFileW@4             1002a738 f   kernel32:KERNEL32.dll
 0001:0002973e       _CloseHandle@4             1002a73e f   kernel32:KERNEL32.dll
 0001:00029744       _SetEvent@4                1002a744 f   kernel32:KERNEL32.dll
 0001:0002974a       _CreateMutexW@12           1002a74a f   kernel32:KERNEL32.dll
 0001:00029750       _CreateEventW@16           1002a750 f   kernel32:KERNEL32.dll
 0001:00029756       _GetCurrentProcessId@0     1002a756 f   kernel32:KERNEL32.dll
 0001:0002975c       _LocalFree@4               1002a75c f   kernel32:KERNEL32.dll
 0001:00029762       _FormatMessageW@28         1002a762 f   kernel32:KERNEL32.dll
 0001:00029768       _GetActiveWindow@0         1002a768 f   user32:USER32.dll
 0001:0002976e       _MessageBoxW@16            1002a76e f   user32:USER32.dll
 0001:00029774       _UnregisterClassW@8        1002a774 f   user32:USER32.dll
 0001:0002977a       _PostMessageW@16           1002a77a f   user32:USER32.dll
 0001:00029780       _DefWindowProcW@16         1002a780 f   user32:USER32.dll
 0001:00029786       _CallWindowProcW@20        1002a786 f   user32:USER32.dll
 0001:0002978c       _RegisterClassExW@4        1002a78c f   user32:USER32.dll
 0001:00029792       _GetClassInfoExW@12        1002a792 f   user32:USER32.dll
 0001:00029798       _CreateWindowExW@48        1002a798 f   user32:USER32.dll
 0001:0002979e       _IsWindow@4                1002a79e f   user32:USER32.dll
 0001:000297a4       _IsChild@8                 1002a7a4 f   user32:USER32.dll
 0001:000297aa       _DestroyWindow@4           1002a7aa f   user32:USER32.dll
 0001:000297b0       _ShowWindow@8              1002a7b0 f   user32:USER32.dll
 0001:000297b6       _SetWindowPos@28           1002a7b6 f   user32:USER32.dll
 0001:000297bc       _CharNextW@4               1002a7bc f   user32:USER32.dll
 0001:000297c2       _SetFocus@4                1002a7c2 f   user32:USER32.dll
 0001:000297c8       _GetFocus@0                1002a7c8 f   user32:USER32.dll
 0001:000297ce       _GetKeyState@4             1002a7ce f   user32:USER32.dll
 0001:000297d4       _GetDC@4                   1002a7d4 f   user32:USER32.dll
 0001:000297da       _ReleaseDC@8               1002a7da f   user32:USER32.dll
 0001:000297e0       _BeginPaint@8              1002a7e0 f   user32:USER32.dll
 0001:000297e6       _EndPaint@8                1002a7e6 f   user32:USER32.dll
 0001:000297ec       _SetWindowRgn@12           1002a7ec f   user32:USER32.dll
 0001:000297f2       _InvalidateRect@12         1002a7f2 f   user32:USER32.dll
 0001:000297f8       _GetClientRect@8           1002a7f8 f   user32:USER32.dll
 0001:000297fe       _IntersectRect@12          1002a7fe f   user32:USER32.dll
 0001:00029804       _UnionRect@12              1002a804 f   user32:USER32.dll
 0001:0002980a       _OffsetRect@12             1002a80a f   user32:USER32.dll
 0001:00029810       _EqualRect@8               1002a810 f   user32:USER32.dll
 0001:00029816       _PtInRect@12               1002a816 f   user32:USER32.dll
 0001:0002981c       _GetWindowLongW@8          1002a81c f   user32:USER32.dll
 0001:00029822       _SetWindowLongW@12         1002a822 f   user32:USER32.dll
 0001:00029828       _GetParent@4               1002a828 f   user32:USER32.dll
 0001:0002982e       _LoadCursorW@8             1002a82e f   user32:USER32.dll
 0001:00029834       _PeekMessageW@20           1002a834 f   user32:USER32.dll
 0001:0002983a       _RegisterClassW@4          1002a83a f   user32:USER32.dll
 0001:00029840       _LoadBitmapW@8             1002a840 f   user32:USER32.dll
 0001:00029846       _CloseMetaFile@4           1002a846 f   gdi32:GDI32.dll
 0001:0002984c       _CreateDCW@16              1002a84c f   gdi32:GDI32.dll
 0001:00029852       _CreateMetaFileW@4         1002a852 f   gdi32:GDI32.dll
 0001:00029858       _CreateRectRgnIndirect@4   1002a858 f   gdi32:GDI32.dll
 0001:0002985e       _DeleteDC@4                1002a85e f   gdi32:GDI32.dll
 0001:00029864       _DeleteMetaFile@4          1002a864 f   gdi32:GDI32.dll
 0001:0002986a       _GetDeviceCaps@8           1002a86a f   gdi32:GDI32.dll
 0001:00029870       _RestoreDC@8               1002a870 f   gdi32:GDI32.dll
 0001:00029876       _SaveDC@4                  1002a876 f   gdi32:GDI32.dll
 0001:0002987c       _SetMapMode@8              1002a87c f   gdi32:GDI32.dll
 0001:00029882       _LPtoDP@12                 1002a882 f   gdi32:GDI32.dll
 0001:00029888       _SetViewportOrgEx@16       1002a888 f   gdi32:GDI32.dll
 0001:0002988e       _SetWindowExtEx@16         1002a88e f   gdi32:GDI32.dll
 0001:00029894       _SetWindowOrgEx@16         1002a894 f   gdi32:GDI32.dll
 0001:0002989a       _BitBlt@36                 1002a89a f   gdi32:GDI32.dll
 0001:000298a0       _CreateCompatibleDC@4      1002a8a0 f   gdi32:GDI32.dll
 0001:000298a6       _DeleteObject@4            1002a8a6 f   gdi32:GDI32.dll
 0001:000298ac       _SelectObject@8            1002a8ac f   gdi32:GDI32.dll
 0001:000298b2       _GetObjectW@12             1002a8b2 f   gdi32:GDI32.dll
 0001:000298b8       _RegCloseKey@4             1002a8b8 f   advapi32:ADVAPI32.dll
 0001:000298be       _RegCreateKeyExW@36        1002a8be f   advapi32:ADVAPI32.dll
 0001:000298c4       _RegDeleteKeyW@8           1002a8c4 f   advapi32:ADVAPI32.dll
 0001:000298ca       _RegDeleteValueW@8         1002a8ca f   advapi32:ADVAPI32.dll
 0001:000298d0       _RegEnumKeyExW@32          1002a8d0 f   advapi32:ADVAPI32.dll
 0001:000298d6       _RegOpenKeyExW@20          1002a8d6 f   advapi32:ADVAPI32.dll
 0001:000298dc       _RegQueryInfoKeyW@48       1002a8dc f   advapi32:ADVAPI32.dll
 0001:000298e2       _RegSetValueExW@24         1002a8e2 f   advapi32:ADVAPI32.dll
 0001:000298e8       _RegQueryValueExW@24       1002a8e8 f   advapi32:ADVAPI32.dll
 0001:000298ee       _CoCreateInstance@20       1002a8ee f   ole32:ole32.dll
 0001:000298f4       _StringFromGUID2@12        1002a8f4 f   ole32:ole32.dll
 0001:000298fa       _CoTaskMemAlloc@4          1002a8fa f   ole32:ole32.dll
 0001:00029900       _CoTaskMemRealloc@8        1002a900 f   ole32:ole32.dll
 0001:00029906       _CoTaskMemFree@4           1002a906 f   ole32:ole32.dll
 0001:0002990c       _CreateDataAdviseHolder@4  1002a90c f   ole32:ole32.dll
 0001:00029912       _ReadClassStm@8            1002a912 f   ole32:ole32.dll
 0001:00029918       _WriteClassStm@8           1002a918 f   ole32:ole32.dll
 0001:0002991e       _OleSaveToStream@8         1002a91e f   ole32:ole32.dll
 0001:00029924       _CreateOleAdviseHolder@4   1002a924 f   ole32:ole32.dll
 0001:0002992a       _OleRegGetUserType@12      1002a92a f   ole32:ole32.dll
 0001:00029930       _OleRegGetMiscStatus@12    1002a930 f   ole32:ole32.dll
 0001:00029936       _OleRegEnumVerbs@8         1002a936 f   ole32:ole32.dll
 0001:0002993c       _CLSIDFromProgID@8         1002a93c f   ole32:ole32.dll
 0001:00029942       _SysAllocString@4          1002a942 f   oleaut32:OLEAUT32.dll
 0001:00029948       _SysAllocStringLen@8       1002a948 f   oleaut32:OLEAUT32.dll
 0001:0002994e       _SysFreeString@4           1002a94e f   oleaut32:OLEAUT32.dll
 0001:00029954       _SysStringLen@4            1002a954 f   oleaut32:OLEAUT32.dll
 0001:0002995a       _VariantClear@4            1002a95a f   oleaut32:OLEAUT32.dll
 0001:00029960       _VariantCopyInd@8          1002a960 f   oleaut32:OLEAUT32.dll
 0001:00029966       _VariantChangeType@16      1002a966 f   oleaut32:OLEAUT32.dll
 0001:0002996c       _SysStringByteLen@4        1002a96c f   oleaut32:OLEAUT32.dll
 0001:00029972       _SysAllocStringByteLen@8   1002a972 f   oleaut32:OLEAUT32.dll
 0001:00029978       _VariantInit@4             1002a978 f   oleaut32:OLEAUT32.dll
 0001:0002997e       _VarUI4FromStr@16          1002a97e f   oleaut32:OLEAUT32.dll
 0001:00029984       _LoadTypeLib@8             1002a984 f   oleaut32:OLEAUT32.dll
 0001:0002998a       _LoadRegTypeLib@20         1002a98a f   oleaut32:OLEAUT32.dll
 0001:00029990       _RegisterTypeLib@12        1002a990 f   oleaut32:OLEAUT32.dll
 0001:00029996       _UnRegisterTypeLib@20      1002a996 f   oleaut32:OLEAUT32.dll
 0001:0002999c       _OleCreatePropertyFrame@44 1002a99c f   oleaut32:OLEAUT32.dll
 0001:000299b0       @_RTC_AllocaHelper@12      1002a9b0 f   LIBCMTD:stack.obj
 0001:000299f0       @_RTC_CheckStackVars2@12   1002a9f0 f   LIBCMTD:stack.obj
 0001:00029ad0       @_RTC_CheckStackVars@8     1002aad0 f   LIBCMTD:stack.obj
 0001:00029b40       __RTC_CheckEsp             1002ab40 f   LIBCMTD:stack.obj
 0001:00029b80       @__security_check_cookie@4 1002ab80 f   LIBCMTD:secchk.obj
 0001:00029ba0       __CRT_RTC_INIT             1002aba0 f   LIBCMTD:init.obj
 0001:00029bb0       __CRT_RTC_INITW            1002abb0 f   LIBCMTD:init.obj
 0001:00029bc0       __RTC_InitBase             1002abc0 f   LIBCMTD:init.obj
 0001:00029bf0       __RTC_Shutdown             1002abf0 f   LIBCMTD:init.obj
 0001:00029c10       ??_U@YAPAXI@Z              1002ac10 f   LIBCMTD:new_array.obj
 0001:00029c30       ??3@YAXPAXI@Z              1002ac30 f   LIBCMTD:delete_scalar_size.obj
 0001:00029c50       ??_V@YAXPAX@Z              1002ac50 f   LIBCMTD:delete_array.obj
 0001:00029c70       ??_V@YAXPAXI@Z             1002ac70 f   LIBCMTD:delete_array_size.obj
 0001:00029c90       ??$__crt_fast_decode_pointer@PAP6AXXZ@@YAPAP6AXXZQAP6AXXZ@Z 1002ac90 f i LIBCMTD:utility.obj
 0001:00029cc0       ??$__crt_fast_encode_pointer@PAP6AXXZ@@YAPAP6AXXZQAP6AXXZ@Z 1002acc0 f i LIBCMTD:utility.obj
 0001:00029cf0       ?__crt_rotate_pointer_value@@YAIIH@Z 1002acf0 f i LIBCMTD:utility.obj
 0001:00029d00       ?configure_argv@__scrt_narrow_argv_policy@@SAHXZ 1002ad00 f i LIBCMTD:utility.obj
 0001:00029db0       ?initialize_environment@__scrt_narrow_environment_policy@@SAHXZ 1002adb0 f i LIBCMTD:utility.obj
 0001:00029e30       _NtCurrentTeb              1002ae30 f i LIBCMTD:utility.obj
 0001:00029e40       ___scrt_acquire_startup_lock 1002ae40 f   LIBCMTD:utility.obj
 0001:00029e90       ___scrt_dllmain_after_initialize_c 1002ae90 f   LIBCMTD:utility.obj
 0001:00029ec0       ___scrt_dllmain_before_initialize_c 1002aec0 f   LIBCMTD:utility.obj
 0001:00029ee0       ___scrt_dllmain_crt_thread_attach 1002aee0 f   LIBCMTD:utility.obj
 0001:00029f10       ___scrt_dllmain_crt_thread_detach 1002af10 f   LIBCMTD:utility.obj
 0001:00029f30       ___scrt_dllmain_exception_filter 1002af30 f   LIBCMTD:utility.obj
 0001:00029f80       ___scrt_dllmain_uninitialize_c 1002af80 f   LIBCMTD:utility.obj
 0001:00029fb0       ___scrt_dllmain_uninitialize_critical 1002afb0 f   LIBCMTD:utility.obj
 0001:00029fd0       ___scrt_initialize_crt     1002afd0 f   LIBCMTD:utility.obj
 0001:0002a020       ___scrt_initialize_onexit_tables 1002b020 f   LIBCMTD:utility.obj
 0001:0002a100       ___scrt_is_nonwritable_in_current_image 1002b100 f   LIBCMTD:utility.obj
 0001:0002a230       ___scrt_release_startup_lock 1002b230 f   LIBCMTD:utility.obj
 0001:0002a260       ___scrt_uninitialize_crt   1002b260 f   LIBCMTD:utility.obj
 0001:0002a2a0       __onexit                   1002b2a0 f   LIBCMTD:utility.obj
 0001:0002a310       _at_quick_exit             1002b310 f   LIBCMTD:utility.obj
 0001:0002a360       _atexit                    1002b360 f   LIBCMTD:utility.obj
 0001:0002a390       ??3@YAXPAX@Z               1002b390 f   LIBCMTD:delete_scalar.obj
 0001:0002a3b0       ___raise_securityfailure   1002b3b0 f   LIBCMTD:gs_report.obj
 0001:0002a3e0       ___report_gsfailure        1002b3e0 f   LIBCMTD:gs_report.obj
 0001:0002a4f0       ___report_rangecheckfailure 1002b4f0 f   LIBCMTD:gs_report.obj
 0001:0002a500       ___report_securityfailure  1002b500 f   LIBCMTD:gs_report.obj
 0001:0002a5e0       ___report_securityfailureEx 1002b5e0 f   LIBCMTD:gs_report.obj
 0001:0002a750       ??$__crt_fast_decode_pointer@P6GHPAU_RTL_CONDITION_VARIABLE@@PAU_RTL_CRITICAL_SECTION@@K@Z@@YAP6GHPAU_RTL_CONDITION_VARIABLE@@PAU_RTL_CRITICAL_SECTION@@K@ZQ6GH01K@Z@Z 1002b750 f i LIBCMTD:thread_safe_statics.obj
 0001:0002a780       ??$__crt_fast_decode_pointer@P6GXPAU_RTL_CONDITION_VARIABLE@@@Z@@YAP6GXPAU_RTL_CONDITION_VARIABLE@@@ZQ6GX0@Z@Z 1002b780 f i LIBCMTD:thread_safe_statics.obj
 0001:0002a7b0       ??$__crt_fast_encode_pointer@P6GHPAU_RTL_CONDITION_VARIABLE@@PAU_RTL_CRITICAL_SECTION@@K@Z@@YAP6GHPAU_RTL_CONDITION_VARIABLE@@PAU_RTL_CRITICAL_SECTION@@K@ZQ6GH01K@Z@Z 1002b7b0 f i LIBCMTD:thread_safe_statics.obj
 0001:0002a7e0       ??$__crt_fast_encode_pointer@P6GXPAU_RTL_CONDITION_VARIABLE@@@Z@@YAP6GXPAU_RTL_CONDITION_VARIABLE@@@ZQ6GX0@Z@Z 1002b7e0 f i LIBCMTD:thread_safe_statics.obj
 0001:0002a940       ?__scrt_is_event_api_used@@YA_NQAX@Z 1002b940 f i LIBCMTD:thread_safe_statics.obj
 0001:0002a9d0       __Init_thread_abort        1002b9d0 f   LIBCMTD:thread_safe_statics.obj
 0001:0002a9f0       __Init_thread_footer       1002b9f0 f   LIBCMTD:thread_safe_statics.obj
 0001:0002aa40       __Init_thread_header       1002ba40 f   LIBCMTD:thread_safe_statics.obj
 0001:0002aab0       __Init_thread_lock         1002bab0 f   LIBCMTD:thread_safe_statics.obj
 0001:0002aac0       __Init_thread_notify       1002bac0 f   LIBCMTD:thread_safe_statics.obj
 0001:0002ab30       __Init_thread_unlock       1002bb30 f   LIBCMTD:thread_safe_statics.obj
 0001:0002ab40       __Init_thread_wait         1002bb40 f   LIBCMTD:thread_safe_statics.obj
 0001:0002abe0       ??2@YAPAXIABUnothrow_t@std@@@Z 1002bbe0 f   LIBCMTD:new_scalar_nothrow.obj
 0001:0002ac60       ??_U@YAPAXIABUnothrow_t@std@@@Z 1002bc60 f   LIBCMTD:new_array_nothrow.obj
 0001:0002ac80       __allmul                   1002bc80 f   LIBCMTD:llmul.obj
 0001:0002acc0       __alloca_probe_16          1002bcc0 f   LIBCMTD:alloca16.obj
 0001:0002acd6       __alloca_probe_8           1002bcd6     LIBCMTD:alloca16.obj
 0001:0002acf0       __alloca_probe             1002bcf0 f   LIBCMTD:chkstk.obj
 0001:0002acf0       __chkstk                   1002bcf0 f   LIBCMTD:chkstk.obj
 0001:0002b1c0       __CRT_INIT@12              1002c1c0 f   LIBCMTD:dll_dllmain.obj
 0001:0002b1e0       __DllMainCRTStartup@12     1002c1e0 f   LIBCMTD:dll_dllmain.obj
 0001:0002b2a0       ?_RTC_AllocaFailure@@YAXPAXPAU_RTC_ALLOCA_NODE@@H@Z 1002c2a0 f   LIBCMTD:error.obj
 0001:0002b390       ?_RTC_Failure@@YAXPAXH@Z   1002c390 f   LIBCMTD:error.obj
 0001:0002b3e0       ?_RTC_StackFailure@@YAXPAXPBD@Z 1002c3e0 f   LIBCMTD:error.obj
 0001:0002b7a0       __RTC_UninitUse            1002c7a0 f   LIBCMTD:error.obj
 0001:0002b850       __vsprintf_s_l             1002c850 f i LIBCMTD:error.obj
 0001:0002b880       _sprintf_s                 1002c880 f i LIBCMTD:error.obj
 0001:0002b8a0       ?_RTC_GetErrorFunc@@YAP6AHHPBDH00ZZPBX@Z 1002c8a0 f   LIBCMTD:userapi.obj
 0001:0002b8b0       ?_RTC_GetErrorFuncW@@YAP6AHHPB_WH00ZZPBX@Z 1002c8b0 f   LIBCMTD:userapi.obj
 0001:0002b8c0       __RTC_GetErrDesc           1002c8c0 f   LIBCMTD:userapi.obj
 0001:0002b8e0       __RTC_NumErrors            1002c8e0 f   LIBCMTD:userapi.obj
 0001:0002b8f0       __RTC_SetErrorFunc         1002c8f0 f   LIBCMTD:userapi.obj
 0001:0002b910       __RTC_SetErrorFuncW        1002c910 f   LIBCMTD:userapi.obj
 0001:0002b930       __RTC_SetErrorType         1002c930 f   LIBCMTD:userapi.obj
 0001:0002b960       ??2@YAPAXI@Z               1002c960 f   LIBCMTD:new_scalar.obj
 0001:0002b9b0       ___isa_available_init      1002c9b0 f   LIBCMTD:cpu_disp.obj
 0001:0002bc90       __get_startup_argv_mode    1002cc90 f   LIBCMTD:argv_mode.obj
 0001:0002bca0       ___scrt_is_ucrt_dll_in_use 1002cca0 f   LIBCMTD:ucrt_detection.obj
 0001:0002bcd0       ___scrt_fastfail           1002ccd0 f   LIBCMTD:utility_desktop.obj
 0001:0002be10       ___scrt_get_show_window_mode 1002ce10 f   LIBCMTD:utility_desktop.obj
 0001:0002be50       ___scrt_initialize_mta     1002ce50 f   LIBCMTD:utility_desktop.obj
 0001:0002be60       ___scrt_initialize_winrt   1002ce60 f   LIBCMTD:utility_desktop.obj
 0001:0002be70       ___scrt_is_managed_app     1002ce70 f   LIBCMTD:utility_desktop.obj
 0001:0002bf00       ___scrt_set_unhandled_exception_filter 1002cf00 f   LIBCMTD:utility_desktop.obj
 0001:0002bf10       ___scrt_exe_initialize_mta 1002cf10 f   LIBCMTD:utility_desktop.obj
 0001:0002bf10       ___scrt_stub_for_initialize_mta 1002cf10 f   LIBCMTD:utility_desktop.obj
 0001:0002bf20       ___scrt_unhandled_exception_filter@4 1002cf20 f   LIBCMTD:utility_desktop.obj
 0001:0002bf80       __crt_debugger_hook        1002cf80 f   LIBCMTD:utility_desktop.obj
 0001:0002bf90       @_guard_check_icall_nop@4  1002cf90 f i LIBCMTD:guard_support.obj
 0001:0002bfa0       _ReadNoFence               1002cfa0 f i LIBCMTD:guard_support.obj
 0001:0002bfc0       _ReadPointerNoFence        1002cfc0 f i LIBCMTD:guard_support.obj
 0001:0002bfe0       __guard_icall_checks_enforced 1002cfe0 f i LIBCMTD:guard_support.obj
 0001:0002c080       ___security_init_cookie    1002d080 f   LIBCMTD:gs_support.obj
 0001:0002c100       ?__scrt_initialize_type_info@@YAXXZ 1002d100 f   LIBCMTD:tncleanup.obj
 0001:0002c110       ?__scrt_uninitialize_type_info@@YAXXZ 1002d110 f   LIBCMTD:tncleanup.obj
 0001:0002c130       ___local_stdio_scanf_options 1002d130 f i LIBCMTD:default_local_stdio_options.obj
 0001:0002c140       ___scrt_initialize_default_local_stdio_options 1002d140 f   LIBCMTD:default_local_stdio_options.obj
 0001:0002c180       ___scrt_get_dyn_tls_init_callback 1002d180 f   LIBCMTD:dyn_tls_init.obj
 0001:0002c190       __RTC_Initialize           1002d190 f   LIBCMTD:initsect.obj
 0001:0002c1c0       __RTC_Terminate            1002d1c0 f   LIBCMTD:initsect.obj
 0001:0002c670       ?_RTC_GetSrcLine@@YAHPAEPA_WKPAH1K@Z 1002d670 f   LIBCMTD:pdblkup.obj
 0001:0002ca00       __except_handler4_noexcept 1002da00 f   LIBCMTD:chandler4_noexcept.obj
 0001:0002ca50       ??0bad_alloc@std@@AAE@QBD@Z 1002da50 f i LIBCMTD:throw_bad_alloc.obj
 0001:0002ca80       ??0bad_alloc@std@@QAE@ABV01@@Z 1002da80 f i LIBCMTD:throw_bad_alloc.obj
 0001:0002cab0       ??0bad_alloc@std@@QAE@XZ   1002dab0 f i LIBCMTD:throw_bad_alloc.obj
 0001:0002cae0       ??0bad_array_new_length@std@@QAE@ABV01@@Z 1002dae0 f i LIBCMTD:throw_bad_alloc.obj
 0001:0002cb10       ??0bad_array_new_length@std@@QAE@XZ 1002db10 f i LIBCMTD:throw_bad_alloc.obj
 0001:0002cb40       ??0exception@std@@QAE@ABV01@@Z 1002db40 f i LIBCMTD:throw_bad_alloc.obj
 0001:0002cb80       ??0exception@std@@QAE@QBDH@Z 1002db80 f i LIBCMTD:throw_bad_alloc.obj
 0001:0002cbb0       ??1bad_alloc@std@@UAE@XZ   1002dbb0 f i LIBCMTD:throw_bad_alloc.obj
 0001:0002cbd0       ??1bad_array_new_length@std@@UAE@XZ 1002dbd0 f i LIBCMTD:throw_bad_alloc.obj
 0001:0002cbf0       ??1exception@std@@UAE@XZ   1002dbf0 f i LIBCMTD:throw_bad_alloc.obj
 0001:0002cc20       ??_Gbad_alloc@std@@UAEPAXI@Z 1002dc20 f i LIBCMTD:throw_bad_alloc.obj
 0001:0002cc20       ??_Ebad_alloc@std@@UAEPAXI@Z 1002dc20 f i LIBCMTD:throw_bad_alloc.obj
 0001:0002cc50       ??_Gbad_array_new_length@std@@UAEPAXI@Z 1002dc50 f i LIBCMTD:throw_bad_alloc.obj
 0001:0002cc50       ??_Ebad_array_new_length@std@@UAEPAXI@Z 1002dc50 f i LIBCMTD:throw_bad_alloc.obj
 0001:0002cc80       ??_Eexception@std@@UAEPAXI@Z 1002dc80 f i LIBCMTD:throw_bad_alloc.obj
 0001:0002cc80       ??_Gexception@std@@UAEPAXI@Z 1002dc80 f i LIBCMTD:throw_bad_alloc.obj
 0001:0002ccb0       ?__scrt_throw_std_bad_alloc@@YAXXZ 1002dcb0 f   LIBCMTD:throw_bad_alloc.obj
 0001:0002ccd0       ?__scrt_throw_std_bad_array_new_length@@YAXXZ 1002dcd0 f   LIBCMTD:throw_bad_alloc.obj
 0001:0002ccf0       ?what@exception@std@@UBEPBDXZ 1002dcf0 f i LIBCMTD:throw_bad_alloc.obj
 0001:0002cd20       ??1type_info@@UAE@XZ       1002dd20 f   LIBCMTD:std_type_info_static.obj
 0001:0002cd40       ??_Etype_info@@UAEPAXI@Z   1002dd40 f i LIBCMTD:std_type_info_static.obj
 0001:0002cd40       ??_Gtype_info@@UAEPAXI@Z   1002dd40 f i LIBCMTD:std_type_info_static.obj
 0001:0002cd6e       ??$?2PAUHINSTANCE__@@@Wrapper@?$CSimpleArray@PAUHINSTANCE__@@V?$CSimpleArrayEqualHelper@PAUHINSTANCE__@@@ATL@@@ATL@@SAPAXIPAPAUHINSTANCE__@@@Z 1002dd6e f i atls:atlbase.obj
 0001:0002cd76       ??0?$CSimpleArray@PAUHINSTANCE__@@V?$CSimpleArrayEqualHelper@PAUHINSTANCE__@@@ATL@@@ATL@@QAE@XZ 1002dd76 f i atls:atlbase.obj
 0001:0002cd83       ??0CAtlBaseModule@ATL@@QAE@XZ 1002dd83 f   atls:atlbase.obj
 0001:0002cdd6       ??0Wrapper@?$CSimpleArray@PAUHINSTANCE__@@V?$CSimpleArrayEqualHelper@PAUHINSTANCE__@@@ATL@@@ATL@@QAE@ABQAUHINSTANCE__@@@Z 1002ddd6 f i atls:atlbase.obj
 0001:0002cde6       ??0_ATL_BASE_MODULE70@ATL@@QAE@XZ 1002dde6 f i atls:atlbase.obj
 0001:0002ce09       ??1?$CSimpleArray@PAUHINSTANCE__@@V?$CSimpleArrayEqualHelper@PAUHINSTANCE__@@@ATL@@@ATL@@QAE@XZ 1002de09 f i atls:atlbase.obj
 0001:0002ce0e       ??1CAtlBaseModule@ATL@@QAE@XZ 1002de0e f   atls:atlbase.obj
 0001:0002ce24       ??1_ATL_BASE_MODULE70@ATL@@QAE@XZ 1002de24 f i atls:atlbase.obj
 0001:0002ce2c       ??A?$CSimpleArray@PAUHINSTANCE__@@V?$CSimpleArrayEqualHelper@PAUHINSTANCE__@@@ATL@@@ATL@@QAEAAPAUHINSTANCE__@@H@Z 1002de2c f i atls:atlbase.obj
 0001:0002ce51       ?Add@?$CSimpleArray@PAUHINSTANCE__@@V?$CSimpleArrayEqualHelper@PAUHINSTANCE__@@@ATL@@@ATL@@QAEHABQAUHINSTANCE__@@@Z 1002de51 f i atls:atlbase.obj
 0001:0002ced3       ?AddResourceInstance@CAtlBaseModule@ATL@@QAE_NPAUHINSTANCE__@@@Z 1002ded3 f   atls:atlbase.obj
 0001:0002cf06       ?GetHInstanceAt@CAtlBaseModule@ATL@@QAEPAUHINSTANCE__@@H@Z 1002df06 f   atls:atlbase.obj
 0001:0002cf4b       ?GetSize@?$CSimpleArray@PAUHINSTANCE__@@V?$CSimpleArrayEqualHelper@PAUHINSTANCE__@@@ATL@@@ATL@@QBEHXZ 1002df4b f i atls:atlbase.obj
 0001:0002cf4f       ?InternalSetAtIndex@?$CSimpleArray@PAUHINSTANCE__@@V?$CSimpleArrayEqualHelper@PAUHINSTANCE__@@@ATL@@@ATL@@QAEXHABQAUHINSTANCE__@@@Z 1002df4f f i atls:atlbase.obj
 0001:0002cf69       ?RemoveAll@?$CSimpleArray@PAUHINSTANCE__@@V?$CSimpleArrayEqualHelper@PAUHINSTANCE__@@@ATL@@@ATL@@QAEXXZ 1002df69 f i atls:atlbase.obj
 0001:0002cf86       ?RemoveAt@?$CSimpleArray@PAUHINSTANCE__@@V?$CSimpleArrayEqualHelper@PAUHINSTANCE__@@@ATL@@@ATL@@QAEHH@Z 1002df86 f i atls:atlbase.obj
 0001:0002cfd4       ?RemoveResourceInstance@CAtlBaseModule@ATL@@QAE_NPAUHINSTANCE__@@@Z 1002dfd4 f   atls:atlbase.obj
 0001:0002d031       ?memmove_s@Checked@ATL@@YAXPAXIPBXI@Z 1002e031 f i atls:atlbase.obj
 0001:0002d38e       ?GetCodeAddress@_stdcallthunk@ATL@@QAEPAXXZ 1002e38e f i atls:atlthunk.obj
 0001:0002d3b8       ?Init@_stdcallthunk@ATL@@QAEHKPAX@Z 1002e3b8 f i atls:atlthunk.obj
 0001:0002d3ed       ?__AllocStdCallThunk@@YGPAXXZ 1002e3ed f   atls:atlthunk.obj
 0001:0002d3f2       ?__AllocStdCallThunk@ATL@@YGPAXXZ 1002e3f2 f   atls:atlthunk.obj
 0001:0002d3f7       ?__AllocStdCallThunk_cmn@@YAPAXXZ 1002e3f7 f   atls:atlthunk.obj
 0001:0002d4bd       ?__FreeStdCallThunk@@YGXPAX@Z 1002e4bd f   atls:atlthunk.obj
 0001:0002d4cd       ?__FreeStdCallThunk@ATL@@YGXPAX@Z 1002e4cd f   atls:atlthunk.obj
 0001:0002d4dd       ?__FreeStdCallThunk_cmn@@YAXPAX@Z 1002e4dd f   atls:atlthunk.obj
 0001:0002d578       _AtlThunk_AllocateData@0   1002e578 f   atls:atlthunk.obj
 0001:0002d5dd       _AtlThunk_DataToCode@4     1002e5dd f   atls:atlthunk.obj
 0001:0002d624       _AtlThunk_FreeData@4       1002e624 f   atls:atlthunk.obj
 0001:0002d67a       _AtlThunk_InitData@12      1002e67a f   atls:atlthunk.obj
 0001:0002d6c9       _MemoryBarrier             1002e6c9 f i atls:atlthunk.obj
 0001:0002d6d7       __InlineInterlockedCompareExchangePointer 1002e6d7 f i atls:atlthunk.obj
 0001:0002d6f0       _memset                    1002e6f0 f   libvcruntimed:memset.obj
 0001:0002d850       ??$__crt_fast_decode_pointer@P6AXXZ@@YAP6AXXZQ6AXXZ@Z 1002e850 f i libvcruntimed:purevirt.obj
 0001:0002d880       ??$__crt_fast_encode_pointer@P6AXXZ@@YAP6AXXZQ6AXXZ@Z 1002e880 f i libvcruntimed:purevirt.obj
 0001:0002d8b0       ??$__crt_interlocked_exchange_pointer@$$A6AXXZP6AXXZ@@YAP6AXXZPDS6AXXZQ6AXXZ@Z 1002e8b0 f i libvcruntimed:purevirt.obj
 0001:0002d8c0       ??$__crt_interlocked_read_pointer@$$A6AXXZ@@YAP6AXXZPDS6AXXZ@Z 1002e8c0 f i libvcruntimed:purevirt.obj
 0001:0002d8e0       ?__crt_interlocked_read_32@@YAHPDH@Z 1002e8e0 f i libvcruntimed:purevirt.obj
 0001:0002d900       __get_purecall_handler     1002e900 f   libvcruntimed:purevirt.obj
 0001:0002d920       __purecall                 1002e920 f   libvcruntimed:purevirt.obj
 0001:0002d950       __set_purecall_handler     1002e950 f   libvcruntimed:purevirt.obj
 0001:0002db30       _memcmp                    1002eb30 f   libvcruntimed:memcmp.obj
 0001:0002e400       _memcpy                    1002f400 f   libvcruntimed:memcpy.obj
 0001:0002e980       _wcsstr                    1002f980 f   libvcruntimed:wcsstr.obj
 0001:0002eeb0       __except_handler4          1002feb0 f   libvcruntimed:chandler4.obj
 0001:0002f080       ___vcrt_initialize         10030080 f   libvcruntimed:initialization.obj
 0001:0002f0c0       ___vcrt_thread_attach      100300c0 f   libvcruntimed:initialization.obj
 0001:0002f0e0       ___vcrt_thread_detach      100300e0 f   libvcruntimed:initialization.obj
 0001:0002f100       ___vcrt_uninitialize       10030100 f   libvcruntimed:initialization.obj
 0001:0002f120       ___vcrt_uninitialize_critical 10030120 f   libvcruntimed:initialization.obj
 0001:0002f140       ??$?0AAViterator@TryBlockMap@__FrameHandler3@@AAV012@$0A@@?$pair@Viterator@TryBlockMap@__FrameHandler3@@V123@@std@@QAE@AAViterator@TryBlockMap@__FrameHandler3@@0@Z 10030140 f i libvcruntimed:trnsctrl.obj
 0001:0002f190       ??$forward@AAViterator@TryBlockMap@__FrameHandler3@@@std@@YAAAViterator@TryBlockMap@__FrameHandler3@@AAV123@@Z 10030190 f i libvcruntimed:trnsctrl.obj
 0001:0002f1a0       ??0iterator@TryBlockMap@__FrameHandler3@@QAE@AAV12@I@Z 100301a0 f i libvcruntimed:trnsctrl.obj
 0001:0002f1d0       ?GetRangeOfTrysToCheck@__FrameHandler3@@SA?AU?$pair@Viterator@TryBlockMap@__FrameHandler3@@V123@@std@@AAVTryBlockMap@1@HH@Z 100301d0 f   libvcruntimed:trnsctrl.obj
 0001:0002f2c0       ?_CallCatchBlock2@@YAPAXPAUEHRegistrationNode@@PBU_s_FuncInfo@@PAXHK@Z 100302c0 f   libvcruntimed:trnsctrl.obj
 0001:0002f330       ?_CallSETranslator@@YAHPAUEHExceptionRecord@@PAUEHRegistrationNode@@PAX2PBU_s_FuncInfo@@H1@Z 10030330 f   libvcruntimed:trnsctrl.obj
 0001:0002f420       ?_JumpToContinuation@@YGXPAXPAUEHRegistrationNode@@@Z 10030420 f   libvcruntimed:trnsctrl.obj
 0001:0002f460       ?_UnwindNestedFrames@@YGXPAUEHRegistrationNode@@PAUEHExceptionRecord@@@Z 10030460 f   libvcruntimed:trnsctrl.obj
 0001:0002f4c0       ?getFuncInfo@TryBlockMap@__FrameHandler3@@QAEPBU_s_FuncInfo@@XZ 100304c0 f i libvcruntimed:trnsctrl.obj
 0001:0002f4d0       __CatchGuardHandler        100304d0 f   libvcruntimed:trnsctrl.obj
 0001:0002f520       __CreateFrameInfo          10030520 f   libvcruntimed:trnsctrl.obj
 0001:0002f550       __FindAndUnlinkFrame       10030550 f   libvcruntimed:trnsctrl.obj
 0001:0002f5c0       __TranslatorGuardHandler   100305c0 f   libvcruntimed:trnsctrl.obj
 0001:0002f670       ___CxxFrameHandler         10030670 f   libvcruntimed:trnsctrl.obj
 0001:0002f6b0       ___CxxFrameHandler2        100306b0 f   libvcruntimed:trnsctrl.obj
 0001:0002f6f0       ___CxxFrameHandler3        100306f0 f   libvcruntimed:trnsctrl.obj
 0001:0002f730       ___CxxLongjmpUnwind@4      10030730 f   libvcruntimed:trnsctrl.obj
 0001:0002f790       ??$?RD@__crt_internal_free_policy@@QBEXQBD@Z 10030790 f i libvcruntimed:std_type_info.obj
 0001:0002f7b0       ??$?RX@__crt_internal_free_policy@@QBEXQBX@Z 100307b0 f i libvcruntimed:std_type_info.obj
 0001:0002f7d0       ??$__crt_interlocked_compare_exchange_pointer@$$CBDPAD$$T@@YAPBDPDSBDQAD$$T@Z 100307d0 f i libvcruntimed:std_type_info.obj
 0001:0002f7f0       ??$__crt_interlocked_read_pointer@$$CBD@@YAPBDPDSBD@Z 100307f0 f i libvcruntimed:std_type_info.obj
 0001:0002f810       ??0?$__crt_unique_heap_ptr@DU__crt_internal_free_policy@@@@QAE@QAD@Z 10030810 f i libvcruntimed:std_type_info.obj
 0001:0002f830       ??0?$__crt_unique_heap_ptr@XU__crt_internal_free_policy@@@@QAE@QAX@Z 10030830 f i libvcruntimed:std_type_info.obj
 0001:0002f850       ??1?$__crt_unique_heap_ptr@DU__crt_internal_free_policy@@@@QAE@XZ 10030850 f i libvcruntimed:std_type_info.obj
 0001:0002f870       ??1?$__crt_unique_heap_ptr@XU__crt_internal_free_policy@@@@QAE@XZ 10030870 f i libvcruntimed:std_type_info.obj
 0001:0002f8b0       ??B?$__crt_unique_heap_ptr@DU__crt_internal_free_policy@@@@QBE_NXZ 100308b0 f i libvcruntimed:std_type_info.obj
 0001:0002f8d0       ??B?$__crt_unique_heap_ptr@XU__crt_internal_free_policy@@@@QBE_NXZ 100308d0 f i libvcruntimed:std_type_info.obj
 0001:0002f940       ?detach@?$__crt_unique_heap_ptr@XU__crt_internal_free_policy@@@@QAEPAXXZ 10030940 f i libvcruntimed:std_type_info.obj
 0001:0002f970       ?get@?$__crt_unique_heap_ptr@DU__crt_internal_free_policy@@@@QBEPADXZ 10030970 f i libvcruntimed:std_type_info.obj
 0001:0002f980       ?get@?$__crt_unique_heap_ptr@XU__crt_internal_free_policy@@@@QBEPAXXZ 10030980 f i libvcruntimed:std_type_info.obj
 0001:0002f990       ?is_valid@?$__crt_unique_heap_ptr@DU__crt_internal_free_policy@@@@QBE_NXZ 10030990 f i libvcruntimed:std_type_info.obj
 0001:0002f9c0       ?is_valid@?$__crt_unique_heap_ptr@XU__crt_internal_free_policy@@@@QBE_NXZ 100309c0 f i libvcruntimed:std_type_info.obj
 0001:0002f9f0       ?release@?$__crt_unique_heap_ptr@DU__crt_internal_free_policy@@@@QAEXXZ 100309f0 f i libvcruntimed:std_type_info.obj
 0001:0002fa20       ?release@?$__crt_unique_heap_ptr@XU__crt_internal_free_policy@@@@QAEXXZ 10030a20 f i libvcruntimed:std_type_info.obj
 0001:0002fa50       ___std_type_info_compare   10030a50 f   libvcruntimed:std_type_info.obj
 0001:0002fa80       ___std_type_info_destroy_list 10030a80 f   libvcruntimed:std_type_info.obj
 0001:0002fac0       ___std_type_info_hash      10030ac0 f   libvcruntimed:std_type_info.obj
 0001:0002fb20       ___std_type_info_name      10030b20 f   libvcruntimed:std_type_info.obj
 0001:0002fd00       ___vcrt_GetModuleFileNameW 10030d00 f   libvcruntimed:winapi_thunks.obj
 0001:0002fd20       ___vcrt_GetModuleHandleW   10030d20 f   libvcruntimed:winapi_thunks.obj
 0001:0002fd30       ___vcrt_LoadLibraryExW     10030d30 f   libvcruntimed:winapi_thunks.obj
 0001:0002fd50       ??$?RD@__crt_public_free_policy@@QBEXQBD@Z 10030d50 f i libvcruntimed:std_exception.obj
 0001:0002fd70       ??0?$__crt_unique_heap_ptr@DU__crt_public_free_policy@@@@QAE@QAD@Z 10030d70 f i libvcruntimed:std_exception.obj
 0001:0002fd90       ??1?$__crt_unique_heap_ptr@DU__crt_public_free_policy@@@@QAE@XZ 10030d90 f i libvcruntimed:std_exception.obj
 0001:0002fdb0       ??B?$__crt_unique_heap_ptr@DU__crt_public_free_policy@@@@QBE_NXZ 10030db0 f i libvcruntimed:std_exception.obj
 0001:0002fdd0       ?detach@?$__crt_unique_heap_ptr@DU__crt_public_free_policy@@@@QAEPADXZ 10030dd0 f i libvcruntimed:std_exception.obj
 0001:0002fe00       ?get@?$__crt_unique_heap_ptr@DU__crt_public_free_policy@@@@QBEPADXZ 10030e00 f i libvcruntimed:std_exception.obj
 0001:0002fe10       ?is_valid@?$__crt_unique_heap_ptr@DU__crt_public_free_policy@@@@QBE_NXZ 10030e10 f i libvcruntimed:std_exception.obj
 0001:0002fe40       ?release@?$__crt_unique_heap_ptr@DU__crt_public_free_policy@@@@QAEXXZ 10030e40 f i libvcruntimed:std_exception.obj
 0001:0002fe70       ___std_exception_copy      10030e70 f   libvcruntimed:std_exception.obj
 0001:0002ff50       ___std_exception_destroy   10030f50 f   libvcruntimed:std_exception.obj
 0001:0002ff80       __CxxThrowException@8      10030f80 f   libvcruntimed:throw.obj
 0001:00030040       _memmove                   10031040 f   libvcruntimed:memmove.obj
 0001:000305c0       ??$?B$$A6AXXZ@__crt_fast_encoded_nullptr_t@@QBEP6AXXZXZ 100315c0 f i libvcruntimed:purevirt_data.obj
 0001:000305e0       ?__crt_fast_encode_pointer@@YA?AU__crt_fast_encoded_nullptr_t@@$$T@Z 100315e0 f i libvcruntimed:purevirt_data.obj
 0001:000305f0       ___vcrt_initialize_pure_virtual_call_handler 100315f0 f   libvcruntimed:purevirt_data.obj
 0001:00030620       __local_unwind4            10031620 f   libvcruntimed:exsup4.obj
 0001:000306f8       __seh_longjmp_unwind4@4    100316f8 f   libvcruntimed:exsup4.obj
 0001:00030720       @_EH4_CallFilterFunc@8     10031720 f   libvcruntimed:exsup4.obj
 0001:00030738       @_EH4_TransferToHandler@8  10031738 f   libvcruntimed:exsup4.obj
 0001:00030754       @_EH4_GlobalUnwind2@8      10031754 f   libvcruntimed:exsup4.obj
 0001:00030770       @_EH4_LocalUnwind@16       10031770 f   libvcruntimed:exsup4.obj
 0001:000307a0       ___except_validate_context_record 100317a0 f   libvcruntimed:jbcxrval.obj
 0001:000307f0       ___except_validate_jump_buffer 100317f0 f   libvcruntimed:jbcxrval.obj
 0001:00030810       ___except_validate_jump_buffer_common 10031810 f i libvcruntimed:jbcxrval.obj
 0001:00030870       ??$?RU__vcrt_ptd@@@__crt_internal_free_policy@@QBEXQBU__vcrt_ptd@@@Z 10031870 f i libvcruntimed:per_thread_data.obj
 0001:00030890       ??0?$__crt_unique_heap_ptr@U__vcrt_ptd@@U__crt_internal_free_policy@@@@QAE@QAU__vcrt_ptd@@@Z 10031890 f i libvcruntimed:per_thread_data.obj
 0001:000308d0       ??1?$__crt_unique_heap_ptr@U__vcrt_ptd@@U__crt_internal_free_policy@@@@QAE@XZ 100318d0 f i libvcruntimed:per_thread_data.obj
 0001:00030910       ??B?$__crt_unique_heap_ptr@U__vcrt_ptd@@U__crt_internal_free_policy@@@@QBE_NXZ 10031910 f i libvcruntimed:per_thread_data.obj
 0001:00030930       ?detach@?$__crt_unique_heap_ptr@U__vcrt_ptd@@U__crt_internal_free_policy@@@@QAEPAU__vcrt_ptd@@XZ 10031930 f i libvcruntimed:per_thread_data.obj
 0001:00030960       ?get@?$__crt_unique_heap_ptr@U__vcrt_ptd@@U__crt_internal_free_policy@@@@QBEPAU__vcrt_ptd@@XZ 10031960 f i libvcruntimed:per_thread_data.obj
 0001:00030970       ?is_valid@?$__crt_unique_heap_ptr@U__vcrt_ptd@@U__crt_internal_free_policy@@@@QBE_NXZ 10031970 f i libvcruntimed:per_thread_data.obj
 0001:000309a0       ?release@?$__crt_unique_heap_ptr@U__vcrt_ptd@@U__crt_internal_free_policy@@@@QAEXXZ 100319a0 f i libvcruntimed:per_thread_data.obj
 0001:00030a00       ___vcrt_freefls@4          10031a00 f   libvcruntimed:per_thread_data.obj
 0001:00030a30       ___vcrt_freeptd            10031a30 f   libvcruntimed:per_thread_data.obj
 0001:00030a90       ___vcrt_getptd             10031a90 f   libvcruntimed:per_thread_data.obj
 0001:00030ab0       ___vcrt_getptd_noexit      10031ab0 f   libvcruntimed:per_thread_data.obj
 0001:00030c10       ___vcrt_getptd_noinit      10031c10 f   libvcruntimed:per_thread_data.obj
 0001:00030c70       ___vcrt_initialize_ptd     10031c70 f   libvcruntimed:per_thread_data.obj
 0001:00030cc0       ___vcrt_uninitialize_ptd   10031cc0 f   libvcruntimed:per_thread_data.obj
 0001:00030cf0       ___vcrt_initialize_locks   10031cf0 f   libvcruntimed:locks.obj
 0001:00030d50       ___vcrt_lock               10031d50 f   libvcruntimed:locks.obj
 0001:00030d70       ___vcrt_uninitialize_locks 10031d70 f   libvcruntimed:locks.obj
 0001:00030dc0       ___vcrt_unlock             10031dc0 f   libvcruntimed:locks.obj
 0001:00030de0       ??$?BX@__crt_fast_encoded_nullptr_t@@QBEPAXXZ 10031de0 f i libvcruntimed:winapi_downlevel.obj
 0001:00030e00       ??$__crt_fast_decode_pointer@PAX@@YAPAXQAX@Z 10031e00 f i libvcruntimed:winapi_downlevel.obj
 0001:00030e30       ??$__crt_fast_encode_pointer@PAX@@YAPAXQAX@Z 10031e30 f i libvcruntimed:winapi_downlevel.obj
 0001:00030e60       ??$__crt_interlocked_exchange_pointer@UHINSTANCE__@@PAU1@@@YAPAUHINSTANCE__@@PDSAU0@QAU0@@Z 10031e60 f i libvcruntimed:winapi_downlevel.obj
 0001:00030e70       ??$__crt_interlocked_exchange_pointer@UHINSTANCE__@@PAX@@YAPAUHINSTANCE__@@PDSAU0@QAX@Z 10031e70 f i libvcruntimed:winapi_downlevel.obj
 0001:00030e80       ??$__crt_interlocked_exchange_pointer@XPAX@@YAPAXPDSAXQAX@Z 10031e80 f i libvcruntimed:winapi_downlevel.obj
 0001:00030e90       ??$__crt_interlocked_read_pointer@UHINSTANCE__@@@@YAPAUHINSTANCE__@@PDSAU0@@Z 10031e90 f i libvcruntimed:winapi_downlevel.obj
 0001:00030eb0       ??$__crt_interlocked_read_pointer@X@@YAPAXPDSAX@Z 10031eb0 f i libvcruntimed:winapi_downlevel.obj
 0001:000312c0       ___vcrt_FlsAlloc           100322c0 f   libvcruntimed:winapi_downlevel.obj
 0001:00031300       ___vcrt_FlsFree            10032300 f   libvcruntimed:winapi_downlevel.obj
 0001:00031340       ___vcrt_FlsGetValue        10032340 f   libvcruntimed:winapi_downlevel.obj
 0001:00031380       ___vcrt_FlsSetValue        10032380 f   libvcruntimed:winapi_downlevel.obj
 0001:000313d0       ___vcrt_InitializeCriticalSectionEx 100323d0 f   libvcruntimed:winapi_downlevel.obj
 0001:00031420       ___vcrt_initialize_winapi_thunks 10032420 f   libvcruntimed:winapi_downlevel.obj
 0001:00031480       ___vcrt_uninitialize_winapi_thunks 10032480 f   libvcruntimed:winapi_downlevel.obj
 0001:000320c0       ??$TypeMatchHelper@V__FrameHandler3@@@@YAHPBU_s_HandlerType@@PBU_s_CatchableType@@PBU_s_ThrowInfo@@@Z 100330c0 f i libvcruntimed:frame.obj
 0001:000321a0       ??$__InternalCxxFrameHandler@V__FrameHandler3@@@@YA?AW4_EXCEPTION_DISPOSITION@@PAUEHExceptionRecord@@PAUEHRegistrationNode@@PAU_CONTEXT@@PAXPBU_s_FuncInfo@@H1E@Z 100331a0 f i libvcruntimed:frame.obj
 0001:00032380       ??0HandlerMap@__FrameHandler3@@QAE@PBU_s_TryBlockMapEntry@@PAX@Z 10033380 f i libvcruntimed:frame.obj
 0001:000323b0       ??0TryBlockMap@__FrameHandler3@@QAE@PBU_s_FuncInfo@@PAX@Z 100333b0 f i libvcruntimed:frame.obj
 0001:000323e0       ??0bad_exception@std@@QAE@ABV01@@Z 100333e0 f i libvcruntimed:frame.obj
 0001:00032410       ??0bad_exception@std@@QAE@XZ 10033410 f i libvcruntimed:frame.obj
 0001:00032440       ??0iterator@HandlerMap@__FrameHandler3@@QAE@AAV12@I@Z 10033440 f i libvcruntimed:frame.obj
 0001:00032470       ??1bad_exception@std@@UAE@XZ 10033470 f i libvcruntimed:frame.obj
 0001:00032490       ??8iterator@HandlerMap@__FrameHandler3@@QBE_NABV012@@Z 10033490 f i libvcruntimed:frame.obj
 0001:000324c0       ??8type_info@@QBE_NABV0@@Z 100334c0 f i libvcruntimed:frame.obj
 0001:00032500       ??9iterator@HandlerMap@__FrameHandler3@@QBE_NABV012@@Z 10033500 f i libvcruntimed:frame.obj
 0001:00032540       ??Diterator@HandlerMap@__FrameHandler3@@QAEPBU_s_HandlerType@@XZ 10033540 f i libvcruntimed:frame.obj
 0001:00032560       ??Diterator@TryBlockMap@__FrameHandler3@@QAEPBU_s_TryBlockMapEntry@@XZ 10033560 f i libvcruntimed:frame.obj
 0001:00032580       ??Eiterator@HandlerMap@__FrameHandler3@@QAEAAV012@XZ 10033580 f i libvcruntimed:frame.obj
 0001:000325a0       ??Eiterator@TryBlockMap@__FrameHandler3@@QAEAAV012@XZ 100335a0 f i libvcruntimed:frame.obj
 0001:000325c0       ??Miterator@TryBlockMap@__FrameHandler3@@QBE_NABV012@@Z 100335c0 f i libvcruntimed:frame.obj
 0001:000325f0       ??_Gbad_exception@std@@UAEPAXI@Z 100335f0 f i libvcruntimed:frame.obj
 0001:000325f0       ??_Ebad_exception@std@@UAEPAXI@Z 100335f0 f i libvcruntimed:frame.obj
 0001:00032620       ?BuildCatchObject@__FrameHandler3@@SAXPAUEHExceptionRecord@@PAXPBU_s_HandlerType@@PBU_s_CatchableType@@@Z 10033620 f   libvcruntimed:frame.obj
 0001:00032640       ?BuildCatchObjectHelper@__FrameHandler3@@SAHPAUEHExceptionRecord@@PAXPBU_s_HandlerType@@PBU_s_CatchableType@@@Z 10033640 f   libvcruntimed:frame.obj
 0001:000329e0       ?FrameUnwindToEmptyState@__FrameHandler3@@SAXPAUEHRegistrationNode@@PAXPBU_s_FuncInfo@@@Z 100339e0 f   libvcruntimed:frame.obj
 0001:00032a00       ?FrameUnwindToState@__FrameHandler3@@SAXPAUEHRegistrationNode@@PAXPBU_s_FuncInfo@@H@Z 10033a00 f   libvcruntimed:frame.obj
 0001:00032b80       ?GetMaxState@__FrameHandler3@@SAHPAXPBU_s_FuncInfo@@@Z 10033b80 f i libvcruntimed:frame.obj
 0001:00032cb0       ?TypeMatch@__FrameHandler3@@SAHPBU_s_HandlerType@@PBU_s_CatchableType@@PBU_s_ThrowInfo@@@Z 10033cb0 f   libvcruntimed:frame.obj
 0001:00032cd0       ?_CallMemberFunction1@@YGXQAX00@Z 10033cd0 f i libvcruntimed:frame.obj
 0001:00032cf0       ?_CallMemberFunction2@@YGXQAX00H@Z 10033cf0 f i libvcruntimed:frame.obj
 0001:00032d10       ?_ValidateExecute@@YA_NP6GHXZ@Z 10033d10 f i libvcruntimed:frame.obj
 0001:00032d30       ?_ValidateRead@@YA_NPBXI@Z 10033d30 f i libvcruntimed:frame.obj
 0001:00032d50       ?_ValidateWrite@@YA_NPAXI@Z 10033d50 f i libvcruntimed:frame.obj
 0001:00032d70       ?begin@HandlerMap@__FrameHandler3@@QAE?AViterator@12@XZ 10033d70 f i libvcruntimed:frame.obj
 0001:00032d90       ?end@HandlerMap@__FrameHandler3@@QAE?AViterator@12@XZ 10033d90 f i libvcruntimed:frame.obj
 0001:00032dc0       ?getESTypes@__FrameHandler3@@SAPBU_s_ESTypeList@@PBU_s_FuncInfo@@@Z 10033dc0 f i libvcruntimed:frame.obj
 0001:00032dd0       ?getLastEntry@HandlerMap@__FrameHandler3@@QAEPBU_s_HandlerType@@XZ 10033dd0 f i libvcruntimed:frame.obj
 0001:00032df0       ?getMagicNum@__FrameHandler3@@SAIPBU_s_FuncInfo@@@Z 10033df0 f i libvcruntimed:frame.obj
 0001:00032e00       ?getNumTryBlocks@TryBlockMap@__FrameHandler3@@QAEIXZ 10033e00 f i libvcruntimed:frame.obj
 0001:00032e20       ?isEHs@__FrameHandler3@@SA_NPBU_s_FuncInfo@@@Z 10033e20 f i libvcruntimed:frame.obj
 0001:00032e50       ?isNoExcept@__FrameHandler3@@SA_NPBU_s_FuncInfo@@@Z 10033e50 f i libvcruntimed:frame.obj
 0001:00032e80       ___BuildCatchObject        10033e80 f   libvcruntimed:frame.obj
 0001:00032ea0       ___BuildCatchObjectHelper  10033ea0 f   libvcruntimed:frame.obj
 0001:00032ec0       ___TypeMatch               10033ec0 f   libvcruntimed:frame.obj
 0001:00032ee0       ___vcrt_EncodePointer      10033ee0 f i libvcruntimed:frame.obj
 0001:00032ef0       __CallSettingFrame@12      10033ef0 f   libvcruntimed:lowhelpr.obj
 0001:00032f17       __NLG_Return               10033f17     libvcruntimed:lowhelpr.obj
 0001:00032f40       ??0Block@_HeapManager@@QAE@XZ 10033f40 f i libvcruntimed:undname.obj
 0001:00032f60       ??0DName@@QAE@AAPBDD@Z     10033f60 f   libvcruntimed:undname.obj
 0001:00033190       ??0DName@@QAE@ABV0@@Z      10034190 f i libvcruntimed:undname.obj
 0001:000331c0       ??0DName@@QAE@D@Z          100341c0 f   libvcruntimed:undname.obj
 0001:00033200       ??0DName@@QAE@PAV0@@Z      10034200 f   libvcruntimed:undname.obj
 0001:000332b0       ??0DName@@QAE@PBD@Z        100342b0 f   libvcruntimed:undname.obj
 0001:00033300       ??0DName@@QAE@W4DNameStatus@@@Z 10034300 f   libvcruntimed:undname.obj
 0001:000333a0       ??0DName@@QAE@XZ           100343a0 f i libvcruntimed:undname.obj
 0001:000333d0       ??0DName@@QAE@_J@Z         100343d0 f   libvcruntimed:undname.obj
 0001:000334c0       ??0DName@@QAE@_K@Z         100344c0 f   libvcruntimed:undname.obj
 0001:00033570       ??0DNameNode@@IAE@XZ       10034570 f i libvcruntimed:undname.obj
 0001:00033590       ??0Replicator@@QAE@XZ      10034590 f i libvcruntimed:undname.obj
 0001:000335d0       ??0UnDecorator@@QAE@PBDP6APADJ@ZK@Z 100345d0 f i libvcruntimed:undname.obj
 0001:00033650       ??0charNode@@QAE@D@Z       10034650 f i libvcruntimed:undname.obj
 0001:00033680       ??0pDNameNode@@QAE@PAVDName@@@Z 10034680 f   libvcruntimed:undname.obj
 0001:000336e0       ??0pairNode@@QAE@PBVDNameNode@@0@Z 100346e0 f i libvcruntimed:undname.obj
 0001:00033720       ??0pcharNode@@QAE@PBDH@Z   10034720 f   libvcruntimed:undname.obj
 0001:000337e0       ??2@YAPAXIAAV_HeapManager@@H@Z 100347e0 f i libvcruntimed:undname.obj
 0001:00033800       ??4DName@@QAEAAV0@ABV0@@Z  10034800 f   libvcruntimed:undname.obj
 0001:00033830       ??4DName@@QAEAAV0@D@Z      10034830 f i libvcruntimed:undname.obj
 0001:00033870       ??4DName@@QAEAAV0@PAV0@@Z  10034870 f   libvcruntimed:undname.obj
 0001:00033910       ??4DName@@QAEAAV0@PBD@Z    10034910 f   libvcruntimed:undname.obj
 0001:00033950       ??4DName@@QAEAAV0@W4DNameStatus@@@Z 10034950 f   libvcruntimed:undname.obj
 0001:000339d0       ??AReplicator@@QBE?AVDName@@H@Z 100349d0 f   libvcruntimed:undname.obj
 0001:00033a40       ??H@YA?AVDName@@DABV0@@Z   10034a40 f i libvcruntimed:undname.obj
 0001:00033a70       ??H@YA?AVDName@@PBDABV0@@Z 10034a70 f i libvcruntimed:undname.obj
 0001:00033aa0       ??H@YA?AVDName@@W4DNameStatus@@ABV0@@Z 10034aa0 f i libvcruntimed:undname.obj
 0001:00033ad0       ??HDName@@QBE?AV0@ABV0@@Z  10034ad0 f   libvcruntimed:undname.obj
 0001:00033b10       ??HDName@@QBE?AV0@D@Z      10034b10 f   libvcruntimed:undname.obj
 0001:00033b50       ??HDName@@QBE?AV0@PAV0@@Z  10034b50 f   libvcruntimed:undname.obj
 0001:00033b90       ??HDName@@QBE?AV0@PBD@Z    10034b90 f   libvcruntimed:undname.obj
 0001:00033bd0       ??HDName@@QBE?AV0@W4DNameStatus@@@Z 10034bd0 f   libvcruntimed:undname.obj
 0001:00033c10       ??YDName@@QAEAAV0@ABV0@@Z  10034c10 f   libvcruntimed:undname.obj
 0001:00033c80       ??YDName@@QAEAAV0@D@Z      10034c80 f   libvcruntimed:undname.obj
 0001:00033d00       ??YDName@@QAEAAV0@PAV0@@Z  10034d00 f   libvcruntimed:undname.obj
 0001:00033dc0       ??YDName@@QAEAAV0@PBD@Z    10034dc0 f   libvcruntimed:undname.obj
 0001:00033e60       ??YDName@@QAEAAV0@W4DNameStatus@@@Z 10034e60 f   libvcruntimed:undname.obj
 0001:00033ec0       ??YReplicator@@QAEAAV0@ABVDName@@@Z 10034ec0 f   libvcruntimed:undname.obj
 0001:00033f50       ??_5DName@@QAEAAV0@ABV0@@Z 10034f50 f   libvcruntimed:undname.obj
 0001:00033fb0       ?Constructor@_HeapManager@@QAEXP6APAXI@ZP6AXPAX@Z@Z 10034fb0 f i libvcruntimed:undname.obj
 0001:00033ff0       ?Destructor@_HeapManager@@QAEXXZ 10034ff0 f i libvcruntimed:undname.obj
 0001:00034050       ?UScore@UnDecorator@@SAPBDW4Tokens@@@Z 10035050 f   libvcruntimed:undname.obj
 0001:00034080       ?append@DName@@AAEXPBVDNameNode@@@Z 10035080 f   libvcruntimed:undname.obj
 0001:00034110       ?composeDeclaration@UnDecorator@@CA?AVDName@@ABV2@@Z 10035110 f i libvcruntimed:undname.obj
 0001:00036030       ?dbGetString@DName@@QBEPADXZ 10037030 f   libvcruntimed:undname.obj
 0001:00036050       ?doAccessSpecifiers@UnDecorator@@SAHXZ 10037050 f i libvcruntimed:undname.obj
 0001:00036080       ?doAllocationLanguage@UnDecorator@@SAHXZ 10037080 f i libvcruntimed:undname.obj
 0001:000360b0       ?doAllocationModel@UnDecorator@@SAHXZ 100370b0 f i libvcruntimed:undname.obj
 0001:000360e0       ?doEcsu@UnDecorator@@SAHXZ 100370e0 f i libvcruntimed:undname.obj
 0001:00036110       ?doEllipsis@UnDecorator@@SAHXZ 10037110 f i libvcruntimed:undname.obj
 0001:00036140       ?doFunctionReturns@UnDecorator@@SAHXZ 10037140 f i libvcruntimed:undname.obj
 0001:00036170       ?doMSKeywords@UnDecorator@@SAHXZ 10037170 f i libvcruntimed:undname.obj
 0001:000361a0       ?doMemberTypes@UnDecorator@@SAHXZ 100371a0 f i libvcruntimed:undname.obj
 0001:000361d0       ?doNameOnly@UnDecorator@@SAHXZ 100371d0 f i libvcruntimed:undname.obj
 0001:000361e0       ?doNoIdentCharCheck@UnDecorator@@SAHXZ 100371e0 f i libvcruntimed:undname.obj
 0001:000361f0       ?doPchar@DName@@AAEXPBDH@Z 100371f0 f   libvcruntimed:undname.obj
 0001:00036330       ?doPtr64@UnDecorator@@SAHXZ 10037330 f i libvcruntimed:undname.obj
 0001:00036360       ?doRestrictionSpec@UnDecorator@@SAHXZ 10037360 f i libvcruntimed:undname.obj
 0001:00036390       ?doThisTypes@UnDecorator@@SAHXZ 10037390 f i libvcruntimed:undname.obj
 0001:000363c0       ?doThrowTypes@UnDecorator@@SAHXZ 100373c0 f i libvcruntimed:undname.obj
 0001:000363f0       ?doTypeOnly@UnDecorator@@SAHXZ 100373f0 f i libvcruntimed:undname.obj
 0001:00036400       ?doUnderScore@UnDecorator@@SAHXZ 10037400 f i libvcruntimed:undname.obj
 0001:00036430       ?getArgumentList@UnDecorator@@CA?AVDName@@XZ 10037430 f   libvcruntimed:undname.obj
 0001:00036580       ?getArgumentTypes@UnDecorator@@CA?AVDName@@XZ 10037580 f   libvcruntimed:undname.obj
 0001:000366d0       ?getArrayType@UnDecorator@@CA?AVDName@@ABV2@@Z 100376d0 f i libvcruntimed:undname.obj
 0001:00036950       ?getBasedType@UnDecorator@@CA?AVDName@@XZ 10037950 f   libvcruntimed:undname.obj
 0001:00036a20       ?getBasicDataType@UnDecorator@@CA?AVDName@@ABV2@@Z 10037a20 f   libvcruntimed:undname.obj
 0001:00037040       ?getCHPEName@UnDecorator@@QAEPADPADH@Z 10038040 f i libvcruntimed:undname.obj
 0001:000371a0       ?getCallIndex@UnDecorator@@CA?AVDName@@XZ 100381a0 f i libvcruntimed:undname.obj
 0001:000371c0       ?getCallingConvention@UnDecorator@@CA?AVDName@@XZ 100381c0 f   libvcruntimed:undname.obj
 0001:000373e0       ?getDataIndirectType@UnDecorator@@CA?AVDName@@ABV2@PBD0H@Z 100383e0 f   libvcruntimed:undname.obj
 0001:00037ce0       ?getDataIndirectType@UnDecorator@@CA?AVDName@@XZ 10038ce0 f i libvcruntimed:undname.obj
 0001:00037d20       ?getDataType@UnDecorator@@CA?AVDName@@PAV2@@Z 10038d20 f   libvcruntimed:undname.obj
 0001:00037e40       ?getDecoratedName@UnDecorator@@CA?AVDName@@XZ 10038e40 f   libvcruntimed:undname.obj
 0001:00038270       ?getDimension@UnDecorator@@CA?AVDName@@_N@Z 10039270 f   libvcruntimed:undname.obj
 0001:00038520       ?getDispatchTarget@UnDecorator@@CA?AVDName@@XZ 10039520 f   libvcruntimed:undname.obj
 0001:000385c0       ?getDisplacement@UnDecorator@@CA?AVDName@@XZ 100395c0 f i libvcruntimed:undname.obj
 0001:000385e0       ?getECSUDataType@UnDecorator@@CA?AVDName@@XZ 100395e0 f   libvcruntimed:undname.obj
 0001:000387c0       ?getECSUName@UnDecorator@@CA?AVDName@@XZ 100397c0 f i libvcruntimed:undname.obj
 0001:000387e0       ?getEnumType@UnDecorator@@CA?AVDName@@XZ 100397e0 f i libvcruntimed:undname.obj
 0001:00038930       ?getExtendedDataIndirectType@UnDecorator@@CA?AVDName@@AAPBDAA_NH@Z 10039930 f   libvcruntimed:undname.obj
 0001:00038b90       ?getExternalDataType@UnDecorator@@CA?AVDName@@ABV2@@Z 10039b90 f i libvcruntimed:undname.obj
 0001:00038c30       ?getFunctionIndirectType@UnDecorator@@CA?AVDName@@ABV2@@Z 10039c30 f   libvcruntimed:undname.obj
 0001:00039180       ?getGuardNumber@UnDecorator@@CA?AVDName@@XZ 1003a180 f i libvcruntimed:undname.obj
 0001:000391a0       ?getLastChar@DName@@QBEDXZ 1003a1a0 f i libvcruntimed:undname.obj
 0001:000391e0       ?getLastChar@DNameStatusNode@@UBEDXZ 1003a1e0 f i libvcruntimed:undname.obj
 0001:00039210       ?getLastChar@charNode@@UBEDXZ 1003a210 f i libvcruntimed:undname.obj
 0001:00039230       ?getLastChar@pDNameNode@@UBEDXZ 1003a230 f i libvcruntimed:undname.obj
 0001:00039260       ?getLastChar@pairNode@@UBEDXZ 1003a260 f i libvcruntimed:undname.obj
 0001:000392d0       ?getLastChar@pcharNode@@UBEDXZ 1003a2d0 f i libvcruntimed:undname.obj
 0001:00039310       ?getLexicalFrame@UnDecorator@@CA?AVDName@@XZ 1003a310 f i libvcruntimed:undname.obj
 0001:00039350       ?getMemory@_HeapManager@@QAEPAXIH@Z 1003a350 f   libvcruntimed:undname.obj
 0001:00039470       ?getNoexcept@UnDecorator@@CA?AVDName@@XZ 1003a470 f   libvcruntimed:undname.obj
 0001:000394e0       ?getNumberOfDimensions@UnDecorator@@CAHXZ 1003a4e0 f   libvcruntimed:undname.obj
 0001:000395e0       ?getOperatorName@UnDecorator@@CA?AVDName@@_NPA_N@Z 1003a5e0 f i libvcruntimed:undname.obj
 0001:0003a0d0       ?getPointerType@UnDecorator@@CA?AVDName@@ABV2@0@Z 1003b0d0 f i libvcruntimed:undname.obj
 0001:0003a100       ?getPointerTypeArray@UnDecorator@@CA?AVDName@@ABV2@0@Z 1003b100 f i libvcruntimed:undname.obj
 0001:0003a130       ?getPrimaryDataType@UnDecorator@@CA?AVDName@@ABV2@@Z 1003b130 f   libvcruntimed:undname.obj
 0001:0003a530       ?getPtrRefDataType@UnDecorator@@CA?AVDName@@ABV2@H@Z 1003b530 f   libvcruntimed:undname.obj
 0001:0003a760       ?getPtrRefType@UnDecorator@@CA?AVDName@@ABV2@0PBD@Z 1003b760 f   libvcruntimed:undname.obj
 0001:0003a8d0       ?getReferenceType@UnDecorator@@CA?AVDName@@ABV2@0PBD@Z 1003b8d0 f i libvcruntimed:undname.obj
 0001:0003a8f0       ?getRestrictionSpec@UnDecorator@@CA?AVDName@@XZ 1003b8f0 f   libvcruntimed:undname.obj
 0001:0003aa70       ?getReturnType@UnDecorator@@CA?AVDName@@PAV2@@Z 1003ba70 f   libvcruntimed:undname.obj
 0001:0003aac0       ?getScope@UnDecorator@@CA?AVDName@@XZ 1003bac0 f   libvcruntimed:undname.obj
 0001:0003b060       ?getScopedName@UnDecorator@@CA?AVDName@@XZ 1003c060 f   libvcruntimed:undname.obj
 0001:0003b1a0       ?getSignedDimension@UnDecorator@@CA?AVDName@@XZ 1003c1a0 f   libvcruntimed:undname.obj
 0001:0003b220       ?getStorageConvention@UnDecorator@@CA?AVDName@@XZ 1003c220 f i libvcruntimed:undname.obj
 0001:0003b240       ?getString@DName@@QBEPADPAD0@Z 1003c240 f i libvcruntimed:undname.obj
 0001:0003b2a0       ?getString@DName@@QBEPADPADH@Z 1003c2a0 f i libvcruntimed:undname.obj
 0001:0003b330       ?getString@DNameStatusNode@@UBEPADPAD0@Z 1003c330 f i libvcruntimed:undname.obj
 0001:0003b370       ?getString@charNode@@UBEPADPAD0@Z 1003c370 f i libvcruntimed:undname.obj
 0001:0003b3a0       ?getString@pDNameNode@@UBEPADPAD0@Z 1003c3a0 f i libvcruntimed:undname.obj
 0001:0003b3e0       ?getString@pairNode@@UBEPADPAD0@Z 1003c3e0 f i libvcruntimed:undname.obj
 0001:0003b470       ?getString@pcharNode@@UBEPADPAD0@Z 1003c470 f i libvcruntimed:undname.obj
 0001:0003b4a0       ?getStringEncoding@UnDecorator@@CA?AVDName@@PBDH@Z 1003c4a0 f   libvcruntimed:undname.obj
 0001:0003b5b0       ?getStringHelper@@YAPADPADPBD1H@Z 1003c5b0 f i libvcruntimed:undname.obj
 0001:0003b5f0       ?getSymbolName@UnDecorator@@CA?AVDName@@XZ 1003c5f0 f i libvcruntimed:undname.obj
 0001:0003b680       ?getTemplateArgumentList@UnDecorator@@CA?AVDName@@XZ 1003c680 f   libvcruntimed:undname.obj
 0001:0003baa0       ?getTemplateConstant@UnDecorator@@CA?AVDName@@XZ 1003caa0 f   libvcruntimed:undname.obj
 0001:0003c0c0       ?getTemplateName@UnDecorator@@CA?AVDName@@_N@Z 1003d0c0 f   libvcruntimed:undname.obj
 0001:0003c2a0       ?getThisType@UnDecorator@@CA?AVDName@@XZ 1003d2a0 f i libvcruntimed:undname.obj
 0001:0003c2e0       ?getThrowTypes@UnDecorator@@CA?AVDName@@XZ 1003d2e0 f   libvcruntimed:undname.obj
 0001:0003c320       ?getTypeEncoding@UnDecorator@@CAHXZ 1003d320 f i libvcruntimed:undname.obj
 0001:0003cdb0       ?getUndecoratedName@UnDecorator@@QAEPADPADH@Z 1003ddb0 f i libvcruntimed:undname.obj
 0001:0003cf00       ?getVCallThunkType@UnDecorator@@CA?AVDName@@XZ 1003df00 f i libvcruntimed:undname.obj
 0001:0003cf60       ?getVbTableType@UnDecorator@@CA?AVDName@@ABV2@@Z 1003df60 f i libvcruntimed:undname.obj
 0001:0003cf80       ?getVdispMapType@UnDecorator@@CA?AVDName@@ABV2@@Z 1003df80 f i libvcruntimed:undname.obj
 0001:0003d000       ?getVfTableType@UnDecorator@@CA?AVDName@@ABV2@@Z 1003e000 f i libvcruntimed:undname.obj
 0001:0003d1e0       ?getZName@UnDecorator@@CA?AVDName@@_N0@Z 1003e1e0 f   libvcruntimed:undname.obj
 0001:0003d4e0       ?haveTemplateParameters@UnDecorator@@SAHXZ 1003e4e0 f i libvcruntimed:undname.obj
 0001:0003d4f0       ?isArray@DName@@QBEHXZ     1003e4f0 f i libvcruntimed:undname.obj
 0001:0003d510       ?isComArray@DName@@QBEHXZ  1003e510 f i libvcruntimed:undname.obj
 0001:0003d530       ?isEmpty@DName@@QBEHXZ     1003e530 f i libvcruntimed:undname.obj
 0001:0003d560       ?isFull@Replicator@@QBEHXZ 1003e560 f i libvcruntimed:undname.obj
 0001:0003d590       ?isNoTE@DName@@QBEHXZ      1003e590 f i libvcruntimed:undname.obj
 0001:0003d5b0       ?isPinPtr@DName@@QBEHXZ    1003e5b0 f i libvcruntimed:undname.obj
 0001:0003d5d0       ?isPtrRef@DName@@QBEHXZ    1003e5d0 f i libvcruntimed:undname.obj
 0001:0003d5f0       ?isUDC@DName@@QBEHXZ       1003e5f0 f i libvcruntimed:undname.obj
 0001:0003d630       ?isUDTThunk@DName@@QBEHXZ  1003e630 f i libvcruntimed:undname.obj
 0001:0003d670       ?isVCallThunk@DName@@QBEHXZ 1003e670 f i libvcruntimed:undname.obj
 0001:0003d690       ?isValid@DName@@QBEHXZ     1003e690 f i libvcruntimed:undname.obj
 0001:0003d6d0       ?length@DName@@QBEHXZ      1003e6d0 f i libvcruntimed:undname.obj
 0001:0003d710       ?length@DNameStatusNode@@UBEHXZ 1003e710 f i libvcruntimed:undname.obj
 0001:0003d730       ?length@charNode@@UBEHXZ   1003e730 f i libvcruntimed:undname.obj
 0001:0003d740       ?length@pDNameNode@@UBEHXZ 1003e740 f i libvcruntimed:undname.obj
 0001:0003d770       ?length@pairNode@@UBEHXZ   1003e770 f i libvcruntimed:undname.obj
 0001:0003d7e0       ?length@pcharNode@@UBEHXZ  1003e7e0 f i libvcruntimed:undname.obj
 0001:0003d800       ?make@DNameStatusNode@@SAPBV1@W4DNameStatus@@@Z 1003e800 f i libvcruntimed:undname.obj
 0001:0003d830       ?parseDecoratedName@UnDecorator@@CA?AVDName@@XZ 1003e830 f   libvcruntimed:undname.obj
 0001:0003d9c0       ?setIsArray@DName@@QAEXXZ  1003e9c0 f i libvcruntimed:undname.obj
 0001:0003d9e0       ?setIsComArray@DName@@QAEXXZ 1003e9e0 f i libvcruntimed:undname.obj
 0001:0003da00       ?setIsNoTE@DName@@QAEXXZ   1003ea00 f i libvcruntimed:undname.obj
 0001:0003da20       ?setIsPinPtr@DName@@QAEXXZ 1003ea20 f i libvcruntimed:undname.obj
 0001:0003da40       ?setIsUDC@DName@@QAEXXZ    1003ea40 f i libvcruntimed:undname.obj
 0001:0003da70       ?setIsVCallThunk@DName@@QAEXXZ 1003ea70 f i libvcruntimed:undname.obj
 0001:0003da90       ?setPtrRef@DName@@QAEAAV1@XZ 1003ea90 f i libvcruntimed:undname.obj
 0001:0003dab0       ?status@DName@@QBE?AW4DNameStatus@@XZ 1003eab0 f i libvcruntimed:undname.obj
 0001:0003dbb0       ___unDName                 1003ebb0 f   libvcruntimed:undname.obj
 0001:0003dbe0       ___unDNameEx               1003ebe0 f   libvcruntimed:undname.obj
 0001:0003dcb0       _unDNameGenerateCHPE       1003ecb0 f   libvcruntimed:undname.obj
 0001:0003dd10       __global_unwind2           1003ed10 f   libvcruntimed:exsup.obj
 0001:0003dd76       __local_unwind2            1003ed76 f   libvcruntimed:exsup.obj
 0001:0003ddfa       __abnormal_termination     1003edfa f   libvcruntimed:exsup.obj
 0001:0003de20       __NLG_Notify1              1003ee20 f   libvcruntimed:exsup.obj
 0001:0003de2c       __NLG_Notify               1003ee2c f   libvcruntimed:exsup.obj
 0001:0003de43       __NLG_Dispatch2            1003ee43     libvcruntimed:exsup.obj
 0001:0003de43       __NLG_Dispatch             1003ee43     libvcruntimed:exsup.obj
 0001:0003de4b       __NLG_Call                 1003ee4b f   libvcruntimed:exsup.obj
 0001:0003de4d       __NLG_Return2              1003ee4d     libvcruntimed:exsup.obj
 0001:0003de80       __get_unexpected           1003ee80 f   libvcruntimed:unexpected.obj
 0001:0003dea0       _set_unexpected            1003eea0 f   libvcruntimed:unexpected.obj
 0001:0003ded0       _unexpected                1003eed0 f   libvcruntimed:unexpected.obj
 0001:0003df10       ?GetCurrentState@__FrameHandler3@@SAHPAUEHRegistrationNode@@PAXPBU_s_FuncInfo@@@Z 1003ef10 f   libvcruntimed:ehstate.obj
 0001:0003df40       ?SetState@__FrameHandler3@@SAXPAUEHRegistrationNode@@PBU_s_FuncInfo@@H@Z 1003ef40 f   libvcruntimed:ehstate.obj
 0001:0003df50       ___DestructExceptionObject 1003ef50 f   libvcruntimed:ehhelpers.obj
 0001:0003e080       ?_CallMemberFunction0@@YGXQAX0@Z 1003f080 f i libvcruntimed:ehhelpers.obj
 0001:0003e0a0       ?raw_name@type_info@@QBEPBDXZ 1003f0a0 f i libvcruntimed:ehhelpers.obj
 0001:0003e0c0       __IsExceptionObjectToBeDestroyed 1003f0c0 f   libvcruntimed:ehhelpers.obj
 0001:0003e100       __SetWinRTOutOfMemoryExceptionCallback 1003f100 f   libvcruntimed:ehhelpers.obj
 0001:0003e110       ___AdjustPointer           1003f110 f   libvcruntimed:ehhelpers.obj
 0001:0003e160       ___FrameUnwindFilter       1003f160 f   libvcruntimed:ehhelpers.obj
 0001:0003e1e0       ___GetPlatformExceptionInfo 1003f1e0 f   libvcruntimed:ehhelpers.obj
 0001:0003e260       ___current_exception       1003f260 f   libvcruntimed:ehhelpers.obj
 0001:0003e270       ___current_exception_context 1003f270 f   libvcruntimed:ehhelpers.obj
 0001:0003e280       ___processing_throw        1003f280 f   libvcruntimed:ehhelpers.obj
 0001:0003e290       ___std_terminate           1003f290 f   libvcruntimed:ehhelpers.obj
 0001:0003e2a0       __is_exception_typeof      1003f2a0 f   libvcruntimed:ehhelpers.obj
 0001:0003e380       ??$?0ABV?$stream_output_adapter@D@__crt_stdio_output@@AB_KABQBDABQAU__crt_locale_pointers@@ABQAD@?$format_validation_base@DV?$stream_output_adapter@D@__crt_stdio_output@@@__crt_stdio_output@@IAE@ABV?$stream_output_adapter@D@1@AB_KABQBDABQAU__crt_locale_pointers@@ABQAD@Z 1003f380 f i libucrtd:output.obj
 0001:0003e3b0       ??$?0ABV?$stream_output_adapter@D@__crt_stdio_output@@AB_KABQBDABQAU__crt_locale_pointers@@ABQAD@?$positional_parameter_base@DV?$stream_output_adapter@D@__crt_stdio_output@@@__crt_stdio_output@@IAE@ABV?$stream_output_adapter@D@1@AB_KABQBDABQAU__crt_locale_pointers@@ABQAD@Z 1003f3b0 f i libucrtd:output.obj
 0001:0003e430       ??$?0ABV?$stream_output_adapter@D@__crt_stdio_output@@AB_KABQBDABQAU__crt_locale_pointers@@ABQAD@?$standard_base@DV?$stream_output_adapter@D@__crt_stdio_output@@@__crt_stdio_output@@IAE@ABV?$stream_output_adapter@D@1@AB_KABQBDABQAU__crt_locale_pointers@@ABQAD@Z 1003f430 f i libucrtd:output.obj
 0001:0003e480       ??$?0ABV?$stream_output_adapter@_W@__crt_stdio_output@@AB_KABQB_WABQAU__crt_locale_pointers@@ABQAD@?$format_validation_base@_WV?$stream_output_adapter@_W@__crt_stdio_output@@@__crt_stdio_output@@IAE@ABV?$stream_output_adapter@_W@1@AB_KABQB_WABQAU__crt_locale_pointers@@ABQAD@Z 1003f480 f i libucrtd:output.obj
 0001:0003e4b0       ??$?0ABV?$stream_output_adapter@_W@__crt_stdio_output@@AB_KABQB_WABQAU__crt_locale_pointers@@ABQAD@?$positional_parameter_base@_WV?$stream_output_adapter@_W@__crt_stdio_output@@@__crt_stdio_output@@IAE@ABV?$stream_output_adapter@_W@1@AB_KABQB_WABQAU__crt_locale_pointers@@ABQAD@Z 1003f4b0 f i libucrtd:output.obj
 0001:0003e530       ??$?0ABV?$stream_output_adapter@_W@__crt_stdio_output@@AB_KABQB_WABQAU__crt_locale_pointers@@ABQAD@?$standard_base@_WV?$stream_output_adapter@_W@__crt_stdio_output@@@__crt_stdio_output@@IAE@ABV?$stream_output_adapter@_W@1@AB_KABQB_WABQAU__crt_locale_pointers@@ABQAD@Z 1003f530 f i libucrtd:output.obj
 0001:0003e580       ??$?0ABV?$string_output_adapter@D@__crt_stdio_output@@AB_KABQBDABQAU__crt_locale_pointers@@ABQAD@?$format_validation_base@DV?$string_output_adapter@D@__crt_stdio_output@@@__crt_stdio_output@@IAE@ABV?$string_output_adapter@D@1@AB_KABQBDABQAU__crt_locale_pointers@@ABQAD@Z 1003f580 f i libucrtd:output.obj
 0001:0003e5b0       ??$?0ABV?$string_output_adapter@D@__crt_stdio_output@@AB_KABQBDABQAU__crt_locale_pointers@@ABQAD@?$positional_parameter_base@DV?$string_output_adapter@D@__crt_stdio_output@@@__crt_stdio_output@@IAE@ABV?$string_output_adapter@D@1@AB_KABQBDABQAU__crt_locale_pointers@@ABQAD@Z 1003f5b0 f i libucrtd:output.obj
 0001:0003e630       ??$?0ABV?$string_output_adapter@D@__crt_stdio_output@@AB_KABQBDABQAU__crt_locale_pointers@@ABQAD@?$standard_base@DV?$string_output_adapter@D@__crt_stdio_output@@@__crt_stdio_output@@IAE@ABV?$string_output_adapter@D@1@AB_KABQBDABQAU__crt_locale_pointers@@ABQAD@Z 1003f630 f i libucrtd:output.obj
 0001:0003e680       ??$?0ABV?$string_output_adapter@_W@__crt_stdio_output@@AB_KABQB_WABQAU__crt_locale_pointers@@ABQAD@?$format_validation_base@_WV?$string_output_adapter@_W@__crt_stdio_output@@@__crt_stdio_output@@IAE@ABV?$string_output_adapter@_W@1@AB_KABQB_WABQAU__crt_locale_pointers@@ABQAD@Z 1003f680 f i libucrtd:output.obj
 0001:0003e6b0       ??$?0ABV?$string_output_adapter@_W@__crt_stdio_output@@AB_KABQB_WABQAU__crt_locale_pointers@@ABQAD@?$positional_parameter_base@_WV?$string_output_adapter@_W@__crt_stdio_output@@@__crt_stdio_output@@IAE@ABV?$string_output_adapter@_W@1@AB_KABQB_WABQAU__crt_locale_pointers@@ABQAD@Z 1003f6b0 f i libucrtd:output.obj
 0001:0003e730       ??$?0ABV?$string_output_adapter@_W@__crt_stdio_output@@AB_KABQB_WABQAU__crt_locale_pointers@@ABQAD@?$standard_base@_WV?$string_output_adapter@_W@__crt_stdio_output@@@__crt_stdio_output@@IAE@ABV?$string_output_adapter@_W@1@AB_KABQB_WABQAU__crt_locale_pointers@@ABQAD@Z 1003f730 f i libucrtd:output.obj
 0001:0003e780       ??$?RV<lambda_2293f24e3ce1ad6fe22ccfb9dec07671>@@AAV<lambda_2565fc715a641e539f44ad02d6823606>@@V<lambda_d3217f279b832965d9ca670dc2993570>@@@?$__crt_seh_guarded_call@H@@QAEH$$QAV<lambda_2293f24e3ce1ad6fe22ccfb9dec07671>@@AAV<lambda_2565fc715a641e539f44ad02d6823606>@@$$QAV<lambda_d3217f279b832965d9ca670dc2993570>@@@Z 1003f780 f i libucrtd:output.obj
 0001:0003e810       ??$?RV<lambda_4d4ac866be0fa3c441830420fabdd2cb>@@AAV<lambda_63a10c2dc8dbb9e4dd1890be52af7c93>@@V<lambda_002af9fa0f8fe472b648c51882d4fc32>@@@?$__crt_seh_guarded_call@H@@QAEH$$QAV<lambda_4d4ac866be0fa3c441830420fabdd2cb>@@AAV<lambda_63a10c2dc8dbb9e4dd1890be52af7c93>@@$$QAV<lambda_002af9fa0f8fe472b648c51882d4fc32>@@@Z 1003f810 f i libucrtd:output.obj
 0001:0003e8a0       ??$?RV<lambda_5be909dfbae0a631386585770cd7b676>@@AAV<lambda_e516058a9c289d98c8ca9fea99247804>@@V<lambda_afe2e0cdc5e0ecf6f0d6f5e2f8985e38>@@@?$__crt_seh_guarded_call@H@@QAEH$$QAV<lambda_5be909dfbae0a631386585770cd7b676>@@AAV<lambda_e516058a9c289d98c8ca9fea99247804>@@$$QAV<lambda_afe2e0cdc5e0ecf6f0d6f5e2f8985e38>@@@Z 1003f8a0 f i libucrtd:output.obj
 0001:0003e930       ??$?RV<lambda_823d65812123d985753d53e2a8c25d20>@@AAV<lambda_0a97c9e57da7be065955385c79108ff2>@@V<lambda_4d2973f3ad2d226f00468307185dca1b>@@@?$__crt_seh_guarded_call@H@@QAEH$$QAV<lambda_823d65812123d985753d53e2a8c25d20>@@AAV<lambda_0a97c9e57da7be065955385c79108ff2>@@$$QAV<lambda_4d2973f3ad2d226f00468307185dca1b>@@@Z 1003f930 f i libucrtd:output.obj
 0001:0003e9c0       ??$?RV<lambda_ab9923ffb5d694ec0d78876dd103e44f>@@AAV<lambda_481dd5778c961fbcd3b60b650e9b9dc4>@@V<lambda_7923d86c9e3f319b415918ec4b39749c>@@@?$__crt_seh_guarded_call@H@@QAEH$$QAV<lambda_ab9923ffb5d694ec0d78876dd103e44f>@@AAV<lambda_481dd5778c961fbcd3b60b650e9b9dc4>@@$$QAV<lambda_7923d86c9e3f319b415918ec4b39749c>@@@Z 1003f9c0 f i libucrtd:output.obj
 0001:0003ea50       ??$?RV<lambda_db08b09ef7aa9d4f8620ce68402612bc>@@AAV<lambda_4f2c1eaeead2a5fc776db5b62ea0fb9b>@@V<lambda_3ae262bc35d4ba6a3825c4f6bcaaf95c>@@@?$__crt_seh_guarded_call@H@@QAEH$$QAV<lambda_db08b09ef7aa9d4f8620ce68402612bc>@@AAV<lambda_4f2c1eaeead2a5fc776db5b62ea0fb9b>@@$$QAV<lambda_3ae262bc35d4ba6a3825c4f6bcaaf95c>@@@Z 1003fa50 f i libucrtd:output.obj
 0001:0003eae0       ??$__acrt_lock_stream_and_call@V<lambda_0a97c9e57da7be065955385c79108ff2>@@@@YAHQAU_iobuf@@$$QAV<lambda_0a97c9e57da7be065955385c79108ff2>@@@Z 1003fae0 f i libucrtd:output.obj
 0001:0003eb20       ??$__acrt_lock_stream_and_call@V<lambda_2565fc715a641e539f44ad02d6823606>@@@@YAHQAU_iobuf@@$$QAV<lambda_2565fc715a641e539f44ad02d6823606>@@@Z 1003fb20 f i libucrtd:output.obj
 0001:0003eb60       ??$__acrt_lock_stream_and_call@V<lambda_481dd5778c961fbcd3b60b650e9b9dc4>@@@@YAHQAU_iobuf@@$$QAV<lambda_481dd5778c961fbcd3b60b650e9b9dc4>@@@Z 1003fb60 f i libucrtd:output.obj
 0001:0003eba0       ??$__acrt_lock_stream_and_call@V<lambda_4f2c1eaeead2a5fc776db5b62ea0fb9b>@@@@YAHQAU_iobuf@@$$QAV<lambda_4f2c1eaeead2a5fc776db5b62ea0fb9b>@@@Z 1003fba0 f i libucrtd:output.obj
 0001:0003ebe0       ??$__acrt_lock_stream_and_call@V<lambda_63a10c2dc8dbb9e4dd1890be52af7c93>@@@@YAHQAU_iobuf@@$$QAV<lambda_63a10c2dc8dbb9e4dd1890be52af7c93>@@@Z 1003fbe0 f i libucrtd:output.obj
 0001:0003ec20       ??$__acrt_lock_stream_and_call@V<lambda_e516058a9c289d98c8ca9fea99247804>@@@@YAHQAU_iobuf@@$$QAV<lambda_e516058a9c289d98c8ca9fea99247804>@@@Z 1003fc20 f i libucrtd:output.obj
 0001:0003ec60       ??$__crt_interlocked_read@J@@YAJPDJ@Z 1003fc60 f i libucrtd:output.obj
 0001:00041a00       ??$count@D@formatting_buffer@__crt_stdio_output@@QBEIXZ 10042a00 f i libucrtd:output.obj
 0001:00041a40       ??$data@D@formatting_buffer@__crt_stdio_output@@QAEPADXZ 10042a40 f i libucrtd:output.obj
 0001:00041a80       ??$data@_W@formatting_buffer@__crt_stdio_output@@QAEPA_WXZ 10042a80 f i libucrtd:output.obj
 0001:00041ac0       ??$ensure_buffer_is_big_enough@D@formatting_buffer@__crt_stdio_output@@QAE_NI@Z 10042ac0 f i libucrtd:output.obj
 0001:00041ba0       ??$extract_argument_from_va_list@C_J@?$positional_parameter_base@DV?$stream_output_adapter@D@__crt_stdio_output@@@__crt_stdio_output@@IAE_NAA_J@Z 10042ba0 f i libucrtd:output.obj
 0001:00041ce0       ??$extract_argument_from_va_list@C_J@?$positional_parameter_base@DV?$string_output_adapter@D@__crt_stdio_output@@@__crt_stdio_output@@IAE_NAA_J@Z 10042ce0 f i libucrtd:output.obj
 0001:00041e20       ??$extract_argument_from_va_list@C_J@?$positional_parameter_base@_WV?$stream_output_adapter@_W@__crt_stdio_output@@@__crt_stdio_output@@IAE_NAA_J@Z 10042e20 f i libucrtd:output.obj
 0001:00041f60       ??$extract_argument_from_va_list@C_J@?$positional_parameter_base@_WV?$string_output_adapter@_W@__crt_stdio_output@@@__crt_stdio_output@@IAE_NAA_J@Z 10042f60 f i libucrtd:output.obj
 0001:000420a0       ??$extract_argument_from_va_list@C_J@?$standard_base@DV?$stream_output_adapter@D@__crt_stdio_output@@@__crt_stdio_output@@IAE_NAA_J@Z 100430a0 f i libucrtd:output.obj
 0001:000420d0       ??$extract_argument_from_va_list@C_J@?$standard_base@DV?$string_output_adapter@D@__crt_stdio_output@@@__crt_stdio_output@@IAE_NAA_J@Z 100430d0 f i libucrtd:output.obj
 0001:00042100       ??$extract_argument_from_va_list@C_J@?$standard_base@_WV?$stream_output_adapter@_W@__crt_stdio_output@@@__crt_stdio_output@@IAE_NAA_J@Z 10043100 f i libucrtd:output.obj
 0001:00042130       ??$extract_argument_from_va_list@C_J@?$standard_base@_WV?$string_output_adapter@_W@__crt_stdio_output@@@__crt_stdio_output@@IAE_NAA_J@Z 10043130 f i libucrtd:output.obj
 0001:00042160       ??$extract_argument_from_va_list@E_J@?$positional_parameter_base@DV?$stream_output_adapter@D@__crt_stdio_output@@@__crt_stdio_output@@IAE_NAA_J@Z 10043160 f i libucrtd:output.obj
 0001:000422a0       ??$extract_argument_from_va_list@E_J@?$positional_parameter_base@DV?$string_output_adapter@D@__crt_stdio_output@@@__crt_stdio_output@@IAE_NAA_J@Z 100432a0 f i libucrtd:output.obj
 0001:000423e0       ??$extract_argument_from_va_list@E_J@?$positional_parameter_base@_WV?$stream_output_adapter@_W@__crt_stdio_output@@@__crt_stdio_output@@IAE_NAA_J@Z 100433e0 f i libucrtd:output.obj
 0001:00042520       ??$extract_argument_from_va_list@E_J@?$positional_parameter_base@_WV?$string_output_adapter@_W@__crt_stdio_output@@@__crt_stdio_output@@IAE_NAA_J@Z 10043520 f i libucrtd:output.obj
 0001:00042660       ??$extract_argument_from_va_list@E_J@?$standard_base@DV?$stream_output_adapter@D@__crt_stdio_output@@@__crt_stdio_output@@IAE_NAA_J@Z 10043660 f i libucrtd:output.obj
 0001:00042690       ??$extract_argument_from_va_list@E_J@?$standard_base@DV?$string_output_adapter@D@__crt_stdio_output@@@__crt_stdio_output@@IAE_NAA_J@Z 10043690 f i libucrtd:output.obj
 0001:000426c0       ??$extract_argument_from_va_list@E_J@?$standard_base@_WV?$stream_output_adapter@_W@__crt_stdio_output@@@__crt_stdio_output@@IAE_NAA_J@Z 100436c0 f i libucrtd:output.obj
 0001:000426f0       ??$extract_argument_from_va_list@E_J@?$standard_base@_WV?$string_output_adapter@_W@__crt_stdio_output@@@__crt_stdio_output@@IAE_NAA_J@Z 100436f0 f i libucrtd:output.obj
 0001:00042720       ??$extract_argument_from_va_list@F_J@?$positional_parameter_base@DV?$stream_output_adapter@D@__crt_stdio_output@@@__crt_stdio_output@@IAE_NAA_J@Z 10043720 f i libucrtd:output.obj
 0001:00042850       ??$extract_argument_from_va_list@F_J@?$positional_parameter_base@DV?$string_output_adapter@D@__crt_stdio_output@@@__crt_stdio_output@@IAE_NAA_J@Z 10043850 f i libucrtd:output.obj
 0001:00042980       ??$extract_argument_from_va_list@F_J@?$positional_parameter_base@_WV?$stream_output_adapter@_W@__crt_stdio_output@@@__crt_stdio_output@@IAE_NAA_J@Z 10043980 f i libucrtd:output.obj
 0001:00042ab0       ??$extract_argument_from_va_list@F_J@?$positional_parameter_base@_WV?$string_output_adapter@_W@__crt_stdio_output@@@__crt_stdio_output@@IAE_NAA_J@Z 10043ab0 f i libucrtd:output.obj
 0001:00042be0       ??$extract_argument_from_va_list@F_J@?$standard_base@DV?$stream_output_adapter@D@__crt_stdio_output@@@__crt_stdio_output@@IAE_NAA_J@Z 10043be0 f i libucrtd:output.obj
 0001:00042c10       ??$extract_argument_from_va_list@F_J@?$standard_base@DV?$string_output_adapter@D@__crt_stdio_output@@@__crt_stdio_output@@IAE_NAA_J@Z 10043c10 f i libucrtd:output.obj
 0001:00042c40       ??$extract_argument_from_va_list@F_J@?$standard_base@_WV?$stream_output_adapter@_W@__crt_stdio_output@@@__crt_stdio_output@@IAE_NAA_J@Z 10043c40 f i libucrtd:output.obj
 0001:00042c70       ??$extract_argument_from_va_list@F_J@?$standard_base@_WV?$string_output_adapter@_W@__crt_stdio_output@@@__crt_stdio_output@@IAE_NAA_J@Z 10043c70 f i libucrtd:output.obj
 0001:00042ca0       ??$extract_argument_from_va_list@GD@?$positional_parameter_base@DV?$stream_output_adapter@D@__crt_stdio_output@@@__crt_stdio_output@@IAE_NAAD@Z 10043ca0 f i libucrtd:output.obj
 0001:00042dd0       ??$extract_argument_from_va_list@GD@?$positional_parameter_base@DV?$string_output_adapter@D@__crt_stdio_output@@@__crt_stdio_output@@IAE_NAAD@Z 10043dd0 f i libucrtd:output.obj
 0001:00042f00       ??$extract_argument_from_va_list@GD@?$standard_base@DV?$stream_output_adapter@D@__crt_stdio_output@@@__crt_stdio_output@@IAE_NAAD@Z 10043f00 f i libucrtd:output.obj
 0001:00042f30       ??$extract_argument_from_va_list@GD@?$standard_base@DV?$string_output_adapter@D@__crt_stdio_output@@@__crt_stdio_output@@IAE_NAAD@Z 10043f30 f i libucrtd:output.obj
 0001:00042f60       ??$extract_argument_from_va_list@G_J@?$positional_parameter_base@DV?$stream_output_adapter@D@__crt_stdio_output@@@__crt_stdio_output@@IAE_NAA_J@Z 10043f60 f i libucrtd:output.obj
 0001:000430a0       ??$extract_argument_from_va_list@G_J@?$positional_parameter_base@DV?$string_output_adapter@D@__crt_stdio_output@@@__crt_stdio_output@@IAE_NAA_J@Z 100440a0 f i libucrtd:output.obj
 0001:000431e0       ??$extract_argument_from_va_list@G_J@?$positional_parameter_base@_WV?$stream_output_adapter@_W@__crt_stdio_output@@@__crt_stdio_output@@IAE_NAA_J@Z 100441e0 f i libucrtd:output.obj
 0001:00043320       ??$extract_argument_from_va_list@G_J@?$positional_parameter_base@_WV?$string_output_adapter@_W@__crt_stdio_output@@@__crt_stdio_output@@IAE_NAA_J@Z 10044320 f i libucrtd:output.obj
 0001:00043460       ??$extract_argument_from_va_list@G_J@?$standard_base@DV?$stream_output_adapter@D@__crt_stdio_output@@@__crt_stdio_output@@IAE_NAA_J@Z 10044460 f i libucrtd:output.obj
 0001:00043490       ??$extract_argument_from_va_list@G_J@?$standard_base@DV?$string_output_adapter@D@__crt_stdio_output@@@__crt_stdio_output@@IAE_NAA_J@Z 10044490 f i libucrtd:output.obj
 0001:000434c0       ??$extract_argument_from_va_list@G_J@?$standard_base@_WV?$stream_output_adapter@_W@__crt_stdio_output@@@__crt_stdio_output@@IAE_NAA_J@Z 100444c0 f i libucrtd:output.obj
 0001:000434f0       ??$extract_argument_from_va_list@G_J@?$standard_base@_WV?$string_output_adapter@_W@__crt_stdio_output@@@__crt_stdio_output@@IAE_NAA_J@Z 100444f0 f i libucrtd:output.obj
 0001:00043520       ??$extract_argument_from_va_list@H_J@?$positional_parameter_base@DV?$stream_output_adapter@D@__crt_stdio_output@@@__crt_stdio_output@@IAE_NAA_J@Z 10044520 f i libucrtd:output.obj
 0001:00043650       ??$extract_argument_from_va_list@H_J@?$positional_parameter_base@DV?$string_output_adapter@D@__crt_stdio_output@@@__crt_stdio_output@@IAE_NAA_J@Z 10044650 f i libucrtd:output.obj
 0001:00043780       ??$extract_argument_from_va_list@H_J@?$positional_parameter_base@_WV?$stream_output_adapter@_W@__crt_stdio_output@@@__crt_stdio_output@@IAE_NAA_J@Z 10044780 f i libucrtd:output.obj
 0001:000438b0       ??$extract_argument_from_va_list@H_J@?$positional_parameter_base@_WV?$string_output_adapter@_W@__crt_stdio_output@@@__crt_stdio_output@@IAE_NAA_J@Z 100448b0 f i libucrtd:output.obj
 0001:000439e0       ??$extract_argument_from_va_list@H_J@?$standard_base@DV?$stream_output_adapter@D@__crt_stdio_output@@@__crt_stdio_output@@IAE_NAA_J@Z 100449e0 f i libucrtd:output.obj
 0001:00043a10       ??$extract_argument_from_va_list@H_J@?$standard_base@DV?$string_output_adapter@D@__crt_stdio_output@@@__crt_stdio_output@@IAE_NAA_J@Z 10044a10 f i libucrtd:output.obj
 0001:00043a40       ??$extract_argument_from_va_list@H_J@?$standard_base@_WV?$stream_output_adapter@_W@__crt_stdio_output@@@__crt_stdio_output@@IAE_NAA_J@Z 10044a40 f i libucrtd:output.obj
 0001:00043a70       ??$extract_argument_from_va_list@H_J@?$standard_base@_WV?$string_output_adapter@_W@__crt_stdio_output@@@__crt_stdio_output@@IAE_NAA_J@Z 10044a70 f i libucrtd:output.obj
 0001:00043aa0       ??$extract_argument_from_va_list@I_J@?$positional_parameter_base@DV?$stream_output_adapter@D@__crt_stdio_output@@@__crt_stdio_output@@IAE_NAA_J@Z 10044aa0 f i libucrtd:output.obj
 0001:00043bd0       ??$extract_argument_from_va_list@I_J@?$positional_parameter_base@DV?$string_output_adapter@D@__crt_stdio_output@@@__crt_stdio_output@@IAE_NAA_J@Z 10044bd0 f i libucrtd:output.obj
 0001:00043d00       ??$extract_argument_from_va_list@I_J@?$positional_parameter_base@_WV?$stream_output_adapter@_W@__crt_stdio_output@@@__crt_stdio_output@@IAE_NAA_J@Z 10044d00 f i libucrtd:output.obj
 0001:00043e30       ??$extract_argument_from_va_list@I_J@?$positional_parameter_base@_WV?$string_output_adapter@_W@__crt_stdio_output@@@__crt_stdio_output@@IAE_NAA_J@Z 10044e30 f i libucrtd:output.obj
 0001:00043f60       ??$extract_argument_from_va_list@I_J@?$standard_base@DV?$stream_output_adapter@D@__crt_stdio_output@@@__crt_stdio_output@@IAE_NAA_J@Z 10044f60 f i libucrtd:output.obj
 0001:00043f90       ??$extract_argument_from_va_list@I_J@?$standard_base@DV?$string_output_adapter@D@__crt_stdio_output@@@__crt_stdio_output@@IAE_NAA_J@Z 10044f90 f i libucrtd:output.obj
 0001:00043fc0       ??$extract_argument_from_va_list@I_J@?$standard_base@_WV?$stream_output_adapter@_W@__crt_stdio_output@@@__crt_stdio_output@@IAE_NAA_J@Z 10044fc0 f i libucrtd:output.obj
 0001:00043ff0       ??$extract_argument_from_va_list@I_J@?$standard_base@_WV?$string_output_adapter@_W@__crt_stdio_output@@@__crt_stdio_output@@IAE_NAA_J@Z 10044ff0 f i libucrtd:output.obj
 0001:00044020       ??$extract_argument_from_va_list@PADPAD@?$positional_parameter_base@DV?$stream_output_adapter@D@__crt_stdio_output@@@__crt_stdio_output@@IAE_NAAPAD@Z 10045020 f i libucrtd:output.obj
 0001:00044150       ??$extract_argument_from_va_list@PADPAD@?$positional_parameter_base@DV?$string_output_adapter@D@__crt_stdio_output@@@__crt_stdio_output@@IAE_NAAPAD@Z 10045150 f i libucrtd:output.obj
 0001:00044280       ??$extract_argument_from_va_list@PADPAD@?$positional_parameter_base@_WV?$stream_output_adapter@_W@__crt_stdio_output@@@__crt_stdio_output@@IAE_NAAPAD@Z 10045280 f i libucrtd:output.obj
 0001:000443b0       ??$extract_argument_from_va_list@PADPAD@?$positional_parameter_base@_WV?$string_output_adapter@_W@__crt_stdio_output@@@__crt_stdio_output@@IAE_NAAPAD@Z 100453b0 f i libucrtd:output.obj
 0001:000444e0       ??$extract_argument_from_va_list@PADPAD@?$standard_base@DV?$stream_output_adapter@D@__crt_stdio_output@@@__crt_stdio_output@@IAE_NAAPAD@Z 100454e0 f i libucrtd:output.obj
 0001:00044510       ??$extract_argument_from_va_list@PADPAD@?$standard_base@DV?$string_output_adapter@D@__crt_stdio_output@@@__crt_stdio_output@@IAE_NAAPAD@Z 10045510 f i libucrtd:output.obj
 0001:00044540       ??$extract_argument_from_va_list@PADPAD@?$standard_base@_WV?$stream_output_adapter@_W@__crt_stdio_output@@@__crt_stdio_output@@IAE_NAAPAD@Z 10045540 f i libucrtd:output.obj
 0001:00044570       ??$extract_argument_from_va_list@PADPAD@?$standard_base@_WV?$string_output_adapter@_W@__crt_stdio_output@@@__crt_stdio_output@@IAE_NAAPAD@Z 10045570 f i libucrtd:output.obj
 0001:000445a0       ??$extract_argument_from_va_list@PAUansi_string@?1??type_case_Z@?$output_processor@DV?$stream_output_adapter@D@__crt_stdio_output@@V?$format_validation_base@DV?$stream_output_adapter@D@__crt_stdio_output@@@2@@__crt_stdio_output@@AAE_NXZ@PAU1?1??234@AAE_NXZ@@?$standard_base@DV?$stream_output_adapter@D@__crt_stdio_output@@@__crt_stdio_output@@IAE_NAAPAUansi_string@?1??type_case_Z@?$output_processor@DV?$stream_output_adapter@D@__crt_stdio_output@@V?$format_validation_base@DV?$stream_output_adapter@D@__crt_stdio_output@@@2@@1@AAE_NXZ@@Z 100455a0 f i libucrtd:output.obj
 0001:000445d0       ??$extract_argument_from_va_list@PAUansi_string@?1??type_case_Z@?$output_processor@DV?$stream_output_adapter@D@__crt_stdio_output@@V?$positional_parameter_base@DV?$stream_output_adapter@D@__crt_stdio_output@@@2@@__crt_stdio_output@@AAE_NXZ@PAU1?1??234@AAE_NXZ@@?$positional_parameter_base@DV?$stream_output_adapter@D@__crt_stdio_output@@@__crt_stdio_output@@IAE_NAAPAUansi_string@?1??type_case_Z@?$output_processor@DV?$stream_output_adapter@D@__crt_stdio_output@@V?$positional_parameter_base@DV?$stream_output_adapter@D@__crt_stdio_output@@@2@@1@AAE_NXZ@@Z 100455d0 f i libucrtd:output.obj
 0001:00044700       ??$extract_argument_from_va_list@PAUansi_string@?1??type_case_Z@?$output_processor@DV?$stream_output_adapter@D@__crt_stdio_output@@V?$positional_parameter_base@DV?$stream_output_adapter@D@__crt_stdio_output@@@2@@__crt_stdio_output@@AAE_NXZ@PAU1?1??234@AAE_NXZ@@?$standard_base@DV?$stream_output_adapter@D@__crt_stdio_output@@@__crt_stdio_output@@IAE_NAAPAUansi_string@?1??type_case_Z@?$output_processor@DV?$stream_output_adapter@D@__crt_stdio_output@@V?$positional_parameter_base@DV?$stream_output_adapter@D@__crt_stdio_output@@@2@@1@AAE_NXZ@@Z 10045700 f i libucrtd:output.obj
 0001:00044730       ??$extract_argument_from_va_list@PAUansi_string@?1??type_case_Z@?$output_processor@DV?$stream_output_adapter@D@__crt_stdio_output@@V?$standard_base@DV?$stream_output_adapter@D@__crt_stdio_output@@@2@@__crt_stdio_output@@AAE_NXZ@PAU1?1??234@AAE_NXZ@@?$standard_base@DV?$stream_output_adapter@D@__crt_stdio_output@@@__crt_stdio_output@@IAE_NAAPAUansi_string@?1??type_case_Z@?$output_processor@DV?$stream_output_adapter@D@__crt_stdio_output@@V?$standard_base@DV?$stream_output_adapter@D@__crt_stdio_output@@@2@@1@AAE_NXZ@@Z 10045730 f i libucrtd:output.obj
 0001:00044760       ??$extract_argument_from_va_list@PAUansi_string@?1??type_case_Z@?$output_processor@DV?$string_output_adapter@D@__crt_stdio_output@@V?$format_validation_base@DV?$string_output_adapter@D@__crt_stdio_output@@@2@@__crt_stdio_output@@AAE_NXZ@PAU1?1??234@AAE_NXZ@@?$standard_base@DV?$string_output_adapter@D@__crt_stdio_output@@@__crt_stdio_output@@IAE_NAAPAUansi_string@?1??type_case_Z@?$output_processor@DV?$string_output_adapter@D@__crt_stdio_output@@V?$format_validation_base@DV?$string_output_adapter@D@__crt_stdio_output@@@2@@1@AAE_NXZ@@Z 10045760 f i libucrtd:output.obj
 0001:00044790       ??$extract_argument_from_va_list@PAUansi_string@?1??type_case_Z@?$output_processor@DV?$string_output_adapter@D@__crt_stdio_output@@V?$positional_parameter_base@DV?$string_output_adapter@D@__crt_stdio_output@@@2@@__crt_stdio_output@@AAE_NXZ@PAU1?1??234@AAE_NXZ@@?$positional_parameter_base@DV?$string_output_adapter@D@__crt_stdio_output@@@__crt_stdio_output@@IAE_NAAPAUansi_string@?1??type_case_Z@?$output_processor@DV?$string_output_adapter@D@__crt_stdio_output@@V?$positional_parameter_base@DV?$string_output_adapter@D@__crt_stdio_output@@@2@@1@AAE_NXZ@@Z 10045790 f i libucrtd:output.obj
 0001:000448c0       ??$extract_argument_from_va_list@PAUansi_string@?1??type_case_Z@?$output_processor@DV?$string_output_adapter@D@__crt_stdio_output@@V?$positional_parameter_base@DV?$string_output_adapter@D@__crt_stdio_output@@@2@@__crt_stdio_output@@AAE_NXZ@PAU1?1??234@AAE_NXZ@@?$standard_base@DV?$string_output_adapter@D@__crt_stdio_output@@@__crt_stdio_output@@IAE_NAAPAUansi_string@?1??type_case_Z@?$output_processor@DV?$string_output_adapter@D@__crt_stdio_output@@V?$positional_parameter_base@DV?$string_output_adapter@D@__crt_stdio_output@@@2@@1@AAE_NXZ@@Z 100458c0 f i libucrtd:output.obj
 0001:000448f0       ??$extract_argument_from_va_list@PAUansi_string@?1??type_case_Z@?$output_processor@DV?$string_output_adapter@D@__crt_stdio_output@@V?$standard_base@DV?$string_output_adapter@D@__crt_stdio_output@@@2@@__crt_stdio_output@@AAE_NXZ@PAU1?1??234@AAE_NXZ@@?$standard_base@DV?$string_output_adapter@D@__crt_stdio_output@@@__crt_stdio_output@@IAE_NAAPAUansi_string@?1??type_case_Z@?$output_processor@DV?$string_output_adapter@D@__crt_stdio_output@@V?$standard_base@DV?$string_output_adapter@D@__crt_stdio_output@@@2@@1@AAE_NXZ@@Z 100458f0 f i libucrtd:output.obj
 0001:00044920       ??$extract_argument_from_va_list@PAUansi_string@?1??type_case_Z@?$output_processor@_WV?$stream_output_adapter@_W@__crt_stdio_output@@V?$format_validation_base@_WV?$stream_output_adapter@_W@__crt_stdio_output@@@2@@__crt_stdio_output@@AAE_NXZ@PAU1?1??234@AAE_NXZ@@?$standard_base@_WV?$stream_output_adapter@_W@__crt_stdio_output@@@__crt_stdio_output@@IAE_NAAPAUansi_string@?1??type_case_Z@?$output_processor@_WV?$stream_output_adapter@_W@__crt_stdio_output@@V?$format_validation_base@_WV?$stream_output_adapter@_W@__crt_stdio_output@@@2@@1@AAE_NXZ@@Z 10045920 f i libucrtd:output.obj
 0001:00044950       ??$extract_argument_from_va_list@PAUansi_string@?1??type_case_Z@?$output_processor@_WV?$stream_output_adapter@_W@__crt_stdio_output@@V?$positional_parameter_base@_WV?$stream_output_adapter@_W@__crt_stdio_output@@@2@@__crt_stdio_output@@AAE_NXZ@PAU1?1??234@AAE_NXZ@@?$positional_parameter_base@_WV?$stream_output_adapter@_W@__crt_stdio_output@@@__crt_stdio_output@@IAE_NAAPAUansi_string@?1??type_case_Z@?$output_processor@_WV?$stream_output_adapter@_W@__crt_stdio_output@@V?$positional_parameter_base@_WV?$stream_output_adapter@_W@__crt_stdio_output@@@2@@1@AAE_NXZ@@Z 10045950 f i libucrtd:output.obj
 0001:00044a80       ??$extract_argument_from_va_list@PAUansi_string@?1??type_case_Z@?$output_processor@_WV?$stream_output_adapter@_W@__crt_stdio_output@@V?$positional_parameter_base@_WV?$stream_output_adapter@_W@__crt_stdio_output@@@2@@__crt_stdio_output@@AAE_NXZ@PAU1?1??234@AAE_NXZ@@?$standard_base@_WV?$stream_output_adapter@_W@__crt_stdio_output@@@__crt_stdio_output@@IAE_NAAPAUansi_string@?1??type_case_Z@?$output_processor@_WV?$stream_output_adapter@_W@__crt_stdio_output@@V?$positional_parameter_base@_WV?$stream_output_adapter@_W@__crt_stdio_output@@@2@@1@AAE_NXZ@@Z 10045a80 f i libucrtd:output.obj
 0001:00044ab0       ??$extract_argument_from_va_list@PAUansi_string@?1??type_case_Z@?$output_processor@_WV?$stream_output_adapter@_W@__crt_stdio_output@@V?$standard_base@_WV?$stream_output_adapter@_W@__crt_stdio_output@@@2@@__crt_stdio_output@@AAE_NXZ@PAU1?1??234@AAE_NXZ@@?$standard_base@_WV?$stream_output_adapter@_W@__crt_stdio_output@@@__crt_stdio_output@@IAE_NAAPAUansi_string@?1??type_case_Z@?$output_processor@_WV?$stream_output_adapter@_W@__crt_stdio_output@@V?$standard_base@_WV?$stream_output_adapter@_W@__crt_stdio_output@@@2@@1@AAE_NXZ@@Z 10045ab0 f i libucrtd:output.obj
 0001:00044ae0       ??$extract_argument_from_va_list@PAUansi_string@?1??type_case_Z@?$output_processor@_WV?$string_output_adapter@_W@__crt_stdio_output@@V?$format_validation_base@_WV?$string_output_adapter@_W@__crt_stdio_output@@@2@@__crt_stdio_output@@AAE_NXZ@PAU1?1??234@AAE_NXZ@@?$standard_base@_WV?$string_output_adapter@_W@__crt_stdio_output@@@__crt_stdio_output@@IAE_NAAPAUansi_string@?1??type_case_Z@?$output_processor@_WV?$string_output_adapter@_W@__crt_stdio_output@@V?$format_validation_base@_WV?$string_output_adapter@_W@__crt_stdio_output@@@2@@1@AAE_NXZ@@Z 10045ae0 f i libucrtd:output.obj
 0001:00044b10       ??$extract_argument_from_va_list@PAUansi_string@?1??type_case_Z@?$output_processor@_WV?$string_output_adapter@_W@__crt_stdio_output@@V?$positional_parameter_base@_WV?$string_output_adapter@_W@__crt_stdio_output@@@2@@__crt_stdio_output@@AAE_NXZ@PAU1?1??234@AAE_NXZ@@?$positional_parameter_base@_WV?$string_output_adapter@_W@__crt_stdio_output@@@__crt_stdio_output@@IAE_NAAPAUansi_string@?1??type_case_Z@?$output_processor@_WV?$string_output_adapter@_W@__crt_stdio_output@@V?$positional_parameter_base@_WV?$string_output_adapter@_W@__crt_stdio_output@@@2@@1@AAE_NXZ@@Z 10045b10 f i libucrtd:output.obj
 0001:00044c40       ??$extract_argument_from_va_list@PAUansi_string@?1??type_case_Z@?$output_processor@_WV?$string_output_adapter@_W@__crt_stdio_output@@V?$positional_parameter_base@_WV?$string_output_adapter@_W@__crt_stdio_output@@@2@@__crt_stdio_output@@AAE_NXZ@PAU1?1??234@AAE_NXZ@@?$standard_base@_WV?$string_output_adapter@_W@__crt_stdio_output@@@__crt_stdio_output@@IAE_NAAPAUansi_string@?1??type_case_Z@?$output_processor@_WV?$string_output_adapter@_W@__crt_stdio_output@@V?$positional_parameter_base@_WV?$string_output_adapter@_W@__crt_stdio_output@@@2@@1@AAE_NXZ@@Z 10045c40 f i libucrtd:output.obj
 0001:00044c70       ??$extract_argument_from_va_list@PAUansi_string@?1??type_case_Z@?$output_processor@_WV?$string_output_adapter@_W@__crt_stdio_output@@V?$standard_base@_WV?$string_output_adapter@_W@__crt_stdio_output@@@2@@__crt_stdio_output@@AAE_NXZ@PAU1?1??234@AAE_NXZ@@?$standard_base@_WV?$string_output_adapter@_W@__crt_stdio_output@@@__crt_stdio_output@@IAE_NAAPAUansi_string@?1??type_case_Z@?$output_processor@_WV?$string_output_adapter@_W@__crt_stdio_output@@V?$standard_base@_WV?$string_output_adapter@_W@__crt_stdio_output@@@2@@1@AAE_NXZ@@Z 10045c70 f i libucrtd:output.obj
 0001:00044ca0       ??$extract_argument_from_va_list@PAXPAX@?$positional_parameter_base@DV?$stream_output_adapter@D@__crt_stdio_output@@@__crt_stdio_output@@IAE_NAAPAX@Z 10045ca0 f i libucrtd:output.obj
 0001:00044dd0       ??$extract_argument_from_va_list@PAXPAX@?$positional_parameter_base@DV?$string_output_adapter@D@__crt_stdio_output@@@__crt_stdio_output@@IAE_NAAPAX@Z 10045dd0 f i libucrtd:output.obj
 0001:00044f00       ??$extract_argument_from_va_list@PAXPAX@?$positional_parameter_base@_WV?$stream_output_adapter@_W@__crt_stdio_output@@@__crt_stdio_output@@IAE_NAAPAX@Z 10045f00 f i libucrtd:output.obj
 0001:00045030       ??$extract_argument_from_va_list@PAXPAX@?$positional_parameter_base@_WV?$string_output_adapter@_W@__crt_stdio_output@@@__crt_stdio_output@@IAE_NAAPAX@Z 10046030 f i libucrtd:output.obj
 0001:00045160       ??$extract_argument_from_va_list@PAXPAX@?$standard_base@DV?$stream_output_adapter@D@__crt_stdio_output@@@__crt_stdio_output@@IAE_NAAPAX@Z 10046160 f i libucrtd:output.obj
 0001:00045190       ??$extract_argument_from_va_list@PAXPAX@?$standard_base@DV?$string_output_adapter@D@__crt_stdio_output@@@__crt_stdio_output@@IAE_NAAPAX@Z 10046190 f i libucrtd:output.obj
 0001:000451c0       ??$extract_argument_from_va_list@PAXPAX@?$standard_base@_WV?$stream_output_adapter@_W@__crt_stdio_output@@@__crt_stdio_output@@IAE_NAAPAX@Z 100461c0 f i libucrtd:output.obj
 0001:000451f0       ??$extract_argument_from_va_list@PAXPAX@?$standard_base@_WV?$string_output_adapter@_W@__crt_stdio_output@@@__crt_stdio_output@@IAE_NAAPAX@Z 100461f0 f i libucrtd:output.obj
 0001:00045220       ??$extract_argument_from_va_list@U_CRT_DOUBLE@@U1@@?$positional_parameter_base@DV?$stream_output_adapter@D@__crt_stdio_output@@@__crt_stdio_output@@IAE_NAAU_CRT_DOUBLE@@@Z 10046220 f i libucrtd:output.obj
 0001:00045380       ??$extract_argument_from_va_list@U_CRT_DOUBLE@@U1@@?$positional_parameter_base@DV?$string_output_adapter@D@__crt_stdio_output@@@__crt_stdio_output@@IAE_NAAU_CRT_DOUBLE@@@Z 10046380 f i libucrtd:output.obj
 0001:000454e0       ??$extract_argument_from_va_list@U_CRT_DOUBLE@@U1@@?$positional_parameter_base@_WV?$stream_output_adapter@_W@__crt_stdio_output@@@__crt_stdio_output@@IAE_NAAU_CRT_DOUBLE@@@Z 100464e0 f i libucrtd:output.obj
 0001:00045640       ??$extract_argument_from_va_list@U_CRT_DOUBLE@@U1@@?$positional_parameter_base@_WV?$string_output_adapter@_W@__crt_stdio_output@@@__crt_stdio_output@@IAE_NAAU_CRT_DOUBLE@@@Z 10046640 f i libucrtd:output.obj
 0001:000457a0       ??$extract_argument_from_va_list@U_CRT_DOUBLE@@U1@@?$standard_base@DV?$stream_output_adapter@D@__crt_stdio_output@@@__crt_stdio_output@@IAE_NAAU_CRT_DOUBLE@@@Z 100467a0 f i libucrtd:output.obj
 0001:000457f0       ??$extract_argument_from_va_list@U_CRT_DOUBLE@@U1@@?$standard_base@DV?$string_output_adapter@D@__crt_stdio_output@@@__crt_stdio_output@@IAE_NAAU_CRT_DOUBLE@@@Z 100467f0 f i libucrtd:output.obj
 0001:00045840       ??$extract_argument_from_va_list@U_CRT_DOUBLE@@U1@@?$standard_base@_WV?$stream_output_adapter@_W@__crt_stdio_output@@@__crt_stdio_output@@IAE_NAAU_CRT_DOUBLE@@@Z 10046840 f i libucrtd:output.obj
 0001:00045890       ??$extract_argument_from_va_list@U_CRT_DOUBLE@@U1@@?$standard_base@_WV?$string_output_adapter@_W@__crt_stdio_output@@@__crt_stdio_output@@IAE_NAAU_CRT_DOUBLE@@@Z 10046890 f i libucrtd:output.obj
 0001:000458e0       ??$extract_argument_from_va_list@_J_J@?$positional_parameter_base@DV?$stream_output_adapter@D@__crt_stdio_output@@@__crt_stdio_output@@IAE_NAA_J@Z 100468e0 f i libucrtd:output.obj
 0001:00045a10       ??$extract_argument_from_va_list@_J_J@?$positional_parameter_base@DV?$string_output_adapter@D@__crt_stdio_output@@@__crt_stdio_output@@IAE_NAA_J@Z 10046a10 f i libucrtd:output.obj
 0001:00045b40       ??$extract_argument_from_va_list@_J_J@?$positional_parameter_base@_WV?$stream_output_adapter@_W@__crt_stdio_output@@@__crt_stdio_output@@IAE_NAA_J@Z 10046b40 f i libucrtd:output.obj
 0001:00045c70       ??$extract_argument_from_va_list@_J_J@?$positional_parameter_base@_WV?$string_output_adapter@_W@__crt_stdio_output@@@__crt_stdio_output@@IAE_NAA_J@Z 10046c70 f i libucrtd:output.obj
 0001:00045da0       ??$extract_argument_from_va_list@_J_J@?$standard_base@DV?$stream_output_adapter@D@__crt_stdio_output@@@__crt_stdio_output@@IAE_NAA_J@Z 10046da0 f i libucrtd:output.obj
 0001:00045dd0       ??$extract_argument_from_va_list@_J_J@?$standard_base@DV?$string_output_adapter@D@__crt_stdio_output@@@__crt_stdio_output@@IAE_NAA_J@Z 10046dd0 f i libucrtd:output.obj
 0001:00045e00       ??$extract_argument_from_va_list@_J_J@?$standard_base@_WV?$stream_output_adapter@_W@__crt_stdio_output@@@__crt_stdio_output@@IAE_NAA_J@Z 10046e00 f i libucrtd:output.obj
 0001:00045e30       ??$extract_argument_from_va_list@_J_J@?$standard_base@_WV?$string_output_adapter@_W@__crt_stdio_output@@@__crt_stdio_output@@IAE_NAA_J@Z 10046e30 f i libucrtd:output.obj
 0001:00045e60       ??$extract_argument_from_va_list@_K_J@?$positional_parameter_base@DV?$stream_output_adapter@D@__crt_stdio_output@@@__crt_stdio_output@@IAE_NAA_J@Z 10046e60 f i libucrtd:output.obj
 0001:00045f90       ??$extract_argument_from_va_list@_K_J@?$positional_parameter_base@DV?$string_output_adapter@D@__crt_stdio_output@@@__crt_stdio_output@@IAE_NAA_J@Z 10046f90 f i libucrtd:output.obj
 0001:000460c0       ??$extract_argument_from_va_list@_K_J@?$positional_parameter_base@_WV?$stream_output_adapter@_W@__crt_stdio_output@@@__crt_stdio_output@@IAE_NAA_J@Z 100470c0 f i libucrtd:output.obj
 0001:000461f0       ??$extract_argument_from_va_list@_K_J@?$positional_parameter_base@_WV?$string_output_adapter@_W@__crt_stdio_output@@@__crt_stdio_output@@IAE_NAA_J@Z 100471f0 f i libucrtd:output.obj
 0001:00046320       ??$extract_argument_from_va_list@_K_J@?$standard_base@DV?$stream_output_adapter@D@__crt_stdio_output@@@__crt_stdio_output@@IAE_NAA_J@Z 10047320 f i libucrtd:output.obj
 0001:00046350       ??$extract_argument_from_va_list@_K_J@?$standard_base@DV?$string_output_adapter@D@__crt_stdio_output@@@__crt_stdio_output@@IAE_NAA_J@Z 10047350 f i libucrtd:output.obj
 0001:00046380       ??$extract_argument_from_va_list@_K_J@?$standard_base@_WV?$stream_output_adapter@_W@__crt_stdio_output@@@__crt_stdio_output@@IAE_NAA_J@Z 10047380 f i libucrtd:output.obj
 0001:000463b0       ??$extract_argument_from_va_list@_K_J@?$standard_base@_WV?$string_output_adapter@_W@__crt_stdio_output@@@__crt_stdio_output@@IAE_NAA_J@Z 100473b0 f i libucrtd:output.obj
 0001:000463e0       ??$extract_argument_from_va_list@_W_W@?$positional_parameter_base@DV?$stream_output_adapter@D@__crt_stdio_output@@@__crt_stdio_output@@IAE_NAA_W@Z 100473e0 f i libucrtd:output.obj
 0001:00046510       ??$extract_argument_from_va_list@_W_W@?$positional_parameter_base@DV?$string_output_adapter@D@__crt_stdio_output@@@__crt_stdio_output@@IAE_NAA_W@Z 10047510 f i libucrtd:output.obj
 0001:00046640       ??$extract_argument_from_va_list@_W_W@?$positional_parameter_base@_WV?$stream_output_adapter@_W@__crt_stdio_output@@@__crt_stdio_output@@IAE_NAA_W@Z 10047640 f i libucrtd:output.obj
 0001:00046770       ??$extract_argument_from_va_list@_W_W@?$positional_parameter_base@_WV?$string_output_adapter@_W@__crt_stdio_output@@@__crt_stdio_output@@IAE_NAA_W@Z 10047770 f i libucrtd:output.obj
 0001:000468a0       ??$extract_argument_from_va_list@_W_W@?$standard_base@DV?$stream_output_adapter@D@__crt_stdio_output@@@__crt_stdio_output@@IAE_NAA_W@Z 100478a0 f i libucrtd:output.obj
 0001:000468d0       ??$extract_argument_from_va_list@_W_W@?$standard_base@DV?$string_output_adapter@D@__crt_stdio_output@@@__crt_stdio_output@@IAE_NAA_W@Z 100478d0 f i libucrtd:output.obj
 0001:00046900       ??$extract_argument_from_va_list@_W_W@?$standard_base@_WV?$stream_output_adapter@_W@__crt_stdio_output@@@__crt_stdio_output@@IAE_NAA_W@Z 10047900 f i libucrtd:output.obj
 0001:00046930       ??$extract_argument_from_va_list@_W_W@?$standard_base@_WV?$string_output_adapter@_W@__crt_stdio_output@@@__crt_stdio_output@@IAE_NAA_W@Z 10047930 f i libucrtd:output.obj
 0001:00046960       ??$get_parameter_type@D@?$positional_parameter_base@DV?$stream_output_adapter@D@__crt_stdio_output@@@__crt_stdio_output@@CA?AW4parameter_type@01@PAD@Z 10047960 f i libucrtd:output.obj
 0001:00046970       ??$get_parameter_type@D@?$positional_parameter_base@DV?$string_output_adapter@D@__crt_stdio_output@@@__crt_stdio_output@@CA?AW4parameter_type@01@PAD@Z 10047970 f i libucrtd:output.obj
 0001:00046980       ??$get_parameter_type@D@?$positional_parameter_base@_WV?$stream_output_adapter@_W@__crt_stdio_output@@@__crt_stdio_output@@CA?AW4parameter_type@01@PAD@Z 10047980 f i libucrtd:output.obj
 0001:00046990       ??$get_parameter_type@D@?$positional_parameter_base@_WV?$string_output_adapter@_W@__crt_stdio_output@@@__crt_stdio_output@@CA?AW4parameter_type@01@PAD@Z 10047990 f i libucrtd:output.obj
 0001:000469a0       ??$get_parameter_type@Uansi_string@?1??type_case_Z@?$output_processor@DV?$stream_output_adapter@D@__crt_stdio_output@@V?$positional_parameter_base@DV?$stream_output_adapter@D@__crt_stdio_output@@@2@@__crt_stdio_output@@AAE_NXZ@@?$positional_parameter_base@DV?$stream_output_adapter@D@__crt_stdio_output@@@__crt_stdio_output@@CA?AW4parameter_type@01@PAUansi_string@?1??type_case_Z@?$output_processor@DV?$stream_output_adapter@D@__crt_stdio_output@@V?$positional_parameter_base@DV?$stream_output_adapter@D@__crt_stdio_output@@@2@@1@AAE_NXZ@@Z 100479a0 f i libucrtd:output.obj
 0001:000469b0       ??$get_parameter_type@Uansi_string@?1??type_case_Z@?$output_processor@DV?$string_output_adapter@D@__crt_stdio_output@@V?$positional_parameter_base@DV?$string_output_adapter@D@__crt_stdio_output@@@2@@__crt_stdio_output@@AAE_NXZ@@?$positional_parameter_base@DV?$string_output_adapter@D@__crt_stdio_output@@@__crt_stdio_output@@CA?AW4parameter_type@01@PAUansi_string@?1??type_case_Z@?$output_processor@DV?$string_output_adapter@D@__crt_stdio_output@@V?$positional_parameter_base@DV?$string_output_adapter@D@__crt_stdio_output@@@2@@1@AAE_NXZ@@Z 100479b0 f i libucrtd:output.obj
 0001:000469c0       ??$get_parameter_type@Uansi_string@?1??type_case_Z@?$output_processor@_WV?$stream_output_adapter@_W@__crt_stdio_output@@V?$positional_parameter_base@_WV?$stream_output_adapter@_W@__crt_stdio_output@@@2@@__crt_stdio_output@@AAE_NXZ@@?$positional_parameter_base@_WV?$stream_output_adapter@_W@__crt_stdio_output@@@__crt_stdio_output@@CA?AW4parameter_type@01@PAUansi_string@?1??type_case_Z@?$output_processor@_WV?$stream_output_adapter@_W@__crt_stdio_output@@V?$positional_parameter_base@_WV?$stream_output_adapter@_W@__crt_stdio_output@@@2@@1@AAE_NXZ@@Z 100479c0 f i libucrtd:output.obj
 0001:000469d0       ??$get_parameter_type@Uansi_string@?1??type_case_Z@?$output_processor@_WV?$string_output_adapter@_W@__crt_stdio_output@@V?$positional_parameter_base@_WV?$string_output_adapter@_W@__crt_stdio_output@@@2@@__crt_stdio_output@@AAE_NXZ@@?$positional_parameter_base@_WV?$string_output_adapter@_W@__crt_stdio_output@@@__crt_stdio_output@@CA?AW4parameter_type@01@PAUansi_string@?1??type_case_Z@?$output_processor@_WV?$string_output_adapter@_W@__crt_stdio_output@@V?$positional_parameter_base@_WV?$string_output_adapter@_W@__crt_stdio_output@@@2@@1@AAE_NXZ@@Z 100479d0 f i libucrtd:output.obj
 0001:000469e0       ??$get_parameter_type@X@?$positional_parameter_base@DV?$stream_output_adapter@D@__crt_stdio_output@@@__crt_stdio_output@@CA?AW4parameter_type@01@PAX@Z 100479e0 f i libucrtd:output.obj
 0001:000469f0       ??$get_parameter_type@X@?$positional_parameter_base@DV?$string_output_adapter@D@__crt_stdio_output@@@__crt_stdio_output@@CA?AW4parameter_type@01@PAX@Z 100479f0 f i libucrtd:output.obj
 0001:00046a00       ??$get_parameter_type@X@?$positional_parameter_base@_WV?$stream_output_adapter@_W@__crt_stdio_output@@@__crt_stdio_output@@CA?AW4parameter_type@01@PAX@Z 10047a00 f i libucrtd:output.obj
 0001:00046a10       ??$get_parameter_type@X@?$positional_parameter_base@_WV?$string_output_adapter@_W@__crt_stdio_output@@@__crt_stdio_output@@CA?AW4parameter_type@01@PAX@Z 10047a10 f i libucrtd:output.obj
 0001:00046a20       ??$is_character_specifier@D@?$positional_parameter_base@DV?$stream_output_adapter@D@__crt_stdio_output@@@__crt_stdio_output@@CA_ND@Z 10047a20 f i libucrtd:output.obj
 0001:00046a50       ??$is_character_specifier@D@?$positional_parameter_base@DV?$string_output_adapter@D@__crt_stdio_output@@@__crt_stdio_output@@CA_ND@Z 10047a50 f i libucrtd:output.obj
 0001:00046a80       ??$is_character_specifier@_W@?$positional_parameter_base@_WV?$stream_output_adapter@_W@__crt_stdio_output@@@__crt_stdio_output@@CA_N_W@Z 10047a80 f i libucrtd:output.obj
 0001:00046ab0       ??$is_character_specifier@_W@?$positional_parameter_base@_WV?$string_output_adapter@_W@__crt_stdio_output@@@__crt_stdio_output@@CA_N_W@Z 10047ab0 f i libucrtd:output.obj
 0001:00046ae0       ??$is_integral_specifier@D@?$positional_parameter_base@DV?$stream_output_adapter@D@__crt_stdio_output@@@__crt_stdio_output@@CA_ND@Z 10047ae0 f i libucrtd:output.obj
 0001:00046b40       ??$is_integral_specifier@D@?$positional_parameter_base@DV?$string_output_adapter@D@__crt_stdio_output@@@__crt_stdio_output@@CA_ND@Z 10047b40 f i libucrtd:output.obj
 0001:00046ba0       ??$is_integral_specifier@_W@?$positional_parameter_base@_WV?$stream_output_adapter@_W@__crt_stdio_output@@@__crt_stdio_output@@CA_N_W@Z 10047ba0 f i libucrtd:output.obj
 0001:00046c00       ??$is_integral_specifier@_W@?$positional_parameter_base@_WV?$string_output_adapter@_W@__crt_stdio_output@@@__crt_stdio_output@@CA_N_W@Z 10047c00 f i libucrtd:output.obj
 0001:00046c60       ??$is_pointer_specifier@D@?$positional_parameter_base@DV?$stream_output_adapter@D@__crt_stdio_output@@@__crt_stdio_output@@CA_ND@Z 10047c60 f i libucrtd:output.obj
 0001:00046c90       ??$is_pointer_specifier@D@?$positional_parameter_base@DV?$string_output_adapter@D@__crt_stdio_output@@@__crt_stdio_output@@CA_ND@Z 10047c90 f i libucrtd:output.obj
 0001:00046cc0       ??$is_pointer_specifier@_W@?$positional_parameter_base@_WV?$stream_output_adapter@_W@__crt_stdio_output@@@__crt_stdio_output@@CA_N_W@Z 10047cc0 f i libucrtd:output.obj
 0001:00046cf0       ??$is_pointer_specifier@_W@?$positional_parameter_base@_WV?$string_output_adapter@_W@__crt_stdio_output@@@__crt_stdio_output@@CA_N_W@Z 10047cf0 f i libucrtd:output.obj
 0001:00046d20       ??$is_string_specifier@D@?$positional_parameter_base@DV?$stream_output_adapter@D@__crt_stdio_output@@@__crt_stdio_output@@CA_ND@Z 10047d20 f i libucrtd:output.obj
 0001:00046d50       ??$is_string_specifier@D@?$positional_parameter_base@DV?$string_output_adapter@D@__crt_stdio_output@@@__crt_stdio_output@@CA_ND@Z 10047d50 f i libucrtd:output.obj
 0001:00046d80       ??$is_string_specifier@_W@?$positional_parameter_base@_WV?$stream_output_adapter@_W@__crt_stdio_output@@@__crt_stdio_output@@CA_N_W@Z 10047d80 f i libucrtd:output.obj
 0001:00046db0       ??$is_string_specifier@_W@?$positional_parameter_base@_WV?$string_output_adapter@_W@__crt_stdio_output@@@__crt_stdio_output@@CA_N_W@Z 10047db0 f i libucrtd:output.obj
 0001:00046de0       ??$is_wide_character_specifier@D@__crt_stdio_output@@YA_N_KDW4length_modifier@0@@Z 10047de0 f i libucrtd:output.obj
 0001:00046e60       ??$is_wide_character_specifier@_W@__crt_stdio_output@@YA_N_K_WW4length_modifier@0@@Z 10047e60 f i libucrtd:output.obj
 0001:00046f20       ??$peek_va_arg@C@__crt_stdio_output@@YACPAD@Z 10047f20 f i libucrtd:output.obj
 0001:00046f40       ??$peek_va_arg@E@__crt_stdio_output@@YAEPAD@Z 10047f40 f i libucrtd:output.obj
 0001:00046f60       ??$peek_va_arg@F@__crt_stdio_output@@YAFPAD@Z 10047f60 f i libucrtd:output.obj
 0001:00046f80       ??$peek_va_arg@G@__crt_stdio_output@@YAGPAD@Z 10047f80 f i libucrtd:output.obj
 0001:00046fa0       ??$peek_va_arg@H@__crt_stdio_output@@YAHPAD@Z 10047fa0 f i libucrtd:output.obj
 0001:00046fc0       ??$peek_va_arg@I@__crt_stdio_output@@YAIPAD@Z 10047fc0 f i libucrtd:output.obj
 0001:00046fe0       ??$peek_va_arg@PAD@__crt_stdio_output@@YAPADPAD@Z 10047fe0 f i libucrtd:output.obj
 0001:00047000       ??$peek_va_arg@PAUansi_string@?1??type_case_Z@?$output_processor@DV?$stream_output_adapter@D@__crt_stdio_output@@V?$positional_parameter_base@DV?$stream_output_adapter@D@__crt_stdio_output@@@2@@__crt_stdio_output@@AAE_NXZ@@__crt_stdio_output@@YAPAUansi_string@?1??type_case_Z@?$output_processor@DV?$stream_output_adapter@D@__crt_stdio_output@@V?$positional_parameter_base@DV?$stream_output_adapter@D@__crt_stdio_output@@@2@@0@AAE_NXZ@PAD@Z 10048000 f i libucrtd:output.obj
 0001:00047020       ??$peek_va_arg@PAUansi_string@?1??type_case_Z@?$output_processor@DV?$string_output_adapter@D@__crt_stdio_output@@V?$positional_parameter_base@DV?$string_output_adapter@D@__crt_stdio_output@@@2@@__crt_stdio_output@@AAE_NXZ@@__crt_stdio_output@@YAPAUansi_string@?1??type_case_Z@?$output_processor@DV?$string_output_adapter@D@__crt_stdio_output@@V?$positional_parameter_base@DV?$string_output_adapter@D@__crt_stdio_output@@@2@@0@AAE_NXZ@PAD@Z 10048020 f i libucrtd:output.obj
 0001:00047040       ??$peek_va_arg@PAUansi_string@?1??type_case_Z@?$output_processor@_WV?$stream_output_adapter@_W@__crt_stdio_output@@V?$positional_parameter_base@_WV?$stream_output_adapter@_W@__crt_stdio_output@@@2@@__crt_stdio_output@@AAE_NXZ@@__crt_stdio_output@@YAPAUansi_string@?1??type_case_Z@?$output_processor@_WV?$stream_output_adapter@_W@__crt_stdio_output@@V?$positional_parameter_base@_WV?$stream_output_adapter@_W@__crt_stdio_output@@@2@@0@AAE_NXZ@PAD@Z 10048040 f i libucrtd:output.obj
 0001:00047060       ??$peek_va_arg@PAUansi_string@?1??type_case_Z@?$output_processor@_WV?$string_output_adapter@_W@__crt_stdio_output@@V?$positional_parameter_base@_WV?$string_output_adapter@_W@__crt_stdio_output@@@2@@__crt_stdio_output@@AAE_NXZ@@__crt_stdio_output@@YAPAUansi_string@?1??type_case_Z@?$output_processor@_WV?$string_output_adapter@_W@__crt_stdio_output@@V?$positional_parameter_base@_WV?$string_output_adapter@_W@__crt_stdio_output@@@2@@0@AAE_NXZ@PAD@Z 10048060 f i libucrtd:output.obj
 0001:00047080       ??$peek_va_arg@PAX@__crt_stdio_output@@YAPAXPAD@Z 10048080 f i libucrtd:output.obj
 0001:000470a0       ??$peek_va_arg@U_CRT_DOUBLE@@@__crt_stdio_output@@YA?AU_CRT_DOUBLE@@PAD@Z 100480a0 f i libucrtd:output.obj
 0001:000470c0       ??$peek_va_arg@_J@__crt_stdio_output@@YA_JPAD@Z 100480c0 f i libucrtd:output.obj
 0001:000470e0       ??$peek_va_arg@_K@__crt_stdio_output@@YA_KPAD@Z 100480e0 f i libucrtd:output.obj
 0001:00047100       ??$peek_va_arg@_W@__crt_stdio_output@@YA_WPAD@Z 10048100 f i libucrtd:output.obj
 0001:00047120       ??$puttc_nolock@ABDPAU_iobuf@@@?$__crt_char_traits@D@@SAHABD$$QAPAU_iobuf@@@Z 10048120 f i libucrtd:output.obj
 0001:00047140       ??$puttc_nolock@AB_WPAU_iobuf@@@?$__crt_char_traits@_W@@SAGAB_W$$QAPAU_iobuf@@@Z 10048140 f i libucrtd:output.obj
 0001:00047160       ??$read_va_arg@C@__crt_stdio_output@@YACAAPAD@Z 10048160 f i libucrtd:output.obj
 0001:00047180       ??$read_va_arg@E@__crt_stdio_output@@YAEAAPAD@Z 10048180 f i libucrtd:output.obj
 0001:000471a0       ??$read_va_arg@F@__crt_stdio_output@@YAFAAPAD@Z 100481a0 f i libucrtd:output.obj
 0001:000471c0       ??$read_va_arg@G@__crt_stdio_output@@YAGAAPAD@Z 100481c0 f i libucrtd:output.obj
 0001:000471e0       ??$read_va_arg@H@__crt_stdio_output@@YAHAAPAD@Z 100481e0 f i libucrtd:output.obj
 0001:00047200       ??$read_va_arg@I@__crt_stdio_output@@YAIAAPAD@Z 10048200 f i libucrtd:output.obj
 0001:00047220       ??$read_va_arg@PAD@__crt_stdio_output@@YAPADAAPAD@Z 10048220 f i libucrtd:output.obj
 0001:00047240       ??$read_va_arg@PAUansi_string@?1??type_case_Z@?$output_processor@DV?$stream_output_adapter@D@__crt_stdio_output@@V?$format_validation_base@DV?$stream_output_adapter@D@__crt_stdio_output@@@2@@__crt_stdio_output@@AAE_NXZ@@__crt_stdio_output@@YAPAUansi_string@?1??type_case_Z@?$output_processor@DV?$stream_output_adapter@D@__crt_stdio_output@@V?$format_validation_base@DV?$stream_output_adapter@D@__crt_stdio_output@@@2@@0@AAE_NXZ@AAPAD@Z 10048240 f i libucrtd:output.obj
 0001:00047260       ??$read_va_arg@PAUansi_string@?1??type_case_Z@?$output_processor@DV?$stream_output_adapter@D@__crt_stdio_output@@V?$positional_parameter_base@DV?$stream_output_adapter@D@__crt_stdio_output@@@2@@__crt_stdio_output@@AAE_NXZ@@__crt_stdio_output@@YAPAUansi_string@?1??type_case_Z@?$output_processor@DV?$stream_output_adapter@D@__crt_stdio_output@@V?$positional_parameter_base@DV?$stream_output_adapter@D@__crt_stdio_output@@@2@@0@AAE_NXZ@AAPAD@Z 10048260 f i libucrtd:output.obj
 0001:00047280       ??$read_va_arg@PAUansi_string@?1??type_case_Z@?$output_processor@DV?$stream_output_adapter@D@__crt_stdio_output@@V?$standard_base@DV?$stream_output_adapter@D@__crt_stdio_output@@@2@@__crt_stdio_output@@AAE_NXZ@@__crt_stdio_output@@YAPAUansi_string@?1??type_case_Z@?$output_processor@DV?$stream_output_adapter@D@__crt_stdio_output@@V?$standard_base@DV?$stream_output_adapter@D@__crt_stdio_output@@@2@@0@AAE_NXZ@AAPAD@Z 10048280 f i libucrtd:output.obj
 0001:000472a0       ??$read_va_arg@PAUansi_string@?1??type_case_Z@?$output_processor@DV?$string_output_adapter@D@__crt_stdio_output@@V?$format_validation_base@DV?$string_output_adapter@D@__crt_stdio_output@@@2@@__crt_stdio_output@@AAE_NXZ@@__crt_stdio_output@@YAPAUansi_string@?1??type_case_Z@?$output_processor@DV?$string_output_adapter@D@__crt_stdio_output@@V?$format_validation_base@DV?$string_output_adapter@D@__crt_stdio_output@@@2@@0@AAE_NXZ@AAPAD@Z 100482a0 f i libucrtd:output.obj
 0001:000472c0       ??$read_va_arg@PAUansi_string@?1??type_case_Z@?$output_processor@DV?$string_output_adapter@D@__crt_stdio_output@@V?$positional_parameter_base@DV?$string_output_adapter@D@__crt_stdio_output@@@2@@__crt_stdio_output@@AAE_NXZ@@__crt_stdio_output@@YAPAUansi_string@?1??type_case_Z@?$output_processor@DV?$string_output_adapter@D@__crt_stdio_output@@V?$positional_parameter_base@DV?$string_output_adapter@D@__crt_stdio_output@@@2@@0@AAE_NXZ@AAPAD@Z 100482c0 f i libucrtd:output.obj
 0001:000472e0       ??$read_va_arg@PAUansi_string@?1??type_case_Z@?$output_processor@DV?$string_output_adapter@D@__crt_stdio_output@@V?$standard_base@DV?$string_output_adapter@D@__crt_stdio_output@@@2@@__crt_stdio_output@@AAE_NXZ@@__crt_stdio_output@@YAPAUansi_string@?1??type_case_Z@?$output_processor@DV?$string_output_adapter@D@__crt_stdio_output@@V?$standard_base@DV?$string_output_adapter@D@__crt_stdio_output@@@2@@0@AAE_NXZ@AAPAD@Z 100482e0 f i libucrtd:output.obj
 0001:00047300       ??$read_va_arg@PAUansi_string@?1??type_case_Z@?$output_processor@_WV?$stream_output_adapter@_W@__crt_stdio_output@@V?$format_validation_base@_WV?$stream_output_adapter@_W@__crt_stdio_output@@@2@@__crt_stdio_output@@AAE_NXZ@@__crt_stdio_output@@YAPAUansi_string@?1??type_case_Z@?$output_processor@_WV?$stream_output_adapter@_W@__crt_stdio_output@@V?$format_validation_base@_WV?$stream_output_adapter@_W@__crt_stdio_output@@@2@@0@AAE_NXZ@AAPAD@Z 10048300 f i libucrtd:output.obj
 0001:00047320       ??$read_va_arg@PAUansi_string@?1??type_case_Z@?$output_processor@_WV?$stream_output_adapter@_W@__crt_stdio_output@@V?$positional_parameter_base@_WV?$stream_output_adapter@_W@__crt_stdio_output@@@2@@__crt_stdio_output@@AAE_NXZ@@__crt_stdio_output@@YAPAUansi_string@?1??type_case_Z@?$output_processor@_WV?$stream_output_adapter@_W@__crt_stdio_output@@V?$positional_parameter_base@_WV?$stream_output_adapter@_W@__crt_stdio_output@@@2@@0@AAE_NXZ@AAPAD@Z 10048320 f i libucrtd:output.obj
 0001:00047340       ??$read_va_arg@PAUansi_string@?1??type_case_Z@?$output_processor@_WV?$stream_output_adapter@_W@__crt_stdio_output@@V?$standard_base@_WV?$stream_output_adapter@_W@__crt_stdio_output@@@2@@__crt_stdio_output@@AAE_NXZ@@__crt_stdio_output@@YAPAUansi_string@?1??type_case_Z@?$output_processor@_WV?$stream_output_adapter@_W@__crt_stdio_output@@V?$standard_base@_WV?$stream_output_adapter@_W@__crt_stdio_output@@@2@@0@AAE_NXZ@AAPAD@Z 10048340 f i libucrtd:output.obj
 0001:00047360       ??$read_va_arg@PAUansi_string@?1??type_case_Z@?$output_processor@_WV?$string_output_adapter@_W@__crt_stdio_output@@V?$format_validation_base@_WV?$string_output_adapter@_W@__crt_stdio_output@@@2@@__crt_stdio_output@@AAE_NXZ@@__crt_stdio_output@@YAPAUansi_string@?1??type_case_Z@?$output_processor@_WV?$string_output_adapter@_W@__crt_stdio_output@@V?$format_validation_base@_WV?$string_output_adapter@_W@__crt_stdio_output@@@2@@0@AAE_NXZ@AAPAD@Z 10048360 f i libucrtd:output.obj
 0001:00047380       ??$read_va_arg@PAUansi_string@?1??type_case_Z@?$output_processor@_WV?$string_output_adapter@_W@__crt_stdio_output@@V?$positional_parameter_base@_WV?$string_output_adapter@_W@__crt_stdio_output@@@2@@__crt_stdio_output@@AAE_NXZ@@__crt_stdio_output@@YAPAUansi_string@?1??type_case_Z@?$output_processor@_WV?$string_output_adapter@_W@__crt_stdio_output@@V?$positional_parameter_base@_WV?$string_output_adapter@_W@__crt_stdio_output@@@2@@0@AAE_NXZ@AAPAD@Z 10048380 f i libucrtd:output.obj
 0001:000473a0       ??$read_va_arg@PAUansi_string@?1??type_case_Z@?$output_processor@_WV?$string_output_adapter@_W@__crt_stdio_output@@V?$standard_base@_WV?$string_output_adapter@_W@__crt_stdio_output@@@2@@__crt_stdio_output@@AAE_NXZ@@__crt_stdio_output@@YAPAUansi_string@?1??type_case_Z@?$output_processor@_WV?$string_output_adapter@_W@__crt_stdio_output@@V?$standard_base@_WV?$string_output_adapter@_W@__crt_stdio_output@@@2@@0@AAE_NXZ@AAPAD@Z 100483a0 f i libucrtd:output.obj
 0001:000473c0       ??$read_va_arg@PAX@__crt_stdio_output@@YAPAXAAPAD@Z 100483c0 f i libucrtd:output.obj
 0001:000473e0       ??$read_va_arg@U_CRT_DOUBLE@@@__crt_stdio_output@@YA?AU_CRT_DOUBLE@@AAPAD@Z 100483e0 f i libucrtd:output.obj
 0001:00047400       ??$read_va_arg@_J@__crt_stdio_output@@YA_JAAPAD@Z 10048400 f i libucrtd:output.obj
 0001:00047420       ??$read_va_arg@_K@__crt_stdio_output@@YA_KAAPAD@Z 10048420 f i libucrtd:output.obj
 0001:00047440       ??$read_va_arg@_W@__crt_stdio_output@@YA_WAAPAD@Z 10048440 f i libucrtd:output.obj
 0001:00047460       ??$scratch_count@D@formatting_buffer@__crt_stdio_output@@QBEIXZ 10048460 f i libucrtd:output.obj
 0001:00047480       ??$scratch_data@D@formatting_buffer@__crt_stdio_output@@QAEPADXZ 10048480 f i libucrtd:output.obj
 0001:000474d0       ??$tcstol@AAPBDPAPADH@?$__crt_char_traits@D@@SAJAAPBD$$QAPAPAD$$QAH@Z 100484d0 f i libucrtd:output.obj
 0001:00047500       ??$tcstol@AAPB_WPAPA_WH@?$__crt_char_traits@_W@@SAJAAPB_W$$QAPAPA_W$$QAH@Z 10048500 f i libucrtd:output.obj
 0001:00047530       ??$tcstol@PBDPAPADH@?$__crt_char_traits@D@@SAJ$$QAPBD$$QAPAPAD$$QAH@Z 10048530 f i libucrtd:output.obj
 0001:00047560       ??$tcstol@PB_WPAPA_WH@?$__crt_char_traits@_W@@SAJ$$QAPB_W$$QAPAPA_W$$QAH@Z 10048560 f i libucrtd:output.obj
 0001:00047590       ??$type_case_integer_parse_into_buffer@I@?$output_processor@DV?$stream_output_adapter@D@__crt_stdio_output@@V?$format_validation_base@DV?$stream_output_adapter@D@__crt_stdio_output@@@2@@__crt_stdio_output@@AAEXII_N@Z 10048590 f i libucrtd:output.obj
 0001:00047660       ??$type_case_integer_parse_into_buffer@I@?$output_processor@DV?$stream_output_adapter@D@__crt_stdio_output@@V?$positional_parameter_base@DV?$stream_output_adapter@D@__crt_stdio_output@@@2@@__crt_stdio_output@@AAEXII_N@Z 10048660 f i libucrtd:output.obj
 0001:00047730       ??$type_case_integer_parse_into_buffer@I@?$output_processor@DV?$stream_output_adapter@D@__crt_stdio_output@@V?$standard_base@DV?$stream_output_adapter@D@__crt_stdio_output@@@2@@__crt_stdio_output@@AAEXII_N@Z 10048730 f i libucrtd:output.obj
 0001:00047800       ??$type_case_integer_parse_into_buffer@I@?$output_processor@DV?$string_output_adapter@D@__crt_stdio_output@@V?$format_validation_base@DV?$string_output_adapter@D@__crt_stdio_output@@@2@@__crt_stdio_output@@AAEXII_N@Z 10048800 f i libucrtd:output.obj
 0001:000478d0       ??$type_case_integer_parse_into_buffer@I@?$output_processor@DV?$string_output_adapter@D@__crt_stdio_output@@V?$positional_parameter_base@DV?$string_output_adapter@D@__crt_stdio_output@@@2@@__crt_stdio_output@@AAEXII_N@Z 100488d0 f i libucrtd:output.obj
 0001:000479a0       ??$type_case_integer_parse_into_buffer@I@?$output_processor@DV?$string_output_adapter@D@__crt_stdio_output@@V?$standard_base@DV?$string_output_adapter@D@__crt_stdio_output@@@2@@__crt_stdio_output@@AAEXII_N@Z 100489a0 f i libucrtd:output.obj
 0001:00047a70       ??$type_case_integer_parse_into_buffer@I@?$output_processor@_WV?$stream_output_adapter@_W@__crt_stdio_output@@V?$format_validation_base@_WV?$stream_output_adapter@_W@__crt_stdio_output@@@2@@__crt_stdio_output@@AAEXII_N@Z 10048a70 f i libucrtd:output.obj
 0001:00047b40       ??$type_case_integer_parse_into_buffer@I@?$output_processor@_WV?$stream_output_adapter@_W@__crt_stdio_output@@V?$positional_parameter_base@_WV?$stream_output_adapter@_W@__crt_stdio_output@@@2@@__crt_stdio_output@@AAEXII_N@Z 10048b40 f i libucrtd:output.obj
 0001:00047c10       ??$type_case_integer_parse_into_buffer@I@?$output_processor@_WV?$stream_output_adapter@_W@__crt_stdio_output@@V?$standard_base@_WV?$stream_output_adapter@_W@__crt_stdio_output@@@2@@__crt_stdio_output@@AAEXII_N@Z 10048c10 f i libucrtd:output.obj
 0001:00047ce0       ??$type_case_integer_parse_into_buffer@I@?$output_processor@_WV?$string_output_adapter@_W@__crt_stdio_output@@V?$format_validation_base@_WV?$string_output_adapter@_W@__crt_stdio_output@@@2@@__crt_stdio_output@@AAEXII_N@Z 10048ce0 f i libucrtd:output.obj
 0001:00047db0       ??$type_case_integer_parse_into_buffer@I@?$output_processor@_WV?$string_output_adapter@_W@__crt_stdio_output@@V?$positional_parameter_base@_WV?$string_output_adapter@_W@__crt_stdio_output@@@2@@__crt_stdio_output@@AAEXII_N@Z 10048db0 f i libucrtd:output.obj
 0001:00047e80       ??$type_case_integer_parse_into_buffer@I@?$output_processor@_WV?$string_output_adapter@_W@__crt_stdio_output@@V?$standard_base@_WV?$string_output_adapter@_W@__crt_stdio_output@@@2@@__crt_stdio_output@@AAEXII_N@Z 10048e80 f i libucrtd:output.obj
 0001:00047f50       ??$type_case_integer_parse_into_buffer@_K@?$output_processor@DV?$stream_output_adapter@D@__crt_stdio_output@@V?$format_validation_base@DV?$stream_output_adapter@D@__crt_stdio_output@@@2@@__crt_stdio_output@@AAEX_KI_N@Z 10048f50 f i libucrtd:output.obj
 0001:00048050       ??$type_case_integer_parse_into_buffer@_K@?$output_processor@DV?$stream_output_adapter@D@__crt_stdio_output@@V?$positional_parameter_base@DV?$stream_output_adapter@D@__crt_stdio_output@@@2@@__crt_stdio_output@@AAEX_KI_N@Z 10049050 f i libucrtd:output.obj
 0001:00048150       ??$type_case_integer_parse_into_buffer@_K@?$output_processor@DV?$stream_output_adapter@D@__crt_stdio_output@@V?$standard_base@DV?$stream_output_adapter@D@__crt_stdio_output@@@2@@__crt_stdio_output@@AAEX_KI_N@Z 10049150 f i libucrtd:output.obj
 0001:00048250       ??$type_case_integer_parse_into_buffer@_K@?$output_processor@DV?$string_output_adapter@D@__crt_stdio_output@@V?$format_validation_base@DV?$string_output_adapter@D@__crt_stdio_output@@@2@@__crt_stdio_output@@AAEX_KI_N@Z 10049250 f i libucrtd:output.obj
 0001:00048350       ??$type_case_integer_parse_into_buffer@_K@?$output_processor@DV?$string_output_adapter@D@__crt_stdio_output@@V?$positional_parameter_base@DV?$string_output_adapter@D@__crt_stdio_output@@@2@@__crt_stdio_output@@AAEX_KI_N@Z 10049350 f i libucrtd:output.obj
 0001:00048450       ??$type_case_integer_parse_into_buffer@_K@?$output_processor@DV?$string_output_adapter@D@__crt_stdio_output@@V?$standard_base@DV?$string_output_adapter@D@__crt_stdio_output@@@2@@__crt_stdio_output@@AAEX_KI_N@Z 10049450 f i libucrtd:output.obj
 0001:00048550       ??$type_case_integer_parse_into_buffer@_K@?$output_processor@_WV?$stream_output_adapter@_W@__crt_stdio_output@@V?$format_validation_base@_WV?$stream_output_adapter@_W@__crt_stdio_output@@@2@@__crt_stdio_output@@AAEX_KI_N@Z 10049550 f i libucrtd:output.obj
 0001:00048650       ??$type_case_integer_parse_into_buffer@_K@?$output_processor@_WV?$stream_output_adapter@_W@__crt_stdio_output@@V?$positional_parameter_base@_WV?$stream_output_adapter@_W@__crt_stdio_output@@@2@@__crt_stdio_output@@AAEX_KI_N@Z 10049650 f i libucrtd:output.obj
 0001:00048750       ??$type_case_integer_parse_into_buffer@_K@?$output_processor@_WV?$stream_output_adapter@_W@__crt_stdio_output@@V?$standard_base@_WV?$stream_output_adapter@_W@__crt_stdio_output@@@2@@__crt_stdio_output@@AAEX_KI_N@Z 10049750 f i libucrtd:output.obj
 0001:00048850       ??$type_case_integer_parse_into_buffer@_K@?$output_processor@_WV?$string_output_adapter@_W@__crt_stdio_output@@V?$format_validation_base@_WV?$string_output_adapter@_W@__crt_stdio_output@@@2@@__crt_stdio_output@@AAEX_KI_N@Z 10049850 f i libucrtd:output.obj
 0001:00048950       ??$type_case_integer_parse_into_buffer@_K@?$output_processor@_WV?$string_output_adapter@_W@__crt_stdio_output@@V?$positional_parameter_base@_WV?$string_output_adapter@_W@__crt_stdio_output@@@2@@__crt_stdio_output@@AAEX_KI_N@Z 10049950 f i libucrtd:output.obj
 0001:00048a50       ??$type_case_integer_parse_into_buffer@_K@?$output_processor@_WV?$string_output_adapter@_W@__crt_stdio_output@@V?$standard_base@_WV?$string_output_adapter@_W@__crt_stdio_output@@@2@@__crt_stdio_output@@AAEX_KI_N@Z 10049a50 f i libucrtd:output.obj
 0001:00048b50       ??$write_multiple_characters@V?$stream_output_adapter@D@__crt_stdio_output@@D@__crt_stdio_output@@YAXABV?$stream_output_adapter@D@0@DHQAH@Z 10049b50 f i libucrtd:output.obj
 0001:00048ba0       ??$write_multiple_characters@V?$stream_output_adapter@_W@__crt_stdio_output@@D@__crt_stdio_output@@YAXABV?$stream_output_adapter@_W@0@DHQAH@Z 10049ba0 f i libucrtd:output.obj
 0001:00048bf0       ??$write_multiple_characters@V?$string_output_adapter@D@__crt_stdio_output@@D@__crt_stdio_output@@YAXABV?$string_output_adapter@D@0@DHQAH@Z 10049bf0 f i libucrtd:output.obj
 0001:00048c40       ??$write_multiple_characters@V?$string_output_adapter@_W@__crt_stdio_output@@D@__crt_stdio_output@@YAXABV?$string_output_adapter@_W@0@DHQAH@Z 10049c40 f i libucrtd:output.obj
 0001:00048f90       ??0?$common_data@D@__crt_stdio_output@@IAE@XZ 10049f90 f i libucrtd:output.obj
 0001:00049040       ??0?$common_data@_W@__crt_stdio_output@@IAE@XZ 1004a040 f i libucrtd:output.obj
 0001:000490f0       ??0?$output_adapter_data@DV?$stream_output_adapter@D@__crt_stdio_output@@@__crt_stdio_output@@IAE@ABV?$stream_output_adapter@D@1@_KQBDQAU__crt_locale_pointers@@QAD@Z 1004a0f0 f i libucrtd:output.obj
 0001:00049150       ??0?$output_adapter_data@DV?$string_output_adapter@D@__crt_stdio_output@@@__crt_stdio_output@@IAE@ABV?$string_output_adapter@D@1@_KQBDQAU__crt_locale_pointers@@QAD@Z 1004a150 f i libucrtd:output.obj
 0001:000491b0       ??0?$output_adapter_data@_WV?$stream_output_adapter@_W@__crt_stdio_output@@@__crt_stdio_output@@IAE@ABV?$stream_output_adapter@_W@1@_KQB_WQAU__crt_locale_pointers@@QAD@Z 1004a1b0 f i libucrtd:output.obj
 0001:00049210       ??0?$output_adapter_data@_WV?$string_output_adapter@_W@__crt_stdio_output@@@__crt_stdio_output@@IAE@ABV?$string_output_adapter@_W@1@_KQB_WQAU__crt_locale_pointers@@QAD@Z 1004a210 f i libucrtd:output.obj
 0001:00049270       ??0?$output_processor@DV?$stream_output_adapter@D@__crt_stdio_output@@V?$format_validation_base@DV?$stream_output_adapter@D@__crt_stdio_output@@@2@@__crt_stdio_output@@QAE@ABV?$stream_output_adapter@D@1@_KQBDQAU__crt_locale_pointers@@QAD@Z 1004a270 f i libucrtd:output.obj
 0001:000492b0       ??0?$output_processor@DV?$stream_output_adapter@D@__crt_stdio_output@@V?$positional_parameter_base@DV?$stream_output_adapter@D@__crt_stdio_output@@@2@@__crt_stdio_output@@QAE@ABV?$stream_output_adapter@D@1@_KQBDQAU__crt_locale_pointers@@QAD@Z 1004a2b0 f i libucrtd:output.obj
 0001:000492f0       ??0?$output_processor@DV?$stream_output_adapter@D@__crt_stdio_output@@V?$standard_base@DV?$stream_output_adapter@D@__crt_stdio_output@@@2@@__crt_stdio_output@@QAE@ABV?$stream_output_adapter@D@1@_KQBDQAU__crt_locale_pointers@@QAD@Z 1004a2f0 f i libucrtd:output.obj
 0001:00049330       ??0?$output_processor@DV?$string_output_adapter@D@__crt_stdio_output@@V?$format_validation_base@DV?$string_output_adapter@D@__crt_stdio_output@@@2@@__crt_stdio_output@@QAE@ABV?$string_output_adapter@D@1@_KQBDQAU__crt_locale_pointers@@QAD@Z 1004a330 f i libucrtd:output.obj
 0001:00049370       ??0?$output_processor@DV?$string_output_adapter@D@__crt_stdio_output@@V?$positional_parameter_base@DV?$string_output_adapter@D@__crt_stdio_output@@@2@@__crt_stdio_output@@QAE@ABV?$string_output_adapter@D@1@_KQBDQAU__crt_locale_pointers@@QAD@Z 1004a370 f i libucrtd:output.obj
 0001:000493b0       ??0?$output_processor@DV?$string_output_adapter@D@__crt_stdio_output@@V?$standard_base@DV?$string_output_adapter@D@__crt_stdio_output@@@2@@__crt_stdio_output@@QAE@ABV?$string_output_adapter@D@1@_KQBDQAU__crt_locale_pointers@@QAD@Z 1004a3b0 f i libucrtd:output.obj
 0001:000493f0       ??0?$output_processor@_WV?$stream_output_adapter@_W@__crt_stdio_output@@V?$format_validation_base@_WV?$stream_output_adapter@_W@__crt_stdio_output@@@2@@__crt_stdio_output@@QAE@ABV?$stream_output_adapter@_W@1@_KQB_WQAU__crt_locale_pointers@@QAD@Z 1004a3f0 f i libucrtd:output.obj
 0001:00049430       ??0?$output_processor@_WV?$stream_output_adapter@_W@__crt_stdio_output@@V?$positional_parameter_base@_WV?$stream_output_adapter@_W@__crt_stdio_output@@@2@@__crt_stdio_output@@QAE@ABV?$stream_output_adapter@_W@1@_KQB_WQAU__crt_locale_pointers@@QAD@Z 1004a430 f i libucrtd:output.obj
 0001:00049470       ??0?$output_processor@_WV?$stream_output_adapter@_W@__crt_stdio_output@@V?$standard_base@_WV?$stream_output_adapter@_W@__crt_stdio_output@@@2@@__crt_stdio_output@@QAE@ABV?$stream_output_adapter@_W@1@_KQB_WQAU__crt_locale_pointers@@QAD@Z 1004a470 f i libucrtd:output.obj
 0001:000494b0       ??0?$output_processor@_WV?$string_output_adapter@_W@__crt_stdio_output@@V?$format_validation_base@_WV?$string_output_adapter@_W@__crt_stdio_output@@@2@@__crt_stdio_output@@QAE@ABV?$string_output_adapter@_W@1@_KQB_WQAU__crt_locale_pointers@@QAD@Z 1004a4b0 f i libucrtd:output.obj
 0001:000494f0       ??0?$output_processor@_WV?$string_output_adapter@_W@__crt_stdio_output@@V?$positional_parameter_base@_WV?$string_output_adapter@_W@__crt_stdio_output@@@2@@__crt_stdio_output@@QAE@ABV?$string_output_adapter@_W@1@_KQB_WQAU__crt_locale_pointers@@QAD@Z 1004a4f0 f i libucrtd:output.obj
 0001:00049530       ??0?$output_processor@_WV?$string_output_adapter@_W@__crt_stdio_output@@V?$standard_base@_WV?$string_output_adapter@_W@__crt_stdio_output@@@2@@__crt_stdio_output@@QAE@ABV?$string_output_adapter@_W@1@_KQB_WQAU__crt_locale_pointers@@QAD@Z 1004a530 f i libucrtd:output.obj
 0001:00049570       ??0?$stream_output_adapter@D@__crt_stdio_output@@QAE@QAU_iobuf@@@Z 1004a570 f i libucrtd:output.obj
 0001:00049590       ??0?$stream_output_adapter@_W@__crt_stdio_output@@QAE@QAU_iobuf@@@Z 1004a590 f i libucrtd:output.obj
 0001:000495b0       ??0?$string_output_adapter@D@__crt_stdio_output@@QAE@QAU?$string_output_adapter_context@D@1@@Z 1004a5b0 f i libucrtd:output.obj
 0001:000495d0       ??0?$string_output_adapter@_W@__crt_stdio_output@@QAE@QAU?$string_output_adapter_context@_W@1@@Z 1004a5d0 f i libucrtd:output.obj
 0001:000495f0       ??0_LocaleUpdate@@QAE@QAU__crt_locale_pointers@@@Z 1004a5f0 f i libucrtd:output.obj
 0001:000496d0       ??0__acrt_stdio_temporary_buffering_guard@@QAE@QAU_iobuf@@@Z 1004a6d0 f i libucrtd:output.obj
 0001:00049700       ??0__crt_errno_guard@@QAE@QAH@Z 1004a700 f i libucrtd:output.obj
 0001:00049730       ??0__crt_stdio_stream@@QAE@QAU_iobuf@@@Z 1004a730 f i libucrtd:output.obj
 0001:00049750       ??0formatting_buffer@__crt_stdio_output@@QAE@XZ 1004a750 f i libucrtd:output.obj
 0001:00049780       ??1?$common_data@D@__crt_stdio_output@@QAE@XZ 1004a780 f i libucrtd:output.obj
 0001:000497a0       ??1?$common_data@_W@__crt_stdio_output@@QAE@XZ 1004a7a0 f i libucrtd:output.obj
 0001:000497c0       ??1?$format_validation_base@DV?$stream_output_adapter@D@__crt_stdio_output@@@__crt_stdio_output@@QAE@XZ 1004a7c0 f i libucrtd:output.obj
 0001:000497e0       ??1?$format_validation_base@DV?$string_output_adapter@D@__crt_stdio_output@@@__crt_stdio_output@@QAE@XZ 1004a7e0 f i libucrtd:output.obj
 0001:00049800       ??1?$format_validation_base@_WV?$stream_output_adapter@_W@__crt_stdio_output@@@__crt_stdio_output@@QAE@XZ 1004a800 f i libucrtd:output.obj
 0001:00049820       ??1?$format_validation_base@_WV?$string_output_adapter@_W@__crt_stdio_output@@@__crt_stdio_output@@QAE@XZ 1004a820 f i libucrtd:output.obj
 0001:00049840       ??1?$output_adapter_data@DV?$stream_output_adapter@D@__crt_stdio_output@@@__crt_stdio_output@@QAE@XZ 1004a840 f i libucrtd:output.obj
 0001:00049860       ??1?$output_adapter_data@DV?$string_output_adapter@D@__crt_stdio_output@@@__crt_stdio_output@@QAE@XZ 1004a860 f i libucrtd:output.obj
 0001:00049880       ??1?$output_adapter_data@_WV?$stream_output_adapter@_W@__crt_stdio_output@@@__crt_stdio_output@@QAE@XZ 1004a880 f i libucrtd:output.obj
 0001:000498a0       ??1?$output_adapter_data@_WV?$string_output_adapter@_W@__crt_stdio_output@@@__crt_stdio_output@@QAE@XZ 1004a8a0 f i libucrtd:output.obj
 0001:000498c0       ??1?$output_processor@DV?$stream_output_adapter@D@__crt_stdio_output@@V?$format_validation_base@DV?$stream_output_adapter@D@__crt_stdio_output@@@2@@__crt_stdio_output@@QAE@XZ 1004a8c0 f i libucrtd:output.obj
 0001:000498e0       ??1?$output_processor@DV?$stream_output_adapter@D@__crt_stdio_output@@V?$positional_parameter_base@DV?$stream_output_adapter@D@__crt_stdio_output@@@2@@__crt_stdio_output@@QAE@XZ 1004a8e0 f i libucrtd:output.obj
 0001:00049900       ??1?$output_processor@DV?$stream_output_adapter@D@__crt_stdio_output@@V?$standard_base@DV?$stream_output_adapter@D@__crt_stdio_output@@@2@@__crt_stdio_output@@QAE@XZ 1004a900 f i libucrtd:output.obj
 0001:00049920       ??1?$output_processor@DV?$string_output_adapter@D@__crt_stdio_output@@V?$format_validation_base@DV?$string_output_adapter@D@__crt_stdio_output@@@2@@__crt_stdio_output@@QAE@XZ 1004a920 f i libucrtd:output.obj
 0001:00049940       ??1?$output_processor@DV?$string_output_adapter@D@__crt_stdio_output@@V?$positional_parameter_base@DV?$string_output_adapter@D@__crt_stdio_output@@@2@@__crt_stdio_output@@QAE@XZ 1004a940 f i libucrtd:output.obj
 0001:00049960       ??1?$output_processor@DV?$string_output_adapter@D@__crt_stdio_output@@V?$standard_base@DV?$string_output_adapter@D@__crt_stdio_output@@@2@@__crt_stdio_output@@QAE@XZ 1004a960 f i libucrtd:output.obj
 0001:00049980       ??1?$output_processor@_WV?$stream_output_adapter@_W@__crt_stdio_output@@V?$format_validation_base@_WV?$stream_output_adapter@_W@__crt_stdio_output@@@2@@__crt_stdio_output@@QAE@XZ 1004a980 f i libucrtd:output.obj
 0001:000499a0       ??1?$output_processor@_WV?$stream_output_adapter@_W@__crt_stdio_output@@V?$positional_parameter_base@_WV?$stream_output_adapter@_W@__crt_stdio_output@@@2@@__crt_stdio_output@@QAE@XZ 1004a9a0 f i libucrtd:output.obj
 0001:000499c0       ??1?$output_processor@_WV?$stream_output_adapter@_W@__crt_stdio_output@@V?$standard_base@_WV?$stream_output_adapter@_W@__crt_stdio_output@@@2@@__crt_stdio_output@@QAE@XZ 1004a9c0 f i libucrtd:output.obj
 0001:000499e0       ??1?$output_processor@_WV?$string_output_adapter@_W@__crt_stdio_output@@V?$format_validation_base@_WV?$string_output_adapter@_W@__crt_stdio_output@@@2@@__crt_stdio_output@@QAE@XZ 1004a9e0 f i libucrtd:output.obj
 0001:00049a00       ??1?$output_processor@_WV?$string_output_adapter@_W@__crt_stdio_output@@V?$positional_parameter_base@_WV?$string_output_adapter@_W@__crt_stdio_output@@@2@@__crt_stdio_output@@QAE@XZ 1004aa00 f i libucrtd:output.obj
 0001:00049a20       ??1?$output_processor@_WV?$string_output_adapter@_W@__crt_stdio_output@@V?$standard_base@_WV?$string_output_adapter@_W@__crt_stdio_output@@@2@@__crt_stdio_output@@QAE@XZ 1004aa20 f i libucrtd:output.obj
 0001:00049a40       ??1?$positional_parameter_base@DV?$stream_output_adapter@D@__crt_stdio_output@@@__crt_stdio_output@@QAE@XZ 1004aa40 f i libucrtd:output.obj
 0001:00049a60       ??1?$positional_parameter_base@DV?$string_output_adapter@D@__crt_stdio_output@@@__crt_stdio_output@@QAE@XZ 1004aa60 f i libucrtd:output.obj
 0001:00049a80       ??1?$positional_parameter_base@_WV?$stream_output_adapter@_W@__crt_stdio_output@@@__crt_stdio_output@@QAE@XZ 1004aa80 f i libucrtd:output.obj
 0001:00049aa0       ??1?$positional_parameter_base@_WV?$string_output_adapter@_W@__crt_stdio_output@@@__crt_stdio_output@@QAE@XZ 1004aaa0 f i libucrtd:output.obj
 0001:00049ac0       ??1?$standard_base@DV?$stream_output_adapter@D@__crt_stdio_output@@@__crt_stdio_output@@QAE@XZ 1004aac0 f i libucrtd:output.obj
 0001:00049ae0       ??1?$standard_base@DV?$string_output_adapter@D@__crt_stdio_output@@@__crt_stdio_output@@QAE@XZ 1004aae0 f i libucrtd:output.obj
 0001:00049b00       ??1?$standard_base@_WV?$stream_output_adapter@_W@__crt_stdio_output@@@__crt_stdio_output@@QAE@XZ 1004ab00 f i libucrtd:output.obj
 0001:00049b20       ??1?$standard_base@_WV?$string_output_adapter@_W@__crt_stdio_output@@@__crt_stdio_output@@QAE@XZ 1004ab20 f i libucrtd:output.obj
 0001:00049b40       ??1_LocaleUpdate@@QAE@XZ   1004ab40 f i libucrtd:output.obj
 0001:00049b80       ??1__acrt_stdio_temporary_buffering_guard@@QAE@XZ 1004ab80 f i libucrtd:output.obj
 0001:00049bb0       ??1__crt_errno_guard@@QAE@XZ 1004abb0 f i libucrtd:output.obj
 0001:00049be0       ??1formatting_buffer@__crt_stdio_output@@QAE@XZ 1004abe0 f i libucrtd:output.obj
 0001:00049c00       ??4?$__crt_unique_heap_ptr@DU__crt_internal_free_policy@@@@QAEAAV0@$$QAV0@@Z 1004ac00 f i libucrtd:output.obj
 0001:00049c30       ??C__crt_stdio_stream@@QBEPAU__crt_stdio_stream_data@@XZ 1004ac30 f i libucrtd:output.obj
 0001:0004a370       ?GetLocaleT@_LocaleUpdate@@QAEPAU__crt_locale_pointers@@XZ 1004b370 f i libucrtd:output.obj
 0001:0004a390       ?adjust_hexit@?$output_processor@DV?$stream_output_adapter@D@__crt_stdio_output@@V?$format_validation_base@DV?$stream_output_adapter@D@__crt_stdio_output@@@2@@__crt_stdio_output@@CADH_N@Z 1004b390 f i libucrtd:output.obj
 0001:0004a3d0       ?adjust_hexit@?$output_processor@DV?$stream_output_adapter@D@__crt_stdio_output@@V?$positional_parameter_base@DV?$stream_output_adapter@D@__crt_stdio_output@@@2@@__crt_stdio_output@@CADH_N@Z 1004b3d0 f i libucrtd:output.obj
 0001:0004a410       ?adjust_hexit@?$output_processor@DV?$stream_output_adapter@D@__crt_stdio_output@@V?$standard_base@DV?$stream_output_adapter@D@__crt_stdio_output@@@2@@__crt_stdio_output@@CADH_N@Z 1004b410 f i libucrtd:output.obj
 0001:0004a450       ?adjust_hexit@?$output_processor@DV?$string_output_adapter@D@__crt_stdio_output@@V?$format_validation_base@DV?$string_output_adapter@D@__crt_stdio_output@@@2@@__crt_stdio_output@@CADH_N@Z 1004b450 f i libucrtd:output.obj
 0001:0004a490       ?adjust_hexit@?$output_processor@DV?$string_output_adapter@D@__crt_stdio_output@@V?$positional_parameter_base@DV?$string_output_adapter@D@__crt_stdio_output@@@2@@__crt_stdio_output@@CADH_N@Z 1004b490 f i libucrtd:output.obj
 0001:0004a4d0       ?adjust_hexit@?$output_processor@DV?$string_output_adapter@D@__crt_stdio_output@@V?$standard_base@DV?$string_output_adapter@D@__crt_stdio_output@@@2@@__crt_stdio_output@@CADH_N@Z 1004b4d0 f i libucrtd:output.obj
 0001:0004a510       ?adjust_hexit@?$output_processor@_WV?$stream_output_adapter@_W@__crt_stdio_output@@V?$format_validation_base@_WV?$stream_output_adapter@_W@__crt_stdio_output@@@2@@__crt_stdio_output@@CADH_N@Z 1004b510 f i libucrtd:output.obj
 0001:0004a550       ?adjust_hexit@?$output_processor@_WV?$stream_output_adapter@_W@__crt_stdio_output@@V?$positional_parameter_base@_WV?$stream_output_adapter@_W@__crt_stdio_output@@@2@@__crt_stdio_output@@CADH_N@Z 1004b550 f i libucrtd:output.obj
 0001:0004a590       ?adjust_hexit@?$output_processor@_WV?$stream_output_adapter@_W@__crt_stdio_output@@V?$standard_base@_WV?$stream_output_adapter@_W@__crt_stdio_output@@@2@@__crt_stdio_output@@CADH_N@Z 1004b590 f i libucrtd:output.obj
 0001:0004a5d0       ?adjust_hexit@?$output_processor@_WV?$string_output_adapter@_W@__crt_stdio_output@@V?$format_validation_base@_WV?$string_output_adapter@_W@__crt_stdio_output@@@2@@__crt_stdio_output@@CADH_N@Z 1004b5d0 f i libucrtd:output.obj
 0001:0004a610       ?adjust_hexit@?$output_processor@_WV?$string_output_adapter@_W@__crt_stdio_output@@V?$positional_parameter_base@_WV?$string_output_adapter@_W@__crt_stdio_output@@@2@@__crt_stdio_output@@CADH_N@Z 1004b610 f i libucrtd:output.obj
 0001:0004a650       ?adjust_hexit@?$output_processor@_WV?$string_output_adapter@_W@__crt_stdio_output@@V?$standard_base@_WV?$string_output_adapter@_W@__crt_stdio_output@@@2@@__crt_stdio_output@@CADH_N@Z 1004b650 f i libucrtd:output.obj
 0001:0004a690       ?advance_to_next_pass@?$positional_parameter_base@DV?$stream_output_adapter@D@__crt_stdio_output@@@__crt_stdio_output@@IAE_NXZ 1004b690 f i libucrtd:output.obj
 0001:0004a730       ?advance_to_next_pass@?$positional_parameter_base@DV?$string_output_adapter@D@__crt_stdio_output@@@__crt_stdio_output@@IAE_NXZ 1004b730 f i libucrtd:output.obj
 0001:0004a7d0       ?advance_to_next_pass@?$positional_parameter_base@_WV?$stream_output_adapter@_W@__crt_stdio_output@@@__crt_stdio_output@@IAE_NXZ 1004b7d0 f i libucrtd:output.obj
 0001:0004a870       ?advance_to_next_pass@?$positional_parameter_base@_WV?$string_output_adapter@_W@__crt_stdio_output@@@__crt_stdio_output@@IAE_NXZ 1004b870 f i libucrtd:output.obj
 0001:0004a910       ?advance_to_next_pass@?$standard_base@DV?$stream_output_adapter@D@__crt_stdio_output@@@__crt_stdio_output@@IAE_NXZ 1004b910 f i libucrtd:output.obj
 0001:0004a960       ?advance_to_next_pass@?$standard_base@DV?$string_output_adapter@D@__crt_stdio_output@@@__crt_stdio_output@@IAE_NXZ 1004b960 f i libucrtd:output.obj
 0001:0004a9b0       ?advance_to_next_pass@?$standard_base@_WV?$stream_output_adapter@_W@__crt_stdio_output@@@__crt_stdio_output@@IAE_NXZ 1004b9b0 f i libucrtd:output.obj
 0001:0004aa00       ?advance_to_next_pass@?$standard_base@_WV?$string_output_adapter@_W@__crt_stdio_output@@@__crt_stdio_output@@IAE_NXZ 1004ba00 f i libucrtd:output.obj
 0001:0004aa50       ?crop_zeroes@__crt_stdio_output@@YAXPADQAU__crt_locale_pointers@@@Z 1004ba50 f i libucrtd:output.obj
 0001:0004ab50       ?find_next_state@?$output_processor@DV?$stream_output_adapter@D@__crt_stdio_output@@V?$format_validation_base@DV?$stream_output_adapter@D@__crt_stdio_output@@@2@@__crt_stdio_output@@ABE?AW4state@2@DW432@@Z 1004bb50 f i libucrtd:output.obj
 0001:0004abd0       ?find_next_state@?$output_processor@DV?$stream_output_adapter@D@__crt_stdio_output@@V?$positional_parameter_base@DV?$stream_output_adapter@D@__crt_stdio_output@@@2@@__crt_stdio_output@@ABE?AW4state@2@DW432@@Z 1004bbd0 f i libucrtd:output.obj
 0001:0004ac50       ?find_next_state@?$output_processor@DV?$stream_output_adapter@D@__crt_stdio_output@@V?$standard_base@DV?$stream_output_adapter@D@__crt_stdio_output@@@2@@__crt_stdio_output@@ABE?AW4state@2@DW432@@Z 1004bc50 f i libucrtd:output.obj
 0001:0004acd0       ?find_next_state@?$output_processor@DV?$string_output_adapter@D@__crt_stdio_output@@V?$format_validation_base@DV?$string_output_adapter@D@__crt_stdio_output@@@2@@__crt_stdio_output@@ABE?AW4state@2@DW432@@Z 1004bcd0 f i libucrtd:output.obj
 0001:0004ad50       ?find_next_state@?$output_processor@DV?$string_output_adapter@D@__crt_stdio_output@@V?$positional_parameter_base@DV?$string_output_adapter@D@__crt_stdio_output@@@2@@__crt_stdio_output@@ABE?AW4state@2@DW432@@Z 1004bd50 f i libucrtd:output.obj
 0001:0004add0       ?find_next_state@?$output_processor@DV?$string_output_adapter@D@__crt_stdio_output@@V?$standard_base@DV?$string_output_adapter@D@__crt_stdio_output@@@2@@__crt_stdio_output@@ABE?AW4state@2@DW432@@Z 1004bdd0 f i libucrtd:output.obj
 0001:0004ae50       ?find_next_state@?$output_processor@_WV?$stream_output_adapter@_W@__crt_stdio_output@@V?$format_validation_base@_WV?$stream_output_adapter@_W@__crt_stdio_output@@@2@@__crt_stdio_output@@ABE?AW4state@2@_WW432@@Z 1004be50 f i libucrtd:output.obj
 0001:0004aed0       ?find_next_state@?$output_processor@_WV?$stream_output_adapter@_W@__crt_stdio_output@@V?$positional_parameter_base@_WV?$stream_output_adapter@_W@__crt_stdio_output@@@2@@__crt_stdio_output@@ABE?AW4state@2@_WW432@@Z 1004bed0 f i libucrtd:output.obj
 0001:0004af50       ?find_next_state@?$output_processor@_WV?$stream_output_adapter@_W@__crt_stdio_output@@V?$standard_base@_WV?$stream_output_adapter@_W@__crt_stdio_output@@@2@@__crt_stdio_output@@ABE?AW4state@2@_WW432@@Z 1004bf50 f i libucrtd:output.obj
 0001:0004afd0       ?find_next_state@?$output_processor@_WV?$string_output_adapter@_W@__crt_stdio_output@@V?$format_validation_base@_WV?$string_output_adapter@_W@__crt_stdio_output@@@2@@__crt_stdio_output@@ABE?AW4state@2@_WW432@@Z 1004bfd0 f i libucrtd:output.obj
 0001:0004b050       ?find_next_state@?$output_processor@_WV?$string_output_adapter@_W@__crt_stdio_output@@V?$positional_parameter_base@_WV?$string_output_adapter@_W@__crt_stdio_output@@@2@@__crt_stdio_output@@ABE?AW4state@2@_WW432@@Z 1004c050 f i libucrtd:output.obj
 0001:0004b0d0       ?find_next_state@?$output_processor@_WV?$string_output_adapter@_W@__crt_stdio_output@@V?$standard_base@_WV?$string_output_adapter@_W@__crt_stdio_output@@@2@@__crt_stdio_output@@ABE?AW4state@2@_WW432@@Z 1004c0d0 f i libucrtd:output.obj
 0001:0004b150       ?force_decimal_point@__crt_stdio_output@@YAXPADQAU__crt_locale_pointers@@@Z 1004c150 f i libucrtd:output.obj
 0001:0004b200       ?get_flags@__crt_stdio_stream@@QBEJXZ 1004c200 f i libucrtd:output.obj
 0001:0004b220       ?get_parameter_type@?$positional_parameter_base@DV?$stream_output_adapter@D@__crt_stdio_output@@@__crt_stdio_output@@CA?AW4parameter_type@12@F@Z 1004c220 f i libucrtd:output.obj
 0001:0004b230       ?get_parameter_type@?$positional_parameter_base@DV?$stream_output_adapter@D@__crt_stdio_output@@@__crt_stdio_output@@CA?AW4parameter_type@12@G@Z 1004c230 f i libucrtd:output.obj
 0001:0004b240       ?get_parameter_type@?$positional_parameter_base@DV?$stream_output_adapter@D@__crt_stdio_output@@@__crt_stdio_output@@CA?AW4parameter_type@12@H@Z 1004c240 f i libucrtd:output.obj
 0001:0004b250       ?get_parameter_type@?$positional_parameter_base@DV?$stream_output_adapter@D@__crt_stdio_output@@@__crt_stdio_output@@CA?AW4parameter_type@12@I@Z 1004c250 f i libucrtd:output.obj
 0001:0004b260       ?get_parameter_type@?$positional_parameter_base@DV?$stream_output_adapter@D@__crt_stdio_output@@@__crt_stdio_output@@CA?AW4parameter_type@12@U_CRT_DOUBLE@@@Z 1004c260 f i libucrtd:output.obj
 0001:0004b270       ?get_parameter_type@?$positional_parameter_base@DV?$stream_output_adapter@D@__crt_stdio_output@@@__crt_stdio_output@@CA?AW4parameter_type@12@_J@Z 1004c270 f i libucrtd:output.obj
 0001:0004b280       ?get_parameter_type@?$positional_parameter_base@DV?$stream_output_adapter@D@__crt_stdio_output@@@__crt_stdio_output@@CA?AW4parameter_type@12@_K@Z 1004c280 f i libucrtd:output.obj
 0001:0004b290       ?get_parameter_type@?$positional_parameter_base@DV?$stream_output_adapter@D@__crt_stdio_output@@@__crt_stdio_output@@CA?AW4parameter_type@12@_W@Z 1004c290 f i libucrtd:output.obj
 0001:0004b2a0       ?get_parameter_type@?$positional_parameter_base@DV?$string_output_adapter@D@__crt_stdio_output@@@__crt_stdio_output@@CA?AW4parameter_type@12@F@Z 1004c2a0 f i libucrtd:output.obj
 0001:0004b2b0       ?get_parameter_type@?$positional_parameter_base@DV?$string_output_adapter@D@__crt_stdio_output@@@__crt_stdio_output@@CA?AW4parameter_type@12@G@Z 1004c2b0 f i libucrtd:output.obj
 0001:0004b2c0       ?get_parameter_type@?$positional_parameter_base@DV?$string_output_adapter@D@__crt_stdio_output@@@__crt_stdio_output@@CA?AW4parameter_type@12@H@Z 1004c2c0 f i libucrtd:output.obj
 0001:0004b2d0       ?get_parameter_type@?$positional_parameter_base@DV?$string_output_adapter@D@__crt_stdio_output@@@__crt_stdio_output@@CA?AW4parameter_type@12@I@Z 1004c2d0 f i libucrtd:output.obj
 0001:0004b2e0       ?get_parameter_type@?$positional_parameter_base@DV?$string_output_adapter@D@__crt_stdio_output@@@__crt_stdio_output@@CA?AW4parameter_type@12@U_CRT_DOUBLE@@@Z 1004c2e0 f i libucrtd:output.obj
 0001:0004b2f0       ?get_parameter_type@?$positional_parameter_base@DV?$string_output_adapter@D@__crt_stdio_output@@@__crt_stdio_output@@CA?AW4parameter_type@12@_J@Z 1004c2f0 f i libucrtd:output.obj
 0001:0004b300       ?get_parameter_type@?$positional_parameter_base@DV?$string_output_adapter@D@__crt_stdio_output@@@__crt_stdio_output@@CA?AW4parameter_type@12@_K@Z 1004c300 f i libucrtd:output.obj
 0001:0004b310       ?get_parameter_type@?$positional_parameter_base@DV?$string_output_adapter@D@__crt_stdio_output@@@__crt_stdio_output@@CA?AW4parameter_type@12@_W@Z 1004c310 f i libucrtd:output.obj
 0001:0004b320       ?get_parameter_type@?$positional_parameter_base@_WV?$stream_output_adapter@_W@__crt_stdio_output@@@__crt_stdio_output@@CA?AW4parameter_type@12@F@Z 1004c320 f i libucrtd:output.obj
 0001:0004b330       ?get_parameter_type@?$positional_parameter_base@_WV?$stream_output_adapter@_W@__crt_stdio_output@@@__crt_stdio_output@@CA?AW4parameter_type@12@G@Z 1004c330 f i libucrtd:output.obj
 0001:0004b340       ?get_parameter_type@?$positional_parameter_base@_WV?$stream_output_adapter@_W@__crt_stdio_output@@@__crt_stdio_output@@CA?AW4parameter_type@12@H@Z 1004c340 f i libucrtd:output.obj
 0001:0004b350       ?get_parameter_type@?$positional_parameter_base@_WV?$stream_output_adapter@_W@__crt_stdio_output@@@__crt_stdio_output@@CA?AW4parameter_type@12@I@Z 1004c350 f i libucrtd:output.obj
 0001:0004b360       ?get_parameter_type@?$positional_parameter_base@_WV?$stream_output_adapter@_W@__crt_stdio_output@@@__crt_stdio_output@@CA?AW4parameter_type@12@U_CRT_DOUBLE@@@Z 1004c360 f i libucrtd:output.obj
 0001:0004b370       ?get_parameter_type@?$positional_parameter_base@_WV?$stream_output_adapter@_W@__crt_stdio_output@@@__crt_stdio_output@@CA?AW4parameter_type@12@_J@Z 1004c370 f i libucrtd:output.obj
 0001:0004b380       ?get_parameter_type@?$positional_parameter_base@_WV?$stream_output_adapter@_W@__crt_stdio_output@@@__crt_stdio_output@@CA?AW4parameter_type@12@_K@Z 1004c380 f i libucrtd:output.obj
 0001:0004b390       ?get_parameter_type@?$positional_parameter_base@_WV?$stream_output_adapter@_W@__crt_stdio_output@@@__crt_stdio_output@@CA?AW4parameter_type@12@_W@Z 1004c390 f i libucrtd:output.obj
 0001:0004b3a0       ?get_parameter_type@?$positional_parameter_base@_WV?$string_output_adapter@_W@__crt_stdio_output@@@__crt_stdio_output@@CA?AW4parameter_type@12@F@Z 1004c3a0 f i libucrtd:output.obj
 0001:0004b3b0       ?get_parameter_type@?$positional_parameter_base@_WV?$string_output_adapter@_W@__crt_stdio_output@@@__crt_stdio_output@@CA?AW4parameter_type@12@G@Z 1004c3b0 f i libucrtd:output.obj
 0001:0004b3c0       ?get_parameter_type@?$positional_parameter_base@_WV?$string_output_adapter@_W@__crt_stdio_output@@@__crt_stdio_output@@CA?AW4parameter_type@12@H@Z 1004c3c0 f i libucrtd:output.obj
 0001:0004b3d0       ?get_parameter_type@?$positional_parameter_base@_WV?$string_output_adapter@_W@__crt_stdio_output@@@__crt_stdio_output@@CA?AW4parameter_type@12@I@Z 1004c3d0 f i libucrtd:output.obj
 0001:0004b3e0       ?get_parameter_type@?$positional_parameter_base@_WV?$string_output_adapter@_W@__crt_stdio_output@@@__crt_stdio_output@@CA?AW4parameter_type@12@U_CRT_DOUBLE@@@Z 1004c3e0 f i libucrtd:output.obj
 0001:0004b3f0       ?get_parameter_type@?$positional_parameter_base@_WV?$string_output_adapter@_W@__crt_stdio_output@@@__crt_stdio_output@@CA?AW4parameter_type@12@_J@Z 1004c3f0 f i libucrtd:output.obj
 0001:0004b400       ?get_parameter_type@?$positional_parameter_base@_WV?$string_output_adapter@_W@__crt_stdio_output@@@__crt_stdio_output@@CA?AW4parameter_type@12@_K@Z 1004c400 f i libucrtd:output.obj
 0001:0004b410       ?get_parameter_type@?$positional_parameter_base@_WV?$string_output_adapter@_W@__crt_stdio_output@@@__crt_stdio_output@@CA?AW4parameter_type@12@_W@Z 1004c410 f i libucrtd:output.obj
 0001:0004b420       ?has_flag@?$output_processor@DV?$stream_output_adapter@D@__crt_stdio_output@@V?$format_validation_base@DV?$stream_output_adapter@D@__crt_stdio_output@@@2@@__crt_stdio_output@@ABE_NI@Z 1004c420 f i libucrtd:output.obj
 0001:0004b450       ?has_flag@?$output_processor@DV?$stream_output_adapter@D@__crt_stdio_output@@V?$positional_parameter_base@DV?$stream_output_adapter@D@__crt_stdio_output@@@2@@__crt_stdio_output@@ABE_NI@Z 1004c450 f i libucrtd:output.obj
 0001:0004b480       ?has_flag@?$output_processor@DV?$stream_output_adapter@D@__crt_stdio_output@@V?$standard_base@DV?$stream_output_adapter@D@__crt_stdio_output@@@2@@__crt_stdio_output@@ABE_NI@Z 1004c480 f i libucrtd:output.obj
 0001:0004b4b0       ?has_flag@?$output_processor@DV?$string_output_adapter@D@__crt_stdio_output@@V?$format_validation_base@DV?$string_output_adapter@D@__crt_stdio_output@@@2@@__crt_stdio_output@@ABE_NI@Z 1004c4b0 f i libucrtd:output.obj
 0001:0004b4e0       ?has_flag@?$output_processor@DV?$string_output_adapter@D@__crt_stdio_output@@V?$positional_parameter_base@DV?$string_output_adapter@D@__crt_stdio_output@@@2@@__crt_stdio_output@@ABE_NI@Z 1004c4e0 f i libucrtd:output.obj
 0001:0004b510       ?has_flag@?$output_processor@DV?$string_output_adapter@D@__crt_stdio_output@@V?$standard_base@DV?$string_output_adapter@D@__crt_stdio_output@@@2@@__crt_stdio_output@@ABE_NI@Z 1004c510 f i libucrtd:output.obj
 0001:0004b540       ?has_flag@?$output_processor@_WV?$stream_output_adapter@_W@__crt_stdio_output@@V?$format_validation_base@_WV?$stream_output_adapter@_W@__crt_stdio_output@@@2@@__crt_stdio_output@@ABE_NI@Z 1004c540 f i libucrtd:output.obj
 0001:0004b570       ?has_flag@?$output_processor@_WV?$stream_output_adapter@_W@__crt_stdio_output@@V?$positional_parameter_base@_WV?$stream_output_adapter@_W@__crt_stdio_output@@@2@@__crt_stdio_output@@ABE_NI@Z 1004c570 f i libucrtd:output.obj
 0001:0004b5a0       ?has_flag@?$output_processor@_WV?$stream_output_adapter@_W@__crt_stdio_output@@V?$standard_base@_WV?$stream_output_adapter@_W@__crt_stdio_output@@@2@@__crt_stdio_output@@ABE_NI@Z 1004c5a0 f i libucrtd:output.obj
 0001:0004b5d0       ?has_flag@?$output_processor@_WV?$string_output_adapter@_W@__crt_stdio_output@@V?$format_validation_base@_WV?$string_output_adapter@_W@__crt_stdio_output@@@2@@__crt_stdio_output@@ABE_NI@Z 1004c5d0 f i libucrtd:output.obj
 0001:0004b600       ?has_flag@?$output_processor@_WV?$string_output_adapter@_W@__crt_stdio_output@@V?$positional_parameter_base@_WV?$string_output_adapter@_W@__crt_stdio_output@@@2@@__crt_stdio_output@@ABE_NI@Z 1004c600 f i libucrtd:output.obj
 0001:0004b630       ?has_flag@?$output_processor@_WV?$string_output_adapter@_W@__crt_stdio_output@@V?$standard_base@_WV?$string_output_adapter@_W@__crt_stdio_output@@@2@@__crt_stdio_output@@ABE_NI@Z 1004c630 f i libucrtd:output.obj
 0001:0004b660       ?is_positional_parameter_reappearance_consistent@?$positional_parameter_base@DV?$stream_output_adapter@D@__crt_stdio_output@@@__crt_stdio_output@@AAE_NABUparameter_data@12@W4parameter_type@12@DW4length_modifier@2@@Z 1004c660 f i libucrtd:output.obj
 0001:0004b890       ?is_positional_parameter_reappearance_consistent@?$positional_parameter_base@DV?$string_output_adapter@D@__crt_stdio_output@@@__crt_stdio_output@@AAE_NABUparameter_data@12@W4parameter_type@12@DW4length_modifier@2@@Z 1004c890 f i libucrtd:output.obj
 0001:0004bac0       ?is_positional_parameter_reappearance_consistent@?$positional_parameter_base@_WV?$stream_output_adapter@_W@__crt_stdio_output@@@__crt_stdio_output@@AAE_NABUparameter_data@12@W4parameter_type@12@_WW4length_modifier@2@@Z 1004cac0 f i libucrtd:output.obj
 0001:0004bcf0       ?is_positional_parameter_reappearance_consistent@?$positional_parameter_base@_WV?$string_output_adapter@_W@__crt_stdio_output@@@__crt_stdio_output@@AAE_NABUparameter_data@12@W4parameter_type@12@_WW4length_modifier@2@@Z 1004ccf0 f i libucrtd:output.obj
 0001:0004bf20       ?is_string_backed@__crt_stdio_stream@@QBE_NXZ 1004cf20 f i libucrtd:output.obj
 0001:0004bf60       ?narrow_null_string@?$output_processor@DV?$stream_output_adapter@D@__crt_stdio_output@@V?$format_validation_base@DV?$stream_output_adapter@D@__crt_stdio_output@@@2@@__crt_stdio_output@@CAPADXZ 1004cf60 f i libucrtd:output.obj
 0001:0004bf70       ?narrow_null_string@?$output_processor@DV?$stream_output_adapter@D@__crt_stdio_output@@V?$positional_parameter_base@DV?$stream_output_adapter@D@__crt_stdio_output@@@2@@__crt_stdio_output@@CAPADXZ 1004cf70 f i libucrtd:output.obj
 0001:0004bf80       ?narrow_null_string@?$output_processor@DV?$stream_output_adapter@D@__crt_stdio_output@@V?$standard_base@DV?$stream_output_adapter@D@__crt_stdio_output@@@2@@__crt_stdio_output@@CAPADXZ 1004cf80 f i libucrtd:output.obj
 0001:0004bf90       ?narrow_null_string@?$output_processor@DV?$string_output_adapter@D@__crt_stdio_output@@V?$format_validation_base@DV?$string_output_adapter@D@__crt_stdio_output@@@2@@__crt_stdio_output@@CAPADXZ 1004cf90 f i libucrtd:output.obj
 0001:0004bfa0       ?narrow_null_string@?$output_processor@DV?$string_output_adapter@D@__crt_stdio_output@@V?$positional_parameter_base@DV?$string_output_adapter@D@__crt_stdio_output@@@2@@__crt_stdio_output@@CAPADXZ 1004cfa0 f i libucrtd:output.obj
 0001:0004bfb0       ?narrow_null_string@?$output_processor@DV?$string_output_adapter@D@__crt_stdio_output@@V?$standard_base@DV?$string_output_adapter@D@__crt_stdio_output@@@2@@__crt_stdio_output@@CAPADXZ 1004cfb0 f i libucrtd:output.obj
 0001:0004bfc0       ?narrow_null_string@?$output_processor@_WV?$stream_output_adapter@_W@__crt_stdio_output@@V?$format_validation_base@_WV?$stream_output_adapter@_W@__crt_stdio_output@@@2@@__crt_stdio_output@@CAPADXZ 1004cfc0 f i libucrtd:output.obj
 0001:0004bfd0       ?narrow_null_string@?$output_processor@_WV?$stream_output_adapter@_W@__crt_stdio_output@@V?$positional_parameter_base@_WV?$stream_output_adapter@_W@__crt_stdio_output@@@2@@__crt_stdio_output@@CAPADXZ 1004cfd0 f i libucrtd:output.obj
 0001:0004bfe0       ?narrow_null_string@?$output_processor@_WV?$stream_output_adapter@_W@__crt_stdio_output@@V?$standard_base@_WV?$stream_output_adapter@_W@__crt_stdio_output@@@2@@__crt_stdio_output@@CAPADXZ 1004cfe0 f i libucrtd:output.obj
 0001:0004bff0       ?narrow_null_string@?$output_processor@_WV?$string_output_adapter@_W@__crt_stdio_output@@V?$format_validation_base@_WV?$string_output_adapter@_W@__crt_stdio_output@@@2@@__crt_stdio_output@@CAPADXZ 1004cff0 f i libucrtd:output.obj
 0001:0004c000       ?narrow_null_string@?$output_processor@_WV?$string_output_adapter@_W@__crt_stdio_output@@V?$positional_parameter_base@_WV?$string_output_adapter@_W@__crt_stdio_output@@@2@@__crt_stdio_output@@CAPADXZ 1004d000 f i libucrtd:output.obj
 0001:0004c010       ?narrow_null_string@?$output_processor@_WV?$string_output_adapter@_W@__crt_stdio_output@@V?$standard_base@_WV?$string_output_adapter@_W@__crt_stdio_output@@@2@@__crt_stdio_output@@CAPADXZ 1004d010 f i libucrtd:output.obj
 0001:0004c020       ?parse_int_from_format_string@?$output_processor@DV?$stream_output_adapter@D@__crt_stdio_output@@V?$format_validation_base@DV?$stream_output_adapter@D@__crt_stdio_output@@@2@@__crt_stdio_output@@AAE_NQAH@Z 1004d020 f i libucrtd:output.obj
 0001:0004c0d0       ?parse_int_from_format_string@?$output_processor@DV?$stream_output_adapter@D@__crt_stdio_output@@V?$positional_parameter_base@DV?$stream_output_adapter@D@__crt_stdio_output@@@2@@__crt_stdio_output@@AAE_NQAH@Z 1004d0d0 f i libucrtd:output.obj
 0001:0004c180       ?parse_int_from_format_string@?$output_processor@DV?$stream_output_adapter@D@__crt_stdio_output@@V?$standard_base@DV?$stream_output_adapter@D@__crt_stdio_output@@@2@@__crt_stdio_output@@AAE_NQAH@Z 1004d180 f i libucrtd:output.obj
 0001:0004c230       ?parse_int_from_format_string@?$output_processor@DV?$string_output_adapter@D@__crt_stdio_output@@V?$format_validation_base@DV?$string_output_adapter@D@__crt_stdio_output@@@2@@__crt_stdio_output@@AAE_NQAH@Z 1004d230 f i libucrtd:output.obj
 0001:0004c2e0       ?parse_int_from_format_string@?$output_processor@DV?$string_output_adapter@D@__crt_stdio_output@@V?$positional_parameter_base@DV?$string_output_adapter@D@__crt_stdio_output@@@2@@__crt_stdio_output@@AAE_NQAH@Z 1004d2e0 f i libucrtd:output.obj
 0001:0004c390       ?parse_int_from_format_string@?$output_processor@DV?$string_output_adapter@D@__crt_stdio_output@@V?$standard_base@DV?$string_output_adapter@D@__crt_stdio_output@@@2@@__crt_stdio_output@@AAE_NQAH@Z 1004d390 f i libucrtd:output.obj
 0001:0004c440       ?parse_int_from_format_string@?$output_processor@_WV?$stream_output_adapter@_W@__crt_stdio_output@@V?$format_validation_base@_WV?$stream_output_adapter@_W@__crt_stdio_output@@@2@@__crt_stdio_output@@AAE_NQAH@Z 1004d440 f i libucrtd:output.obj
 0001:0004c4f0       ?parse_int_from_format_string@?$output_processor@_WV?$stream_output_adapter@_W@__crt_stdio_output@@V?$positional_parameter_base@_WV?$stream_output_adapter@_W@__crt_stdio_output@@@2@@__crt_stdio_output@@AAE_NQAH@Z 1004d4f0 f i libucrtd:output.obj
 0001:0004c5a0       ?parse_int_from_format_string@?$output_processor@_WV?$stream_output_adapter@_W@__crt_stdio_output@@V?$standard_base@_WV?$stream_output_adapter@_W@__crt_stdio_output@@@2@@__crt_stdio_output@@AAE_NQAH@Z 1004d5a0 f i libucrtd:output.obj
 0001:0004c650       ?parse_int_from_format_string@?$output_processor@_WV?$string_output_adapter@_W@__crt_stdio_output@@V?$format_validation_base@_WV?$string_output_adapter@_W@__crt_stdio_output@@@2@@__crt_stdio_output@@AAE_NQAH@Z 1004d650 f i libucrtd:output.obj
 0001:0004c700       ?parse_int_from_format_string@?$output_processor@_WV?$string_output_adapter@_W@__crt_stdio_output@@V?$positional_parameter_base@_WV?$string_output_adapter@_W@__crt_stdio_output@@@2@@__crt_stdio_output@@AAE_NQAH@Z 1004d700 f i libucrtd:output.obj
 0001:0004c7b0       ?parse_int_from_format_string@?$output_processor@_WV?$string_output_adapter@_W@__crt_stdio_output@@V?$standard_base@_WV?$string_output_adapter@_W@__crt_stdio_output@@@2@@__crt_stdio_output@@AAE_NQAH@Z 1004d7b0 f i libucrtd:output.obj
 0001:0004c860       ?process@?$output_processor@DV?$stream_output_adapter@D@__crt_stdio_output@@V?$format_validation_base@DV?$stream_output_adapter@D@__crt_stdio_output@@@2@@__crt_stdio_output@@QAEHXZ 1004d860 f i libucrtd:output.obj
 0001:0004cb10       ?process@?$output_processor@DV?$stream_output_adapter@D@__crt_stdio_output@@V?$positional_parameter_base@DV?$stream_output_adapter@D@__crt_stdio_output@@@2@@__crt_stdio_output@@QAEHXZ 1004db10 f i libucrtd:output.obj
 0001:0004cdc0       ?process@?$output_processor@DV?$stream_output_adapter@D@__crt_stdio_output@@V?$standard_base@DV?$stream_output_adapter@D@__crt_stdio_output@@@2@@__crt_stdio_output@@QAEHXZ 1004ddc0 f i libucrtd:output.obj
 0001:0004d070       ?process@?$output_processor@DV?$string_output_adapter@D@__crt_stdio_output@@V?$format_validation_base@DV?$string_output_adapter@D@__crt_stdio_output@@@2@@__crt_stdio_output@@QAEHXZ 1004e070 f i libucrtd:output.obj
 0001:0004d320       ?process@?$output_processor@DV?$string_output_adapter@D@__crt_stdio_output@@V?$positional_parameter_base@DV?$string_output_adapter@D@__crt_stdio_output@@@2@@__crt_stdio_output@@QAEHXZ 1004e320 f i libucrtd:output.obj
 0001:0004d5d0       ?process@?$output_processor@DV?$string_output_adapter@D@__crt_stdio_output@@V?$standard_base@DV?$string_output_adapter@D@__crt_stdio_output@@@2@@__crt_stdio_output@@QAEHXZ 1004e5d0 f i libucrtd:output.obj
 0001:0004d880       ?process@?$output_processor@_WV?$stream_output_adapter@_W@__crt_stdio_output@@V?$format_validation_base@_WV?$stream_output_adapter@_W@__crt_stdio_output@@@2@@__crt_stdio_output@@QAEHXZ 1004e880 f i libucrtd:output.obj
 0001:0004db30       ?process@?$output_processor@_WV?$stream_output_adapter@_W@__crt_stdio_output@@V?$positional_parameter_base@_WV?$stream_output_adapter@_W@__crt_stdio_output@@@2@@__crt_stdio_output@@QAEHXZ 1004eb30 f i libucrtd:output.obj
 0001:0004dde0       ?process@?$output_processor@_WV?$stream_output_adapter@_W@__crt_stdio_output@@V?$standard_base@_WV?$stream_output_adapter@_W@__crt_stdio_output@@@2@@__crt_stdio_output@@QAEHXZ 1004ede0 f i libucrtd:output.obj
 0001:0004e090       ?process@?$output_processor@_WV?$string_output_adapter@_W@__crt_stdio_output@@V?$format_validation_base@_WV?$string_output_adapter@_W@__crt_stdio_output@@@2@@__crt_stdio_output@@QAEHXZ 1004f090 f i libucrtd:output.obj
 0001:0004e340       ?process@?$output_processor@_WV?$string_output_adapter@_W@__crt_stdio_output@@V?$positional_parameter_base@_WV?$string_output_adapter@_W@__crt_stdio_output@@@2@@__crt_stdio_output@@QAEHXZ 1004f340 f i libucrtd:output.obj
 0001:0004e5f0       ?process@?$output_processor@_WV?$string_output_adapter@_W@__crt_stdio_output@@V?$standard_base@_WV?$string_output_adapter@_W@__crt_stdio_output@@@2@@__crt_stdio_output@@QAEHXZ 1004f5f0 f i libucrtd:output.obj
 0001:0004e8a0       ?public_stream@__crt_stdio_stream@@QBEPAU_iobuf@@XZ 1004f8a0 f i libucrtd:output.obj
 0001:0004e8c0       ?set_flag@?$output_processor@DV?$stream_output_adapter@D@__crt_stdio_output@@V?$format_validation_base@DV?$stream_output_adapter@D@__crt_stdio_output@@@2@@__crt_stdio_output@@AAEXI@Z 1004f8c0 f i libucrtd:output.obj
 0001:0004e8e0       ?set_flag@?$output_processor@DV?$stream_output_adapter@D@__crt_stdio_output@@V?$positional_parameter_base@DV?$stream_output_adapter@D@__crt_stdio_output@@@2@@__crt_stdio_output@@AAEXI@Z 1004f8e0 f i libucrtd:output.obj
 0001:0004e900       ?set_flag@?$output_processor@DV?$stream_output_adapter@D@__crt_stdio_output@@V?$standard_base@DV?$stream_output_adapter@D@__crt_stdio_output@@@2@@__crt_stdio_output@@AAEXI@Z 1004f900 f i libucrtd:output.obj
 0001:0004e920       ?set_flag@?$output_processor@DV?$string_output_adapter@D@__crt_stdio_output@@V?$format_validation_base@DV?$string_output_adapter@D@__crt_stdio_output@@@2@@__crt_stdio_output@@AAEXI@Z 1004f920 f i libucrtd:output.obj
 0001:0004e940       ?set_flag@?$output_processor@DV?$string_output_adapter@D@__crt_stdio_output@@V?$positional_parameter_base@DV?$string_output_adapter@D@__crt_stdio_output@@@2@@__crt_stdio_output@@AAEXI@Z 1004f940 f i libucrtd:output.obj
 0001:0004e960       ?set_flag@?$output_processor@DV?$string_output_adapter@D@__crt_stdio_output@@V?$standard_base@DV?$string_output_adapter@D@__crt_stdio_output@@@2@@__crt_stdio_output@@AAEXI@Z 1004f960 f i libucrtd:output.obj
 0001:0004e980       ?set_flag@?$output_processor@_WV?$stream_output_adapter@_W@__crt_stdio_output@@V?$format_validation_base@_WV?$stream_output_adapter@_W@__crt_stdio_output@@@2@@__crt_stdio_output@@AAEXI@Z 1004f980 f i libucrtd:output.obj
 0001:0004e9a0       ?set_flag@?$output_processor@_WV?$stream_output_adapter@_W@__crt_stdio_output@@V?$positional_parameter_base@_WV?$stream_output_adapter@_W@__crt_stdio_output@@@2@@__crt_stdio_output@@AAEXI@Z 1004f9a0 f i libucrtd:output.obj
 0001:0004e9c0       ?set_flag@?$output_processor@_WV?$stream_output_adapter@_W@__crt_stdio_output@@V?$standard_base@_WV?$stream_output_adapter@_W@__crt_stdio_output@@@2@@__crt_stdio_output@@AAEXI@Z 1004f9c0 f i libucrtd:output.obj
 0001:0004e9e0       ?set_flag@?$output_processor@_WV?$string_output_adapter@_W@__crt_stdio_output@@V?$format_validation_base@_WV?$string_output_adapter@_W@__crt_stdio_output@@@2@@__crt_stdio_output@@AAEXI@Z 1004f9e0 f i libucrtd:output.obj
 0001:0004ea00       ?set_flag@?$output_processor@_WV?$string_output_adapter@_W@__crt_stdio_output@@V?$positional_parameter_base@_WV?$string_output_adapter@_W@__crt_stdio_output@@@2@@__crt_stdio_output@@AAEXI@Z 1004fa00 f i libucrtd:output.obj
 0001:0004ea20       ?set_flag@?$output_processor@_WV?$string_output_adapter@_W@__crt_stdio_output@@V?$standard_base@_WV?$string_output_adapter@_W@__crt_stdio_output@@@2@@__crt_stdio_output@@AAEXI@Z 1004fa20 f i libucrtd:output.obj
 0001:0004ea40       ?should_format@?$positional_parameter_base@DV?$stream_output_adapter@D@__crt_stdio_output@@@__crt_stdio_output@@IAE_NXZ 1004fa40 f i libucrtd:output.obj
 0001:0004ea80       ?should_format@?$positional_parameter_base@DV?$string_output_adapter@D@__crt_stdio_output@@@__crt_stdio_output@@IAE_NXZ 1004fa80 f i libucrtd:output.obj
 0001:0004eac0       ?should_format@?$positional_parameter_base@_WV?$stream_output_adapter@_W@__crt_stdio_output@@@__crt_stdio_output@@IAE_NXZ 1004fac0 f i libucrtd:output.obj
 0001:0004eb00       ?should_format@?$positional_parameter_base@_WV?$string_output_adapter@_W@__crt_stdio_output@@@__crt_stdio_output@@IAE_NXZ 1004fb00 f i libucrtd:output.obj
 0001:0004eb40       ?should_format@?$standard_base@DV?$stream_output_adapter@D@__crt_stdio_output@@@__crt_stdio_output@@IAE_NXZ 1004fb40 f i libucrtd:output.obj
 0001:0004eb50       ?should_format@?$standard_base@DV?$string_output_adapter@D@__crt_stdio_output@@@__crt_stdio_output@@IAE_NXZ 1004fb50 f i libucrtd:output.obj
 0001:0004eb60       ?should_format@?$standard_base@_WV?$stream_output_adapter@_W@__crt_stdio_output@@@__crt_stdio_output@@IAE_NXZ 1004fb60 f i libucrtd:output.obj
 0001:0004eb70       ?should_format@?$standard_base@_WV?$string_output_adapter@_W@__crt_stdio_output@@@__crt_stdio_output@@IAE_NXZ 1004fb70 f i libucrtd:output.obj
 0001:0004eb80       ?should_skip_normal_state_processing@?$positional_parameter_base@DV?$stream_output_adapter@D@__crt_stdio_output@@@__crt_stdio_output@@IAE_NXZ 1004fb80 f i libucrtd:output.obj
 0001:0004ebd0       ?should_skip_normal_state_processing@?$positional_parameter_base@DV?$string_output_adapter@D@__crt_stdio_output@@@__crt_stdio_output@@IAE_NXZ 1004fbd0 f i libucrtd:output.obj
 0001:0004ec20       ?should_skip_normal_state_processing@?$positional_parameter_base@_WV?$stream_output_adapter@_W@__crt_stdio_output@@@__crt_stdio_output@@IAE_NXZ 1004fc20 f i libucrtd:output.obj
 0001:0004ec70       ?should_skip_normal_state_processing@?$positional_parameter_base@_WV?$string_output_adapter@_W@__crt_stdio_output@@@__crt_stdio_output@@IAE_NXZ 1004fc70 f i libucrtd:output.obj
 0001:0004ecc0       ?should_skip_normal_state_processing@?$standard_base@DV?$stream_output_adapter@D@__crt_stdio_output@@@__crt_stdio_output@@IAE_NXZ 1004fcc0 f i libucrtd:output.obj
 0001:0004ecd0       ?should_skip_normal_state_processing@?$standard_base@DV?$string_output_adapter@D@__crt_stdio_output@@@__crt_stdio_output@@IAE_NXZ 1004fcd0 f i libucrtd:output.obj
 0001:0004ece0       ?should_skip_normal_state_processing@?$standard_base@_WV?$stream_output_adapter@_W@__crt_stdio_output@@@__crt_stdio_output@@IAE_NXZ 1004fce0 f i libucrtd:output.obj
 0001:0004ecf0       ?should_skip_normal_state_processing@?$standard_base@_WV?$string_output_adapter@_W@__crt_stdio_output@@@__crt_stdio_output@@IAE_NXZ 1004fcf0 f i libucrtd:output.obj
 0001:0004ed00       ?should_skip_type_state_output@?$positional_parameter_base@DV?$stream_output_adapter@D@__crt_stdio_output@@@__crt_stdio_output@@IBE_NXZ 1004fd00 f i libucrtd:output.obj
 0001:0004ed40       ?should_skip_type_state_output@?$positional_parameter_base@DV?$string_output_adapter@D@__crt_stdio_output@@@__crt_stdio_output@@IBE_NXZ 1004fd40 f i libucrtd:output.obj
 0001:0004ed80       ?should_skip_type_state_output@?$positional_parameter_base@_WV?$stream_output_adapter@_W@__crt_stdio_output@@@__crt_stdio_output@@IBE_NXZ 1004fd80 f i libucrtd:output.obj
 0001:0004edc0       ?should_skip_type_state_output@?$positional_parameter_base@_WV?$string_output_adapter@_W@__crt_stdio_output@@@__crt_stdio_output@@IBE_NXZ 1004fdc0 f i libucrtd:output.obj
 0001:0004ee00       ?should_skip_type_state_output@?$standard_base@DV?$stream_output_adapter@D@__crt_stdio_output@@@__crt_stdio_output@@IBE_NXZ 1004fe00 f i libucrtd:output.obj
 0001:0004ee10       ?should_skip_type_state_output@?$standard_base@DV?$string_output_adapter@D@__crt_stdio_output@@@__crt_stdio_output@@IBE_NXZ 1004fe10 f i libucrtd:output.obj
 0001:0004ee20       ?should_skip_type_state_output@?$standard_base@_WV?$stream_output_adapter@_W@__crt_stdio_output@@@__crt_stdio_output@@IBE_NXZ 1004fe20 f i libucrtd:output.obj
 0001:0004ee30       ?should_skip_type_state_output@?$standard_base@_WV?$string_output_adapter@_W@__crt_stdio_output@@@__crt_stdio_output@@IBE_NXZ 1004fe30 f i libucrtd:output.obj
 0001:0004ee40       ?state_case_dot@?$output_processor@DV?$stream_output_adapter@D@__crt_stdio_output@@V?$format_validation_base@DV?$stream_output_adapter@D@__crt_stdio_output@@@2@@__crt_stdio_output@@AAE_NXZ 1004fe40 f i libucrtd:output.obj
 0001:0004ee60       ?state_case_dot@?$output_processor@DV?$stream_output_adapter@D@__crt_stdio_output@@V?$positional_parameter_base@DV?$stream_output_adapter@D@__crt_stdio_output@@@2@@__crt_stdio_output@@AAE_NXZ 1004fe60 f i libucrtd:output.obj
 0001:0004ee80       ?state_case_dot@?$output_processor@DV?$stream_output_adapter@D@__crt_stdio_output@@V?$standard_base@DV?$stream_output_adapter@D@__crt_stdio_output@@@2@@__crt_stdio_output@@AAE_NXZ 1004fe80 f i libucrtd:output.obj
 0001:0004eea0       ?state_case_dot@?$output_processor@DV?$string_output_adapter@D@__crt_stdio_output@@V?$format_validation_base@DV?$string_output_adapter@D@__crt_stdio_output@@@2@@__crt_stdio_output@@AAE_NXZ 1004fea0 f i libucrtd:output.obj
 0001:0004eec0       ?state_case_dot@?$output_processor@DV?$string_output_adapter@D@__crt_stdio_output@@V?$positional_parameter_base@DV?$string_output_adapter@D@__crt_stdio_output@@@2@@__crt_stdio_output@@AAE_NXZ 1004fec0 f i libucrtd:output.obj
 0001:0004eee0       ?state_case_dot@?$output_processor@DV?$string_output_adapter@D@__crt_stdio_output@@V?$standard_base@DV?$string_output_adapter@D@__crt_stdio_output@@@2@@__crt_stdio_output@@AAE_NXZ 1004fee0 f i libucrtd:output.obj
 0001:0004ef00       ?state_case_dot@?$output_processor@_WV?$stream_output_adapter@_W@__crt_stdio_output@@V?$format_validation_base@_WV?$stream_output_adapter@_W@__crt_stdio_output@@@2@@__crt_stdio_output@@AAE_NXZ 1004ff00 f i libucrtd:output.obj
 0001:0004ef20       ?state_case_dot@?$output_processor@_WV?$stream_output_adapter@_W@__crt_stdio_output@@V?$positional_parameter_base@_WV?$stream_output_adapter@_W@__crt_stdio_output@@@2@@__crt_stdio_output@@AAE_NXZ 1004ff20 f i libucrtd:output.obj
 0001:0004ef40       ?state_case_dot@?$output_processor@_WV?$stream_output_adapter@_W@__crt_stdio_output@@V?$standard_base@_WV?$stream_output_adapter@_W@__crt_stdio_output@@@2@@__crt_stdio_output@@AAE_NXZ 1004ff40 f i libucrtd:output.obj
 0001:0004ef60       ?state_case_dot@?$output_processor@_WV?$string_output_adapter@_W@__crt_stdio_output@@V?$format_validation_base@_WV?$string_output_adapter@_W@__crt_stdio_output@@@2@@__crt_stdio_output@@AAE_NXZ 1004ff60 f i libucrtd:output.obj
 0001:0004ef80       ?state_case_dot@?$output_processor@_WV?$string_output_adapter@_W@__crt_stdio_output@@V?$positional_parameter_base@_WV?$string_output_adapter@_W@__crt_stdio_output@@@2@@__crt_stdio_output@@AAE_NXZ 1004ff80 f i libucrtd:output.obj
 0001:0004efa0       ?state_case_dot@?$output_processor@_WV?$string_output_adapter@_W@__crt_stdio_output@@V?$standard_base@_WV?$string_output_adapter@_W@__crt_stdio_output@@@2@@__crt_stdio_output@@AAE_NXZ 1004ffa0 f i libucrtd:output.obj
 0001:0004efc0       ?state_case_flag@?$output_processor@DV?$stream_output_adapter@D@__crt_stdio_output@@V?$format_validation_base@DV?$stream_output_adapter@D@__crt_stdio_output@@@2@@__crt_stdio_output@@AAE_NXZ 1004ffc0 f i libucrtd:output.obj
 0001:0004f070       ?state_case_flag@?$output_processor@DV?$stream_output_adapter@D@__crt_stdio_output@@V?$positional_parameter_base@DV?$stream_output_adapter@D@__crt_stdio_output@@@2@@__crt_stdio_output@@AAE_NXZ 10050070 f i libucrtd:output.obj
 0001:0004f120       ?state_case_flag@?$output_processor@DV?$stream_output_adapter@D@__crt_stdio_output@@V?$standard_base@DV?$stream_output_adapter@D@__crt_stdio_output@@@2@@__crt_stdio_output@@AAE_NXZ 10050120 f i libucrtd:output.obj
 0001:0004f1d0       ?state_case_flag@?$output_processor@DV?$string_output_adapter@D@__crt_stdio_output@@V?$format_validation_base@DV?$string_output_adapter@D@__crt_stdio_output@@@2@@__crt_stdio_output@@AAE_NXZ 100501d0 f i libucrtd:output.obj
 0001:0004f280       ?state_case_flag@?$output_processor@DV?$string_output_adapter@D@__crt_stdio_output@@V?$positional_parameter_base@DV?$string_output_adapter@D@__crt_stdio_output@@@2@@__crt_stdio_output@@AAE_NXZ 10050280 f i libucrtd:output.obj
 0001:0004f330       ?state_case_flag@?$output_processor@DV?$string_output_adapter@D@__crt_stdio_output@@V?$standard_base@DV?$string_output_adapter@D@__crt_stdio_output@@@2@@__crt_stdio_output@@AAE_NXZ 10050330 f i libucrtd:output.obj
 0001:0004f3e0       ?state_case_flag@?$output_processor@_WV?$stream_output_adapter@_W@__crt_stdio_output@@V?$format_validation_base@_WV?$stream_output_adapter@_W@__crt_stdio_output@@@2@@__crt_stdio_output@@AAE_NXZ 100503e0 f i libucrtd:output.obj
 0001:0004f490       ?state_case_flag@?$output_processor@_WV?$stream_output_adapter@_W@__crt_stdio_output@@V?$positional_parameter_base@_WV?$stream_output_adapter@_W@__crt_stdio_output@@@2@@__crt_stdio_output@@AAE_NXZ 10050490 f i libucrtd:output.obj
 0001:0004f540       ?state_case_flag@?$output_processor@_WV?$stream_output_adapter@_W@__crt_stdio_output@@V?$standard_base@_WV?$stream_output_adapter@_W@__crt_stdio_output@@@2@@__crt_stdio_output@@AAE_NXZ 10050540 f i libucrtd:output.obj
 0001:0004f5f0       ?state_case_flag@?$output_processor@_WV?$string_output_adapter@_W@__crt_stdio_output@@V?$format_validation_base@_WV?$string_output_adapter@_W@__crt_stdio_output@@@2@@__crt_stdio_output@@AAE_NXZ 100505f0 f i libucrtd:output.obj
 0001:0004f6a0       ?state_case_flag@?$output_processor@_WV?$string_output_adapter@_W@__crt_stdio_output@@V?$positional_parameter_base@_WV?$string_output_adapter@_W@__crt_stdio_output@@@2@@__crt_stdio_output@@AAE_NXZ 100506a0 f i libucrtd:output.obj
 0001:0004f750       ?state_case_flag@?$output_processor@_WV?$string_output_adapter@_W@__crt_stdio_output@@V?$standard_base@_WV?$string_output_adapter@_W@__crt_stdio_output@@@2@@__crt_stdio_output@@AAE_NXZ 10050750 f i libucrtd:output.obj
 0001:0004f800       ?state_case_normal@?$output_processor@DV?$stream_output_adapter@D@__crt_stdio_output@@V?$format_validation_base@DV?$stream_output_adapter@D@__crt_stdio_output@@@2@@__crt_stdio_output@@AAE_NXZ 10050800 f i libucrtd:output.obj
 0001:0004f8b0       ?state_case_normal@?$output_processor@DV?$stream_output_adapter@D@__crt_stdio_output@@V?$positional_parameter_base@DV?$stream_output_adapter@D@__crt_stdio_output@@@2@@__crt_stdio_output@@AAE_NXZ 100508b0 f i libucrtd:output.obj
 0001:0004f960       ?state_case_normal@?$output_processor@DV?$stream_output_adapter@D@__crt_stdio_output@@V?$standard_base@DV?$stream_output_adapter@D@__crt_stdio_output@@@2@@__crt_stdio_output@@AAE_NXZ 10050960 f i libucrtd:output.obj
 0001:0004fa10       ?state_case_normal@?$output_processor@DV?$string_output_adapter@D@__crt_stdio_output@@V?$format_validation_base@DV?$string_output_adapter@D@__crt_stdio_output@@@2@@__crt_stdio_output@@AAE_NXZ 10050a10 f i libucrtd:output.obj
 0001:0004fac0       ?state_case_normal@?$output_processor@DV?$string_output_adapter@D@__crt_stdio_output@@V?$positional_parameter_base@DV?$string_output_adapter@D@__crt_stdio_output@@@2@@__crt_stdio_output@@AAE_NXZ 10050ac0 f i libucrtd:output.obj
 0001:0004fb70       ?state_case_normal@?$output_processor@DV?$string_output_adapter@D@__crt_stdio_output@@V?$standard_base@DV?$string_output_adapter@D@__crt_stdio_output@@@2@@__crt_stdio_output@@AAE_NXZ 10050b70 f i libucrtd:output.obj
 0001:0004fc20       ?state_case_normal@?$output_processor@_WV?$stream_output_adapter@_W@__crt_stdio_output@@V?$format_validation_base@_WV?$stream_output_adapter@_W@__crt_stdio_output@@@2@@__crt_stdio_output@@AAE_NXZ 10050c20 f i libucrtd:output.obj
 0001:0004fcd0       ?state_case_normal@?$output_processor@_WV?$stream_output_adapter@_W@__crt_stdio_output@@V?$positional_parameter_base@_WV?$stream_output_adapter@_W@__crt_stdio_output@@@2@@__crt_stdio_output@@AAE_NXZ 10050cd0 f i libucrtd:output.obj
 0001:0004fd80       ?state_case_normal@?$output_processor@_WV?$stream_output_adapter@_W@__crt_stdio_output@@V?$standard_base@_WV?$stream_output_adapter@_W@__crt_stdio_output@@@2@@__crt_stdio_output@@AAE_NXZ 10050d80 f i libucrtd:output.obj
 0001:0004fe30       ?state_case_normal@?$output_processor@_WV?$string_output_adapter@_W@__crt_stdio_output@@V?$format_validation_base@_WV?$string_output_adapter@_W@__crt_stdio_output@@@2@@__crt_stdio_output@@AAE_NXZ 10050e30 f i libucrtd:output.obj
 0001:0004fee0       ?state_case_normal@?$output_processor@_WV?$string_output_adapter@_W@__crt_stdio_output@@V?$positional_parameter_base@_WV?$string_output_adapter@_W@__crt_stdio_output@@@2@@__crt_stdio_output@@AAE_NXZ 10050ee0 f i libucrtd:output.obj
 0001:0004ff90       ?state_case_normal@?$output_processor@_WV?$string_output_adapter@_W@__crt_stdio_output@@V?$standard_base@_WV?$string_output_adapter@_W@__crt_stdio_output@@@2@@__crt_stdio_output@@AAE_NXZ 10050f90 f i libucrtd:output.obj
 0001:00050040       ?state_case_normal_common@?$output_processor@DV?$stream_output_adapter@D@__crt_stdio_output@@V?$format_validation_base@DV?$stream_output_adapter@D@__crt_stdio_output@@@2@@__crt_stdio_output@@AAE_NXZ 10051040 f i libucrtd:output.obj
 0001:00050090       ?state_case_normal_common@?$output_processor@DV?$stream_output_adapter@D@__crt_stdio_output@@V?$positional_parameter_base@DV?$stream_output_adapter@D@__crt_stdio_output@@@2@@__crt_stdio_output@@AAE_NXZ 10051090 f i libucrtd:output.obj
 0001:000500e0       ?state_case_normal_common@?$output_processor@DV?$stream_output_adapter@D@__crt_stdio_output@@V?$standard_base@DV?$stream_output_adapter@D@__crt_stdio_output@@@2@@__crt_stdio_output@@AAE_NXZ 100510e0 f i libucrtd:output.obj
 0001:00050130       ?state_case_normal_common@?$output_processor@DV?$string_output_adapter@D@__crt_stdio_output@@V?$format_validation_base@DV?$string_output_adapter@D@__crt_stdio_output@@@2@@__crt_stdio_output@@AAE_NXZ 10051130 f i libucrtd:output.obj
 0001:00050180       ?state_case_normal_common@?$output_processor@DV?$string_output_adapter@D@__crt_stdio_output@@V?$positional_parameter_base@DV?$string_output_adapter@D@__crt_stdio_output@@@2@@__crt_stdio_output@@AAE_NXZ 10051180 f i libucrtd:output.obj
 0001:000501d0       ?state_case_normal_common@?$output_processor@DV?$string_output_adapter@D@__crt_stdio_output@@V?$standard_base@DV?$string_output_adapter@D@__crt_stdio_output@@@2@@__crt_stdio_output@@AAE_NXZ 100511d0 f i libucrtd:output.obj
 0001:00050220       ?state_case_normal_common@?$output_processor@_WV?$stream_output_adapter@_W@__crt_stdio_output@@V?$format_validation_base@_WV?$stream_output_adapter@_W@__crt_stdio_output@@@2@@__crt_stdio_output@@AAE_NXZ 10051220 f i libucrtd:output.obj
 0001:00050270       ?state_case_normal_common@?$output_processor@_WV?$stream_output_adapter@_W@__crt_stdio_output@@V?$positional_parameter_base@_WV?$stream_output_adapter@_W@__crt_stdio_output@@@2@@__crt_stdio_output@@AAE_NXZ 10051270 f i libucrtd:output.obj
 0001:000502c0       ?state_case_normal_common@?$output_processor@_WV?$stream_output_adapter@_W@__crt_stdio_output@@V?$standard_base@_WV?$stream_output_adapter@_W@__crt_stdio_output@@@2@@__crt_stdio_output@@AAE_NXZ 100512c0 f i libucrtd:output.obj
 0001:00050310       ?state_case_normal_common@?$output_processor@_WV?$string_output_adapter@_W@__crt_stdio_output@@V?$format_validation_base@_WV?$string_output_adapter@_W@__crt_stdio_output@@@2@@__crt_stdio_output@@AAE_NXZ 10051310 f i libucrtd:output.obj
 0001:00050360       ?state_case_normal_common@?$output_processor@_WV?$string_output_adapter@_W@__crt_stdio_output@@V?$positional_parameter_base@_WV?$string_output_adapter@_W@__crt_stdio_output@@@2@@__crt_stdio_output@@AAE_NXZ 10051360 f i libucrtd:output.obj
 0001:000503b0       ?state_case_normal_common@?$output_processor@_WV?$string_output_adapter@_W@__crt_stdio_output@@V?$standard_base@_WV?$string_output_adapter@_W@__crt_stdio_output@@@2@@__crt_stdio_output@@AAE_NXZ 100513b0 f i libucrtd:output.obj
 0001:00050400       ?state_case_normal_tchar@?$output_processor@DV?$stream_output_adapter@D@__crt_stdio_output@@V?$format_validation_base@DV?$stream_output_adapter@D@__crt_stdio_output@@@2@@__crt_stdio_output@@AAE_ND@Z 10051400 f i libucrtd:output.obj
 0001:00050500       ?state_case_normal_tchar@?$output_processor@DV?$stream_output_adapter@D@__crt_stdio_output@@V?$positional_parameter_base@DV?$stream_output_adapter@D@__crt_stdio_output@@@2@@__crt_stdio_output@@AAE_ND@Z 10051500 f i libucrtd:output.obj
 0001:00050600       ?state_case_normal_tchar@?$output_processor@DV?$stream_output_adapter@D@__crt_stdio_output@@V?$standard_base@DV?$stream_output_adapter@D@__crt_stdio_output@@@2@@__crt_stdio_output@@AAE_ND@Z 10051600 f i libucrtd:output.obj
 0001:00050700       ?state_case_normal_tchar@?$output_processor@DV?$string_output_adapter@D@__crt_stdio_output@@V?$format_validation_base@DV?$string_output_adapter@D@__crt_stdio_output@@@2@@__crt_stdio_output@@AAE_ND@Z 10051700 f i libucrtd:output.obj
 0001:00050800       ?state_case_normal_tchar@?$output_processor@DV?$string_output_adapter@D@__crt_stdio_output@@V?$positional_parameter_base@DV?$string_output_adapter@D@__crt_stdio_output@@@2@@__crt_stdio_output@@AAE_ND@Z 10051800 f i libucrtd:output.obj
 0001:00050900       ?state_case_normal_tchar@?$output_processor@DV?$string_output_adapter@D@__crt_stdio_output@@V?$standard_base@DV?$string_output_adapter@D@__crt_stdio_output@@@2@@__crt_stdio_output@@AAE_ND@Z 10051900 f i libucrtd:output.obj
 0001:00050a00       ?state_case_normal_tchar@?$output_processor@_WV?$stream_output_adapter@_W@__crt_stdio_output@@V?$format_validation_base@_WV?$stream_output_adapter@_W@__crt_stdio_output@@@2@@__crt_stdio_output@@AAE_N_W@Z 10051a00 f i libucrtd:output.obj
 0001:00050a20       ?state_case_normal_tchar@?$output_processor@_WV?$stream_output_adapter@_W@__crt_stdio_output@@V?$positional_parameter_base@_WV?$stream_output_adapter@_W@__crt_stdio_output@@@2@@__crt_stdio_output@@AAE_N_W@Z 10051a20 f i libucrtd:output.obj
 0001:00050a40       ?state_case_normal_tchar@?$output_processor@_WV?$stream_output_adapter@_W@__crt_stdio_output@@V?$standard_base@_WV?$stream_output_adapter@_W@__crt_stdio_output@@@2@@__crt_stdio_output@@AAE_N_W@Z 10051a40 f i libucrtd:output.obj
 0001:00050a60       ?state_case_normal_tchar@?$output_processor@_WV?$string_output_adapter@_W@__crt_stdio_output@@V?$format_validation_base@_WV?$string_output_adapter@_W@__crt_stdio_output@@@2@@__crt_stdio_output@@AAE_N_W@Z 10051a60 f i libucrtd:output.obj
 0001:00050a80       ?state_case_normal_tchar@?$output_processor@_WV?$string_output_adapter@_W@__crt_stdio_output@@V?$positional_parameter_base@_WV?$string_output_adapter@_W@__crt_stdio_output@@@2@@__crt_stdio_output@@AAE_N_W@Z 10051a80 f i libucrtd:output.obj
 0001:00050aa0       ?state_case_normal_tchar@?$output_processor@_WV?$string_output_adapter@_W@__crt_stdio_output@@V?$standard_base@_WV?$string_output_adapter@_W@__crt_stdio_output@@@2@@__crt_stdio_output@@AAE_N_W@Z 10051aa0 f i libucrtd:output.obj
 0001:00050ac0       ?state_case_percent@?$output_processor@DV?$stream_output_adapter@D@__crt_stdio_output@@V?$format_validation_base@DV?$stream_output_adapter@D@__crt_stdio_output@@@2@@__crt_stdio_output@@AAE_NXZ 10051ac0 f i libucrtd:output.obj
 0001:00050b10       ?state_case_percent@?$output_processor@DV?$stream_output_adapter@D@__crt_stdio_output@@V?$positional_parameter_base@DV?$stream_output_adapter@D@__crt_stdio_output@@@2@@__crt_stdio_output@@AAE_NXZ 10051b10 f i libucrtd:output.obj
 0001:00050b60       ?state_case_percent@?$output_processor@DV?$stream_output_adapter@D@__crt_stdio_output@@V?$standard_base@DV?$stream_output_adapter@D@__crt_stdio_output@@@2@@__crt_stdio_output@@AAE_NXZ 10051b60 f i libucrtd:output.obj
 0001:00050bb0       ?state_case_percent@?$output_processor@DV?$string_output_adapter@D@__crt_stdio_output@@V?$format_validation_base@DV?$string_output_adapter@D@__crt_stdio_output@@@2@@__crt_stdio_output@@AAE_NXZ 10051bb0 f i libucrtd:output.obj
 0001:00050c00       ?state_case_percent@?$output_processor@DV?$string_output_adapter@D@__crt_stdio_output@@V?$positional_parameter_base@DV?$string_output_adapter@D@__crt_stdio_output@@@2@@__crt_stdio_output@@AAE_NXZ 10051c00 f i libucrtd:output.obj
 0001:00050c50       ?state_case_percent@?$output_processor@DV?$string_output_adapter@D@__crt_stdio_output@@V?$standard_base@DV?$string_output_adapter@D@__crt_stdio_output@@@2@@__crt_stdio_output@@AAE_NXZ 10051c50 f i libucrtd:output.obj
 0001:00050ca0       ?state_case_percent@?$output_processor@_WV?$stream_output_adapter@_W@__crt_stdio_output@@V?$format_validation_base@_WV?$stream_output_adapter@_W@__crt_stdio_output@@@2@@__crt_stdio_output@@AAE_NXZ 10051ca0 f i libucrtd:output.obj
 0001:00050cf0       ?state_case_percent@?$output_processor@_WV?$stream_output_adapter@_W@__crt_stdio_output@@V?$positional_parameter_base@_WV?$stream_output_adapter@_W@__crt_stdio_output@@@2@@__crt_stdio_output@@AAE_NXZ 10051cf0 f i libucrtd:output.obj
 0001:00050d40       ?state_case_percent@?$output_processor@_WV?$stream_output_adapter@_W@__crt_stdio_output@@V?$standard_base@_WV?$stream_output_adapter@_W@__crt_stdio_output@@@2@@__crt_stdio_output@@AAE_NXZ 10051d40 f i libucrtd:output.obj
 0001:00050d90       ?state_case_percent@?$output_processor@_WV?$string_output_adapter@_W@__crt_stdio_output@@V?$format_validation_base@_WV?$string_output_adapter@_W@__crt_stdio_output@@@2@@__crt_stdio_output@@AAE_NXZ 10051d90 f i libucrtd:output.obj
 0001:00050de0       ?state_case_percent@?$output_processor@_WV?$string_output_adapter@_W@__crt_stdio_output@@V?$positional_parameter_base@_WV?$string_output_adapter@_W@__crt_stdio_output@@@2@@__crt_stdio_output@@AAE_NXZ 10051de0 f i libucrtd:output.obj
 0001:00050e30       ?state_case_percent@?$output_processor@_WV?$string_output_adapter@_W@__crt_stdio_output@@V?$standard_base@_WV?$string_output_adapter@_W@__crt_stdio_output@@@2@@__crt_stdio_output@@AAE_NXZ 10051e30 f i libucrtd:output.obj
 0001:00050e80       ?state_case_precision@?$output_processor@DV?$stream_output_adapter@D@__crt_stdio_output@@V?$format_validation_base@DV?$stream_output_adapter@D@__crt_stdio_output@@@2@@__crt_stdio_output@@AAE_NXZ 10051e80 f i libucrtd:output.obj
 0001:00050ef0       ?state_case_precision@?$output_processor@DV?$stream_output_adapter@D@__crt_stdio_output@@V?$positional_parameter_base@DV?$stream_output_adapter@D@__crt_stdio_output@@@2@@__crt_stdio_output@@AAE_NXZ 10051ef0 f i libucrtd:output.obj
 0001:00050f60       ?state_case_precision@?$output_processor@DV?$stream_output_adapter@D@__crt_stdio_output@@V?$standard_base@DV?$stream_output_adapter@D@__crt_stdio_output@@@2@@__crt_stdio_output@@AAE_NXZ 10051f60 f i libucrtd:output.obj
 0001:00050fd0       ?state_case_precision@?$output_processor@DV?$string_output_adapter@D@__crt_stdio_output@@V?$format_validation_base@DV?$string_output_adapter@D@__crt_stdio_output@@@2@@__crt_stdio_output@@AAE_NXZ 10051fd0 f i libucrtd:output.obj
 0001:00051040       ?state_case_precision@?$output_processor@DV?$string_output_adapter@D@__crt_stdio_output@@V?$positional_parameter_base@DV?$string_output_adapter@D@__crt_stdio_output@@@2@@__crt_stdio_output@@AAE_NXZ 10052040 f i libucrtd:output.obj
 0001:000510b0       ?state_case_precision@?$output_processor@DV?$string_output_adapter@D@__crt_stdio_output@@V?$standard_base@DV?$string_output_adapter@D@__crt_stdio_output@@@2@@__crt_stdio_output@@AAE_NXZ 100520b0 f i libucrtd:output.obj
 0001:00051120       ?state_case_precision@?$output_processor@_WV?$stream_output_adapter@_W@__crt_stdio_output@@V?$format_validation_base@_WV?$stream_output_adapter@_W@__crt_stdio_output@@@2@@__crt_stdio_output@@AAE_NXZ 10052120 f i libucrtd:output.obj
 0001:00051190       ?state_case_precision@?$output_processor@_WV?$stream_output_adapter@_W@__crt_stdio_output@@V?$positional_parameter_base@_WV?$stream_output_adapter@_W@__crt_stdio_output@@@2@@__crt_stdio_output@@AAE_NXZ 10052190 f i libucrtd:output.obj
 0001:00051200       ?state_case_precision@?$output_processor@_WV?$stream_output_adapter@_W@__crt_stdio_output@@V?$standard_base@_WV?$stream_output_adapter@_W@__crt_stdio_output@@@2@@__crt_stdio_output@@AAE_NXZ 10052200 f i libucrtd:output.obj
 0001:00051270       ?state_case_precision@?$output_processor@_WV?$string_output_adapter@_W@__crt_stdio_output@@V?$format_validation_base@_WV?$string_output_adapter@_W@__crt_stdio_output@@@2@@__crt_stdio_output@@AAE_NXZ 10052270 f i libucrtd:output.obj
 0001:000512e0       ?state_case_precision@?$output_processor@_WV?$string_output_adapter@_W@__crt_stdio_output@@V?$positional_parameter_base@_WV?$string_output_adapter@_W@__crt_stdio_output@@@2@@__crt_stdio_output@@AAE_NXZ 100522e0 f i libucrtd:output.obj
 0001:00051350       ?state_case_precision@?$output_processor@_WV?$string_output_adapter@_W@__crt_stdio_output@@V?$standard_base@_WV?$string_output_adapter@_W@__crt_stdio_output@@@2@@__crt_stdio_output@@AAE_NXZ 10052350 f i libucrtd:output.obj
 0001:000513c0       ?state_case_size@?$output_processor@DV?$stream_output_adapter@D@__crt_stdio_output@@V?$format_validation_base@DV?$stream_output_adapter@D@__crt_stdio_output@@@2@@__crt_stdio_output@@AAE_NXZ 100523c0 f i libucrtd:output.obj
 0001:00051790       ?state_case_size@?$output_processor@DV?$stream_output_adapter@D@__crt_stdio_output@@V?$positional_parameter_base@DV?$stream_output_adapter@D@__crt_stdio_output@@@2@@__crt_stdio_output@@AAE_NXZ 10052790 f i libucrtd:output.obj
 0001:00051b60       ?state_case_size@?$output_processor@DV?$stream_output_adapter@D@__crt_stdio_output@@V?$standard_base@DV?$stream_output_adapter@D@__crt_stdio_output@@@2@@__crt_stdio_output@@AAE_NXZ 10052b60 f i libucrtd:output.obj
 0001:00051f30       ?state_case_size@?$output_processor@DV?$string_output_adapter@D@__crt_stdio_output@@V?$format_validation_base@DV?$string_output_adapter@D@__crt_stdio_output@@@2@@__crt_stdio_output@@AAE_NXZ 10052f30 f i libucrtd:output.obj
 0001:00052300       ?state_case_size@?$output_processor@DV?$string_output_adapter@D@__crt_stdio_output@@V?$positional_parameter_base@DV?$string_output_adapter@D@__crt_stdio_output@@@2@@__crt_stdio_output@@AAE_NXZ 10053300 f i libucrtd:output.obj
 0001:000526d0       ?state_case_size@?$output_processor@DV?$string_output_adapter@D@__crt_stdio_output@@V?$standard_base@DV?$string_output_adapter@D@__crt_stdio_output@@@2@@__crt_stdio_output@@AAE_NXZ 100536d0 f i libucrtd:output.obj
 0001:00052aa0       ?state_case_size@?$output_processor@_WV?$stream_output_adapter@_W@__crt_stdio_output@@V?$format_validation_base@_WV?$stream_output_adapter@_W@__crt_stdio_output@@@2@@__crt_stdio_output@@AAE_NXZ 10053aa0 f i libucrtd:output.obj
 0001:00052e70       ?state_case_size@?$output_processor@_WV?$stream_output_adapter@_W@__crt_stdio_output@@V?$positional_parameter_base@_WV?$stream_output_adapter@_W@__crt_stdio_output@@@2@@__crt_stdio_output@@AAE_NXZ 10053e70 f i libucrtd:output.obj
 0001:00053240       ?state_case_size@?$output_processor@_WV?$stream_output_adapter@_W@__crt_stdio_output@@V?$standard_base@_WV?$stream_output_adapter@_W@__crt_stdio_output@@@2@@__crt_stdio_output@@AAE_NXZ 10054240 f i libucrtd:output.obj
 0001:00053610       ?state_case_size@?$output_processor@_WV?$string_output_adapter@_W@__crt_stdio_output@@V?$format_validation_base@_WV?$string_output_adapter@_W@__crt_stdio_output@@@2@@__crt_stdio_output@@AAE_NXZ 10054610 f i libucrtd:output.obj
 0001:000539e0       ?state_case_size@?$output_processor@_WV?$string_output_adapter@_W@__crt_stdio_output@@V?$positional_parameter_base@_WV?$string_output_adapter@_W@__crt_stdio_output@@@2@@__crt_stdio_output@@AAE_NXZ 100549e0 f i libucrtd:output.obj
 0001:00053db0       ?state_case_size@?$output_processor@_WV?$string_output_adapter@_W@__crt_stdio_output@@V?$standard_base@_WV?$string_output_adapter@_W@__crt_stdio_output@@@2@@__crt_stdio_output@@AAE_NXZ 10054db0 f i libucrtd:output.obj
 0001:00054180       ?state_case_type@?$output_processor@DV?$stream_output_adapter@D@__crt_stdio_output@@V?$format_validation_base@DV?$stream_output_adapter@D@__crt_stdio_output@@@2@@__crt_stdio_output@@AAE_NXZ 10055180 f i libucrtd:output.obj
 0001:00054530       ?state_case_type@?$output_processor@DV?$stream_output_adapter@D@__crt_stdio_output@@V?$positional_parameter_base@DV?$stream_output_adapter@D@__crt_stdio_output@@@2@@__crt_stdio_output@@AAE_NXZ 10055530 f i libucrtd:output.obj
 0001:000548e0       ?state_case_type@?$output_processor@DV?$stream_output_adapter@D@__crt_stdio_output@@V?$standard_base@DV?$stream_output_adapter@D@__crt_stdio_output@@@2@@__crt_stdio_output@@AAE_NXZ 100558e0 f i libucrtd:output.obj
 0001:00054c90       ?state_case_type@?$output_processor@DV?$string_output_adapter@D@__crt_stdio_output@@V?$format_validation_base@DV?$string_output_adapter@D@__crt_stdio_output@@@2@@__crt_stdio_output@@AAE_NXZ 10055c90 f i libucrtd:output.obj
 0001:00055040       ?state_case_type@?$output_processor@DV?$string_output_adapter@D@__crt_stdio_output@@V?$positional_parameter_base@DV?$string_output_adapter@D@__crt_stdio_output@@@2@@__crt_stdio_output@@AAE_NXZ 10056040 f i libucrtd:output.obj
 0001:000553f0       ?state_case_type@?$output_processor@DV?$string_output_adapter@D@__crt_stdio_output@@V?$standard_base@DV?$string_output_adapter@D@__crt_stdio_output@@@2@@__crt_stdio_output@@AAE_NXZ 100563f0 f i libucrtd:output.obj
 0001:000557a0       ?state_case_type@?$output_processor@_WV?$stream_output_adapter@_W@__crt_stdio_output@@V?$format_validation_base@_WV?$stream_output_adapter@_W@__crt_stdio_output@@@2@@__crt_stdio_output@@AAE_NXZ 100567a0 f i libucrtd:output.obj
 0001:00055b80       ?state_case_type@?$output_processor@_WV?$stream_output_adapter@_W@__crt_stdio_output@@V?$positional_parameter_base@_WV?$stream_output_adapter@_W@__crt_stdio_output@@@2@@__crt_stdio_output@@AAE_NXZ 10056b80 f i libucrtd:output.obj
 0001:00055f60       ?state_case_type@?$output_processor@_WV?$stream_output_adapter@_W@__crt_stdio_output@@V?$standard_base@_WV?$stream_output_adapter@_W@__crt_stdio_output@@@2@@__crt_stdio_output@@AAE_NXZ 10056f60 f i libucrtd:output.obj
 0001:00056340       ?state_case_type@?$output_processor@_WV?$string_output_adapter@_W@__crt_stdio_output@@V?$format_validation_base@_WV?$string_output_adapter@_W@__crt_stdio_output@@@2@@__crt_stdio_output@@AAE_NXZ 10057340 f i libucrtd:output.obj
 0001:00056720       ?state_case_type@?$output_processor@_WV?$string_output_adapter@_W@__crt_stdio_output@@V?$positional_parameter_base@_WV?$string_output_adapter@_W@__crt_stdio_output@@@2@@__crt_stdio_output@@AAE_NXZ 10057720 f i libucrtd:output.obj
 0001:00056b00       ?state_case_type@?$output_processor@_WV?$string_output_adapter@_W@__crt_stdio_output@@V?$standard_base@_WV?$string_output_adapter@_W@__crt_stdio_output@@@2@@__crt_stdio_output@@AAE_NXZ 10057b00 f i libucrtd:output.obj
 0001:00056ee0       ?state_case_width@?$output_processor@DV?$stream_output_adapter@D@__crt_stdio_output@@V?$format_validation_base@DV?$stream_output_adapter@D@__crt_stdio_output@@@2@@__crt_stdio_output@@AAE_NXZ 10057ee0 f i libucrtd:output.obj
 0001:00056f60       ?state_case_width@?$output_processor@DV?$stream_output_adapter@D@__crt_stdio_output@@V?$positional_parameter_base@DV?$stream_output_adapter@D@__crt_stdio_output@@@2@@__crt_stdio_output@@AAE_NXZ 10057f60 f i libucrtd:output.obj
 0001:00056fe0       ?state_case_width@?$output_processor@DV?$stream_output_adapter@D@__crt_stdio_output@@V?$standard_base@DV?$stream_output_adapter@D@__crt_stdio_output@@@2@@__crt_stdio_output@@AAE_NXZ 10057fe0 f i libucrtd:output.obj
 0001:00057060       ?state_case_width@?$output_processor@DV?$string_output_adapter@D@__crt_stdio_output@@V?$format_validation_base@DV?$string_output_adapter@D@__crt_stdio_output@@@2@@__crt_stdio_output@@AAE_NXZ 10058060 f i libucrtd:output.obj
 0001:000570e0       ?state_case_width@?$output_processor@DV?$string_output_adapter@D@__crt_stdio_output@@V?$positional_parameter_base@DV?$string_output_adapter@D@__crt_stdio_output@@@2@@__crt_stdio_output@@AAE_NXZ 100580e0 f i libucrtd:output.obj
 0001:00057160       ?state_case_width@?$output_processor@DV?$string_output_adapter@D@__crt_stdio_output@@V?$standard_base@DV?$string_output_adapter@D@__crt_stdio_output@@@2@@__crt_stdio_output@@AAE_NXZ 10058160 f i libucrtd:output.obj
 0001:000571e0       ?state_case_width@?$output_processor@_WV?$stream_output_adapter@_W@__crt_stdio_output@@V?$format_validation_base@_WV?$stream_output_adapter@_W@__crt_stdio_output@@@2@@__crt_stdio_output@@AAE_NXZ 100581e0 f i libucrtd:output.obj
 0001:00057260       ?state_case_width@?$output_processor@_WV?$stream_output_adapter@_W@__crt_stdio_output@@V?$positional_parameter_base@_WV?$stream_output_adapter@_W@__crt_stdio_output@@@2@@__crt_stdio_output@@AAE_NXZ 10058260 f i libucrtd:output.obj
 0001:000572e0       ?state_case_width@?$output_processor@_WV?$stream_output_adapter@_W@__crt_stdio_output@@V?$standard_base@_WV?$stream_output_adapter@_W@__crt_stdio_output@@@2@@__crt_stdio_output@@AAE_NXZ 100582e0 f i libucrtd:output.obj
 0001:00057360       ?state_case_width@?$output_processor@_WV?$string_output_adapter@_W@__crt_stdio_output@@V?$format_validation_base@_WV?$string_output_adapter@_W@__crt_stdio_output@@@2@@__crt_stdio_output@@AAE_NXZ 10058360 f i libucrtd:output.obj
 0001:000573e0       ?state_case_width@?$output_processor@_WV?$string_output_adapter@_W@__crt_stdio_output@@V?$positional_parameter_base@_WV?$string_output_adapter@_W@__crt_stdio_output@@@2@@__crt_stdio_output@@AAE_NXZ 100583e0 f i libucrtd:output.obj
 0001:00057460       ?state_case_width@?$output_processor@_WV?$string_output_adapter@_W@__crt_stdio_output@@V?$standard_base@_WV?$string_output_adapter@_W@__crt_stdio_output@@@2@@__crt_stdio_output@@AAE_NXZ 10058460 f i libucrtd:output.obj
 0001:000574e0       ?state_count@?$format_validation_base@DV?$stream_output_adapter@D@__crt_stdio_output@@@__crt_stdio_output@@KAIXZ 100584e0 f i libucrtd:output.obj
 0001:000574f0       ?state_count@?$format_validation_base@DV?$string_output_adapter@D@__crt_stdio_output@@@__crt_stdio_output@@KAIXZ 100584f0 f i libucrtd:output.obj
 0001:00057500       ?state_count@?$format_validation_base@_WV?$stream_output_adapter@_W@__crt_stdio_output@@@__crt_stdio_output@@KAIXZ 10058500 f i libucrtd:output.obj
 0001:00057510       ?state_count@?$format_validation_base@_WV?$string_output_adapter@_W@__crt_stdio_output@@@__crt_stdio_output@@KAIXZ 10058510 f i libucrtd:output.obj
 0001:00057520       ?state_count@?$standard_base@DV?$stream_output_adapter@D@__crt_stdio_output@@@__crt_stdio_output@@KAIXZ 10058520 f i libucrtd:output.obj
 0001:00057530       ?state_count@?$standard_base@DV?$string_output_adapter@D@__crt_stdio_output@@@__crt_stdio_output@@KAIXZ 10058530 f i libucrtd:output.obj
 0001:00057540       ?state_count@?$standard_base@_WV?$stream_output_adapter@_W@__crt_stdio_output@@@__crt_stdio_output@@KAIXZ 10058540 f i libucrtd:output.obj
 0001:00057550       ?state_count@?$standard_base@_WV?$string_output_adapter@_W@__crt_stdio_output@@@__crt_stdio_output@@KAIXZ 10058550 f i libucrtd:output.obj
 0001:00057560       ?state_transition_table@?$format_validation_base@DV?$stream_output_adapter@D@__crt_stdio_output@@@__crt_stdio_output@@KAPBEXZ 10058560 f i libucrtd:output.obj
 0001:00057570       ?state_transition_table@?$format_validation_base@DV?$string_output_adapter@D@__crt_stdio_output@@@__crt_stdio_output@@KAPBEXZ 10058570 f i libucrtd:output.obj
 0001:00057580       ?state_transition_table@?$format_validation_base@_WV?$stream_output_adapter@_W@__crt_stdio_output@@@__crt_stdio_output@@KAPBEXZ 10058580 f i libucrtd:output.obj
 0001:00057590       ?state_transition_table@?$format_validation_base@_WV?$string_output_adapter@_W@__crt_stdio_output@@@__crt_stdio_output@@KAPBEXZ 10058590 f i libucrtd:output.obj
 0001:000575a0       ?state_transition_table@?$standard_base@DV?$stream_output_adapter@D@__crt_stdio_output@@@__crt_stdio_output@@KAPBEXZ 100585a0 f i libucrtd:output.obj
 0001:000575b0       ?state_transition_table@?$standard_base@DV?$string_output_adapter@D@__crt_stdio_output@@@__crt_stdio_output@@KAPBEXZ 100585b0 f i libucrtd:output.obj
 0001:000575c0       ?state_transition_table@?$standard_base@_WV?$stream_output_adapter@_W@__crt_stdio_output@@@__crt_stdio_output@@KAPBEXZ 100585c0 f i libucrtd:output.obj
 0001:000575d0       ?state_transition_table@?$standard_base@_WV?$string_output_adapter@_W@__crt_stdio_output@@@__crt_stdio_output@@KAPBEXZ 100585d0 f i libucrtd:output.obj
 0001:000575e0       ?to_integer_size@__crt_stdio_output@@YAIW4length_modifier@1@@Z 100585e0 f i libucrtd:output.obj
 0001:00057680       ?type_case_X@?$output_processor@DV?$stream_output_adapter@D@__crt_stdio_output@@V?$format_validation_base@DV?$stream_output_adapter@D@__crt_stdio_output@@@2@@__crt_stdio_output@@AAE_NXZ 10058680 f i libucrtd:output.obj
 0001:000576a0       ?type_case_X@?$output_processor@DV?$stream_output_adapter@D@__crt_stdio_output@@V?$positional_parameter_base@DV?$stream_output_adapter@D@__crt_stdio_output@@@2@@__crt_stdio_output@@AAE_NXZ 100586a0 f i libucrtd:output.obj
 0001:000576c0       ?type_case_X@?$output_processor@DV?$stream_output_adapter@D@__crt_stdio_output@@V?$standard_base@DV?$stream_output_adapter@D@__crt_stdio_output@@@2@@__crt_stdio_output@@AAE_NXZ 100586c0 f i libucrtd:output.obj
 0001:000576e0       ?type_case_X@?$output_processor@DV?$string_output_adapter@D@__crt_stdio_output@@V?$format_validation_base@DV?$string_output_adapter@D@__crt_stdio_output@@@2@@__crt_stdio_output@@AAE_NXZ 100586e0 f i libucrtd:output.obj
 0001:00057700       ?type_case_X@?$output_processor@DV?$string_output_adapter@D@__crt_stdio_output@@V?$positional_parameter_base@DV?$string_output_adapter@D@__crt_stdio_output@@@2@@__crt_stdio_output@@AAE_NXZ 10058700 f i libucrtd:output.obj
 0001:00057720       ?type_case_X@?$output_processor@DV?$string_output_adapter@D@__crt_stdio_output@@V?$standard_base@DV?$string_output_adapter@D@__crt_stdio_output@@@2@@__crt_stdio_output@@AAE_NXZ 10058720 f i libucrtd:output.obj
 0001:00057740       ?type_case_X@?$output_processor@_WV?$stream_output_adapter@_W@__crt_stdio_output@@V?$format_validation_base@_WV?$stream_output_adapter@_W@__crt_stdio_output@@@2@@__crt_stdio_output@@AAE_NXZ 10058740 f i libucrtd:output.obj
 0001:00057760       ?type_case_X@?$output_processor@_WV?$stream_output_adapter@_W@__crt_stdio_output@@V?$positional_parameter_base@_WV?$stream_output_adapter@_W@__crt_stdio_output@@@2@@__crt_stdio_output@@AAE_NXZ 10058760 f i libucrtd:output.obj
 0001:00057780       ?type_case_X@?$output_processor@_WV?$stream_output_adapter@_W@__crt_stdio_output@@V?$standard_base@_WV?$stream_output_adapter@_W@__crt_stdio_output@@@2@@__crt_stdio_output@@AAE_NXZ 10058780 f i libucrtd:output.obj
 0001:000577a0       ?type_case_X@?$output_processor@_WV?$string_output_adapter@_W@__crt_stdio_output@@V?$format_validation_base@_WV?$string_output_adapter@_W@__crt_stdio_output@@@2@@__crt_stdio_output@@AAE_NXZ 100587a0 f i libucrtd:output.obj
 0001:000577c0       ?type_case_X@?$output_processor@_WV?$string_output_adapter@_W@__crt_stdio_output@@V?$positional_parameter_base@_WV?$string_output_adapter@_W@__crt_stdio_output@@@2@@__crt_stdio_output@@AAE_NXZ 100587c0 f i libucrtd:output.obj
 0001:000577e0       ?type_case_X@?$output_processor@_WV?$string_output_adapter@_W@__crt_stdio_output@@V?$standard_base@_WV?$string_output_adapter@_W@__crt_stdio_output@@@2@@__crt_stdio_output@@AAE_NXZ 100587e0 f i libucrtd:output.obj
 0001:00057800       ?type_case_Z@?$output_processor@DV?$stream_output_adapter@D@__crt_stdio_output@@V?$format_validation_base@DV?$stream_output_adapter@D@__crt_stdio_output@@@2@@__crt_stdio_output@@AAE_NXZ 10058800 f i libucrtd:output.obj
 0001:000578f0       ?type_case_Z@?$output_processor@DV?$stream_output_adapter@D@__crt_stdio_output@@V?$positional_parameter_base@DV?$stream_output_adapter@D@__crt_stdio_output@@@2@@__crt_stdio_output@@AAE_NXZ 100588f0 f i libucrtd:output.obj
 0001:000579e0       ?type_case_Z@?$output_processor@DV?$stream_output_adapter@D@__crt_stdio_output@@V?$standard_base@DV?$stream_output_adapter@D@__crt_stdio_output@@@2@@__crt_stdio_output@@AAE_NXZ 100589e0 f i libucrtd:output.obj
 0001:00057ad0       ?type_case_Z@?$output_processor@DV?$string_output_adapter@D@__crt_stdio_output@@V?$format_validation_base@DV?$string_output_adapter@D@__crt_stdio_output@@@2@@__crt_stdio_output@@AAE_NXZ 10058ad0 f i libucrtd:output.obj
 0001:00057bc0       ?type_case_Z@?$output_processor@DV?$string_output_adapter@D@__crt_stdio_output@@V?$positional_parameter_base@DV?$string_output_adapter@D@__crt_stdio_output@@@2@@__crt_stdio_output@@AAE_NXZ 10058bc0 f i libucrtd:output.obj
 0001:00057cb0       ?type_case_Z@?$output_processor@DV?$string_output_adapter@D@__crt_stdio_output@@V?$standard_base@DV?$string_output_adapter@D@__crt_stdio_output@@@2@@__crt_stdio_output@@AAE_NXZ 10058cb0 f i libucrtd:output.obj
 0001:00057da0       ?type_case_Z@?$output_processor@_WV?$stream_output_adapter@_W@__crt_stdio_output@@V?$format_validation_base@_WV?$stream_output_adapter@_W@__crt_stdio_output@@@2@@__crt_stdio_output@@AAE_NXZ 10058da0 f i libucrtd:output.obj
 0001:00057e90       ?type_case_Z@?$output_processor@_WV?$stream_output_adapter@_W@__crt_stdio_output@@V?$positional_parameter_base@_WV?$stream_output_adapter@_W@__crt_stdio_output@@@2@@__crt_stdio_output@@AAE_NXZ 10058e90 f i libucrtd:output.obj
 0001:00057f80       ?type_case_Z@?$output_processor@_WV?$stream_output_adapter@_W@__crt_stdio_output@@V?$standard_base@_WV?$stream_output_adapter@_W@__crt_stdio_output@@@2@@__crt_stdio_output@@AAE_NXZ 10058f80 f i libucrtd:output.obj
 0001:00058070       ?type_case_Z@?$output_processor@_WV?$string_output_adapter@_W@__crt_stdio_output@@V?$format_validation_base@_WV?$string_output_adapter@_W@__crt_stdio_output@@@2@@__crt_stdio_output@@AAE_NXZ 10059070 f i libucrtd:output.obj
 0001:00058160       ?type_case_Z@?$output_processor@_WV?$string_output_adapter@_W@__crt_stdio_output@@V?$positional_parameter_base@_WV?$string_output_adapter@_W@__crt_stdio_output@@@2@@__crt_stdio_output@@AAE_NXZ 10059160 f i libucrtd:output.obj
 0001:00058250       ?type_case_Z@?$output_processor@_WV?$string_output_adapter@_W@__crt_stdio_output@@V?$standard_base@_WV?$string_output_adapter@_W@__crt_stdio_output@@@2@@__crt_stdio_output@@AAE_NXZ 10059250 f i libucrtd:output.obj
 0001:00058340       ?type_case_a@?$output_processor@DV?$stream_output_adapter@D@__crt_stdio_output@@V?$format_validation_base@DV?$stream_output_adapter@D@__crt_stdio_output@@@2@@__crt_stdio_output@@AAE_NXZ 10059340 f i libucrtd:output.obj
 0001:000585a0       ?type_case_a@?$output_processor@DV?$stream_output_adapter@D@__crt_stdio_output@@V?$positional_parameter_base@DV?$stream_output_adapter@D@__crt_stdio_output@@@2@@__crt_stdio_output@@AAE_NXZ 100595a0 f i libucrtd:output.obj
 0001:00058800       ?type_case_a@?$output_processor@DV?$stream_output_adapter@D@__crt_stdio_output@@V?$standard_base@DV?$stream_output_adapter@D@__crt_stdio_output@@@2@@__crt_stdio_output@@AAE_NXZ 10059800 f i libucrtd:output.obj
 0001:00058a60       ?type_case_a@?$output_processor@DV?$string_output_adapter@D@__crt_stdio_output@@V?$format_validation_base@DV?$string_output_adapter@D@__crt_stdio_output@@@2@@__crt_stdio_output@@AAE_NXZ 10059a60 f i libucrtd:output.obj
 0001:00058cc0       ?type_case_a@?$output_processor@DV?$string_output_adapter@D@__crt_stdio_output@@V?$positional_parameter_base@DV?$string_output_adapter@D@__crt_stdio_output@@@2@@__crt_stdio_output@@AAE_NXZ 10059cc0 f i libucrtd:output.obj
 0001:00058f20       ?type_case_a@?$output_processor@DV?$string_output_adapter@D@__crt_stdio_output@@V?$standard_base@DV?$string_output_adapter@D@__crt_stdio_output@@@2@@__crt_stdio_output@@AAE_NXZ 10059f20 f i libucrtd:output.obj
 0001:00059180       ?type_case_a@?$output_processor@_WV?$stream_output_adapter@_W@__crt_stdio_output@@V?$format_validation_base@_WV?$stream_output_adapter@_W@__crt_stdio_output@@@2@@__crt_stdio_output@@AAE_NXZ 1005a180 f i libucrtd:output.obj
 0001:000593e0       ?type_case_a@?$output_processor@_WV?$stream_output_adapter@_W@__crt_stdio_output@@V?$positional_parameter_base@_WV?$stream_output_adapter@_W@__crt_stdio_output@@@2@@__crt_stdio_output@@AAE_NXZ 1005a3e0 f i libucrtd:output.obj
 0001:00059640       ?type_case_a@?$output_processor@_WV?$stream_output_adapter@_W@__crt_stdio_output@@V?$standard_base@_WV?$stream_output_adapter@_W@__crt_stdio_output@@@2@@__crt_stdio_output@@AAE_NXZ 1005a640 f i libucrtd:output.obj
 0001:000598a0       ?type_case_a@?$output_processor@_WV?$string_output_adapter@_W@__crt_stdio_output@@V?$format_validation_base@_WV?$string_output_adapter@_W@__crt_stdio_output@@@2@@__crt_stdio_output@@AAE_NXZ 1005a8a0 f i libucrtd:output.obj
 0001:00059b00       ?type_case_a@?$output_processor@_WV?$string_output_adapter@_W@__crt_stdio_output@@V?$positional_parameter_base@_WV?$string_output_adapter@_W@__crt_stdio_output@@@2@@__crt_stdio_output@@AAE_NXZ 1005ab00 f i libucrtd:output.obj
 0001:00059d60       ?type_case_a@?$output_processor@_WV?$string_output_adapter@_W@__crt_stdio_output@@V?$standard_base@_WV?$string_output_adapter@_W@__crt_stdio_output@@@2@@__crt_stdio_output@@AAE_NXZ 1005ad60 f i libucrtd:output.obj
 0001:00059fc0       ?type_case_c@?$output_processor@DV?$stream_output_adapter@D@__crt_stdio_output@@V?$format_validation_base@DV?$stream_output_adapter@D@__crt_stdio_output@@@2@@__crt_stdio_output@@AAE_NXZ 1005afc0 f i libucrtd:output.obj
 0001:00059fe0       ?type_case_c@?$output_processor@DV?$stream_output_adapter@D@__crt_stdio_output@@V?$positional_parameter_base@DV?$stream_output_adapter@D@__crt_stdio_output@@@2@@__crt_stdio_output@@AAE_NXZ 1005afe0 f i libucrtd:output.obj
 0001:0005a000       ?type_case_c@?$output_processor@DV?$stream_output_adapter@D@__crt_stdio_output@@V?$standard_base@DV?$stream_output_adapter@D@__crt_stdio_output@@@2@@__crt_stdio_output@@AAE_NXZ 1005b000 f i libucrtd:output.obj
 0001:0005a020       ?type_case_c@?$output_processor@DV?$string_output_adapter@D@__crt_stdio_output@@V?$format_validation_base@DV?$string_output_adapter@D@__crt_stdio_output@@@2@@__crt_stdio_output@@AAE_NXZ 1005b020 f i libucrtd:output.obj
 0001:0005a040       ?type_case_c@?$output_processor@DV?$string_output_adapter@D@__crt_stdio_output@@V?$positional_parameter_base@DV?$string_output_adapter@D@__crt_stdio_output@@@2@@__crt_stdio_output@@AAE_NXZ 1005b040 f i libucrtd:output.obj
 0001:0005a060       ?type_case_c@?$output_processor@DV?$string_output_adapter@D@__crt_stdio_output@@V?$standard_base@DV?$string_output_adapter@D@__crt_stdio_output@@@2@@__crt_stdio_output@@AAE_NXZ 1005b060 f i libucrtd:output.obj
 0001:0005a080       ?type_case_c@?$output_processor@_WV?$stream_output_adapter@_W@__crt_stdio_output@@V?$format_validation_base@_WV?$stream_output_adapter@_W@__crt_stdio_output@@@2@@__crt_stdio_output@@AAE_NXZ 1005b080 f i libucrtd:output.obj
 0001:0005a0a0       ?type_case_c@?$output_processor@_WV?$stream_output_adapter@_W@__crt_stdio_output@@V?$positional_parameter_base@_WV?$stream_output_adapter@_W@__crt_stdio_output@@@2@@__crt_stdio_output@@AAE_NXZ 1005b0a0 f i libucrtd:output.obj
 0001:0005a0c0       ?type_case_c@?$output_processor@_WV?$stream_output_adapter@_W@__crt_stdio_output@@V?$standard_base@_WV?$stream_output_adapter@_W@__crt_stdio_output@@@2@@__crt_stdio_output@@AAE_NXZ 1005b0c0 f i libucrtd:output.obj
 0001:0005a0e0       ?type_case_c@?$output_processor@_WV?$string_output_adapter@_W@__crt_stdio_output@@V?$format_validation_base@_WV?$string_output_adapter@_W@__crt_stdio_output@@@2@@__crt_stdio_output@@AAE_NXZ 1005b0e0 f i libucrtd:output.obj
 0001:0005a100       ?type_case_c@?$output_processor@_WV?$string_output_adapter@_W@__crt_stdio_output@@V?$positional_parameter_base@_WV?$string_output_adapter@_W@__crt_stdio_output@@@2@@__crt_stdio_output@@AAE_NXZ 1005b100 f i libucrtd:output.obj
 0001:0005a120       ?type_case_c@?$output_processor@_WV?$string_output_adapter@_W@__crt_stdio_output@@V?$standard_base@_WV?$string_output_adapter@_W@__crt_stdio_output@@@2@@__crt_stdio_output@@AAE_NXZ 1005b120 f i libucrtd:output.obj
 0001:0005a140       ?type_case_c_tchar@?$output_processor@DV?$stream_output_adapter@D@__crt_stdio_output@@V?$format_validation_base@DV?$stream_output_adapter@D@__crt_stdio_output@@@2@@__crt_stdio_output@@AAE_ND@Z 1005b140 f i libucrtd:output.obj
 0001:0005a250       ?type_case_c_tchar@?$output_processor@DV?$stream_output_adapter@D@__crt_stdio_output@@V?$positional_parameter_base@DV?$stream_output_adapter@D@__crt_stdio_output@@@2@@__crt_stdio_output@@AAE_ND@Z 1005b250 f i libucrtd:output.obj
 0001:0005a360       ?type_case_c_tchar@?$output_processor@DV?$stream_output_adapter@D@__crt_stdio_output@@V?$standard_base@DV?$stream_output_adapter@D@__crt_stdio_output@@@2@@__crt_stdio_output@@AAE_ND@Z 1005b360 f i libucrtd:output.obj
 0001:0005a470       ?type_case_c_tchar@?$output_processor@DV?$string_output_adapter@D@__crt_stdio_output@@V?$format_validation_base@DV?$string_output_adapter@D@__crt_stdio_output@@@2@@__crt_stdio_output@@AAE_ND@Z 1005b470 f i libucrtd:output.obj
 0001:0005a580       ?type_case_c_tchar@?$output_processor@DV?$string_output_adapter@D@__crt_stdio_output@@V?$positional_parameter_base@DV?$string_output_adapter@D@__crt_stdio_output@@@2@@__crt_stdio_output@@AAE_ND@Z 1005b580 f i libucrtd:output.obj
 0001:0005a690       ?type_case_c_tchar@?$output_processor@DV?$string_output_adapter@D@__crt_stdio_output@@V?$standard_base@DV?$string_output_adapter@D@__crt_stdio_output@@@2@@__crt_stdio_output@@AAE_ND@Z 1005b690 f i libucrtd:output.obj
 0001:0005a7a0       ?type_case_c_tchar@?$output_processor@_WV?$stream_output_adapter@_W@__crt_stdio_output@@V?$format_validation_base@_WV?$stream_output_adapter@_W@__crt_stdio_output@@@2@@__crt_stdio_output@@AAE_N_W@Z 1005b7a0 f i libucrtd:output.obj
 0001:0005a8a0       ?type_case_c_tchar@?$output_processor@_WV?$stream_output_adapter@_W@__crt_stdio_output@@V?$positional_parameter_base@_WV?$stream_output_adapter@_W@__crt_stdio_output@@@2@@__crt_stdio_output@@AAE_N_W@Z 1005b8a0 f i libucrtd:output.obj
 0001:0005a9a0       ?type_case_c_tchar@?$output_processor@_WV?$stream_output_adapter@_W@__crt_stdio_output@@V?$standard_base@_WV?$stream_output_adapter@_W@__crt_stdio_output@@@2@@__crt_stdio_output@@AAE_N_W@Z 1005b9a0 f i libucrtd:output.obj
 0001:0005aaa0       ?type_case_c_tchar@?$output_processor@_WV?$string_output_adapter@_W@__crt_stdio_output@@V?$format_validation_base@_WV?$string_output_adapter@_W@__crt_stdio_output@@@2@@__crt_stdio_output@@AAE_N_W@Z 1005baa0 f i libucrtd:output.obj
 0001:0005aba0       ?type_case_c_tchar@?$output_processor@_WV?$string_output_adapter@_W@__crt_stdio_output@@V?$positional_parameter_base@_WV?$string_output_adapter@_W@__crt_stdio_output@@@2@@__crt_stdio_output@@AAE_N_W@Z 1005bba0 f i libucrtd:output.obj
 0001:0005aca0       ?type_case_c_tchar@?$output_processor@_WV?$string_output_adapter@_W@__crt_stdio_output@@V?$standard_base@_WV?$string_output_adapter@_W@__crt_stdio_output@@@2@@__crt_stdio_output@@AAE_N_W@Z 1005bca0 f i libucrtd:output.obj
 0001:0005ada0       ?type_case_d@?$output_processor@DV?$stream_output_adapter@D@__crt_stdio_output@@V?$format_validation_base@DV?$stream_output_adapter@D@__crt_stdio_output@@@2@@__crt_stdio_output@@AAE_NXZ 1005bda0 f i libucrtd:output.obj
 0001:0005add0       ?type_case_d@?$output_processor@DV?$stream_output_adapter@D@__crt_stdio_output@@V?$positional_parameter_base@DV?$stream_output_adapter@D@__crt_stdio_output@@@2@@__crt_stdio_output@@AAE_NXZ 1005bdd0 f i libucrtd:output.obj
 0001:0005ae00       ?type_case_d@?$output_processor@DV?$stream_output_adapter@D@__crt_stdio_output@@V?$standard_base@DV?$stream_output_adapter@D@__crt_stdio_output@@@2@@__crt_stdio_output@@AAE_NXZ 1005be00 f i libucrtd:output.obj
 0001:0005ae30       ?type_case_d@?$output_processor@DV?$string_output_adapter@D@__crt_stdio_output@@V?$format_validation_base@DV?$string_output_adapter@D@__crt_stdio_output@@@2@@__crt_stdio_output@@AAE_NXZ 1005be30 f i libucrtd:output.obj
 0001:0005ae60       ?type_case_d@?$output_processor@DV?$string_output_adapter@D@__crt_stdio_output@@V?$positional_parameter_base@DV?$string_output_adapter@D@__crt_stdio_output@@@2@@__crt_stdio_output@@AAE_NXZ 1005be60 f i libucrtd:output.obj
 0001:0005ae90       ?type_case_d@?$output_processor@DV?$string_output_adapter@D@__crt_stdio_output@@V?$standard_base@DV?$string_output_adapter@D@__crt_stdio_output@@@2@@__crt_stdio_output@@AAE_NXZ 1005be90 f i libucrtd:output.obj
 0001:0005aec0       ?type_case_d@?$output_processor@_WV?$stream_output_adapter@_W@__crt_stdio_output@@V?$format_validation_base@_WV?$stream_output_adapter@_W@__crt_stdio_output@@@2@@__crt_stdio_output@@AAE_NXZ 1005bec0 f i libucrtd:output.obj
 0001:0005aef0       ?type_case_d@?$output_processor@_WV?$stream_output_adapter@_W@__crt_stdio_output@@V?$positional_parameter_base@_WV?$stream_output_adapter@_W@__crt_stdio_output@@@2@@__crt_stdio_output@@AAE_NXZ 1005bef0 f i libucrtd:output.obj
 0001:0005af20       ?type_case_d@?$output_processor@_WV?$stream_output_adapter@_W@__crt_stdio_output@@V?$standard_base@_WV?$stream_output_adapter@_W@__crt_stdio_output@@@2@@__crt_stdio_output@@AAE_NXZ 1005bf20 f i libucrtd:output.obj
 0001:0005af50       ?type_case_d@?$output_processor@_WV?$string_output_adapter@_W@__crt_stdio_output@@V?$format_validation_base@_WV?$string_output_adapter@_W@__crt_stdio_output@@@2@@__crt_stdio_output@@AAE_NXZ 1005bf50 f i libucrtd:output.obj
 0001:0005af80       ?type_case_d@?$output_processor@_WV?$string_output_adapter@_W@__crt_stdio_output@@V?$positional_parameter_base@_WV?$string_output_adapter@_W@__crt_stdio_output@@@2@@__crt_stdio_output@@AAE_NXZ 1005bf80 f i libucrtd:output.obj
 0001:0005afb0       ?type_case_d@?$output_processor@_WV?$string_output_adapter@_W@__crt_stdio_output@@V?$standard_base@_WV?$string_output_adapter@_W@__crt_stdio_output@@@2@@__crt_stdio_output@@AAE_NXZ 1005bfb0 f i libucrtd:output.obj
 0001:0005afe0       ?type_case_integer@?$output_processor@DV?$stream_output_adapter@D@__crt_stdio_output@@V?$format_validation_base@DV?$stream_output_adapter@D@__crt_stdio_output@@@2@@__crt_stdio_output@@AAE_NI_N@Z 1005bfe0 f i libucrtd:output.obj
 0001:0005b320       ?type_case_integer@?$output_processor@DV?$stream_output_adapter@D@__crt_stdio_output@@V?$positional_parameter_base@DV?$stream_output_adapter@D@__crt_stdio_output@@@2@@__crt_stdio_output@@AAE_NI_N@Z 1005c320 f i libucrtd:output.obj
 0001:0005b660       ?type_case_integer@?$output_processor@DV?$stream_output_adapter@D@__crt_stdio_output@@V?$standard_base@DV?$stream_output_adapter@D@__crt_stdio_output@@@2@@__crt_stdio_output@@AAE_NI_N@Z 1005c660 f i libucrtd:output.obj
 0001:0005b9a0       ?type_case_integer@?$output_processor@DV?$string_output_adapter@D@__crt_stdio_output@@V?$format_validation_base@DV?$string_output_adapter@D@__crt_stdio_output@@@2@@__crt_stdio_output@@AAE_NI_N@Z 1005c9a0 f i libucrtd:output.obj
 0001:0005bce0       ?type_case_integer@?$output_processor@DV?$string_output_adapter@D@__crt_stdio_output@@V?$positional_parameter_base@DV?$string_output_adapter@D@__crt_stdio_output@@@2@@__crt_stdio_output@@AAE_NI_N@Z 1005cce0 f i libucrtd:output.obj
 0001:0005c020       ?type_case_integer@?$output_processor@DV?$string_output_adapter@D@__crt_stdio_output@@V?$standard_base@DV?$string_output_adapter@D@__crt_stdio_output@@@2@@__crt_stdio_output@@AAE_NI_N@Z 1005d020 f i libucrtd:output.obj
 0001:0005c360       ?type_case_integer@?$output_processor@_WV?$stream_output_adapter@_W@__crt_stdio_output@@V?$format_validation_base@_WV?$stream_output_adapter@_W@__crt_stdio_output@@@2@@__crt_stdio_output@@AAE_NI_N@Z 1005d360 f i libucrtd:output.obj
 0001:0005c6a0       ?type_case_integer@?$output_processor@_WV?$stream_output_adapter@_W@__crt_stdio_output@@V?$positional_parameter_base@_WV?$stream_output_adapter@_W@__crt_stdio_output@@@2@@__crt_stdio_output@@AAE_NI_N@Z 1005d6a0 f i libucrtd:output.obj
 0001:0005c9e0       ?type_case_integer@?$output_processor@_WV?$stream_output_adapter@_W@__crt_stdio_output@@V?$standard_base@_WV?$stream_output_adapter@_W@__crt_stdio_output@@@2@@__crt_stdio_output@@AAE_NI_N@Z 1005d9e0 f i libucrtd:output.obj
 0001:0005cd20       ?type_case_integer@?$output_processor@_WV?$string_output_adapter@_W@__crt_stdio_output@@V?$format_validation_base@_WV?$string_output_adapter@_W@__crt_stdio_output@@@2@@__crt_stdio_output@@AAE_NI_N@Z 1005dd20 f i libucrtd:output.obj
 0001:0005d060       ?type_case_integer@?$output_processor@_WV?$string_output_adapter@_W@__crt_stdio_output@@V?$positional_parameter_base@_WV?$string_output_adapter@_W@__crt_stdio_output@@@2@@__crt_stdio_output@@AAE_NI_N@Z 1005e060 f i libucrtd:output.obj
 0001:0005d3a0       ?type_case_integer@?$output_processor@_WV?$string_output_adapter@_W@__crt_stdio_output@@V?$standard_base@_WV?$string_output_adapter@_W@__crt_stdio_output@@@2@@__crt_stdio_output@@AAE_NI_N@Z 1005e3a0 f i libucrtd:output.obj
 0001:0005d6e0       ?type_case_n@?$output_processor@DV?$stream_output_adapter@D@__crt_stdio_output@@V?$format_validation_base@DV?$stream_output_adapter@D@__crt_stdio_output@@@2@@__crt_stdio_output@@AAE_NXZ 1005e6e0 f i libucrtd:output.obj
 0001:0005d8d0       ?type_case_n@?$output_processor@DV?$stream_output_adapter@D@__crt_stdio_output@@V?$positional_parameter_base@DV?$stream_output_adapter@D@__crt_stdio_output@@@2@@__crt_stdio_output@@AAE_NXZ 1005e8d0 f i libucrtd:output.obj
 0001:0005dac0       ?type_case_n@?$output_processor@DV?$stream_output_adapter@D@__crt_stdio_output@@V?$standard_base@DV?$stream_output_adapter@D@__crt_stdio_output@@@2@@__crt_stdio_output@@AAE_NXZ 1005eac0 f i libucrtd:output.obj
 0001:0005dcb0       ?type_case_n@?$output_processor@DV?$string_output_adapter@D@__crt_stdio_output@@V?$format_validation_base@DV?$string_output_adapter@D@__crt_stdio_output@@@2@@__crt_stdio_output@@AAE_NXZ 1005ecb0 f i libucrtd:output.obj
 0001:0005dea0       ?type_case_n@?$output_processor@DV?$string_output_adapter@D@__crt_stdio_output@@V?$positional_parameter_base@DV?$string_output_adapter@D@__crt_stdio_output@@@2@@__crt_stdio_output@@AAE_NXZ 1005eea0 f i libucrtd:output.obj
 0001:0005e090       ?type_case_n@?$output_processor@DV?$string_output_adapter@D@__crt_stdio_output@@V?$standard_base@DV?$string_output_adapter@D@__crt_stdio_output@@@2@@__crt_stdio_output@@AAE_NXZ 1005f090 f i libucrtd:output.obj
 0001:0005e280       ?type_case_n@?$output_processor@_WV?$stream_output_adapter@_W@__crt_stdio_output@@V?$format_validation_base@_WV?$stream_output_adapter@_W@__crt_stdio_output@@@2@@__crt_stdio_output@@AAE_NXZ 1005f280 f i libucrtd:output.obj
 0001:0005e470       ?type_case_n@?$output_processor@_WV?$stream_output_adapter@_W@__crt_stdio_output@@V?$positional_parameter_base@_WV?$stream_output_adapter@_W@__crt_stdio_output@@@2@@__crt_stdio_output@@AAE_NXZ 1005f470 f i libucrtd:output.obj
 0001:0005e660       ?type_case_n@?$output_processor@_WV?$stream_output_adapter@_W@__crt_stdio_output@@V?$standard_base@_WV?$stream_output_adapter@_W@__crt_stdio_output@@@2@@__crt_stdio_output@@AAE_NXZ 1005f660 f i libucrtd:output.obj
 0001:0005e850       ?type_case_n@?$output_processor@_WV?$string_output_adapter@_W@__crt_stdio_output@@V?$format_validation_base@_WV?$string_output_adapter@_W@__crt_stdio_output@@@2@@__crt_stdio_output@@AAE_NXZ 1005f850 f i libucrtd:output.obj
 0001:0005ea40       ?type_case_n@?$output_processor@_WV?$string_output_adapter@_W@__crt_stdio_output@@V?$positional_parameter_base@_WV?$string_output_adapter@_W@__crt_stdio_output@@@2@@__crt_stdio_output@@AAE_NXZ 1005fa40 f i libucrtd:output.obj
 0001:0005ec30       ?type_case_n@?$output_processor@_WV?$string_output_adapter@_W@__crt_stdio_output@@V?$standard_base@_WV?$string_output_adapter@_W@__crt_stdio_output@@@2@@__crt_stdio_output@@AAE_NXZ 1005fc30 f i libucrtd:output.obj
 0001:0005ee20       ?type_case_o@?$output_processor@DV?$stream_output_adapter@D@__crt_stdio_output@@V?$format_validation_base@DV?$stream_output_adapter@D@__crt_stdio_output@@@2@@__crt_stdio_output@@AAE_NXZ 1005fe20 f i libucrtd:output.obj
 0001:0005ee60       ?type_case_o@?$output_processor@DV?$stream_output_adapter@D@__crt_stdio_output@@V?$positional_parameter_base@DV?$stream_output_adapter@D@__crt_stdio_output@@@2@@__crt_stdio_output@@AAE_NXZ 1005fe60 f i libucrtd:output.obj
 0001:0005eea0       ?type_case_o@?$output_processor@DV?$stream_output_adapter@D@__crt_stdio_output@@V?$standard_base@DV?$stream_output_adapter@D@__crt_stdio_output@@@2@@__crt_stdio_output@@AAE_NXZ 1005fea0 f i libucrtd:output.obj
 0001:0005eee0       ?type_case_o@?$output_processor@DV?$string_output_adapter@D@__crt_stdio_output@@V?$format_validation_base@DV?$string_output_adapter@D@__crt_stdio_output@@@2@@__crt_stdio_output@@AAE_NXZ 1005fee0 f i libucrtd:output.obj
 0001:0005ef20       ?type_case_o@?$output_processor@DV?$string_output_adapter@D@__crt_stdio_output@@V?$positional_parameter_base@DV?$string_output_adapter@D@__crt_stdio_output@@@2@@__crt_stdio_output@@AAE_NXZ 1005ff20 f i libucrtd:output.obj
 0001:0005ef60       ?type_case_o@?$output_processor@DV?$string_output_adapter@D@__crt_stdio_output@@V?$standard_base@DV?$string_output_adapter@D@__crt_stdio_output@@@2@@__crt_stdio_output@@AAE_NXZ 1005ff60 f i libucrtd:output.obj
 0001:0005efa0       ?type_case_o@?$output_processor@_WV?$stream_output_adapter@_W@__crt_stdio_output@@V?$format_validation_base@_WV?$stream_output_adapter@_W@__crt_stdio_output@@@2@@__crt_stdio_output@@AAE_NXZ 1005ffa0 f i libucrtd:output.obj
 0001:0005efe0       ?type_case_o@?$output_processor@_WV?$stream_output_adapter@_W@__crt_stdio_output@@V?$positional_parameter_base@_WV?$stream_output_adapter@_W@__crt_stdio_output@@@2@@__crt_stdio_output@@AAE_NXZ 1005ffe0 f i libucrtd:output.obj
 0001:0005f020       ?type_case_o@?$output_processor@_WV?$stream_output_adapter@_W@__crt_stdio_output@@V?$standard_base@_WV?$stream_output_adapter@_W@__crt_stdio_output@@@2@@__crt_stdio_output@@AAE_NXZ 10060020 f i libucrtd:output.obj
 0001:0005f060       ?type_case_o@?$output_processor@_WV?$string_output_adapter@_W@__crt_stdio_output@@V?$format_validation_base@_WV?$string_output_adapter@_W@__crt_stdio_output@@@2@@__crt_stdio_output@@AAE_NXZ 10060060 f i libucrtd:output.obj
 0001:0005f0a0       ?type_case_o@?$output_processor@_WV?$string_output_adapter@_W@__crt_stdio_output@@V?$positional_parameter_base@_WV?$string_output_adapter@_W@__crt_stdio_output@@@2@@__crt_stdio_output@@AAE_NXZ 100600a0 f i libucrtd:output.obj
 0001:0005f0e0       ?type_case_o@?$output_processor@_WV?$string_output_adapter@_W@__crt_stdio_output@@V?$standard_base@_WV?$string_output_adapter@_W@__crt_stdio_output@@@2@@__crt_stdio_output@@AAE_NXZ 100600e0 f i libucrtd:output.obj
 0001:0005f120       ?type_case_p@?$output_processor@DV?$stream_output_adapter@D@__crt_stdio_output@@V?$format_validation_base@DV?$stream_output_adapter@D@__crt_stdio_output@@@2@@__crt_stdio_output@@AAE_NXZ 10060120 f i libucrtd:output.obj
 0001:0005f150       ?type_case_p@?$output_processor@DV?$stream_output_adapter@D@__crt_stdio_output@@V?$positional_parameter_base@DV?$stream_output_adapter@D@__crt_stdio_output@@@2@@__crt_stdio_output@@AAE_NXZ 10060150 f i libucrtd:output.obj
 0001:0005f180       ?type_case_p@?$output_processor@DV?$stream_output_adapter@D@__crt_stdio_output@@V?$standard_base@DV?$stream_output_adapter@D@__crt_stdio_output@@@2@@__crt_stdio_output@@AAE_NXZ 10060180 f i libucrtd:output.obj
 0001:0005f1b0       ?type_case_p@?$output_processor@DV?$string_output_adapter@D@__crt_stdio_output@@V?$format_validation_base@DV?$string_output_adapter@D@__crt_stdio_output@@@2@@__crt_stdio_output@@AAE_NXZ 100601b0 f i libucrtd:output.obj
 0001:0005f1e0       ?type_case_p@?$output_processor@DV?$string_output_adapter@D@__crt_stdio_output@@V?$positional_parameter_base@DV?$string_output_adapter@D@__crt_stdio_output@@@2@@__crt_stdio_output@@AAE_NXZ 100601e0 f i libucrtd:output.obj
 0001:0005f210       ?type_case_p@?$output_processor@DV?$string_output_adapter@D@__crt_stdio_output@@V?$standard_base@DV?$string_output_adapter@D@__crt_stdio_output@@@2@@__crt_stdio_output@@AAE_NXZ 10060210 f i libucrtd:output.obj
 0001:0005f240       ?type_case_p@?$output_processor@_WV?$stream_output_adapter@_W@__crt_stdio_output@@V?$format_validation_base@_WV?$stream_output_adapter@_W@__crt_stdio_output@@@2@@__crt_stdio_output@@AAE_NXZ 10060240 f i libucrtd:output.obj
 0001:0005f270       ?type_case_p@?$output_processor@_WV?$stream_output_adapter@_W@__crt_stdio_output@@V?$positional_parameter_base@_WV?$stream_output_adapter@_W@__crt_stdio_output@@@2@@__crt_stdio_output@@AAE_NXZ 10060270 f i libucrtd:output.obj
 0001:0005f2a0       ?type_case_p@?$output_processor@_WV?$stream_output_adapter@_W@__crt_stdio_output@@V?$standard_base@_WV?$stream_output_adapter@_W@__crt_stdio_output@@@2@@__crt_stdio_output@@AAE_NXZ 100602a0 f i libucrtd:output.obj
 0001:0005f2d0       ?type_case_p@?$output_processor@_WV?$string_output_adapter@_W@__crt_stdio_output@@V?$format_validation_base@_WV?$string_output_adapter@_W@__crt_stdio_output@@@2@@__crt_stdio_output@@AAE_NXZ 100602d0 f i libucrtd:output.obj
 0001:0005f300       ?type_case_p@?$output_processor@_WV?$string_output_adapter@_W@__crt_stdio_output@@V?$positional_parameter_base@_WV?$string_output_adapter@_W@__crt_stdio_output@@@2@@__crt_stdio_output@@AAE_NXZ 10060300 f i libucrtd:output.obj
 0001:0005f330       ?type_case_p@?$output_processor@_WV?$string_output_adapter@_W@__crt_stdio_output@@V?$standard_base@_WV?$string_output_adapter@_W@__crt_stdio_output@@@2@@__crt_stdio_output@@AAE_NXZ 10060330 f i libucrtd:output.obj
 0001:0005f360       ?type_case_s@?$output_processor@DV?$stream_output_adapter@D@__crt_stdio_output@@V?$format_validation_base@DV?$stream_output_adapter@D@__crt_stdio_output@@@2@@__crt_stdio_output@@AAE_NXZ 10060360 f i libucrtd:output.obj
 0001:0005f450       ?type_case_s@?$output_processor@DV?$stream_output_adapter@D@__crt_stdio_output@@V?$positional_parameter_base@DV?$stream_output_adapter@D@__crt_stdio_output@@@2@@__crt_stdio_output@@AAE_NXZ 10060450 f i libucrtd:output.obj
 0001:0005f540       ?type_case_s@?$output_processor@DV?$stream_output_adapter@D@__crt_stdio_output@@V?$standard_base@DV?$stream_output_adapter@D@__crt_stdio_output@@@2@@__crt_stdio_output@@AAE_NXZ 10060540 f i libucrtd:output.obj
 0001:0005f630       ?type_case_s@?$output_processor@DV?$string_output_adapter@D@__crt_stdio_output@@V?$format_validation_base@DV?$string_output_adapter@D@__crt_stdio_output@@@2@@__crt_stdio_output@@AAE_NXZ 10060630 f i libucrtd:output.obj
 0001:0005f720       ?type_case_s@?$output_processor@DV?$string_output_adapter@D@__crt_stdio_output@@V?$positional_parameter_base@DV?$string_output_adapter@D@__crt_stdio_output@@@2@@__crt_stdio_output@@AAE_NXZ 10060720 f i libucrtd:output.obj
 0001:0005f810       ?type_case_s@?$output_processor@DV?$string_output_adapter@D@__crt_stdio_output@@V?$standard_base@DV?$string_output_adapter@D@__crt_stdio_output@@@2@@__crt_stdio_output@@AAE_NXZ 10060810 f i libucrtd:output.obj
 0001:0005f900       ?type_case_s@?$output_processor@_WV?$stream_output_adapter@_W@__crt_stdio_output@@V?$format_validation_base@_WV?$stream_output_adapter@_W@__crt_stdio_output@@@2@@__crt_stdio_output@@AAE_NXZ 10060900 f i libucrtd:output.obj
 0001:0005f9f0       ?type_case_s@?$output_processor@_WV?$stream_output_adapter@_W@__crt_stdio_output@@V?$positional_parameter_base@_WV?$stream_output_adapter@_W@__crt_stdio_output@@@2@@__crt_stdio_output@@AAE_NXZ 100609f0 f i libucrtd:output.obj
 0001:0005fae0       ?type_case_s@?$output_processor@_WV?$stream_output_adapter@_W@__crt_stdio_output@@V?$standard_base@_WV?$stream_output_adapter@_W@__crt_stdio_output@@@2@@__crt_stdio_output@@AAE_NXZ 10060ae0 f i libucrtd:output.obj
 0001:0005fbd0       ?type_case_s@?$output_processor@_WV?$string_output_adapter@_W@__crt_stdio_output@@V?$format_validation_base@_WV?$string_output_adapter@_W@__crt_stdio_output@@@2@@__crt_stdio_output@@AAE_NXZ 10060bd0 f i libucrtd:output.obj
 0001:0005fcc0       ?type_case_s@?$output_processor@_WV?$string_output_adapter@_W@__crt_stdio_output@@V?$positional_parameter_base@_WV?$string_output_adapter@_W@__crt_stdio_output@@@2@@__crt_stdio_output@@AAE_NXZ 10060cc0 f i libucrtd:output.obj
 0001:0005fdb0       ?type_case_s@?$output_processor@_WV?$string_output_adapter@_W@__crt_stdio_output@@V?$standard_base@_WV?$string_output_adapter@_W@__crt_stdio_output@@@2@@__crt_stdio_output@@AAE_NXZ 10060db0 f i libucrtd:output.obj
 0001:0005fea0       ?type_case_s_compute_narrow_string_length@?$output_processor@DV?$stream_output_adapter@D@__crt_stdio_output@@V?$format_validation_base@DV?$stream_output_adapter@D@__crt_stdio_output@@@2@@__crt_stdio_output@@ABEHHD@Z 10060ea0 f i libucrtd:output.obj
 0001:0005fed0       ?type_case_s_compute_narrow_string_length@?$output_processor@DV?$stream_output_adapter@D@__crt_stdio_output@@V?$positional_parameter_base@DV?$stream_output_adapter@D@__crt_stdio_output@@@2@@__crt_stdio_output@@ABEHHD@Z 10060ed0 f i libucrtd:output.obj
 0001:0005ff00       ?type_case_s_compute_narrow_string_length@?$output_processor@DV?$stream_output_adapter@D@__crt_stdio_output@@V?$standard_base@DV?$stream_output_adapter@D@__crt_stdio_output@@@2@@__crt_stdio_output@@ABEHHD@Z 10060f00 f i libucrtd:output.obj
 0001:0005ff30       ?type_case_s_compute_narrow_string_length@?$output_processor@DV?$string_output_adapter@D@__crt_stdio_output@@V?$format_validation_base@DV?$string_output_adapter@D@__crt_stdio_output@@@2@@__crt_stdio_output@@ABEHHD@Z 10060f30 f i libucrtd:output.obj
 0001:0005ff60       ?type_case_s_compute_narrow_string_length@?$output_processor@DV?$string_output_adapter@D@__crt_stdio_output@@V?$positional_parameter_base@DV?$string_output_adapter@D@__crt_stdio_output@@@2@@__crt_stdio_output@@ABEHHD@Z 10060f60 f i libucrtd:output.obj
 0001:0005ff90       ?type_case_s_compute_narrow_string_length@?$output_processor@DV?$string_output_adapter@D@__crt_stdio_output@@V?$standard_base@DV?$string_output_adapter@D@__crt_stdio_output@@@2@@__crt_stdio_output@@ABEHHD@Z 10060f90 f i libucrtd:output.obj
 0001:0005ffc0       ?type_case_s_compute_narrow_string_length@?$output_processor@_WV?$stream_output_adapter@_W@__crt_stdio_output@@V?$format_validation_base@_WV?$stream_output_adapter@_W@__crt_stdio_output@@@2@@__crt_stdio_output@@ABEHH_W@Z 10060fc0 f i libucrtd:output.obj
 0001:00060030       ?type_case_s_compute_narrow_string_length@?$output_processor@_WV?$stream_output_adapter@_W@__crt_stdio_output@@V?$positional_parameter_base@_WV?$stream_output_adapter@_W@__crt_stdio_output@@@2@@__crt_stdio_output@@ABEHH_W@Z 10061030 f i libucrtd:output.obj
 0001:000600a0       ?type_case_s_compute_narrow_string_length@?$output_processor@_WV?$stream_output_adapter@_W@__crt_stdio_output@@V?$standard_base@_WV?$stream_output_adapter@_W@__crt_stdio_output@@@2@@__crt_stdio_output@@ABEHH_W@Z 100610a0 f i libucrtd:output.obj
 0001:00060110       ?type_case_s_compute_narrow_string_length@?$output_processor@_WV?$string_output_adapter@_W@__crt_stdio_output@@V?$format_validation_base@_WV?$string_output_adapter@_W@__crt_stdio_output@@@2@@__crt_stdio_output@@ABEHH_W@Z 10061110 f i libucrtd:output.obj
 0001:00060180       ?type_case_s_compute_narrow_string_length@?$output_processor@_WV?$string_output_adapter@_W@__crt_stdio_output@@V?$positional_parameter_base@_WV?$string_output_adapter@_W@__crt_stdio_output@@@2@@__crt_stdio_output@@ABEHH_W@Z 10061180 f i libucrtd:output.obj
 0001:000601f0       ?type_case_s_compute_narrow_string_length@?$output_processor@_WV?$string_output_adapter@_W@__crt_stdio_output@@V?$standard_base@_WV?$string_output_adapter@_W@__crt_stdio_output@@@2@@__crt_stdio_output@@ABEHH_W@Z 100611f0 f i libucrtd:output.obj
 0001:00060260       ?type_case_u@?$output_processor@DV?$stream_output_adapter@D@__crt_stdio_output@@V?$format_validation_base@DV?$stream_output_adapter@D@__crt_stdio_output@@@2@@__crt_stdio_output@@AAE_NXZ 10061260 f i libucrtd:output.obj
 0001:00060280       ?type_case_u@?$output_processor@DV?$stream_output_adapter@D@__crt_stdio_output@@V?$positional_parameter_base@DV?$stream_output_adapter@D@__crt_stdio_output@@@2@@__crt_stdio_output@@AAE_NXZ 10061280 f i libucrtd:output.obj
 0001:000602a0       ?type_case_u@?$output_processor@DV?$stream_output_adapter@D@__crt_stdio_output@@V?$standard_base@DV?$stream_output_adapter@D@__crt_stdio_output@@@2@@__crt_stdio_output@@AAE_NXZ 100612a0 f i libucrtd:output.obj
 0001:000602c0       ?type_case_u@?$output_processor@DV?$string_output_adapter@D@__crt_stdio_output@@V?$format_validation_base@DV?$string_output_adapter@D@__crt_stdio_output@@@2@@__crt_stdio_output@@AAE_NXZ 100612c0 f i libucrtd:output.obj
 0001:000602e0       ?type_case_u@?$output_processor@DV?$string_output_adapter@D@__crt_stdio_output@@V?$positional_parameter_base@DV?$string_output_adapter@D@__crt_stdio_output@@@2@@__crt_stdio_output@@AAE_NXZ 100612e0 f i libucrtd:output.obj
 0001:00060300       ?type_case_u@?$output_processor@DV?$string_output_adapter@D@__crt_stdio_output@@V?$standard_base@DV?$string_output_adapter@D@__crt_stdio_output@@@2@@__crt_stdio_output@@AAE_NXZ 10061300 f i libucrtd:output.obj
 0001:00060320       ?type_case_u@?$output_processor@_WV?$stream_output_adapter@_W@__crt_stdio_output@@V?$format_validation_base@_WV?$stream_output_adapter@_W@__crt_stdio_output@@@2@@__crt_stdio_output@@AAE_NXZ 10061320 f i libucrtd:output.obj
 0001:00060340       ?type_case_u@?$output_processor@_WV?$stream_output_adapter@_W@__crt_stdio_output@@V?$positional_parameter_base@_WV?$stream_output_adapter@_W@__crt_stdio_output@@@2@@__crt_stdio_output@@AAE_NXZ 10061340 f i libucrtd:output.obj
 0001:00060360       ?type_case_u@?$output_processor@_WV?$stream_output_adapter@_W@__crt_stdio_output@@V?$standard_base@_WV?$stream_output_adapter@_W@__crt_stdio_output@@@2@@__crt_stdio_output@@AAE_NXZ 10061360 f i libucrtd:output.obj
 0001:00060380       ?type_case_u@?$output_processor@_WV?$string_output_adapter@_W@__crt_stdio_output@@V?$format_validation_base@_WV?$string_output_adapter@_W@__crt_stdio_output@@@2@@__crt_stdio_output@@AAE_NXZ 10061380 f i libucrtd:output.obj
 0001:000603a0       ?type_case_u@?$output_processor@_WV?$string_output_adapter@_W@__crt_stdio_output@@V?$positional_parameter_base@_WV?$string_output_adapter@_W@__crt_stdio_output@@@2@@__crt_stdio_output@@AAE_NXZ 100613a0 f i libucrtd:output.obj
 0001:000603c0       ?type_case_u@?$output_processor@_WV?$string_output_adapter@_W@__crt_stdio_output@@V?$standard_base@_WV?$string_output_adapter@_W@__crt_stdio_output@@@2@@__crt_stdio_output@@AAE_NXZ 100613c0 f i libucrtd:output.obj
 0001:000603e0       ?type_case_x@?$output_processor@DV?$stream_output_adapter@D@__crt_stdio_output@@V?$format_validation_base@DV?$stream_output_adapter@D@__crt_stdio_output@@@2@@__crt_stdio_output@@AAE_NXZ 100613e0 f i libucrtd:output.obj
 0001:00060400       ?type_case_x@?$output_processor@DV?$stream_output_adapter@D@__crt_stdio_output@@V?$positional_parameter_base@DV?$stream_output_adapter@D@__crt_stdio_output@@@2@@__crt_stdio_output@@AAE_NXZ 10061400 f i libucrtd:output.obj
 0001:00060420       ?type_case_x@?$output_processor@DV?$stream_output_adapter@D@__crt_stdio_output@@V?$standard_base@DV?$stream_output_adapter@D@__crt_stdio_output@@@2@@__crt_stdio_output@@AAE_NXZ 10061420 f i libucrtd:output.obj
 0001:00060440       ?type_case_x@?$output_processor@DV?$string_output_adapter@D@__crt_stdio_output@@V?$format_validation_base@DV?$string_output_adapter@D@__crt_stdio_output@@@2@@__crt_stdio_output@@AAE_NXZ 10061440 f i libucrtd:output.obj
 0001:00060460       ?type_case_x@?$output_processor@DV?$string_output_adapter@D@__crt_stdio_output@@V?$positional_parameter_base@DV?$string_output_adapter@D@__crt_stdio_output@@@2@@__crt_stdio_output@@AAE_NXZ 10061460 f i libucrtd:output.obj
 0001:00060480       ?type_case_x@?$output_processor@DV?$string_output_adapter@D@__crt_stdio_output@@V?$standard_base@DV?$string_output_adapter@D@__crt_stdio_output@@@2@@__crt_stdio_output@@AAE_NXZ 10061480 f i libucrtd:output.obj
 0001:000604a0       ?type_case_x@?$output_processor@_WV?$stream_output_adapter@_W@__crt_stdio_output@@V?$format_validation_base@_WV?$stream_output_adapter@_W@__crt_stdio_output@@@2@@__crt_stdio_output@@AAE_NXZ 100614a0 f i libucrtd:output.obj
 0001:000604c0       ?type_case_x@?$output_processor@_WV?$stream_output_adapter@_W@__crt_stdio_output@@V?$positional_parameter_base@_WV?$stream_output_adapter@_W@__crt_stdio_output@@@2@@__crt_stdio_output@@AAE_NXZ 100614c0 f i libucrtd:output.obj
 0001:000604e0       ?type_case_x@?$output_processor@_WV?$stream_output_adapter@_W@__crt_stdio_output@@V?$standard_base@_WV?$stream_output_adapter@_W@__crt_stdio_output@@@2@@__crt_stdio_output@@AAE_NXZ 100614e0 f i libucrtd:output.obj
 0001:00060500       ?type_case_x@?$output_processor@_WV?$string_output_adapter@_W@__crt_stdio_output@@V?$format_validation_base@_WV?$string_output_adapter@_W@__crt_stdio_output@@@2@@__crt_stdio_output@@AAE_NXZ 10061500 f i libucrtd:output.obj
 0001:00060520       ?type_case_x@?$output_processor@_WV?$string_output_adapter@_W@__crt_stdio_output@@V?$positional_parameter_base@_WV?$string_output_adapter@_W@__crt_stdio_output@@@2@@__crt_stdio_output@@AAE_NXZ 10061520 f i libucrtd:output.obj
 0001:00060540       ?type_case_x@?$output_processor@_WV?$string_output_adapter@_W@__crt_stdio_output@@V?$standard_base@_WV?$string_output_adapter@_W@__crt_stdio_output@@@2@@__crt_stdio_output@@AAE_NXZ 10061540 f i libucrtd:output.obj
 0001:00060560       ?unset_flag@?$output_processor@DV?$stream_output_adapter@D@__crt_stdio_output@@V?$format_validation_base@DV?$stream_output_adapter@D@__crt_stdio_output@@@2@@__crt_stdio_output@@AAEXI@Z 10061560 f i libucrtd:output.obj
 0001:00060580       ?unset_flag@?$output_processor@DV?$stream_output_adapter@D@__crt_stdio_output@@V?$positional_parameter_base@DV?$stream_output_adapter@D@__crt_stdio_output@@@2@@__crt_stdio_output@@AAEXI@Z 10061580 f i libucrtd:output.obj
 0001:000605a0       ?unset_flag@?$output_processor@DV?$stream_output_adapter@D@__crt_stdio_output@@V?$standard_base@DV?$stream_output_adapter@D@__crt_stdio_output@@@2@@__crt_stdio_output@@AAEXI@Z 100615a0 f i libucrtd:output.obj
 0001:000605c0       ?unset_flag@?$output_processor@DV?$string_output_adapter@D@__crt_stdio_output@@V?$format_validation_base@DV?$string_output_adapter@D@__crt_stdio_output@@@2@@__crt_stdio_output@@AAEXI@Z 100615c0 f i libucrtd:output.obj
 0001:000605e0       ?unset_flag@?$output_processor@DV?$string_output_adapter@D@__crt_stdio_output@@V?$positional_parameter_base@DV?$string_output_adapter@D@__crt_stdio_output@@@2@@__crt_stdio_output@@AAEXI@Z 100615e0 f i libucrtd:output.obj
 0001:00060600       ?unset_flag@?$output_processor@DV?$string_output_adapter@D@__crt_stdio_output@@V?$standard_base@DV?$string_output_adapter@D@__crt_stdio_output@@@2@@__crt_stdio_output@@AAEXI@Z 10061600 f i libucrtd:output.obj
 0001:00060620       ?unset_flag@?$output_processor@_WV?$stream_output_adapter@_W@__crt_stdio_output@@V?$format_validation_base@_WV?$stream_output_adapter@_W@__crt_stdio_output@@@2@@__crt_stdio_output@@AAEXI@Z 10061620 f i libucrtd:output.obj
 0001:00060640       ?unset_flag@?$output_processor@_WV?$stream_output_adapter@_W@__crt_stdio_output@@V?$positional_parameter_base@_WV?$stream_output_adapter@_W@__crt_stdio_output@@@2@@__crt_stdio_output@@AAEXI@Z 10061640 f i libucrtd:output.obj
 0001:00060660       ?unset_flag@?$output_processor@_WV?$stream_output_adapter@_W@__crt_stdio_output@@V?$standard_base@_WV?$stream_output_adapter@_W@__crt_stdio_output@@@2@@__crt_stdio_output@@AAEXI@Z 10061660 f i libucrtd:output.obj
 0001:00060680       ?unset_flag@?$output_processor@_WV?$string_output_adapter@_W@__crt_stdio_output@@V?$format_validation_base@_WV?$string_output_adapter@_W@__crt_stdio_output@@@2@@__crt_stdio_output@@AAEXI@Z 10061680 f i libucrtd:output.obj
 0001:000606a0       ?unset_flag@?$output_processor@_WV?$string_output_adapter@_W@__crt_stdio_output@@V?$positional_parameter_base@_WV?$string_output_adapter@_W@__crt_stdio_output@@@2@@__crt_stdio_output@@AAEXI@Z 100616a0 f i libucrtd:output.obj
 0001:000606c0       ?unset_flag@?$output_processor@_WV?$string_output_adapter@_W@__crt_stdio_output@@V?$standard_base@_WV?$string_output_adapter@_W@__crt_stdio_output@@@2@@__crt_stdio_output@@AAEXI@Z 100616c0 f i libucrtd:output.obj
 0001:000606e0       ?update_field_width@?$positional_parameter_base@DV?$stream_output_adapter@D@__crt_stdio_output@@@__crt_stdio_output@@IAE_NXZ 100616e0 f i libucrtd:output.obj
 0001:00060860       ?update_field_width@?$positional_parameter_base@DV?$string_output_adapter@D@__crt_stdio_output@@@__crt_stdio_output@@IAE_NXZ 10061860 f i libucrtd:output.obj
 0001:000609e0       ?update_field_width@?$positional_parameter_base@_WV?$stream_output_adapter@_W@__crt_stdio_output@@@__crt_stdio_output@@IAE_NXZ 100619e0 f i libucrtd:output.obj
 0001:00060b60       ?update_field_width@?$positional_parameter_base@_WV?$string_output_adapter@_W@__crt_stdio_output@@@__crt_stdio_output@@IAE_NXZ 10061b60 f i libucrtd:output.obj
 0001:00060ce0       ?update_field_width@?$standard_base@DV?$stream_output_adapter@D@__crt_stdio_output@@@__crt_stdio_output@@IAE_NXZ 10061ce0 f i libucrtd:output.obj
 0001:00060d10       ?update_field_width@?$standard_base@DV?$string_output_adapter@D@__crt_stdio_output@@@__crt_stdio_output@@IAE_NXZ 10061d10 f i libucrtd:output.obj
 0001:00060d40       ?update_field_width@?$standard_base@_WV?$stream_output_adapter@_W@__crt_stdio_output@@@__crt_stdio_output@@IAE_NXZ 10061d40 f i libucrtd:output.obj
 0001:00060d70       ?update_field_width@?$standard_base@_WV?$string_output_adapter@_W@__crt_stdio_output@@@__crt_stdio_output@@IAE_NXZ 10061d70 f i libucrtd:output.obj
 0001:00060da0       ?update_precision@?$positional_parameter_base@DV?$stream_output_adapter@D@__crt_stdio_output@@@__crt_stdio_output@@IAE_NXZ 10061da0 f i libucrtd:output.obj
 0001:00060f20       ?update_precision@?$positional_parameter_base@DV?$string_output_adapter@D@__crt_stdio_output@@@__crt_stdio_output@@IAE_NXZ 10061f20 f i libucrtd:output.obj
 0001:000610a0       ?update_precision@?$positional_parameter_base@_WV?$stream_output_adapter@_W@__crt_stdio_output@@@__crt_stdio_output@@IAE_NXZ 100620a0 f i libucrtd:output.obj
 0001:00061220       ?update_precision@?$positional_parameter_base@_WV?$string_output_adapter@_W@__crt_stdio_output@@@__crt_stdio_output@@IAE_NXZ 10062220 f i libucrtd:output.obj
 0001:000613a0       ?update_precision@?$standard_base@DV?$stream_output_adapter@D@__crt_stdio_output@@@__crt_stdio_output@@IAE_NXZ 100623a0 f i libucrtd:output.obj
 0001:000613d0       ?update_precision@?$standard_base@DV?$string_output_adapter@D@__crt_stdio_output@@@__crt_stdio_output@@IAE_NXZ 100623d0 f i libucrtd:output.obj
 0001:00061400       ?update_precision@?$standard_base@_WV?$stream_output_adapter@_W@__crt_stdio_output@@@__crt_stdio_output@@IAE_NXZ 10062400 f i libucrtd:output.obj
 0001:00061430       ?update_precision@?$standard_base@_WV?$string_output_adapter@_W@__crt_stdio_output@@@__crt_stdio_output@@IAE_NXZ 10062430 f i libucrtd:output.obj
 0001:00061460       ?valid@__crt_stdio_stream@@QBE_NXZ 10062460 f i libucrtd:output.obj
 0001:00061490       ?validate@?$stream_output_adapter@D@__crt_stdio_output@@QBE_NXZ 10062490 f i libucrtd:output.obj
 0001:00061530       ?validate@?$stream_output_adapter@_W@__crt_stdio_output@@QBE_NXZ 10062530 f i libucrtd:output.obj
 0001:000615d0       ?validate@?$string_output_adapter@D@__crt_stdio_output@@QBE_NXZ 100625d0 f i libucrtd:output.obj
 0001:00061660       ?validate@?$string_output_adapter@_W@__crt_stdio_output@@QBE_NXZ 10062660 f i libucrtd:output.obj
 0001:000616f0       ?validate_and_store_parameter_data@?$positional_parameter_base@DV?$stream_output_adapter@D@__crt_stdio_output@@@__crt_stdio_output@@AAE_NAAUparameter_data@12@W4parameter_type@12@DW4length_modifier@2@@Z 100626f0 f i libucrtd:output.obj
 0001:000617c0       ?validate_and_store_parameter_data@?$positional_parameter_base@DV?$string_output_adapter@D@__crt_stdio_output@@@__crt_stdio_output@@AAE_NAAUparameter_data@12@W4parameter_type@12@DW4length_modifier@2@@Z 100627c0 f i libucrtd:output.obj
 0001:00061890       ?validate_and_store_parameter_data@?$positional_parameter_base@_WV?$stream_output_adapter@_W@__crt_stdio_output@@@__crt_stdio_output@@AAE_NAAUparameter_data@12@W4parameter_type@12@_WW4length_modifier@2@@Z 10062890 f i libucrtd:output.obj
 0001:00061970       ?validate_and_store_parameter_data@?$positional_parameter_base@_WV?$string_output_adapter@_W@__crt_stdio_output@@@__crt_stdio_output@@AAE_NAAUparameter_data@12@W4parameter_type@12@_WW4length_modifier@2@@Z 10062970 f i libucrtd:output.obj
 0001:00061a50       ?validate_and_update_state_at_beginning_of_format_character@?$positional_parameter_base@DV?$stream_output_adapter@D@__crt_stdio_output@@@__crt_stdio_output@@IAE_NXZ 10062a50 f i libucrtd:output.obj
 0001:00061c70       ?validate_and_update_state_at_beginning_of_format_character@?$positional_parameter_base@DV?$string_output_adapter@D@__crt_stdio_output@@@__crt_stdio_output@@IAE_NXZ 10062c70 f i libucrtd:output.obj
 0001:00061e90       ?validate_and_update_state_at_beginning_of_format_character@?$positional_parameter_base@_WV?$stream_output_adapter@_W@__crt_stdio_output@@@__crt_stdio_output@@IAE_NXZ 10062e90 f i libucrtd:output.obj
 0001:000620b0       ?validate_and_update_state_at_beginning_of_format_character@?$positional_parameter_base@_WV?$string_output_adapter@_W@__crt_stdio_output@@@__crt_stdio_output@@IAE_NXZ 100630b0 f i libucrtd:output.obj
 0001:000622d0       ?validate_and_update_state_at_beginning_of_format_character@?$standard_base@DV?$stream_output_adapter@D@__crt_stdio_output@@@__crt_stdio_output@@IAE_NXZ 100632d0 f i libucrtd:output.obj
 0001:000622e0       ?validate_and_update_state_at_beginning_of_format_character@?$standard_base@DV?$string_output_adapter@D@__crt_stdio_output@@@__crt_stdio_output@@IAE_NXZ 100632e0 f i libucrtd:output.obj
 0001:000622f0       ?validate_and_update_state_at_beginning_of_format_character@?$standard_base@_WV?$stream_output_adapter@_W@__crt_stdio_output@@@__crt_stdio_output@@IAE_NXZ 100632f0 f i libucrtd:output.obj
 0001:00062300       ?validate_and_update_state_at_beginning_of_format_character@?$standard_base@_WV?$string_output_adapter@_W@__crt_stdio_output@@@__crt_stdio_output@@IAE_NXZ 10063300 f i libucrtd:output.obj
 0001:00062310       ?validate_and_update_state_at_end_of_format_string@?$format_validation_base@DV?$stream_output_adapter@D@__crt_stdio_output@@@__crt_stdio_output@@IBE_NXZ 10063310 f i libucrtd:output.obj
 0001:000623b0       ?validate_and_update_state_at_end_of_format_string@?$format_validation_base@DV?$string_output_adapter@D@__crt_stdio_output@@@__crt_stdio_output@@IBE_NXZ 100633b0 f i libucrtd:output.obj
 0001:00062450       ?validate_and_update_state_at_end_of_format_string@?$format_validation_base@_WV?$stream_output_adapter@_W@__crt_stdio_output@@@__crt_stdio_output@@IBE_NXZ 10063450 f i libucrtd:output.obj
 0001:000624f0       ?validate_and_update_state_at_end_of_format_string@?$format_validation_base@_WV?$string_output_adapter@_W@__crt_stdio_output@@@__crt_stdio_output@@IBE_NXZ 100634f0 f i libucrtd:output.obj
 0001:00062590       ?validate_and_update_state_at_end_of_format_string@?$positional_parameter_base@DV?$stream_output_adapter@D@__crt_stdio_output@@@__crt_stdio_output@@IAE_NXZ 10063590 f i libucrtd:output.obj
 0001:00062730       ?validate_and_update_state_at_end_of_format_string@?$positional_parameter_base@DV?$string_output_adapter@D@__crt_stdio_output@@@__crt_stdio_output@@IAE_NXZ 10063730 f i libucrtd:output.obj
 0001:000628d0       ?validate_and_update_state_at_end_of_format_string@?$positional_parameter_base@_WV?$stream_output_adapter@_W@__crt_stdio_output@@@__crt_stdio_output@@IAE_NXZ 100638d0 f i libucrtd:output.obj
 0001:00062a70       ?validate_and_update_state_at_end_of_format_string@?$positional_parameter_base@_WV?$string_output_adapter@_W@__crt_stdio_output@@@__crt_stdio_output@@IAE_NXZ 10063a70 f i libucrtd:output.obj
 0001:00062c10       ?validate_and_update_state_at_end_of_format_string@?$standard_base@DV?$stream_output_adapter@D@__crt_stdio_output@@@__crt_stdio_output@@IBE_NXZ 10063c10 f i libucrtd:output.obj
 0001:00062c20       ?validate_and_update_state_at_end_of_format_string@?$standard_base@DV?$string_output_adapter@D@__crt_stdio_output@@@__crt_stdio_output@@IBE_NXZ 10063c20 f i libucrtd:output.obj
 0001:00062c30       ?validate_and_update_state_at_end_of_format_string@?$standard_base@_WV?$stream_output_adapter@_W@__crt_stdio_output@@@__crt_stdio_output@@IBE_NXZ 10063c30 f i libucrtd:output.obj
 0001:00062c40       ?validate_and_update_state_at_end_of_format_string@?$standard_base@_WV?$string_output_adapter@_W@__crt_stdio_output@@@__crt_stdio_output@@IBE_NXZ 10063c40 f i libucrtd:output.obj
 0001:00062c50       ?validate_state_for_type_case_a@?$positional_parameter_base@DV?$stream_output_adapter@D@__crt_stdio_output@@@__crt_stdio_output@@IAE_NXZ 10063c50 f i libucrtd:output.obj
 0001:00062d40       ?validate_state_for_type_case_a@?$positional_parameter_base@DV?$string_output_adapter@D@__crt_stdio_output@@@__crt_stdio_output@@IAE_NXZ 10063d40 f i libucrtd:output.obj
 0001:00062e30       ?validate_state_for_type_case_a@?$positional_parameter_base@_WV?$stream_output_adapter@_W@__crt_stdio_output@@@__crt_stdio_output@@IAE_NXZ 10063e30 f i libucrtd:output.obj
 0001:00062f20       ?validate_state_for_type_case_a@?$positional_parameter_base@_WV?$string_output_adapter@_W@__crt_stdio_output@@@__crt_stdio_output@@IAE_NXZ 10063f20 f i libucrtd:output.obj
 0001:00063010       ?validate_state_for_type_case_a@?$standard_base@DV?$stream_output_adapter@D@__crt_stdio_output@@@__crt_stdio_output@@IBE_NXZ 10064010 f i libucrtd:output.obj
 0001:00063020       ?validate_state_for_type_case_a@?$standard_base@DV?$string_output_adapter@D@__crt_stdio_output@@@__crt_stdio_output@@IBE_NXZ 10064020 f i libucrtd:output.obj
 0001:00063030       ?validate_state_for_type_case_a@?$standard_base@_WV?$stream_output_adapter@_W@__crt_stdio_output@@@__crt_stdio_output@@IBE_NXZ 10064030 f i libucrtd:output.obj
 0001:00063040       ?validate_state_for_type_case_a@?$standard_base@_WV?$string_output_adapter@_W@__crt_stdio_output@@@__crt_stdio_output@@IBE_NXZ 10064040 f i libucrtd:output.obj
 0001:00063050       ?validate_stream_is_ansi_if_required@?$__acrt_stdio_char_traits@D@@SA_NQAU_iobuf@@@Z 10064050 f i libucrtd:output.obj
 0001:00063180       ?validate_stream_is_ansi_if_required@?$__acrt_stdio_char_traits@_W@@SA_NQAU_iobuf@@@Z 10064180 f i libucrtd:output.obj
 0001:00063190       ?wide_null_string@?$output_processor@DV?$stream_output_adapter@D@__crt_stdio_output@@V?$format_validation_base@DV?$stream_output_adapter@D@__crt_stdio_output@@@2@@__crt_stdio_output@@CAPA_WXZ 10064190 f i libucrtd:output.obj
 0001:000631a0       ?wide_null_string@?$output_processor@DV?$stream_output_adapter@D@__crt_stdio_output@@V?$positional_parameter_base@DV?$stream_output_adapter@D@__crt_stdio_output@@@2@@__crt_stdio_output@@CAPA_WXZ 100641a0 f i libucrtd:output.obj
 0001:000631b0       ?wide_null_string@?$output_processor@DV?$stream_output_adapter@D@__crt_stdio_output@@V?$standard_base@DV?$stream_output_adapter@D@__crt_stdio_output@@@2@@__crt_stdio_output@@CAPA_WXZ 100641b0 f i libucrtd:output.obj
 0001:000631c0       ?wide_null_string@?$output_processor@DV?$string_output_adapter@D@__crt_stdio_output@@V?$format_validation_base@DV?$string_output_adapter@D@__crt_stdio_output@@@2@@__crt_stdio_output@@CAPA_WXZ 100641c0 f i libucrtd:output.obj
 0001:000631d0       ?wide_null_string@?$output_processor@DV?$string_output_adapter@D@__crt_stdio_output@@V?$positional_parameter_base@DV?$string_output_adapter@D@__crt_stdio_output@@@2@@__crt_stdio_output@@CAPA_WXZ 100641d0 f i libucrtd:output.obj
 0001:000631e0       ?wide_null_string@?$output_processor@DV?$string_output_adapter@D@__crt_stdio_output@@V?$standard_base@DV?$string_output_adapter@D@__crt_stdio_output@@@2@@__crt_stdio_output@@CAPA_WXZ 100641e0 f i libucrtd:output.obj
 0001:000631f0       ?wide_null_string@?$output_processor@_WV?$stream_output_adapter@_W@__crt_stdio_output@@V?$format_validation_base@_WV?$stream_output_adapter@_W@__crt_stdio_output@@@2@@__crt_stdio_output@@CAPA_WXZ 100641f0 f i libucrtd:output.obj
 0001:00063200       ?wide_null_string@?$output_processor@_WV?$stream_output_adapter@_W@__crt_stdio_output@@V?$positional_parameter_base@_WV?$stream_output_adapter@_W@__crt_stdio_output@@@2@@__crt_stdio_output@@CAPA_WXZ 10064200 f i libucrtd:output.obj
 0001:00063210       ?wide_null_string@?$output_processor@_WV?$stream_output_adapter@_W@__crt_stdio_output@@V?$standard_base@_WV?$stream_output_adapter@_W@__crt_stdio_output@@@2@@__crt_stdio_output@@CAPA_WXZ 10064210 f i libucrtd:output.obj
 0001:00063220       ?wide_null_string@?$output_processor@_WV?$string_output_adapter@_W@__crt_stdio_output@@V?$format_validation_base@_WV?$string_output_adapter@_W@__crt_stdio_output@@@2@@__crt_stdio_output@@CAPA_WXZ 10064220 f i libucrtd:output.obj
 0001:00063230       ?wide_null_string@?$output_processor@_WV?$string_output_adapter@_W@__crt_stdio_output@@V?$positional_parameter_base@_WV?$string_output_adapter@_W@__crt_stdio_output@@@2@@__crt_stdio_output@@CAPA_WXZ 10064230 f i libucrtd:output.obj
 0001:00063240       ?wide_null_string@?$output_processor@_WV?$string_output_adapter@_W@__crt_stdio_output@@V?$standard_base@_WV?$string_output_adapter@_W@__crt_stdio_output@@@2@@__crt_stdio_output@@CAPA_WXZ 10064240 f i libucrtd:output.obj
 0001:00063250       ?write_character@?$stream_output_adapter@D@__crt_stdio_output@@QBEXDQAH@Z 10064250 f i libucrtd:output.obj
 0001:000632d0       ?write_character@?$stream_output_adapter@_W@__crt_stdio_output@@QBEX_WQAH@Z 100642d0 f i libucrtd:output.obj
 0001:00063350       ?write_character@?$string_output_adapter@D@__crt_stdio_output@@QBE_NDQAH@Z 10064350 f i libucrtd:output.obj
 0001:000633e0       ?write_character@?$string_output_adapter@_W@__crt_stdio_output@@QBE_N_WQAH@Z 100643e0 f i libucrtd:output.obj
 0001:00063480       ?write_stored_string_tchar@?$output_processor@DV?$stream_output_adapter@D@__crt_stdio_output@@V?$format_validation_base@DV?$stream_output_adapter@D@__crt_stdio_output@@@2@@__crt_stdio_output@@AAE_ND@Z 10064480 f i libucrtd:output.obj
 0001:00063590       ?write_stored_string_tchar@?$output_processor@DV?$stream_output_adapter@D@__crt_stdio_output@@V?$positional_parameter_base@DV?$stream_output_adapter@D@__crt_stdio_output@@@2@@__crt_stdio_output@@AAE_ND@Z 10064590 f i libucrtd:output.obj
 0001:000636a0       ?write_stored_string_tchar@?$output_processor@DV?$stream_output_adapter@D@__crt_stdio_output@@V?$standard_base@DV?$stream_output_adapter@D@__crt_stdio_output@@@2@@__crt_stdio_output@@AAE_ND@Z 100646a0 f i libucrtd:output.obj
 0001:000637b0       ?write_stored_string_tchar@?$output_processor@DV?$string_output_adapter@D@__crt_stdio_output@@V?$format_validation_base@DV?$string_output_adapter@D@__crt_stdio_output@@@2@@__crt_stdio_output@@AAE_ND@Z 100647b0 f i libucrtd:output.obj
 0001:000638c0       ?write_stored_string_tchar@?$output_processor@DV?$string_output_adapter@D@__crt_stdio_output@@V?$positional_parameter_base@DV?$string_output_adapter@D@__crt_stdio_output@@@2@@__crt_stdio_output@@AAE_ND@Z 100648c0 f i libucrtd:output.obj
 0001:000639d0       ?write_stored_string_tchar@?$output_processor@DV?$string_output_adapter@D@__crt_stdio_output@@V?$standard_base@DV?$string_output_adapter@D@__crt_stdio_output@@@2@@__crt_stdio_output@@AAE_ND@Z 100649d0 f i libucrtd:output.obj
 0001:00063ae0       ?write_stored_string_tchar@?$output_processor@_WV?$stream_output_adapter@_W@__crt_stdio_output@@V?$format_validation_base@_WV?$stream_output_adapter@_W@__crt_stdio_output@@@2@@__crt_stdio_output@@AAE_N_W@Z 10064ae0 f i libucrtd:output.obj
 0001:00063bd0       ?write_stored_string_tchar@?$output_processor@_WV?$stream_output_adapter@_W@__crt_stdio_output@@V?$positional_parameter_base@_WV?$stream_output_adapter@_W@__crt_stdio_output@@@2@@__crt_stdio_output@@AAE_N_W@Z 10064bd0 f i libucrtd:output.obj
 0001:00063cc0       ?write_stored_string_tchar@?$output_processor@_WV?$stream_output_adapter@_W@__crt_stdio_output@@V?$standard_base@_WV?$stream_output_adapter@_W@__crt_stdio_output@@@2@@__crt_stdio_output@@AAE_N_W@Z 10064cc0 f i libucrtd:output.obj
 0001:00063db0       ?write_stored_string_tchar@?$output_processor@_WV?$string_output_adapter@_W@__crt_stdio_output@@V?$format_validation_base@_WV?$string_output_adapter@_W@__crt_stdio_output@@@2@@__crt_stdio_output@@AAE_N_W@Z 10064db0 f i libucrtd:output.obj
 0001:00063ea0       ?write_stored_string_tchar@?$output_processor@_WV?$string_output_adapter@_W@__crt_stdio_output@@V?$positional_parameter_base@_WV?$string_output_adapter@_W@__crt_stdio_output@@@2@@__crt_stdio_output@@AAE_N_W@Z 10064ea0 f i libucrtd:output.obj
 0001:00063f90       ?write_stored_string_tchar@?$output_processor@_WV?$string_output_adapter@_W@__crt_stdio_output@@V?$standard_base@_WV?$string_output_adapter@_W@__crt_stdio_output@@@2@@__crt_stdio_output@@AAE_N_W@Z 10064f90 f i libucrtd:output.obj
 0001:00064080       ?write_string@?$stream_output_adapter@D@__crt_stdio_output@@QBEXQBDHQAH1@Z 10065080 f i libucrtd:output.obj
 0001:00064130       ?write_string@?$stream_output_adapter@_W@__crt_stdio_output@@QBEXQB_WHQAH1@Z 10065130 f i libucrtd:output.obj
 0001:000641f0       ?write_string@?$string_output_adapter@D@__crt_stdio_output@@QBEXQBDHQAH1@Z 100651f0 f i libucrtd:output.obj
 0001:00064300       ?write_string@?$string_output_adapter@_W@__crt_stdio_output@@QBEXQB_WHQAH1@Z 10065300 f i libucrtd:output.obj
 0001:00064420       ___acrt_isleadbyte_l_noupdate 10065420 f i libucrtd:output.obj
 0001:00064440       ___acrt_locale_changed     10065440 f i libucrtd:output.obj
 0001:00064470       ___stdio_common_vfprintf   10065470 f   libucrtd:output.obj
 0001:000644a0       ___stdio_common_vfprintf_p 100654a0 f   libucrtd:output.obj
 0001:000644d0       ___stdio_common_vfprintf_s 100654d0 f   libucrtd:output.obj
 0001:00064500       ___stdio_common_vfwprintf  10065500 f   libucrtd:output.obj
 0001:00064530       ___stdio_common_vfwprintf_p 10065530 f   libucrtd:output.obj
 0001:00064560       ___stdio_common_vfwprintf_s 10065560 f   libucrtd:output.obj
 0001:00064590       ___stdio_common_vsnprintf_s 10065590 f   libucrtd:output.obj
 0001:000645c0       ___stdio_common_vsnwprintf_s 100655c0 f   libucrtd:output.obj
 0001:000645f0       ___stdio_common_vsprintf   100655f0 f   libucrtd:output.obj
 0001:00064620       ___stdio_common_vsprintf_p 10065620 f   libucrtd:output.obj
 0001:00064650       ___stdio_common_vsprintf_s 10065650 f   libucrtd:output.obj
 0001:00064680       ___stdio_common_vswprintf  10065680 f   libucrtd:output.obj
 0001:000646b0       ___stdio_common_vswprintf_p 100656b0 f   libucrtd:output.obj
 0001:000646e0       ___stdio_common_vswprintf_s 100656e0 f   libucrtd:output.obj
 0001:00064710       _free                      10065710 f   libucrtd:free.obj
 0001:00064730       _malloc                    10065730 f   libucrtd:malloc.obj
 0001:00064750       ??$?RU?$__crt_report_hook_node@D@@@__crt_internal_free_policy@@QBEXQBU?$__crt_report_hook_node@D@@@Z 10065750 f i libucrtd:dbgrpt.obj
 0001:00064770       ??$?RU?$__crt_report_hook_node@_W@@@__crt_internal_free_policy@@QBEXQBU?$__crt_report_hook_node@_W@@@Z 10065770 f i libucrtd:dbgrpt.obj
 0001:00064790       ??$?RV<lambda_4385efabcfedf7d3ecea3114bb4d80a3>@@AAV<lambda_0e04737ef8baea6dabca2b8414b05b67>@@V<lambda_d865d276f220a9fa71140df531e906d8>@@@?$__crt_seh_guarded_call@H@@QAEH$$QAV<lambda_4385efabcfedf7d3ecea3114bb4d80a3>@@AAV<lambda_0e04737ef8baea6dabca2b8414b05b67>@@$$QAV<lambda_d865d276f220a9fa71140df531e906d8>@@@Z 10065790 f i libucrtd:dbgrpt.obj
 0001:00064820       ??$?RV<lambda_cc3a1c0f52e01ba2b29fe175588291fc>@@AAV<lambda_fe667bea668416e0f0232b481cd5c955>@@V<lambda_bb8fdd70844b93de4445abd0f0332611>@@@?$__crt_seh_guarded_call@H@@QAEH$$QAV<lambda_cc3a1c0f52e01ba2b29fe175588291fc>@@AAV<lambda_fe667bea668416e0f0232b481cd5c955>@@$$QAV<lambda_bb8fdd70844b93de4445abd0f0332611>@@@Z 10065820 f i libucrtd:dbgrpt.obj
 0001:000648b0       ??$__acrt_lock_and_call@V<lambda_0e04737ef8baea6dabca2b8414b05b67>@@@@YAHW4__acrt_lock_id@@$$QAV<lambda_0e04737ef8baea6dabca2b8414b05b67>@@@Z 100658b0 f i libucrtd:dbgrpt.obj
 0001:000648f0       ??$__acrt_lock_and_call@V<lambda_fe667bea668416e0f0232b481cd5c955>@@@@YAHW4__acrt_lock_id@@$$QAV<lambda_fe667bea668416e0f0232b481cd5c955>@@@Z 100658f0 f i libucrtd:dbgrpt.obj
 0001:00064930       ??$__vcrt_va_start_verify_argument_type@QBD@@YAXXZ 10065930 f i libucrtd:dbgrpt.obj
 0001:00064940       ??$__vcrt_va_start_verify_argument_type@QB_W@@YAXXZ 10065940 f i libucrtd:dbgrpt.obj
 0001:00065540       ??$get_module_file_name@AAPAUHINSTANCE__@@AAY0BAF@DK@?$__crt_char_traits@D@@SAKAAPAUHINSTANCE__@@AAY0BAF@D$$QAK@Z 10066540 f i libucrtd:dbgrpt.obj
 0001:00065560       ??$get_module_file_name@AAPAUHINSTANCE__@@AAY0BAF@_WK@?$__crt_char_traits@_W@@SAKAAPAUHINSTANCE__@@AAY0BAF@_W$$QAK@Z 10066560 f i libucrtd:dbgrpt.obj
 0001:00065580       ??$tcscpy_s@AAY0BAF@DIPBD@?$__crt_char_traits@D@@SAHAAY0BAF@D$$QAI$$QAPBD@Z 10066580 f i libucrtd:dbgrpt.obj
 0001:000655a0       ??$tcscpy_s@AAY0BAF@_WIPB_W@?$__crt_char_traits@_W@@SAHAAY0BAF@_W$$QAI$$QAPB_W@Z 100665a0 f i libucrtd:dbgrpt.obj
 0001:000655c0       ??$tcslen@AAY0BAF@D@?$__crt_char_traits@D@@SAIAAY0BAF@D@Z 100665c0 f i libucrtd:dbgrpt.obj
 0001:000655e0       ??$tcslen@AAY0BAF@_W@?$__crt_char_traits@_W@@SAIAAY0BAF@_W@Z 100665e0 f i libucrtd:dbgrpt.obj
 0001:00065600       ??$tcslen@ABQBD@?$__crt_char_traits@D@@SAIABQBD@Z 10066600 f i libucrtd:dbgrpt.obj
 0001:00065620       ??$tcslen@ABQB_W@?$__crt_char_traits@_W@@SAIABQB_W@Z 10066620 f i libucrtd:dbgrpt.obj
 0001:00065720       ??0?$__crt_unique_heap_ptr@U?$__crt_report_hook_node@D@@U__crt_internal_free_policy@@@@QAE@QAU?$__crt_report_hook_node@D@@@Z 10066720 f i libucrtd:dbgrpt.obj
 0001:00065740       ??0?$__crt_unique_heap_ptr@U?$__crt_report_hook_node@_W@@U__crt_internal_free_policy@@@@QAE@QAU?$__crt_report_hook_node@_W@@@Z 10066740 f i libucrtd:dbgrpt.obj
 0001:00065760       ??1?$__crt_unique_heap_ptr@U?$__crt_report_hook_node@D@@U__crt_internal_free_policy@@@@QAE@XZ 10066760 f i libucrtd:dbgrpt.obj
 0001:00065780       ??1?$__crt_unique_heap_ptr@U?$__crt_report_hook_node@_W@@U__crt_internal_free_policy@@@@QAE@XZ 10066780 f i libucrtd:dbgrpt.obj
 0001:000657a0       ??B?$__crt_unique_heap_ptr@U?$__crt_report_hook_node@D@@U__crt_internal_free_policy@@@@QBE_NXZ 100667a0 f i libucrtd:dbgrpt.obj
 0001:000657c0       ??B?$__crt_unique_heap_ptr@U?$__crt_report_hook_node@_W@@U__crt_internal_free_policy@@@@QBE_NXZ 100667c0 f i libucrtd:dbgrpt.obj
 0001:00065d00       ?detach@?$__crt_unique_heap_ptr@U?$__crt_report_hook_node@D@@U__crt_internal_free_policy@@@@QAEPAU?$__crt_report_hook_node@D@@XZ 10066d00 f i libucrtd:dbgrpt.obj
 0001:00065d30       ?detach@?$__crt_unique_heap_ptr@U?$__crt_report_hook_node@_W@@U__crt_internal_free_policy@@@@QAEPAU?$__crt_report_hook_node@_W@@XZ 10066d30 f i libucrtd:dbgrpt.obj
 0001:00065d60       ?get@?$__crt_unique_heap_ptr@U?$__crt_report_hook_node@D@@U__crt_internal_free_policy@@@@QBEPAU?$__crt_report_hook_node@D@@XZ 10066d60 f i libucrtd:dbgrpt.obj
 0001:00065d80       ?get@?$__crt_unique_heap_ptr@U?$__crt_report_hook_node@_W@@U__crt_internal_free_policy@@@@QBEPAU?$__crt_report_hook_node@_W@@XZ 10066d80 f i libucrtd:dbgrpt.obj
 0001:00065e00       ?is_valid@?$__crt_unique_heap_ptr@U?$__crt_report_hook_node@D@@U__crt_internal_free_policy@@@@QBE_NXZ 10066e00 f i libucrtd:dbgrpt.obj
 0001:00065e30       ?is_valid@?$__crt_unique_heap_ptr@U?$__crt_report_hook_node@_W@@U__crt_internal_free_policy@@@@QBE_NXZ 10066e30 f i libucrtd:dbgrpt.obj
 0001:00065e60       ?release@?$__crt_unique_heap_ptr@U?$__crt_report_hook_node@D@@U__crt_internal_free_policy@@@@QAEXXZ 10066e60 f i libucrtd:dbgrpt.obj
 0001:00065e90       ?release@?$__crt_unique_heap_ptr@U?$__crt_report_hook_node@_W@@U__crt_internal_free_policy@@@@QAEXXZ 10066e90 f i libucrtd:dbgrpt.obj
 0001:00065ec0       __CrtDbgReport             10066ec0 f   libucrtd:dbgrpt.obj
 0001:00065f10       __CrtDbgReportW            10066f10 f   libucrtd:dbgrpt.obj
 0001:00065f60       __CrtSetReportHook2        10066f60 f   libucrtd:dbgrpt.obj
 0001:00065f80       __CrtSetReportHookW2       10066f80 f   libucrtd:dbgrpt.obj
 0001:00065fa0       ___acrt_MessageWindowA     10066fa0 f   libucrtd:dbgrpt.obj
 0001:00065fd0       ___acrt_MessageWindowW     10066fd0 f   libucrtd:dbgrpt.obj
 0001:00066000       __invoke_watson_if_error   10067000 f i libucrtd:dbgrpt.obj
 0001:00066030       __invoke_watson_if_oneof   10067030 f i libucrtd:dbgrpt.obj
 0001:00066070       __snwprintf_s              10067070 f i libucrtd:dbgrpt.obj
 0001:000660c0       __vsnwprintf_s_l           100670c0 f i libucrtd:dbgrpt.obj
 0001:00066440       _wcscpy_s                  10067440 f   libucrtd:wcscpy_s.obj
 0001:00066460       _wcslen                    10067460 f   libucrtd:wcslen.obj
 0001:000664a0       ??$__crt_fast_decode_pointer@P6AXPB_W00II@Z@@YAP6AXPB_W00II@ZQ6AX000II@Z@Z 100674a0 f i libucrtd:invalid_parameter.obj
 0001:000664d0       ??$__crt_fast_encode_pointer@P6AXPB_W00II@Z@@YAP6AXPB_W00II@ZQ6AX000II@Z@Z 100674d0 f i libucrtd:invalid_parameter.obj
 0001:00066500       ?get_current_state_index@__crt_state_management@@YAIXZ 10067500 f i libucrtd:invalid_parameter.obj
 0001:00066510       ?initialize@?$dual_state_global@P6AXPB_W00II@Z@__crt_state_management@@QAEXQ6AXPB_W00II@Z@Z 10067510 f i libucrtd:invalid_parameter.obj
 0001:00066550       ?value@?$dual_state_global@P6AXPB_W00II@Z@__crt_state_management@@QAEAAP6AXPB_W00II@ZXZ 10067550 f i libucrtd:invalid_parameter.obj
 0001:00066570       ___acrt_call_reportfault   10067570 f   libucrtd:invalid_parameter.obj
 0001:000666d0       ___acrt_initialize_invalid_parameter_handler 100676d0 f   libucrtd:invalid_parameter.obj
 0001:000666f0       __get_invalid_parameter_handler 100676f0 f   libucrtd:invalid_parameter.obj
 0001:00066710       __get_thread_local_invalid_parameter_handler 10067710 f   libucrtd:invalid_parameter.obj
 0001:00066740       __invalid_parameter        10067740 f   libucrtd:invalid_parameter.obj
 0001:00066810       __invalid_parameter_noinfo 10067810 f   libucrtd:invalid_parameter.obj
 0001:00066830       __invalid_parameter_noinfo_noreturn 10067830 f   libucrtd:invalid_parameter.obj
 0001:00066860       __invoke_watson            10067860 f   libucrtd:invalid_parameter.obj
 0001:000668a0       __set_invalid_parameter_handler 100678a0 f   libucrtd:invalid_parameter.obj
 0001:000668f0       __set_thread_local_invalid_parameter_handler 100678f0 f   libucrtd:invalid_parameter.obj
 0001:00066920       ___acrt_errno_from_os_error 10067920 f   libucrtd:errno.obj
 0001:000669a0       ___acrt_errno_map_os_error 100679a0 f   libucrtd:errno.obj
 0001:000669d0       ___doserrno                100679d0 f   libucrtd:errno.obj
 0001:00066a00       __errno                    10067a00 f   libucrtd:errno.obj
 0001:00066a30       __get_doserrno             10067a30 f   libucrtd:errno.obj
 0001:00066ac0       __get_errno                10067ac0 f   libucrtd:errno.obj
 0001:00066b50       __set_doserrno             10067b50 f   libucrtd:errno.obj
 0001:00066b80       __set_errno                10067b80 f   libucrtd:errno.obj
 0001:00066bb0       _calloc                    10067bb0 f   libucrtd:calloc.obj
 0001:00066bd0       __recalloc                 10067bd0 f   libucrtd:recalloc.obj
 0001:00066c00       __recalloc_base            10067c00 f   libucrtd:recalloc.obj
 0001:00066c9a       __resetstkoflw             10067c9a f   libucrtd:resetstk.obj
 0001:00067190       _wcscat_s                  10068190 f   libucrtd:wcscat_s.obj
 0001:000675e0       _wcsncpy_s                 100685e0 f   libucrtd:wcsncpy_s.obj
 0001:00067620       ___acrt_get_locale_data_prefix 10068620 f i libucrtd:_ctype.obj
 0001:00067640       ___isascii                 10068640 f i libucrtd:_ctype.obj
 0001:00067670       ___iscsym                  10068670 f i libucrtd:_ctype.obj
 0001:000676b0       ___iscsymf                 100686b0 f i libucrtd:_ctype.obj
 0001:000676f0       ___toascii                 100686f0 f i libucrtd:_ctype.obj
 0001:00067700       __chvalidchk_l             10068700 f i libucrtd:_ctype.obj
 0001:00067720       __isalnum_l                10068720 f i libucrtd:_ctype.obj
 0001:00067760       __isalpha_l                10068760 f i libucrtd:_ctype.obj
 0001:000677a0       __isblank_l                100687a0 f i libucrtd:_ctype.obj
 0001:00067800       __ischartype_l             10068800 f i libucrtd:_ctype.obj
 0001:00067850       __iscntrl_l                10068850 f i libucrtd:_ctype.obj
 0001:00067890       __iscsym_l                 10068890 f i libucrtd:_ctype.obj
 0001:000678d0       __iscsymf_l                100688d0 f i libucrtd:_ctype.obj
 0001:00067910       __isdigit_l                10068910 f i libucrtd:_ctype.obj
 0001:00067950       __isgraph_l                10068950 f i libucrtd:_ctype.obj
 0001:00067990       __islower_l                10068990 f i libucrtd:_ctype.obj
 0001:000679d0       __isprint_l                100689d0 f i libucrtd:_ctype.obj
 0001:00067a10       __ispunct_l                10068a10 f i libucrtd:_ctype.obj
 0001:00067a50       __isspace_l                10068a50 f i libucrtd:_ctype.obj
 0001:00067a90       __isupper_l                10068a90 f i libucrtd:_ctype.obj
 0001:00067ad0       __isxdigit_l               10068ad0 f i libucrtd:_ctype.obj
 0001:00067b10       _isalnum                   10068b10 f i libucrtd:_ctype.obj
 0001:00067b50       _isalpha                   10068b50 f i libucrtd:_ctype.obj
 0001:00067b90       _isblank                   10068b90 f i libucrtd:_ctype.obj
 0001:00067bf0       _iscntrl                   10068bf0 f i libucrtd:_ctype.obj
 0001:00067c30       _isdigit                   10068c30 f i libucrtd:_ctype.obj
 0001:00067c70       _isgraph                   10068c70 f i libucrtd:_ctype.obj
 0001:00067cb0       _islower                   10068cb0 f i libucrtd:_ctype.obj
 0001:00067cf0       _isprint                   10068cf0 f i libucrtd:_ctype.obj
 0001:00067d30       _ispunct                   10068d30 f i libucrtd:_ctype.obj
 0001:00067d70       _isspace                   10068d70 f i libucrtd:_ctype.obj
 0001:00067db0       _isupper                   10068db0 f i libucrtd:_ctype.obj
 0001:00067df0       _isxdigit                  10068df0 f i libucrtd:_ctype.obj
 0001:00067e30       _wcscat                    10068e30 f   libucrtd:wcscat.obj
 0001:00067e90       _wcscpy                    10068e90 f   libucrtd:wcscpy.obj
 0001:00068520       ??$open_file@ABQBDABQBDABHPAU_iobuf@@@?$__crt_char_traits@D@@SAPAU_iobuf@@ABQBD0ABH$$QAPAU1@@Z 10069520 f i libucrtd:fopen.obj
 0001:00068550       ??$open_file@ABQB_WABQB_WABHPAU_iobuf@@@?$__crt_char_traits@_W@@SAPAU_iobuf@@ABQB_W0ABH$$QAPAU1@@Z 10069550 f i libucrtd:fopen.obj
 0001:00068580       ?unlock@__crt_stdio_stream@@QBEXXZ 10069580 f i libucrtd:fopen.obj
 0001:000685a0       __fsopen                   100695a0 f   libucrtd:fopen.obj
 0001:000685c0       __wfopen                   100695c0 f   libucrtd:fopen.obj
 0001:000685e0       __wfopen_s                 100695e0 f   libucrtd:fopen.obj
 0001:00068600       __wfsopen                  10069600 f   libucrtd:fopen.obj
 0001:00068620       _fopen                     10069620 f   libucrtd:fopen.obj
 0001:00068640       _fopen_s                   10069640 f   libucrtd:fopen.obj
 0001:00068660       ?is_in_use@__crt_stdio_stream@@QBE_NXZ 10069660 f i libucrtd:fclose.obj
 0001:000686a0       __fclose_nolock            100696a0 f   libucrtd:fclose.obj
 0001:000687e0       _fclose                    100697e0 f   libucrtd:fclose.obj
 0001:00068930       __fputc_nolock             10069930 f   libucrtd:fputc.obj
 0001:000689c0       __fputchar                 100699c0 f   libucrtd:fputc.obj
 0001:000689e0       __putc_nolock              100699e0 f   libucrtd:fputc.obj
 0001:00068a00       _fputc                     10069a00 f   libucrtd:fputc.obj
 0001:00068c40       _putc                      10069c40 f   libucrtd:fputc.obj
 0001:00068c60       _putchar                   10069c60 f   libucrtd:fputc.obj
 0001:00068cd0       __seh_filter_dll           10069cd0 f   libucrtd:exception_filter.obj
 0001:00068d00       __seh_filter_exe           10069d00 f   libucrtd:exception_filter.obj
 0001:00068f20       ??$?B$$A6GXPAXK0@Z@__crt_fast_encoded_nullptr_t@@QBEP6GXPAXK0@ZXZ 10069f20 f i libucrtd:exit.obj
 0001:00068f40       ??$__crt_fast_decode_pointer@P6GXPAXK0@Z@@YAP6GXPAXK0@ZQ6GX0K0@Z@Z 10069f40 f i libucrtd:exit.obj
 0001:00068f70       ??$__crt_fast_encode_pointer@P6GXPAXK0@Z@@YAP6GXPAXK0@ZQ6GX0K0@Z@Z 10069f70 f i libucrtd:exit.obj
 0001:00068fa0       ??$__crt_get_proc_address@P6GXI@Z@@YAP6GXI@ZQAUHINSTANCE__@@QBD@Z 10069fa0 f i libucrtd:exit.obj
 0001:00068fc0       ??0?$__crt_unique_handle_t@U__crt_hmodule_traits@@@@QAE@QAUHINSTANCE__@@@Z 10069fc0 f i libucrtd:exit.obj
 0001:00068fe0       ??1?$__crt_unique_handle_t@U__crt_hmodule_traits@@@@QAE@XZ 10069fe0 f i libucrtd:exit.obj
 0001:00069020       ?close@?$__crt_unique_handle_t@U__crt_hmodule_traits@@@@QAEXXZ 1006a020 f i libucrtd:exit.obj
 0001:00069060       ?close@__crt_hmodule_traits@@SA_NPAUHINSTANCE__@@@Z 1006a060 f i libucrtd:exit.obj
 0001:00069290       ?get@?$__crt_unique_handle_t@U__crt_hmodule_traits@@@@QBEPAUHINSTANCE__@@XZ 1006a290 f i libucrtd:exit.obj
 0001:000692b0       ?get_address_of@?$__crt_unique_handle_t@U__crt_hmodule_traits@@@@QAEPAPAUHINSTANCE__@@XZ 1006a2b0 f i libucrtd:exit.obj
 0001:000692c0       ?get_invalid_value@__crt_hmodule_traits@@SAPAUHINSTANCE__@@XZ 1006a2c0 f i libucrtd:exit.obj
 0001:00069450       __Exit                     1006a450 f   libucrtd:exit.obj
 0001:00069470       ___acrt_initialize_thread_local_exit_callback 1006a470 f   libucrtd:exit.obj
 0001:00069480       __c_exit                   1006a480 f   libucrtd:exit.obj
 0001:000694a0       __cexit                    1006a4a0 f   libucrtd:exit.obj
 0001:000694c0       __exit                     1006a4c0 f   libucrtd:exit.obj
 0001:000694e0       __is_c_termination_complete 1006a4e0 f   libucrtd:exit.obj
 0001:00069500       __register_thread_local_exe_atexit_callback 1006a500 f   libucrtd:exit.obj
 0001:00069540       _exit                      1006a540 f   libucrtd:exit.obj
 0001:00069560       _quick_exit                1006a560 f   libucrtd:exit.obj
 0001:00069580       ??$?RE@__crt_internal_free_policy@@QBEXQBE@Z 1006a580 f i libucrtd:argv_parsing.obj
 0001:000695a0       ??$?RPAD@__crt_internal_free_policy@@QBEXQBQAD@Z 1006a5a0 f i libucrtd:argv_parsing.obj
 0001:000695c0       ??$?RPA_W@__crt_internal_free_policy@@QBEXQBQA_W@Z 1006a5c0 f i libucrtd:argv_parsing.obj
 0001:00069b00       ??$get_module_file_name@$$TAAY0BAF@DH@?$__crt_char_traits@D@@SAK$$QA$$TAAY0BAF@D$$QAH@Z 1006ab00 f i libucrtd:argv_parsing.obj
 0001:00069b20       ??$get_module_file_name@$$TAAY0BAF@_WH@?$__crt_char_traits@_W@@SAK$$QA$$TAAY0BAF@_W$$QAH@Z 1006ab20 f i libucrtd:argv_parsing.obj
 0001:0006a240       ??$set_program_name@PAD@?$__crt_char_traits@D@@SAX$$QAPAD@Z 1006b240 f i libucrtd:argv_parsing.obj
 0001:0006a260       ??$set_program_name@PA_W@?$__crt_char_traits@_W@@SAX$$QAPA_W@Z 1006b260 f i libucrtd:argv_parsing.obj
 0001:0006a2c0       ??0?$__crt_unique_heap_ptr@EU__crt_internal_free_policy@@@@QAE@QAE@Z 1006b2c0 f i libucrtd:argv_parsing.obj
 0001:0006a2e0       ??0?$__crt_unique_heap_ptr@PADU__crt_internal_free_policy@@@@QAE@QAPAD@Z 1006b2e0 f i libucrtd:argv_parsing.obj
 0001:0006a300       ??0?$__crt_unique_heap_ptr@PA_WU__crt_internal_free_policy@@@@QAE@QAPA_W@Z 1006b300 f i libucrtd:argv_parsing.obj
 0001:0006a320       ??1?$__crt_unique_heap_ptr@EU__crt_internal_free_policy@@@@QAE@XZ 1006b320 f i libucrtd:argv_parsing.obj
 0001:0006a340       ??1?$__crt_unique_heap_ptr@PADU__crt_internal_free_policy@@@@QAE@XZ 1006b340 f i libucrtd:argv_parsing.obj
 0001:0006a360       ??1?$__crt_unique_heap_ptr@PA_WU__crt_internal_free_policy@@@@QAE@XZ 1006b360 f i libucrtd:argv_parsing.obj
 0001:0006a380       ??B?$__crt_unique_heap_ptr@EU__crt_internal_free_policy@@@@QBE_NXZ 1006b380 f i libucrtd:argv_parsing.obj
 0001:0006a440       ?detach@?$__crt_unique_heap_ptr@EU__crt_internal_free_policy@@@@QAEPAEXZ 1006b440 f i libucrtd:argv_parsing.obj
 0001:0006a470       ?detach@?$__crt_unique_heap_ptr@PADU__crt_internal_free_policy@@@@QAEPAPADXZ 1006b470 f i libucrtd:argv_parsing.obj
 0001:0006a4a0       ?detach@?$__crt_unique_heap_ptr@PA_WU__crt_internal_free_policy@@@@QAEPAPA_WXZ 1006b4a0 f i libucrtd:argv_parsing.obj
 0001:0006a530       ?get@?$__crt_unique_heap_ptr@EU__crt_internal_free_policy@@@@QBEPAEXZ 1006b530 f i libucrtd:argv_parsing.obj
 0001:0006a550       ?get@?$__crt_unique_heap_ptr@PADU__crt_internal_free_policy@@@@QBEPAPADXZ 1006b550 f i libucrtd:argv_parsing.obj
 0001:0006a570       ?get@?$__crt_unique_heap_ptr@PA_WU__crt_internal_free_policy@@@@QBEPAPA_WXZ 1006b570 f i libucrtd:argv_parsing.obj
 0001:0006a590       ?get_address_of@?$__crt_unique_heap_ptr@PADU__crt_internal_free_policy@@@@QAEPAPAPADXZ 1006b590 f i libucrtd:argv_parsing.obj
 0001:0006a5a0       ?get_address_of@?$__crt_unique_heap_ptr@PA_WU__crt_internal_free_policy@@@@QAEPAPAPA_WXZ 1006b5a0 f i libucrtd:argv_parsing.obj
 0001:0006a5f0       ?is_valid@?$__crt_unique_heap_ptr@EU__crt_internal_free_policy@@@@QBE_NXZ 1006b5f0 f i libucrtd:argv_parsing.obj
 0001:0006a620       ?release@?$__crt_unique_heap_ptr@EU__crt_internal_free_policy@@@@QAEXXZ 1006b620 f i libucrtd:argv_parsing.obj
 0001:0006a650       ?release@?$__crt_unique_heap_ptr@PADU__crt_internal_free_policy@@@@QAEXXZ 1006b650 f i libucrtd:argv_parsing.obj
 0001:0006a680       ?release@?$__crt_unique_heap_ptr@PA_WU__crt_internal_free_policy@@@@QAEXXZ 1006b680 f i libucrtd:argv_parsing.obj
 0001:0006a6f0       ___acrt_allocate_buffer_for_argv 1006b6f0 f   libucrtd:argv_parsing.obj
 0001:0006a7b0       __configure_narrow_argv    1006b7b0 f   libucrtd:argv_parsing.obj
 0001:0006a7d0       __configure_wide_argv      1006b7d0 f   libucrtd:argv_parsing.obj
 0001:0006a7f0       __set_pgmptr               1006b7f0 f i libucrtd:argv_parsing.obj
 0001:0006a800       __set_wpgmptr              1006b800 f i libucrtd:argv_parsing.obj
 0001:0006a80f       ??$?R_W@__crt_internal_free_policy@@QBEXQB_W@Z 1006b80f f i libucrtd:environment_initialization.obj
 0001:0006ac76       ??$get_environment_from_os@$$$V@?$__crt_char_traits@D@@SAPADXZ 1006bc76 f i libucrtd:environment_initialization.obj
 0001:0006ac7b       ??$get_environment_from_os@$$$V@?$__crt_char_traits@_W@@SAPA_WXZ 1006bc7b f i libucrtd:environment_initialization.obj
 0001:0006ad9c       ??$set_variable_in_environment_nolock@PADH@?$__crt_char_traits@D@@SAH$$QAPAD$$QAH@Z 1006bd9c f i libucrtd:environment_initialization.obj
 0001:0006adb4       ??$set_variable_in_environment_nolock@PA_WH@?$__crt_char_traits@_W@@SAH$$QAPA_W$$QAH@Z 1006bdb4 f i libucrtd:environment_initialization.obj
 0001:0006adcc       ??$tcscpy_s@PADABIAAPAD@?$__crt_char_traits@D@@SAH$$QAPADABIAAPAD@Z 1006bdcc f i libucrtd:environment_initialization.obj
 0001:0006adea       ??$tcscpy_s@PA_WABIAAPA_W@?$__crt_char_traits@_W@@SAH$$QAPA_WABIAAPA_W@Z 1006bdea f i libucrtd:environment_initialization.obj
 0001:0006ae08       ??$tcslen@AAPAD@?$__crt_char_traits@D@@SAIAAPAD@Z 1006be08 f i libucrtd:environment_initialization.obj
 0001:0006ae20       ??$tcslen@AAPA_W@?$__crt_char_traits@_W@@SAIAAPA_W@Z 1006be20 f i libucrtd:environment_initialization.obj
 0001:0006ae3e       ??$uninitialize@A6AXAAPAPAD@Z@?$dual_state_global@PAPAD@__crt_state_management@@QAEXA6AXAAPAPAD@Z@Z 1006be3e f i libucrtd:environment_initialization.obj
 0001:0006ae7e       ??$uninitialize@A6AXAAPAPA_W@Z@?$dual_state_global@PAPA_W@__crt_state_management@@QAEXA6AXAAPAPA_W@Z@Z 1006be7e f i libucrtd:environment_initialization.obj
 0001:0006aef4       ??0?$__crt_unique_heap_ptr@_WU__crt_internal_free_policy@@@@QAE@QA_W@Z 1006bef4 f i libucrtd:environment_initialization.obj
 0001:0006af04       ??1?$__crt_unique_heap_ptr@_WU__crt_internal_free_policy@@@@QAE@XZ 1006bf04 f i libucrtd:environment_initialization.obj
 0001:0006af19       ??B?$__crt_unique_heap_ptr@PADU__crt_internal_free_policy@@@@QBE_NXZ 1006bf19 f i libucrtd:environment_initialization.obj
 0001:0006af21       ??B?$__crt_unique_heap_ptr@PA_WU__crt_internal_free_policy@@@@QBE_NXZ 1006bf21 f i libucrtd:environment_initialization.obj
 0001:0006af29       ??B?$__crt_unique_heap_ptr@_WU__crt_internal_free_policy@@@@QBE_NXZ 1006bf29 f i libucrtd:environment_initialization.obj
 0001:0006af31       ?__crt_compute_required_transform_buffer_count@@YAIIQBD@Z 1006bf31 f i libucrtd:environment_initialization.obj
 0001:0006af4b       ?__crt_compute_required_transform_buffer_count@@YAIIQB_W@Z 1006bf4b f i libucrtd:environment_initialization.obj
 0001:0006af67       ?__crt_transform_string@@YAIIQBDQA_WI@Z 1006bf67 f i libucrtd:environment_initialization.obj
 0001:0006af84       ?__crt_transform_string@@YAIIQB_WQADI@Z 1006bf84 f i libucrtd:environment_initialization.obj
 0001:0006afa4       ?detach@?$__crt_unique_heap_ptr@DU__crt_internal_free_policy@@@@QAEPADXZ 1006bfa4 f i libucrtd:environment_initialization.obj
 0001:0006afaa       ?detach@?$__crt_unique_heap_ptr@_WU__crt_internal_free_policy@@@@QAEPA_WXZ 1006bfaa f i libucrtd:environment_initialization.obj
 0001:0006afb0       ?get@?$__crt_unique_heap_ptr@_WU__crt_internal_free_policy@@@@QBEPA_WXZ 1006bfb0 f i libucrtd:environment_initialization.obj
 0001:0006afd7       ?initialize@?$dual_state_global@PAPAD@__crt_state_management@@QAEXQAPAD@Z 1006bfd7 f i libucrtd:environment_initialization.obj
 0001:0006b008       ?initialize@?$dual_state_global@PAPA_W@__crt_state_management@@QAEXQAPA_W@Z 1006c008 f i libucrtd:environment_initialization.obj
 0001:0006b039       ?is_valid@?$__crt_unique_heap_ptr@PADU__crt_internal_free_policy@@@@QBE_NXZ 1006c039 f i libucrtd:environment_initialization.obj
 0001:0006b041       ?is_valid@?$__crt_unique_heap_ptr@PA_WU__crt_internal_free_policy@@@@QBE_NXZ 1006c041 f i libucrtd:environment_initialization.obj
 0001:0006b049       ?is_valid@?$__crt_unique_heap_ptr@_WU__crt_internal_free_policy@@@@QBE_NXZ 1006c049 f i libucrtd:environment_initialization.obj
 0001:0006b057       ?release@?$__crt_unique_heap_ptr@_WU__crt_internal_free_policy@@@@QAEXXZ 1006c057 f i libucrtd:environment_initialization.obj
 0001:0006b06c       ?value@?$dual_state_global@PAPAD@__crt_state_management@@QAEAAPAPADXZ 1006c06c f i libucrtd:environment_initialization.obj
 0001:0006b06f       ?value@?$dual_state_global@PAPA_W@__crt_state_management@@QAEAAPAPA_WXZ 1006c06f f i libucrtd:environment_initialization.obj
 0001:0006b072       ___dcrt_get_or_create_narrow_environment_nolock 1006c072 f   libucrtd:environment_initialization.obj
 0001:0006b077       ___dcrt_get_or_create_wide_environment_nolock 1006c077 f   libucrtd:environment_initialization.obj
 0001:0006b07c       ___dcrt_uninitialize_environments_nolock 1006c07c f   libucrtd:environment_initialization.obj
 0001:0006b0b3       ___p__environ              1006c0b3 f   libucrtd:environment_initialization.obj
 0001:0006b0b9       ___p__wenviron             1006c0b9 f   libucrtd:environment_initialization.obj
 0001:0006b0bf       __get_initial_narrow_environment 1006c0bf f   libucrtd:environment_initialization.obj
 0001:0006b0d3       __get_initial_wide_environment 1006c0d3 f   libucrtd:environment_initialization.obj
 0001:0006b0e7       __initialize_narrow_environment 1006c0e7 f   libucrtd:environment_initialization.obj
 0001:0006b0ec       __initialize_wide_environment 1006c0ec f   libucrtd:environment_initialization.obj
 0001:0006b100       ??$?BP6AXXZ@__crt_fast_encoded_nullptr_t@@QBEPAP6AXXZXZ 1006c100 f i libucrtd:onexit.obj
 0001:0006b120       ??$?RP6AXXZ@__crt_internal_free_policy@@QBEXQBQ6AXXZ@Z 1006c120 f i libucrtd:onexit.obj
 0001:0006b140       ??$?RV<lambda_821a00fc0e15a7fd532972332124005d>@@AAV<lambda_942beefa13ab35ff55f86422493ffd6a>@@V<lambda_3ab53bf64df1f1ff33dbc5b1929ce7a7>@@@?$__crt_seh_guarded_call@H@@QAEH$$QAV<lambda_821a00fc0e15a7fd532972332124005d>@@AAV<lambda_942beefa13ab35ff55f86422493ffd6a>@@$$QAV<lambda_3ab53bf64df1f1ff33dbc5b1929ce7a7>@@@Z 1006c140 f i libucrtd:onexit.obj
 0001:0006b1d0       ??$?RV<lambda_a12890e7f9ac9927a62bd0bbd5044c78>@@AAV<lambda_e971338317bfa523bb8920b43d823727>@@V<lambda_e618b16d59e79e236350cab8485990d2>@@@?$__crt_seh_guarded_call@H@@QAEH$$QAV<lambda_a12890e7f9ac9927a62bd0bbd5044c78>@@AAV<lambda_e971338317bfa523bb8920b43d823727>@@$$QAV<lambda_e618b16d59e79e236350cab8485990d2>@@@Z 1006c1d0 f i libucrtd:onexit.obj
 0001:0006b260       ??$__acrt_lock_and_call@V<lambda_942beefa13ab35ff55f86422493ffd6a>@@@@YAHW4__acrt_lock_id@@$$QAV<lambda_942beefa13ab35ff55f86422493ffd6a>@@@Z 1006c260 f i libucrtd:onexit.obj
 0001:0006b2a0       ??$__acrt_lock_and_call@V<lambda_e971338317bfa523bb8920b43d823727>@@@@YAHW4__acrt_lock_id@@$$QAV<lambda_e971338317bfa523bb8920b43d823727>@@@Z 1006c2a0 f i libucrtd:onexit.obj
 0001:0006b2e0       ??$__crt_fast_encode_pointer@P6AHXZ@@YAP6AHXZQ6AHXZ@Z 1006c2e0 f i libucrtd:onexit.obj
 0001:0006b3e0       ??0?$__crt_unique_heap_ptr@P6AXXZU__crt_internal_free_policy@@@@QAE@QAP6AXXZ@Z 1006c3e0 f i libucrtd:onexit.obj
 0001:0006b400       ??1?$__crt_unique_heap_ptr@P6AXXZU__crt_internal_free_policy@@@@QAE@XZ 1006c400 f i libucrtd:onexit.obj
 0001:0006b850       ?detach@?$__crt_unique_heap_ptr@P6AXXZU__crt_internal_free_policy@@@@QAEPAP6AXXZXZ 1006c850 f i libucrtd:onexit.obj
 0001:0006b880       ?release@?$__crt_unique_heap_ptr@P6AXXZU__crt_internal_free_policy@@@@QAEXXZ 1006c880 f i libucrtd:onexit.obj
 0001:0006b8b0       __crt_at_quick_exit        1006c8b0 f   libucrtd:onexit.obj
 0001:0006b8d0       __crt_atexit               1006c8d0 f   libucrtd:onexit.obj
 0001:0006b8f0       __execute_onexit_table     1006c8f0 f   libucrtd:onexit.obj
 0001:0006b920       __initialize_onexit_table  1006c920 f   libucrtd:onexit.obj
 0001:0006b980       __register_onexit_function 1006c980 f   libucrtd:onexit.obj
 0001:0006bbd0       ?initialize@?$dual_state_global@PAU__crt_locale_data@@@__crt_state_management@@QAEXQAU__crt_locale_data@@@Z 1006cbd0 f i libucrtd:initialization.obj
 0001:0006bc10       ___acrt_initialize         1006cc10 f   libucrtd:initialization.obj
 0001:0006bc30       ___acrt_thread_attach      1006cc30 f   libucrtd:initialization.obj
 0001:0006bc50       ___acrt_thread_detach      1006cc50 f   libucrtd:initialization.obj
 0001:0006bc60       ___acrt_uninitialize       1006cc60 f   libucrtd:initialization.obj
 0001:0006bc80       ___acrt_uninitialize_critical 1006cc80 f   libucrtd:initialization.obj
 0001:0006d530       __CrtCheckMemory           1006e530 f   libucrtd:debug_heap.obj
 0001:0006d6c0       __CrtDoForAllClientObjects 1006e6c0 f   libucrtd:debug_heap.obj
 0001:0006d820       __CrtDumpMemoryLeaks       1006e820 f   libucrtd:debug_heap.obj
 0001:0006d8c0       __CrtGetAllocHook          1006e8c0 f   libucrtd:debug_heap.obj
 0001:0006d8d0       __CrtGetDumpClient         1006e8d0 f   libucrtd:debug_heap.obj
 0001:0006d8e0       __CrtIsMemoryBlock         1006e8e0 f   libucrtd:debug_heap.obj
 0001:0006da30       __CrtIsValidHeapPointer    1006ea30 f   libucrtd:debug_heap.obj
 0001:0006da60       __CrtIsValidPointer        1006ea60 f   libucrtd:debug_heap.obj
 0001:0006da90       __CrtMemCheckpoint         1006ea90 f   libucrtd:debug_heap.obj
 0001:0006dcc0       __CrtMemDifference         1006ecc0 f   libucrtd:debug_heap.obj
 0001:0006df30       __CrtMemDumpAllObjectsSince 1006ef30 f   libucrtd:debug_heap.obj
 0001:0006dfd0       __CrtMemDumpStatistics     1006efd0 f   libucrtd:debug_heap.obj
 0001:0006e100       __CrtReportBlockType       1006f100 f   libucrtd:debug_heap.obj
 0001:0006e130       __CrtSetAllocHook          1006f130 f   libucrtd:debug_heap.obj
 0001:0006e150       __CrtSetBreakAlloc         1006f150 f   libucrtd:debug_heap.obj
 0001:0006e170       __CrtSetDbgBlockType       1006f170 f   libucrtd:debug_heap.obj
 0001:0006e250       __CrtSetDbgFlag            1006f250 f   libucrtd:debug_heap.obj
 0001:0006e3c0       __CrtSetDumpClient         1006f3c0 f   libucrtd:debug_heap.obj
 0001:0006e3e0       ___p__crtBreakAlloc        1006f3e0 f   libucrtd:debug_heap.obj
 0001:0006e3f0       ___p__crtDbgFlag           1006f3f0 f   libucrtd:debug_heap.obj
 0001:0006e400       __aligned_free_dbg         1006f400 f   libucrtd:debug_heap.obj
 0001:0006e4b0       __aligned_malloc_dbg       1006f4b0 f   libucrtd:debug_heap.obj
 0001:0006e4e0       __aligned_msize_dbg        1006f4e0 f   libucrtd:debug_heap.obj
 0001:0006e610       __aligned_offset_malloc_dbg 1006f610 f   libucrtd:debug_heap.obj
 0001:0006e7f0       __aligned_offset_realloc_dbg 1006f7f0 f   libucrtd:debug_heap.obj
 0001:0006eb00       __aligned_offset_recalloc_dbg 1006fb00 f   libucrtd:debug_heap.obj
 0001:0006ebc0       __aligned_realloc_dbg      1006fbc0 f   libucrtd:debug_heap.obj
 0001:0006ebf0       __aligned_recalloc_dbg     1006fbf0 f   libucrtd:debug_heap.obj
 0001:0006ec20       __calloc_dbg               1006fc20 f   libucrtd:debug_heap.obj
 0001:0006ec90       __expand_dbg               1006fc90 f   libucrtd:debug_heap.obj
 0001:0006edc0       __free_dbg                 1006fdc0 f   libucrtd:debug_heap.obj
 0001:0006ee70       __malloc_dbg               1006fe70 f   libucrtd:debug_heap.obj
 0001:0006ee90       __msize_dbg                1006fe90 f   libucrtd:debug_heap.obj
 0001:0006f020       __realloc_dbg              10070020 f   libucrtd:debug_heap.obj
 0001:0006f0c0       __recalloc_dbg             100700c0 f   libucrtd:debug_heap.obj
 0001:0006f170       __initterm                 10070170 f   libucrtd:initterm.obj
 0001:0006f1d0       __initterm_e               100701d0 f   libucrtd:initterm.obj
 0001:0006f550       _strcpy_s                  10070550 f   libucrtd:strcpy_s.obj
 0001:0006f980       _strcat_s                  10070980 f   libucrtd:strcat_s.obj
 0001:0006f9a0       ??$?B$$A6AHI@Z@__crt_fast_encoded_nullptr_t@@QBEP6AHI@ZXZ 100709a0 f i libucrtd:new_handler.obj
 0001:0006f9c0       ??$__crt_fast_decode_pointer@P6AHI@Z@@YAP6AHI@ZQ6AHI@Z@Z 100709c0 f i libucrtd:new_handler.obj
 0001:0006f9f0       ??$__crt_fast_encode_pointer@P6AHI@Z@@YAP6AHI@ZQ6AHI@Z@Z 100709f0 f i libucrtd:new_handler.obj
 0001:0006fa20       ?_set_new_handler@@YAP6AHI@ZH@Z 10070a20 f   libucrtd:new_handler.obj
 0001:0006fa80       ?initialize@?$dual_state_global@P6AHI@Z@__crt_state_management@@QAEXQ6AHI@Z@Z 10070a80 f i libucrtd:new_handler.obj
 0001:0006fac0       ?value@?$dual_state_global@P6AHI@Z@__crt_state_management@@QAEAAP6AHI@ZXZ 10070ac0 f i libucrtd:new_handler.obj
 0001:0006fae0       ___acrt_initialize_new_handler 10070ae0 f   libucrtd:new_handler.obj
 0001:0006fb00       __callnewh                 10070b00 f   libucrtd:new_handler.obj
 0001:0006fb60       __query_new_handler        10070b60 f   libucrtd:new_handler.obj
 0001:0006fbf0       __set_new_handler          10070bf0 f   libucrtd:new_handler.obj
 0001:0006fcd0       __get_terminate            10070cd0 f   libucrtd:terminate.obj
 0001:0006fcf0       _set_terminate             10070cf0 f   libucrtd:terminate.obj
 0001:0006fd20       _terminate                 10070d20 f   libucrtd:terminate.obj
 0001:00070700       __makepath                 10071700 f   libucrtd:makepath.obj
 0001:00070730       __makepath_s               10071730 f   libucrtd:makepath.obj
 0001:00070760       __wmakepath                10071760 f   libucrtd:makepath.obj
 0001:00070790       __wmakepath_s              10071790 f   libucrtd:makepath.obj
 0001:00072000       ??$tcsncpy_s@AAPADIAAPBDABI@?$__crt_char_traits@D@@SAHAAPAD$$QAIAAPBDABI@Z 10073000 f i libucrtd:splitpath.obj
 0001:00072030       ??$tcsncpy_s@AAPADIAAPBDH@?$__crt_char_traits@D@@SAHAAPAD$$QAIAAPBD$$QAH@Z 10073030 f i libucrtd:splitpath.obj
 0001:00072060       ??$tcsncpy_s@AAPA_WIAAPB_WABI@?$__crt_char_traits@_W@@SAHAAPA_W$$QAIAAPB_WABI@Z 10073060 f i libucrtd:splitpath.obj
 0001:00072090       ??$tcsncpy_s@AAPA_WIAAPB_WH@?$__crt_char_traits@_W@@SAHAAPA_W$$QAIAAPB_W$$QAH@Z 10073090 f i libucrtd:splitpath.obj
 0001:00072290       __splitpath                10073290 f   libucrtd:splitpath.obj
 0001:000722c0       __splitpath_s              100732c0 f   libucrtd:splitpath.obj
 0001:00072310       __wsplitpath               10073310 f   libucrtd:splitpath.obj
 0001:00072340       __wsplitpath_s             10073340 f   libucrtd:splitpath.obj
 0001:00072390       __set_abort_behavior       10073390 f   libucrtd:abort.obj
 0001:000723c0       _abort                     100733c0 f   libucrtd:abort.obj
 0001:00072430       _strcmp                    10073430 f   libucrtd:strcmp.obj
 0001:000724c0       _strlen                    100734c0 f   libucrtd:strlen.obj
 0001:00072550       _wcsncmp                   10073550 f   libucrtd:wcsncmp.obj
 0001:000725b0       ??$is_overflow_condition@K@__crt_strtox@@YA_NIK@Z 100735b0 f i libucrtd:atox.obj
 0001:00072610       ??$is_overflow_condition@_K@__crt_strtox@@YA_NI_K@Z 10073610 f i libucrtd:atox.obj
 0001:000726a0       ??$make_c_string_character_source@D$$T@__crt_strtox@@YA?AV?$c_string_character_source@D@0@QBD$$T@Z 100736a0 f i libucrtd:atox.obj
 0001:000726c0       ??$make_c_string_character_source@_W$$T@__crt_strtox@@YA?AV?$c_string_character_source@_W@0@QB_W$$T@Z 100736c0 f i libucrtd:atox.obj
 0001:000726e0       ??$parse_integer@KV?$c_string_character_source@D@__crt_strtox@@@__crt_strtox@@YAKQAU__crt_locale_pointers@@V?$c_string_character_source@D@0@H_N@Z 100736e0 f i libucrtd:atox.obj
 0001:00072a50       ??$parse_integer@KV?$c_string_character_source@_W@__crt_strtox@@@__crt_strtox@@YAKQAU__crt_locale_pointers@@V?$c_string_character_source@_W@0@H_N@Z 10073a50 f i libucrtd:atox.obj
 0001:00072dc0       ??$parse_integer@_KV?$c_string_character_source@D@__crt_strtox@@@__crt_strtox@@YA_KQAU__crt_locale_pointers@@V?$c_string_character_source@D@0@H_N@Z 10073dc0 f i libucrtd:atox.obj
 0001:000731e0       ??$parse_integer@_KV?$c_string_character_source@_W@__crt_strtox@@@__crt_strtox@@YA_KQAU__crt_locale_pointers@@V?$c_string_character_source@_W@0@H_N@Z 100741e0 f i libucrtd:atox.obj
 0001:00073610       ??$parse_integer_from_string@JD$$T@__crt_strtox@@YAJQBD$$THQAU__crt_locale_pointers@@@Z 10074610 f i libucrtd:atox.obj
 0001:00073650       ??$parse_integer_from_string@J_W$$T@__crt_strtox@@YAJQB_W$$THQAU__crt_locale_pointers@@@Z 10074650 f i libucrtd:atox.obj
 0001:00073690       ??$parse_integer_from_string@_JD$$T@__crt_strtox@@YA_JQBD$$THQAU__crt_locale_pointers@@@Z 10074690 f i libucrtd:atox.obj
 0001:000736d0       ??$parse_integer_from_string@_J_W$$T@__crt_strtox@@YA_JQB_W$$THQAU__crt_locale_pointers@@@Z 100746d0 f i libucrtd:atox.obj
 0001:00073710       ??0?$c_string_character_source@D@__crt_strtox@@QAE@QBDQAPBD@Z 10074710 f i libucrtd:atox.obj
 0001:00073750       ??0?$c_string_character_source@_W@__crt_strtox@@QAE@QB_WQAPB_W@Z 10074750 f i libucrtd:atox.obj
 0001:00073790       ??1?$c_string_character_source@D@__crt_strtox@@QAE@XZ 10074790 f i libucrtd:atox.obj
 0001:000737c0       ??1?$c_string_character_source@_W@__crt_strtox@@QAE@XZ 100747c0 f i libucrtd:atox.obj
 0001:000737f0       ?get@?$c_string_character_source@D@__crt_strtox@@QAEDXZ 100747f0 f i libucrtd:atox.obj
 0001:00073820       ?get@?$c_string_character_source@_W@__crt_strtox@@QAE_WXZ 10074820 f i libucrtd:atox.obj
 0001:00073850       ?is_space@__crt_strtox@@YA_NDQAU__crt_locale_pointers@@@Z 10074850 f i libucrtd:atox.obj
 0001:00073890       ?is_space@__crt_strtox@@YA_N_WPAU__crt_locale_pointers@@@Z 10074890 f i libucrtd:atox.obj
 0001:000738c0       ?maximum_signed_value@__crt_strtox@@YAJK@Z 100748c0 f i libucrtd:atox.obj
 0001:000738d0       ?maximum_signed_value@__crt_strtox@@YA_J_K@Z 100748d0 f i libucrtd:atox.obj
 0001:000738e0       ?minimum_signed_value@__crt_strtox@@YAJK@Z 100748e0 f i libucrtd:atox.obj
 0001:000738f0       ?minimum_signed_value@__crt_strtox@@YA_J_K@Z 100748f0 f i libucrtd:atox.obj
 0001:00073900       ?parse_digit@__crt_strtox@@YAID@Z 10074900 f i libucrtd:atox.obj
 0001:00073960       ?parse_digit@__crt_strtox@@YAI_W@Z 10074960 f i libucrtd:atox.obj
 0001:000739e0       ?restore_state@?$c_string_character_source@D@__crt_strtox@@QAE_NQBD@Z 100749e0 f i libucrtd:atox.obj
 0001:00073a00       ?restore_state@?$c_string_character_source@_W@__crt_strtox@@QAE_NQB_W@Z 10074a00 f i libucrtd:atox.obj
 0001:00073a20       ?save_state@?$c_string_character_source@D@__crt_strtox@@QBEPBDXZ 10074a20 f i libucrtd:atox.obj
 0001:00073a40       ?save_state@?$c_string_character_source@_W@__crt_strtox@@QBEPB_WXZ 10074a40 f i libucrtd:atox.obj
 0001:00073a60       ?unget@?$c_string_character_source@D@__crt_strtox@@QAEXD@Z 10074a60 f i libucrtd:atox.obj
 0001:00073b10       ?unget@?$c_string_character_source@_W@__crt_strtox@@QAEX_W@Z 10074b10 f i libucrtd:atox.obj
 0001:00073bc0       ?validate@?$c_string_character_source@D@__crt_strtox@@QBE_NXZ 10074bc0 f i libucrtd:atox.obj
 0001:00073c50       ?validate@?$c_string_character_source@_W@__crt_strtox@@QBE_NXZ 10074c50 f i libucrtd:atox.obj
 0001:00073ce0       ?wide_character_to_digit@__crt_strtox@@YAH_W@Z 10074ce0 f i libucrtd:atox.obj
 0001:00074010       __atoi64                   10075010 f   libucrtd:atox.obj
 0001:00074030       __atoi64_l                 10075030 f   libucrtd:atox.obj
 0001:00074050       __atoi_l                   10075050 f   libucrtd:atox.obj
 0001:00074070       __atol_l                   10075070 f   libucrtd:atox.obj
 0001:00074090       __atoll_l                  10075090 f   libucrtd:atox.obj
 0001:000740b0       __wtoi                     100750b0 f   libucrtd:atox.obj
 0001:000740d0       __wtoi64                   100750d0 f   libucrtd:atox.obj
 0001:000740f0       __wtoi64_l                 100750f0 f   libucrtd:atox.obj
 0001:00074110       __wtoi_l                   10075110 f   libucrtd:atox.obj
 0001:00074130       __wtol                     10075130 f   libucrtd:atox.obj
 0001:00074150       __wtol_l                   10075150 f   libucrtd:atox.obj
 0001:00074170       __wtoll                    10075170 f   libucrtd:atox.obj
 0001:00074190       __wtoll_l                  10075190 f   libucrtd:atox.obj
 0001:000741b0       _atoi                      100751b0 f   libucrtd:atox.obj
 0001:000741d0       _atol                      100751d0 f   libucrtd:atox.obj
 0001:000741f0       _atoll                     100751f0 f   libucrtd:atox.obj
 0001:00074210       _strncmp                   10075210 f   libucrtd:strncmp.obj
 0001:00074770       __tolower                  10075770 f   libucrtd:tolower_toupper.obj
 0001:00074780       __tolower_l                10075780 f   libucrtd:tolower_toupper.obj
 0001:000747a0       __toupper                  100757a0 f   libucrtd:tolower_toupper.obj
 0001:000747b0       __toupper_l                100757b0 f   libucrtd:tolower_toupper.obj
 0001:000747d0       _tolower                   100757d0 f   libucrtd:tolower_toupper.obj
 0001:00074830       _toupper                   10075830 f   libucrtd:tolower_toupper.obj
 0001:00074890       __CrtGetDebugFillThreshold 10075890 f   libucrtd:debug_fill_threshold.obj
 0001:000748a0       __CrtSetDebugFillThreshold 100758a0 f   libucrtd:debug_fill_threshold.obj
 0001:000748c0       ??$make_c_string_character_source@DPAPAD@__crt_strtox@@YA?AV?$c_string_character_source@D@0@QBDQAPAD@Z 100758c0 f i libucrtd:strtox.obj
 0001:000748e0       ??$make_c_string_character_source@_WPAPA_W@__crt_strtox@@YA?AV?$c_string_character_source@_W@0@QB_WQAPA_W@Z 100758e0 f i libucrtd:strtox.obj
 0001:00074900       ??$parse_integer_from_string@JDPAPAD@__crt_strtox@@YAJQBDQAPADHQAU__crt_locale_pointers@@@Z 10075900 f i libucrtd:strtox.obj
 0001:00074940       ??$parse_integer_from_string@J_WPAPA_W@__crt_strtox@@YAJQB_WQAPA_WHQAU__crt_locale_pointers@@@Z 10075940 f i libucrtd:strtox.obj
 0001:00074980       ??$parse_integer_from_string@KDPAPAD@__crt_strtox@@YAKQBDQAPADHQAU__crt_locale_pointers@@@Z 10075980 f i libucrtd:strtox.obj
 0001:000749c0       ??$parse_integer_from_string@K_WPAPA_W@__crt_strtox@@YAKQB_WQAPA_WHQAU__crt_locale_pointers@@@Z 100759c0 f i libucrtd:strtox.obj
 0001:00074a00       ??$parse_integer_from_string@_JDPAPAD@__crt_strtox@@YA_JQBDQAPADHQAU__crt_locale_pointers@@@Z 10075a00 f i libucrtd:strtox.obj
 0001:00074a40       ??$parse_integer_from_string@_J_WPAPA_W@__crt_strtox@@YA_JQB_WQAPA_WHQAU__crt_locale_pointers@@@Z 10075a40 f i libucrtd:strtox.obj
 0001:00074a80       ??$parse_integer_from_string@_KDPAPAD@__crt_strtox@@YA_KQBDQAPADHQAU__crt_locale_pointers@@@Z 10075a80 f i libucrtd:strtox.obj
 0001:00074ac0       ??$parse_integer_from_string@_K_WPAPA_W@__crt_strtox@@YA_KQB_WQAPA_WHQAU__crt_locale_pointers@@@Z 10075ac0 f i libucrtd:strtox.obj
 0001:00074b00       __strtoi64                 10075b00 f   libucrtd:strtox.obj
 0001:00074b20       __strtoi64_l               10075b20 f   libucrtd:strtox.obj
 0001:00074b40       __strtoimax_l              10075b40 f   libucrtd:strtox.obj
 0001:00074b60       __strtol_l                 10075b60 f   libucrtd:strtox.obj
 0001:00074b80       __strtoll_l                10075b80 f   libucrtd:strtox.obj
 0001:00074ba0       __strtoui64                10075ba0 f   libucrtd:strtox.obj
 0001:00074bc0       __strtoui64_l              10075bc0 f   libucrtd:strtox.obj
 0001:00074be0       __strtoul_l                10075be0 f   libucrtd:strtox.obj
 0001:00074c00       __strtoull_l               10075c00 f   libucrtd:strtox.obj
 0001:00074c20       __strtoumax_l              10075c20 f   libucrtd:strtox.obj
 0001:00074c40       __wcstoi64                 10075c40 f   libucrtd:strtox.obj
 0001:00074c60       __wcstoi64_l               10075c60 f   libucrtd:strtox.obj
 0001:00074c80       __wcstoimax_l              10075c80 f   libucrtd:strtox.obj
 0001:00074ca0       __wcstol_l                 10075ca0 f   libucrtd:strtox.obj
 0001:00074cc0       __wcstoll_l                10075cc0 f   libucrtd:strtox.obj
 0001:00074ce0       __wcstoui64                10075ce0 f   libucrtd:strtox.obj
 0001:00074d00       __wcstoui64_l              10075d00 f   libucrtd:strtox.obj
 0001:00074d20       __wcstoul_l                10075d20 f   libucrtd:strtox.obj
 0001:00074d40       __wcstoull_l               10075d40 f   libucrtd:strtox.obj
 0001:00074d60       __wcstoumax_l              10075d60 f   libucrtd:strtox.obj
 0001:00074d80       _strtoimax                 10075d80 f   libucrtd:strtox.obj
 0001:00074da0       _strtol                    10075da0 f   libucrtd:strtox.obj
 0001:00074dc0       _strtoll                   10075dc0 f   libucrtd:strtox.obj
 0001:00074de0       _strtoul                   10075de0 f   libucrtd:strtox.obj
 0001:00074e00       _strtoull                  10075e00 f   libucrtd:strtox.obj
 0001:00074e20       _strtoumax                 10075e20 f   libucrtd:strtox.obj
 0001:00074e40       _wcstoimax                 10075e40 f   libucrtd:strtox.obj
 0001:00074e60       _wcstol                    10075e60 f   libucrtd:strtox.obj
 0001:00074e80       _wcstoll                   10075e80 f   libucrtd:strtox.obj
 0001:00074ea0       _wcstoul                   10075ea0 f   libucrtd:strtox.obj
 0001:00074ec0       _wcstoull                  10075ec0 f   libucrtd:strtox.obj
 0001:00074ee0       _wcstoumax                 10075ee0 f   libucrtd:strtox.obj
 0001:00074f00       __mbtowc_l                 10075f00 f   libucrtd:mbtowc.obj
 0001:00075140       _mbtowc                    10076140 f   libucrtd:mbtowc.obj
 0001:00075160       __wctomb_l                 10076160 f   libucrtd:wctomb.obj
 0001:000751e0       __wctomb_s_l               100761e0 f   libucrtd:wctomb.obj
 0001:00075520       _wctomb                    10076520 f   libucrtd:wctomb.obj
 0001:00075570       _wctomb_s                  10076570 f   libucrtd:wctomb.obj
 0001:00075d70       ??1?$__crt_simd_cleanup_guard@$00@@QAE@XZ 10076d70 f i libucrtd:strnlen.obj
 0001:00075d80       ??1?$__crt_simd_cleanup_guard@$0A@@@QAE@XZ 10076d80 f i libucrtd:strnlen.obj
 0001:00075d90       ?compare_equals@?$__crt_simd_traits@$00E@@SA?AT__m256i@@T2@0@Z 10076d90 f i libucrtd:strnlen.obj
 0001:00075dd0       ?compare_equals@?$__crt_simd_traits@$00G@@SA?AT__m256i@@T2@0@Z 10076dd0 f i libucrtd:strnlen.obj
 0001:00075e10       ?compare_equals@?$__crt_simd_traits@$0A@E@@SA?AT__m128i@@T2@0@Z 10076e10 f i libucrtd:strnlen.obj
 0001:00075e50       ?compare_equals@?$__crt_simd_traits@$0A@G@@SA?AT__m128i@@T2@0@Z 10076e50 f i libucrtd:strnlen.obj
 0001:00075e90       ?compute_byte_mask@?$__crt_simd_pack_traits@$00@@SAHT__m256i@@@Z 10076e90 f i libucrtd:strnlen.obj
 0001:00075ec0       ?compute_byte_mask@?$__crt_simd_pack_traits@$0A@@@SAHT__m128i@@@Z 10076ec0 f i libucrtd:strnlen.obj
 0001:00075ef0       ?get_zero_pack@?$__crt_simd_pack_traits@$00@@SA?AT__m256i@@XZ 10076ef0 f i libucrtd:strnlen.obj
 0001:00075f20       ?get_zero_pack@?$__crt_simd_pack_traits@$0A@@@SA?AT__m128i@@XZ 10076f20 f i libucrtd:strnlen.obj
 0001:00075f50       _strnlen                   10076f50 f   libucrtd:strnlen.obj
 0001:00075f70       _wcsnlen                   10076f70 f   libucrtd:strnlen.obj
 0001:00075f90       ??$?RU__acrt_ptd@@@__crt_internal_free_policy@@QBEXQBU__acrt_ptd@@@Z 10076f90 f i libucrtd:per_thread_data.obj
 0001:00075fb0       ??$?RV<lambda_3518db117f0e7cdb002338c5d3c47b6c>@@AAV<lambda_b2ea41f6bbb362cd97d94c6828d90b61>@@V<lambda_abdedf541bb04549bc734292b4a045d4>@@@?$__crt_seh_guarded_call@X@@QAEX$$QAV<lambda_3518db117f0e7cdb002338c5d3c47b6c>@@AAV<lambda_b2ea41f6bbb362cd97d94c6828d90b61>@@$$QAV<lambda_abdedf541bb04549bc734292b4a045d4>@@@Z 10076fb0 f i libucrtd:per_thread_data.obj
 0001:00076030       ??$?RV<lambda_5b71d36f03204c0beab531769a5b5694>@@AAV<lambda_be2b3da3f62db62e9dad5dc70221a656>@@V<lambda_8f9ce462984622f9bf76b59e2aaaf805>@@@?$__crt_seh_guarded_call@X@@QAEX$$QAV<lambda_5b71d36f03204c0beab531769a5b5694>@@AAV<lambda_be2b3da3f62db62e9dad5dc70221a656>@@$$QAV<lambda_8f9ce462984622f9bf76b59e2aaaf805>@@@Z 10077030 f i libucrtd:per_thread_data.obj
 0001:000760b0       ??$?RV<lambda_952b238c83a62ef8e81c72265e1e9aa0>@@AAV<lambda_801f60a70ab65355beb13c41cbe335bb>@@V<lambda_84d84f98815add542a0d6e6ca338feb2>@@@?$__crt_seh_guarded_call@X@@QAEX$$QAV<lambda_952b238c83a62ef8e81c72265e1e9aa0>@@AAV<lambda_801f60a70ab65355beb13c41cbe335bb>@@$$QAV<lambda_84d84f98815add542a0d6e6ca338feb2>@@@Z 100770b0 f i libucrtd:per_thread_data.obj
 0001:00076130       ??$?RV<lambda_9df27f884b057bc3edfc946cb5b7cf47>@@AAV<lambda_e69574bed617af4e071282c136b37893>@@V<lambda_cc0d902bcbbeb830f749456577db4721>@@@?$__crt_seh_guarded_call@X@@QAEX$$QAV<lambda_9df27f884b057bc3edfc946cb5b7cf47>@@AAV<lambda_e69574bed617af4e071282c136b37893>@@$$QAV<lambda_cc0d902bcbbeb830f749456577db4721>@@@Z 10077130 f i libucrtd:per_thread_data.obj
 0001:000761b0       ??$__acrt_lock_and_call@V<lambda_801f60a70ab65355beb13c41cbe335bb>@@@@YAXW4__acrt_lock_id@@$$QAV<lambda_801f60a70ab65355beb13c41cbe335bb>@@@Z 100771b0 f i libucrtd:per_thread_data.obj
 0001:000761f0       ??$__acrt_lock_and_call@V<lambda_b2ea41f6bbb362cd97d94c6828d90b61>@@@@YAXW4__acrt_lock_id@@$$QAV<lambda_b2ea41f6bbb362cd97d94c6828d90b61>@@@Z 100771f0 f i libucrtd:per_thread_data.obj
 0001:00076230       ??$__acrt_lock_and_call@V<lambda_be2b3da3f62db62e9dad5dc70221a656>@@@@YAXW4__acrt_lock_id@@$$QAV<lambda_be2b3da3f62db62e9dad5dc70221a656>@@@Z 10077230 f i libucrtd:per_thread_data.obj
 0001:00076270       ??$__acrt_lock_and_call@V<lambda_e69574bed617af4e071282c136b37893>@@@@YAXW4__acrt_lock_id@@$$QAV<lambda_e69574bed617af4e071282c136b37893>@@@Z 10077270 f i libucrtd:per_thread_data.obj
 0001:00076440       ??0?$__crt_unique_heap_ptr@U__acrt_ptd@@U__crt_internal_free_policy@@@@QAE@QAU__acrt_ptd@@@Z 10077440 f i libucrtd:per_thread_data.obj
 0001:00076460       ??0__crt_scoped_get_last_error_reset@@QAE@XZ 10077460 f i libucrtd:per_thread_data.obj
 0001:00076480       ??1?$__crt_unique_heap_ptr@U__acrt_ptd@@U__crt_internal_free_policy@@@@QAE@XZ 10077480 f i libucrtd:per_thread_data.obj
 0001:000764a0       ??1__crt_scoped_get_last_error_reset@@QAE@XZ 100774a0 f i libucrtd:per_thread_data.obj
 0001:000764c0       ??B?$__crt_unique_heap_ptr@U__acrt_ptd@@U__crt_internal_free_policy@@@@QBE_NXZ 100774c0 f i libucrtd:per_thread_data.obj
 0001:000767a0       ?dangerous_get_state_array@?$dual_state_global@PAU__crt_locale_data@@@__crt_state_management@@QAEPAPAU__crt_locale_data@@XZ 100777a0 f i libucrtd:per_thread_data.obj
 0001:00076920       ?detach@?$__crt_unique_heap_ptr@U__acrt_ptd@@U__crt_internal_free_policy@@@@QAEPAU__acrt_ptd@@XZ 10077920 f i libucrtd:per_thread_data.obj
 0001:00076950       ?get@?$__crt_unique_heap_ptr@U__acrt_ptd@@U__crt_internal_free_policy@@@@QBEPAU__acrt_ptd@@XZ 10077950 f i libucrtd:per_thread_data.obj
 0001:00076a90       ?is_valid@?$__crt_unique_heap_ptr@U__acrt_ptd@@U__crt_internal_free_policy@@@@QBE_NXZ 10077a90 f i libucrtd:per_thread_data.obj
 0001:00076ac0       ?release@?$__crt_unique_heap_ptr@U__acrt_ptd@@U__crt_internal_free_policy@@@@QAEXXZ 10077ac0 f i libucrtd:per_thread_data.obj
 0001:00076bb0       ?value@?$dual_state_global@PAU__crt_locale_data@@@__crt_state_management@@QAEAAPAU__crt_locale_data@@XZ 10077bb0 f i libucrtd:per_thread_data.obj
 0001:00076bd0       ___acrt_freeptd            10077bd0 f   libucrtd:per_thread_data.obj
 0001:00076c00       ___acrt_getptd             10077c00 f   libucrtd:per_thread_data.obj
 0001:00076c20       ___acrt_getptd_noexit      10077c20 f   libucrtd:per_thread_data.obj
 0001:00076c30       ___acrt_initialize_ptd     10077c30 f   libucrtd:per_thread_data.obj
 0001:00076c70       ___acrt_uninitialize_ptd   10077c70 f   libucrtd:per_thread_data.obj
 0001:00076ca0       ___threadhandle            10077ca0 f   libucrtd:per_thread_data.obj
 0001:00076cb0       ___threadid                10077cb0 f   libucrtd:per_thread_data.obj
 0001:00076cc0       ___acrt_update_locale_info 10077cc0 f   libucrtd:locale_update.obj
 0001:00076d00       ___acrt_update_multibyte_info 10077d00 f   libucrtd:locale_update.obj
 0001:00076d30       ?__acrt_fp_classify@@YA?AW4__acrt_fp_class@@ABN@Z 10077d30 f i libucrtd:cvt.obj
 0001:00076e50       ?__acrt_fp_is_negative@@YA_NABN@Z 10077e50 f i libucrtd:cvt.obj
 0001:00077ef0       ?strrchr@@YAPADQADH@Z      10078ef0 f i libucrtd:cvt.obj
 0001:00077f10       ___acrt_fp_format          10078f10 f   libucrtd:cvt.obj
 0001:000783a0       __fputwc_nolock            100793a0 f   libucrtd:fputwc.obj
 0001:00078580       __fputwchar                10079580 f   libucrtd:fputwc.obj
 0001:000785a0       __putwc_nolock             100795a0 f   libucrtd:fputwc.obj
 0001:000785c0       _fputwc                    100795c0 f   libucrtd:fputwc.obj
 0001:000786d0       _putwc                     100796d0 f   libucrtd:fputwc.obj
 0001:000786f0       _putwchar                  100796f0 f   libucrtd:fputwc.obj
 0001:00078710       ?lowio_handle@__crt_stdio_stream@@QBEHXZ 10079710 f i libucrtd:fileno.obj
 0001:00078730       __fileno                   10079730 f   libucrtd:fileno.obj
 0001:000787d0       ??$?RPAU__crt_stdio_stream_data@@@__crt_internal_free_policy@@QBEXQBQAU__crt_stdio_stream_data@@@Z 100797d0 f i libucrtd:_file.obj
 0001:000787f0       ??0?$__crt_unique_heap_ptr@PAU__crt_stdio_stream_data@@U__crt_internal_free_policy@@@@QAE@QAPAU__crt_stdio_stream_data@@@Z 100797f0 f i libucrtd:_file.obj
 0001:00078810       ??1?$__crt_unique_heap_ptr@PAU__crt_stdio_stream_data@@U__crt_internal_free_policy@@@@QAE@XZ 10079810 f i libucrtd:_file.obj
 0001:00078830       ?detach@?$__crt_unique_heap_ptr@PAU__crt_stdio_stream_data@@U__crt_internal_free_policy@@@@QAEPAPAU__crt_stdio_stream_data@@XZ 10079830 f i libucrtd:_file.obj
 0001:00078860       ?release@?$__crt_unique_heap_ptr@PAU__crt_stdio_stream_data@@U__crt_internal_free_policy@@@@QAEXXZ 10079860 f i libucrtd:_file.obj
 0001:00078890       ___acrt_initialize_stdio   10079890 f   libucrtd:_file.obj
 0001:00078a00       ___acrt_iob_func           10079a00 f   libucrtd:_file.obj
 0001:00078a10       ___acrt_uninitialize_stdio 10079a10 f   libucrtd:_file.obj
 0001:00078a90       __get_stream_buffer_pointers 10079a90 f   libucrtd:_file.obj
 0001:00078b70       __lock_file                10079b70 f   libucrtd:_file.obj
 0001:00078ba0       __unlock_file              10079ba0 f   libucrtd:_file.obj
 0001:00078bd0       __get_printf_count_output  10079bd0 f   libucrtd:printf_count_output.obj
 0001:00078c00       __set_printf_count_output  10079c00 f   libucrtd:printf_count_output.obj
 0001:00078c60       ?has_any_buffer@__crt_stdio_stream@@QBE_NXZ 10079c60 f i libucrtd:_sftbuf.obj
 0001:00078c80       ?has_any_of@__crt_stdio_stream@@QBE_NJ@Z 10079c80 f i libucrtd:_sftbuf.obj
 0001:00078cc0       ?has_temporary_buffer@__crt_stdio_stream@@QBE_NXZ 10079cc0 f i libucrtd:_sftbuf.obj
 0001:00078ce0       ?set_flags@__crt_stdio_stream@@QBE_NJ@Z 10079ce0 f i libucrtd:_sftbuf.obj
 0001:00078d30       ?unset_flags@__crt_stdio_stream@@QBE_NJ@Z 10079d30 f i libucrtd:_sftbuf.obj
 0001:00078d80       ___acrt_stdio_begin_temporary_buffering_nolock 10079d80 f   libucrtd:_sftbuf.obj
 0001:00078f40       ___acrt_stdio_end_temporary_buffering_nolock 10079f40 f   libucrtd:_sftbuf.obj
 0001:00078fd0       ??$?RU__crt_locale_data@@@__crt_internal_free_policy@@QBEXQBU__crt_locale_data@@@Z 10079fd0 f i libucrtd:wsetlocale.obj
 0001:00078ff0       ??$?RU__crt_locale_pointers@@@__crt_internal_free_policy@@QBEXQBU__crt_locale_pointers@@@Z 10079ff0 f i libucrtd:wsetlocale.obj
 0001:00079010       ??$?RU__crt_multibyte_data@@@__crt_internal_free_policy@@QBEXQBU__crt_multibyte_data@@@Z 1007a010 f i libucrtd:wsetlocale.obj
 0001:00079030       ??$?RV<lambda_0f92d0c5a8007722f95b3b6c71cd8e3e>@@AAV<lambda_321f9d61c14d59ff00145e45db1313e0>@@V<lambda_3298c911d7b53f44106027a7fde9a80a>@@@?$__crt_seh_guarded_call@X@@QAEX$$QAV<lambda_0f92d0c5a8007722f95b3b6c71cd8e3e>@@AAV<lambda_321f9d61c14d59ff00145e45db1313e0>@@$$QAV<lambda_3298c911d7b53f44106027a7fde9a80a>@@@Z 1007a030 f i libucrtd:wsetlocale.obj
 0001:000790b0       ??$?RV<lambda_507d9fd6b66e39451a8852ba73f804a7>@@AAV<lambda_565169b3e3b494427ce1bebdd17b54ac>@@AAV<lambda_f51fe5fd7c79a33db34fc9310f277369>@@@?$__crt_seh_guarded_call@X@@QAEX$$QAV<lambda_507d9fd6b66e39451a8852ba73f804a7>@@AAV<lambda_565169b3e3b494427ce1bebdd17b54ac>@@AAV<lambda_f51fe5fd7c79a33db34fc9310f277369>@@@Z 1007a0b0 f i libucrtd:wsetlocale.obj
 0001:00079130       ??$?RV<lambda_76aaead6e312921abc834cb00a638bdd>@@AAV<lambda_176e34f99554166dd2fac165c457248c>@@V<lambda_998ee1c9f4290b119b936bcd6215875a>@@@?$__crt_seh_guarded_call@X@@QAEX$$QAV<lambda_76aaead6e312921abc834cb00a638bdd>@@AAV<lambda_176e34f99554166dd2fac165c457248c>@@$$QAV<lambda_998ee1c9f4290b119b936bcd6215875a>@@@Z 1007a130 f i libucrtd:wsetlocale.obj
 0001:000791b0       ??$?RV<lambda_c9469061b39d205f0f236529d4a41659>@@AAV<lambda_b7fb1a997d3ebc0cc0186c5835178808>@@V<lambda_14b92c79d699846b5cc916cd4cf280e4>@@@?$__crt_seh_guarded_call@X@@QAEX$$QAV<lambda_c9469061b39d205f0f236529d4a41659>@@AAV<lambda_b7fb1a997d3ebc0cc0186c5835178808>@@$$QAV<lambda_14b92c79d699846b5cc916cd4cf280e4>@@@Z 1007a1b0 f i libucrtd:wsetlocale.obj
 0001:00079230       ??$__acrt_lock_and_call@V<lambda_176e34f99554166dd2fac165c457248c>@@@@YAXW4__acrt_lock_id@@$$QAV<lambda_176e34f99554166dd2fac165c457248c>@@@Z 1007a230 f i libucrtd:wsetlocale.obj
 0001:00079270       ??$__acrt_lock_and_call@V<lambda_321f9d61c14d59ff00145e45db1313e0>@@@@YAXW4__acrt_lock_id@@$$QAV<lambda_321f9d61c14d59ff00145e45db1313e0>@@@Z 1007a270 f i libucrtd:wsetlocale.obj
 0001:000792b0       ??$__acrt_lock_and_call@V<lambda_b7fb1a997d3ebc0cc0186c5835178808>@@@@YAXW4__acrt_lock_id@@$$QAV<lambda_b7fb1a997d3ebc0cc0186c5835178808>@@@Z 1007a2b0 f i libucrtd:wsetlocale.obj
 0001:000792f0       ??$__crt_call_and_cleanup@V<lambda_565169b3e3b494427ce1bebdd17b54ac>@@V<lambda_f51fe5fd7c79a33db34fc9310f277369>@@@@YAX$$QAV<lambda_565169b3e3b494427ce1bebdd17b54ac>@@$$QAV<lambda_f51fe5fd7c79a33db34fc9310f277369>@@@Z 1007a2f0 f i libucrtd:wsetlocale.obj
 0001:00079320       ??$__vcrt_va_start_verify_argument_type@H@@YAXXZ 1007a320 f i libucrtd:wsetlocale.obj
 0001:000794d0       ??0?$__crt_unique_heap_ptr@U__crt_locale_data@@U__crt_internal_free_policy@@@@QAE@QAU__crt_locale_data@@@Z 1007a4d0 f i libucrtd:wsetlocale.obj
 0001:000794f0       ??0?$__crt_unique_heap_ptr@U__crt_locale_pointers@@U__crt_internal_free_policy@@@@QAE@QAU__crt_locale_pointers@@@Z 1007a4f0 f i libucrtd:wsetlocale.obj
 0001:00079510       ??0?$__crt_unique_heap_ptr@U__crt_multibyte_data@@U__crt_internal_free_policy@@@@QAE@QAU__crt_multibyte_data@@@Z 1007a510 f i libucrtd:wsetlocale.obj
 0001:00079530       ??1?$__crt_unique_heap_ptr@U__crt_locale_data@@U__crt_internal_free_policy@@@@QAE@XZ 1007a530 f i libucrtd:wsetlocale.obj
 0001:00079550       ??1?$__crt_unique_heap_ptr@U__crt_locale_pointers@@U__crt_internal_free_policy@@@@QAE@XZ 1007a550 f i libucrtd:wsetlocale.obj
 0001:00079570       ??1?$__crt_unique_heap_ptr@U__crt_multibyte_data@@U__crt_internal_free_policy@@@@QAE@XZ 1007a570 f i libucrtd:wsetlocale.obj
 0001:00079590       ??B?$__crt_unique_heap_ptr@U__crt_locale_data@@U__crt_internal_free_policy@@@@QBE_NXZ 1007a590 f i libucrtd:wsetlocale.obj
 0001:000795b0       ??B?$__crt_unique_heap_ptr@U__crt_locale_pointers@@U__crt_internal_free_policy@@@@QBE_NXZ 1007a5b0 f i libucrtd:wsetlocale.obj
 0001:000795d0       ??B?$__crt_unique_heap_ptr@U__crt_multibyte_data@@U__crt_internal_free_policy@@@@QBE_NXZ 1007a5d0 f i libucrtd:wsetlocale.obj
 0001:00079910       ?detach@?$__crt_unique_heap_ptr@U__crt_locale_data@@U__crt_internal_free_policy@@@@QAEPAU__crt_locale_data@@XZ 1007a910 f i libucrtd:wsetlocale.obj
 0001:00079940       ?detach@?$__crt_unique_heap_ptr@U__crt_locale_pointers@@U__crt_internal_free_policy@@@@QAEPAU__crt_locale_pointers@@XZ 1007a940 f i libucrtd:wsetlocale.obj
 0001:00079970       ?detach@?$__crt_unique_heap_ptr@U__crt_multibyte_data@@U__crt_internal_free_policy@@@@QAEPAU__crt_multibyte_data@@XZ 1007a970 f i libucrtd:wsetlocale.obj
 0001:000799a0       ?get@?$__crt_unique_heap_ptr@U__crt_locale_data@@U__crt_internal_free_policy@@@@QBEPAU__crt_locale_data@@XZ 1007a9a0 f i libucrtd:wsetlocale.obj
 0001:000799c0       ?get@?$__crt_unique_heap_ptr@U__crt_locale_pointers@@U__crt_internal_free_policy@@@@QBEPAU__crt_locale_pointers@@XZ 1007a9c0 f i libucrtd:wsetlocale.obj
 0001:000799e0       ?get@?$__crt_unique_heap_ptr@U__crt_multibyte_data@@U__crt_internal_free_policy@@@@QBEPAU__crt_multibyte_data@@XZ 1007a9e0 f i libucrtd:wsetlocale.obj
 0001:00079a00       ?is_valid@?$__crt_unique_heap_ptr@U__crt_locale_data@@U__crt_internal_free_policy@@@@QBE_NXZ 1007aa00 f i libucrtd:wsetlocale.obj
 0001:00079a30       ?is_valid@?$__crt_unique_heap_ptr@U__crt_locale_pointers@@U__crt_internal_free_policy@@@@QBE_NXZ 1007aa30 f i libucrtd:wsetlocale.obj
 0001:00079a60       ?is_valid@?$__crt_unique_heap_ptr@U__crt_multibyte_data@@U__crt_internal_free_policy@@@@QBE_NXZ 1007aa60 f i libucrtd:wsetlocale.obj
 0001:00079a90       ?release@?$__crt_unique_heap_ptr@U__crt_locale_data@@U__crt_internal_free_policy@@@@QAEXXZ 1007aa90 f i libucrtd:wsetlocale.obj
 0001:00079ac0       ?release@?$__crt_unique_heap_ptr@U__crt_locale_pointers@@U__crt_internal_free_policy@@@@QAEXXZ 1007aac0 f i libucrtd:wsetlocale.obj
 0001:00079af0       ?release@?$__crt_unique_heap_ptr@U__crt_multibyte_data@@U__crt_internal_free_policy@@@@QAEXXZ 1007aaf0 f i libucrtd:wsetlocale.obj
 0001:00079b20       ___acrt_copy_locale_name   1007ab20 f   libucrtd:wsetlocale.obj
 0001:00079bc0       ___acrt_set_locale_changed 1007abc0 f   libucrtd:wsetlocale.obj
 0001:00079be0       ___acrt_uninitialize_locale 1007abe0 f   libucrtd:wsetlocale.obj
 0001:00079c90       ___lc_lctowcs              1007ac90 f   libucrtd:wsetlocale.obj
 0001:00079d40       ___lc_wcstolc              1007ad40 f   libucrtd:wsetlocale.obj
 0001:00079f60       __configthreadlocale       1007af60 f   libucrtd:wsetlocale.obj
 0001:0007a0e0       __create_locale            1007b0e0 f   libucrtd:wsetlocale.obj
 0001:0007a150       __expandlocale             1007b150 f   libucrtd:wsetlocale.obj
 0001:0007a620       __free_locale              1007b620 f   libucrtd:wsetlocale.obj
 0001:0007a750       __get_current_locale       1007b750 f   libucrtd:wsetlocale.obj
 0001:0007a820       __wcreate_locale           1007b820 f   libucrtd:wsetlocale.obj
 0001:0007aa60       __wcscats                  1007ba60 f   libucrtd:wsetlocale.obj
 0001:0007aae0       __wsetlocale               1007bae0 f   libucrtd:wsetlocale.obj
 0001:0007ba30       ___p___mb_cur_max          1007ca30 f   libucrtd:nlsdata.obj
 0001:0007bd30       ___acrt_initialize_lowio   1007cd30 f   libucrtd:ioinit.obj
 0001:0007bdd0       ___acrt_uninitialize_lowio 1007cdd0 f   libucrtd:ioinit.obj
 0001:0007be30       __CrtGetReportHook         1007ce30 f   libucrtd:dbgrptt.obj
 0001:0007be40       __CrtSetReportFile         1007ce40 f   libucrtd:dbgrptt.obj
 0001:0007bf40       __CrtSetReportHook         1007cf40 f   libucrtd:dbgrptt.obj
 0001:0007bf60       __CrtSetReportMode         1007cf60 f   libucrtd:dbgrptt.obj
 0001:0007c0a0       __VCrtDbgReportA           1007d0a0 f   libucrtd:dbgrptt.obj
 0001:0007c940       __VCrtDbgReportW           1007d940 f   libucrtd:dbgrptt.obj
 0001:0007d300       __snprintf_s               1007e300 f i libucrtd:dbgrptt.obj
 0001:0007d350       __vsnprintf_s              1007e350 f i libucrtd:dbgrptt.obj
 0001:0007d380       __vsnprintf_s_l            1007e380 f i libucrtd:dbgrptt.obj
 0001:0007d3e0       __vsnwprintf_s             1007e3e0 f i libucrtd:dbgrptt.obj
 0001:0007d710       ??$message_box@$$TAAPBDAAPBDAAI@?$__crt_char_traits@D@@SAH$$QA$$TAAPBD1AAI@Z 1007e710 f i libucrtd:crtmbox.obj
 0001:0007d740       ??$message_box@$$TAAPB_WAAPB_WAAI@?$__crt_char_traits@_W@@SAH$$QA$$TAAPB_W1AAI@Z 1007e740 f i libucrtd:crtmbox.obj
 0001:0007d770       ??$message_box@$$TABQBDABQBDK@?$__crt_char_traits@D@@SAH$$QA$$TABQBD1$$QAK@Z 1007e770 f i libucrtd:crtmbox.obj
 0001:0007d7a0       ??$message_box@$$TABQB_WABQB_WK@?$__crt_char_traits@_W@@SAH$$QA$$TABQB_W1$$QAK@Z 1007e7a0 f i libucrtd:crtmbox.obj
 0001:0007d7d0       ??$message_box@PAUHWND__@@ABQBDABQBDABI@?$__crt_char_traits@D@@SAH$$QAPAUHWND__@@ABQBD1ABI@Z 1007e7d0 f i libucrtd:crtmbox.obj
 0001:0007d800       ??$message_box@PAUHWND__@@ABQB_WABQB_WABI@?$__crt_char_traits@_W@@SAH$$QAPAUHWND__@@ABQB_W1ABI@Z 1007e800 f i libucrtd:crtmbox.obj
 0001:0007d8d0       ??$output_debug_string@ABQBD@?$__crt_char_traits@D@@SAXABQBD@Z 1007e8d0 f i libucrtd:crtmbox.obj
 0001:0007d8f0       ??$output_debug_string@ABQB_W@?$__crt_char_traits@_W@@SAXABQB_W@Z 1007e8f0 f i libucrtd:crtmbox.obj
 0001:0007d910       ??0?$__crt_unique_handle_t@U__crt_handle_traits@@@@QAE@QAX@Z 1007e910 f i libucrtd:crtmbox.obj
 0001:0007d930       ??1?$__crt_unique_handle_t@U__crt_handle_traits@@@@QAE@XZ 1007e930 f i libucrtd:crtmbox.obj
 0001:0007d950       ??B?$__crt_unique_handle_t@U__crt_handle_traits@@@@QBE_NXZ 1007e950 f i libucrtd:crtmbox.obj
 0001:0007d970       ?close@?$__crt_unique_handle_t@U__crt_handle_traits@@@@QAEXXZ 1007e970 f i libucrtd:crtmbox.obj
 0001:0007d9b0       ?close@__crt_handle_traits@@SA_NPAX@Z 1007e9b0 f i libucrtd:crtmbox.obj
 0001:0007d9e0       ?get@?$__crt_unique_handle_t@U__crt_handle_traits@@@@QBEPAXXZ 1007e9e0 f i libucrtd:crtmbox.obj
 0001:0007da00       ?get_invalid_value@__crt_handle_traits@@SAPAXXZ 1007ea00 f i libucrtd:crtmbox.obj
 0001:0007da10       ?is_valid@?$__crt_unique_handle_t@U__crt_handle_traits@@@@QBE_NXZ 1007ea10 f i libucrtd:crtmbox.obj
 0001:0007da40       ___acrt_show_narrow_message_box 1007ea40 f   libucrtd:crtmbox.obj
 0001:0007da60       ___acrt_show_wide_message_box 1007ea60 f   libucrtd:crtmbox.obj
 0001:0007da80       ___acrt_initialize_locks   1007ea80 f   libucrtd:locks.obj
 0001:0007dae0       ___acrt_lock               1007eae0 f   libucrtd:locks.obj
 0001:0007db00       ___acrt_uninitialize_locks 1007eb00 f   libucrtd:locks.obj
 0001:0007db50       ___acrt_unlock             1007eb50 f   libucrtd:locks.obj
 0001:0007db70       __lock_locales             1007eb70 f   libucrtd:locks.obj
 0001:0007db90       __unlock_locales           1007eb90 f   libucrtd:locks.obj
 0001:0007dbb0       ??$?B$$A6AXH@Z@__crt_fast_encoded_nullptr_t@@QBEP6AXH@ZXZ 1007ebb0 f i libucrtd:signal.obj
 0001:0007dbd0       ??$?RV<lambda_a048d3beccc847880fc8490e18b82769>@@AAV<lambda_ec61778202f4f5fc7e7711acc23c3bca>@@V<lambda_f7496a158712204296dd6628a163878e>@@@?$__crt_seh_guarded_call@P6AXH@Z@@QAEP6AXH@Z$$QAV<lambda_a048d3beccc847880fc8490e18b82769>@@AAV<lambda_ec61778202f4f5fc7e7711acc23c3bca>@@$$QAV<lambda_f7496a158712204296dd6628a163878e>@@@Z 1007ebd0 f i libucrtd:signal.obj
 0001:0007dc60       ??$__acrt_lock_and_call@V<lambda_ec61778202f4f5fc7e7711acc23c3bca>@@@@YAP6AXH@ZW4__acrt_lock_id@@$$QAV<lambda_ec61778202f4f5fc7e7711acc23c3bca>@@@Z 1007ec60 f i libucrtd:signal.obj
 0001:0007dca0       ??$__crt_fast_decode_pointer@P6AXH@Z@@YAP6AXH@ZQ6AXH@Z@Z 1007eca0 f i libucrtd:signal.obj
 0001:0007dcd0       ??$__crt_fast_encode_pointer@P6AXH@Z@@YAP6AXH@ZQ6AXH@Z@Z 1007ecd0 f i libucrtd:signal.obj
 0001:0007df90       ?initialize@?$dual_state_global@P6AXH@Z@__crt_state_management@@QAEXQ6AXH@Z@Z 1007ef90 f i libucrtd:signal.obj
 0001:0007e070       ?value@?$dual_state_global@P6AXH@Z@__crt_state_management@@QAEAAP6AXH@ZXZ 1007f070 f i libucrtd:signal.obj
 0001:0007e090       ___acrt_get_sigabrt_handler 1007f090 f   libucrtd:signal.obj
 0001:0007e0b0       ___acrt_initialize_signal_handlers 1007f0b0 f   libucrtd:signal.obj
 0001:0007e0f0       ___fpecode                 1007f0f0 f   libucrtd:signal.obj
 0001:0007e100       ___pxcptinfoptrs           1007f100 f   libucrtd:signal.obj
 0001:0007e110       _raise                     1007f110 f   libucrtd:signal.obj
 0001:0007e4f0       _signal                    1007f4f0 f   libucrtd:signal.obj
 0001:0007e780       __msize                    1007f780 f   libucrtd:msize.obj
 0001:0007e7a0       __realloc_base             1007f7a0 f   libucrtd:realloc_base.obj
 0001:0007e890       ??$?B$$A6GHPA_WKJ@Z@__crt_fast_encoded_nullptr_t@@QBEP6GHPA_WKJ@ZXZ 1007f890 f i libucrtd:winapi_thunks.obj
 0001:0007e8b0       ??$?RV<lambda_9227be29367c048ad7fd93a717dcb1a1>@@AAV<lambda_a463b7b0560cfcaf9b17f27c6ef46564>@@V<lambda_ccea11b5727ccf69be64f5f5d9a08d9f>@@@?$__crt_seh_guarded_call@H@@QAEH$$QAV<lambda_9227be29367c048ad7fd93a717dcb1a1>@@AAV<lambda_a463b7b0560cfcaf9b17f27c6ef46564>@@$$QAV<lambda_ccea11b5727ccf69be64f5f5d9a08d9f>@@@Z 1007f8b0 f i libucrtd:winapi_thunks.obj
 0001:0007e940       ??$__acrt_lock_and_call@V<lambda_a463b7b0560cfcaf9b17f27c6ef46564>@@@@YAHW4__acrt_lock_id@@$$QAV<lambda_a463b7b0560cfcaf9b17f27c6ef46564>@@@Z 1007f940 f i libucrtd:winapi_thunks.obj
 0001:0007e980       ??$__crt_fast_decode_pointer@P6GHPA_WKJ@Z@@YAP6GHPA_WKJ@ZQ6GH0KJ@Z@Z 1007f980 f i libucrtd:winapi_thunks.obj
 0001:0007e9b0       ??$__crt_fast_encode_pointer@P6GHPA_WKJ@Z@@YAP6GHPA_WKJ@ZQ6GH0KJ@Z@Z 1007f9b0 f i libucrtd:winapi_thunks.obj
 0001:0007f250       ___acrt_AreFileApisANSI@0  10080250 f   libucrtd:winapi_thunks.obj
 0001:0007f2a0       ___acrt_CompareStringEx@36 100802a0 f   libucrtd:winapi_thunks.obj
 0001:0007f330       ___acrt_EnumSystemLocalesEx@16 10080330 f   libucrtd:winapi_thunks.obj
 0001:0007f3a0       ___acrt_FlsAlloc@4         100803a0 f   libucrtd:winapi_thunks.obj
 0001:0007f3f0       ___acrt_FlsFree@4          100803f0 f   libucrtd:winapi_thunks.obj
 0001:0007f450       ___acrt_FlsGetValue@4      10080450 f   libucrtd:winapi_thunks.obj
 0001:0007f4b0       ___acrt_FlsSetValue@8      100804b0 f   libucrtd:winapi_thunks.obj
 0001:0007f510       ___acrt_GetDateFormatEx@28 10080510 f   libucrtd:winapi_thunks.obj
 0001:0007f5a0       ___acrt_GetEnabledXStateFeatures@0 100805a0 f   libucrtd:winapi_thunks.obj
 0001:0007f5f0       ___acrt_GetFileInformationByHandleEx@16 100805f0 f   libucrtd:winapi_thunks.obj
 0001:0007f650       ___acrt_GetLocaleInfoEx@16 10080650 f   libucrtd:winapi_thunks.obj
 0001:0007f6d0       ___acrt_GetSystemTimePreciseAsFileTime@4 100806d0 f   libucrtd:winapi_thunks.obj
 0001:0007f730       ___acrt_GetTimeFormatEx@24 10080730 f   libucrtd:winapi_thunks.obj
 0001:0007f7c0       ___acrt_GetUserDefaultLocaleName@8 100807c0 f   libucrtd:winapi_thunks.obj
 0001:0007f830       ___acrt_GetXStateFeaturesMask@8 10080830 f   libucrtd:winapi_thunks.obj
 0001:0007f890       ___acrt_InitializeCriticalSectionEx@12 10080890 f   libucrtd:winapi_thunks.obj
 0001:0007f8f0       ___acrt_IsValidLocaleName@4 100808f0 f   libucrtd:winapi_thunks.obj
 0001:0007f950       ___acrt_LCIDToLocaleName@16 10080950 f   libucrtd:winapi_thunks.obj
 0001:0007f9c0       ___acrt_LCMapStringEx@36   100809c0 f   libucrtd:winapi_thunks.obj
 0001:0007fa50       ___acrt_LocaleNameToLCID@8 10080a50 f   libucrtd:winapi_thunks.obj
 0001:0007fab0       ___acrt_LocateXStateFeature@12 10080ab0 f   libucrtd:winapi_thunks.obj
 0001:0007fb10       ___acrt_MessageBoxA@16     10080b10 f   libucrtd:winapi_thunks.obj
 0001:0007fb70       ___acrt_MessageBoxW@16     10080b70 f   libucrtd:winapi_thunks.obj
 0001:0007fbd0       ___acrt_RoInitialize@4     10080bd0 f   libucrtd:winapi_thunks.obj
 0001:0007fc20       ___acrt_RoUninitialize@0   10080c20 f   libucrtd:winapi_thunks.obj
 0001:0007fc60       ___acrt_RtlGenRandom@8     10080c60 f   libucrtd:winapi_thunks.obj
 0001:0007fcc0       ___acrt_SetThreadStackGuarantee@4 10080cc0 f   libucrtd:winapi_thunks.obj
 0001:0007fd10       ___acrt_can_show_message_box 10080d10 f   libucrtd:winapi_thunks.obj
 0001:0007fd40       ___acrt_can_use_vista_locale_apis 10080d40 f   libucrtd:winapi_thunks.obj
 0001:0007fd70       ___acrt_can_use_xstate_apis 10080d70 f   libucrtd:winapi_thunks.obj
 0001:0007fda0       ___acrt_get_parent_window  10080da0 f   libucrtd:winapi_thunks.obj
 0001:0007fe20       ___acrt_initialize_winapi_thunks 10080e20 f   libucrtd:winapi_thunks.obj
 0001:0007fe90       ___acrt_is_interactive     10080e90 f   libucrtd:winapi_thunks.obj
 0001:0007ff40       ___acrt_is_packaged_app    10080f40 f   libucrtd:winapi_thunks.obj
 0001:00080050       ___acrt_uninitialize_winapi_thunks 10081050 f   libucrtd:winapi_thunks.obj
 0001:000800c0       __chvalidator              100810c0 f   libucrtd:isctype.obj
 0001:00080110       __chvalidator_l            10081110 f   libucrtd:isctype.obj
 0001:000801b0       __isctype                  100811b0 f   libucrtd:isctype.obj
 0001:000801f0       __isctype_l                100811f0 f   libucrtd:isctype.obj
 0001:00080370       ??$?RU__crt_stdio_stream_data@@@__crt_internal_free_policy@@QBEXQBU__crt_stdio_stream_data@@@Z 10081370 f i libucrtd:stream.obj
 0001:00080390       ??0?$__crt_unique_heap_ptr@U__crt_stdio_stream_data@@U__crt_internal_free_policy@@@@QAE@QAU__crt_stdio_stream_data@@@Z 10081390 f i libucrtd:stream.obj
 0001:000803b0       ??0__crt_stdio_stream@@QAE@QAU__crt_stdio_stream_data@@@Z 100813b0 f i libucrtd:stream.obj
 0001:000803d0       ??0__crt_stdio_stream@@QAE@XZ 100813d0 f i libucrtd:stream.obj
 0001:000803f0       ??1?$__crt_unique_heap_ptr@U__crt_stdio_stream_data@@U__crt_internal_free_policy@@@@QAE@XZ 100813f0 f i libucrtd:stream.obj
 0001:00080410       ?__acrt_stdio_allocate_stream@@YA?AV__crt_stdio_stream@@XZ 10081410 f   libucrtd:stream.obj
 0001:00080500       ?__acrt_stdio_free_stream@@YAXV__crt_stdio_stream@@@Z 10081500 f   libucrtd:stream.obj
 0001:00080580       ?deallocate@__crt_stdio_stream@@QAEXXZ 10081580 f i libucrtd:stream.obj
 0001:000805a0       ?detach@?$__crt_unique_heap_ptr@U__crt_stdio_stream_data@@U__crt_internal_free_policy@@@@QAEPAU__crt_stdio_stream_data@@XZ 100815a0 f i libucrtd:stream.obj
 0001:00080710       ?lock@__crt_stdio_stream@@QBEXXZ 10081710 f i libucrtd:stream.obj
 0001:00080730       ?release@?$__crt_unique_heap_ptr@U__crt_stdio_stream_data@@U__crt_internal_free_policy@@@@QAEXXZ 10081730 f i libucrtd:stream.obj
 0001:00080760       ?try_allocate@__crt_stdio_stream@@QAE_NXZ 10081760 f i libucrtd:stream.obj
 0001:000807b0       ??$__acrt_stdio_parse_mode@D@@YA?AU__acrt_stdio_stream_mode@@QBD@Z 100817b0 f i libucrtd:openfile.obj
 0001:00081010       ??$__acrt_stdio_parse_mode@_W@@YA?AU__acrt_stdio_stream_mode@@QB_W@Z 10082010 f i libucrtd:openfile.obj
 0001:00081ba0       ??$tcsncmp@AAPBDAAY02$$CBDI@?$__crt_char_traits@D@@SAHAAPBDAAY02$$CBD$$QAI@Z 10082ba0 f i libucrtd:openfile.obj
 0001:00081bc0       ??$tcsncmp@AAPB_WAAY02$$CB_WI@?$__crt_char_traits@_W@@SAHAAPB_WAAY02$$CB_W$$QAI@Z 10082bc0 f i libucrtd:openfile.obj
 0001:00081be0       ??$tcsnicmp@AAPBDAAY04$$CBDI@?$__crt_char_traits@D@@SAHAAPBDAAY04$$CBD$$QAI@Z 10082be0 f i libucrtd:openfile.obj
 0001:00081c00       ??$tcsnicmp@AAPBDAAY06$$CBDI@?$__crt_char_traits@D@@SAHAAPBDAAY06$$CBD$$QAI@Z 10082c00 f i libucrtd:openfile.obj
 0001:00081c20       ??$tcsnicmp@AAPBDAAY07$$CBDI@?$__crt_char_traits@D@@SAHAAPBDAAY07$$CBD$$QAI@Z 10082c20 f i libucrtd:openfile.obj
 0001:00081c40       ??$tcsnicmp@AAPB_WAAY04$$CB_WI@?$__crt_char_traits@_W@@SAHAAPB_WAAY04$$CB_W$$QAI@Z 10082c40 f i libucrtd:openfile.obj
 0001:00081c60       ??$tcsnicmp@AAPB_WAAY06$$CB_WI@?$__crt_char_traits@_W@@SAHAAPB_WAAY06$$CB_W$$QAI@Z 10082c60 f i libucrtd:openfile.obj
 0001:00081c80       ??$tcsnicmp@AAPB_WAAY07$$CB_WI@?$__crt_char_traits@_W@@SAHAAPB_WAAY07$$CB_W$$QAI@Z 10082c80 f i libucrtd:openfile.obj
 0001:00081ca0       ??$tsopen_s@PAHABQBDABHABHH@?$__crt_char_traits@D@@SAH$$QAPAHABQBDABH2$$QAH@Z 10082ca0 f i libucrtd:openfile.obj
 0001:00081cd0       ??$tsopen_s@PAHABQB_WABHABHH@?$__crt_char_traits@_W@@SAH$$QAPAHABQB_WABH2$$QAH@Z 10082cd0 f i libucrtd:openfile.obj
 0001:00081d00       ?__acrt_stdio_parse_mode_D@@YA_NAAU__acrt_stdio_stream_mode@@@Z 10082d00 f i libucrtd:openfile.obj
 0001:00081d30       ?__acrt_stdio_parse_mode_N@@YA_NAAU__acrt_stdio_stream_mode@@@Z 10082d30 f i libucrtd:openfile.obj
 0001:00081d50       ?__acrt_stdio_parse_mode_R@@YA_NAAU__acrt_stdio_stream_mode@@AA_N@Z 10082d50 f i libucrtd:openfile.obj
 0001:00081d80       ?__acrt_stdio_parse_mode_S@@YA_NAAU__acrt_stdio_stream_mode@@AA_N@Z 10082d80 f i libucrtd:openfile.obj
 0001:00081db0       ?__acrt_stdio_parse_mode_T@@YA_NAAU__acrt_stdio_stream_mode@@@Z 10082db0 f i libucrtd:openfile.obj
 0001:00081de0       ?__acrt_stdio_parse_mode_b@@YA_NAAU__acrt_stdio_stream_mode@@@Z 10082de0 f i libucrtd:openfile.obj
 0001:00081e10       ?__acrt_stdio_parse_mode_c@@YA_NAAU__acrt_stdio_stream_mode@@AA_N@Z 10082e10 f i libucrtd:openfile.obj
 0001:00081e40       ?__acrt_stdio_parse_mode_n@@YA_NAAU__acrt_stdio_stream_mode@@AA_N@Z 10082e40 f i libucrtd:openfile.obj
 0001:00081e70       ?__acrt_stdio_parse_mode_plus@@YA_NAAU__acrt_stdio_stream_mode@@AA_N@Z 10082e70 f i libucrtd:openfile.obj
 0001:00081ee0       ?__acrt_stdio_parse_mode_t@@YA_NAAU__acrt_stdio_stream_mode@@@Z 10082ee0 f i libucrtd:openfile.obj
 0001:00081f10       __openfile                 10082f10 f   libucrtd:openfile.obj
 0001:00081f40       __wopenfile                10082f40 f   libucrtd:openfile.obj
 0001:00081f70       ??$?RV<lambda_4d8dda1ac129e11742d77ae5e3bbda74>@@AAV<lambda_a8f98972ebaa5f7148d35bffe53bd70d>@@V<lambda_5193b64c98d743723bd5dcf162a72339>@@@?$__crt_seh_guarded_call@H@@QAEH$$QAV<lambda_4d8dda1ac129e11742d77ae5e3bbda74>@@AAV<lambda_a8f98972ebaa5f7148d35bffe53bd70d>@@$$QAV<lambda_5193b64c98d743723bd5dcf162a72339>@@@Z 10082f70 f i libucrtd:close.obj
 0001:00082000       ??$__acrt_lowio_lock_fh_and_call@V<lambda_a8f98972ebaa5f7148d35bffe53bd70d>@@@@YAHH$$QAV<lambda_a8f98972ebaa5f7148d35bffe53bd70d>@@@Z 10083000 f i libucrtd:close.obj
 0001:00082220       __close                    10083220 f   libucrtd:close.obj
 0001:000823a0       __close_nolock             100833a0 f   libucrtd:close.obj
 0001:00082400       ?has_crt_buffer@__crt_stdio_stream@@QBE_NXZ 10083400 f i libucrtd:_freebuf.obj
 0001:00082420       ___acrt_stdio_free_buffer_nolock 10083420 f   libucrtd:_freebuf.obj
 0001:000824d0       ?__acrt_stdio_reset_buffer@@YAXV__crt_stdio_stream@@@Z 100834d0 f i libucrtd:fflush.obj
 0001:00082500       ?has_all_of@__crt_stdio_stream@@QBE_NJ@Z 10083500 f i libucrtd:fflush.obj
 0001:00082540       ?has_big_buffer@__crt_stdio_stream@@QBE_NXZ 10083540 f i libucrtd:fflush.obj
 0001:00082560       ___acrt_stdio_flush_nolock 10083560 f   libucrtd:fflush.obj
 0001:00082640       __fflush_nolock            10083640 f   libucrtd:fflush.obj
 0001:000826c0       __flushall                 100836c0 f   libucrtd:fflush.obj
 0001:00082870       _fflush                    10083870 f   libucrtd:fflush.obj
 0001:00083040       ___acrt_stdio_flush_and_write_narrow_nolock 10084040 f   libucrtd:_flsbuf.obj
 0001:00083070       ___acrt_stdio_flush_and_write_wide_nolock 10084070 f   libucrtd:_flsbuf.obj
 0001:00083fe0       ??$find_first_file_ex@ABQADW4_FINDEX_INFO_LEVELS@@PAU_WIN32_FIND_DATAA@@W4_FINDEX_SEARCH_OPS@@$$TH@?$__crt_char_traits@D@@SAPAXABQAD$$QAW4_FINDEX_INFO_LEVELS@@$$QAPAU_WIN32_FIND_DATAA@@$$QAW4_FINDEX_SEARCH_OPS@@$$QA$$T$$QAH@Z 10084fe0 f i libucrtd:argv_wildcards.obj
 0001:00084020       ??$find_first_file_ex@ABQA_WW4_FINDEX_INFO_LEVELS@@PAU_WIN32_FIND_DATAW@@W4_FINDEX_SEARCH_OPS@@$$TH@?$__crt_char_traits@_W@@SAPAXABQA_W$$QAW4_FINDEX_INFO_LEVELS@@$$QAPAU_WIN32_FIND_DATAW@@$$QAW4_FINDEX_SEARCH_OPS@@$$QA$$T$$QAH@Z 10085020 f i libucrtd:argv_wildcards.obj
 0001:00084060       ??$find_next_file@PAXPAU_WIN32_FIND_DATAA@@@?$__crt_char_traits@D@@SAH$$QAPAX$$QAPAU_WIN32_FIND_DATAA@@@Z 10085060 f i libucrtd:argv_wildcards.obj
 0001:00084080       ??$find_next_file@PAXPAU_WIN32_FIND_DATAW@@@?$__crt_char_traits@_W@@SAH$$QAPAX$$QAPAU_WIN32_FIND_DATAW@@@Z 10085080 f i libucrtd:argv_wildcards.obj
 0001:000840a0       ??$tcsncpy_s@AAPADIAAPADABI@?$__crt_char_traits@D@@SAHAAPAD$$QAI0ABI@Z 100850a0 f i libucrtd:argv_wildcards.obj
 0001:000840d0       ??$tcsncpy_s@AAPA_WIAAPA_WABI@?$__crt_char_traits@_W@@SAHAAPA_W$$QAI0ABI@Z 100850d0 f i libucrtd:argv_wildcards.obj
 0001:00084100       ??$tcsncpy_s@PAD$$CBIABQBDABI@?$__crt_char_traits@D@@SAH$$QAPAD$$QBIABQBDABI@Z 10085100 f i libucrtd:argv_wildcards.obj
 0001:00084130       ??$tcsncpy_s@PADABIABQBDABI@?$__crt_char_traits@D@@SAH$$QAPADABIABQBD1@Z 10085130 f i libucrtd:argv_wildcards.obj
 0001:00084160       ??$tcsncpy_s@PA_W$$CBIABQB_WABI@?$__crt_char_traits@_W@@SAH$$QAPA_W$$QBIABQB_WABI@Z 10085160 f i libucrtd:argv_wildcards.obj
 0001:00084190       ??$tcsncpy_s@PA_WABIABQB_WABI@?$__crt_char_traits@_W@@SAH$$QAPA_WABIABQB_W1@Z 10085190 f i libucrtd:argv_wildcards.obj
 0001:000841c0       ??$tcspbrk@AAPADAAY02$$CBD@?$__crt_char_traits@D@@SAPADAAPADAAY02$$CBD@Z 100851c0 f i libucrtd:argv_wildcards.obj
 0001:000841e0       ??$tcspbrk@AAPA_WAAY02$$CB_W@?$__crt_char_traits@_W@@SAPA_WAAPA_WAAY02$$CB_W@Z 100851e0 f i libucrtd:argv_wildcards.obj
 0001:00084200       ??0?$__crt_unique_handle_t@U__crt_findfile_traits@@@@QAE@QAX@Z 10085200 f i libucrtd:argv_wildcards.obj
 0001:00084220       ??0?$argument_list@D@?A0x536e2c96@@QAE@XZ 10085220 f i libucrtd:argv_wildcards.obj
 0001:00084250       ??0?$argument_list@_W@?A0x536e2c96@@QAE@XZ 10085250 f i libucrtd:argv_wildcards.obj
 0001:00084280       ??1?$__crt_unique_handle_t@U__crt_findfile_traits@@@@QAE@XZ 10085280 f i libucrtd:argv_wildcards.obj
 0001:000842a0       ??1?$argument_list@D@?A0x536e2c96@@QAE@XZ 100852a0 f i libucrtd:argv_wildcards.obj
 0001:000842f0       ??1?$argument_list@_W@?A0x536e2c96@@QAE@XZ 100852f0 f i libucrtd:argv_wildcards.obj
 0001:00084400       ?append@?$argument_list@D@?A0x536e2c96@@QAEHQAD@Z 10085400 f i libucrtd:argv_wildcards.obj
 0001:00084460       ?append@?$argument_list@_W@?A0x536e2c96@@QAEHQA_W@Z 10085460 f i libucrtd:argv_wildcards.obj
 0001:000844c0       ?begin@?$argument_list@D@?A0x536e2c96@@QBEPAPADXZ 100854c0 f i libucrtd:argv_wildcards.obj
 0001:000844e0       ?begin@?$argument_list@_W@?A0x536e2c96@@QBEPAPA_WXZ 100854e0 f i libucrtd:argv_wildcards.obj
 0001:00084500       ?close@?$__crt_unique_handle_t@U__crt_findfile_traits@@@@QAEXXZ 10085500 f i libucrtd:argv_wildcards.obj
 0001:00084540       ?close@__crt_findfile_traits@@SA_NPAX@Z 10085540 f i libucrtd:argv_wildcards.obj
 0001:00084570       ?end@?$argument_list@D@?A0x536e2c96@@QBEPAPADXZ 10085570 f i libucrtd:argv_wildcards.obj
 0001:00084590       ?end@?$argument_list@_W@?A0x536e2c96@@QBEPAPA_WXZ 10085590 f i libucrtd:argv_wildcards.obj
 0001:000845b0       ?expand_if_necessary@?$argument_list@D@?A0x536e2c96@@AAEHXZ 100855b0 f i libucrtd:argv_wildcards.obj
 0001:00084710       ?expand_if_necessary@?$argument_list@_W@?A0x536e2c96@@AAEHXZ 10085710 f i libucrtd:argv_wildcards.obj
 0001:00084870       ?get@?$__crt_unique_handle_t@U__crt_findfile_traits@@@@QBEPAXXZ 10085870 f i libucrtd:argv_wildcards.obj
 0001:00084890       ?get_invalid_value@__crt_findfile_traits@@SAPAXXZ 10085890 f i libucrtd:argv_wildcards.obj
 0001:000848d0       ?size@?$argument_list@D@?A0x536e2c96@@QBEIXZ 100858d0 f i libucrtd:argv_wildcards.obj
 0001:000848f0       ?size@?$argument_list@_W@?A0x536e2c96@@QBEIXZ 100858f0 f i libucrtd:argv_wildcards.obj
 0001:00084910       ?strpbrk@@YAPADQADQBD@Z    10085910 f i libucrtd:argv_wildcards.obj
 0001:00084930       ?wcspbrk@@YAPA_WPA_WPB_W@Z 10085930 f i libucrtd:argv_wildcards.obj
 0001:00084950       ___acrt_expand_narrow_argv_wildcards 10085950 f   libucrtd:argv_wildcards.obj
 0001:00084970       ___acrt_expand_wide_argv_wildcards 10085970 f   libucrtd:argv_wildcards.obj
 0001:00084990       ??$?RV<lambda_694f386f8d9a4d7d5afe1ac229f209db>@@AAV<lambda_2f900415df1f7f624cdaaefe86d0b1c0>@@V<lambda_17c2d007e408fdf31ce10a4c853c6ffa>@@@?$__crt_seh_guarded_call@X@@QAEX$$QAV<lambda_694f386f8d9a4d7d5afe1ac229f209db>@@AAV<lambda_2f900415df1f7f624cdaaefe86d0b1c0>@@$$QAV<lambda_17c2d007e408fdf31ce10a4c853c6ffa>@@@Z 10085990 f i libucrtd:mbctype.obj
 0001:00084a10       ??$__acrt_lock_and_call@V<lambda_2f900415df1f7f624cdaaefe86d0b1c0>@@@@YAXW4__acrt_lock_id@@$$QAV<lambda_2f900415df1f7f624cdaaefe86d0b1c0>@@@Z 10085a10 f i libucrtd:mbctype.obj
 0001:00085340       ___acrt_initialize_multibyte 10086340 f   libucrtd:mbctype.obj
 0001:00085370       ___acrt_update_thread_multibyte_data 10086370 f   libucrtd:mbctype.obj
 0001:00085480       ___p__mbcasemap            10086480 f   libucrtd:mbctype.obj
 0001:000854a0       ___p__mbctype              100864a0 f   libucrtd:mbctype.obj
 0001:000854c0       __getmbcp                  100864c0 f   libucrtd:mbctype.obj
 0001:00085530       __setmbcp                  10086530 f   libucrtd:mbctype.obj
 0001:00085550       __setmbcp_nolock           10086550 f   libucrtd:mbctype.obj
 0001:00085a33       __ismbbalnum               10086a33 f   libucrtd:ismbbyte.obj
 0001:00085a4e       __ismbbalnum_l             10086a4e f   libucrtd:ismbbyte.obj
 0001:00085a6a       __ismbbalpha               10086a6a f   libucrtd:ismbbyte.obj
 0001:00085a85       __ismbbalpha_l             10086a85 f   libucrtd:ismbbyte.obj
 0001:00085aa1       __ismbbblank               10086aa1 f   libucrtd:ismbbyte.obj
 0001:00085ac4       __ismbbblank_l             10086ac4 f   libucrtd:ismbbyte.obj
 0001:00085ae8       __ismbbgraph               10086ae8 f   libucrtd:ismbbyte.obj
 0001:00085b03       __ismbbgraph_l             10086b03 f   libucrtd:ismbbyte.obj
 0001:00085b1f       __ismbbkalnum              10086b1f f   libucrtd:ismbbyte.obj
 0001:00085b37       __ismbbkalnum_l            10086b37 f   libucrtd:ismbbyte.obj
 0001:00085b50       __ismbbkana                10086b50 f   libucrtd:ismbbyte.obj
 0001:00085b63       __ismbbkana_l              10086b63 f   libucrtd:ismbbyte.obj
 0001:00085bb4       __ismbbkprint              10086bb4 f   libucrtd:ismbbyte.obj
 0001:00085bcc       __ismbbkprint_l            10086bcc f   libucrtd:ismbbyte.obj
 0001:00085be5       __ismbbkpunct              10086be5 f   libucrtd:ismbbyte.obj
 0001:00085bfd       __ismbbkpunct_l            10086bfd f   libucrtd:ismbbyte.obj
 0001:00085c16       __ismbblead                10086c16 f   libucrtd:ismbbyte.obj
 0001:00085c2e       __ismbblead_l              10086c2e f   libucrtd:ismbbyte.obj
 0001:00085c47       __ismbbprint               10086c47 f   libucrtd:ismbbyte.obj
 0001:00085c62       __ismbbprint_l             10086c62 f   libucrtd:ismbbyte.obj
 0001:00085c7e       __ismbbpunct               10086c7e f   libucrtd:ismbbyte.obj
 0001:00085c96       __ismbbpunct_l             10086c96 f   libucrtd:ismbbyte.obj
 0001:00085caf       __ismbbtrail               10086caf f   libucrtd:ismbbyte.obj
 0001:00085cc7       __ismbbtrail_l             10086cc7 f   libucrtd:ismbbyte.obj
 0001:00085ce0       ___acrt_initialize_command_line 10086ce0 f   libucrtd:argv_data.obj
 0001:00085d00       ___acrt_uninitialize_command_line 10086d00 f   libucrtd:argv_data.obj
 0001:00085d10       ___p___argc                10086d10 f   libucrtd:argv_data.obj
 0001:00085d20       ___p___argv                10086d20 f   libucrtd:argv_data.obj
 0001:00085d30       ___p___wargv               10086d30 f   libucrtd:argv_data.obj
