 OPOSCAT

 Timestamp is 5c44378d (Sun Jan 20 17:55:41 2019)

 Preferred load address is 10000000

 Start         Length     Name                   Class
 0001:00000000 00000d90H .text$di                CODE
 0001:00000d90 000a2dd0H .text$mn                CODE
 0001:000a3b60 00000140H .text$x                 CODE
 0001:000a3ca0 00000120H .text$yd                CODE
 0002:00000000 0000036cH .idata$5                DATA
 0002:0000036c 00000004H .00cfg                  DATA
 0002:00000370 00000004H .CRT$XCA                DATA
 0002:00000374 00000004H .CRT$XCL                DATA
 0002:00000378 0000006cH .CRT$XCU                DATA
 0002:000003e4 00000004H .CRT$XCZ                DATA
 0002:000003e8 00000004H .CRT$XIA                DATA
 0002:000003ec 00000010H .CRT$XIC                DATA
 0002:000003fc 00000004H .CRT$XIZ                DATA
 0002:00000400 00000004H .CRT$XLA                DATA
 0002:00000404 00000004H .CRT$XLZ                DATA
 0002:00000408 00000004H .CRT$XPA                DATA
 0002:0000040c 00000008H .CRT$XPX                DATA
 0002:00000414 00000004H .CRT$XPXA               DATA
 0002:00000418 00000004H .CRT$XPZ                DATA
 0002:0000041c 00000004H .CRT$XTA                DATA
 0002:00000420 00000010H .CRT$XTZ                DATA
 0002:00000424 00000000H .gfids$x                DATA
 0002:00000424 00000000H .gfids$y                DATA
 0002:00000430 0002e528H .rdata                  DATA
 0002:0002e958 00000018H .rdata$T                DATA
 0002:0002e970 00000340H .rdata$r                DATA
 0002:0002ecb0 00000038H .rdata$sxdata           DATA
 0002:0002ece8 000003fcH .rdata$zzzdbg           DATA
 0002:0002f0e4 00000004H .rtc$IAA                DATA
 0002:0002f0e8 00000018H .rtc$IMZ                DATA
 0002:0002f100 00000004H .rtc$IZZ                DATA
 0002:0002f104 00000004H .rtc$TAA                DATA
 0002:0002f108 00000018H .rtc$TMZ                DATA
 0002:0002f120 00000004H .rtc$TZZ                DATA
 0002:0002f124 00000004H .tls                    DATA
 0002:0002f128 00000004H .tls$                   DATA
 0002:0002f12c 00000004H .tls$ZZZ                DATA
 0002:0002f130 00000d94H .xdata$x                DATA
 0002:0002fec4 00000004H ATL$__a                 DATA
 0002:0002fec8 00000008H ATL$__z                 DATA
 0002:0002fed0 000000a4H .edata                  DATA
 0002:0002ff74 00000078H .idata$2                DATA
 0002:0002ffec 00000014H .idata$3                DATA
 0002:00030000 0000036cH .idata$4                DATA
 0002:0003036c 00000dbaH .idata$6                DATA
 0003:00000000 00000b70H .data                   DATA
 0003:00000b70 00000138H .data$r                 DATA
 0003:00000ca8 00003570H .bss                    DATA
 0004:00000000 00000220H .rsrc$01                DATA
 0004:00000220 00005168H .rsrc$02                DATA

  Address         Publics by Value              Rva+Base       Lib:Object

 0000:00000000       ___guard_fids_count        00000000     <absolute>
 0000:00000000       ___guard_longjmp_count     00000000     <absolute>
 0000:00000000       __except_list              00000000     <absolute>
 0000:00000000       ___enclave_config          00000000     <absolute>
 0000:00000000       ___hybrid_code_map_count   00000000     <absolute>
 0000:00000000       ___hybrid_code_map         00000000     <absolute>
 0000:00000000       ___volatile_metadata       00000000     <absolute>
 0000:00000000       ___guard_longjmp_table     00000000     <absolute>
 0000:00000000       ___guard_iat_table         00000000     <absolute>
 0000:00000000       ___guard_fids_table        00000000     <absolute>
 0000:00000000       ___dynamic_value_reloc_table 00000000     <absolute>
 0000:00000000       ___hybrid_auxiliary_iat    00000000     <absolute>
 0000:00000000       ___guard_iat_count         00000000     <absolute>
 0000:0000000e       ___safe_se_handler_count   0000000e     <absolute>
 0000:0000002c       __tls_array                0000002c     <absolute>
 0000:00000100       ___guard_flags             00000100     <absolute>
 0000:00000000       ___ImageBase               10000000     <linker-defined>
 0001:00000d90       ?_assert@@YAXPB_W0I@Z      10001d90 f   Assert.obj
 0001:00000ec0       ___local_stdio_printf_options 10001ec0 f i Assert.obj
 0001:00000ed0       ___vswprintf_l             10001ed0 f i Assert.obj
 0001:00000f00       __swprintf                 10001f00 f i Assert.obj
 0001:00000f60       __vswprintf_c_l            10001f60 f i Assert.obj
 0001:00000fd0       __vswprintf_l              10001fd0 f i Assert.obj
 0001:00001000       ?cw_memcpy@@YGHPADPB_WH@Z  10002000 f   CWString.obj
 0001:00001060       ?cw_memcpy@@YGHPA_WPBDH@Z  10002060 f   CWString.obj
 0001:000010c0       ?cw_memcpy@@YGHPADPBDH@Z   100020c0 f   CWString.obj
 0001:00001110       ?cw_memcpy@@YGHPA_WPB_WH@Z 10002110 f   CWString.obj
 0001:00001150       ?cw_memset@@YAXPADDH@Z     10002150 f   CWString.obj
 0001:00001170       ?cw_memset@@YAXPA_W_WH@Z   10002170 f   CWString.obj
 0001:00001190       ?cw_strlen@@YAHPBD@Z       10002190 f   CWString.obj
 0001:000011e0       ?cw_strlen@@YAHPB_W@Z      100021e0 f   CWString.obj
 0001:00001230       ?cw_strcpy@@YAHPADPB_W@Z   10002230 f   CWString.obj
 0001:00001250       ?cw_strcpy@@YAHPA_WPBD@Z   10002250 f   CWString.obj
 0001:00001270       ?cw_strcpy@@YAHPADPBD@Z    10002270 f   CWString.obj
 0001:00001290       ?cw_strcpy@@YAHPA_WPB_W@Z  10002290 f   CWString.obj
 0001:000012b0       ?cw_strcat@@YAHPADPB_W@Z   100022b0 f   CWString.obj
 0001:000012e0       ?cw_strcat@@YAHPA_WPBD@Z   100022e0 f   CWString.obj
 0001:00001310       ?cw_strcat@@YAHPADPBD@Z    10002310 f   CWString.obj
 0001:00001340       ?cw_strcat@@YAHPA_WPB_W@Z  10002340 f   CWString.obj
 0001:00001370       ?cw_dup@@YGXPBDAAHAAPA_W1@Z 10002370 f   CWString.obj
 0001:00001430       ?cw_dup@@YGXPB_WAAHAAPAD1@Z 10002430 f   CWString.obj
 0001:000014e0       ?DupChar@_CW@@AAEXXZ       100024e0 f   CWString.obj
 0001:00001530       ?DupWide@_CW@@AAEXXZ       10002530 f   CWString.obj
 0001:00001580       ?GetCharsMbcs@_CW@@QAEHXZ  10002580 f   CWString.obj
 0001:000015e0       ?GetCharsWide@_CW@@QAEHXZ  100025e0 f   CWString.obj
 0001:00001640       ?SetVARIANT_BOOL@OposVariant@@QAEXF@Z 10002640 f   OposVariant.obj
 0001:000016a0       ?SetVARIANT_BOOL_Ptr@OposVariant@@QAEXPAFAAJ@Z 100026a0 f   OposVariant.obj
 0001:000016f0       ?GetLONG@OposVariant@@QAEJXZ 100026f0 f   OposVariant.obj
 0001:00001780       ?ChangeLONG@OposVariant@@QAEXPAJAAJ@Z 10002780 f   OposVariant.obj
 0001:00001840       ?SetLONG@OposVariant@@QAEXJ@Z 10002840 f   OposVariant.obj
 0001:00001880       ?SetLONG_Ptr@OposVariant@@QAEXPAJAAJ@Z 10002880 f   OposVariant.obj
 0001:000018d0       ?ChangeCURRENCY@OposVariant@@QAEXPATtagCY@@AAJ@Z 100028d0 f   OposVariant.obj
 0001:00001990       ?SetCURRENCY@OposVariant@@QAEXTtagCY@@@Z 10002990 f   OposVariant.obj
 0001:000019d0       ?SetCURRENCY_Ptr@OposVariant@@QAEXPATtagCY@@AAJ@Z 100029d0 f   OposVariant.obj
 0001:00001a20       ?ChangeBSTR@OposVariant@@QAEXPAPA_WAAJ@Z 10002a20 f   OposVariant.obj
 0001:00001ae0       ?SetBSTR@OposVariant@@QAEXPA_WAAJ@Z 10002ae0 f   OposVariant.obj
 0001:00001b30       ?SetBSTR_Copy@OposVariant@@QAEXPA_WAAJ@Z 10002b30 f   OposVariant.obj
 0001:00001bd0       ?SetBSTR_OutPtr@OposVariant@@QAE_NPAPA_WAAJ@Z 10002bd0 f   OposVariant.obj
 0001:00001c20       ?SetBSTR_InOutPtr@OposVariant@@QAE_NPAPA_WAAJ@Z 10002c20 f   OposVariant.obj
 0001:00001c70       ?SetVARIANT@OposVariant@@QAEXAAUtagVARIANT@@GAAJ@Z 10002c70 f   OposVariant.obj
 0001:00001cf0       ?SetVARIANT_Ptr@OposVariant@@QAEXAAPAUtagVARIANT@@GAAJ@Z 10002cf0 f   OposVariant.obj
 0001:00001d90       ?SetString@OposVariant@@QAEXPB_WAAJ@Z 10002d90 f   OposVariant.obj
 0001:00001e20       ?SetDispatch_Ptr@OposVariant@@QAEXPAUIDispatch@@AAJ@Z 10002e20 f   OposVariant.obj
 0001:00001e90       ??0OposDispParms@@QAE@PAVOposVariant@@H@Z 10002e90 f   OposVariant.obj
 0001:00001f60       ??1OposDispParms@@QAE@XZ   10002f60 f   OposVariant.obj
 0001:00001fb0       ??$AtlMultiply@I@ATL@@YAJPAIII@Z 10002fb0 f i OposVariant.obj
 0001:00002010       ??0?$CHeapPtr@_WVCCRTAllocator@ATL@@@ATL@@QAE@XZ 10003010 f i OposVariant.obj
 0001:00002040       ??0?$CHeapPtrBase@_WVCCRTAllocator@ATL@@@ATL@@IAE@XZ 10003040 f i OposVariant.obj
 0001:00002060       ??0?$CSimpleArray@GV?$CSimpleArrayEqualHelper@G@ATL@@@ATL@@QAE@XZ 10003060 f i OposVariant.obj
 0001:000020a0       ??0?$CTraceCategoryEx@$00$0A@@ATL@@QAE@PB_W@Z 100030a0 f i OposVariant.obj
 0001:000020d0       ??0?$CTraceCategoryEx@$01$0A@@ATL@@QAE@PB_W@Z 100030d0 f i OposVariant.obj
 0001:00002100       ??0?$CTraceCategoryEx@$03$0A@@ATL@@QAE@PB_W@Z 10003100 f i OposVariant.obj
 0001:00002130       ??0?$CTraceCategoryEx@$07$0A@@ATL@@QAE@PB_W@Z 10003130 f i OposVariant.obj
 0001:00002160       ??0?$CTraceCategoryEx@$0BA@$0A@@ATL@@QAE@PB_W@Z 10003160 f i OposVariant.obj
 0001:00002190       ??0?$CTraceCategoryEx@$0BAA@$0A@@ATL@@QAE@PB_W@Z 10003190 f i OposVariant.obj
 0001:000021d0       ??0?$CTraceCategoryEx@$0BAAA@$0A@@ATL@@QAE@PB_W@Z 100031d0 f i OposVariant.obj
 0001:00002210       ??0?$CTraceCategoryEx@$0BAAAA@$0A@@ATL@@QAE@PB_W@Z 10003210 f i OposVariant.obj
 0001:00002250       ??0?$CTraceCategoryEx@$0BAAAAA@$0A@@ATL@@QAE@PB_W@Z 10003250 f i OposVariant.obj
 0001:00002290       ??0?$CTraceCategoryEx@$0CA@$0A@@ATL@@QAE@PB_W@Z 10003290 f i OposVariant.obj
 0001:000022c0       ??0?$CTraceCategoryEx@$0CAA@$0A@@ATL@@QAE@PB_W@Z 100032c0 f i OposVariant.obj
 0001:00002300       ??0?$CTraceCategoryEx@$0CAAA@$0A@@ATL@@QAE@PB_W@Z 10003300 f i OposVariant.obj
 0001:00002340       ??0?$CTraceCategoryEx@$0CAAAA@$0A@@ATL@@QAE@PB_W@Z 10003340 f i OposVariant.obj
 0001:00002380       ??0?$CTraceCategoryEx@$0CAAAAA@$0A@@ATL@@QAE@PB_W@Z 10003380 f i OposVariant.obj
 0001:000023c0       ??0?$CTraceCategoryEx@$0EA@$0A@@ATL@@QAE@PB_W@Z 100033c0 f i OposVariant.obj
 0001:000023f0       ??0?$CTraceCategoryEx@$0EAA@$0A@@ATL@@QAE@PB_W@Z 100033f0 f i OposVariant.obj
 0001:00002430       ??0?$CTraceCategoryEx@$0EAAA@$0A@@ATL@@QAE@PB_W@Z 10003430 f i OposVariant.obj
 0001:00002470       ??0?$CTraceCategoryEx@$0EAAAA@$0A@@ATL@@QAE@PB_W@Z 10003470 f i OposVariant.obj
 0001:000024b0       ??0?$CTraceCategoryEx@$0EAAAAA@$0A@@ATL@@QAE@PB_W@Z 100034b0 f i OposVariant.obj
 0001:000024f0       ??0?$CTraceCategoryEx@$0IA@$0A@@ATL@@QAE@PB_W@Z 100034f0 f i OposVariant.obj
 0001:00002530       ??0?$CTraceCategoryEx@$0IAA@$0A@@ATL@@QAE@PB_W@Z 10003530 f i OposVariant.obj
 0001:00002570       ??0?$CTraceCategoryEx@$0IAAA@$0A@@ATL@@QAE@PB_W@Z 10003570 f i OposVariant.obj
 0001:000025b0       ??0?$CTraceCategoryEx@$0IAAAA@$0A@@ATL@@QAE@PB_W@Z 100035b0 f i OposVariant.obj
 0001:000025f0       ??0CAtlComModule@ATL@@QAE@XZ 100035f0 f i OposVariant.obj
 0001:000026d0       ??0CAtlWinModule@ATL@@QAE@XZ 100036d0 f i OposVariant.obj
 0001:00002760       ??0CComCriticalSection@ATL@@QAE@XZ 10003760 f i OposVariant.obj
 0001:00002790       ??0CPreserveLastError@ATL@@QAE@XZ 10003790 f i OposVariant.obj
 0001:000027d0       ??0CTraceFileAndLineInfo@ATL@@QAE@PBDH@Z 100037d0 f i OposVariant.obj
 0001:00002800       ??0_ATL_COM_MODULE70@ATL@@QAE@XZ 10003800 f i OposVariant.obj
 0001:00002830       ??0_ATL_WIN_MODULE70@ATL@@QAE@XZ 10003830 f i OposVariant.obj
 0001:00002870       ??1?$CHeapPtr@_WVCCRTAllocator@ATL@@@ATL@@QAE@XZ 10003870 f i OposVariant.obj
 0001:000028a0       ??1?$CHeapPtrBase@_WVCCRTAllocator@ATL@@@ATL@@QAE@XZ 100038a0 f i OposVariant.obj
 0001:000028d0       ??1?$CSimpleArray@GV?$CSimpleArrayEqualHelper@G@ATL@@@ATL@@QAE@XZ 100038d0 f i OposVariant.obj
 0001:00002900       ??1CAtlComModule@ATL@@QAE@XZ 10003900 f i OposVariant.obj
 0001:00002930       ??1CAtlWinModule@ATL@@QAE@XZ 10003930 f i OposVariant.obj
 0001:00002960       ??1CComBSTR@ATL@@QAE@XZ    10003960 f i OposVariant.obj
 0001:000029a0       ??1CComCriticalSection@ATL@@QAE@XZ 100039a0 f i OposVariant.obj
 0001:000029c0       ??1CPreserveLastError@ATL@@QAE@XZ 100039c0 f i OposVariant.obj
 0001:00002a00       ??1_ATL_COM_MODULE70@ATL@@QAE@XZ 10003a00 f i OposVariant.obj
 0001:00002a30       ??1_ATL_WIN_MODULE70@ATL@@QAE@XZ 10003a30 f i OposVariant.obj
 0001:00002a70       ??1stringdispid@CComTypeInfoHolder@ATL@@QAE@XZ 10003a70 f i OposVariant.obj
 0001:00002aa0       ??A?$CSimpleArray@GV?$CSimpleArrayEqualHelper@G@ATL@@@ATL@@QAEAAGH@Z 10003aa0 f i OposVariant.obj
 0001:00002b20       ??B?$CHeapPtrBase@_WVCCRTAllocator@ATL@@@ATL@@QBEPA_WXZ 10003b20 f i OposVariant.obj
 0001:00002b40       ??B?$CTraceCategoryEx@$01$0A@@ATL@@QAEIXZ 10003b40 f i OposVariant.obj
 0001:00002b60       ??B?$CTraceCategoryEx@$0CA@$0A@@ATL@@QAEIXZ 10003b60 f i OposVariant.obj
 0001:00002b80       ??RCTraceFileAndLineInfo@ATL@@QBAXHIPB_WZZ 10003b80 f i OposVariant.obj
 0001:00002c20       ??_Estringdispid@CComTypeInfoHolder@ATL@@QAEPAXI@Z 10003c20 f i OposVariant.obj
 0001:00002cb0       ??_H@YGXPAXIIP6EPAX0@Z@Z   10003cb0 f i OposVariant.obj
 0001:00002d20       ??_I@YGXPAXIIP6EX0@Z@Z     10003d20 f i OposVariant.obj
 0001:00002da0       ?Allocate@?$CHeapPtr@_WVCCRTAllocator@ATL@@@ATL@@QAE_NI@Z 10003da0 f i OposVariant.obj
 0001:00002e30       ?Allocate@CCRTAllocator@ATL@@SAPAXI@Z 10003e30 f i OposVariant.obj
 0001:00002e50       ?AllocateBytes@?$CHeapPtrBase@_WVCCRTAllocator@ATL@@@ATL@@QAE_NI@Z 10003e50 f i OposVariant.obj
 0001:00002ec0       ?AtlWinModuleInit@ATL@@YGJPAU_ATL_WIN_MODULE70@1@@Z 10003ec0 f i OposVariant.obj
 0001:00002f90       ?AtlWinModuleTerm@ATL@@YGJPAU_ATL_WIN_MODULE70@1@PAUHINSTANCE__@@@Z 10003f90 f i OposVariant.obj
 0001:00003050       ?Clear@OposVariant@@QAEJXZ 10004050 f i OposVariant.obj
 0001:00003090       ?Free@?$CHeapPtrBase@_WVCCRTAllocator@ATL@@@ATL@@QAEXXZ 10004090 f i OposVariant.obj
 0001:000030d0       ?Free@CCRTAllocator@ATL@@SAXPAX@Z 100040d0 f i OposVariant.obj
 0001:000030f0       ?GetCategoryName@CTrace@ATL@@CAPA_WI@Z 100040f0 f i OposVariant.obj
 0001:00003140       ?GetModuleInstance@CAtlBaseModule@ATL@@QAEPAUHINSTANCE__@@XZ 10004140 f i OposVariant.obj
 0001:00003160       ?GetSize@?$CSimpleArray@GV?$CSimpleArrayEqualHelper@G@ATL@@@ATL@@QBEHXZ 10004160 f i OposVariant.obj
 0001:00003180       ?Init@CComCriticalSection@ATL@@QAEJXZ 10004180 f i OposVariant.obj
 0001:000031e0       ?RegisterCategory@CTrace@ATL@@SAXPB_WI@Z 100041e0 f i OposVariant.obj
 0001:00003270       ?RemoveAll@?$CSimpleArray@GV?$CSimpleArrayEqualHelper@G@ATL@@@ATL@@QAEXXZ 10004270 f i OposVariant.obj
 0001:000032f0       ?Term@CAtlComModule@ATL@@QAEXXZ 100042f0 f i OposVariant.obj
 0001:000033b0       ?Term@CAtlWinModule@ATL@@QAEXXZ 100043b0 f i OposVariant.obj
 0001:000033e0       ?Term@CComCriticalSection@ATL@@QAEJXZ 100043e0 f i OposVariant.obj
 0001:00003420       ?TraceV@CTrace@ATL@@CAXPBDHIIPB_W@Z 10004420 f i OposVariant.obj
 0001:000036a0       ?TraceV@CTrace@ATL@@SAXPBDHIIPB_WPAD@Z 100046a0 f i OposVariant.obj
 0001:000037e0       ?_AtlInitializeCriticalSectionEx@ATL@@YAHPAU_RTL_CRITICAL_SECTION@@KK@Z 100047e0 f i OposVariant.obj
 0001:00003810       ?_AtlRaiseException@ATL@@YAXKK@Z 10004810 f i OposVariant.obj
 0001:00003840       _HRESULT_FROM_WIN32        10004840 f i OposVariant.obj
 0001:00003880       __vswprintf_s_l            10004880 f i OposVariant.obj
 0001:000038f0       _swprintf_s                100048f0 f i OposVariant.obj
 0001:00003950       ?CreateInstance@?$CComCreator@V?$CComObjectCached@VCComClassFactory@ATL@@@ATL@@@ATL@@SGJPAXABU_GUID@@PAPAX@Z 10004950 f i CAT.obj
 0001:00003ae0       ?CreateInstance@?$CComCreator2@V?$CComCreator@V?$CComObject@VCOPOSCAT@@@ATL@@@ATL@@V?$CComCreator@V?$CComAggObject@VCOPOSCAT@@@ATL@@@2@@ATL@@SGJPAXABU_GUID@@PAPAX@Z 10004ae0 f i CAT.obj
 0001:00003b60       ?ObjectMain@CComObjectRootBase@ATL@@SGX_N@Z 10004b60 f i CAT.obj
 0001:00003b70       ?GetCategoryMap@CComObjectRootBase@ATL@@SAPBU_ATL_CATMAP_ENTRY@2@XZ 10004b70 f i CAT.obj
 0001:00003b80       ?GetObjectDescription@?$CComCoClass@VCOPOSCAT@@$1?CLSID_OPOSCAT@@3U_GUID@@B@ATL@@SGPB_WXZ 10004b80 f i CAT.obj
 0001:00003b90       ?UpdateRegistry@COPOSCAT@@SGJH@Z 10004b90 f i CAT.obj
 0001:00003ce0       _DllGetClassObject@12      10004ce0 f   CAT.obj
 0001:00003d10       _DllCanUnloadNow@0         10004d10 f   CAT.obj
 0001:00003d50       _DllRegisterServer@0       10004d50 f   CAT.obj
 0001:00003d70       _DllUnregisterServer@0     10004d70 f   CAT.obj
 0001:00003f00       _DllMain@12                10004f00 f   CAT.obj
 0001:00003f60       ??$?2G@Wrapper@?$CSimpleArray@GV?$CSimpleArrayEqualHelper@G@ATL@@@ATL@@SAPAXIPAG@Z 10004f60 f i CAT.obj
 0001:00003f70       ??$?2PA_W@?$Wrapper@PA_W@?$CSimpleMap@PA_WPA_WVCExpansionVectorEqualHelper@ATL@@@ATL@@SAPAXIPAPA_W@Z 10004f70 f i CAT.obj
 0001:00003f80       ??$?4UITypeInfo2@@@?$CComPtr@UITypeInfo@@@ATL@@QAEPAUITypeInfo@@ABV?$CComPtr@UITypeInfo2@@@1@@Z 10004f80 f i CAT.obj
 0001:00003fe0       ??$AtlAdd@K@ATL@@YAJPAKKK@Z 10004fe0 f i CAT.obj
 0001:00004020       ??$AtlAdd@_K@ATL@@YAJPA_K_K1@Z 10005020 f i CAT.obj
 0001:00004090       ??$AtlAddThrow@K@ATL@@YAKKK@Z 10005090 f i CAT.obj
 0001:00004110       ??$AtlModuleRegisterWndClassInfoT@VAtlModuleRegisterWndClassInfoParamW@ATL@@@ATL@@YAGPAU_ATL_BASE_MODULE70@0@PAU_ATL_WIN_MODULE70@0@PAU_ATL_WNDCLASSINFOW@0@PAP6GJPAUHWND__@@IIJ@ZVAtlModuleRegisterWndClassInfoParamW@0@@Z 10005110 f i CAT.obj
 0001:00004520       ??$AtlMultiply@H@ATL@@YAJPAHHH@Z 10005520 f i CAT.obj
 0001:000045a0       ??$AtlMultiply@K@ATL@@YAJPAKKK@Z 100055a0 f i CAT.obj
 0001:00004600       ??$AtlMultiplyThrow@I@ATL@@YAIII@Z 10005600 f i CAT.obj
 0001:00004680       ??$QueryInterface@UIPersistStream@@@IUnknown@@QAGJPAPAUIPersistStream@@@Z 10005680 f i CAT.obj
 0001:000046b0       ??$QueryInterface@UITypeInfo2@@@IUnknown@@QAGJPAPAUITypeInfo2@@@Z 100056b0 f i CAT.obj
 0001:000046e0       ??0?$CAtlModuleT@VCComModule@ATL@@@ATL@@QAE@XZ 100056e0 f i CAT.obj
 0001:00004710       ??0?$CAtlSafeAllocBufferManager@VCCRTAllocator@ATL@@@_ATL_SAFE_ALLOCA_IMPL@ATL@@QAE@XZ 10005710 f i CAT.obj
 0001:00004730       ??0?$CAutoVectorPtr@_W@ATL@@QAE@XZ 10005730 f i CAT.obj
 0001:00004750       ??0?$CComAggObject@VCOPOSCAT@@@ATL@@QAE@PAX@Z 10005750 f i CAT.obj
 0001:000047c0       ??0?$CComContainedObject@VCOPOSCAT@@@ATL@@QAE@PAX@Z 100057c0 f i CAT.obj
 0001:000048d0       ??0?$CComCritSecLock@VCComCriticalSection@ATL@@@ATL@@QAE@AAVCComCriticalSection@1@_N@Z 100058d0 f i CAT.obj
 0001:00004930       ??0?$CComEnum@UIEnumConnectionPoints@@$1?_GUID_b196b285_bab4_101a_b69c_00aa00341d07@@3U__s_GUID@@BPAUIConnectionPoint@@V?$_CopyInterface@UIConnectionPoint@@@ATL@@VCComSingleThreadModel@6@@ATL@@QAE@XZ 10005930 f i CAT.obj
 0001:00004970       ??0?$CComEnum@UIEnumConnections@@$1?_GUID_b196b287_bab4_101a_b69c_00aa00341d07@@3U__s_GUID@@BUtagCONNECTDATA@@V?$_Copy@UtagCONNECTDATA@@@ATL@@VCComSingleThreadModel@6@@ATL@@QAE@XZ 10005970 f i CAT.obj
 0001:000049b0       ??0?$CComEnumImpl@UIEnumConnectionPoints@@$1?_GUID_b196b285_bab4_101a_b69c_00aa00341d07@@3U__s_GUID@@BPAUIConnectionPoint@@V?$_CopyInterface@UIConnectionPoint@@@ATL@@@ATL@@QAE@XZ 100059b0 f i CAT.obj
 0001:00004a10       ??0?$CComEnumImpl@UIEnumConnections@@$1?_GUID_b196b287_bab4_101a_b69c_00aa00341d07@@3U__s_GUID@@BUtagCONNECTDATA@@V?$_Copy@UtagCONNECTDATA@@@ATL@@@ATL@@QAE@XZ 10005a10 f i CAT.obj
 0001:00004a70       ??0?$CComObject@V?$CComEnum@UIEnumConnectionPoints@@$1?_GUID_b196b285_bab4_101a_b69c_00aa00341d07@@3U__s_GUID@@BPAUIConnectionPoint@@V?$_CopyInterface@UIConnectionPoint@@@ATL@@VCComSingleThreadModel@6@@ATL@@@ATL@@QAE@PAX@Z 10005a70 f i CAT.obj
 0001:00004ac0       ??0?$CComObject@V?$CComEnum@UIEnumConnections@@$1?_GUID_b196b287_bab4_101a_b69c_00aa00341d07@@3U__s_GUID@@BUtagCONNECTDATA@@V?$_Copy@UtagCONNECTDATA@@@ATL@@VCComSingleThreadModel@6@@ATL@@@ATL@@QAE@PAX@Z 10005ac0 f i CAT.obj
 0001:00004b10       ??0?$CComObject@VCOPOSCAT@@@ATL@@QAE@PAX@Z 10005b10 f i CAT.obj
 0001:00004c30       ??0?$CComObjectCached@VCComClassFactory@ATL@@@ATL@@QAE@PAX@Z 10005c30 f i CAT.obj
 0001:00004c70       ??0?$CComObjectRootEx@VCComMultiThreadModel@ATL@@@ATL@@QAE@XZ 10005c70 f i CAT.obj
 0001:00004cb0       ??0?$CComObjectRootEx@VCComSingleThreadModel@ATL@@@ATL@@QAE@XZ 10005cb0 f i CAT.obj
 0001:00004ce0       ??0?$CComPtr@UIAdviseSink@@@ATL@@QAE@PAUIAdviseSink@@@Z 10005ce0 f i CAT.obj
 0001:00004d10       ??0?$CComPtr@UICatRegister@@@ATL@@QAE@XZ 10005d10 f i CAT.obj
 0001:00004d40       ??0?$CComPtr@UIConnectionPoint@@@ATL@@QAE@XZ 10005d40 f i CAT.obj
 0001:00004d70       ??0?$CComPtr@UIConnectionPointContainer@@@ATL@@QAE@XZ 10005d70 f i CAT.obj
 0001:00004da0       ??0?$CComPtr@UIDataObject@@@ATL@@QAE@XZ 10005da0 f i CAT.obj
 0001:00004dd0       ??0?$CComPtr@UIDispatch@@@ATL@@QAE@XZ 10005dd0 f i CAT.obj
 0001:00004e00       ??0?$CComPtr@UIOleClientSite@@@ATL@@QAE@PAUIOleClientSite@@@Z 10005e00 f i CAT.obj
 0001:00004e30       ??0?$CComPtr@UIOleControlSite@@@ATL@@QAE@XZ 10005e30 f i CAT.obj
 0001:00004e60       ??0?$CComPtr@UIOleInPlaceActiveObject@@@ATL@@QAE@XZ 10005e60 f i CAT.obj
 0001:00004e90       ??0?$CComPtr@UIOleInPlaceFrame@@@ATL@@QAE@XZ 10005e90 f i CAT.obj
 0001:00004ec0       ??0?$CComPtr@UIOleInPlaceObject@@@ATL@@QAE@XZ 10005ec0 f i CAT.obj
 0001:00004ef0       ??0?$CComPtr@UIOleInPlaceUIWindow@@@ATL@@QAE@XZ 10005ef0 f i CAT.obj
 0001:00004f20       ??0?$CComPtr@UIOleObject@@@ATL@@QAE@XZ 10005f20 f i CAT.obj
 0001:00004f50       ??0?$CComPtr@UIPersistStream@@@ATL@@QAE@XZ 10005f50 f i CAT.obj
 0001:00004f80       ??0?$CComPtr@UIPersistStreamInit@@@ATL@@QAE@XZ 10005f80 f i CAT.obj
 0001:00004fb0       ??0?$CComPtr@UIPointerInactive@@@ATL@@QAE@XZ 10005fb0 f i CAT.obj
 0001:00004fe0       ??0?$CComPtr@UIProvideClassInfo2@@@ATL@@QAE@XZ 10005fe0 f i CAT.obj
 0001:00005010       ??0?$CComPtr@UISpecifyPropertyPages@@@ATL@@QAE@XZ 10006010 f i CAT.obj
 0001:00005040       ??0?$CComPtr@UIStream@@@ATL@@QAE@XZ 10006040 f i CAT.obj
 0001:00005070       ??0?$CComPtr@UITypeInfo2@@@ATL@@QAE@XZ 10006070 f i CAT.obj
 0001:000050a0       ??0?$CComPtr@UITypeInfo@@@ATL@@QAE@ABV01@@Z 100060a0 f i CAT.obj
 0001:000050d0       ??0?$CComPtr@UITypeInfo@@@ATL@@QAE@XZ 100060d0 f i CAT.obj
 0001:00005100       ??0?$CComPtr@UITypeLib@@@ATL@@QAE@XZ 10006100 f i CAT.obj
 0001:00005130       ??0?$CComPtr@UIUnknown@@@ATL@@QAE@ABV01@@Z 10006130 f i CAT.obj
 0001:00005160       ??0?$CComPtr@UIUnknown@@@ATL@@QAE@PAUIUnknown@@@Z 10006160 f i CAT.obj
 0001:00005190       ??0?$CComPtr@UIUnknown@@@ATL@@QAE@XZ 10006190 f i CAT.obj
 0001:000051c0       ??0?$CComPtr@UIViewObjectEx@@@ATL@@QAE@XZ 100061c0 f i CAT.obj
 0001:000051f0       ??0?$CComPtrBase@UIAdviseSink@@@ATL@@IAE@PAUIAdviseSink@@@Z 100061f0 f i CAT.obj
 0001:00005240       ??0?$CComPtrBase@UICatRegister@@@ATL@@IAE@XZ 10006240 f i CAT.obj
 0001:00005260       ??0?$CComPtrBase@UIConnectionPoint@@@ATL@@IAE@XZ 10006260 f i CAT.obj
 0001:00005280       ??0?$CComPtrBase@UIConnectionPointContainer@@@ATL@@IAE@XZ 10006280 f i CAT.obj
 0001:000052a0       ??0?$CComPtrBase@UIDataObject@@@ATL@@IAE@XZ 100062a0 f i CAT.obj
 0001:000052c0       ??0?$CComPtrBase@UIDispatch@@@ATL@@IAE@XZ 100062c0 f i CAT.obj
 0001:000052e0       ??0?$CComPtrBase@UIOleClientSite@@@ATL@@IAE@PAUIOleClientSite@@@Z 100062e0 f i CAT.obj
 0001:00005330       ??0?$CComPtrBase@UIOleControlSite@@@ATL@@IAE@XZ 10006330 f i CAT.obj
 0001:00005350       ??0?$CComPtrBase@UIOleInPlaceActiveObject@@@ATL@@IAE@XZ 10006350 f i CAT.obj
 0001:00005370       ??0?$CComPtrBase@UIOleInPlaceFrame@@@ATL@@IAE@XZ 10006370 f i CAT.obj
 0001:00005390       ??0?$CComPtrBase@UIOleInPlaceObject@@@ATL@@IAE@XZ 10006390 f i CAT.obj
 0001:000053b0       ??0?$CComPtrBase@UIOleInPlaceUIWindow@@@ATL@@IAE@XZ 100063b0 f i CAT.obj
 0001:000053d0       ??0?$CComPtrBase@UIOleObject@@@ATL@@IAE@XZ 100063d0 f i CAT.obj
 0001:000053f0       ??0?$CComPtrBase@UIPersistStream@@@ATL@@IAE@XZ 100063f0 f i CAT.obj
 0001:00005410       ??0?$CComPtrBase@UIPersistStreamInit@@@ATL@@IAE@XZ 10006410 f i CAT.obj
 0001:00005430       ??0?$CComPtrBase@UIPointerInactive@@@ATL@@IAE@XZ 10006430 f i CAT.obj
 0001:00005450       ??0?$CComPtrBase@UIProvideClassInfo2@@@ATL@@IAE@XZ 10006450 f i CAT.obj
 0001:00005470       ??0?$CComPtrBase@UISpecifyPropertyPages@@@ATL@@IAE@XZ 10006470 f i CAT.obj
 0001:00005490       ??0?$CComPtrBase@UIStream@@@ATL@@IAE@XZ 10006490 f i CAT.obj
 0001:000054b0       ??0?$CComPtrBase@UITypeInfo2@@@ATL@@IAE@XZ 100064b0 f i CAT.obj
 0001:000054d0       ??0?$CComPtrBase@UITypeInfo@@@ATL@@IAE@PAUITypeInfo@@@Z 100064d0 f i CAT.obj
 0001:00005520       ??0?$CComPtrBase@UITypeInfo@@@ATL@@IAE@XZ 10006520 f i CAT.obj
 0001:00005540       ??0?$CComPtrBase@UITypeLib@@@ATL@@IAE@XZ 10006540 f i CAT.obj
 0001:00005560       ??0?$CComPtrBase@UIUnknown@@@ATL@@IAE@PAUIUnknown@@@Z 10006560 f i CAT.obj
 0001:000055b0       ??0?$CComPtrBase@UIUnknown@@@ATL@@IAE@XZ 100065b0 f i CAT.obj
 0001:000055d0       ??0?$CComPtrBase@UIViewObjectEx@@@ATL@@IAE@XZ 100065d0 f i CAT.obj
 0001:000055f0       ??0?$CComQIPtr@UIOleControlSite@@$1?_GUID_b196b289_bab4_101a_b69c_00aa00341d07@@3U__s_GUID@@B@ATL@@QAE@PAUIUnknown@@@Z 100065f0 f i CAT.obj
 0001:00005650       ??0?$CComQIPtr@UIOleObject@@$1?_GUID_00000112_0000_0000_c000_000000000046@@3U__s_GUID@@B@ATL@@QAE@XZ 10006650 f i CAT.obj
 0001:00005680       ??0?$CComQIPtr@UISpecifyPropertyPages@@$1?_GUID_b196b28b_bab4_101a_b69c_00aa00341d07@@3U__s_GUID@@B@ATL@@QAE@XZ 10006680 f i CAT.obj
 0001:000056b0       ??0?$CSimpleMap@PA_WPA_WVCExpansionVectorEqualHelper@ATL@@@ATL@@QAE@XZ 100066b0 f i CAT.obj
 0001:000056f0       ??0?$CTempBuffer@E$0BAA@VCCRTAllocator@ATL@@@ATL@@QAE@XZ 100066f0 f i CAT.obj
 0001:00005710       ??0?$CTempBuffer@_W$0BAA@VCCRTAllocator@ATL@@@ATL@@QAE@XZ 10006710 f i CAT.obj
 0001:00005730       ??0?$CTempBuffer@_W$0EAA@VCCRTAllocator@ATL@@@ATL@@QAE@XZ 10006730 f i CAT.obj
 0001:00005750       ??0?$Wrapper@PA_W@?$CSimpleMap@PA_WPA_WVCExpansionVectorEqualHelper@ATL@@@ATL@@QAE@ABQA_W@Z 10006750 f i CAT.obj
 0001:00005780       ??0CAtlModule@ATL@@QAE@XZ  10006780 f i CAT.obj
 0001:000058a0       ??0CComAutoDeleteCriticalSection@ATL@@QAE@XZ 100068a0 f i CAT.obj
 0001:000058d0       ??0CComBSTR@ATL@@QAE@XZ    100068d0 f i CAT.obj
 0001:000058f0       ??0CComClassFactory@ATL@@QAE@XZ 100068f0 f i CAT.obj
 0001:00005930       ??0CComModule@ATL@@QAE@XZ  10006930 f i CAT.obj
 0001:000059a0       ??0CComObjectRootBase@ATL@@QAE@XZ 100069a0 f i CAT.obj
 0001:000059c0       ??0CComSafeDeleteCriticalSection@ATL@@QAE@XZ 100069c0 f i CAT.obj
 0001:000059f0       ??0CComVariant@ATL@@QAE@XZ 100069f0 f i CAT.obj
 0001:00005a40       ??0CExpansionVector@ATL@@QAE@XZ 10006a40 f i CAT.obj
 0001:00005a70       ??0CParseBuffer@CRegParser@ATL@@QAE@H@Z 10006a70 f i CAT.obj
 0001:00005ae0       ??0CRegKey@ATL@@QAE@PAUHKEY__@@@Z 10006ae0 f i CAT.obj
 0001:00005b20       ??0CRegKey@ATL@@QAE@PAVCAtlTransactionManager@1@@Z 10006b20 f i CAT.obj
 0001:00005b60       ??0CRegObject@ATL@@QAE@XZ  10006b60 f i CAT.obj
 0001:00005ba0       ??0CRegParser@ATL@@QAE@PAVCRegObject@1@@Z 10006ba0 f i CAT.obj
 0001:00005bd0       ??0IClassFactory@@QAE@XZ   10006bd0 f i CAT.obj
 0001:00005c00       ??0IEnumConnectionPoints@@QAE@XZ 10006c00 f i CAT.obj
 0001:00005c30       ??0IEnumConnections@@QAE@XZ 10006c30 f i CAT.obj
 0001:00005c60       ??0IRegistrarBase@@QAE@XZ  10006c60 f i CAT.obj
 0001:00005c90       ??0IUnknown@@QAE@XZ        10006c90 f i CAT.obj
 0001:00005cb0       ??0ModuleLockHelper@ATL@@QAE@XZ 10006cb0 f i CAT.obj
 0001:00005cf0       ??0OposVariant@@QAE@XZ     10006cf0 f i CAT.obj
 0001:00005d20       ??0Wrapper@?$CSimpleArray@GV?$CSimpleArrayEqualHelper@G@ATL@@@ATL@@QAE@ABG@Z 10006d20 f i CAT.obj
 0001:00005d50       ??0_ATL_MODULE70@ATL@@QAE@XZ 10006d50 f i CAT.obj
 0001:00005d80       ??0_ATL_MSG@ATL@@QAE@PAUHWND__@@IIJH@Z 10006d80 f i CAT.obj
 0001:00005df0       ??0_U_MENUorID@ATL@@QAE@I@Z 10006df0 f i CAT.obj
 0001:00005e10       ??0_U_RECT@ATL@@QAE@AAUtagRECT@@@Z 10006e10 f i CAT.obj
 0001:00005e30       ??0stringdispid@CComTypeInfoHolder@ATL@@QAE@XZ 10006e30 f i CAT.obj
 0001:00005e70       ??1?$CAtlModuleT@VCComModule@ATL@@@ATL@@UAE@XZ 10006e70 f i CAT.obj
 0001:00005ea0       ??1?$CAtlSafeAllocBufferManager@VCCRTAllocator@ATL@@@_ATL_SAFE_ALLOCA_IMPL@ATL@@QAE@XZ 10006ea0 f i CAT.obj
 0001:00005ef0       ??1?$CAutoVectorPtr@_W@ATL@@QAE@XZ 10006ef0 f i CAT.obj
 0001:00005f20       ??1?$CComAggObject@VCOPOSCAT@@@ATL@@UAE@XZ 10006f20 f i CAT.obj
 0001:00005f90       ??1?$CComContainedObject@VCOPOSCAT@@@ATL@@UAE@XZ 10006f90 f i CAT.obj
 0001:00005fc0       ??1?$CComCritSecLock@VCComCriticalSection@ATL@@@ATL@@QAE@XZ 10006fc0 f i CAT.obj
 0001:00005ff0       ??1?$CComEnum@UIEnumConnectionPoints@@$1?_GUID_b196b285_bab4_101a_b69c_00aa00341d07@@3U__s_GUID@@BPAUIConnectionPoint@@V?$_CopyInterface@UIConnectionPoint@@@ATL@@VCComSingleThreadModel@6@@ATL@@UAE@XZ 10006ff0 f i CAT.obj
 0001:00006020       ??1?$CComEnum@UIEnumConnections@@$1?_GUID_b196b287_bab4_101a_b69c_00aa00341d07@@3U__s_GUID@@BUtagCONNECTDATA@@V?$_Copy@UtagCONNECTDATA@@@ATL@@VCComSingleThreadModel@6@@ATL@@UAE@XZ 10007020 f i CAT.obj
 0001:00006050       ??1?$CComEnumImpl@UIEnumConnectionPoints@@$1?_GUID_b196b285_bab4_101a_b69c_00aa00341d07@@3U__s_GUID@@BPAUIConnectionPoint@@V?$_CopyInterface@UIConnectionPoint@@@ATL@@@ATL@@UAE@XZ 10007050 f i CAT.obj
 0001:000060e0       ??1?$CComEnumImpl@UIEnumConnections@@$1?_GUID_b196b287_bab4_101a_b69c_00aa00341d07@@3U__s_GUID@@BUtagCONNECTDATA@@V?$_Copy@UtagCONNECTDATA@@@ATL@@@ATL@@UAE@XZ 100070e0 f i CAT.obj
 0001:00006170       ??1?$CComObject@V?$CComEnum@UIEnumConnectionPoints@@$1?_GUID_b196b285_bab4_101a_b69c_00aa00341d07@@3U__s_GUID@@BPAUIConnectionPoint@@V?$_CopyInterface@UIConnectionPoint@@@ATL@@VCComSingleThreadModel@6@@ATL@@@ATL@@UAE@XZ 10007170 f i CAT.obj
 0001:000061d0       ??1?$CComObject@V?$CComEnum@UIEnumConnections@@$1?_GUID_b196b287_bab4_101a_b69c_00aa00341d07@@3U__s_GUID@@BUtagCONNECTDATA@@V?$_Copy@UtagCONNECTDATA@@@ATL@@VCComSingleThreadModel@6@@ATL@@@ATL@@UAE@XZ 100071d0 f i CAT.obj
 0001:00006230       ??1?$CComObject@VCOPOSCAT@@@ATL@@UAE@XZ 10007230 f i CAT.obj
 0001:00006370       ??1?$CComObjectCached@VCComClassFactory@ATL@@@ATL@@UAE@XZ 10007370 f i CAT.obj
 0001:000063c0       ??1?$CComObjectRootEx@VCComMultiThreadModel@ATL@@@ATL@@QAE@XZ 100073c0 f i CAT.obj
 0001:000063f0       ??1?$CComObjectRootEx@VCComSingleThreadModel@ATL@@@ATL@@QAE@XZ 100073f0 f i CAT.obj
 0001:00006420       ??1?$CComPtr@UIAdviseSink@@@ATL@@QAE@XZ 10007420 f i CAT.obj
 0001:00006450       ??1?$CComPtr@UICatRegister@@@ATL@@QAE@XZ 10007450 f i CAT.obj
 0001:00006480       ??1?$CComPtr@UIConnectionPoint@@@ATL@@QAE@XZ 10007480 f i CAT.obj
 0001:000064b0       ??1?$CComPtr@UIConnectionPointContainer@@@ATL@@QAE@XZ 100074b0 f i CAT.obj
 0001:000064e0       ??1?$CComPtr@UIDataObject@@@ATL@@QAE@XZ 100074e0 f i CAT.obj
 0001:00006510       ??1?$CComPtr@UIDispatch@@@ATL@@QAE@XZ 10007510 f i CAT.obj
 0001:00006540       ??1?$CComPtr@UIOleClientSite@@@ATL@@QAE@XZ 10007540 f i CAT.obj
 0001:00006570       ??1?$CComPtr@UIOleControlSite@@@ATL@@QAE@XZ 10007570 f i CAT.obj
 0001:000065a0       ??1?$CComPtr@UIOleInPlaceActiveObject@@@ATL@@QAE@XZ 100075a0 f i CAT.obj
 0001:000065d0       ??1?$CComPtr@UIOleInPlaceFrame@@@ATL@@QAE@XZ 100075d0 f i CAT.obj
 0001:00006600       ??1?$CComPtr@UIOleInPlaceObject@@@ATL@@QAE@XZ 10007600 f i CAT.obj
 0001:00006630       ??1?$CComPtr@UIOleInPlaceUIWindow@@@ATL@@QAE@XZ 10007630 f i CAT.obj
 0001:00006660       ??1?$CComPtr@UIOleObject@@@ATL@@QAE@XZ 10007660 f i CAT.obj
 0001:00006690       ??1?$CComPtr@UIPersistStream@@@ATL@@QAE@XZ 10007690 f i CAT.obj
 0001:000066c0       ??1?$CComPtr@UIPersistStreamInit@@@ATL@@QAE@XZ 100076c0 f i CAT.obj
 0001:000066f0       ??1?$CComPtr@UIPointerInactive@@@ATL@@QAE@XZ 100076f0 f i CAT.obj
 0001:00006720       ??1?$CComPtr@UIProvideClassInfo2@@@ATL@@QAE@XZ 10007720 f i CAT.obj
 0001:00006750       ??1?$CComPtr@UISpecifyPropertyPages@@@ATL@@QAE@XZ 10007750 f i CAT.obj
 0001:00006780       ??1?$CComPtr@UIStream@@@ATL@@QAE@XZ 10007780 f i CAT.obj
 0001:000067b0       ??1?$CComPtr@UITypeInfo2@@@ATL@@QAE@XZ 100077b0 f i CAT.obj
 0001:000067e0       ??1?$CComPtr@UITypeInfo@@@ATL@@QAE@XZ 100077e0 f i CAT.obj
 0001:00006810       ??1?$CComPtr@UITypeLib@@@ATL@@QAE@XZ 10007810 f i CAT.obj
 0001:00006840       ??1?$CComPtr@UIUnknown@@@ATL@@QAE@XZ 10007840 f i CAT.obj
 0001:00006870       ??1?$CComPtr@UIViewObjectEx@@@ATL@@QAE@XZ 10007870 f i CAT.obj
 0001:000068a0       ??1?$CComPtrBase@UIAdviseSink@@@ATL@@QAE@XZ 100078a0 f i CAT.obj
 0001:000068f0       ??1?$CComPtrBase@UICatRegister@@@ATL@@QAE@XZ 100078f0 f i CAT.obj
 0001:00006940       ??1?$CComPtrBase@UIConnectionPoint@@@ATL@@QAE@XZ 10007940 f i CAT.obj
 0001:00006990       ??1?$CComPtrBase@UIConnectionPointContainer@@@ATL@@QAE@XZ 10007990 f i CAT.obj
 0001:000069e0       ??1?$CComPtrBase@UIDataObject@@@ATL@@QAE@XZ 100079e0 f i CAT.obj
 0001:00006a30       ??1?$CComPtrBase@UIDispatch@@@ATL@@QAE@XZ 10007a30 f i CAT.obj
 0001:00006a80       ??1?$CComPtrBase@UIOleClientSite@@@ATL@@QAE@XZ 10007a80 f i CAT.obj
 0001:00006ad0       ??1?$CComPtrBase@UIOleControlSite@@@ATL@@QAE@XZ 10007ad0 f i CAT.obj
 0001:00006b20       ??1?$CComPtrBase@UIOleInPlaceActiveObject@@@ATL@@QAE@XZ 10007b20 f i CAT.obj
 0001:00006b70       ??1?$CComPtrBase@UIOleInPlaceFrame@@@ATL@@QAE@XZ 10007b70 f i CAT.obj
 0001:00006bc0       ??1?$CComPtrBase@UIOleInPlaceObject@@@ATL@@QAE@XZ 10007bc0 f i CAT.obj
 0001:00006c10       ??1?$CComPtrBase@UIOleInPlaceUIWindow@@@ATL@@QAE@XZ 10007c10 f i CAT.obj
 0001:00006c60       ??1?$CComPtrBase@UIOleObject@@@ATL@@QAE@XZ 10007c60 f i CAT.obj
 0001:00006cb0       ??1?$CComPtrBase@UIPersistStream@@@ATL@@QAE@XZ 10007cb0 f i CAT.obj
 0001:00006d00       ??1?$CComPtrBase@UIPersistStreamInit@@@ATL@@QAE@XZ 10007d00 f i CAT.obj
 0001:00006d50       ??1?$CComPtrBase@UIPointerInactive@@@ATL@@QAE@XZ 10007d50 f i CAT.obj
 0001:00006da0       ??1?$CComPtrBase@UIProvideClassInfo2@@@ATL@@QAE@XZ 10007da0 f i CAT.obj
 0001:00006df0       ??1?$CComPtrBase@UISpecifyPropertyPages@@@ATL@@QAE@XZ 10007df0 f i CAT.obj
 0001:00006e40       ??1?$CComPtrBase@UIStream@@@ATL@@QAE@XZ 10007e40 f i CAT.obj
 0001:00006e90       ??1?$CComPtrBase@UITypeInfo2@@@ATL@@QAE@XZ 10007e90 f i CAT.obj
 0001:00006ee0       ??1?$CComPtrBase@UITypeInfo@@@ATL@@QAE@XZ 10007ee0 f i CAT.obj
 0001:00006f30       ??1?$CComPtrBase@UITypeLib@@@ATL@@QAE@XZ 10007f30 f i CAT.obj
 0001:00006f80       ??1?$CComPtrBase@UIUnknown@@@ATL@@QAE@XZ 10007f80 f i CAT.obj
 0001:00006fd0       ??1?$CComPtrBase@UIViewObjectEx@@@ATL@@QAE@XZ 10007fd0 f i CAT.obj
 0001:00007020       ??1?$CComQIPtr@UIOleControlSite@@$1?_GUID_b196b289_bab4_101a_b69c_00aa00341d07@@3U__s_GUID@@B@ATL@@QAE@XZ 10008020 f i CAT.obj
 0001:00007050       ??1?$CComQIPtr@UIOleObject@@$1?_GUID_00000112_0000_0000_c000_000000000046@@3U__s_GUID@@B@ATL@@QAE@XZ 10008050 f i CAT.obj
 0001:00007080       ??1?$CComQIPtr@UISpecifyPropertyPages@@$1?_GUID_b196b28b_bab4_101a_b69c_00aa00341d07@@3U__s_GUID@@B@ATL@@QAE@XZ 10008080 f i CAT.obj
 0001:000070b0       ??1?$CSimpleMap@PA_WPA_WVCExpansionVectorEqualHelper@ATL@@@ATL@@QAE@XZ 100080b0 f i CAT.obj
 0001:000070e0       ??1?$CTempBuffer@E$0BAA@VCCRTAllocator@ATL@@@ATL@@QAE@XZ 100080e0 f i CAT.obj
 0001:00007120       ??1?$CTempBuffer@_W$0BAA@VCCRTAllocator@ATL@@@ATL@@QAE@XZ 10008120 f i CAT.obj
 0001:00007160       ??1?$CTempBuffer@_W$0EAA@VCCRTAllocator@ATL@@@ATL@@QAE@XZ 10008160 f i CAT.obj
 0001:000071a0       ??1CAtlModule@ATL@@UAE@XZ  100081a0 f i CAT.obj
 0001:000071d0       ??1CComAutoDeleteCriticalSection@ATL@@QAE@XZ 100081d0 f i CAT.obj
 0001:00007200       ??1CComClassFactory@ATL@@UAE@XZ 10008200 f i CAT.obj
 0001:00007230       ??1CComModule@ATL@@UAE@XZ  10008230 f i CAT.obj
 0001:00007260       ??1CComObjectRootBase@ATL@@QAE@XZ 10008260 f i CAT.obj
 0001:00007280       ??1CComSafeDeleteCriticalSection@ATL@@QAE@XZ 10008280 f i CAT.obj
 0001:000072c0       ??1CComVariant@ATL@@QAE@XZ 100082c0 f i CAT.obj
 0001:00007320       ??1CExpansionVector@ATL@@QAE@XZ 10008320 f i CAT.obj
 0001:00007350       ??1CParseBuffer@CRegParser@ATL@@QAE@XZ 10008350 f i CAT.obj
 0001:00007390       ??1CRegKey@ATL@@QAE@XZ     10008390 f i CAT.obj
 0001:000073c0       ??1CRegObject@ATL@@UAE@XZ  100083c0 f i CAT.obj
 0001:00007400       ??1ModuleLockHelper@ATL@@QAE@XZ 10008400 f i CAT.obj
 0001:00007440       ??1OposVariant@@QAE@XZ     10008440 f i CAT.obj
 0001:00007470       ??1_ATL_MODULE70@ATL@@QAE@XZ 10008470 f i CAT.obj
 0001:000074a0       ??4?$CComPtr@UIAdviseSink@@@ATL@@QAEPAUIAdviseSink@@PAU2@@Z 100084a0 f i CAT.obj
 0001:00007510       ??4?$CComPtr@UIOleClientSite@@@ATL@@QAEPAUIOleClientSite@@PAU2@@Z 10008510 f i CAT.obj
 0001:00007580       ??4?$CComPtr@UIUnknown@@@ATL@@QAEPAUIUnknown@@PAU2@@Z 10008580 f i CAT.obj
 0001:000075f0       ??4?$CComQIPtr@UIOleObject@@$1?_GUID_00000112_0000_0000_c000_000000000046@@3U__s_GUID@@B@ATL@@QAEPAUIOleObject@@PAUIUnknown@@@Z 100085f0 f i CAT.obj
 0001:00007640       ??4?$CComQIPtr@UISpecifyPropertyPages@@$1?_GUID_b196b28b_bab4_101a_b69c_00aa00341d07@@3U__s_GUID@@B@ATL@@QAEPAUISpecifyPropertyPages@@PAUIUnknown@@@Z 10008640 f i CAT.obj
 0001:00007690       ??7?$CComPtrBase@UIOleClientSite@@@ATL@@QBE_NXZ 10008690 f i CAT.obj
 0001:000076d0       ??7?$CComPtrBase@UIOleInPlaceSiteWindowless@@@ATL@@QBE_NXZ 100086d0 f i CAT.obj
 0001:00007710       ??7CComBSTR@ATL@@QBE_NXZ   10008710 f i CAT.obj
 0001:00007750       ??8?$CComPtrBase@UIAdviseSink@@@ATL@@QBE_NPAUIAdviseSink@@@Z 10008750 f i CAT.obj
 0001:00007790       ??8?$CComPtrBase@UIConnectionPointContainer@@@ATL@@QBE_NPAUIConnectionPointContainer@@@Z 10008790 f i CAT.obj
 0001:000077d0       ??8?$CComPtrBase@UIDataAdviseHolder@@@ATL@@QBE_NPAUIDataAdviseHolder@@@Z 100087d0 f i CAT.obj
 0001:00007810       ??8?$CComPtrBase@UIOleAdviseHolder@@@ATL@@QBE_NPAUIOleAdviseHolder@@@Z 10008810 f i CAT.obj
 0001:00007850       ??8?$CComPtrBase@UIOleClientSite@@@ATL@@QBE_NPAUIOleClientSite@@@Z 10008850 f i CAT.obj
 0001:00007890       ??8?$CComPtrBase@UIOleControlSite@@@ATL@@QBE_NPAUIOleControlSite@@@Z 10008890 f i CAT.obj
 0001:000078d0       ??8?$CComPtrBase@UIOleInPlaceObject@@@ATL@@QBE_NPAUIOleInPlaceObject@@@Z 100088d0 f i CAT.obj
 0001:00007910       ??8?$CComPtrBase@UIOleInPlaceSiteWindowless@@@ATL@@QBE_NPAUIOleInPlaceSiteWindowless@@@Z 10008910 f i CAT.obj
 0001:00007950       ??8?$CComPtrBase@UIOleObject@@@ATL@@QBE_NPAUIOleObject@@@Z 10008950 f i CAT.obj
 0001:00007990       ??8?$CComPtrBase@UIPersistStream@@@ATL@@QBE_NPAUIPersistStream@@@Z 10008990 f i CAT.obj
 0001:000079d0       ??8?$CComPtrBase@UIPersistStreamInit@@@ATL@@QBE_NPAUIPersistStreamInit@@@Z 100089d0 f i CAT.obj
 0001:00007a10       ??8?$CComPtrBase@UIPointerInactive@@@ATL@@QBE_NPAUIPointerInactive@@@Z 10008a10 f i CAT.obj
 0001:00007a50       ??8?$CComPtrBase@UIUnknown@@@ATL@@QBE_NPAUIUnknown@@@Z 10008a50 f i CAT.obj
 0001:00007a90       ??8?$CComPtrBase@UIViewObjectEx@@@ATL@@QBE_NPAUIViewObjectEx@@@Z 10008a90 f i CAT.obj
 0001:00007ad0       ??8CComBSTR@ATL@@QBE_NH@Z  10008ad0 f i CAT.obj
 0001:00007b30       ??9?$CComPtrBase@UIAdviseSink@@@ATL@@QBE_NPAUIAdviseSink@@@Z 10008b30 f i CAT.obj
 0001:00007b80       ??9?$CComPtrBase@UIConnectionPointContainer@@@ATL@@QBE_NPAUIConnectionPointContainer@@@Z 10008b80 f i CAT.obj
 0001:00007bd0       ??9?$CComPtrBase@UIDataAdviseHolder@@@ATL@@QBE_NPAUIDataAdviseHolder@@@Z 10008bd0 f i CAT.obj
 0001:00007c20       ??9?$CComPtrBase@UIOleAdviseHolder@@@ATL@@QBE_NPAUIOleAdviseHolder@@@Z 10008c20 f i CAT.obj
 0001:00007c70       ??9?$CComPtrBase@UIOleClientSite@@@ATL@@QBE_NPAUIOleClientSite@@@Z 10008c70 f i CAT.obj
 0001:00007cc0       ??9?$CComPtrBase@UIOleControlSite@@@ATL@@QBE_NPAUIOleControlSite@@@Z 10008cc0 f i CAT.obj
 0001:00007d10       ??9?$CComPtrBase@UIOleInPlaceObject@@@ATL@@QBE_NPAUIOleInPlaceObject@@@Z 10008d10 f i CAT.obj
 0001:00007d60       ??9?$CComPtrBase@UIOleInPlaceSiteWindowless@@@ATL@@QBE_NPAUIOleInPlaceSiteWindowless@@@Z 10008d60 f i CAT.obj
 0001:00007db0       ??9?$CComPtrBase@UIOleObject@@@ATL@@QBE_NPAUIOleObject@@@Z 10008db0 f i CAT.obj
 0001:00007e00       ??9?$CComPtrBase@UIPersistStream@@@ATL@@QBE_NPAUIPersistStream@@@Z 10008e00 f i CAT.obj
 0001:00007e50       ??9?$CComPtrBase@UIPersistStreamInit@@@ATL@@QBE_NPAUIPersistStreamInit@@@Z 10008e50 f i CAT.obj
 0001:00007ea0       ??9?$CComPtrBase@UIPointerInactive@@@ATL@@QBE_NPAUIPointerInactive@@@Z 10008ea0 f i CAT.obj
 0001:00007ef0       ??9?$CComPtrBase@UIUnknown@@@ATL@@QBE_NPAUIUnknown@@@Z 10008ef0 f i CAT.obj
 0001:00007f40       ??9?$CComPtrBase@UIViewObjectEx@@@ATL@@QBE_NPAUIViewObjectEx@@@Z 10008f40 f i CAT.obj
 0001:00007f90       ??9CComBSTR@ATL@@QBE_NH@Z  10008f90 f i CAT.obj
 0001:00007fe0       ??B?$CComPtrBase@UIAdviseSink@@@ATL@@QBEPAUIAdviseSink@@XZ 10008fe0 f i CAT.obj
 0001:00008000       ??B?$CComPtrBase@UIDataAdviseHolder@@@ATL@@QBEPAUIDataAdviseHolder@@XZ 10009000 f i CAT.obj
 0001:00008020       ??B?$CComPtrBase@UIDataObject@@@ATL@@QBEPAUIDataObject@@XZ 10009020 f i CAT.obj
 0001:00008040       ??B?$CComPtrBase@UIOleAdviseHolder@@@ATL@@QBEPAUIOleAdviseHolder@@XZ 10009040 f i CAT.obj
 0001:00008060       ??B?$CComPtrBase@UIOleClientSite@@@ATL@@QBEPAUIOleClientSite@@XZ 10009060 f i CAT.obj
 0001:00008080       ??B?$CComPtrBase@UIOleControlSite@@@ATL@@QBEPAUIOleControlSite@@XZ 10009080 f i CAT.obj
 0001:000080a0       ??B?$CComPtrBase@UIOleInPlaceActiveObject@@@ATL@@QBEPAUIOleInPlaceActiveObject@@XZ 100090a0 f i CAT.obj
 0001:000080c0       ??B?$CComPtrBase@UIOleInPlaceFrame@@@ATL@@QBEPAUIOleInPlaceFrame@@XZ 100090c0 f i CAT.obj
 0001:000080e0       ??B?$CComPtrBase@UIOleInPlaceSiteWindowless@@@ATL@@QBEPAUIOleInPlaceSiteWindowless@@XZ 100090e0 f i CAT.obj
 0001:00008100       ??B?$CComPtrBase@UIOleInPlaceUIWindow@@@ATL@@QBEPAUIOleInPlaceUIWindow@@XZ 10009100 f i CAT.obj
 0001:00008120       ??B?$CComPtrBase@UIOleObject@@@ATL@@QBEPAUIOleObject@@XZ 10009120 f i CAT.obj
 0001:00008140       ??B?$CComPtrBase@UIPersistStream@@@ATL@@QBEPAUIPersistStream@@XZ 10009140 f i CAT.obj
 0001:00008160       ??B?$CComPtrBase@UIProvideClassInfo2@@@ATL@@QBEPAUIProvideClassInfo2@@XZ 10009160 f i CAT.obj
 0001:00008180       ??B?$CComPtrBase@UISpecifyPropertyPages@@@ATL@@QBEPAUISpecifyPropertyPages@@XZ 10009180 f i CAT.obj
 0001:000081a0       ??B?$CComPtrBase@UIStream@@@ATL@@QBEPAUIStream@@XZ 100091a0 f i CAT.obj
 0001:000081c0       ??B?$CComPtrBase@UITypeInfo2@@@ATL@@QBEPAUITypeInfo2@@XZ 100091c0 f i CAT.obj
 0001:000081e0       ??B?$CComPtrBase@UITypeInfo@@@ATL@@QBEPAUITypeInfo@@XZ 100091e0 f i CAT.obj
 0001:00008200       ??B?$CComPtrBase@UITypeLib@@@ATL@@QBEPAUITypeLib@@XZ 10009200 f i CAT.obj
 0001:00008220       ??B?$CComPtrBase@UIUnknown@@@ATL@@QBEPAUIUnknown@@XZ 10009220 f i CAT.obj
 0001:00008240       ??B?$CTempBuffer@E$0BAA@VCCRTAllocator@ATL@@@ATL@@QBEPAEXZ 10009240 f i CAT.obj
 0001:00008260       ??B?$CTempBuffer@_W$0BAA@VCCRTAllocator@ATL@@@ATL@@QBEPA_WXZ 10009260 f i CAT.obj
 0001:00008280       ??B?$CTempBuffer@_W$0EAA@VCCRTAllocator@ATL@@@ATL@@QBEPA_WXZ 10009280 f i CAT.obj
 0001:000082a0       ??B?$CTraceCategoryEx@$00$0A@@ATL@@QAEIXZ 100092a0 f i CAT.obj
 0001:000082c0       ??B?$CTraceCategoryEx@$07$0A@@ATL@@QAEIXZ 100092c0 f i CAT.obj
 0001:000082e0       ??B?$CTraceCategoryEx@$0CAAA@$0A@@ATL@@QAEIXZ 100092e0 f i CAT.obj
 0001:00008300       ??B?$CTraceCategoryEx@$0EA@$0A@@ATL@@QAEIXZ 10009300 f i CAT.obj
 0001:00008320       ??B?$CTraceCategoryEx@$0IAA@$0A@@ATL@@QAEIXZ 10009320 f i CAT.obj
 0001:00008340       ??BCComBSTR@ATL@@QBEPA_WXZ 10009340 f i CAT.obj
 0001:00008360       ??BCRegKey@ATL@@QBEPAUHKEY__@@XZ 10009360 f i CAT.obj
 0001:00008380       ??C?$CComPtrBase@UIAdviseSink@@@ATL@@QBEPAV?$_NoAddRefReleaseOnCComPtr@UIAdviseSink@@@1@XZ 10009380 f i CAT.obj
 0001:000083d0       ??C?$CComPtrBase@UICatRegister@@@ATL@@QBEPAV?$_NoAddRefReleaseOnCComPtr@UICatRegister@@@1@XZ 100093d0 f i CAT.obj
 0001:00008420       ??C?$CComPtrBase@UIConnectionPoint@@@ATL@@QBEPAV?$_NoAddRefReleaseOnCComPtr@UIConnectionPoint@@@1@XZ 10009420 f i CAT.obj
 0001:00008470       ??C?$CComPtrBase@UIConnectionPointContainer@@@ATL@@QBEPAV?$_NoAddRefReleaseOnCComPtr@UIConnectionPointContainer@@@1@XZ 10009470 f i CAT.obj
 0001:000084c0       ??C?$CComPtrBase@UIDataAdviseHolder@@@ATL@@QBEPAV?$_NoAddRefReleaseOnCComPtr@UIDataAdviseHolder@@@1@XZ 100094c0 f i CAT.obj
 0001:00008510       ??C?$CComPtrBase@UIOleAdviseHolder@@@ATL@@QBEPAV?$_NoAddRefReleaseOnCComPtr@UIOleAdviseHolder@@@1@XZ 10009510 f i CAT.obj
 0001:00008560       ??C?$CComPtrBase@UIOleClientSite@@@ATL@@QBEPAV?$_NoAddRefReleaseOnCComPtr@UIOleClientSite@@@1@XZ 10009560 f i CAT.obj
 0001:000085b0       ??C?$CComPtrBase@UIOleControlSite@@@ATL@@QBEPAV?$_NoAddRefReleaseOnCComPtr@UIOleControlSite@@@1@XZ 100095b0 f i CAT.obj
 0001:00008600       ??C?$CComPtrBase@UIOleInPlaceFrame@@@ATL@@QBEPAV?$_NoAddRefReleaseOnCComPtr@UIOleInPlaceFrame@@@1@XZ 10009600 f i CAT.obj
 0001:00008650       ??C?$CComPtrBase@UIOleInPlaceObject@@@ATL@@QBEPAV?$_NoAddRefReleaseOnCComPtr@UIOleInPlaceObject@@@1@XZ 10009650 f i CAT.obj
 0001:000086a0       ??C?$CComPtrBase@UIOleInPlaceSiteWindowless@@@ATL@@QBEPAV?$_NoAddRefReleaseOnCComPtr@UIOleInPlaceSiteWindowless@@@1@XZ 100096a0 f i CAT.obj
 0001:000086f0       ??C?$CComPtrBase@UIOleInPlaceUIWindow@@@ATL@@QBEPAV?$_NoAddRefReleaseOnCComPtr@UIOleInPlaceUIWindow@@@1@XZ 100096f0 f i CAT.obj
 0001:00008740       ??C?$CComPtrBase@UIOleObject@@@ATL@@QBEPAV?$_NoAddRefReleaseOnCComPtr@UIOleObject@@@1@XZ 10009740 f i CAT.obj
 0001:00008790       ??C?$CComPtrBase@UIPersistStream@@@ATL@@QBEPAV?$_NoAddRefReleaseOnCComPtr@UIPersistStream@@@1@XZ 10009790 f i CAT.obj
 0001:000087e0       ??C?$CComPtrBase@UIPersistStreamInit@@@ATL@@QBEPAV?$_NoAddRefReleaseOnCComPtr@UIPersistStreamInit@@@1@XZ 100097e0 f i CAT.obj
 0001:00008830       ??C?$CComPtrBase@UIPointerInactive@@@ATL@@QBEPAV?$_NoAddRefReleaseOnCComPtr@UIPointerInactive@@@1@XZ 10009830 f i CAT.obj
 0001:00008880       ??C?$CComPtrBase@UIProvideClassInfo2@@@ATL@@QBEPAV?$_NoAddRefReleaseOnCComPtr@UIProvideClassInfo2@@@1@XZ 10009880 f i CAT.obj
 0001:000088d0       ??C?$CComPtrBase@UISpecifyPropertyPages@@@ATL@@QBEPAV?$_NoAddRefReleaseOnCComPtr@UISpecifyPropertyPages@@@1@XZ 100098d0 f i CAT.obj
 0001:00008920       ??C?$CComPtrBase@UITypeInfo@@@ATL@@QBEPAV?$_NoAddRefReleaseOnCComPtr@UITypeInfo@@@1@XZ 10009920 f i CAT.obj
 0001:00008970       ??C?$CComPtrBase@UITypeLib@@@ATL@@QBEPAV?$_NoAddRefReleaseOnCComPtr@UITypeLib@@@1@XZ 10009970 f i CAT.obj
 0001:000089c0       ??C?$CComPtrBase@UIUnknown@@@ATL@@QBEPAV?$_NoAddRefReleaseOnCComPtr@UIUnknown@@@1@XZ 100099c0 f i CAT.obj
 0001:00008a10       ??C?$CComPtrBase@UIViewObjectEx@@@ATL@@QBEPAV?$_NoAddRefReleaseOnCComPtr@UIViewObjectEx@@@1@XZ 10009a10 f i CAT.obj
 0001:00008a60       ??I?$CComPtrBase@UICatRegister@@@ATL@@QAEPAPAUICatRegister@@XZ 10009a60 f i CAT.obj
 0001:00008ab0       ??I?$CComPtrBase@UIConnectionPoint@@@ATL@@QAEPAPAUIConnectionPoint@@XZ 10009ab0 f i CAT.obj
 0001:00008b00       ??I?$CComPtrBase@UIConnectionPointContainer@@@ATL@@QAEPAPAUIConnectionPointContainer@@XZ 10009b00 f i CAT.obj
 0001:00008b50       ??I?$CComPtrBase@UIDataAdviseHolder@@@ATL@@QAEPAPAUIDataAdviseHolder@@XZ 10009b50 f i CAT.obj
 0001:00008ba0       ??I?$CComPtrBase@UIDataObject@@@ATL@@QAEPAPAUIDataObject@@XZ 10009ba0 f i CAT.obj
 0001:00008bf0       ??I?$CComPtrBase@UIDispatch@@@ATL@@QAEPAPAUIDispatch@@XZ 10009bf0 f i CAT.obj
 0001:00008c40       ??I?$CComPtrBase@UIOleAdviseHolder@@@ATL@@QAEPAPAUIOleAdviseHolder@@XZ 10009c40 f i CAT.obj
 0001:00008c90       ??I?$CComPtrBase@UIOleControlSite@@@ATL@@QAEPAPAUIOleControlSite@@XZ 10009c90 f i CAT.obj
 0001:00008ce0       ??I?$CComPtrBase@UIOleInPlaceActiveObject@@@ATL@@QAEPAPAUIOleInPlaceActiveObject@@XZ 10009ce0 f i CAT.obj
 0001:00008d30       ??I?$CComPtrBase@UIOleInPlaceFrame@@@ATL@@QAEPAPAUIOleInPlaceFrame@@XZ 10009d30 f i CAT.obj
 0001:00008d80       ??I?$CComPtrBase@UIOleInPlaceObject@@@ATL@@QAEPAPAUIOleInPlaceObject@@XZ 10009d80 f i CAT.obj
 0001:00008dd0       ??I?$CComPtrBase@UIOleInPlaceSiteWindowless@@@ATL@@QAEPAPAUIOleInPlaceSiteWindowless@@XZ 10009dd0 f i CAT.obj
 0001:00008e20       ??I?$CComPtrBase@UIOleInPlaceUIWindow@@@ATL@@QAEPAPAUIOleInPlaceUIWindow@@XZ 10009e20 f i CAT.obj
 0001:00008e70       ??I?$CComPtrBase@UIOleObject@@@ATL@@QAEPAPAUIOleObject@@XZ 10009e70 f i CAT.obj
 0001:00008ec0       ??I?$CComPtrBase@UIPersistStream@@@ATL@@QAEPAPAUIPersistStream@@XZ 10009ec0 f i CAT.obj
 0001:00008f10       ??I?$CComPtrBase@UIPointerInactive@@@ATL@@QAEPAPAUIPointerInactive@@XZ 10009f10 f i CAT.obj
 0001:00008f60       ??I?$CComPtrBase@UIProvideClassInfo2@@@ATL@@QAEPAPAUIProvideClassInfo2@@XZ 10009f60 f i CAT.obj
 0001:00008fb0       ??I?$CComPtrBase@UIStream@@@ATL@@QAEPAPAUIStream@@XZ 10009fb0 f i CAT.obj
 0001:00009000       ??I?$CComPtrBase@UITypeInfo2@@@ATL@@QAEPAPAUITypeInfo2@@XZ 1000a000 f i CAT.obj
 0001:00009050       ??I?$CComPtrBase@UITypeInfo@@@ATL@@QAEPAPAUITypeInfo@@XZ 1000a050 f i CAT.obj
 0001:000090a0       ??I?$CComPtrBase@UITypeLib@@@ATL@@QAEPAPAUITypeLib@@XZ 1000a0a0 f i CAT.obj
 0001:000090f0       ??I?$CComPtrBase@UIUnknown@@@ATL@@QAEPAPAUIUnknown@@XZ 1000a0f0 f i CAT.obj
 0001:00009140       ??I?$CComPtrBase@UIViewObjectEx@@@ATL@@QAEPAPAUIViewObjectEx@@XZ 1000a140 f i CAT.obj
 0001:00009190       ??ICComBSTR@ATL@@QAEPAPA_WXZ 1000a190 f i CAT.obj
 0001:000091a5       ??_E?$CComContainedObject@VCOPOSCAT@@@ATL@@W3AEPAXI@Z 1000a1a5 f i CAT.obj
 0001:000091ad       ??_E?$CComContainedObject@VCOPOSCAT@@@ATL@@WEM@AEPAXI@Z 1000a1ad f i CAT.obj
 0001:000091b5       ??_E?$CComObject@VCOPOSCAT@@@ATL@@W3AEPAXI@Z 1000a1b5 f i CAT.obj
 0001:000091bd       ??_E?$CComObject@VCOPOSCAT@@@ATL@@WEM@AEPAXI@Z 1000a1bd f i CAT.obj
 0001:000091d0       ??_G?$CComAggObject@VCOPOSCAT@@@ATL@@UAEPAXI@Z 1000a1d0 f i CAT.obj
 0001:000091d0       ??_E?$CComAggObject@VCOPOSCAT@@@ATL@@UAEPAXI@Z 1000a1d0 f i CAT.obj
 0001:00009220       ??_G?$CComContainedObject@VCOPOSCAT@@@ATL@@UAEPAXI@Z 1000a220 f i CAT.obj
 0001:00009220       ??_E?$CComContainedObject@VCOPOSCAT@@@ATL@@UAEPAXI@Z 1000a220 f i CAT.obj
 0001:00009270       ??_E?$CComObject@V?$CComEnum@UIEnumConnectionPoints@@$1?_GUID_b196b285_bab4_101a_b69c_00aa00341d07@@3U__s_GUID@@BPAUIConnectionPoint@@V?$_CopyInterface@UIConnectionPoint@@@ATL@@VCComSingleThreadModel@6@@ATL@@@ATL@@UAEPAXI@Z 1000a270 f i CAT.obj
 0001:00009270       ??_G?$CComObject@V?$CComEnum@UIEnumConnectionPoints@@$1?_GUID_b196b285_bab4_101a_b69c_00aa00341d07@@3U__s_GUID@@BPAUIConnectionPoint@@V?$_CopyInterface@UIConnectionPoint@@@ATL@@VCComSingleThreadModel@6@@ATL@@@ATL@@UAEPAXI@Z 1000a270 f i CAT.obj
 0001:000092b0       ??_G?$CComObject@V?$CComEnum@UIEnumConnections@@$1?_GUID_b196b287_bab4_101a_b69c_00aa00341d07@@3U__s_GUID@@BUtagCONNECTDATA@@V?$_Copy@UtagCONNECTDATA@@@ATL@@VCComSingleThreadModel@6@@ATL@@@ATL@@UAEPAXI@Z 1000a2b0 f i CAT.obj
 0001:000092b0       ??_E?$CComObject@V?$CComEnum@UIEnumConnections@@$1?_GUID_b196b287_bab4_101a_b69c_00aa00341d07@@3U__s_GUID@@BUtagCONNECTDATA@@V?$_Copy@UtagCONNECTDATA@@@ATL@@VCComSingleThreadModel@6@@ATL@@@ATL@@UAEPAXI@Z 1000a2b0 f i CAT.obj
 0001:000092f0       ??_G?$CComObject@VCOPOSCAT@@@ATL@@UAEPAXI@Z 1000a2f0 f i CAT.obj
 0001:000092f0       ??_E?$CComObject@VCOPOSCAT@@@ATL@@UAEPAXI@Z 1000a2f0 f i CAT.obj
 0001:00009340       ??_E?$CComObjectCached@VCComClassFactory@ATL@@@ATL@@UAEPAXI@Z 1000a340 f i CAT.obj
 0001:00009340       ??_G?$CComObjectCached@VCComClassFactory@ATL@@@ATL@@UAEPAXI@Z 1000a340 f i CAT.obj
 0001:00009380       ??_ECComClassFactory@ATL@@UAEPAXI@Z 1000a380 f i CAT.obj
 0001:00009380       ??_GCComClassFactory@ATL@@UAEPAXI@Z 1000a380 f i CAT.obj
 0001:000093c0       ??_ECComModule@ATL@@UAEPAXI@Z 1000a3c0 f i CAT.obj
 0001:000093c0       ??_GCComModule@ATL@@UAEPAXI@Z 1000a3c0 f i CAT.obj
 0001:00009400       ??_ECRegObject@ATL@@UAEPAXI@Z 1000a400 f i CAT.obj
 0001:00009400       ??_GCRegObject@ATL@@UAEPAXI@Z 1000a400 f i CAT.obj
 0001:00009440       ?Add@?$CSimpleArray@GV?$CSimpleArrayEqualHelper@G@ATL@@@ATL@@QAEHABG@Z 1000a440 f i CAT.obj
 0001:00009590       ?Add@?$CSimpleMap@PA_WPA_WVCExpansionVectorEqualHelper@ATL@@@ATL@@QAEHABQA_W0@Z 1000a590 f i CAT.obj
 0001:00009650       ?Add@CComDynamicUnkArray@ATL@@QAEKPAUIUnknown@@@Z 1000a650 f i CAT.obj
 0001:000097f0       ?Add@CExpansionVector@ATL@@QAEHPB_W0@Z 1000a7f0 f i CAT.obj
 0001:00009a80       ?AddChar@CParseBuffer@CRegParser@ATL@@QAEHPB_W@Z 1000aa80 f i CAT.obj
 0001:00009ac0       ?AddCommonRGSReplacements@?$CAtlModuleT@VCComModule@ATL@@@ATL@@UAEJPAUIRegistrarBase@@@Z 1000aac0 f i CAT.obj
 0001:00009b10       ?AddCreateWndData@CAtlWinModule@ATL@@QAEXPAU_AtlCreateWndData@2@PAX@Z 1000ab10 f i CAT.obj
 0001:00009b40       ?AddRef@?$CComAggObject@VCOPOSCAT@@@ATL@@UAGKXZ 1000ab40 f i CAT.obj
 0001:00009b60       ?AddRef@?$CComContainedObject@VCOPOSCAT@@@ATL@@UAGKXZ 1000ab60 f i CAT.obj
 0001:00009b7c       ?AddRef@?$CComContainedObject@VCOPOSCAT@@@ATL@@WHA@AGKXZ 1000ab7c f i CAT.obj
 0001:00009b86       ?AddRef@?$CComContainedObject@VCOPOSCAT@@@ATL@@WHE@AGKXZ 1000ab86 f i CAT.obj
 0001:00009b90       ?AddRef@?$CComContainedObject@VCOPOSCAT@@@ATL@@WHI@AGKXZ 1000ab90 f i CAT.obj
 0001:00009b9a       ?AddRef@?$CComContainedObject@VCOPOSCAT@@@ATL@@WHM@AGKXZ 1000ab9a f i CAT.obj
 0001:00009ba4       ?AddRef@?$CComContainedObject@VCOPOSCAT@@@ATL@@WIA@AGKXZ 1000aba4 f i CAT.obj
 0001:00009bb1       ?AddRef@?$CComContainedObject@VCOPOSCAT@@@ATL@@WIE@AGKXZ 1000abb1 f i CAT.obj
 0001:00009bbe       ?AddRef@?$CComContainedObject@VCOPOSCAT@@@ATL@@WII@AGKXZ 1000abbe f i CAT.obj
 0001:00009bcb       ?AddRef@?$CComContainedObject@VCOPOSCAT@@@ATL@@WIM@AGKXZ 1000abcb f i CAT.obj
 0001:00009bd8       ?AddRef@?$CComContainedObject@VCOPOSCAT@@@ATL@@WJA@AGKXZ 1000abd8 f i CAT.obj
 0001:00009be5       ?AddRef@?$CComContainedObject@VCOPOSCAT@@@ATL@@WJE@AGKXZ 1000abe5 f i CAT.obj
 0001:00009bf2       ?AddRef@?$CComContainedObject@VCOPOSCAT@@@ATL@@WJI@AGKXZ 1000abf2 f i CAT.obj
 0001:00009bff       ?AddRef@?$CComContainedObject@VCOPOSCAT@@@ATL@@WJM@AGKXZ 1000abff f i CAT.obj
 0001:00009c0c       ?AddRef@?$CComContainedObject@VCOPOSCAT@@@ATL@@WKA@AGKXZ 1000ac0c f i CAT.obj
 0001:00009c19       ?AddRef@?$CComContainedObject@VCOPOSCAT@@@ATL@@WKI@AGKXZ 1000ac19 f i CAT.obj
 0001:00009c26       ?AddRef@?$CComContainedObject@VCOPOSCAT@@@ATL@@WLE@AGKXZ 1000ac26 f i CAT.obj
 0001:00009c40       ?AddRef@?$CComObject@V?$CComEnum@UIEnumConnectionPoints@@$1?_GUID_b196b285_bab4_101a_b69c_00aa00341d07@@3U__s_GUID@@BPAUIConnectionPoint@@V?$_CopyInterface@UIConnectionPoint@@@ATL@@VCComSingleThreadModel@6@@ATL@@@ATL@@UAGKXZ 1000ac40 f i CAT.obj
 0001:00009c60       ?AddRef@?$CComObject@V?$CComEnum@UIEnumConnections@@$1?_GUID_b196b287_bab4_101a_b69c_00aa00341d07@@3U__s_GUID@@BUtagCONNECTDATA@@V?$_Copy@UtagCONNECTDATA@@@ATL@@VCComSingleThreadModel@6@@ATL@@@ATL@@UAGKXZ 1000ac60 f i CAT.obj
 0001:00009c80       ?AddRef@?$CComObject@VCOPOSCAT@@@ATL@@UAGKXZ 1000ac80 f i CAT.obj
 0001:00009c9c       ?AddRef@?$CComObject@VCOPOSCAT@@@ATL@@WHA@AGKXZ 1000ac9c f i CAT.obj
 0001:00009ca6       ?AddRef@?$CComObject@VCOPOSCAT@@@ATL@@WHE@AGKXZ 1000aca6 f i CAT.obj
 0001:00009cb0       ?AddRef@?$CComObject@VCOPOSCAT@@@ATL@@WHI@AGKXZ 1000acb0 f i CAT.obj
 0001:00009cba       ?AddRef@?$CComObject@VCOPOSCAT@@@ATL@@WHM@AGKXZ 1000acba f i CAT.obj
 0001:00009cc4       ?AddRef@?$CComObject@VCOPOSCAT@@@ATL@@WIA@AGKXZ 1000acc4 f i CAT.obj
 0001:00009cd1       ?AddRef@?$CComObject@VCOPOSCAT@@@ATL@@WIE@AGKXZ 1000acd1 f i CAT.obj
 0001:00009cde       ?AddRef@?$CComObject@VCOPOSCAT@@@ATL@@WII@AGKXZ 1000acde f i CAT.obj
 0001:00009ceb       ?AddRef@?$CComObject@VCOPOSCAT@@@ATL@@WIM@AGKXZ 1000aceb f i CAT.obj
 0001:00009cf8       ?AddRef@?$CComObject@VCOPOSCAT@@@ATL@@WJA@AGKXZ 1000acf8 f i CAT.obj
 0001:00009d05       ?AddRef@?$CComObject@VCOPOSCAT@@@ATL@@WJE@AGKXZ 1000ad05 f i CAT.obj
 0001:00009d12       ?AddRef@?$CComObject@VCOPOSCAT@@@ATL@@WJI@AGKXZ 1000ad12 f i CAT.obj
 0001:00009d1f       ?AddRef@?$CComObject@VCOPOSCAT@@@ATL@@WJM@AGKXZ 1000ad1f f i CAT.obj
 0001:00009d2c       ?AddRef@?$CComObject@VCOPOSCAT@@@ATL@@WKA@AGKXZ 1000ad2c f i CAT.obj
 0001:00009d39       ?AddRef@?$CComObject@VCOPOSCAT@@@ATL@@WKI@AGKXZ 1000ad39 f i CAT.obj
 0001:00009d46       ?AddRef@?$CComObject@VCOPOSCAT@@@ATL@@WLE@AGKXZ 1000ad46 f i CAT.obj
 0001:00009d60       ?AddRef@?$CComObjectCached@VCComClassFactory@ATL@@@ATL@@UAGKXZ 1000ad60 f i CAT.obj
 0001:00009db0       ?AddRef@CRegObject@ATL@@UAGKXZ 1000adb0 f i CAT.obj
 0001:00009e00       ?AddReplacement@CRegObject@ATL@@UAGJPB_W0@Z 1000ae00 f i CAT.obj
 0001:00009f10       ?AddString@CParseBuffer@CRegParser@ATL@@QAEHPB_W@Z 1000af10 f i CAT.obj
 0001:0000a000       ?AddTermFunc@CAtlModule@ATL@@QAEJP6GXK@ZK@Z 1000b000 f i CAT.obj
 0001:0000a050       ?AddValue@CRegParser@ATL@@IAEJAAVCRegKey@2@PB_WPA_W@Z 1000b050 f i CAT.obj
 0001:0000a7e0       ?Advise@?$CProxy_IOPOSEvents@VCOPOSCAT@@@@UAGJPAUIUnknown@@PAK@Z 1000b7e0 f i CAT.obj
 0001:0000a830       ?Advise@?$IConnectionPointImpl@VCOPOSCAT@@$1?DIID__IOPOSCATEvents@@3U_GUID@@BVCComDynamicUnkArray@ATL@@@ATL@@UAGJPAUIUnknown@@PAK@Z 1000b830 f i CAT.obj
 0001:0000a9d0       ?Advise@?$IConnectionPointImpl@VCOPOSCAT@@$1?IID_IPropertyNotifySink@@3U_GUID@@BVCComDynamicUnkArray@ATL@@@ATL@@UAGJPAUIUnknown@@PAK@Z 1000b9d0 f i CAT.obj
 0001:0000ab70       ?Advise@?$IOleObjectImpl@VCOPOSCAT@@@ATL@@UAGJPAUIAdviseSink@@PAK@Z 1000bb70 f i CAT.obj
 0001:0000ac00       ?Allocate@?$CAtlSafeAllocBufferManager@VCCRTAllocator@ATL@@@_ATL_SAFE_ALLOCA_IMPL@ATL@@QAEPAXK@Z 1000bc00 f i CAT.obj
 0001:0000ac70       ?Allocate@?$CTempBuffer@E$0BAA@VCCRTAllocator@ATL@@@ATL@@QAEPAEI@Z 1000bc70 f i CAT.obj
 0001:0000acb0       ?Allocate@?$CTempBuffer@_W$0BAA@VCCRTAllocator@ATL@@@ATL@@QAEPA_WI@Z 1000bcb0 f i CAT.obj
 0001:0000acf0       ?Allocate@?$CTempBuffer@_W$0EAA@VCCRTAllocator@ATL@@@ATL@@QAEPA_WI@Z 1000bcf0 f i CAT.obj
 0001:0000ad30       ?AllocateBytes@?$CTempBuffer@E$0BAA@VCCRTAllocator@ATL@@@ATL@@QAEPAEI@Z 1000bd30 f i CAT.obj
 0001:0000adb0       ?AllocateBytes@?$CTempBuffer@_W$0BAA@VCCRTAllocator@ATL@@@ATL@@QAEPA_WI@Z 1000bdb0 f i CAT.obj
 0001:0000ae30       ?AllocateBytes@?$CTempBuffer@_W$0EAA@VCCRTAllocator@ATL@@@ATL@@QAEPA_WI@Z 1000be30 f i CAT.obj
 0001:0000aeb0       ?AllocateHeap@?$CTempBuffer@E$0BAA@VCCRTAllocator@ATL@@@ATL@@AAEXI@Z 1000beb0 f i CAT.obj
 0001:0000af00       ?AllocateHeap@?$CTempBuffer@_W$0BAA@VCCRTAllocator@ATL@@@ATL@@AAEXI@Z 1000bf00 f i CAT.obj
 0001:0000af50       ?AllocateHeap@?$CTempBuffer@_W$0EAA@VCCRTAllocator@ATL@@@ATL@@AAEXI@Z 1000bf50 f i CAT.obj
 0001:0000afa0       ?Append@CParseBuffer@CRegParser@ATL@@QAEHPB_WH@Z 1000bfa0 f i CAT.obj
 0001:0000b140       ?AtlCallTermFunc@ATL@@YGXPAU_ATL_MODULE70@1@@Z 1000c140 f i CAT.obj
 0001:0000b1e0       ?AtlCoTaskMemCAlloc@ATL@@YAPAXKK@Z 1000c1e0 f i CAT.obj
 0001:0000b270       ?AtlCoTaskMemRecalloc@ATL@@YAPAXPAXKK@Z 1000c270 f i CAT.obj
 0001:0000b310       ?AtlComModuleGetClassObject@ATL@@YGJPAU_ATL_COM_MODULE70@1@ABU_GUID@@1PAPAX@Z 1000c310 f i CAT.obj
 0001:0000b5a0       ?AtlComModuleRegisterServer@ATL@@YGJPAU_ATL_COM_MODULE70@1@HPBU_GUID@@@Z 1000c5a0 f i CAT.obj
 0001:0000b730       ?AtlComModuleUnregisterServer@ATL@@YGJPAU_ATL_COM_MODULE70@1@HPBU_GUID@@@Z 1000c730 f i CAT.obj
 0001:0000b860       ?AtlComQIPtrAssign2@ATL@@YAXPAPAUIUnknown@@PAU2@ABU_GUID@@@Z 1000c860 f i CAT.obj
 0001:0000b8e0       ?AtlCreateTargetDC@ATL@@YGPAUHDC__@@PAU2@PAUtagDVTARGETDEVICE@@@Z 1000c8e0 f i CAT.obj
 0001:0000ba80       ?AtlCrtErrorCheck@ATL@@YAHH@Z 1000ca80 f i CAT.obj
 0001:0000bb50       ?AtlGetPerUserRegistration@ATL@@YGJPA_N@Z 1000cb50 f i CAT.obj
 0001:0000bb80       ?AtlHiMetricToPixel@ATL@@YGXPBUtagSIZE@@PAU2@@Z 1000cb80 f i CAT.obj
 0001:0000bd50       ?AtlHresultFromLastError@ATL@@YAJXZ 1000cd50 f i CAT.obj
 0001:0000bd90       ?AtlHresultFromWin32@ATL@@YAJK@Z 1000cd90 f i CAT.obj
 0001:0000bdb0       ?AtlIPersistStreamInit_Load@ATL@@YGJPAUIStream@@PBUATL_PROPMAP_ENTRY@1@PAXPAUIUnknown@@@Z 1000cdb0 f i CAT.obj
 0001:0000c210       ?AtlIPersistStreamInit_Save@ATL@@YGJPAUIStream@@HPBUATL_PROPMAP_ENTRY@1@PAXPAUIUnknown@@@Z 1000d210 f i CAT.obj
 0001:0000c5f0       ?AtlInternalOleLoadFromStream@ATL@@YAJPAUIStream@@ABU_GUID@@PAPAXTClassesAllowedInStream@1@K@Z 1000d5f0 f i CAT.obj
 0001:0000c890       ?AtlInternalQueryInterface@ATL@@YGJPAXPBU_ATL_INTMAP_ENTRY@1@ABU_GUID@@PAPAX@Z 1000d890 f i CAT.obj
 0001:0000cac0       ?AtlLoadTypeLib@ATL@@YGJPAUHINSTANCE__@@PB_WPAPA_WPAPAUITypeLib@@@Z 1000dac0 f i CAT.obj
 0001:0000cf20       ?AtlModuleAddTermFunc@ATL@@YGJPAU_ATL_MODULE70@1@P6GXK@ZK@Z 1000df20 f i CAT.obj
 0001:0000d080       ?AtlRegisterClassCategoriesHelper@ATL@@YGJABU_GUID@@PBU_ATL_CATMAP_ENTRY@1@H@Z 1000e080 f i CAT.obj
 0001:0000d760       ?AtlRegisterTypeLib@ATL@@YGJPAUHINSTANCE__@@PB_W@Z 1000e760 f i CAT.obj
 0001:0000daa0       ?AtlThrowImpl@ATL@@YGXJ@Z  1000eaa0 f i CAT.obj
 0001:0000db50       ?AtlUnRegisterTypeLib@ATL@@YGJPAUHINSTANCE__@@PB_W@Z 1000eb50 f i CAT.obj
 0001:0000dd60       ?AtlWinModuleAddCreateWndData@ATL@@YGXPAU_ATL_WIN_MODULE70@1@PAU_AtlCreateWndData@1@PAX@Z 1000ed60 f i CAT.obj
 0001:0000ded0       ?AtlWinModuleExtractCreateWndData@ATL@@YGPAXPAU_ATL_WIN_MODULE70@1@@Z 1000eed0 f i CAT.obj
 0001:0000e050       ?AtlWinModuleRegisterClassExW@ATL@@YGGPAU_ATL_WIN_MODULE70@1@PBUtagWNDCLASSEXW@@@Z 1000f050 f i CAT.obj
 0001:0000e120       ?AtlWinModuleRegisterWndClassInfoW@ATL@@YGGPAU_ATL_WIN_MODULE70@1@PAU_ATL_BASE_MODULE70@1@PAU_ATL_WNDCLASSINFOW@1@PAP6GJPAUHWND__@@IIJ@Z@Z 1000f120 f i CAT.obj
 0001:0000e1b0       ?Attach@?$CAutoVectorPtr@_W@ATL@@QAEXPA_W@Z 1000f1b0 f i CAT.obj
 0001:0000e210       ?Attach@CComBSTR@ATL@@QAEXPA_W@Z 1000f210 f i CAT.obj
 0001:0000e260       ?Attach@CRegKey@ATL@@QAEXPAUHKEY__@@@Z 1000f260 f i CAT.obj
 0001:0000e2d0       ?CanForceRemoveKey@CRegParser@ATL@@IAEHPB_W@Z 1000f2d0 f i CAT.obj
 0001:0000e340       ?ChToByte@CRegParser@ATL@@KAE_W@Z 1000f340 f i CAT.obj
 0001:0000e460       ?ChangeType@CComVariant@ATL@@QAEJGPBUtagVARIANT@@@Z 1000f460 f i CAT.obj
 0001:0000e4c0       ?Cleanup@CComTypeInfoHolder@ATL@@SGXK@Z 1000f4c0 f i CAT.obj
 0001:0000e590       ?Clear@CComVariant@ATL@@QAEJXZ 1000f590 f i CAT.obj
 0001:0000e5d0       ?ClearReplacements@CExpansionVector@ATL@@QAEJXZ 1000f5d0 f i CAT.obj
 0001:0000e660       ?ClearReplacements@CRegObject@ATL@@UAGJXZ 1000f660 f i CAT.obj
 0001:0000e6b0       ?Clone@?$CComEnumImpl@UIEnumConnectionPoints@@$1?_GUID_b196b285_bab4_101a_b69c_00aa00341d07@@3U__s_GUID@@BPAUIConnectionPoint@@V?$_CopyInterface@UIConnectionPoint@@@ATL@@@ATL@@UAGJPAPAUIEnumConnectionPoints@@@Z 1000f6b0 f i CAT.obj
 0001:0000e830       ?Clone@?$CComEnumImpl@UIEnumConnections@@$1?_GUID_b196b287_bab4_101a_b69c_00aa00341d07@@3U__s_GUID@@BUtagCONNECTDATA@@V?$_Copy@UtagCONNECTDATA@@@ATL@@@ATL@@UAGJPAPAUIEnumConnections@@@Z 1000f830 f i CAT.obj
 0001:0000e9b0       ?Close@?$IOleObjectImpl@VCOPOSCAT@@@ATL@@UAGJK@Z 1000f9b0 f i CAT.obj
 0001:0000ea40       ?Close@CRegKey@ATL@@QAEJXZ 1000fa40 f i CAT.obj
 0001:0000eab0       ?ContextSensitiveHelp@?$IOleInPlaceActiveObjectImpl@VCOPOSCAT@@@ATL@@UAGJH@Z 1000fab0 f i CAT.obj
 0001:0000eb20       ?ContextSensitiveHelp@?$IOleInPlaceObjectWindowlessImpl@VCOPOSCAT@@@ATL@@UAGJH@Z 1000fb20 f i CAT.obj
 0001:0000eb90       ?ControlQueryInterface@?$CComControl@VCOPOSCAT@@V?$CWindowImpl@VCOPOSCAT@@VCWindow@ATL@@V?$CWinTraits@$0FGAAAAAA@$0A@@3@@ATL@@@ATL@@UAEJABU_GUID@@PAPAX@Z 1000fb90 f i CAT.obj
 0001:0000ec10       ?CreateControlWindow@?$CComControl@VCOPOSCAT@@V?$CWindowImpl@VCOPOSCAT@@VCWindow@ATL@@V?$CWinTraits@$0FGAAAAAA@$0A@@3@@ATL@@@ATL@@UAEPAUHWND__@@PAU3@AAUtagRECT@@@Z 1000fc10 f i CAT.obj
 0001:0000ec90       ?CreateInstance@?$CComCreator@V?$CComAggObject@VCOPOSCAT@@@ATL@@@ATL@@SGJPAXABU_GUID@@PAPAX@Z 1000fc90 f i CAT.obj
 0001:0000ee20       ?CreateInstance@?$CComCreator@V?$CComObject@VCOPOSCAT@@@ATL@@@ATL@@SGJPAXABU_GUID@@PAPAX@Z 1000fe20 f i CAT.obj
 0001:0000efb0       ?CreateInstance@?$CComObject@V?$CComEnum@UIEnumConnectionPoints@@$1?_GUID_b196b285_bab4_101a_b69c_00aa00341d07@@3U__s_GUID@@BPAUIConnectionPoint@@V?$_CopyInterface@UIConnectionPoint@@@ATL@@VCComSingleThreadModel@6@@ATL@@@ATL@@SGJPAPAV12@@Z 1000ffb0 f i CAT.obj
 0001:0000f120       ?CreateInstance@?$CComObject@V?$CComEnum@UIEnumConnections@@$1?_GUID_b196b287_bab4_101a_b69c_00aa00341d07@@3U__s_GUID@@BUtagCONNECTDATA@@V?$_Copy@UtagCONNECTDATA@@@ATL@@VCComSingleThreadModel@6@@ATL@@@ATL@@SGJPAPAV12@@Z 10010120 f i CAT.obj
 0001:0000f290       ?CreateInstance@CComClassFactory@ATL@@UAGJPAUIUnknown@@ABU_GUID@@PAPAX@Z 10010290 f i CAT.obj
 0001:0000f380       ?DAdvise@?$IDataObjectImpl@VCOPOSCAT@@@ATL@@UAGJPAUtagFORMATETC@@KPAUIAdviseSink@@PAK@Z 10010380 f i CAT.obj
 0001:0000f480       ?DEVMODEOLE2T_EX@@YAPAU_devicemodeW@@PAU1@@Z 10010480 f i CAT.obj
 0001:0000f490       ?DUnadvise@?$IDataObjectImpl@VCOPOSCAT@@@ATL@@UAGJK@Z 10010490 f i CAT.obj
 0001:0000f560       ?Decrement@CComMultiThreadModel@ATL@@SGKPAJ@Z 10010560 f i CAT.obj
 0001:0000f580       ?Decrement@CComSingleThreadModel@ATL@@SGKPAJ@Z 10010580 f i CAT.obj
 0001:0000f5a0       ?DefWindowProcW@?$CWindowImplBaseT@VCWindow@ATL@@V?$CWinTraits@$0FGAAAAAA@$0A@@2@@ATL@@QAEJIIJ@Z 100105a0 f i CAT.obj
 0001:0000f5f0       ?DefaultReflectionHandler@?$CWindowImplRoot@VCWindow@ATL@@@ATL@@SAHPAUHWND__@@IIJAAJ@Z 100105f0 f i CAT.obj
 0001:0000f7e0       ?DeleteSubKey@CRegKey@ATL@@QAEJPB_W@Z 100107e0 f i CAT.obj
 0001:0000f8f0       ?DeleteValue@CRegKey@ATL@@QAEJPB_W@Z 100108f0 f i CAT.obj
 0001:0000f960       ?Detach@?$CAutoVectorPtr@_W@ATL@@QAEPA_WXZ 10010960 f i CAT.obj
 0001:0000f990       ?Detach@?$CComPtrBase@UIPersistStream@@@ATL@@QAEPAUIPersistStream@@XZ 10010990 f i CAT.obj
 0001:0000f9c0       ?Detach@?$CComPtrBase@UITypeInfo@@@ATL@@QAEPAUITypeInfo@@XZ 100109c0 f i CAT.obj
 0001:0000f9f0       ?Detach@?$CComPtrBase@UIUnknown@@@ATL@@QAEPAUIUnknown@@XZ 100109f0 f i CAT.obj
 0001:0000fa20       ?Detach@CComBSTR@ATL@@QAEPA_WXZ 10010a20 f i CAT.obj
 0001:0000fa50       ?Detach@CParseBuffer@CRegParser@ATL@@QAEPA_WXZ 10010a50 f i CAT.obj
 0001:0000faa0       ?Detach@CRegKey@ATL@@QAEPAUHKEY__@@XZ 10010aa0 f i CAT.obj
 0001:0000faf0       ?DoEvent@COPOSCAT@@IAEXIIJ@Z 10010af0 f i CAT.obj
 0001:0000fc30       ?DoVerb@?$IOleObjectImpl@VCOPOSCAT@@@ATL@@UAGJJPAUtagMSG@@PAUIOleClientSite@@JPAUHWND__@@PBUtagRECT@@@Z 10010c30 f i CAT.obj
 0001:0000fe40       ?DoVerbDiscardUndo@?$IOleObjectImpl@VCOPOSCAT@@@ATL@@QAEJPBUtagRECT@@PAUHWND__@@@Z 10010e40 f i CAT.obj
 0001:0000feb0       ?DoVerbHide@?$IOleObjectImpl@VCOPOSCAT@@@ATL@@QAEJPBUtagRECT@@PAUHWND__@@@Z 10010eb0 f i CAT.obj
 0001:0000ff60       ?DoVerbInPlaceActivate@?$IOleObjectImpl@VCOPOSCAT@@@ATL@@QAEJPBUtagRECT@@PAUHWND__@@@Z 10010f60 f i CAT.obj
 0001:00010000       ?DoVerbOpen@?$IOleObjectImpl@VCOPOSCAT@@@ATL@@QAEJPBUtagRECT@@PAUHWND__@@@Z 10011000 f i CAT.obj
 0001:00010070       ?DoVerbPrimary@?$IOleObjectImpl@VCOPOSCAT@@@ATL@@QAEJPBUtagRECT@@PAUHWND__@@@Z 10011070 f i CAT.obj
 0001:00010180       ?DoVerbProperties@CComControlBase@ATL@@QAEJPBUtagRECT@@PAUHWND__@@@Z 10011180 f i CAT.obj
 0001:000104a0       ?DoVerbShow@?$IOleObjectImpl@VCOPOSCAT@@@ATL@@QAEJPBUtagRECT@@PAUHWND__@@@Z 100114a0 f i CAT.obj
 0001:00010530       ?DoVerbUIActivate@?$IOleObjectImpl@VCOPOSCAT@@@ATL@@QAEJPBUtagRECT@@PAUHWND__@@@Z 10011530 f i CAT.obj
 0001:000105d0       ?DoesVerbActivate@CComControlBase@ATL@@QAEHJ@Z 100115d0 f i CAT.obj
 0001:00010640       ?DoesVerbUIActivate@CComControlBase@ATL@@QAEHJ@Z 10011640 f i CAT.obj
 0001:000106c0       ?Draw@?$IViewObjectExImpl@VCOPOSCAT@@@ATL@@UAGJKJPAXPAUtagDVTARGETDEVICE@@PAUHDC__@@2PBU_RECTL@@3P6GHK@ZK@Z 100116c0 f i CAT.obj
 0001:00010760       ?Empty@CComBSTR@ATL@@QAEXXZ 10011760 f i CAT.obj
 0001:000107a0       ?EnableModeless@?$IOleInPlaceActiveObjectImpl@VCOPOSCAT@@@ATL@@UAGJH@Z 100117a0 f i CAT.obj
 0001:00010800       ?EndOfVar@CRegParser@ATL@@IAEHXZ 10011800 f i CAT.obj
 0001:00010870       ?EnsureTI@CComTypeInfoHolder@ATL@@QAEJK@Z 10011870 f i CAT.obj
 0001:000108d0       ?EnumAdvise@?$IOleObjectImpl@VCOPOSCAT@@@ATL@@UAGJPAPAUIEnumSTATDATA@@@Z 100118d0 f i CAT.obj
 0001:000109e0       ?EnumConnectionPoints@?$IConnectionPointContainerImpl@VCOPOSCAT@@@ATL@@UAGJPAPAUIEnumConnectionPoints@@@Z 100119e0 f i CAT.obj
 0001:00010e40       ?EnumConnections@?$IConnectionPointImpl@VCOPOSCAT@@$1?DIID__IOPOSCATEvents@@3U_GUID@@BVCComDynamicUnkArray@ATL@@@ATL@@UAGJPAPAUIEnumConnections@@@Z 10011e40 f i CAT.obj
 0001:00011090       ?EnumConnections@?$IConnectionPointImpl@VCOPOSCAT@@$1?IID_IPropertyNotifySink@@3U_GUID@@BVCComDynamicUnkArray@ATL@@@ATL@@UAGJPAPAUIEnumConnections@@@Z 10012090 f i CAT.obj
 0001:000112e0       ?EnumDAdvise@?$IDataObjectImpl@VCOPOSCAT@@@ATL@@UAGJPAPAUIEnumSTATDATA@@@Z 100122e0 f i CAT.obj
 0001:000113e0       ?EnumFormatEtc@?$IDataObjectImpl@VCOPOSCAT@@@ATL@@UAGJKPAPAUIEnumFORMATETC@@@Z 100123e0 f i CAT.obj
 0001:00011450       ?EnumVerbs@?$IOleObjectImpl@VCOPOSCAT@@@ATL@@UAGJPAPAUIEnumOLEVERB@@@Z 10012450 f i CAT.obj
 0001:00011500       ?EscapeSingleQuote@CAtlModule@ATL@@SAXPA_WIPB_W@Z 10012500 f i CAT.obj
 0001:000115b0       ?ExtractCreateWndData@CAtlWinModule@ATL@@QAEPAXXZ 100125b0 f i CAT.obj
 0001:000115e0       ?FAccessAllowed@?$IObjectSafetyImpl@VCOPOSCAT@@$02@ATL@@MAEHXZ 100125e0 f i CAT.obj
 0001:00011600       ?FinalConstruct@?$CComAggObject@VCOPOSCAT@@@ATL@@QAEJXZ 10012600 f i CAT.obj
 0001:00011640       ?FinalConstruct@CComObjectRootBase@ATL@@QAEJXZ 10012640 f i CAT.obj
 0001:00011660       ?FinalConstruct@CRegObject@ATL@@QAEJXZ 10012660 f i CAT.obj
 0001:00011690       ?FinalRelease@?$CComAggObject@VCOPOSCAT@@@ATL@@QAEXXZ 10012690 f i CAT.obj
 0001:000116d0       ?FinalRelease@CComObjectRootBase@ATL@@QAEXXZ 100126d0 f i CAT.obj
 0001:000116f0       ?FindConnectionPoint@?$IConnectionPointContainerImpl@VCOPOSCAT@@@ATL@@UAGJABU_GUID@@PAPAUIConnectionPoint@@@Z 100126f0 f i CAT.obj
 0001:00011840       ?FindKey@?$CSimpleMap@PA_WPA_WVCExpansionVectorEqualHelper@ATL@@@ATL@@QBEHABQA_W@Z 10012840 f i CAT.obj
 0001:000118b0       ?FireTheEvent@?$CProxy_IOPOSEvents@VCOPOSCAT@@@@IAEXPAUIUnknown@@PAVOposVariant@@IAAJPB_WJ@Z 100128b0 f i CAT.obj
 0001:00011a20       ?FireViewChange@CComControlBase@ATL@@QAEJXZ 10012a20 f i CAT.obj
 0001:00011ae0       ?Fire_DirectIOEvent@?$CProxy_IOPOSEvents@VCOPOSCAT@@@@QAEXJPAJPAPA_W@Z 10012ae0 f i CAT.obj
 0001:00011cb0       ?Fire_ErrorEvent@?$CProxy_IOPOSEvents@VCOPOSCAT@@@@QAEXJJJPAJ@Z 10012cb0 f i CAT.obj
 0001:00011ea0       ?Fire_OutputCompleteEvent@?$CProxy_IOPOSEvents@VCOPOSCAT@@@@QAEXJ@Z 10012ea0 f i CAT.obj
 0001:00012000       ?Fire_StatusUpdateEvent@?$CProxy_IOPOSEvents@VCOPOSCAT@@@@QAEXJ@Z 10013000 f i CAT.obj
 0001:00012160       ?FormatWindowClassName@AtlModuleRegisterWndClassInfoParamW@ATL@@SAXPA_WKPAX@Z 10013160 f i CAT.obj
 0001:00012190       ?Free@?$CAutoVectorPtr@_W@ATL@@QAEXXZ 10013190 f i CAT.obj
 0001:000121e0       ?FreeHeap@?$CTempBuffer@E$0BAA@VCCRTAllocator@ATL@@@ATL@@AAEXXZ 100131e0 f i CAT.obj
 0001:00012210       ?FreeHeap@?$CTempBuffer@_W$0BAA@VCCRTAllocator@ATL@@@ATL@@AAEXXZ 10013210 f i CAT.obj
 0001:00012240       ?FreeHeap@?$CTempBuffer@_W$0EAA@VCCRTAllocator@ATL@@@ATL@@AAEXXZ 10013240 f i CAT.obj
 0001:00012270       ?Freeze@?$IViewObjectExImpl@VCOPOSCAT@@@ATL@@UAGJKJPAXPAK@Z 10013270 f i CAT.obj
 0001:000122e0       ?GenerateError@CRegParser@ATL@@IAEJI@Z 100132e0 f i CAT.obj
 0001:00012300       ?GetAdvise@?$IViewObjectExImpl@VCOPOSCAT@@@ATL@@UAGJPAK0PAPAUIAdviseSink@@@Z 10013300 f i CAT.obj
 0001:00012400       ?GetAmbientLocaleID@CComControlBase@ATL@@QAEJAAK@Z 10013400 f i CAT.obj
 0001:000124e0       ?GetAmbientProperty@CComControlBase@ATL@@QAEJJAAUtagVARIANT@@@Z 100134e0 f i CAT.obj
 0001:00012530       ?GetAmbientUserMode@CComControlBase@ATL@@QAEJAAH@Z 10013530 f i CAT.obj
 0001:00012630       ?GetAppId@?$CAtlModuleT@VCComModule@ATL@@@ATL@@SAPB_WXZ 10013630 f i CAT.obj
 0001:00012640       ?GetAt@CComDynamicUnkArray@ATL@@QAEPAUIUnknown@@H@Z 10013640 f i CAT.obj
 0001:000126c0       ?GetCanonicalFormatEtc@?$IDataObjectImpl@VCOPOSCAT@@@ATL@@UAGJPAUtagFORMATETC@@0@Z 100136c0 f i CAT.obj
 0001:00012730       ?GetClassID@?$IPersistStorageImpl@VCOPOSCAT@@@ATL@@UAGJPAU_GUID@@@Z 10013730 f i CAT.obj
 0001:000127b0       ?GetClassID@?$IPersistStreamInitImpl@VCOPOSCAT@@@ATL@@UAGJPAU_GUID@@@Z 100137b0 f i CAT.obj
 0001:00012830       ?GetClassInfoExW@AtlModuleRegisterWndClassInfoParamW@ATL@@SAHPAUHINSTANCE__@@PB_WPAUtagWNDCLASSEXW@@@Z 10013830 f i CAT.obj
 0001:00012860       ?GetClassInfoW@?$IProvideClassInfo2Impl@$1?CLSID_OPOSCAT@@3U_GUID@@B$1?DIID__IOPOSCATEvents@@3U2@B$1?LIBID_OposCAT_CCO@@3U2@B$00$0A@VCComTypeInfoHolder@ATL@@@ATL@@UAGJPAPAUITypeInfo@@@Z 10013860 f i CAT.obj
 0001:00012880       ?GetClassObject@CComModule@ATL@@QAEJABU_GUID@@0PAPAX@Z 10013880 f i CAT.obj
 0001:00012a80       ?GetClientSite@?$IOleObjectImpl@VCOPOSCAT@@@ATL@@UAGJPAPAUIOleClientSite@@@Z 10013a80 f i CAT.obj
 0001:00012b10       ?GetClipboardData@?$IOleObjectImpl@VCOPOSCAT@@@ATL@@UAGJKPAPAUIDataObject@@@Z 10013b10 f i CAT.obj
 0001:00012b80       ?GetCodeAddress@CDynamicStdCallThunk2@ATL@@QAEPAXXZ 10013b80 f i CAT.obj
 0001:00012bb0       ?GetColorSet@?$IViewObjectExImpl@VCOPOSCAT@@@ATL@@UAGJKJPAXPAUtagDVTARGETDEVICE@@PAUHDC__@@PAPAUtagLOGPALETTE@@@Z 10013bb0 f i CAT.obj
 0001:00012c20       ?GetConnMap@COPOSCAT@@SAPBU_ATL_CONNMAP_ENTRY@ATL@@PAH@Z 10013c20 f i CAT.obj
 0001:00012d60       ?GetConnectionInterface@?$IConnectionPointImpl@VCOPOSCAT@@$1?DIID__IOPOSCATEvents@@3U_GUID@@BVCComDynamicUnkArray@ATL@@@ATL@@UAGJPAU_GUID@@@Z 10013d60 f i CAT.obj
 0001:00012da0       ?GetConnectionInterface@?$IConnectionPointImpl@VCOPOSCAT@@$1?IID_IPropertyNotifySink@@3U_GUID@@BVCComDynamicUnkArray@ATL@@@ATL@@UAGJPAU_GUID@@@Z 10013da0 f i CAT.obj
 0001:00012de0       ?GetConnectionPointContainer@?$IConnectionPointImpl@VCOPOSCAT@@$1?DIID__IOPOSCATEvents@@3U_GUID@@BVCComDynamicUnkArray@ATL@@@ATL@@UAGJPAPAUIConnectionPointContainer@@@Z 10013de0 f i CAT.obj
 0001:00012e50       ?GetConnectionPointContainer@?$IConnectionPointImpl@VCOPOSCAT@@$1?IID_IPropertyNotifySink@@3U_GUID@@BVCComDynamicUnkArray@ATL@@@ATL@@UAGJPAPAUIConnectionPointContainer@@@Z 10013e50 f i CAT.obj
 0001:00012ec0       ?GetContentExtent@?$IQuickActivateImpl@VCOPOSCAT@@@ATL@@UAGJPAUtagSIZE@@@Z 10013ec0 f i CAT.obj
 0001:00012f50       ?GetControlInfo@?$IOleControlImpl@VCOPOSCAT@@@ATL@@UAGJPAUtagCONTROLINFO@@@Z 10013f50 f i CAT.obj
 0001:00012fc0       ?GetCookie@CComDynamicUnkArray@ATL@@QAGKPAPAUIUnknown@@@Z 10013fc0 f i CAT.obj
 0001:00013080       ?GetData@?$IDataObjectImpl@VCOPOSCAT@@@ATL@@UAGJPAUtagFORMATETC@@PAUtagSTGMEDIUM@@@Z 10014080 f i CAT.obj
 0001:00013110       ?GetData@CAtlSafeAllocBufferNode@?$CAtlSafeAllocBufferManager@VCCRTAllocator@ATL@@@_ATL_SAFE_ALLOCA_IMPL@ATL@@QAEPAXXZ 10014110 f i CAT.obj
 0001:00013130       ?GetDataHere@?$IDataObjectImpl@VCOPOSCAT@@@ATL@@UAGJPAUtagFORMATETC@@PAUtagSTGMEDIUM@@@Z 10014130 f i CAT.obj
 0001:000131a0       ?GetDropTarget@?$IOleInPlaceObjectWindowlessImpl@VCOPOSCAT@@@ATL@@UAGJPAPAUIDropTarget@@@Z 100141a0 f i CAT.obj
 0001:00013210       ?GetExtent@?$IOleObjectImpl@VCOPOSCAT@@@ATL@@UAGJKPAUtagSIZE@@@Z 10014210 f i CAT.obj
 0001:000132b0       ?GetExtent@?$IViewObjectExImpl@VCOPOSCAT@@@ATL@@UAGJKJPAUtagDVTARGETDEVICE@@PAUtagSIZE@@@Z 100142b0 f i CAT.obj
 0001:00013380       ?GetGITPtr@CAtlModule@ATL@@UAEJPAPAUIGlobalInterfaceTable@@@Z 10014380 f i CAT.obj
 0001:00013480       ?GetGUID@?$IProvideClassInfo2Impl@$1?CLSID_OPOSCAT@@3U_GUID@@B$1?DIID__IOPOSCATEvents@@3U2@B$1?LIBID_OposCAT_CCO@@3U2@B$00$0A@VCComTypeInfoHolder@ATL@@@ATL@@UAGJKPAU_GUID@@@Z 10014480 f i CAT.obj
 0001:00013500       ?GetIDsOfNames@?$IDispatchImpl@UIOPOSCAT@@$1?IID_IOPOSCAT@@3U_GUID@@B$1?LIBID_OposCAT_CCO@@3U3@B$00$0A@VCComTypeInfoHolder@ATL@@@ATL@@UAGJABU_GUID@@PAPA_WIKPAJ@Z 10014500 f i CAT.obj
 0001:00013530       ?GetIDsOfNames@CComTypeInfoHolder@ATL@@QAEJABU_GUID@@PAPA_WIKPAJ@Z 10014530 f i CAT.obj
 0001:000136e0       ?GetInterfaceSafetyOptions@?$IObjectSafetyImpl@VCOPOSCAT@@$02@ATL@@UAGJABU_GUID@@PAK1@Z 100146e0 f i CAT.obj
 0001:00013850       ?GetKeyAt@?$CSimpleMap@PA_WPA_WVCExpansionVectorEqualHelper@ATL@@@ATL@@QBEAAPA_WH@Z 10014850 f i CAT.obj
 0001:000138d0       ?GetLockCount@CAtlModule@ATL@@UAEJXZ 100148d0 f i CAT.obj
 0001:000138f0       ?GetMiscStatus@?$IOleObjectImpl@VCOPOSCAT@@@ATL@@UAGJKPAK@Z 100148f0 f i CAT.obj
 0001:00013960       ?GetMoniker@?$IOleObjectImpl@VCOPOSCAT@@@ATL@@UAGJKKPAPAUIMoniker@@@Z 10014960 f i CAT.obj
 0001:000139d0       ?GetNaturalExtent@?$IViewObjectExImpl@VCOPOSCAT@@@ATL@@UAGJKJPAUtagDVTARGETDEVICE@@PAUHDC__@@PAUtagExtentInfo@@PAUtagSIZE@@@Z 100149d0 f i CAT.obj
 0001:00013af0       ?GetObjectCLSID@?$CComCoClass@VCOPOSCAT@@$1?CLSID_OPOSCAT@@3U_GUID@@B@ATL@@SGABU_GUID@@XZ 10014af0 f i CAT.obj
 0001:00013b00       ?GetPages@?$ISpecifyPropertyPagesImpl@VCOPOSCAT@@@ATL@@UAGJPAUtagCAUUID@@@Z 10014b00 f i CAT.obj
 0001:00013b70       ?GetPagesHelper@?$ISpecifyPropertyPagesImpl@VCOPOSCAT@@@ATL@@IAEJPAUtagCAUUID@@PBUATL_PROPMAP_ENTRY@2@@Z 10014b70 f i CAT.obj
 0001:00013d70       ?GetProperty@?$CComPtr@UIDispatch@@@ATL@@QAEJJPAUtagVARIANT@@@Z 10014d70 f i CAT.obj
 0001:00013db0       ?GetProperty@?$CComPtr@UIDispatch@@@ATL@@SAJPAUIDispatch@@JPAUtagVARIANT@@@Z 10014db0 f i CAT.obj
 0001:00013f10       ?GetPropertyMap@COPOSCAT@@SAPBUATL_PROPMAP_ENTRY@ATL@@XZ 10014f10 f i CAT.obj
 0001:00013f20       ?GetRect@?$IViewObjectExImpl@VCOPOSCAT@@@ATL@@UAGJKPAU_RECTL@@@Z 10014f20 f i CAT.obj
 0001:00013f90       ?GetSize@?$CSimpleMap@PA_WPA_WVCExpansionVectorEqualHelper@ATL@@@ATL@@QBEHXZ 10014f90 f i CAT.obj
 0001:00013fb0       ?GetSize@CComDynamicUnkArray@ATL@@QBEHXZ 10014fb0 f i CAT.obj
 0001:00013fd0       ?GetSizeMax@?$IPersistStreamInitImpl@VCOPOSCAT@@@ATL@@UAGJPAT_ULARGE_INTEGER@@@Z 10014fd0 f i CAT.obj
 0001:00014540       ?GetSizeMax@CComVariant@ATL@@QBEJPAT_ULARGE_INTEGER@@@Z 10015540 f i CAT.obj
 0001:000148a0       ?GetStreamSize@CComBSTR@ATL@@SAKPA_W@Z 100158a0 f i CAT.obj
 0001:000148f0       ?GetTI@CComTypeInfoHolder@ATL@@QAEJK@Z 100158f0 f i CAT.obj
 0001:00015100       ?GetTI@CComTypeInfoHolder@ATL@@QAEJKPAPAUITypeInfo@@@Z 10016100 f i CAT.obj
 0001:000151c0       ?GetTypeInfo@?$IDispatchImpl@UIOPOSCAT@@$1?IID_IOPOSCAT@@3U_GUID@@B$1?LIBID_OposCAT_CCO@@3U3@B$00$0A@VCComTypeInfoHolder@ATL@@@ATL@@UAGJIKPAPAUITypeInfo@@@Z 100161c0 f i CAT.obj
 0001:000151f0       ?GetTypeInfo@CComTypeInfoHolder@ATL@@QAEJIKPAPAUITypeInfo@@@Z 100161f0 f i CAT.obj
 0001:00015230       ?GetTypeInfoCount@?$IDispatchImpl@UIOPOSCAT@@$1?IID_IOPOSCAT@@3U_GUID@@B$1?LIBID_OposCAT_CCO@@3U3@B$00$0A@VCComTypeInfoHolder@ATL@@@ATL@@UAGJPAI@Z 10016230 f i CAT.obj
 0001:00015250       ?GetUnknown@CComDynamicUnkArray@ATL@@QAGPAUIUnknown@@K@Z 10016250 f i CAT.obj
 0001:000152c0       ?GetUnknown@COPOSCAT@@QAEPAUIUnknown@@XZ 100162c0 f i CAT.obj
 0001:000152f0       ?GetUserClassID@?$IOleObjectImpl@VCOPOSCAT@@@ATL@@UAGJPAU_GUID@@@Z 100162f0 f i CAT.obj
 0001:000153a0       ?GetUserType@?$IOleObjectImpl@VCOPOSCAT@@@ATL@@UAGJKPAPA_W@Z 100163a0 f i CAT.obj
 0001:00015410       ?GetValueAt@?$CSimpleMap@PA_WPA_WVCExpansionVectorEqualHelper@ATL@@@ATL@@QBEAAPA_WH@Z 10016410 f i CAT.obj
 0001:00015490       ?GetViewStatus@?$IViewObjectExImpl@VCOPOSCAT@@@ATL@@UAGJPAK@Z 10016490 f i CAT.obj
 0001:00015550       ?GetWNDPROC@CWndProcThunk@ATL@@QAEP6GJPAUHWND__@@IIJ@ZXZ 10016550 f i CAT.obj
 0001:00015580       ?GetWindow@?$IOleInPlaceActiveObjectImpl@VCOPOSCAT@@@ATL@@UAGJPAPAUHWND__@@@Z 10016580 f i CAT.obj
 0001:00015650       ?GetWindow@?$IOleInPlaceObjectWindowlessImpl@VCOPOSCAT@@@ATL@@UAGJPAPAUHWND__@@@Z 10016650 f i CAT.obj
 0001:00015720       ?GetWindowLongPtrW@@YAJPAUHWND__@@H@Z 10016720 f i CAT.obj
 0001:00015750       ?GetWindowProc@?$CWindowImplBaseT@VCWindow@ATL@@V?$CWinTraits@$0FGAAAAAA@$0A@@2@@ATL@@UAEP6GJPAUHWND__@@IIJ@ZXZ 10016750 f i CAT.obj
 0001:00015770       ?GetWndCaption@?$CWindowImpl@VCOPOSCAT@@VCWindow@ATL@@V?$CWinTraits@$0FGAAAAAA@$0A@@3@@ATL@@SAPB_WXZ 10016770 f i CAT.obj
 0001:00015780       ?GetWndClassInfo@?$CWindowImpl@VCOPOSCAT@@VCWindow@ATL@@V?$CWinTraits@$0FGAAAAAA@$0A@@3@@ATL@@SAAAU_ATL_WNDCLASSINFOW@2@XZ 10016780 f i CAT.obj
 0001:00015790       ?GetWndClassName@CWindow@ATL@@SAPB_WXZ 10016790 f i CAT.obj
 0001:000157a0       ?GetWndExStyle@?$CWinTraits@$0FGAAAAAA@$0A@@ATL@@SAKK@Z 100167a0 f i CAT.obj
 0001:000157d0       ?GetWndExStyle@?$CWindowImplBaseT@VCWindow@ATL@@V?$CWinTraits@$0FGAAAAAA@$0A@@2@@ATL@@SAKK@Z 100167d0 f i CAT.obj
 0001:000157f0       ?GetWndStyle@?$CWinTraits@$0FGAAAAAA@$0A@@ATL@@SAKK@Z 100167f0 f i CAT.obj
 0001:00015820       ?GetWndStyle@?$CWindowImplBaseT@VCWindow@ATL@@V?$CWinTraits@$0FGAAAAAA@$0A@@2@@ATL@@SAKK@Z 10016820 f i CAT.obj
 0001:00015840       ?GetZoomInfo@CComControlBase@ATL@@QAEXAAUATL_DRAWINFO@@@Z 10016840 f i CAT.obj
 0001:000159b0       ?HKeyFromString@CRegParser@ATL@@KAPAUHKEY__@@PA_W@Z 100169b0 f i CAT.obj
 0001:00015a20       ?HandsOffStorage@?$IPersistStorageImpl@VCOPOSCAT@@@ATL@@UAGJXZ 10016a20 f i CAT.obj
 0001:00015a80       ?HasSubKeys@CRegParser@ATL@@IAEHPAUHKEY__@@@Z 10016a80 f i CAT.obj
 0001:00015b90       ?IDataObject_GetData@CComControlBase@ATL@@QAEJPAUtagFORMATETC@@PAUtagSTGMEDIUM@@@Z 10016b90 f i CAT.obj
 0001:00015fb0       ?IOleInPlaceObject_InPlaceDeactivate@CComControlBase@ATL@@QAEJXZ 10016fb0 f i CAT.obj
 0001:000161b0       ?IOleInPlaceObject_SetObjectRects@CComControlBase@ATL@@QAEJPBUtagRECT@@0@Z 100171b0 f i CAT.obj
 0001:00016370       ?IOleInPlaceObject_UIDeactivate@CComControlBase@ATL@@QAEJXZ 10017370 f i CAT.obj
 0001:000165e0       ?IOleObject_Advise@CComControlBase@ATL@@QAEJPAUIAdviseSink@@PAK@Z 100175e0 f i CAT.obj
 0001:00016690       ?IOleObject_Close@CComControlBase@ATL@@QAEJK@Z 10017690 f i CAT.obj
 0001:00016940       ?IOleObject_GetClientSite@CComControlBase@ATL@@QAEJPAPAUIOleClientSite@@@Z 10017940 f i CAT.obj
 0001:000169e0       ?IOleObject_SetClientSite@CComControlBase@ATL@@QAEJPAUIOleClientSite@@@Z 100179e0 f i CAT.obj
 0001:00016ab0       ?IOleObject_SetExtent@CComControlBase@ATL@@QAEJKPAUtagSIZE@@@Z 10017ab0 f i CAT.obj
 0001:00016bf0       ?IPSI_GetIPersistStreamInit@?$IPersistStorageImpl@VCOPOSCAT@@@ATL@@AAEPAUIPersistStreamInit@@XZ 10017bf0 f i CAT.obj
 0001:00016cc0       ?IPersistStreamInit_Load@?$IPersistStreamInitImpl@VCOPOSCAT@@@ATL@@QAEJPAUIStream@@PBUATL_PROPMAP_ENTRY@2@@Z 10017cc0 f i CAT.obj
 0001:00016d40       ?IPersistStreamInit_Save@?$IPersistStreamInitImpl@VCOPOSCAT@@@ATL@@QAEJPAUIStream@@HPBUATL_PROPMAP_ENTRY@2@@Z 10017d40 f i CAT.obj
 0001:00016dd0       ?IQuickActivate_QuickActivate@CComControlBase@ATL@@QAEJPAUtagQACONTAINER@@PAUtagQACONTROL@@@Z 10017dd0 f i CAT.obj
 0001:00017420       ?IViewObject_Draw@CComControlBase@ATL@@QAEJKJPAXPAUtagDVTARGETDEVICE@@PAUHDC__@@2PBU_RECTL@@3@Z 10018420 f i CAT.obj
 0001:000176c0       ?InPlaceActivate@CComControlBase@ATL@@QAEJJPBUtagRECT@@@Z 100186c0 f i CAT.obj
 0001:00018050       ?InPlaceDeactivate@?$IOleInPlaceObjectWindowlessImpl@VCOPOSCAT@@@ATL@@UAGJXZ 10019050 f i CAT.obj
 0001:000180d0       ?Increment@CComMultiThreadModel@ATL@@SGKPAJ@Z 100190d0 f i CAT.obj
 0001:000180f0       ?Increment@CComSingleThreadModel@ATL@@SGKPAJ@Z 100190f0 f i CAT.obj
 0001:00018110       ?Init@?$CComEnumImpl@UIEnumConnectionPoints@@$1?_GUID_b196b285_bab4_101a_b69c_00aa00341d07@@3U__s_GUID@@BPAUIConnectionPoint@@V?$_CopyInterface@UIConnectionPoint@@@ATL@@@ATL@@QAEJPAPAUIConnectionPoint@@0PAUIUnknown@@W4CComEnumFlags@2@@Z 10019110 f i CAT.obj
 0001:000182f0       ?Init@?$CComEnumImpl@UIEnumConnections@@$1?_GUID_b196b287_bab4_101a_b69c_00aa00341d07@@3U__s_GUID@@BUtagCONNECTDATA@@V?$_Copy@UtagCONNECTDATA@@@ATL@@@ATL@@QAEJPAUtagCONNECTDATA@@0PAUIUnknown@@W4CComEnumFlags@2@@Z 100192f0 f i CAT.obj
 0001:000184d0       ?Init@CComFakeCriticalSection@ATL@@QAEJXZ 100194d0 f i CAT.obj
 0001:000184f0       ?Init@CComModule@ATL@@QAEJPAU_ATL_OBJMAP_ENTRY30@2@PAUHINSTANCE__@@PBU_GUID@@@Z 100194f0 f i CAT.obj
 0001:000185e0       ?Init@CComSafeDeleteCriticalSection@ATL@@QAEJXZ 100195e0 f i CAT.obj
 0001:00018660       ?Init@CDynamicStdCallThunk2@ATL@@QAEHKPAX@Z 10019660 f i CAT.obj
 0001:000186c0       ?Init@CWndProcThunk@ATL@@QAEHP6GJPAUHWND__@@IIJ@ZPAX@Z 100196c0 f i CAT.obj
 0001:00018700       ?InitFromData@?$IOleObjectImpl@VCOPOSCAT@@@ATL@@UAGJPAUIDataObject@@HK@Z 10019700 f i CAT.obj
 0001:00018770       ?InitLibId@?$CAtlModuleT@VCComModule@ATL@@@ATL@@SAXXZ 10019770 f i CAT.obj
 0001:00018780       ?InitNew@?$IPersistStorageImpl@VCOPOSCAT@@@ATL@@UAGJPAUIStorage@@@Z 10019780 f i CAT.obj
 0001:00018870       ?InitNew@?$IPersistStreamInitImpl@VCOPOSCAT@@@ATL@@UAGJXZ 10019870 f i CAT.obj
 0001:00018900       ?InlineIsEqualUnknown@ATL@@YGHABU_GUID@@@Z 10019900 f i CAT.obj
 0001:00018970       ?InternalAddRef@?$CComObjectRootEx@VCComMultiThreadModel@ATL@@@ATL@@QAEKXZ 10019970 f i CAT.obj
 0001:000189d0       ?InternalAddRef@?$CComObjectRootEx@VCComSingleThreadModel@ATL@@@ATL@@QAEKXZ 100199d0 f i CAT.obj
 0001:00018a30       ?InternalFinalConstructAddRef@CComObjectRootBase@ATL@@QAEXXZ 10019a30 f i CAT.obj
 0001:00018a50       ?InternalFinalConstructAddRef@COPOSCAT@@QAEXXZ 10019a50 f i CAT.obj
 0001:00018a80       ?InternalFinalConstructRelease@CComObjectRootBase@ATL@@QAEXXZ 10019a80 f i CAT.obj
 0001:00018ad0       ?InternalFinalConstructRelease@COPOSCAT@@QAEXXZ 10019ad0 f i CAT.obj
 0001:00018b00       ?InternalGetSite@CComControlBase@ATL@@QAEJABU_GUID@@PAPAX@Z 10019b00 f i CAT.obj
 0001:00018bc0       ?InternalQueryInterface@CComObjectRootBase@ATL@@SGJPAXPBU_ATL_INTMAP_ENTRY@2@ABU_GUID@@PAPAX@Z 10019bc0 f i CAT.obj
 0001:00018c80       ?InternalRelease@?$CComObjectRootEx@VCComMultiThreadModel@ATL@@@ATL@@QAEKXZ 10019c80 f i CAT.obj
 0001:00018cf0       ?InternalRelease@?$CComObjectRootEx@VCComSingleThreadModel@ATL@@@ATL@@QAEKXZ 10019cf0 f i CAT.obj
 0001:00018d60       ?InternalSetAtIndex@?$CSimpleArray@GV?$CSimpleArrayEqualHelper@G@ATL@@@ATL@@QAEXHABG@Z 10019d60 f i CAT.obj
 0001:00018dd0       ?InternalSetAtIndex@?$CSimpleMap@PA_WPA_WVCExpansionVectorEqualHelper@ATL@@@ATL@@QAEXHABQA_W0@Z 10019dd0 f i CAT.obj
 0001:00018e70       ?Invoke@?$IDispatchImpl@UIOPOSCAT@@$1?IID_IOPOSCAT@@3U_GUID@@B$1?LIBID_OposCAT_CCO@@3U3@B$00$0A@VCComTypeInfoHolder@ATL@@@ATL@@UAGJJABU_GUID@@KGPAUtagDISPPARAMS@@PAUtagVARIANT@@PAUtagEXCEPINFO@@PAI@Z 10019e70 f i CAT.obj
 0001:00018eb0       ?Invoke@CComTypeInfoHolder@ATL@@QAEJPAUIDispatch@@JABU_GUID@@KGPAUtagDISPPARAMS@@PAUtagVARIANT@@PAUtagEXCEPINFO@@PAI@Z 10019eb0 f i CAT.obj
 0001:00018f40       ?IsDirty@?$IPersistStorageImpl@VCOPOSCAT@@@ATL@@UAGJXZ 10019f40 f i CAT.obj
 0001:00019030       ?IsDirty@?$IPersistStreamInitImpl@VCOPOSCAT@@@ATL@@UAGJXZ 1001a030 f i CAT.obj
 0001:000190d0       ?IsEqualKey@CExpansionVectorEqualHelper@ATL@@SA_NQA_W0@Z 1001a0d0 f i CAT.obj
 0001:00019100       ?IsEqualObject@?$CComPtrBase@UIOleClientSite@@@ATL@@QAE_NPAUIUnknown@@@Z 1001a100 f i CAT.obj
 0001:00019230       ?IsEqualObject@?$CComPtrBase@UITypeInfo@@@ATL@@QAE_NPAUIUnknown@@@Z 1001a230 f i CAT.obj
 0001:00019360       ?IsSpace@CRegParser@ATL@@IAEH_W@Z 1001a360 f i CAT.obj
 0001:000193d0       ?IsUpToDate@?$IOleObjectImpl@VCOPOSCAT@@@ATL@@UAGJXZ 1001a3d0 f i CAT.obj
 0001:00019430       ?Length@CComBSTR@ATL@@QBEIXZ 1001a430 f i CAT.obj
 0001:00019470       ?Load@?$IPersistStorageImpl@VCOPOSCAT@@@ATL@@UAGJPAUIStorage@@@Z 1001a470 f i CAT.obj
 0001:000195d0       ?Load@?$IPersistStreamInitImpl@VCOPOSCAT@@@ATL@@UAGJPAUIStream@@@Z 1001a5d0 f i CAT.obj
 0001:00019660       ?LoadCursorW@AtlModuleRegisterWndClassInfoParamW@ATL@@SAPAUHICON__@@PAUHINSTANCE__@@PB_W@Z 1001a660 f i CAT.obj
 0001:00019690       ?LoadNameCache@CComTypeInfoHolder@ATL@@QAEJPAUITypeInfo@@@Z 1001a690 f i CAT.obj
 0001:00019920       ?Lock@?$CComCritSecLock@VCComCriticalSection@ATL@@@ATL@@QAEJXZ 1001a920 f i CAT.obj
 0001:000199d0       ?Lock@?$CComObjectRootEx@VCComSingleThreadModel@ATL@@@ATL@@QAEXXZ 1001a9d0 f i CAT.obj
 0001:000199f0       ?Lock@CAtlModule@ATL@@UAEJXZ 1001a9f0 f i CAT.obj
 0001:00019a20       ?Lock@CComCriticalSection@ATL@@QAEJXZ 1001aa20 f i CAT.obj
 0001:00019a60       ?Lock@CComFakeCriticalSection@ATL@@QAEJXZ 1001aa60 f i CAT.obj
 0001:00019a80       ?LockServer@CComClassFactory@ATL@@UAGJH@Z 1001aa80 f i CAT.obj
 0001:00019ae0       ?Lookup@?$CSimpleMap@PA_WPA_WVCExpansionVectorEqualHelper@ATL@@@ATL@@QBEPA_WABQA_W@Z 1001aae0 f i CAT.obj
 0001:00019b30       ?Next@?$CComEnumImpl@UIEnumConnectionPoints@@$1?_GUID_b196b285_bab4_101a_b69c_00aa00341d07@@3U__s_GUID@@BPAUIConnectionPoint@@V?$_CopyInterface@UIConnectionPoint@@@ATL@@@ATL@@UAGJKPAPAUIConnectionPoint@@PAK@Z 1001ab30 f i CAT.obj
 0001:00019ca0       ?Next@?$CComEnumImpl@UIEnumConnections@@$1?_GUID_b196b287_bab4_101a_b69c_00aa00341d07@@3U__s_GUID@@BUtagCONNECTDATA@@V?$_Copy@UtagCONNECTDATA@@@ATL@@@ATL@@UAGJKPAUtagCONNECTDATA@@PAK@Z 1001aca0 f i CAT.obj
 0001:00019e10       ?NextToken@CRegParser@ATL@@IAEJPA_W@Z 1001ae10 f i CAT.obj
 0001:0001a0b0       ?OLE2CT_EX@@YAPB_WPB_WI@Z  1001b0b0 f i CAT.obj
 0001:0001a0c0       ?OLE2CT_EX_DEF@@YAPB_WPB_W@Z 1001b0c0 f i CAT.obj
 0001:0001a0d0       ?OLE2T_EX@@YAPA_WPA_WI@Z   1001b0d0 f i CAT.obj
 0001:0001a0e0       ?OnAmbientPropertyChange@?$IOleControlImpl@VCOPOSCAT@@@ATL@@UAGJJ@Z 1001b0e0 f i CAT.obj
 0001:0001a170       ?OnDocWindowActivate@?$IOleInPlaceActiveObjectImpl@VCOPOSCAT@@@ATL@@UAGJH@Z 1001b170 f i CAT.obj
 0001:0001a200       ?OnDrawAdvanced@CComControlBase@ATL@@UAEJAAUATL_DRAWINFO@@@Z 1001b200 f i CAT.obj
 0001:0001a420       ?OnFinalMessage@?$CWindowImplBaseT@VCWindow@ATL@@V?$CWinTraits@$0FGAAAAAA@$0A@@2@@ATL@@UAEXPAUHWND__@@@Z 1001b420 f i CAT.obj
 0001:0001a440       ?OnFrameWindowActivate@?$IOleInPlaceActiveObjectImpl@VCOPOSCAT@@@ATL@@UAGJH@Z 1001b440 f i CAT.obj
 0001:0001a4a0       ?OnKillFocus@CComControlBase@ATL@@QAEJIIJAAH@Z 1001b4a0 f i CAT.obj
 0001:0001a5a0       ?OnMnemonic@?$IOleControlImpl@VCOPOSCAT@@@ATL@@UAGJPAUtagMSG@@@Z 1001b5a0 f i CAT.obj
 0001:0001a610       ?OnMouseActivate@CComControlBase@ATL@@QAEJIIJAAH@Z 1001b610 f i CAT.obj
 0001:0001a760       ?OnPaint@CComControlBase@ATL@@QAEJIIJAAH@Z 1001b760 f i CAT.obj
 0001:0001a8e0       ?OnPostVerbDiscardUndo@?$IOleObjectImpl@VCOPOSCAT@@@ATL@@QAEJXZ 1001b8e0 f i CAT.obj
 0001:0001a900       ?OnPostVerbHide@?$IOleObjectImpl@VCOPOSCAT@@@ATL@@QAEJXZ 1001b900 f i CAT.obj
 0001:0001a920       ?OnPostVerbInPlaceActivate@?$IOleObjectImpl@VCOPOSCAT@@@ATL@@QAEJXZ 1001b920 f i CAT.obj
 0001:0001a940       ?OnPostVerbOpen@?$IOleObjectImpl@VCOPOSCAT@@@ATL@@QAEJXZ 1001b940 f i CAT.obj
 0001:0001a960       ?OnPostVerbShow@?$IOleObjectImpl@VCOPOSCAT@@@ATL@@QAEJXZ 1001b960 f i CAT.obj
 0001:0001a980       ?OnPostVerbUIActivate@?$IOleObjectImpl@VCOPOSCAT@@@ATL@@QAEJXZ 1001b980 f i CAT.obj
 0001:0001a9a0       ?OnPreVerbDiscardUndo@?$IOleObjectImpl@VCOPOSCAT@@@ATL@@QAEJXZ 1001b9a0 f i CAT.obj
 0001:0001a9c0       ?OnPreVerbHide@?$IOleObjectImpl@VCOPOSCAT@@@ATL@@QAEJXZ 1001b9c0 f i CAT.obj
 0001:0001a9e0       ?OnPreVerbInPlaceActivate@?$IOleObjectImpl@VCOPOSCAT@@@ATL@@QAEJXZ 1001b9e0 f i CAT.obj
 0001:0001aa00       ?OnPreVerbOpen@?$IOleObjectImpl@VCOPOSCAT@@@ATL@@QAEJXZ 1001ba00 f i CAT.obj
 0001:0001aa20       ?OnPreVerbShow@?$IOleObjectImpl@VCOPOSCAT@@@ATL@@QAEJXZ 1001ba20 f i CAT.obj
 0001:0001aa40       ?OnPreVerbUIActivate@?$IOleObjectImpl@VCOPOSCAT@@@ATL@@QAEJXZ 1001ba40 f i CAT.obj
 0001:0001aa60       ?OnSetFocus@CComControlBase@ATL@@QAEJIIJAAH@Z 1001ba60 f i CAT.obj
 0001:0001abf0       ?OnWindowMessage@?$IOleInPlaceObjectWindowlessImpl@VCOPOSCAT@@@ATL@@UAGJIIJPAJ@Z 1001bbf0 f i CAT.obj
 0001:0001ad50       ?Open@CRegKey@ATL@@QAEJPAUHKEY__@@PB_WK@Z 1001bd50 f i CAT.obj
 0001:0001aea0       ?OuterAddRef@CComObjectRootBase@ATL@@QAEKXZ 1001bea0 f i CAT.obj
 0001:0001aee0       ?OuterQueryInterface@CComObjectRootBase@ATL@@QAEJABU_GUID@@PAPAX@Z 1001bee0 f i CAT.obj
 0001:0001af30       ?OuterRelease@CComObjectRootBase@ATL@@QAEKXZ 1001bf30 f i CAT.obj
 0001:0001af70       ?PreProcessBuffer@CRegParser@ATL@@QAEJPA_WPAPA_W@Z 1001bf70 f i CAT.obj
 0001:0001b4b0       ?PreTranslateAccelerator@CComControlBase@ATL@@QAEHPAUtagMSG@@AAJ@Z 1001c4b0 f i CAT.obj
 0001:0001b4d0       ?ProcessWindowMessage@?$CComControl@VCOPOSCAT@@V?$CWindowImpl@VCOPOSCAT@@VCWindow@ATL@@V?$CWinTraits@$0FGAAAAAA@$0A@@3@@ATL@@@ATL@@UAEHPAUHWND__@@IIJAAJK@Z 1001c4d0 f i CAT.obj
 0001:0001b6a0       ?ProcessWindowMessage@COPOSCAT@@UAEHPAUHWND__@@IIJAAJK@Z 1001c6a0 f i CAT.obj
 0001:0001b7a0       ?PutProperty@?$CComPtr@UIDispatch@@@ATL@@QAEJJPAUtagVARIANT@@@Z 1001c7a0 f i CAT.obj
 0001:0001b7e0       ?PutProperty@?$CComPtr@UIDispatch@@@ATL@@SAJPAUIDispatch@@JPAUtagVARIANT@@@Z 1001c7e0 f i CAT.obj
 0001:0001b9d0       ?QueryGetData@?$IDataObjectImpl@VCOPOSCAT@@@ATL@@UAGJPAUtagFORMATETC@@@Z 1001c9d0 f i CAT.obj
 0001:0001ba40       ?QueryHitPoint@?$IViewObjectExImpl@VCOPOSCAT@@@ATL@@UAGJKPBUtagRECT@@UtagPOINT@@JPAK@Z 1001ca40 f i CAT.obj
 0001:0001bb50       ?QueryHitRect@?$IViewObjectExImpl@VCOPOSCAT@@@ATL@@UAGJKPBUtagRECT@@0JPAK@Z 1001cb50 f i CAT.obj
 0001:0001bca0       ?QueryInterface@?$CComAggObject@VCOPOSCAT@@@ATL@@UAGJABU_GUID@@PAPAX@Z 1001cca0 f i CAT.obj
 0001:0001bd50       ?QueryInterface@?$CComContainedObject@VCOPOSCAT@@@ATL@@UAGJABU_GUID@@PAPAX@Z 1001cd50 f i CAT.obj
 0001:0001bd74       ?QueryInterface@?$CComContainedObject@VCOPOSCAT@@@ATL@@WHA@AGJABU_GUID@@PAPAX@Z 1001cd74 f i CAT.obj
 0001:0001bd7e       ?QueryInterface@?$CComContainedObject@VCOPOSCAT@@@ATL@@WHE@AGJABU_GUID@@PAPAX@Z 1001cd7e f i CAT.obj
 0001:0001bd88       ?QueryInterface@?$CComContainedObject@VCOPOSCAT@@@ATL@@WHI@AGJABU_GUID@@PAPAX@Z 1001cd88 f i CAT.obj
 0001:0001bd92       ?QueryInterface@?$CComContainedObject@VCOPOSCAT@@@ATL@@WHM@AGJABU_GUID@@PAPAX@Z 1001cd92 f i CAT.obj
 0001:0001bd9c       ?QueryInterface@?$CComContainedObject@VCOPOSCAT@@@ATL@@WIA@AGJABU_GUID@@PAPAX@Z 1001cd9c f i CAT.obj
 0001:0001bda9       ?QueryInterface@?$CComContainedObject@VCOPOSCAT@@@ATL@@WIE@AGJABU_GUID@@PAPAX@Z 1001cda9 f i CAT.obj
 0001:0001bdb6       ?QueryInterface@?$CComContainedObject@VCOPOSCAT@@@ATL@@WII@AGJABU_GUID@@PAPAX@Z 1001cdb6 f i CAT.obj
 0001:0001bdc3       ?QueryInterface@?$CComContainedObject@VCOPOSCAT@@@ATL@@WIM@AGJABU_GUID@@PAPAX@Z 1001cdc3 f i CAT.obj
 0001:0001bdd0       ?QueryInterface@?$CComContainedObject@VCOPOSCAT@@@ATL@@WJA@AGJABU_GUID@@PAPAX@Z 1001cdd0 f i CAT.obj
 0001:0001bddd       ?QueryInterface@?$CComContainedObject@VCOPOSCAT@@@ATL@@WJE@AGJABU_GUID@@PAPAX@Z 1001cddd f i CAT.obj
 0001:0001bdea       ?QueryInterface@?$CComContainedObject@VCOPOSCAT@@@ATL@@WJI@AGJABU_GUID@@PAPAX@Z 1001cdea f i CAT.obj
 0001:0001bdf7       ?QueryInterface@?$CComContainedObject@VCOPOSCAT@@@ATL@@WJM@AGJABU_GUID@@PAPAX@Z 1001cdf7 f i CAT.obj
 0001:0001be04       ?QueryInterface@?$CComContainedObject@VCOPOSCAT@@@ATL@@WKA@AGJABU_GUID@@PAPAX@Z 1001ce04 f i CAT.obj
 0001:0001be20       ?QueryInterface@?$CComObject@V?$CComEnum@UIEnumConnectionPoints@@$1?_GUID_b196b285_bab4_101a_b69c_00aa00341d07@@3U__s_GUID@@BPAUIConnectionPoint@@V?$_CopyInterface@UIConnectionPoint@@@ATL@@VCComSingleThreadModel@6@@ATL@@@ATL@@UAGJABU_GUID@@PAPAX@Z 1001ce20 f i CAT.obj
 0001:0001be40       ?QueryInterface@?$CComObject@V?$CComEnum@UIEnumConnections@@$1?_GUID_b196b287_bab4_101a_b69c_00aa00341d07@@3U__s_GUID@@BUtagCONNECTDATA@@V?$_Copy@UtagCONNECTDATA@@@ATL@@VCComSingleThreadModel@6@@ATL@@@ATL@@UAGJABU_GUID@@PAPAX@Z 1001ce40 f i CAT.obj
 0001:0001be60       ?QueryInterface@?$CComObject@VCOPOSCAT@@@ATL@@UAGJABU_GUID@@PAPAX@Z 1001ce60 f i CAT.obj
 0001:0001be7e       ?QueryInterface@?$CComObject@VCOPOSCAT@@@ATL@@WHA@AGJABU_GUID@@PAPAX@Z 1001ce7e f i CAT.obj
 0001:0001be88       ?QueryInterface@?$CComObject@VCOPOSCAT@@@ATL@@WHE@AGJABU_GUID@@PAPAX@Z 1001ce88 f i CAT.obj
 0001:0001be92       ?QueryInterface@?$CComObject@VCOPOSCAT@@@ATL@@WHI@AGJABU_GUID@@PAPAX@Z 1001ce92 f i CAT.obj
 0001:0001be9c       ?QueryInterface@?$CComObject@VCOPOSCAT@@@ATL@@WHM@AGJABU_GUID@@PAPAX@Z 1001ce9c f i CAT.obj
 0001:0001bea6       ?QueryInterface@?$CComObject@VCOPOSCAT@@@ATL@@WIA@AGJABU_GUID@@PAPAX@Z 1001cea6 f i CAT.obj
 0001:0001beb3       ?QueryInterface@?$CComObject@VCOPOSCAT@@@ATL@@WIE@AGJABU_GUID@@PAPAX@Z 1001ceb3 f i CAT.obj
 0001:0001bec0       ?QueryInterface@?$CComObject@VCOPOSCAT@@@ATL@@WII@AGJABU_GUID@@PAPAX@Z 1001cec0 f i CAT.obj
 0001:0001becd       ?QueryInterface@?$CComObject@VCOPOSCAT@@@ATL@@WIM@AGJABU_GUID@@PAPAX@Z 1001cecd f i CAT.obj
 0001:0001beda       ?QueryInterface@?$CComObject@VCOPOSCAT@@@ATL@@WJA@AGJABU_GUID@@PAPAX@Z 1001ceda f i CAT.obj
 0001:0001bee7       ?QueryInterface@?$CComObject@VCOPOSCAT@@@ATL@@WJE@AGJABU_GUID@@PAPAX@Z 1001cee7 f i CAT.obj
 0001:0001bef4       ?QueryInterface@?$CComObject@VCOPOSCAT@@@ATL@@WJI@AGJABU_GUID@@PAPAX@Z 1001cef4 f i CAT.obj
 0001:0001bf01       ?QueryInterface@?$CComObject@VCOPOSCAT@@@ATL@@WJM@AGJABU_GUID@@PAPAX@Z 1001cf01 f i CAT.obj
 0001:0001bf0e       ?QueryInterface@?$CComObject@VCOPOSCAT@@@ATL@@WKA@AGJABU_GUID@@PAPAX@Z 1001cf0e f i CAT.obj
 0001:0001bf20       ?QueryInterface@?$CComObjectCached@VCComClassFactory@ATL@@@ATL@@UAGJABU_GUID@@PAPAX@Z 1001cf20 f i CAT.obj
 0001:0001bf40       ?QueryInterface@CRegObject@ATL@@UAGJABU_GUID@@PAPAX@Z 1001cf40 f i CAT.obj
 0001:0001bf90       ?QuickActivate@?$IQuickActivateImpl@VCOPOSCAT@@@ATL@@UAGJPAUtagQACONTAINER@@PAUtagQACONTROL@@@Z 1001cf90 f i CAT.obj
 0001:0001c020       ?ReactivateAndUndo@?$IOleInPlaceObjectWindowlessImpl@VCOPOSCAT@@@ATL@@UAGJXZ 1001d020 f i CAT.obj
 0001:0001c090       ?ReadFromStream@CComBSTR@ATL@@QAEJPAUIStream@@@Z 1001d090 f i CAT.obj
 0001:0001c490       ?ReadFromStream@CComVariant@ATL@@QAEJPAUIStream@@GTClassesAllowedInStream@2@K@Z 1001d490 f i CAT.obj
 0001:0001c7f0       ?RecurseDeleteKey@CRegKey@ATL@@QAEJPB_W@Z 1001d7f0 f i CAT.obj
 0001:0001c9d0       ?RegCreateKeyExW@CAtlTransactionManager@ATL@@QAEJPAUHKEY__@@PB_WKPA_WKKQAU_SECURITY_ATTRIBUTES@@PAPAU3@PAK@Z 1001d9d0 f i CAT.obj
 0001:0001cb00       ?RegDeleteKeyW@CAtlTransactionManager@ATL@@QAEJPAUHKEY__@@PB_W@Z 1001db00 f i CAT.obj
 0001:0001cc00       ?RegOpenKeyExW@CAtlTransactionManager@ATL@@QAEJPAUHKEY__@@PB_WKKPAPAU3@@Z 1001dc00 f i CAT.obj
 0001:0001cd10       ?Register@_ATL_WNDCLASSINFOW@ATL@@QAEGPAP6GJPAUHWND__@@IIJ@Z@Z 1001dd10 f i CAT.obj
 0001:0001cd50       ?RegisterBuffer@CRegParser@ATL@@QAEJPA_WH@Z 1001dd50 f i CAT.obj
 0001:0001d080       ?RegisterClassExW@AtlModuleRegisterWndClassInfoParamW@ATL@@SAGPAU_ATL_WIN_MODULE70@2@PBUtagWNDCLASSEXW@@@Z 1001e080 f i CAT.obj
 0001:0001d0a0       ?RegisterFromResource@CRegObject@ATL@@IAEJPB_W00H@Z 1001e0a0 f i CAT.obj
 0001:0001d430       ?RegisterServer@?$CAtlModuleT@VCComModule@ATL@@@ATL@@QAEJHPBU_GUID@@@Z 1001e430 f i CAT.obj
 0001:0001d4b0       ?RegisterServer@CAtlComModule@ATL@@QAEJHPBU_GUID@@@Z 1001e4b0 f i CAT.obj
 0001:0001d4e0       ?RegisterServer@CComModule@ATL@@QAEJHPBU_GUID@@@Z 1001e4e0 f i CAT.obj
 0001:0001d5c0       ?RegisterSubkeys@CRegParser@ATL@@IAEJPA_WPAUHKEY__@@HH@Z 1001e5c0 f i CAT.obj
 0001:0001e0e0       ?Release@?$CComAggObject@VCOPOSCAT@@@ATL@@UAGKXZ 1001f0e0 f i CAT.obj
 0001:0001e1a0       ?Release@?$CComContainedObject@VCOPOSCAT@@@ATL@@UAGKXZ 1001f1a0 f i CAT.obj
 0001:0001e1bc       ?Release@?$CComContainedObject@VCOPOSCAT@@@ATL@@WHA@AGKXZ 1001f1bc f i CAT.obj
 0001:0001e1c6       ?Release@?$CComContainedObject@VCOPOSCAT@@@ATL@@WHE@AGKXZ 1001f1c6 f i CAT.obj
 0001:0001e1d0       ?Release@?$CComContainedObject@VCOPOSCAT@@@ATL@@WHI@AGKXZ 1001f1d0 f i CAT.obj
 0001:0001e1da       ?Release@?$CComContainedObject@VCOPOSCAT@@@ATL@@WHM@AGKXZ 1001f1da f i CAT.obj
 0001:0001e1e4       ?Release@?$CComContainedObject@VCOPOSCAT@@@ATL@@WIA@AGKXZ 1001f1e4 f i CAT.obj
 0001:0001e1f1       ?Release@?$CComContainedObject@VCOPOSCAT@@@ATL@@WIE@AGKXZ 1001f1f1 f i CAT.obj
 0001:0001e1fe       ?Release@?$CComContainedObject@VCOPOSCAT@@@ATL@@WII@AGKXZ 1001f1fe f i CAT.obj
 0001:0001e20b       ?Release@?$CComContainedObject@VCOPOSCAT@@@ATL@@WIM@AGKXZ 1001f20b f i CAT.obj
 0001:0001e218       ?Release@?$CComContainedObject@VCOPOSCAT@@@ATL@@WJA@AGKXZ 1001f218 f i CAT.obj
 0001:0001e225       ?Release@?$CComContainedObject@VCOPOSCAT@@@ATL@@WJE@AGKXZ 1001f225 f i CAT.obj
 0001:0001e232       ?Release@?$CComContainedObject@VCOPOSCAT@@@ATL@@WJI@AGKXZ 1001f232 f i CAT.obj
 0001:0001e23f       ?Release@?$CComContainedObject@VCOPOSCAT@@@ATL@@WJM@AGKXZ 1001f23f f i CAT.obj
 0001:0001e24c       ?Release@?$CComContainedObject@VCOPOSCAT@@@ATL@@WKA@AGKXZ 1001f24c f i CAT.obj
 0001:0001e259       ?Release@?$CComContainedObject@VCOPOSCAT@@@ATL@@WKI@AGKXZ 1001f259 f i CAT.obj
 0001:0001e266       ?Release@?$CComContainedObject@VCOPOSCAT@@@ATL@@WLE@AGKXZ 1001f266 f i CAT.obj
 0001:0001e280       ?Release@?$CComObject@V?$CComEnum@UIEnumConnectionPoints@@$1?_GUID_b196b285_bab4_101a_b69c_00aa00341d07@@3U__s_GUID@@BPAUIConnectionPoint@@V?$_CopyInterface@UIConnectionPoint@@@ATL@@VCComSingleThreadModel@6@@ATL@@@ATL@@UAGKXZ 1001f280 f i CAT.obj
 0001:0001e340       ?Release@?$CComObject@V?$CComEnum@UIEnumConnections@@$1?_GUID_b196b287_bab4_101a_b69c_00aa00341d07@@3U__s_GUID@@BUtagCONNECTDATA@@V?$_Copy@UtagCONNECTDATA@@@ATL@@VCComSingleThreadModel@6@@ATL@@@ATL@@UAGKXZ 1001f340 f i CAT.obj
 0001:0001e400       ?Release@?$CComObject@VCOPOSCAT@@@ATL@@UAGKXZ 1001f400 f i CAT.obj
 0001:0001e4c1       ?Release@?$CComObject@VCOPOSCAT@@@ATL@@WHA@AGKXZ 1001f4c1 f i CAT.obj
 0001:0001e4cb       ?Release@?$CComObject@VCOPOSCAT@@@ATL@@WHE@AGKXZ 1001f4cb f i CAT.obj
 0001:0001e4d5       ?Release@?$CComObject@VCOPOSCAT@@@ATL@@WHI@AGKXZ 1001f4d5 f i CAT.obj
 0001:0001e4df       ?Release@?$CComObject@VCOPOSCAT@@@ATL@@WHM@AGKXZ 1001f4df f i CAT.obj
 0001:0001e4e9       ?Release@?$CComObject@VCOPOSCAT@@@ATL@@WIA@AGKXZ 1001f4e9 f i CAT.obj
 0001:0001e4f6       ?Release@?$CComObject@VCOPOSCAT@@@ATL@@WIE@AGKXZ 1001f4f6 f i CAT.obj
 0001:0001e503       ?Release@?$CComObject@VCOPOSCAT@@@ATL@@WII@AGKXZ 1001f503 f i CAT.obj
 0001:0001e510       ?Release@?$CComObject@VCOPOSCAT@@@ATL@@WIM@AGKXZ 1001f510 f i CAT.obj
 0001:0001e51d       ?Release@?$CComObject@VCOPOSCAT@@@ATL@@WJA@AGKXZ 1001f51d f i CAT.obj
 0001:0001e52a       ?Release@?$CComObject@VCOPOSCAT@@@ATL@@WJE@AGKXZ 1001f52a f i CAT.obj
 0001:0001e537       ?Release@?$CComObject@VCOPOSCAT@@@ATL@@WJI@AGKXZ 1001f537 f i CAT.obj
 0001:0001e544       ?Release@?$CComObject@VCOPOSCAT@@@ATL@@WJM@AGKXZ 1001f544 f i CAT.obj
 0001:0001e551       ?Release@?$CComObject@VCOPOSCAT@@@ATL@@WKA@AGKXZ 1001f551 f i CAT.obj
 0001:0001e55e       ?Release@?$CComObject@VCOPOSCAT@@@ATL@@WKI@AGKXZ 1001f55e f i CAT.obj
 0001:0001e56b       ?Release@?$CComObject@VCOPOSCAT@@@ATL@@WLE@AGKXZ 1001f56b f i CAT.obj
 0001:0001e580       ?Release@?$CComObjectCached@VCComClassFactory@ATL@@@ATL@@UAGKXZ 1001f580 f i CAT.obj
 0001:0001e620       ?Release@?$CComPtrBase@UIAdviseSink@@@ATL@@QAEXXZ 1001f620 f i CAT.obj
 0001:0001e680       ?Release@?$CComPtrBase@UIDispatch@@@ATL@@QAEXXZ 1001f680 f i CAT.obj
 0001:0001e6e0       ?Release@?$CComPtrBase@UIOleInPlaceSiteWindowless@@@ATL@@QAEXXZ 1001f6e0 f i CAT.obj
 0001:0001e740       ?Release@CRegObject@ATL@@UAGKXZ 1001f740 f i CAT.obj
 0001:0001e780       ?Remove@CComDynamicUnkArray@ATL@@QAEHK@Z 1001f780 f i CAT.obj
 0001:0001e830       ?RemoveAll@?$CSimpleMap@PA_WPA_WVCExpansionVectorEqualHelper@ATL@@@ATL@@QAEXXZ 1001f830 f i CAT.obj
 0001:0001e8c0       ?Reset@?$CComEnumImpl@UIEnumConnectionPoints@@$1?_GUID_b196b285_bab4_101a_b69c_00aa00341d07@@3U__s_GUID@@BPAUIConnectionPoint@@V?$_CopyInterface@UIConnectionPoint@@@ATL@@@ATL@@UAGJXZ 1001f8c0 f i CAT.obj
 0001:0001e8e0       ?Reset@?$CComEnumImpl@UIEnumConnections@@$1?_GUID_b196b287_bab4_101a_b69c_00aa00341d07@@3U__s_GUID@@BUtagCONNECTDATA@@V?$_Copy@UtagCONNECTDATA@@@ATL@@@ATL@@UAGJXZ 1001f8e0 f i CAT.obj
 0001:0001e900       ?ResizeBorder@?$IOleInPlaceActiveObjectImpl@VCOPOSCAT@@@ATL@@UAGJPBUtagRECT@@PAUIOleInPlaceUIWindow@@H@Z 1001f900 f i CAT.obj
 0001:0001e960       ?ResourceRegister@CRegObject@ATL@@QAGJPB_WI0@Z 1001f960 f i CAT.obj
 0001:0001ea40       ?ResourceRegisterSz@CRegObject@ATL@@QAGJPB_W00@Z 1001fa40 f i CAT.obj
 0001:0001eb40       ?ResourceUnregister@CRegObject@ATL@@QAGJPB_WI0@Z 1001fb40 f i CAT.obj
 0001:0001ec20       ?ResourceUnregisterSz@CRegObject@ATL@@QAGJPB_W00@Z 1001fc20 f i CAT.obj
 0001:0001ed20       ?SODataDummy@COPOSCAT@@MAGJJ@Z 1001fd20 f i CAT.obj
 0001:0001ed30       ?SODirectIO@COPOSCAT@@MAGJJPAJPAPA_W@Z 1001fd30 f i CAT.obj
 0001:0001eef0       ?SOError@COPOSCAT@@MAGJJJJPAJ@Z 1001fef0 f i CAT.obj
 0001:0001efb0       ?SOOutputComplete@COPOSCAT@@MAGJJ@Z 1001ffb0 f i CAT.obj
 0001:0001f030       ?SOStatusUpdate@COPOSCAT@@MAGJJ@Z 10020030 f i CAT.obj
 0001:0001f0b0       ?Save@?$IPersistStorageImpl@VCOPOSCAT@@@ATL@@UAGJPAUIStorage@@H@Z 100200b0 f i CAT.obj
 0001:0001f210       ?Save@?$IPersistStreamInitImpl@VCOPOSCAT@@@ATL@@UAGJPAUIStream@@H@Z 10020210 f i CAT.obj
 0001:0001f2a0       ?SaveCompleted@?$IPersistStorageImpl@VCOPOSCAT@@@ATL@@UAGJPAUIStorage@@@Z 100202a0 f i CAT.obj
 0001:0001f300       ?SendOnDataChange@CComControlBase@ATL@@QAEJK@Z 10020300 f i CAT.obj
 0001:0001f3f0       ?SendOnSave@CComControlBase@ATL@@QAEJXZ 100203f0 f i CAT.obj
 0001:0001f460       ?SendOnViewChange@CComControlBase@ATL@@QAEJKJ@Z 10020460 f i CAT.obj
 0001:0001f4d0       ?SetAdvise@?$IViewObjectExImpl@VCOPOSCAT@@@ATL@@UAGJKKPAUIAdviseSink@@@Z 100204d0 f i CAT.obj
 0001:0001f560       ?SetClientSite@?$IOleObjectImpl@VCOPOSCAT@@@ATL@@UAGJPAUIOleClientSite@@@Z 10020560 f i CAT.obj
 0001:0001f5f0       ?SetColorScheme@?$IOleObjectImpl@VCOPOSCAT@@@ATL@@UAGJPAUtagLOGPALETTE@@@Z 100205f0 f i CAT.obj
 0001:0001f660       ?SetContentExtent@?$IQuickActivateImpl@VCOPOSCAT@@@ATL@@UAGJPAUtagSIZE@@@Z 10020660 f i CAT.obj
 0001:0001f6f0       ?SetControlFocus@CComControlBase@ATL@@QAEHH@Z 100206f0 f i CAT.obj
 0001:0001f870       ?SetDWORDValue@CRegKey@ATL@@QAEJPB_WK@Z 10020870 f i CAT.obj
 0001:0001f8f0       ?SetData@?$IDataObjectImpl@VCOPOSCAT@@@ATL@@UAGJPAUtagFORMATETC@@PAUtagSTGMEDIUM@@H@Z 100208f0 f i CAT.obj
 0001:0001f960       ?SetExtent@?$IOleObjectImpl@VCOPOSCAT@@@ATL@@UAGJKPAUtagSIZE@@@Z 10020960 f i CAT.obj
 0001:0001f9f0       ?SetHostNames@?$IOleObjectImpl@VCOPOSCAT@@@ATL@@UAGJPB_W0@Z 100209f0 f i CAT.obj
 0001:0001fa50       ?SetInterfaceSafetyOptions@?$IObjectSafetyImpl@VCOPOSCAT@@$02@ATL@@UAGJABU_GUID@@KK@Z 10020a50 f i CAT.obj
 0001:0001fbc0       ?SetMoniker@?$IOleObjectImpl@VCOPOSCAT@@@ATL@@UAGJKPAUIMoniker@@@Z 10020bc0 f i CAT.obj
 0001:0001fc30       ?SetMultiStringValue@CRegKey@ATL@@QAEJPB_W0@Z 10020c30 f i CAT.obj
 0001:0001fd50       ?SetObjectRects@?$IOleInPlaceObjectWindowlessImpl@VCOPOSCAT@@@ATL@@UAGJPBUtagRECT@@0@Z 10020d50 f i CAT.obj
 0001:0001fde0       ?SetStringValue@CRegKey@ATL@@QAEJPB_W0K@Z 10020de0 f i CAT.obj
 0001:0001ff10       ?SetVoid@CComClassFactory@ATL@@QAEXPAX@Z 10020f10 f i CAT.obj
 0001:0001ff30       ?SetVoid@CComObjectRootBase@ATL@@QAEXPAX@Z 10020f30 f i CAT.obj
 0001:0001ff50       ?SetWindowLongPtrW@@YAJPAUHWND__@@HJ@Z 10020f50 f i CAT.obj
 0001:0001ff80       ?ShowWindow@CWindow@ATL@@QAEHH@Z 10020f80 f i CAT.obj
 0001:00020000       ?Skip@?$CComEnumImpl@UIEnumConnectionPoints@@$1?_GUID_b196b285_bab4_101a_b69c_00aa00341d07@@3U__s_GUID@@BPAUIConnectionPoint@@V?$_CopyInterface@UIConnectionPoint@@@ATL@@@ATL@@UAGJK@Z 10021000 f i CAT.obj
 0001:00020080       ?Skip@?$CComEnumImpl@UIEnumConnections@@$1?_GUID_b196b287_bab4_101a_b69c_00aa00341d07@@3U__s_GUID@@BUtagCONNECTDATA@@V?$_Copy@UtagCONNECTDATA@@@ATL@@@ATL@@UAGJK@Z 10021080 f i CAT.obj
 0001:00020100       ?SkipAssignment@CRegParser@ATL@@IAEJPA_W@Z 10021100 f i CAT.obj
 0001:000201e0       ?SkipWhiteSpace@CRegParser@ATL@@IAEXXZ 100211e0 f i CAT.obj
 0001:00020230       ?StartWindowProc@?$CWindowImplBaseT@VCWindow@ATL@@V?$CWinTraits@$0FGAAAAAA@$0A@@2@@ATL@@SGJPAUHWND__@@IIJ@Z 10021230 f i CAT.obj
 0001:00020350       ?StrChrW@CRegParser@ATL@@KAPA_WPA_W_W@Z 10021350 f i CAT.obj
 0001:000203c0       ?StrFromMap@CRegObject@ATL@@QAEPB_WPA_W@Z 100213c0 f i CAT.obj
 0001:00020450       ?Swap@?$CComPtrBase@UIAdviseSink@@@ATL@@IAEXAAV12@@Z 10021450 f i CAT.obj
 0001:00020490       ?Swap@?$CComPtrBase@UIOleClientSite@@@ATL@@IAEXAAV12@@Z 10021490 f i CAT.obj
 0001:000204d0       ?Swap@?$CComPtrBase@UIUnknown@@@ATL@@IAEXAAV12@@Z 100214d0 f i CAT.obj
 0001:00020510       ?T2COLE_EX@@YAPB_WPB_WI@Z  10021510 f i CAT.obj
 0001:00020520       ?T2OLE_EX@@YAPA_WPA_WI@Z   10021520 f i CAT.obj
 0001:00020530       ?Term@CAtlModule@ATL@@QAEXXZ 10021530 f i CAT.obj
 0001:000205e0       ?Term@CComModule@ATL@@QAEXXZ 100215e0 f i CAT.obj
 0001:000206d0       ?TranslateAcceleratorW@?$IOleInPlaceActiveObjectImpl@VCOPOSCAT@@@ATL@@UAGJPAUtagMSG@@@Z 100216d0 f i CAT.obj
 0001:000208d0       ?UIDeactivate@?$IOleInPlaceObjectWindowlessImpl@VCOPOSCAT@@@ATL@@UAGJXZ 100218d0 f i CAT.obj
 0001:00020950       ?Unadvise@?$CProxy_IOPOSEvents@VCOPOSCAT@@@@UAGJK@Z 10021950 f i CAT.obj
 0001:00020990       ?Unadvise@?$IConnectionPointImpl@VCOPOSCAT@@$1?DIID__IOPOSCATEvents@@3U_GUID@@BVCComDynamicUnkArray@ATL@@@ATL@@UAGJK@Z 10021990 f i CAT.obj
 0001:00020a60       ?Unadvise@?$IConnectionPointImpl@VCOPOSCAT@@$1?IID_IPropertyNotifySink@@3U_GUID@@BVCComDynamicUnkArray@ATL@@@ATL@@UAGJK@Z 10021a60 f i CAT.obj
 0001:00020b30       ?Unadvise@?$IOleObjectImpl@VCOPOSCAT@@@ATL@@UAGJK@Z 10021b30 f i CAT.obj
 0001:00020c00       ?Unfreeze@?$IViewObjectExImpl@VCOPOSCAT@@@ATL@@UAGJK@Z 10021c00 f i CAT.obj
 0001:00020c70       ?Unlock@?$CComCritSecLock@VCComCriticalSection@ATL@@@ATL@@QAEXXZ 10021c70 f i CAT.obj
 0001:00020ce0       ?Unlock@?$CComObjectRootEx@VCComSingleThreadModel@ATL@@@ATL@@QAEXXZ 10021ce0 f i CAT.obj
 0001:00020d00       ?Unlock@CAtlModule@ATL@@UAEJXZ 10021d00 f i CAT.obj
 0001:00020d30       ?Unlock@CComCriticalSection@ATL@@QAEJXZ 10021d30 f i CAT.obj
 0001:00020d70       ?Unlock@CComFakeCriticalSection@ATL@@QAEJXZ 10021d70 f i CAT.obj
 0001:00020d90       ?UnregisterServer@?$CAtlModuleT@VCComModule@ATL@@@ATL@@QAEJHPBU_GUID@@@Z 10021d90 f i CAT.obj
 0001:00020e00       ?UnregisterServer@CAtlComModule@ATL@@QAEJHPBU_GUID@@@Z 10021e00 f i CAT.obj
 0001:00020e30       ?UnregisterServer@CComModule@ATL@@QAEJHPBU_GUID@@@Z 10021e30 f i CAT.obj
 0001:00020f10       ?Update@?$IOleObjectImpl@VCOPOSCAT@@@ATL@@UAGJXZ 10021f10 f i CAT.obj
 0001:00020f70       ?UpdateRegistryFromResource@CAtlModule@ATL@@QAGJIHPAU_ATL_REGMAP_ENTRY@2@@Z 10021f70 f i CAT.obj
 0001:00021440       ?UpdateRegistryFromResource@CAtlModule@ATL@@QAGJPB_WHPAU_ATL_REGMAP_ENTRY@2@@Z 10022440 f i CAT.obj
 0001:00021930       ?UpdateRegistryFromResource@CComModule@ATL@@UAGJIHPAU_ATL_REGMAP_ENTRY@2@@Z 10022930 f i CAT.obj
 0001:00021960       ?UpdateRegistryFromResource@CComModule@ATL@@UAGJPB_WHPAU_ATL_REGMAP_ENTRY@2@@Z 10022960 f i CAT.obj
 0001:00021990       ?UpdateRegistryFromResourceD@CComModule@ATL@@UAGJIHPAU_ATL_REGMAP_ENTRY@2@@Z 10022990 f i CAT.obj
 0001:000219a0       ?UpdateRegistryFromResourceD@CComModule@ATL@@UAGJPB_WHPAU_ATL_REGMAP_ENTRY@2@@Z 100229a0 f i CAT.obj
 0001:000219b0       ?VTFromRegType@CRegParser@ATL@@KAHPB_WAAG@Z 100229b0 f i CAT.obj
 0001:00021a90       ?WindowProc@?$CWindowImplBaseT@VCWindow@ATL@@V?$CWinTraits@$0FGAAAAAA@$0A@@2@@ATL@@SGJPAUHWND__@@IIJ@Z 10022a90 f i CAT.obj
 0001:00021ca0       ?WriteToStream@CComBSTR@ATL@@QAEJPAUIStream@@@Z 10022ca0 f i CAT.obj
 0001:00021e00       ?WriteToStream@CComVariant@ATL@@QAEJPAUIStream@@@Z 10022e00 f i CAT.obj
 0001:00022140       ?WriteToStream@CComVariant@ATL@@QAEJPAUIStream@@G@Z 10023140 f i CAT.obj
 0001:00022210       ?_AtlFinalConstruct@CComObjectRootBase@ATL@@QAEJXZ 10023210 f i CAT.obj
 0001:00022230       ?_AtlGetConversionACP@ATL@@YGIXZ 10023230 f i CAT.obj
 0001:00022240       ?_AtlInitialConstruct@?$CComAggObject@VCOPOSCAT@@@ATL@@QAEJXZ 10023240 f i CAT.obj
 0001:00022290       ?_AtlInitialConstruct@?$CComObjectRootEx@VCComMultiThreadModel@ATL@@@ATL@@QAEJXZ 10023290 f i CAT.obj
 0001:000222c0       ?_AtlInitialConstruct@?$CComObjectRootEx@VCComSingleThreadModel@ATL@@@ATL@@QAEJXZ 100232c0 f i CAT.obj
 0001:000222e0       ?_AtlVerifyStackAvailable@_ATL_SAFE_ALLOCA_IMPL@ATL@@YA_NK@Z 100232e0 f i CAT.obj
 0001:00022490       ?_GetEntries@?$CComEnum@UIEnumConnectionPoints@@$1?_GUID_b196b285_bab4_101a_b69c_00aa00341d07@@3U__s_GUID@@BPAUIConnectionPoint@@V?$_CopyInterface@UIConnectionPoint@@@ATL@@VCComSingleThreadModel@6@@ATL@@SGPBU_ATL_INTMAP_ENTRY@2@XZ 10023490 f i CAT.obj
 0001:000224b0       ?_GetEntries@?$CComEnum@UIEnumConnections@@$1?_GUID_b196b287_bab4_101a_b69c_00aa00341d07@@3U__s_GUID@@BUtagCONNECTDATA@@V?$_Copy@UtagCONNECTDATA@@@ATL@@VCComSingleThreadModel@6@@ATL@@SGPBU_ATL_INTMAP_ENTRY@2@XZ 100234b0 f i CAT.obj
 0001:000224d0       ?_GetEntries@CComClassFactory@ATL@@SGPBU_ATL_INTMAP_ENTRY@2@XZ 100234d0 f i CAT.obj
 0001:000224f0       ?_GetEntries@COPOSCAT@@SGPBU_ATL_INTMAP_ENTRY@ATL@@XZ 100234f0 f i CAT.obj
 0001:00022510       ?_GetRawUnknown@COPOSCAT@@QAEPAUIUnknown@@XZ 10023510 f i CAT.obj
 0001:00022580       ?_GetViewStatus@COPOSCAT@@QAEKXZ 10023580 f i CAT.obj
 0001:000225a0       ?_InternalQueryInterface@?$CComEnum@UIEnumConnectionPoints@@$1?_GUID_b196b285_bab4_101a_b69c_00aa00341d07@@3U__s_GUID@@BPAUIConnectionPoint@@V?$_CopyInterface@UIConnectionPoint@@@ATL@@VCComSingleThreadModel@6@@ATL@@QAEJABU_GUID@@PAPAX@Z 100235a0 f i CAT.obj
 0001:000225e0       ?_InternalQueryInterface@?$CComEnum@UIEnumConnections@@$1?_GUID_b196b287_bab4_101a_b69c_00aa00341d07@@3U__s_GUID@@BUtagCONNECTDATA@@V?$_Copy@UtagCONNECTDATA@@@ATL@@VCComSingleThreadModel@6@@ATL@@QAEJABU_GUID@@PAPAX@Z 100235e0 f i CAT.obj
 0001:00022620       ?_InternalQueryInterface@CComClassFactory@ATL@@QAEJABU_GUID@@PAPAX@Z 10023620 f i CAT.obj
 0001:00022660       ?_InternalQueryInterface@COPOSCAT@@QAEJABU_GUID@@PAPAX@Z 10023660 f i CAT.obj
 0001:000226a0       ?_LocCPQueryInterface@?$IConnectionPointImpl@VCOPOSCAT@@$1?DIID__IOPOSCATEvents@@3U_GUID@@BVCComDynamicUnkArray@ATL@@@ATL@@UAGJABU_GUID@@PAPAX@Z 100236a0 f i CAT.obj
 0001:00022740       ?_LocCPQueryInterface@?$IConnectionPointImpl@VCOPOSCAT@@$1?IID_IPropertyNotifySink@@3U_GUID@@BVCComDynamicUnkArray@ATL@@@ATL@@UAGJABU_GUID@@PAPAX@Z 10023740 f i CAT.obj
 0001:000227e0       ?atlCreate@?$CWindowImpl@VCOPOSCAT@@VCWindow@ATL@@V?$CWinTraits@$0FGAAAAAA@$0A@@3@@ATL@@QAEPAUHWND__@@PAU3@V_U_RECT@2@PB_WKKV_U_MENUorID@2@PAX@Z 100237e0 f i CAT.obj
 0001:00022890       ?atlCreate@?$CWindowImplBaseT@VCWindow@ATL@@V?$CWinTraits@$0FGAAAAAA@$0A@@2@@ATL@@QAEPAUHWND__@@PAU3@V_U_RECT@2@PB_WKKV_U_MENUorID@2@GPAX@Z 10023890 f i CAT.obj
 0001:00022a10       ?atlCreate@CRegKey@ATL@@QAEJPAUHKEY__@@PB_WPA_WKKPAU_SECURITY_ATTRIBUTES@@PAK@Z 10023a10 f i CAT.obj
 0001:00022b70       ?begin@CComDynamicUnkArray@ATL@@QAEPAPAUIUnknown@@XZ 10023b70 f i CAT.obj
 0001:00022b90       ?copy@?$_Copy@UtagCONNECTDATA@@@ATL@@SAJPAUtagCONNECTDATA@@PBU3@@Z 10023b90 f i CAT.obj
 0001:00022c50       ?copy@?$_CopyInterface@UIConnectionPoint@@@ATL@@SAJPAPAUIConnectionPoint@@PBQAU3@@Z 10023c50 f i CAT.obj
 0001:00022d10       ?destroy@?$_Copy@UtagCONNECTDATA@@@ATL@@SAXPAUtagCONNECTDATA@@@Z 10023d10 f i CAT.obj
 0001:00022d50       ?destroy@?$_CopyInterface@UIConnectionPoint@@@ATL@@SAXPAPAUIConnectionPoint@@@Z 10023d50 f i CAT.obj
 0001:00022d90       ?end@CComDynamicUnkArray@ATL@@QAEPAPAUIUnknown@@XZ 10023d90 f i CAT.obj
 0001:00022db0       ?init@?$_Copy@UtagCONNECTDATA@@@ATL@@SAXPAUtagCONNECTDATA@@@Z 10023db0 f i CAT.obj
 0001:00022dc0       ?init@?$_CopyInterface@UIConnectionPoint@@@ATL@@SAXPAPAUIConnectionPoint@@@Z 10023dc0 f i CAT.obj
 0001:00022dd0       ?memcpy_s@Checked@ATL@@YAXPAXIPBXI@Z 10023dd0 f i CAT.obj
 0001:00022e00       ?ocscpy_s@@YA_NPA_WIPB_W@Z 10023e00 f i CAT.obj
 0001:00022e60       ?ocslen@@YAHPB_W@Z         10023e60 f i CAT.obj
 0001:00022e90       ?tcsncpy_s@Checked@ATL@@YAHPA_WIPB_WI@Z 10023e90 f i CAT.obj
 0001:00022ec0       ?wcscat_s@Checked@ATL@@YAXPA_WIPB_W@Z 10023ec0 f i CAT.obj
 0001:00022ef0       ?wcscpy_s@Checked@ATL@@YAXPA_WIPB_W@Z 10023ef0 f i CAT.obj
 0001:00022f20       ?wcsncpy_s@Checked@ATL@@YAHPA_WIPB_WI@Z 10023f20 f i CAT.obj
 0001:00022f50       ?wcsstr@@YAPA_WPA_WPB_W@Z  10023f50 f i CAT.obj
 0001:00022f70       _InlineIsEqualGUID         10023f70 f i CAT.obj
 0001:00023010       _IsEqualGUID               10024010 f i CAT.obj
 0001:00023060       ??0COPOSCAT@@QAE@XZ        10024060 f   CATImpl.obj
 0001:00023170       ?FinalConstruct@COPOSCAT@@QAEJXZ 10024170 f   CATImpl.obj
 0001:00023240       ??1COPOSCAT@@UAE@XZ        10024240 f   CATImpl.obj
 0001:00023320       ?WriteTrace@COPOSCAT@@QAAXPB_WZZ 10024320 f   CATImpl.obj
 0001:000233d0       ?WriteTraceString@COPOSCAT@@QAEXPB_WPA_W@Z 100243d0 f   CATImpl.obj
 0001:00023740       ?WriteTraceString@COPOSCAT@@QAAXPAXHHHPB_WZZ 10024740 f   CATImpl.obj
 0001:00023970       ?WriteTraceError@COPOSCAT@@QAEXPB_WK@Z 10024970 f   CATImpl.obj
 0001:00023a60       ?WriteTraceMethods@COPOSCAT@@QAEXPAJH@Z 10024a60 f   CATImpl.obj
 0001:00023ad0       ?FormatCurrency@COPOSCAT@@QAEPB_WTtagCY@@@Z 10024ad0 f   CATImpl.obj
 0001:00023bf0       ?GetOposProp@COPOSCAT@@IAEJPBDJPAJJ@Z 10024bf0 f   CATImpl.obj
 0001:00023e60       ?SetOposProp@COPOSCAT@@IAEJPBDJJJ@Z 10024e60 f   CATImpl.obj
 0001:000240f0       ?GetOposProp@COPOSCAT@@IAEJPBDJPAFJ@Z 100250f0 f   CATImpl.obj
 0001:00024190       ?SetOposProp@COPOSCAT@@IAEJPBDJFJ@Z 10025190 f   CATImpl.obj
 0001:000241f0       ?GetOposProp@COPOSCAT@@IAEJPBDJPAPA_WJ@Z 100251f0 f   CATImpl.obj
 0001:00024470       ?SetOposProp@COPOSCAT@@IAEJPBDJPA_WJ@Z 10025470 f   CATImpl.obj
 0001:000247b0       ?DoInvoke@COPOSCAT@@IAEJPBDJPAVOposVariant@@IHPAJ_N@Z 100257b0 f   CATImpl.obj
 0001:000251d0       ?SetCOFreezeEvents@COPOSCAT@@IAEXF@Z 100261d0 f   CATImpl.obj
 0001:00025310       ?FreezeEvents@COPOSCAT@@MAGJH@Z 10026310 f   CATImpl.obj
 0001:000253f0       ?OnDraw@COPOSCAT@@MAEJAAUATL_DRAWINFO@@@Z 100263f0 f   CATImpl.obj
 0001:00025590       ?SOProcessID@COPOSCAT@@UAGJPAJ@Z 10026590 f   CATImpl.obj
 0001:000255d0       ?get_OpenResult@COPOSCAT@@UAGJPAJ@Z 100265d0 f   CATImpl.obj
 0001:00025610       ?get_BinaryConversion@COPOSCAT@@UAGJPAJ@Z 10026610 f   CATImpl.obj
 0001:00025640       ?put_BinaryConversion@COPOSCAT@@UAGJJ@Z 10026640 f   CATImpl.obj
 0001:00025670       ?get_CapPowerReporting@COPOSCAT@@UAGJPAJ@Z 10026670 f   CATImpl.obj
 0001:000256a0       ?get_CheckHealthText@COPOSCAT@@UAGJPAPA_W@Z 100266a0 f   CATImpl.obj
 0001:000256d0       ?get_Claimed@COPOSCAT@@UAGJPAF@Z 100266d0 f   CATImpl.obj
 0001:00025700       ?get_DeviceEnabled@COPOSCAT@@UAGJPAF@Z 10026700 f   CATImpl.obj
 0001:00025730       ?put_DeviceEnabled@COPOSCAT@@UAGJF@Z 10026730 f   CATImpl.obj
 0001:00025760       ?get_FreezeEvents@COPOSCAT@@UAGJPAF@Z 10026760 f   CATImpl.obj
 0001:00025790       ?put_FreezeEvents@COPOSCAT@@UAGJF@Z 10026790 f   CATImpl.obj
 0001:00025820       ?get_OutputID@COPOSCAT@@UAGJPAJ@Z 10026820 f   CATImpl.obj
 0001:00025850       ?get_PowerNotify@COPOSCAT@@UAGJPAJ@Z 10026850 f   CATImpl.obj
 0001:00025880       ?put_PowerNotify@COPOSCAT@@UAGJJ@Z 10026880 f   CATImpl.obj
 0001:000258b0       ?get_PowerState@COPOSCAT@@UAGJPAJ@Z 100268b0 f   CATImpl.obj
 0001:000258e0       ?get_ResultCode@COPOSCAT@@UAGJPAJ@Z 100268e0 f   CATImpl.obj
 0001:00025970       ?get_ResultCodeExtended@COPOSCAT@@UAGJPAJ@Z 10026970 f   CATImpl.obj
 0001:000259a0       ?get_State@COPOSCAT@@UAGJPAJ@Z 100269a0 f   CATImpl.obj
 0001:000259f0       ?get_ControlObjectDescription@COPOSCAT@@UAGJPAPA_W@Z 100269f0 f   CATImpl.obj
 0001:00025a70       ?get_ControlObjectVersion@COPOSCAT@@UAGJPAJ@Z 10026a70 f   CATImpl.obj
 0001:00025ab0       ?get_ServiceObjectDescription@COPOSCAT@@UAGJPAPA_W@Z 10026ab0 f   CATImpl.obj
 0001:00025ae0       ?get_ServiceObjectVersion@COPOSCAT@@UAGJPAJ@Z 10026ae0 f   CATImpl.obj
 0001:00025b10       ?get_DeviceDescription@COPOSCAT@@UAGJPAPA_W@Z 10026b10 f   CATImpl.obj
 0001:00025b40       ?get_DeviceName@COPOSCAT@@UAGJPAPA_W@Z 10026b40 f   CATImpl.obj
 0001:00025b70       ?CheckHealth@COPOSCAT@@UAGJJPAJ@Z 10026b70 f   CATImpl.obj
 0001:00025c10       ?ClaimDevice@COPOSCAT@@UAGJJPAJ@Z 10026c10 f   CATImpl.obj
 0001:00025cf0       ?ClearOutput@COPOSCAT@@UAGJPAJ@Z 10026cf0 f   CATImpl.obj
 0001:00025d20       ?Close@COPOSCAT@@UAGJPAJ@Z 10026d20 f   CATImpl.obj
 0001:00025df0       ?DirectIO@COPOSCAT@@UAGJJPAJPAPA_W0@Z 10026df0 f   CATImpl.obj
 0001:00025f00       ?Open@COPOSCAT@@UAGJPA_WPAJ@Z 10026f00 f   CATImpl.obj
 0001:000270f0       ?ReleaseDevice@COPOSCAT@@UAGJPAJ@Z 100280f0 f   CATImpl.obj
 0001:00027160       ?get_AccountNumber@COPOSCAT@@UAGJPAPA_W@Z 10028160 f   CATImpl.obj
 0001:00027190       ?get_AdditionalSecurityInformation@COPOSCAT@@UAGJPAPA_W@Z 10028190 f   CATImpl.obj
 0001:000271c0       ?put_AdditionalSecurityInformation@COPOSCAT@@UAGJPA_W@Z 100281c0 f   CATImpl.obj
 0001:000271f0       ?get_ApprovalCode@COPOSCAT@@UAGJPAPA_W@Z 100281f0 f   CATImpl.obj
 0001:00027220       ?get_AsyncMode@COPOSCAT@@UAGJPAF@Z 10028220 f   CATImpl.obj
 0001:00027250       ?put_AsyncMode@COPOSCAT@@UAGJF@Z 10028250 f   CATImpl.obj
 0001:00027280       ?get_CapAdditionalSecurityInformation@COPOSCAT@@UAGJPAF@Z 10028280 f   CATImpl.obj
 0001:000272b0       ?get_CapAuthorizeCompletion@COPOSCAT@@UAGJPAF@Z 100282b0 f   CATImpl.obj
 0001:000272e0       ?get_CapAuthorizePreSales@COPOSCAT@@UAGJPAF@Z 100282e0 f   CATImpl.obj
 0001:00027310       ?get_CapAuthorizeRefund@COPOSCAT@@UAGJPAF@Z 10028310 f   CATImpl.obj
 0001:00027340       ?get_CapAuthorizeVoid@COPOSCAT@@UAGJPAF@Z 10028340 f   CATImpl.obj
 0001:00027370       ?get_CapAuthorizeVoidPreSales@COPOSCAT@@UAGJPAF@Z 10028370 f   CATImpl.obj
 0001:000273a0       ?get_CapCenterResultCode@COPOSCAT@@UAGJPAF@Z 100283a0 f   CATImpl.obj
 0001:000273d0       ?get_CapCheckCard@COPOSCAT@@UAGJPAF@Z 100283d0 f   CATImpl.obj
 0001:00027400       ?get_CapDailyLog@COPOSCAT@@UAGJPAJ@Z 10028400 f   CATImpl.obj
 0001:00027430       ?get_CapInstallments@COPOSCAT@@UAGJPAF@Z 10028430 f   CATImpl.obj
 0001:00027460       ?get_CapPaymentDetail@COPOSCAT@@UAGJPAF@Z 10028460 f   CATImpl.obj
 0001:00027490       ?get_CapTaxOthers@COPOSCAT@@UAGJPAF@Z 10028490 f   CATImpl.obj
 0001:000274c0       ?get_CapTrainingMode@COPOSCAT@@UAGJPAF@Z 100284c0 f   CATImpl.obj
 0001:000274f0       ?get_CapTransactionNumber@COPOSCAT@@UAGJPAF@Z 100284f0 f   CATImpl.obj
 0001:00027520       ?get_CardCompanyID@COPOSCAT@@UAGJPAPA_W@Z 10028520 f   CATImpl.obj
 0001:00027550       ?get_CenterResultCode@COPOSCAT@@UAGJPAPA_W@Z 10028550 f   CATImpl.obj
 0001:00027580       ?get_DailyLog@COPOSCAT@@UAGJPAPA_W@Z 10028580 f   CATImpl.obj
 0001:000275b0       ?get_PaymentCondition@COPOSCAT@@UAGJPAJ@Z 100285b0 f   CATImpl.obj
 0001:000275e0       ?get_PaymentDetail@COPOSCAT@@UAGJPAPA_W@Z 100285e0 f   CATImpl.obj
 0001:00027610       ?get_SequenceNumber@COPOSCAT@@UAGJPAJ@Z 10028610 f   CATImpl.obj
 0001:00027640       ?get_SlipNumber@COPOSCAT@@UAGJPAPA_W@Z 10028640 f   CATImpl.obj
 0001:00027670       ?get_TrainingMode@COPOSCAT@@UAGJPAF@Z 10028670 f   CATImpl.obj
 0001:000276a0       ?put_TrainingMode@COPOSCAT@@UAGJF@Z 100286a0 f   CATImpl.obj
 0001:000276d0       ?get_TransactionNumber@COPOSCAT@@UAGJPAPA_W@Z 100286d0 f   CATImpl.obj
 0001:00027700       ?get_TransactionType@COPOSCAT@@UAGJPAJ@Z 10028700 f   CATImpl.obj
 0001:00027730       ?AccessDailyLog@COPOSCAT@@UAGJJJJPAJ@Z 10028730 f   CATImpl.obj
 0001:00027820       ?AuthorizeCompletion@COPOSCAT@@UAGJJTtagCY@@0JPAJ@Z 10028820 f   CATImpl.obj
 0001:00027930       ?AuthorizePreSales@COPOSCAT@@UAGJJTtagCY@@0JPAJ@Z 10028930 f   CATImpl.obj
 0001:00027a40       ?AuthorizeRefund@COPOSCAT@@UAGJJTtagCY@@0JPAJ@Z 10028a40 f   CATImpl.obj
 0001:00027b50       ?AuthorizeSales@COPOSCAT@@UAGJJTtagCY@@0JPAJ@Z 10028b50 f   CATImpl.obj
 0001:00027c60       ?AuthorizeVoid@COPOSCAT@@UAGJJTtagCY@@0JPAJ@Z 10028c60 f   CATImpl.obj
 0001:00027d70       ?AuthorizeVoidPreSales@COPOSCAT@@UAGJJTtagCY@@0JPAJ@Z 10028d70 f   CATImpl.obj
 0001:00027e80       ?CheckCard@COPOSCAT@@UAGJJJPAJ@Z 10028e80 f   CATImpl.obj
 0001:00027f50       ?get_PaymentMedia@COPOSCAT@@UAGJPAJ@Z 10028f50 f   CATImpl.obj
 0001:00027f80       ?put_PaymentMedia@COPOSCAT@@UAGJJ@Z 10028f80 f   CATImpl.obj
 0001:00027fb0       ?get_CapStatisticsReporting@COPOSCAT@@UAGJPAF@Z 10028fb0 f   CATImpl.obj
 0001:00027fe0       ?get_CapUpdateStatistics@COPOSCAT@@UAGJPAF@Z 10028fe0 f   CATImpl.obj
 0001:00028010       ?ResetStatistics@COPOSCAT@@UAGJPA_WPAJ@Z 10029010 f   CATImpl.obj
 0001:000280c0       ?RetrieveStatistics@COPOSCAT@@UAGJPAPA_WPAJ@Z 100290c0 f   CATImpl.obj
 0001:00028170       ?UpdateStatistics@COPOSCAT@@UAGJPA_WPAJ@Z 10029170 f   CATImpl.obj
 0001:00028220       ?get_CapCompareFirmwareVersion@COPOSCAT@@UAGJPAF@Z 10029220 f   CATImpl.obj
 0001:00028250       ?get_CapUpdateFirmware@COPOSCAT@@UAGJPAF@Z 10029250 f   CATImpl.obj
 0001:00028280       ?CompareFirmwareVersion@COPOSCAT@@UAGJPA_WPAJ1@Z 10029280 f   CATImpl.obj
 0001:00028370       ?UpdateFirmware@COPOSCAT@@UAGJPA_WPAJ@Z 10029370 f   CATImpl.obj
 0001:00028420       ?get_Balance@COPOSCAT@@UAGJPATtagCY@@@Z 10029420 f   CATImpl.obj
 0001:00028630       ?get_CapCashDeposit@COPOSCAT@@UAGJPAF@Z 10029630 f   CATImpl.obj
 0001:00028660       ?get_CapLockTerminal@COPOSCAT@@UAGJPAF@Z 10029660 f   CATImpl.obj
 0001:00028690       ?get_CapLogStatus@COPOSCAT@@UAGJPAF@Z 10029690 f   CATImpl.obj
 0001:000286c0       ?get_CapUnlockTerminal@COPOSCAT@@UAGJPAF@Z 100296c0 f   CATImpl.obj
 0001:000286f0       ?get_LogStatus@COPOSCAT@@UAGJPAJ@Z 100296f0 f   CATImpl.obj
 0001:00028720       ?get_SettledAmount@COPOSCAT@@UAGJPATtagCY@@@Z 10029720 f   CATImpl.obj
 0001:00028930       ?CashDeposit@COPOSCAT@@UAGJJTtagCY@@JPAJ@Z 10029930 f   CATImpl.obj
 0001:00028a30       ?LockTerminal@COPOSCAT@@UAGJPAJ@Z 10029a30 f   CATImpl.obj
 0001:00028a60       ?UnlockTerminal@COPOSCAT@@UAGJPAJ@Z 10029a60 f   CATImpl.obj
 0001:00028a90       ??0?$CComControl@VCOPOSCAT@@V?$CWindowImpl@VCOPOSCAT@@VCWindow@ATL@@V?$CWinTraits@$0FGAAAAAA@$0A@@3@@ATL@@@ATL@@QAE@XZ 10029a90 f i CATImpl.obj
 0001:00028ad0       ??0?$CComPtr@UIAdviseSink@@@ATL@@QAE@XZ 10029ad0 f i CATImpl.obj
 0001:00028b00       ??0?$CComPtr@UIDataAdviseHolder@@@ATL@@QAE@XZ 10029b00 f i CATImpl.obj
 0001:00028b30       ??0?$CComPtr@UIOleAdviseHolder@@@ATL@@QAE@XZ 10029b30 f i CATImpl.obj
 0001:00028b60       ??0?$CComPtr@UIOleClientSite@@@ATL@@QAE@XZ 10029b60 f i CATImpl.obj
 0001:00028b90       ??0?$CComPtr@UIOleInPlaceSiteWindowless@@@ATL@@QAE@XZ 10029b90 f i CATImpl.obj
 0001:00028bc0       ??0?$CComPtrBase@UIAdviseSink@@@ATL@@IAE@XZ 10029bc0 f i CATImpl.obj
 0001:00028be0       ??0?$CComPtrBase@UIDataAdviseHolder@@@ATL@@IAE@XZ 10029be0 f i CATImpl.obj
 0001:00028c00       ??0?$CComPtrBase@UIOleAdviseHolder@@@ATL@@IAE@XZ 10029c00 f i CATImpl.obj
 0001:00028c20       ??0?$CComPtrBase@UIOleClientSite@@@ATL@@IAE@XZ 10029c20 f i CATImpl.obj
 0001:00028c40       ??0?$CComPtrBase@UIOleInPlaceSiteWindowless@@@ATL@@IAE@XZ 10029c40 f i CATImpl.obj
 0001:00028c60       ??0?$CComQIPtr@UIDispatch@@$1?_GUID_00020400_0000_0000_c000_000000000046@@3U__s_GUID@@B@ATL@@QAE@XZ 10029c60 f i CATImpl.obj
 0001:00028c90       ??0?$CProxy_IOPOSEvents@VCOPOSCAT@@@@QAE@PAVCOPOSCAT@@@Z 10029c90 f i CATImpl.obj
 0001:00028d00       ??0?$CWindowImpl@VCOPOSCAT@@VCWindow@ATL@@V?$CWinTraits@$0FGAAAAAA@$0A@@3@@ATL@@QAE@XZ 10029d00 f i CATImpl.obj
 0001:00028d30       ??0?$CWindowImplBaseT@VCWindow@ATL@@V?$CWinTraits@$0FGAAAAAA@$0A@@2@@ATL@@QAE@XZ 10029d30 f i CATImpl.obj
 0001:00028d70       ??0?$CWindowImplRoot@VCWindow@ATL@@@ATL@@QAE@XZ 10029d70 f i CATImpl.obj
 0001:00028dd0       ??0?$IConnectionPointContainerImpl@VCOPOSCAT@@@ATL@@QAE@XZ 10029dd0 f i CATImpl.obj
 0001:00028e00       ??0?$IConnectionPointImpl@VCOPOSCAT@@$1?DIID__IOPOSCATEvents@@3U_GUID@@BVCComDynamicUnkArray@ATL@@@ATL@@QAE@XZ 10029e00 f i CATImpl.obj
 0001:00028e40       ??0?$IConnectionPointImpl@VCOPOSCAT@@$1?IID_IPropertyNotifySink@@3U_GUID@@BVCComDynamicUnkArray@ATL@@@ATL@@QAE@XZ 10029e40 f i CATImpl.obj
 0001:00028e80       ??0?$IDataObjectImpl@VCOPOSCAT@@@ATL@@QAE@XZ 10029e80 f i CATImpl.obj
 0001:00028eb0       ??0?$IDispatchImpl@UIOPOSCAT@@$1?IID_IOPOSCAT@@3U_GUID@@B$1?LIBID_OposCAT_CCO@@3U3@B$00$0A@VCComTypeInfoHolder@ATL@@@ATL@@QAE@XZ 10029eb0 f i CATImpl.obj
 0001:00028ee0       ??0?$IObjectSafetyImpl@VCOPOSCAT@@$02@ATL@@QAE@XZ 10029ee0 f i CATImpl.obj
 0001:00028f20       ??0?$IOleControlImpl@VCOPOSCAT@@@ATL@@QAE@XZ 10029f20 f i CATImpl.obj
 0001:00028f50       ??0?$IOleInPlaceActiveObjectImpl@VCOPOSCAT@@@ATL@@QAE@XZ 10029f50 f i CATImpl.obj
 0001:00028f80       ??0?$IOleInPlaceObjectWindowlessImpl@VCOPOSCAT@@@ATL@@QAE@XZ 10029f80 f i CATImpl.obj
 0001:00028fb0       ??0?$IOleObjectImpl@VCOPOSCAT@@@ATL@@QAE@XZ 10029fb0 f i CATImpl.obj
 0001:00028fe0       ??0?$IPersistStorageImpl@VCOPOSCAT@@@ATL@@QAE@XZ 10029fe0 f i CATImpl.obj
 0001:00029010       ??0?$IPersistStreamInitImpl@VCOPOSCAT@@@ATL@@QAE@XZ 1002a010 f i CATImpl.obj
 0001:00029040       ??0?$IPropertyNotifySinkCP@VCOPOSCAT@@VCComDynamicUnkArray@ATL@@@ATL@@QAE@XZ 1002a040 f i CATImpl.obj
 0001:00029070       ??0?$IProvideClassInfo2Impl@$1?CLSID_OPOSCAT@@3U_GUID@@B$1?DIID__IOPOSCATEvents@@3U2@B$1?LIBID_OposCAT_CCO@@3U2@B$00$0A@VCComTypeInfoHolder@ATL@@@ATL@@QAE@XZ 1002a070 f i CATImpl.obj
 0001:000290a0       ??0?$IQuickActivateImpl@VCOPOSCAT@@@ATL@@QAE@XZ 1002a0a0 f i CATImpl.obj
 0001:000290d0       ??0?$ISpecifyPropertyPagesImpl@VCOPOSCAT@@@ATL@@QAE@XZ 1002a0d0 f i CATImpl.obj
 0001:00029100       ??0?$IViewObjectExImpl@VCOPOSCAT@@@ATL@@QAE@XZ 1002a100 f i CATImpl.obj
 0001:00029130       ??0?$_ICPLocator@$1?DIID__IOPOSCATEvents@@3U_GUID@@B@ATL@@QAE@XZ 1002a130 f i CATImpl.obj
 0001:00029150       ??0?$_ICPLocator@$1?IID_IPropertyNotifySink@@3U_GUID@@B@ATL@@QAE@XZ 1002a150 f i CATImpl.obj
 0001:00029170       ??0CComControlBase@ATL@@QAE@AAPAUHWND__@@@Z 1002a170 f i CATImpl.obj
 0001:00029320       ??0CComDynamicUnkArray@ATL@@QAE@XZ 1002a320 f i CATImpl.obj
 0001:00029350       ??0CDynamicStdCallThunk2@ATL@@QAE@XZ 1002a350 f i CATImpl.obj
 0001:00029370       ??0CMessageMap@ATL@@QAE@XZ 1002a370 f i CATImpl.obj
 0001:00029390       ??0CWindow@ATL@@QAE@PAUHWND__@@@Z 1002a390 f i CATImpl.obj
 0001:000293b0       ??0CWndProcThunk@ATL@@QAE@XZ 1002a3b0 f i CATImpl.obj
 0001:000293e0       ??0IConnectionPointContainer@@QAE@XZ 1002a3e0 f i CATImpl.obj
 0001:00029410       ??0IDataObject@@QAE@XZ     1002a410 f i CATImpl.obj
 0001:00029440       ??0IDispatch@@QAE@XZ       1002a440 f i CATImpl.obj
 0001:00029470       ??0IOPOSCAT@@QAE@XZ        1002a470 f i CATImpl.obj
 0001:000294a0       ??0IOPOSCAT_1_5@@QAE@XZ    1002a4a0 f i CATImpl.obj
 0001:000294d0       ??0IOPOSCAT_1_8@@QAE@XZ    1002a4d0 f i CATImpl.obj
 0001:00029500       ??0IOPOSCAT_1_9@@QAE@XZ    1002a500 f i CATImpl.obj
 0001:00029530       ??0IObjectSafety@@QAE@XZ   1002a530 f i CATImpl.obj
 0001:00029560       ??0IOleControl@@QAE@XZ     1002a560 f i CATImpl.obj
 0001:00029590       ??0IOleInPlaceActiveObject@@QAE@XZ 1002a590 f i CATImpl.obj
 0001:000295c0       ??0IOleInPlaceObject@@QAE@XZ 1002a5c0 f i CATImpl.obj
 0001:000295f0       ??0IOleInPlaceObjectWindowless@@QAE@XZ 1002a5f0 f i CATImpl.obj
 0001:00029620       ??0IOleObject@@QAE@XZ      1002a620 f i CATImpl.obj
 0001:00029650       ??0IOleWindow@@QAE@XZ      1002a650 f i CATImpl.obj
 0001:00029680       ??0IPersist@@QAE@XZ        1002a680 f i CATImpl.obj
 0001:000296b0       ??0IPersistStorage@@QAE@XZ 1002a6b0 f i CATImpl.obj
 0001:000296e0       ??0IPersistStreamInit@@QAE@XZ 1002a6e0 f i CATImpl.obj
 0001:00029710       ??0IProvideClassInfo2@@QAE@XZ 1002a710 f i CATImpl.obj
 0001:00029740       ??0IProvideClassInfo@@QAE@XZ 1002a740 f i CATImpl.obj
 0001:00029770       ??0IQuickActivate@@QAE@XZ  1002a770 f i CATImpl.obj
 0001:000297a0       ??0ISpecifyPropertyPages@@QAE@XZ 1002a7a0 f i CATImpl.obj
 0001:000297d0       ??0IViewObject2@@QAE@XZ    1002a7d0 f i CATImpl.obj
 0001:00029800       ??0IViewObject@@QAE@XZ     1002a800 f i CATImpl.obj
 0001:00029830       ??0IViewObjectEx@@QAE@XZ   1002a830 f i CATImpl.obj
 0001:00029860       ??0OposVariantResult@@QAE@XZ 1002a860 f i CATImpl.obj
 0001:00029890       ??0_CW@@QAE@PBD@Z          1002a890 f i CATImpl.obj
 0001:000298d0       ??0_CW@@QAE@PB_W@Z         1002a8d0 f i CATImpl.obj
 0001:00029910       ??0_CWNCC@@QAE@PBD@Z       1002a910 f i CATImpl.obj
 0001:00029940       ??1?$CComControl@VCOPOSCAT@@V?$CWindowImpl@VCOPOSCAT@@VCWindow@ATL@@V?$CWinTraits@$0FGAAAAAA@$0A@@3@@ATL@@@ATL@@UAE@XZ 1002a940 f i CATImpl.obj
 0001:00029970       ??1?$CComPtr@UIDataAdviseHolder@@@ATL@@QAE@XZ 1002a970 f i CATImpl.obj
 0001:000299a0       ??1?$CComPtr@UIOleAdviseHolder@@@ATL@@QAE@XZ 1002a9a0 f i CATImpl.obj
 0001:000299d0       ??1?$CComPtr@UIOleInPlaceSiteWindowless@@@ATL@@QAE@XZ 1002a9d0 f i CATImpl.obj
 0001:00029a00       ??1?$CComPtrBase@UIDataAdviseHolder@@@ATL@@QAE@XZ 1002aa00 f i CATImpl.obj
 0001:00029a50       ??1?$CComPtrBase@UIOleAdviseHolder@@@ATL@@QAE@XZ 1002aa50 f i CATImpl.obj
 0001:00029aa0       ??1?$CComPtrBase@UIOleInPlaceSiteWindowless@@@ATL@@QAE@XZ 1002aaa0 f i CATImpl.obj
 0001:00029af0       ??1?$CComQIPtr@UIDispatch@@$1?_GUID_00020400_0000_0000_c000_000000000046@@3U__s_GUID@@B@ATL@@QAE@XZ 1002aaf0 f i CATImpl.obj
 0001:00029b20       ??1?$CProxy_IOPOSEvents@VCOPOSCAT@@@@QAE@XZ 1002ab20 f i CATImpl.obj
 0001:00029b50       ??1?$CWindowImpl@VCOPOSCAT@@VCWindow@ATL@@V?$CWinTraits@$0FGAAAAAA@$0A@@3@@ATL@@UAE@XZ 1002ab50 f i CATImpl.obj
 0001:00029b80       ??1?$CWindowImplBaseT@VCWindow@ATL@@V?$CWinTraits@$0FGAAAAAA@$0A@@2@@ATL@@UAE@XZ 1002ab80 f i CATImpl.obj
 0001:00029bb0       ??1?$CWindowImplRoot@VCWindow@ATL@@@ATL@@UAE@XZ 1002abb0 f i CATImpl.obj
 0001:00029c50       ??1?$IConnectionPointImpl@VCOPOSCAT@@$1?DIID__IOPOSCATEvents@@3U_GUID@@BVCComDynamicUnkArray@ATL@@@ATL@@QAE@XZ 1002ac50 f i CATImpl.obj
 0001:00029cd0       ??1?$IConnectionPointImpl@VCOPOSCAT@@$1?IID_IPropertyNotifySink@@3U_GUID@@BVCComDynamicUnkArray@ATL@@@ATL@@QAE@XZ 1002acd0 f i CATImpl.obj
 0001:00029d50       ??1?$IPropertyNotifySinkCP@VCOPOSCAT@@VCComDynamicUnkArray@ATL@@@ATL@@QAE@XZ 1002ad50 f i CATImpl.obj
 0001:00029d80       ??1CComControlBase@ATL@@UAE@XZ 1002ad80 f i CATImpl.obj
 0001:00029e40       ??1CComDynamicUnkArray@ATL@@QAE@XZ 1002ae40 f i CATImpl.obj
 0001:00029e80       ??1CDynamicStdCallThunk2@ATL@@QAE@XZ 1002ae80 f i CATImpl.obj
 0001:00029eb0       ??1CWndProcThunk@ATL@@QAE@XZ 1002aeb0 f i CATImpl.obj
 0001:00029ee0       ??1OposVariantResult@@QAE@XZ 1002aee0 f i CATImpl.obj
 0001:00029f10       ??1_CW@@QAE@XZ             1002af10 f i CATImpl.obj
 0001:00029f80       ??1_CWNCC@@QAE@XZ          1002af80 f i CATImpl.obj
 0001:00029fb0       ??B_CW@@QAEPB_WXZ          1002afb0 f i CATImpl.obj
 0001:00029ff0       ??B_CWNCC@@QAEPA_WXZ       1002aff0 f i CATImpl.obj
 0001:0002a020       ??_EOposVariant@@QAEPAXI@Z 1002b020 f i CATImpl.obj
 0001:0002a0b0       ?EventClaim@COPOSCAT@@IAEXXZ 1002b0b0 f i CATImpl.obj
 0001:0002a0f0       ?EventClose@COPOSCAT@@IAEXXZ 1002b0f0 f i CATImpl.obj
 0001:0002a190       ?EventInit@COPOSCAT@@IAEJXZ 1002b190 f i CATImpl.obj
 0001:0002a3c0       ?EventOpen@COPOSCAT@@IAEXXZ 1002b3c0 f i CATImpl.obj
 0001:0002a400       ?EventPreCloseRelease@COPOSCAT@@IAEXXZ 1002b400 f i CATImpl.obj
 0001:0002a480       ?EventUninit@COPOSCAT@@IAEXXZ 1002b480 f i CATImpl.obj
 0001:0002a5b0       ?EventWindowProc@COPOSCAT@@IAGJIIJ@Z 1002b5b0 f i CATImpl.obj
 0001:0002a730       ?FireEventCleanup@COPOSCAT@@IAEXXZ 1002b730 f i CATImpl.obj
 0001:0002a780       ?FireEventSetup@COPOSCAT@@IAE_NXZ 1002b780 f i CATImpl.obj
 0001:0002a7f0       ?GetModuleInstance@CComModule@ATL@@QAEPAUHINSTANCE__@@XZ 1002b7f0 f i CATImpl.obj
 0001:0002a810       ?SetRC@COPOSCAT@@IAEJJ@Z   1002b810 f i CATImpl.obj
 0001:0002a840       ?s_EventWindowProc@COPOSCAT@@KGJPAUHWND__@@IIJ@Z 1002b840 f i CATImpl.obj
 0001:0002a8e0       __snwprintf                1002b8e0 f i CATImpl.obj
 0001:0002a940       __vfwprintf_l              1002b940 f i CATImpl.obj
 0001:0002a970       __vsnwprintf               1002b970 f i CATImpl.obj
 0001:0002a9a0       __vsnwprintf_l             1002b9a0 f i CATImpl.obj
 0001:0002aa10       _vfwprintf                 1002ba10 f i CATImpl.obj
 0001:0002aa32       _DebugBreak@0              1002ba32 f   kernel32:KERNEL32.dll
 0001:0002aa38       _Sleep@4                   1002ba38 f   kernel32:KERNEL32.dll
 0001:0002aa3e       _GetCurrentProcess@0       1002ba3e f   kernel32:KERNEL32.dll
 0001:0002aa44       _TerminateProcess@8        1002ba44 f   kernel32:KERNEL32.dll
 0001:0002aa4a       _MultiByteToWideChar@24    1002ba4a f   kernel32:KERNEL32.dll
 0001:0002aa50       _WideCharToMultiByte@32    1002ba50 f   kernel32:KERNEL32.dll
 0001:0002aa56       _DecodePointer@4           1002ba56 f   kernel32:KERNEL32.dll
 0001:0002aa5c       _RaiseException@16         1002ba5c f   kernel32:KERNEL32.dll
 0001:0002aa62       _GetLastError@0            1002ba62 f   kernel32:KERNEL32.dll
 0001:0002aa68       _SetLastError@4            1002ba68 f   kernel32:KERNEL32.dll
 0001:0002aa6e       _InitializeCriticalSectionEx@12 1002ba6e f   kernel32:KERNEL32.dll
 0001:0002aa74       _DeleteCriticalSection@4   1002ba74 f   kernel32:KERNEL32.dll
 0001:0002aa7a       _EncodePointer@4           1002ba7a f   kernel32:KERNEL32.dll
 0001:0002aa80       _EnterCriticalSection@4    1002ba80 f   kernel32:KERNEL32.dll
 0001:0002aa86       _LeaveCriticalSection@4    1002ba86 f   kernel32:KERNEL32.dll
 0001:0002aa8c       _ResetEvent@4              1002ba8c f   kernel32:KERNEL32.dll
 0001:0002aa92       _ReleaseMutex@4            1002ba92 f   kernel32:KERNEL32.dll
 0001:0002aa98       _WaitForSingleObject@8     1002ba98 f   kernel32:KERNEL32.dll
 0001:0002aa9e       _GetCurrentThreadId@0      1002ba9e f   kernel32:KERNEL32.dll
 0001:0002aaa4       _DisableThreadLibraryCalls@4 1002baa4 f   kernel32:KERNEL32.dll
 0001:0002aaaa       _FreeLibrary@4             1002baaa f   kernel32:KERNEL32.dll
 0001:0002aab0       _GetModuleFileNameW@12     1002bab0 f   kernel32:KERNEL32.dll
 0001:0002aab6       _GetModuleHandleW@4        1002bab6 f   kernel32:KERNEL32.dll
 0001:0002aabc       _GetProcAddress@8          1002babc f   kernel32:KERNEL32.dll
 0001:0002aac2       _LoadLibraryExW@12         1002bac2 f   kernel32:KERNEL32.dll
 0001:0002aac8       _LoadResource@8            1002bac8 f   kernel32:KERNEL32.dll
 0001:0002aace       _SizeofResource@8          1002bace f   kernel32:KERNEL32.dll
 0001:0002aad4       _GlobalAlloc@8             1002bad4 f   kernel32:KERNEL32.dll
 0001:0002aada       _GlobalLock@4              1002bada f   kernel32:KERNEL32.dll
 0001:0002aae0       _GlobalUnlock@4            1002bae0 f   kernel32:KERNEL32.dll
 0001:0002aae6       _MulDiv@12                 1002bae6 f   kernel32:KERNEL32.dll
 0001:0002aaec       _lstrcmpiW@8               1002baec f   kernel32:KERNEL32.dll
 0001:0002aaf2       _FindResourceW@12          1002baf2 f   kernel32:KERNEL32.dll
 0001:0002aaf8       _DeleteFileW@4             1002baf8 f   kernel32:KERNEL32.dll
 0001:0002aafe       _CloseHandle@4             1002bafe f   kernel32:KERNEL32.dll
 0001:0002ab04       _SetEvent@4                1002bb04 f   kernel32:KERNEL32.dll
 0001:0002ab0a       _CreateMutexW@12           1002bb0a f   kernel32:KERNEL32.dll
 0001:0002ab10       _CreateEventW@16           1002bb10 f   kernel32:KERNEL32.dll
 0001:0002ab16       _GetCurrentProcessId@0     1002bb16 f   kernel32:KERNEL32.dll
 0001:0002ab1c       _LocalFree@4               1002bb1c f   kernel32:KERNEL32.dll
 0001:0002ab22       _FormatMessageW@28         1002bb22 f   kernel32:KERNEL32.dll
 0001:0002ab28       _GetActiveWindow@0         1002bb28 f   user32:USER32.dll
 0001:0002ab2e       _MessageBoxW@16            1002bb2e f   user32:USER32.dll
 0001:0002ab34       _UnregisterClassW@8        1002bb34 f   user32:USER32.dll
 0001:0002ab3a       _PostMessageW@16           1002bb3a f   user32:USER32.dll
 0001:0002ab40       _DefWindowProcW@16         1002bb40 f   user32:USER32.dll
 0001:0002ab46       _CallWindowProcW@20        1002bb46 f   user32:USER32.dll
 0001:0002ab4c       _RegisterClassExW@4        1002bb4c f   user32:USER32.dll
 0001:0002ab52       _GetClassInfoExW@12        1002bb52 f   user32:USER32.dll
 0001:0002ab58       _CreateWindowExW@48        1002bb58 f   user32:USER32.dll
 0001:0002ab5e       _IsWindow@4                1002bb5e f   user32:USER32.dll
 0001:0002ab64       _IsChild@8                 1002bb64 f   user32:USER32.dll
 0001:0002ab6a       _DestroyWindow@4           1002bb6a f   user32:USER32.dll
 0001:0002ab70       _ShowWindow@8              1002bb70 f   user32:USER32.dll
 0001:0002ab76       _SetWindowPos@28           1002bb76 f   user32:USER32.dll
 0001:0002ab7c       _CharNextW@4               1002bb7c f   user32:USER32.dll
 0001:0002ab82       _SetFocus@4                1002bb82 f   user32:USER32.dll
 0001:0002ab88       _GetFocus@0                1002bb88 f   user32:USER32.dll
 0001:0002ab8e       _GetKeyState@4             1002bb8e f   user32:USER32.dll
 0001:0002ab94       _GetDC@4                   1002bb94 f   user32:USER32.dll
 0001:0002ab9a       _ReleaseDC@8               1002bb9a f   user32:USER32.dll
 0001:0002aba0       _BeginPaint@8              1002bba0 f   user32:USER32.dll
 0001:0002aba6       _EndPaint@8                1002bba6 f   user32:USER32.dll
 0001:0002abac       _SetWindowRgn@12           1002bbac f   user32:USER32.dll
 0001:0002abb2       _InvalidateRect@12         1002bbb2 f   user32:USER32.dll
 0001:0002abb8       _GetClientRect@8           1002bbb8 f   user32:USER32.dll
 0001:0002abbe       _IntersectRect@12          1002bbbe f   user32:USER32.dll
 0001:0002abc4       _UnionRect@12              1002bbc4 f   user32:USER32.dll
 0001:0002abca       _OffsetRect@12             1002bbca f   user32:USER32.dll
 0001:0002abd0       _EqualRect@8               1002bbd0 f   user32:USER32.dll
 0001:0002abd6       _PtInRect@12               1002bbd6 f   user32:USER32.dll
 0001:0002abdc       _GetWindowLongW@8          1002bbdc f   user32:USER32.dll
 0001:0002abe2       _SetWindowLongW@12         1002bbe2 f   user32:USER32.dll
 0001:0002abe8       _GetParent@4               1002bbe8 f   user32:USER32.dll
 0001:0002abee       _LoadCursorW@8             1002bbee f   user32:USER32.dll
 0001:0002abf4       _PeekMessageW@20           1002bbf4 f   user32:USER32.dll
 0001:0002abfa       _RegisterClassW@4          1002bbfa f   user32:USER32.dll
 0001:0002ac00       _LoadBitmapW@8             1002bc00 f   user32:USER32.dll
 0001:0002ac06       _CloseMetaFile@4           1002bc06 f   gdi32:GDI32.dll
 0001:0002ac0c       _CreateDCW@16              1002bc0c f   gdi32:GDI32.dll
 0001:0002ac12       _CreateMetaFileW@4         1002bc12 f   gdi32:GDI32.dll
 0001:0002ac18       _CreateRectRgnIndirect@4   1002bc18 f   gdi32:GDI32.dll
 0001:0002ac1e       _DeleteDC@4                1002bc1e f   gdi32:GDI32.dll
 0001:0002ac24       _DeleteMetaFile@4          1002bc24 f   gdi32:GDI32.dll
 0001:0002ac2a       _GetDeviceCaps@8           1002bc2a f   gdi32:GDI32.dll
 0001:0002ac30       _RestoreDC@8               1002bc30 f   gdi32:GDI32.dll
 0001:0002ac36       _SaveDC@4                  1002bc36 f   gdi32:GDI32.dll
 0001:0002ac3c       _SetMapMode@8              1002bc3c f   gdi32:GDI32.dll
 0001:0002ac42       _LPtoDP@12                 1002bc42 f   gdi32:GDI32.dll
 0001:0002ac48       _SetViewportOrgEx@16       1002bc48 f   gdi32:GDI32.dll
 0001:0002ac4e       _SetWindowExtEx@16         1002bc4e f   gdi32:GDI32.dll
 0001:0002ac54       _SetWindowOrgEx@16         1002bc54 f   gdi32:GDI32.dll
 0001:0002ac5a       _BitBlt@36                 1002bc5a f   gdi32:GDI32.dll
 0001:0002ac60       _CreateCompatibleDC@4      1002bc60 f   gdi32:GDI32.dll
 0001:0002ac66       _DeleteObject@4            1002bc66 f   gdi32:GDI32.dll
 0001:0002ac6c       _SelectObject@8            1002bc6c f   gdi32:GDI32.dll
 0001:0002ac72       _GetObjectW@12             1002bc72 f   gdi32:GDI32.dll
 0001:0002ac78       _RegCloseKey@4             1002bc78 f   advapi32:ADVAPI32.dll
 0001:0002ac7e       _RegCreateKeyExW@36        1002bc7e f   advapi32:ADVAPI32.dll
 0001:0002ac84       _RegDeleteKeyW@8           1002bc84 f   advapi32:ADVAPI32.dll
 0001:0002ac8a       _RegDeleteValueW@8         1002bc8a f   advapi32:ADVAPI32.dll
 0001:0002ac90       _RegEnumKeyExW@32          1002bc90 f   advapi32:ADVAPI32.dll
 0001:0002ac96       _RegOpenKeyExW@20          1002bc96 f   advapi32:ADVAPI32.dll
 0001:0002ac9c       _RegQueryInfoKeyW@48       1002bc9c f   advapi32:ADVAPI32.dll
 0001:0002aca2       _RegSetValueExW@24         1002bca2 f   advapi32:ADVAPI32.dll
 0001:0002aca8       _RegQueryValueExW@24       1002bca8 f   advapi32:ADVAPI32.dll
 0001:0002acae       _CoCreateInstance@20       1002bcae f   ole32:ole32.dll
 0001:0002acb4       _StringFromGUID2@12        1002bcb4 f   ole32:ole32.dll
 0001:0002acba       _CoTaskMemAlloc@4          1002bcba f   ole32:ole32.dll
 0001:0002acc0       _CoTaskMemRealloc@8        1002bcc0 f   ole32:ole32.dll
 0001:0002acc6       _CoTaskMemFree@4           1002bcc6 f   ole32:ole32.dll
 0001:0002accc       _CreateDataAdviseHolder@4  1002bccc f   ole32:ole32.dll
 0001:0002acd2       _ReadClassStm@8            1002bcd2 f   ole32:ole32.dll
 0001:0002acd8       _WriteClassStm@8           1002bcd8 f   ole32:ole32.dll
 0001:0002acde       _OleSaveToStream@8         1002bcde f   ole32:ole32.dll
 0001:0002ace4       _CreateOleAdviseHolder@4   1002bce4 f   ole32:ole32.dll
 0001:0002acea       _OleRegGetUserType@12      1002bcea f   ole32:ole32.dll
 0001:0002acf0       _OleRegGetMiscStatus@12    1002bcf0 f   ole32:ole32.dll
 0001:0002acf6       _OleRegEnumVerbs@8         1002bcf6 f   ole32:ole32.dll
 0001:0002acfc       _CLSIDFromProgID@8         1002bcfc f   ole32:ole32.dll
 0001:0002ad02       _SysAllocString@4          1002bd02 f   oleaut32:OLEAUT32.dll
 0001:0002ad08       _SysAllocStringLen@8       1002bd08 f   oleaut32:OLEAUT32.dll
 0001:0002ad0e       _SysFreeString@4           1002bd0e f   oleaut32:OLEAUT32.dll
 0001:0002ad14       _SysStringLen@4            1002bd14 f   oleaut32:OLEAUT32.dll
 0001:0002ad1a       _VariantClear@4            1002bd1a f   oleaut32:OLEAUT32.dll
 0001:0002ad20       _VariantCopyInd@8          1002bd20 f   oleaut32:OLEAUT32.dll
 0001:0002ad26       _VariantChangeType@16      1002bd26 f   oleaut32:OLEAUT32.dll
 0001:0002ad2c       _SysStringByteLen@4        1002bd2c f   oleaut32:OLEAUT32.dll
 0001:0002ad32       _SysAllocStringByteLen@8   1002bd32 f   oleaut32:OLEAUT32.dll
 0001:0002ad38       _VariantInit@4             1002bd38 f   oleaut32:OLEAUT32.dll
 0001:0002ad3e       _VarUI4FromStr@16          1002bd3e f   oleaut32:OLEAUT32.dll
 0001:0002ad44       _LoadTypeLib@8             1002bd44 f   oleaut32:OLEAUT32.dll
 0001:0002ad4a       _LoadRegTypeLib@20         1002bd4a f   oleaut32:OLEAUT32.dll
 0001:0002ad50       _RegisterTypeLib@12        1002bd50 f   oleaut32:OLEAUT32.dll
 0001:0002ad56       _UnRegisterTypeLib@20      1002bd56 f   oleaut32:OLEAUT32.dll
 0001:0002ad5c       _OleCreatePropertyFrame@44 1002bd5c f   oleaut32:OLEAUT32.dll
 0001:0002ad70       @_RTC_AllocaHelper@12      1002bd70 f   LIBCMTD:stack.obj
 0001:0002adb0       @_RTC_CheckStackVars2@12   1002bdb0 f   LIBCMTD:stack.obj
 0001:0002ae90       @_RTC_CheckStackVars@8     1002be90 f   LIBCMTD:stack.obj
 0001:0002af00       __RTC_CheckEsp             1002bf00 f   LIBCMTD:stack.obj
 0001:0002af40       @__security_check_cookie@4 1002bf40 f   LIBCMTD:secchk.obj
 0001:0002af60       __CRT_RTC_INIT             1002bf60 f   LIBCMTD:init.obj
 0001:0002af70       __CRT_RTC_INITW            1002bf70 f   LIBCMTD:init.obj
 0001:0002af80       __RTC_InitBase             1002bf80 f   LIBCMTD:init.obj
 0001:0002afb0       __RTC_Shutdown             1002bfb0 f   LIBCMTD:init.obj
 0001:0002afd0       ??_U@YAPAXI@Z              1002bfd0 f   LIBCMTD:new_array.obj
 0001:0002aff0       ??3@YAXPAXI@Z              1002bff0 f   LIBCMTD:delete_scalar_size.obj
 0001:0002b010       ??_V@YAXPAX@Z              1002c010 f   LIBCMTD:delete_array.obj
 0001:0002b030       ??_V@YAXPAXI@Z             1002c030 f   LIBCMTD:delete_array_size.obj
 0001:0002b050       ??$__crt_fast_decode_pointer@PAP6AXXZ@@YAPAP6AXXZQAP6AXXZ@Z 1002c050 f i LIBCMTD:utility.obj
 0001:0002b080       ??$__crt_fast_encode_pointer@PAP6AXXZ@@YAPAP6AXXZQAP6AXXZ@Z 1002c080 f i LIBCMTD:utility.obj
 0001:0002b0b0       ?__crt_rotate_pointer_value@@YAIIH@Z 1002c0b0 f i LIBCMTD:utility.obj
 0001:0002b0c0       ?configure_argv@__scrt_narrow_argv_policy@@SAHXZ 1002c0c0 f i LIBCMTD:utility.obj
 0001:0002b170       ?initialize_environment@__scrt_narrow_environment_policy@@SAHXZ 1002c170 f i LIBCMTD:utility.obj
 0001:0002b1f0       _NtCurrentTeb              1002c1f0 f i LIBCMTD:utility.obj
 0001:0002b200       ___scrt_acquire_startup_lock 1002c200 f   LIBCMTD:utility.obj
 0001:0002b250       ___scrt_dllmain_after_initialize_c 1002c250 f   LIBCMTD:utility.obj
 0001:0002b280       ___scrt_dllmain_before_initialize_c 1002c280 f   LIBCMTD:utility.obj
 0001:0002b2a0       ___scrt_dllmain_crt_thread_attach 1002c2a0 f   LIBCMTD:utility.obj
 0001:0002b2d0       ___scrt_dllmain_crt_thread_detach 1002c2d0 f   LIBCMTD:utility.obj
 0001:0002b2f0       ___scrt_dllmain_exception_filter 1002c2f0 f   LIBCMTD:utility.obj
 0001:0002b340       ___scrt_dllmain_uninitialize_c 1002c340 f   LIBCMTD:utility.obj
 0001:0002b370       ___scrt_dllmain_uninitialize_critical 1002c370 f   LIBCMTD:utility.obj
 0001:0002b390       ___scrt_initialize_crt     1002c390 f   LIBCMTD:utility.obj
 0001:0002b3e0       ___scrt_initialize_onexit_tables 1002c3e0 f   LIBCMTD:utility.obj
 0001:0002b4c0       ___scrt_is_nonwritable_in_current_image 1002c4c0 f   LIBCMTD:utility.obj
 0001:0002b5f0       ___scrt_release_startup_lock 1002c5f0 f   LIBCMTD:utility.obj
 0001:0002b620       ___scrt_uninitialize_crt   1002c620 f   LIBCMTD:utility.obj
 0001:0002b660       __onexit                   1002c660 f   LIBCMTD:utility.obj
 0001:0002b6d0       _at_quick_exit             1002c6d0 f   LIBCMTD:utility.obj
 0001:0002b720       _atexit                    1002c720 f   LIBCMTD:utility.obj
 0001:0002b750       ??3@YAXPAX@Z               1002c750 f   LIBCMTD:delete_scalar.obj
 0001:0002b770       ___raise_securityfailure   1002c770 f   LIBCMTD:gs_report.obj
 0001:0002b7a0       ___report_gsfailure        1002c7a0 f   LIBCMTD:gs_report.obj
 0001:0002b8b0       ___report_rangecheckfailure 1002c8b0 f   LIBCMTD:gs_report.obj
 0001:0002b8c0       ___report_securityfailure  1002c8c0 f   LIBCMTD:gs_report.obj
 0001:0002b9a0       ___report_securityfailureEx 1002c9a0 f   LIBCMTD:gs_report.obj
 0001:0002bb10       ??$__crt_fast_decode_pointer@P6GHPAU_RTL_CONDITION_VARIABLE@@PAU_RTL_CRITICAL_SECTION@@K@Z@@YAP6GHPAU_RTL_CONDITION_VARIABLE@@PAU_RTL_CRITICAL_SECTION@@K@ZQ6GH01K@Z@Z 1002cb10 f i LIBCMTD:thread_safe_statics.obj
 0001:0002bb40       ??$__crt_fast_decode_pointer@P6GXPAU_RTL_CONDITION_VARIABLE@@@Z@@YAP6GXPAU_RTL_CONDITION_VARIABLE@@@ZQ6GX0@Z@Z 1002cb40 f i LIBCMTD:thread_safe_statics.obj
 0001:0002bb70       ??$__crt_fast_encode_pointer@P6GHPAU_RTL_CONDITION_VARIABLE@@PAU_RTL_CRITICAL_SECTION@@K@Z@@YAP6GHPAU_RTL_CONDITION_VARIABLE@@PAU_RTL_CRITICAL_SECTION@@K@ZQ6GH01K@Z@Z 1002cb70 f i LIBCMTD:thread_safe_statics.obj
 0001:0002bba0       ??$__crt_fast_encode_pointer@P6GXPAU_RTL_CONDITION_VARIABLE@@@Z@@YAP6GXPAU_RTL_CONDITION_VARIABLE@@@ZQ6GX0@Z@Z 1002cba0 f i LIBCMTD:thread_safe_statics.obj
 0001:0002bd00       ?__scrt_is_event_api_used@@YA_NQAX@Z 1002cd00 f i LIBCMTD:thread_safe_statics.obj
 0001:0002bd90       __Init_thread_abort        1002cd90 f   LIBCMTD:thread_safe_statics.obj
 0001:0002bdb0       __Init_thread_footer       1002cdb0 f   LIBCMTD:thread_safe_statics.obj
 0001:0002be00       __Init_thread_header       1002ce00 f   LIBCMTD:thread_safe_statics.obj
 0001:0002be70       __Init_thread_lock         1002ce70 f   LIBCMTD:thread_safe_statics.obj
 0001:0002be80       __Init_thread_notify       1002ce80 f   LIBCMTD:thread_safe_statics.obj
 0001:0002bef0       __Init_thread_unlock       1002cef0 f   LIBCMTD:thread_safe_statics.obj
 0001:0002bf00       __Init_thread_wait         1002cf00 f   LIBCMTD:thread_safe_statics.obj
 0001:0002bfa0       ??2@YAPAXIABUnothrow_t@std@@@Z 1002cfa0 f   LIBCMTD:new_scalar_nothrow.obj
 0001:0002c020       ??_U@YAPAXIABUnothrow_t@std@@@Z 1002d020 f   LIBCMTD:new_array_nothrow.obj
 0001:0002c040       __allmul                   1002d040 f   LIBCMTD:llmul.obj
 0001:0002c080       __alloca_probe_16          1002d080 f   LIBCMTD:alloca16.obj
 0001:0002c096       __alloca_probe_8           1002d096     LIBCMTD:alloca16.obj
 0001:0002c0b0       __alloca_probe             1002d0b0 f   LIBCMTD:chkstk.obj
 0001:0002c0b0       __chkstk                   1002d0b0 f   LIBCMTD:chkstk.obj
 0001:0002c0e0       __alldiv                   1002d0e0 f   LIBCMTD:lldiv.obj
 0001:0002c190       __allrem                   1002d190 f   LIBCMTD:llrem.obj
 0001:0002c6f0       __CRT_INIT@12              1002d6f0 f   LIBCMTD:dll_dllmain.obj
 0001:0002c710       __DllMainCRTStartup@12     1002d710 f   LIBCMTD:dll_dllmain.obj
 0001:0002c7d0       ?_RTC_AllocaFailure@@YAXPAXPAU_RTC_ALLOCA_NODE@@H@Z 1002d7d0 f   LIBCMTD:error.obj
 0001:0002c8c0       ?_RTC_Failure@@YAXPAXH@Z   1002d8c0 f   LIBCMTD:error.obj
 0001:0002c910       ?_RTC_StackFailure@@YAXPAXPBD@Z 1002d910 f   LIBCMTD:error.obj
 0001:0002ccd0       __RTC_UninitUse            1002dcd0 f   LIBCMTD:error.obj
 0001:0002cd80       __vsprintf_s_l             1002dd80 f i LIBCMTD:error.obj
 0001:0002cdb0       _sprintf_s                 1002ddb0 f i LIBCMTD:error.obj
 0001:0002cdd0       ?_RTC_GetErrorFunc@@YAP6AHHPBDH00ZZPBX@Z 1002ddd0 f   LIBCMTD:userapi.obj
 0001:0002cde0       ?_RTC_GetErrorFuncW@@YAP6AHHPB_WH00ZZPBX@Z 1002dde0 f   LIBCMTD:userapi.obj
 0001:0002cdf0       __RTC_GetErrDesc           1002ddf0 f   LIBCMTD:userapi.obj
 0001:0002ce10       __RTC_NumErrors            1002de10 f   LIBCMTD:userapi.obj
 0001:0002ce20       __RTC_SetErrorFunc         1002de20 f   LIBCMTD:userapi.obj
 0001:0002ce40       __RTC_SetErrorFuncW        1002de40 f   LIBCMTD:userapi.obj
 0001:0002ce60       __RTC_SetErrorType         1002de60 f   LIBCMTD:userapi.obj
 0001:0002ce90       ??2@YAPAXI@Z               1002de90 f   LIBCMTD:new_scalar.obj
 0001:0002cee0       ___isa_available_init      1002dee0 f   LIBCMTD:cpu_disp.obj
 0001:0002d1c0       __get_startup_argv_mode    1002e1c0 f   LIBCMTD:argv_mode.obj
 0001:0002d1d0       ___scrt_is_ucrt_dll_in_use 1002e1d0 f   LIBCMTD:ucrt_detection.obj
 0001:0002d200       ___scrt_fastfail           1002e200 f   LIBCMTD:utility_desktop.obj
 0001:0002d340       ___scrt_get_show_window_mode 1002e340 f   LIBCMTD:utility_desktop.obj
 0001:0002d380       ___scrt_initialize_mta     1002e380 f   LIBCMTD:utility_desktop.obj
 0001:0002d390       ___scrt_initialize_winrt   1002e390 f   LIBCMTD:utility_desktop.obj
 0001:0002d3a0       ___scrt_is_managed_app     1002e3a0 f   LIBCMTD:utility_desktop.obj
 0001:0002d430       ___scrt_set_unhandled_exception_filter 1002e430 f   LIBCMTD:utility_desktop.obj
 0001:0002d440       ___scrt_exe_initialize_mta 1002e440 f   LIBCMTD:utility_desktop.obj
 0001:0002d440       ___scrt_stub_for_initialize_mta 1002e440 f   LIBCMTD:utility_desktop.obj
 0001:0002d450       ___scrt_unhandled_exception_filter@4 1002e450 f   LIBCMTD:utility_desktop.obj
 0001:0002d4b0       __crt_debugger_hook        1002e4b0 f   LIBCMTD:utility_desktop.obj
 0001:0002d4c0       @_guard_check_icall_nop@4  1002e4c0 f i LIBCMTD:guard_support.obj
 0001:0002d4d0       _ReadNoFence               1002e4d0 f i LIBCMTD:guard_support.obj
 0001:0002d4f0       _ReadPointerNoFence        1002e4f0 f i LIBCMTD:guard_support.obj
 0001:0002d510       __guard_icall_checks_enforced 1002e510 f i LIBCMTD:guard_support.obj
 0001:0002d5b0       ___security_init_cookie    1002e5b0 f   LIBCMTD:gs_support.obj
 0001:0002d630       ?__scrt_initialize_type_info@@YAXXZ 1002e630 f   LIBCMTD:tncleanup.obj
 0001:0002d640       ?__scrt_uninitialize_type_info@@YAXXZ 1002e640 f   LIBCMTD:tncleanup.obj
 0001:0002d660       ___local_stdio_scanf_options 1002e660 f i LIBCMTD:default_local_stdio_options.obj
 0001:0002d670       ___scrt_initialize_default_local_stdio_options 1002e670 f   LIBCMTD:default_local_stdio_options.obj
 0001:0002d6b0       ___scrt_get_dyn_tls_init_callback 1002e6b0 f   LIBCMTD:dyn_tls_init.obj
 0001:0002d6c0       __RTC_Initialize           1002e6c0 f   LIBCMTD:initsect.obj
 0001:0002d6f0       __RTC_Terminate            1002e6f0 f   LIBCMTD:initsect.obj
 0001:0002dba0       ?_RTC_GetSrcLine@@YAHPAEPA_WKPAH1K@Z 1002eba0 f   LIBCMTD:pdblkup.obj
 0001:0002df30       __except_handler4_noexcept 1002ef30 f   LIBCMTD:chandler4_noexcept.obj
 0001:0002df80       ??0bad_alloc@std@@AAE@QBD@Z 1002ef80 f i LIBCMTD:throw_bad_alloc.obj
 0001:0002dfb0       ??0bad_alloc@std@@QAE@ABV01@@Z 1002efb0 f i LIBCMTD:throw_bad_alloc.obj
 0001:0002dfe0       ??0bad_alloc@std@@QAE@XZ   1002efe0 f i LIBCMTD:throw_bad_alloc.obj
 0001:0002e010       ??0bad_array_new_length@std@@QAE@ABV01@@Z 1002f010 f i LIBCMTD:throw_bad_alloc.obj
 0001:0002e040       ??0bad_array_new_length@std@@QAE@XZ 1002f040 f i LIBCMTD:throw_bad_alloc.obj
 0001:0002e070       ??0exception@std@@QAE@ABV01@@Z 1002f070 f i LIBCMTD:throw_bad_alloc.obj
 0001:0002e0b0       ??0exception@std@@QAE@QBDH@Z 1002f0b0 f i LIBCMTD:throw_bad_alloc.obj
 0001:0002e0e0       ??1bad_alloc@std@@UAE@XZ   1002f0e0 f i LIBCMTD:throw_bad_alloc.obj
 0001:0002e100       ??1bad_array_new_length@std@@UAE@XZ 1002f100 f i LIBCMTD:throw_bad_alloc.obj
 0001:0002e120       ??1exception@std@@UAE@XZ   1002f120 f i LIBCMTD:throw_bad_alloc.obj
 0001:0002e150       ??_Ebad_alloc@std@@UAEPAXI@Z 1002f150 f i LIBCMTD:throw_bad_alloc.obj
 0001:0002e150       ??_Gbad_alloc@std@@UAEPAXI@Z 1002f150 f i LIBCMTD:throw_bad_alloc.obj
 0001:0002e180       ??_Gbad_array_new_length@std@@UAEPAXI@Z 1002f180 f i LIBCMTD:throw_bad_alloc.obj
 0001:0002e180       ??_Ebad_array_new_length@std@@UAEPAXI@Z 1002f180 f i LIBCMTD:throw_bad_alloc.obj
 0001:0002e1b0       ??_Eexception@std@@UAEPAXI@Z 1002f1b0 f i LIBCMTD:throw_bad_alloc.obj
 0001:0002e1b0       ??_Gexception@std@@UAEPAXI@Z 1002f1b0 f i LIBCMTD:throw_bad_alloc.obj
 0001:0002e1e0       ?__scrt_throw_std_bad_alloc@@YAXXZ 1002f1e0 f   LIBCMTD:throw_bad_alloc.obj
 0001:0002e200       ?__scrt_throw_std_bad_array_new_length@@YAXXZ 1002f200 f   LIBCMTD:throw_bad_alloc.obj
 0001:0002e220       ?what@exception@std@@UBEPBDXZ 1002f220 f i LIBCMTD:throw_bad_alloc.obj
 0001:0002e250       ??1type_info@@UAE@XZ       1002f250 f   LIBCMTD:std_type_info_static.obj
 0001:0002e270       ??_Gtype_info@@UAEPAXI@Z   1002f270 f i LIBCMTD:std_type_info_static.obj
 0001:0002e270       ??_Etype_info@@UAEPAXI@Z   1002f270 f i LIBCMTD:std_type_info_static.obj
 0001:0002e29e       ??$?2PAUHINSTANCE__@@@Wrapper@?$CSimpleArray@PAUHINSTANCE__@@V?$CSimpleArrayEqualHelper@PAUHINSTANCE__@@@ATL@@@ATL@@SAPAXIPAPAUHINSTANCE__@@@Z 1002f29e f i atls:atlbase.obj
 0001:0002e2a6       ??0?$CSimpleArray@PAUHINSTANCE__@@V?$CSimpleArrayEqualHelper@PAUHINSTANCE__@@@ATL@@@ATL@@QAE@XZ 1002f2a6 f i atls:atlbase.obj
 0001:0002e2b3       ??0CAtlBaseModule@ATL@@QAE@XZ 1002f2b3 f   atls:atlbase.obj
 0001:0002e306       ??0Wrapper@?$CSimpleArray@PAUHINSTANCE__@@V?$CSimpleArrayEqualHelper@PAUHINSTANCE__@@@ATL@@@ATL@@QAE@ABQAUHINSTANCE__@@@Z 1002f306 f i atls:atlbase.obj
 0001:0002e316       ??0_ATL_BASE_MODULE70@ATL@@QAE@XZ 1002f316 f i atls:atlbase.obj
 0001:0002e339       ??1?$CSimpleArray@PAUHINSTANCE__@@V?$CSimpleArrayEqualHelper@PAUHINSTANCE__@@@ATL@@@ATL@@QAE@XZ 1002f339 f i atls:atlbase.obj
 0001:0002e33e       ??1CAtlBaseModule@ATL@@QAE@XZ 1002f33e f   atls:atlbase.obj
 0001:0002e354       ??1_ATL_BASE_MODULE70@ATL@@QAE@XZ 1002f354 f i atls:atlbase.obj
 0001:0002e35c       ??A?$CSimpleArray@PAUHINSTANCE__@@V?$CSimpleArrayEqualHelper@PAUHINSTANCE__@@@ATL@@@ATL@@QAEAAPAUHINSTANCE__@@H@Z 1002f35c f i atls:atlbase.obj
 0001:0002e381       ?Add@?$CSimpleArray@PAUHINSTANCE__@@V?$CSimpleArrayEqualHelper@PAUHINSTANCE__@@@ATL@@@ATL@@QAEHABQAUHINSTANCE__@@@Z 1002f381 f i atls:atlbase.obj
 0001:0002e403       ?AddResourceInstance@CAtlBaseModule@ATL@@QAE_NPAUHINSTANCE__@@@Z 1002f403 f   atls:atlbase.obj
 0001:0002e436       ?GetHInstanceAt@CAtlBaseModule@ATL@@QAEPAUHINSTANCE__@@H@Z 1002f436 f   atls:atlbase.obj
 0001:0002e47b       ?GetSize@?$CSimpleArray@PAUHINSTANCE__@@V?$CSimpleArrayEqualHelper@PAUHINSTANCE__@@@ATL@@@ATL@@QBEHXZ 1002f47b f i atls:atlbase.obj
 0001:0002e47f       ?InternalSetAtIndex@?$CSimpleArray@PAUHINSTANCE__@@V?$CSimpleArrayEqualHelper@PAUHINSTANCE__@@@ATL@@@ATL@@QAEXHABQAUHINSTANCE__@@@Z 1002f47f f i atls:atlbase.obj
 0001:0002e499       ?RemoveAll@?$CSimpleArray@PAUHINSTANCE__@@V?$CSimpleArrayEqualHelper@PAUHINSTANCE__@@@ATL@@@ATL@@QAEXXZ 1002f499 f i atls:atlbase.obj
 0001:0002e4b6       ?RemoveAt@?$CSimpleArray@PAUHINSTANCE__@@V?$CSimpleArrayEqualHelper@PAUHINSTANCE__@@@ATL@@@ATL@@QAEHH@Z 1002f4b6 f i atls:atlbase.obj
 0001:0002e504       ?RemoveResourceInstance@CAtlBaseModule@ATL@@QAE_NPAUHINSTANCE__@@@Z 1002f504 f   atls:atlbase.obj
 0001:0002e561       ?memmove_s@Checked@ATL@@YAXPAXIPBXI@Z 1002f561 f i atls:atlbase.obj
 0001:0002e8be       ?GetCodeAddress@_stdcallthunk@ATL@@QAEPAXXZ 1002f8be f i atls:atlthunk.obj
 0001:0002e8e8       ?Init@_stdcallthunk@ATL@@QAEHKPAX@Z 1002f8e8 f i atls:atlthunk.obj
 0001:0002e91d       ?__AllocStdCallThunk@@YGPAXXZ 1002f91d f   atls:atlthunk.obj
 0001:0002e922       ?__AllocStdCallThunk@ATL@@YGPAXXZ 1002f922 f   atls:atlthunk.obj
 0001:0002e927       ?__AllocStdCallThunk_cmn@@YAPAXXZ 1002f927 f   atls:atlthunk.obj
 0001:0002e9ed       ?__FreeStdCallThunk@@YGXPAX@Z 1002f9ed f   atls:atlthunk.obj
 0001:0002e9fd       ?__FreeStdCallThunk@ATL@@YGXPAX@Z 1002f9fd f   atls:atlthunk.obj
 0001:0002ea0d       ?__FreeStdCallThunk_cmn@@YAXPAX@Z 1002fa0d f   atls:atlthunk.obj
 0001:0002eaa8       _AtlThunk_AllocateData@0   1002faa8 f   atls:atlthunk.obj
 0001:0002eb0d       _AtlThunk_DataToCode@4     1002fb0d f   atls:atlthunk.obj
 0001:0002eb54       _AtlThunk_FreeData@4       1002fb54 f   atls:atlthunk.obj
 0001:0002ebaa       _AtlThunk_InitData@12      1002fbaa f   atls:atlthunk.obj
 0001:0002ebf9       _MemoryBarrier             1002fbf9 f i atls:atlthunk.obj
 0001:0002ec07       __InlineInterlockedCompareExchangePointer 1002fc07 f i atls:atlthunk.obj
 0001:0002ec20       _memset                    1002fc20 f   libvcruntimed:memset.obj
 0001:0002ed80       ??$__crt_fast_decode_pointer@P6AXXZ@@YAP6AXXZQ6AXXZ@Z 1002fd80 f i libvcruntimed:purevirt.obj
 0001:0002edb0       ??$__crt_fast_encode_pointer@P6AXXZ@@YAP6AXXZQ6AXXZ@Z 1002fdb0 f i libvcruntimed:purevirt.obj
 0001:0002ede0       ??$__crt_interlocked_exchange_pointer@$$A6AXXZP6AXXZ@@YAP6AXXZPDS6AXXZQ6AXXZ@Z 1002fde0 f i libvcruntimed:purevirt.obj
 0001:0002edf0       ??$__crt_interlocked_read_pointer@$$A6AXXZ@@YAP6AXXZPDS6AXXZ@Z 1002fdf0 f i libvcruntimed:purevirt.obj
 0001:0002ee10       ?__crt_interlocked_read_32@@YAHPDH@Z 1002fe10 f i libvcruntimed:purevirt.obj
 0001:0002ee30       __get_purecall_handler     1002fe30 f   libvcruntimed:purevirt.obj
 0001:0002ee50       __purecall                 1002fe50 f   libvcruntimed:purevirt.obj
 0001:0002ee80       __set_purecall_handler     1002fe80 f   libvcruntimed:purevirt.obj
 0001:0002f060       _memcmp                    10030060 f   libvcruntimed:memcmp.obj
 0001:0002f930       _memcpy                    10030930 f   libvcruntimed:memcpy.obj
 0001:0002feb0       _wcsstr                    10030eb0 f   libvcruntimed:wcsstr.obj
 0001:000303e0       __except_handler4          100313e0 f   libvcruntimed:chandler4.obj
 0001:000305b0       ___vcrt_initialize         100315b0 f   libvcruntimed:initialization.obj
 0001:000305f0       ___vcrt_thread_attach      100315f0 f   libvcruntimed:initialization.obj
 0001:00030610       ___vcrt_thread_detach      10031610 f   libvcruntimed:initialization.obj
 0001:00030630       ___vcrt_uninitialize       10031630 f   libvcruntimed:initialization.obj
 0001:00030650       ___vcrt_uninitialize_critical 10031650 f   libvcruntimed:initialization.obj
 0001:00030670       ??$?0AAViterator@TryBlockMap@__FrameHandler3@@AAV012@$0A@@?$pair@Viterator@TryBlockMap@__FrameHandler3@@V123@@std@@QAE@AAViterator@TryBlockMap@__FrameHandler3@@0@Z 10031670 f i libvcruntimed:trnsctrl.obj
 0001:000306c0       ??$forward@AAViterator@TryBlockMap@__FrameHandler3@@@std@@YAAAViterator@TryBlockMap@__FrameHandler3@@AAV123@@Z 100316c0 f i libvcruntimed:trnsctrl.obj
 0001:000306d0       ??0iterator@TryBlockMap@__FrameHandler3@@QAE@AAV12@I@Z 100316d0 f i libvcruntimed:trnsctrl.obj
 0001:00030700       ?GetRangeOfTrysToCheck@__FrameHandler3@@SA?AU?$pair@Viterator@TryBlockMap@__FrameHandler3@@V123@@std@@AAVTryBlockMap@1@HH@Z 10031700 f   libvcruntimed:trnsctrl.obj
 0001:000307f0       ?_CallCatchBlock2@@YAPAXPAUEHRegistrationNode@@PBU_s_FuncInfo@@PAXHK@Z 100317f0 f   libvcruntimed:trnsctrl.obj
 0001:00030860       ?_CallSETranslator@@YAHPAUEHExceptionRecord@@PAUEHRegistrationNode@@PAX2PBU_s_FuncInfo@@H1@Z 10031860 f   libvcruntimed:trnsctrl.obj
 0001:00030950       ?_JumpToContinuation@@YGXPAXPAUEHRegistrationNode@@@Z 10031950 f   libvcruntimed:trnsctrl.obj
 0001:00030990       ?_UnwindNestedFrames@@YGXPAUEHRegistrationNode@@PAUEHExceptionRecord@@@Z 10031990 f   libvcruntimed:trnsctrl.obj
 0001:000309f0       ?getFuncInfo@TryBlockMap@__FrameHandler3@@QAEPBU_s_FuncInfo@@XZ 100319f0 f i libvcruntimed:trnsctrl.obj
 0001:00030a00       __CatchGuardHandler        10031a00 f   libvcruntimed:trnsctrl.obj
 0001:00030a50       __CreateFrameInfo          10031a50 f   libvcruntimed:trnsctrl.obj
 0001:00030a80       __FindAndUnlinkFrame       10031a80 f   libvcruntimed:trnsctrl.obj
 0001:00030af0       __TranslatorGuardHandler   10031af0 f   libvcruntimed:trnsctrl.obj
 0001:00030ba0       ___CxxFrameHandler         10031ba0 f   libvcruntimed:trnsctrl.obj
 0001:00030be0       ___CxxFrameHandler2        10031be0 f   libvcruntimed:trnsctrl.obj
 0001:00030c20       ___CxxFrameHandler3        10031c20 f   libvcruntimed:trnsctrl.obj
 0001:00030c60       ___CxxLongjmpUnwind@4      10031c60 f   libvcruntimed:trnsctrl.obj
 0001:00030cc0       ??$?RD@__crt_internal_free_policy@@QBEXQBD@Z 10031cc0 f i libvcruntimed:std_type_info.obj
 0001:00030ce0       ??$?RX@__crt_internal_free_policy@@QBEXQBX@Z 10031ce0 f i libvcruntimed:std_type_info.obj
 0001:00030d00       ??$__crt_interlocked_compare_exchange_pointer@$$CBDPAD$$T@@YAPBDPDSBDQAD$$T@Z 10031d00 f i libvcruntimed:std_type_info.obj
 0001:00030d20       ??$__crt_interlocked_read_pointer@$$CBD@@YAPBDPDSBD@Z 10031d20 f i libvcruntimed:std_type_info.obj
 0001:00030d40       ??0?$__crt_unique_heap_ptr@DU__crt_internal_free_policy@@@@QAE@QAD@Z 10031d40 f i libvcruntimed:std_type_info.obj
 0001:00030d60       ??0?$__crt_unique_heap_ptr@XU__crt_internal_free_policy@@@@QAE@QAX@Z 10031d60 f i libvcruntimed:std_type_info.obj
 0001:00030d80       ??1?$__crt_unique_heap_ptr@DU__crt_internal_free_policy@@@@QAE@XZ 10031d80 f i libvcruntimed:std_type_info.obj
 0001:00030da0       ??1?$__crt_unique_heap_ptr@XU__crt_internal_free_policy@@@@QAE@XZ 10031da0 f i libvcruntimed:std_type_info.obj
 0001:00030de0       ??B?$__crt_unique_heap_ptr@DU__crt_internal_free_policy@@@@QBE_NXZ 10031de0 f i libvcruntimed:std_type_info.obj
 0001:00030e00       ??B?$__crt_unique_heap_ptr@XU__crt_internal_free_policy@@@@QBE_NXZ 10031e00 f i libvcruntimed:std_type_info.obj
 0001:00030e70       ?detach@?$__crt_unique_heap_ptr@XU__crt_internal_free_policy@@@@QAEPAXXZ 10031e70 f i libvcruntimed:std_type_info.obj
 0001:00030ea0       ?get@?$__crt_unique_heap_ptr@DU__crt_internal_free_policy@@@@QBEPADXZ 10031ea0 f i libvcruntimed:std_type_info.obj
 0001:00030eb0       ?get@?$__crt_unique_heap_ptr@XU__crt_internal_free_policy@@@@QBEPAXXZ 10031eb0 f i libvcruntimed:std_type_info.obj
 0001:00030ec0       ?is_valid@?$__crt_unique_heap_ptr@DU__crt_internal_free_policy@@@@QBE_NXZ 10031ec0 f i libvcruntimed:std_type_info.obj
 0001:00030ef0       ?is_valid@?$__crt_unique_heap_ptr@XU__crt_internal_free_policy@@@@QBE_NXZ 10031ef0 f i libvcruntimed:std_type_info.obj
 0001:00030f20       ?release@?$__crt_unique_heap_ptr@DU__crt_internal_free_policy@@@@QAEXXZ 10031f20 f i libvcruntimed:std_type_info.obj
 0001:00030f50       ?release@?$__crt_unique_heap_ptr@XU__crt_internal_free_policy@@@@QAEXXZ 10031f50 f i libvcruntimed:std_type_info.obj
 0001:00030f80       ___std_type_info_compare   10031f80 f   libvcruntimed:std_type_info.obj
 0001:00030fb0       ___std_type_info_destroy_list 10031fb0 f   libvcruntimed:std_type_info.obj
 0001:00030ff0       ___std_type_info_hash      10031ff0 f   libvcruntimed:std_type_info.obj
 0001:00031050       ___std_type_info_name      10032050 f   libvcruntimed:std_type_info.obj
 0001:00031230       ___vcrt_GetModuleFileNameW 10032230 f   libvcruntimed:winapi_thunks.obj
 0001:00031250       ___vcrt_GetModuleHandleW   10032250 f   libvcruntimed:winapi_thunks.obj
 0001:00031260       ___vcrt_LoadLibraryExW     10032260 f   libvcruntimed:winapi_thunks.obj
 0001:00031280       ??$?RD@__crt_public_free_policy@@QBEXQBD@Z 10032280 f i libvcruntimed:std_exception.obj
 0001:000312a0       ??0?$__crt_unique_heap_ptr@DU__crt_public_free_policy@@@@QAE@QAD@Z 100322a0 f i libvcruntimed:std_exception.obj
 0001:000312c0       ??1?$__crt_unique_heap_ptr@DU__crt_public_free_policy@@@@QAE@XZ 100322c0 f i libvcruntimed:std_exception.obj
 0001:000312e0       ??B?$__crt_unique_heap_ptr@DU__crt_public_free_policy@@@@QBE_NXZ 100322e0 f i libvcruntimed:std_exception.obj
 0001:00031300       ?detach@?$__crt_unique_heap_ptr@DU__crt_public_free_policy@@@@QAEPADXZ 10032300 f i libvcruntimed:std_exception.obj
 0001:00031330       ?get@?$__crt_unique_heap_ptr@DU__crt_public_free_policy@@@@QBEPADXZ 10032330 f i libvcruntimed:std_exception.obj
 0001:00031340       ?is_valid@?$__crt_unique_heap_ptr@DU__crt_public_free_policy@@@@QBE_NXZ 10032340 f i libvcruntimed:std_exception.obj
 0001:00031370       ?release@?$__crt_unique_heap_ptr@DU__crt_public_free_policy@@@@QAEXXZ 10032370 f i libvcruntimed:std_exception.obj
 0001:000313a0       ___std_exception_copy      100323a0 f   libvcruntimed:std_exception.obj
 0001:00031480       ___std_exception_destroy   10032480 f   libvcruntimed:std_exception.obj
 0001:000314b0       __CxxThrowException@8      100324b0 f   libvcruntimed:throw.obj
 0001:00031570       _memmove                   10032570 f   libvcruntimed:memmove.obj
 0001:00031af0       ??$?B$$A6AXXZ@__crt_fast_encoded_nullptr_t@@QBEP6AXXZXZ 10032af0 f i libvcruntimed:purevirt_data.obj
 0001:00031b10       ?__crt_fast_encode_pointer@@YA?AU__crt_fast_encoded_nullptr_t@@$$T@Z 10032b10 f i libvcruntimed:purevirt_data.obj
 0001:00031b20       ___vcrt_initialize_pure_virtual_call_handler 10032b20 f   libvcruntimed:purevirt_data.obj
 0001:00031b50       __local_unwind4            10032b50 f   libvcruntimed:exsup4.obj
 0001:00031c28       __seh_longjmp_unwind4@4    10032c28 f   libvcruntimed:exsup4.obj
 0001:00031c50       @_EH4_CallFilterFunc@8     10032c50 f   libvcruntimed:exsup4.obj
 0001:00031c68       @_EH4_TransferToHandler@8  10032c68 f   libvcruntimed:exsup4.obj
 0001:00031c84       @_EH4_GlobalUnwind2@8      10032c84 f   libvcruntimed:exsup4.obj
 0001:00031ca0       @_EH4_LocalUnwind@16       10032ca0 f   libvcruntimed:exsup4.obj
 0001:00031cd0       ___except_validate_context_record 10032cd0 f   libvcruntimed:jbcxrval.obj
 0001:00031d20       ___except_validate_jump_buffer 10032d20 f   libvcruntimed:jbcxrval.obj
 0001:00031d40       ___except_validate_jump_buffer_common 10032d40 f i libvcruntimed:jbcxrval.obj
 0001:00031da0       ??$?RU__vcrt_ptd@@@__crt_internal_free_policy@@QBEXQBU__vcrt_ptd@@@Z 10032da0 f i libvcruntimed:per_thread_data.obj
 0001:00031dc0       ??0?$__crt_unique_heap_ptr@U__vcrt_ptd@@U__crt_internal_free_policy@@@@QAE@QAU__vcrt_ptd@@@Z 10032dc0 f i libvcruntimed:per_thread_data.obj
 0001:00031e00       ??1?$__crt_unique_heap_ptr@U__vcrt_ptd@@U__crt_internal_free_policy@@@@QAE@XZ 10032e00 f i libvcruntimed:per_thread_data.obj
 0001:00031e40       ??B?$__crt_unique_heap_ptr@U__vcrt_ptd@@U__crt_internal_free_policy@@@@QBE_NXZ 10032e40 f i libvcruntimed:per_thread_data.obj
 0001:00031e60       ?detach@?$__crt_unique_heap_ptr@U__vcrt_ptd@@U__crt_internal_free_policy@@@@QAEPAU__vcrt_ptd@@XZ 10032e60 f i libvcruntimed:per_thread_data.obj
 0001:00031e90       ?get@?$__crt_unique_heap_ptr@U__vcrt_ptd@@U__crt_internal_free_policy@@@@QBEPAU__vcrt_ptd@@XZ 10032e90 f i libvcruntimed:per_thread_data.obj
 0001:00031ea0       ?is_valid@?$__crt_unique_heap_ptr@U__vcrt_ptd@@U__crt_internal_free_policy@@@@QBE_NXZ 10032ea0 f i libvcruntimed:per_thread_data.obj
 0001:00031ed0       ?release@?$__crt_unique_heap_ptr@U__vcrt_ptd@@U__crt_internal_free_policy@@@@QAEXXZ 10032ed0 f i libvcruntimed:per_thread_data.obj
 0001:00031f30       ___vcrt_freefls@4          10032f30 f   libvcruntimed:per_thread_data.obj
 0001:00031f60       ___vcrt_freeptd            10032f60 f   libvcruntimed:per_thread_data.obj
 0001:00031fc0       ___vcrt_getptd             10032fc0 f   libvcruntimed:per_thread_data.obj
 0001:00031fe0       ___vcrt_getptd_noexit      10032fe0 f   libvcruntimed:per_thread_data.obj
 0001:00032140       ___vcrt_getptd_noinit      10033140 f   libvcruntimed:per_thread_data.obj
 0001:000321a0       ___vcrt_initialize_ptd     100331a0 f   libvcruntimed:per_thread_data.obj
 0001:000321f0       ___vcrt_uninitialize_ptd   100331f0 f   libvcruntimed:per_thread_data.obj
 0001:00032220       ___vcrt_initialize_locks   10033220 f   libvcruntimed:locks.obj
 0001:00032280       ___vcrt_lock               10033280 f   libvcruntimed:locks.obj
 0001:000322a0       ___vcrt_uninitialize_locks 100332a0 f   libvcruntimed:locks.obj
 0001:000322f0       ___vcrt_unlock             100332f0 f   libvcruntimed:locks.obj
 0001:00032310       ??$?BX@__crt_fast_encoded_nullptr_t@@QBEPAXXZ 10033310 f i libvcruntimed:winapi_downlevel.obj
 0001:00032330       ??$__crt_fast_decode_pointer@PAX@@YAPAXQAX@Z 10033330 f i libvcruntimed:winapi_downlevel.obj
 0001:00032360       ??$__crt_fast_encode_pointer@PAX@@YAPAXQAX@Z 10033360 f i libvcruntimed:winapi_downlevel.obj
 0001:00032390       ??$__crt_interlocked_exchange_pointer@UHINSTANCE__@@PAU1@@@YAPAUHINSTANCE__@@PDSAU0@QAU0@@Z 10033390 f i libvcruntimed:winapi_downlevel.obj
 0001:000323a0       ??$__crt_interlocked_exchange_pointer@UHINSTANCE__@@PAX@@YAPAUHINSTANCE__@@PDSAU0@QAX@Z 100333a0 f i libvcruntimed:winapi_downlevel.obj
 0001:000323b0       ??$__crt_interlocked_exchange_pointer@XPAX@@YAPAXPDSAXQAX@Z 100333b0 f i libvcruntimed:winapi_downlevel.obj
 0001:000323c0       ??$__crt_interlocked_read_pointer@UHINSTANCE__@@@@YAPAUHINSTANCE__@@PDSAU0@@Z 100333c0 f i libvcruntimed:winapi_downlevel.obj
 0001:000323e0       ??$__crt_interlocked_read_pointer@X@@YAPAXPDSAX@Z 100333e0 f i libvcruntimed:winapi_downlevel.obj
 0001:000327f0       ___vcrt_FlsAlloc           100337f0 f   libvcruntimed:winapi_downlevel.obj
 0001:00032830       ___vcrt_FlsFree            10033830 f   libvcruntimed:winapi_downlevel.obj
 0001:00032870       ___vcrt_FlsGetValue        10033870 f   libvcruntimed:winapi_downlevel.obj
 0001:000328b0       ___vcrt_FlsSetValue        100338b0 f   libvcruntimed:winapi_downlevel.obj
 0001:00032900       ___vcrt_InitializeCriticalSectionEx 10033900 f   libvcruntimed:winapi_downlevel.obj
 0001:00032950       ___vcrt_initialize_winapi_thunks 10033950 f   libvcruntimed:winapi_downlevel.obj
 0001:000329b0       ___vcrt_uninitialize_winapi_thunks 100339b0 f   libvcruntimed:winapi_downlevel.obj
 0001:000335f0       ??$TypeMatchHelper@V__FrameHandler3@@@@YAHPBU_s_HandlerType@@PBU_s_CatchableType@@PBU_s_ThrowInfo@@@Z 100345f0 f i libvcruntimed:frame.obj
 0001:000336d0       ??$__InternalCxxFrameHandler@V__FrameHandler3@@@@YA?AW4_EXCEPTION_DISPOSITION@@PAUEHExceptionRecord@@PAUEHRegistrationNode@@PAU_CONTEXT@@PAXPBU_s_FuncInfo@@H1E@Z 100346d0 f i libvcruntimed:frame.obj
 0001:000338b0       ??0HandlerMap@__FrameHandler3@@QAE@PBU_s_TryBlockMapEntry@@PAX@Z 100348b0 f i libvcruntimed:frame.obj
 0001:000338e0       ??0TryBlockMap@__FrameHandler3@@QAE@PBU_s_FuncInfo@@PAX@Z 100348e0 f i libvcruntimed:frame.obj
 0001:00033910       ??0bad_exception@std@@QAE@ABV01@@Z 10034910 f i libvcruntimed:frame.obj
 0001:00033940       ??0bad_exception@std@@QAE@XZ 10034940 f i libvcruntimed:frame.obj
 0001:00033970       ??0iterator@HandlerMap@__FrameHandler3@@QAE@AAV12@I@Z 10034970 f i libvcruntimed:frame.obj
 0001:000339a0       ??1bad_exception@std@@UAE@XZ 100349a0 f i libvcruntimed:frame.obj
 0001:000339c0       ??8iterator@HandlerMap@__FrameHandler3@@QBE_NABV012@@Z 100349c0 f i libvcruntimed:frame.obj
 0001:000339f0       ??8type_info@@QBE_NABV0@@Z 100349f0 f i libvcruntimed:frame.obj
 0001:00033a30       ??9iterator@HandlerMap@__FrameHandler3@@QBE_NABV012@@Z 10034a30 f i libvcruntimed:frame.obj
 0001:00033a70       ??Diterator@HandlerMap@__FrameHandler3@@QAEPBU_s_HandlerType@@XZ 10034a70 f i libvcruntimed:frame.obj
 0001:00033a90       ??Diterator@TryBlockMap@__FrameHandler3@@QAEPBU_s_TryBlockMapEntry@@XZ 10034a90 f i libvcruntimed:frame.obj
 0001:00033ab0       ??Eiterator@HandlerMap@__FrameHandler3@@QAEAAV012@XZ 10034ab0 f i libvcruntimed:frame.obj
 0001:00033ad0       ??Eiterator@TryBlockMap@__FrameHandler3@@QAEAAV012@XZ 10034ad0 f i libvcruntimed:frame.obj
 0001:00033af0       ??Miterator@TryBlockMap@__FrameHandler3@@QBE_NABV012@@Z 10034af0 f i libvcruntimed:frame.obj
 0001:00033b20       ??_Gbad_exception@std@@UAEPAXI@Z 10034b20 f i libvcruntimed:frame.obj
 0001:00033b20       ??_Ebad_exception@std@@UAEPAXI@Z 10034b20 f i libvcruntimed:frame.obj
 0001:00033b50       ?BuildCatchObject@__FrameHandler3@@SAXPAUEHExceptionRecord@@PAXPBU_s_HandlerType@@PBU_s_CatchableType@@@Z 10034b50 f   libvcruntimed:frame.obj
 0001:00033b70       ?BuildCatchObjectHelper@__FrameHandler3@@SAHPAUEHExceptionRecord@@PAXPBU_s_HandlerType@@PBU_s_CatchableType@@@Z 10034b70 f   libvcruntimed:frame.obj
 0001:00033f10       ?FrameUnwindToEmptyState@__FrameHandler3@@SAXPAUEHRegistrationNode@@PAXPBU_s_FuncInfo@@@Z 10034f10 f   libvcruntimed:frame.obj
 0001:00033f30       ?FrameUnwindToState@__FrameHandler3@@SAXPAUEHRegistrationNode@@PAXPBU_s_FuncInfo@@H@Z 10034f30 f   libvcruntimed:frame.obj
 0001:000340b0       ?GetMaxState@__FrameHandler3@@SAHPAXPBU_s_FuncInfo@@@Z 100350b0 f i libvcruntimed:frame.obj
 0001:000341e0       ?TypeMatch@__FrameHandler3@@SAHPBU_s_HandlerType@@PBU_s_CatchableType@@PBU_s_ThrowInfo@@@Z 100351e0 f   libvcruntimed:frame.obj
 0001:00034200       ?_CallMemberFunction1@@YGXQAX00@Z 10035200 f i libvcruntimed:frame.obj
 0001:00034220       ?_CallMemberFunction2@@YGXQAX00H@Z 10035220 f i libvcruntimed:frame.obj
 0001:00034240       ?_ValidateExecute@@YA_NP6GHXZ@Z 10035240 f i libvcruntimed:frame.obj
 0001:00034260       ?_ValidateRead@@YA_NPBXI@Z 10035260 f i libvcruntimed:frame.obj
 0001:00034280       ?_ValidateWrite@@YA_NPAXI@Z 10035280 f i libvcruntimed:frame.obj
 0001:000342a0       ?begin@HandlerMap@__FrameHandler3@@QAE?AViterator@12@XZ 100352a0 f i libvcruntimed:frame.obj
 0001:000342c0       ?end@HandlerMap@__FrameHandler3@@QAE?AViterator@12@XZ 100352c0 f i libvcruntimed:frame.obj
 0001:000342f0       ?getESTypes@__FrameHandler3@@SAPBU_s_ESTypeList@@PBU_s_FuncInfo@@@Z 100352f0 f i libvcruntimed:frame.obj
 0001:00034300       ?getLastEntry@HandlerMap@__FrameHandler3@@QAEPBU_s_HandlerType@@XZ 10035300 f i libvcruntimed:frame.obj
 0001:00034320       ?getMagicNum@__FrameHandler3@@SAIPBU_s_FuncInfo@@@Z 10035320 f i libvcruntimed:frame.obj
 0001:00034330       ?getNumTryBlocks@TryBlockMap@__FrameHandler3@@QAEIXZ 10035330 f i libvcruntimed:frame.obj
 0001:00034350       ?isEHs@__FrameHandler3@@SA_NPBU_s_FuncInfo@@@Z 10035350 f i libvcruntimed:frame.obj
 0001:00034380       ?isNoExcept@__FrameHandler3@@SA_NPBU_s_FuncInfo@@@Z 10035380 f i libvcruntimed:frame.obj
 0001:000343b0       ___BuildCatchObject        100353b0 f   libvcruntimed:frame.obj
 0001:000343d0       ___BuildCatchObjectHelper  100353d0 f   libvcruntimed:frame.obj
 0001:000343f0       ___TypeMatch               100353f0 f   libvcruntimed:frame.obj
 0001:00034410       ___vcrt_EncodePointer      10035410 f i libvcruntimed:frame.obj
 0001:00034420       __CallSettingFrame@12      10035420 f   libvcruntimed:lowhelpr.obj
 0001:00034447       __NLG_Return               10035447     libvcruntimed:lowhelpr.obj
 0001:00034470       ??0Block@_HeapManager@@QAE@XZ 10035470 f i libvcruntimed:undname.obj
 0001:00034490       ??0DName@@QAE@AAPBDD@Z     10035490 f   libvcruntimed:undname.obj
 0001:000346c0       ??0DName@@QAE@ABV0@@Z      100356c0 f i libvcruntimed:undname.obj
 0001:000346f0       ??0DName@@QAE@D@Z          100356f0 f   libvcruntimed:undname.obj
 0001:00034730       ??0DName@@QAE@PAV0@@Z      10035730 f   libvcruntimed:undname.obj
 0001:000347e0       ??0DName@@QAE@PBD@Z        100357e0 f   libvcruntimed:undname.obj
 0001:00034830       ??0DName@@QAE@W4DNameStatus@@@Z 10035830 f   libvcruntimed:undname.obj
 0001:000348d0       ??0DName@@QAE@XZ           100358d0 f i libvcruntimed:undname.obj
 0001:00034900       ??0DName@@QAE@_J@Z         10035900 f   libvcruntimed:undname.obj
 0001:000349f0       ??0DName@@QAE@_K@Z         100359f0 f   libvcruntimed:undname.obj
 0001:00034aa0       ??0DNameNode@@IAE@XZ       10035aa0 f i libvcruntimed:undname.obj
 0001:00034ac0       ??0Replicator@@QAE@XZ      10035ac0 f i libvcruntimed:undname.obj
 0001:00034b00       ??0UnDecorator@@QAE@PBDP6APADJ@ZK@Z 10035b00 f i libvcruntimed:undname.obj
 0001:00034b80       ??0charNode@@QAE@D@Z       10035b80 f i libvcruntimed:undname.obj
 0001:00034bb0       ??0pDNameNode@@QAE@PAVDName@@@Z 10035bb0 f   libvcruntimed:undname.obj
 0001:00034c10       ??0pairNode@@QAE@PBVDNameNode@@0@Z 10035c10 f i libvcruntimed:undname.obj
 0001:00034c50       ??0pcharNode@@QAE@PBDH@Z   10035c50 f   libvcruntimed:undname.obj
 0001:00034d10       ??2@YAPAXIAAV_HeapManager@@H@Z 10035d10 f i libvcruntimed:undname.obj
 0001:00034d30       ??4DName@@QAEAAV0@ABV0@@Z  10035d30 f   libvcruntimed:undname.obj
 0001:00034d60       ??4DName@@QAEAAV0@D@Z      10035d60 f i libvcruntimed:undname.obj
 0001:00034da0       ??4DName@@QAEAAV0@PAV0@@Z  10035da0 f   libvcruntimed:undname.obj
 0001:00034e40       ??4DName@@QAEAAV0@PBD@Z    10035e40 f   libvcruntimed:undname.obj
 0001:00034e80       ??4DName@@QAEAAV0@W4DNameStatus@@@Z 10035e80 f   libvcruntimed:undname.obj
 0001:00034f00       ??AReplicator@@QBE?AVDName@@H@Z 10035f00 f   libvcruntimed:undname.obj
 0001:00034f70       ??H@YA?AVDName@@DABV0@@Z   10035f70 f i libvcruntimed:undname.obj
 0001:00034fa0       ??H@YA?AVDName@@PBDABV0@@Z 10035fa0 f i libvcruntimed:undname.obj
 0001:00034fd0       ??H@YA?AVDName@@W4DNameStatus@@ABV0@@Z 10035fd0 f i libvcruntimed:undname.obj
 0001:00035000       ??HDName@@QBE?AV0@ABV0@@Z  10036000 f   libvcruntimed:undname.obj
 0001:00035040       ??HDName@@QBE?AV0@D@Z      10036040 f   libvcruntimed:undname.obj
 0001:00035080       ??HDName@@QBE?AV0@PAV0@@Z  10036080 f   libvcruntimed:undname.obj
 0001:000350c0       ??HDName@@QBE?AV0@PBD@Z    100360c0 f   libvcruntimed:undname.obj
 0001:00035100       ??HDName@@QBE?AV0@W4DNameStatus@@@Z 10036100 f   libvcruntimed:undname.obj
 0001:00035140       ??YDName@@QAEAAV0@ABV0@@Z  10036140 f   libvcruntimed:undname.obj
 0001:000351b0       ??YDName@@QAEAAV0@D@Z      100361b0 f   libvcruntimed:undname.obj
 0001:00035230       ??YDName@@QAEAAV0@PAV0@@Z  10036230 f   libvcruntimed:undname.obj
 0001:000352f0       ??YDName@@QAEAAV0@PBD@Z    100362f0 f   libvcruntimed:undname.obj
 0001:00035390       ??YDName@@QAEAAV0@W4DNameStatus@@@Z 10036390 f   libvcruntimed:undname.obj
 0001:000353f0       ??YReplicator@@QAEAAV0@ABVDName@@@Z 100363f0 f   libvcruntimed:undname.obj
 0001:00035480       ??_5DName@@QAEAAV0@ABV0@@Z 10036480 f   libvcruntimed:undname.obj
 0001:000354e0       ?Constructor@_HeapManager@@QAEXP6APAXI@ZP6AXPAX@Z@Z 100364e0 f i libvcruntimed:undname.obj
 0001:00035520       ?Destructor@_HeapManager@@QAEXXZ 10036520 f i libvcruntimed:undname.obj
 0001:00035580       ?UScore@UnDecorator@@SAPBDW4Tokens@@@Z 10036580 f   libvcruntimed:undname.obj
 0001:000355b0       ?append@DName@@AAEXPBVDNameNode@@@Z 100365b0 f   libvcruntimed:undname.obj
 0001:00035640       ?composeDeclaration@UnDecorator@@CA?AVDName@@ABV2@@Z 10036640 f i libvcruntimed:undname.obj
 0001:00037560       ?dbGetString@DName@@QBEPADXZ 10038560 f   libvcruntimed:undname.obj
 0001:00037580       ?doAccessSpecifiers@UnDecorator@@SAHXZ 10038580 f i libvcruntimed:undname.obj
 0001:000375b0       ?doAllocationLanguage@UnDecorator@@SAHXZ 100385b0 f i libvcruntimed:undname.obj
 0001:000375e0       ?doAllocationModel@UnDecorator@@SAHXZ 100385e0 f i libvcruntimed:undname.obj
 0001:00037610       ?doEcsu@UnDecorator@@SAHXZ 10038610 f i libvcruntimed:undname.obj
 0001:00037640       ?doEllipsis@UnDecorator@@SAHXZ 10038640 f i libvcruntimed:undname.obj
 0001:00037670       ?doFunctionReturns@UnDecorator@@SAHXZ 10038670 f i libvcruntimed:undname.obj
 0001:000376a0       ?doMSKeywords@UnDecorator@@SAHXZ 100386a0 f i libvcruntimed:undname.obj
 0001:000376d0       ?doMemberTypes@UnDecorator@@SAHXZ 100386d0 f i libvcruntimed:undname.obj
 0001:00037700       ?doNameOnly@UnDecorator@@SAHXZ 10038700 f i libvcruntimed:undname.obj
 0001:00037710       ?doNoIdentCharCheck@UnDecorator@@SAHXZ 10038710 f i libvcruntimed:undname.obj
 0001:00037720       ?doPchar@DName@@AAEXPBDH@Z 10038720 f   libvcruntimed:undname.obj
 0001:00037860       ?doPtr64@UnDecorator@@SAHXZ 10038860 f i libvcruntimed:undname.obj
 0001:00037890       ?doRestrictionSpec@UnDecorator@@SAHXZ 10038890 f i libvcruntimed:undname.obj
 0001:000378c0       ?doThisTypes@UnDecorator@@SAHXZ 100388c0 f i libvcruntimed:undname.obj
 0001:000378f0       ?doThrowTypes@UnDecorator@@SAHXZ 100388f0 f i libvcruntimed:undname.obj
 0001:00037920       ?doTypeOnly@UnDecorator@@SAHXZ 10038920 f i libvcruntimed:undname.obj
 0001:00037930       ?doUnderScore@UnDecorator@@SAHXZ 10038930 f i libvcruntimed:undname.obj
 0001:00037960       ?getArgumentList@UnDecorator@@CA?AVDName@@XZ 10038960 f   libvcruntimed:undname.obj
 0001:00037ab0       ?getArgumentTypes@UnDecorator@@CA?AVDName@@XZ 10038ab0 f   libvcruntimed:undname.obj
 0001:00037c00       ?getArrayType@UnDecorator@@CA?AVDName@@ABV2@@Z 10038c00 f i libvcruntimed:undname.obj
 0001:00037e80       ?getBasedType@UnDecorator@@CA?AVDName@@XZ 10038e80 f   libvcruntimed:undname.obj
 0001:00037f50       ?getBasicDataType@UnDecorator@@CA?AVDName@@ABV2@@Z 10038f50 f   libvcruntimed:undname.obj
 0001:00038570       ?getCHPEName@UnDecorator@@QAEPADPADH@Z 10039570 f i libvcruntimed:undname.obj
 0001:000386d0       ?getCallIndex@UnDecorator@@CA?AVDName@@XZ 100396d0 f i libvcruntimed:undname.obj
 0001:000386f0       ?getCallingConvention@UnDecorator@@CA?AVDName@@XZ 100396f0 f   libvcruntimed:undname.obj
 0001:00038910       ?getDataIndirectType@UnDecorator@@CA?AVDName@@ABV2@PBD0H@Z 10039910 f   libvcruntimed:undname.obj
 0001:00039210       ?getDataIndirectType@UnDecorator@@CA?AVDName@@XZ 1003a210 f i libvcruntimed:undname.obj
 0001:00039250       ?getDataType@UnDecorator@@CA?AVDName@@PAV2@@Z 1003a250 f   libvcruntimed:undname.obj
 0001:00039370       ?getDecoratedName@UnDecorator@@CA?AVDName@@XZ 1003a370 f   libvcruntimed:undname.obj
 0001:000397a0       ?getDimension@UnDecorator@@CA?AVDName@@_N@Z 1003a7a0 f   libvcruntimed:undname.obj
 0001:00039a50       ?getDispatchTarget@UnDecorator@@CA?AVDName@@XZ 1003aa50 f   libvcruntimed:undname.obj
 0001:00039af0       ?getDisplacement@UnDecorator@@CA?AVDName@@XZ 1003aaf0 f i libvcruntimed:undname.obj
 0001:00039b10       ?getECSUDataType@UnDecorator@@CA?AVDName@@XZ 1003ab10 f   libvcruntimed:undname.obj
 0001:00039cf0       ?getECSUName@UnDecorator@@CA?AVDName@@XZ 1003acf0 f i libvcruntimed:undname.obj
 0001:00039d10       ?getEnumType@UnDecorator@@CA?AVDName@@XZ 1003ad10 f i libvcruntimed:undname.obj
 0001:00039e60       ?getExtendedDataIndirectType@UnDecorator@@CA?AVDName@@AAPBDAA_NH@Z 1003ae60 f   libvcruntimed:undname.obj
 0001:0003a0c0       ?getExternalDataType@UnDecorator@@CA?AVDName@@ABV2@@Z 1003b0c0 f i libvcruntimed:undname.obj
 0001:0003a160       ?getFunctionIndirectType@UnDecorator@@CA?AVDName@@ABV2@@Z 1003b160 f   libvcruntimed:undname.obj
 0001:0003a6b0       ?getGuardNumber@UnDecorator@@CA?AVDName@@XZ 1003b6b0 f i libvcruntimed:undname.obj
 0001:0003a6d0       ?getLastChar@DName@@QBEDXZ 1003b6d0 f i libvcruntimed:undname.obj
 0001:0003a710       ?getLastChar@DNameStatusNode@@UBEDXZ 1003b710 f i libvcruntimed:undname.obj
 0001:0003a740       ?getLastChar@charNode@@UBEDXZ 1003b740 f i libvcruntimed:undname.obj
 0001:0003a760       ?getLastChar@pDNameNode@@UBEDXZ 1003b760 f i libvcruntimed:undname.obj
 0001:0003a790       ?getLastChar@pairNode@@UBEDXZ 1003b790 f i libvcruntimed:undname.obj
 0001:0003a800       ?getLastChar@pcharNode@@UBEDXZ 1003b800 f i libvcruntimed:undname.obj
 0001:0003a840       ?getLexicalFrame@UnDecorator@@CA?AVDName@@XZ 1003b840 f i libvcruntimed:undname.obj
 0001:0003a880       ?getMemory@_HeapManager@@QAEPAXIH@Z 1003b880 f   libvcruntimed:undname.obj
 0001:0003a9a0       ?getNoexcept@UnDecorator@@CA?AVDName@@XZ 1003b9a0 f   libvcruntimed:undname.obj
 0001:0003aa10       ?getNumberOfDimensions@UnDecorator@@CAHXZ 1003ba10 f   libvcruntimed:undname.obj
 0001:0003ab10       ?getOperatorName@UnDecorator@@CA?AVDName@@_NPA_N@Z 1003bb10 f i libvcruntimed:undname.obj
 0001:0003b600       ?getPointerType@UnDecorator@@CA?AVDName@@ABV2@0@Z 1003c600 f i libvcruntimed:undname.obj
 0001:0003b630       ?getPointerTypeArray@UnDecorator@@CA?AVDName@@ABV2@0@Z 1003c630 f i libvcruntimed:undname.obj
 0001:0003b660       ?getPrimaryDataType@UnDecorator@@CA?AVDName@@ABV2@@Z 1003c660 f   libvcruntimed:undname.obj
 0001:0003ba60       ?getPtrRefDataType@UnDecorator@@CA?AVDName@@ABV2@H@Z 1003ca60 f   libvcruntimed:undname.obj
 0001:0003bc90       ?getPtrRefType@UnDecorator@@CA?AVDName@@ABV2@0PBD@Z 1003cc90 f   libvcruntimed:undname.obj
 0001:0003be00       ?getReferenceType@UnDecorator@@CA?AVDName@@ABV2@0PBD@Z 1003ce00 f i libvcruntimed:undname.obj
 0001:0003be20       ?getRestrictionSpec@UnDecorator@@CA?AVDName@@XZ 1003ce20 f   libvcruntimed:undname.obj
 0001:0003bfa0       ?getReturnType@UnDecorator@@CA?AVDName@@PAV2@@Z 1003cfa0 f   libvcruntimed:undname.obj
 0001:0003bff0       ?getScope@UnDecorator@@CA?AVDName@@XZ 1003cff0 f   libvcruntimed:undname.obj
 0001:0003c590       ?getScopedName@UnDecorator@@CA?AVDName@@XZ 1003d590 f   libvcruntimed:undname.obj
 0001:0003c6d0       ?getSignedDimension@UnDecorator@@CA?AVDName@@XZ 1003d6d0 f   libvcruntimed:undname.obj
 0001:0003c750       ?getStorageConvention@UnDecorator@@CA?AVDName@@XZ 1003d750 f i libvcruntimed:undname.obj
 0001:0003c770       ?getString@DName@@QBEPADPAD0@Z 1003d770 f i libvcruntimed:undname.obj
 0001:0003c7d0       ?getString@DName@@QBEPADPADH@Z 1003d7d0 f i libvcruntimed:undname.obj
 0001:0003c860       ?getString@DNameStatusNode@@UBEPADPAD0@Z 1003d860 f i libvcruntimed:undname.obj
 0001:0003c8a0       ?getString@charNode@@UBEPADPAD0@Z 1003d8a0 f i libvcruntimed:undname.obj
 0001:0003c8d0       ?getString@pDNameNode@@UBEPADPAD0@Z 1003d8d0 f i libvcruntimed:undname.obj
 0001:0003c910       ?getString@pairNode@@UBEPADPAD0@Z 1003d910 f i libvcruntimed:undname.obj
 0001:0003c9a0       ?getString@pcharNode@@UBEPADPAD0@Z 1003d9a0 f i libvcruntimed:undname.obj
 0001:0003c9d0       ?getStringEncoding@UnDecorator@@CA?AVDName@@PBDH@Z 1003d9d0 f   libvcruntimed:undname.obj
 0001:0003cae0       ?getStringHelper@@YAPADPADPBD1H@Z 1003dae0 f i libvcruntimed:undname.obj
 0001:0003cb20       ?getSymbolName@UnDecorator@@CA?AVDName@@XZ 1003db20 f i libvcruntimed:undname.obj
 0001:0003cbb0       ?getTemplateArgumentList@UnDecorator@@CA?AVDName@@XZ 1003dbb0 f   libvcruntimed:undname.obj
 0001:0003cfd0       ?getTemplateConstant@UnDecorator@@CA?AVDName@@XZ 1003dfd0 f   libvcruntimed:undname.obj
 0001:0003d5f0       ?getTemplateName@UnDecorator@@CA?AVDName@@_N@Z 1003e5f0 f   libvcruntimed:undname.obj
 0001:0003d7d0       ?getThisType@UnDecorator@@CA?AVDName@@XZ 1003e7d0 f i libvcruntimed:undname.obj
 0001:0003d810       ?getThrowTypes@UnDecorator@@CA?AVDName@@XZ 1003e810 f   libvcruntimed:undname.obj
 0001:0003d850       ?getTypeEncoding@UnDecorator@@CAHXZ 1003e850 f i libvcruntimed:undname.obj
 0001:0003e2e0       ?getUndecoratedName@UnDecorator@@QAEPADPADH@Z 1003f2e0 f i libvcruntimed:undname.obj
 0001:0003e430       ?getVCallThunkType@UnDecorator@@CA?AVDName@@XZ 1003f430 f i libvcruntimed:undname.obj
 0001:0003e490       ?getVbTableType@UnDecorator@@CA?AVDName@@ABV2@@Z 1003f490 f i libvcruntimed:undname.obj
 0001:0003e4b0       ?getVdispMapType@UnDecorator@@CA?AVDName@@ABV2@@Z 1003f4b0 f i libvcruntimed:undname.obj
 0001:0003e530       ?getVfTableType@UnDecorator@@CA?AVDName@@ABV2@@Z 1003f530 f i libvcruntimed:undname.obj
 0001:0003e710       ?getZName@UnDecorator@@CA?AVDName@@_N0@Z 1003f710 f   libvcruntimed:undname.obj
 0001:0003ea10       ?haveTemplateParameters@UnDecorator@@SAHXZ 1003fa10 f i libvcruntimed:undname.obj
 0001:0003ea20       ?isArray@DName@@QBEHXZ     1003fa20 f i libvcruntimed:undname.obj
 0001:0003ea40       ?isComArray@DName@@QBEHXZ  1003fa40 f i libvcruntimed:undname.obj
 0001:0003ea60       ?isEmpty@DName@@QBEHXZ     1003fa60 f i libvcruntimed:undname.obj
 0001:0003ea90       ?isFull@Replicator@@QBEHXZ 1003fa90 f i libvcruntimed:undname.obj
 0001:0003eac0       ?isNoTE@DName@@QBEHXZ      1003fac0 f i libvcruntimed:undname.obj
 0001:0003eae0       ?isPinPtr@DName@@QBEHXZ    1003fae0 f i libvcruntimed:undname.obj
 0001:0003eb00       ?isPtrRef@DName@@QBEHXZ    1003fb00 f i libvcruntimed:undname.obj
 0001:0003eb20       ?isUDC@DName@@QBEHXZ       1003fb20 f i libvcruntimed:undname.obj
 0001:0003eb60       ?isUDTThunk@DName@@QBEHXZ  1003fb60 f i libvcruntimed:undname.obj
 0001:0003eba0       ?isVCallThunk@DName@@QBEHXZ 1003fba0 f i libvcruntimed:undname.obj
 0001:0003ebc0       ?isValid@DName@@QBEHXZ     1003fbc0 f i libvcruntimed:undname.obj
 0001:0003ec00       ?length@DName@@QBEHXZ      1003fc00 f i libvcruntimed:undname.obj
 0001:0003ec40       ?length@DNameStatusNode@@UBEHXZ 1003fc40 f i libvcruntimed:undname.obj
 0001:0003ec60       ?length@charNode@@UBEHXZ   1003fc60 f i libvcruntimed:undname.obj
 0001:0003ec70       ?length@pDNameNode@@UBEHXZ 1003fc70 f i libvcruntimed:undname.obj
 0001:0003eca0       ?length@pairNode@@UBEHXZ   1003fca0 f i libvcruntimed:undname.obj
 0001:0003ed10       ?length@pcharNode@@UBEHXZ  1003fd10 f i libvcruntimed:undname.obj
 0001:0003ed30       ?make@DNameStatusNode@@SAPBV1@W4DNameStatus@@@Z 1003fd30 f i libvcruntimed:undname.obj
 0001:0003ed60       ?parseDecoratedName@UnDecorator@@CA?AVDName@@XZ 1003fd60 f   libvcruntimed:undname.obj
 0001:0003eef0       ?setIsArray@DName@@QAEXXZ  1003fef0 f i libvcruntimed:undname.obj
 0001:0003ef10       ?setIsComArray@DName@@QAEXXZ 1003ff10 f i libvcruntimed:undname.obj
 0001:0003ef30       ?setIsNoTE@DName@@QAEXXZ   1003ff30 f i libvcruntimed:undname.obj
 0001:0003ef50       ?setIsPinPtr@DName@@QAEXXZ 1003ff50 f i libvcruntimed:undname.obj
 0001:0003ef70       ?setIsUDC@DName@@QAEXXZ    1003ff70 f i libvcruntimed:undname.obj
 0001:0003efa0       ?setIsVCallThunk@DName@@QAEXXZ 1003ffa0 f i libvcruntimed:undname.obj
 0001:0003efc0       ?setPtrRef@DName@@QAEAAV1@XZ 1003ffc0 f i libvcruntimed:undname.obj
 0001:0003efe0       ?status@DName@@QBE?AW4DNameStatus@@XZ 1003ffe0 f i libvcruntimed:undname.obj
 0001:0003f0e0       ___unDName                 100400e0 f   libvcruntimed:undname.obj
 0001:0003f110       ___unDNameEx               10040110 f   libvcruntimed:undname.obj
 0001:0003f1e0       _unDNameGenerateCHPE       100401e0 f   libvcruntimed:undname.obj
 0001:0003f240       __global_unwind2           10040240 f   libvcruntimed:exsup.obj
 0001:0003f2a6       __local_unwind2            100402a6 f   libvcruntimed:exsup.obj
 0001:0003f32a       __abnormal_termination     1004032a f   libvcruntimed:exsup.obj
 0001:0003f350       __NLG_Notify1              10040350 f   libvcruntimed:exsup.obj
 0001:0003f35c       __NLG_Notify               1004035c f   libvcruntimed:exsup.obj
 0001:0003f373       __NLG_Dispatch2            10040373     libvcruntimed:exsup.obj
 0001:0003f373       __NLG_Dispatch             10040373     libvcruntimed:exsup.obj
 0001:0003f37b       __NLG_Call                 1004037b f   libvcruntimed:exsup.obj
 0001:0003f37d       __NLG_Return2              1004037d     libvcruntimed:exsup.obj
 0001:0003f3b0       __get_unexpected           100403b0 f   libvcruntimed:unexpected.obj
 0001:0003f3d0       _set_unexpected            100403d0 f   libvcruntimed:unexpected.obj
 0001:0003f400       _unexpected                10040400 f   libvcruntimed:unexpected.obj
 0001:0003f440       ?GetCurrentState@__FrameHandler3@@SAHPAUEHRegistrationNode@@PAXPBU_s_FuncInfo@@@Z 10040440 f   libvcruntimed:ehstate.obj
 0001:0003f470       ?SetState@__FrameHandler3@@SAXPAUEHRegistrationNode@@PBU_s_FuncInfo@@H@Z 10040470 f   libvcruntimed:ehstate.obj
 0001:0003f480       ___DestructExceptionObject 10040480 f   libvcruntimed:ehhelpers.obj
 0001:0003f5b0       ?_CallMemberFunction0@@YGXQAX0@Z 100405b0 f i libvcruntimed:ehhelpers.obj
 0001:0003f5d0       ?raw_name@type_info@@QBEPBDXZ 100405d0 f i libvcruntimed:ehhelpers.obj
 0001:0003f5f0       __IsExceptionObjectToBeDestroyed 100405f0 f   libvcruntimed:ehhelpers.obj
 0001:0003f630       __SetWinRTOutOfMemoryExceptionCallback 10040630 f   libvcruntimed:ehhelpers.obj
 0001:0003f640       ___AdjustPointer           10040640 f   libvcruntimed:ehhelpers.obj
 0001:0003f690       ___FrameUnwindFilter       10040690 f   libvcruntimed:ehhelpers.obj
 0001:0003f710       ___GetPlatformExceptionInfo 10040710 f   libvcruntimed:ehhelpers.obj
 0001:0003f790       ___current_exception       10040790 f   libvcruntimed:ehhelpers.obj
 0001:0003f7a0       ___current_exception_context 100407a0 f   libvcruntimed:ehhelpers.obj
 0001:0003f7b0       ___processing_throw        100407b0 f   libvcruntimed:ehhelpers.obj
 0001:0003f7c0       ___std_terminate           100407c0 f   libvcruntimed:ehhelpers.obj
 0001:0003f7d0       __is_exception_typeof      100407d0 f   libvcruntimed:ehhelpers.obj
 0001:0003f8b0       ??$?0ABV?$stream_output_adapter@D@__crt_stdio_output@@AB_KABQBDABQAU__crt_locale_pointers@@ABQAD@?$format_validation_base@DV?$stream_output_adapter@D@__crt_stdio_output@@@__crt_stdio_output@@IAE@ABV?$stream_output_adapter@D@1@AB_KABQBDABQAU__crt_locale_pointers@@ABQAD@Z 100408b0 f i libucrtd:output.obj
 0001:0003f8e0       ??$?0ABV?$stream_output_adapter@D@__crt_stdio_output@@AB_KABQBDABQAU__crt_locale_pointers@@ABQAD@?$positional_parameter_base@DV?$stream_output_adapter@D@__crt_stdio_output@@@__crt_stdio_output@@IAE@ABV?$stream_output_adapter@D@1@AB_KABQBDABQAU__crt_locale_pointers@@ABQAD@Z 100408e0 f i libucrtd:output.obj
 0001:0003f960       ??$?0ABV?$stream_output_adapter@D@__crt_stdio_output@@AB_KABQBDABQAU__crt_locale_pointers@@ABQAD@?$standard_base@DV?$stream_output_adapter@D@__crt_stdio_output@@@__crt_stdio_output@@IAE@ABV?$stream_output_adapter@D@1@AB_KABQBDABQAU__crt_locale_pointers@@ABQAD@Z 10040960 f i libucrtd:output.obj
 0001:0003f9b0       ??$?0ABV?$stream_output_adapter@_W@__crt_stdio_output@@AB_KABQB_WABQAU__crt_locale_pointers@@ABQAD@?$format_validation_base@_WV?$stream_output_adapter@_W@__crt_stdio_output@@@__crt_stdio_output@@IAE@ABV?$stream_output_adapter@_W@1@AB_KABQB_WABQAU__crt_locale_pointers@@ABQAD@Z 100409b0 f i libucrtd:output.obj
 0001:0003f9e0       ??$?0ABV?$stream_output_adapter@_W@__crt_stdio_output@@AB_KABQB_WABQAU__crt_locale_pointers@@ABQAD@?$positional_parameter_base@_WV?$stream_output_adapter@_W@__crt_stdio_output@@@__crt_stdio_output@@IAE@ABV?$stream_output_adapter@_W@1@AB_KABQB_WABQAU__crt_locale_pointers@@ABQAD@Z 100409e0 f i libucrtd:output.obj
 0001:0003fa60       ??$?0ABV?$stream_output_adapter@_W@__crt_stdio_output@@AB_KABQB_WABQAU__crt_locale_pointers@@ABQAD@?$standard_base@_WV?$stream_output_adapter@_W@__crt_stdio_output@@@__crt_stdio_output@@IAE@ABV?$stream_output_adapter@_W@1@AB_KABQB_WABQAU__crt_locale_pointers@@ABQAD@Z 10040a60 f i libucrtd:output.obj
 0001:0003fab0       ??$?0ABV?$string_output_adapter@D@__crt_stdio_output@@AB_KABQBDABQAU__crt_locale_pointers@@ABQAD@?$format_validation_base@DV?$string_output_adapter@D@__crt_stdio_output@@@__crt_stdio_output@@IAE@ABV?$string_output_adapter@D@1@AB_KABQBDABQAU__crt_locale_pointers@@ABQAD@Z 10040ab0 f i libucrtd:output.obj
 0001:0003fae0       ??$?0ABV?$string_output_adapter@D@__crt_stdio_output@@AB_KABQBDABQAU__crt_locale_pointers@@ABQAD@?$positional_parameter_base@DV?$string_output_adapter@D@__crt_stdio_output@@@__crt_stdio_output@@IAE@ABV?$string_output_adapter@D@1@AB_KABQBDABQAU__crt_locale_pointers@@ABQAD@Z 10040ae0 f i libucrtd:output.obj
 0001:0003fb60       ??$?0ABV?$string_output_adapter@D@__crt_stdio_output@@AB_KABQBDABQAU__crt_locale_pointers@@ABQAD@?$standard_base@DV?$string_output_adapter@D@__crt_stdio_output@@@__crt_stdio_output@@IAE@ABV?$string_output_adapter@D@1@AB_KABQBDABQAU__crt_locale_pointers@@ABQAD@Z 10040b60 f i libucrtd:output.obj
 0001:0003fbb0       ??$?0ABV?$string_output_adapter@_W@__crt_stdio_output@@AB_KABQB_WABQAU__crt_locale_pointers@@ABQAD@?$format_validation_base@_WV?$string_output_adapter@_W@__crt_stdio_output@@@__crt_stdio_output@@IAE@ABV?$string_output_adapter@_W@1@AB_KABQB_WABQAU__crt_locale_pointers@@ABQAD@Z 10040bb0 f i libucrtd:output.obj
 0001:0003fbe0       ??$?0ABV?$string_output_adapter@_W@__crt_stdio_output@@AB_KABQB_WABQAU__crt_locale_pointers@@ABQAD@?$positional_parameter_base@_WV?$string_output_adapter@_W@__crt_stdio_output@@@__crt_stdio_output@@IAE@ABV?$string_output_adapter@_W@1@AB_KABQB_WABQAU__crt_locale_pointers@@ABQAD@Z 10040be0 f i libucrtd:output.obj
 0001:0003fc60       ??$?0ABV?$string_output_adapter@_W@__crt_stdio_output@@AB_KABQB_WABQAU__crt_locale_pointers@@ABQAD@?$standard_base@_WV?$string_output_adapter@_W@__crt_stdio_output@@@__crt_stdio_output@@IAE@ABV?$string_output_adapter@_W@1@AB_KABQB_WABQAU__crt_locale_pointers@@ABQAD@Z 10040c60 f i libucrtd:output.obj
 0001:0003fcb0       ??$?RV<lambda_2293f24e3ce1ad6fe22ccfb9dec07671>@@AAV<lambda_2565fc715a641e539f44ad02d6823606>@@V<lambda_d3217f279b832965d9ca670dc2993570>@@@?$__crt_seh_guarded_call@H@@QAEH$$QAV<lambda_2293f24e3ce1ad6fe22ccfb9dec07671>@@AAV<lambda_2565fc715a641e539f44ad02d6823606>@@$$QAV<lambda_d3217f279b832965d9ca670dc2993570>@@@Z 10040cb0 f i libucrtd:output.obj
 0001:0003fd40       ??$?RV<lambda_4d4ac866be0fa3c441830420fabdd2cb>@@AAV<lambda_63a10c2dc8dbb9e4dd1890be52af7c93>@@V<lambda_002af9fa0f8fe472b648c51882d4fc32>@@@?$__crt_seh_guarded_call@H@@QAEH$$QAV<lambda_4d4ac866be0fa3c441830420fabdd2cb>@@AAV<lambda_63a10c2dc8dbb9e4dd1890be52af7c93>@@$$QAV<lambda_002af9fa0f8fe472b648c51882d4fc32>@@@Z 10040d40 f i libucrtd:output.obj
 0001:0003fdd0       ??$?RV<lambda_5be909dfbae0a631386585770cd7b676>@@AAV<lambda_e516058a9c289d98c8ca9fea99247804>@@V<lambda_afe2e0cdc5e0ecf6f0d6f5e2f8985e38>@@@?$__crt_seh_guarded_call@H@@QAEH$$QAV<lambda_5be909dfbae0a631386585770cd7b676>@@AAV<lambda_e516058a9c289d98c8ca9fea99247804>@@$$QAV<lambda_afe2e0cdc5e0ecf6f0d6f5e2f8985e38>@@@Z 10040dd0 f i libucrtd:output.obj
 0001:0003fe60       ??$?RV<lambda_823d65812123d985753d53e2a8c25d20>@@AAV<lambda_0a97c9e57da7be065955385c79108ff2>@@V<lambda_4d2973f3ad2d226f00468307185dca1b>@@@?$__crt_seh_guarded_call@H@@QAEH$$QAV<lambda_823d65812123d985753d53e2a8c25d20>@@AAV<lambda_0a97c9e57da7be065955385c79108ff2>@@$$QAV<lambda_4d2973f3ad2d226f00468307185dca1b>@@@Z 10040e60 f i libucrtd:output.obj
 0001:0003fef0       ??$?RV<lambda_ab9923ffb5d694ec0d78876dd103e44f>@@AAV<lambda_481dd5778c961fbcd3b60b650e9b9dc4>@@V<lambda_7923d86c9e3f319b415918ec4b39749c>@@@?$__crt_seh_guarded_call@H@@QAEH$$QAV<lambda_ab9923ffb5d694ec0d78876dd103e44f>@@AAV<lambda_481dd5778c961fbcd3b60b650e9b9dc4>@@$$QAV<lambda_7923d86c9e3f319b415918ec4b39749c>@@@Z 10040ef0 f i libucrtd:output.obj
 0001:0003ff80       ??$?RV<lambda_db08b09ef7aa9d4f8620ce68402612bc>@@AAV<lambda_4f2c1eaeead2a5fc776db5b62ea0fb9b>@@V<lambda_3ae262bc35d4ba6a3825c4f6bcaaf95c>@@@?$__crt_seh_guarded_call@H@@QAEH$$QAV<lambda_db08b09ef7aa9d4f8620ce68402612bc>@@AAV<lambda_4f2c1eaeead2a5fc776db5b62ea0fb9b>@@$$QAV<lambda_3ae262bc35d4ba6a3825c4f6bcaaf95c>@@@Z 10040f80 f i libucrtd:output.obj
 0001:00040010       ??$__acrt_lock_stream_and_call@V<lambda_0a97c9e57da7be065955385c79108ff2>@@@@YAHQAU_iobuf@@$$QAV<lambda_0a97c9e57da7be065955385c79108ff2>@@@Z 10041010 f i libucrtd:output.obj
 0001:00040050       ??$__acrt_lock_stream_and_call@V<lambda_2565fc715a641e539f44ad02d6823606>@@@@YAHQAU_iobuf@@$$QAV<lambda_2565fc715a641e539f44ad02d6823606>@@@Z 10041050 f i libucrtd:output.obj
 0001:00040090       ??$__acrt_lock_stream_and_call@V<lambda_481dd5778c961fbcd3b60b650e9b9dc4>@@@@YAHQAU_iobuf@@$$QAV<lambda_481dd5778c961fbcd3b60b650e9b9dc4>@@@Z 10041090 f i libucrtd:output.obj
 0001:000400d0       ??$__acrt_lock_stream_and_call@V<lambda_4f2c1eaeead2a5fc776db5b62ea0fb9b>@@@@YAHQAU_iobuf@@$$QAV<lambda_4f2c1eaeead2a5fc776db5b62ea0fb9b>@@@Z 100410d0 f i libucrtd:output.obj
 0001:00040110       ??$__acrt_lock_stream_and_call@V<lambda_63a10c2dc8dbb9e4dd1890be52af7c93>@@@@YAHQAU_iobuf@@$$QAV<lambda_63a10c2dc8dbb9e4dd1890be52af7c93>@@@Z 10041110 f i libucrtd:output.obj
 0001:00040150       ??$__acrt_lock_stream_and_call@V<lambda_e516058a9c289d98c8ca9fea99247804>@@@@YAHQAU_iobuf@@$$QAV<lambda_e516058a9c289d98c8ca9fea99247804>@@@Z 10041150 f i libucrtd:output.obj
 0001:00040190       ??$__crt_interlocked_read@J@@YAJPDJ@Z 10041190 f i libucrtd:output.obj
 0001:00042f30       ??$count@D@formatting_buffer@__crt_stdio_output@@QBEIXZ 10043f30 f i libucrtd:output.obj
 0001:00042f70       ??$data@D@formatting_buffer@__crt_stdio_output@@QAEPADXZ 10043f70 f i libucrtd:output.obj
 0001:00042fb0       ??$data@_W@formatting_buffer@__crt_stdio_output@@QAEPA_WXZ 10043fb0 f i libucrtd:output.obj
 0001:00042ff0       ??$ensure_buffer_is_big_enough@D@formatting_buffer@__crt_stdio_output@@QAE_NI@Z 10043ff0 f i libucrtd:output.obj
 0001:000430d0       ??$extract_argument_from_va_list@C_J@?$positional_parameter_base@DV?$stream_output_adapter@D@__crt_stdio_output@@@__crt_stdio_output@@IAE_NAA_J@Z 100440d0 f i libucrtd:output.obj
 0001:00043210       ??$extract_argument_from_va_list@C_J@?$positional_parameter_base@DV?$string_output_adapter@D@__crt_stdio_output@@@__crt_stdio_output@@IAE_NAA_J@Z 10044210 f i libucrtd:output.obj
 0001:00043350       ??$extract_argument_from_va_list@C_J@?$positional_parameter_base@_WV?$stream_output_adapter@_W@__crt_stdio_output@@@__crt_stdio_output@@IAE_NAA_J@Z 10044350 f i libucrtd:output.obj
 0001:00043490       ??$extract_argument_from_va_list@C_J@?$positional_parameter_base@_WV?$string_output_adapter@_W@__crt_stdio_output@@@__crt_stdio_output@@IAE_NAA_J@Z 10044490 f i libucrtd:output.obj
 0001:000435d0       ??$extract_argument_from_va_list@C_J@?$standard_base@DV?$stream_output_adapter@D@__crt_stdio_output@@@__crt_stdio_output@@IAE_NAA_J@Z 100445d0 f i libucrtd:output.obj
 0001:00043600       ??$extract_argument_from_va_list@C_J@?$standard_base@DV?$string_output_adapter@D@__crt_stdio_output@@@__crt_stdio_output@@IAE_NAA_J@Z 10044600 f i libucrtd:output.obj
 0001:00043630       ??$extract_argument_from_va_list@C_J@?$standard_base@_WV?$stream_output_adapter@_W@__crt_stdio_output@@@__crt_stdio_output@@IAE_NAA_J@Z 10044630 f i libucrtd:output.obj
 0001:00043660       ??$extract_argument_from_va_list@C_J@?$standard_base@_WV?$string_output_adapter@_W@__crt_stdio_output@@@__crt_stdio_output@@IAE_NAA_J@Z 10044660 f i libucrtd:output.obj
 0001:00043690       ??$extract_argument_from_va_list@E_J@?$positional_parameter_base@DV?$stream_output_adapter@D@__crt_stdio_output@@@__crt_stdio_output@@IAE_NAA_J@Z 10044690 f i libucrtd:output.obj
 0001:000437d0       ??$extract_argument_from_va_list@E_J@?$positional_parameter_base@DV?$string_output_adapter@D@__crt_stdio_output@@@__crt_stdio_output@@IAE_NAA_J@Z 100447d0 f i libucrtd:output.obj
 0001:00043910       ??$extract_argument_from_va_list@E_J@?$positional_parameter_base@_WV?$stream_output_adapter@_W@__crt_stdio_output@@@__crt_stdio_output@@IAE_NAA_J@Z 10044910 f i libucrtd:output.obj
 0001:00043a50       ??$extract_argument_from_va_list@E_J@?$positional_parameter_base@_WV?$string_output_adapter@_W@__crt_stdio_output@@@__crt_stdio_output@@IAE_NAA_J@Z 10044a50 f i libucrtd:output.obj
 0001:00043b90       ??$extract_argument_from_va_list@E_J@?$standard_base@DV?$stream_output_adapter@D@__crt_stdio_output@@@__crt_stdio_output@@IAE_NAA_J@Z 10044b90 f i libucrtd:output.obj
 0001:00043bc0       ??$extract_argument_from_va_list@E_J@?$standard_base@DV?$string_output_adapter@D@__crt_stdio_output@@@__crt_stdio_output@@IAE_NAA_J@Z 10044bc0 f i libucrtd:output.obj
 0001:00043bf0       ??$extract_argument_from_va_list@E_J@?$standard_base@_WV?$stream_output_adapter@_W@__crt_stdio_output@@@__crt_stdio_output@@IAE_NAA_J@Z 10044bf0 f i libucrtd:output.obj
 0001:00043c20       ??$extract_argument_from_va_list@E_J@?$standard_base@_WV?$string_output_adapter@_W@__crt_stdio_output@@@__crt_stdio_output@@IAE_NAA_J@Z 10044c20 f i libucrtd:output.obj
 0001:00043c50       ??$extract_argument_from_va_list@F_J@?$positional_parameter_base@DV?$stream_output_adapter@D@__crt_stdio_output@@@__crt_stdio_output@@IAE_NAA_J@Z 10044c50 f i libucrtd:output.obj
 0001:00043d80       ??$extract_argument_from_va_list@F_J@?$positional_parameter_base@DV?$string_output_adapter@D@__crt_stdio_output@@@__crt_stdio_output@@IAE_NAA_J@Z 10044d80 f i libucrtd:output.obj
 0001:00043eb0       ??$extract_argument_from_va_list@F_J@?$positional_parameter_base@_WV?$stream_output_adapter@_W@__crt_stdio_output@@@__crt_stdio_output@@IAE_NAA_J@Z 10044eb0 f i libucrtd:output.obj
 0001:00043fe0       ??$extract_argument_from_va_list@F_J@?$positional_parameter_base@_WV?$string_output_adapter@_W@__crt_stdio_output@@@__crt_stdio_output@@IAE_NAA_J@Z 10044fe0 f i libucrtd:output.obj
 0001:00044110       ??$extract_argument_from_va_list@F_J@?$standard_base@DV?$stream_output_adapter@D@__crt_stdio_output@@@__crt_stdio_output@@IAE_NAA_J@Z 10045110 f i libucrtd:output.obj
 0001:00044140       ??$extract_argument_from_va_list@F_J@?$standard_base@DV?$string_output_adapter@D@__crt_stdio_output@@@__crt_stdio_output@@IAE_NAA_J@Z 10045140 f i libucrtd:output.obj
 0001:00044170       ??$extract_argument_from_va_list@F_J@?$standard_base@_WV?$stream_output_adapter@_W@__crt_stdio_output@@@__crt_stdio_output@@IAE_NAA_J@Z 10045170 f i libucrtd:output.obj
 0001:000441a0       ??$extract_argument_from_va_list@F_J@?$standard_base@_WV?$string_output_adapter@_W@__crt_stdio_output@@@__crt_stdio_output@@IAE_NAA_J@Z 100451a0 f i libucrtd:output.obj
 0001:000441d0       ??$extract_argument_from_va_list@GD@?$positional_parameter_base@DV?$stream_output_adapter@D@__crt_stdio_output@@@__crt_stdio_output@@IAE_NAAD@Z 100451d0 f i libucrtd:output.obj
 0001:00044300       ??$extract_argument_from_va_list@GD@?$positional_parameter_base@DV?$string_output_adapter@D@__crt_stdio_output@@@__crt_stdio_output@@IAE_NAAD@Z 10045300 f i libucrtd:output.obj
 0001:00044430       ??$extract_argument_from_va_list@GD@?$standard_base@DV?$stream_output_adapter@D@__crt_stdio_output@@@__crt_stdio_output@@IAE_NAAD@Z 10045430 f i libucrtd:output.obj
 0001:00044460       ??$extract_argument_from_va_list@GD@?$standard_base@DV?$string_output_adapter@D@__crt_stdio_output@@@__crt_stdio_output@@IAE_NAAD@Z 10045460 f i libucrtd:output.obj
 0001:00044490       ??$extract_argument_from_va_list@G_J@?$positional_parameter_base@DV?$stream_output_adapter@D@__crt_stdio_output@@@__crt_stdio_output@@IAE_NAA_J@Z 10045490 f i libucrtd:output.obj
 0001:000445d0       ??$extract_argument_from_va_list@G_J@?$positional_parameter_base@DV?$string_output_adapter@D@__crt_stdio_output@@@__crt_stdio_output@@IAE_NAA_J@Z 100455d0 f i libucrtd:output.obj
 0001:00044710       ??$extract_argument_from_va_list@G_J@?$positional_parameter_base@_WV?$stream_output_adapter@_W@__crt_stdio_output@@@__crt_stdio_output@@IAE_NAA_J@Z 10045710 f i libucrtd:output.obj
 0001:00044850       ??$extract_argument_from_va_list@G_J@?$positional_parameter_base@_WV?$string_output_adapter@_W@__crt_stdio_output@@@__crt_stdio_output@@IAE_NAA_J@Z 10045850 f i libucrtd:output.obj
 0001:00044990       ??$extract_argument_from_va_list@G_J@?$standard_base@DV?$stream_output_adapter@D@__crt_stdio_output@@@__crt_stdio_output@@IAE_NAA_J@Z 10045990 f i libucrtd:output.obj
 0001:000449c0       ??$extract_argument_from_va_list@G_J@?$standard_base@DV?$string_output_adapter@D@__crt_stdio_output@@@__crt_stdio_output@@IAE_NAA_J@Z 100459c0 f i libucrtd:output.obj
 0001:000449f0       ??$extract_argument_from_va_list@G_J@?$standard_base@_WV?$stream_output_adapter@_W@__crt_stdio_output@@@__crt_stdio_output@@IAE_NAA_J@Z 100459f0 f i libucrtd:output.obj
 0001:00044a20       ??$extract_argument_from_va_list@G_J@?$standard_base@_WV?$string_output_adapter@_W@__crt_stdio_output@@@__crt_stdio_output@@IAE_NAA_J@Z 10045a20 f i libucrtd:output.obj
 0001:00044a50       ??$extract_argument_from_va_list@H_J@?$positional_parameter_base@DV?$stream_output_adapter@D@__crt_stdio_output@@@__crt_stdio_output@@IAE_NAA_J@Z 10045a50 f i libucrtd:output.obj
 0001:00044b80       ??$extract_argument_from_va_list@H_J@?$positional_parameter_base@DV?$string_output_adapter@D@__crt_stdio_output@@@__crt_stdio_output@@IAE_NAA_J@Z 10045b80 f i libucrtd:output.obj
 0001:00044cb0       ??$extract_argument_from_va_list@H_J@?$positional_parameter_base@_WV?$stream_output_adapter@_W@__crt_stdio_output@@@__crt_stdio_output@@IAE_NAA_J@Z 10045cb0 f i libucrtd:output.obj
 0001:00044de0       ??$extract_argument_from_va_list@H_J@?$positional_parameter_base@_WV?$string_output_adapter@_W@__crt_stdio_output@@@__crt_stdio_output@@IAE_NAA_J@Z 10045de0 f i libucrtd:output.obj
 0001:00044f10       ??$extract_argument_from_va_list@H_J@?$standard_base@DV?$stream_output_adapter@D@__crt_stdio_output@@@__crt_stdio_output@@IAE_NAA_J@Z 10045f10 f i libucrtd:output.obj
 0001:00044f40       ??$extract_argument_from_va_list@H_J@?$standard_base@DV?$string_output_adapter@D@__crt_stdio_output@@@__crt_stdio_output@@IAE_NAA_J@Z 10045f40 f i libucrtd:output.obj
 0001:00044f70       ??$extract_argument_from_va_list@H_J@?$standard_base@_WV?$stream_output_adapter@_W@__crt_stdio_output@@@__crt_stdio_output@@IAE_NAA_J@Z 10045f70 f i libucrtd:output.obj
 0001:00044fa0       ??$extract_argument_from_va_list@H_J@?$standard_base@_WV?$string_output_adapter@_W@__crt_stdio_output@@@__crt_stdio_output@@IAE_NAA_J@Z 10045fa0 f i libucrtd:output.obj
 0001:00044fd0       ??$extract_argument_from_va_list@I_J@?$positional_parameter_base@DV?$stream_output_adapter@D@__crt_stdio_output@@@__crt_stdio_output@@IAE_NAA_J@Z 10045fd0 f i libucrtd:output.obj
 0001:00045100       ??$extract_argument_from_va_list@I_J@?$positional_parameter_base@DV?$string_output_adapter@D@__crt_stdio_output@@@__crt_stdio_output@@IAE_NAA_J@Z 10046100 f i libucrtd:output.obj
 0001:00045230       ??$extract_argument_from_va_list@I_J@?$positional_parameter_base@_WV?$stream_output_adapter@_W@__crt_stdio_output@@@__crt_stdio_output@@IAE_NAA_J@Z 10046230 f i libucrtd:output.obj
 0001:00045360       ??$extract_argument_from_va_list@I_J@?$positional_parameter_base@_WV?$string_output_adapter@_W@__crt_stdio_output@@@__crt_stdio_output@@IAE_NAA_J@Z 10046360 f i libucrtd:output.obj
 0001:00045490       ??$extract_argument_from_va_list@I_J@?$standard_base@DV?$stream_output_adapter@D@__crt_stdio_output@@@__crt_stdio_output@@IAE_NAA_J@Z 10046490 f i libucrtd:output.obj
 0001:000454c0       ??$extract_argument_from_va_list@I_J@?$standard_base@DV?$string_output_adapter@D@__crt_stdio_output@@@__crt_stdio_output@@IAE_NAA_J@Z 100464c0 f i libucrtd:output.obj
 0001:000454f0       ??$extract_argument_from_va_list@I_J@?$standard_base@_WV?$stream_output_adapter@_W@__crt_stdio_output@@@__crt_stdio_output@@IAE_NAA_J@Z 100464f0 f i libucrtd:output.obj
 0001:00045520       ??$extract_argument_from_va_list@I_J@?$standard_base@_WV?$string_output_adapter@_W@__crt_stdio_output@@@__crt_stdio_output@@IAE_NAA_J@Z 10046520 f i libucrtd:output.obj
 0001:00045550       ??$extract_argument_from_va_list@PADPAD@?$positional_parameter_base@DV?$stream_output_adapter@D@__crt_stdio_output@@@__crt_stdio_output@@IAE_NAAPAD@Z 10046550 f i libucrtd:output.obj
 0001:00045680       ??$extract_argument_from_va_list@PADPAD@?$positional_parameter_base@DV?$string_output_adapter@D@__crt_stdio_output@@@__crt_stdio_output@@IAE_NAAPAD@Z 10046680 f i libucrtd:output.obj
 0001:000457b0       ??$extract_argument_from_va_list@PADPAD@?$positional_parameter_base@_WV?$stream_output_adapter@_W@__crt_stdio_output@@@__crt_stdio_output@@IAE_NAAPAD@Z 100467b0 f i libucrtd:output.obj
 0001:000458e0       ??$extract_argument_from_va_list@PADPAD@?$positional_parameter_base@_WV?$string_output_adapter@_W@__crt_stdio_output@@@__crt_stdio_output@@IAE_NAAPAD@Z 100468e0 f i libucrtd:output.obj
 0001:00045a10       ??$extract_argument_from_va_list@PADPAD@?$standard_base@DV?$stream_output_adapter@D@__crt_stdio_output@@@__crt_stdio_output@@IAE_NAAPAD@Z 10046a10 f i libucrtd:output.obj
 0001:00045a40       ??$extract_argument_from_va_list@PADPAD@?$standard_base@DV?$string_output_adapter@D@__crt_stdio_output@@@__crt_stdio_output@@IAE_NAAPAD@Z 10046a40 f i libucrtd:output.obj
 0001:00045a70       ??$extract_argument_from_va_list@PADPAD@?$standard_base@_WV?$stream_output_adapter@_W@__crt_stdio_output@@@__crt_stdio_output@@IAE_NAAPAD@Z 10046a70 f i libucrtd:output.obj
 0001:00045aa0       ??$extract_argument_from_va_list@PADPAD@?$standard_base@_WV?$string_output_adapter@_W@__crt_stdio_output@@@__crt_stdio_output@@IAE_NAAPAD@Z 10046aa0 f i libucrtd:output.obj
 0001:00045ad0       ??$extract_argument_from_va_list@PAUansi_string@?1??type_case_Z@?$output_processor@DV?$stream_output_adapter@D@__crt_stdio_output@@V?$format_validation_base@DV?$stream_output_adapter@D@__crt_stdio_output@@@2@@__crt_stdio_output@@AAE_NXZ@PAU1?1??234@AAE_NXZ@@?$standard_base@DV?$stream_output_adapter@D@__crt_stdio_output@@@__crt_stdio_output@@IAE_NAAPAUansi_string@?1??type_case_Z@?$output_processor@DV?$stream_output_adapter@D@__crt_stdio_output@@V?$format_validation_base@DV?$stream_output_adapter@D@__crt_stdio_output@@@2@@1@AAE_NXZ@@Z 10046ad0 f i libucrtd:output.obj
 0001:00045b00       ??$extract_argument_from_va_list@PAUansi_string@?1??type_case_Z@?$output_processor@DV?$stream_output_adapter@D@__crt_stdio_output@@V?$positional_parameter_base@DV?$stream_output_adapter@D@__crt_stdio_output@@@2@@__crt_stdio_output@@AAE_NXZ@PAU1?1??234@AAE_NXZ@@?$positional_parameter_base@DV?$stream_output_adapter@D@__crt_stdio_output@@@__crt_stdio_output@@IAE_NAAPAUansi_string@?1??type_case_Z@?$output_processor@DV?$stream_output_adapter@D@__crt_stdio_output@@V?$positional_parameter_base@DV?$stream_output_adapter@D@__crt_stdio_output@@@2@@1@AAE_NXZ@@Z 10046b00 f i libucrtd:output.obj
 0001:00045c30       ??$extract_argument_from_va_list@PAUansi_string@?1??type_case_Z@?$output_processor@DV?$stream_output_adapter@D@__crt_stdio_output@@V?$positional_parameter_base@DV?$stream_output_adapter@D@__crt_stdio_output@@@2@@__crt_stdio_output@@AAE_NXZ@PAU1?1??234@AAE_NXZ@@?$standard_base@DV?$stream_output_adapter@D@__crt_stdio_output@@@__crt_stdio_output@@IAE_NAAPAUansi_string@?1??type_case_Z@?$output_processor@DV?$stream_output_adapter@D@__crt_stdio_output@@V?$positional_parameter_base@DV?$stream_output_adapter@D@__crt_stdio_output@@@2@@1@AAE_NXZ@@Z 10046c30 f i libucrtd:output.obj
 0001:00045c60       ??$extract_argument_from_va_list@PAUansi_string@?1??type_case_Z@?$output_processor@DV?$stream_output_adapter@D@__crt_stdio_output@@V?$standard_base@DV?$stream_output_adapter@D@__crt_stdio_output@@@2@@__crt_stdio_output@@AAE_NXZ@PAU1?1??234@AAE_NXZ@@?$standard_base@DV?$stream_output_adapter@D@__crt_stdio_output@@@__crt_stdio_output@@IAE_NAAPAUansi_string@?1??type_case_Z@?$output_processor@DV?$stream_output_adapter@D@__crt_stdio_output@@V?$standard_base@DV?$stream_output_adapter@D@__crt_stdio_output@@@2@@1@AAE_NXZ@@Z 10046c60 f i libucrtd:output.obj
 0001:00045c90       ??$extract_argument_from_va_list@PAUansi_string@?1??type_case_Z@?$output_processor@DV?$string_output_adapter@D@__crt_stdio_output@@V?$format_validation_base@DV?$string_output_adapter@D@__crt_stdio_output@@@2@@__crt_stdio_output@@AAE_NXZ@PAU1?1??234@AAE_NXZ@@?$standard_base@DV?$string_output_adapter@D@__crt_stdio_output@@@__crt_stdio_output@@IAE_NAAPAUansi_string@?1??type_case_Z@?$output_processor@DV?$string_output_adapter@D@__crt_stdio_output@@V?$format_validation_base@DV?$string_output_adapter@D@__crt_stdio_output@@@2@@1@AAE_NXZ@@Z 10046c90 f i libucrtd:output.obj
 0001:00045cc0       ??$extract_argument_from_va_list@PAUansi_string@?1??type_case_Z@?$output_processor@DV?$string_output_adapter@D@__crt_stdio_output@@V?$positional_parameter_base@DV?$string_output_adapter@D@__crt_stdio_output@@@2@@__crt_stdio_output@@AAE_NXZ@PAU1?1??234@AAE_NXZ@@?$positional_parameter_base@DV?$string_output_adapter@D@__crt_stdio_output@@@__crt_stdio_output@@IAE_NAAPAUansi_string@?1??type_case_Z@?$output_processor@DV?$string_output_adapter@D@__crt_stdio_output@@V?$positional_parameter_base@DV?$string_output_adapter@D@__crt_stdio_output@@@2@@1@AAE_NXZ@@Z 10046cc0 f i libucrtd:output.obj
 0001:00045df0       ??$extract_argument_from_va_list@PAUansi_string@?1??type_case_Z@?$output_processor@DV?$string_output_adapter@D@__crt_stdio_output@@V?$positional_parameter_base@DV?$string_output_adapter@D@__crt_stdio_output@@@2@@__crt_stdio_output@@AAE_NXZ@PAU1?1??234@AAE_NXZ@@?$standard_base@DV?$string_output_adapter@D@__crt_stdio_output@@@__crt_stdio_output@@IAE_NAAPAUansi_string@?1??type_case_Z@?$output_processor@DV?$string_output_adapter@D@__crt_stdio_output@@V?$positional_parameter_base@DV?$string_output_adapter@D@__crt_stdio_output@@@2@@1@AAE_NXZ@@Z 10046df0 f i libucrtd:output.obj
 0001:00045e20       ??$extract_argument_from_va_list@PAUansi_string@?1??type_case_Z@?$output_processor@DV?$string_output_adapter@D@__crt_stdio_output@@V?$standard_base@DV?$string_output_adapter@D@__crt_stdio_output@@@2@@__crt_stdio_output@@AAE_NXZ@PAU1?1??234@AAE_NXZ@@?$standard_base@DV?$string_output_adapter@D@__crt_stdio_output@@@__crt_stdio_output@@IAE_NAAPAUansi_string@?1??type_case_Z@?$output_processor@DV?$string_output_adapter@D@__crt_stdio_output@@V?$standard_base@DV?$string_output_adapter@D@__crt_stdio_output@@@2@@1@AAE_NXZ@@Z 10046e20 f i libucrtd:output.obj
 0001:00045e50       ??$extract_argument_from_va_list@PAUansi_string@?1??type_case_Z@?$output_processor@_WV?$stream_output_adapter@_W@__crt_stdio_output@@V?$format_validation_base@_WV?$stream_output_adapter@_W@__crt_stdio_output@@@2@@__crt_stdio_output@@AAE_NXZ@PAU1?1??234@AAE_NXZ@@?$standard_base@_WV?$stream_output_adapter@_W@__crt_stdio_output@@@__crt_stdio_output@@IAE_NAAPAUansi_string@?1??type_case_Z@?$output_processor@_WV?$stream_output_adapter@_W@__crt_stdio_output@@V?$format_validation_base@_WV?$stream_output_adapter@_W@__crt_stdio_output@@@2@@1@AAE_NXZ@@Z 10046e50 f i libucrtd:output.obj
 0001:00045e80       ??$extract_argument_from_va_list@PAUansi_string@?1??type_case_Z@?$output_processor@_WV?$stream_output_adapter@_W@__crt_stdio_output@@V?$positional_parameter_base@_WV?$stream_output_adapter@_W@__crt_stdio_output@@@2@@__crt_stdio_output@@AAE_NXZ@PAU1?1??234@AAE_NXZ@@?$positional_parameter_base@_WV?$stream_output_adapter@_W@__crt_stdio_output@@@__crt_stdio_output@@IAE_NAAPAUansi_string@?1??type_case_Z@?$output_processor@_WV?$stream_output_adapter@_W@__crt_stdio_output@@V?$positional_parameter_base@_WV?$stream_output_adapter@_W@__crt_stdio_output@@@2@@1@AAE_NXZ@@Z 10046e80 f i libucrtd:output.obj
 0001:00045fb0       ??$extract_argument_from_va_list@PAUansi_string@?1??type_case_Z@?$output_processor@_WV?$stream_output_adapter@_W@__crt_stdio_output@@V?$positional_parameter_base@_WV?$stream_output_adapter@_W@__crt_stdio_output@@@2@@__crt_stdio_output@@AAE_NXZ@PAU1?1??234@AAE_NXZ@@?$standard_base@_WV?$stream_output_adapter@_W@__crt_stdio_output@@@__crt_stdio_output@@IAE_NAAPAUansi_string@?1??type_case_Z@?$output_processor@_WV?$stream_output_adapter@_W@__crt_stdio_output@@V?$positional_parameter_base@_WV?$stream_output_adapter@_W@__crt_stdio_output@@@2@@1@AAE_NXZ@@Z 10046fb0 f i libucrtd:output.obj
 0001:00045fe0       ??$extract_argument_from_va_list@PAUansi_string@?1??type_case_Z@?$output_processor@_WV?$stream_output_adapter@_W@__crt_stdio_output@@V?$standard_base@_WV?$stream_output_adapter@_W@__crt_stdio_output@@@2@@__crt_stdio_output@@AAE_NXZ@PAU1?1??234@AAE_NXZ@@?$standard_base@_WV?$stream_output_adapter@_W@__crt_stdio_output@@@__crt_stdio_output@@IAE_NAAPAUansi_string@?1??type_case_Z@?$output_processor@_WV?$stream_output_adapter@_W@__crt_stdio_output@@V?$standard_base@_WV?$stream_output_adapter@_W@__crt_stdio_output@@@2@@1@AAE_NXZ@@Z 10046fe0 f i libucrtd:output.obj
 0001:00046010       ??$extract_argument_from_va_list@PAUansi_string@?1??type_case_Z@?$output_processor@_WV?$string_output_adapter@_W@__crt_stdio_output@@V?$format_validation_base@_WV?$string_output_adapter@_W@__crt_stdio_output@@@2@@__crt_stdio_output@@AAE_NXZ@PAU1?1??234@AAE_NXZ@@?$standard_base@_WV?$string_output_adapter@_W@__crt_stdio_output@@@__crt_stdio_output@@IAE_NAAPAUansi_string@?1??type_case_Z@?$output_processor@_WV?$string_output_adapter@_W@__crt_stdio_output@@V?$format_validation_base@_WV?$string_output_adapter@_W@__crt_stdio_output@@@2@@1@AAE_NXZ@@Z 10047010 f i libucrtd:output.obj
 0001:00046040       ??$extract_argument_from_va_list@PAUansi_string@?1??type_case_Z@?$output_processor@_WV?$string_output_adapter@_W@__crt_stdio_output@@V?$positional_parameter_base@_WV?$string_output_adapter@_W@__crt_stdio_output@@@2@@__crt_stdio_output@@AAE_NXZ@PAU1?1??234@AAE_NXZ@@?$positional_parameter_base@_WV?$string_output_adapter@_W@__crt_stdio_output@@@__crt_stdio_output@@IAE_NAAPAUansi_string@?1??type_case_Z@?$output_processor@_WV?$string_output_adapter@_W@__crt_stdio_output@@V?$positional_parameter_base@_WV?$string_output_adapter@_W@__crt_stdio_output@@@2@@1@AAE_NXZ@@Z 10047040 f i libucrtd:output.obj
 0001:00046170       ??$extract_argument_from_va_list@PAUansi_string@?1??type_case_Z@?$output_processor@_WV?$string_output_adapter@_W@__crt_stdio_output@@V?$positional_parameter_base@_WV?$string_output_adapter@_W@__crt_stdio_output@@@2@@__crt_stdio_output@@AAE_NXZ@PAU1?1??234@AAE_NXZ@@?$standard_base@_WV?$string_output_adapter@_W@__crt_stdio_output@@@__crt_stdio_output@@IAE_NAAPAUansi_string@?1??type_case_Z@?$output_processor@_WV?$string_output_adapter@_W@__crt_stdio_output@@V?$positional_parameter_base@_WV?$string_output_adapter@_W@__crt_stdio_output@@@2@@1@AAE_NXZ@@Z 10047170 f i libucrtd:output.obj
 0001:000461a0       ??$extract_argument_from_va_list@PAUansi_string@?1??type_case_Z@?$output_processor@_WV?$string_output_adapter@_W@__crt_stdio_output@@V?$standard_base@_WV?$string_output_adapter@_W@__crt_stdio_output@@@2@@__crt_stdio_output@@AAE_NXZ@PAU1?1??234@AAE_NXZ@@?$standard_base@_WV?$string_output_adapter@_W@__crt_stdio_output@@@__crt_stdio_output@@IAE_NAAPAUansi_string@?1??type_case_Z@?$output_processor@_WV?$string_output_adapter@_W@__crt_stdio_output@@V?$standard_base@_WV?$string_output_adapter@_W@__crt_stdio_output@@@2@@1@AAE_NXZ@@Z 100471a0 f i libucrtd:output.obj
 0001:000461d0       ??$extract_argument_from_va_list@PAXPAX@?$positional_parameter_base@DV?$stream_output_adapter@D@__crt_stdio_output@@@__crt_stdio_output@@IAE_NAAPAX@Z 100471d0 f i libucrtd:output.obj
 0001:00046300       ??$extract_argument_from_va_list@PAXPAX@?$positional_parameter_base@DV?$string_output_adapter@D@__crt_stdio_output@@@__crt_stdio_output@@IAE_NAAPAX@Z 10047300 f i libucrtd:output.obj
 0001:00046430       ??$extract_argument_from_va_list@PAXPAX@?$positional_parameter_base@_WV?$stream_output_adapter@_W@__crt_stdio_output@@@__crt_stdio_output@@IAE_NAAPAX@Z 10047430 f i libucrtd:output.obj
 0001:00046560       ??$extract_argument_from_va_list@PAXPAX@?$positional_parameter_base@_WV?$string_output_adapter@_W@__crt_stdio_output@@@__crt_stdio_output@@IAE_NAAPAX@Z 10047560 f i libucrtd:output.obj
 0001:00046690       ??$extract_argument_from_va_list@PAXPAX@?$standard_base@DV?$stream_output_adapter@D@__crt_stdio_output@@@__crt_stdio_output@@IAE_NAAPAX@Z 10047690 f i libucrtd:output.obj
 0001:000466c0       ??$extract_argument_from_va_list@PAXPAX@?$standard_base@DV?$string_output_adapter@D@__crt_stdio_output@@@__crt_stdio_output@@IAE_NAAPAX@Z 100476c0 f i libucrtd:output.obj
 0001:000466f0       ??$extract_argument_from_va_list@PAXPAX@?$standard_base@_WV?$stream_output_adapter@_W@__crt_stdio_output@@@__crt_stdio_output@@IAE_NAAPAX@Z 100476f0 f i libucrtd:output.obj
 0001:00046720       ??$extract_argument_from_va_list@PAXPAX@?$standard_base@_WV?$string_output_adapter@_W@__crt_stdio_output@@@__crt_stdio_output@@IAE_NAAPAX@Z 10047720 f i libucrtd:output.obj
 0001:00046750       ??$extract_argument_from_va_list@U_CRT_DOUBLE@@U1@@?$positional_parameter_base@DV?$stream_output_adapter@D@__crt_stdio_output@@@__crt_stdio_output@@IAE_NAAU_CRT_DOUBLE@@@Z 10047750 f i libucrtd:output.obj
 0001:000468b0       ??$extract_argument_from_va_list@U_CRT_DOUBLE@@U1@@?$positional_parameter_base@DV?$string_output_adapter@D@__crt_stdio_output@@@__crt_stdio_output@@IAE_NAAU_CRT_DOUBLE@@@Z 100478b0 f i libucrtd:output.obj
 0001:00046a10       ??$extract_argument_from_va_list@U_CRT_DOUBLE@@U1@@?$positional_parameter_base@_WV?$stream_output_adapter@_W@__crt_stdio_output@@@__crt_stdio_output@@IAE_NAAU_CRT_DOUBLE@@@Z 10047a10 f i libucrtd:output.obj
 0001:00046b70       ??$extract_argument_from_va_list@U_CRT_DOUBLE@@U1@@?$positional_parameter_base@_WV?$string_output_adapter@_W@__crt_stdio_output@@@__crt_stdio_output@@IAE_NAAU_CRT_DOUBLE@@@Z 10047b70 f i libucrtd:output.obj
 0001:00046cd0       ??$extract_argument_from_va_list@U_CRT_DOUBLE@@U1@@?$standard_base@DV?$stream_output_adapter@D@__crt_stdio_output@@@__crt_stdio_output@@IAE_NAAU_CRT_DOUBLE@@@Z 10047cd0 f i libucrtd:output.obj
 0001:00046d20       ??$extract_argument_from_va_list@U_CRT_DOUBLE@@U1@@?$standard_base@DV?$string_output_adapter@D@__crt_stdio_output@@@__crt_stdio_output@@IAE_NAAU_CRT_DOUBLE@@@Z 10047d20 f i libucrtd:output.obj
 0001:00046d70       ??$extract_argument_from_va_list@U_CRT_DOUBLE@@U1@@?$standard_base@_WV?$stream_output_adapter@_W@__crt_stdio_output@@@__crt_stdio_output@@IAE_NAAU_CRT_DOUBLE@@@Z 10047d70 f i libucrtd:output.obj
 0001:00046dc0       ??$extract_argument_from_va_list@U_CRT_DOUBLE@@U1@@?$standard_base@_WV?$string_output_adapter@_W@__crt_stdio_output@@@__crt_stdio_output@@IAE_NAAU_CRT_DOUBLE@@@Z 10047dc0 f i libucrtd:output.obj
 0001:00046e10       ??$extract_argument_from_va_list@_J_J@?$positional_parameter_base@DV?$stream_output_adapter@D@__crt_stdio_output@@@__crt_stdio_output@@IAE_NAA_J@Z 10047e10 f i libucrtd:output.obj
 0001:00046f40       ??$extract_argument_from_va_list@_J_J@?$positional_parameter_base@DV?$string_output_adapter@D@__crt_stdio_output@@@__crt_stdio_output@@IAE_NAA_J@Z 10047f40 f i libucrtd:output.obj
 0001:00047070       ??$extract_argument_from_va_list@_J_J@?$positional_parameter_base@_WV?$stream_output_adapter@_W@__crt_stdio_output@@@__crt_stdio_output@@IAE_NAA_J@Z 10048070 f i libucrtd:output.obj
 0001:000471a0       ??$extract_argument_from_va_list@_J_J@?$positional_parameter_base@_WV?$string_output_adapter@_W@__crt_stdio_output@@@__crt_stdio_output@@IAE_NAA_J@Z 100481a0 f i libucrtd:output.obj
 0001:000472d0       ??$extract_argument_from_va_list@_J_J@?$standard_base@DV?$stream_output_adapter@D@__crt_stdio_output@@@__crt_stdio_output@@IAE_NAA_J@Z 100482d0 f i libucrtd:output.obj
 0001:00047300       ??$extract_argument_from_va_list@_J_J@?$standard_base@DV?$string_output_adapter@D@__crt_stdio_output@@@__crt_stdio_output@@IAE_NAA_J@Z 10048300 f i libucrtd:output.obj
 0001:00047330       ??$extract_argument_from_va_list@_J_J@?$standard_base@_WV?$stream_output_adapter@_W@__crt_stdio_output@@@__crt_stdio_output@@IAE_NAA_J@Z 10048330 f i libucrtd:output.obj
 0001:00047360       ??$extract_argument_from_va_list@_J_J@?$standard_base@_WV?$string_output_adapter@_W@__crt_stdio_output@@@__crt_stdio_output@@IAE_NAA_J@Z 10048360 f i libucrtd:output.obj
 0001:00047390       ??$extract_argument_from_va_list@_K_J@?$positional_parameter_base@DV?$stream_output_adapter@D@__crt_stdio_output@@@__crt_stdio_output@@IAE_NAA_J@Z 10048390 f i libucrtd:output.obj
 0001:000474c0       ??$extract_argument_from_va_list@_K_J@?$positional_parameter_base@DV?$string_output_adapter@D@__crt_stdio_output@@@__crt_stdio_output@@IAE_NAA_J@Z 100484c0 f i libucrtd:output.obj
 0001:000475f0       ??$extract_argument_from_va_list@_K_J@?$positional_parameter_base@_WV?$stream_output_adapter@_W@__crt_stdio_output@@@__crt_stdio_output@@IAE_NAA_J@Z 100485f0 f i libucrtd:output.obj
 0001:00047720       ??$extract_argument_from_va_list@_K_J@?$positional_parameter_base@_WV?$string_output_adapter@_W@__crt_stdio_output@@@__crt_stdio_output@@IAE_NAA_J@Z 10048720 f i libucrtd:output.obj
 0001:00047850       ??$extract_argument_from_va_list@_K_J@?$standard_base@DV?$stream_output_adapter@D@__crt_stdio_output@@@__crt_stdio_output@@IAE_NAA_J@Z 10048850 f i libucrtd:output.obj
 0001:00047880       ??$extract_argument_from_va_list@_K_J@?$standard_base@DV?$string_output_adapter@D@__crt_stdio_output@@@__crt_stdio_output@@IAE_NAA_J@Z 10048880 f i libucrtd:output.obj
 0001:000478b0       ??$extract_argument_from_va_list@_K_J@?$standard_base@_WV?$stream_output_adapter@_W@__crt_stdio_output@@@__crt_stdio_output@@IAE_NAA_J@Z 100488b0 f i libucrtd:output.obj
 0001:000478e0       ??$extract_argument_from_va_list@_K_J@?$standard_base@_WV?$string_output_adapter@_W@__crt_stdio_output@@@__crt_stdio_output@@IAE_NAA_J@Z 100488e0 f i libucrtd:output.obj
 0001:00047910       ??$extract_argument_from_va_list@_W_W@?$positional_parameter_base@DV?$stream_output_adapter@D@__crt_stdio_output@@@__crt_stdio_output@@IAE_NAA_W@Z 10048910 f i libucrtd:output.obj
 0001:00047a40       ??$extract_argument_from_va_list@_W_W@?$positional_parameter_base@DV?$string_output_adapter@D@__crt_stdio_output@@@__crt_stdio_output@@IAE_NAA_W@Z 10048a40 f i libucrtd:output.obj
 0001:00047b70       ??$extract_argument_from_va_list@_W_W@?$positional_parameter_base@_WV?$stream_output_adapter@_W@__crt_stdio_output@@@__crt_stdio_output@@IAE_NAA_W@Z 10048b70 f i libucrtd:output.obj
 0001:00047ca0       ??$extract_argument_from_va_list@_W_W@?$positional_parameter_base@_WV?$string_output_adapter@_W@__crt_stdio_output@@@__crt_stdio_output@@IAE_NAA_W@Z 10048ca0 f i libucrtd:output.obj
 0001:00047dd0       ??$extract_argument_from_va_list@_W_W@?$standard_base@DV?$stream_output_adapter@D@__crt_stdio_output@@@__crt_stdio_output@@IAE_NAA_W@Z 10048dd0 f i libucrtd:output.obj
 0001:00047e00       ??$extract_argument_from_va_list@_W_W@?$standard_base@DV?$string_output_adapter@D@__crt_stdio_output@@@__crt_stdio_output@@IAE_NAA_W@Z 10048e00 f i libucrtd:output.obj
 0001:00047e30       ??$extract_argument_from_va_list@_W_W@?$standard_base@_WV?$stream_output_adapter@_W@__crt_stdio_output@@@__crt_stdio_output@@IAE_NAA_W@Z 10048e30 f i libucrtd:output.obj
 0001:00047e60       ??$extract_argument_from_va_list@_W_W@?$standard_base@_WV?$string_output_adapter@_W@__crt_stdio_output@@@__crt_stdio_output@@IAE_NAA_W@Z 10048e60 f i libucrtd:output.obj
 0001:00047e90       ??$get_parameter_type@D@?$positional_parameter_base@DV?$stream_output_adapter@D@__crt_stdio_output@@@__crt_stdio_output@@CA?AW4parameter_type@01@PAD@Z 10048e90 f i libucrtd:output.obj
 0001:00047ea0       ??$get_parameter_type@D@?$positional_parameter_base@DV?$string_output_adapter@D@__crt_stdio_output@@@__crt_stdio_output@@CA?AW4parameter_type@01@PAD@Z 10048ea0 f i libucrtd:output.obj
 0001:00047eb0       ??$get_parameter_type@D@?$positional_parameter_base@_WV?$stream_output_adapter@_W@__crt_stdio_output@@@__crt_stdio_output@@CA?AW4parameter_type@01@PAD@Z 10048eb0 f i libucrtd:output.obj
 0001:00047ec0       ??$get_parameter_type@D@?$positional_parameter_base@_WV?$string_output_adapter@_W@__crt_stdio_output@@@__crt_stdio_output@@CA?AW4parameter_type@01@PAD@Z 10048ec0 f i libucrtd:output.obj
 0001:00047ed0       ??$get_parameter_type@Uansi_string@?1??type_case_Z@?$output_processor@DV?$stream_output_adapter@D@__crt_stdio_output@@V?$positional_parameter_base@DV?$stream_output_adapter@D@__crt_stdio_output@@@2@@__crt_stdio_output@@AAE_NXZ@@?$positional_parameter_base@DV?$stream_output_adapter@D@__crt_stdio_output@@@__crt_stdio_output@@CA?AW4parameter_type@01@PAUansi_string@?1??type_case_Z@?$output_processor@DV?$stream_output_adapter@D@__crt_stdio_output@@V?$positional_parameter_base@DV?$stream_output_adapter@D@__crt_stdio_output@@@2@@1@AAE_NXZ@@Z 10048ed0 f i libucrtd:output.obj
 0001:00047ee0       ??$get_parameter_type@Uansi_string@?1??type_case_Z@?$output_processor@DV?$string_output_adapter@D@__crt_stdio_output@@V?$positional_parameter_base@DV?$string_output_adapter@D@__crt_stdio_output@@@2@@__crt_stdio_output@@AAE_NXZ@@?$positional_parameter_base@DV?$string_output_adapter@D@__crt_stdio_output@@@__crt_stdio_output@@CA?AW4parameter_type@01@PAUansi_string@?1??type_case_Z@?$output_processor@DV?$string_output_adapter@D@__crt_stdio_output@@V?$positional_parameter_base@DV?$string_output_adapter@D@__crt_stdio_output@@@2@@1@AAE_NXZ@@Z 10048ee0 f i libucrtd:output.obj
 0001:00047ef0       ??$get_parameter_type@Uansi_string@?1??type_case_Z@?$output_processor@_WV?$stream_output_adapter@_W@__crt_stdio_output@@V?$positional_parameter_base@_WV?$stream_output_adapter@_W@__crt_stdio_output@@@2@@__crt_stdio_output@@AAE_NXZ@@?$positional_parameter_base@_WV?$stream_output_adapter@_W@__crt_stdio_output@@@__crt_stdio_output@@CA?AW4parameter_type@01@PAUansi_string@?1??type_case_Z@?$output_processor@_WV?$stream_output_adapter@_W@__crt_stdio_output@@V?$positional_parameter_base@_WV?$stream_output_adapter@_W@__crt_stdio_output@@@2@@1@AAE_NXZ@@Z 10048ef0 f i libucrtd:output.obj
 0001:00047f00       ??$get_parameter_type@Uansi_string@?1??type_case_Z@?$output_processor@_WV?$string_output_adapter@_W@__crt_stdio_output@@V?$positional_parameter_base@_WV?$string_output_adapter@_W@__crt_stdio_output@@@2@@__crt_stdio_output@@AAE_NXZ@@?$positional_parameter_base@_WV?$string_output_adapter@_W@__crt_stdio_output@@@__crt_stdio_output@@CA?AW4parameter_type@01@PAUansi_string@?1??type_case_Z@?$output_processor@_WV?$string_output_adapter@_W@__crt_stdio_output@@V?$positional_parameter_base@_WV?$string_output_adapter@_W@__crt_stdio_output@@@2@@1@AAE_NXZ@@Z 10048f00 f i libucrtd:output.obj
 0001:00047f10       ??$get_parameter_type@X@?$positional_parameter_base@DV?$stream_output_adapter@D@__crt_stdio_output@@@__crt_stdio_output@@CA?AW4parameter_type@01@PAX@Z 10048f10 f i libucrtd:output.obj
 0001:00047f20       ??$get_parameter_type@X@?$positional_parameter_base@DV?$string_output_adapter@D@__crt_stdio_output@@@__crt_stdio_output@@CA?AW4parameter_type@01@PAX@Z 10048f20 f i libucrtd:output.obj
 0001:00047f30       ??$get_parameter_type@X@?$positional_parameter_base@_WV?$stream_output_adapter@_W@__crt_stdio_output@@@__crt_stdio_output@@CA?AW4parameter_type@01@PAX@Z 10048f30 f i libucrtd:output.obj
 0001:00047f40       ??$get_parameter_type@X@?$positional_parameter_base@_WV?$string_output_adapter@_W@__crt_stdio_output@@@__crt_stdio_output@@CA?AW4parameter_type@01@PAX@Z 10048f40 f i libucrtd:output.obj
 0001:00047f50       ??$is_character_specifier@D@?$positional_parameter_base@DV?$stream_output_adapter@D@__crt_stdio_output@@@__crt_stdio_output@@CA_ND@Z 10048f50 f i libucrtd:output.obj
 0001:00047f80       ??$is_character_specifier@D@?$positional_parameter_base@DV?$string_output_adapter@D@__crt_stdio_output@@@__crt_stdio_output@@CA_ND@Z 10048f80 f i libucrtd:output.obj
 0001:00047fb0       ??$is_character_specifier@_W@?$positional_parameter_base@_WV?$stream_output_adapter@_W@__crt_stdio_output@@@__crt_stdio_output@@CA_N_W@Z 10048fb0 f i libucrtd:output.obj
 0001:00047fe0       ??$is_character_specifier@_W@?$positional_parameter_base@_WV?$string_output_adapter@_W@__crt_stdio_output@@@__crt_stdio_output@@CA_N_W@Z 10048fe0 f i libucrtd:output.obj
 0001:00048010       ??$is_integral_specifier@D@?$positional_parameter_base@DV?$stream_output_adapter@D@__crt_stdio_output@@@__crt_stdio_output@@CA_ND@Z 10049010 f i libucrtd:output.obj
 0001:00048070       ??$is_integral_specifier@D@?$positional_parameter_base@DV?$string_output_adapter@D@__crt_stdio_output@@@__crt_stdio_output@@CA_ND@Z 10049070 f i libucrtd:output.obj
 0001:000480d0       ??$is_integral_specifier@_W@?$positional_parameter_base@_WV?$stream_output_adapter@_W@__crt_stdio_output@@@__crt_stdio_output@@CA_N_W@Z 100490d0 f i libucrtd:output.obj
 0001:00048130       ??$is_integral_specifier@_W@?$positional_parameter_base@_WV?$string_output_adapter@_W@__crt_stdio_output@@@__crt_stdio_output@@CA_N_W@Z 10049130 f i libucrtd:output.obj
 0001:00048190       ??$is_pointer_specifier@D@?$positional_parameter_base@DV?$stream_output_adapter@D@__crt_stdio_output@@@__crt_stdio_output@@CA_ND@Z 10049190 f i libucrtd:output.obj
 0001:000481c0       ??$is_pointer_specifier@D@?$positional_parameter_base@DV?$string_output_adapter@D@__crt_stdio_output@@@__crt_stdio_output@@CA_ND@Z 100491c0 f i libucrtd:output.obj
 0001:000481f0       ??$is_pointer_specifier@_W@?$positional_parameter_base@_WV?$stream_output_adapter@_W@__crt_stdio_output@@@__crt_stdio_output@@CA_N_W@Z 100491f0 f i libucrtd:output.obj
 0001:00048220       ??$is_pointer_specifier@_W@?$positional_parameter_base@_WV?$string_output_adapter@_W@__crt_stdio_output@@@__crt_stdio_output@@CA_N_W@Z 10049220 f i libucrtd:output.obj
 0001:00048250       ??$is_string_specifier@D@?$positional_parameter_base@DV?$stream_output_adapter@D@__crt_stdio_output@@@__crt_stdio_output@@CA_ND@Z 10049250 f i libucrtd:output.obj
 0001:00048280       ??$is_string_specifier@D@?$positional_parameter_base@DV?$string_output_adapter@D@__crt_stdio_output@@@__crt_stdio_output@@CA_ND@Z 10049280 f i libucrtd:output.obj
 0001:000482b0       ??$is_string_specifier@_W@?$positional_parameter_base@_WV?$stream_output_adapter@_W@__crt_stdio_output@@@__crt_stdio_output@@CA_N_W@Z 100492b0 f i libucrtd:output.obj
 0001:000482e0       ??$is_string_specifier@_W@?$positional_parameter_base@_WV?$string_output_adapter@_W@__crt_stdio_output@@@__crt_stdio_output@@CA_N_W@Z 100492e0 f i libucrtd:output.obj
 0001:00048310       ??$is_wide_character_specifier@D@__crt_stdio_output@@YA_N_KDW4length_modifier@0@@Z 10049310 f i libucrtd:output.obj
 0001:00048390       ??$is_wide_character_specifier@_W@__crt_stdio_output@@YA_N_K_WW4length_modifier@0@@Z 10049390 f i libucrtd:output.obj
 0001:00048450       ??$peek_va_arg@C@__crt_stdio_output@@YACPAD@Z 10049450 f i libucrtd:output.obj
 0001:00048470       ??$peek_va_arg@E@__crt_stdio_output@@YAEPAD@Z 10049470 f i libucrtd:output.obj
 0001:00048490       ??$peek_va_arg@F@__crt_stdio_output@@YAFPAD@Z 10049490 f i libucrtd:output.obj
 0001:000484b0       ??$peek_va_arg@G@__crt_stdio_output@@YAGPAD@Z 100494b0 f i libucrtd:output.obj
 0001:000484d0       ??$peek_va_arg@H@__crt_stdio_output@@YAHPAD@Z 100494d0 f i libucrtd:output.obj
 0001:000484f0       ??$peek_va_arg@I@__crt_stdio_output@@YAIPAD@Z 100494f0 f i libucrtd:output.obj
 0001:00048510       ??$peek_va_arg@PAD@__crt_stdio_output@@YAPADPAD@Z 10049510 f i libucrtd:output.obj
 0001:00048530       ??$peek_va_arg@PAUansi_string@?1??type_case_Z@?$output_processor@DV?$stream_output_adapter@D@__crt_stdio_output@@V?$positional_parameter_base@DV?$stream_output_adapter@D@__crt_stdio_output@@@2@@__crt_stdio_output@@AAE_NXZ@@__crt_stdio_output@@YAPAUansi_string@?1??type_case_Z@?$output_processor@DV?$stream_output_adapter@D@__crt_stdio_output@@V?$positional_parameter_base@DV?$stream_output_adapter@D@__crt_stdio_output@@@2@@0@AAE_NXZ@PAD@Z 10049530 f i libucrtd:output.obj
 0001:00048550       ??$peek_va_arg@PAUansi_string@?1??type_case_Z@?$output_processor@DV?$string_output_adapter@D@__crt_stdio_output@@V?$positional_parameter_base@DV?$string_output_adapter@D@__crt_stdio_output@@@2@@__crt_stdio_output@@AAE_NXZ@@__crt_stdio_output@@YAPAUansi_string@?1??type_case_Z@?$output_processor@DV?$string_output_adapter@D@__crt_stdio_output@@V?$positional_parameter_base@DV?$string_output_adapter@D@__crt_stdio_output@@@2@@0@AAE_NXZ@PAD@Z 10049550 f i libucrtd:output.obj
 0001:00048570       ??$peek_va_arg@PAUansi_string@?1??type_case_Z@?$output_processor@_WV?$stream_output_adapter@_W@__crt_stdio_output@@V?$positional_parameter_base@_WV?$stream_output_adapter@_W@__crt_stdio_output@@@2@@__crt_stdio_output@@AAE_NXZ@@__crt_stdio_output@@YAPAUansi_string@?1??type_case_Z@?$output_processor@_WV?$stream_output_adapter@_W@__crt_stdio_output@@V?$positional_parameter_base@_WV?$stream_output_adapter@_W@__crt_stdio_output@@@2@@0@AAE_NXZ@PAD@Z 10049570 f i libucrtd:output.obj
 0001:00048590       ??$peek_va_arg@PAUansi_string@?1??type_case_Z@?$output_processor@_WV?$string_output_adapter@_W@__crt_stdio_output@@V?$positional_parameter_base@_WV?$string_output_adapter@_W@__crt_stdio_output@@@2@@__crt_stdio_output@@AAE_NXZ@@__crt_stdio_output@@YAPAUansi_string@?1??type_case_Z@?$output_processor@_WV?$string_output_adapter@_W@__crt_stdio_output@@V?$positional_parameter_base@_WV?$string_output_adapter@_W@__crt_stdio_output@@@2@@0@AAE_NXZ@PAD@Z 10049590 f i libucrtd:output.obj
 0001:000485b0       ??$peek_va_arg@PAX@__crt_stdio_output@@YAPAXPAD@Z 100495b0 f i libucrtd:output.obj
 0001:000485d0       ??$peek_va_arg@U_CRT_DOUBLE@@@__crt_stdio_output@@YA?AU_CRT_DOUBLE@@PAD@Z 100495d0 f i libucrtd:output.obj
 0001:000485f0       ??$peek_va_arg@_J@__crt_stdio_output@@YA_JPAD@Z 100495f0 f i libucrtd:output.obj
 0001:00048610       ??$peek_va_arg@_K@__crt_stdio_output@@YA_KPAD@Z 10049610 f i libucrtd:output.obj
 0001:00048630       ??$peek_va_arg@_W@__crt_stdio_output@@YA_WPAD@Z 10049630 f i libucrtd:output.obj
 0001:00048650       ??$puttc_nolock@ABDPAU_iobuf@@@?$__crt_char_traits@D@@SAHABD$$QAPAU_iobuf@@@Z 10049650 f i libucrtd:output.obj
 0001:00048670       ??$puttc_nolock@AB_WPAU_iobuf@@@?$__crt_char_traits@_W@@SAGAB_W$$QAPAU_iobuf@@@Z 10049670 f i libucrtd:output.obj
 0001:00048690       ??$read_va_arg@C@__crt_stdio_output@@YACAAPAD@Z 10049690 f i libucrtd:output.obj
 0001:000486b0       ??$read_va_arg@E@__crt_stdio_output@@YAEAAPAD@Z 100496b0 f i libucrtd:output.obj
 0001:000486d0       ??$read_va_arg@F@__crt_stdio_output@@YAFAAPAD@Z 100496d0 f i libucrtd:output.obj
 0001:000486f0       ??$read_va_arg@G@__crt_stdio_output@@YAGAAPAD@Z 100496f0 f i libucrtd:output.obj
 0001:00048710       ??$read_va_arg@H@__crt_stdio_output@@YAHAAPAD@Z 10049710 f i libucrtd:output.obj
 0001:00048730       ??$read_va_arg@I@__crt_stdio_output@@YAIAAPAD@Z 10049730 f i libucrtd:output.obj
 0001:00048750       ??$read_va_arg@PAD@__crt_stdio_output@@YAPADAAPAD@Z 10049750 f i libucrtd:output.obj
 0001:00048770       ??$read_va_arg@PAUansi_string@?1??type_case_Z@?$output_processor@DV?$stream_output_adapter@D@__crt_stdio_output@@V?$format_validation_base@DV?$stream_output_adapter@D@__crt_stdio_output@@@2@@__crt_stdio_output@@AAE_NXZ@@__crt_stdio_output@@YAPAUansi_string@?1??type_case_Z@?$output_processor@DV?$stream_output_adapter@D@__crt_stdio_output@@V?$format_validation_base@DV?$stream_output_adapter@D@__crt_stdio_output@@@2@@0@AAE_NXZ@AAPAD@Z 10049770 f i libucrtd:output.obj
 0001:00048790       ??$read_va_arg@PAUansi_string@?1??type_case_Z@?$output_processor@DV?$stream_output_adapter@D@__crt_stdio_output@@V?$positional_parameter_base@DV?$stream_output_adapter@D@__crt_stdio_output@@@2@@__crt_stdio_output@@AAE_NXZ@@__crt_stdio_output@@YAPAUansi_string@?1??type_case_Z@?$output_processor@DV?$stream_output_adapter@D@__crt_stdio_output@@V?$positional_parameter_base@DV?$stream_output_adapter@D@__crt_stdio_output@@@2@@0@AAE_NXZ@AAPAD@Z 10049790 f i libucrtd:output.obj
 0001:000487b0       ??$read_va_arg@PAUansi_string@?1??type_case_Z@?$output_processor@DV?$stream_output_adapter@D@__crt_stdio_output@@V?$standard_base@DV?$stream_output_adapter@D@__crt_stdio_output@@@2@@__crt_stdio_output@@AAE_NXZ@@__crt_stdio_output@@YAPAUansi_string@?1??type_case_Z@?$output_processor@DV?$stream_output_adapter@D@__crt_stdio_output@@V?$standard_base@DV?$stream_output_adapter@D@__crt_stdio_output@@@2@@0@AAE_NXZ@AAPAD@Z 100497b0 f i libucrtd:output.obj
 0001:000487d0       ??$read_va_arg@PAUansi_string@?1??type_case_Z@?$output_processor@DV?$string_output_adapter@D@__crt_stdio_output@@V?$format_validation_base@DV?$string_output_adapter@D@__crt_stdio_output@@@2@@__crt_stdio_output@@AAE_NXZ@@__crt_stdio_output@@YAPAUansi_string@?1??type_case_Z@?$output_processor@DV?$string_output_adapter@D@__crt_stdio_output@@V?$format_validation_base@DV?$string_output_adapter@D@__crt_stdio_output@@@2@@0@AAE_NXZ@AAPAD@Z 100497d0 f i libucrtd:output.obj
 0001:000487f0       ??$read_va_arg@PAUansi_string@?1??type_case_Z@?$output_processor@DV?$string_output_adapter@D@__crt_stdio_output@@V?$positional_parameter_base@DV?$string_output_adapter@D@__crt_stdio_output@@@2@@__crt_stdio_output@@AAE_NXZ@@__crt_stdio_output@@YAPAUansi_string@?1??type_case_Z@?$output_processor@DV?$string_output_adapter@D@__crt_stdio_output@@V?$positional_parameter_base@DV?$string_output_adapter@D@__crt_stdio_output@@@2@@0@AAE_NXZ@AAPAD@Z 100497f0 f i libucrtd:output.obj
 0001:00048810       ??$read_va_arg@PAUansi_string@?1??type_case_Z@?$output_processor@DV?$string_output_adapter@D@__crt_stdio_output@@V?$standard_base@DV?$string_output_adapter@D@__crt_stdio_output@@@2@@__crt_stdio_output@@AAE_NXZ@@__crt_stdio_output@@YAPAUansi_string@?1??type_case_Z@?$output_processor@DV?$string_output_adapter@D@__crt_stdio_output@@V?$standard_base@DV?$string_output_adapter@D@__crt_stdio_output@@@2@@0@AAE_NXZ@AAPAD@Z 10049810 f i libucrtd:output.obj
 0001:00048830       ??$read_va_arg@PAUansi_string@?1??type_case_Z@?$output_processor@_WV?$stream_output_adapter@_W@__crt_stdio_output@@V?$format_validation_base@_WV?$stream_output_adapter@_W@__crt_stdio_output@@@2@@__crt_stdio_output@@AAE_NXZ@@__crt_stdio_output@@YAPAUansi_string@?1??type_case_Z@?$output_processor@_WV?$stream_output_adapter@_W@__crt_stdio_output@@V?$format_validation_base@_WV?$stream_output_adapter@_W@__crt_stdio_output@@@2@@0@AAE_NXZ@AAPAD@Z 10049830 f i libucrtd:output.obj
 0001:00048850       ??$read_va_arg@PAUansi_string@?1??type_case_Z@?$output_processor@_WV?$stream_output_adapter@_W@__crt_stdio_output@@V?$positional_parameter_base@_WV?$stream_output_adapter@_W@__crt_stdio_output@@@2@@__crt_stdio_output@@AAE_NXZ@@__crt_stdio_output@@YAPAUansi_string@?1??type_case_Z@?$output_processor@_WV?$stream_output_adapter@_W@__crt_stdio_output@@V?$positional_parameter_base@_WV?$stream_output_adapter@_W@__crt_stdio_output@@@2@@0@AAE_NXZ@AAPAD@Z 10049850 f i libucrtd:output.obj
 0001:00048870       ??$read_va_arg@PAUansi_string@?1??type_case_Z@?$output_processor@_WV?$stream_output_adapter@_W@__crt_stdio_output@@V?$standard_base@_WV?$stream_output_adapter@_W@__crt_stdio_output@@@2@@__crt_stdio_output@@AAE_NXZ@@__crt_stdio_output@@YAPAUansi_string@?1??type_case_Z@?$output_processor@_WV?$stream_output_adapter@_W@__crt_stdio_output@@V?$standard_base@_WV?$stream_output_adapter@_W@__crt_stdio_output@@@2@@0@AAE_NXZ@AAPAD@Z 10049870 f i libucrtd:output.obj
 0001:00048890       ??$read_va_arg@PAUansi_string@?1??type_case_Z@?$output_processor@_WV?$string_output_adapter@_W@__crt_stdio_output@@V?$format_validation_base@_WV?$string_output_adapter@_W@__crt_stdio_output@@@2@@__crt_stdio_output@@AAE_NXZ@@__crt_stdio_output@@YAPAUansi_string@?1??type_case_Z@?$output_processor@_WV?$string_output_adapter@_W@__crt_stdio_output@@V?$format_validation_base@_WV?$string_output_adapter@_W@__crt_stdio_output@@@2@@0@AAE_NXZ@AAPAD@Z 10049890 f i libucrtd:output.obj
 0001:000488b0       ??$read_va_arg@PAUansi_string@?1??type_case_Z@?$output_processor@_WV?$string_output_adapter@_W@__crt_stdio_output@@V?$positional_parameter_base@_WV?$string_output_adapter@_W@__crt_stdio_output@@@2@@__crt_stdio_output@@AAE_NXZ@@__crt_stdio_output@@YAPAUansi_string@?1??type_case_Z@?$output_processor@_WV?$string_output_adapter@_W@__crt_stdio_output@@V?$positional_parameter_base@_WV?$string_output_adapter@_W@__crt_stdio_output@@@2@@0@AAE_NXZ@AAPAD@Z 100498b0 f i libucrtd:output.obj
 0001:000488d0       ??$read_va_arg@PAUansi_string@?1??type_case_Z@?$output_processor@_WV?$string_output_adapter@_W@__crt_stdio_output@@V?$standard_base@_WV?$string_output_adapter@_W@__crt_stdio_output@@@2@@__crt_stdio_output@@AAE_NXZ@@__crt_stdio_output@@YAPAUansi_string@?1??type_case_Z@?$output_processor@_WV?$string_output_adapter@_W@__crt_stdio_output@@V?$standard_base@_WV?$string_output_adapter@_W@__crt_stdio_output@@@2@@0@AAE_NXZ@AAPAD@Z 100498d0 f i libucrtd:output.obj
 0001:000488f0       ??$read_va_arg@PAX@__crt_stdio_output@@YAPAXAAPAD@Z 100498f0 f i libucrtd:output.obj
 0001:00048910       ??$read_va_arg@U_CRT_DOUBLE@@@__crt_stdio_output@@YA?AU_CRT_DOUBLE@@AAPAD@Z 10049910 f i libucrtd:output.obj
 0001:00048930       ??$read_va_arg@_J@__crt_stdio_output@@YA_JAAPAD@Z 10049930 f i libucrtd:output.obj
 0001:00048950       ??$read_va_arg@_K@__crt_stdio_output@@YA_KAAPAD@Z 10049950 f i libucrtd:output.obj
 0001:00048970       ??$read_va_arg@_W@__crt_stdio_output@@YA_WAAPAD@Z 10049970 f i libucrtd:output.obj
 0001:00048990       ??$scratch_count@D@formatting_buffer@__crt_stdio_output@@QBEIXZ 10049990 f i libucrtd:output.obj
 0001:000489b0       ??$scratch_data@D@formatting_buffer@__crt_stdio_output@@QAEPADXZ 100499b0 f i libucrtd:output.obj
 0001:00048a00       ??$tcstol@AAPBDPAPADH@?$__crt_char_traits@D@@SAJAAPBD$$QAPAPAD$$QAH@Z 10049a00 f i libucrtd:output.obj
 0001:00048a30       ??$tcstol@AAPB_WPAPA_WH@?$__crt_char_traits@_W@@SAJAAPB_W$$QAPAPA_W$$QAH@Z 10049a30 f i libucrtd:output.obj
 0001:00048a60       ??$tcstol@PBDPAPADH@?$__crt_char_traits@D@@SAJ$$QAPBD$$QAPAPAD$$QAH@Z 10049a60 f i libucrtd:output.obj
 0001:00048a90       ??$tcstol@PB_WPAPA_WH@?$__crt_char_traits@_W@@SAJ$$QAPB_W$$QAPAPA_W$$QAH@Z 10049a90 f i libucrtd:output.obj
 0001:00048ac0       ??$type_case_integer_parse_into_buffer@I@?$output_processor@DV?$stream_output_adapter@D@__crt_stdio_output@@V?$format_validation_base@DV?$stream_output_adapter@D@__crt_stdio_output@@@2@@__crt_stdio_output@@AAEXII_N@Z 10049ac0 f i libucrtd:output.obj
 0001:00048b90       ??$type_case_integer_parse_into_buffer@I@?$output_processor@DV?$stream_output_adapter@D@__crt_stdio_output@@V?$positional_parameter_base@DV?$stream_output_adapter@D@__crt_stdio_output@@@2@@__crt_stdio_output@@AAEXII_N@Z 10049b90 f i libucrtd:output.obj
 0001:00048c60       ??$type_case_integer_parse_into_buffer@I@?$output_processor@DV?$stream_output_adapter@D@__crt_stdio_output@@V?$standard_base@DV?$stream_output_adapter@D@__crt_stdio_output@@@2@@__crt_stdio_output@@AAEXII_N@Z 10049c60 f i libucrtd:output.obj
 0001:00048d30       ??$type_case_integer_parse_into_buffer@I@?$output_processor@DV?$string_output_adapter@D@__crt_stdio_output@@V?$format_validation_base@DV?$string_output_adapter@D@__crt_stdio_output@@@2@@__crt_stdio_output@@AAEXII_N@Z 10049d30 f i libucrtd:output.obj
 0001:00048e00       ??$type_case_integer_parse_into_buffer@I@?$output_processor@DV?$string_output_adapter@D@__crt_stdio_output@@V?$positional_parameter_base@DV?$string_output_adapter@D@__crt_stdio_output@@@2@@__crt_stdio_output@@AAEXII_N@Z 10049e00 f i libucrtd:output.obj
 0001:00048ed0       ??$type_case_integer_parse_into_buffer@I@?$output_processor@DV?$string_output_adapter@D@__crt_stdio_output@@V?$standard_base@DV?$string_output_adapter@D@__crt_stdio_output@@@2@@__crt_stdio_output@@AAEXII_N@Z 10049ed0 f i libucrtd:output.obj
 0001:00048fa0       ??$type_case_integer_parse_into_buffer@I@?$output_processor@_WV?$stream_output_adapter@_W@__crt_stdio_output@@V?$format_validation_base@_WV?$stream_output_adapter@_W@__crt_stdio_output@@@2@@__crt_stdio_output@@AAEXII_N@Z 10049fa0 f i libucrtd:output.obj
 0001:00049070       ??$type_case_integer_parse_into_buffer@I@?$output_processor@_WV?$stream_output_adapter@_W@__crt_stdio_output@@V?$positional_parameter_base@_WV?$stream_output_adapter@_W@__crt_stdio_output@@@2@@__crt_stdio_output@@AAEXII_N@Z 1004a070 f i libucrtd:output.obj
 0001:00049140       ??$type_case_integer_parse_into_buffer@I@?$output_processor@_WV?$stream_output_adapter@_W@__crt_stdio_output@@V?$standard_base@_WV?$stream_output_adapter@_W@__crt_stdio_output@@@2@@__crt_stdio_output@@AAEXII_N@Z 1004a140 f i libucrtd:output.obj
 0001:00049210       ??$type_case_integer_parse_into_buffer@I@?$output_processor@_WV?$string_output_adapter@_W@__crt_stdio_output@@V?$format_validation_base@_WV?$string_output_adapter@_W@__crt_stdio_output@@@2@@__crt_stdio_output@@AAEXII_N@Z 1004a210 f i libucrtd:output.obj
 0001:000492e0       ??$type_case_integer_parse_into_buffer@I@?$output_processor@_WV?$string_output_adapter@_W@__crt_stdio_output@@V?$positional_parameter_base@_WV?$string_output_adapter@_W@__crt_stdio_output@@@2@@__crt_stdio_output@@AAEXII_N@Z 1004a2e0 f i libucrtd:output.obj
 0001:000493b0       ??$type_case_integer_parse_into_buffer@I@?$output_processor@_WV?$string_output_adapter@_W@__crt_stdio_output@@V?$standard_base@_WV?$string_output_adapter@_W@__crt_stdio_output@@@2@@__crt_stdio_output@@AAEXII_N@Z 1004a3b0 f i libucrtd:output.obj
 0001:00049480       ??$type_case_integer_parse_into_buffer@_K@?$output_processor@DV?$stream_output_adapter@D@__crt_stdio_output@@V?$format_validation_base@DV?$stream_output_adapter@D@__crt_stdio_output@@@2@@__crt_stdio_output@@AAEX_KI_N@Z 1004a480 f i libucrtd:output.obj
 0001:00049580       ??$type_case_integer_parse_into_buffer@_K@?$output_processor@DV?$stream_output_adapter@D@__crt_stdio_output@@V?$positional_parameter_base@DV?$stream_output_adapter@D@__crt_stdio_output@@@2@@__crt_stdio_output@@AAEX_KI_N@Z 1004a580 f i libucrtd:output.obj
 0001:00049680       ??$type_case_integer_parse_into_buffer@_K@?$output_processor@DV?$stream_output_adapter@D@__crt_stdio_output@@V?$standard_base@DV?$stream_output_adapter@D@__crt_stdio_output@@@2@@__crt_stdio_output@@AAEX_KI_N@Z 1004a680 f i libucrtd:output.obj
 0001:00049780       ??$type_case_integer_parse_into_buffer@_K@?$output_processor@DV?$string_output_adapter@D@__crt_stdio_output@@V?$format_validation_base@DV?$string_output_adapter@D@__crt_stdio_output@@@2@@__crt_stdio_output@@AAEX_KI_N@Z 1004a780 f i libucrtd:output.obj
 0001:00049880       ??$type_case_integer_parse_into_buffer@_K@?$output_processor@DV?$string_output_adapter@D@__crt_stdio_output@@V?$positional_parameter_base@DV?$string_output_adapter@D@__crt_stdio_output@@@2@@__crt_stdio_output@@AAEX_KI_N@Z 1004a880 f i libucrtd:output.obj
 0001:00049980       ??$type_case_integer_parse_into_buffer@_K@?$output_processor@DV?$string_output_adapter@D@__crt_stdio_output@@V?$standard_base@DV?$string_output_adapter@D@__crt_stdio_output@@@2@@__crt_stdio_output@@AAEX_KI_N@Z 1004a980 f i libucrtd:output.obj
 0001:00049a80       ??$type_case_integer_parse_into_buffer@_K@?$output_processor@_WV?$stream_output_adapter@_W@__crt_stdio_output@@V?$format_validation_base@_WV?$stream_output_adapter@_W@__crt_stdio_output@@@2@@__crt_stdio_output@@AAEX_KI_N@Z 1004aa80 f i libucrtd:output.obj
 0001:00049b80       ??$type_case_integer_parse_into_buffer@_K@?$output_processor@_WV?$stream_output_adapter@_W@__crt_stdio_output@@V?$positional_parameter_base@_WV?$stream_output_adapter@_W@__crt_stdio_output@@@2@@__crt_stdio_output@@AAEX_KI_N@Z 1004ab80 f i libucrtd:output.obj
 0001:00049c80       ??$type_case_integer_parse_into_buffer@_K@?$output_processor@_WV?$stream_output_adapter@_W@__crt_stdio_output@@V?$standard_base@_WV?$stream_output_adapter@_W@__crt_stdio_output@@@2@@__crt_stdio_output@@AAEX_KI_N@Z 1004ac80 f i libucrtd:output.obj
 0001:00049d80       ??$type_case_integer_parse_into_buffer@_K@?$output_processor@_WV?$string_output_adapter@_W@__crt_stdio_output@@V?$format_validation_base@_WV?$string_output_adapter@_W@__crt_stdio_output@@@2@@__crt_stdio_output@@AAEX_KI_N@Z 1004ad80 f i libucrtd:output.obj
 0001:00049e80       ??$type_case_integer_parse_into_buffer@_K@?$output_processor@_WV?$string_output_adapter@_W@__crt_stdio_output@@V?$positional_parameter_base@_WV?$string_output_adapter@_W@__crt_stdio_output@@@2@@__crt_stdio_output@@AAEX_KI_N@Z 1004ae80 f i libucrtd:output.obj
 0001:00049f80       ??$type_case_integer_parse_into_buffer@_K@?$output_processor@_WV?$string_output_adapter@_W@__crt_stdio_output@@V?$standard_base@_WV?$string_output_adapter@_W@__crt_stdio_output@@@2@@__crt_stdio_output@@AAEX_KI_N@Z 1004af80 f i libucrtd:output.obj
 0001:0004a080       ??$write_multiple_characters@V?$stream_output_adapter@D@__crt_stdio_output@@D@__crt_stdio_output@@YAXABV?$stream_output_adapter@D@0@DHQAH@Z 1004b080 f i libucrtd:output.obj
 0001:0004a0d0       ??$write_multiple_characters@V?$stream_output_adapter@_W@__crt_stdio_output@@D@__crt_stdio_output@@YAXABV?$stream_output_adapter@_W@0@DHQAH@Z 1004b0d0 f i libucrtd:output.obj
 0001:0004a120       ??$write_multiple_characters@V?$string_output_adapter@D@__crt_stdio_output@@D@__crt_stdio_output@@YAXABV?$string_output_adapter@D@0@DHQAH@Z 1004b120 f i libucrtd:output.obj
 0001:0004a170       ??$write_multiple_characters@V?$string_output_adapter@_W@__crt_stdio_output@@D@__crt_stdio_output@@YAXABV?$string_output_adapter@_W@0@DHQAH@Z 1004b170 f i libucrtd:output.obj
 0001:0004a4c0       ??0?$common_data@D@__crt_stdio_output@@IAE@XZ 1004b4c0 f i libucrtd:output.obj
 0001:0004a570       ??0?$common_data@_W@__crt_stdio_output@@IAE@XZ 1004b570 f i libucrtd:output.obj
 0001:0004a620       ??0?$output_adapter_data@DV?$stream_output_adapter@D@__crt_stdio_output@@@__crt_stdio_output@@IAE@ABV?$stream_output_adapter@D@1@_KQBDQAU__crt_locale_pointers@@QAD@Z 1004b620 f i libucrtd:output.obj
 0001:0004a680       ??0?$output_adapter_data@DV?$string_output_adapter@D@__crt_stdio_output@@@__crt_stdio_output@@IAE@ABV?$string_output_adapter@D@1@_KQBDQAU__crt_locale_pointers@@QAD@Z 1004b680 f i libucrtd:output.obj
 0001:0004a6e0       ??0?$output_adapter_data@_WV?$stream_output_adapter@_W@__crt_stdio_output@@@__crt_stdio_output@@IAE@ABV?$stream_output_adapter@_W@1@_KQB_WQAU__crt_locale_pointers@@QAD@Z 1004b6e0 f i libucrtd:output.obj
 0001:0004a740       ??0?$output_adapter_data@_WV?$string_output_adapter@_W@__crt_stdio_output@@@__crt_stdio_output@@IAE@ABV?$string_output_adapter@_W@1@_KQB_WQAU__crt_locale_pointers@@QAD@Z 1004b740 f i libucrtd:output.obj
 0001:0004a7a0       ??0?$output_processor@DV?$stream_output_adapter@D@__crt_stdio_output@@V?$format_validation_base@DV?$stream_output_adapter@D@__crt_stdio_output@@@2@@__crt_stdio_output@@QAE@ABV?$stream_output_adapter@D@1@_KQBDQAU__crt_locale_pointers@@QAD@Z 1004b7a0 f i libucrtd:output.obj
 0001:0004a7e0       ??0?$output_processor@DV?$stream_output_adapter@D@__crt_stdio_output@@V?$positional_parameter_base@DV?$stream_output_adapter@D@__crt_stdio_output@@@2@@__crt_stdio_output@@QAE@ABV?$stream_output_adapter@D@1@_KQBDQAU__crt_locale_pointers@@QAD@Z 1004b7e0 f i libucrtd:output.obj
 0001:0004a820       ??0?$output_processor@DV?$stream_output_adapter@D@__crt_stdio_output@@V?$standard_base@DV?$stream_output_adapter@D@__crt_stdio_output@@@2@@__crt_stdio_output@@QAE@ABV?$stream_output_adapter@D@1@_KQBDQAU__crt_locale_pointers@@QAD@Z 1004b820 f i libucrtd:output.obj
 0001:0004a860       ??0?$output_processor@DV?$string_output_adapter@D@__crt_stdio_output@@V?$format_validation_base@DV?$string_output_adapter@D@__crt_stdio_output@@@2@@__crt_stdio_output@@QAE@ABV?$string_output_adapter@D@1@_KQBDQAU__crt_locale_pointers@@QAD@Z 1004b860 f i libucrtd:output.obj
 0001:0004a8a0       ??0?$output_processor@DV?$string_output_adapter@D@__crt_stdio_output@@V?$positional_parameter_base@DV?$string_output_adapter@D@__crt_stdio_output@@@2@@__crt_stdio_output@@QAE@ABV?$string_output_adapter@D@1@_KQBDQAU__crt_locale_pointers@@QAD@Z 1004b8a0 f i libucrtd:output.obj
 0001:0004a8e0       ??0?$output_processor@DV?$string_output_adapter@D@__crt_stdio_output@@V?$standard_base@DV?$string_output_adapter@D@__crt_stdio_output@@@2@@__crt_stdio_output@@QAE@ABV?$string_output_adapter@D@1@_KQBDQAU__crt_locale_pointers@@QAD@Z 1004b8e0 f i libucrtd:output.obj
 0001:0004a920       ??0?$output_processor@_WV?$stream_output_adapter@_W@__crt_stdio_output@@V?$format_validation_base@_WV?$stream_output_adapter@_W@__crt_stdio_output@@@2@@__crt_stdio_output@@QAE@ABV?$stream_output_adapter@_W@1@_KQB_WQAU__crt_locale_pointers@@QAD@Z 1004b920 f i libucrtd:output.obj
 0001:0004a960       ??0?$output_processor@_WV?$stream_output_adapter@_W@__crt_stdio_output@@V?$positional_parameter_base@_WV?$stream_output_adapter@_W@__crt_stdio_output@@@2@@__crt_stdio_output@@QAE@ABV?$stream_output_adapter@_W@1@_KQB_WQAU__crt_locale_pointers@@QAD@Z 1004b960 f i libucrtd:output.obj
 0001:0004a9a0       ??0?$output_processor@_WV?$stream_output_adapter@_W@__crt_stdio_output@@V?$standard_base@_WV?$stream_output_adapter@_W@__crt_stdio_output@@@2@@__crt_stdio_output@@QAE@ABV?$stream_output_adapter@_W@1@_KQB_WQAU__crt_locale_pointers@@QAD@Z 1004b9a0 f i libucrtd:output.obj
 0001:0004a9e0       ??0?$output_processor@_WV?$string_output_adapter@_W@__crt_stdio_output@@V?$format_validation_base@_WV?$string_output_adapter@_W@__crt_stdio_output@@@2@@__crt_stdio_output@@QAE@ABV?$string_output_adapter@_W@1@_KQB_WQAU__crt_locale_pointers@@QAD@Z 1004b9e0 f i libucrtd:output.obj
 0001:0004aa20       ??0?$output_processor@_WV?$string_output_adapter@_W@__crt_stdio_output@@V?$positional_parameter_base@_WV?$string_output_adapter@_W@__crt_stdio_output@@@2@@__crt_stdio_output@@QAE@ABV?$string_output_adapter@_W@1@_KQB_WQAU__crt_locale_pointers@@QAD@Z 1004ba20 f i libucrtd:output.obj
 0001:0004aa60       ??0?$output_processor@_WV?$string_output_adapter@_W@__crt_stdio_output@@V?$standard_base@_WV?$string_output_adapter@_W@__crt_stdio_output@@@2@@__crt_stdio_output@@QAE@ABV?$string_output_adapter@_W@1@_KQB_WQAU__crt_locale_pointers@@QAD@Z 1004ba60 f i libucrtd:output.obj
 0001:0004aaa0       ??0?$stream_output_adapter@D@__crt_stdio_output@@QAE@QAU_iobuf@@@Z 1004baa0 f i libucrtd:output.obj
 0001:0004aac0       ??0?$stream_output_adapter@_W@__crt_stdio_output@@QAE@QAU_iobuf@@@Z 1004bac0 f i libucrtd:output.obj
 0001:0004aae0       ??0?$string_output_adapter@D@__crt_stdio_output@@QAE@QAU?$string_output_adapter_context@D@1@@Z 1004bae0 f i libucrtd:output.obj
 0001:0004ab00       ??0?$string_output_adapter@_W@__crt_stdio_output@@QAE@QAU?$string_output_adapter_context@_W@1@@Z 1004bb00 f i libucrtd:output.obj
 0001:0004ab20       ??0_LocaleUpdate@@QAE@QAU__crt_locale_pointers@@@Z 1004bb20 f i libucrtd:output.obj
 0001:0004ac00       ??0__acrt_stdio_temporary_buffering_guard@@QAE@QAU_iobuf@@@Z 1004bc00 f i libucrtd:output.obj
 0001:0004ac30       ??0__crt_errno_guard@@QAE@QAH@Z 1004bc30 f i libucrtd:output.obj
 0001:0004ac60       ??0__crt_stdio_stream@@QAE@QAU_iobuf@@@Z 1004bc60 f i libucrtd:output.obj
 0001:0004ac80       ??0formatting_buffer@__crt_stdio_output@@QAE@XZ 1004bc80 f i libucrtd:output.obj
 0001:0004acb0       ??1?$common_data@D@__crt_stdio_output@@QAE@XZ 1004bcb0 f i libucrtd:output.obj
 0001:0004acd0       ??1?$common_data@_W@__crt_stdio_output@@QAE@XZ 1004bcd0 f i libucrtd:output.obj
 0001:0004acf0       ??1?$format_validation_base@DV?$stream_output_adapter@D@__crt_stdio_output@@@__crt_stdio_output@@QAE@XZ 1004bcf0 f i libucrtd:output.obj
 0001:0004ad10       ??1?$format_validation_base@DV?$string_output_adapter@D@__crt_stdio_output@@@__crt_stdio_output@@QAE@XZ 1004bd10 f i libucrtd:output.obj
 0001:0004ad30       ??1?$format_validation_base@_WV?$stream_output_adapter@_W@__crt_stdio_output@@@__crt_stdio_output@@QAE@XZ 1004bd30 f i libucrtd:output.obj
 0001:0004ad50       ??1?$format_validation_base@_WV?$string_output_adapter@_W@__crt_stdio_output@@@__crt_stdio_output@@QAE@XZ 1004bd50 f i libucrtd:output.obj
 0001:0004ad70       ??1?$output_adapter_data@DV?$stream_output_adapter@D@__crt_stdio_output@@@__crt_stdio_output@@QAE@XZ 1004bd70 f i libucrtd:output.obj
 0001:0004ad90       ??1?$output_adapter_data@DV?$string_output_adapter@D@__crt_stdio_output@@@__crt_stdio_output@@QAE@XZ 1004bd90 f i libucrtd:output.obj
 0001:0004adb0       ??1?$output_adapter_data@_WV?$stream_output_adapter@_W@__crt_stdio_output@@@__crt_stdio_output@@QAE@XZ 1004bdb0 f i libucrtd:output.obj
 0001:0004add0       ??1?$output_adapter_data@_WV?$string_output_adapter@_W@__crt_stdio_output@@@__crt_stdio_output@@QAE@XZ 1004bdd0 f i libucrtd:output.obj
 0001:0004adf0       ??1?$output_processor@DV?$stream_output_adapter@D@__crt_stdio_output@@V?$format_validation_base@DV?$stream_output_adapter@D@__crt_stdio_output@@@2@@__crt_stdio_output@@QAE@XZ 1004bdf0 f i libucrtd:output.obj
 0001:0004ae10       ??1?$output_processor@DV?$stream_output_adapter@D@__crt_stdio_output@@V?$positional_parameter_base@DV?$stream_output_adapter@D@__crt_stdio_output@@@2@@__crt_stdio_output@@QAE@XZ 1004be10 f i libucrtd:output.obj
 0001:0004ae30       ??1?$output_processor@DV?$stream_output_adapter@D@__crt_stdio_output@@V?$standard_base@DV?$stream_output_adapter@D@__crt_stdio_output@@@2@@__crt_stdio_output@@QAE@XZ 1004be30 f i libucrtd:output.obj
 0001:0004ae50       ??1?$output_processor@DV?$string_output_adapter@D@__crt_stdio_output@@V?$format_validation_base@DV?$string_output_adapter@D@__crt_stdio_output@@@2@@__crt_stdio_output@@QAE@XZ 1004be50 f i libucrtd:output.obj
 0001:0004ae70       ??1?$output_processor@DV?$string_output_adapter@D@__crt_stdio_output@@V?$positional_parameter_base@DV?$string_output_adapter@D@__crt_stdio_output@@@2@@__crt_stdio_output@@QAE@XZ 1004be70 f i libucrtd:output.obj
 0001:0004ae90       ??1?$output_processor@DV?$string_output_adapter@D@__crt_stdio_output@@V?$standard_base@DV?$string_output_adapter@D@__crt_stdio_output@@@2@@__crt_stdio_output@@QAE@XZ 1004be90 f i libucrtd:output.obj
 0001:0004aeb0       ??1?$output_processor@_WV?$stream_output_adapter@_W@__crt_stdio_output@@V?$format_validation_base@_WV?$stream_output_adapter@_W@__crt_stdio_output@@@2@@__crt_stdio_output@@QAE@XZ 1004beb0 f i libucrtd:output.obj
 0001:0004aed0       ??1?$output_processor@_WV?$stream_output_adapter@_W@__crt_stdio_output@@V?$positional_parameter_base@_WV?$stream_output_adapter@_W@__crt_stdio_output@@@2@@__crt_stdio_output@@QAE@XZ 1004bed0 f i libucrtd:output.obj
 0001:0004aef0       ??1?$output_processor@_WV?$stream_output_adapter@_W@__crt_stdio_output@@V?$standard_base@_WV?$stream_output_adapter@_W@__crt_stdio_output@@@2@@__crt_stdio_output@@QAE@XZ 1004bef0 f i libucrtd:output.obj
 0001:0004af10       ??1?$output_processor@_WV?$string_output_adapter@_W@__crt_stdio_output@@V?$format_validation_base@_WV?$string_output_adapter@_W@__crt_stdio_output@@@2@@__crt_stdio_output@@QAE@XZ 1004bf10 f i libucrtd:output.obj
 0001:0004af30       ??1?$output_processor@_WV?$string_output_adapter@_W@__crt_stdio_output@@V?$positional_parameter_base@_WV?$string_output_adapter@_W@__crt_stdio_output@@@2@@__crt_stdio_output@@QAE@XZ 1004bf30 f i libucrtd:output.obj
 0001:0004af50       ??1?$output_processor@_WV?$string_output_adapter@_W@__crt_stdio_output@@V?$standard_base@_WV?$string_output_adapter@_W@__crt_stdio_output@@@2@@__crt_stdio_output@@QAE@XZ 1004bf50 f i libucrtd:output.obj
 0001:0004af70       ??1?$positional_parameter_base@DV?$stream_output_adapter@D@__crt_stdio_output@@@__crt_stdio_output@@QAE@XZ 1004bf70 f i libucrtd:output.obj
 0001:0004af90       ??1?$positional_parameter_base@DV?$string_output_adapter@D@__crt_stdio_output@@@__crt_stdio_output@@QAE@XZ 1004bf90 f i libucrtd:output.obj
 0001:0004afb0       ??1?$positional_parameter_base@_WV?$stream_output_adapter@_W@__crt_stdio_output@@@__crt_stdio_output@@QAE@XZ 1004bfb0 f i libucrtd:output.obj
 0001:0004afd0       ??1?$positional_parameter_base@_WV?$string_output_adapter@_W@__crt_stdio_output@@@__crt_stdio_output@@QAE@XZ 1004bfd0 f i libucrtd:output.obj
 0001:0004aff0       ??1?$standard_base@DV?$stream_output_adapter@D@__crt_stdio_output@@@__crt_stdio_output@@QAE@XZ 1004bff0 f i libucrtd:output.obj
 0001:0004b010       ??1?$standard_base@DV?$string_output_adapter@D@__crt_stdio_output@@@__crt_stdio_output@@QAE@XZ 1004c010 f i libucrtd:output.obj
 0001:0004b030       ??1?$standard_base@_WV?$stream_output_adapter@_W@__crt_stdio_output@@@__crt_stdio_output@@QAE@XZ 1004c030 f i libucrtd:output.obj
 0001:0004b050       ??1?$standard_base@_WV?$string_output_adapter@_W@__crt_stdio_output@@@__crt_stdio_output@@QAE@XZ 1004c050 f i libucrtd:output.obj
 0001:0004b070       ??1_LocaleUpdate@@QAE@XZ   1004c070 f i libucrtd:output.obj
 0001:0004b0b0       ??1__acrt_stdio_temporary_buffering_guard@@QAE@XZ 1004c0b0 f i libucrtd:output.obj
 0001:0004b0e0       ??1__crt_errno_guard@@QAE@XZ 1004c0e0 f i libucrtd:output.obj
 0001:0004b110       ??1formatting_buffer@__crt_stdio_output@@QAE@XZ 1004c110 f i libucrtd:output.obj
 0001:0004b130       ??4?$__crt_unique_heap_ptr@DU__crt_internal_free_policy@@@@QAEAAV0@$$QAV0@@Z 1004c130 f i libucrtd:output.obj
 0001:0004b160       ??C__crt_stdio_stream@@QBEPAU__crt_stdio_stream_data@@XZ 1004c160 f i libucrtd:output.obj
 0001:0004b8a0       ?GetLocaleT@_LocaleUpdate@@QAEPAU__crt_locale_pointers@@XZ 1004c8a0 f i libucrtd:output.obj
 0001:0004b8c0       ?adjust_hexit@?$output_processor@DV?$stream_output_adapter@D@__crt_stdio_output@@V?$format_validation_base@DV?$stream_output_adapter@D@__crt_stdio_output@@@2@@__crt_stdio_output@@CADH_N@Z 1004c8c0 f i libucrtd:output.obj
 0001:0004b900       ?adjust_hexit@?$output_processor@DV?$stream_output_adapter@D@__crt_stdio_output@@V?$positional_parameter_base@DV?$stream_output_adapter@D@__crt_stdio_output@@@2@@__crt_stdio_output@@CADH_N@Z 1004c900 f i libucrtd:output.obj
 0001:0004b940       ?adjust_hexit@?$output_processor@DV?$stream_output_adapter@D@__crt_stdio_output@@V?$standard_base@DV?$stream_output_adapter@D@__crt_stdio_output@@@2@@__crt_stdio_output@@CADH_N@Z 1004c940 f i libucrtd:output.obj
 0001:0004b980       ?adjust_hexit@?$output_processor@DV?$string_output_adapter@D@__crt_stdio_output@@V?$format_validation_base@DV?$string_output_adapter@D@__crt_stdio_output@@@2@@__crt_stdio_output@@CADH_N@Z 1004c980 f i libucrtd:output.obj
 0001:0004b9c0       ?adjust_hexit@?$output_processor@DV?$string_output_adapter@D@__crt_stdio_output@@V?$positional_parameter_base@DV?$string_output_adapter@D@__crt_stdio_output@@@2@@__crt_stdio_output@@CADH_N@Z 1004c9c0 f i libucrtd:output.obj
 0001:0004ba00       ?adjust_hexit@?$output_processor@DV?$string_output_adapter@D@__crt_stdio_output@@V?$standard_base@DV?$string_output_adapter@D@__crt_stdio_output@@@2@@__crt_stdio_output@@CADH_N@Z 1004ca00 f i libucrtd:output.obj
 0001:0004ba40       ?adjust_hexit@?$output_processor@_WV?$stream_output_adapter@_W@__crt_stdio_output@@V?$format_validation_base@_WV?$stream_output_adapter@_W@__crt_stdio_output@@@2@@__crt_stdio_output@@CADH_N@Z 1004ca40 f i libucrtd:output.obj
 0001:0004ba80       ?adjust_hexit@?$output_processor@_WV?$stream_output_adapter@_W@__crt_stdio_output@@V?$positional_parameter_base@_WV?$stream_output_adapter@_W@__crt_stdio_output@@@2@@__crt_stdio_output@@CADH_N@Z 1004ca80 f i libucrtd:output.obj
 0001:0004bac0       ?adjust_hexit@?$output_processor@_WV?$stream_output_adapter@_W@__crt_stdio_output@@V?$standard_base@_WV?$stream_output_adapter@_W@__crt_stdio_output@@@2@@__crt_stdio_output@@CADH_N@Z 1004cac0 f i libucrtd:output.obj
 0001:0004bb00       ?adjust_hexit@?$output_processor@_WV?$string_output_adapter@_W@__crt_stdio_output@@V?$format_validation_base@_WV?$string_output_adapter@_W@__crt_stdio_output@@@2@@__crt_stdio_output@@CADH_N@Z 1004cb00 f i libucrtd:output.obj
 0001:0004bb40       ?adjust_hexit@?$output_processor@_WV?$string_output_adapter@_W@__crt_stdio_output@@V?$positional_parameter_base@_WV?$string_output_adapter@_W@__crt_stdio_output@@@2@@__crt_stdio_output@@CADH_N@Z 1004cb40 f i libucrtd:output.obj
 0001:0004bb80       ?adjust_hexit@?$output_processor@_WV?$string_output_adapter@_W@__crt_stdio_output@@V?$standard_base@_WV?$string_output_adapter@_W@__crt_stdio_output@@@2@@__crt_stdio_output@@CADH_N@Z 1004cb80 f i libucrtd:output.obj
 0001:0004bbc0       ?advance_to_next_pass@?$positional_parameter_base@DV?$stream_output_adapter@D@__crt_stdio_output@@@__crt_stdio_output@@IAE_NXZ 1004cbc0 f i libucrtd:output.obj
 0001:0004bc60       ?advance_to_next_pass@?$positional_parameter_base@DV?$string_output_adapter@D@__crt_stdio_output@@@__crt_stdio_output@@IAE_NXZ 1004cc60 f i libucrtd:output.obj
 0001:0004bd00       ?advance_to_next_pass@?$positional_parameter_base@_WV?$stream_output_adapter@_W@__crt_stdio_output@@@__crt_stdio_output@@IAE_NXZ 1004cd00 f i libucrtd:output.obj
 0001:0004bda0       ?advance_to_next_pass@?$positional_parameter_base@_WV?$string_output_adapter@_W@__crt_stdio_output@@@__crt_stdio_output@@IAE_NXZ 1004cda0 f i libucrtd:output.obj
 0001:0004be40       ?advance_to_next_pass@?$standard_base@DV?$stream_output_adapter@D@__crt_stdio_output@@@__crt_stdio_output@@IAE_NXZ 1004ce40 f i libucrtd:output.obj
 0001:0004be90       ?advance_to_next_pass@?$standard_base@DV?$string_output_adapter@D@__crt_stdio_output@@@__crt_stdio_output@@IAE_NXZ 1004ce90 f i libucrtd:output.obj
 0001:0004bee0       ?advance_to_next_pass@?$standard_base@_WV?$stream_output_adapter@_W@__crt_stdio_output@@@__crt_stdio_output@@IAE_NXZ 1004cee0 f i libucrtd:output.obj
 0001:0004bf30       ?advance_to_next_pass@?$standard_base@_WV?$string_output_adapter@_W@__crt_stdio_output@@@__crt_stdio_output@@IAE_NXZ 1004cf30 f i libucrtd:output.obj
 0001:0004bf80       ?crop_zeroes@__crt_stdio_output@@YAXPADQAU__crt_locale_pointers@@@Z 1004cf80 f i libucrtd:output.obj
 0001:0004c080       ?find_next_state@?$output_processor@DV?$stream_output_adapter@D@__crt_stdio_output@@V?$format_validation_base@DV?$stream_output_adapter@D@__crt_stdio_output@@@2@@__crt_stdio_output@@ABE?AW4state@2@DW432@@Z 1004d080 f i libucrtd:output.obj
 0001:0004c100       ?find_next_state@?$output_processor@DV?$stream_output_adapter@D@__crt_stdio_output@@V?$positional_parameter_base@DV?$stream_output_adapter@D@__crt_stdio_output@@@2@@__crt_stdio_output@@ABE?AW4state@2@DW432@@Z 1004d100 f i libucrtd:output.obj
 0001:0004c180       ?find_next_state@?$output_processor@DV?$stream_output_adapter@D@__crt_stdio_output@@V?$standard_base@DV?$stream_output_adapter@D@__crt_stdio_output@@@2@@__crt_stdio_output@@ABE?AW4state@2@DW432@@Z 1004d180 f i libucrtd:output.obj
 0001:0004c200       ?find_next_state@?$output_processor@DV?$string_output_adapter@D@__crt_stdio_output@@V?$format_validation_base@DV?$string_output_adapter@D@__crt_stdio_output@@@2@@__crt_stdio_output@@ABE?AW4state@2@DW432@@Z 1004d200 f i libucrtd:output.obj
 0001:0004c280       ?find_next_state@?$output_processor@DV?$string_output_adapter@D@__crt_stdio_output@@V?$positional_parameter_base@DV?$string_output_adapter@D@__crt_stdio_output@@@2@@__crt_stdio_output@@ABE?AW4state@2@DW432@@Z 1004d280 f i libucrtd:output.obj
 0001:0004c300       ?find_next_state@?$output_processor@DV?$string_output_adapter@D@__crt_stdio_output@@V?$standard_base@DV?$string_output_adapter@D@__crt_stdio_output@@@2@@__crt_stdio_output@@ABE?AW4state@2@DW432@@Z 1004d300 f i libucrtd:output.obj
 0001:0004c380       ?find_next_state@?$output_processor@_WV?$stream_output_adapter@_W@__crt_stdio_output@@V?$format_validation_base@_WV?$stream_output_adapter@_W@__crt_stdio_output@@@2@@__crt_stdio_output@@ABE?AW4state@2@_WW432@@Z 1004d380 f i libucrtd:output.obj
 0001:0004c400       ?find_next_state@?$output_processor@_WV?$stream_output_adapter@_W@__crt_stdio_output@@V?$positional_parameter_base@_WV?$stream_output_adapter@_W@__crt_stdio_output@@@2@@__crt_stdio_output@@ABE?AW4state@2@_WW432@@Z 1004d400 f i libucrtd:output.obj
 0001:0004c480       ?find_next_state@?$output_processor@_WV?$stream_output_adapter@_W@__crt_stdio_output@@V?$standard_base@_WV?$stream_output_adapter@_W@__crt_stdio_output@@@2@@__crt_stdio_output@@ABE?AW4state@2@_WW432@@Z 1004d480 f i libucrtd:output.obj
 0001:0004c500       ?find_next_state@?$output_processor@_WV?$string_output_adapter@_W@__crt_stdio_output@@V?$format_validation_base@_WV?$string_output_adapter@_W@__crt_stdio_output@@@2@@__crt_stdio_output@@ABE?AW4state@2@_WW432@@Z 1004d500 f i libucrtd:output.obj
 0001:0004c580       ?find_next_state@?$output_processor@_WV?$string_output_adapter@_W@__crt_stdio_output@@V?$positional_parameter_base@_WV?$string_output_adapter@_W@__crt_stdio_output@@@2@@__crt_stdio_output@@ABE?AW4state@2@_WW432@@Z 1004d580 f i libucrtd:output.obj
 0001:0004c600       ?find_next_state@?$output_processor@_WV?$string_output_adapter@_W@__crt_stdio_output@@V?$standard_base@_WV?$string_output_adapter@_W@__crt_stdio_output@@@2@@__crt_stdio_output@@ABE?AW4state@2@_WW432@@Z 1004d600 f i libucrtd:output.obj
 0001:0004c680       ?force_decimal_point@__crt_stdio_output@@YAXPADQAU__crt_locale_pointers@@@Z 1004d680 f i libucrtd:output.obj
 0001:0004c730       ?get_flags@__crt_stdio_stream@@QBEJXZ 1004d730 f i libucrtd:output.obj
 0001:0004c750       ?get_parameter_type@?$positional_parameter_base@DV?$stream_output_adapter@D@__crt_stdio_output@@@__crt_stdio_output@@CA?AW4parameter_type@12@F@Z 1004d750 f i libucrtd:output.obj
 0001:0004c760       ?get_parameter_type@?$positional_parameter_base@DV?$stream_output_adapter@D@__crt_stdio_output@@@__crt_stdio_output@@CA?AW4parameter_type@12@G@Z 1004d760 f i libucrtd:output.obj
 0001:0004c770       ?get_parameter_type@?$positional_parameter_base@DV?$stream_output_adapter@D@__crt_stdio_output@@@__crt_stdio_output@@CA?AW4parameter_type@12@H@Z 1004d770 f i libucrtd:output.obj
 0001:0004c780       ?get_parameter_type@?$positional_parameter_base@DV?$stream_output_adapter@D@__crt_stdio_output@@@__crt_stdio_output@@CA?AW4parameter_type@12@I@Z 1004d780 f i libucrtd:output.obj
 0001:0004c790       ?get_parameter_type@?$positional_parameter_base@DV?$stream_output_adapter@D@__crt_stdio_output@@@__crt_stdio_output@@CA?AW4parameter_type@12@U_CRT_DOUBLE@@@Z 1004d790 f i libucrtd:output.obj
 0001:0004c7a0       ?get_parameter_type@?$positional_parameter_base@DV?$stream_output_adapter@D@__crt_stdio_output@@@__crt_stdio_output@@CA?AW4parameter_type@12@_J@Z 1004d7a0 f i libucrtd:output.obj
 0001:0004c7b0       ?get_parameter_type@?$positional_parameter_base@DV?$stream_output_adapter@D@__crt_stdio_output@@@__crt_stdio_output@@CA?AW4parameter_type@12@_K@Z 1004d7b0 f i libucrtd:output.obj
 0001:0004c7c0       ?get_parameter_type@?$positional_parameter_base@DV?$stream_output_adapter@D@__crt_stdio_output@@@__crt_stdio_output@@CA?AW4parameter_type@12@_W@Z 1004d7c0 f i libucrtd:output.obj
 0001:0004c7d0       ?get_parameter_type@?$positional_parameter_base@DV?$string_output_adapter@D@__crt_stdio_output@@@__crt_stdio_output@@CA?AW4parameter_type@12@F@Z 1004d7d0 f i libucrtd:output.obj
 0001:0004c7e0       ?get_parameter_type@?$positional_parameter_base@DV?$string_output_adapter@D@__crt_stdio_output@@@__crt_stdio_output@@CA?AW4parameter_type@12@G@Z 1004d7e0 f i libucrtd:output.obj
 0001:0004c7f0       ?get_parameter_type@?$positional_parameter_base@DV?$string_output_adapter@D@__crt_stdio_output@@@__crt_stdio_output@@CA?AW4parameter_type@12@H@Z 1004d7f0 f i libucrtd:output.obj
 0001:0004c800       ?get_parameter_type@?$positional_parameter_base@DV?$string_output_adapter@D@__crt_stdio_output@@@__crt_stdio_output@@CA?AW4parameter_type@12@I@Z 1004d800 f i libucrtd:output.obj
 0001:0004c810       ?get_parameter_type@?$positional_parameter_base@DV?$string_output_adapter@D@__crt_stdio_output@@@__crt_stdio_output@@CA?AW4parameter_type@12@U_CRT_DOUBLE@@@Z 1004d810 f i libucrtd:output.obj
 0001:0004c820       ?get_parameter_type@?$positional_parameter_base@DV?$string_output_adapter@D@__crt_stdio_output@@@__crt_stdio_output@@CA?AW4parameter_type@12@_J@Z 1004d820 f i libucrtd:output.obj
 0001:0004c830       ?get_parameter_type@?$positional_parameter_base@DV?$string_output_adapter@D@__crt_stdio_output@@@__crt_stdio_output@@CA?AW4parameter_type@12@_K@Z 1004d830 f i libucrtd:output.obj
 0001:0004c840       ?get_parameter_type@?$positional_parameter_base@DV?$string_output_adapter@D@__crt_stdio_output@@@__crt_stdio_output@@CA?AW4parameter_type@12@_W@Z 1004d840 f i libucrtd:output.obj
 0001:0004c850       ?get_parameter_type@?$positional_parameter_base@_WV?$stream_output_adapter@_W@__crt_stdio_output@@@__crt_stdio_output@@CA?AW4parameter_type@12@F@Z 1004d850 f i libucrtd:output.obj
 0001:0004c860       ?get_parameter_type@?$positional_parameter_base@_WV?$stream_output_adapter@_W@__crt_stdio_output@@@__crt_stdio_output@@CA?AW4parameter_type@12@G@Z 1004d860 f i libucrtd:output.obj
 0001:0004c870       ?get_parameter_type@?$positional_parameter_base@_WV?$stream_output_adapter@_W@__crt_stdio_output@@@__crt_stdio_output@@CA?AW4parameter_type@12@H@Z 1004d870 f i libucrtd:output.obj
 0001:0004c880       ?get_parameter_type@?$positional_parameter_base@_WV?$stream_output_adapter@_W@__crt_stdio_output@@@__crt_stdio_output@@CA?AW4parameter_type@12@I@Z 1004d880 f i libucrtd:output.obj
 0001:0004c890       ?get_parameter_type@?$positional_parameter_base@_WV?$stream_output_adapter@_W@__crt_stdio_output@@@__crt_stdio_output@@CA?AW4parameter_type@12@U_CRT_DOUBLE@@@Z 1004d890 f i libucrtd:output.obj
 0001:0004c8a0       ?get_parameter_type@?$positional_parameter_base@_WV?$stream_output_adapter@_W@__crt_stdio_output@@@__crt_stdio_output@@CA?AW4parameter_type@12@_J@Z 1004d8a0 f i libucrtd:output.obj
 0001:0004c8b0       ?get_parameter_type@?$positional_parameter_base@_WV?$stream_output_adapter@_W@__crt_stdio_output@@@__crt_stdio_output@@CA?AW4parameter_type@12@_K@Z 1004d8b0 f i libucrtd:output.obj
 0001:0004c8c0       ?get_parameter_type@?$positional_parameter_base@_WV?$stream_output_adapter@_W@__crt_stdio_output@@@__crt_stdio_output@@CA?AW4parameter_type@12@_W@Z 1004d8c0 f i libucrtd:output.obj
 0001:0004c8d0       ?get_parameter_type@?$positional_parameter_base@_WV?$string_output_adapter@_W@__crt_stdio_output@@@__crt_stdio_output@@CA?AW4parameter_type@12@F@Z 1004d8d0 f i libucrtd:output.obj
 0001:0004c8e0       ?get_parameter_type@?$positional_parameter_base@_WV?$string_output_adapter@_W@__crt_stdio_output@@@__crt_stdio_output@@CA?AW4parameter_type@12@G@Z 1004d8e0 f i libucrtd:output.obj
 0001:0004c8f0       ?get_parameter_type@?$positional_parameter_base@_WV?$string_output_adapter@_W@__crt_stdio_output@@@__crt_stdio_output@@CA?AW4parameter_type@12@H@Z 1004d8f0 f i libucrtd:output.obj
 0001:0004c900       ?get_parameter_type@?$positional_parameter_base@_WV?$string_output_adapter@_W@__crt_stdio_output@@@__crt_stdio_output@@CA?AW4parameter_type@12@I@Z 1004d900 f i libucrtd:output.obj
 0001:0004c910       ?get_parameter_type@?$positional_parameter_base@_WV?$string_output_adapter@_W@__crt_stdio_output@@@__crt_stdio_output@@CA?AW4parameter_type@12@U_CRT_DOUBLE@@@Z 1004d910 f i libucrtd:output.obj
 0001:0004c920       ?get_parameter_type@?$positional_parameter_base@_WV?$string_output_adapter@_W@__crt_stdio_output@@@__crt_stdio_output@@CA?AW4parameter_type@12@_J@Z 1004d920 f i libucrtd:output.obj
 0001:0004c930       ?get_parameter_type@?$positional_parameter_base@_WV?$string_output_adapter@_W@__crt_stdio_output@@@__crt_stdio_output@@CA?AW4parameter_type@12@_K@Z 1004d930 f i libucrtd:output.obj
 0001:0004c940       ?get_parameter_type@?$positional_parameter_base@_WV?$string_output_adapter@_W@__crt_stdio_output@@@__crt_stdio_output@@CA?AW4parameter_type@12@_W@Z 1004d940 f i libucrtd:output.obj
 0001:0004c950       ?has_flag@?$output_processor@DV?$stream_output_adapter@D@__crt_stdio_output@@V?$format_validation_base@DV?$stream_output_adapter@D@__crt_stdio_output@@@2@@__crt_stdio_output@@ABE_NI@Z 1004d950 f i libucrtd:output.obj
 0001:0004c980       ?has_flag@?$output_processor@DV?$stream_output_adapter@D@__crt_stdio_output@@V?$positional_parameter_base@DV?$stream_output_adapter@D@__crt_stdio_output@@@2@@__crt_stdio_output@@ABE_NI@Z 1004d980 f i libucrtd:output.obj
 0001:0004c9b0       ?has_flag@?$output_processor@DV?$stream_output_adapter@D@__crt_stdio_output@@V?$standard_base@DV?$stream_output_adapter@D@__crt_stdio_output@@@2@@__crt_stdio_output@@ABE_NI@Z 1004d9b0 f i libucrtd:output.obj
 0001:0004c9e0       ?has_flag@?$output_processor@DV?$string_output_adapter@D@__crt_stdio_output@@V?$format_validation_base@DV?$string_output_adapter@D@__crt_stdio_output@@@2@@__crt_stdio_output@@ABE_NI@Z 1004d9e0 f i libucrtd:output.obj
 0001:0004ca10       ?has_flag@?$output_processor@DV?$string_output_adapter@D@__crt_stdio_output@@V?$positional_parameter_base@DV?$string_output_adapter@D@__crt_stdio_output@@@2@@__crt_stdio_output@@ABE_NI@Z 1004da10 f i libucrtd:output.obj
 0001:0004ca40       ?has_flag@?$output_processor@DV?$string_output_adapter@D@__crt_stdio_output@@V?$standard_base@DV?$string_output_adapter@D@__crt_stdio_output@@@2@@__crt_stdio_output@@ABE_NI@Z 1004da40 f i libucrtd:output.obj
 0001:0004ca70       ?has_flag@?$output_processor@_WV?$stream_output_adapter@_W@__crt_stdio_output@@V?$format_validation_base@_WV?$stream_output_adapter@_W@__crt_stdio_output@@@2@@__crt_stdio_output@@ABE_NI@Z 1004da70 f i libucrtd:output.obj
 0001:0004caa0       ?has_flag@?$output_processor@_WV?$stream_output_adapter@_W@__crt_stdio_output@@V?$positional_parameter_base@_WV?$stream_output_adapter@_W@__crt_stdio_output@@@2@@__crt_stdio_output@@ABE_NI@Z 1004daa0 f i libucrtd:output.obj
 0001:0004cad0       ?has_flag@?$output_processor@_WV?$stream_output_adapter@_W@__crt_stdio_output@@V?$standard_base@_WV?$stream_output_adapter@_W@__crt_stdio_output@@@2@@__crt_stdio_output@@ABE_NI@Z 1004dad0 f i libucrtd:output.obj
 0001:0004cb00       ?has_flag@?$output_processor@_WV?$string_output_adapter@_W@__crt_stdio_output@@V?$format_validation_base@_WV?$string_output_adapter@_W@__crt_stdio_output@@@2@@__crt_stdio_output@@ABE_NI@Z 1004db00 f i libucrtd:output.obj
 0001:0004cb30       ?has_flag@?$output_processor@_WV?$string_output_adapter@_W@__crt_stdio_output@@V?$positional_parameter_base@_WV?$string_output_adapter@_W@__crt_stdio_output@@@2@@__crt_stdio_output@@ABE_NI@Z 1004db30 f i libucrtd:output.obj
 0001:0004cb60       ?has_flag@?$output_processor@_WV?$string_output_adapter@_W@__crt_stdio_output@@V?$standard_base@_WV?$string_output_adapter@_W@__crt_stdio_output@@@2@@__crt_stdio_output@@ABE_NI@Z 1004db60 f i libucrtd:output.obj
 0001:0004cb90       ?is_positional_parameter_reappearance_consistent@?$positional_parameter_base@DV?$stream_output_adapter@D@__crt_stdio_output@@@__crt_stdio_output@@AAE_NABUparameter_data@12@W4parameter_type@12@DW4length_modifier@2@@Z 1004db90 f i libucrtd:output.obj
 0001:0004cdc0       ?is_positional_parameter_reappearance_consistent@?$positional_parameter_base@DV?$string_output_adapter@D@__crt_stdio_output@@@__crt_stdio_output@@AAE_NABUparameter_data@12@W4parameter_type@12@DW4length_modifier@2@@Z 1004ddc0 f i libucrtd:output.obj
 0001:0004cff0       ?is_positional_parameter_reappearance_consistent@?$positional_parameter_base@_WV?$stream_output_adapter@_W@__crt_stdio_output@@@__crt_stdio_output@@AAE_NABUparameter_data@12@W4parameter_type@12@_WW4length_modifier@2@@Z 1004dff0 f i libucrtd:output.obj
 0001:0004d220       ?is_positional_parameter_reappearance_consistent@?$positional_parameter_base@_WV?$string_output_adapter@_W@__crt_stdio_output@@@__crt_stdio_output@@AAE_NABUparameter_data@12@W4parameter_type@12@_WW4length_modifier@2@@Z 1004e220 f i libucrtd:output.obj
 0001:0004d450       ?is_string_backed@__crt_stdio_stream@@QBE_NXZ 1004e450 f i libucrtd:output.obj
 0001:0004d490       ?narrow_null_string@?$output_processor@DV?$stream_output_adapter@D@__crt_stdio_output@@V?$format_validation_base@DV?$stream_output_adapter@D@__crt_stdio_output@@@2@@__crt_stdio_output@@CAPADXZ 1004e490 f i libucrtd:output.obj
 0001:0004d4a0       ?narrow_null_string@?$output_processor@DV?$stream_output_adapter@D@__crt_stdio_output@@V?$positional_parameter_base@DV?$stream_output_adapter@D@__crt_stdio_output@@@2@@__crt_stdio_output@@CAPADXZ 1004e4a0 f i libucrtd:output.obj
 0001:0004d4b0       ?narrow_null_string@?$output_processor@DV?$stream_output_adapter@D@__crt_stdio_output@@V?$standard_base@DV?$stream_output_adapter@D@__crt_stdio_output@@@2@@__crt_stdio_output@@CAPADXZ 1004e4b0 f i libucrtd:output.obj
 0001:0004d4c0       ?narrow_null_string@?$output_processor@DV?$string_output_adapter@D@__crt_stdio_output@@V?$format_validation_base@DV?$string_output_adapter@D@__crt_stdio_output@@@2@@__crt_stdio_output@@CAPADXZ 1004e4c0 f i libucrtd:output.obj
 0001:0004d4d0       ?narrow_null_string@?$output_processor@DV?$string_output_adapter@D@__crt_stdio_output@@V?$positional_parameter_base@DV?$string_output_adapter@D@__crt_stdio_output@@@2@@__crt_stdio_output@@CAPADXZ 1004e4d0 f i libucrtd:output.obj
 0001:0004d4e0       ?narrow_null_string@?$output_processor@DV?$string_output_adapter@D@__crt_stdio_output@@V?$standard_base@DV?$string_output_adapter@D@__crt_stdio_output@@@2@@__crt_stdio_output@@CAPADXZ 1004e4e0 f i libucrtd:output.obj
 0001:0004d4f0       ?narrow_null_string@?$output_processor@_WV?$stream_output_adapter@_W@__crt_stdio_output@@V?$format_validation_base@_WV?$stream_output_adapter@_W@__crt_stdio_output@@@2@@__crt_stdio_output@@CAPADXZ 1004e4f0 f i libucrtd:output.obj
 0001:0004d500       ?narrow_null_string@?$output_processor@_WV?$stream_output_adapter@_W@__crt_stdio_output@@V?$positional_parameter_base@_WV?$stream_output_adapter@_W@__crt_stdio_output@@@2@@__crt_stdio_output@@CAPADXZ 1004e500 f i libucrtd:output.obj
 0001:0004d510       ?narrow_null_string@?$output_processor@_WV?$stream_output_adapter@_W@__crt_stdio_output@@V?$standard_base@_WV?$stream_output_adapter@_W@__crt_stdio_output@@@2@@__crt_stdio_output@@CAPADXZ 1004e510 f i libucrtd:output.obj
 0001:0004d520       ?narrow_null_string@?$output_processor@_WV?$string_output_adapter@_W@__crt_stdio_output@@V?$format_validation_base@_WV?$string_output_adapter@_W@__crt_stdio_output@@@2@@__crt_stdio_output@@CAPADXZ 1004e520 f i libucrtd:output.obj
 0001:0004d530       ?narrow_null_string@?$output_processor@_WV?$string_output_adapter@_W@__crt_stdio_output@@V?$positional_parameter_base@_WV?$string_output_adapter@_W@__crt_stdio_output@@@2@@__crt_stdio_output@@CAPADXZ 1004e530 f i libucrtd:output.obj
 0001:0004d540       ?narrow_null_string@?$output_processor@_WV?$string_output_adapter@_W@__crt_stdio_output@@V?$standard_base@_WV?$string_output_adapter@_W@__crt_stdio_output@@@2@@__crt_stdio_output@@CAPADXZ 1004e540 f i libucrtd:output.obj
 0001:0004d550       ?parse_int_from_format_string@?$output_processor@DV?$stream_output_adapter@D@__crt_stdio_output@@V?$format_validation_base@DV?$stream_output_adapter@D@__crt_stdio_output@@@2@@__crt_stdio_output@@AAE_NQAH@Z 1004e550 f i libucrtd:output.obj
 0001:0004d600       ?parse_int_from_format_string@?$output_processor@DV?$stream_output_adapter@D@__crt_stdio_output@@V?$positional_parameter_base@DV?$stream_output_adapter@D@__crt_stdio_output@@@2@@__crt_stdio_output@@AAE_NQAH@Z 1004e600 f i libucrtd:output.obj
 0001:0004d6b0       ?parse_int_from_format_string@?$output_processor@DV?$stream_output_adapter@D@__crt_stdio_output@@V?$standard_base@DV?$stream_output_adapter@D@__crt_stdio_output@@@2@@__crt_stdio_output@@AAE_NQAH@Z 1004e6b0 f i libucrtd:output.obj
 0001:0004d760       ?parse_int_from_format_string@?$output_processor@DV?$string_output_adapter@D@__crt_stdio_output@@V?$format_validation_base@DV?$string_output_adapter@D@__crt_stdio_output@@@2@@__crt_stdio_output@@AAE_NQAH@Z 1004e760 f i libucrtd:output.obj
 0001:0004d810       ?parse_int_from_format_string@?$output_processor@DV?$string_output_adapter@D@__crt_stdio_output@@V?$positional_parameter_base@DV?$string_output_adapter@D@__crt_stdio_output@@@2@@__crt_stdio_output@@AAE_NQAH@Z 1004e810 f i libucrtd:output.obj
 0001:0004d8c0       ?parse_int_from_format_string@?$output_processor@DV?$string_output_adapter@D@__crt_stdio_output@@V?$standard_base@DV?$string_output_adapter@D@__crt_stdio_output@@@2@@__crt_stdio_output@@AAE_NQAH@Z 1004e8c0 f i libucrtd:output.obj
 0001:0004d970       ?parse_int_from_format_string@?$output_processor@_WV?$stream_output_adapter@_W@__crt_stdio_output@@V?$format_validation_base@_WV?$stream_output_adapter@_W@__crt_stdio_output@@@2@@__crt_stdio_output@@AAE_NQAH@Z 1004e970 f i libucrtd:output.obj
 0001:0004da20       ?parse_int_from_format_string@?$output_processor@_WV?$stream_output_adapter@_W@__crt_stdio_output@@V?$positional_parameter_base@_WV?$stream_output_adapter@_W@__crt_stdio_output@@@2@@__crt_stdio_output@@AAE_NQAH@Z 1004ea20 f i libucrtd:output.obj
 0001:0004dad0       ?parse_int_from_format_string@?$output_processor@_WV?$stream_output_adapter@_W@__crt_stdio_output@@V?$standard_base@_WV?$stream_output_adapter@_W@__crt_stdio_output@@@2@@__crt_stdio_output@@AAE_NQAH@Z 1004ead0 f i libucrtd:output.obj
 0001:0004db80       ?parse_int_from_format_string@?$output_processor@_WV?$string_output_adapter@_W@__crt_stdio_output@@V?$format_validation_base@_WV?$string_output_adapter@_W@__crt_stdio_output@@@2@@__crt_stdio_output@@AAE_NQAH@Z 1004eb80 f i libucrtd:output.obj
 0001:0004dc30       ?parse_int_from_format_string@?$output_processor@_WV?$string_output_adapter@_W@__crt_stdio_output@@V?$positional_parameter_base@_WV?$string_output_adapter@_W@__crt_stdio_output@@@2@@__crt_stdio_output@@AAE_NQAH@Z 1004ec30 f i libucrtd:output.obj
 0001:0004dce0       ?parse_int_from_format_string@?$output_processor@_WV?$string_output_adapter@_W@__crt_stdio_output@@V?$standard_base@_WV?$string_output_adapter@_W@__crt_stdio_output@@@2@@__crt_stdio_output@@AAE_NQAH@Z 1004ece0 f i libucrtd:output.obj
 0001:0004dd90       ?process@?$output_processor@DV?$stream_output_adapter@D@__crt_stdio_output@@V?$format_validation_base@DV?$stream_output_adapter@D@__crt_stdio_output@@@2@@__crt_stdio_output@@QAEHXZ 1004ed90 f i libucrtd:output.obj
 0001:0004e040       ?process@?$output_processor@DV?$stream_output_adapter@D@__crt_stdio_output@@V?$positional_parameter_base@DV?$stream_output_adapter@D@__crt_stdio_output@@@2@@__crt_stdio_output@@QAEHXZ 1004f040 f i libucrtd:output.obj
 0001:0004e2f0       ?process@?$output_processor@DV?$stream_output_adapter@D@__crt_stdio_output@@V?$standard_base@DV?$stream_output_adapter@D@__crt_stdio_output@@@2@@__crt_stdio_output@@QAEHXZ 1004f2f0 f i libucrtd:output.obj
 0001:0004e5a0       ?process@?$output_processor@DV?$string_output_adapter@D@__crt_stdio_output@@V?$format_validation_base@DV?$string_output_adapter@D@__crt_stdio_output@@@2@@__crt_stdio_output@@QAEHXZ 1004f5a0 f i libucrtd:output.obj
 0001:0004e850       ?process@?$output_processor@DV?$string_output_adapter@D@__crt_stdio_output@@V?$positional_parameter_base@DV?$string_output_adapter@D@__crt_stdio_output@@@2@@__crt_stdio_output@@QAEHXZ 1004f850 f i libucrtd:output.obj
 0001:0004eb00       ?process@?$output_processor@DV?$string_output_adapter@D@__crt_stdio_output@@V?$standard_base@DV?$string_output_adapter@D@__crt_stdio_output@@@2@@__crt_stdio_output@@QAEHXZ 1004fb00 f i libucrtd:output.obj
 0001:0004edb0       ?process@?$output_processor@_WV?$stream_output_adapter@_W@__crt_stdio_output@@V?$format_validation_base@_WV?$stream_output_adapter@_W@__crt_stdio_output@@@2@@__crt_stdio_output@@QAEHXZ 1004fdb0 f i libucrtd:output.obj
 0001:0004f060       ?process@?$output_processor@_WV?$stream_output_adapter@_W@__crt_stdio_output@@V?$positional_parameter_base@_WV?$stream_output_adapter@_W@__crt_stdio_output@@@2@@__crt_stdio_output@@QAEHXZ 10050060 f i libucrtd:output.obj
 0001:0004f310       ?process@?$output_processor@_WV?$stream_output_adapter@_W@__crt_stdio_output@@V?$standard_base@_WV?$stream_output_adapter@_W@__crt_stdio_output@@@2@@__crt_stdio_output@@QAEHXZ 10050310 f i libucrtd:output.obj
 0001:0004f5c0       ?process@?$output_processor@_WV?$string_output_adapter@_W@__crt_stdio_output@@V?$format_validation_base@_WV?$string_output_adapter@_W@__crt_stdio_output@@@2@@__crt_stdio_output@@QAEHXZ 100505c0 f i libucrtd:output.obj
 0001:0004f870       ?process@?$output_processor@_WV?$string_output_adapter@_W@__crt_stdio_output@@V?$positional_parameter_base@_WV?$string_output_adapter@_W@__crt_stdio_output@@@2@@__crt_stdio_output@@QAEHXZ 10050870 f i libucrtd:output.obj
 0001:0004fb20       ?process@?$output_processor@_WV?$string_output_adapter@_W@__crt_stdio_output@@V?$standard_base@_WV?$string_output_adapter@_W@__crt_stdio_output@@@2@@__crt_stdio_output@@QAEHXZ 10050b20 f i libucrtd:output.obj
 0001:0004fdd0       ?public_stream@__crt_stdio_stream@@QBEPAU_iobuf@@XZ 10050dd0 f i libucrtd:output.obj
 0001:0004fdf0       ?set_flag@?$output_processor@DV?$stream_output_adapter@D@__crt_stdio_output@@V?$format_validation_base@DV?$stream_output_adapter@D@__crt_stdio_output@@@2@@__crt_stdio_output@@AAEXI@Z 10050df0 f i libucrtd:output.obj
 0001:0004fe10       ?set_flag@?$output_processor@DV?$stream_output_adapter@D@__crt_stdio_output@@V?$positional_parameter_base@DV?$stream_output_adapter@D@__crt_stdio_output@@@2@@__crt_stdio_output@@AAEXI@Z 10050e10 f i libucrtd:output.obj
 0001:0004fe30       ?set_flag@?$output_processor@DV?$stream_output_adapter@D@__crt_stdio_output@@V?$standard_base@DV?$stream_output_adapter@D@__crt_stdio_output@@@2@@__crt_stdio_output@@AAEXI@Z 10050e30 f i libucrtd:output.obj
 0001:0004fe50       ?set_flag@?$output_processor@DV?$string_output_adapter@D@__crt_stdio_output@@V?$format_validation_base@DV?$string_output_adapter@D@__crt_stdio_output@@@2@@__crt_stdio_output@@AAEXI@Z 10050e50 f i libucrtd:output.obj
 0001:0004fe70       ?set_flag@?$output_processor@DV?$string_output_adapter@D@__crt_stdio_output@@V?$positional_parameter_base@DV?$string_output_adapter@D@__crt_stdio_output@@@2@@__crt_stdio_output@@AAEXI@Z 10050e70 f i libucrtd:output.obj
 0001:0004fe90       ?set_flag@?$output_processor@DV?$string_output_adapter@D@__crt_stdio_output@@V?$standard_base@DV?$string_output_adapter@D@__crt_stdio_output@@@2@@__crt_stdio_output@@AAEXI@Z 10050e90 f i libucrtd:output.obj
 0001:0004feb0       ?set_flag@?$output_processor@_WV?$stream_output_adapter@_W@__crt_stdio_output@@V?$format_validation_base@_WV?$stream_output_adapter@_W@__crt_stdio_output@@@2@@__crt_stdio_output@@AAEXI@Z 10050eb0 f i libucrtd:output.obj
 0001:0004fed0       ?set_flag@?$output_processor@_WV?$stream_output_adapter@_W@__crt_stdio_output@@V?$positional_parameter_base@_WV?$stream_output_adapter@_W@__crt_stdio_output@@@2@@__crt_stdio_output@@AAEXI@Z 10050ed0 f i libucrtd:output.obj
 0001:0004fef0       ?set_flag@?$output_processor@_WV?$stream_output_adapter@_W@__crt_stdio_output@@V?$standard_base@_WV?$stream_output_adapter@_W@__crt_stdio_output@@@2@@__crt_stdio_output@@AAEXI@Z 10050ef0 f i libucrtd:output.obj
 0001:0004ff10       ?set_flag@?$output_processor@_WV?$string_output_adapter@_W@__crt_stdio_output@@V?$format_validation_base@_WV?$string_output_adapter@_W@__crt_stdio_output@@@2@@__crt_stdio_output@@AAEXI@Z 10050f10 f i libucrtd:output.obj
 0001:0004ff30       ?set_flag@?$output_processor@_WV?$string_output_adapter@_W@__crt_stdio_output@@V?$positional_parameter_base@_WV?$string_output_adapter@_W@__crt_stdio_output@@@2@@__crt_stdio_output@@AAEXI@Z 10050f30 f i libucrtd:output.obj
 0001:0004ff50       ?set_flag@?$output_processor@_WV?$string_output_adapter@_W@__crt_stdio_output@@V?$standard_base@_WV?$string_output_adapter@_W@__crt_stdio_output@@@2@@__crt_stdio_output@@AAEXI@Z 10050f50 f i libucrtd:output.obj
 0001:0004ff70       ?should_format@?$positional_parameter_base@DV?$stream_output_adapter@D@__crt_stdio_output@@@__crt_stdio_output@@IAE_NXZ 10050f70 f i libucrtd:output.obj
 0001:0004ffb0       ?should_format@?$positional_parameter_base@DV?$string_output_adapter@D@__crt_stdio_output@@@__crt_stdio_output@@IAE_NXZ 10050fb0 f i libucrtd:output.obj
 0001:0004fff0       ?should_format@?$positional_parameter_base@_WV?$stream_output_adapter@_W@__crt_stdio_output@@@__crt_stdio_output@@IAE_NXZ 10050ff0 f i libucrtd:output.obj
 0001:00050030       ?should_format@?$positional_parameter_base@_WV?$string_output_adapter@_W@__crt_stdio_output@@@__crt_stdio_output@@IAE_NXZ 10051030 f i libucrtd:output.obj
 0001:00050070       ?should_format@?$standard_base@DV?$stream_output_adapter@D@__crt_stdio_output@@@__crt_stdio_output@@IAE_NXZ 10051070 f i libucrtd:output.obj
 0001:00050080       ?should_format@?$standard_base@DV?$string_output_adapter@D@__crt_stdio_output@@@__crt_stdio_output@@IAE_NXZ 10051080 f i libucrtd:output.obj
 0001:00050090       ?should_format@?$standard_base@_WV?$stream_output_adapter@_W@__crt_stdio_output@@@__crt_stdio_output@@IAE_NXZ 10051090 f i libucrtd:output.obj
 0001:000500a0       ?should_format@?$standard_base@_WV?$string_output_adapter@_W@__crt_stdio_output@@@__crt_stdio_output@@IAE_NXZ 100510a0 f i libucrtd:output.obj
 0001:000500b0       ?should_skip_normal_state_processing@?$positional_parameter_base@DV?$stream_output_adapter@D@__crt_stdio_output@@@__crt_stdio_output@@IAE_NXZ 100510b0 f i libucrtd:output.obj
 0001:00050100       ?should_skip_normal_state_processing@?$positional_parameter_base@DV?$string_output_adapter@D@__crt_stdio_output@@@__crt_stdio_output@@IAE_NXZ 10051100 f i libucrtd:output.obj
 0001:00050150       ?should_skip_normal_state_processing@?$positional_parameter_base@_WV?$stream_output_adapter@_W@__crt_stdio_output@@@__crt_stdio_output@@IAE_NXZ 10051150 f i libucrtd:output.obj
 0001:000501a0       ?should_skip_normal_state_processing@?$positional_parameter_base@_WV?$string_output_adapter@_W@__crt_stdio_output@@@__crt_stdio_output@@IAE_NXZ 100511a0 f i libucrtd:output.obj
 0001:000501f0       ?should_skip_normal_state_processing@?$standard_base@DV?$stream_output_adapter@D@__crt_stdio_output@@@__crt_stdio_output@@IAE_NXZ 100511f0 f i libucrtd:output.obj
 0001:00050200       ?should_skip_normal_state_processing@?$standard_base@DV?$string_output_adapter@D@__crt_stdio_output@@@__crt_stdio_output@@IAE_NXZ 10051200 f i libucrtd:output.obj
 0001:00050210       ?should_skip_normal_state_processing@?$standard_base@_WV?$stream_output_adapter@_W@__crt_stdio_output@@@__crt_stdio_output@@IAE_NXZ 10051210 f i libucrtd:output.obj
 0001:00050220       ?should_skip_normal_state_processing@?$standard_base@_WV?$string_output_adapter@_W@__crt_stdio_output@@@__crt_stdio_output@@IAE_NXZ 10051220 f i libucrtd:output.obj
 0001:00050230       ?should_skip_type_state_output@?$positional_parameter_base@DV?$stream_output_adapter@D@__crt_stdio_output@@@__crt_stdio_output@@IBE_NXZ 10051230 f i libucrtd:output.obj
 0001:00050270       ?should_skip_type_state_output@?$positional_parameter_base@DV?$string_output_adapter@D@__crt_stdio_output@@@__crt_stdio_output@@IBE_NXZ 10051270 f i libucrtd:output.obj
 0001:000502b0       ?should_skip_type_state_output@?$positional_parameter_base@_WV?$stream_output_adapter@_W@__crt_stdio_output@@@__crt_stdio_output@@IBE_NXZ 100512b0 f i libucrtd:output.obj
 0001:000502f0       ?should_skip_type_state_output@?$positional_parameter_base@_WV?$string_output_adapter@_W@__crt_stdio_output@@@__crt_stdio_output@@IBE_NXZ 100512f0 f i libucrtd:output.obj
 0001:00050330       ?should_skip_type_state_output@?$standard_base@DV?$stream_output_adapter@D@__crt_stdio_output@@@__crt_stdio_output@@IBE_NXZ 10051330 f i libucrtd:output.obj
 0001:00050340       ?should_skip_type_state_output@?$standard_base@DV?$string_output_adapter@D@__crt_stdio_output@@@__crt_stdio_output@@IBE_NXZ 10051340 f i libucrtd:output.obj
 0001:00050350       ?should_skip_type_state_output@?$standard_base@_WV?$stream_output_adapter@_W@__crt_stdio_output@@@__crt_stdio_output@@IBE_NXZ 10051350 f i libucrtd:output.obj
 0001:00050360       ?should_skip_type_state_output@?$standard_base@_WV?$string_output_adapter@_W@__crt_stdio_output@@@__crt_stdio_output@@IBE_NXZ 10051360 f i libucrtd:output.obj
 0001:00050370       ?state_case_dot@?$output_processor@DV?$stream_output_adapter@D@__crt_stdio_output@@V?$format_validation_base@DV?$stream_output_adapter@D@__crt_stdio_output@@@2@@__crt_stdio_output@@AAE_NXZ 10051370 f i libucrtd:output.obj
 0001:00050390       ?state_case_dot@?$output_processor@DV?$stream_output_adapter@D@__crt_stdio_output@@V?$positional_parameter_base@DV?$stream_output_adapter@D@__crt_stdio_output@@@2@@__crt_stdio_output@@AAE_NXZ 10051390 f i libucrtd:output.obj
 0001:000503b0       ?state_case_dot@?$output_processor@DV?$stream_output_adapter@D@__crt_stdio_output@@V?$standard_base@DV?$stream_output_adapter@D@__crt_stdio_output@@@2@@__crt_stdio_output@@AAE_NXZ 100513b0 f i libucrtd:output.obj
 0001:000503d0       ?state_case_dot@?$output_processor@DV?$string_output_adapter@D@__crt_stdio_output@@V?$format_validation_base@DV?$string_output_adapter@D@__crt_stdio_output@@@2@@__crt_stdio_output@@AAE_NXZ 100513d0 f i libucrtd:output.obj
 0001:000503f0       ?state_case_dot@?$output_processor@DV?$string_output_adapter@D@__crt_stdio_output@@V?$positional_parameter_base@DV?$string_output_adapter@D@__crt_stdio_output@@@2@@__crt_stdio_output@@AAE_NXZ 100513f0 f i libucrtd:output.obj
 0001:00050410       ?state_case_dot@?$output_processor@DV?$string_output_adapter@D@__crt_stdio_output@@V?$standard_base@DV?$string_output_adapter@D@__crt_stdio_output@@@2@@__crt_stdio_output@@AAE_NXZ 10051410 f i libucrtd:output.obj
 0001:00050430       ?state_case_dot@?$output_processor@_WV?$stream_output_adapter@_W@__crt_stdio_output@@V?$format_validation_base@_WV?$stream_output_adapter@_W@__crt_stdio_output@@@2@@__crt_stdio_output@@AAE_NXZ 10051430 f i libucrtd:output.obj
 0001:00050450       ?state_case_dot@?$output_processor@_WV?$stream_output_adapter@_W@__crt_stdio_output@@V?$positional_parameter_base@_WV?$stream_output_adapter@_W@__crt_stdio_output@@@2@@__crt_stdio_output@@AAE_NXZ 10051450 f i libucrtd:output.obj
 0001:00050470       ?state_case_dot@?$output_processor@_WV?$stream_output_adapter@_W@__crt_stdio_output@@V?$standard_base@_WV?$stream_output_adapter@_W@__crt_stdio_output@@@2@@__crt_stdio_output@@AAE_NXZ 10051470 f i libucrtd:output.obj
 0001:00050490       ?state_case_dot@?$output_processor@_WV?$string_output_adapter@_W@__crt_stdio_output@@V?$format_validation_base@_WV?$string_output_adapter@_W@__crt_stdio_output@@@2@@__crt_stdio_output@@AAE_NXZ 10051490 f i libucrtd:output.obj
 0001:000504b0       ?state_case_dot@?$output_processor@_WV?$string_output_adapter@_W@__crt_stdio_output@@V?$positional_parameter_base@_WV?$string_output_adapter@_W@__crt_stdio_output@@@2@@__crt_stdio_output@@AAE_NXZ 100514b0 f i libucrtd:output.obj
 0001:000504d0       ?state_case_dot@?$output_processor@_WV?$string_output_adapter@_W@__crt_stdio_output@@V?$standard_base@_WV?$string_output_adapter@_W@__crt_stdio_output@@@2@@__crt_stdio_output@@AAE_NXZ 100514d0 f i libucrtd:output.obj
 0001:000504f0       ?state_case_flag@?$output_processor@DV?$stream_output_adapter@D@__crt_stdio_output@@V?$format_validation_base@DV?$stream_output_adapter@D@__crt_stdio_output@@@2@@__crt_stdio_output@@AAE_NXZ 100514f0 f i libucrtd:output.obj
 0001:000505a0       ?state_case_flag@?$output_processor@DV?$stream_output_adapter@D@__crt_stdio_output@@V?$positional_parameter_base@DV?$stream_output_adapter@D@__crt_stdio_output@@@2@@__crt_stdio_output@@AAE_NXZ 100515a0 f i libucrtd:output.obj
 0001:00050650       ?state_case_flag@?$output_processor@DV?$stream_output_adapter@D@__crt_stdio_output@@V?$standard_base@DV?$stream_output_adapter@D@__crt_stdio_output@@@2@@__crt_stdio_output@@AAE_NXZ 10051650 f i libucrtd:output.obj
 0001:00050700       ?state_case_flag@?$output_processor@DV?$string_output_adapter@D@__crt_stdio_output@@V?$format_validation_base@DV?$string_output_adapter@D@__crt_stdio_output@@@2@@__crt_stdio_output@@AAE_NXZ 10051700 f i libucrtd:output.obj
 0001:000507b0       ?state_case_flag@?$output_processor@DV?$string_output_adapter@D@__crt_stdio_output@@V?$positional_parameter_base@DV?$string_output_adapter@D@__crt_stdio_output@@@2@@__crt_stdio_output@@AAE_NXZ 100517b0 f i libucrtd:output.obj
 0001:00050860       ?state_case_flag@?$output_processor@DV?$string_output_adapter@D@__crt_stdio_output@@V?$standard_base@DV?$string_output_adapter@D@__crt_stdio_output@@@2@@__crt_stdio_output@@AAE_NXZ 10051860 f i libucrtd:output.obj
 0001:00050910       ?state_case_flag@?$output_processor@_WV?$stream_output_adapter@_W@__crt_stdio_output@@V?$format_validation_base@_WV?$stream_output_adapter@_W@__crt_stdio_output@@@2@@__crt_stdio_output@@AAE_NXZ 10051910 f i libucrtd:output.obj
 0001:000509c0       ?state_case_flag@?$output_processor@_WV?$stream_output_adapter@_W@__crt_stdio_output@@V?$positional_parameter_base@_WV?$stream_output_adapter@_W@__crt_stdio_output@@@2@@__crt_stdio_output@@AAE_NXZ 100519c0 f i libucrtd:output.obj
 0001:00050a70       ?state_case_flag@?$output_processor@_WV?$stream_output_adapter@_W@__crt_stdio_output@@V?$standard_base@_WV?$stream_output_adapter@_W@__crt_stdio_output@@@2@@__crt_stdio_output@@AAE_NXZ 10051a70 f i libucrtd:output.obj
 0001:00050b20       ?state_case_flag@?$output_processor@_WV?$string_output_adapter@_W@__crt_stdio_output@@V?$format_validation_base@_WV?$string_output_adapter@_W@__crt_stdio_output@@@2@@__crt_stdio_output@@AAE_NXZ 10051b20 f i libucrtd:output.obj
 0001:00050bd0       ?state_case_flag@?$output_processor@_WV?$string_output_adapter@_W@__crt_stdio_output@@V?$positional_parameter_base@_WV?$string_output_adapter@_W@__crt_stdio_output@@@2@@__crt_stdio_output@@AAE_NXZ 10051bd0 f i libucrtd:output.obj
 0001:00050c80       ?state_case_flag@?$output_processor@_WV?$string_output_adapter@_W@__crt_stdio_output@@V?$standard_base@_WV?$string_output_adapter@_W@__crt_stdio_output@@@2@@__crt_stdio_output@@AAE_NXZ 10051c80 f i libucrtd:output.obj
 0001:00050d30       ?state_case_normal@?$output_processor@DV?$stream_output_adapter@D@__crt_stdio_output@@V?$format_validation_base@DV?$stream_output_adapter@D@__crt_stdio_output@@@2@@__crt_stdio_output@@AAE_NXZ 10051d30 f i libucrtd:output.obj
 0001:00050de0       ?state_case_normal@?$output_processor@DV?$stream_output_adapter@D@__crt_stdio_output@@V?$positional_parameter_base@DV?$stream_output_adapter@D@__crt_stdio_output@@@2@@__crt_stdio_output@@AAE_NXZ 10051de0 f i libucrtd:output.obj
 0001:00050e90       ?state_case_normal@?$output_processor@DV?$stream_output_adapter@D@__crt_stdio_output@@V?$standard_base@DV?$stream_output_adapter@D@__crt_stdio_output@@@2@@__crt_stdio_output@@AAE_NXZ 10051e90 f i libucrtd:output.obj
 0001:00050f40       ?state_case_normal@?$output_processor@DV?$string_output_adapter@D@__crt_stdio_output@@V?$format_validation_base@DV?$string_output_adapter@D@__crt_stdio_output@@@2@@__crt_stdio_output@@AAE_NXZ 10051f40 f i libucrtd:output.obj
 0001:00050ff0       ?state_case_normal@?$output_processor@DV?$string_output_adapter@D@__crt_stdio_output@@V?$positional_parameter_base@DV?$string_output_adapter@D@__crt_stdio_output@@@2@@__crt_stdio_output@@AAE_NXZ 10051ff0 f i libucrtd:output.obj
 0001:000510a0       ?state_case_normal@?$output_processor@DV?$string_output_adapter@D@__crt_stdio_output@@V?$standard_base@DV?$string_output_adapter@D@__crt_stdio_output@@@2@@__crt_stdio_output@@AAE_NXZ 100520a0 f i libucrtd:output.obj
 0001:00051150       ?state_case_normal@?$output_processor@_WV?$stream_output_adapter@_W@__crt_stdio_output@@V?$format_validation_base@_WV?$stream_output_adapter@_W@__crt_stdio_output@@@2@@__crt_stdio_output@@AAE_NXZ 10052150 f i libucrtd:output.obj
 0001:00051200       ?state_case_normal@?$output_processor@_WV?$stream_output_adapter@_W@__crt_stdio_output@@V?$positional_parameter_base@_WV?$stream_output_adapter@_W@__crt_stdio_output@@@2@@__crt_stdio_output@@AAE_NXZ 10052200 f i libucrtd:output.obj
 0001:000512b0       ?state_case_normal@?$output_processor@_WV?$stream_output_adapter@_W@__crt_stdio_output@@V?$standard_base@_WV?$stream_output_adapter@_W@__crt_stdio_output@@@2@@__crt_stdio_output@@AAE_NXZ 100522b0 f i libucrtd:output.obj
 0001:00051360       ?state_case_normal@?$output_processor@_WV?$string_output_adapter@_W@__crt_stdio_output@@V?$format_validation_base@_WV?$string_output_adapter@_W@__crt_stdio_output@@@2@@__crt_stdio_output@@AAE_NXZ 10052360 f i libucrtd:output.obj
 0001:00051410       ?state_case_normal@?$output_processor@_WV?$string_output_adapter@_W@__crt_stdio_output@@V?$positional_parameter_base@_WV?$string_output_adapter@_W@__crt_stdio_output@@@2@@__crt_stdio_output@@AAE_NXZ 10052410 f i libucrtd:output.obj
 0001:000514c0       ?state_case_normal@?$output_processor@_WV?$string_output_adapter@_W@__crt_stdio_output@@V?$standard_base@_WV?$string_output_adapter@_W@__crt_stdio_output@@@2@@__crt_stdio_output@@AAE_NXZ 100524c0 f i libucrtd:output.obj
 0001:00051570       ?state_case_normal_common@?$output_processor@DV?$stream_output_adapter@D@__crt_stdio_output@@V?$format_validation_base@DV?$stream_output_adapter@D@__crt_stdio_output@@@2@@__crt_stdio_output@@AAE_NXZ 10052570 f i libucrtd:output.obj
 0001:000515c0       ?state_case_normal_common@?$output_processor@DV?$stream_output_adapter@D@__crt_stdio_output@@V?$positional_parameter_base@DV?$stream_output_adapter@D@__crt_stdio_output@@@2@@__crt_stdio_output@@AAE_NXZ 100525c0 f i libucrtd:output.obj
 0001:00051610       ?state_case_normal_common@?$output_processor@DV?$stream_output_adapter@D@__crt_stdio_output@@V?$standard_base@DV?$stream_output_adapter@D@__crt_stdio_output@@@2@@__crt_stdio_output@@AAE_NXZ 10052610 f i libucrtd:output.obj
 0001:00051660       ?state_case_normal_common@?$output_processor@DV?$string_output_adapter@D@__crt_stdio_output@@V?$format_validation_base@DV?$string_output_adapter@D@__crt_stdio_output@@@2@@__crt_stdio_output@@AAE_NXZ 10052660 f i libucrtd:output.obj
 0001:000516b0       ?state_case_normal_common@?$output_processor@DV?$string_output_adapter@D@__crt_stdio_output@@V?$positional_parameter_base@DV?$string_output_adapter@D@__crt_stdio_output@@@2@@__crt_stdio_output@@AAE_NXZ 100526b0 f i libucrtd:output.obj
 0001:00051700       ?state_case_normal_common@?$output_processor@DV?$string_output_adapter@D@__crt_stdio_output@@V?$standard_base@DV?$string_output_adapter@D@__crt_stdio_output@@@2@@__crt_stdio_output@@AAE_NXZ 10052700 f i libucrtd:output.obj
 0001:00051750       ?state_case_normal_common@?$output_processor@_WV?$stream_output_adapter@_W@__crt_stdio_output@@V?$format_validation_base@_WV?$stream_output_adapter@_W@__crt_stdio_output@@@2@@__crt_stdio_output@@AAE_NXZ 10052750 f i libucrtd:output.obj
 0001:000517a0       ?state_case_normal_common@?$output_processor@_WV?$stream_output_adapter@_W@__crt_stdio_output@@V?$positional_parameter_base@_WV?$stream_output_adapter@_W@__crt_stdio_output@@@2@@__crt_stdio_output@@AAE_NXZ 100527a0 f i libucrtd:output.obj
 0001:000517f0       ?state_case_normal_common@?$output_processor@_WV?$stream_output_adapter@_W@__crt_stdio_output@@V?$standard_base@_WV?$stream_output_adapter@_W@__crt_stdio_output@@@2@@__crt_stdio_output@@AAE_NXZ 100527f0 f i libucrtd:output.obj
 0001:00051840       ?state_case_normal_common@?$output_processor@_WV?$string_output_adapter@_W@__crt_stdio_output@@V?$format_validation_base@_WV?$string_output_adapter@_W@__crt_stdio_output@@@2@@__crt_stdio_output@@AAE_NXZ 10052840 f i libucrtd:output.obj
 0001:00051890       ?state_case_normal_common@?$output_processor@_WV?$string_output_adapter@_W@__crt_stdio_output@@V?$positional_parameter_base@_WV?$string_output_adapter@_W@__crt_stdio_output@@@2@@__crt_stdio_output@@AAE_NXZ 10052890 f i libucrtd:output.obj
 0001:000518e0       ?state_case_normal_common@?$output_processor@_WV?$string_output_adapter@_W@__crt_stdio_output@@V?$standard_base@_WV?$string_output_adapter@_W@__crt_stdio_output@@@2@@__crt_stdio_output@@AAE_NXZ 100528e0 f i libucrtd:output.obj
 0001:00051930       ?state_case_normal_tchar@?$output_processor@DV?$stream_output_adapter@D@__crt_stdio_output@@V?$format_validation_base@DV?$stream_output_adapter@D@__crt_stdio_output@@@2@@__crt_stdio_output@@AAE_ND@Z 10052930 f i libucrtd:output.obj
 0001:00051a30       ?state_case_normal_tchar@?$output_processor@DV?$stream_output_adapter@D@__crt_stdio_output@@V?$positional_parameter_base@DV?$stream_output_adapter@D@__crt_stdio_output@@@2@@__crt_stdio_output@@AAE_ND@Z 10052a30 f i libucrtd:output.obj
 0001:00051b30       ?state_case_normal_tchar@?$output_processor@DV?$stream_output_adapter@D@__crt_stdio_output@@V?$standard_base@DV?$stream_output_adapter@D@__crt_stdio_output@@@2@@__crt_stdio_output@@AAE_ND@Z 10052b30 f i libucrtd:output.obj
 0001:00051c30       ?state_case_normal_tchar@?$output_processor@DV?$string_output_adapter@D@__crt_stdio_output@@V?$format_validation_base@DV?$string_output_adapter@D@__crt_stdio_output@@@2@@__crt_stdio_output@@AAE_ND@Z 10052c30 f i libucrtd:output.obj
 0001:00051d30       ?state_case_normal_tchar@?$output_processor@DV?$string_output_adapter@D@__crt_stdio_output@@V?$positional_parameter_base@DV?$string_output_adapter@D@__crt_stdio_output@@@2@@__crt_stdio_output@@AAE_ND@Z 10052d30 f i libucrtd:output.obj
 0001:00051e30       ?state_case_normal_tchar@?$output_processor@DV?$string_output_adapter@D@__crt_stdio_output@@V?$standard_base@DV?$string_output_adapter@D@__crt_stdio_output@@@2@@__crt_stdio_output@@AAE_ND@Z 10052e30 f i libucrtd:output.obj
 0001:00051f30       ?state_case_normal_tchar@?$output_processor@_WV?$stream_output_adapter@_W@__crt_stdio_output@@V?$format_validation_base@_WV?$stream_output_adapter@_W@__crt_stdio_output@@@2@@__crt_stdio_output@@AAE_N_W@Z 10052f30 f i libucrtd:output.obj
 0001:00051f50       ?state_case_normal_tchar@?$output_processor@_WV?$stream_output_adapter@_W@__crt_stdio_output@@V?$positional_parameter_base@_WV?$stream_output_adapter@_W@__crt_stdio_output@@@2@@__crt_stdio_output@@AAE_N_W@Z 10052f50 f i libucrtd:output.obj
 0001:00051f70       ?state_case_normal_tchar@?$output_processor@_WV?$stream_output_adapter@_W@__crt_stdio_output@@V?$standard_base@_WV?$stream_output_adapter@_W@__crt_stdio_output@@@2@@__crt_stdio_output@@AAE_N_W@Z 10052f70 f i libucrtd:output.obj
 0001:00051f90       ?state_case_normal_tchar@?$output_processor@_WV?$string_output_adapter@_W@__crt_stdio_output@@V?$format_validation_base@_WV?$string_output_adapter@_W@__crt_stdio_output@@@2@@__crt_stdio_output@@AAE_N_W@Z 10052f90 f i libucrtd:output.obj
 0001:00051fb0       ?state_case_normal_tchar@?$output_processor@_WV?$string_output_adapter@_W@__crt_stdio_output@@V?$positional_parameter_base@_WV?$string_output_adapter@_W@__crt_stdio_output@@@2@@__crt_stdio_output@@AAE_N_W@Z 10052fb0 f i libucrtd:output.obj
 0001:00051fd0       ?state_case_normal_tchar@?$output_processor@_WV?$string_output_adapter@_W@__crt_stdio_output@@V?$standard_base@_WV?$string_output_adapter@_W@__crt_stdio_output@@@2@@__crt_stdio_output@@AAE_N_W@Z 10052fd0 f i libucrtd:output.obj
 0001:00051ff0       ?state_case_percent@?$output_processor@DV?$stream_output_adapter@D@__crt_stdio_output@@V?$format_validation_base@DV?$stream_output_adapter@D@__crt_stdio_output@@@2@@__crt_stdio_output@@AAE_NXZ 10052ff0 f i libucrtd:output.obj
 0001:00052040       ?state_case_percent@?$output_processor@DV?$stream_output_adapter@D@__crt_stdio_output@@V?$positional_parameter_base@DV?$stream_output_adapter@D@__crt_stdio_output@@@2@@__crt_stdio_output@@AAE_NXZ 10053040 f i libucrtd:output.obj
 0001:00052090       ?state_case_percent@?$output_processor@DV?$stream_output_adapter@D@__crt_stdio_output@@V?$standard_base@DV?$stream_output_adapter@D@__crt_stdio_output@@@2@@__crt_stdio_output@@AAE_NXZ 10053090 f i libucrtd:output.obj
 0001:000520e0       ?state_case_percent@?$output_processor@DV?$string_output_adapter@D@__crt_stdio_output@@V?$format_validation_base@DV?$string_output_adapter@D@__crt_stdio_output@@@2@@__crt_stdio_output@@AAE_NXZ 100530e0 f i libucrtd:output.obj
 0001:00052130       ?state_case_percent@?$output_processor@DV?$string_output_adapter@D@__crt_stdio_output@@V?$positional_parameter_base@DV?$string_output_adapter@D@__crt_stdio_output@@@2@@__crt_stdio_output@@AAE_NXZ 10053130 f i libucrtd:output.obj
 0001:00052180       ?state_case_percent@?$output_processor@DV?$string_output_adapter@D@__crt_stdio_output@@V?$standard_base@DV?$string_output_adapter@D@__crt_stdio_output@@@2@@__crt_stdio_output@@AAE_NXZ 10053180 f i libucrtd:output.obj
 0001:000521d0       ?state_case_percent@?$output_processor@_WV?$stream_output_adapter@_W@__crt_stdio_output@@V?$format_validation_base@_WV?$stream_output_adapter@_W@__crt_stdio_output@@@2@@__crt_stdio_output@@AAE_NXZ 100531d0 f i libucrtd:output.obj
 0001:00052220       ?state_case_percent@?$output_processor@_WV?$stream_output_adapter@_W@__crt_stdio_output@@V?$positional_parameter_base@_WV?$stream_output_adapter@_W@__crt_stdio_output@@@2@@__crt_stdio_output@@AAE_NXZ 10053220 f i libucrtd:output.obj
 0001:00052270       ?state_case_percent@?$output_processor@_WV?$stream_output_adapter@_W@__crt_stdio_output@@V?$standard_base@_WV?$stream_output_adapter@_W@__crt_stdio_output@@@2@@__crt_stdio_output@@AAE_NXZ 10053270 f i libucrtd:output.obj
 0001:000522c0       ?state_case_percent@?$output_processor@_WV?$string_output_adapter@_W@__crt_stdio_output@@V?$format_validation_base@_WV?$string_output_adapter@_W@__crt_stdio_output@@@2@@__crt_stdio_output@@AAE_NXZ 100532c0 f i libucrtd:output.obj
 0001:00052310       ?state_case_percent@?$output_processor@_WV?$string_output_adapter@_W@__crt_stdio_output@@V?$positional_parameter_base@_WV?$string_output_adapter@_W@__crt_stdio_output@@@2@@__crt_stdio_output@@AAE_NXZ 10053310 f i libucrtd:output.obj
 0001:00052360       ?state_case_percent@?$output_processor@_WV?$string_output_adapter@_W@__crt_stdio_output@@V?$standard_base@_WV?$string_output_adapter@_W@__crt_stdio_output@@@2@@__crt_stdio_output@@AAE_NXZ 10053360 f i libucrtd:output.obj
 0001:000523b0       ?state_case_precision@?$output_processor@DV?$stream_output_adapter@D@__crt_stdio_output@@V?$format_validation_base@DV?$stream_output_adapter@D@__crt_stdio_output@@@2@@__crt_stdio_output@@AAE_NXZ 100533b0 f i libucrtd:output.obj
 0001:00052420       ?state_case_precision@?$output_processor@DV?$stream_output_adapter@D@__crt_stdio_output@@V?$positional_parameter_base@DV?$stream_output_adapter@D@__crt_stdio_output@@@2@@__crt_stdio_output@@AAE_NXZ 10053420 f i libucrtd:output.obj
 0001:00052490       ?state_case_precision@?$output_processor@DV?$stream_output_adapter@D@__crt_stdio_output@@V?$standard_base@DV?$stream_output_adapter@D@__crt_stdio_output@@@2@@__crt_stdio_output@@AAE_NXZ 10053490 f i libucrtd:output.obj
 0001:00052500       ?state_case_precision@?$output_processor@DV?$string_output_adapter@D@__crt_stdio_output@@V?$format_validation_base@DV?$string_output_adapter@D@__crt_stdio_output@@@2@@__crt_stdio_output@@AAE_NXZ 10053500 f i libucrtd:output.obj
 0001:00052570       ?state_case_precision@?$output_processor@DV?$string_output_adapter@D@__crt_stdio_output@@V?$positional_parameter_base@DV?$string_output_adapter@D@__crt_stdio_output@@@2@@__crt_stdio_output@@AAE_NXZ 10053570 f i libucrtd:output.obj
 0001:000525e0       ?state_case_precision@?$output_processor@DV?$string_output_adapter@D@__crt_stdio_output@@V?$standard_base@DV?$string_output_adapter@D@__crt_stdio_output@@@2@@__crt_stdio_output@@AAE_NXZ 100535e0 f i libucrtd:output.obj
 0001:00052650       ?state_case_precision@?$output_processor@_WV?$stream_output_adapter@_W@__crt_stdio_output@@V?$format_validation_base@_WV?$stream_output_adapter@_W@__crt_stdio_output@@@2@@__crt_stdio_output@@AAE_NXZ 10053650 f i libucrtd:output.obj
 0001:000526c0       ?state_case_precision@?$output_processor@_WV?$stream_output_adapter@_W@__crt_stdio_output@@V?$positional_parameter_base@_WV?$stream_output_adapter@_W@__crt_stdio_output@@@2@@__crt_stdio_output@@AAE_NXZ 100536c0 f i libucrtd:output.obj
 0001:00052730       ?state_case_precision@?$output_processor@_WV?$stream_output_adapter@_W@__crt_stdio_output@@V?$standard_base@_WV?$stream_output_adapter@_W@__crt_stdio_output@@@2@@__crt_stdio_output@@AAE_NXZ 10053730 f i libucrtd:output.obj
 0001:000527a0       ?state_case_precision@?$output_processor@_WV?$string_output_adapter@_W@__crt_stdio_output@@V?$format_validation_base@_WV?$string_output_adapter@_W@__crt_stdio_output@@@2@@__crt_stdio_output@@AAE_NXZ 100537a0 f i libucrtd:output.obj
 0001:00052810       ?state_case_precision@?$output_processor@_WV?$string_output_adapter@_W@__crt_stdio_output@@V?$positional_parameter_base@_WV?$string_output_adapter@_W@__crt_stdio_output@@@2@@__crt_stdio_output@@AAE_NXZ 10053810 f i libucrtd:output.obj
 0001:00052880       ?state_case_precision@?$output_processor@_WV?$string_output_adapter@_W@__crt_stdio_output@@V?$standard_base@_WV?$string_output_adapter@_W@__crt_stdio_output@@@2@@__crt_stdio_output@@AAE_NXZ 10053880 f i libucrtd:output.obj
 0001:000528f0       ?state_case_size@?$output_processor@DV?$stream_output_adapter@D@__crt_stdio_output@@V?$format_validation_base@DV?$stream_output_adapter@D@__crt_stdio_output@@@2@@__crt_stdio_output@@AAE_NXZ 100538f0 f i libucrtd:output.obj
 0001:00052cc0       ?state_case_size@?$output_processor@DV?$stream_output_adapter@D@__crt_stdio_output@@V?$positional_parameter_base@DV?$stream_output_adapter@D@__crt_stdio_output@@@2@@__crt_stdio_output@@AAE_NXZ 10053cc0 f i libucrtd:output.obj
 0001:00053090       ?state_case_size@?$output_processor@DV?$stream_output_adapter@D@__crt_stdio_output@@V?$standard_base@DV?$stream_output_adapter@D@__crt_stdio_output@@@2@@__crt_stdio_output@@AAE_NXZ 10054090 f i libucrtd:output.obj
 0001:00053460       ?state_case_size@?$output_processor@DV?$string_output_adapter@D@__crt_stdio_output@@V?$format_validation_base@DV?$string_output_adapter@D@__crt_stdio_output@@@2@@__crt_stdio_output@@AAE_NXZ 10054460 f i libucrtd:output.obj
 0001:00053830       ?state_case_size@?$output_processor@DV?$string_output_adapter@D@__crt_stdio_output@@V?$positional_parameter_base@DV?$string_output_adapter@D@__crt_stdio_output@@@2@@__crt_stdio_output@@AAE_NXZ 10054830 f i libucrtd:output.obj
 0001:00053c00       ?state_case_size@?$output_processor@DV?$string_output_adapter@D@__crt_stdio_output@@V?$standard_base@DV?$string_output_adapter@D@__crt_stdio_output@@@2@@__crt_stdio_output@@AAE_NXZ 10054c00 f i libucrtd:output.obj
 0001:00053fd0       ?state_case_size@?$output_processor@_WV?$stream_output_adapter@_W@__crt_stdio_output@@V?$format_validation_base@_WV?$stream_output_adapter@_W@__crt_stdio_output@@@2@@__crt_stdio_output@@AAE_NXZ 10054fd0 f i libucrtd:output.obj
 0001:000543a0       ?state_case_size@?$output_processor@_WV?$stream_output_adapter@_W@__crt_stdio_output@@V?$positional_parameter_base@_WV?$stream_output_adapter@_W@__crt_stdio_output@@@2@@__crt_stdio_output@@AAE_NXZ 100553a0 f i libucrtd:output.obj
 0001:00054770       ?state_case_size@?$output_processor@_WV?$stream_output_adapter@_W@__crt_stdio_output@@V?$standard_base@_WV?$stream_output_adapter@_W@__crt_stdio_output@@@2@@__crt_stdio_output@@AAE_NXZ 10055770 f i libucrtd:output.obj
 0001:00054b40       ?state_case_size@?$output_processor@_WV?$string_output_adapter@_W@__crt_stdio_output@@V?$format_validation_base@_WV?$string_output_adapter@_W@__crt_stdio_output@@@2@@__crt_stdio_output@@AAE_NXZ 10055b40 f i libucrtd:output.obj
 0001:00054f10       ?state_case_size@?$output_processor@_WV?$string_output_adapter@_W@__crt_stdio_output@@V?$positional_parameter_base@_WV?$string_output_adapter@_W@__crt_stdio_output@@@2@@__crt_stdio_output@@AAE_NXZ 10055f10 f i libucrtd:output.obj
 0001:000552e0       ?state_case_size@?$output_processor@_WV?$string_output_adapter@_W@__crt_stdio_output@@V?$standard_base@_WV?$string_output_adapter@_W@__crt_stdio_output@@@2@@__crt_stdio_output@@AAE_NXZ 100562e0 f i libucrtd:output.obj
 0001:000556b0       ?state_case_type@?$output_processor@DV?$stream_output_adapter@D@__crt_stdio_output@@V?$format_validation_base@DV?$stream_output_adapter@D@__crt_stdio_output@@@2@@__crt_stdio_output@@AAE_NXZ 100566b0 f i libucrtd:output.obj
 0001:00055a60       ?state_case_type@?$output_processor@DV?$stream_output_adapter@D@__crt_stdio_output@@V?$positional_parameter_base@DV?$stream_output_adapter@D@__crt_stdio_output@@@2@@__crt_stdio_output@@AAE_NXZ 10056a60 f i libucrtd:output.obj
 0001:00055e10       ?state_case_type@?$output_processor@DV?$stream_output_adapter@D@__crt_stdio_output@@V?$standard_base@DV?$stream_output_adapter@D@__crt_stdio_output@@@2@@__crt_stdio_output@@AAE_NXZ 10056e10 f i libucrtd:output.obj
 0001:000561c0       ?state_case_type@?$output_processor@DV?$string_output_adapter@D@__crt_stdio_output@@V?$format_validation_base@DV?$string_output_adapter@D@__crt_stdio_output@@@2@@__crt_stdio_output@@AAE_NXZ 100571c0 f i libucrtd:output.obj
 0001:00056570       ?state_case_type@?$output_processor@DV?$string_output_adapter@D@__crt_stdio_output@@V?$positional_parameter_base@DV?$string_output_adapter@D@__crt_stdio_output@@@2@@__crt_stdio_output@@AAE_NXZ 10057570 f i libucrtd:output.obj
 0001:00056920       ?state_case_type@?$output_processor@DV?$string_output_adapter@D@__crt_stdio_output@@V?$standard_base@DV?$string_output_adapter@D@__crt_stdio_output@@@2@@__crt_stdio_output@@AAE_NXZ 10057920 f i libucrtd:output.obj
 0001:00056cd0       ?state_case_type@?$output_processor@_WV?$stream_output_adapter@_W@__crt_stdio_output@@V?$format_validation_base@_WV?$stream_output_adapter@_W@__crt_stdio_output@@@2@@__crt_stdio_output@@AAE_NXZ 10057cd0 f i libucrtd:output.obj
 0001:000570b0       ?state_case_type@?$output_processor@_WV?$stream_output_adapter@_W@__crt_stdio_output@@V?$positional_parameter_base@_WV?$stream_output_adapter@_W@__crt_stdio_output@@@2@@__crt_stdio_output@@AAE_NXZ 100580b0 f i libucrtd:output.obj
 0001:00057490       ?state_case_type@?$output_processor@_WV?$stream_output_adapter@_W@__crt_stdio_output@@V?$standard_base@_WV?$stream_output_adapter@_W@__crt_stdio_output@@@2@@__crt_stdio_output@@AAE_NXZ 10058490 f i libucrtd:output.obj
 0001:00057870       ?state_case_type@?$output_processor@_WV?$string_output_adapter@_W@__crt_stdio_output@@V?$format_validation_base@_WV?$string_output_adapter@_W@__crt_stdio_output@@@2@@__crt_stdio_output@@AAE_NXZ 10058870 f i libucrtd:output.obj
 0001:00057c50       ?state_case_type@?$output_processor@_WV?$string_output_adapter@_W@__crt_stdio_output@@V?$positional_parameter_base@_WV?$string_output_adapter@_W@__crt_stdio_output@@@2@@__crt_stdio_output@@AAE_NXZ 10058c50 f i libucrtd:output.obj
 0001:00058030       ?state_case_type@?$output_processor@_WV?$string_output_adapter@_W@__crt_stdio_output@@V?$standard_base@_WV?$string_output_adapter@_W@__crt_stdio_output@@@2@@__crt_stdio_output@@AAE_NXZ 10059030 f i libucrtd:output.obj
 0001:00058410       ?state_case_width@?$output_processor@DV?$stream_output_adapter@D@__crt_stdio_output@@V?$format_validation_base@DV?$stream_output_adapter@D@__crt_stdio_output@@@2@@__crt_stdio_output@@AAE_NXZ 10059410 f i libucrtd:output.obj
 0001:00058490       ?state_case_width@?$output_processor@DV?$stream_output_adapter@D@__crt_stdio_output@@V?$positional_parameter_base@DV?$stream_output_adapter@D@__crt_stdio_output@@@2@@__crt_stdio_output@@AAE_NXZ 10059490 f i libucrtd:output.obj
 0001:00058510       ?state_case_width@?$output_processor@DV?$stream_output_adapter@D@__crt_stdio_output@@V?$standard_base@DV?$stream_output_adapter@D@__crt_stdio_output@@@2@@__crt_stdio_output@@AAE_NXZ 10059510 f i libucrtd:output.obj
 0001:00058590       ?state_case_width@?$output_processor@DV?$string_output_adapter@D@__crt_stdio_output@@V?$format_validation_base@DV?$string_output_adapter@D@__crt_stdio_output@@@2@@__crt_stdio_output@@AAE_NXZ 10059590 f i libucrtd:output.obj
 0001:00058610       ?state_case_width@?$output_processor@DV?$string_output_adapter@D@__crt_stdio_output@@V?$positional_parameter_base@DV?$string_output_adapter@D@__crt_stdio_output@@@2@@__crt_stdio_output@@AAE_NXZ 10059610 f i libucrtd:output.obj
 0001:00058690       ?state_case_width@?$output_processor@DV?$string_output_adapter@D@__crt_stdio_output@@V?$standard_base@DV?$string_output_adapter@D@__crt_stdio_output@@@2@@__crt_stdio_output@@AAE_NXZ 10059690 f i libucrtd:output.obj
 0001:00058710       ?state_case_width@?$output_processor@_WV?$stream_output_adapter@_W@__crt_stdio_output@@V?$format_validation_base@_WV?$stream_output_adapter@_W@__crt_stdio_output@@@2@@__crt_stdio_output@@AAE_NXZ 10059710 f i libucrtd:output.obj
 0001:00058790       ?state_case_width@?$output_processor@_WV?$stream_output_adapter@_W@__crt_stdio_output@@V?$positional_parameter_base@_WV?$stream_output_adapter@_W@__crt_stdio_output@@@2@@__crt_stdio_output@@AAE_NXZ 10059790 f i libucrtd:output.obj
 0001:00058810       ?state_case_width@?$output_processor@_WV?$stream_output_adapter@_W@__crt_stdio_output@@V?$standard_base@_WV?$stream_output_adapter@_W@__crt_stdio_output@@@2@@__crt_stdio_output@@AAE_NXZ 10059810 f i libucrtd:output.obj
 0001:00058890       ?state_case_width@?$output_processor@_WV?$string_output_adapter@_W@__crt_stdio_output@@V?$format_validation_base@_WV?$string_output_adapter@_W@__crt_stdio_output@@@2@@__crt_stdio_output@@AAE_NXZ 10059890 f i libucrtd:output.obj
 0001:00058910       ?state_case_width@?$output_processor@_WV?$string_output_adapter@_W@__crt_stdio_output@@V?$positional_parameter_base@_WV?$string_output_adapter@_W@__crt_stdio_output@@@2@@__crt_stdio_output@@AAE_NXZ 10059910 f i libucrtd:output.obj
 0001:00058990       ?state_case_width@?$output_processor@_WV?$string_output_adapter@_W@__crt_stdio_output@@V?$standard_base@_WV?$string_output_adapter@_W@__crt_stdio_output@@@2@@__crt_stdio_output@@AAE_NXZ 10059990 f i libucrtd:output.obj
 0001:00058a10       ?state_count@?$format_validation_base@DV?$stream_output_adapter@D@__crt_stdio_output@@@__crt_stdio_output@@KAIXZ 10059a10 f i libucrtd:output.obj
 0001:00058a20       ?state_count@?$format_validation_base@DV?$string_output_adapter@D@__crt_stdio_output@@@__crt_stdio_output@@KAIXZ 10059a20 f i libucrtd:output.obj
 0001:00058a30       ?state_count@?$format_validation_base@_WV?$stream_output_adapter@_W@__crt_stdio_output@@@__crt_stdio_output@@KAIXZ 10059a30 f i libucrtd:output.obj
 0001:00058a40       ?state_count@?$format_validation_base@_WV?$string_output_adapter@_W@__crt_stdio_output@@@__crt_stdio_output@@KAIXZ 10059a40 f i libucrtd:output.obj
 0001:00058a50       ?state_count@?$standard_base@DV?$stream_output_adapter@D@__crt_stdio_output@@@__crt_stdio_output@@KAIXZ 10059a50 f i libucrtd:output.obj
 0001:00058a60       ?state_count@?$standard_base@DV?$string_output_adapter@D@__crt_stdio_output@@@__crt_stdio_output@@KAIXZ 10059a60 f i libucrtd:output.obj
 0001:00058a70       ?state_count@?$standard_base@_WV?$stream_output_adapter@_W@__crt_stdio_output@@@__crt_stdio_output@@KAIXZ 10059a70 f i libucrtd:output.obj
 0001:00058a80       ?state_count@?$standard_base@_WV?$string_output_adapter@_W@__crt_stdio_output@@@__crt_stdio_output@@KAIXZ 10059a80 f i libucrtd:output.obj
 0001:00058a90       ?state_transition_table@?$format_validation_base@DV?$stream_output_adapter@D@__crt_stdio_output@@@__crt_stdio_output@@KAPBEXZ 10059a90 f i libucrtd:output.obj
 0001:00058aa0       ?state_transition_table@?$format_validation_base@DV?$string_output_adapter@D@__crt_stdio_output@@@__crt_stdio_output@@KAPBEXZ 10059aa0 f i libucrtd:output.obj
 0001:00058ab0       ?state_transition_table@?$format_validation_base@_WV?$stream_output_adapter@_W@__crt_stdio_output@@@__crt_stdio_output@@KAPBEXZ 10059ab0 f i libucrtd:output.obj
 0001:00058ac0       ?state_transition_table@?$format_validation_base@_WV?$string_output_adapter@_W@__crt_stdio_output@@@__crt_stdio_output@@KAPBEXZ 10059ac0 f i libucrtd:output.obj
 0001:00058ad0       ?state_transition_table@?$standard_base@DV?$stream_output_adapter@D@__crt_stdio_output@@@__crt_stdio_output@@KAPBEXZ 10059ad0 f i libucrtd:output.obj
 0001:00058ae0       ?state_transition_table@?$standard_base@DV?$string_output_adapter@D@__crt_stdio_output@@@__crt_stdio_output@@KAPBEXZ 10059ae0 f i libucrtd:output.obj
 0001:00058af0       ?state_transition_table@?$standard_base@_WV?$stream_output_adapter@_W@__crt_stdio_output@@@__crt_stdio_output@@KAPBEXZ 10059af0 f i libucrtd:output.obj
 0001:00058b00       ?state_transition_table@?$standard_base@_WV?$string_output_adapter@_W@__crt_stdio_output@@@__crt_stdio_output@@KAPBEXZ 10059b00 f i libucrtd:output.obj
 0001:00058b10       ?to_integer_size@__crt_stdio_output@@YAIW4length_modifier@1@@Z 10059b10 f i libucrtd:output.obj
 0001:00058bb0       ?type_case_X@?$output_processor@DV?$stream_output_adapter@D@__crt_stdio_output@@V?$format_validation_base@DV?$stream_output_adapter@D@__crt_stdio_output@@@2@@__crt_stdio_output@@AAE_NXZ 10059bb0 f i libucrtd:output.obj
 0001:00058bd0       ?type_case_X@?$output_processor@DV?$stream_output_adapter@D@__crt_stdio_output@@V?$positional_parameter_base@DV?$stream_output_adapter@D@__crt_stdio_output@@@2@@__crt_stdio_output@@AAE_NXZ 10059bd0 f i libucrtd:output.obj
 0001:00058bf0       ?type_case_X@?$output_processor@DV?$stream_output_adapter@D@__crt_stdio_output@@V?$standard_base@DV?$stream_output_adapter@D@__crt_stdio_output@@@2@@__crt_stdio_output@@AAE_NXZ 10059bf0 f i libucrtd:output.obj
 0001:00058c10       ?type_case_X@?$output_processor@DV?$string_output_adapter@D@__crt_stdio_output@@V?$format_validation_base@DV?$string_output_adapter@D@__crt_stdio_output@@@2@@__crt_stdio_output@@AAE_NXZ 10059c10 f i libucrtd:output.obj
 0001:00058c30       ?type_case_X@?$output_processor@DV?$string_output_adapter@D@__crt_stdio_output@@V?$positional_parameter_base@DV?$string_output_adapter@D@__crt_stdio_output@@@2@@__crt_stdio_output@@AAE_NXZ 10059c30 f i libucrtd:output.obj
 0001:00058c50       ?type_case_X@?$output_processor@DV?$string_output_adapter@D@__crt_stdio_output@@V?$standard_base@DV?$string_output_adapter@D@__crt_stdio_output@@@2@@__crt_stdio_output@@AAE_NXZ 10059c50 f i libucrtd:output.obj
 0001:00058c70       ?type_case_X@?$output_processor@_WV?$stream_output_adapter@_W@__crt_stdio_output@@V?$format_validation_base@_WV?$stream_output_adapter@_W@__crt_stdio_output@@@2@@__crt_stdio_output@@AAE_NXZ 10059c70 f i libucrtd:output.obj
 0001:00058c90       ?type_case_X@?$output_processor@_WV?$stream_output_adapter@_W@__crt_stdio_output@@V?$positional_parameter_base@_WV?$stream_output_adapter@_W@__crt_stdio_output@@@2@@__crt_stdio_output@@AAE_NXZ 10059c90 f i libucrtd:output.obj
 0001:00058cb0       ?type_case_X@?$output_processor@_WV?$stream_output_adapter@_W@__crt_stdio_output@@V?$standard_base@_WV?$stream_output_adapter@_W@__crt_stdio_output@@@2@@__crt_stdio_output@@AAE_NXZ 10059cb0 f i libucrtd:output.obj
 0001:00058cd0       ?type_case_X@?$output_processor@_WV?$string_output_adapter@_W@__crt_stdio_output@@V?$format_validation_base@_WV?$string_output_adapter@_W@__crt_stdio_output@@@2@@__crt_stdio_output@@AAE_NXZ 10059cd0 f i libucrtd:output.obj
 0001:00058cf0       ?type_case_X@?$output_processor@_WV?$string_output_adapter@_W@__crt_stdio_output@@V?$positional_parameter_base@_WV?$string_output_adapter@_W@__crt_stdio_output@@@2@@__crt_stdio_output@@AAE_NXZ 10059cf0 f i libucrtd:output.obj
 0001:00058d10       ?type_case_X@?$output_processor@_WV?$string_output_adapter@_W@__crt_stdio_output@@V?$standard_base@_WV?$string_output_adapter@_W@__crt_stdio_output@@@2@@__crt_stdio_output@@AAE_NXZ 10059d10 f i libucrtd:output.obj
 0001:00058d30       ?type_case_Z@?$output_processor@DV?$stream_output_adapter@D@__crt_stdio_output@@V?$format_validation_base@DV?$stream_output_adapter@D@__crt_stdio_output@@@2@@__crt_stdio_output@@AAE_NXZ 10059d30 f i libucrtd:output.obj
 0001:00058e20       ?type_case_Z@?$output_processor@DV?$stream_output_adapter@D@__crt_stdio_output@@V?$positional_parameter_base@DV?$stream_output_adapter@D@__crt_stdio_output@@@2@@__crt_stdio_output@@AAE_NXZ 10059e20 f i libucrtd:output.obj
 0001:00058f10       ?type_case_Z@?$output_processor@DV?$stream_output_adapter@D@__crt_stdio_output@@V?$standard_base@DV?$stream_output_adapter@D@__crt_stdio_output@@@2@@__crt_stdio_output@@AAE_NXZ 10059f10 f i libucrtd:output.obj
 0001:00059000       ?type_case_Z@?$output_processor@DV?$string_output_adapter@D@__crt_stdio_output@@V?$format_validation_base@DV?$string_output_adapter@D@__crt_stdio_output@@@2@@__crt_stdio_output@@AAE_NXZ 1005a000 f i libucrtd:output.obj
 0001:000590f0       ?type_case_Z@?$output_processor@DV?$string_output_adapter@D@__crt_stdio_output@@V?$positional_parameter_base@DV?$string_output_adapter@D@__crt_stdio_output@@@2@@__crt_stdio_output@@AAE_NXZ 1005a0f0 f i libucrtd:output.obj
 0001:000591e0       ?type_case_Z@?$output_processor@DV?$string_output_adapter@D@__crt_stdio_output@@V?$standard_base@DV?$string_output_adapter@D@__crt_stdio_output@@@2@@__crt_stdio_output@@AAE_NXZ 1005a1e0 f i libucrtd:output.obj
 0001:000592d0       ?type_case_Z@?$output_processor@_WV?$stream_output_adapter@_W@__crt_stdio_output@@V?$format_validation_base@_WV?$stream_output_adapter@_W@__crt_stdio_output@@@2@@__crt_stdio_output@@AAE_NXZ 1005a2d0 f i libucrtd:output.obj
 0001:000593c0       ?type_case_Z@?$output_processor@_WV?$stream_output_adapter@_W@__crt_stdio_output@@V?$positional_parameter_base@_WV?$stream_output_adapter@_W@__crt_stdio_output@@@2@@__crt_stdio_output@@AAE_NXZ 1005a3c0 f i libucrtd:output.obj
 0001:000594b0       ?type_case_Z@?$output_processor@_WV?$stream_output_adapter@_W@__crt_stdio_output@@V?$standard_base@_WV?$stream_output_adapter@_W@__crt_stdio_output@@@2@@__crt_stdio_output@@AAE_NXZ 1005a4b0 f i libucrtd:output.obj
 0001:000595a0       ?type_case_Z@?$output_processor@_WV?$string_output_adapter@_W@__crt_stdio_output@@V?$format_validation_base@_WV?$string_output_adapter@_W@__crt_stdio_output@@@2@@__crt_stdio_output@@AAE_NXZ 1005a5a0 f i libucrtd:output.obj
 0001:00059690       ?type_case_Z@?$output_processor@_WV?$string_output_adapter@_W@__crt_stdio_output@@V?$positional_parameter_base@_WV?$string_output_adapter@_W@__crt_stdio_output@@@2@@__crt_stdio_output@@AAE_NXZ 1005a690 f i libucrtd:output.obj
 0001:00059780       ?type_case_Z@?$output_processor@_WV?$string_output_adapter@_W@__crt_stdio_output@@V?$standard_base@_WV?$string_output_adapter@_W@__crt_stdio_output@@@2@@__crt_stdio_output@@AAE_NXZ 1005a780 f i libucrtd:output.obj
 0001:00059870       ?type_case_a@?$output_processor@DV?$stream_output_adapter@D@__crt_stdio_output@@V?$format_validation_base@DV?$stream_output_adapter@D@__crt_stdio_output@@@2@@__crt_stdio_output@@AAE_NXZ 1005a870 f i libucrtd:output.obj
 0001:00059ad0       ?type_case_a@?$output_processor@DV?$stream_output_adapter@D@__crt_stdio_output@@V?$positional_parameter_base@DV?$stream_output_adapter@D@__crt_stdio_output@@@2@@__crt_stdio_output@@AAE_NXZ 1005aad0 f i libucrtd:output.obj
 0001:00059d30       ?type_case_a@?$output_processor@DV?$stream_output_adapter@D@__crt_stdio_output@@V?$standard_base@DV?$stream_output_adapter@D@__crt_stdio_output@@@2@@__crt_stdio_output@@AAE_NXZ 1005ad30 f i libucrtd:output.obj
 0001:00059f90       ?type_case_a@?$output_processor@DV?$string_output_adapter@D@__crt_stdio_output@@V?$format_validation_base@DV?$string_output_adapter@D@__crt_stdio_output@@@2@@__crt_stdio_output@@AAE_NXZ 1005af90 f i libucrtd:output.obj
 0001:0005a1f0       ?type_case_a@?$output_processor@DV?$string_output_adapter@D@__crt_stdio_output@@V?$positional_parameter_base@DV?$string_output_adapter@D@__crt_stdio_output@@@2@@__crt_stdio_output@@AAE_NXZ 1005b1f0 f i libucrtd:output.obj
 0001:0005a450       ?type_case_a@?$output_processor@DV?$string_output_adapter@D@__crt_stdio_output@@V?$standard_base@DV?$string_output_adapter@D@__crt_stdio_output@@@2@@__crt_stdio_output@@AAE_NXZ 1005b450 f i libucrtd:output.obj
 0001:0005a6b0       ?type_case_a@?$output_processor@_WV?$stream_output_adapter@_W@__crt_stdio_output@@V?$format_validation_base@_WV?$stream_output_adapter@_W@__crt_stdio_output@@@2@@__crt_stdio_output@@AAE_NXZ 1005b6b0 f i libucrtd:output.obj
 0001:0005a910       ?type_case_a@?$output_processor@_WV?$stream_output_adapter@_W@__crt_stdio_output@@V?$positional_parameter_base@_WV?$stream_output_adapter@_W@__crt_stdio_output@@@2@@__crt_stdio_output@@AAE_NXZ 1005b910 f i libucrtd:output.obj
 0001:0005ab70       ?type_case_a@?$output_processor@_WV?$stream_output_adapter@_W@__crt_stdio_output@@V?$standard_base@_WV?$stream_output_adapter@_W@__crt_stdio_output@@@2@@__crt_stdio_output@@AAE_NXZ 1005bb70 f i libucrtd:output.obj
 0001:0005add0       ?type_case_a@?$output_processor@_WV?$string_output_adapter@_W@__crt_stdio_output@@V?$format_validation_base@_WV?$string_output_adapter@_W@__crt_stdio_output@@@2@@__crt_stdio_output@@AAE_NXZ 1005bdd0 f i libucrtd:output.obj
 0001:0005b030       ?type_case_a@?$output_processor@_WV?$string_output_adapter@_W@__crt_stdio_output@@V?$positional_parameter_base@_WV?$string_output_adapter@_W@__crt_stdio_output@@@2@@__crt_stdio_output@@AAE_NXZ 1005c030 f i libucrtd:output.obj
 0001:0005b290       ?type_case_a@?$output_processor@_WV?$string_output_adapter@_W@__crt_stdio_output@@V?$standard_base@_WV?$string_output_adapter@_W@__crt_stdio_output@@@2@@__crt_stdio_output@@AAE_NXZ 1005c290 f i libucrtd:output.obj
 0001:0005b4f0       ?type_case_c@?$output_processor@DV?$stream_output_adapter@D@__crt_stdio_output@@V?$format_validation_base@DV?$stream_output_adapter@D@__crt_stdio_output@@@2@@__crt_stdio_output@@AAE_NXZ 1005c4f0 f i libucrtd:output.obj
 0001:0005b510       ?type_case_c@?$output_processor@DV?$stream_output_adapter@D@__crt_stdio_output@@V?$positional_parameter_base@DV?$stream_output_adapter@D@__crt_stdio_output@@@2@@__crt_stdio_output@@AAE_NXZ 1005c510 f i libucrtd:output.obj
 0001:0005b530       ?type_case_c@?$output_processor@DV?$stream_output_adapter@D@__crt_stdio_output@@V?$standard_base@DV?$stream_output_adapter@D@__crt_stdio_output@@@2@@__crt_stdio_output@@AAE_NXZ 1005c530 f i libucrtd:output.obj
 0001:0005b550       ?type_case_c@?$output_processor@DV?$string_output_adapter@D@__crt_stdio_output@@V?$format_validation_base@DV?$string_output_adapter@D@__crt_stdio_output@@@2@@__crt_stdio_output@@AAE_NXZ 1005c550 f i libucrtd:output.obj
 0001:0005b570       ?type_case_c@?$output_processor@DV?$string_output_adapter@D@__crt_stdio_output@@V?$positional_parameter_base@DV?$string_output_adapter@D@__crt_stdio_output@@@2@@__crt_stdio_output@@AAE_NXZ 1005c570 f i libucrtd:output.obj
 0001:0005b590       ?type_case_c@?$output_processor@DV?$string_output_adapter@D@__crt_stdio_output@@V?$standard_base@DV?$string_output_adapter@D@__crt_stdio_output@@@2@@__crt_stdio_output@@AAE_NXZ 1005c590 f i libucrtd:output.obj
 0001:0005b5b0       ?type_case_c@?$output_processor@_WV?$stream_output_adapter@_W@__crt_stdio_output@@V?$format_validation_base@_WV?$stream_output_adapter@_W@__crt_stdio_output@@@2@@__crt_stdio_output@@AAE_NXZ 1005c5b0 f i libucrtd:output.obj
 0001:0005b5d0       ?type_case_c@?$output_processor@_WV?$stream_output_adapter@_W@__crt_stdio_output@@V?$positional_parameter_base@_WV?$stream_output_adapter@_W@__crt_stdio_output@@@2@@__crt_stdio_output@@AAE_NXZ 1005c5d0 f i libucrtd:output.obj
 0001:0005b5f0       ?type_case_c@?$output_processor@_WV?$stream_output_adapter@_W@__crt_stdio_output@@V?$standard_base@_WV?$stream_output_adapter@_W@__crt_stdio_output@@@2@@__crt_stdio_output@@AAE_NXZ 1005c5f0 f i libucrtd:output.obj
 0001:0005b610       ?type_case_c@?$output_processor@_WV?$string_output_adapter@_W@__crt_stdio_output@@V?$format_validation_base@_WV?$string_output_adapter@_W@__crt_stdio_output@@@2@@__crt_stdio_output@@AAE_NXZ 1005c610 f i libucrtd:output.obj
 0001:0005b630       ?type_case_c@?$output_processor@_WV?$string_output_adapter@_W@__crt_stdio_output@@V?$positional_parameter_base@_WV?$string_output_adapter@_W@__crt_stdio_output@@@2@@__crt_stdio_output@@AAE_NXZ 1005c630 f i libucrtd:output.obj
 0001:0005b650       ?type_case_c@?$output_processor@_WV?$string_output_adapter@_W@__crt_stdio_output@@V?$standard_base@_WV?$string_output_adapter@_W@__crt_stdio_output@@@2@@__crt_stdio_output@@AAE_NXZ 1005c650 f i libucrtd:output.obj
 0001:0005b670       ?type_case_c_tchar@?$output_processor@DV?$stream_output_adapter@D@__crt_stdio_output@@V?$format_validation_base@DV?$stream_output_adapter@D@__crt_stdio_output@@@2@@__crt_stdio_output@@AAE_ND@Z 1005c670 f i libucrtd:output.obj
 0001:0005b780       ?type_case_c_tchar@?$output_processor@DV?$stream_output_adapter@D@__crt_stdio_output@@V?$positional_parameter_base@DV?$stream_output_adapter@D@__crt_stdio_output@@@2@@__crt_stdio_output@@AAE_ND@Z 1005c780 f i libucrtd:output.obj
 0001:0005b890       ?type_case_c_tchar@?$output_processor@DV?$stream_output_adapter@D@__crt_stdio_output@@V?$standard_base@DV?$stream_output_adapter@D@__crt_stdio_output@@@2@@__crt_stdio_output@@AAE_ND@Z 1005c890 f i libucrtd:output.obj
 0001:0005b9a0       ?type_case_c_tchar@?$output_processor@DV?$string_output_adapter@D@__crt_stdio_output@@V?$format_validation_base@DV?$string_output_adapter@D@__crt_stdio_output@@@2@@__crt_stdio_output@@AAE_ND@Z 1005c9a0 f i libucrtd:output.obj
 0001:0005bab0       ?type_case_c_tchar@?$output_processor@DV?$string_output_adapter@D@__crt_stdio_output@@V?$positional_parameter_base@DV?$string_output_adapter@D@__crt_stdio_output@@@2@@__crt_stdio_output@@AAE_ND@Z 1005cab0 f i libucrtd:output.obj
 0001:0005bbc0       ?type_case_c_tchar@?$output_processor@DV?$string_output_adapter@D@__crt_stdio_output@@V?$standard_base@DV?$string_output_adapter@D@__crt_stdio_output@@@2@@__crt_stdio_output@@AAE_ND@Z 1005cbc0 f i libucrtd:output.obj
 0001:0005bcd0       ?type_case_c_tchar@?$output_processor@_WV?$stream_output_adapter@_W@__crt_stdio_output@@V?$format_validation_base@_WV?$stream_output_adapter@_W@__crt_stdio_output@@@2@@__crt_stdio_output@@AAE_N_W@Z 1005ccd0 f i libucrtd:output.obj
 0001:0005bdd0       ?type_case_c_tchar@?$output_processor@_WV?$stream_output_adapter@_W@__crt_stdio_output@@V?$positional_parameter_base@_WV?$stream_output_adapter@_W@__crt_stdio_output@@@2@@__crt_stdio_output@@AAE_N_W@Z 1005cdd0 f i libucrtd:output.obj
 0001:0005bed0       ?type_case_c_tchar@?$output_processor@_WV?$stream_output_adapter@_W@__crt_stdio_output@@V?$standard_base@_WV?$stream_output_adapter@_W@__crt_stdio_output@@@2@@__crt_stdio_output@@AAE_N_W@Z 1005ced0 f i libucrtd:output.obj
 0001:0005bfd0       ?type_case_c_tchar@?$output_processor@_WV?$string_output_adapter@_W@__crt_stdio_output@@V?$format_validation_base@_WV?$string_output_adapter@_W@__crt_stdio_output@@@2@@__crt_stdio_output@@AAE_N_W@Z 1005cfd0 f i libucrtd:output.obj
 0001:0005c0d0       ?type_case_c_tchar@?$output_processor@_WV?$string_output_adapter@_W@__crt_stdio_output@@V?$positional_parameter_base@_WV?$string_output_adapter@_W@__crt_stdio_output@@@2@@__crt_stdio_output@@AAE_N_W@Z 1005d0d0 f i libucrtd:output.obj
 0001:0005c1d0       ?type_case_c_tchar@?$output_processor@_WV?$string_output_adapter@_W@__crt_stdio_output@@V?$standard_base@_WV?$string_output_adapter@_W@__crt_stdio_output@@@2@@__crt_stdio_output@@AAE_N_W@Z 1005d1d0 f i libucrtd:output.obj
 0001:0005c2d0       ?type_case_d@?$output_processor@DV?$stream_output_adapter@D@__crt_stdio_output@@V?$format_validation_base@DV?$stream_output_adapter@D@__crt_stdio_output@@@2@@__crt_stdio_output@@AAE_NXZ 1005d2d0 f i libucrtd:output.obj
 0001:0005c300       ?type_case_d@?$output_processor@DV?$stream_output_adapter@D@__crt_stdio_output@@V?$positional_parameter_base@DV?$stream_output_adapter@D@__crt_stdio_output@@@2@@__crt_stdio_output@@AAE_NXZ 1005d300 f i libucrtd:output.obj
 0001:0005c330       ?type_case_d@?$output_processor@DV?$stream_output_adapter@D@__crt_stdio_output@@V?$standard_base@DV?$stream_output_adapter@D@__crt_stdio_output@@@2@@__crt_stdio_output@@AAE_NXZ 1005d330 f i libucrtd:output.obj
 0001:0005c360       ?type_case_d@?$output_processor@DV?$string_output_adapter@D@__crt_stdio_output@@V?$format_validation_base@DV?$string_output_adapter@D@__crt_stdio_output@@@2@@__crt_stdio_output@@AAE_NXZ 1005d360 f i libucrtd:output.obj
 0001:0005c390       ?type_case_d@?$output_processor@DV?$string_output_adapter@D@__crt_stdio_output@@V?$positional_parameter_base@DV?$string_output_adapter@D@__crt_stdio_output@@@2@@__crt_stdio_output@@AAE_NXZ 1005d390 f i libucrtd:output.obj
 0001:0005c3c0       ?type_case_d@?$output_processor@DV?$string_output_adapter@D@__crt_stdio_output@@V?$standard_base@DV?$string_output_adapter@D@__crt_stdio_output@@@2@@__crt_stdio_output@@AAE_NXZ 1005d3c0 f i libucrtd:output.obj
 0001:0005c3f0       ?type_case_d@?$output_processor@_WV?$stream_output_adapter@_W@__crt_stdio_output@@V?$format_validation_base@_WV?$stream_output_adapter@_W@__crt_stdio_output@@@2@@__crt_stdio_output@@AAE_NXZ 1005d3f0 f i libucrtd:output.obj
 0001:0005c420       ?type_case_d@?$output_processor@_WV?$stream_output_adapter@_W@__crt_stdio_output@@V?$positional_parameter_base@_WV?$stream_output_adapter@_W@__crt_stdio_output@@@2@@__crt_stdio_output@@AAE_NXZ 1005d420 f i libucrtd:output.obj
 0001:0005c450       ?type_case_d@?$output_processor@_WV?$stream_output_adapter@_W@__crt_stdio_output@@V?$standard_base@_WV?$stream_output_adapter@_W@__crt_stdio_output@@@2@@__crt_stdio_output@@AAE_NXZ 1005d450 f i libucrtd:output.obj
 0001:0005c480       ?type_case_d@?$output_processor@_WV?$string_output_adapter@_W@__crt_stdio_output@@V?$format_validation_base@_WV?$string_output_adapter@_W@__crt_stdio_output@@@2@@__crt_stdio_output@@AAE_NXZ 1005d480 f i libucrtd:output.obj
 0001:0005c4b0       ?type_case_d@?$output_processor@_WV?$string_output_adapter@_W@__crt_stdio_output@@V?$positional_parameter_base@_WV?$string_output_adapter@_W@__crt_stdio_output@@@2@@__crt_stdio_output@@AAE_NXZ 1005d4b0 f i libucrtd:output.obj
 0001:0005c4e0       ?type_case_d@?$output_processor@_WV?$string_output_adapter@_W@__crt_stdio_output@@V?$standard_base@_WV?$string_output_adapter@_W@__crt_stdio_output@@@2@@__crt_stdio_output@@AAE_NXZ 1005d4e0 f i libucrtd:output.obj
 0001:0005c510       ?type_case_integer@?$output_processor@DV?$stream_output_adapter@D@__crt_stdio_output@@V?$format_validation_base@DV?$stream_output_adapter@D@__crt_stdio_output@@@2@@__crt_stdio_output@@AAE_NI_N@Z 1005d510 f i libucrtd:output.obj
 0001:0005c850       ?type_case_integer@?$output_processor@DV?$stream_output_adapter@D@__crt_stdio_output@@V?$positional_parameter_base@DV?$stream_output_adapter@D@__crt_stdio_output@@@2@@__crt_stdio_output@@AAE_NI_N@Z 1005d850 f i libucrtd:output.obj
 0001:0005cb90       ?type_case_integer@?$output_processor@DV?$stream_output_adapter@D@__crt_stdio_output@@V?$standard_base@DV?$stream_output_adapter@D@__crt_stdio_output@@@2@@__crt_stdio_output@@AAE_NI_N@Z 1005db90 f i libucrtd:output.obj
 0001:0005ced0       ?type_case_integer@?$output_processor@DV?$string_output_adapter@D@__crt_stdio_output@@V?$format_validation_base@DV?$string_output_adapter@D@__crt_stdio_output@@@2@@__crt_stdio_output@@AAE_NI_N@Z 1005ded0 f i libucrtd:output.obj
 0001:0005d210       ?type_case_integer@?$output_processor@DV?$string_output_adapter@D@__crt_stdio_output@@V?$positional_parameter_base@DV?$string_output_adapter@D@__crt_stdio_output@@@2@@__crt_stdio_output@@AAE_NI_N@Z 1005e210 f i libucrtd:output.obj
 0001:0005d550       ?type_case_integer@?$output_processor@DV?$string_output_adapter@D@__crt_stdio_output@@V?$standard_base@DV?$string_output_adapter@D@__crt_stdio_output@@@2@@__crt_stdio_output@@AAE_NI_N@Z 1005e550 f i libucrtd:output.obj
 0001:0005d890       ?type_case_integer@?$output_processor@_WV?$stream_output_adapter@_W@__crt_stdio_output@@V?$format_validation_base@_WV?$stream_output_adapter@_W@__crt_stdio_output@@@2@@__crt_stdio_output@@AAE_NI_N@Z 1005e890 f i libucrtd:output.obj
 0001:0005dbd0       ?type_case_integer@?$output_processor@_WV?$stream_output_adapter@_W@__crt_stdio_output@@V?$positional_parameter_base@_WV?$stream_output_adapter@_W@__crt_stdio_output@@@2@@__crt_stdio_output@@AAE_NI_N@Z 1005ebd0 f i libucrtd:output.obj
 0001:0005df10       ?type_case_integer@?$output_processor@_WV?$stream_output_adapter@_W@__crt_stdio_output@@V?$standard_base@_WV?$stream_output_adapter@_W@__crt_stdio_output@@@2@@__crt_stdio_output@@AAE_NI_N@Z 1005ef10 f i libucrtd:output.obj
 0001:0005e250       ?type_case_integer@?$output_processor@_WV?$string_output_adapter@_W@__crt_stdio_output@@V?$format_validation_base@_WV?$string_output_adapter@_W@__crt_stdio_output@@@2@@__crt_stdio_output@@AAE_NI_N@Z 1005f250 f i libucrtd:output.obj
 0001:0005e590       ?type_case_integer@?$output_processor@_WV?$string_output_adapter@_W@__crt_stdio_output@@V?$positional_parameter_base@_WV?$string_output_adapter@_W@__crt_stdio_output@@@2@@__crt_stdio_output@@AAE_NI_N@Z 1005f590 f i libucrtd:output.obj
 0001:0005e8d0       ?type_case_integer@?$output_processor@_WV?$string_output_adapter@_W@__crt_stdio_output@@V?$standard_base@_WV?$string_output_adapter@_W@__crt_stdio_output@@@2@@__crt_stdio_output@@AAE_NI_N@Z 1005f8d0 f i libucrtd:output.obj
 0001:0005ec10       ?type_case_n@?$output_processor@DV?$stream_output_adapter@D@__crt_stdio_output@@V?$format_validation_base@DV?$stream_output_adapter@D@__crt_stdio_output@@@2@@__crt_stdio_output@@AAE_NXZ 1005fc10 f i libucrtd:output.obj
 0001:0005ee00       ?type_case_n@?$output_processor@DV?$stream_output_adapter@D@__crt_stdio_output@@V?$positional_parameter_base@DV?$stream_output_adapter@D@__crt_stdio_output@@@2@@__crt_stdio_output@@AAE_NXZ 1005fe00 f i libucrtd:output.obj
 0001:0005eff0       ?type_case_n@?$output_processor@DV?$stream_output_adapter@D@__crt_stdio_output@@V?$standard_base@DV?$stream_output_adapter@D@__crt_stdio_output@@@2@@__crt_stdio_output@@AAE_NXZ 1005fff0 f i libucrtd:output.obj
 0001:0005f1e0       ?type_case_n@?$output_processor@DV?$string_output_adapter@D@__crt_stdio_output@@V?$format_validation_base@DV?$string_output_adapter@D@__crt_stdio_output@@@2@@__crt_stdio_output@@AAE_NXZ 100601e0 f i libucrtd:output.obj
 0001:0005f3d0       ?type_case_n@?$output_processor@DV?$string_output_adapter@D@__crt_stdio_output@@V?$positional_parameter_base@DV?$string_output_adapter@D@__crt_stdio_output@@@2@@__crt_stdio_output@@AAE_NXZ 100603d0 f i libucrtd:output.obj
 0001:0005f5c0       ?type_case_n@?$output_processor@DV?$string_output_adapter@D@__crt_stdio_output@@V?$standard_base@DV?$string_output_adapter@D@__crt_stdio_output@@@2@@__crt_stdio_output@@AAE_NXZ 100605c0 f i libucrtd:output.obj
 0001:0005f7b0       ?type_case_n@?$output_processor@_WV?$stream_output_adapter@_W@__crt_stdio_output@@V?$format_validation_base@_WV?$stream_output_adapter@_W@__crt_stdio_output@@@2@@__crt_stdio_output@@AAE_NXZ 100607b0 f i libucrtd:output.obj
 0001:0005f9a0       ?type_case_n@?$output_processor@_WV?$stream_output_adapter@_W@__crt_stdio_output@@V?$positional_parameter_base@_WV?$stream_output_adapter@_W@__crt_stdio_output@@@2@@__crt_stdio_output@@AAE_NXZ 100609a0 f i libucrtd:output.obj
 0001:0005fb90       ?type_case_n@?$output_processor@_WV?$stream_output_adapter@_W@__crt_stdio_output@@V?$standard_base@_WV?$stream_output_adapter@_W@__crt_stdio_output@@@2@@__crt_stdio_output@@AAE_NXZ 10060b90 f i libucrtd:output.obj
 0001:0005fd80       ?type_case_n@?$output_processor@_WV?$string_output_adapter@_W@__crt_stdio_output@@V?$format_validation_base@_WV?$string_output_adapter@_W@__crt_stdio_output@@@2@@__crt_stdio_output@@AAE_NXZ 10060d80 f i libucrtd:output.obj
 0001:0005ff70       ?type_case_n@?$output_processor@_WV?$string_output_adapter@_W@__crt_stdio_output@@V?$positional_parameter_base@_WV?$string_output_adapter@_W@__crt_stdio_output@@@2@@__crt_stdio_output@@AAE_NXZ 10060f70 f i libucrtd:output.obj
 0001:00060160       ?type_case_n@?$output_processor@_WV?$string_output_adapter@_W@__crt_stdio_output@@V?$standard_base@_WV?$string_output_adapter@_W@__crt_stdio_output@@@2@@__crt_stdio_output@@AAE_NXZ 10061160 f i libucrtd:output.obj
 0001:00060350       ?type_case_o@?$output_processor@DV?$stream_output_adapter@D@__crt_stdio_output@@V?$format_validation_base@DV?$stream_output_adapter@D@__crt_stdio_output@@@2@@__crt_stdio_output@@AAE_NXZ 10061350 f i libucrtd:output.obj
 0001:00060390       ?type_case_o@?$output_processor@DV?$stream_output_adapter@D@__crt_stdio_output@@V?$positional_parameter_base@DV?$stream_output_adapter@D@__crt_stdio_output@@@2@@__crt_stdio_output@@AAE_NXZ 10061390 f i libucrtd:output.obj
 0001:000603d0       ?type_case_o@?$output_processor@DV?$stream_output_adapter@D@__crt_stdio_output@@V?$standard_base@DV?$stream_output_adapter@D@__crt_stdio_output@@@2@@__crt_stdio_output@@AAE_NXZ 100613d0 f i libucrtd:output.obj
 0001:00060410       ?type_case_o@?$output_processor@DV?$string_output_adapter@D@__crt_stdio_output@@V?$format_validation_base@DV?$string_output_adapter@D@__crt_stdio_output@@@2@@__crt_stdio_output@@AAE_NXZ 10061410 f i libucrtd:output.obj
 0001:00060450       ?type_case_o@?$output_processor@DV?$string_output_adapter@D@__crt_stdio_output@@V?$positional_parameter_base@DV?$string_output_adapter@D@__crt_stdio_output@@@2@@__crt_stdio_output@@AAE_NXZ 10061450 f i libucrtd:output.obj
 0001:00060490       ?type_case_o@?$output_processor@DV?$string_output_adapter@D@__crt_stdio_output@@V?$standard_base@DV?$string_output_adapter@D@__crt_stdio_output@@@2@@__crt_stdio_output@@AAE_NXZ 10061490 f i libucrtd:output.obj
 0001:000604d0       ?type_case_o@?$output_processor@_WV?$stream_output_adapter@_W@__crt_stdio_output@@V?$format_validation_base@_WV?$stream_output_adapter@_W@__crt_stdio_output@@@2@@__crt_stdio_output@@AAE_NXZ 100614d0 f i libucrtd:output.obj
 0001:00060510       ?type_case_o@?$output_processor@_WV?$stream_output_adapter@_W@__crt_stdio_output@@V?$positional_parameter_base@_WV?$stream_output_adapter@_W@__crt_stdio_output@@@2@@__crt_stdio_output@@AAE_NXZ 10061510 f i libucrtd:output.obj
 0001:00060550       ?type_case_o@?$output_processor@_WV?$stream_output_adapter@_W@__crt_stdio_output@@V?$standard_base@_WV?$stream_output_adapter@_W@__crt_stdio_output@@@2@@__crt_stdio_output@@AAE_NXZ 10061550 f i libucrtd:output.obj
 0001:00060590       ?type_case_o@?$output_processor@_WV?$string_output_adapter@_W@__crt_stdio_output@@V?$format_validation_base@_WV?$string_output_adapter@_W@__crt_stdio_output@@@2@@__crt_stdio_output@@AAE_NXZ 10061590 f i libucrtd:output.obj
 0001:000605d0       ?type_case_o@?$output_processor@_WV?$string_output_adapter@_W@__crt_stdio_output@@V?$positional_parameter_base@_WV?$string_output_adapter@_W@__crt_stdio_output@@@2@@__crt_stdio_output@@AAE_NXZ 100615d0 f i libucrtd:output.obj
 0001:00060610       ?type_case_o@?$output_processor@_WV?$string_output_adapter@_W@__crt_stdio_output@@V?$standard_base@_WV?$string_output_adapter@_W@__crt_stdio_output@@@2@@__crt_stdio_output@@AAE_NXZ 10061610 f i libucrtd:output.obj
 0001:00060650       ?type_case_p@?$output_processor@DV?$stream_output_adapter@D@__crt_stdio_output@@V?$format_validation_base@DV?$stream_output_adapter@D@__crt_stdio_output@@@2@@__crt_stdio_output@@AAE_NXZ 10061650 f i libucrtd:output.obj
 0001:00060680       ?type_case_p@?$output_processor@DV?$stream_output_adapter@D@__crt_stdio_output@@V?$positional_parameter_base@DV?$stream_output_adapter@D@__crt_stdio_output@@@2@@__crt_stdio_output@@AAE_NXZ 10061680 f i libucrtd:output.obj
 0001:000606b0       ?type_case_p@?$output_processor@DV?$stream_output_adapter@D@__crt_stdio_output@@V?$standard_base@DV?$stream_output_adapter@D@__crt_stdio_output@@@2@@__crt_stdio_output@@AAE_NXZ 100616b0 f i libucrtd:output.obj
 0001:000606e0       ?type_case_p@?$output_processor@DV?$string_output_adapter@D@__crt_stdio_output@@V?$format_validation_base@DV?$string_output_adapter@D@__crt_stdio_output@@@2@@__crt_stdio_output@@AAE_NXZ 100616e0 f i libucrtd:output.obj
 0001:00060710       ?type_case_p@?$output_processor@DV?$string_output_adapter@D@__crt_stdio_output@@V?$positional_parameter_base@DV?$string_output_adapter@D@__crt_stdio_output@@@2@@__crt_stdio_output@@AAE_NXZ 10061710 f i libucrtd:output.obj
 0001:00060740       ?type_case_p@?$output_processor@DV?$string_output_adapter@D@__crt_stdio_output@@V?$standard_base@DV?$string_output_adapter@D@__crt_stdio_output@@@2@@__crt_stdio_output@@AAE_NXZ 10061740 f i libucrtd:output.obj
 0001:00060770       ?type_case_p@?$output_processor@_WV?$stream_output_adapter@_W@__crt_stdio_output@@V?$format_validation_base@_WV?$stream_output_adapter@_W@__crt_stdio_output@@@2@@__crt_stdio_output@@AAE_NXZ 10061770 f i libucrtd:output.obj
 0001:000607a0       ?type_case_p@?$output_processor@_WV?$stream_output_adapter@_W@__crt_stdio_output@@V?$positional_parameter_base@_WV?$stream_output_adapter@_W@__crt_stdio_output@@@2@@__crt_stdio_output@@AAE_NXZ 100617a0 f i libucrtd:output.obj
 0001:000607d0       ?type_case_p@?$output_processor@_WV?$stream_output_adapter@_W@__crt_stdio_output@@V?$standard_base@_WV?$stream_output_adapter@_W@__crt_stdio_output@@@2@@__crt_stdio_output@@AAE_NXZ 100617d0 f i libucrtd:output.obj
 0001:00060800       ?type_case_p@?$output_processor@_WV?$string_output_adapter@_W@__crt_stdio_output@@V?$format_validation_base@_WV?$string_output_adapter@_W@__crt_stdio_output@@@2@@__crt_stdio_output@@AAE_NXZ 10061800 f i libucrtd:output.obj
 0001:00060830       ?type_case_p@?$output_processor@_WV?$string_output_adapter@_W@__crt_stdio_output@@V?$positional_parameter_base@_WV?$string_output_adapter@_W@__crt_stdio_output@@@2@@__crt_stdio_output@@AAE_NXZ 10061830 f i libucrtd:output.obj
 0001:00060860       ?type_case_p@?$output_processor@_WV?$string_output_adapter@_W@__crt_stdio_output@@V?$standard_base@_WV?$string_output_adapter@_W@__crt_stdio_output@@@2@@__crt_stdio_output@@AAE_NXZ 10061860 f i libucrtd:output.obj
 0001:00060890       ?type_case_s@?$output_processor@DV?$stream_output_adapter@D@__crt_stdio_output@@V?$format_validation_base@DV?$stream_output_adapter@D@__crt_stdio_output@@@2@@__crt_stdio_output@@AAE_NXZ 10061890 f i libucrtd:output.obj
 0001:00060980       ?type_case_s@?$output_processor@DV?$stream_output_adapter@D@__crt_stdio_output@@V?$positional_parameter_base@DV?$stream_output_adapter@D@__crt_stdio_output@@@2@@__crt_stdio_output@@AAE_NXZ 10061980 f i libucrtd:output.obj
 0001:00060a70       ?type_case_s@?$output_processor@DV?$stream_output_adapter@D@__crt_stdio_output@@V?$standard_base@DV?$stream_output_adapter@D@__crt_stdio_output@@@2@@__crt_stdio_output@@AAE_NXZ 10061a70 f i libucrtd:output.obj
 0001:00060b60       ?type_case_s@?$output_processor@DV?$string_output_adapter@D@__crt_stdio_output@@V?$format_validation_base@DV?$string_output_adapter@D@__crt_stdio_output@@@2@@__crt_stdio_output@@AAE_NXZ 10061b60 f i libucrtd:output.obj
 0001:00060c50       ?type_case_s@?$output_processor@DV?$string_output_adapter@D@__crt_stdio_output@@V?$positional_parameter_base@DV?$string_output_adapter@D@__crt_stdio_output@@@2@@__crt_stdio_output@@AAE_NXZ 10061c50 f i libucrtd:output.obj
 0001:00060d40       ?type_case_s@?$output_processor@DV?$string_output_adapter@D@__crt_stdio_output@@V?$standard_base@DV?$string_output_adapter@D@__crt_stdio_output@@@2@@__crt_stdio_output@@AAE_NXZ 10061d40 f i libucrtd:output.obj
 0001:00060e30       ?type_case_s@?$output_processor@_WV?$stream_output_adapter@_W@__crt_stdio_output@@V?$format_validation_base@_WV?$stream_output_adapter@_W@__crt_stdio_output@@@2@@__crt_stdio_output@@AAE_NXZ 10061e30 f i libucrtd:output.obj
 0001:00060f20       ?type_case_s@?$output_processor@_WV?$stream_output_adapter@_W@__crt_stdio_output@@V?$positional_parameter_base@_WV?$stream_output_adapter@_W@__crt_stdio_output@@@2@@__crt_stdio_output@@AAE_NXZ 10061f20 f i libucrtd:output.obj
 0001:00061010       ?type_case_s@?$output_processor@_WV?$stream_output_adapter@_W@__crt_stdio_output@@V?$standard_base@_WV?$stream_output_adapter@_W@__crt_stdio_output@@@2@@__crt_stdio_output@@AAE_NXZ 10062010 f i libucrtd:output.obj
 0001:00061100       ?type_case_s@?$output_processor@_WV?$string_output_adapter@_W@__crt_stdio_output@@V?$format_validation_base@_WV?$string_output_adapter@_W@__crt_stdio_output@@@2@@__crt_stdio_output@@AAE_NXZ 10062100 f i libucrtd:output.obj
 0001:000611f0       ?type_case_s@?$output_processor@_WV?$string_output_adapter@_W@__crt_stdio_output@@V?$positional_parameter_base@_WV?$string_output_adapter@_W@__crt_stdio_output@@@2@@__crt_stdio_output@@AAE_NXZ 100621f0 f i libucrtd:output.obj
 0001:000612e0       ?type_case_s@?$output_processor@_WV?$string_output_adapter@_W@__crt_stdio_output@@V?$standard_base@_WV?$string_output_adapter@_W@__crt_stdio_output@@@2@@__crt_stdio_output@@AAE_NXZ 100622e0 f i libucrtd:output.obj
 0001:000613d0       ?type_case_s_compute_narrow_string_length@?$output_processor@DV?$stream_output_adapter@D@__crt_stdio_output@@V?$format_validation_base@DV?$stream_output_adapter@D@__crt_stdio_output@@@2@@__crt_stdio_output@@ABEHHD@Z 100623d0 f i libucrtd:output.obj
 0001:00061400       ?type_case_s_compute_narrow_string_length@?$output_processor@DV?$stream_output_adapter@D@__crt_stdio_output@@V?$positional_parameter_base@DV?$stream_output_adapter@D@__crt_stdio_output@@@2@@__crt_stdio_output@@ABEHHD@Z 10062400 f i libucrtd:output.obj
 0001:00061430       ?type_case_s_compute_narrow_string_length@?$output_processor@DV?$stream_output_adapter@D@__crt_stdio_output@@V?$standard_base@DV?$stream_output_adapter@D@__crt_stdio_output@@@2@@__crt_stdio_output@@ABEHHD@Z 10062430 f i libucrtd:output.obj
 0001:00061460       ?type_case_s_compute_narrow_string_length@?$output_processor@DV?$string_output_adapter@D@__crt_stdio_output@@V?$format_validation_base@DV?$string_output_adapter@D@__crt_stdio_output@@@2@@__crt_stdio_output@@ABEHHD@Z 10062460 f i libucrtd:output.obj
 0001:00061490       ?type_case_s_compute_narrow_string_length@?$output_processor@DV?$string_output_adapter@D@__crt_stdio_output@@V?$positional_parameter_base@DV?$string_output_adapter@D@__crt_stdio_output@@@2@@__crt_stdio_output@@ABEHHD@Z 10062490 f i libucrtd:output.obj
 0001:000614c0       ?type_case_s_compute_narrow_string_length@?$output_processor@DV?$string_output_adapter@D@__crt_stdio_output@@V?$standard_base@DV?$string_output_adapter@D@__crt_stdio_output@@@2@@__crt_stdio_output@@ABEHHD@Z 100624c0 f i libucrtd:output.obj
 0001:000614f0       ?type_case_s_compute_narrow_string_length@?$output_processor@_WV?$stream_output_adapter@_W@__crt_stdio_output@@V?$format_validation_base@_WV?$stream_output_adapter@_W@__crt_stdio_output@@@2@@__crt_stdio_output@@ABEHH_W@Z 100624f0 f i libucrtd:output.obj
 0001:00061560       ?type_case_s_compute_narrow_string_length@?$output_processor@_WV?$stream_output_adapter@_W@__crt_stdio_output@@V?$positional_parameter_base@_WV?$stream_output_adapter@_W@__crt_stdio_output@@@2@@__crt_stdio_output@@ABEHH_W@Z 10062560 f i libucrtd:output.obj
 0001:000615d0       ?type_case_s_compute_narrow_string_length@?$output_processor@_WV?$stream_output_adapter@_W@__crt_stdio_output@@V?$standard_base@_WV?$stream_output_adapter@_W@__crt_stdio_output@@@2@@__crt_stdio_output@@ABEHH_W@Z 100625d0 f i libucrtd:output.obj
 0001:00061640       ?type_case_s_compute_narrow_string_length@?$output_processor@_WV?$string_output_adapter@_W@__crt_stdio_output@@V?$format_validation_base@_WV?$string_output_adapter@_W@__crt_stdio_output@@@2@@__crt_stdio_output@@ABEHH_W@Z 10062640 f i libucrtd:output.obj
 0001:000616b0       ?type_case_s_compute_narrow_string_length@?$output_processor@_WV?$string_output_adapter@_W@__crt_stdio_output@@V?$positional_parameter_base@_WV?$string_output_adapter@_W@__crt_stdio_output@@@2@@__crt_stdio_output@@ABEHH_W@Z 100626b0 f i libucrtd:output.obj
 0001:00061720       ?type_case_s_compute_narrow_string_length@?$output_processor@_WV?$string_output_adapter@_W@__crt_stdio_output@@V?$standard_base@_WV?$string_output_adapter@_W@__crt_stdio_output@@@2@@__crt_stdio_output@@ABEHH_W@Z 10062720 f i libucrtd:output.obj
 0001:00061790       ?type_case_u@?$output_processor@DV?$stream_output_adapter@D@__crt_stdio_output@@V?$format_validation_base@DV?$stream_output_adapter@D@__crt_stdio_output@@@2@@__crt_stdio_output@@AAE_NXZ 10062790 f i libucrtd:output.obj
 0001:000617b0       ?type_case_u@?$output_processor@DV?$stream_output_adapter@D@__crt_stdio_output@@V?$positional_parameter_base@DV?$stream_output_adapter@D@__crt_stdio_output@@@2@@__crt_stdio_output@@AAE_NXZ 100627b0 f i libucrtd:output.obj
 0001:000617d0       ?type_case_u@?$output_processor@DV?$stream_output_adapter@D@__crt_stdio_output@@V?$standard_base@DV?$stream_output_adapter@D@__crt_stdio_output@@@2@@__crt_stdio_output@@AAE_NXZ 100627d0 f i libucrtd:output.obj
 0001:000617f0       ?type_case_u@?$output_processor@DV?$string_output_adapter@D@__crt_stdio_output@@V?$format_validation_base@DV?$string_output_adapter@D@__crt_stdio_output@@@2@@__crt_stdio_output@@AAE_NXZ 100627f0 f i libucrtd:output.obj
 0001:00061810       ?type_case_u@?$output_processor@DV?$string_output_adapter@D@__crt_stdio_output@@V?$positional_parameter_base@DV?$string_output_adapter@D@__crt_stdio_output@@@2@@__crt_stdio_output@@AAE_NXZ 10062810 f i libucrtd:output.obj
 0001:00061830       ?type_case_u@?$output_processor@DV?$string_output_adapter@D@__crt_stdio_output@@V?$standard_base@DV?$string_output_adapter@D@__crt_stdio_output@@@2@@__crt_stdio_output@@AAE_NXZ 10062830 f i libucrtd:output.obj
 0001:00061850       ?type_case_u@?$output_processor@_WV?$stream_output_adapter@_W@__crt_stdio_output@@V?$format_validation_base@_WV?$stream_output_adapter@_W@__crt_stdio_output@@@2@@__crt_stdio_output@@AAE_NXZ 10062850 f i libucrtd:output.obj
 0001:00061870       ?type_case_u@?$output_processor@_WV?$stream_output_adapter@_W@__crt_stdio_output@@V?$positional_parameter_base@_WV?$stream_output_adapter@_W@__crt_stdio_output@@@2@@__crt_stdio_output@@AAE_NXZ 10062870 f i libucrtd:output.obj
 0001:00061890       ?type_case_u@?$output_processor@_WV?$stream_output_adapter@_W@__crt_stdio_output@@V?$standard_base@_WV?$stream_output_adapter@_W@__crt_stdio_output@@@2@@__crt_stdio_output@@AAE_NXZ 10062890 f i libucrtd:output.obj
 0001:000618b0       ?type_case_u@?$output_processor@_WV?$string_output_adapter@_W@__crt_stdio_output@@V?$format_validation_base@_WV?$string_output_adapter@_W@__crt_stdio_output@@@2@@__crt_stdio_output@@AAE_NXZ 100628b0 f i libucrtd:output.obj
 0001:000618d0       ?type_case_u@?$output_processor@_WV?$string_output_adapter@_W@__crt_stdio_output@@V?$positional_parameter_base@_WV?$string_output_adapter@_W@__crt_stdio_output@@@2@@__crt_stdio_output@@AAE_NXZ 100628d0 f i libucrtd:output.obj
 0001:000618f0       ?type_case_u@?$output_processor@_WV?$string_output_adapter@_W@__crt_stdio_output@@V?$standard_base@_WV?$string_output_adapter@_W@__crt_stdio_output@@@2@@__crt_stdio_output@@AAE_NXZ 100628f0 f i libucrtd:output.obj
 0001:00061910       ?type_case_x@?$output_processor@DV?$stream_output_adapter@D@__crt_stdio_output@@V?$format_validation_base@DV?$stream_output_adapter@D@__crt_stdio_output@@@2@@__crt_stdio_output@@AAE_NXZ 10062910 f i libucrtd:output.obj
 0001:00061930       ?type_case_x@?$output_processor@DV?$stream_output_adapter@D@__crt_stdio_output@@V?$positional_parameter_base@DV?$stream_output_adapter@D@__crt_stdio_output@@@2@@__crt_stdio_output@@AAE_NXZ 10062930 f i libucrtd:output.obj
 0001:00061950       ?type_case_x@?$output_processor@DV?$stream_output_adapter@D@__crt_stdio_output@@V?$standard_base@DV?$stream_output_adapter@D@__crt_stdio_output@@@2@@__crt_stdio_output@@AAE_NXZ 10062950 f i libucrtd:output.obj
 0001:00061970       ?type_case_x@?$output_processor@DV?$string_output_adapter@D@__crt_stdio_output@@V?$format_validation_base@DV?$string_output_adapter@D@__crt_stdio_output@@@2@@__crt_stdio_output@@AAE_NXZ 10062970 f i libucrtd:output.obj
 0001:00061990       ?type_case_x@?$output_processor@DV?$string_output_adapter@D@__crt_stdio_output@@V?$positional_parameter_base@DV?$string_output_adapter@D@__crt_stdio_output@@@2@@__crt_stdio_output@@AAE_NXZ 10062990 f i libucrtd:output.obj
 0001:000619b0       ?type_case_x@?$output_processor@DV?$string_output_adapter@D@__crt_stdio_output@@V?$standard_base@DV?$string_output_adapter@D@__crt_stdio_output@@@2@@__crt_stdio_output@@AAE_NXZ 100629b0 f i libucrtd:output.obj
 0001:000619d0       ?type_case_x@?$output_processor@_WV?$stream_output_adapter@_W@__crt_stdio_output@@V?$format_validation_base@_WV?$stream_output_adapter@_W@__crt_stdio_output@@@2@@__crt_stdio_output@@AAE_NXZ 100629d0 f i libucrtd:output.obj
 0001:000619f0       ?type_case_x@?$output_processor@_WV?$stream_output_adapter@_W@__crt_stdio_output@@V?$positional_parameter_base@_WV?$stream_output_adapter@_W@__crt_stdio_output@@@2@@__crt_stdio_output@@AAE_NXZ 100629f0 f i libucrtd:output.obj
 0001:00061a10       ?type_case_x@?$output_processor@_WV?$stream_output_adapter@_W@__crt_stdio_output@@V?$standard_base@_WV?$stream_output_adapter@_W@__crt_stdio_output@@@2@@__crt_stdio_output@@AAE_NXZ 10062a10 f i libucrtd:output.obj
 0001:00061a30       ?type_case_x@?$output_processor@_WV?$string_output_adapter@_W@__crt_stdio_output@@V?$format_validation_base@_WV?$string_output_adapter@_W@__crt_stdio_output@@@2@@__crt_stdio_output@@AAE_NXZ 10062a30 f i libucrtd:output.obj
 0001:00061a50       ?type_case_x@?$output_processor@_WV?$string_output_adapter@_W@__crt_stdio_output@@V?$positional_parameter_base@_WV?$string_output_adapter@_W@__crt_stdio_output@@@2@@__crt_stdio_output@@AAE_NXZ 10062a50 f i libucrtd:output.obj
 0001:00061a70       ?type_case_x@?$output_processor@_WV?$string_output_adapter@_W@__crt_stdio_output@@V?$standard_base@_WV?$string_output_adapter@_W@__crt_stdio_output@@@2@@__crt_stdio_output@@AAE_NXZ 10062a70 f i libucrtd:output.obj
 0001:00061a90       ?unset_flag@?$output_processor@DV?$stream_output_adapter@D@__crt_stdio_output@@V?$format_validation_base@DV?$stream_output_adapter@D@__crt_stdio_output@@@2@@__crt_stdio_output@@AAEXI@Z 10062a90 f i libucrtd:output.obj
 0001:00061ab0       ?unset_flag@?$output_processor@DV?$stream_output_adapter@D@__crt_stdio_output@@V?$positional_parameter_base@DV?$stream_output_adapter@D@__crt_stdio_output@@@2@@__crt_stdio_output@@AAEXI@Z 10062ab0 f i libucrtd:output.obj
 0001:00061ad0       ?unset_flag@?$output_processor@DV?$stream_output_adapter@D@__crt_stdio_output@@V?$standard_base@DV?$stream_output_adapter@D@__crt_stdio_output@@@2@@__crt_stdio_output@@AAEXI@Z 10062ad0 f i libucrtd:output.obj
 0001:00061af0       ?unset_flag@?$output_processor@DV?$string_output_adapter@D@__crt_stdio_output@@V?$format_validation_base@DV?$string_output_adapter@D@__crt_stdio_output@@@2@@__crt_stdio_output@@AAEXI@Z 10062af0 f i libucrtd:output.obj
 0001:00061b10       ?unset_flag@?$output_processor@DV?$string_output_adapter@D@__crt_stdio_output@@V?$positional_parameter_base@DV?$string_output_adapter@D@__crt_stdio_output@@@2@@__crt_stdio_output@@AAEXI@Z 10062b10 f i libucrtd:output.obj
 0001:00061b30       ?unset_flag@?$output_processor@DV?$string_output_adapter@D@__crt_stdio_output@@V?$standard_base@DV?$string_output_adapter@D@__crt_stdio_output@@@2@@__crt_stdio_output@@AAEXI@Z 10062b30 f i libucrtd:output.obj
 0001:00061b50       ?unset_flag@?$output_processor@_WV?$stream_output_adapter@_W@__crt_stdio_output@@V?$format_validation_base@_WV?$stream_output_adapter@_W@__crt_stdio_output@@@2@@__crt_stdio_output@@AAEXI@Z 10062b50 f i libucrtd:output.obj
 0001:00061b70       ?unset_flag@?$output_processor@_WV?$stream_output_adapter@_W@__crt_stdio_output@@V?$positional_parameter_base@_WV?$stream_output_adapter@_W@__crt_stdio_output@@@2@@__crt_stdio_output@@AAEXI@Z 10062b70 f i libucrtd:output.obj
 0001:00061b90       ?unset_flag@?$output_processor@_WV?$stream_output_adapter@_W@__crt_stdio_output@@V?$standard_base@_WV?$stream_output_adapter@_W@__crt_stdio_output@@@2@@__crt_stdio_output@@AAEXI@Z 10062b90 f i libucrtd:output.obj
 0001:00061bb0       ?unset_flag@?$output_processor@_WV?$string_output_adapter@_W@__crt_stdio_output@@V?$format_validation_base@_WV?$string_output_adapter@_W@__crt_stdio_output@@@2@@__crt_stdio_output@@AAEXI@Z 10062bb0 f i libucrtd:output.obj
 0001:00061bd0       ?unset_flag@?$output_processor@_WV?$string_output_adapter@_W@__crt_stdio_output@@V?$positional_parameter_base@_WV?$string_output_adapter@_W@__crt_stdio_output@@@2@@__crt_stdio_output@@AAEXI@Z 10062bd0 f i libucrtd:output.obj
 0001:00061bf0       ?unset_flag@?$output_processor@_WV?$string_output_adapter@_W@__crt_stdio_output@@V?$standard_base@_WV?$string_output_adapter@_W@__crt_stdio_output@@@2@@__crt_stdio_output@@AAEXI@Z 10062bf0 f i libucrtd:output.obj
 0001:00061c10       ?update_field_width@?$positional_parameter_base@DV?$stream_output_adapter@D@__crt_stdio_output@@@__crt_stdio_output@@IAE_NXZ 10062c10 f i libucrtd:output.obj
 0001:00061d90       ?update_field_width@?$positional_parameter_base@DV?$string_output_adapter@D@__crt_stdio_output@@@__crt_stdio_output@@IAE_NXZ 10062d90 f i libucrtd:output.obj
 0001:00061f10       ?update_field_width@?$positional_parameter_base@_WV?$stream_output_adapter@_W@__crt_stdio_output@@@__crt_stdio_output@@IAE_NXZ 10062f10 f i libucrtd:output.obj
 0001:00062090       ?update_field_width@?$positional_parameter_base@_WV?$string_output_adapter@_W@__crt_stdio_output@@@__crt_stdio_output@@IAE_NXZ 10063090 f i libucrtd:output.obj
 0001:00062210       ?update_field_width@?$standard_base@DV?$stream_output_adapter@D@__crt_stdio_output@@@__crt_stdio_output@@IAE_NXZ 10063210 f i libucrtd:output.obj
 0001:00062240       ?update_field_width@?$standard_base@DV?$string_output_adapter@D@__crt_stdio_output@@@__crt_stdio_output@@IAE_NXZ 10063240 f i libucrtd:output.obj
 0001:00062270       ?update_field_width@?$standard_base@_WV?$stream_output_adapter@_W@__crt_stdio_output@@@__crt_stdio_output@@IAE_NXZ 10063270 f i libucrtd:output.obj
 0001:000622a0       ?update_field_width@?$standard_base@_WV?$string_output_adapter@_W@__crt_stdio_output@@@__crt_stdio_output@@IAE_NXZ 100632a0 f i libucrtd:output.obj
 0001:000622d0       ?update_precision@?$positional_parameter_base@DV?$stream_output_adapter@D@__crt_stdio_output@@@__crt_stdio_output@@IAE_NXZ 100632d0 f i libucrtd:output.obj
 0001:00062450       ?update_precision@?$positional_parameter_base@DV?$string_output_adapter@D@__crt_stdio_output@@@__crt_stdio_output@@IAE_NXZ 10063450 f i libucrtd:output.obj
 0001:000625d0       ?update_precision@?$positional_parameter_base@_WV?$stream_output_adapter@_W@__crt_stdio_output@@@__crt_stdio_output@@IAE_NXZ 100635d0 f i libucrtd:output.obj
 0001:00062750       ?update_precision@?$positional_parameter_base@_WV?$string_output_adapter@_W@__crt_stdio_output@@@__crt_stdio_output@@IAE_NXZ 10063750 f i libucrtd:output.obj
 0001:000628d0       ?update_precision@?$standard_base@DV?$stream_output_adapter@D@__crt_stdio_output@@@__crt_stdio_output@@IAE_NXZ 100638d0 f i libucrtd:output.obj
 0001:00062900       ?update_precision@?$standard_base@DV?$string_output_adapter@D@__crt_stdio_output@@@__crt_stdio_output@@IAE_NXZ 10063900 f i libucrtd:output.obj
 0001:00062930       ?update_precision@?$standard_base@_WV?$stream_output_adapter@_W@__crt_stdio_output@@@__crt_stdio_output@@IAE_NXZ 10063930 f i libucrtd:output.obj
 0001:00062960       ?update_precision@?$standard_base@_WV?$string_output_adapter@_W@__crt_stdio_output@@@__crt_stdio_output@@IAE_NXZ 10063960 f i libucrtd:output.obj
 0001:00062990       ?valid@__crt_stdio_stream@@QBE_NXZ 10063990 f i libucrtd:output.obj
 0001:000629c0       ?validate@?$stream_output_adapter@D@__crt_stdio_output@@QBE_NXZ 100639c0 f i libucrtd:output.obj
 0001:00062a60       ?validate@?$stream_output_adapter@_W@__crt_stdio_output@@QBE_NXZ 10063a60 f i libucrtd:output.obj
 0001:00062b00       ?validate@?$string_output_adapter@D@__crt_stdio_output@@QBE_NXZ 10063b00 f i libucrtd:output.obj
 0001:00062b90       ?validate@?$string_output_adapter@_W@__crt_stdio_output@@QBE_NXZ 10063b90 f i libucrtd:output.obj
 0001:00062c20       ?validate_and_store_parameter_data@?$positional_parameter_base@DV?$stream_output_adapter@D@__crt_stdio_output@@@__crt_stdio_output@@AAE_NAAUparameter_data@12@W4parameter_type@12@DW4length_modifier@2@@Z 10063c20 f i libucrtd:output.obj
 0001:00062cf0       ?validate_and_store_parameter_data@?$positional_parameter_base@DV?$string_output_adapter@D@__crt_stdio_output@@@__crt_stdio_output@@AAE_NAAUparameter_data@12@W4parameter_type@12@DW4length_modifier@2@@Z 10063cf0 f i libucrtd:output.obj
 0001:00062dc0       ?validate_and_store_parameter_data@?$positional_parameter_base@_WV?$stream_output_adapter@_W@__crt_stdio_output@@@__crt_stdio_output@@AAE_NAAUparameter_data@12@W4parameter_type@12@_WW4length_modifier@2@@Z 10063dc0 f i libucrtd:output.obj
 0001:00062ea0       ?validate_and_store_parameter_data@?$positional_parameter_base@_WV?$string_output_adapter@_W@__crt_stdio_output@@@__crt_stdio_output@@AAE_NAAUparameter_data@12@W4parameter_type@12@_WW4length_modifier@2@@Z 10063ea0 f i libucrtd:output.obj
 0001:00062f80       ?validate_and_update_state_at_beginning_of_format_character@?$positional_parameter_base@DV?$stream_output_adapter@D@__crt_stdio_output@@@__crt_stdio_output@@IAE_NXZ 10063f80 f i libucrtd:output.obj
 0001:000631a0       ?validate_and_update_state_at_beginning_of_format_character@?$positional_parameter_base@DV?$string_output_adapter@D@__crt_stdio_output@@@__crt_stdio_output@@IAE_NXZ 100641a0 f i libucrtd:output.obj
 0001:000633c0       ?validate_and_update_state_at_beginning_of_format_character@?$positional_parameter_base@_WV?$stream_output_adapter@_W@__crt_stdio_output@@@__crt_stdio_output@@IAE_NXZ 100643c0 f i libucrtd:output.obj
 0001:000635e0       ?validate_and_update_state_at_beginning_of_format_character@?$positional_parameter_base@_WV?$string_output_adapter@_W@__crt_stdio_output@@@__crt_stdio_output@@IAE_NXZ 100645e0 f i libucrtd:output.obj
 0001:00063800       ?validate_and_update_state_at_beginning_of_format_character@?$standard_base@DV?$stream_output_adapter@D@__crt_stdio_output@@@__crt_stdio_output@@IAE_NXZ 10064800 f i libucrtd:output.obj
 0001:00063810       ?validate_and_update_state_at_beginning_of_format_character@?$standard_base@DV?$string_output_adapter@D@__crt_stdio_output@@@__crt_stdio_output@@IAE_NXZ 10064810 f i libucrtd:output.obj
 0001:00063820       ?validate_and_update_state_at_beginning_of_format_character@?$standard_base@_WV?$stream_output_adapter@_W@__crt_stdio_output@@@__crt_stdio_output@@IAE_NXZ 10064820 f i libucrtd:output.obj
 0001:00063830       ?validate_and_update_state_at_beginning_of_format_character@?$standard_base@_WV?$string_output_adapter@_W@__crt_stdio_output@@@__crt_stdio_output@@IAE_NXZ 10064830 f i libucrtd:output.obj
 0001:00063840       ?validate_and_update_state_at_end_of_format_string@?$format_validation_base@DV?$stream_output_adapter@D@__crt_stdio_output@@@__crt_stdio_output@@IBE_NXZ 10064840 f i libucrtd:output.obj
 0001:000638e0       ?validate_and_update_state_at_end_of_format_string@?$format_validation_base@DV?$string_output_adapter@D@__crt_stdio_output@@@__crt_stdio_output@@IBE_NXZ 100648e0 f i libucrtd:output.obj
 0001:00063980       ?validate_and_update_state_at_end_of_format_string@?$format_validation_base@_WV?$stream_output_adapter@_W@__crt_stdio_output@@@__crt_stdio_output@@IBE_NXZ 10064980 f i libucrtd:output.obj
 0001:00063a20       ?validate_and_update_state_at_end_of_format_string@?$format_validation_base@_WV?$string_output_adapter@_W@__crt_stdio_output@@@__crt_stdio_output@@IBE_NXZ 10064a20 f i libucrtd:output.obj
 0001:00063ac0       ?validate_and_update_state_at_end_of_format_string@?$positional_parameter_base@DV?$stream_output_adapter@D@__crt_stdio_output@@@__crt_stdio_output@@IAE_NXZ 10064ac0 f i libucrtd:output.obj
 0001:00063c60       ?validate_and_update_state_at_end_of_format_string@?$positional_parameter_base@DV?$string_output_adapter@D@__crt_stdio_output@@@__crt_stdio_output@@IAE_NXZ 10064c60 f i libucrtd:output.obj
 0001:00063e00       ?validate_and_update_state_at_end_of_format_string@?$positional_parameter_base@_WV?$stream_output_adapter@_W@__crt_stdio_output@@@__crt_stdio_output@@IAE_NXZ 10064e00 f i libucrtd:output.obj
 0001:00063fa0       ?validate_and_update_state_at_end_of_format_string@?$positional_parameter_base@_WV?$string_output_adapter@_W@__crt_stdio_output@@@__crt_stdio_output@@IAE_NXZ 10064fa0 f i libucrtd:output.obj
 0001:00064140       ?validate_and_update_state_at_end_of_format_string@?$standard_base@DV?$stream_output_adapter@D@__crt_stdio_output@@@__crt_stdio_output@@IBE_NXZ 10065140 f i libucrtd:output.obj
 0001:00064150       ?validate_and_update_state_at_end_of_format_string@?$standard_base@DV?$string_output_adapter@D@__crt_stdio_output@@@__crt_stdio_output@@IBE_NXZ 10065150 f i libucrtd:output.obj
 0001:00064160       ?validate_and_update_state_at_end_of_format_string@?$standard_base@_WV?$stream_output_adapter@_W@__crt_stdio_output@@@__crt_stdio_output@@IBE_NXZ 10065160 f i libucrtd:output.obj
 0001:00064170       ?validate_and_update_state_at_end_of_format_string@?$standard_base@_WV?$string_output_adapter@_W@__crt_stdio_output@@@__crt_stdio_output@@IBE_NXZ 10065170 f i libucrtd:output.obj
 0001:00064180       ?validate_state_for_type_case_a@?$positional_parameter_base@DV?$stream_output_adapter@D@__crt_stdio_output@@@__crt_stdio_output@@IAE_NXZ 10065180 f i libucrtd:output.obj
 0001:00064270       ?validate_state_for_type_case_a@?$positional_parameter_base@DV?$string_output_adapter@D@__crt_stdio_output@@@__crt_stdio_output@@IAE_NXZ 10065270 f i libucrtd:output.obj
 0001:00064360       ?validate_state_for_type_case_a@?$positional_parameter_base@_WV?$stream_output_adapter@_W@__crt_stdio_output@@@__crt_stdio_output@@IAE_NXZ 10065360 f i libucrtd:output.obj
 0001:00064450       ?validate_state_for_type_case_a@?$positional_parameter_base@_WV?$string_output_adapter@_W@__crt_stdio_output@@@__crt_stdio_output@@IAE_NXZ 10065450 f i libucrtd:output.obj
 0001:00064540       ?validate_state_for_type_case_a@?$standard_base@DV?$stream_output_adapter@D@__crt_stdio_output@@@__crt_stdio_output@@IBE_NXZ 10065540 f i libucrtd:output.obj
 0001:00064550       ?validate_state_for_type_case_a@?$standard_base@DV?$string_output_adapter@D@__crt_stdio_output@@@__crt_stdio_output@@IBE_NXZ 10065550 f i libucrtd:output.obj
 0001:00064560       ?validate_state_for_type_case_a@?$standard_base@_WV?$stream_output_adapter@_W@__crt_stdio_output@@@__crt_stdio_output@@IBE_NXZ 10065560 f i libucrtd:output.obj
 0001:00064570       ?validate_state_for_type_case_a@?$standard_base@_WV?$string_output_adapter@_W@__crt_stdio_output@@@__crt_stdio_output@@IBE_NXZ 10065570 f i libucrtd:output.obj
 0001:00064580       ?validate_stream_is_ansi_if_required@?$__acrt_stdio_char_traits@D@@SA_NQAU_iobuf@@@Z 10065580 f i libucrtd:output.obj
 0001:000646b0       ?validate_stream_is_ansi_if_required@?$__acrt_stdio_char_traits@_W@@SA_NQAU_iobuf@@@Z 100656b0 f i libucrtd:output.obj
 0001:000646c0       ?wide_null_string@?$output_processor@DV?$stream_output_adapter@D@__crt_stdio_output@@V?$format_validation_base@DV?$stream_output_adapter@D@__crt_stdio_output@@@2@@__crt_stdio_output@@CAPA_WXZ 100656c0 f i libucrtd:output.obj
 0001:000646d0       ?wide_null_string@?$output_processor@DV?$stream_output_adapter@D@__crt_stdio_output@@V?$positional_parameter_base@DV?$stream_output_adapter@D@__crt_stdio_output@@@2@@__crt_stdio_output@@CAPA_WXZ 100656d0 f i libucrtd:output.obj
 0001:000646e0       ?wide_null_string@?$output_processor@DV?$stream_output_adapter@D@__crt_stdio_output@@V?$standard_base@DV?$stream_output_adapter@D@__crt_stdio_output@@@2@@__crt_stdio_output@@CAPA_WXZ 100656e0 f i libucrtd:output.obj
 0001:000646f0       ?wide_null_string@?$output_processor@DV?$string_output_adapter@D@__crt_stdio_output@@V?$format_validation_base@DV?$string_output_adapter@D@__crt_stdio_output@@@2@@__crt_stdio_output@@CAPA_WXZ 100656f0 f i libucrtd:output.obj
 0001:00064700       ?wide_null_string@?$output_processor@DV?$string_output_adapter@D@__crt_stdio_output@@V?$positional_parameter_base@DV?$string_output_adapter@D@__crt_stdio_output@@@2@@__crt_stdio_output@@CAPA_WXZ 10065700 f i libucrtd:output.obj
 0001:00064710       ?wide_null_string@?$output_processor@DV?$string_output_adapter@D@__crt_stdio_output@@V?$standard_base@DV?$string_output_adapter@D@__crt_stdio_output@@@2@@__crt_stdio_output@@CAPA_WXZ 10065710 f i libucrtd:output.obj
 0001:00064720       ?wide_null_string@?$output_processor@_WV?$stream_output_adapter@_W@__crt_stdio_output@@V?$format_validation_base@_WV?$stream_output_adapter@_W@__crt_stdio_output@@@2@@__crt_stdio_output@@CAPA_WXZ 10065720 f i libucrtd:output.obj
 0001:00064730       ?wide_null_string@?$output_processor@_WV?$stream_output_adapter@_W@__crt_stdio_output@@V?$positional_parameter_base@_WV?$stream_output_adapter@_W@__crt_stdio_output@@@2@@__crt_stdio_output@@CAPA_WXZ 10065730 f i libucrtd:output.obj
 0001:00064740       ?wide_null_string@?$output_processor@_WV?$stream_output_adapter@_W@__crt_stdio_output@@V?$standard_base@_WV?$stream_output_adapter@_W@__crt_stdio_output@@@2@@__crt_stdio_output@@CAPA_WXZ 10065740 f i libucrtd:output.obj
 0001:00064750       ?wide_null_string@?$output_processor@_WV?$string_output_adapter@_W@__crt_stdio_output@@V?$format_validation_base@_WV?$string_output_adapter@_W@__crt_stdio_output@@@2@@__crt_stdio_output@@CAPA_WXZ 10065750 f i libucrtd:output.obj
 0001:00064760       ?wide_null_string@?$output_processor@_WV?$string_output_adapter@_W@__crt_stdio_output@@V?$positional_parameter_base@_WV?$string_output_adapter@_W@__crt_stdio_output@@@2@@__crt_stdio_output@@CAPA_WXZ 10065760 f i libucrtd:output.obj
 0001:00064770       ?wide_null_string@?$output_processor@_WV?$string_output_adapter@_W@__crt_stdio_output@@V?$standard_base@_WV?$string_output_adapter@_W@__crt_stdio_output@@@2@@__crt_stdio_output@@CAPA_WXZ 10065770 f i libucrtd:output.obj
 0001:00064780       ?write_character@?$stream_output_adapter@D@__crt_stdio_output@@QBEXDQAH@Z 10065780 f i libucrtd:output.obj
 0001:00064800       ?write_character@?$stream_output_adapter@_W@__crt_stdio_output@@QBEX_WQAH@Z 10065800 f i libucrtd:output.obj
 0001:00064880       ?write_character@?$string_output_adapter@D@__crt_stdio_output@@QBE_NDQAH@Z 10065880 f i libucrtd:output.obj
 0001:00064910       ?write_character@?$string_output_adapter@_W@__crt_stdio_output@@QBE_N_WQAH@Z 10065910 f i libucrtd:output.obj
 0001:000649b0       ?write_stored_string_tchar@?$output_processor@DV?$stream_output_adapter@D@__crt_stdio_output@@V?$format_validation_base@DV?$stream_output_adapter@D@__crt_stdio_output@@@2@@__crt_stdio_output@@AAE_ND@Z 100659b0 f i libucrtd:output.obj
 0001:00064ac0       ?write_stored_string_tchar@?$output_processor@DV?$stream_output_adapter@D@__crt_stdio_output@@V?$positional_parameter_base@DV?$stream_output_adapter@D@__crt_stdio_output@@@2@@__crt_stdio_output@@AAE_ND@Z 10065ac0 f i libucrtd:output.obj
 0001:00064bd0       ?write_stored_string_tchar@?$output_processor@DV?$stream_output_adapter@D@__crt_stdio_output@@V?$standard_base@DV?$stream_output_adapter@D@__crt_stdio_output@@@2@@__crt_stdio_output@@AAE_ND@Z 10065bd0 f i libucrtd:output.obj
 0001:00064ce0       ?write_stored_string_tchar@?$output_processor@DV?$string_output_adapter@D@__crt_stdio_output@@V?$format_validation_base@DV?$string_output_adapter@D@__crt_stdio_output@@@2@@__crt_stdio_output@@AAE_ND@Z 10065ce0 f i libucrtd:output.obj
 0001:00064df0       ?write_stored_string_tchar@?$output_processor@DV?$string_output_adapter@D@__crt_stdio_output@@V?$positional_parameter_base@DV?$string_output_adapter@D@__crt_stdio_output@@@2@@__crt_stdio_output@@AAE_ND@Z 10065df0 f i libucrtd:output.obj
 0001:00064f00       ?write_stored_string_tchar@?$output_processor@DV?$string_output_adapter@D@__crt_stdio_output@@V?$standard_base@DV?$string_output_adapter@D@__crt_stdio_output@@@2@@__crt_stdio_output@@AAE_ND@Z 10065f00 f i libucrtd:output.obj
 0001:00065010       ?write_stored_string_tchar@?$output_processor@_WV?$stream_output_adapter@_W@__crt_stdio_output@@V?$format_validation_base@_WV?$stream_output_adapter@_W@__crt_stdio_output@@@2@@__crt_stdio_output@@AAE_N_W@Z 10066010 f i libucrtd:output.obj
 0001:00065100       ?write_stored_string_tchar@?$output_processor@_WV?$stream_output_adapter@_W@__crt_stdio_output@@V?$positional_parameter_base@_WV?$stream_output_adapter@_W@__crt_stdio_output@@@2@@__crt_stdio_output@@AAE_N_W@Z 10066100 f i libucrtd:output.obj
 0001:000651f0       ?write_stored_string_tchar@?$output_processor@_WV?$stream_output_adapter@_W@__crt_stdio_output@@V?$standard_base@_WV?$stream_output_adapter@_W@__crt_stdio_output@@@2@@__crt_stdio_output@@AAE_N_W@Z 100661f0 f i libucrtd:output.obj
 0001:000652e0       ?write_stored_string_tchar@?$output_processor@_WV?$string_output_adapter@_W@__crt_stdio_output@@V?$format_validation_base@_WV?$string_output_adapter@_W@__crt_stdio_output@@@2@@__crt_stdio_output@@AAE_N_W@Z 100662e0 f i libucrtd:output.obj
 0001:000653d0       ?write_stored_string_tchar@?$output_processor@_WV?$string_output_adapter@_W@__crt_stdio_output@@V?$positional_parameter_base@_WV?$string_output_adapter@_W@__crt_stdio_output@@@2@@__crt_stdio_output@@AAE_N_W@Z 100663d0 f i libucrtd:output.obj
 0001:000654c0       ?write_stored_string_tchar@?$output_processor@_WV?$string_output_adapter@_W@__crt_stdio_output@@V?$standard_base@_WV?$string_output_adapter@_W@__crt_stdio_output@@@2@@__crt_stdio_output@@AAE_N_W@Z 100664c0 f i libucrtd:output.obj
 0001:000655b0       ?write_string@?$stream_output_adapter@D@__crt_stdio_output@@QBEXQBDHQAH1@Z 100665b0 f i libucrtd:output.obj
 0001:00065660       ?write_string@?$stream_output_adapter@_W@__crt_stdio_output@@QBEXQB_WHQAH1@Z 10066660 f i libucrtd:output.obj
 0001:00065720       ?write_string@?$string_output_adapter@D@__crt_stdio_output@@QBEXQBDHQAH1@Z 10066720 f i libucrtd:output.obj
 0001:00065830       ?write_string@?$string_output_adapter@_W@__crt_stdio_output@@QBEXQB_WHQAH1@Z 10066830 f i libucrtd:output.obj
 0001:00065950       ___acrt_isleadbyte_l_noupdate 10066950 f i libucrtd:output.obj
 0001:00065970       ___acrt_locale_changed     10066970 f i libucrtd:output.obj
 0001:000659a0       ___stdio_common_vfprintf   100669a0 f   libucrtd:output.obj
 0001:000659d0       ___stdio_common_vfprintf_p 100669d0 f   libucrtd:output.obj
 0001:00065a00       ___stdio_common_vfprintf_s 10066a00 f   libucrtd:output.obj
 0001:00065a30       ___stdio_common_vfwprintf  10066a30 f   libucrtd:output.obj
 0001:00065a60       ___stdio_common_vfwprintf_p 10066a60 f   libucrtd:output.obj
 0001:00065a90       ___stdio_common_vfwprintf_s 10066a90 f   libucrtd:output.obj
 0001:00065ac0       ___stdio_common_vsnprintf_s 10066ac0 f   libucrtd:output.obj
 0001:00065af0       ___stdio_common_vsnwprintf_s 10066af0 f   libucrtd:output.obj
 0001:00065b20       ___stdio_common_vsprintf   10066b20 f   libucrtd:output.obj
 0001:00065b50       ___stdio_common_vsprintf_p 10066b50 f   libucrtd:output.obj
 0001:00065b80       ___stdio_common_vsprintf_s 10066b80 f   libucrtd:output.obj
 0001:00065bb0       ___stdio_common_vswprintf  10066bb0 f   libucrtd:output.obj
 0001:00065be0       ___stdio_common_vswprintf_p 10066be0 f   libucrtd:output.obj
 0001:00065c10       ___stdio_common_vswprintf_s 10066c10 f   libucrtd:output.obj
 0001:00065c40       _free                      10066c40 f   libucrtd:free.obj
 0001:00065c60       _malloc                    10066c60 f   libucrtd:malloc.obj
 0001:00065c80       ??$?RU?$__crt_report_hook_node@D@@@__crt_internal_free_policy@@QBEXQBU?$__crt_report_hook_node@D@@@Z 10066c80 f i libucrtd:dbgrpt.obj
 0001:00065ca0       ??$?RU?$__crt_report_hook_node@_W@@@__crt_internal_free_policy@@QBEXQBU?$__crt_report_hook_node@_W@@@Z 10066ca0 f i libucrtd:dbgrpt.obj
 0001:00065cc0       ??$?RV<lambda_4385efabcfedf7d3ecea3114bb4d80a3>@@AAV<lambda_0e04737ef8baea6dabca2b8414b05b67>@@V<lambda_d865d276f220a9fa71140df531e906d8>@@@?$__crt_seh_guarded_call@H@@QAEH$$QAV<lambda_4385efabcfedf7d3ecea3114bb4d80a3>@@AAV<lambda_0e04737ef8baea6dabca2b8414b05b67>@@$$QAV<lambda_d865d276f220a9fa71140df531e906d8>@@@Z 10066cc0 f i libucrtd:dbgrpt.obj
 0001:00065d50       ??$?RV<lambda_cc3a1c0f52e01ba2b29fe175588291fc>@@AAV<lambda_fe667bea668416e0f0232b481cd5c955>@@V<lambda_bb8fdd70844b93de4445abd0f0332611>@@@?$__crt_seh_guarded_call@H@@QAEH$$QAV<lambda_cc3a1c0f52e01ba2b29fe175588291fc>@@AAV<lambda_fe667bea668416e0f0232b481cd5c955>@@$$QAV<lambda_bb8fdd70844b93de4445abd0f0332611>@@@Z 10066d50 f i libucrtd:dbgrpt.obj
 0001:00065de0       ??$__acrt_lock_and_call@V<lambda_0e04737ef8baea6dabca2b8414b05b67>@@@@YAHW4__acrt_lock_id@@$$QAV<lambda_0e04737ef8baea6dabca2b8414b05b67>@@@Z 10066de0 f i libucrtd:dbgrpt.obj
 0001:00065e20       ??$__acrt_lock_and_call@V<lambda_fe667bea668416e0f0232b481cd5c955>@@@@YAHW4__acrt_lock_id@@$$QAV<lambda_fe667bea668416e0f0232b481cd5c955>@@@Z 10066e20 f i libucrtd:dbgrpt.obj
 0001:00065e60       ??$__vcrt_va_start_verify_argument_type@QBD@@YAXXZ 10066e60 f i libucrtd:dbgrpt.obj
 0001:00065e70       ??$__vcrt_va_start_verify_argument_type@QB_W@@YAXXZ 10066e70 f i libucrtd:dbgrpt.obj
 0001:00066a70       ??$get_module_file_name@AAPAUHINSTANCE__@@AAY0BAF@DK@?$__crt_char_traits@D@@SAKAAPAUHINSTANCE__@@AAY0BAF@D$$QAK@Z 10067a70 f i libucrtd:dbgrpt.obj
 0001:00066a90       ??$get_module_file_name@AAPAUHINSTANCE__@@AAY0BAF@_WK@?$__crt_char_traits@_W@@SAKAAPAUHINSTANCE__@@AAY0BAF@_W$$QAK@Z 10067a90 f i libucrtd:dbgrpt.obj
 0001:00066ab0       ??$tcscpy_s@AAY0BAF@DIPBD@?$__crt_char_traits@D@@SAHAAY0BAF@D$$QAI$$QAPBD@Z 10067ab0 f i libucrtd:dbgrpt.obj
 0001:00066ad0       ??$tcscpy_s@AAY0BAF@_WIPB_W@?$__crt_char_traits@_W@@SAHAAY0BAF@_W$$QAI$$QAPB_W@Z 10067ad0 f i libucrtd:dbgrpt.obj
 0001:00066af0       ??$tcslen@AAY0BAF@D@?$__crt_char_traits@D@@SAIAAY0BAF@D@Z 10067af0 f i libucrtd:dbgrpt.obj
 0001:00066b10       ??$tcslen@AAY0BAF@_W@?$__crt_char_traits@_W@@SAIAAY0BAF@_W@Z 10067b10 f i libucrtd:dbgrpt.obj
 0001:00066b30       ??$tcslen@ABQBD@?$__crt_char_traits@D@@SAIABQBD@Z 10067b30 f i libucrtd:dbgrpt.obj
 0001:00066b50       ??$tcslen@ABQB_W@?$__crt_char_traits@_W@@SAIABQB_W@Z 10067b50 f i libucrtd:dbgrpt.obj
 0001:00066c50       ??0?$__crt_unique_heap_ptr@U?$__crt_report_hook_node@D@@U__crt_internal_free_policy@@@@QAE@QAU?$__crt_report_hook_node@D@@@Z 10067c50 f i libucrtd:dbgrpt.obj
 0001:00066c70       ??0?$__crt_unique_heap_ptr@U?$__crt_report_hook_node@_W@@U__crt_internal_free_policy@@@@QAE@QAU?$__crt_report_hook_node@_W@@@Z 10067c70 f i libucrtd:dbgrpt.obj
 0001:00066c90       ??1?$__crt_unique_heap_ptr@U?$__crt_report_hook_node@D@@U__crt_internal_free_policy@@@@QAE@XZ 10067c90 f i libucrtd:dbgrpt.obj
 0001:00066cb0       ??1?$__crt_unique_heap_ptr@U?$__crt_report_hook_node@_W@@U__crt_internal_free_policy@@@@QAE@XZ 10067cb0 f i libucrtd:dbgrpt.obj
 0001:00066cd0       ??B?$__crt_unique_heap_ptr@U?$__crt_report_hook_node@D@@U__crt_internal_free_policy@@@@QBE_NXZ 10067cd0 f i libucrtd:dbgrpt.obj
 0001:00066cf0       ??B?$__crt_unique_heap_ptr@U?$__crt_report_hook_node@_W@@U__crt_internal_free_policy@@@@QBE_NXZ 10067cf0 f i libucrtd:dbgrpt.obj
 0001:00067230       ?detach@?$__crt_unique_heap_ptr@U?$__crt_report_hook_node@D@@U__crt_internal_free_policy@@@@QAEPAU?$__crt_report_hook_node@D@@XZ 10068230 f i libucrtd:dbgrpt.obj
 0001:00067260       ?detach@?$__crt_unique_heap_ptr@U?$__crt_report_hook_node@_W@@U__crt_internal_free_policy@@@@QAEPAU?$__crt_report_hook_node@_W@@XZ 10068260 f i libucrtd:dbgrpt.obj
 0001:00067290       ?get@?$__crt_unique_heap_ptr@U?$__crt_report_hook_node@D@@U__crt_internal_free_policy@@@@QBEPAU?$__crt_report_hook_node@D@@XZ 10068290 f i libucrtd:dbgrpt.obj
 0001:000672b0       ?get@?$__crt_unique_heap_ptr@U?$__crt_report_hook_node@_W@@U__crt_internal_free_policy@@@@QBEPAU?$__crt_report_hook_node@_W@@XZ 100682b0 f i libucrtd:dbgrpt.obj
 0001:00067330       ?is_valid@?$__crt_unique_heap_ptr@U?$__crt_report_hook_node@D@@U__crt_internal_free_policy@@@@QBE_NXZ 10068330 f i libucrtd:dbgrpt.obj
 0001:00067360       ?is_valid@?$__crt_unique_heap_ptr@U?$__crt_report_hook_node@_W@@U__crt_internal_free_policy@@@@QBE_NXZ 10068360 f i libucrtd:dbgrpt.obj
 0001:00067390       ?release@?$__crt_unique_heap_ptr@U?$__crt_report_hook_node@D@@U__crt_internal_free_policy@@@@QAEXXZ 10068390 f i libucrtd:dbgrpt.obj
 0001:000673c0       ?release@?$__crt_unique_heap_ptr@U?$__crt_report_hook_node@_W@@U__crt_internal_free_policy@@@@QAEXXZ 100683c0 f i libucrtd:dbgrpt.obj
 0001:000673f0       __CrtDbgReport             100683f0 f   libucrtd:dbgrpt.obj
 0001:00067440       __CrtDbgReportW            10068440 f   libucrtd:dbgrpt.obj
 0001:00067490       __CrtSetReportHook2        10068490 f   libucrtd:dbgrpt.obj
 0001:000674b0       __CrtSetReportHookW2       100684b0 f   libucrtd:dbgrpt.obj
 0001:000674d0       ___acrt_MessageWindowA     100684d0 f   libucrtd:dbgrpt.obj
 0001:00067500       ___acrt_MessageWindowW     10068500 f   libucrtd:dbgrpt.obj
 0001:00067530       __invoke_watson_if_error   10068530 f i libucrtd:dbgrpt.obj
 0001:00067560       __invoke_watson_if_oneof   10068560 f i libucrtd:dbgrpt.obj
 0001:000675a0       __snwprintf_s              100685a0 f i libucrtd:dbgrpt.obj
 0001:000675f0       __vsnwprintf_s_l           100685f0 f i libucrtd:dbgrpt.obj
 0001:00067970       _wcscpy_s                  10068970 f   libucrtd:wcscpy_s.obj
 0001:00067990       _wcslen                    10068990 f   libucrtd:wcslen.obj
 0001:000679d0       ??$__crt_fast_decode_pointer@P6AXPB_W00II@Z@@YAP6AXPB_W00II@ZQ6AX000II@Z@Z 100689d0 f i libucrtd:invalid_parameter.obj
 0001:00067a00       ??$__crt_fast_encode_pointer@P6AXPB_W00II@Z@@YAP6AXPB_W00II@ZQ6AX000II@Z@Z 10068a00 f i libucrtd:invalid_parameter.obj
 0001:00067a30       ?get_current_state_index@__crt_state_management@@YAIXZ 10068a30 f i libucrtd:invalid_parameter.obj
 0001:00067a40       ?initialize@?$dual_state_global@P6AXPB_W00II@Z@__crt_state_management@@QAEXQ6AXPB_W00II@Z@Z 10068a40 f i libucrtd:invalid_parameter.obj
 0001:00067a80       ?value@?$dual_state_global@P6AXPB_W00II@Z@__crt_state_management@@QAEAAP6AXPB_W00II@ZXZ 10068a80 f i libucrtd:invalid_parameter.obj
 0001:00067aa0       ___acrt_call_reportfault   10068aa0 f   libucrtd:invalid_parameter.obj
 0001:00067c00       ___acrt_initialize_invalid_parameter_handler 10068c00 f   libucrtd:invalid_parameter.obj
 0001:00067c20       __get_invalid_parameter_handler 10068c20 f   libucrtd:invalid_parameter.obj
 0001:00067c40       __get_thread_local_invalid_parameter_handler 10068c40 f   libucrtd:invalid_parameter.obj
 0001:00067c70       __invalid_parameter        10068c70 f   libucrtd:invalid_parameter.obj
 0001:00067d40       __invalid_parameter_noinfo 10068d40 f   libucrtd:invalid_parameter.obj
 0001:00067d60       __invalid_parameter_noinfo_noreturn 10068d60 f   libucrtd:invalid_parameter.obj
 0001:00067d90       __invoke_watson            10068d90 f   libucrtd:invalid_parameter.obj
 0001:00067dd0       __set_invalid_parameter_handler 10068dd0 f   libucrtd:invalid_parameter.obj
 0001:00067e20       __set_thread_local_invalid_parameter_handler 10068e20 f   libucrtd:invalid_parameter.obj
 0001:00067e50       ___acrt_errno_from_os_error 10068e50 f   libucrtd:errno.obj
 0001:00067ed0       ___acrt_errno_map_os_error 10068ed0 f   libucrtd:errno.obj
 0001:00067f00       ___doserrno                10068f00 f   libucrtd:errno.obj
 0001:00067f30       __errno                    10068f30 f   libucrtd:errno.obj
 0001:00067f60       __get_doserrno             10068f60 f   libucrtd:errno.obj
 0001:00067ff0       __get_errno                10068ff0 f   libucrtd:errno.obj
 0001:00068080       __set_doserrno             10069080 f   libucrtd:errno.obj
 0001:000680b0       __set_errno                100690b0 f   libucrtd:errno.obj
 0001:000680e0       _calloc                    100690e0 f   libucrtd:calloc.obj
 0001:00068100       __recalloc                 10069100 f   libucrtd:recalloc.obj
 0001:00068130       __recalloc_base            10069130 f   libucrtd:recalloc.obj
 0001:000681ca       __resetstkoflw             100691ca f   libucrtd:resetstk.obj
 0001:000686c0       _wcscat_s                  100696c0 f   libucrtd:wcscat_s.obj
 0001:00068b10       _wcsncpy_s                 10069b10 f   libucrtd:wcsncpy_s.obj
 0001:00068b50       ___acrt_get_locale_data_prefix 10069b50 f i libucrtd:_ctype.obj
 0001:00068b70       ___isascii                 10069b70 f i libucrtd:_ctype.obj
 0001:00068ba0       ___iscsym                  10069ba0 f i libucrtd:_ctype.obj
 0001:00068be0       ___iscsymf                 10069be0 f i libucrtd:_ctype.obj
 0001:00068c20       ___toascii                 10069c20 f i libucrtd:_ctype.obj
 0001:00068c30       __chvalidchk_l             10069c30 f i libucrtd:_ctype.obj
 0001:00068c50       __isalnum_l                10069c50 f i libucrtd:_ctype.obj
 0001:00068c90       __isalpha_l                10069c90 f i libucrtd:_ctype.obj
 0001:00068cd0       __isblank_l                10069cd0 f i libucrtd:_ctype.obj
 0001:00068d30       __ischartype_l             10069d30 f i libucrtd:_ctype.obj
 0001:00068d80       __iscntrl_l                10069d80 f i libucrtd:_ctype.obj
 0001:00068dc0       __iscsym_l                 10069dc0 f i libucrtd:_ctype.obj
 0001:00068e00       __iscsymf_l                10069e00 f i libucrtd:_ctype.obj
 0001:00068e40       __isdigit_l                10069e40 f i libucrtd:_ctype.obj
 0001:00068e80       __isgraph_l                10069e80 f i libucrtd:_ctype.obj
 0001:00068ec0       __islower_l                10069ec0 f i libucrtd:_ctype.obj
 0001:00068f00       __isprint_l                10069f00 f i libucrtd:_ctype.obj
 0001:00068f40       __ispunct_l                10069f40 f i libucrtd:_ctype.obj
 0001:00068f80       __isspace_l                10069f80 f i libucrtd:_ctype.obj
 0001:00068fc0       __isupper_l                10069fc0 f i libucrtd:_ctype.obj
 0001:00069000       __isxdigit_l               1006a000 f i libucrtd:_ctype.obj
 0001:00069040       _isalnum                   1006a040 f i libucrtd:_ctype.obj
 0001:00069080       _isalpha                   1006a080 f i libucrtd:_ctype.obj
 0001:000690c0       _isblank                   1006a0c0 f i libucrtd:_ctype.obj
 0001:00069120       _iscntrl                   1006a120 f i libucrtd:_ctype.obj
 0001:00069160       _isdigit                   1006a160 f i libucrtd:_ctype.obj
 0001:000691a0       _isgraph                   1006a1a0 f i libucrtd:_ctype.obj
 0001:000691e0       _islower                   1006a1e0 f i libucrtd:_ctype.obj
 0001:00069220       _isprint                   1006a220 f i libucrtd:_ctype.obj
 0001:00069260       _ispunct                   1006a260 f i libucrtd:_ctype.obj
 0001:000692a0       _isspace                   1006a2a0 f i libucrtd:_ctype.obj
 0001:000692e0       _isupper                   1006a2e0 f i libucrtd:_ctype.obj
 0001:00069320       _isxdigit                  1006a320 f i libucrtd:_ctype.obj
 0001:00069360       _wcscat                    1006a360 f   libucrtd:wcscat.obj
 0001:000693c0       _wcscpy                    1006a3c0 f   libucrtd:wcscpy.obj
 0001:00069a50       ??$open_file@ABQBDABQBDABHPAU_iobuf@@@?$__crt_char_traits@D@@SAPAU_iobuf@@ABQBD0ABH$$QAPAU1@@Z 1006aa50 f i libucrtd:fopen.obj
 0001:00069a80       ??$open_file@ABQB_WABQB_WABHPAU_iobuf@@@?$__crt_char_traits@_W@@SAPAU_iobuf@@ABQB_W0ABH$$QAPAU1@@Z 1006aa80 f i libucrtd:fopen.obj
 0001:00069ab0       ?unlock@__crt_stdio_stream@@QBEXXZ 1006aab0 f i libucrtd:fopen.obj
 0001:00069ad0       __fsopen                   1006aad0 f   libucrtd:fopen.obj
 0001:00069af0       __wfopen                   1006aaf0 f   libucrtd:fopen.obj
 0001:00069b10       __wfopen_s                 1006ab10 f   libucrtd:fopen.obj
 0001:00069b30       __wfsopen                  1006ab30 f   libucrtd:fopen.obj
 0001:00069b50       _fopen                     1006ab50 f   libucrtd:fopen.obj
 0001:00069b70       _fopen_s                   1006ab70 f   libucrtd:fopen.obj
 0001:00069b90       ?is_in_use@__crt_stdio_stream@@QBE_NXZ 1006ab90 f i libucrtd:fclose.obj
 0001:00069bd0       __fclose_nolock            1006abd0 f   libucrtd:fclose.obj
 0001:00069d10       _fclose                    1006ad10 f   libucrtd:fclose.obj
 0001:00069e60       __fputc_nolock             1006ae60 f   libucrtd:fputc.obj
 0001:00069ef0       __fputchar                 1006aef0 f   libucrtd:fputc.obj
 0001:00069f10       __putc_nolock              1006af10 f   libucrtd:fputc.obj
 0001:00069f30       _fputc                     1006af30 f   libucrtd:fputc.obj
 0001:0006a170       _putc                      1006b170 f   libucrtd:fputc.obj
 0001:0006a190       _putchar                   1006b190 f   libucrtd:fputc.obj
 0001:0006a200       __seh_filter_dll           1006b200 f   libucrtd:exception_filter.obj
 0001:0006a230       __seh_filter_exe           1006b230 f   libucrtd:exception_filter.obj
 0001:0006a450       ??$?B$$A6GXPAXK0@Z@__crt_fast_encoded_nullptr_t@@QBEP6GXPAXK0@ZXZ 1006b450 f i libucrtd:exit.obj
 0001:0006a470       ??$__crt_fast_decode_pointer@P6GXPAXK0@Z@@YAP6GXPAXK0@ZQ6GX0K0@Z@Z 1006b470 f i libucrtd:exit.obj
 0001:0006a4a0       ??$__crt_fast_encode_pointer@P6GXPAXK0@Z@@YAP6GXPAXK0@ZQ6GX0K0@Z@Z 1006b4a0 f i libucrtd:exit.obj
 0001:0006a4d0       ??$__crt_get_proc_address@P6GXI@Z@@YAP6GXI@ZQAUHINSTANCE__@@QBD@Z 1006b4d0 f i libucrtd:exit.obj
 0001:0006a4f0       ??0?$__crt_unique_handle_t@U__crt_hmodule_traits@@@@QAE@QAUHINSTANCE__@@@Z 1006b4f0 f i libucrtd:exit.obj
 0001:0006a510       ??1?$__crt_unique_handle_t@U__crt_hmodule_traits@@@@QAE@XZ 1006b510 f i libucrtd:exit.obj
 0001:0006a550       ?close@?$__crt_unique_handle_t@U__crt_hmodule_traits@@@@QAEXXZ 1006b550 f i libucrtd:exit.obj
 0001:0006a590       ?close@__crt_hmodule_traits@@SA_NPAUHINSTANCE__@@@Z 1006b590 f i libucrtd:exit.obj
 0001:0006a7c0       ?get@?$__crt_unique_handle_t@U__crt_hmodule_traits@@@@QBEPAUHINSTANCE__@@XZ 1006b7c0 f i libucrtd:exit.obj
 0001:0006a7e0       ?get_address_of@?$__crt_unique_handle_t@U__crt_hmodule_traits@@@@QAEPAPAUHINSTANCE__@@XZ 1006b7e0 f i libucrtd:exit.obj
 0001:0006a7f0       ?get_invalid_value@__crt_hmodule_traits@@SAPAUHINSTANCE__@@XZ 1006b7f0 f i libucrtd:exit.obj
 0001:0006a980       __Exit                     1006b980 f   libucrtd:exit.obj
 0001:0006a9a0       ___acrt_initialize_thread_local_exit_callback 1006b9a0 f   libucrtd:exit.obj
 0001:0006a9b0       __c_exit                   1006b9b0 f   libucrtd:exit.obj
 0001:0006a9d0       __cexit                    1006b9d0 f   libucrtd:exit.obj
 0001:0006a9f0       __exit                     1006b9f0 f   libucrtd:exit.obj
 0001:0006aa10       __is_c_termination_complete 1006ba10 f   libucrtd:exit.obj
 0001:0006aa30       __register_thread_local_exe_atexit_callback 1006ba30 f   libucrtd:exit.obj
 0001:0006aa70       _exit                      1006ba70 f   libucrtd:exit.obj
 0001:0006aa90       _quick_exit                1006ba90 f   libucrtd:exit.obj
 0001:0006aab0       ??$?RE@__crt_internal_free_policy@@QBEXQBE@Z 1006bab0 f i libucrtd:argv_parsing.obj
 0001:0006aad0       ??$?RPAD@__crt_internal_free_policy@@QBEXQBQAD@Z 1006bad0 f i libucrtd:argv_parsing.obj
 0001:0006aaf0       ??$?RPA_W@__crt_internal_free_policy@@QBEXQBQA_W@Z 1006baf0 f i libucrtd:argv_parsing.obj
 0001:0006b030       ??$get_module_file_name@$$TAAY0BAF@DH@?$__crt_char_traits@D@@SAK$$QA$$TAAY0BAF@D$$QAH@Z 1006c030 f i libucrtd:argv_parsing.obj
 0001:0006b050       ??$get_module_file_name@$$TAAY0BAF@_WH@?$__crt_char_traits@_W@@SAK$$QA$$TAAY0BAF@_W$$QAH@Z 1006c050 f i libucrtd:argv_parsing.obj
 0001:0006b770       ??$set_program_name@PAD@?$__crt_char_traits@D@@SAX$$QAPAD@Z 1006c770 f i libucrtd:argv_parsing.obj
 0001:0006b790       ??$set_program_name@PA_W@?$__crt_char_traits@_W@@SAX$$QAPA_W@Z 1006c790 f i libucrtd:argv_parsing.obj
 0001:0006b7f0       ??0?$__crt_unique_heap_ptr@EU__crt_internal_free_policy@@@@QAE@QAE@Z 1006c7f0 f i libucrtd:argv_parsing.obj
 0001:0006b810       ??0?$__crt_unique_heap_ptr@PADU__crt_internal_free_policy@@@@QAE@QAPAD@Z 1006c810 f i libucrtd:argv_parsing.obj
 0001:0006b830       ??0?$__crt_unique_heap_ptr@PA_WU__crt_internal_free_policy@@@@QAE@QAPA_W@Z 1006c830 f i libucrtd:argv_parsing.obj
 0001:0006b850       ??1?$__crt_unique_heap_ptr@EU__crt_internal_free_policy@@@@QAE@XZ 1006c850 f i libucrtd:argv_parsing.obj
 0001:0006b870       ??1?$__crt_unique_heap_ptr@PADU__crt_internal_free_policy@@@@QAE@XZ 1006c870 f i libucrtd:argv_parsing.obj
 0001:0006b890       ??1?$__crt_unique_heap_ptr@PA_WU__crt_internal_free_policy@@@@QAE@XZ 1006c890 f i libucrtd:argv_parsing.obj
 0001:0006b8b0       ??B?$__crt_unique_heap_ptr@EU__crt_internal_free_policy@@@@QBE_NXZ 1006c8b0 f i libucrtd:argv_parsing.obj
 0001:0006b970       ?detach@?$__crt_unique_heap_ptr@EU__crt_internal_free_policy@@@@QAEPAEXZ 1006c970 f i libucrtd:argv_parsing.obj
 0001:0006b9a0       ?detach@?$__crt_unique_heap_ptr@PADU__crt_internal_free_policy@@@@QAEPAPADXZ 1006c9a0 f i libucrtd:argv_parsing.obj
 0001:0006b9d0       ?detach@?$__crt_unique_heap_ptr@PA_WU__crt_internal_free_policy@@@@QAEPAPA_WXZ 1006c9d0 f i libucrtd:argv_parsing.obj
 0001:0006ba60       ?get@?$__crt_unique_heap_ptr@EU__crt_internal_free_policy@@@@QBEPAEXZ 1006ca60 f i libucrtd:argv_parsing.obj
 0001:0006ba80       ?get@?$__crt_unique_heap_ptr@PADU__crt_internal_free_policy@@@@QBEPAPADXZ 1006ca80 f i libucrtd:argv_parsing.obj
 0001:0006baa0       ?get@?$__crt_unique_heap_ptr@PA_WU__crt_internal_free_policy@@@@QBEPAPA_WXZ 1006caa0 f i libucrtd:argv_parsing.obj
 0001:0006bac0       ?get_address_of@?$__crt_unique_heap_ptr@PADU__crt_internal_free_policy@@@@QAEPAPAPADXZ 1006cac0 f i libucrtd:argv_parsing.obj
 0001:0006bad0       ?get_address_of@?$__crt_unique_heap_ptr@PA_WU__crt_internal_free_policy@@@@QAEPAPAPA_WXZ 1006cad0 f i libucrtd:argv_parsing.obj
 0001:0006bb20       ?is_valid@?$__crt_unique_heap_ptr@EU__crt_internal_free_policy@@@@QBE_NXZ 1006cb20 f i libucrtd:argv_parsing.obj
 0001:0006bb50       ?release@?$__crt_unique_heap_ptr@EU__crt_internal_free_policy@@@@QAEXXZ 1006cb50 f i libucrtd:argv_parsing.obj
 0001:0006bb80       ?release@?$__crt_unique_heap_ptr@PADU__crt_internal_free_policy@@@@QAEXXZ 1006cb80 f i libucrtd:argv_parsing.obj
 0001:0006bbb0       ?release@?$__crt_unique_heap_ptr@PA_WU__crt_internal_free_policy@@@@QAEXXZ 1006cbb0 f i libucrtd:argv_parsing.obj
 0001:0006bc20       ___acrt_allocate_buffer_for_argv 1006cc20 f   libucrtd:argv_parsing.obj
 0001:0006bce0       __configure_narrow_argv    1006cce0 f   libucrtd:argv_parsing.obj
 0001:0006bd00       __configure_wide_argv      1006cd00 f   libucrtd:argv_parsing.obj
 0001:0006bd20       __set_pgmptr               1006cd20 f i libucrtd:argv_parsing.obj
 0001:0006bd30       __set_wpgmptr              1006cd30 f i libucrtd:argv_parsing.obj
 0001:0006bd3f       ??$?R_W@__crt_internal_free_policy@@QBEXQB_W@Z 1006cd3f f i libucrtd:environment_initialization.obj
 0001:0006c1a6       ??$get_environment_from_os@$$$V@?$__crt_char_traits@D@@SAPADXZ 1006d1a6 f i libucrtd:environment_initialization.obj
 0001:0006c1ab       ??$get_environment_from_os@$$$V@?$__crt_char_traits@_W@@SAPA_WXZ 1006d1ab f i libucrtd:environment_initialization.obj
 0001:0006c2cc       ??$set_variable_in_environment_nolock@PADH@?$__crt_char_traits@D@@SAH$$QAPAD$$QAH@Z 1006d2cc f i libucrtd:environment_initialization.obj
 0001:0006c2e4       ??$set_variable_in_environment_nolock@PA_WH@?$__crt_char_traits@_W@@SAH$$QAPA_W$$QAH@Z 1006d2e4 f i libucrtd:environment_initialization.obj
 0001:0006c2fc       ??$tcscpy_s@PADABIAAPAD@?$__crt_char_traits@D@@SAH$$QAPADABIAAPAD@Z 1006d2fc f i libucrtd:environment_initialization.obj
 0001:0006c31a       ??$tcscpy_s@PA_WABIAAPA_W@?$__crt_char_traits@_W@@SAH$$QAPA_WABIAAPA_W@Z 1006d31a f i libucrtd:environment_initialization.obj
 0001:0006c338       ??$tcslen@AAPAD@?$__crt_char_traits@D@@SAIAAPAD@Z 1006d338 f i libucrtd:environment_initialization.obj
 0001:0006c350       ??$tcslen@AAPA_W@?$__crt_char_traits@_W@@SAIAAPA_W@Z 1006d350 f i libucrtd:environment_initialization.obj
 0001:0006c36e       ??$uninitialize@A6AXAAPAPAD@Z@?$dual_state_global@PAPAD@__crt_state_management@@QAEXA6AXAAPAPAD@Z@Z 1006d36e f i libucrtd:environment_initialization.obj
 0001:0006c3ae       ??$uninitialize@A6AXAAPAPA_W@Z@?$dual_state_global@PAPA_W@__crt_state_management@@QAEXA6AXAAPAPA_W@Z@Z 1006d3ae f i libucrtd:environment_initialization.obj
 0001:0006c424       ??0?$__crt_unique_heap_ptr@_WU__crt_internal_free_policy@@@@QAE@QA_W@Z 1006d424 f i libucrtd:environment_initialization.obj
 0001:0006c434       ??1?$__crt_unique_heap_ptr@_WU__crt_internal_free_policy@@@@QAE@XZ 1006d434 f i libucrtd:environment_initialization.obj
 0001:0006c449       ??B?$__crt_unique_heap_ptr@PADU__crt_internal_free_policy@@@@QBE_NXZ 1006d449 f i libucrtd:environment_initialization.obj
 0001:0006c451       ??B?$__crt_unique_heap_ptr@PA_WU__crt_internal_free_policy@@@@QBE_NXZ 1006d451 f i libucrtd:environment_initialization.obj
 0001:0006c459       ??B?$__crt_unique_heap_ptr@_WU__crt_internal_free_policy@@@@QBE_NXZ 1006d459 f i libucrtd:environment_initialization.obj
 0001:0006c461       ?__crt_compute_required_transform_buffer_count@@YAIIQBD@Z 1006d461 f i libucrtd:environment_initialization.obj
 0001:0006c47b       ?__crt_compute_required_transform_buffer_count@@YAIIQB_W@Z 1006d47b f i libucrtd:environment_initialization.obj
 0001:0006c497       ?__crt_transform_string@@YAIIQBDQA_WI@Z 1006d497 f i libucrtd:environment_initialization.obj
 0001:0006c4b4       ?__crt_transform_string@@YAIIQB_WQADI@Z 1006d4b4 f i libucrtd:environment_initialization.obj
 0001:0006c4d4       ?detach@?$__crt_unique_heap_ptr@DU__crt_internal_free_policy@@@@QAEPADXZ 1006d4d4 f i libucrtd:environment_initialization.obj
 0001:0006c4da       ?detach@?$__crt_unique_heap_ptr@_WU__crt_internal_free_policy@@@@QAEPA_WXZ 1006d4da f i libucrtd:environment_initialization.obj
 0001:0006c4e0       ?get@?$__crt_unique_heap_ptr@_WU__crt_internal_free_policy@@@@QBEPA_WXZ 1006d4e0 f i libucrtd:environment_initialization.obj
 0001:0006c507       ?initialize@?$dual_state_global@PAPAD@__crt_state_management@@QAEXQAPAD@Z 1006d507 f i libucrtd:environment_initialization.obj
 0001:0006c538       ?initialize@?$dual_state_global@PAPA_W@__crt_state_management@@QAEXQAPA_W@Z 1006d538 f i libucrtd:environment_initialization.obj
 0001:0006c569       ?is_valid@?$__crt_unique_heap_ptr@PADU__crt_internal_free_policy@@@@QBE_NXZ 1006d569 f i libucrtd:environment_initialization.obj
 0001:0006c571       ?is_valid@?$__crt_unique_heap_ptr@PA_WU__crt_internal_free_policy@@@@QBE_NXZ 1006d571 f i libucrtd:environment_initialization.obj
 0001:0006c579       ?is_valid@?$__crt_unique_heap_ptr@_WU__crt_internal_free_policy@@@@QBE_NXZ 1006d579 f i libucrtd:environment_initialization.obj
 0001:0006c587       ?release@?$__crt_unique_heap_ptr@_WU__crt_internal_free_policy@@@@QAEXXZ 1006d587 f i libucrtd:environment_initialization.obj
 0001:0006c59c       ?value@?$dual_state_global@PAPAD@__crt_state_management@@QAEAAPAPADXZ 1006d59c f i libucrtd:environment_initialization.obj
 0001:0006c59f       ?value@?$dual_state_global@PAPA_W@__crt_state_management@@QAEAAPAPA_WXZ 1006d59f f i libucrtd:environment_initialization.obj
 0001:0006c5a2       ___dcrt_get_or_create_narrow_environment_nolock 1006d5a2 f   libucrtd:environment_initialization.obj
 0001:0006c5a7       ___dcrt_get_or_create_wide_environment_nolock 1006d5a7 f   libucrtd:environment_initialization.obj
 0001:0006c5ac       ___dcrt_uninitialize_environments_nolock 1006d5ac f   libucrtd:environment_initialization.obj
 0001:0006c5e3       ___p__environ              1006d5e3 f   libucrtd:environment_initialization.obj
 0001:0006c5e9       ___p__wenviron             1006d5e9 f   libucrtd:environment_initialization.obj
 0001:0006c5ef       __get_initial_narrow_environment 1006d5ef f   libucrtd:environment_initialization.obj
 0001:0006c603       __get_initial_wide_environment 1006d603 f   libucrtd:environment_initialization.obj
 0001:0006c617       __initialize_narrow_environment 1006d617 f   libucrtd:environment_initialization.obj
 0001:0006c61c       __initialize_wide_environment 1006d61c f   libucrtd:environment_initialization.obj
 0001:0006c630       ??$?BP6AXXZ@__crt_fast_encoded_nullptr_t@@QBEPAP6AXXZXZ 1006d630 f i libucrtd:onexit.obj
 0001:0006c650       ??$?RP6AXXZ@__crt_internal_free_policy@@QBEXQBQ6AXXZ@Z 1006d650 f i libucrtd:onexit.obj
 0001:0006c670       ??$?RV<lambda_821a00fc0e15a7fd532972332124005d>@@AAV<lambda_942beefa13ab35ff55f86422493ffd6a>@@V<lambda_3ab53bf64df1f1ff33dbc5b1929ce7a7>@@@?$__crt_seh_guarded_call@H@@QAEH$$QAV<lambda_821a00fc0e15a7fd532972332124005d>@@AAV<lambda_942beefa13ab35ff55f86422493ffd6a>@@$$QAV<lambda_3ab53bf64df1f1ff33dbc5b1929ce7a7>@@@Z 1006d670 f i libucrtd:onexit.obj
 0001:0006c700       ??$?RV<lambda_a12890e7f9ac9927a62bd0bbd5044c78>@@AAV<lambda_e971338317bfa523bb8920b43d823727>@@V<lambda_e618b16d59e79e236350cab8485990d2>@@@?$__crt_seh_guarded_call@H@@QAEH$$QAV<lambda_a12890e7f9ac9927a62bd0bbd5044c78>@@AAV<lambda_e971338317bfa523bb8920b43d823727>@@$$QAV<lambda_e618b16d59e79e236350cab8485990d2>@@@Z 1006d700 f i libucrtd:onexit.obj
 0001:0006c790       ??$__acrt_lock_and_call@V<lambda_942beefa13ab35ff55f86422493ffd6a>@@@@YAHW4__acrt_lock_id@@$$QAV<lambda_942beefa13ab35ff55f86422493ffd6a>@@@Z 1006d790 f i libucrtd:onexit.obj
 0001:0006c7d0       ??$__acrt_lock_and_call@V<lambda_e971338317bfa523bb8920b43d823727>@@@@YAHW4__acrt_lock_id@@$$QAV<lambda_e971338317bfa523bb8920b43d823727>@@@Z 1006d7d0 f i libucrtd:onexit.obj
 0001:0006c810       ??$__crt_fast_encode_pointer@P6AHXZ@@YAP6AHXZQ6AHXZ@Z 1006d810 f i libucrtd:onexit.obj
 0001:0006c910       ??0?$__crt_unique_heap_ptr@P6AXXZU__crt_internal_free_policy@@@@QAE@QAP6AXXZ@Z 1006d910 f i libucrtd:onexit.obj
 0001:0006c930       ??1?$__crt_unique_heap_ptr@P6AXXZU__crt_internal_free_policy@@@@QAE@XZ 1006d930 f i libucrtd:onexit.obj
 0001:0006cd80       ?detach@?$__crt_unique_heap_ptr@P6AXXZU__crt_internal_free_policy@@@@QAEPAP6AXXZXZ 1006dd80 f i libucrtd:onexit.obj
 0001:0006cdb0       ?release@?$__crt_unique_heap_ptr@P6AXXZU__crt_internal_free_policy@@@@QAEXXZ 1006ddb0 f i libucrtd:onexit.obj
 0001:0006cde0       __crt_at_quick_exit        1006dde0 f   libucrtd:onexit.obj
 0001:0006ce00       __crt_atexit               1006de00 f   libucrtd:onexit.obj
 0001:0006ce20       __execute_onexit_table     1006de20 f   libucrtd:onexit.obj
 0001:0006ce50       __initialize_onexit_table  1006de50 f   libucrtd:onexit.obj
 0001:0006ceb0       __register_onexit_function 1006deb0 f   libucrtd:onexit.obj
 0001:0006d100       ?initialize@?$dual_state_global@PAU__crt_locale_data@@@__crt_state_management@@QAEXQAU__crt_locale_data@@@Z 1006e100 f i libucrtd:initialization.obj
 0001:0006d140       ___acrt_initialize         1006e140 f   libucrtd:initialization.obj
 0001:0006d160       ___acrt_thread_attach      1006e160 f   libucrtd:initialization.obj
 0001:0006d180       ___acrt_thread_detach      1006e180 f   libucrtd:initialization.obj
 0001:0006d190       ___acrt_uninitialize       1006e190 f   libucrtd:initialization.obj
 0001:0006d1b0       ___acrt_uninitialize_critical 1006e1b0 f   libucrtd:initialization.obj
 0001:0006ea60       __CrtCheckMemory           1006fa60 f   libucrtd:debug_heap.obj
 0001:0006ebf0       __CrtDoForAllClientObjects 1006fbf0 f   libucrtd:debug_heap.obj
 0001:0006ed50       __CrtDumpMemoryLeaks       1006fd50 f   libucrtd:debug_heap.obj
 0001:0006edf0       __CrtGetAllocHook          1006fdf0 f   libucrtd:debug_heap.obj
 0001:0006ee00       __CrtGetDumpClient         1006fe00 f   libucrtd:debug_heap.obj
 0001:0006ee10       __CrtIsMemoryBlock         1006fe10 f   libucrtd:debug_heap.obj
 0001:0006ef60       __CrtIsValidHeapPointer    1006ff60 f   libucrtd:debug_heap.obj
 0001:0006ef90       __CrtIsValidPointer        1006ff90 f   libucrtd:debug_heap.obj
 0001:0006efc0       __CrtMemCheckpoint         1006ffc0 f   libucrtd:debug_heap.obj
 0001:0006f1f0       __CrtMemDifference         100701f0 f   libucrtd:debug_heap.obj
 0001:0006f460       __CrtMemDumpAllObjectsSince 10070460 f   libucrtd:debug_heap.obj
 0001:0006f500       __CrtMemDumpStatistics     10070500 f   libucrtd:debug_heap.obj
 0001:0006f630       __CrtReportBlockType       10070630 f   libucrtd:debug_heap.obj
 0001:0006f660       __CrtSetAllocHook          10070660 f   libucrtd:debug_heap.obj
 0001:0006f680       __CrtSetBreakAlloc         10070680 f   libucrtd:debug_heap.obj
 0001:0006f6a0       __CrtSetDbgBlockType       100706a0 f   libucrtd:debug_heap.obj
 0001:0006f780       __CrtSetDbgFlag            10070780 f   libucrtd:debug_heap.obj
 0001:0006f8f0       __CrtSetDumpClient         100708f0 f   libucrtd:debug_heap.obj
 0001:0006f910       ___p__crtBreakAlloc        10070910 f   libucrtd:debug_heap.obj
 0001:0006f920       ___p__crtDbgFlag           10070920 f   libucrtd:debug_heap.obj
 0001:0006f930       __aligned_free_dbg         10070930 f   libucrtd:debug_heap.obj
 0001:0006f9e0       __aligned_malloc_dbg       100709e0 f   libucrtd:debug_heap.obj
 0001:0006fa10       __aligned_msize_dbg        10070a10 f   libucrtd:debug_heap.obj
 0001:0006fb40       __aligned_offset_malloc_dbg 10070b40 f   libucrtd:debug_heap.obj
 0001:0006fd20       __aligned_offset_realloc_dbg 10070d20 f   libucrtd:debug_heap.obj
 0001:00070030       __aligned_offset_recalloc_dbg 10071030 f   libucrtd:debug_heap.obj
 0001:000700f0       __aligned_realloc_dbg      100710f0 f   libucrtd:debug_heap.obj
 0001:00070120       __aligned_recalloc_dbg     10071120 f   libucrtd:debug_heap.obj
 0001:00070150       __calloc_dbg               10071150 f   libucrtd:debug_heap.obj
 0001:000701c0       __expand_dbg               100711c0 f   libucrtd:debug_heap.obj
 0001:000702f0       __free_dbg                 100712f0 f   libucrtd:debug_heap.obj
 0001:000703a0       __malloc_dbg               100713a0 f   libucrtd:debug_heap.obj
 0001:000703c0       __msize_dbg                100713c0 f   libucrtd:debug_heap.obj
 0001:00070550       __realloc_dbg              10071550 f   libucrtd:debug_heap.obj
 0001:000705f0       __recalloc_dbg             100715f0 f   libucrtd:debug_heap.obj
 0001:000706a0       __initterm                 100716a0 f   libucrtd:initterm.obj
 0001:00070700       __initterm_e               10071700 f   libucrtd:initterm.obj
 0001:00070a80       _strcpy_s                  10071a80 f   libucrtd:strcpy_s.obj
 0001:00070eb0       _strcat_s                  10071eb0 f   libucrtd:strcat_s.obj
 0001:00070ed0       ??$?B$$A6AHI@Z@__crt_fast_encoded_nullptr_t@@QBEP6AHI@ZXZ 10071ed0 f i libucrtd:new_handler.obj
 0001:00070ef0       ??$__crt_fast_decode_pointer@P6AHI@Z@@YAP6AHI@ZQ6AHI@Z@Z 10071ef0 f i libucrtd:new_handler.obj
 0001:00070f20       ??$__crt_fast_encode_pointer@P6AHI@Z@@YAP6AHI@ZQ6AHI@Z@Z 10071f20 f i libucrtd:new_handler.obj
 0001:00070f50       ?_set_new_handler@@YAP6AHI@ZH@Z 10071f50 f   libucrtd:new_handler.obj
 0001:00070fb0       ?initialize@?$dual_state_global@P6AHI@Z@__crt_state_management@@QAEXQ6AHI@Z@Z 10071fb0 f i libucrtd:new_handler.obj
 0001:00070ff0       ?value@?$dual_state_global@P6AHI@Z@__crt_state_management@@QAEAAP6AHI@ZXZ 10071ff0 f i libucrtd:new_handler.obj
 0001:00071010       ___acrt_initialize_new_handler 10072010 f   libucrtd:new_handler.obj
 0001:00071030       __callnewh                 10072030 f   libucrtd:new_handler.obj
 0001:00071090       __query_new_handler        10072090 f   libucrtd:new_handler.obj
 0001:00071120       __set_new_handler          10072120 f   libucrtd:new_handler.obj
 0001:00071200       __get_terminate            10072200 f   libucrtd:terminate.obj
 0001:00071220       _set_terminate             10072220 f   libucrtd:terminate.obj
 0001:00071250       _terminate                 10072250 f   libucrtd:terminate.obj
 0001:00071c30       __makepath                 10072c30 f   libucrtd:makepath.obj
 0001:00071c60       __makepath_s               10072c60 f   libucrtd:makepath.obj
 0001:00071c90       __wmakepath                10072c90 f   libucrtd:makepath.obj
 0001:00071cc0       __wmakepath_s              10072cc0 f   libucrtd:makepath.obj
 0001:00073530       ??$tcsncpy_s@AAPADIAAPBDABI@?$__crt_char_traits@D@@SAHAAPAD$$QAIAAPBDABI@Z 10074530 f i libucrtd:splitpath.obj
 0001:00073560       ??$tcsncpy_s@AAPADIAAPBDH@?$__crt_char_traits@D@@SAHAAPAD$$QAIAAPBD$$QAH@Z 10074560 f i libucrtd:splitpath.obj
 0001:00073590       ??$tcsncpy_s@AAPA_WIAAPB_WABI@?$__crt_char_traits@_W@@SAHAAPA_W$$QAIAAPB_WABI@Z 10074590 f i libucrtd:splitpath.obj
 0001:000735c0       ??$tcsncpy_s@AAPA_WIAAPB_WH@?$__crt_char_traits@_W@@SAHAAPA_W$$QAIAAPB_W$$QAH@Z 100745c0 f i libucrtd:splitpath.obj
 0001:000737c0       __splitpath                100747c0 f   libucrtd:splitpath.obj
 0001:000737f0       __splitpath_s              100747f0 f   libucrtd:splitpath.obj
 0001:00073840       __wsplitpath               10074840 f   libucrtd:splitpath.obj
 0001:00073870       __wsplitpath_s             10074870 f   libucrtd:splitpath.obj
 0001:000738c0       __set_abort_behavior       100748c0 f   libucrtd:abort.obj
 0001:000738f0       _abort                     100748f0 f   libucrtd:abort.obj
 0001:00073960       _strcmp                    10074960 f   libucrtd:strcmp.obj
 0001:000739f0       _strlen                    100749f0 f   libucrtd:strlen.obj
 0001:00073a80       _wcsncmp                   10074a80 f   libucrtd:wcsncmp.obj
 0001:00073ae0       ??$is_overflow_condition@K@__crt_strtox@@YA_NIK@Z 10074ae0 f i libucrtd:atox.obj
 0001:00073b40       ??$is_overflow_condition@_K@__crt_strtox@@YA_NI_K@Z 10074b40 f i libucrtd:atox.obj
 0001:00073bd0       ??$make_c_string_character_source@D$$T@__crt_strtox@@YA?AV?$c_string_character_source@D@0@QBD$$T@Z 10074bd0 f i libucrtd:atox.obj
 0001:00073bf0       ??$make_c_string_character_source@_W$$T@__crt_strtox@@YA?AV?$c_string_character_source@_W@0@QB_W$$T@Z 10074bf0 f i libucrtd:atox.obj
 0001:00073c10       ??$parse_integer@KV?$c_string_character_source@D@__crt_strtox@@@__crt_strtox@@YAKQAU__crt_locale_pointers@@V?$c_string_character_source@D@0@H_N@Z 10074c10 f i libucrtd:atox.obj
 0001:00073f80       ??$parse_integer@KV?$c_string_character_source@_W@__crt_strtox@@@__crt_strtox@@YAKQAU__crt_locale_pointers@@V?$c_string_character_source@_W@0@H_N@Z 10074f80 f i libucrtd:atox.obj
 0001:000742f0       ??$parse_integer@_KV?$c_string_character_source@D@__crt_strtox@@@__crt_strtox@@YA_KQAU__crt_locale_pointers@@V?$c_string_character_source@D@0@H_N@Z 100752f0 f i libucrtd:atox.obj
 0001:00074710       ??$parse_integer@_KV?$c_string_character_source@_W@__crt_strtox@@@__crt_strtox@@YA_KQAU__crt_locale_pointers@@V?$c_string_character_source@_W@0@H_N@Z 10075710 f i libucrtd:atox.obj
 0001:00074b40       ??$parse_integer_from_string@JD$$T@__crt_strtox@@YAJQBD$$THQAU__crt_locale_pointers@@@Z 10075b40 f i libucrtd:atox.obj
 0001:00074b80       ??$parse_integer_from_string@J_W$$T@__crt_strtox@@YAJQB_W$$THQAU__crt_locale_pointers@@@Z 10075b80 f i libucrtd:atox.obj
 0001:00074bc0       ??$parse_integer_from_string@_JD$$T@__crt_strtox@@YA_JQBD$$THQAU__crt_locale_pointers@@@Z 10075bc0 f i libucrtd:atox.obj
 0001:00074c00       ??$parse_integer_from_string@_J_W$$T@__crt_strtox@@YA_JQB_W$$THQAU__crt_locale_pointers@@@Z 10075c00 f i libucrtd:atox.obj
 0001:00074c40       ??0?$c_string_character_source@D@__crt_strtox@@QAE@QBDQAPBD@Z 10075c40 f i libucrtd:atox.obj
 0001:00074c80       ??0?$c_string_character_source@_W@__crt_strtox@@QAE@QB_WQAPB_W@Z 10075c80 f i libucrtd:atox.obj
 0001:00074cc0       ??1?$c_string_character_source@D@__crt_strtox@@QAE@XZ 10075cc0 f i libucrtd:atox.obj
 0001:00074cf0       ??1?$c_string_character_source@_W@__crt_strtox@@QAE@XZ 10075cf0 f i libucrtd:atox.obj
 0001:00074d20       ?get@?$c_string_character_source@D@__crt_strtox@@QAEDXZ 10075d20 f i libucrtd:atox.obj
 0001:00074d50       ?get@?$c_string_character_source@_W@__crt_strtox@@QAE_WXZ 10075d50 f i libucrtd:atox.obj
 0001:00074d80       ?is_space@__crt_strtox@@YA_NDQAU__crt_locale_pointers@@@Z 10075d80 f i libucrtd:atox.obj
 0001:00074dc0       ?is_space@__crt_strtox@@YA_N_WPAU__crt_locale_pointers@@@Z 10075dc0 f i libucrtd:atox.obj
 0001:00074df0       ?maximum_signed_value@__crt_strtox@@YAJK@Z 10075df0 f i libucrtd:atox.obj
 0001:00074e00       ?maximum_signed_value@__crt_strtox@@YA_J_K@Z 10075e00 f i libucrtd:atox.obj
 0001:00074e10       ?minimum_signed_value@__crt_strtox@@YAJK@Z 10075e10 f i libucrtd:atox.obj
 0001:00074e20       ?minimum_signed_value@__crt_strtox@@YA_J_K@Z 10075e20 f i libucrtd:atox.obj
 0001:00074e30       ?parse_digit@__crt_strtox@@YAID@Z 10075e30 f i libucrtd:atox.obj
 0001:00074e90       ?parse_digit@__crt_strtox@@YAI_W@Z 10075e90 f i libucrtd:atox.obj
 0001:00074f10       ?restore_state@?$c_string_character_source@D@__crt_strtox@@QAE_NQBD@Z 10075f10 f i libucrtd:atox.obj
 0001:00074f30       ?restore_state@?$c_string_character_source@_W@__crt_strtox@@QAE_NQB_W@Z 10075f30 f i libucrtd:atox.obj
 0001:00074f50       ?save_state@?$c_string_character_source@D@__crt_strtox@@QBEPBDXZ 10075f50 f i libucrtd:atox.obj
 0001:00074f70       ?save_state@?$c_string_character_source@_W@__crt_strtox@@QBEPB_WXZ 10075f70 f i libucrtd:atox.obj
 0001:00074f90       ?unget@?$c_string_character_source@D@__crt_strtox@@QAEXD@Z 10075f90 f i libucrtd:atox.obj
 0001:00075040       ?unget@?$c_string_character_source@_W@__crt_strtox@@QAEX_W@Z 10076040 f i libucrtd:atox.obj
 0001:000750f0       ?validate@?$c_string_character_source@D@__crt_strtox@@QBE_NXZ 100760f0 f i libucrtd:atox.obj
 0001:00075180       ?validate@?$c_string_character_source@_W@__crt_strtox@@QBE_NXZ 10076180 f i libucrtd:atox.obj
 0001:00075210       ?wide_character_to_digit@__crt_strtox@@YAH_W@Z 10076210 f i libucrtd:atox.obj
 0001:00075540       __atoi64                   10076540 f   libucrtd:atox.obj
 0001:00075560       __atoi64_l                 10076560 f   libucrtd:atox.obj
 0001:00075580       __atoi_l                   10076580 f   libucrtd:atox.obj
 0001:000755a0       __atol_l                   100765a0 f   libucrtd:atox.obj
 0001:000755c0       __atoll_l                  100765c0 f   libucrtd:atox.obj
 0001:000755e0       __wtoi                     100765e0 f   libucrtd:atox.obj
 0001:00075600       __wtoi64                   10076600 f   libucrtd:atox.obj
 0001:00075620       __wtoi64_l                 10076620 f   libucrtd:atox.obj
 0001:00075640       __wtoi_l                   10076640 f   libucrtd:atox.obj
 0001:00075660       __wtol                     10076660 f   libucrtd:atox.obj
 0001:00075680       __wtol_l                   10076680 f   libucrtd:atox.obj
 0001:000756a0       __wtoll                    100766a0 f   libucrtd:atox.obj
 0001:000756c0       __wtoll_l                  100766c0 f   libucrtd:atox.obj
 0001:000756e0       _atoi                      100766e0 f   libucrtd:atox.obj
 0001:00075700       _atol                      10076700 f   libucrtd:atox.obj
 0001:00075720       _atoll                     10076720 f   libucrtd:atox.obj
 0001:00075740       _strncmp                   10076740 f   libucrtd:strncmp.obj
 0001:00075ca0       __tolower                  10076ca0 f   libucrtd:tolower_toupper.obj
 0001:00075cb0       __tolower_l                10076cb0 f   libucrtd:tolower_toupper.obj
 0001:00075cd0       __toupper                  10076cd0 f   libucrtd:tolower_toupper.obj
 0001:00075ce0       __toupper_l                10076ce0 f   libucrtd:tolower_toupper.obj
 0001:00075d00       _tolower                   10076d00 f   libucrtd:tolower_toupper.obj
 0001:00075d60       _toupper                   10076d60 f   libucrtd:tolower_toupper.obj
 0001:00075dc0       __CrtGetDebugFillThreshold 10076dc0 f   libucrtd:debug_fill_threshold.obj
 0001:00075dd0       __CrtSetDebugFillThreshold 10076dd0 f   libucrtd:debug_fill_threshold.obj
 0001:00075df0       ??$make_c_string_character_source@DPAPAD@__crt_strtox@@YA?AV?$c_string_character_source@D@0@QBDQAPAD@Z 10076df0 f i libucrtd:strtox.obj
 0001:00075e10       ??$make_c_string_character_source@_WPAPA_W@__crt_strtox@@YA?AV?$c_string_character_source@_W@0@QB_WQAPA_W@Z 10076e10 f i libucrtd:strtox.obj
 0001:00075e30       ??$parse_integer_from_string@JDPAPAD@__crt_strtox@@YAJQBDQAPADHQAU__crt_locale_pointers@@@Z 10076e30 f i libucrtd:strtox.obj
 0001:00075e70       ??$parse_integer_from_string@J_WPAPA_W@__crt_strtox@@YAJQB_WQAPA_WHQAU__crt_locale_pointers@@@Z 10076e70 f i libucrtd:strtox.obj
 0001:00075eb0       ??$parse_integer_from_string@KDPAPAD@__crt_strtox@@YAKQBDQAPADHQAU__crt_locale_pointers@@@Z 10076eb0 f i libucrtd:strtox.obj
 0001:00075ef0       ??$parse_integer_from_string@K_WPAPA_W@__crt_strtox@@YAKQB_WQAPA_WHQAU__crt_locale_pointers@@@Z 10076ef0 f i libucrtd:strtox.obj
 0001:00075f30       ??$parse_integer_from_string@_JDPAPAD@__crt_strtox@@YA_JQBDQAPADHQAU__crt_locale_pointers@@@Z 10076f30 f i libucrtd:strtox.obj
 0001:00075f70       ??$parse_integer_from_string@_J_WPAPA_W@__crt_strtox@@YA_JQB_WQAPA_WHQAU__crt_locale_pointers@@@Z 10076f70 f i libucrtd:strtox.obj
 0001:00075fb0       ??$parse_integer_from_string@_KDPAPAD@__crt_strtox@@YA_KQBDQAPADHQAU__crt_locale_pointers@@@Z 10076fb0 f i libucrtd:strtox.obj
 0001:00075ff0       ??$parse_integer_from_string@_K_WPAPA_W@__crt_strtox@@YA_KQB_WQAPA_WHQAU__crt_locale_pointers@@@Z 10076ff0 f i libucrtd:strtox.obj
 0001:00076030       __strtoi64                 10077030 f   libucrtd:strtox.obj
 0001:00076050       __strtoi64_l               10077050 f   libucrtd:strtox.obj
 0001:00076070       __strtoimax_l              10077070 f   libucrtd:strtox.obj
 0001:00076090       __strtol_l                 10077090 f   libucrtd:strtox.obj
 0001:000760b0       __strtoll_l                100770b0 f   libucrtd:strtox.obj
 0001:000760d0       __strtoui64                100770d0 f   libucrtd:strtox.obj
 0001:000760f0       __strtoui64_l              100770f0 f   libucrtd:strtox.obj
 0001:00076110       __strtoul_l                10077110 f   libucrtd:strtox.obj
 0001:00076130       __strtoull_l               10077130 f   libucrtd:strtox.obj
 0001:00076150       __strtoumax_l              10077150 f   libucrtd:strtox.obj
 0001:00076170       __wcstoi64                 10077170 f   libucrtd:strtox.obj
 0001:00076190       __wcstoi64_l               10077190 f   libucrtd:strtox.obj
 0001:000761b0       __wcstoimax_l              100771b0 f   libucrtd:strtox.obj
 0001:000761d0       __wcstol_l                 100771d0 f   libucrtd:strtox.obj
 0001:000761f0       __wcstoll_l                100771f0 f   libucrtd:strtox.obj
 0001:00076210       __wcstoui64                10077210 f   libucrtd:strtox.obj
 0001:00076230       __wcstoui64_l              10077230 f   libucrtd:strtox.obj
 0001:00076250       __wcstoul_l                10077250 f   libucrtd:strtox.obj
 0001:00076270       __wcstoull_l               10077270 f   libucrtd:strtox.obj
 0001:00076290       __wcstoumax_l              10077290 f   libucrtd:strtox.obj
 0001:000762b0       _strtoimax                 100772b0 f   libucrtd:strtox.obj
 0001:000762d0       _strtol                    100772d0 f   libucrtd:strtox.obj
 0001:000762f0       _strtoll                   100772f0 f   libucrtd:strtox.obj
 0001:00076310       _strtoul                   10077310 f   libucrtd:strtox.obj
 0001:00076330       _strtoull                  10077330 f   libucrtd:strtox.obj
 0001:00076350       _strtoumax                 10077350 f   libucrtd:strtox.obj
 0001:00076370       _wcstoimax                 10077370 f   libucrtd:strtox.obj
 0001:00076390       _wcstol                    10077390 f   libucrtd:strtox.obj
 0001:000763b0       _wcstoll                   100773b0 f   libucrtd:strtox.obj
 0001:000763d0       _wcstoul                   100773d0 f   libucrtd:strtox.obj
 0001:000763f0       _wcstoull                  100773f0 f   libucrtd:strtox.obj
 0001:00076410       _wcstoumax                 10077410 f   libucrtd:strtox.obj
 0001:00076430       __mbtowc_l                 10077430 f   libucrtd:mbtowc.obj
 0001:00076670       _mbtowc                    10077670 f   libucrtd:mbtowc.obj
 0001:00076690       __wctomb_l                 10077690 f   libucrtd:wctomb.obj
 0001:00076710       __wctomb_s_l               10077710 f   libucrtd:wctomb.obj
 0001:00076a50       _wctomb                    10077a50 f   libucrtd:wctomb.obj
 0001:00076aa0       _wctomb_s                  10077aa0 f   libucrtd:wctomb.obj
 0001:000772a0       ??1?$__crt_simd_cleanup_guard@$00@@QAE@XZ 100782a0 f i libucrtd:strnlen.obj
 0001:000772b0       ??1?$__crt_simd_cleanup_guard@$0A@@@QAE@XZ 100782b0 f i libucrtd:strnlen.obj
 0001:000772c0       ?compare_equals@?$__crt_simd_traits@$00E@@SA?AT__m256i@@T2@0@Z 100782c0 f i libucrtd:strnlen.obj
 0001:00077300       ?compare_equals@?$__crt_simd_traits@$00G@@SA?AT__m256i@@T2@0@Z 10078300 f i libucrtd:strnlen.obj
 0001:00077340       ?compare_equals@?$__crt_simd_traits@$0A@E@@SA?AT__m128i@@T2@0@Z 10078340 f i libucrtd:strnlen.obj
 0001:00077380       ?compare_equals@?$__crt_simd_traits@$0A@G@@SA?AT__m128i@@T2@0@Z 10078380 f i libucrtd:strnlen.obj
 0001:000773c0       ?compute_byte_mask@?$__crt_simd_pack_traits@$00@@SAHT__m256i@@@Z 100783c0 f i libucrtd:strnlen.obj
 0001:000773f0       ?compute_byte_mask@?$__crt_simd_pack_traits@$0A@@@SAHT__m128i@@@Z 100783f0 f i libucrtd:strnlen.obj
 0001:00077420       ?get_zero_pack@?$__crt_simd_pack_traits@$00@@SA?AT__m256i@@XZ 10078420 f i libucrtd:strnlen.obj
 0001:00077450       ?get_zero_pack@?$__crt_simd_pack_traits@$0A@@@SA?AT__m128i@@XZ 10078450 f i libucrtd:strnlen.obj
 0001:00077480       _strnlen                   10078480 f   libucrtd:strnlen.obj
 0001:000774a0       _wcsnlen                   100784a0 f   libucrtd:strnlen.obj
 0001:000774c0       ??$?RU__acrt_ptd@@@__crt_internal_free_policy@@QBEXQBU__acrt_ptd@@@Z 100784c0 f i libucrtd:per_thread_data.obj
 0001:000774e0       ??$?RV<lambda_3518db117f0e7cdb002338c5d3c47b6c>@@AAV<lambda_b2ea41f6bbb362cd97d94c6828d90b61>@@V<lambda_abdedf541bb04549bc734292b4a045d4>@@@?$__crt_seh_guarded_call@X@@QAEX$$QAV<lambda_3518db117f0e7cdb002338c5d3c47b6c>@@AAV<lambda_b2ea41f6bbb362cd97d94c6828d90b61>@@$$QAV<lambda_abdedf541bb04549bc734292b4a045d4>@@@Z 100784e0 f i libucrtd:per_thread_data.obj
 0001:00077560       ??$?RV<lambda_5b71d36f03204c0beab531769a5b5694>@@AAV<lambda_be2b3da3f62db62e9dad5dc70221a656>@@V<lambda_8f9ce462984622f9bf76b59e2aaaf805>@@@?$__crt_seh_guarded_call@X@@QAEX$$QAV<lambda_5b71d36f03204c0beab531769a5b5694>@@AAV<lambda_be2b3da3f62db62e9dad5dc70221a656>@@$$QAV<lambda_8f9ce462984622f9bf76b59e2aaaf805>@@@Z 10078560 f i libucrtd:per_thread_data.obj
 0001:000775e0       ??$?RV<lambda_952b238c83a62ef8e81c72265e1e9aa0>@@AAV<lambda_801f60a70ab65355beb13c41cbe335bb>@@V<lambda_84d84f98815add542a0d6e6ca338feb2>@@@?$__crt_seh_guarded_call@X@@QAEX$$QAV<lambda_952b238c83a62ef8e81c72265e1e9aa0>@@AAV<lambda_801f60a70ab65355beb13c41cbe335bb>@@$$QAV<lambda_84d84f98815add542a0d6e6ca338feb2>@@@Z 100785e0 f i libucrtd:per_thread_data.obj
 0001:00077660       ??$?RV<lambda_9df27f884b057bc3edfc946cb5b7cf47>@@AAV<lambda_e69574bed617af4e071282c136b37893>@@V<lambda_cc0d902bcbbeb830f749456577db4721>@@@?$__crt_seh_guarded_call@X@@QAEX$$QAV<lambda_9df27f884b057bc3edfc946cb5b7cf47>@@AAV<lambda_e69574bed617af4e071282c136b37893>@@$$QAV<lambda_cc0d902bcbbeb830f749456577db4721>@@@Z 10078660 f i libucrtd:per_thread_data.obj
 0001:000776e0       ??$__acrt_lock_and_call@V<lambda_801f60a70ab65355beb13c41cbe335bb>@@@@YAXW4__acrt_lock_id@@$$QAV<lambda_801f60a70ab65355beb13c41cbe335bb>@@@Z 100786e0 f i libucrtd:per_thread_data.obj
 0001:00077720       ??$__acrt_lock_and_call@V<lambda_b2ea41f6bbb362cd97d94c6828d90b61>@@@@YAXW4__acrt_lock_id@@$$QAV<lambda_b2ea41f6bbb362cd97d94c6828d90b61>@@@Z 10078720 f i libucrtd:per_thread_data.obj
 0001:00077760       ??$__acrt_lock_and_call@V<lambda_be2b3da3f62db62e9dad5dc70221a656>@@@@YAXW4__acrt_lock_id@@$$QAV<lambda_be2b3da3f62db62e9dad5dc70221a656>@@@Z 10078760 f i libucrtd:per_thread_data.obj
 0001:000777a0       ??$__acrt_lock_and_call@V<lambda_e69574bed617af4e071282c136b37893>@@@@YAXW4__acrt_lock_id@@$$QAV<lambda_e69574bed617af4e071282c136b37893>@@@Z 100787a0 f i libucrtd:per_thread_data.obj
 0001:00077970       ??0?$__crt_unique_heap_ptr@U__acrt_ptd@@U__crt_internal_free_policy@@@@QAE@QAU__acrt_ptd@@@Z 10078970 f i libucrtd:per_thread_data.obj
 0001:00077990       ??0__crt_scoped_get_last_error_reset@@QAE@XZ 10078990 f i libucrtd:per_thread_data.obj
 0001:000779b0       ??1?$__crt_unique_heap_ptr@U__acrt_ptd@@U__crt_internal_free_policy@@@@QAE@XZ 100789b0 f i libucrtd:per_thread_data.obj
 0001:000779d0       ??1__crt_scoped_get_last_error_reset@@QAE@XZ 100789d0 f i libucrtd:per_thread_data.obj
 0001:000779f0       ??B?$__crt_unique_heap_ptr@U__acrt_ptd@@U__crt_internal_free_policy@@@@QBE_NXZ 100789f0 f i libucrtd:per_thread_data.obj
 0001:00077cd0       ?dangerous_get_state_array@?$dual_state_global@PAU__crt_locale_data@@@__crt_state_management@@QAEPAPAU__crt_locale_data@@XZ 10078cd0 f i libucrtd:per_thread_data.obj
 0001:00077e50       ?detach@?$__crt_unique_heap_ptr@U__acrt_ptd@@U__crt_internal_free_policy@@@@QAEPAU__acrt_ptd@@XZ 10078e50 f i libucrtd:per_thread_data.obj
 0001:00077e80       ?get@?$__crt_unique_heap_ptr@U__acrt_ptd@@U__crt_internal_free_policy@@@@QBEPAU__acrt_ptd@@XZ 10078e80 f i libucrtd:per_thread_data.obj
 0001:00077fc0       ?is_valid@?$__crt_unique_heap_ptr@U__acrt_ptd@@U__crt_internal_free_policy@@@@QBE_NXZ 10078fc0 f i libucrtd:per_thread_data.obj
 0001:00077ff0       ?release@?$__crt_unique_heap_ptr@U__acrt_ptd@@U__crt_internal_free_policy@@@@QAEXXZ 10078ff0 f i libucrtd:per_thread_data.obj
 0001:000780e0       ?value@?$dual_state_global@PAU__crt_locale_data@@@__crt_state_management@@QAEAAPAU__crt_locale_data@@XZ 100790e0 f i libucrtd:per_thread_data.obj
 0001:00078100       ___acrt_freeptd            10079100 f   libucrtd:per_thread_data.obj
 0001:00078130       ___acrt_getptd             10079130 f   libucrtd:per_thread_data.obj
 0001:00078150       ___acrt_getptd_noexit      10079150 f   libucrtd:per_thread_data.obj
 0001:00078160       ___acrt_initialize_ptd     10079160 f   libucrtd:per_thread_data.obj
 0001:000781a0       ___acrt_uninitialize_ptd   100791a0 f   libucrtd:per_thread_data.obj
 0001:000781d0       ___threadhandle            100791d0 f   libucrtd:per_thread_data.obj
 0001:000781e0       ___threadid                100791e0 f   libucrtd:per_thread_data.obj
 0001:000781f0       ___acrt_update_locale_info 100791f0 f   libucrtd:locale_update.obj
 0001:00078230       ___acrt_update_multibyte_info 10079230 f   libucrtd:locale_update.obj
 0001:00078260       ?__acrt_fp_classify@@YA?AW4__acrt_fp_class@@ABN@Z 10079260 f i libucrtd:cvt.obj
 0001:00078380       ?__acrt_fp_is_negative@@YA_NABN@Z 10079380 f i libucrtd:cvt.obj
 0001:00079420       ?strrchr@@YAPADQADH@Z      1007a420 f i libucrtd:cvt.obj
 0001:00079440       ___acrt_fp_format          1007a440 f   libucrtd:cvt.obj
 0001:000798d0       __fputwc_nolock            1007a8d0 f   libucrtd:fputwc.obj
 0001:00079ab0       __fputwchar                1007aab0 f   libucrtd:fputwc.obj
 0001:00079ad0       __putwc_nolock             1007aad0 f   libucrtd:fputwc.obj
 0001:00079af0       _fputwc                    1007aaf0 f   libucrtd:fputwc.obj
 0001:00079c00       _putwc                     1007ac00 f   libucrtd:fputwc.obj
 0001:00079c20       _putwchar                  1007ac20 f   libucrtd:fputwc.obj
 0001:00079c40       ?lowio_handle@__crt_stdio_stream@@QBEHXZ 1007ac40 f i libucrtd:fileno.obj
 0001:00079c60       __fileno                   1007ac60 f   libucrtd:fileno.obj
 0001:00079d00       ??$?RPAU__crt_stdio_stream_data@@@__crt_internal_free_policy@@QBEXQBQAU__crt_stdio_stream_data@@@Z 1007ad00 f i libucrtd:_file.obj
 0001:00079d20       ??0?$__crt_unique_heap_ptr@PAU__crt_stdio_stream_data@@U__crt_internal_free_policy@@@@QAE@QAPAU__crt_stdio_stream_data@@@Z 1007ad20 f i libucrtd:_file.obj
 0001:00079d40       ??1?$__crt_unique_heap_ptr@PAU__crt_stdio_stream_data@@U__crt_internal_free_policy@@@@QAE@XZ 1007ad40 f i libucrtd:_file.obj
 0001:00079d60       ?detach@?$__crt_unique_heap_ptr@PAU__crt_stdio_stream_data@@U__crt_internal_free_policy@@@@QAEPAPAU__crt_stdio_stream_data@@XZ 1007ad60 f i libucrtd:_file.obj
 0001:00079d90       ?release@?$__crt_unique_heap_ptr@PAU__crt_stdio_stream_data@@U__crt_internal_free_policy@@@@QAEXXZ 1007ad90 f i libucrtd:_file.obj
 0001:00079dc0       ___acrt_initialize_stdio   1007adc0 f   libucrtd:_file.obj
 0001:00079f30       ___acrt_iob_func           1007af30 f   libucrtd:_file.obj
 0001:00079f40       ___acrt_uninitialize_stdio 1007af40 f   libucrtd:_file.obj
 0001:00079fc0       __get_stream_buffer_pointers 1007afc0 f   libucrtd:_file.obj
 0001:0007a0a0       __lock_file                1007b0a0 f   libucrtd:_file.obj
 0001:0007a0d0       __unlock_file              1007b0d0 f   libucrtd:_file.obj
 0001:0007a100       __get_printf_count_output  1007b100 f   libucrtd:printf_count_output.obj
 0001:0007a130       __set_printf_count_output  1007b130 f   libucrtd:printf_count_output.obj
 0001:0007a190       ?has_any_buffer@__crt_stdio_stream@@QBE_NXZ 1007b190 f i libucrtd:_sftbuf.obj
 0001:0007a1b0       ?has_any_of@__crt_stdio_stream@@QBE_NJ@Z 1007b1b0 f i libucrtd:_sftbuf.obj
 0001:0007a1f0       ?has_temporary_buffer@__crt_stdio_stream@@QBE_NXZ 1007b1f0 f i libucrtd:_sftbuf.obj
 0001:0007a210       ?set_flags@__crt_stdio_stream@@QBE_NJ@Z 1007b210 f i libucrtd:_sftbuf.obj
 0001:0007a260       ?unset_flags@__crt_stdio_stream@@QBE_NJ@Z 1007b260 f i libucrtd:_sftbuf.obj
 0001:0007a2b0       ___acrt_stdio_begin_temporary_buffering_nolock 1007b2b0 f   libucrtd:_sftbuf.obj
 0001:0007a470       ___acrt_stdio_end_temporary_buffering_nolock 1007b470 f   libucrtd:_sftbuf.obj
 0001:0007a500       ??$?RU__crt_locale_data@@@__crt_internal_free_policy@@QBEXQBU__crt_locale_data@@@Z 1007b500 f i libucrtd:wsetlocale.obj
 0001:0007a520       ??$?RU__crt_locale_pointers@@@__crt_internal_free_policy@@QBEXQBU__crt_locale_pointers@@@Z 1007b520 f i libucrtd:wsetlocale.obj
 0001:0007a540       ??$?RU__crt_multibyte_data@@@__crt_internal_free_policy@@QBEXQBU__crt_multibyte_data@@@Z 1007b540 f i libucrtd:wsetlocale.obj
 0001:0007a560       ??$?RV<lambda_0f92d0c5a8007722f95b3b6c71cd8e3e>@@AAV<lambda_321f9d61c14d59ff00145e45db1313e0>@@V<lambda_3298c911d7b53f44106027a7fde9a80a>@@@?$__crt_seh_guarded_call@X@@QAEX$$QAV<lambda_0f92d0c5a8007722f95b3b6c71cd8e3e>@@AAV<lambda_321f9d61c14d59ff00145e45db1313e0>@@$$QAV<lambda_3298c911d7b53f44106027a7fde9a80a>@@@Z 1007b560 f i libucrtd:wsetlocale.obj
 0001:0007a5e0       ??$?RV<lambda_507d9fd6b66e39451a8852ba73f804a7>@@AAV<lambda_565169b3e3b494427ce1bebdd17b54ac>@@AAV<lambda_f51fe5fd7c79a33db34fc9310f277369>@@@?$__crt_seh_guarded_call@X@@QAEX$$QAV<lambda_507d9fd6b66e39451a8852ba73f804a7>@@AAV<lambda_565169b3e3b494427ce1bebdd17b54ac>@@AAV<lambda_f51fe5fd7c79a33db34fc9310f277369>@@@Z 1007b5e0 f i libucrtd:wsetlocale.obj
 0001:0007a660       ??$?RV<lambda_76aaead6e312921abc834cb00a638bdd>@@AAV<lambda_176e34f99554166dd2fac165c457248c>@@V<lambda_998ee1c9f4290b119b936bcd6215875a>@@@?$__crt_seh_guarded_call@X@@QAEX$$QAV<lambda_76aaead6e312921abc834cb00a638bdd>@@AAV<lambda_176e34f99554166dd2fac165c457248c>@@$$QAV<lambda_998ee1c9f4290b119b936bcd6215875a>@@@Z 1007b660 f i libucrtd:wsetlocale.obj
 0001:0007a6e0       ??$?RV<lambda_c9469061b39d205f0f236529d4a41659>@@AAV<lambda_b7fb1a997d3ebc0cc0186c5835178808>@@V<lambda_14b92c79d699846b5cc916cd4cf280e4>@@@?$__crt_seh_guarded_call@X@@QAEX$$QAV<lambda_c9469061b39d205f0f236529d4a41659>@@AAV<lambda_b7fb1a997d3ebc0cc0186c5835178808>@@$$QAV<lambda_14b92c79d699846b5cc916cd4cf280e4>@@@Z 1007b6e0 f i libucrtd:wsetlocale.obj
 0001:0007a760       ??$__acrt_lock_and_call@V<lambda_176e34f99554166dd2fac165c457248c>@@@@YAXW4__acrt_lock_id@@$$QAV<lambda_176e34f99554166dd2fac165c457248c>@@@Z 1007b760 f i libucrtd:wsetlocale.obj
 0001:0007a7a0       ??$__acrt_lock_and_call@V<lambda_321f9d61c14d59ff00145e45db1313e0>@@@@YAXW4__acrt_lock_id@@$$QAV<lambda_321f9d61c14d59ff00145e45db1313e0>@@@Z 1007b7a0 f i libucrtd:wsetlocale.obj
 0001:0007a7e0       ??$__acrt_lock_and_call@V<lambda_b7fb1a997d3ebc0cc0186c5835178808>@@@@YAXW4__acrt_lock_id@@$$QAV<lambda_b7fb1a997d3ebc0cc0186c5835178808>@@@Z 1007b7e0 f i libucrtd:wsetlocale.obj
 0001:0007a820       ??$__crt_call_and_cleanup@V<lambda_565169b3e3b494427ce1bebdd17b54ac>@@V<lambda_f51fe5fd7c79a33db34fc9310f277369>@@@@YAX$$QAV<lambda_565169b3e3b494427ce1bebdd17b54ac>@@$$QAV<lambda_f51fe5fd7c79a33db34fc9310f277369>@@@Z 1007b820 f i libucrtd:wsetlocale.obj
 0001:0007a850       ??$__vcrt_va_start_verify_argument_type@H@@YAXXZ 1007b850 f i libucrtd:wsetlocale.obj
 0001:0007aa00       ??0?$__crt_unique_heap_ptr@U__crt_locale_data@@U__crt_internal_free_policy@@@@QAE@QAU__crt_locale_data@@@Z 1007ba00 f i libucrtd:wsetlocale.obj
 0001:0007aa20       ??0?$__crt_unique_heap_ptr@U__crt_locale_pointers@@U__crt_internal_free_policy@@@@QAE@QAU__crt_locale_pointers@@@Z 1007ba20 f i libucrtd:wsetlocale.obj
 0001:0007aa40       ??0?$__crt_unique_heap_ptr@U__crt_multibyte_data@@U__crt_internal_free_policy@@@@QAE@QAU__crt_multibyte_data@@@Z 1007ba40 f i libucrtd:wsetlocale.obj
 0001:0007aa60       ??1?$__crt_unique_heap_ptr@U__crt_locale_data@@U__crt_internal_free_policy@@@@QAE@XZ 1007ba60 f i libucrtd:wsetlocale.obj
 0001:0007aa80       ??1?$__crt_unique_heap_ptr@U__crt_locale_pointers@@U__crt_internal_free_policy@@@@QAE@XZ 1007ba80 f i libucrtd:wsetlocale.obj
 0001:0007aaa0       ??1?$__crt_unique_heap_ptr@U__crt_multibyte_data@@U__crt_internal_free_policy@@@@QAE@XZ 1007baa0 f i libucrtd:wsetlocale.obj
 0001:0007aac0       ??B?$__crt_unique_heap_ptr@U__crt_locale_data@@U__crt_internal_free_policy@@@@QBE_NXZ 1007bac0 f i libucrtd:wsetlocale.obj
 0001:0007aae0       ??B?$__crt_unique_heap_ptr@U__crt_locale_pointers@@U__crt_internal_free_policy@@@@QBE_NXZ 1007bae0 f i libucrtd:wsetlocale.obj
 0001:0007ab00       ??B?$__crt_unique_heap_ptr@U__crt_multibyte_data@@U__crt_internal_free_policy@@@@QBE_NXZ 1007bb00 f i libucrtd:wsetlocale.obj
 0001:0007ae40       ?detach@?$__crt_unique_heap_ptr@U__crt_locale_data@@U__crt_internal_free_policy@@@@QAEPAU__crt_locale_data@@XZ 1007be40 f i libucrtd:wsetlocale.obj
 0001:0007ae70       ?detach@?$__crt_unique_heap_ptr@U__crt_locale_pointers@@U__crt_internal_free_policy@@@@QAEPAU__crt_locale_pointers@@XZ 1007be70 f i libucrtd:wsetlocale.obj
 0001:0007aea0       ?detach@?$__crt_unique_heap_ptr@U__crt_multibyte_data@@U__crt_internal_free_policy@@@@QAEPAU__crt_multibyte_data@@XZ 1007bea0 f i libucrtd:wsetlocale.obj
 0001:0007aed0       ?get@?$__crt_unique_heap_ptr@U__crt_locale_data@@U__crt_internal_free_policy@@@@QBEPAU__crt_locale_data@@XZ 1007bed0 f i libucrtd:wsetlocale.obj
 0001:0007aef0       ?get@?$__crt_unique_heap_ptr@U__crt_locale_pointers@@U__crt_internal_free_policy@@@@QBEPAU__crt_locale_pointers@@XZ 1007bef0 f i libucrtd:wsetlocale.obj
 0001:0007af10       ?get@?$__crt_unique_heap_ptr@U__crt_multibyte_data@@U__crt_internal_free_policy@@@@QBEPAU__crt_multibyte_data@@XZ 1007bf10 f i libucrtd:wsetlocale.obj
 0001:0007af30       ?is_valid@?$__crt_unique_heap_ptr@U__crt_locale_data@@U__crt_internal_free_policy@@@@QBE_NXZ 1007bf30 f i libucrtd:wsetlocale.obj
 0001:0007af60       ?is_valid@?$__crt_unique_heap_ptr@U__crt_locale_pointers@@U__crt_internal_free_policy@@@@QBE_NXZ 1007bf60 f i libucrtd:wsetlocale.obj
 0001:0007af90       ?is_valid@?$__crt_unique_heap_ptr@U__crt_multibyte_data@@U__crt_internal_free_policy@@@@QBE_NXZ 1007bf90 f i libucrtd:wsetlocale.obj
 0001:0007afc0       ?release@?$__crt_unique_heap_ptr@U__crt_locale_data@@U__crt_internal_free_policy@@@@QAEXXZ 1007bfc0 f i libucrtd:wsetlocale.obj
 0001:0007aff0       ?release@?$__crt_unique_heap_ptr@U__crt_locale_pointers@@U__crt_internal_free_policy@@@@QAEXXZ 1007bff0 f i libucrtd:wsetlocale.obj
 0001:0007b020       ?release@?$__crt_unique_heap_ptr@U__crt_multibyte_data@@U__crt_internal_free_policy@@@@QAEXXZ 1007c020 f i libucrtd:wsetlocale.obj
 0001:0007b050       ___acrt_copy_locale_name   1007c050 f   libucrtd:wsetlocale.obj
 0001:0007b0f0       ___acrt_set_locale_changed 1007c0f0 f   libucrtd:wsetlocale.obj
 0001:0007b110       ___acrt_uninitialize_locale 1007c110 f   libucrtd:wsetlocale.obj
 0001:0007b1c0       ___lc_lctowcs              1007c1c0 f   libucrtd:wsetlocale.obj
 0001:0007b270       ___lc_wcstolc              1007c270 f   libucrtd:wsetlocale.obj
 0001:0007b490       __configthreadlocale       1007c490 f   libucrtd:wsetlocale.obj
 0001:0007b610       __create_locale            1007c610 f   libucrtd:wsetlocale.obj
 0001:0007b680       __expandlocale             1007c680 f   libucrtd:wsetlocale.obj
 0001:0007bb50       __free_locale              1007cb50 f   libucrtd:wsetlocale.obj
 0001:0007bc80       __get_current_locale       1007cc80 f   libucrtd:wsetlocale.obj
 0001:0007bd50       __wcreate_locale           1007cd50 f   libucrtd:wsetlocale.obj
 0001:0007bf90       __wcscats                  1007cf90 f   libucrtd:wsetlocale.obj
 0001:0007c010       __wsetlocale               1007d010 f   libucrtd:wsetlocale.obj
 0001:0007cf60       ___p___mb_cur_max          1007df60 f   libucrtd:nlsdata.obj
 0001:0007d260       ___acrt_initialize_lowio   1007e260 f   libucrtd:ioinit.obj
 0001:0007d300       ___acrt_uninitialize_lowio 1007e300 f   libucrtd:ioinit.obj
 0001:0007d360       __CrtGetReportHook         1007e360 f   libucrtd:dbgrptt.obj
 0001:0007d370       __CrtSetReportFile         1007e370 f   libucrtd:dbgrptt.obj
 0001:0007d470       __CrtSetReportHook         1007e470 f   libucrtd:dbgrptt.obj
 0001:0007d490       __CrtSetReportMode         1007e490 f   libucrtd:dbgrptt.obj
 0001:0007d5d0       __VCrtDbgReportA           1007e5d0 f   libucrtd:dbgrptt.obj
 0001:0007de70       __VCrtDbgReportW           1007ee70 f   libucrtd:dbgrptt.obj
 0001:0007e830       __snprintf_s               1007f830 f i libucrtd:dbgrptt.obj
 0001:0007e880       __vsnprintf_s              1007f880 f i libucrtd:dbgrptt.obj
 0001:0007e8b0       __vsnprintf_s_l            1007f8b0 f i libucrtd:dbgrptt.obj
 0001:0007e910       __vsnwprintf_s             1007f910 f i libucrtd:dbgrptt.obj
 0001:0007ec40       ??$message_box@$$TAAPBDAAPBDAAI@?$__crt_char_traits@D@@SAH$$QA$$TAAPBD1AAI@Z 1007fc40 f i libucrtd:crtmbox.obj
 0001:0007ec70       ??$message_box@$$TAAPB_WAAPB_WAAI@?$__crt_char_traits@_W@@SAH$$QA$$TAAPB_W1AAI@Z 1007fc70 f i libucrtd:crtmbox.obj
 0001:0007eca0       ??$message_box@$$TABQBDABQBDK@?$__crt_char_traits@D@@SAH$$QA$$TABQBD1$$QAK@Z 1007fca0 f i libucrtd:crtmbox.obj
 0001:0007ecd0       ??$message_box@$$TABQB_WABQB_WK@?$__crt_char_traits@_W@@SAH$$QA$$TABQB_W1$$QAK@Z 1007fcd0 f i libucrtd:crtmbox.obj
 0001:0007ed00       ??$message_box@PAUHWND__@@ABQBDABQBDABI@?$__crt_char_traits@D@@SAH$$QAPAUHWND__@@ABQBD1ABI@Z 1007fd00 f i libucrtd:crtmbox.obj
 0001:0007ed30       ??$message_box@PAUHWND__@@ABQB_WABQB_WABI@?$__crt_char_traits@_W@@SAH$$QAPAUHWND__@@ABQB_W1ABI@Z 1007fd30 f i libucrtd:crtmbox.obj
 0001:0007ee00       ??$output_debug_string@ABQBD@?$__crt_char_traits@D@@SAXABQBD@Z 1007fe00 f i libucrtd:crtmbox.obj
 0001:0007ee20       ??$output_debug_string@ABQB_W@?$__crt_char_traits@_W@@SAXABQB_W@Z 1007fe20 f i libucrtd:crtmbox.obj
 0001:0007ee40       ??0?$__crt_unique_handle_t@U__crt_handle_traits@@@@QAE@QAX@Z 1007fe40 f i libucrtd:crtmbox.obj
 0001:0007ee60       ??1?$__crt_unique_handle_t@U__crt_handle_traits@@@@QAE@XZ 1007fe60 f i libucrtd:crtmbox.obj
 0001:0007ee80       ??B?$__crt_unique_handle_t@U__crt_handle_traits@@@@QBE_NXZ 1007fe80 f i libucrtd:crtmbox.obj
 0001:0007eea0       ?close@?$__crt_unique_handle_t@U__crt_handle_traits@@@@QAEXXZ 1007fea0 f i libucrtd:crtmbox.obj
 0001:0007eee0       ?close@__crt_handle_traits@@SA_NPAX@Z 1007fee0 f i libucrtd:crtmbox.obj
 0001:0007ef10       ?get@?$__crt_unique_handle_t@U__crt_handle_traits@@@@QBEPAXXZ 1007ff10 f i libucrtd:crtmbox.obj
 0001:0007ef30       ?get_invalid_value@__crt_handle_traits@@SAPAXXZ 1007ff30 f i libucrtd:crtmbox.obj
 0001:0007ef40       ?is_valid@?$__crt_unique_handle_t@U__crt_handle_traits@@@@QBE_NXZ 1007ff40 f i libucrtd:crtmbox.obj
 0001:0007ef70       ___acrt_show_narrow_message_box 1007ff70 f   libucrtd:crtmbox.obj
 0001:0007ef90       ___acrt_show_wide_message_box 1007ff90 f   libucrtd:crtmbox.obj
 0001:0007efb0       ___acrt_initialize_locks   1007ffb0 f   libucrtd:locks.obj
 0001:0007f010       ___acrt_lock               10080010 f   libucrtd:locks.obj
 0001:0007f030       ___acrt_uninitialize_locks 10080030 f   libucrtd:locks.obj
 0001:0007f080       ___acrt_unlock             10080080 f   libucrtd:locks.obj
 0001:0007f0a0       __lock_locales             100800a0 f   libucrtd:locks.obj
 0001:0007f0c0       __unlock_locales           100800c0 f   libucrtd:locks.obj
 0001:0007f0e0       ??$?B$$A6AXH@Z@__crt_fast_encoded_nullptr_t@@QBEP6AXH@ZXZ 100800e0 f i libucrtd:signal.obj
 0001:0007f100       ??$?RV<lambda_a048d3beccc847880fc8490e18b82769>@@AAV<lambda_ec61778202f4f5fc7e7711acc23c3bca>@@V<lambda_f7496a158712204296dd6628a163878e>@@@?$__crt_seh_guarded_call@P6AXH@Z@@QAEP6AXH@Z$$QAV<lambda_a048d3beccc847880fc8490e18b82769>@@AAV<lambda_ec61778202f4f5fc7e7711acc23c3bca>@@$$QAV<lambda_f7496a158712204296dd6628a163878e>@@@Z 10080100 f i libucrtd:signal.obj
 0001:0007f190       ??$__acrt_lock_and_call@V<lambda_ec61778202f4f5fc7e7711acc23c3bca>@@@@YAP6AXH@ZW4__acrt_lock_id@@$$QAV<lambda_ec61778202f4f5fc7e7711acc23c3bca>@@@Z 10080190 f i libucrtd:signal.obj
 0001:0007f1d0       ??$__crt_fast_decode_pointer@P6AXH@Z@@YAP6AXH@ZQ6AXH@Z@Z 100801d0 f i libucrtd:signal.obj
 0001:0007f200       ??$__crt_fast_encode_pointer@P6AXH@Z@@YAP6AXH@ZQ6AXH@Z@Z 10080200 f i libucrtd:signal.obj
 0001:0007f4c0       ?initialize@?$dual_state_global@P6AXH@Z@__crt_state_management@@QAEXQ6AXH@Z@Z 100804c0 f i libucrtd:signal.obj
 0001:0007f5a0       ?value@?$dual_state_global@P6AXH@Z@__crt_state_management@@QAEAAP6AXH@ZXZ 100805a0 f i libucrtd:signal.obj
 0001:0007f5c0       ___acrt_get_sigabrt_handler 100805c0 f   libucrtd:signal.obj
 0001:0007f5e0       ___acrt_initialize_signal_handlers 100805e0 f   libucrtd:signal.obj
 0001:0007f620       ___fpecode                 10080620 f   libucrtd:signal.obj
 0001:0007f630       ___pxcptinfoptrs           10080630 f   libucrtd:signal.obj
 0001:0007f640       _raise                     10080640 f   libucrtd:signal.obj
 0001:0007fa20       _signal                    10080a20 f   libucrtd:signal.obj
 0001:0007fcb0       __msize                    10080cb0 f   libucrtd:msize.obj
 0001:0007fcd0       __realloc_base             10080cd0 f   libucrtd:realloc_base.obj
 0001:0007fdc0       ??$?B$$A6GHPA_WKJ@Z@__crt_fast_encoded_nullptr_t@@QBEP6GHPA_WKJ@ZXZ 10080dc0 f i libucrtd:winapi_thunks.obj
 0001:0007fde0       ??$?RV<lambda_9227be29367c048ad7fd93a717dcb1a1>@@AAV<lambda_a463b7b0560cfcaf9b17f27c6ef46564>@@V<lambda_ccea11b5727ccf69be64f5f5d9a08d9f>@@@?$__crt_seh_guarded_call@H@@QAEH$$QAV<lambda_9227be29367c048ad7fd93a717dcb1a1>@@AAV<lambda_a463b7b0560cfcaf9b17f27c6ef46564>@@$$QAV<lambda_ccea11b5727ccf69be64f5f5d9a08d9f>@@@Z 10080de0 f i libucrtd:winapi_thunks.obj
 0001:0007fe70       ??$__acrt_lock_and_call@V<lambda_a463b7b0560cfcaf9b17f27c6ef46564>@@@@YAHW4__acrt_lock_id@@$$QAV<lambda_a463b7b0560cfcaf9b17f27c6ef46564>@@@Z 10080e70 f i libucrtd:winapi_thunks.obj
 0001:0007feb0       ??$__crt_fast_decode_pointer@P6GHPA_WKJ@Z@@YAP6GHPA_WKJ@ZQ6GH0KJ@Z@Z 10080eb0 f i libucrtd:winapi_thunks.obj
 0001:0007fee0       ??$__crt_fast_encode_pointer@P6GHPA_WKJ@Z@@YAP6GHPA_WKJ@ZQ6GH0KJ@Z@Z 10080ee0 f i libucrtd:winapi_thunks.obj
 0001:00080780       ___acrt_AreFileApisANSI@0  10081780 f   libucrtd:winapi_thunks.obj
 0001:000807d0       ___acrt_CompareStringEx@36 100817d0 f   libucrtd:winapi_thunks.obj
 0001:00080860       ___acrt_EnumSystemLocalesEx@16 10081860 f   libucrtd:winapi_thunks.obj
 0001:000808d0       ___acrt_FlsAlloc@4         100818d0 f   libucrtd:winapi_thunks.obj
 0001:00080920       ___acrt_FlsFree@4          10081920 f   libucrtd:winapi_thunks.obj
 0001:00080980       ___acrt_FlsGetValue@4      10081980 f   libucrtd:winapi_thunks.obj
 0001:000809e0       ___acrt_FlsSetValue@8      100819e0 f   libucrtd:winapi_thunks.obj
 0001:00080a40       ___acrt_GetDateFormatEx@28 10081a40 f   libucrtd:winapi_thunks.obj
 0001:00080ad0       ___acrt_GetEnabledXStateFeatures@0 10081ad0 f   libucrtd:winapi_thunks.obj
 0001:00080b20       ___acrt_GetFileInformationByHandleEx@16 10081b20 f   libucrtd:winapi_thunks.obj
 0001:00080b80       ___acrt_GetLocaleInfoEx@16 10081b80 f   libucrtd:winapi_thunks.obj
 0001:00080c00       ___acrt_GetSystemTimePreciseAsFileTime@4 10081c00 f   libucrtd:winapi_thunks.obj
 0001:00080c60       ___acrt_GetTimeFormatEx@24 10081c60 f   libucrtd:winapi_thunks.obj
 0001:00080cf0       ___acrt_GetUserDefaultLocaleName@8 10081cf0 f   libucrtd:winapi_thunks.obj
 0001:00080d60       ___acrt_GetXStateFeaturesMask@8 10081d60 f   libucrtd:winapi_thunks.obj
 0001:00080dc0       ___acrt_InitializeCriticalSectionEx@12 10081dc0 f   libucrtd:winapi_thunks.obj
 0001:00080e20       ___acrt_IsValidLocaleName@4 10081e20 f   libucrtd:winapi_thunks.obj
 0001:00080e80       ___acrt_LCIDToLocaleName@16 10081e80 f   libucrtd:winapi_thunks.obj
 0001:00080ef0       ___acrt_LCMapStringEx@36   10081ef0 f   libucrtd:winapi_thunks.obj
 0001:00080f80       ___acrt_LocaleNameToLCID@8 10081f80 f   libucrtd:winapi_thunks.obj
 0001:00080fe0       ___acrt_LocateXStateFeature@12 10081fe0 f   libucrtd:winapi_thunks.obj
 0001:00081040       ___acrt_MessageBoxA@16     10082040 f   libucrtd:winapi_thunks.obj
 0001:000810a0       ___acrt_MessageBoxW@16     100820a0 f   libucrtd:winapi_thunks.obj
 0001:00081100       ___acrt_RoInitialize@4     10082100 f   libucrtd:winapi_thunks.obj
 0001:00081150       ___acrt_RoUninitialize@0   10082150 f   libucrtd:winapi_thunks.obj
 0001:00081190       ___acrt_RtlGenRandom@8     10082190 f   libucrtd:winapi_thunks.obj
 0001:000811f0       ___acrt_SetThreadStackGuarantee@4 100821f0 f   libucrtd:winapi_thunks.obj
 0001:00081240       ___acrt_can_show_message_box 10082240 f   libucrtd:winapi_thunks.obj
 0001:00081270       ___acrt_can_use_vista_locale_apis 10082270 f   libucrtd:winapi_thunks.obj
 0001:000812a0       ___acrt_can_use_xstate_apis 100822a0 f   libucrtd:winapi_thunks.obj
 0001:000812d0       ___acrt_get_parent_window  100822d0 f   libucrtd:winapi_thunks.obj
 0001:00081350       ___acrt_initialize_winapi_thunks 10082350 f   libucrtd:winapi_thunks.obj
 0001:000813c0       ___acrt_is_interactive     100823c0 f   libucrtd:winapi_thunks.obj
 0001:00081470       ___acrt_is_packaged_app    10082470 f   libucrtd:winapi_thunks.obj
 0001:00081580       ___acrt_uninitialize_winapi_thunks 10082580 f   libucrtd:winapi_thunks.obj
 0001:000815f0       __chvalidator              100825f0 f   libucrtd:isctype.obj
 0001:00081640       __chvalidator_l            10082640 f   libucrtd:isctype.obj
 0001:000816e0       __isctype                  100826e0 f   libucrtd:isctype.obj
 0001:00081720       __isctype_l                10082720 f   libucrtd:isctype.obj
 0001:000818a0       ??$?RU__crt_stdio_stream_data@@@__crt_internal_free_policy@@QBEXQBU__crt_stdio_stream_data@@@Z 100828a0 f i libucrtd:stream.obj
 0001:000818c0       ??0?$__crt_unique_heap_ptr@U__crt_stdio_stream_data@@U__crt_internal_free_policy@@@@QAE@QAU__crt_stdio_stream_data@@@Z 100828c0 f i libucrtd:stream.obj
 0001:000818e0       ??0__crt_stdio_stream@@QAE@QAU__crt_stdio_stream_data@@@Z 100828e0 f i libucrtd:stream.obj
 0001:00081900       ??0__crt_stdio_stream@@QAE@XZ 10082900 f i libucrtd:stream.obj
 0001:00081920       ??1?$__crt_unique_heap_ptr@U__crt_stdio_stream_data@@U__crt_internal_free_policy@@@@QAE@XZ 10082920 f i libucrtd:stream.obj
 0001:00081940       ?__acrt_stdio_allocate_stream@@YA?AV__crt_stdio_stream@@XZ 10082940 f   libucrtd:stream.obj
 0001:00081a30       ?__acrt_stdio_free_stream@@YAXV__crt_stdio_stream@@@Z 10082a30 f   libucrtd:stream.obj
 0001:00081ab0       ?deallocate@__crt_stdio_stream@@QAEXXZ 10082ab0 f i libucrtd:stream.obj
 0001:00081ad0       ?detach@?$__crt_unique_heap_ptr@U__crt_stdio_stream_data@@U__crt_internal_free_policy@@@@QAEPAU__crt_stdio_stream_data@@XZ 10082ad0 f i libucrtd:stream.obj
 0001:00081c40       ?lock@__crt_stdio_stream@@QBEXXZ 10082c40 f i libucrtd:stream.obj
 0001:00081c60       ?release@?$__crt_unique_heap_ptr@U__crt_stdio_stream_data@@U__crt_internal_free_policy@@@@QAEXXZ 10082c60 f i libucrtd:stream.obj
 0001:00081c90       ?try_allocate@__crt_stdio_stream@@QAE_NXZ 10082c90 f i libucrtd:stream.obj
 0001:00081ce0       ??$__acrt_stdio_parse_mode@D@@YA?AU__acrt_stdio_stream_mode@@QBD@Z 10082ce0 f i libucrtd:openfile.obj
 0001:00082540       ??$__acrt_stdio_parse_mode@_W@@YA?AU__acrt_stdio_stream_mode@@QB_W@Z 10083540 f i libucrtd:openfile.obj
 0001:000830d0       ??$tcsncmp@AAPBDAAY02$$CBDI@?$__crt_char_traits@D@@SAHAAPBDAAY02$$CBD$$QAI@Z 100840d0 f i libucrtd:openfile.obj
 0001:000830f0       ??$tcsncmp@AAPB_WAAY02$$CB_WI@?$__crt_char_traits@_W@@SAHAAPB_WAAY02$$CB_W$$QAI@Z 100840f0 f i libucrtd:openfile.obj
 0001:00083110       ??$tcsnicmp@AAPBDAAY04$$CBDI@?$__crt_char_traits@D@@SAHAAPBDAAY04$$CBD$$QAI@Z 10084110 f i libucrtd:openfile.obj
 0001:00083130       ??$tcsnicmp@AAPBDAAY06$$CBDI@?$__crt_char_traits@D@@SAHAAPBDAAY06$$CBD$$QAI@Z 10084130 f i libucrtd:openfile.obj
 0001:00083150       ??$tcsnicmp@AAPBDAAY07$$CBDI@?$__crt_char_traits@D@@SAHAAPBDAAY07$$CBD$$QAI@Z 10084150 f i libucrtd:openfile.obj
 0001:00083170       ??$tcsnicmp@AAPB_WAAY04$$CB_WI@?$__crt_char_traits@_W@@SAHAAPB_WAAY04$$CB_W$$QAI@Z 10084170 f i libucrtd:openfile.obj
 0001:00083190       ??$tcsnicmp@AAPB_WAAY06$$CB_WI@?$__crt_char_traits@_W@@SAHAAPB_WAAY06$$CB_W$$QAI@Z 10084190 f i libucrtd:openfile.obj
 0001:000831b0       ??$tcsnicmp@AAPB_WAAY07$$CB_WI@?$__crt_char_traits@_W@@SAHAAPB_WAAY07$$CB_W$$QAI@Z 100841b0 f i libucrtd:openfile.obj
 0001:000831d0       ??$tsopen_s@PAHABQBDABHABHH@?$__crt_char_traits@D@@SAH$$QAPAHABQBDABH2$$QAH@Z 100841d0 f i libucrtd:openfile.obj
 0001:00083200       ??$tsopen_s@PAHABQB_WABHABHH@?$__crt_char_traits@_W@@SAH$$QAPAHABQB_WABH2$$QAH@Z 10084200 f i libucrtd:openfile.obj
 0001:00083230       ?__acrt_stdio_parse_mode_D@@YA_NAAU__acrt_stdio_stream_mode@@@Z 10084230 f i libucrtd:openfile.obj
 0001:00083260       ?__acrt_stdio_parse_mode_N@@YA_NAAU__acrt_stdio_stream_mode@@@Z 10084260 f i libucrtd:openfile.obj
 0001:00083280       ?__acrt_stdio_parse_mode_R@@YA_NAAU__acrt_stdio_stream_mode@@AA_N@Z 10084280 f i libucrtd:openfile.obj
 0001:000832b0       ?__acrt_stdio_parse_mode_S@@YA_NAAU__acrt_stdio_stream_mode@@AA_N@Z 100842b0 f i libucrtd:openfile.obj
 0001:000832e0       ?__acrt_stdio_parse_mode_T@@YA_NAAU__acrt_stdio_stream_mode@@@Z 100842e0 f i libucrtd:openfile.obj
 0001:00083310       ?__acrt_stdio_parse_mode_b@@YA_NAAU__acrt_stdio_stream_mode@@@Z 10084310 f i libucrtd:openfile.obj
 0001:00083340       ?__acrt_stdio_parse_mode_c@@YA_NAAU__acrt_stdio_stream_mode@@AA_N@Z 10084340 f i libucrtd:openfile.obj
 0001:00083370       ?__acrt_stdio_parse_mode_n@@YA_NAAU__acrt_stdio_stream_mode@@AA_N@Z 10084370 f i libucrtd:openfile.obj
 0001:000833a0       ?__acrt_stdio_parse_mode_plus@@YA_NAAU__acrt_stdio_stream_mode@@AA_N@Z 100843a0 f i libucrtd:openfile.obj
 0001:00083410       ?__acrt_stdio_parse_mode_t@@YA_NAAU__acrt_stdio_stream_mode@@@Z 10084410 f i libucrtd:openfile.obj
 0001:00083440       __openfile                 10084440 f   libucrtd:openfile.obj
 0001:00083470       __wopenfile                10084470 f   libucrtd:openfile.obj
 0001:000834a0       ??$?RV<lambda_4d8dda1ac129e11742d77ae5e3bbda74>@@AAV<lambda_a8f98972ebaa5f7148d35bffe53bd70d>@@V<lambda_5193b64c98d743723bd5dcf162a72339>@@@?$__crt_seh_guarded_call@H@@QAEH$$QAV<lambda_4d8dda1ac129e11742d77ae5e3bbda74>@@AAV<lambda_a8f98972ebaa5f7148d35bffe53bd70d>@@$$QAV<lambda_5193b64c98d743723bd5dcf162a72339>@@@Z 100844a0 f i libucrtd:close.obj
 0001:00083530       ??$__acrt_lowio_lock_fh_and_call@V<lambda_a8f98972ebaa5f7148d35bffe53bd70d>@@@@YAHH$$QAV<lambda_a8f98972ebaa5f7148d35bffe53bd70d>@@@Z 10084530 f i libucrtd:close.obj
 0001:00083750       __close                    10084750 f   libucrtd:close.obj
 0001:000838d0       __close_nolock             100848d0 f   libucrtd:close.obj
 0001:00083930       ?has_crt_buffer@__crt_stdio_stream@@QBE_NXZ 10084930 f i libucrtd:_freebuf.obj
 0001:00083950       ___acrt_stdio_free_buffer_nolock 10084950 f   libucrtd:_freebuf.obj
 0001:00083a00       ?__acrt_stdio_reset_buffer@@YAXV__crt_stdio_stream@@@Z 10084a00 f i libucrtd:fflush.obj
 0001:00083a30       ?has_all_of@__crt_stdio_stream@@QBE_NJ@Z 10084a30 f i libucrtd:fflush.obj
 0001:00083a70       ?has_big_buffer@__crt_stdio_stream@@QBE_NXZ 10084a70 f i libucrtd:fflush.obj
 0001:00083a90       ___acrt_stdio_flush_nolock 10084a90 f   libucrtd:fflush.obj
 0001:00083b70       __fflush_nolock            10084b70 f   libucrtd:fflush.obj
 0001:00083bf0       __flushall                 10084bf0 f   libucrtd:fflush.obj
 0001:00083da0       _fflush                    10084da0 f   libucrtd:fflush.obj
 0001:00084570       ___acrt_stdio_flush_and_write_narrow_nolock 10085570 f   libucrtd:_flsbuf.obj
 0001:000845a0       ___acrt_stdio_flush_and_write_wide_nolock 100855a0 f   libucrtd:_flsbuf.obj
 0001:00085510       ??$find_first_file_ex@ABQADW4_FINDEX_INFO_LEVELS@@PAU_WIN32_FIND_DATAA@@W4_FINDEX_SEARCH_OPS@@$$TH@?$__crt_char_traits@D@@SAPAXABQAD$$QAW4_FINDEX_INFO_LEVELS@@$$QAPAU_WIN32_FIND_DATAA@@$$QAW4_FINDEX_SEARCH_OPS@@$$QA$$T$$QAH@Z 10086510 f i libucrtd:argv_wildcards.obj
 0001:00085550       ??$find_first_file_ex@ABQA_WW4_FINDEX_INFO_LEVELS@@PAU_WIN32_FIND_DATAW@@W4_FINDEX_SEARCH_OPS@@$$TH@?$__crt_char_traits@_W@@SAPAXABQA_W$$QAW4_FINDEX_INFO_LEVELS@@$$QAPAU_WIN32_FIND_DATAW@@$$QAW4_FINDEX_SEARCH_OPS@@$$QA$$T$$QAH@Z 10086550 f i libucrtd:argv_wildcards.obj
 0001:00085590       ??$find_next_file@PAXPAU_WIN32_FIND_DATAA@@@?$__crt_char_traits@D@@SAH$$QAPAX$$QAPAU_WIN32_FIND_DATAA@@@Z 10086590 f i libucrtd:argv_wildcards.obj
 0001:000855b0       ??$find_next_file@PAXPAU_WIN32_FIND_DATAW@@@?$__crt_char_traits@_W@@SAH$$QAPAX$$QAPAU_WIN32_FIND_DATAW@@@Z 100865b0 f i libucrtd:argv_wildcards.obj
 0001:000855d0       ??$tcsncpy_s@AAPADIAAPADABI@?$__crt_char_traits@D@@SAHAAPAD$$QAI0ABI@Z 100865d0 f i libucrtd:argv_wildcards.obj
 0001:00085600       ??$tcsncpy_s@AAPA_WIAAPA_WABI@?$__crt_char_traits@_W@@SAHAAPA_W$$QAI0ABI@Z 10086600 f i libucrtd:argv_wildcards.obj
 0001:00085630       ??$tcsncpy_s@PAD$$CBIABQBDABI@?$__crt_char_traits@D@@SAH$$QAPAD$$QBIABQBDABI@Z 10086630 f i libucrtd:argv_wildcards.obj
 0001:00085660       ??$tcsncpy_s@PADABIABQBDABI@?$__crt_char_traits@D@@SAH$$QAPADABIABQBD1@Z 10086660 f i libucrtd:argv_wildcards.obj
 0001:00085690       ??$tcsncpy_s@PA_W$$CBIABQB_WABI@?$__crt_char_traits@_W@@SAH$$QAPA_W$$QBIABQB_WABI@Z 10086690 f i libucrtd:argv_wildcards.obj
 0001:000856c0       ??$tcsncpy_s@PA_WABIABQB_WABI@?$__crt_char_traits@_W@@SAH$$QAPA_WABIABQB_W1@Z 100866c0 f i libucrtd:argv_wildcards.obj
 0001:000856f0       ??$tcspbrk@AAPADAAY02$$CBD@?$__crt_char_traits@D@@SAPADAAPADAAY02$$CBD@Z 100866f0 f i libucrtd:argv_wildcards.obj
 0001:00085710       ??$tcspbrk@AAPA_WAAY02$$CB_W@?$__crt_char_traits@_W@@SAPA_WAAPA_WAAY02$$CB_W@Z 10086710 f i libucrtd:argv_wildcards.obj
 0001:00085730       ??0?$__crt_unique_handle_t@U__crt_findfile_traits@@@@QAE@QAX@Z 10086730 f i libucrtd:argv_wildcards.obj
 0001:00085750       ??0?$argument_list@D@?A0x536e2c96@@QAE@XZ 10086750 f i libucrtd:argv_wildcards.obj
 0001:00085780       ??0?$argument_list@_W@?A0x536e2c96@@QAE@XZ 10086780 f i libucrtd:argv_wildcards.obj
 0001:000857b0       ??1?$__crt_unique_handle_t@U__crt_findfile_traits@@@@QAE@XZ 100867b0 f i libucrtd:argv_wildcards.obj
 0001:000857d0       ??1?$argument_list@D@?A0x536e2c96@@QAE@XZ 100867d0 f i libucrtd:argv_wildcards.obj
 0001:00085820       ??1?$argument_list@_W@?A0x536e2c96@@QAE@XZ 10086820 f i libucrtd:argv_wildcards.obj
 0001:00085930       ?append@?$argument_list@D@?A0x536e2c96@@QAEHQAD@Z 10086930 f i libucrtd:argv_wildcards.obj
 0001:00085990       ?append@?$argument_list@_W@?A0x536e2c96@@QAEHQA_W@Z 10086990 f i libucrtd:argv_wildcards.obj
 0001:000859f0       ?begin@?$argument_list@D@?A0x536e2c96@@QBEPAPADXZ 100869f0 f i libucrtd:argv_wildcards.obj
 0001:00085a10       ?begin@?$argument_list@_W@?A0x536e2c96@@QBEPAPA_WXZ 10086a10 f i libucrtd:argv_wildcards.obj
 0001:00085a30       ?close@?$__crt_unique_handle_t@U__crt_findfile_traits@@@@QAEXXZ 10086a30 f i libucrtd:argv_wildcards.obj
 0001:00085a70       ?close@__crt_findfile_traits@@SA_NPAX@Z 10086a70 f i libucrtd:argv_wildcards.obj
 0001:00085aa0       ?end@?$argument_list@D@?A0x536e2c96@@QBEPAPADXZ 10086aa0 f i libucrtd:argv_wildcards.obj
 0001:00085ac0       ?end@?$argument_list@_W@?A0x536e2c96@@QBEPAPA_WXZ 10086ac0 f i libucrtd:argv_wildcards.obj
 0001:00085ae0       ?expand_if_necessary@?$argument_list@D@?A0x536e2c96@@AAEHXZ 10086ae0 f i libucrtd:argv_wildcards.obj
 0001:00085c40       ?expand_if_necessary@?$argument_list@_W@?A0x536e2c96@@AAEHXZ 10086c40 f i libucrtd:argv_wildcards.obj
 0001:00085da0       ?get@?$__crt_unique_handle_t@U__crt_findfile_traits@@@@QBEPAXXZ 10086da0 f i libucrtd:argv_wildcards.obj
 0001:00085dc0       ?get_invalid_value@__crt_findfile_traits@@SAPAXXZ 10086dc0 f i libucrtd:argv_wildcards.obj
 0001:00085e00       ?size@?$argument_list@D@?A0x536e2c96@@QBEIXZ 10086e00 f i libucrtd:argv_wildcards.obj
 0001:00085e20       ?size@?$argument_list@_W@?A0x536e2c96@@QBEIXZ 10086e20 f i libucrtd:argv_wildcards.obj
 0001:00085e40       ?strpbrk@@YAPADQADQBD@Z    10086e40 f i libucrtd:argv_wildcards.obj
 0001:00085e60       ?wcspbrk@@YAPA_WPA_WPB_W@Z 10086e60 f i libucrtd:argv_wildcards.obj
 0001:00085e80       ___acrt_expand_narrow_argv_wildcards 10086e80 f   libucrtd:argv_wildcards.obj
 0001:00085ea0       ___acrt_expand_wide_argv_wildcards 10086ea0 f   libucrtd:argv_wildcards.obj
 0001:00085ec0       ??$?RV<lambda_694f386f8d9a4d7d5afe1ac229f209db>@@AAV<lambda_2f900415df1f7f624cdaaefe86d0b1c0>@@V<lambda_17c2d007e408fdf31ce10a4c853c6ffa>@@@?$__crt_seh_guarded_call@X@@QAEX$$QAV<lambda_694f386f8d9a4d7d5afe1ac229f209db>@@AAV<lambda_2f900415df1f7f624cdaaefe86d0b1c0>@@$$QAV<lambda_17c2d007e408fdf31ce10a4c853c6ffa>@@@Z 10086ec0 f i libucrtd:mbctype.obj
 0001:00085f40       ??$__acrt_lock_and_call@V<lambda_2f900415df1f7f624cdaaefe86d0b1c0>@@@@YAXW4__acrt_lock_id@@$$QAV<lambda_2f900415df1f7f624cdaaefe86d0b1c0>@@@Z 10086f40 f i libucrtd:mbctype.obj
 0001:00086870       ___acrt_initialize_multibyte 10087870 f   libucrtd:mbctype.obj
 0001:000868a0       ___acrt_update_thread_multibyte_data 100878a0 f   libucrtd:mbctype.obj
 0001:000869b0       ___p__mbcasemap            100879b0 f   libucrtd:mbctype.obj
 0001:000869d0       ___p__mbctype              100879d0 f   libucrtd:mbctype.obj
 0001:000869f0       __getmbcp                  100879f0 f   libucrtd:mbctype.obj
 0001:00086a60       __setmbcp                  10087a60 f   libucrtd:mbctype.obj
 0001:00086a80       __setmbcp_nolock           10087a80 f   libucrtd:mbctype.obj
 0001:00086f63       __ismbbalnum               10087f63 f   libucrtd:ismbbyte.obj
 0001:00086f7e       __ismbbalnum_l             10087f7e f   libucrtd:ismbbyte.obj
 0001:00086f9a       __ismbbalpha               10087f9a f   libucrtd:ismbbyte.obj
 0001:00086fb5       __ismbbalpha_l             10087fb5 f   libucrtd:ismbbyte.obj
 0001:00086fd1       __ismbbblank               10087fd1 f   libucrtd:ismbbyte.obj
 0001:00086ff4       __ismbbblank_l             10087ff4 f   libucrtd:ismbbyte.obj
 0001:00087018       __ismbbgraph               10088018 f   libucrtd:ismbbyte.obj
 0001:00087033       __ismbbgraph_l             10088033 f   libucrtd:ismbbyte.obj
 0001:0008704f       __ismbbkalnum              1008804f f   libucrtd:ismbbyte.obj
 0001:00087067       __ismbbkalnum_l            10088067 f   libucrtd:ismbbyte.obj
 0001:00087080       __ismbbkana                10088080 f   libucrtd:ismbbyte.obj
 0001:00087093       __ismbbkana_l              10088093 f   libucrtd:ismbbyte.obj
 0001:000870e4       __ismbbkprint              100880e4 f   libucrtd:ismbbyte.obj
 0001:000870fc       __ismbbkprint_l            100880fc f   libucrtd:ismbbyte.obj
 0001:00087115       __ismbbkpunct              10088115 f   libucrtd:ismbbyte.obj
 0001:0008712d       __ismbbkpunct_l            1008812d f   libucrtd:ismbbyte.obj
 0001:00087146       __ismbblead                10088146 f   libucrtd:ismbbyte.obj
 0001:0008715e       __ismbblead_l              1008815e f   libucrtd:ismbbyte.obj
 0001:00087177       __ismbbprint               10088177 f   libucrtd:ismbbyte.obj
 0001:00087192       __ismbbprint_l             10088192 f   libucrtd:ismbbyte.obj
 0001:000871ae       __ismbbpunct               100881ae f   libucrtd:ismbbyte.obj
 0001:000871c6       __ismbbpunct_l             100881c6 f   libucrtd:ismbbyte.obj
 0001:000871df       __ismbbtrail               100881df f   libucrtd:ismbbyte.obj
 0001:000871f7       __ismbbtrail_l             100881f7 f   libucrtd:ismbbyte.obj
 0001:00087210       ___acrt_initialize_command_line 10088210 f   libucrtd:argv_data.obj
 0001:00087230       ___acrt_uninitialize_command_line 10088230 f   libucrtd:argv_data.obj
 0001:00087240       ___p___argc                10088240 f   libucrtd:argv_data.obj
 0001:00087250       ___p___argv                10088250 f   libucrtd:argv_data.obj
 0001:00087260       ___p___wargv               10088260 f   libucrtd:argv_data.obj
 0001:00087270       ___p__acmdln               10088270 f   libucrtd:argv_data.obj
 0001:00087280       ___p__pgmptr               10088280 f   libucrtd:argv_data.obj
 0001:00087290       ___p__wcmdln               10088290 f   libucrtd:argv_data.obj
 0001:000872a0       ___p__wpgmptr              100882a0 f   libucrtd:argv_data.obj
 0001:000872b0       __get_pgmptr               100882b0 f   libucrtd:argv_data.obj
 0001:000873c0       __get_wpgmptr              100883c0 f   libucrtd:argv_data.obj
 0001:000874cf       ??0?$__crt_unique_handle_t@Uenvironment_strings_traits@?A0xda6148bb@@@@QAE@QA_W@Z 100884cf f i libucrtd:get_environment_from_os.obj
 0001:000874df       ??1?$__crt_unique_handle_t@Uenvironment_strings_traits@?A0xda6148bb@@@@QAE@XZ 100884df f i libucrtd:get_environment_from_os.obj
 0001:000874f6       ??B?$__crt_unique_handle_t@Uenvironment_strings_traits@?A0xda6148bb@@@@QBE_NXZ 100884f6 f i libucrtd:get_environment_from_os.obj
 0001:000874fe       ?close@?$__crt_unique_handle_t@Uenvironment_strings_traits@?A0xda6148bb@@@@QAEXXZ 100884fe f i libucrtd:get_environment_from_os.obj
 0001:00087515       ?close@environment_strings_traits@?A0xda6148bb@@SA_NPA_W@Z 10088515 f i libucrtd:get_environment_from_os.obj
 0001:0008755e       ?get@?$__crt_unique_handle_t@Uenvironment_strings_traits@?A0xda6148bb@@@@QBEPA_WXZ 1008855e f i libucrtd:get_environment_from_os.obj
 0001:00087561       ?get_invalid_value@environment_strings_traits@?A0xda6148bb@@SAPA_WXZ 10088561 f i libucrtd:get_environment_from_os.obj
 0001:00087564       ?is_valid@?$__crt_unique_handle_t@Uenvironment_strings_traits@?A0xda6148bb@@@@QBE_NXZ 10088564 f i libucrtd:get_environment_from_os.obj
 0001:0008756c       ___dcrt_get_narrow_environment_from_os 1008856c f   libucrtd:get_environment_from_os.obj
 0001:000875fd       ___dcrt_get_wide_environment_from_os 100885fd f   libucrtd:get_environment_from_os.obj
 0001:00087f4c       ??$get_or_create_environment_nolock@$$$V@?$__crt_char_traits@D@@SAPAPADXZ 10088f4c f i libucrtd:setenv.obj
 0001:00087f51       ??$get_or_create_environment_nolock@$$$V@?$__crt_char_traits@_W@@SAPAPA_WXZ 10088f51 f i libucrtd:setenv.obj
 0001:00087f56       ??$set_environment_variable@ABQADQAD@?$__crt_char_traits@D@@SAHABQAD$$QBQAD@Z 10088f56 f i libucrtd:setenv.obj
 0001:00087f6d       ??$set_environment_variable@ABQA_WQA_W@?$__crt_char_traits@_W@@SAHABQA_W$$QBQA_W@Z 10088f6d f i libucrtd:setenv.obj
 0001:00087f84       ??$tcschr@ABQADD@?$__crt_char_traits@D@@SAPADABQAD$$QAD@Z 10088f84 f i libucrtd:setenv.obj
 0001:00087f9e       ??$tcschr@ABQA_WD@?$__crt_char_traits@_W@@SAPA_WABQA_W$$QAD@Z 10088f9e f i libucrtd:setenv.obj
 0001:00087fbc       ??$tcscpy_s@AAPADABIAAPAD@?$__crt_char_traits@D@@SAHAAPADABI0@Z 10088fbc f i libucrtd:setenv.obj
 0001:00087fda       ??$tcscpy_s@AAPA_WABIAAPA_W@?$__crt_char_traits@_W@@SAHAAPA_WABI0@Z 10088fda f i libucrtd:setenv.obj
 0001:00087ff8       ??$tcscpy_s@ABQADABIABQAD@?$__crt_char_traits@D@@SAHABQADABI0@Z 10088ff8 f i libucrtd:setenv.obj
 0001:00088016       ??$tcscpy_s@ABQA_WABIABQA_W@?$__crt_char_traits@_W@@SAHABQA_WABI0@Z 10089016 f i libucrtd:setenv.obj
 0001:00088034       ??$tcslen@ABQAD@?$__crt_char_traits@D@@SAIABQAD@Z 10089034 f i libucrtd:setenv.obj
 0001:0008804c       ??$tcslen@ABQA_W@?$__crt_char_traits@_W@@SAIABQA_W@Z 1008904c f i libucrtd:setenv.obj
 0001:0008806a       ??$tcsnicoll@ABQBDAAPADABI@?$__crt_char_traits@D@@SAHABQBDAAPADABI@Z 1008906a f i libucrtd:setenv.obj
 0001:00088088       ??$tcsnicoll@ABQB_WAAPA_WABI@?$__crt_char_traits@_W@@SAHABQB_WAAPA_WABI@Z 10089088 f i libucrtd:setenv.obj
 0001:000880a6       ??$tcsnlen@QADH@?$__crt_char_traits@D@@SAI$$QBQAD$$QAH@Z 100890a6 f i libucrtd:setenv.obj
 0001:000880be       ??$tcsnlen@QA_WH@?$__crt_char_traits@_W@@SAI$$QBQA_W$$QAH@Z 100890be f i libucrtd:setenv.obj
 0001:000880fa       ?strchr@@YAPADQADH@Z       100890fa f i libucrtd:setenv.obj
 0001:00088105       ?wcschr@@YAPA_WPA_W_W@Z    10089105 f i libucrtd:setenv.obj
 0001:00088110       ___dcrt_set_variable_in_narrow_environment_nolock 10089110 f   libucrtd:setenv.obj
 0001:0008811b       ___dcrt_set_variable_in_wide_environment_nolock 1008911b f   libucrtd:setenv.obj
 0001:00088130       ___acrt_getheap            10089130 f   libucrtd:heap_handle.obj
 0001:00088170       ___acrt_initialize_heap    10089170 f   libucrtd:heap_handle.obj
 0001:000881a0       ___acrt_uninitialize_heap  100891a0 f   libucrtd:heap_handle.obj
 0001:000881c0       __get_heap_handle          100891c0 f   libucrtd:heap_handle.obj
 0001:00088200       ___acrt_execute_initializers 10089200 f   libucrtd:shared_initialization.obj
 0001:000882d0       ___acrt_execute_uninitializers 100892d0 f   libucrtd:shared_initialization.obj
 0001:00088340       ??$__crt_fast_decode_pointer@P6AHPAU_exception@@@Z@@YAP6AHPAU_exception@@@ZQ6AH0@Z@Z 10089340 f i libucrtd:matherr.obj
 0001:00088370       ??$__crt_fast_encode_pointer@P6AHPAU_exception@@@Z@@YAP6AHPAU_exception@@@ZQ6AH0@Z@Z 10089370 f i libucrtd:matherr.obj
 0001:000883a0       ?initialize@?$dual_state_global@P6AHPAU_exception@@@Z@__crt_state_management@@QAEXQ6AHPAU_exception@@@Z@Z 100893a0 f i libucrtd:matherr.obj
 0001:000883e0       ?value@?$dual_state_global@P6AHPAU_exception@@@Z@__crt_state_management@@QAEAAP6AHPAU_exception@@@ZXZ 100893e0 f i libucrtd:matherr.obj
 0001:00088400       ___acrt_has_user_matherr   10089400 f   libucrtd:matherr.obj
 0001:00088440       ___acrt_initialize_user_matherr 10089440 f   libucrtd:matherr.obj
 0001:00088460       ___acrt_invoke_user_matherr 10089460 f   libucrtd:matherr.obj
 0001:000884c0       ___setusermatherr          100894c0 f   libucrtd:matherr.obj
 0001:000884f0       ??$__crt_interlocked_exchange_pointer@X$$T@@YAPAXPDSAX$$T@Z 100894f0 f i libucrtd:free_base.obj
 0001:00088510       ___acrt_get_msvcrt_heap_handle 10089510 f   libucrtd:free_base.obj
 0001:000885d0       __free_base                100895d0 f   libucrtd:free_base.obj
 0001:00088620       __aligned_free             10089620 f   libucrtd:align.obj
 0001:00088640       __aligned_free_base        10089640 f   libucrtd:align.obj
 0001:00088680       __aligned_malloc           10089680 f   libucrtd:align.obj
 0001:000886a0       __aligned_malloc_base      100896a0 f   libucrtd:align.obj
 0001:000886c0       __aligned_msize            100896c0 f   libucrtd:align.obj
 0001:000886e0       __aligned_msize_base       100896e0 f   libucrtd:align.obj
 0001:00088810       __aligned_offset_malloc    10089810 f   libucrtd:align.obj
 0001:00088830       __aligned_offset_malloc_base 10089830 f   libucrtd:align.obj
 0001:000889e0       __aligned_offset_realloc   100899e0 f   libucrtd:align.obj
 0001:00088a10       __aligned_offset_realloc_base 10089a10 f   libucrtd:align.obj
 0001:00088d30       __aligned_offset_recalloc  10089d30 f   libucrtd:align.obj
 0001:00088d60       __aligned_offset_recalloc_base 10089d60 f   libucrtd:align.obj
 0001:00088e10       __aligned_realloc          10089e10 f   libucrtd:align.obj
 0001:00088e40       __aligned_realloc_base     10089e40 f   libucrtd:align.obj
 0001:00088e60       __aligned_recalloc         10089e60 f   libucrtd:align.obj
 0001:00088e90       __aligned_recalloc_base    10089e90 f   libucrtd:align.obj
 0001:00088f10       __expand                   10089f10 f   libucrtd:expand.obj
 0001:00088f30       __expand_base              10089f30 f   libucrtd:expand.obj
 0001:00089060       ?value@?$dual_state_global@J@__crt_state_management@@QAEAAJXZ 1008a060 f i libucrtd:new_mode.obj
 0001:00089080       __query_new_mode           1008a080 f   libucrtd:new_mode.obj
 0001:000890a0       __set_new_mode             1008a0a0 f   libucrtd:new_mode.obj
 0001:00089140       __CrtDefaultAllocHook      1008a140 f   libucrtd:debug_heap_hook.obj
 0001:0008914c       __mbsdec                   1008a14c f   libucrtd:mbsdec.obj
 0001:00089163       __mbsdec_l                 1008a163 f   libucrtd:mbsdec.obj
 0001:00089660       _strncpy_s                 1008a660 f   libucrtd:strncpy_s.obj
 0001:00089830       ___acrt_report_runtime_error 1008a830 f   libucrtd:report_runtime_error.obj
 0001:00089a20       __query_app_type           1008aa20 f   libucrtd:report_runtime_error.obj
 0001:00089a30       __set_app_type             1008aa30 f   libucrtd:report_runtime_error.obj
 0001:00089a40       __iswctype_l               1008aa40 f   libucrtd:iswctype.obj
 0001:00089a60       _iswctype                  1008aa60 f   libucrtd:iswctype.obj
 0001:00089ad0       ___iswcsym                 1008aad0 f i libucrtd:_wctype.obj
 0001:00089b10       ___iswcsymf                1008ab10 f i libucrtd:_wctype.obj
 0001:00089b50       __isleadbyte_l             1008ab50 f i libucrtd:_wctype.obj
 0001:00089b90       __iswalnum_l               1008ab90 f i libucrtd:_wctype.obj
 0001:00089bb0       __iswalpha_l               1008abb0 f i libucrtd:_wctype.obj
 0001:00089bd0       __iswblank_l               1008abd0 f i libucrtd:_wctype.obj
 0001:00089c10       __iswcntrl_l               1008ac10 f i libucrtd:_wctype.obj
 0001:00089c30       __iswcsym_l                1008ac30 f i libucrtd:_wctype.obj
 0001:00089c70       __iswcsymf_l               1008ac70 f i libucrtd:_wctype.obj
 0001:00089cb0       __iswdigit_l               1008acb0 f i libucrtd:_wctype.obj
 0001:00089cd0       __iswgraph_l               1008acd0 f i libucrtd:_wctype.obj
 0001:00089cf0       __iswlower_l               1008acf0 f i libucrtd:_wctype.obj
 0001:00089d10       __iswprint_l               1008ad10 f i libucrtd:_wctype.obj
 0001:00089d30       __iswpunct_l               1008ad30 f i libucrtd:_wctype.obj
 0001:00089d50       __iswspace_l               1008ad50 f i libucrtd:_wctype.obj
 0001:00089d70       __iswupper_l               1008ad70 f i libucrtd:_wctype.obj
 0001:00089d90       __iswxdigit_l              1008ad90 f i libucrtd:_wctype.obj
 0001:00089db0       _isleadbyte                1008adb0 f i libucrtd:_wctype.obj
 0001:00089dd0       _iswalnum                  1008add0 f i libucrtd:_wctype.obj
 0001:00089df0       _iswalpha                  1008adf0 f i libucrtd:_wctype.obj
 0001:00089e10       _iswascii                  1008ae10 f i libucrtd:_wctype.obj
 0001:00089e40       _iswblank                  1008ae40 f i libucrtd:_wctype.obj
 0001:00089e80       _iswcntrl                  1008ae80 f i libucrtd:_wctype.obj
 0001:00089ea0       _iswdigit                  1008aea0 f i libucrtd:_wctype.obj
 0001:00089ec0       _iswgraph                  1008aec0 f i libucrtd:_wctype.obj
 0001:00089ee0       _iswlower                  1008aee0 f i libucrtd:_wctype.obj
 0001:00089f00       _iswprint                  1008af00 f i libucrtd:_wctype.obj
