 OPOSLights

 Timestamp is 600f7919 (Tue Jan 26 11:06:17 2021)

 Preferred load address is 10000000

 Start         Length     Name                   Class
 0001:00000000 00000d90H .text$di                CODE
 0001:00000d90 000a8f60H .text$mn                CODE
 0001:000a9cf0 000001c0H .text$x                 CODE
 0001:000a9eb0 00000120H .text$yd                CODE
 0002:00000000 00000358H .idata$5                DATA
 0002:00000358 00000008H .00cfg                  DATA
 0002:00000360 00000004H .CRT$XCA                DATA
 0002:00000364 00000004H .CRT$XCL                DATA
 0002:00000368 0000006cH .CRT$XCU                DATA
 0002:000003d4 00000004H .CRT$XCZ                DATA
 0002:000003d8 00000004H .CRT$XIA                DATA
 0002:000003dc 00000014H .CRT$XIC                DATA
 0002:000003f0 00000004H .CRT$XIZ                DATA
 0002:000003f4 00000004H .CRT$XLA                DATA
 0002:000003f8 00000004H .CRT$XLZ                DATA
 0002:000003fc 00000004H .CRT$XPA                DATA
 0002:00000400 00000008H .CRT$XPX                DATA
 0002:00000408 00000004H .CRT$XPXA               DATA
 0002:0000040c 00000004H .CRT$XPZ                DATA
 0002:00000410 00000004H .CRT$XTA                DATA
 0002:00000414 0000000cH .CRT$XTZ                DATA
 0002:00000418 00000000H .gfids$y                DATA
 0002:00000420 0002faa0H .rdata                  DATA
 0002:0002fec0 00000004H .rdata$CastGuardVftablesA DATA
 0002:0002fec4 00000004H .rdata$CastGuardVftablesC DATA
 0002:0002fec8 00000018H .rdata$T                DATA
 0002:0002fee0 0000033cH .rdata$r                DATA
 0002:0003021c 00000044H .rdata$sxdata           DATA
 0002:00030260 00000448H .rdata$zzzdbg           DATA
 0002:000306a8 00000004H .rtc$IAA                DATA
 0002:000306ac 00000018H .rtc$IMZ                DATA
 0002:000306c4 00000004H .rtc$IZZ                DATA
 0002:000306c8 00000004H .rtc$TAA                DATA
 0002:000306cc 00000018H .rtc$TMZ                DATA
 0002:000306e4 00000004H .rtc$TZZ                DATA
 0002:000306e8 00000004H .tls                    DATA
 0002:000306ec 00000004H .tls$                   DATA
 0002:000306f0 00000008H .tls$ZZZ                DATA
 0002:000306f8 00000e4cH .xdata$x                DATA
 0002:00031544 00000004H ATL$__a                 DATA
 0002:00031548 00000008H ATL$__z                 DATA
 0002:00031550 000000a8H .edata                  DATA
 0002:000315f8 00000078H .idata$2                DATA
 0002:00031670 00000014H .idata$3                DATA
 0002:00031684 00000358H .idata$4                DATA
 0002:000319dc 00000d56H .idata$6                DATA
 0003:00000000 00000b80H .data                   DATA
 0003:00000b80 00000138H .data$r                 DATA
 0003:00000cb8 00003588H .bss                    DATA
 0004:00000000 00000220H .rsrc$01                DATA
 0004:00000220 000036b8H .rsrc$02                DATA

  Address         Publics by Value              Rva+Base       Lib:Object

 0000:00000000       ___guard_longjmp_table     00000000     <absolute>
 0000:00000000       ___arm64x_extra_rfe_table_size 00000000     <absolute>
 0000:00000000       ___enclave_config          00000000     <absolute>
 0000:00000000       ___guard_iat_table         00000000     <absolute>
 0000:00000000       ___hybrid_code_map         00000000     <absolute>
 0000:00000000       ___guard_longjmp_count     00000000     <absolute>
 0000:00000000       ___guard_fids_table        00000000     <absolute>
 0000:00000000       ___x64_code_ranges_to_entry_points_count 00000000     <absolute>
 0000:00000000       ___volatile_metadata       00000000     <absolute>
 0000:00000000       __except_list              00000000     <absolute>
 0000:00000000       ___arm64x_extra_rfe_table  00000000     <absolute>
 0000:00000000       ___guard_iat_count         00000000     <absolute>
 0000:00000000       ___x64_code_ranges_to_entry_points 00000000     <absolute>
 0000:00000000       ___arm64x_redirection_metadata 00000000     <absolute>
 0000:00000000       ___guard_eh_cont_table     00000000     <absolute>
 0000:00000000       ___hybrid_auxiliary_iat    00000000     <absolute>
 0000:00000000       ___hybrid_code_map_count   00000000     <absolute>
 0000:00000000       ___dynamic_value_reloc_table 00000000     <absolute>
 0000:00000000       ___arm64x_redirection_metadata_count 00000000     <absolute>
 0000:00000000       ___guard_fids_count        00000000     <absolute>
 0000:00000000       ___arm64x_native_entrypoint 00000000     <absolute>
 0000:00000000       ___guard_eh_cont_count     00000000     <absolute>
 0000:00000000       ___AbsoluteZero            00000000     <absolute>
 0000:00000011       ___safe_se_handler_count   00000011     <absolute>
 0000:0000002c       __tls_array                0000002c     <absolute>
 0000:00000100       ___guard_flags             00000100     <absolute>
 0000:00000000       ___ImageBase               10000000     <linker-defined>
 0001:00000d90       ?_assert@@YAXPB_W0I@Z      10001d90 f   Assert.obj
 0001:00000ec0       ___local_stdio_printf_options 10001ec0 f i Assert.obj
 0001:00000ed0       ___vswprintf_l             10001ed0 f i Assert.obj
 0001:00000f00       __swprintf                 10001f00 f i Assert.obj
 0001:00000f60       __vswprintf_c_l            10001f60 f i Assert.obj
 0001:00000fd0       __vswprintf_l              10001fd0 f i Assert.obj
 0001:00001000       ?cw_memcpy@@YGHPADPB_WH@Z  10002000 f   CWString.obj
 0001:00001060       ?cw_memcpy@@YGHPA_WPBDH@Z  10002060 f   CWString.obj
 0001:000010c0       ?cw_memcpy@@YGHPADPBDH@Z   100020c0 f   CWString.obj
 0001:00001110       ?cw_memcpy@@YGHPA_WPB_WH@Z 10002110 f   CWString.obj
 0001:00001150       ?cw_memset@@YAXPADDH@Z     10002150 f   CWString.obj
 0001:00001170       ?cw_memset@@YAXPA_W_WH@Z   10002170 f   CWString.obj
 0001:00001190       ?cw_strlen@@YAHPBD@Z       10002190 f   CWString.obj
 0001:000011e0       ?cw_strlen@@YAHPB_W@Z      100021e0 f   CWString.obj
 0001:00001230       ?cw_strcpy@@YAHPADPB_W@Z   10002230 f   CWString.obj
 0001:00001250       ?cw_strcpy@@YAHPA_WPBD@Z   10002250 f   CWString.obj
 0001:00001270       ?cw_strcpy@@YAHPADPBD@Z    10002270 f   CWString.obj
 0001:00001290       ?cw_strcpy@@YAHPA_WPB_W@Z  10002290 f   CWString.obj
 0001:000012b0       ?cw_strcat@@YAHPADPB_W@Z   100022b0 f   CWString.obj
 0001:000012e0       ?cw_strcat@@YAHPA_WPBD@Z   100022e0 f   CWString.obj
 0001:00001310       ?cw_strcat@@YAHPADPBD@Z    10002310 f   CWString.obj
 0001:00001340       ?cw_strcat@@YAHPA_WPB_W@Z  10002340 f   CWString.obj
 0001:00001370       ?cw_dup@@YGXPBDAAHAAPA_W1@Z 10002370 f   CWString.obj
 0001:00001430       ?cw_dup@@YGXPB_WAAHAAPAD1@Z 10002430 f   CWString.obj
 0001:000014e0       ?DupChar@_CW@@AAEXXZ       100024e0 f   CWString.obj
 0001:00001530       ?DupWide@_CW@@AAEXXZ       10002530 f   CWString.obj
 0001:00001580       ?GetCharsMbcs@_CW@@QAEHXZ  10002580 f   CWString.obj
 0001:000015e0       ?GetCharsWide@_CW@@QAEHXZ  100025e0 f   CWString.obj
 0001:00001640       ?SetVARIANT_BOOL@OposVariant@@QAEXF@Z 10002640 f   OposVariant.obj
 0001:000016a0       ?SetVARIANT_BOOL_Ptr@OposVariant@@QAEXPAFAAJ@Z 100026a0 f   OposVariant.obj
 0001:000016f0       ?GetLONG@OposVariant@@QAEJXZ 100026f0 f   OposVariant.obj
 0001:00001780       ?ChangeLONG@OposVariant@@QAEXPAJAAJ@Z 10002780 f   OposVariant.obj
 0001:00001840       ?SetLONG@OposVariant@@QAEXJ@Z 10002840 f   OposVariant.obj
 0001:00001880       ?SetLONG_Ptr@OposVariant@@QAEXPAJAAJ@Z 10002880 f   OposVariant.obj
 0001:000018d0       ?ChangeCURRENCY@OposVariant@@QAEXPATtagCY@@AAJ@Z 100028d0 f   OposVariant.obj
 0001:00001990       ?SetCURRENCY@OposVariant@@QAEXTtagCY@@@Z 10002990 f   OposVariant.obj
 0001:000019d0       ?SetCURRENCY_Ptr@OposVariant@@QAEXPATtagCY@@AAJ@Z 100029d0 f   OposVariant.obj
 0001:00001a20       ?ChangeBSTR@OposVariant@@QAEXPAPA_WAAJ@Z 10002a20 f   OposVariant.obj
 0001:00001ae0       ?SetBSTR@OposVariant@@QAEXPA_WAAJ@Z 10002ae0 f   OposVariant.obj
 0001:00001b30       ?SetBSTR_Copy@OposVariant@@QAEXPA_WAAJ@Z 10002b30 f   OposVariant.obj
 0001:00001bd0       ?SetBSTR_OutPtr@OposVariant@@QAE_NPAPA_WAAJ@Z 10002bd0 f   OposVariant.obj
 0001:00001c20       ?SetBSTR_InOutPtr@OposVariant@@QAE_NPAPA_WAAJ@Z 10002c20 f   OposVariant.obj
 0001:00001c70       ?SetVARIANT@OposVariant@@QAEXAAUtagVARIANT@@GAAJ@Z 10002c70 f   OposVariant.obj
 0001:00001cf0       ?SetVARIANT_Ptr@OposVariant@@QAEXAAPAUtagVARIANT@@GAAJ@Z 10002cf0 f   OposVariant.obj
 0001:00001d90       ?SetString@OposVariant@@QAEXPB_WAAJ@Z 10002d90 f   OposVariant.obj
 0001:00001e20       ?SetDispatch_Ptr@OposVariant@@QAEXPAUIDispatch@@AAJ@Z 10002e20 f   OposVariant.obj
 0001:00001e90       ??0OposDispParms@@QAE@PAVOposVariant@@H@Z 10002e90 f   OposVariant.obj
 0001:00001f60       ??1OposDispParms@@QAE@XZ   10002f60 f   OposVariant.obj
 0001:00001fb0       ??$AtlMultiply@I@ATL@@YAJPAIII@Z 10002fb0 f i OposVariant.obj
 0001:00002010       ??0?$CHeapPtr@_WVCCRTAllocator@ATL@@@ATL@@QAE@XZ 10003010 f i OposVariant.obj
 0001:00002040       ??0?$CHeapPtrBase@_WVCCRTAllocator@ATL@@@ATL@@IAE@XZ 10003040 f i OposVariant.obj
 0001:00002060       ??0?$CSimpleArray@GV?$CSimpleArrayEqualHelper@G@ATL@@@ATL@@QAE@XZ 10003060 f i OposVariant.obj
 0001:000020a0       ??0?$CTraceCategoryEx@$00$0A@@ATL@@QAE@PB_W@Z 100030a0 f i OposVariant.obj
 0001:000020d0       ??0?$CTraceCategoryEx@$01$0A@@ATL@@QAE@PB_W@Z 100030d0 f i OposVariant.obj
 0001:00002100       ??0?$CTraceCategoryEx@$03$0A@@ATL@@QAE@PB_W@Z 10003100 f i OposVariant.obj
 0001:00002130       ??0?$CTraceCategoryEx@$07$0A@@ATL@@QAE@PB_W@Z 10003130 f i OposVariant.obj
 0001:00002160       ??0?$CTraceCategoryEx@$0BA@$0A@@ATL@@QAE@PB_W@Z 10003160 f i OposVariant.obj
 0001:00002190       ??0?$CTraceCategoryEx@$0BAA@$0A@@ATL@@QAE@PB_W@Z 10003190 f i OposVariant.obj
 0001:000021d0       ??0?$CTraceCategoryEx@$0BAAA@$0A@@ATL@@QAE@PB_W@Z 100031d0 f i OposVariant.obj
 0001:00002210       ??0?$CTraceCategoryEx@$0BAAAA@$0A@@ATL@@QAE@PB_W@Z 10003210 f i OposVariant.obj
 0001:00002250       ??0?$CTraceCategoryEx@$0BAAAAA@$0A@@ATL@@QAE@PB_W@Z 10003250 f i OposVariant.obj
 0001:00002290       ??0?$CTraceCategoryEx@$0CA@$0A@@ATL@@QAE@PB_W@Z 10003290 f i OposVariant.obj
 0001:000022c0       ??0?$CTraceCategoryEx@$0CAA@$0A@@ATL@@QAE@PB_W@Z 100032c0 f i OposVariant.obj
 0001:00002300       ??0?$CTraceCategoryEx@$0CAAA@$0A@@ATL@@QAE@PB_W@Z 10003300 f i OposVariant.obj
 0001:00002340       ??0?$CTraceCategoryEx@$0CAAAA@$0A@@ATL@@QAE@PB_W@Z 10003340 f i OposVariant.obj
 0001:00002380       ??0?$CTraceCategoryEx@$0CAAAAA@$0A@@ATL@@QAE@PB_W@Z 10003380 f i OposVariant.obj
 0001:000023c0       ??0?$CTraceCategoryEx@$0EA@$0A@@ATL@@QAE@PB_W@Z 100033c0 f i OposVariant.obj
 0001:000023f0       ??0?$CTraceCategoryEx@$0EAA@$0A@@ATL@@QAE@PB_W@Z 100033f0 f i OposVariant.obj
 0001:00002430       ??0?$CTraceCategoryEx@$0EAAA@$0A@@ATL@@QAE@PB_W@Z 10003430 f i OposVariant.obj
 0001:00002470       ??0?$CTraceCategoryEx@$0EAAAA@$0A@@ATL@@QAE@PB_W@Z 10003470 f i OposVariant.obj
 0001:000024b0       ??0?$CTraceCategoryEx@$0EAAAAA@$0A@@ATL@@QAE@PB_W@Z 100034b0 f i OposVariant.obj
 0001:000024f0       ??0?$CTraceCategoryEx@$0IA@$0A@@ATL@@QAE@PB_W@Z 100034f0 f i OposVariant.obj
 0001:00002530       ??0?$CTraceCategoryEx@$0IAA@$0A@@ATL@@QAE@PB_W@Z 10003530 f i OposVariant.obj
 0001:00002570       ??0?$CTraceCategoryEx@$0IAAA@$0A@@ATL@@QAE@PB_W@Z 10003570 f i OposVariant.obj
 0001:000025b0       ??0?$CTraceCategoryEx@$0IAAAA@$0A@@ATL@@QAE@PB_W@Z 100035b0 f i OposVariant.obj
 0001:000025f0       ??0CAtlComModule@ATL@@QAE@XZ 100035f0 f i OposVariant.obj
 0001:000026d0       ??0CAtlWinModule@ATL@@QAE@XZ 100036d0 f i OposVariant.obj
 0001:00002760       ??0CComCriticalSection@ATL@@QAE@XZ 10003760 f i OposVariant.obj
 0001:00002790       ??0CPreserveLastError@ATL@@QAE@XZ 10003790 f i OposVariant.obj
 0001:000027d0       ??0CTraceFileAndLineInfo@ATL@@QAE@PBDH@Z 100037d0 f i OposVariant.obj
 0001:00002800       ??0_ATL_COM_MODULE70@ATL@@QAE@XZ 10003800 f i OposVariant.obj
 0001:00002830       ??0_ATL_WIN_MODULE70@ATL@@QAE@XZ 10003830 f i OposVariant.obj
 0001:00002870       ??1?$CHeapPtr@_WVCCRTAllocator@ATL@@@ATL@@QAE@XZ 10003870 f i OposVariant.obj
 0001:000028a0       ??1?$CHeapPtrBase@_WVCCRTAllocator@ATL@@@ATL@@QAE@XZ 100038a0 f i OposVariant.obj
 0001:000028d0       ??1?$CSimpleArray@GV?$CSimpleArrayEqualHelper@G@ATL@@@ATL@@QAE@XZ 100038d0 f i OposVariant.obj
 0001:00002900       ??1CAtlComModule@ATL@@QAE@XZ 10003900 f i OposVariant.obj
 0001:00002930       ??1CAtlWinModule@ATL@@QAE@XZ 10003930 f i OposVariant.obj
 0001:00002960       ??1CComBSTR@ATL@@QAE@XZ    10003960 f i OposVariant.obj
 0001:000029a0       ??1CComCriticalSection@ATL@@QAE@XZ 100039a0 f i OposVariant.obj
 0001:000029c0       ??1CPreserveLastError@ATL@@QAE@XZ 100039c0 f i OposVariant.obj
 0001:00002a00       ??1_ATL_COM_MODULE70@ATL@@QAE@XZ 10003a00 f i OposVariant.obj
 0001:00002a30       ??1_ATL_WIN_MODULE70@ATL@@QAE@XZ 10003a30 f i OposVariant.obj
 0001:00002a70       ??1stringdispid@CComTypeInfoHolder@ATL@@QAE@XZ 10003a70 f i OposVariant.obj
 0001:00002aa0       ??A?$CSimpleArray@GV?$CSimpleArrayEqualHelper@G@ATL@@@ATL@@QAEAAGH@Z 10003aa0 f i OposVariant.obj
 0001:00002b20       ??B?$CHeapPtrBase@_WVCCRTAllocator@ATL@@@ATL@@QBEPA_WXZ 10003b20 f i OposVariant.obj
 0001:00002b40       ??B?$CTraceCategoryEx@$01$0A@@ATL@@QAEIXZ 10003b40 f i OposVariant.obj
 0001:00002b60       ??B?$CTraceCategoryEx@$0CA@$0A@@ATL@@QAEIXZ 10003b60 f i OposVariant.obj
 0001:00002b80       ??RCTraceFileAndLineInfo@ATL@@QBAXHIPB_WZZ 10003b80 f i OposVariant.obj
 0001:00002c20       ??_Estringdispid@CComTypeInfoHolder@ATL@@QAEPAXI@Z 10003c20 f i OposVariant.obj
 0001:00002cb0       ??_H@YGXPAXIIP6EPAX0@Z@Z   10003cb0 f i OposVariant.obj
 0001:00002d20       ??_I@YGXPAXIIP6EX0@Z@Z     10003d20 f i OposVariant.obj
 0001:00002da0       ?Allocate@?$CHeapPtr@_WVCCRTAllocator@ATL@@@ATL@@QAE_NI@Z 10003da0 f i OposVariant.obj
 0001:00002e30       ?Allocate@CCRTAllocator@ATL@@SAPAXI@Z 10003e30 f i OposVariant.obj
 0001:00002e50       ?AllocateBytes@?$CHeapPtrBase@_WVCCRTAllocator@ATL@@@ATL@@QAE_NI@Z 10003e50 f i OposVariant.obj
 0001:00002ec0       ?AtlWinModuleInit@ATL@@YGJPAU_ATL_WIN_MODULE70@1@@Z 10003ec0 f i OposVariant.obj
 0001:00002f90       ?AtlWinModuleTerm@ATL@@YGJPAU_ATL_WIN_MODULE70@1@PAUHINSTANCE__@@@Z 10003f90 f i OposVariant.obj
 0001:00003050       ?Clear@OposVariant@@QAEJXZ 10004050 f i OposVariant.obj
 0001:00003090       ?Free@?$CHeapPtrBase@_WVCCRTAllocator@ATL@@@ATL@@QAEXXZ 10004090 f i OposVariant.obj
 0001:000030d0       ?Free@CCRTAllocator@ATL@@SAXPAX@Z 100040d0 f i OposVariant.obj
 0001:000030f0       ?GetCategoryName@CTrace@ATL@@CAPA_WI@Z 100040f0 f i OposVariant.obj
 0001:00003140       ?GetModuleInstance@CAtlBaseModule@ATL@@QAEPAUHINSTANCE__@@XZ 10004140 f i OposVariant.obj
 0001:00003160       ?GetSize@?$CSimpleArray@GV?$CSimpleArrayEqualHelper@G@ATL@@@ATL@@QBEHXZ 10004160 f i OposVariant.obj
 0001:00003180       ?Init@CComCriticalSection@ATL@@QAEJXZ 10004180 f i OposVariant.obj
 0001:000031e0       ?RegisterCategory@CTrace@ATL@@SAXPB_WI@Z 100041e0 f i OposVariant.obj
 0001:00003270       ?RemoveAll@?$CSimpleArray@GV?$CSimpleArrayEqualHelper@G@ATL@@@ATL@@QAEXXZ 10004270 f i OposVariant.obj
 0001:000032f0       ?Term@CAtlComModule@ATL@@QAEXXZ 100042f0 f i OposVariant.obj
 0001:000033b0       ?Term@CAtlWinModule@ATL@@QAEXXZ 100043b0 f i OposVariant.obj
 0001:000033e0       ?Term@CComCriticalSection@ATL@@QAEJXZ 100043e0 f i OposVariant.obj
 0001:00003420       ?TraceV@CTrace@ATL@@CAXPBDHIIPB_W@Z 10004420 f i OposVariant.obj
 0001:000036a0       ?TraceV@CTrace@ATL@@SAXPBDHIIPB_WPAD@Z 100046a0 f i OposVariant.obj
 0001:000037e0       ?_AtlInitializeCriticalSectionEx@ATL@@YAHPAU_RTL_CRITICAL_SECTION@@KK@Z 100047e0 f i OposVariant.obj
 0001:00003810       ?_AtlRaiseException@ATL@@YAXKK@Z 10004810 f i OposVariant.obj
 0001:00003840       _HRESULT_FROM_WIN32        10004840 f i OposVariant.obj
 0001:00003880       __vswprintf_s_l            10004880 f i OposVariant.obj
 0001:000038f0       _swprintf_s                100048f0 f i OposVariant.obj
 0001:00003950       ?ObjectMain@CComObjectRootBase@ATL@@SGX_N@Z 10004950 f i Lights.obj
 0001:00003960       ?GetCategoryMap@CComObjectRootBase@ATL@@SAPBU_ATL_CATMAP_ENTRY@2@XZ 10004960 f i Lights.obj
 0001:00003970       ?GetObjectDescription@?$CComCoClass@VCOPOSLights@@$1?CLSID_OPOSLights@@3U_GUID@@B@ATL@@SGPB_WXZ 10004970 f i Lights.obj
 0001:00003980       ?UpdateRegistry@COPOSLights@@SGJH@Z 10004980 f i Lights.obj
 0001:000039a0       ?CreateInstance@?$CComCreator@V?$CComObjectCached@VCComClassFactory@ATL@@@ATL@@@ATL@@SGJPAXABU_GUID@@PAPAX@Z 100049a0 f i Lights.obj
 0001:00003b20       ?CreateInstance@?$CComCreator2@V?$CComCreator@V?$CComObject@VCOPOSLights@@@ATL@@@ATL@@V?$CComCreator@V?$CComAggObject@VCOPOSLights@@@ATL@@@2@@ATL@@SGJPAXABU_GUID@@PAPAX@Z 10004b20 f i Lights.obj
 0001:00003cd0       _DllGetClassObject@12      10004cd0 f   Lights.obj
 0001:00003d00       _DllCanUnloadNow@0         10004d00 f   Lights.obj
 0001:00003d40       _DllRegisterServer@0       10004d40 f   Lights.obj
 0001:00003d60       _DllUnregisterServer@0     10004d60 f   Lights.obj
 0001:00003ef0       _DllMain@12                10004ef0 f   Lights.obj
 0001:00003f50       ??$?2G@Wrapper@?$CSimpleArray@GV?$CSimpleArrayEqualHelper@G@ATL@@@ATL@@SAPAXIPAG@Z 10004f50 f i Lights.obj
 0001:00003f60       ??$?2PA_W@?$Wrapper@PA_W@?$CSimpleMap@PA_WPA_WVCExpansionVectorEqualHelper@ATL@@@ATL@@SAPAXIPAPA_W@Z 10004f60 f i Lights.obj
 0001:00003f70       ??$?4UITypeInfo2@@@?$CComPtr@UITypeInfo@@@ATL@@QAEPAUITypeInfo@@ABV?$CComPtr@UITypeInfo2@@@1@@Z 10004f70 f i Lights.obj
 0001:00003fd0       ??$AtlAdd@K@ATL@@YAJPAKKK@Z 10004fd0 f i Lights.obj
 0001:00004010       ??$AtlAdd@_K@ATL@@YAJPA_K_K1@Z 10005010 f i Lights.obj
 0001:00004080       ??$AtlAddThrow@K@ATL@@YAKKK@Z 10005080 f i Lights.obj
 0001:00004100       ??$AtlModuleRegisterWndClassInfoT@VAtlModuleRegisterWndClassInfoParamW@ATL@@@ATL@@YAGPAU_ATL_BASE_MODULE70@0@PAU_ATL_WIN_MODULE70@0@PAU_ATL_WNDCLASSINFOW@0@PAP6GJPAUHWND__@@IIJ@ZVAtlModuleRegisterWndClassInfoParamW@0@@Z 10005100 f i Lights.obj
 0001:00004510       ??$AtlMultiply@H@ATL@@YAJPAHHH@Z 10005510 f i Lights.obj
 0001:00004590       ??$AtlMultiply@K@ATL@@YAJPAKKK@Z 10005590 f i Lights.obj
 0001:000045f0       ??$AtlMultiplyThrow@I@ATL@@YAIII@Z 100055f0 f i Lights.obj
 0001:00004670       ??$QueryInterface@UIPersistStream@@@IUnknown@@QAGJPAPAUIPersistStream@@@Z 10005670 f i Lights.obj
 0001:000046a0       ??$QueryInterface@UITypeInfo2@@@IUnknown@@QAGJPAPAUITypeInfo2@@@Z 100056a0 f i Lights.obj
 0001:000046d0       ??0?$CAtlModuleT@VCComModule@ATL@@@ATL@@QAE@XZ 100056d0 f i Lights.obj
 0001:00004700       ??0?$CAtlSafeAllocBufferManager@VCCRTAllocator@ATL@@@_ATL_SAFE_ALLOCA_IMPL@ATL@@QAE@XZ 10005700 f i Lights.obj
 0001:00004720       ??0?$CAutoVectorPtr@_W@ATL@@QAE@XZ 10005720 f i Lights.obj
 0001:00004740       ??0?$CComAggObject@VCOPOSLights@@@ATL@@QAE@PAX@Z 10005740 f i Lights.obj
 0001:000047b0       ??0?$CComContainedObject@VCOPOSLights@@@ATL@@QAE@PAX@Z 100057b0 f i Lights.obj
 0001:000048c0       ??0?$CComCritSecLock@VCComCriticalSection@ATL@@@ATL@@QAE@AAVCComCriticalSection@1@_N@Z 100058c0 f i Lights.obj
 0001:00004920       ??0?$CComEnum@UIEnumConnectionPoints@@$1?_GUID_b196b285_bab4_101a_b69c_00aa00341d07@@3U__s_GUID@@BPAUIConnectionPoint@@V?$_CopyInterface@UIConnectionPoint@@@ATL@@VCComSingleThreadModel@6@@ATL@@QAE@XZ 10005920 f i Lights.obj
 0001:00004960       ??0?$CComEnum@UIEnumConnections@@$1?_GUID_b196b287_bab4_101a_b69c_00aa00341d07@@3U__s_GUID@@BUtagCONNECTDATA@@V?$_Copy@UtagCONNECTDATA@@@ATL@@VCComSingleThreadModel@6@@ATL@@QAE@XZ 10005960 f i Lights.obj
 0001:000049a0       ??0?$CComEnumImpl@UIEnumConnectionPoints@@$1?_GUID_b196b285_bab4_101a_b69c_00aa00341d07@@3U__s_GUID@@BPAUIConnectionPoint@@V?$_CopyInterface@UIConnectionPoint@@@ATL@@@ATL@@QAE@XZ 100059a0 f i Lights.obj
 0001:00004a00       ??0?$CComEnumImpl@UIEnumConnections@@$1?_GUID_b196b287_bab4_101a_b69c_00aa00341d07@@3U__s_GUID@@BUtagCONNECTDATA@@V?$_Copy@UtagCONNECTDATA@@@ATL@@@ATL@@QAE@XZ 10005a00 f i Lights.obj
 0001:00004a60       ??0?$CComObject@V?$CComEnum@UIEnumConnectionPoints@@$1?_GUID_b196b285_bab4_101a_b69c_00aa00341d07@@3U__s_GUID@@BPAUIConnectionPoint@@V?$_CopyInterface@UIConnectionPoint@@@ATL@@VCComSingleThreadModel@6@@ATL@@@ATL@@QAE@PAX@Z 10005a60 f i Lights.obj
 0001:00004ab0       ??0?$CComObject@V?$CComEnum@UIEnumConnections@@$1?_GUID_b196b287_bab4_101a_b69c_00aa00341d07@@3U__s_GUID@@BUtagCONNECTDATA@@V?$_Copy@UtagCONNECTDATA@@@ATL@@VCComSingleThreadModel@6@@ATL@@@ATL@@QAE@PAX@Z 10005ab0 f i Lights.obj
 0001:00004b00       ??0?$CComObject@VCOPOSLights@@@ATL@@QAE@PAX@Z 10005b00 f i Lights.obj
 0001:00004c20       ??0?$CComObjectCached@VCComClassFactory@ATL@@@ATL@@QAE@PAX@Z 10005c20 f i Lights.obj
 0001:00004c60       ??0?$CComObjectRootEx@VCComMultiThreadModel@ATL@@@ATL@@QAE@XZ 10005c60 f i Lights.obj
 0001:00004ca0       ??0?$CComObjectRootEx@VCComSingleThreadModel@ATL@@@ATL@@QAE@XZ 10005ca0 f i Lights.obj
 0001:00004cd0       ??0?$CComPtr@UIAdviseSink@@@ATL@@QAE@PAUIAdviseSink@@@Z 10005cd0 f i Lights.obj
 0001:00004d00       ??0?$CComPtr@UICatRegister@@@ATL@@QAE@XZ 10005d00 f i Lights.obj
 0001:00004d30       ??0?$CComPtr@UIConnectionPoint@@@ATL@@QAE@XZ 10005d30 f i Lights.obj
 0001:00004d60       ??0?$CComPtr@UIConnectionPointContainer@@@ATL@@QAE@XZ 10005d60 f i Lights.obj
 0001:00004d90       ??0?$CComPtr@UIDataObject@@@ATL@@QAE@XZ 10005d90 f i Lights.obj
 0001:00004dc0       ??0?$CComPtr@UIDispatch@@@ATL@@QAE@XZ 10005dc0 f i Lights.obj
 0001:00004df0       ??0?$CComPtr@UIOleClientSite@@@ATL@@QAE@PAUIOleClientSite@@@Z 10005df0 f i Lights.obj
 0001:00004e20       ??0?$CComPtr@UIOleControlSite@@@ATL@@QAE@XZ 10005e20 f i Lights.obj
 0001:00004e50       ??0?$CComPtr@UIOleInPlaceActiveObject@@@ATL@@QAE@XZ 10005e50 f i Lights.obj
 0001:00004e80       ??0?$CComPtr@UIOleInPlaceFrame@@@ATL@@QAE@XZ 10005e80 f i Lights.obj
 0001:00004eb0       ??0?$CComPtr@UIOleInPlaceObject@@@ATL@@QAE@XZ 10005eb0 f i Lights.obj
 0001:00004ee0       ??0?$CComPtr@UIOleInPlaceUIWindow@@@ATL@@QAE@XZ 10005ee0 f i Lights.obj
 0001:00004f10       ??0?$CComPtr@UIOleObject@@@ATL@@QAE@XZ 10005f10 f i Lights.obj
 0001:00004f40       ??0?$CComPtr@UIPersistStream@@@ATL@@QAE@XZ 10005f40 f i Lights.obj
 0001:00004f70       ??0?$CComPtr@UIPersistStreamInit@@@ATL@@QAE@XZ 10005f70 f i Lights.obj
 0001:00004fa0       ??0?$CComPtr@UIPointerInactive@@@ATL@@QAE@XZ 10005fa0 f i Lights.obj
 0001:00004fd0       ??0?$CComPtr@UIProvideClassInfo2@@@ATL@@QAE@XZ 10005fd0 f i Lights.obj
 0001:00005000       ??0?$CComPtr@UISpecifyPropertyPages@@@ATL@@QAE@XZ 10006000 f i Lights.obj
 0001:00005030       ??0?$CComPtr@UIStream@@@ATL@@QAE@XZ 10006030 f i Lights.obj
 0001:00005060       ??0?$CComPtr@UITypeInfo2@@@ATL@@QAE@XZ 10006060 f i Lights.obj
 0001:00005090       ??0?$CComPtr@UITypeInfo@@@ATL@@QAE@ABV01@@Z 10006090 f i Lights.obj
 0001:000050c0       ??0?$CComPtr@UITypeInfo@@@ATL@@QAE@XZ 100060c0 f i Lights.obj
 0001:000050f0       ??0?$CComPtr@UITypeLib@@@ATL@@QAE@XZ 100060f0 f i Lights.obj
 0001:00005120       ??0?$CComPtr@UIUnknown@@@ATL@@QAE@ABV01@@Z 10006120 f i Lights.obj
 0001:00005150       ??0?$CComPtr@UIUnknown@@@ATL@@QAE@PAUIUnknown@@@Z 10006150 f i Lights.obj
 0001:00005180       ??0?$CComPtr@UIUnknown@@@ATL@@QAE@XZ 10006180 f i Lights.obj
 0001:000051b0       ??0?$CComPtr@UIViewObjectEx@@@ATL@@QAE@XZ 100061b0 f i Lights.obj
 0001:000051e0       ??0?$CComPtrBase@UIAdviseSink@@@ATL@@IAE@PAUIAdviseSink@@@Z 100061e0 f i Lights.obj
 0001:00005230       ??0?$CComPtrBase@UICatRegister@@@ATL@@IAE@XZ 10006230 f i Lights.obj
 0001:00005250       ??0?$CComPtrBase@UIConnectionPoint@@@ATL@@IAE@XZ 10006250 f i Lights.obj
 0001:00005270       ??0?$CComPtrBase@UIConnectionPointContainer@@@ATL@@IAE@XZ 10006270 f i Lights.obj
 0001:00005290       ??0?$CComPtrBase@UIDataObject@@@ATL@@IAE@XZ 10006290 f i Lights.obj
 0001:000052b0       ??0?$CComPtrBase@UIDispatch@@@ATL@@IAE@XZ 100062b0 f i Lights.obj
 0001:000052d0       ??0?$CComPtrBase@UIOleClientSite@@@ATL@@IAE@PAUIOleClientSite@@@Z 100062d0 f i Lights.obj
 0001:00005320       ??0?$CComPtrBase@UIOleControlSite@@@ATL@@IAE@XZ 10006320 f i Lights.obj
 0001:00005340       ??0?$CComPtrBase@UIOleInPlaceActiveObject@@@ATL@@IAE@XZ 10006340 f i Lights.obj
 0001:00005360       ??0?$CComPtrBase@UIOleInPlaceFrame@@@ATL@@IAE@XZ 10006360 f i Lights.obj
 0001:00005380       ??0?$CComPtrBase@UIOleInPlaceObject@@@ATL@@IAE@XZ 10006380 f i Lights.obj
 0001:000053a0       ??0?$CComPtrBase@UIOleInPlaceUIWindow@@@ATL@@IAE@XZ 100063a0 f i Lights.obj
 0001:000053c0       ??0?$CComPtrBase@UIOleObject@@@ATL@@IAE@XZ 100063c0 f i Lights.obj
 0001:000053e0       ??0?$CComPtrBase@UIPersistStream@@@ATL@@IAE@XZ 100063e0 f i Lights.obj
 0001:00005400       ??0?$CComPtrBase@UIPersistStreamInit@@@ATL@@IAE@XZ 10006400 f i Lights.obj
 0001:00005420       ??0?$CComPtrBase@UIPointerInactive@@@ATL@@IAE@XZ 10006420 f i Lights.obj
 0001:00005440       ??0?$CComPtrBase@UIProvideClassInfo2@@@ATL@@IAE@XZ 10006440 f i Lights.obj
 0001:00005460       ??0?$CComPtrBase@UISpecifyPropertyPages@@@ATL@@IAE@XZ 10006460 f i Lights.obj
 0001:00005480       ??0?$CComPtrBase@UIStream@@@ATL@@IAE@XZ 10006480 f i Lights.obj
 0001:000054a0       ??0?$CComPtrBase@UITypeInfo2@@@ATL@@IAE@XZ 100064a0 f i Lights.obj
 0001:000054c0       ??0?$CComPtrBase@UITypeInfo@@@ATL@@IAE@PAUITypeInfo@@@Z 100064c0 f i Lights.obj
 0001:00005510       ??0?$CComPtrBase@UITypeInfo@@@ATL@@IAE@XZ 10006510 f i Lights.obj
 0001:00005530       ??0?$CComPtrBase@UITypeLib@@@ATL@@IAE@XZ 10006530 f i Lights.obj
 0001:00005550       ??0?$CComPtrBase@UIUnknown@@@ATL@@IAE@PAUIUnknown@@@Z 10006550 f i Lights.obj
 0001:000055a0       ??0?$CComPtrBase@UIUnknown@@@ATL@@IAE@XZ 100065a0 f i Lights.obj
 0001:000055c0       ??0?$CComPtrBase@UIViewObjectEx@@@ATL@@IAE@XZ 100065c0 f i Lights.obj
 0001:000055e0       ??0?$CComQIPtr@UIOleControlSite@@$1?_GUID_b196b289_bab4_101a_b69c_00aa00341d07@@3U__s_GUID@@B@ATL@@QAE@PAUIUnknown@@@Z 100065e0 f i Lights.obj
 0001:00005640       ??0?$CComQIPtr@UIOleObject@@$1?_GUID_00000112_0000_0000_c000_000000000046@@3U__s_GUID@@B@ATL@@QAE@XZ 10006640 f i Lights.obj
 0001:00005670       ??0?$CComQIPtr@UISpecifyPropertyPages@@$1?_GUID_b196b28b_bab4_101a_b69c_00aa00341d07@@3U__s_GUID@@B@ATL@@QAE@XZ 10006670 f i Lights.obj
 0001:000056a0       ??0?$CSimpleMap@PA_WPA_WVCExpansionVectorEqualHelper@ATL@@@ATL@@QAE@XZ 100066a0 f i Lights.obj
 0001:000056e0       ??0?$CTempBuffer@E$0BAA@VCCRTAllocator@ATL@@@ATL@@QAE@XZ 100066e0 f i Lights.obj
 0001:00005700       ??0?$CTempBuffer@_W$0BAA@VCCRTAllocator@ATL@@@ATL@@QAE@XZ 10006700 f i Lights.obj
 0001:00005720       ??0?$CTempBuffer@_W$0EAA@VCCRTAllocator@ATL@@@ATL@@QAE@XZ 10006720 f i Lights.obj
 0001:00005740       ??0?$Wrapper@PA_W@?$CSimpleMap@PA_WPA_WVCExpansionVectorEqualHelper@ATL@@@ATL@@QAE@ABQA_W@Z 10006740 f i Lights.obj
 0001:00005770       ??0CAtlModule@ATL@@QAE@XZ  10006770 f i Lights.obj
 0001:00005890       ??0CComAutoDeleteCriticalSection@ATL@@QAE@XZ 10006890 f i Lights.obj
 0001:000058c0       ??0CComBSTR@ATL@@QAE@XZ    100068c0 f i Lights.obj
 0001:000058e0       ??0CComClassFactory@ATL@@QAE@XZ 100068e0 f i Lights.obj
 0001:00005920       ??0CComModule@ATL@@QAE@XZ  10006920 f i Lights.obj
 0001:00005990       ??0CComObjectRootBase@ATL@@QAE@XZ 10006990 f i Lights.obj
 0001:000059b0       ??0CComSafeDeleteCriticalSection@ATL@@QAE@XZ 100069b0 f i Lights.obj
 0001:000059e0       ??0CComVariant@ATL@@QAE@XZ 100069e0 f i Lights.obj
 0001:00005a30       ??0CExpansionVector@ATL@@QAE@XZ 10006a30 f i Lights.obj
 0001:00005a60       ??0CParseBuffer@CRegParser@ATL@@QAE@H@Z 10006a60 f i Lights.obj
 0001:00005ad0       ??0CRegKey@ATL@@QAE@PAUHKEY__@@@Z 10006ad0 f i Lights.obj
 0001:00005b10       ??0CRegKey@ATL@@QAE@PAVCAtlTransactionManager@1@@Z 10006b10 f i Lights.obj
 0001:00005b50       ??0CRegObject@ATL@@QAE@XZ  10006b50 f i Lights.obj
 0001:00005b90       ??0CRegParser@ATL@@QAE@PAVCRegObject@1@@Z 10006b90 f i Lights.obj
 0001:00005bc0       ??0IClassFactory@@QAE@XZ   10006bc0 f i Lights.obj
 0001:00005bf0       ??0IEnumConnectionPoints@@QAE@XZ 10006bf0 f i Lights.obj
 0001:00005c20       ??0IEnumConnections@@QAE@XZ 10006c20 f i Lights.obj
 0001:00005c50       ??0IRegistrarBase@@QAE@XZ  10006c50 f i Lights.obj
 0001:00005c80       ??0IUnknown@@QAE@XZ        10006c80 f i Lights.obj
 0001:00005ca0       ??0ModuleLockHelper@ATL@@QAE@XZ 10006ca0 f i Lights.obj
 0001:00005ce0       ??0OposVariant@@QAE@XZ     10006ce0 f i Lights.obj
 0001:00005d10       ??0Wrapper@?$CSimpleArray@GV?$CSimpleArrayEqualHelper@G@ATL@@@ATL@@QAE@ABG@Z 10006d10 f i Lights.obj
 0001:00005d40       ??0_ATL_MODULE70@ATL@@QAE@XZ 10006d40 f i Lights.obj
 0001:00005d70       ??0_ATL_MSG@ATL@@QAE@PAUHWND__@@IIJH@Z 10006d70 f i Lights.obj
 0001:00005de0       ??0_U_MENUorID@ATL@@QAE@I@Z 10006de0 f i Lights.obj
 0001:00005e00       ??0_U_RECT@ATL@@QAE@AAUtagRECT@@@Z 10006e00 f i Lights.obj
 0001:00005e20       ??0stringdispid@CComTypeInfoHolder@ATL@@QAE@XZ 10006e20 f i Lights.obj
 0001:00005e60       ??1?$CAtlModuleT@VCComModule@ATL@@@ATL@@UAE@XZ 10006e60 f i Lights.obj
 0001:00005e90       ??1?$CAtlSafeAllocBufferManager@VCCRTAllocator@ATL@@@_ATL_SAFE_ALLOCA_IMPL@ATL@@QAE@XZ 10006e90 f i Lights.obj
 0001:00005ee0       ??1?$CAutoVectorPtr@_W@ATL@@QAE@XZ 10006ee0 f i Lights.obj
 0001:00005f10       ??1?$CComAggObject@VCOPOSLights@@@ATL@@UAE@XZ 10006f10 f i Lights.obj
 0001:00005f80       ??1?$CComContainedObject@VCOPOSLights@@@ATL@@UAE@XZ 10006f80 f i Lights.obj
 0001:00005fb0       ??1?$CComCritSecLock@VCComCriticalSection@ATL@@@ATL@@QAE@XZ 10006fb0 f i Lights.obj
 0001:00005fe0       ??1?$CComEnum@UIEnumConnectionPoints@@$1?_GUID_b196b285_bab4_101a_b69c_00aa00341d07@@3U__s_GUID@@BPAUIConnectionPoint@@V?$_CopyInterface@UIConnectionPoint@@@ATL@@VCComSingleThreadModel@6@@ATL@@UAE@XZ 10006fe0 f i Lights.obj
 0001:00006010       ??1?$CComEnum@UIEnumConnections@@$1?_GUID_b196b287_bab4_101a_b69c_00aa00341d07@@3U__s_GUID@@BUtagCONNECTDATA@@V?$_Copy@UtagCONNECTDATA@@@ATL@@VCComSingleThreadModel@6@@ATL@@UAE@XZ 10007010 f i Lights.obj
 0001:00006040       ??1?$CComEnumImpl@UIEnumConnectionPoints@@$1?_GUID_b196b285_bab4_101a_b69c_00aa00341d07@@3U__s_GUID@@BPAUIConnectionPoint@@V?$_CopyInterface@UIConnectionPoint@@@ATL@@@ATL@@UAE@XZ 10007040 f i Lights.obj
 0001:000060d0       ??1?$CComEnumImpl@UIEnumConnections@@$1?_GUID_b196b287_bab4_101a_b69c_00aa00341d07@@3U__s_GUID@@BUtagCONNECTDATA@@V?$_Copy@UtagCONNECTDATA@@@ATL@@@ATL@@UAE@XZ 100070d0 f i Lights.obj
 0001:00006160       ??1?$CComObject@V?$CComEnum@UIEnumConnectionPoints@@$1?_GUID_b196b285_bab4_101a_b69c_00aa00341d07@@3U__s_GUID@@BPAUIConnectionPoint@@V?$_CopyInterface@UIConnectionPoint@@@ATL@@VCComSingleThreadModel@6@@ATL@@@ATL@@UAE@XZ 10007160 f i Lights.obj
 0001:000061c0       ??1?$CComObject@V?$CComEnum@UIEnumConnections@@$1?_GUID_b196b287_bab4_101a_b69c_00aa00341d07@@3U__s_GUID@@BUtagCONNECTDATA@@V?$_Copy@UtagCONNECTDATA@@@ATL@@VCComSingleThreadModel@6@@ATL@@@ATL@@UAE@XZ 100071c0 f i Lights.obj
 0001:00006220       ??1?$CComObject@VCOPOSLights@@@ATL@@UAE@XZ 10007220 f i Lights.obj
 0001:00006360       ??1?$CComObjectCached@VCComClassFactory@ATL@@@ATL@@UAE@XZ 10007360 f i Lights.obj
 0001:000063b0       ??1?$CComObjectRootEx@VCComMultiThreadModel@ATL@@@ATL@@QAE@XZ 100073b0 f i Lights.obj
 0001:000063e0       ??1?$CComObjectRootEx@VCComSingleThreadModel@ATL@@@ATL@@QAE@XZ 100073e0 f i Lights.obj
 0001:00006410       ??1?$CComPtr@UIAdviseSink@@@ATL@@QAE@XZ 10007410 f i Lights.obj
 0001:00006440       ??1?$CComPtr@UICatRegister@@@ATL@@QAE@XZ 10007440 f i Lights.obj
 0001:00006470       ??1?$CComPtr@UIConnectionPoint@@@ATL@@QAE@XZ 10007470 f i Lights.obj
 0001:000064a0       ??1?$CComPtr@UIConnectionPointContainer@@@ATL@@QAE@XZ 100074a0 f i Lights.obj
 0001:000064d0       ??1?$CComPtr@UIDataObject@@@ATL@@QAE@XZ 100074d0 f i Lights.obj
 0001:00006500       ??1?$CComPtr@UIDispatch@@@ATL@@QAE@XZ 10007500 f i Lights.obj
 0001:00006530       ??1?$CComPtr@UIOleClientSite@@@ATL@@QAE@XZ 10007530 f i Lights.obj
 0001:00006560       ??1?$CComPtr@UIOleControlSite@@@ATL@@QAE@XZ 10007560 f i Lights.obj
 0001:00006590       ??1?$CComPtr@UIOleInPlaceActiveObject@@@ATL@@QAE@XZ 10007590 f i Lights.obj
 0001:000065c0       ??1?$CComPtr@UIOleInPlaceFrame@@@ATL@@QAE@XZ 100075c0 f i Lights.obj
 0001:000065f0       ??1?$CComPtr@UIOleInPlaceObject@@@ATL@@QAE@XZ 100075f0 f i Lights.obj
 0001:00006620       ??1?$CComPtr@UIOleInPlaceUIWindow@@@ATL@@QAE@XZ 10007620 f i Lights.obj
 0001:00006650       ??1?$CComPtr@UIOleObject@@@ATL@@QAE@XZ 10007650 f i Lights.obj
 0001:00006680       ??1?$CComPtr@UIPersistStream@@@ATL@@QAE@XZ 10007680 f i Lights.obj
 0001:000066b0       ??1?$CComPtr@UIPersistStreamInit@@@ATL@@QAE@XZ 100076b0 f i Lights.obj
 0001:000066e0       ??1?$CComPtr@UIPointerInactive@@@ATL@@QAE@XZ 100076e0 f i Lights.obj
 0001:00006710       ??1?$CComPtr@UIProvideClassInfo2@@@ATL@@QAE@XZ 10007710 f i Lights.obj
 0001:00006740       ??1?$CComPtr@UISpecifyPropertyPages@@@ATL@@QAE@XZ 10007740 f i Lights.obj
 0001:00006770       ??1?$CComPtr@UIStream@@@ATL@@QAE@XZ 10007770 f i Lights.obj
 0001:000067a0       ??1?$CComPtr@UITypeInfo2@@@ATL@@QAE@XZ 100077a0 f i Lights.obj
 0001:000067d0       ??1?$CComPtr@UITypeInfo@@@ATL@@QAE@XZ 100077d0 f i Lights.obj
 0001:00006800       ??1?$CComPtr@UITypeLib@@@ATL@@QAE@XZ 10007800 f i Lights.obj
 0001:00006830       ??1?$CComPtr@UIUnknown@@@ATL@@QAE@XZ 10007830 f i Lights.obj
 0001:00006860       ??1?$CComPtr@UIViewObjectEx@@@ATL@@QAE@XZ 10007860 f i Lights.obj
 0001:00006890       ??1?$CComPtrBase@UIAdviseSink@@@ATL@@QAE@XZ 10007890 f i Lights.obj
 0001:000068e0       ??1?$CComPtrBase@UICatRegister@@@ATL@@QAE@XZ 100078e0 f i Lights.obj
 0001:00006930       ??1?$CComPtrBase@UIConnectionPoint@@@ATL@@QAE@XZ 10007930 f i Lights.obj
 0001:00006980       ??1?$CComPtrBase@UIConnectionPointContainer@@@ATL@@QAE@XZ 10007980 f i Lights.obj
 0001:000069d0       ??1?$CComPtrBase@UIDataObject@@@ATL@@QAE@XZ 100079d0 f i Lights.obj
 0001:00006a20       ??1?$CComPtrBase@UIDispatch@@@ATL@@QAE@XZ 10007a20 f i Lights.obj
 0001:00006a70       ??1?$CComPtrBase@UIOleClientSite@@@ATL@@QAE@XZ 10007a70 f i Lights.obj
 0001:00006ac0       ??1?$CComPtrBase@UIOleControlSite@@@ATL@@QAE@XZ 10007ac0 f i Lights.obj
 0001:00006b10       ??1?$CComPtrBase@UIOleInPlaceActiveObject@@@ATL@@QAE@XZ 10007b10 f i Lights.obj
 0001:00006b60       ??1?$CComPtrBase@UIOleInPlaceFrame@@@ATL@@QAE@XZ 10007b60 f i Lights.obj
 0001:00006bb0       ??1?$CComPtrBase@UIOleInPlaceObject@@@ATL@@QAE@XZ 10007bb0 f i Lights.obj
 0001:00006c00       ??1?$CComPtrBase@UIOleInPlaceUIWindow@@@ATL@@QAE@XZ 10007c00 f i Lights.obj
 0001:00006c50       ??1?$CComPtrBase@UIOleObject@@@ATL@@QAE@XZ 10007c50 f i Lights.obj
 0001:00006ca0       ??1?$CComPtrBase@UIPersistStream@@@ATL@@QAE@XZ 10007ca0 f i Lights.obj
 0001:00006cf0       ??1?$CComPtrBase@UIPersistStreamInit@@@ATL@@QAE@XZ 10007cf0 f i Lights.obj
 0001:00006d40       ??1?$CComPtrBase@UIPointerInactive@@@ATL@@QAE@XZ 10007d40 f i Lights.obj
 0001:00006d90       ??1?$CComPtrBase@UIProvideClassInfo2@@@ATL@@QAE@XZ 10007d90 f i Lights.obj
 0001:00006de0       ??1?$CComPtrBase@UISpecifyPropertyPages@@@ATL@@QAE@XZ 10007de0 f i Lights.obj
 0001:00006e30       ??1?$CComPtrBase@UIStream@@@ATL@@QAE@XZ 10007e30 f i Lights.obj
 0001:00006e80       ??1?$CComPtrBase@UITypeInfo2@@@ATL@@QAE@XZ 10007e80 f i Lights.obj
 0001:00006ed0       ??1?$CComPtrBase@UITypeInfo@@@ATL@@QAE@XZ 10007ed0 f i Lights.obj
 0001:00006f20       ??1?$CComPtrBase@UITypeLib@@@ATL@@QAE@XZ 10007f20 f i Lights.obj
 0001:00006f70       ??1?$CComPtrBase@UIUnknown@@@ATL@@QAE@XZ 10007f70 f i Lights.obj
 0001:00006fc0       ??1?$CComPtrBase@UIViewObjectEx@@@ATL@@QAE@XZ 10007fc0 f i Lights.obj
 0001:00007010       ??1?$CComQIPtr@UIOleControlSite@@$1?_GUID_b196b289_bab4_101a_b69c_00aa00341d07@@3U__s_GUID@@B@ATL@@QAE@XZ 10008010 f i Lights.obj
 0001:00007040       ??1?$CComQIPtr@UIOleObject@@$1?_GUID_00000112_0000_0000_c000_000000000046@@3U__s_GUID@@B@ATL@@QAE@XZ 10008040 f i Lights.obj
 0001:00007070       ??1?$CComQIPtr@UISpecifyPropertyPages@@$1?_GUID_b196b28b_bab4_101a_b69c_00aa00341d07@@3U__s_GUID@@B@ATL@@QAE@XZ 10008070 f i Lights.obj
 0001:000070a0       ??1?$CSimpleMap@PA_WPA_WVCExpansionVectorEqualHelper@ATL@@@ATL@@QAE@XZ 100080a0 f i Lights.obj
 0001:000070d0       ??1?$CTempBuffer@E$0BAA@VCCRTAllocator@ATL@@@ATL@@QAE@XZ 100080d0 f i Lights.obj
 0001:00007110       ??1?$CTempBuffer@_W$0BAA@VCCRTAllocator@ATL@@@ATL@@QAE@XZ 10008110 f i Lights.obj
 0001:00007150       ??1?$CTempBuffer@_W$0EAA@VCCRTAllocator@ATL@@@ATL@@QAE@XZ 10008150 f i Lights.obj
 0001:00007190       ??1CAtlModule@ATL@@UAE@XZ  10008190 f i Lights.obj
 0001:000071c0       ??1CComAutoDeleteCriticalSection@ATL@@QAE@XZ 100081c0 f i Lights.obj
 0001:000071f0       ??1CComClassFactory@ATL@@UAE@XZ 100081f0 f i Lights.obj
 0001:00007220       ??1CComModule@ATL@@UAE@XZ  10008220 f i Lights.obj
 0001:00007250       ??1CComObjectRootBase@ATL@@QAE@XZ 10008250 f i Lights.obj
 0001:00007270       ??1CComSafeDeleteCriticalSection@ATL@@QAE@XZ 10008270 f i Lights.obj
 0001:000072b0       ??1CComVariant@ATL@@QAE@XZ 100082b0 f i Lights.obj
 0001:00007310       ??1CExpansionVector@ATL@@QAE@XZ 10008310 f i Lights.obj
 0001:00007340       ??1CParseBuffer@CRegParser@ATL@@QAE@XZ 10008340 f i Lights.obj
 0001:00007380       ??1CRegKey@ATL@@QAE@XZ     10008380 f i Lights.obj
 0001:000073b0       ??1CRegObject@ATL@@UAE@XZ  100083b0 f i Lights.obj
 0001:000073f0       ??1ModuleLockHelper@ATL@@QAE@XZ 100083f0 f i Lights.obj
 0001:00007430       ??1OposVariant@@QAE@XZ     10008430 f i Lights.obj
 0001:00007460       ??1_ATL_MODULE70@ATL@@QAE@XZ 10008460 f i Lights.obj
 0001:00007490       ??4?$CComPtr@UIAdviseSink@@@ATL@@QAEPAUIAdviseSink@@PAU2@@Z 10008490 f i Lights.obj
 0001:000074f0       ??4?$CComPtr@UIOleClientSite@@@ATL@@QAEPAUIOleClientSite@@PAU2@@Z 100084f0 f i Lights.obj
 0001:00007550       ??4?$CComPtr@UIUnknown@@@ATL@@QAEPAUIUnknown@@PAU2@@Z 10008550 f i Lights.obj
 0001:000075b0       ??4?$CComQIPtr@UIOleObject@@$1?_GUID_00000112_0000_0000_c000_000000000046@@3U__s_GUID@@B@ATL@@QAEPAUIOleObject@@PAUIUnknown@@@Z 100085b0 f i Lights.obj
 0001:00007600       ??4?$CComQIPtr@UISpecifyPropertyPages@@$1?_GUID_b196b28b_bab4_101a_b69c_00aa00341d07@@3U__s_GUID@@B@ATL@@QAEPAUISpecifyPropertyPages@@PAUIUnknown@@@Z 10008600 f i Lights.obj
 0001:00007650       ??7?$CComPtrBase@UIOleClientSite@@@ATL@@QBE_NXZ 10008650 f i Lights.obj
 0001:00007690       ??7?$CComPtrBase@UIOleInPlaceSiteWindowless@@@ATL@@QBE_NXZ 10008690 f i Lights.obj
 0001:000076d0       ??7CComBSTR@ATL@@QBE_NXZ   100086d0 f i Lights.obj
 0001:00007710       ??8?$CComPtrBase@UIConnectionPointContainer@@@ATL@@QBE_NPAUIConnectionPointContainer@@@Z 10008710 f i Lights.obj
 0001:00007750       ??8?$CComPtrBase@UIDataAdviseHolder@@@ATL@@QBE_NPAUIDataAdviseHolder@@@Z 10008750 f i Lights.obj
 0001:00007790       ??8?$CComPtrBase@UIOleAdviseHolder@@@ATL@@QBE_NPAUIOleAdviseHolder@@@Z 10008790 f i Lights.obj
 0001:000077d0       ??8?$CComPtrBase@UIOleClientSite@@@ATL@@QBE_NPAUIOleClientSite@@@Z 100087d0 f i Lights.obj
 0001:00007810       ??8?$CComPtrBase@UIOleControlSite@@@ATL@@QBE_NPAUIOleControlSite@@@Z 10008810 f i Lights.obj
 0001:00007850       ??8?$CComPtrBase@UIOleInPlaceObject@@@ATL@@QBE_NPAUIOleInPlaceObject@@@Z 10008850 f i Lights.obj
 0001:00007890       ??8?$CComPtrBase@UIOleInPlaceSiteWindowless@@@ATL@@QBE_NPAUIOleInPlaceSiteWindowless@@@Z 10008890 f i Lights.obj
 0001:000078d0       ??8?$CComPtrBase@UIOleObject@@@ATL@@QBE_NPAUIOleObject@@@Z 100088d0 f i Lights.obj
 0001:00007910       ??8?$CComPtrBase@UIPersistStream@@@ATL@@QBE_NPAUIPersistStream@@@Z 10008910 f i Lights.obj
 0001:00007950       ??8?$CComPtrBase@UIPersistStreamInit@@@ATL@@QBE_NPAUIPersistStreamInit@@@Z 10008950 f i Lights.obj
 0001:00007990       ??8?$CComPtrBase@UIPointerInactive@@@ATL@@QBE_NPAUIPointerInactive@@@Z 10008990 f i Lights.obj
 0001:000079d0       ??8?$CComPtrBase@UIUnknown@@@ATL@@QBE_NPAUIUnknown@@@Z 100089d0 f i Lights.obj
 0001:00007a10       ??8?$CComPtrBase@UIViewObjectEx@@@ATL@@QBE_NPAUIViewObjectEx@@@Z 10008a10 f i Lights.obj
 0001:00007a50       ??8CComBSTR@ATL@@QBE_NH@Z  10008a50 f i Lights.obj
 0001:00007ab0       ??9?$CComPtrBase@UIConnectionPointContainer@@@ATL@@QBE_NPAUIConnectionPointContainer@@@Z 10008ab0 f i Lights.obj
 0001:00007b00       ??9?$CComPtrBase@UIDataAdviseHolder@@@ATL@@QBE_NPAUIDataAdviseHolder@@@Z 10008b00 f i Lights.obj
 0001:00007b50       ??9?$CComPtrBase@UIOleAdviseHolder@@@ATL@@QBE_NPAUIOleAdviseHolder@@@Z 10008b50 f i Lights.obj
 0001:00007ba0       ??9?$CComPtrBase@UIOleClientSite@@@ATL@@QBE_NPAUIOleClientSite@@@Z 10008ba0 f i Lights.obj
 0001:00007bf0       ??9?$CComPtrBase@UIOleControlSite@@@ATL@@QBE_NPAUIOleControlSite@@@Z 10008bf0 f i Lights.obj
 0001:00007c40       ??9?$CComPtrBase@UIOleInPlaceObject@@@ATL@@QBE_NPAUIOleInPlaceObject@@@Z 10008c40 f i Lights.obj
 0001:00007c90       ??9?$CComPtrBase@UIOleInPlaceSiteWindowless@@@ATL@@QBE_NPAUIOleInPlaceSiteWindowless@@@Z 10008c90 f i Lights.obj
 0001:00007ce0       ??9?$CComPtrBase@UIOleObject@@@ATL@@QBE_NPAUIOleObject@@@Z 10008ce0 f i Lights.obj
 0001:00007d30       ??9?$CComPtrBase@UIPersistStream@@@ATL@@QBE_NPAUIPersistStream@@@Z 10008d30 f i Lights.obj
 0001:00007d80       ??9?$CComPtrBase@UIPersistStreamInit@@@ATL@@QBE_NPAUIPersistStreamInit@@@Z 10008d80 f i Lights.obj
 0001:00007dd0       ??9?$CComPtrBase@UIPointerInactive@@@ATL@@QBE_NPAUIPointerInactive@@@Z 10008dd0 f i Lights.obj
 0001:00007e20       ??9?$CComPtrBase@UIUnknown@@@ATL@@QBE_NPAUIUnknown@@@Z 10008e20 f i Lights.obj
 0001:00007e70       ??9?$CComPtrBase@UIViewObjectEx@@@ATL@@QBE_NPAUIViewObjectEx@@@Z 10008e70 f i Lights.obj
 0001:00007ec0       ??9CComBSTR@ATL@@QBE_NH@Z  10008ec0 f i Lights.obj
 0001:00007f10       ??B?$CComPtrBase@UIAdviseSink@@@ATL@@QBEPAUIAdviseSink@@XZ 10008f10 f i Lights.obj
 0001:00007f30       ??B?$CComPtrBase@UIDataAdviseHolder@@@ATL@@QBEPAUIDataAdviseHolder@@XZ 10008f30 f i Lights.obj
 0001:00007f50       ??B?$CComPtrBase@UIDataObject@@@ATL@@QBEPAUIDataObject@@XZ 10008f50 f i Lights.obj
 0001:00007f70       ??B?$CComPtrBase@UIOleAdviseHolder@@@ATL@@QBEPAUIOleAdviseHolder@@XZ 10008f70 f i Lights.obj
 0001:00007f90       ??B?$CComPtrBase@UIOleClientSite@@@ATL@@QBEPAUIOleClientSite@@XZ 10008f90 f i Lights.obj
 0001:00007fb0       ??B?$CComPtrBase@UIOleControlSite@@@ATL@@QBEPAUIOleControlSite@@XZ 10008fb0 f i Lights.obj
 0001:00007fd0       ??B?$CComPtrBase@UIOleInPlaceActiveObject@@@ATL@@QBEPAUIOleInPlaceActiveObject@@XZ 10008fd0 f i Lights.obj
 0001:00007ff0       ??B?$CComPtrBase@UIOleInPlaceFrame@@@ATL@@QBEPAUIOleInPlaceFrame@@XZ 10008ff0 f i Lights.obj
 0001:00008010       ??B?$CComPtrBase@UIOleInPlaceSiteWindowless@@@ATL@@QBEPAUIOleInPlaceSiteWindowless@@XZ 10009010 f i Lights.obj
 0001:00008030       ??B?$CComPtrBase@UIOleInPlaceUIWindow@@@ATL@@QBEPAUIOleInPlaceUIWindow@@XZ 10009030 f i Lights.obj
 0001:00008050       ??B?$CComPtrBase@UIOleObject@@@ATL@@QBEPAUIOleObject@@XZ 10009050 f i Lights.obj
 0001:00008070       ??B?$CComPtrBase@UIPersistStream@@@ATL@@QBEPAUIPersistStream@@XZ 10009070 f i Lights.obj
 0001:00008090       ??B?$CComPtrBase@UIProvideClassInfo2@@@ATL@@QBEPAUIProvideClassInfo2@@XZ 10009090 f i Lights.obj
 0001:000080b0       ??B?$CComPtrBase@UISpecifyPropertyPages@@@ATL@@QBEPAUISpecifyPropertyPages@@XZ 100090b0 f i Lights.obj
 0001:000080d0       ??B?$CComPtrBase@UIStream@@@ATL@@QBEPAUIStream@@XZ 100090d0 f i Lights.obj
 0001:000080f0       ??B?$CComPtrBase@UITypeInfo2@@@ATL@@QBEPAUITypeInfo2@@XZ 100090f0 f i Lights.obj
 0001:00008110       ??B?$CComPtrBase@UITypeInfo@@@ATL@@QBEPAUITypeInfo@@XZ 10009110 f i Lights.obj
 0001:00008130       ??B?$CComPtrBase@UITypeLib@@@ATL@@QBEPAUITypeLib@@XZ 10009130 f i Lights.obj
 0001:00008150       ??B?$CComPtrBase@UIUnknown@@@ATL@@QBEPAUIUnknown@@XZ 10009150 f i Lights.obj
 0001:00008170       ??B?$CTempBuffer@E$0BAA@VCCRTAllocator@ATL@@@ATL@@QBEPAEXZ 10009170 f i Lights.obj
 0001:00008190       ??B?$CTempBuffer@_W$0BAA@VCCRTAllocator@ATL@@@ATL@@QBEPA_WXZ 10009190 f i Lights.obj
 0001:000081b0       ??B?$CTempBuffer@_W$0EAA@VCCRTAllocator@ATL@@@ATL@@QBEPA_WXZ 100091b0 f i Lights.obj
 0001:000081d0       ??B?$CTraceCategoryEx@$00$0A@@ATL@@QAEIXZ 100091d0 f i Lights.obj
 0001:000081f0       ??B?$CTraceCategoryEx@$07$0A@@ATL@@QAEIXZ 100091f0 f i Lights.obj
 0001:00008210       ??B?$CTraceCategoryEx@$0CAAA@$0A@@ATL@@QAEIXZ 10009210 f i Lights.obj
 0001:00008230       ??B?$CTraceCategoryEx@$0EA@$0A@@ATL@@QAEIXZ 10009230 f i Lights.obj
 0001:00008250       ??B?$CTraceCategoryEx@$0IAA@$0A@@ATL@@QAEIXZ 10009250 f i Lights.obj
 0001:00008270       ??BCComBSTR@ATL@@QBEPA_WXZ 10009270 f i Lights.obj
 0001:00008290       ??BCRegKey@ATL@@QBEPAUHKEY__@@XZ 10009290 f i Lights.obj
 0001:000082b0       ??C?$CComPtrBase@UIAdviseSink@@@ATL@@QBEPAV?$_NoAddRefReleaseOnCComPtr@UIAdviseSink@@@1@XZ 100092b0 f i Lights.obj
 0001:00008300       ??C?$CComPtrBase@UICatRegister@@@ATL@@QBEPAV?$_NoAddRefReleaseOnCComPtr@UICatRegister@@@1@XZ 10009300 f i Lights.obj
 0001:00008350       ??C?$CComPtrBase@UIConnectionPoint@@@ATL@@QBEPAV?$_NoAddRefReleaseOnCComPtr@UIConnectionPoint@@@1@XZ 10009350 f i Lights.obj
 0001:000083a0       ??C?$CComPtrBase@UIConnectionPointContainer@@@ATL@@QBEPAV?$_NoAddRefReleaseOnCComPtr@UIConnectionPointContainer@@@1@XZ 100093a0 f i Lights.obj
 0001:000083f0       ??C?$CComPtrBase@UIDataAdviseHolder@@@ATL@@QBEPAV?$_NoAddRefReleaseOnCComPtr@UIDataAdviseHolder@@@1@XZ 100093f0 f i Lights.obj
 0001:00008440       ??C?$CComPtrBase@UIOleAdviseHolder@@@ATL@@QBEPAV?$_NoAddRefReleaseOnCComPtr@UIOleAdviseHolder@@@1@XZ 10009440 f i Lights.obj
 0001:00008490       ??C?$CComPtrBase@UIOleClientSite@@@ATL@@QBEPAV?$_NoAddRefReleaseOnCComPtr@UIOleClientSite@@@1@XZ 10009490 f i Lights.obj
 0001:000084e0       ??C?$CComPtrBase@UIOleControlSite@@@ATL@@QBEPAV?$_NoAddRefReleaseOnCComPtr@UIOleControlSite@@@1@XZ 100094e0 f i Lights.obj
 0001:00008530       ??C?$CComPtrBase@UIOleInPlaceFrame@@@ATL@@QBEPAV?$_NoAddRefReleaseOnCComPtr@UIOleInPlaceFrame@@@1@XZ 10009530 f i Lights.obj
 0001:00008580       ??C?$CComPtrBase@UIOleInPlaceObject@@@ATL@@QBEPAV?$_NoAddRefReleaseOnCComPtr@UIOleInPlaceObject@@@1@XZ 10009580 f i Lights.obj
 0001:000085d0       ??C?$CComPtrBase@UIOleInPlaceSiteWindowless@@@ATL@@QBEPAV?$_NoAddRefReleaseOnCComPtr@UIOleInPlaceSiteWindowless@@@1@XZ 100095d0 f i Lights.obj
 0001:00008620       ??C?$CComPtrBase@UIOleInPlaceUIWindow@@@ATL@@QBEPAV?$_NoAddRefReleaseOnCComPtr@UIOleInPlaceUIWindow@@@1@XZ 10009620 f i Lights.obj
 0001:00008670       ??C?$CComPtrBase@UIOleObject@@@ATL@@QBEPAV?$_NoAddRefReleaseOnCComPtr@UIOleObject@@@1@XZ 10009670 f i Lights.obj
 0001:000086c0       ??C?$CComPtrBase@UIPersistStream@@@ATL@@QBEPAV?$_NoAddRefReleaseOnCComPtr@UIPersistStream@@@1@XZ 100096c0 f i Lights.obj
 0001:00008710       ??C?$CComPtrBase@UIPersistStreamInit@@@ATL@@QBEPAV?$_NoAddRefReleaseOnCComPtr@UIPersistStreamInit@@@1@XZ 10009710 f i Lights.obj
 0001:00008760       ??C?$CComPtrBase@UIPointerInactive@@@ATL@@QBEPAV?$_NoAddRefReleaseOnCComPtr@UIPointerInactive@@@1@XZ 10009760 f i Lights.obj
 0001:000087b0       ??C?$CComPtrBase@UIProvideClassInfo2@@@ATL@@QBEPAV?$_NoAddRefReleaseOnCComPtr@UIProvideClassInfo2@@@1@XZ 100097b0 f i Lights.obj
 0001:00008800       ??C?$CComPtrBase@UISpecifyPropertyPages@@@ATL@@QBEPAV?$_NoAddRefReleaseOnCComPtr@UISpecifyPropertyPages@@@1@XZ 10009800 f i Lights.obj
 0001:00008850       ??C?$CComPtrBase@UITypeInfo@@@ATL@@QBEPAV?$_NoAddRefReleaseOnCComPtr@UITypeInfo@@@1@XZ 10009850 f i Lights.obj
 0001:000088a0       ??C?$CComPtrBase@UITypeLib@@@ATL@@QBEPAV?$_NoAddRefReleaseOnCComPtr@UITypeLib@@@1@XZ 100098a0 f i Lights.obj
 0001:000088f0       ??C?$CComPtrBase@UIUnknown@@@ATL@@QBEPAV?$_NoAddRefReleaseOnCComPtr@UIUnknown@@@1@XZ 100098f0 f i Lights.obj
 0001:00008940       ??C?$CComPtrBase@UIViewObjectEx@@@ATL@@QBEPAV?$_NoAddRefReleaseOnCComPtr@UIViewObjectEx@@@1@XZ 10009940 f i Lights.obj
 0001:00008990       ??I?$CComPtrBase@UICatRegister@@@ATL@@QAEPAPAUICatRegister@@XZ 10009990 f i Lights.obj
 0001:000089e0       ??I?$CComPtrBase@UIConnectionPoint@@@ATL@@QAEPAPAUIConnectionPoint@@XZ 100099e0 f i Lights.obj
 0001:00008a30       ??I?$CComPtrBase@UIConnectionPointContainer@@@ATL@@QAEPAPAUIConnectionPointContainer@@XZ 10009a30 f i Lights.obj
 0001:00008a80       ??I?$CComPtrBase@UIDataAdviseHolder@@@ATL@@QAEPAPAUIDataAdviseHolder@@XZ 10009a80 f i Lights.obj
 0001:00008ad0       ??I?$CComPtrBase@UIDataObject@@@ATL@@QAEPAPAUIDataObject@@XZ 10009ad0 f i Lights.obj
 0001:00008b20       ??I?$CComPtrBase@UIDispatch@@@ATL@@QAEPAPAUIDispatch@@XZ 10009b20 f i Lights.obj
 0001:00008b70       ??I?$CComPtrBase@UIOleAdviseHolder@@@ATL@@QAEPAPAUIOleAdviseHolder@@XZ 10009b70 f i Lights.obj
 0001:00008bc0       ??I?$CComPtrBase@UIOleControlSite@@@ATL@@QAEPAPAUIOleControlSite@@XZ 10009bc0 f i Lights.obj
 0001:00008c10       ??I?$CComPtrBase@UIOleInPlaceActiveObject@@@ATL@@QAEPAPAUIOleInPlaceActiveObject@@XZ 10009c10 f i Lights.obj
 0001:00008c60       ??I?$CComPtrBase@UIOleInPlaceFrame@@@ATL@@QAEPAPAUIOleInPlaceFrame@@XZ 10009c60 f i Lights.obj
 0001:00008cb0       ??I?$CComPtrBase@UIOleInPlaceObject@@@ATL@@QAEPAPAUIOleInPlaceObject@@XZ 10009cb0 f i Lights.obj
 0001:00008d00       ??I?$CComPtrBase@UIOleInPlaceSiteWindowless@@@ATL@@QAEPAPAUIOleInPlaceSiteWindowless@@XZ 10009d00 f i Lights.obj
 0001:00008d50       ??I?$CComPtrBase@UIOleInPlaceUIWindow@@@ATL@@QAEPAPAUIOleInPlaceUIWindow@@XZ 10009d50 f i Lights.obj
 0001:00008da0       ??I?$CComPtrBase@UIOleObject@@@ATL@@QAEPAPAUIOleObject@@XZ 10009da0 f i Lights.obj
 0001:00008df0       ??I?$CComPtrBase@UIPersistStream@@@ATL@@QAEPAPAUIPersistStream@@XZ 10009df0 f i Lights.obj
 0001:00008e40       ??I?$CComPtrBase@UIPointerInactive@@@ATL@@QAEPAPAUIPointerInactive@@XZ 10009e40 f i Lights.obj
 0001:00008e90       ??I?$CComPtrBase@UIProvideClassInfo2@@@ATL@@QAEPAPAUIProvideClassInfo2@@XZ 10009e90 f i Lights.obj
 0001:00008ee0       ??I?$CComPtrBase@UIStream@@@ATL@@QAEPAPAUIStream@@XZ 10009ee0 f i Lights.obj
 0001:00008f30       ??I?$CComPtrBase@UITypeInfo2@@@ATL@@QAEPAPAUITypeInfo2@@XZ 10009f30 f i Lights.obj
 0001:00008f80       ??I?$CComPtrBase@UITypeInfo@@@ATL@@QAEPAPAUITypeInfo@@XZ 10009f80 f i Lights.obj
 0001:00008fd0       ??I?$CComPtrBase@UITypeLib@@@ATL@@QAEPAPAUITypeLib@@XZ 10009fd0 f i Lights.obj
 0001:00009020       ??I?$CComPtrBase@UIUnknown@@@ATL@@QAEPAPAUIUnknown@@XZ 1000a020 f i Lights.obj
 0001:00009070       ??I?$CComPtrBase@UIViewObjectEx@@@ATL@@QAEPAPAUIViewObjectEx@@XZ 1000a070 f i Lights.obj
 0001:000090c0       ??ICComBSTR@ATL@@QAEPAPA_WXZ 1000a0c0 f i Lights.obj
 0001:000090d5       ??_E?$CComContainedObject@VCOPOSLights@@@ATL@@W3AEPAXI@Z 1000a0d5 f i Lights.obj
 0001:000090dd       ??_E?$CComContainedObject@VCOPOSLights@@@ATL@@WEM@AEPAXI@Z 1000a0dd f i Lights.obj
 0001:000090e5       ??_E?$CComObject@VCOPOSLights@@@ATL@@W3AEPAXI@Z 1000a0e5 f i Lights.obj
 0001:000090ed       ??_E?$CComObject@VCOPOSLights@@@ATL@@WEM@AEPAXI@Z 1000a0ed f i Lights.obj
 0001:00009100       ??_G?$CComAggObject@VCOPOSLights@@@ATL@@UAEPAXI@Z 1000a100 f i Lights.obj
 0001:00009100       ??_E?$CComAggObject@VCOPOSLights@@@ATL@@UAEPAXI@Z 1000a100 f i Lights.obj
 0001:00009150       ??_E?$CComContainedObject@VCOPOSLights@@@ATL@@UAEPAXI@Z 1000a150 f i Lights.obj
 0001:00009150       ??_G?$CComContainedObject@VCOPOSLights@@@ATL@@UAEPAXI@Z 1000a150 f i Lights.obj
 0001:000091a0       ??_E?$CComObject@V?$CComEnum@UIEnumConnectionPoints@@$1?_GUID_b196b285_bab4_101a_b69c_00aa00341d07@@3U__s_GUID@@BPAUIConnectionPoint@@V?$_CopyInterface@UIConnectionPoint@@@ATL@@VCComSingleThreadModel@6@@ATL@@@ATL@@UAEPAXI@Z 1000a1a0 f i Lights.obj
 0001:000091a0       ??_G?$CComObject@V?$CComEnum@UIEnumConnectionPoints@@$1?_GUID_b196b285_bab4_101a_b69c_00aa00341d07@@3U__s_GUID@@BPAUIConnectionPoint@@V?$_CopyInterface@UIConnectionPoint@@@ATL@@VCComSingleThreadModel@6@@ATL@@@ATL@@UAEPAXI@Z 1000a1a0 f i Lights.obj
 0001:000091e0       ??_E?$CComObject@V?$CComEnum@UIEnumConnections@@$1?_GUID_b196b287_bab4_101a_b69c_00aa00341d07@@3U__s_GUID@@BUtagCONNECTDATA@@V?$_Copy@UtagCONNECTDATA@@@ATL@@VCComSingleThreadModel@6@@ATL@@@ATL@@UAEPAXI@Z 1000a1e0 f i Lights.obj
 0001:000091e0       ??_G?$CComObject@V?$CComEnum@UIEnumConnections@@$1?_GUID_b196b287_bab4_101a_b69c_00aa00341d07@@3U__s_GUID@@BUtagCONNECTDATA@@V?$_Copy@UtagCONNECTDATA@@@ATL@@VCComSingleThreadModel@6@@ATL@@@ATL@@UAEPAXI@Z 1000a1e0 f i Lights.obj
 0001:00009220       ??_G?$CComObject@VCOPOSLights@@@ATL@@UAEPAXI@Z 1000a220 f i Lights.obj
 0001:00009220       ??_E?$CComObject@VCOPOSLights@@@ATL@@UAEPAXI@Z 1000a220 f i Lights.obj
 0001:00009270       ??_E?$CComObjectCached@VCComClassFactory@ATL@@@ATL@@UAEPAXI@Z 1000a270 f i Lights.obj
 0001:00009270       ??_G?$CComObjectCached@VCComClassFactory@ATL@@@ATL@@UAEPAXI@Z 1000a270 f i Lights.obj
 0001:000092b0       ??_GCComClassFactory@ATL@@UAEPAXI@Z 1000a2b0 f i Lights.obj
 0001:000092b0       ??_ECComClassFactory@ATL@@UAEPAXI@Z 1000a2b0 f i Lights.obj
 0001:000092f0       ??_ECComModule@ATL@@UAEPAXI@Z 1000a2f0 f i Lights.obj
 0001:000092f0       ??_GCComModule@ATL@@UAEPAXI@Z 1000a2f0 f i Lights.obj
 0001:00009330       ??_ECRegObject@ATL@@UAEPAXI@Z 1000a330 f i Lights.obj
 0001:00009330       ??_GCRegObject@ATL@@UAEPAXI@Z 1000a330 f i Lights.obj
 0001:00009370       ?Add@?$CSimpleArray@GV?$CSimpleArrayEqualHelper@G@ATL@@@ATL@@QAEHABG@Z 1000a370 f i Lights.obj
 0001:000094c0       ?Add@?$CSimpleMap@PA_WPA_WVCExpansionVectorEqualHelper@ATL@@@ATL@@QAEHABQA_W0@Z 1000a4c0 f i Lights.obj
 0001:00009580       ?Add@CComDynamicUnkArray@ATL@@QAEKPAUIUnknown@@@Z 1000a580 f i Lights.obj
 0001:00009720       ?Add@CExpansionVector@ATL@@QAEHPB_W0@Z 1000a720 f i Lights.obj
 0001:000099b0       ?AddChar@CParseBuffer@CRegParser@ATL@@QAEHPB_W@Z 1000a9b0 f i Lights.obj
 0001:000099f0       ?AddCommonRGSReplacements@?$CAtlModuleT@VCComModule@ATL@@@ATL@@UAEJPAUIRegistrarBase@@@Z 1000a9f0 f i Lights.obj
 0001:00009a40       ?AddCreateWndData@CAtlWinModule@ATL@@QAEXPAU_AtlCreateWndData@2@PAX@Z 1000aa40 f i Lights.obj
 0001:00009a70       ?AddRef@?$CComAggObject@VCOPOSLights@@@ATL@@UAGKXZ 1000aa70 f i Lights.obj
 0001:00009a90       ?AddRef@?$CComContainedObject@VCOPOSLights@@@ATL@@UAGKXZ 1000aa90 f i Lights.obj
 0001:00009aac       ?AddRef@?$CComContainedObject@VCOPOSLights@@@ATL@@WHA@AGKXZ 1000aaac f i Lights.obj
 0001:00009ab6       ?AddRef@?$CComContainedObject@VCOPOSLights@@@ATL@@WHE@AGKXZ 1000aab6 f i Lights.obj
 0001:00009ac0       ?AddRef@?$CComContainedObject@VCOPOSLights@@@ATL@@WHI@AGKXZ 1000aac0 f i Lights.obj
 0001:00009aca       ?AddRef@?$CComContainedObject@VCOPOSLights@@@ATL@@WHM@AGKXZ 1000aaca f i Lights.obj
 0001:00009ad4       ?AddRef@?$CComContainedObject@VCOPOSLights@@@ATL@@WIA@AGKXZ 1000aad4 f i Lights.obj
 0001:00009ae1       ?AddRef@?$CComContainedObject@VCOPOSLights@@@ATL@@WIE@AGKXZ 1000aae1 f i Lights.obj
 0001:00009aee       ?AddRef@?$CComContainedObject@VCOPOSLights@@@ATL@@WII@AGKXZ 1000aaee f i Lights.obj
 0001:00009afb       ?AddRef@?$CComContainedObject@VCOPOSLights@@@ATL@@WIM@AGKXZ 1000aafb f i Lights.obj
 0001:00009b08       ?AddRef@?$CComContainedObject@VCOPOSLights@@@ATL@@WJA@AGKXZ 1000ab08 f i Lights.obj
 0001:00009b15       ?AddRef@?$CComContainedObject@VCOPOSLights@@@ATL@@WJE@AGKXZ 1000ab15 f i Lights.obj
 0001:00009b22       ?AddRef@?$CComContainedObject@VCOPOSLights@@@ATL@@WJI@AGKXZ 1000ab22 f i Lights.obj
 0001:00009b2f       ?AddRef@?$CComContainedObject@VCOPOSLights@@@ATL@@WJM@AGKXZ 1000ab2f f i Lights.obj
 0001:00009b3c       ?AddRef@?$CComContainedObject@VCOPOSLights@@@ATL@@WKA@AGKXZ 1000ab3c f i Lights.obj
 0001:00009b49       ?AddRef@?$CComContainedObject@VCOPOSLights@@@ATL@@WKI@AGKXZ 1000ab49 f i Lights.obj
 0001:00009b56       ?AddRef@?$CComContainedObject@VCOPOSLights@@@ATL@@WLE@AGKXZ 1000ab56 f i Lights.obj
 0001:00009b70       ?AddRef@?$CComObject@V?$CComEnum@UIEnumConnectionPoints@@$1?_GUID_b196b285_bab4_101a_b69c_00aa00341d07@@3U__s_GUID@@BPAUIConnectionPoint@@V?$_CopyInterface@UIConnectionPoint@@@ATL@@VCComSingleThreadModel@6@@ATL@@@ATL@@UAGKXZ 1000ab70 f i Lights.obj
 0001:00009b90       ?AddRef@?$CComObject@V?$CComEnum@UIEnumConnections@@$1?_GUID_b196b287_bab4_101a_b69c_00aa00341d07@@3U__s_GUID@@BUtagCONNECTDATA@@V?$_Copy@UtagCONNECTDATA@@@ATL@@VCComSingleThreadModel@6@@ATL@@@ATL@@UAGKXZ 1000ab90 f i Lights.obj
 0001:00009bb0       ?AddRef@?$CComObject@VCOPOSLights@@@ATL@@UAGKXZ 1000abb0 f i Lights.obj
 0001:00009bcc       ?AddRef@?$CComObject@VCOPOSLights@@@ATL@@WHA@AGKXZ 1000abcc f i Lights.obj
 0001:00009bd6       ?AddRef@?$CComObject@VCOPOSLights@@@ATL@@WHE@AGKXZ 1000abd6 f i Lights.obj
 0001:00009be0       ?AddRef@?$CComObject@VCOPOSLights@@@ATL@@WHI@AGKXZ 1000abe0 f i Lights.obj
 0001:00009bea       ?AddRef@?$CComObject@VCOPOSLights@@@ATL@@WHM@AGKXZ 1000abea f i Lights.obj
 0001:00009bf4       ?AddRef@?$CComObject@VCOPOSLights@@@ATL@@WIA@AGKXZ 1000abf4 f i Lights.obj
 0001:00009c01       ?AddRef@?$CComObject@VCOPOSLights@@@ATL@@WIE@AGKXZ 1000ac01 f i Lights.obj
 0001:00009c0e       ?AddRef@?$CComObject@VCOPOSLights@@@ATL@@WII@AGKXZ 1000ac0e f i Lights.obj
 0001:00009c1b       ?AddRef@?$CComObject@VCOPOSLights@@@ATL@@WIM@AGKXZ 1000ac1b f i Lights.obj
 0001:00009c28       ?AddRef@?$CComObject@VCOPOSLights@@@ATL@@WJA@AGKXZ 1000ac28 f i Lights.obj
 0001:00009c35       ?AddRef@?$CComObject@VCOPOSLights@@@ATL@@WJE@AGKXZ 1000ac35 f i Lights.obj
 0001:00009c42       ?AddRef@?$CComObject@VCOPOSLights@@@ATL@@WJI@AGKXZ 1000ac42 f i Lights.obj
 0001:00009c4f       ?AddRef@?$CComObject@VCOPOSLights@@@ATL@@WJM@AGKXZ 1000ac4f f i Lights.obj
 0001:00009c5c       ?AddRef@?$CComObject@VCOPOSLights@@@ATL@@WKA@AGKXZ 1000ac5c f i Lights.obj
 0001:00009c69       ?AddRef@?$CComObject@VCOPOSLights@@@ATL@@WKI@AGKXZ 1000ac69 f i Lights.obj
 0001:00009c76       ?AddRef@?$CComObject@VCOPOSLights@@@ATL@@WLE@AGKXZ 1000ac76 f i Lights.obj
 0001:00009c90       ?AddRef@?$CComObjectCached@VCComClassFactory@ATL@@@ATL@@UAGKXZ 1000ac90 f i Lights.obj
 0001:00009ce0       ?AddRef@CRegObject@ATL@@UAGKXZ 1000ace0 f i Lights.obj
 0001:00009d30       ?AddReplacement@CRegObject@ATL@@UAGJPB_W0@Z 1000ad30 f i Lights.obj
 0001:00009e40       ?AddString@CParseBuffer@CRegParser@ATL@@QAEHPB_W@Z 1000ae40 f i Lights.obj
 0001:00009f30       ?AddTermFunc@CAtlModule@ATL@@QAEJP6GXK@ZK@Z 1000af30 f i Lights.obj
 0001:00009f80       ?AddValue@CRegParser@ATL@@IAEJAAVCRegKey@2@PB_WPA_W@Z 1000af80 f i Lights.obj
 0001:0000a710       ?Advise@?$CProxy_IOPOSEvents@VCOPOSLights@@@@UAGJPAUIUnknown@@PAK@Z 1000b710 f i Lights.obj
 0001:0000a760       ?Advise@?$IConnectionPointImpl@VCOPOSLights@@$1?DIID__IOPOSLightsEvents@@3U_GUID@@BVCComDynamicUnkArray@ATL@@@ATL@@UAGJPAUIUnknown@@PAK@Z 1000b760 f i Lights.obj
 0001:0000a900       ?Advise@?$IConnectionPointImpl@VCOPOSLights@@$1?IID_IPropertyNotifySink@@3U_GUID@@BVCComDynamicUnkArray@ATL@@@ATL@@UAGJPAUIUnknown@@PAK@Z 1000b900 f i Lights.obj
 0001:0000aaa0       ?Advise@?$IOleObjectImpl@VCOPOSLights@@@ATL@@UAGJPAUIAdviseSink@@PAK@Z 1000baa0 f i Lights.obj
 0001:0000ab30       ?Allocate@?$CAtlSafeAllocBufferManager@VCCRTAllocator@ATL@@@_ATL_SAFE_ALLOCA_IMPL@ATL@@QAEPAXK@Z 1000bb30 f i Lights.obj
 0001:0000aba0       ?Allocate@?$CTempBuffer@E$0BAA@VCCRTAllocator@ATL@@@ATL@@QAEPAEI@Z 1000bba0 f i Lights.obj
 0001:0000abe0       ?Allocate@?$CTempBuffer@_W$0BAA@VCCRTAllocator@ATL@@@ATL@@QAEPA_WI@Z 1000bbe0 f i Lights.obj
 0001:0000ac20       ?Allocate@?$CTempBuffer@_W$0EAA@VCCRTAllocator@ATL@@@ATL@@QAEPA_WI@Z 1000bc20 f i Lights.obj
 0001:0000ac60       ?AllocateBytes@?$CTempBuffer@E$0BAA@VCCRTAllocator@ATL@@@ATL@@QAEPAEI@Z 1000bc60 f i Lights.obj
 0001:0000ace0       ?AllocateBytes@?$CTempBuffer@_W$0BAA@VCCRTAllocator@ATL@@@ATL@@QAEPA_WI@Z 1000bce0 f i Lights.obj
 0001:0000ad60       ?AllocateBytes@?$CTempBuffer@_W$0EAA@VCCRTAllocator@ATL@@@ATL@@QAEPA_WI@Z 1000bd60 f i Lights.obj
 0001:0000ade0       ?AllocateHeap@?$CTempBuffer@E$0BAA@VCCRTAllocator@ATL@@@ATL@@AAEXI@Z 1000bde0 f i Lights.obj
 0001:0000ae30       ?AllocateHeap@?$CTempBuffer@_W$0BAA@VCCRTAllocator@ATL@@@ATL@@AAEXI@Z 1000be30 f i Lights.obj
 0001:0000ae80       ?AllocateHeap@?$CTempBuffer@_W$0EAA@VCCRTAllocator@ATL@@@ATL@@AAEXI@Z 1000be80 f i Lights.obj
 0001:0000aed0       ?Append@CParseBuffer@CRegParser@ATL@@QAEHPB_WH@Z 1000bed0 f i Lights.obj
 0001:0000b070       ?AtlCallTermFunc@ATL@@YGXPAU_ATL_MODULE70@1@@Z 1000c070 f i Lights.obj
 0001:0000b110       ?AtlCoTaskMemCAlloc@ATL@@YAPAXKK@Z 1000c110 f i Lights.obj
 0001:0000b1a0       ?AtlCoTaskMemRecalloc@ATL@@YAPAXPAXKK@Z 1000c1a0 f i Lights.obj
 0001:0000b240       ?AtlComModuleGetClassObject@ATL@@YGJPAU_ATL_COM_MODULE70@1@ABU_GUID@@1PAPAX@Z 1000c240 f i Lights.obj
 0001:0000b4d0       ?AtlComModuleRegisterServer@ATL@@YGJPAU_ATL_COM_MODULE70@1@HPBU_GUID@@@Z 1000c4d0 f i Lights.obj
 0001:0000b660       ?AtlComModuleUnregisterServer@ATL@@YGJPAU_ATL_COM_MODULE70@1@HPBU_GUID@@@Z 1000c660 f i Lights.obj
 0001:0000b790       ?AtlComQIPtrAssign2@ATL@@YAXPAPAUIUnknown@@PAU2@ABU_GUID@@@Z 1000c790 f i Lights.obj
 0001:0000b810       ?AtlCreateTargetDC@ATL@@YGPAUHDC__@@PAU2@PAUtagDVTARGETDEVICE@@@Z 1000c810 f i Lights.obj
 0001:0000b9b0       ?AtlCrtErrorCheck@ATL@@YAHH@Z 1000c9b0 f i Lights.obj
 0001:0000ba80       ?AtlGetPerUserRegistration@ATL@@YGJPA_N@Z 1000ca80 f i Lights.obj
 0001:0000bab0       ?AtlHiMetricToPixel@ATL@@YGXPBUtagSIZE@@PAU2@@Z 1000cab0 f i Lights.obj
 0001:0000bc80       ?AtlHresultFromLastError@ATL@@YAJXZ 1000cc80 f i Lights.obj
 0001:0000bcc0       ?AtlHresultFromWin32@ATL@@YAJK@Z 1000ccc0 f i Lights.obj
 0001:0000bce0       ?AtlIPersistStreamInit_Load@ATL@@YGJPAUIStream@@PBUATL_PROPMAP_ENTRY@1@PAXPAUIUnknown@@@Z 1000cce0 f i Lights.obj
 0001:0000c140       ?AtlIPersistStreamInit_Save@ATL@@YGJPAUIStream@@HPBUATL_PROPMAP_ENTRY@1@PAXPAUIUnknown@@@Z 1000d140 f i Lights.obj
 0001:0000c520       ?AtlInternalOleLoadFromStream@ATL@@YAJPAUIStream@@ABU_GUID@@PAPAXTClassesAllowedInStream@1@K@Z 1000d520 f i Lights.obj
 0001:0000c7c0       ?AtlInternalQueryInterface@ATL@@YGJPAXPBU_ATL_INTMAP_ENTRY@1@ABU_GUID@@PAPAX@Z 1000d7c0 f i Lights.obj
 0001:0000c9f0       ?AtlLoadTypeLib@ATL@@YGJPAUHINSTANCE__@@PB_WPAPA_WPAPAUITypeLib@@@Z 1000d9f0 f i Lights.obj
 0001:0000ce50       ?AtlModuleAddTermFunc@ATL@@YGJPAU_ATL_MODULE70@1@P6GXK@ZK@Z 1000de50 f i Lights.obj
 0001:0000cfb0       ?AtlRegisterClassCategoriesHelper@ATL@@YGJABU_GUID@@PBU_ATL_CATMAP_ENTRY@1@H@Z 1000dfb0 f i Lights.obj
 0001:0000d690       ?AtlRegisterTypeLib@ATL@@YGJPAUHINSTANCE__@@PB_W@Z 1000e690 f i Lights.obj
 0001:0000d9d0       ?AtlThrowImpl@ATL@@YGXJ@Z  1000e9d0 f i Lights.obj
 0001:0000da80       ?AtlUnRegisterTypeLib@ATL@@YGJPAUHINSTANCE__@@PB_W@Z 1000ea80 f i Lights.obj
 0001:0000dc90       ?AtlWinModuleAddCreateWndData@ATL@@YGXPAU_ATL_WIN_MODULE70@1@PAU_AtlCreateWndData@1@PAX@Z 1000ec90 f i Lights.obj
 0001:0000de00       ?AtlWinModuleExtractCreateWndData@ATL@@YGPAXPAU_ATL_WIN_MODULE70@1@@Z 1000ee00 f i Lights.obj
 0001:0000df80       ?AtlWinModuleRegisterClassExW@ATL@@YGGPAU_ATL_WIN_MODULE70@1@PBUtagWNDCLASSEXW@@@Z 1000ef80 f i Lights.obj
 0001:0000e050       ?AtlWinModuleRegisterWndClassInfoW@ATL@@YGGPAU_ATL_WIN_MODULE70@1@PAU_ATL_BASE_MODULE70@1@PAU_ATL_WNDCLASSINFOW@1@PAP6GJPAUHWND__@@IIJ@Z@Z 1000f050 f i Lights.obj
 0001:0000e0e0       ?Attach@?$CAutoVectorPtr@_W@ATL@@QAEXPA_W@Z 1000f0e0 f i Lights.obj
 0001:0000e140       ?Attach@CComBSTR@ATL@@QAEXPA_W@Z 1000f140 f i Lights.obj
 0001:0000e190       ?Attach@CRegKey@ATL@@QAEXPAUHKEY__@@@Z 1000f190 f i Lights.obj
 0001:0000e200       ?CanForceRemoveKey@CRegParser@ATL@@IAEHPB_W@Z 1000f200 f i Lights.obj
 0001:0000e270       ?ChToByte@CRegParser@ATL@@KAE_W@Z 1000f270 f i Lights.obj
 0001:0000e390       ?ChangeType@CComVariant@ATL@@QAEJGPBUtagVARIANT@@@Z 1000f390 f i Lights.obj
 0001:0000e3f0       ?Cleanup@CComTypeInfoHolder@ATL@@SGXK@Z 1000f3f0 f i Lights.obj
 0001:0000e4c0       ?Clear@CComVariant@ATL@@QAEJXZ 1000f4c0 f i Lights.obj
 0001:0000e500       ?ClearReplacements@CExpansionVector@ATL@@QAEJXZ 1000f500 f i Lights.obj
 0001:0000e590       ?ClearReplacements@CRegObject@ATL@@UAGJXZ 1000f590 f i Lights.obj
 0001:0000e5e0       ?Clone@?$CComEnumImpl@UIEnumConnectionPoints@@$1?_GUID_b196b285_bab4_101a_b69c_00aa00341d07@@3U__s_GUID@@BPAUIConnectionPoint@@V?$_CopyInterface@UIConnectionPoint@@@ATL@@@ATL@@UAGJPAPAUIEnumConnectionPoints@@@Z 1000f5e0 f i Lights.obj
 0001:0000e750       ?Clone@?$CComEnumImpl@UIEnumConnections@@$1?_GUID_b196b287_bab4_101a_b69c_00aa00341d07@@3U__s_GUID@@BUtagCONNECTDATA@@V?$_Copy@UtagCONNECTDATA@@@ATL@@@ATL@@UAGJPAPAUIEnumConnections@@@Z 1000f750 f i Lights.obj
 0001:0000e8c0       ?Close@?$IOleObjectImpl@VCOPOSLights@@@ATL@@UAGJK@Z 1000f8c0 f i Lights.obj
 0001:0000e950       ?Close@CRegKey@ATL@@QAEJXZ 1000f950 f i Lights.obj
 0001:0000e9c0       ?ContextSensitiveHelp@?$IOleInPlaceActiveObjectImpl@VCOPOSLights@@@ATL@@UAGJH@Z 1000f9c0 f i Lights.obj
 0001:0000ea30       ?ContextSensitiveHelp@?$IOleInPlaceObjectWindowlessImpl@VCOPOSLights@@@ATL@@UAGJH@Z 1000fa30 f i Lights.obj
 0001:0000eaa0       ?ControlQueryInterface@?$CComControl@VCOPOSLights@@V?$CWindowImpl@VCOPOSLights@@VCWindow@ATL@@V?$CWinTraits@$0FGAAAAAA@$0A@@3@@ATL@@@ATL@@UAEJABU_GUID@@PAPAX@Z 1000faa0 f i Lights.obj
 0001:0000eb20       ?CreateControlWindow@?$CComControl@VCOPOSLights@@V?$CWindowImpl@VCOPOSLights@@VCWindow@ATL@@V?$CWinTraits@$0FGAAAAAA@$0A@@3@@ATL@@@ATL@@UAEPAUHWND__@@PAU3@AAUtagRECT@@@Z 1000fb20 f i Lights.obj
 0001:0000eba0       ?CreateInstance@?$CComCreator@V?$CComAggObject@VCOPOSLights@@@ATL@@@ATL@@SGJPAXABU_GUID@@PAPAX@Z 1000fba0 f i Lights.obj
 0001:0000ed20       ?CreateInstance@?$CComCreator@V?$CComObject@VCOPOSLights@@@ATL@@@ATL@@SGJPAXABU_GUID@@PAPAX@Z 1000fd20 f i Lights.obj
 0001:0000eeb0       ?CreateInstance@?$CComObject@V?$CComEnum@UIEnumConnectionPoints@@$1?_GUID_b196b285_bab4_101a_b69c_00aa00341d07@@3U__s_GUID@@BPAUIConnectionPoint@@V?$_CopyInterface@UIConnectionPoint@@@ATL@@VCComSingleThreadModel@6@@ATL@@@ATL@@SGJPAPAV12@@Z 1000feb0 f i Lights.obj
 0001:0000f020       ?CreateInstance@?$CComObject@V?$CComEnum@UIEnumConnections@@$1?_GUID_b196b287_bab4_101a_b69c_00aa00341d07@@3U__s_GUID@@BUtagCONNECTDATA@@V?$_Copy@UtagCONNECTDATA@@@ATL@@VCComSingleThreadModel@6@@ATL@@@ATL@@SGJPAPAV12@@Z 10010020 f i Lights.obj
 0001:0000f190       ?CreateInstance@CComClassFactory@ATL@@UAGJPAUIUnknown@@ABU_GUID@@PAPAX@Z 10010190 f i Lights.obj
 0001:0000f280       ?DAdvise@?$IDataObjectImpl@VCOPOSLights@@@ATL@@UAGJPAUtagFORMATETC@@KPAUIAdviseSink@@PAK@Z 10010280 f i Lights.obj
 0001:0000f380       ?DEVMODEOLE2T_EX@@YAPAU_devicemodeW@@PAU1@@Z 10010380 f i Lights.obj
 0001:0000f390       ?DUnadvise@?$IDataObjectImpl@VCOPOSLights@@@ATL@@UAGJK@Z 10010390 f i Lights.obj
 0001:0000f460       ?Decrement@CComMultiThreadModel@ATL@@SGKPAJ@Z 10010460 f i Lights.obj
 0001:0000f480       ?Decrement@CComSingleThreadModel@ATL@@SGKPAJ@Z 10010480 f i Lights.obj
 0001:0000f4a0       ?DefWindowProcW@?$CWindowImplBaseT@VCWindow@ATL@@V?$CWinTraits@$0FGAAAAAA@$0A@@2@@ATL@@QAEJIIJ@Z 100104a0 f i Lights.obj
 0001:0000f4f0       ?DefaultReflectionHandler@?$CWindowImplRoot@VCWindow@ATL@@@ATL@@SAHPAUHWND__@@IIJAAJ@Z 100104f0 f i Lights.obj
 0001:0000f6e0       ?DeleteSubKey@CRegKey@ATL@@QAEJPB_W@Z 100106e0 f i Lights.obj
 0001:0000f7f0       ?DeleteValue@CRegKey@ATL@@QAEJPB_W@Z 100107f0 f i Lights.obj
 0001:0000f860       ?Detach@?$CAutoVectorPtr@_W@ATL@@QAEPA_WXZ 10010860 f i Lights.obj
 0001:0000f890       ?Detach@?$CComPtrBase@UIPersistStream@@@ATL@@QAEPAUIPersistStream@@XZ 10010890 f i Lights.obj
 0001:0000f8c0       ?Detach@?$CComPtrBase@UITypeInfo@@@ATL@@QAEPAUITypeInfo@@XZ 100108c0 f i Lights.obj
 0001:0000f8f0       ?Detach@?$CComPtrBase@UIUnknown@@@ATL@@QAEPAUIUnknown@@XZ 100108f0 f i Lights.obj
 0001:0000f920       ?Detach@CComBSTR@ATL@@QAEPA_WXZ 10010920 f i Lights.obj
 0001:0000f950       ?Detach@CParseBuffer@CRegParser@ATL@@QAEPA_WXZ 10010950 f i Lights.obj
 0001:0000f9a0       ?Detach@CRegKey@ATL@@QAEPAUHKEY__@@XZ 100109a0 f i Lights.obj
 0001:0000f9f0       ?DoEvent@COPOSLights@@IAEXIIJ@Z 100109f0 f i Lights.obj
 0001:0000fb30       ?DoVerb@?$IOleObjectImpl@VCOPOSLights@@@ATL@@UAGJJPAUtagMSG@@PAUIOleClientSite@@JPAUHWND__@@PBUtagRECT@@@Z 10010b30 f i Lights.obj
 0001:0000fd40       ?DoVerbDiscardUndo@?$IOleObjectImpl@VCOPOSLights@@@ATL@@QAEJPBUtagRECT@@PAUHWND__@@@Z 10010d40 f i Lights.obj
 0001:0000fdb0       ?DoVerbHide@?$IOleObjectImpl@VCOPOSLights@@@ATL@@QAEJPBUtagRECT@@PAUHWND__@@@Z 10010db0 f i Lights.obj
 0001:0000fe60       ?DoVerbInPlaceActivate@?$IOleObjectImpl@VCOPOSLights@@@ATL@@QAEJPBUtagRECT@@PAUHWND__@@@Z 10010e60 f i Lights.obj
 0001:0000ff00       ?DoVerbOpen@?$IOleObjectImpl@VCOPOSLights@@@ATL@@QAEJPBUtagRECT@@PAUHWND__@@@Z 10010f00 f i Lights.obj
 0001:0000ff70       ?DoVerbPrimary@?$IOleObjectImpl@VCOPOSLights@@@ATL@@QAEJPBUtagRECT@@PAUHWND__@@@Z 10010f70 f i Lights.obj
 0001:00010080       ?DoVerbProperties@CComControlBase@ATL@@QAEJPBUtagRECT@@PAUHWND__@@@Z 10011080 f i Lights.obj
 0001:000103a0       ?DoVerbShow@?$IOleObjectImpl@VCOPOSLights@@@ATL@@QAEJPBUtagRECT@@PAUHWND__@@@Z 100113a0 f i Lights.obj
 0001:00010430       ?DoVerbUIActivate@?$IOleObjectImpl@VCOPOSLights@@@ATL@@QAEJPBUtagRECT@@PAUHWND__@@@Z 10011430 f i Lights.obj
 0001:000104d0       ?DoesVerbActivate@CComControlBase@ATL@@QAEHJ@Z 100114d0 f i Lights.obj
 0001:00010540       ?DoesVerbUIActivate@CComControlBase@ATL@@QAEHJ@Z 10011540 f i Lights.obj
 0001:000105c0       ?Draw@?$IViewObjectExImpl@VCOPOSLights@@@ATL@@UAGJKJPAXPAUtagDVTARGETDEVICE@@PAUHDC__@@2PBU_RECTL@@3P6GHK@ZK@Z 100115c0 f i Lights.obj
 0001:00010660       ?Empty@CComBSTR@ATL@@QAEXXZ 10011660 f i Lights.obj
 0001:000106a0       ?EnableModeless@?$IOleInPlaceActiveObjectImpl@VCOPOSLights@@@ATL@@UAGJH@Z 100116a0 f i Lights.obj
 0001:00010700       ?EndOfVar@CRegParser@ATL@@IAEHXZ 10011700 f i Lights.obj
 0001:00010770       ?EnsureTI@CComTypeInfoHolder@ATL@@QAEJK@Z 10011770 f i Lights.obj
 0001:000107d0       ?EnumAdvise@?$IOleObjectImpl@VCOPOSLights@@@ATL@@UAGJPAPAUIEnumSTATDATA@@@Z 100117d0 f i Lights.obj
 0001:000108e0       ?EnumConnectionPoints@?$IConnectionPointContainerImpl@VCOPOSLights@@@ATL@@UAGJPAPAUIEnumConnectionPoints@@@Z 100118e0 f i Lights.obj
 0001:00010d10       ?EnumConnections@?$IConnectionPointImpl@VCOPOSLights@@$1?DIID__IOPOSLightsEvents@@3U_GUID@@BVCComDynamicUnkArray@ATL@@@ATL@@UAGJPAPAUIEnumConnections@@@Z 10011d10 f i Lights.obj
 0001:00010f60       ?EnumConnections@?$IConnectionPointImpl@VCOPOSLights@@$1?IID_IPropertyNotifySink@@3U_GUID@@BVCComDynamicUnkArray@ATL@@@ATL@@UAGJPAPAUIEnumConnections@@@Z 10011f60 f i Lights.obj
 0001:000111b0       ?EnumDAdvise@?$IDataObjectImpl@VCOPOSLights@@@ATL@@UAGJPAPAUIEnumSTATDATA@@@Z 100121b0 f i Lights.obj
 0001:000112b0       ?EnumFormatEtc@?$IDataObjectImpl@VCOPOSLights@@@ATL@@UAGJKPAPAUIEnumFORMATETC@@@Z 100122b0 f i Lights.obj
 0001:00011320       ?EnumVerbs@?$IOleObjectImpl@VCOPOSLights@@@ATL@@UAGJPAPAUIEnumOLEVERB@@@Z 10012320 f i Lights.obj
 0001:000113d0       ?EscapeSingleQuote@CAtlModule@ATL@@SAXPA_WIPB_W@Z 100123d0 f i Lights.obj
 0001:00011480       ?ExtractCreateWndData@CAtlWinModule@ATL@@QAEPAXXZ 10012480 f i Lights.obj
 0001:000114b0       ?FAccessAllowed@?$IObjectSafetyImpl@VCOPOSLights@@$02@ATL@@MAEHXZ 100124b0 f i Lights.obj
 0001:000114d0       ?FinalConstruct@?$CComAggObject@VCOPOSLights@@@ATL@@QAEJXZ 100124d0 f i Lights.obj
 0001:00011510       ?FinalConstruct@CComObjectRootBase@ATL@@QAEJXZ 10012510 f i Lights.obj
 0001:00011530       ?FinalConstruct@CRegObject@ATL@@QAEJXZ 10012530 f i Lights.obj
 0001:00011560       ?FinalRelease@?$CComAggObject@VCOPOSLights@@@ATL@@QAEXXZ 10012560 f i Lights.obj
 0001:000115a0       ?FinalRelease@CComObjectRootBase@ATL@@QAEXXZ 100125a0 f i Lights.obj
 0001:000115c0       ?FindConnectionPoint@?$IConnectionPointContainerImpl@VCOPOSLights@@@ATL@@UAGJABU_GUID@@PAPAUIConnectionPoint@@@Z 100125c0 f i Lights.obj
 0001:00011710       ?FindKey@?$CSimpleMap@PA_WPA_WVCExpansionVectorEqualHelper@ATL@@@ATL@@QBEHABQA_W@Z 10012710 f i Lights.obj
 0001:00011780       ?FireTheEvent@?$CProxy_IOPOSEvents@VCOPOSLights@@@@IAEXPAUIUnknown@@PAVOposVariant@@IAAJPB_WJ@Z 10012780 f i Lights.obj
 0001:000118f0       ?FireViewChange@CComControlBase@ATL@@QAEJXZ 100128f0 f i Lights.obj
 0001:000119b0       ?Fire_DirectIOEvent@?$CProxy_IOPOSEvents@VCOPOSLights@@@@QAEXJPAJPAPA_W@Z 100129b0 f i Lights.obj
 0001:00011b80       ?Fire_StatusUpdateEvent@?$CProxy_IOPOSEvents@VCOPOSLights@@@@QAEXJ@Z 10012b80 f i Lights.obj
 0001:00011ce0       ?FormatWindowClassName@AtlModuleRegisterWndClassInfoParamW@ATL@@SAXPA_WKPAX@Z 10012ce0 f i Lights.obj
 0001:00011d10       ?Free@?$CAutoVectorPtr@_W@ATL@@QAEXXZ 10012d10 f i Lights.obj
 0001:00011d60       ?FreeHeap@?$CTempBuffer@E$0BAA@VCCRTAllocator@ATL@@@ATL@@AAEXXZ 10012d60 f i Lights.obj
 0001:00011d90       ?FreeHeap@?$CTempBuffer@_W$0BAA@VCCRTAllocator@ATL@@@ATL@@AAEXXZ 10012d90 f i Lights.obj
 0001:00011dc0       ?FreeHeap@?$CTempBuffer@_W$0EAA@VCCRTAllocator@ATL@@@ATL@@AAEXXZ 10012dc0 f i Lights.obj
 0001:00011df0       ?Freeze@?$IViewObjectExImpl@VCOPOSLights@@@ATL@@UAGJKJPAXPAK@Z 10012df0 f i Lights.obj
 0001:00011e60       ?GenerateError@CRegParser@ATL@@IAEJI@Z 10012e60 f i Lights.obj
 0001:00011e80       ?GetAdvise@?$IViewObjectExImpl@VCOPOSLights@@@ATL@@UAGJPAK0PAPAUIAdviseSink@@@Z 10012e80 f i Lights.obj
 0001:00011f80       ?GetAmbientLocaleID@CComControlBase@ATL@@QAEJAAK@Z 10012f80 f i Lights.obj
 0001:00012060       ?GetAmbientProperty@CComControlBase@ATL@@QAEJJAAUtagVARIANT@@@Z 10013060 f i Lights.obj
 0001:000120b0       ?GetAmbientUserMode@CComControlBase@ATL@@QAEJAAH@Z 100130b0 f i Lights.obj
 0001:000121b0       ?GetAppId@?$CAtlModuleT@VCComModule@ATL@@@ATL@@SAPB_WXZ 100131b0 f i Lights.obj
 0001:000121c0       ?GetAt@CComDynamicUnkArray@ATL@@QAEPAUIUnknown@@H@Z 100131c0 f i Lights.obj
 0001:00012240       ?GetCanonicalFormatEtc@?$IDataObjectImpl@VCOPOSLights@@@ATL@@UAGJPAUtagFORMATETC@@0@Z 10013240 f i Lights.obj
 0001:000122b0       ?GetClassID@?$IPersistStorageImpl@VCOPOSLights@@@ATL@@UAGJPAU_GUID@@@Z 100132b0 f i Lights.obj
 0001:00012330       ?GetClassID@?$IPersistStreamInitImpl@VCOPOSLights@@@ATL@@UAGJPAU_GUID@@@Z 10013330 f i Lights.obj
 0001:000123b0       ?GetClassInfoExW@AtlModuleRegisterWndClassInfoParamW@ATL@@SAHPAUHINSTANCE__@@PB_WPAUtagWNDCLASSEXW@@@Z 100133b0 f i Lights.obj
 0001:000123e0       ?GetClassInfoW@?$IProvideClassInfo2Impl@$1?CLSID_OPOSLights@@3U_GUID@@B$1?DIID__IOPOSLightsEvents@@3U2@B$1?LIBID_OposLights_CCO@@3U2@B$00$0A@VCComTypeInfoHolder@ATL@@@ATL@@UAGJPAPAUITypeInfo@@@Z 100133e0 f i Lights.obj
 0001:00012400       ?GetClassObject@CComModule@ATL@@QAEJABU_GUID@@0PAPAX@Z 10013400 f i Lights.obj
 0001:00012600       ?GetClientSite@?$IOleObjectImpl@VCOPOSLights@@@ATL@@UAGJPAPAUIOleClientSite@@@Z 10013600 f i Lights.obj
 0001:00012690       ?GetClipboardData@?$IOleObjectImpl@VCOPOSLights@@@ATL@@UAGJKPAPAUIDataObject@@@Z 10013690 f i Lights.obj
 0001:00012700       ?GetCodeAddress@CDynamicStdCallThunk2@ATL@@QAEPAXXZ 10013700 f i Lights.obj
 0001:00012730       ?GetColorSet@?$IViewObjectExImpl@VCOPOSLights@@@ATL@@UAGJKJPAXPAUtagDVTARGETDEVICE@@PAUHDC__@@PAPAUtagLOGPALETTE@@@Z 10013730 f i Lights.obj
 0001:000127a0       ?GetConnMap@COPOSLights@@SAPBU_ATL_CONNMAP_ENTRY@ATL@@PAH@Z 100137a0 f i Lights.obj
 0001:000128e0       ?GetConnectionInterface@?$IConnectionPointImpl@VCOPOSLights@@$1?DIID__IOPOSLightsEvents@@3U_GUID@@BVCComDynamicUnkArray@ATL@@@ATL@@UAGJPAU_GUID@@@Z 100138e0 f i Lights.obj
 0001:00012920       ?GetConnectionInterface@?$IConnectionPointImpl@VCOPOSLights@@$1?IID_IPropertyNotifySink@@3U_GUID@@BVCComDynamicUnkArray@ATL@@@ATL@@UAGJPAU_GUID@@@Z 10013920 f i Lights.obj
 0001:00012960       ?GetConnectionPointContainer@?$IConnectionPointImpl@VCOPOSLights@@$1?DIID__IOPOSLightsEvents@@3U_GUID@@BVCComDynamicUnkArray@ATL@@@ATL@@UAGJPAPAUIConnectionPointContainer@@@Z 10013960 f i Lights.obj
 0001:000129d0       ?GetConnectionPointContainer@?$IConnectionPointImpl@VCOPOSLights@@$1?IID_IPropertyNotifySink@@3U_GUID@@BVCComDynamicUnkArray@ATL@@@ATL@@UAGJPAPAUIConnectionPointContainer@@@Z 100139d0 f i Lights.obj
 0001:00012a40       ?GetContentExtent@?$IQuickActivateImpl@VCOPOSLights@@@ATL@@UAGJPAUtagSIZE@@@Z 10013a40 f i Lights.obj
 0001:00012ad0       ?GetControlInfo@?$IOleControlImpl@VCOPOSLights@@@ATL@@UAGJPAUtagCONTROLINFO@@@Z 10013ad0 f i Lights.obj
 0001:00012b40       ?GetCookie@CComDynamicUnkArray@ATL@@QAGKPAPAUIUnknown@@@Z 10013b40 f i Lights.obj
 0001:00012c00       ?GetData@?$IDataObjectImpl@VCOPOSLights@@@ATL@@UAGJPAUtagFORMATETC@@PAUtagSTGMEDIUM@@@Z 10013c00 f i Lights.obj
 0001:00012c90       ?GetData@CAtlSafeAllocBufferNode@?$CAtlSafeAllocBufferManager@VCCRTAllocator@ATL@@@_ATL_SAFE_ALLOCA_IMPL@ATL@@QAEPAXXZ 10013c90 f i Lights.obj
 0001:00012cb0       ?GetDataHere@?$IDataObjectImpl@VCOPOSLights@@@ATL@@UAGJPAUtagFORMATETC@@PAUtagSTGMEDIUM@@@Z 10013cb0 f i Lights.obj
 0001:00012d20       ?GetDropTarget@?$IOleInPlaceObjectWindowlessImpl@VCOPOSLights@@@ATL@@UAGJPAPAUIDropTarget@@@Z 10013d20 f i Lights.obj
 0001:00012d90       ?GetExtent@?$IOleObjectImpl@VCOPOSLights@@@ATL@@UAGJKPAUtagSIZE@@@Z 10013d90 f i Lights.obj
 0001:00012e30       ?GetExtent@?$IViewObjectExImpl@VCOPOSLights@@@ATL@@UAGJKJPAUtagDVTARGETDEVICE@@PAUtagSIZE@@@Z 10013e30 f i Lights.obj
 0001:00012f00       ?GetGITPtr@CAtlModule@ATL@@UAEJPAPAUIGlobalInterfaceTable@@@Z 10013f00 f i Lights.obj
 0001:00013000       ?GetGUID@?$IProvideClassInfo2Impl@$1?CLSID_OPOSLights@@3U_GUID@@B$1?DIID__IOPOSLightsEvents@@3U2@B$1?LIBID_OposLights_CCO@@3U2@B$00$0A@VCComTypeInfoHolder@ATL@@@ATL@@UAGJKPAU_GUID@@@Z 10014000 f i Lights.obj
 0001:00013080       ?GetIDsOfNames@?$IDispatchImpl@UIOPOSLights@@$1?IID_IOPOSLights@@3U_GUID@@B$1?LIBID_OposLights_CCO@@3U3@B$00$0A@VCComTypeInfoHolder@ATL@@@ATL@@UAGJABU_GUID@@PAPA_WIKPAJ@Z 10014080 f i Lights.obj
 0001:000130b0       ?GetIDsOfNames@CComTypeInfoHolder@ATL@@QAEJABU_GUID@@PAPA_WIKPAJ@Z 100140b0 f i Lights.obj
 0001:00013260       ?GetInterfaceSafetyOptions@?$IObjectSafetyImpl@VCOPOSLights@@$02@ATL@@UAGJABU_GUID@@PAK1@Z 10014260 f i Lights.obj
 0001:000133d0       ?GetKeyAt@?$CSimpleMap@PA_WPA_WVCExpansionVectorEqualHelper@ATL@@@ATL@@QBEAAPA_WH@Z 100143d0 f i Lights.obj
 0001:00013450       ?GetLockCount@CAtlModule@ATL@@UAEJXZ 10014450 f i Lights.obj
 0001:00013470       ?GetMiscStatus@?$IOleObjectImpl@VCOPOSLights@@@ATL@@UAGJKPAK@Z 10014470 f i Lights.obj
 0001:000134e0       ?GetMoniker@?$IOleObjectImpl@VCOPOSLights@@@ATL@@UAGJKKPAPAUIMoniker@@@Z 100144e0 f i Lights.obj
 0001:00013550       ?GetNaturalExtent@?$IViewObjectExImpl@VCOPOSLights@@@ATL@@UAGJKJPAUtagDVTARGETDEVICE@@PAUHDC__@@PAUtagExtentInfo@@PAUtagSIZE@@@Z 10014550 f i Lights.obj
 0001:00013670       ?GetObjectCLSID@?$CComCoClass@VCOPOSLights@@$1?CLSID_OPOSLights@@3U_GUID@@B@ATL@@SGABU_GUID@@XZ 10014670 f i Lights.obj
 0001:00013680       ?GetPages@?$ISpecifyPropertyPagesImpl@VCOPOSLights@@@ATL@@UAGJPAUtagCAUUID@@@Z 10014680 f i Lights.obj
 0001:000136f0       ?GetPagesHelper@?$ISpecifyPropertyPagesImpl@VCOPOSLights@@@ATL@@IAEJPAUtagCAUUID@@PBUATL_PROPMAP_ENTRY@2@@Z 100146f0 f i Lights.obj
 0001:000138f0       ?GetProperty@?$CComPtr@UIDispatch@@@ATL@@QAEJJPAUtagVARIANT@@@Z 100148f0 f i Lights.obj
 0001:00013930       ?GetProperty@?$CComPtr@UIDispatch@@@ATL@@SAJPAUIDispatch@@JPAUtagVARIANT@@@Z 10014930 f i Lights.obj
 0001:00013a90       ?GetPropertyMap@COPOSLights@@SAPBUATL_PROPMAP_ENTRY@ATL@@XZ 10014a90 f i Lights.obj
 0001:00013aa0       ?GetRect@?$IViewObjectExImpl@VCOPOSLights@@@ATL@@UAGJKPAU_RECTL@@@Z 10014aa0 f i Lights.obj
 0001:00013b10       ?GetSize@?$CSimpleMap@PA_WPA_WVCExpansionVectorEqualHelper@ATL@@@ATL@@QBEHXZ 10014b10 f i Lights.obj
 0001:00013b30       ?GetSize@CComDynamicUnkArray@ATL@@QBEHXZ 10014b30 f i Lights.obj
 0001:00013b50       ?GetSizeMax@?$IPersistStreamInitImpl@VCOPOSLights@@@ATL@@UAGJPAT_ULARGE_INTEGER@@@Z 10014b50 f i Lights.obj
 0001:000140c0       ?GetSizeMax@CComVariant@ATL@@QBEJPAT_ULARGE_INTEGER@@@Z 100150c0 f i Lights.obj
 0001:00014420       ?GetStreamSize@CComBSTR@ATL@@SAKPA_W@Z 10015420 f i Lights.obj
 0001:00014470       ?GetTI@CComTypeInfoHolder@ATL@@QAEJK@Z 10015470 f i Lights.obj
 0001:00014c80       ?GetTI@CComTypeInfoHolder@ATL@@QAEJKPAPAUITypeInfo@@@Z 10015c80 f i Lights.obj
 0001:00014d40       ?GetTypeInfo@?$IDispatchImpl@UIOPOSLights@@$1?IID_IOPOSLights@@3U_GUID@@B$1?LIBID_OposLights_CCO@@3U3@B$00$0A@VCComTypeInfoHolder@ATL@@@ATL@@UAGJIKPAPAUITypeInfo@@@Z 10015d40 f i Lights.obj
 0001:00014d70       ?GetTypeInfo@CComTypeInfoHolder@ATL@@QAEJIKPAPAUITypeInfo@@@Z 10015d70 f i Lights.obj
 0001:00014db0       ?GetTypeInfoCount@?$IDispatchImpl@UIOPOSLights@@$1?IID_IOPOSLights@@3U_GUID@@B$1?LIBID_OposLights_CCO@@3U3@B$00$0A@VCComTypeInfoHolder@ATL@@@ATL@@UAGJPAI@Z 10015db0 f i Lights.obj
 0001:00014dd0       ?GetUnknown@CComDynamicUnkArray@ATL@@QAGPAUIUnknown@@K@Z 10015dd0 f i Lights.obj
 0001:00014e40       ?GetUnknown@COPOSLights@@QAEPAUIUnknown@@XZ 10015e40 f i Lights.obj
 0001:00014e70       ?GetUserClassID@?$IOleObjectImpl@VCOPOSLights@@@ATL@@UAGJPAU_GUID@@@Z 10015e70 f i Lights.obj
 0001:00014f20       ?GetUserType@?$IOleObjectImpl@VCOPOSLights@@@ATL@@UAGJKPAPA_W@Z 10015f20 f i Lights.obj
 0001:00014f90       ?GetValueAt@?$CSimpleMap@PA_WPA_WVCExpansionVectorEqualHelper@ATL@@@ATL@@QBEAAPA_WH@Z 10015f90 f i Lights.obj
 0001:00015010       ?GetViewStatus@?$IViewObjectExImpl@VCOPOSLights@@@ATL@@UAGJPAK@Z 10016010 f i Lights.obj
 0001:000150d0       ?GetWNDPROC@CWndProcThunk@ATL@@QAEP6GJPAUHWND__@@IIJ@ZXZ 100160d0 f i Lights.obj
 0001:00015100       ?GetWindow@?$IOleInPlaceActiveObjectImpl@VCOPOSLights@@@ATL@@UAGJPAPAUHWND__@@@Z 10016100 f i Lights.obj
 0001:000151d0       ?GetWindow@?$IOleInPlaceObjectWindowlessImpl@VCOPOSLights@@@ATL@@UAGJPAPAUHWND__@@@Z 100161d0 f i Lights.obj
 0001:000152a0       ?GetWindowLongPtrW@@YAJPAUHWND__@@H@Z 100162a0 f i Lights.obj
 0001:000152d0       ?GetWindowProc@?$CWindowImplBaseT@VCWindow@ATL@@V?$CWinTraits@$0FGAAAAAA@$0A@@2@@ATL@@UAEP6GJPAUHWND__@@IIJ@ZXZ 100162d0 f i Lights.obj
 0001:000152f0       ?GetWndCaption@?$CWindowImpl@VCOPOSLights@@VCWindow@ATL@@V?$CWinTraits@$0FGAAAAAA@$0A@@3@@ATL@@SAPB_WXZ 100162f0 f i Lights.obj
 0001:00015300       ?GetWndClassInfo@?$CWindowImpl@VCOPOSLights@@VCWindow@ATL@@V?$CWinTraits@$0FGAAAAAA@$0A@@3@@ATL@@SAAAU_ATL_WNDCLASSINFOW@2@XZ 10016300 f i Lights.obj
 0001:00015310       ?GetWndClassName@CWindow@ATL@@SAPB_WXZ 10016310 f i Lights.obj
 0001:00015320       ?GetWndExStyle@?$CWinTraits@$0FGAAAAAA@$0A@@ATL@@SAKK@Z 10016320 f i Lights.obj
 0001:00015350       ?GetWndExStyle@?$CWindowImplBaseT@VCWindow@ATL@@V?$CWinTraits@$0FGAAAAAA@$0A@@2@@ATL@@SAKK@Z 10016350 f i Lights.obj
 0001:00015370       ?GetWndStyle@?$CWinTraits@$0FGAAAAAA@$0A@@ATL@@SAKK@Z 10016370 f i Lights.obj
 0001:000153a0       ?GetWndStyle@?$CWindowImplBaseT@VCWindow@ATL@@V?$CWinTraits@$0FGAAAAAA@$0A@@2@@ATL@@SAKK@Z 100163a0 f i Lights.obj
 0001:000153c0       ?GetZoomInfo@CComControlBase@ATL@@QAEXAAUATL_DRAWINFO@@@Z 100163c0 f i Lights.obj
 0001:00015530       ?HKeyFromString@CRegParser@ATL@@KAPAUHKEY__@@PA_W@Z 10016530 f i Lights.obj
 0001:000155a0       ?HandsOffStorage@?$IPersistStorageImpl@VCOPOSLights@@@ATL@@UAGJXZ 100165a0 f i Lights.obj
 0001:00015600       ?HasSubKeys@CRegParser@ATL@@IAEHPAUHKEY__@@@Z 10016600 f i Lights.obj
 0001:00015710       ?IDataObject_GetData@CComControlBase@ATL@@QAEJPAUtagFORMATETC@@PAUtagSTGMEDIUM@@@Z 10016710 f i Lights.obj
 0001:00015b30       ?IOleInPlaceObject_InPlaceDeactivate@CComControlBase@ATL@@QAEJXZ 10016b30 f i Lights.obj
 0001:00015d30       ?IOleInPlaceObject_SetObjectRects@CComControlBase@ATL@@QAEJPBUtagRECT@@0@Z 10016d30 f i Lights.obj
 0001:00015ef0       ?IOleInPlaceObject_UIDeactivate@CComControlBase@ATL@@QAEJXZ 10016ef0 f i Lights.obj
 0001:00016160       ?IOleObject_Advise@CComControlBase@ATL@@QAEJPAUIAdviseSink@@PAK@Z 10017160 f i Lights.obj
 0001:00016210       ?IOleObject_Close@CComControlBase@ATL@@QAEJK@Z 10017210 f i Lights.obj
 0001:000164c0       ?IOleObject_GetClientSite@CComControlBase@ATL@@QAEJPAPAUIOleClientSite@@@Z 100174c0 f i Lights.obj
 0001:00016560       ?IOleObject_SetClientSite@CComControlBase@ATL@@QAEJPAUIOleClientSite@@@Z 10017560 f i Lights.obj
 0001:00016630       ?IOleObject_SetExtent@CComControlBase@ATL@@QAEJKPAUtagSIZE@@@Z 10017630 f i Lights.obj
 0001:00016770       ?IPSI_GetIPersistStreamInit@?$IPersistStorageImpl@VCOPOSLights@@@ATL@@AAEPAUIPersistStreamInit@@XZ 10017770 f i Lights.obj
 0001:00016840       ?IPersistStreamInit_Load@?$IPersistStreamInitImpl@VCOPOSLights@@@ATL@@QAEJPAUIStream@@PBUATL_PROPMAP_ENTRY@2@@Z 10017840 f i Lights.obj
 0001:000168c0       ?IPersistStreamInit_Save@?$IPersistStreamInitImpl@VCOPOSLights@@@ATL@@QAEJPAUIStream@@HPBUATL_PROPMAP_ENTRY@2@@Z 100178c0 f i Lights.obj
 0001:00016950       ?IQuickActivate_QuickActivate@CComControlBase@ATL@@QAEJPAUtagQACONTAINER@@PAUtagQACONTROL@@@Z 10017950 f i Lights.obj
 0001:00016fa0       ?IViewObject_Draw@CComControlBase@ATL@@QAEJKJPAXPAUtagDVTARGETDEVICE@@PAUHDC__@@2PBU_RECTL@@3@Z 10017fa0 f i Lights.obj
 0001:00017240       ?InPlaceActivate@CComControlBase@ATL@@QAEJJPBUtagRECT@@@Z 10018240 f i Lights.obj
 0001:00017bd0       ?InPlaceDeactivate@?$IOleInPlaceObjectWindowlessImpl@VCOPOSLights@@@ATL@@UAGJXZ 10018bd0 f i Lights.obj
 0001:00017c50       ?Increment@CComMultiThreadModel@ATL@@SGKPAJ@Z 10018c50 f i Lights.obj
 0001:00017c70       ?Increment@CComSingleThreadModel@ATL@@SGKPAJ@Z 10018c70 f i Lights.obj
 0001:00017c90       ?Init@?$CComEnumImpl@UIEnumConnectionPoints@@$1?_GUID_b196b285_bab4_101a_b69c_00aa00341d07@@3U__s_GUID@@BPAUIConnectionPoint@@V?$_CopyInterface@UIConnectionPoint@@@ATL@@@ATL@@QAEJPAPAUIConnectionPoint@@0PAUIUnknown@@W4CComEnumFlags@2@@Z 10018c90 f i Lights.obj
 0001:00017e70       ?Init@?$CComEnumImpl@UIEnumConnections@@$1?_GUID_b196b287_bab4_101a_b69c_00aa00341d07@@3U__s_GUID@@BUtagCONNECTDATA@@V?$_Copy@UtagCONNECTDATA@@@ATL@@@ATL@@QAEJPAUtagCONNECTDATA@@0PAUIUnknown@@W4CComEnumFlags@2@@Z 10018e70 f i Lights.obj
 0001:00018050       ?Init@CComFakeCriticalSection@ATL@@QAEJXZ 10019050 f i Lights.obj
 0001:00018070       ?Init@CComModule@ATL@@QAEJPAU_ATL_OBJMAP_ENTRY30@2@PAUHINSTANCE__@@PBU_GUID@@@Z 10019070 f i Lights.obj
 0001:00018160       ?Init@CComSafeDeleteCriticalSection@ATL@@QAEJXZ 10019160 f i Lights.obj
 0001:000181e0       ?Init@CDynamicStdCallThunk2@ATL@@QAEHKPAX@Z 100191e0 f i Lights.obj
 0001:00018240       ?Init@CWndProcThunk@ATL@@QAEHP6GJPAUHWND__@@IIJ@ZPAX@Z 10019240 f i Lights.obj
 0001:00018280       ?InitFromData@?$IOleObjectImpl@VCOPOSLights@@@ATL@@UAGJPAUIDataObject@@HK@Z 10019280 f i Lights.obj
 0001:000182f0       ?InitLibId@?$CAtlModuleT@VCComModule@ATL@@@ATL@@SAXXZ 100192f0 f i Lights.obj
 0001:00018300       ?InitNew@?$IPersistStorageImpl@VCOPOSLights@@@ATL@@UAGJPAUIStorage@@@Z 10019300 f i Lights.obj
 0001:000183f0       ?InitNew@?$IPersistStreamInitImpl@VCOPOSLights@@@ATL@@UAGJXZ 100193f0 f i Lights.obj
 0001:00018480       ?InlineIsEqualUnknown@ATL@@YGHABU_GUID@@@Z 10019480 f i Lights.obj
 0001:000184f0       ?InternalAddRef@?$CComObjectRootEx@VCComMultiThreadModel@ATL@@@ATL@@QAEKXZ 100194f0 f i Lights.obj
 0001:00018550       ?InternalAddRef@?$CComObjectRootEx@VCComSingleThreadModel@ATL@@@ATL@@QAEKXZ 10019550 f i Lights.obj
 0001:000185b0       ?InternalFinalConstructAddRef@CComObjectRootBase@ATL@@QAEXXZ 100195b0 f i Lights.obj
 0001:000185d0       ?InternalFinalConstructAddRef@COPOSLights@@QAEXXZ 100195d0 f i Lights.obj
 0001:00018600       ?InternalFinalConstructRelease@CComObjectRootBase@ATL@@QAEXXZ 10019600 f i Lights.obj
 0001:00018650       ?InternalFinalConstructRelease@COPOSLights@@QAEXXZ 10019650 f i Lights.obj
 0001:00018680       ?InternalGetSite@CComControlBase@ATL@@QAEJABU_GUID@@PAPAX@Z 10019680 f i Lights.obj
 0001:00018740       ?InternalQueryInterface@CComObjectRootBase@ATL@@SGJPAXPBU_ATL_INTMAP_ENTRY@2@ABU_GUID@@PAPAX@Z 10019740 f i Lights.obj
 0001:00018800       ?InternalRelease@?$CComObjectRootEx@VCComMultiThreadModel@ATL@@@ATL@@QAEKXZ 10019800 f i Lights.obj
 0001:00018870       ?InternalRelease@?$CComObjectRootEx@VCComSingleThreadModel@ATL@@@ATL@@QAEKXZ 10019870 f i Lights.obj
 0001:000188e0       ?InternalSetAtIndex@?$CSimpleArray@GV?$CSimpleArrayEqualHelper@G@ATL@@@ATL@@QAEXHABG@Z 100198e0 f i Lights.obj
 0001:00018950       ?InternalSetAtIndex@?$CSimpleMap@PA_WPA_WVCExpansionVectorEqualHelper@ATL@@@ATL@@QAEXHABQA_W0@Z 10019950 f i Lights.obj
 0001:000189f0       ?Invoke@?$IDispatchImpl@UIOPOSLights@@$1?IID_IOPOSLights@@3U_GUID@@B$1?LIBID_OposLights_CCO@@3U3@B$00$0A@VCComTypeInfoHolder@ATL@@@ATL@@UAGJJABU_GUID@@KGPAUtagDISPPARAMS@@PAUtagVARIANT@@PAUtagEXCEPINFO@@PAI@Z 100199f0 f i Lights.obj
 0001:00018a30       ?Invoke@CComTypeInfoHolder@ATL@@QAEJPAUIDispatch@@JABU_GUID@@KGPAUtagDISPPARAMS@@PAUtagVARIANT@@PAUtagEXCEPINFO@@PAI@Z 10019a30 f i Lights.obj
 0001:00018ac0       ?IsDirty@?$IPersistStorageImpl@VCOPOSLights@@@ATL@@UAGJXZ 10019ac0 f i Lights.obj
 0001:00018bb0       ?IsDirty@?$IPersistStreamInitImpl@VCOPOSLights@@@ATL@@UAGJXZ 10019bb0 f i Lights.obj
 0001:00018c50       ?IsEqualKey@CExpansionVectorEqualHelper@ATL@@SA_NQA_W0@Z 10019c50 f i Lights.obj
 0001:00018c80       ?IsEqualObject@?$CComPtrBase@UIOleClientSite@@@ATL@@QAE_NPAUIUnknown@@@Z 10019c80 f i Lights.obj
 0001:00018db0       ?IsEqualObject@?$CComPtrBase@UITypeInfo@@@ATL@@QAE_NPAUIUnknown@@@Z 10019db0 f i Lights.obj
 0001:00018ee0       ?IsSpace@CRegParser@ATL@@IAEH_W@Z 10019ee0 f i Lights.obj
 0001:00018f50       ?IsUpToDate@?$IOleObjectImpl@VCOPOSLights@@@ATL@@UAGJXZ 10019f50 f i Lights.obj
 0001:00018fb0       ?Length@CComBSTR@ATL@@QBEIXZ 10019fb0 f i Lights.obj
 0001:00018ff0       ?Load@?$IPersistStorageImpl@VCOPOSLights@@@ATL@@UAGJPAUIStorage@@@Z 10019ff0 f i Lights.obj
 0001:00019150       ?Load@?$IPersistStreamInitImpl@VCOPOSLights@@@ATL@@UAGJPAUIStream@@@Z 1001a150 f i Lights.obj
 0001:000191e0       ?LoadCursorW@AtlModuleRegisterWndClassInfoParamW@ATL@@SAPAUHICON__@@PAUHINSTANCE__@@PB_W@Z 1001a1e0 f i Lights.obj
 0001:00019210       ?LoadNameCache@CComTypeInfoHolder@ATL@@QAEJPAUITypeInfo@@@Z 1001a210 f i Lights.obj
 0001:000194a0       ?Lock@?$CComCritSecLock@VCComCriticalSection@ATL@@@ATL@@QAEJXZ 1001a4a0 f i Lights.obj
 0001:00019550       ?Lock@?$CComObjectRootEx@VCComSingleThreadModel@ATL@@@ATL@@QAEXXZ 1001a550 f i Lights.obj
 0001:00019570       ?Lock@CAtlModule@ATL@@UAEJXZ 1001a570 f i Lights.obj
 0001:000195a0       ?Lock@CComCriticalSection@ATL@@QAEJXZ 1001a5a0 f i Lights.obj
 0001:000195e0       ?Lock@CComFakeCriticalSection@ATL@@QAEJXZ 1001a5e0 f i Lights.obj
 0001:00019600       ?LockServer@CComClassFactory@ATL@@UAGJH@Z 1001a600 f i Lights.obj
 0001:00019660       ?Lookup@?$CSimpleMap@PA_WPA_WVCExpansionVectorEqualHelper@ATL@@@ATL@@QBEPA_WABQA_W@Z 1001a660 f i Lights.obj
 0001:000196b0       ?Next@?$CComEnumImpl@UIEnumConnectionPoints@@$1?_GUID_b196b285_bab4_101a_b69c_00aa00341d07@@3U__s_GUID@@BPAUIConnectionPoint@@V?$_CopyInterface@UIConnectionPoint@@@ATL@@@ATL@@UAGJKPAPAUIConnectionPoint@@PAK@Z 1001a6b0 f i Lights.obj
 0001:00019820       ?Next@?$CComEnumImpl@UIEnumConnections@@$1?_GUID_b196b287_bab4_101a_b69c_00aa00341d07@@3U__s_GUID@@BUtagCONNECTDATA@@V?$_Copy@UtagCONNECTDATA@@@ATL@@@ATL@@UAGJKPAUtagCONNECTDATA@@PAK@Z 1001a820 f i Lights.obj
 0001:00019990       ?NextToken@CRegParser@ATL@@IAEJPA_W@Z 1001a990 f i Lights.obj
 0001:00019c30       ?OLE2CT_EX@@YAPB_WPB_WI@Z  1001ac30 f i Lights.obj
 0001:00019c40       ?OLE2CT_EX_DEF@@YAPB_WPB_W@Z 1001ac40 f i Lights.obj
 0001:00019c50       ?OLE2T_EX@@YAPA_WPA_WI@Z   1001ac50 f i Lights.obj
 0001:00019c60       ?OnAmbientPropertyChange@?$IOleControlImpl@VCOPOSLights@@@ATL@@UAGJJ@Z 1001ac60 f i Lights.obj
 0001:00019cf0       ?OnDocWindowActivate@?$IOleInPlaceActiveObjectImpl@VCOPOSLights@@@ATL@@UAGJH@Z 1001acf0 f i Lights.obj
 0001:00019d80       ?OnDrawAdvanced@CComControlBase@ATL@@UAEJAAUATL_DRAWINFO@@@Z 1001ad80 f i Lights.obj
 0001:00019fa0       ?OnFinalMessage@?$CWindowImplBaseT@VCWindow@ATL@@V?$CWinTraits@$0FGAAAAAA@$0A@@2@@ATL@@UAEXPAUHWND__@@@Z 1001afa0 f i Lights.obj
 0001:00019fc0       ?OnFrameWindowActivate@?$IOleInPlaceActiveObjectImpl@VCOPOSLights@@@ATL@@UAGJH@Z 1001afc0 f i Lights.obj
 0001:0001a020       ?OnKillFocus@CComControlBase@ATL@@QAEJIIJAAH@Z 1001b020 f i Lights.obj
 0001:0001a120       ?OnMnemonic@?$IOleControlImpl@VCOPOSLights@@@ATL@@UAGJPAUtagMSG@@@Z 1001b120 f i Lights.obj
 0001:0001a190       ?OnMouseActivate@CComControlBase@ATL@@QAEJIIJAAH@Z 1001b190 f i Lights.obj
 0001:0001a2e0       ?OnPaint@CComControlBase@ATL@@QAEJIIJAAH@Z 1001b2e0 f i Lights.obj
 0001:0001a460       ?OnPostVerbDiscardUndo@?$IOleObjectImpl@VCOPOSLights@@@ATL@@QAEJXZ 1001b460 f i Lights.obj
 0001:0001a480       ?OnPostVerbHide@?$IOleObjectImpl@VCOPOSLights@@@ATL@@QAEJXZ 1001b480 f i Lights.obj
 0001:0001a4a0       ?OnPostVerbInPlaceActivate@?$IOleObjectImpl@VCOPOSLights@@@ATL@@QAEJXZ 1001b4a0 f i Lights.obj
 0001:0001a4c0       ?OnPostVerbOpen@?$IOleObjectImpl@VCOPOSLights@@@ATL@@QAEJXZ 1001b4c0 f i Lights.obj
 0001:0001a4e0       ?OnPostVerbShow@?$IOleObjectImpl@VCOPOSLights@@@ATL@@QAEJXZ 1001b4e0 f i Lights.obj
 0001:0001a500       ?OnPostVerbUIActivate@?$IOleObjectImpl@VCOPOSLights@@@ATL@@QAEJXZ 1001b500 f i Lights.obj
 0001:0001a520       ?OnPreVerbDiscardUndo@?$IOleObjectImpl@VCOPOSLights@@@ATL@@QAEJXZ 1001b520 f i Lights.obj
 0001:0001a540       ?OnPreVerbHide@?$IOleObjectImpl@VCOPOSLights@@@ATL@@QAEJXZ 1001b540 f i Lights.obj
 0001:0001a560       ?OnPreVerbInPlaceActivate@?$IOleObjectImpl@VCOPOSLights@@@ATL@@QAEJXZ 1001b560 f i Lights.obj
 0001:0001a580       ?OnPreVerbOpen@?$IOleObjectImpl@VCOPOSLights@@@ATL@@QAEJXZ 1001b580 f i Lights.obj
 0001:0001a5a0       ?OnPreVerbShow@?$IOleObjectImpl@VCOPOSLights@@@ATL@@QAEJXZ 1001b5a0 f i Lights.obj
 0001:0001a5c0       ?OnPreVerbUIActivate@?$IOleObjectImpl@VCOPOSLights@@@ATL@@QAEJXZ 1001b5c0 f i Lights.obj
 0001:0001a5e0       ?OnSetFocus@CComControlBase@ATL@@QAEJIIJAAH@Z 1001b5e0 f i Lights.obj
 0001:0001a770       ?OnWindowMessage@?$IOleInPlaceObjectWindowlessImpl@VCOPOSLights@@@ATL@@UAGJIIJPAJ@Z 1001b770 f i Lights.obj
 0001:0001a8d0       ?Open@CRegKey@ATL@@QAEJPAUHKEY__@@PB_WK@Z 1001b8d0 f i Lights.obj
 0001:0001aa20       ?OuterAddRef@CComObjectRootBase@ATL@@QAEKXZ 1001ba20 f i Lights.obj
 0001:0001aa60       ?OuterQueryInterface@CComObjectRootBase@ATL@@QAEJABU_GUID@@PAPAX@Z 1001ba60 f i Lights.obj
 0001:0001aab0       ?OuterRelease@CComObjectRootBase@ATL@@QAEKXZ 1001bab0 f i Lights.obj
 0001:0001aaf0       ?PreProcessBuffer@CRegParser@ATL@@QAEJPA_WPAPA_W@Z 1001baf0 f i Lights.obj
 0001:0001b030       ?PreTranslateAccelerator@CComControlBase@ATL@@QAEHPAUtagMSG@@AAJ@Z 1001c030 f i Lights.obj
 0001:0001b050       ?ProcessWindowMessage@?$CComControl@VCOPOSLights@@V?$CWindowImpl@VCOPOSLights@@VCWindow@ATL@@V?$CWinTraits@$0FGAAAAAA@$0A@@3@@ATL@@@ATL@@UAEHPAUHWND__@@IIJAAJK@Z 1001c050 f i Lights.obj
 0001:0001b220       ?ProcessWindowMessage@COPOSLights@@UAEHPAUHWND__@@IIJAAJK@Z 1001c220 f i Lights.obj
 0001:0001b320       ?PutProperty@?$CComPtr@UIDispatch@@@ATL@@QAEJJPAUtagVARIANT@@@Z 1001c320 f i Lights.obj
 0001:0001b360       ?PutProperty@?$CComPtr@UIDispatch@@@ATL@@SAJPAUIDispatch@@JPAUtagVARIANT@@@Z 1001c360 f i Lights.obj
 0001:0001b550       ?QueryGetData@?$IDataObjectImpl@VCOPOSLights@@@ATL@@UAGJPAUtagFORMATETC@@@Z 1001c550 f i Lights.obj
 0001:0001b5c0       ?QueryHitPoint@?$IViewObjectExImpl@VCOPOSLights@@@ATL@@UAGJKPBUtagRECT@@UtagPOINT@@JPAK@Z 1001c5c0 f i Lights.obj
 0001:0001b6d0       ?QueryHitRect@?$IViewObjectExImpl@VCOPOSLights@@@ATL@@UAGJKPBUtagRECT@@0JPAK@Z 1001c6d0 f i Lights.obj
 0001:0001b820       ?QueryInterface@?$CComAggObject@VCOPOSLights@@@ATL@@UAGJABU_GUID@@PAPAX@Z 1001c820 f i Lights.obj
 0001:0001b8d0       ?QueryInterface@?$CComContainedObject@VCOPOSLights@@@ATL@@UAGJABU_GUID@@PAPAX@Z 1001c8d0 f i Lights.obj
 0001:0001b8f4       ?QueryInterface@?$CComContainedObject@VCOPOSLights@@@ATL@@WHA@AGJABU_GUID@@PAPAX@Z 1001c8f4 f i Lights.obj
 0001:0001b8fe       ?QueryInterface@?$CComContainedObject@VCOPOSLights@@@ATL@@WHE@AGJABU_GUID@@PAPAX@Z 1001c8fe f i Lights.obj
 0001:0001b908       ?QueryInterface@?$CComContainedObject@VCOPOSLights@@@ATL@@WHI@AGJABU_GUID@@PAPAX@Z 1001c908 f i Lights.obj
 0001:0001b912       ?QueryInterface@?$CComContainedObject@VCOPOSLights@@@ATL@@WHM@AGJABU_GUID@@PAPAX@Z 1001c912 f i Lights.obj
 0001:0001b91c       ?QueryInterface@?$CComContainedObject@VCOPOSLights@@@ATL@@WIA@AGJABU_GUID@@PAPAX@Z 1001c91c f i Lights.obj
 0001:0001b929       ?QueryInterface@?$CComContainedObject@VCOPOSLights@@@ATL@@WIE@AGJABU_GUID@@PAPAX@Z 1001c929 f i Lights.obj
 0001:0001b936       ?QueryInterface@?$CComContainedObject@VCOPOSLights@@@ATL@@WII@AGJABU_GUID@@PAPAX@Z 1001c936 f i Lights.obj
 0001:0001b943       ?QueryInterface@?$CComContainedObject@VCOPOSLights@@@ATL@@WIM@AGJABU_GUID@@PAPAX@Z 1001c943 f i Lights.obj
 0001:0001b950       ?QueryInterface@?$CComContainedObject@VCOPOSLights@@@ATL@@WJA@AGJABU_GUID@@PAPAX@Z 1001c950 f i Lights.obj
 0001:0001b95d       ?QueryInterface@?$CComContainedObject@VCOPOSLights@@@ATL@@WJE@AGJABU_GUID@@PAPAX@Z 1001c95d f i Lights.obj
 0001:0001b96a       ?QueryInterface@?$CComContainedObject@VCOPOSLights@@@ATL@@WJI@AGJABU_GUID@@PAPAX@Z 1001c96a f i Lights.obj
 0001:0001b977       ?QueryInterface@?$CComContainedObject@VCOPOSLights@@@ATL@@WJM@AGJABU_GUID@@PAPAX@Z 1001c977 f i Lights.obj
 0001:0001b984       ?QueryInterface@?$CComContainedObject@VCOPOSLights@@@ATL@@WKA@AGJABU_GUID@@PAPAX@Z 1001c984 f i Lights.obj
 0001:0001b9a0       ?QueryInterface@?$CComObject@V?$CComEnum@UIEnumConnectionPoints@@$1?_GUID_b196b285_bab4_101a_b69c_00aa00341d07@@3U__s_GUID@@BPAUIConnectionPoint@@V?$_CopyInterface@UIConnectionPoint@@@ATL@@VCComSingleThreadModel@6@@ATL@@@ATL@@UAGJABU_GUID@@PAPAX@Z 1001c9a0 f i Lights.obj
 0001:0001b9c0       ?QueryInterface@?$CComObject@V?$CComEnum@UIEnumConnections@@$1?_GUID_b196b287_bab4_101a_b69c_00aa00341d07@@3U__s_GUID@@BUtagCONNECTDATA@@V?$_Copy@UtagCONNECTDATA@@@ATL@@VCComSingleThreadModel@6@@ATL@@@ATL@@UAGJABU_GUID@@PAPAX@Z 1001c9c0 f i Lights.obj
 0001:0001b9e0       ?QueryInterface@?$CComObject@VCOPOSLights@@@ATL@@UAGJABU_GUID@@PAPAX@Z 1001c9e0 f i Lights.obj
 0001:0001b9fe       ?QueryInterface@?$CComObject@VCOPOSLights@@@ATL@@WHA@AGJABU_GUID@@PAPAX@Z 1001c9fe f i Lights.obj
 0001:0001ba08       ?QueryInterface@?$CComObject@VCOPOSLights@@@ATL@@WHE@AGJABU_GUID@@PAPAX@Z 1001ca08 f i Lights.obj
 0001:0001ba12       ?QueryInterface@?$CComObject@VCOPOSLights@@@ATL@@WHI@AGJABU_GUID@@PAPAX@Z 1001ca12 f i Lights.obj
 0001:0001ba1c       ?QueryInterface@?$CComObject@VCOPOSLights@@@ATL@@WHM@AGJABU_GUID@@PAPAX@Z 1001ca1c f i Lights.obj
 0001:0001ba26       ?QueryInterface@?$CComObject@VCOPOSLights@@@ATL@@WIA@AGJABU_GUID@@PAPAX@Z 1001ca26 f i Lights.obj
 0001:0001ba33       ?QueryInterface@?$CComObject@VCOPOSLights@@@ATL@@WIE@AGJABU_GUID@@PAPAX@Z 1001ca33 f i Lights.obj
 0001:0001ba40       ?QueryInterface@?$CComObject@VCOPOSLights@@@ATL@@WII@AGJABU_GUID@@PAPAX@Z 1001ca40 f i Lights.obj
 0001:0001ba4d       ?QueryInterface@?$CComObject@VCOPOSLights@@@ATL@@WIM@AGJABU_GUID@@PAPAX@Z 1001ca4d f i Lights.obj
 0001:0001ba5a       ?QueryInterface@?$CComObject@VCOPOSLights@@@ATL@@WJA@AGJABU_GUID@@PAPAX@Z 1001ca5a f i Lights.obj
 0001:0001ba67       ?QueryInterface@?$CComObject@VCOPOSLights@@@ATL@@WJE@AGJABU_GUID@@PAPAX@Z 1001ca67 f i Lights.obj
 0001:0001ba74       ?QueryInterface@?$CComObject@VCOPOSLights@@@ATL@@WJI@AGJABU_GUID@@PAPAX@Z 1001ca74 f i Lights.obj
 0001:0001ba81       ?QueryInterface@?$CComObject@VCOPOSLights@@@ATL@@WJM@AGJABU_GUID@@PAPAX@Z 1001ca81 f i Lights.obj
 0001:0001ba8e       ?QueryInterface@?$CComObject@VCOPOSLights@@@ATL@@WKA@AGJABU_GUID@@PAPAX@Z 1001ca8e f i Lights.obj
 0001:0001baa0       ?QueryInterface@?$CComObjectCached@VCComClassFactory@ATL@@@ATL@@UAGJABU_GUID@@PAPAX@Z 1001caa0 f i Lights.obj
 0001:0001bac0       ?QueryInterface@CRegObject@ATL@@UAGJABU_GUID@@PAPAX@Z 1001cac0 f i Lights.obj
 0001:0001bb10       ?QuickActivate@?$IQuickActivateImpl@VCOPOSLights@@@ATL@@UAGJPAUtagQACONTAINER@@PAUtagQACONTROL@@@Z 1001cb10 f i Lights.obj
 0001:0001bba0       ?ReactivateAndUndo@?$IOleInPlaceObjectWindowlessImpl@VCOPOSLights@@@ATL@@UAGJXZ 1001cba0 f i Lights.obj
 0001:0001bc10       ?ReadFromStream@CComBSTR@ATL@@QAEJPAUIStream@@@Z 1001cc10 f i Lights.obj
 0001:0001c010       ?ReadFromStream@CComVariant@ATL@@QAEJPAUIStream@@GTClassesAllowedInStream@2@K@Z 1001d010 f i Lights.obj
 0001:0001c370       ?RecurseDeleteKey@CRegKey@ATL@@QAEJPB_W@Z 1001d370 f i Lights.obj
 0001:0001c550       ?RegCreateKeyExW@CAtlTransactionManager@ATL@@QAEJPAUHKEY__@@PB_WKPA_WKKQAU_SECURITY_ATTRIBUTES@@PAPAU3@PAK@Z 1001d550 f i Lights.obj
 0001:0001c680       ?RegDeleteKeyW@CAtlTransactionManager@ATL@@QAEJPAUHKEY__@@PB_W@Z 1001d680 f i Lights.obj
 0001:0001c780       ?RegOpenKeyExW@CAtlTransactionManager@ATL@@QAEJPAUHKEY__@@PB_WKKPAPAU3@@Z 1001d780 f i Lights.obj
 0001:0001c890       ?Register@_ATL_WNDCLASSINFOW@ATL@@QAEGPAP6GJPAUHWND__@@IIJ@Z@Z 1001d890 f i Lights.obj
 0001:0001c8d0       ?RegisterBuffer@CRegParser@ATL@@QAEJPA_WH@Z 1001d8d0 f i Lights.obj
 0001:0001cc00       ?RegisterClassExW@AtlModuleRegisterWndClassInfoParamW@ATL@@SAGPAU_ATL_WIN_MODULE70@2@PBUtagWNDCLASSEXW@@@Z 1001dc00 f i Lights.obj
 0001:0001cc20       ?RegisterFromResource@CRegObject@ATL@@IAEJPB_W00H@Z 1001dc20 f i Lights.obj
 0001:0001cfb0       ?RegisterServer@?$CAtlModuleT@VCComModule@ATL@@@ATL@@QAEJHPBU_GUID@@@Z 1001dfb0 f i Lights.obj
 0001:0001d030       ?RegisterServer@CAtlComModule@ATL@@QAEJHPBU_GUID@@@Z 1001e030 f i Lights.obj
 0001:0001d060       ?RegisterServer@CComModule@ATL@@QAEJHPBU_GUID@@@Z 1001e060 f i Lights.obj
 0001:0001d140       ?RegisterSubkeys@CRegParser@ATL@@IAEJPA_WPAUHKEY__@@HH@Z 1001e140 f i Lights.obj
 0001:0001dc60       ?Release@?$CComAggObject@VCOPOSLights@@@ATL@@UAGKXZ 1001ec60 f i Lights.obj
 0001:0001dd20       ?Release@?$CComContainedObject@VCOPOSLights@@@ATL@@UAGKXZ 1001ed20 f i Lights.obj
 0001:0001dd3c       ?Release@?$CComContainedObject@VCOPOSLights@@@ATL@@WHA@AGKXZ 1001ed3c f i Lights.obj
 0001:0001dd46       ?Release@?$CComContainedObject@VCOPOSLights@@@ATL@@WHE@AGKXZ 1001ed46 f i Lights.obj
 0001:0001dd50       ?Release@?$CComContainedObject@VCOPOSLights@@@ATL@@WHI@AGKXZ 1001ed50 f i Lights.obj
 0001:0001dd5a       ?Release@?$CComContainedObject@VCOPOSLights@@@ATL@@WHM@AGKXZ 1001ed5a f i Lights.obj
 0001:0001dd64       ?Release@?$CComContainedObject@VCOPOSLights@@@ATL@@WIA@AGKXZ 1001ed64 f i Lights.obj
 0001:0001dd71       ?Release@?$CComContainedObject@VCOPOSLights@@@ATL@@WIE@AGKXZ 1001ed71 f i Lights.obj
 0001:0001dd7e       ?Release@?$CComContainedObject@VCOPOSLights@@@ATL@@WII@AGKXZ 1001ed7e f i Lights.obj
 0001:0001dd8b       ?Release@?$CComContainedObject@VCOPOSLights@@@ATL@@WIM@AGKXZ 1001ed8b f i Lights.obj
 0001:0001dd98       ?Release@?$CComContainedObject@VCOPOSLights@@@ATL@@WJA@AGKXZ 1001ed98 f i Lights.obj
 0001:0001dda5       ?Release@?$CComContainedObject@VCOPOSLights@@@ATL@@WJE@AGKXZ 1001eda5 f i Lights.obj
 0001:0001ddb2       ?Release@?$CComContainedObject@VCOPOSLights@@@ATL@@WJI@AGKXZ 1001edb2 f i Lights.obj
 0001:0001ddbf       ?Release@?$CComContainedObject@VCOPOSLights@@@ATL@@WJM@AGKXZ 1001edbf f i Lights.obj
 0001:0001ddcc       ?Release@?$CComContainedObject@VCOPOSLights@@@ATL@@WKA@AGKXZ 1001edcc f i Lights.obj
 0001:0001ddd9       ?Release@?$CComContainedObject@VCOPOSLights@@@ATL@@WKI@AGKXZ 1001edd9 f i Lights.obj
 0001:0001dde6       ?Release@?$CComContainedObject@VCOPOSLights@@@ATL@@WLE@AGKXZ 1001ede6 f i Lights.obj
 0001:0001de00       ?Release@?$CComObject@V?$CComEnum@UIEnumConnectionPoints@@$1?_GUID_b196b285_bab4_101a_b69c_00aa00341d07@@3U__s_GUID@@BPAUIConnectionPoint@@V?$_CopyInterface@UIConnectionPoint@@@ATL@@VCComSingleThreadModel@6@@ATL@@@ATL@@UAGKXZ 1001ee00 f i Lights.obj
 0001:0001dec0       ?Release@?$CComObject@V?$CComEnum@UIEnumConnections@@$1?_GUID_b196b287_bab4_101a_b69c_00aa00341d07@@3U__s_GUID@@BUtagCONNECTDATA@@V?$_Copy@UtagCONNECTDATA@@@ATL@@VCComSingleThreadModel@6@@ATL@@@ATL@@UAGKXZ 1001eec0 f i Lights.obj
 0001:0001df80       ?Release@?$CComObject@VCOPOSLights@@@ATL@@UAGKXZ 1001ef80 f i Lights.obj
 0001:0001e039       ?Release@?$CComObject@VCOPOSLights@@@ATL@@WHA@AGKXZ 1001f039 f i Lights.obj
 0001:0001e043       ?Release@?$CComObject@VCOPOSLights@@@ATL@@WHE@AGKXZ 1001f043 f i Lights.obj
 0001:0001e04d       ?Release@?$CComObject@VCOPOSLights@@@ATL@@WHI@AGKXZ 1001f04d f i Lights.obj
 0001:0001e057       ?Release@?$CComObject@VCOPOSLights@@@ATL@@WHM@AGKXZ 1001f057 f i Lights.obj
 0001:0001e061       ?Release@?$CComObject@VCOPOSLights@@@ATL@@WIA@AGKXZ 1001f061 f i Lights.obj
 0001:0001e06e       ?Release@?$CComObject@VCOPOSLights@@@ATL@@WIE@AGKXZ 1001f06e f i Lights.obj
 0001:0001e07b       ?Release@?$CComObject@VCOPOSLights@@@ATL@@WII@AGKXZ 1001f07b f i Lights.obj
 0001:0001e088       ?Release@?$CComObject@VCOPOSLights@@@ATL@@WIM@AGKXZ 1001f088 f i Lights.obj
 0001:0001e095       ?Release@?$CComObject@VCOPOSLights@@@ATL@@WJA@AGKXZ 1001f095 f i Lights.obj
 0001:0001e0a2       ?Release@?$CComObject@VCOPOSLights@@@ATL@@WJE@AGKXZ 1001f0a2 f i Lights.obj
 0001:0001e0af       ?Release@?$CComObject@VCOPOSLights@@@ATL@@WJI@AGKXZ 1001f0af f i Lights.obj
 0001:0001e0bc       ?Release@?$CComObject@VCOPOSLights@@@ATL@@WJM@AGKXZ 1001f0bc f i Lights.obj
 0001:0001e0c9       ?Release@?$CComObject@VCOPOSLights@@@ATL@@WKA@AGKXZ 1001f0c9 f i Lights.obj
 0001:0001e0d6       ?Release@?$CComObject@VCOPOSLights@@@ATL@@WKI@AGKXZ 1001f0d6 f i Lights.obj
 0001:0001e0e3       ?Release@?$CComObject@VCOPOSLights@@@ATL@@WLE@AGKXZ 1001f0e3 f i Lights.obj
 0001:0001e0f0       ?Release@?$CComObjectCached@VCComClassFactory@ATL@@@ATL@@UAGKXZ 1001f0f0 f i Lights.obj
 0001:0001e190       ?Release@?$CComPtrBase@UIAdviseSink@@@ATL@@QAEXXZ 1001f190 f i Lights.obj
 0001:0001e1f0       ?Release@?$CComPtrBase@UIDispatch@@@ATL@@QAEXXZ 1001f1f0 f i Lights.obj
 0001:0001e250       ?Release@?$CComPtrBase@UIOleInPlaceSiteWindowless@@@ATL@@QAEXXZ 1001f250 f i Lights.obj
 0001:0001e2b0       ?Release@CRegObject@ATL@@UAGKXZ 1001f2b0 f i Lights.obj
 0001:0001e2f0       ?Remove@CComDynamicUnkArray@ATL@@QAEHK@Z 1001f2f0 f i Lights.obj
 0001:0001e3a0       ?RemoveAll@?$CSimpleMap@PA_WPA_WVCExpansionVectorEqualHelper@ATL@@@ATL@@QAEXXZ 1001f3a0 f i Lights.obj
 0001:0001e430       ?Reset@?$CComEnumImpl@UIEnumConnectionPoints@@$1?_GUID_b196b285_bab4_101a_b69c_00aa00341d07@@3U__s_GUID@@BPAUIConnectionPoint@@V?$_CopyInterface@UIConnectionPoint@@@ATL@@@ATL@@UAGJXZ 1001f430 f i Lights.obj
 0001:0001e450       ?Reset@?$CComEnumImpl@UIEnumConnections@@$1?_GUID_b196b287_bab4_101a_b69c_00aa00341d07@@3U__s_GUID@@BUtagCONNECTDATA@@V?$_Copy@UtagCONNECTDATA@@@ATL@@@ATL@@UAGJXZ 1001f450 f i Lights.obj
 0001:0001e470       ?ResizeBorder@?$IOleInPlaceActiveObjectImpl@VCOPOSLights@@@ATL@@UAGJPBUtagRECT@@PAUIOleInPlaceUIWindow@@H@Z 1001f470 f i Lights.obj
 0001:0001e4d0       ?ResourceRegister@CRegObject@ATL@@QAGJPB_WI0@Z 1001f4d0 f i Lights.obj
 0001:0001e5b0       ?ResourceRegisterSz@CRegObject@ATL@@QAGJPB_W00@Z 1001f5b0 f i Lights.obj
 0001:0001e6b0       ?ResourceUnregister@CRegObject@ATL@@QAGJPB_WI0@Z 1001f6b0 f i Lights.obj
 0001:0001e790       ?ResourceUnregisterSz@CRegObject@ATL@@QAGJPB_W00@Z 1001f790 f i Lights.obj
 0001:0001e890       ?SODataDummy@COPOSLights@@MAGJJ@Z 1001f890 f i Lights.obj
 0001:0001e8a0       ?SODirectIO@COPOSLights@@MAGJJPAJPAPA_W@Z 1001f8a0 f i Lights.obj
 0001:0001ea60       ?SOErrorDummy@COPOSLights@@MAGJJJJPAJ@Z 1001fa60 f i Lights.obj
 0001:0001ea70       ?SOOutputCompleteDummy@COPOSLights@@MAGJJ@Z 1001fa70 f i Lights.obj
 0001:0001ea80       ?SOStatusUpdate@COPOSLights@@MAGJJ@Z 1001fa80 f i Lights.obj
 0001:0001eb00       ?Save@?$IPersistStorageImpl@VCOPOSLights@@@ATL@@UAGJPAUIStorage@@H@Z 1001fb00 f i Lights.obj
 0001:0001ec60       ?Save@?$IPersistStreamInitImpl@VCOPOSLights@@@ATL@@UAGJPAUIStream@@H@Z 1001fc60 f i Lights.obj
 0001:0001ecf0       ?SaveCompleted@?$IPersistStorageImpl@VCOPOSLights@@@ATL@@UAGJPAUIStorage@@@Z 1001fcf0 f i Lights.obj
 0001:0001ed50       ?SendOnDataChange@CComControlBase@ATL@@QAEJK@Z 1001fd50 f i Lights.obj
 0001:0001ee40       ?SendOnSave@CComControlBase@ATL@@QAEJXZ 1001fe40 f i Lights.obj
 0001:0001eeb0       ?SendOnViewChange@CComControlBase@ATL@@QAEJKJ@Z 1001feb0 f i Lights.obj
 0001:0001ef20       ?SetAdvise@?$IViewObjectExImpl@VCOPOSLights@@@ATL@@UAGJKKPAUIAdviseSink@@@Z 1001ff20 f i Lights.obj
 0001:0001efb0       ?SetClientSite@?$IOleObjectImpl@VCOPOSLights@@@ATL@@UAGJPAUIOleClientSite@@@Z 1001ffb0 f i Lights.obj
 0001:0001f040       ?SetColorScheme@?$IOleObjectImpl@VCOPOSLights@@@ATL@@UAGJPAUtagLOGPALETTE@@@Z 10020040 f i Lights.obj
 0001:0001f0b0       ?SetContentExtent@?$IQuickActivateImpl@VCOPOSLights@@@ATL@@UAGJPAUtagSIZE@@@Z 100200b0 f i Lights.obj
 0001:0001f140       ?SetControlFocus@CComControlBase@ATL@@QAEHH@Z 10020140 f i Lights.obj
 0001:0001f2c0       ?SetDWORDValue@CRegKey@ATL@@QAEJPB_WK@Z 100202c0 f i Lights.obj
 0001:0001f340       ?SetData@?$IDataObjectImpl@VCOPOSLights@@@ATL@@UAGJPAUtagFORMATETC@@PAUtagSTGMEDIUM@@H@Z 10020340 f i Lights.obj
 0001:0001f3b0       ?SetExtent@?$IOleObjectImpl@VCOPOSLights@@@ATL@@UAGJKPAUtagSIZE@@@Z 100203b0 f i Lights.obj
 0001:0001f440       ?SetHostNames@?$IOleObjectImpl@VCOPOSLights@@@ATL@@UAGJPB_W0@Z 10020440 f i Lights.obj
 0001:0001f4a0       ?SetInterfaceSafetyOptions@?$IObjectSafetyImpl@VCOPOSLights@@$02@ATL@@UAGJABU_GUID@@KK@Z 100204a0 f i Lights.obj
 0001:0001f610       ?SetMoniker@?$IOleObjectImpl@VCOPOSLights@@@ATL@@UAGJKPAUIMoniker@@@Z 10020610 f i Lights.obj
 0001:0001f680       ?SetMultiStringValue@CRegKey@ATL@@QAEJPB_W0@Z 10020680 f i Lights.obj
 0001:0001f7a0       ?SetObjectRects@?$IOleInPlaceObjectWindowlessImpl@VCOPOSLights@@@ATL@@UAGJPBUtagRECT@@0@Z 100207a0 f i Lights.obj
 0001:0001f830       ?SetStringValue@CRegKey@ATL@@QAEJPB_W0K@Z 10020830 f i Lights.obj
 0001:0001f960       ?SetVoid@CComClassFactory@ATL@@QAEXPAX@Z 10020960 f i Lights.obj
 0001:0001f980       ?SetVoid@CComObjectRootBase@ATL@@QAEXPAX@Z 10020980 f i Lights.obj
 0001:0001f9a0       ?SetWindowLongPtrW@@YAJPAUHWND__@@HJ@Z 100209a0 f i Lights.obj
 0001:0001f9d0       ?ShowWindow@CWindow@ATL@@QAEHH@Z 100209d0 f i Lights.obj
 0001:0001fa50       ?Skip@?$CComEnumImpl@UIEnumConnectionPoints@@$1?_GUID_b196b285_bab4_101a_b69c_00aa00341d07@@3U__s_GUID@@BPAUIConnectionPoint@@V?$_CopyInterface@UIConnectionPoint@@@ATL@@@ATL@@UAGJK@Z 10020a50 f i Lights.obj
 0001:0001fad0       ?Skip@?$CComEnumImpl@UIEnumConnections@@$1?_GUID_b196b287_bab4_101a_b69c_00aa00341d07@@3U__s_GUID@@BUtagCONNECTDATA@@V?$_Copy@UtagCONNECTDATA@@@ATL@@@ATL@@UAGJK@Z 10020ad0 f i Lights.obj
 0001:0001fb50       ?SkipAssignment@CRegParser@ATL@@IAEJPA_W@Z 10020b50 f i Lights.obj
 0001:0001fc30       ?SkipWhiteSpace@CRegParser@ATL@@IAEXXZ 10020c30 f i Lights.obj
 0001:0001fc80       ?StartWindowProc@?$CWindowImplBaseT@VCWindow@ATL@@V?$CWinTraits@$0FGAAAAAA@$0A@@2@@ATL@@SGJPAUHWND__@@IIJ@Z 10020c80 f i Lights.obj
 0001:0001fda0       ?StrChrW@CRegParser@ATL@@KAPA_WPA_W_W@Z 10020da0 f i Lights.obj
 0001:0001fe10       ?StrFromMap@CRegObject@ATL@@QAEPB_WPA_W@Z 10020e10 f i Lights.obj
 0001:0001fea0       ?Swap@?$CComPtrBase@UIAdviseSink@@@ATL@@IAEXAAV12@@Z 10020ea0 f i Lights.obj
 0001:0001fee0       ?Swap@?$CComPtrBase@UIOleClientSite@@@ATL@@IAEXAAV12@@Z 10020ee0 f i Lights.obj
 0001:0001ff20       ?Swap@?$CComPtrBase@UIUnknown@@@ATL@@IAEXAAV12@@Z 10020f20 f i Lights.obj
 0001:0001ff60       ?T2COLE_EX@@YAPB_WPB_WI@Z  10020f60 f i Lights.obj
 0001:0001ff70       ?T2OLE_EX@@YAPA_WPA_WI@Z   10020f70 f i Lights.obj
 0001:0001ff80       ?Term@CAtlModule@ATL@@QAEXXZ 10020f80 f i Lights.obj
 0001:00020030       ?Term@CComModule@ATL@@QAEXXZ 10021030 f i Lights.obj
 0001:00020120       ?TranslateAcceleratorW@?$IOleInPlaceActiveObjectImpl@VCOPOSLights@@@ATL@@UAGJPAUtagMSG@@@Z 10021120 f i Lights.obj
 0001:00020320       ?UIDeactivate@?$IOleInPlaceObjectWindowlessImpl@VCOPOSLights@@@ATL@@UAGJXZ 10021320 f i Lights.obj
 0001:000203a0       ?Unadvise@?$CProxy_IOPOSEvents@VCOPOSLights@@@@UAGJK@Z 100213a0 f i Lights.obj
 0001:000203e0       ?Unadvise@?$IConnectionPointImpl@VCOPOSLights@@$1?DIID__IOPOSLightsEvents@@3U_GUID@@BVCComDynamicUnkArray@ATL@@@ATL@@UAGJK@Z 100213e0 f i Lights.obj
 0001:000204b0       ?Unadvise@?$IConnectionPointImpl@VCOPOSLights@@$1?IID_IPropertyNotifySink@@3U_GUID@@BVCComDynamicUnkArray@ATL@@@ATL@@UAGJK@Z 100214b0 f i Lights.obj
 0001:00020580       ?Unadvise@?$IOleObjectImpl@VCOPOSLights@@@ATL@@UAGJK@Z 10021580 f i Lights.obj
 0001:00020650       ?Unfreeze@?$IViewObjectExImpl@VCOPOSLights@@@ATL@@UAGJK@Z 10021650 f i Lights.obj
 0001:000206c0       ?Unlock@?$CComCritSecLock@VCComCriticalSection@ATL@@@ATL@@QAEXXZ 100216c0 f i Lights.obj
 0001:00020730       ?Unlock@?$CComObjectRootEx@VCComSingleThreadModel@ATL@@@ATL@@QAEXXZ 10021730 f i Lights.obj
 0001:00020750       ?Unlock@CAtlModule@ATL@@UAEJXZ 10021750 f i Lights.obj
 0001:00020780       ?Unlock@CComCriticalSection@ATL@@QAEJXZ 10021780 f i Lights.obj
 0001:000207c0       ?Unlock@CComFakeCriticalSection@ATL@@QAEJXZ 100217c0 f i Lights.obj
 0001:000207e0       ?UnregisterServer@?$CAtlModuleT@VCComModule@ATL@@@ATL@@QAEJHPBU_GUID@@@Z 100217e0 f i Lights.obj
 0001:00020850       ?UnregisterServer@CAtlComModule@ATL@@QAEJHPBU_GUID@@@Z 10021850 f i Lights.obj
 0001:00020880       ?UnregisterServer@CComModule@ATL@@QAEJHPBU_GUID@@@Z 10021880 f i Lights.obj
 0001:00020960       ?Update@?$IOleObjectImpl@VCOPOSLights@@@ATL@@UAGJXZ 10021960 f i Lights.obj
 0001:000209c0       ?UpdateRegistryFromResource@CAtlModule@ATL@@QAGJIHPAU_ATL_REGMAP_ENTRY@2@@Z 100219c0 f i Lights.obj
 0001:00020e90       ?UpdateRegistryFromResource@CAtlModule@ATL@@QAGJPB_WHPAU_ATL_REGMAP_ENTRY@2@@Z 10021e90 f i Lights.obj
 0001:00021380       ?UpdateRegistryFromResource@CComModule@ATL@@UAGJIHPAU_ATL_REGMAP_ENTRY@2@@Z 10022380 f i Lights.obj
 0001:000213b0       ?UpdateRegistryFromResource@CComModule@ATL@@UAGJPB_WHPAU_ATL_REGMAP_ENTRY@2@@Z 100223b0 f i Lights.obj
 0001:000213e0       ?UpdateRegistryFromResourceD@CComModule@ATL@@UAGJIHPAU_ATL_REGMAP_ENTRY@2@@Z 100223e0 f i Lights.obj
 0001:000213f0       ?UpdateRegistryFromResourceD@CComModule@ATL@@UAGJPB_WHPAU_ATL_REGMAP_ENTRY@2@@Z 100223f0 f i Lights.obj
 0001:00021400       ?VTFromRegType@CRegParser@ATL@@KAHPB_WAAG@Z 10022400 f i Lights.obj
 0001:000214e0       ?WindowProc@?$CWindowImplBaseT@VCWindow@ATL@@V?$CWinTraits@$0FGAAAAAA@$0A@@2@@ATL@@SGJPAUHWND__@@IIJ@Z 100224e0 f i Lights.obj
 0001:000216f0       ?WriteToStream@CComBSTR@ATL@@QAEJPAUIStream@@@Z 100226f0 f i Lights.obj
 0001:00021850       ?WriteToStream@CComVariant@ATL@@QAEJPAUIStream@@@Z 10022850 f i Lights.obj
 0001:00021b90       ?WriteToStream@CComVariant@ATL@@QAEJPAUIStream@@G@Z 10022b90 f i Lights.obj
 0001:00021c60       ?_AtlFinalConstruct@CComObjectRootBase@ATL@@QAEJXZ 10022c60 f i Lights.obj
 0001:00021c80       ?_AtlGetConversionACP@ATL@@YGIXZ 10022c80 f i Lights.obj
 0001:00021c90       ?_AtlInitialConstruct@?$CComAggObject@VCOPOSLights@@@ATL@@QAEJXZ 10022c90 f i Lights.obj
 0001:00021ce0       ?_AtlInitialConstruct@?$CComObjectRootEx@VCComMultiThreadModel@ATL@@@ATL@@QAEJXZ 10022ce0 f i Lights.obj
 0001:00021d10       ?_AtlInitialConstruct@?$CComObjectRootEx@VCComSingleThreadModel@ATL@@@ATL@@QAEJXZ 10022d10 f i Lights.obj
 0001:00021d30       ?_AtlVerifyStackAvailable@_ATL_SAFE_ALLOCA_IMPL@ATL@@YA_NK@Z 10022d30 f i Lights.obj
 0001:00021ee0       ?_GetEntries@?$CComEnum@UIEnumConnectionPoints@@$1?_GUID_b196b285_bab4_101a_b69c_00aa00341d07@@3U__s_GUID@@BPAUIConnectionPoint@@V?$_CopyInterface@UIConnectionPoint@@@ATL@@VCComSingleThreadModel@6@@ATL@@SGPBU_ATL_INTMAP_ENTRY@2@XZ 10022ee0 f i Lights.obj
 0001:00021f00       ?_GetEntries@?$CComEnum@UIEnumConnections@@$1?_GUID_b196b287_bab4_101a_b69c_00aa00341d07@@3U__s_GUID@@BUtagCONNECTDATA@@V?$_Copy@UtagCONNECTDATA@@@ATL@@VCComSingleThreadModel@6@@ATL@@SGPBU_ATL_INTMAP_ENTRY@2@XZ 10022f00 f i Lights.obj
 0001:00021f20       ?_GetEntries@CComClassFactory@ATL@@SGPBU_ATL_INTMAP_ENTRY@2@XZ 10022f20 f i Lights.obj
 0001:00021f40       ?_GetEntries@COPOSLights@@SGPBU_ATL_INTMAP_ENTRY@ATL@@XZ 10022f40 f i Lights.obj
 0001:00021f60       ?_GetRawUnknown@COPOSLights@@QAEPAUIUnknown@@XZ 10022f60 f i Lights.obj
 0001:00021fd0       ?_GetViewStatus@COPOSLights@@QAEKXZ 10022fd0 f i Lights.obj
 0001:00021ff0       ?_InternalQueryInterface@?$CComEnum@UIEnumConnectionPoints@@$1?_GUID_b196b285_bab4_101a_b69c_00aa00341d07@@3U__s_GUID@@BPAUIConnectionPoint@@V?$_CopyInterface@UIConnectionPoint@@@ATL@@VCComSingleThreadModel@6@@ATL@@QAEJABU_GUID@@PAPAX@Z 10022ff0 f i Lights.obj
 0001:00022030       ?_InternalQueryInterface@?$CComEnum@UIEnumConnections@@$1?_GUID_b196b287_bab4_101a_b69c_00aa00341d07@@3U__s_GUID@@BUtagCONNECTDATA@@V?$_Copy@UtagCONNECTDATA@@@ATL@@VCComSingleThreadModel@6@@ATL@@QAEJABU_GUID@@PAPAX@Z 10023030 f i Lights.obj
 0001:00022070       ?_InternalQueryInterface@CComClassFactory@ATL@@QAEJABU_GUID@@PAPAX@Z 10023070 f i Lights.obj
 0001:000220b0       ?_InternalQueryInterface@COPOSLights@@QAEJABU_GUID@@PAPAX@Z 100230b0 f i Lights.obj
 0001:000220f0       ?_LocCPQueryInterface@?$IConnectionPointImpl@VCOPOSLights@@$1?DIID__IOPOSLightsEvents@@3U_GUID@@BVCComDynamicUnkArray@ATL@@@ATL@@UAGJABU_GUID@@PAPAX@Z 100230f0 f i Lights.obj
 0001:00022190       ?_LocCPQueryInterface@?$IConnectionPointImpl@VCOPOSLights@@$1?IID_IPropertyNotifySink@@3U_GUID@@BVCComDynamicUnkArray@ATL@@@ATL@@UAGJABU_GUID@@PAPAX@Z 10023190 f i Lights.obj
 0001:00022230       ?atlCreate@?$CWindowImpl@VCOPOSLights@@VCWindow@ATL@@V?$CWinTraits@$0FGAAAAAA@$0A@@3@@ATL@@QAEPAUHWND__@@PAU3@V_U_RECT@2@PB_WKKV_U_MENUorID@2@PAX@Z 10023230 f i Lights.obj
 0001:000222e0       ?atlCreate@?$CWindowImplBaseT@VCWindow@ATL@@V?$CWinTraits@$0FGAAAAAA@$0A@@2@@ATL@@QAEPAUHWND__@@PAU3@V_U_RECT@2@PB_WKKV_U_MENUorID@2@GPAX@Z 100232e0 f i Lights.obj
 0001:00022460       ?atlCreate@CRegKey@ATL@@QAEJPAUHKEY__@@PB_WPA_WKKPAU_SECURITY_ATTRIBUTES@@PAK@Z 10023460 f i Lights.obj
 0001:000225c0       ?begin@CComDynamicUnkArray@ATL@@QAEPAPAUIUnknown@@XZ 100235c0 f i Lights.obj
 0001:000225e0       ?copy@?$_Copy@UtagCONNECTDATA@@@ATL@@SAJPAUtagCONNECTDATA@@PBU3@@Z 100235e0 f i Lights.obj
 0001:000226a0       ?copy@?$_CopyInterface@UIConnectionPoint@@@ATL@@SAJPAPAUIConnectionPoint@@PBQAU3@@Z 100236a0 f i Lights.obj
 0001:00022760       ?destroy@?$_Copy@UtagCONNECTDATA@@@ATL@@SAXPAUtagCONNECTDATA@@@Z 10023760 f i Lights.obj
 0001:000227a0       ?destroy@?$_CopyInterface@UIConnectionPoint@@@ATL@@SAXPAPAUIConnectionPoint@@@Z 100237a0 f i Lights.obj
 0001:000227e0       ?end@CComDynamicUnkArray@ATL@@QAEPAPAUIUnknown@@XZ 100237e0 f i Lights.obj
 0001:00022800       ?init@?$_Copy@UtagCONNECTDATA@@@ATL@@SAXPAUtagCONNECTDATA@@@Z 10023800 f i Lights.obj
 0001:00022810       ?init@?$_CopyInterface@UIConnectionPoint@@@ATL@@SAXPAPAUIConnectionPoint@@@Z 10023810 f i Lights.obj
 0001:00022820       ?memcpy_s@Checked@ATL@@YAXPAXIPBXI@Z 10023820 f i Lights.obj
 0001:00022850       ?ocscpy_s@@YA_NPA_WIPB_W@Z 10023850 f i Lights.obj
 0001:000228b0       ?ocslen@@YAHPB_W@Z         100238b0 f i Lights.obj
 0001:000228e0       ?tcsncpy_s@Checked@ATL@@YAHPA_WIPB_WI@Z 100238e0 f i Lights.obj
 0001:00022910       ?wcscat_s@Checked@ATL@@YAXPA_WIPB_W@Z 10023910 f i Lights.obj
 0001:00022940       ?wcscpy_s@Checked@ATL@@YAXPA_WIPB_W@Z 10023940 f i Lights.obj
 0001:00022970       ?wcsncpy_s@Checked@ATL@@YAHPA_WIPB_WI@Z 10023970 f i Lights.obj
 0001:000229a0       ?wcsstr@@YAPA_WPA_WPB_W@Z  100239a0 f i Lights.obj
 0001:000229c0       _InlineIsEqualGUID         100239c0 f i Lights.obj
 0001:00022a60       _IsEqualGUID               10023a60 f i Lights.obj
 0001:00022ab0       ??0COPOSLights@@QAE@XZ     10023ab0 f   LightsImpl.obj
 0001:00022bc0       ?FinalConstruct@COPOSLights@@QAEJXZ 10023bc0 f   LightsImpl.obj
 0001:00022c90       ??1COPOSLights@@UAE@XZ     10023c90 f   LightsImpl.obj
 0001:00022d70       ?WriteTrace@COPOSLights@@QAAXPB_WZZ 10023d70 f   LightsImpl.obj
 0001:00022e20       ?WriteTraceString@COPOSLights@@QAEXPB_WPA_W@Z 10023e20 f   LightsImpl.obj
 0001:00023190       ?WriteTraceString@COPOSLights@@QAAXPAXHHHPB_WZZ 10024190 f   LightsImpl.obj
 0001:000233c0       ?WriteTraceError@COPOSLights@@QAEXPB_WK@Z 100243c0 f   LightsImpl.obj
 0001:000234b0       ?WriteTraceMethods@COPOSLights@@QAEXPAJH@Z 100244b0 f   LightsImpl.obj
 0001:00023520       ?GetOposProp@COPOSLights@@IAEJPBDJPAJJ@Z 10024520 f   LightsImpl.obj
 0001:00023790       ?SetOposProp@COPOSLights@@IAEJPBDJJJ@Z 10024790 f   LightsImpl.obj
 0001:00023a20       ?GetOposProp@COPOSLights@@IAEJPBDJPAFJ@Z 10024a20 f   LightsImpl.obj
 0001:00023ac0       ?SetOposProp@COPOSLights@@IAEJPBDJFJ@Z 10024ac0 f   LightsImpl.obj
 0001:00023b20       ?GetOposProp@COPOSLights@@IAEJPBDJPAPA_WJ@Z 10024b20 f   LightsImpl.obj
 0001:00023da0       ?SetOposProp@COPOSLights@@IAEJPBDJPA_WJ@Z 10024da0 f   LightsImpl.obj
 0001:000240e0       ?DoInvoke@COPOSLights@@IAEJPBDJPAVOposVariant@@IHPAJ_N@Z 100250e0 f   LightsImpl.obj
 0001:00024a10       ?SetCOFreezeEvents@COPOSLights@@IAEXF@Z 10025a10 f   LightsImpl.obj
 0001:00024b50       ?FreezeEvents@COPOSLights@@MAGJH@Z 10025b50 f   LightsImpl.obj
 0001:00024c10       ?OnDraw@COPOSLights@@MAEJAAUATL_DRAWINFO@@@Z 10025c10 f   LightsImpl.obj
 0001:00024db0       ?SOProcessID@COPOSLights@@UAGJPAJ@Z 10025db0 f   LightsImpl.obj
 0001:00024df0       ?get_OpenResult@COPOSLights@@UAGJPAJ@Z 10025df0 f   LightsImpl.obj
 0001:00024e30       ?get_BinaryConversion@COPOSLights@@UAGJPAJ@Z 10025e30 f   LightsImpl.obj
 0001:00024e60       ?put_BinaryConversion@COPOSLights@@UAGJJ@Z 10025e60 f   LightsImpl.obj
 0001:00024e90       ?get_CapPowerReporting@COPOSLights@@UAGJPAJ@Z 10025e90 f   LightsImpl.obj
 0001:00024ec0       ?get_CheckHealthText@COPOSLights@@UAGJPAPA_W@Z 10025ec0 f   LightsImpl.obj
 0001:00024ef0       ?get_Claimed@COPOSLights@@UAGJPAF@Z 10025ef0 f   LightsImpl.obj
 0001:00024f20       ?get_DeviceEnabled@COPOSLights@@UAGJPAF@Z 10025f20 f   LightsImpl.obj
 0001:00024f50       ?put_DeviceEnabled@COPOSLights@@UAGJF@Z 10025f50 f   LightsImpl.obj
 0001:00024f80       ?get_FreezeEvents@COPOSLights@@UAGJPAF@Z 10025f80 f   LightsImpl.obj
 0001:00024fb0       ?put_FreezeEvents@COPOSLights@@UAGJF@Z 10025fb0 f   LightsImpl.obj
 0001:00025040       ?get_PowerNotify@COPOSLights@@UAGJPAJ@Z 10026040 f   LightsImpl.obj
 0001:00025070       ?put_PowerNotify@COPOSLights@@UAGJJ@Z 10026070 f   LightsImpl.obj
 0001:000250a0       ?get_PowerState@COPOSLights@@UAGJPAJ@Z 100260a0 f   LightsImpl.obj
 0001:000250d0       ?get_ResultCode@COPOSLights@@UAGJPAJ@Z 100260d0 f   LightsImpl.obj
 0001:00025160       ?get_ResultCodeExtended@COPOSLights@@UAGJPAJ@Z 10026160 f   LightsImpl.obj
 0001:00025190       ?get_State@COPOSLights@@UAGJPAJ@Z 10026190 f   LightsImpl.obj
 0001:000251e0       ?get_ControlObjectDescription@COPOSLights@@UAGJPAPA_W@Z 100261e0 f   LightsImpl.obj
 0001:00025260       ?get_ControlObjectVersion@COPOSLights@@UAGJPAJ@Z 10026260 f   LightsImpl.obj
 0001:000252a0       ?get_ServiceObjectDescription@COPOSLights@@UAGJPAPA_W@Z 100262a0 f   LightsImpl.obj
 0001:000252d0       ?get_ServiceObjectVersion@COPOSLights@@UAGJPAJ@Z 100262d0 f   LightsImpl.obj
 0001:00025300       ?get_DeviceDescription@COPOSLights@@UAGJPAPA_W@Z 10026300 f   LightsImpl.obj
 0001:00025330       ?get_DeviceName@COPOSLights@@UAGJPAPA_W@Z 10026330 f   LightsImpl.obj
 0001:00025360       ?get_CapStatisticsReporting@COPOSLights@@UAGJPAF@Z 10026360 f   LightsImpl.obj
 0001:00025390       ?get_CapUpdateStatistics@COPOSLights@@UAGJPAF@Z 10026390 f   LightsImpl.obj
 0001:000253c0       ?get_CapCompareFirmwareVersion@COPOSLights@@UAGJPAF@Z 100263c0 f   LightsImpl.obj
 0001:000253f0       ?get_CapUpdateFirmware@COPOSLights@@UAGJPAF@Z 100263f0 f   LightsImpl.obj
 0001:00025420       ?CheckHealth@COPOSLights@@UAGJJPAJ@Z 10026420 f   LightsImpl.obj
 0001:000254c0       ?ClaimDevice@COPOSLights@@UAGJJPAJ@Z 100264c0 f   LightsImpl.obj
 0001:000255a0       ?Close@COPOSLights@@UAGJPAJ@Z 100265a0 f   LightsImpl.obj
 0001:00025670       ?DirectIO@COPOSLights@@UAGJJPAJPAPA_W0@Z 10026670 f   LightsImpl.obj
 0001:00025780       ?Open@COPOSLights@@UAGJPA_WPAJ@Z 10026780 f   LightsImpl.obj
 0001:00026970       ?ReleaseDevice@COPOSLights@@UAGJPAJ@Z 10027970 f   LightsImpl.obj
 0001:000269e0       ?ResetStatistics@COPOSLights@@UAGJPA_WPAJ@Z 100279e0 f   LightsImpl.obj
 0001:00026a90       ?RetrieveStatistics@COPOSLights@@UAGJPAPA_WPAJ@Z 10027a90 f   LightsImpl.obj
 0001:00026b40       ?UpdateStatistics@COPOSLights@@UAGJPA_WPAJ@Z 10027b40 f   LightsImpl.obj
 0001:00026bf0       ?CompareFirmwareVersion@COPOSLights@@UAGJPA_WPAJ1@Z 10027bf0 f   LightsImpl.obj
 0001:00026ce0       ?UpdateFirmware@COPOSLights@@UAGJPA_WPAJ@Z 10027ce0 f   LightsImpl.obj
 0001:00026d90       ?get_CapAlarm@COPOSLights@@UAGJPAJ@Z 10027d90 f   LightsImpl.obj
 0001:00026dc0       ?get_CapBlink@COPOSLights@@UAGJPAF@Z 10027dc0 f   LightsImpl.obj
 0001:00026df0       ?get_CapColor@COPOSLights@@UAGJPAJ@Z 10027df0 f   LightsImpl.obj
 0001:00026e20       ?get_MaxLights@COPOSLights@@UAGJPAJ@Z 10027e20 f   LightsImpl.obj
 0001:00026e50       ?SwitchOff@COPOSLights@@UAGJJPAJ@Z 10027e50 f   LightsImpl.obj
 0001:00026ef0       ?SwitchOn@COPOSLights@@UAGJJJJJJPAJ@Z 10027ef0 f   LightsImpl.obj
 0001:00027020       ??0?$CComControl@VCOPOSLights@@V?$CWindowImpl@VCOPOSLights@@VCWindow@ATL@@V?$CWinTraits@$0FGAAAAAA@$0A@@3@@ATL@@@ATL@@QAE@XZ 10028020 f i LightsImpl.obj
 0001:00027060       ??0?$CComPtr@UIAdviseSink@@@ATL@@QAE@XZ 10028060 f i LightsImpl.obj
 0001:00027090       ??0?$CComPtr@UIDataAdviseHolder@@@ATL@@QAE@XZ 10028090 f i LightsImpl.obj
 0001:000270c0       ??0?$CComPtr@UIOleAdviseHolder@@@ATL@@QAE@XZ 100280c0 f i LightsImpl.obj
 0001:000270f0       ??0?$CComPtr@UIOleClientSite@@@ATL@@QAE@XZ 100280f0 f i LightsImpl.obj
 0001:00027120       ??0?$CComPtr@UIOleInPlaceSiteWindowless@@@ATL@@QAE@XZ 10028120 f i LightsImpl.obj
 0001:00027150       ??0?$CComPtrBase@UIAdviseSink@@@ATL@@IAE@XZ 10028150 f i LightsImpl.obj
 0001:00027170       ??0?$CComPtrBase@UIDataAdviseHolder@@@ATL@@IAE@XZ 10028170 f i LightsImpl.obj
 0001:00027190       ??0?$CComPtrBase@UIOleAdviseHolder@@@ATL@@IAE@XZ 10028190 f i LightsImpl.obj
 0001:000271b0       ??0?$CComPtrBase@UIOleClientSite@@@ATL@@IAE@XZ 100281b0 f i LightsImpl.obj
 0001:000271d0       ??0?$CComPtrBase@UIOleInPlaceSiteWindowless@@@ATL@@IAE@XZ 100281d0 f i LightsImpl.obj
 0001:000271f0       ??0?$CComQIPtr@UIDispatch@@$1?_GUID_00020400_0000_0000_c000_000000000046@@3U__s_GUID@@B@ATL@@QAE@XZ 100281f0 f i LightsImpl.obj
 0001:00027220       ??0?$CProxy_IOPOSEvents@VCOPOSLights@@@@QAE@PAVCOPOSLights@@@Z 10028220 f i LightsImpl.obj
 0001:00027270       ??0?$CWindowImpl@VCOPOSLights@@VCWindow@ATL@@V?$CWinTraits@$0FGAAAAAA@$0A@@3@@ATL@@QAE@XZ 10028270 f i LightsImpl.obj
 0001:000272a0       ??0?$CWindowImplBaseT@VCWindow@ATL@@V?$CWinTraits@$0FGAAAAAA@$0A@@2@@ATL@@QAE@XZ 100282a0 f i LightsImpl.obj
 0001:000272e0       ??0?$CWindowImplRoot@VCWindow@ATL@@@ATL@@QAE@XZ 100282e0 f i LightsImpl.obj
 0001:00027340       ??0?$IConnectionPointContainerImpl@VCOPOSLights@@@ATL@@QAE@XZ 10028340 f i LightsImpl.obj
 0001:00027370       ??0?$IConnectionPointImpl@VCOPOSLights@@$1?DIID__IOPOSLightsEvents@@3U_GUID@@BVCComDynamicUnkArray@ATL@@@ATL@@QAE@XZ 10028370 f i LightsImpl.obj
 0001:000273b0       ??0?$IConnectionPointImpl@VCOPOSLights@@$1?IID_IPropertyNotifySink@@3U_GUID@@BVCComDynamicUnkArray@ATL@@@ATL@@QAE@XZ 100283b0 f i LightsImpl.obj
 0001:000273f0       ??0?$IDataObjectImpl@VCOPOSLights@@@ATL@@QAE@XZ 100283f0 f i LightsImpl.obj
 0001:00027420       ??0?$IDispatchImpl@UIOPOSLights@@$1?IID_IOPOSLights@@3U_GUID@@B$1?LIBID_OposLights_CCO@@3U3@B$00$0A@VCComTypeInfoHolder@ATL@@@ATL@@QAE@XZ 10028420 f i LightsImpl.obj
 0001:00027450       ??0?$IObjectSafetyImpl@VCOPOSLights@@$02@ATL@@QAE@XZ 10028450 f i LightsImpl.obj
 0001:00027490       ??0?$IOleControlImpl@VCOPOSLights@@@ATL@@QAE@XZ 10028490 f i LightsImpl.obj
 0001:000274c0       ??0?$IOleInPlaceActiveObjectImpl@VCOPOSLights@@@ATL@@QAE@XZ 100284c0 f i LightsImpl.obj
 0001:000274f0       ??0?$IOleInPlaceObjectWindowlessImpl@VCOPOSLights@@@ATL@@QAE@XZ 100284f0 f i LightsImpl.obj
 0001:00027520       ??0?$IOleObjectImpl@VCOPOSLights@@@ATL@@QAE@XZ 10028520 f i LightsImpl.obj
 0001:00027550       ??0?$IPersistStorageImpl@VCOPOSLights@@@ATL@@QAE@XZ 10028550 f i LightsImpl.obj
 0001:00027580       ??0?$IPersistStreamInitImpl@VCOPOSLights@@@ATL@@QAE@XZ 10028580 f i LightsImpl.obj
 0001:000275b0       ??0?$IPropertyNotifySinkCP@VCOPOSLights@@VCComDynamicUnkArray@ATL@@@ATL@@QAE@XZ 100285b0 f i LightsImpl.obj
 0001:000275e0       ??0?$IProvideClassInfo2Impl@$1?CLSID_OPOSLights@@3U_GUID@@B$1?DIID__IOPOSLightsEvents@@3U2@B$1?LIBID_OposLights_CCO@@3U2@B$00$0A@VCComTypeInfoHolder@ATL@@@ATL@@QAE@XZ 100285e0 f i LightsImpl.obj
 0001:00027610       ??0?$IQuickActivateImpl@VCOPOSLights@@@ATL@@QAE@XZ 10028610 f i LightsImpl.obj
 0001:00027640       ??0?$ISpecifyPropertyPagesImpl@VCOPOSLights@@@ATL@@QAE@XZ 10028640 f i LightsImpl.obj
 0001:00027670       ??0?$IViewObjectExImpl@VCOPOSLights@@@ATL@@QAE@XZ 10028670 f i LightsImpl.obj
 0001:000276a0       ??0?$_ICPLocator@$1?DIID__IOPOSLightsEvents@@3U_GUID@@B@ATL@@QAE@XZ 100286a0 f i LightsImpl.obj
 0001:000276c0       ??0?$_ICPLocator@$1?IID_IPropertyNotifySink@@3U_GUID@@B@ATL@@QAE@XZ 100286c0 f i LightsImpl.obj
 0001:000276e0       ??0CComControlBase@ATL@@QAE@AAPAUHWND__@@@Z 100286e0 f i LightsImpl.obj
 0001:00027890       ??0CComDynamicUnkArray@ATL@@QAE@XZ 10028890 f i LightsImpl.obj
 0001:000278c0       ??0CDynamicStdCallThunk2@ATL@@QAE@XZ 100288c0 f i LightsImpl.obj
 0001:000278e0       ??0CMessageMap@ATL@@QAE@XZ 100288e0 f i LightsImpl.obj
 0001:00027900       ??0CWindow@ATL@@QAE@PAUHWND__@@@Z 10028900 f i LightsImpl.obj
 0001:00027920       ??0CWndProcThunk@ATL@@QAE@XZ 10028920 f i LightsImpl.obj
 0001:00027950       ??0IConnectionPointContainer@@QAE@XZ 10028950 f i LightsImpl.obj
 0001:00027980       ??0IDataObject@@QAE@XZ     10028980 f i LightsImpl.obj
 0001:000279b0       ??0IDispatch@@QAE@XZ       100289b0 f i LightsImpl.obj
 0001:000279e0       ??0IOPOSLights@@QAE@XZ     100289e0 f i LightsImpl.obj
 0001:00027a10       ??0IOPOSLights_1_12@@QAE@XZ 10028a10 f i LightsImpl.obj
 0001:00027a40       ??0IObjectSafety@@QAE@XZ   10028a40 f i LightsImpl.obj
 0001:00027a70       ??0IOleControl@@QAE@XZ     10028a70 f i LightsImpl.obj
 0001:00027aa0       ??0IOleInPlaceActiveObject@@QAE@XZ 10028aa0 f i LightsImpl.obj
 0001:00027ad0       ??0IOleInPlaceObject@@QAE@XZ 10028ad0 f i LightsImpl.obj
 0001:00027b00       ??0IOleInPlaceObjectWindowless@@QAE@XZ 10028b00 f i LightsImpl.obj
 0001:00027b30       ??0IOleObject@@QAE@XZ      10028b30 f i LightsImpl.obj
 0001:00027b60       ??0IOleWindow@@QAE@XZ      10028b60 f i LightsImpl.obj
 0001:00027b90       ??0IPersist@@QAE@XZ        10028b90 f i LightsImpl.obj
 0001:00027bc0       ??0IPersistStorage@@QAE@XZ 10028bc0 f i LightsImpl.obj
 0001:00027bf0       ??0IPersistStreamInit@@QAE@XZ 10028bf0 f i LightsImpl.obj
 0001:00027c20       ??0IProvideClassInfo2@@QAE@XZ 10028c20 f i LightsImpl.obj
 0001:00027c50       ??0IProvideClassInfo@@QAE@XZ 10028c50 f i LightsImpl.obj
 0001:00027c80       ??0IQuickActivate@@QAE@XZ  10028c80 f i LightsImpl.obj
 0001:00027cb0       ??0ISpecifyPropertyPages@@QAE@XZ 10028cb0 f i LightsImpl.obj
 0001:00027ce0       ??0IViewObject2@@QAE@XZ    10028ce0 f i LightsImpl.obj
 0001:00027d10       ??0IViewObject@@QAE@XZ     10028d10 f i LightsImpl.obj
 0001:00027d40       ??0IViewObjectEx@@QAE@XZ   10028d40 f i LightsImpl.obj
 0001:00027d70       ??0OposVariantResult@@QAE@XZ 10028d70 f i LightsImpl.obj
 0001:00027da0       ??0_CW@@QAE@PBD@Z          10028da0 f i LightsImpl.obj
 0001:00027de0       ??0_CW@@QAE@PB_W@Z         10028de0 f i LightsImpl.obj
 0001:00027e20       ??0_CWNCC@@QAE@PBD@Z       10028e20 f i LightsImpl.obj
 0001:00027e50       ??1?$CComControl@VCOPOSLights@@V?$CWindowImpl@VCOPOSLights@@VCWindow@ATL@@V?$CWinTraits@$0FGAAAAAA@$0A@@3@@ATL@@@ATL@@UAE@XZ 10028e50 f i LightsImpl.obj
 0001:00027e80       ??1?$CComPtr@UIDataAdviseHolder@@@ATL@@QAE@XZ 10028e80 f i LightsImpl.obj
 0001:00027eb0       ??1?$CComPtr@UIOleAdviseHolder@@@ATL@@QAE@XZ 10028eb0 f i LightsImpl.obj
 0001:00027ee0       ??1?$CComPtr@UIOleInPlaceSiteWindowless@@@ATL@@QAE@XZ 10028ee0 f i LightsImpl.obj
 0001:00027f10       ??1?$CComPtrBase@UIDataAdviseHolder@@@ATL@@QAE@XZ 10028f10 f i LightsImpl.obj
 0001:00027f60       ??1?$CComPtrBase@UIOleAdviseHolder@@@ATL@@QAE@XZ 10028f60 f i LightsImpl.obj
 0001:00027fb0       ??1?$CComPtrBase@UIOleInPlaceSiteWindowless@@@ATL@@QAE@XZ 10028fb0 f i LightsImpl.obj
 0001:00028000       ??1?$CComQIPtr@UIDispatch@@$1?_GUID_00020400_0000_0000_c000_000000000046@@3U__s_GUID@@B@ATL@@QAE@XZ 10029000 f i LightsImpl.obj
 0001:00028030       ??1?$CProxy_IOPOSEvents@VCOPOSLights@@@@QAE@XZ 10029030 f i LightsImpl.obj
 0001:00028060       ??1?$CWindowImpl@VCOPOSLights@@VCWindow@ATL@@V?$CWinTraits@$0FGAAAAAA@$0A@@3@@ATL@@UAE@XZ 10029060 f i LightsImpl.obj
 0001:00028090       ??1?$CWindowImplBaseT@VCWindow@ATL@@V?$CWinTraits@$0FGAAAAAA@$0A@@2@@ATL@@UAE@XZ 10029090 f i LightsImpl.obj
 0001:000280c0       ??1?$CWindowImplRoot@VCWindow@ATL@@@ATL@@UAE@XZ 100290c0 f i LightsImpl.obj
 0001:00028160       ??1?$IConnectionPointImpl@VCOPOSLights@@$1?DIID__IOPOSLightsEvents@@3U_GUID@@BVCComDynamicUnkArray@ATL@@@ATL@@QAE@XZ 10029160 f i LightsImpl.obj
 0001:000281e0       ??1?$IConnectionPointImpl@VCOPOSLights@@$1?IID_IPropertyNotifySink@@3U_GUID@@BVCComDynamicUnkArray@ATL@@@ATL@@QAE@XZ 100291e0 f i LightsImpl.obj
 0001:00028260       ??1?$IPropertyNotifySinkCP@VCOPOSLights@@VCComDynamicUnkArray@ATL@@@ATL@@QAE@XZ 10029260 f i LightsImpl.obj
 0001:00028290       ??1CComControlBase@ATL@@UAE@XZ 10029290 f i LightsImpl.obj
 0001:00028350       ??1CComDynamicUnkArray@ATL@@QAE@XZ 10029350 f i LightsImpl.obj
 0001:00028390       ??1CDynamicStdCallThunk2@ATL@@QAE@XZ 10029390 f i LightsImpl.obj
 0001:000283c0       ??1CWndProcThunk@ATL@@QAE@XZ 100293c0 f i LightsImpl.obj
 0001:000283f0       ??1OposVariantResult@@QAE@XZ 100293f0 f i LightsImpl.obj
 0001:00028420       ??1_CW@@QAE@XZ             10029420 f i LightsImpl.obj
 0001:00028490       ??1_CWNCC@@QAE@XZ          10029490 f i LightsImpl.obj
 0001:000284c0       ??B_CW@@QAEPB_WXZ          100294c0 f i LightsImpl.obj
 0001:00028500       ??B_CWNCC@@QAEPA_WXZ       10029500 f i LightsImpl.obj
 0001:00028530       ??_EOposVariant@@QAEPAXI@Z 10029530 f i LightsImpl.obj
 0001:000285c0       ?EventClaim@COPOSLights@@IAEXXZ 100295c0 f i LightsImpl.obj
 0001:00028600       ?EventClose@COPOSLights@@IAEXXZ 10029600 f i LightsImpl.obj
 0001:000286a0       ?EventInit@COPOSLights@@IAEJXZ 100296a0 f i LightsImpl.obj
 0001:000288d0       ?EventOpen@COPOSLights@@IAEXXZ 100298d0 f i LightsImpl.obj
 0001:00028910       ?EventPreCloseRelease@COPOSLights@@IAEXXZ 10029910 f i LightsImpl.obj
 0001:00028990       ?EventUninit@COPOSLights@@IAEXXZ 10029990 f i LightsImpl.obj
 0001:00028ac0       ?EventWindowProc@COPOSLights@@IAGJIIJ@Z 10029ac0 f i LightsImpl.obj
 0001:00028ba0       ?FireEventCleanup@COPOSLights@@IAEXXZ 10029ba0 f i LightsImpl.obj
 0001:00028bf0       ?FireEventSetup@COPOSLights@@IAE_NXZ 10029bf0 f i LightsImpl.obj
 0001:00028c60       ?GetModuleInstance@CComModule@ATL@@QAEPAUHINSTANCE__@@XZ 10029c60 f i LightsImpl.obj
 0001:00028c80       ?SetRC@COPOSLights@@IAEJJ@Z 10029c80 f i LightsImpl.obj
 0001:00028cb0       ?s_EventWindowProc@COPOSLights@@KGJPAUHWND__@@IIJ@Z 10029cb0 f i LightsImpl.obj
 0001:00028d50       __snwprintf                10029d50 f i LightsImpl.obj
 0001:00028db0       __vfwprintf_l              10029db0 f i LightsImpl.obj
 0001:00028de0       __vsnwprintf               10029de0 f i LightsImpl.obj
 0001:00028e10       __vsnwprintf_l             10029e10 f i LightsImpl.obj
 0001:00028e80       _vfwprintf                 10029e80 f i LightsImpl.obj
 0001:00028ea2       _DebugBreak@0              10029ea2 f   kernel32:KERNEL32.dll
 0001:00028ea8       _Sleep@4                   10029ea8 f   kernel32:KERNEL32.dll
 0001:00028eae       _GetCurrentProcess@0       10029eae f   kernel32:KERNEL32.dll
 0001:00028eb4       _TerminateProcess@8        10029eb4 f   kernel32:KERNEL32.dll
 0001:00028eba       _MultiByteToWideChar@24    10029eba f   kernel32:KERNEL32.dll
 0001:00028ec0       _WideCharToMultiByte@32    10029ec0 f   kernel32:KERNEL32.dll
 0001:00028ec6       _DecodePointer@4           10029ec6 f   kernel32:KERNEL32.dll
 0001:00028ecc       _RaiseException@16         10029ecc f   kernel32:KERNEL32.dll
 0001:00028ed2       _GetLastError@0            10029ed2 f   kernel32:KERNEL32.dll
 0001:00028ed8       _SetLastError@4            10029ed8 f   kernel32:KERNEL32.dll
 0001:00028ede       _InitializeCriticalSectionEx@12 10029ede f   kernel32:KERNEL32.dll
 0001:00028ee4       _DeleteCriticalSection@4   10029ee4 f   kernel32:KERNEL32.dll
 0001:00028eea       _EncodePointer@4           10029eea f   kernel32:KERNEL32.dll
 0001:00028ef0       _EnterCriticalSection@4    10029ef0 f   kernel32:KERNEL32.dll
 0001:00028ef6       _LeaveCriticalSection@4    10029ef6 f   kernel32:KERNEL32.dll
 0001:00028efc       _ResetEvent@4              10029efc f   kernel32:KERNEL32.dll
 0001:00028f02       _ReleaseMutex@4            10029f02 f   kernel32:KERNEL32.dll
 0001:00028f08       _WaitForSingleObject@8     10029f08 f   kernel32:KERNEL32.dll
 0001:00028f0e       _GetCurrentThreadId@0      10029f0e f   kernel32:KERNEL32.dll
 0001:00028f14       _DisableThreadLibraryCalls@4 10029f14 f   kernel32:KERNEL32.dll
 0001:00028f1a       _FreeLibrary@4             10029f1a f   kernel32:KERNEL32.dll
 0001:00028f20       _GetModuleFileNameW@12     10029f20 f   kernel32:KERNEL32.dll
 0001:00028f26       _GetModuleHandleW@4        10029f26 f   kernel32:KERNEL32.dll
 0001:00028f2c       _GetProcAddress@8          10029f2c f   kernel32:KERNEL32.dll
 0001:00028f32       _LoadLibraryExW@12         10029f32 f   kernel32:KERNEL32.dll
 0001:00028f38       _LoadResource@8            10029f38 f   kernel32:KERNEL32.dll
 0001:00028f3e       _SizeofResource@8          10029f3e f   kernel32:KERNEL32.dll
 0001:00028f44       _FindResourceW@12          10029f44 f   kernel32:KERNEL32.dll
 0001:00028f4a       _GlobalAlloc@8             10029f4a f   kernel32:KERNEL32.dll
 0001:00028f50       _GlobalUnlock@4            10029f50 f   kernel32:KERNEL32.dll
 0001:00028f56       _GlobalLock@4              10029f56 f   kernel32:KERNEL32.dll
 0001:00028f5c       _MulDiv@12                 10029f5c f   kernel32:KERNEL32.dll
 0001:00028f62       _lstrcmpiW@8               10029f62 f   kernel32:KERNEL32.dll
 0001:00028f68       _DeleteFileW@4             10029f68 f   kernel32:KERNEL32.dll
 0001:00028f6e       _CloseHandle@4             10029f6e f   kernel32:KERNEL32.dll
 0001:00028f74       _SetEvent@4                10029f74 f   kernel32:KERNEL32.dll
 0001:00028f7a       _CreateMutexW@12           10029f7a f   kernel32:KERNEL32.dll
 0001:00028f80       _CreateEventW@16           10029f80 f   kernel32:KERNEL32.dll
 0001:00028f86       _GetCurrentProcessId@0     10029f86 f   kernel32:KERNEL32.dll
 0001:00028f8c       _LocalFree@4               10029f8c f   kernel32:KERNEL32.dll
 0001:00028f92       _FormatMessageW@28         10029f92 f   kernel32:KERNEL32.dll
 0001:00028f98       _GetActiveWindow@0         10029f98 f   user32:USER32.dll
 0001:00028f9e       _MessageBoxW@16            10029f9e f   user32:USER32.dll
 0001:00028fa4       _UnregisterClassW@8        10029fa4 f   user32:USER32.dll
 0001:00028faa       _PostMessageW@16           10029faa f   user32:USER32.dll
 0001:00028fb0       _DefWindowProcW@16         10029fb0 f   user32:USER32.dll
 0001:00028fb6       _CallWindowProcW@20        10029fb6 f   user32:USER32.dll
 0001:00028fbc       _RegisterClassExW@4        10029fbc f   user32:USER32.dll
 0001:00028fc2       _GetClassInfoExW@12        10029fc2 f   user32:USER32.dll
 0001:00028fc8       _CreateWindowExW@48        10029fc8 f   user32:USER32.dll
 0001:00028fce       _IsWindow@4                10029fce f   user32:USER32.dll
 0001:00028fd4       _IsChild@8                 10029fd4 f   user32:USER32.dll
 0001:00028fda       _DestroyWindow@4           10029fda f   user32:USER32.dll
 0001:00028fe0       _ShowWindow@8              10029fe0 f   user32:USER32.dll
 0001:00028fe6       _SetWindowPos@28           10029fe6 f   user32:USER32.dll
 0001:00028fec       _CharNextW@4               10029fec f   user32:USER32.dll
 0001:00028ff2       _SetFocus@4                10029ff2 f   user32:USER32.dll
 0001:00028ff8       _GetFocus@0                10029ff8 f   user32:USER32.dll
 0001:00028ffe       _GetKeyState@4             10029ffe f   user32:USER32.dll
 0001:00029004       _GetDC@4                   1002a004 f   user32:USER32.dll
 0001:0002900a       _ReleaseDC@8               1002a00a f   user32:USER32.dll
 0001:00029010       _BeginPaint@8              1002a010 f   user32:USER32.dll
 0001:00029016       _EndPaint@8                1002a016 f   user32:USER32.dll
 0001:0002901c       _SetWindowRgn@12           1002a01c f   user32:USER32.dll
 0001:00029022       _InvalidateRect@12         1002a022 f   user32:USER32.dll
 0001:00029028       _GetClientRect@8           1002a028 f   user32:USER32.dll
 0001:0002902e       _IntersectRect@12          1002a02e f   user32:USER32.dll
 0001:00029034       _UnionRect@12              1002a034 f   user32:USER32.dll
 0001:0002903a       _OffsetRect@12             1002a03a f   user32:USER32.dll
 0001:00029040       _EqualRect@8               1002a040 f   user32:USER32.dll
 0001:00029046       _PtInRect@12               1002a046 f   user32:USER32.dll
 0001:0002904c       _GetWindowLongW@8          1002a04c f   user32:USER32.dll
 0001:00029052       _SetWindowLongW@12         1002a052 f   user32:USER32.dll
 0001:00029058       _GetParent@4               1002a058 f   user32:USER32.dll
 0001:0002905e       _LoadCursorW@8             1002a05e f   user32:USER32.dll
 0001:00029064       _PeekMessageW@20           1002a064 f   user32:USER32.dll
 0001:0002906a       _RegisterClassW@4          1002a06a f   user32:USER32.dll
 0001:00029070       _LoadBitmapW@8             1002a070 f   user32:USER32.dll
 0001:00029076       _CloseMetaFile@4           1002a076 f   gdi32:GDI32.dll
 0001:0002907c       _CreateDCW@16              1002a07c f   gdi32:GDI32.dll
 0001:00029082       _CreateMetaFileW@4         1002a082 f   gdi32:GDI32.dll
 0001:00029088       _CreateRectRgnIndirect@4   1002a088 f   gdi32:GDI32.dll
 0001:0002908e       _DeleteDC@4                1002a08e f   gdi32:GDI32.dll
 0001:00029094       _DeleteMetaFile@4          1002a094 f   gdi32:GDI32.dll
 0001:0002909a       _GetDeviceCaps@8           1002a09a f   gdi32:GDI32.dll
 0001:000290a0       _RestoreDC@8               1002a0a0 f   gdi32:GDI32.dll
 0001:000290a6       _SaveDC@4                  1002a0a6 f   gdi32:GDI32.dll
 0001:000290ac       _SetMapMode@8              1002a0ac f   gdi32:GDI32.dll
 0001:000290b2       _LPtoDP@12                 1002a0b2 f   gdi32:GDI32.dll
 0001:000290b8       _SetViewportOrgEx@16       1002a0b8 f   gdi32:GDI32.dll
 0001:000290be       _SetWindowExtEx@16         1002a0be f   gdi32:GDI32.dll
 0001:000290c4       _SetWindowOrgEx@16         1002a0c4 f   gdi32:GDI32.dll
 0001:000290ca       _BitBlt@36                 1002a0ca f   gdi32:GDI32.dll
 0001:000290d0       _CreateCompatibleDC@4      1002a0d0 f   gdi32:GDI32.dll
 0001:000290d6       _DeleteObject@4            1002a0d6 f   gdi32:GDI32.dll
 0001:000290dc       _SelectObject@8            1002a0dc f   gdi32:GDI32.dll
 0001:000290e2       _GetObjectW@12             1002a0e2 f   gdi32:GDI32.dll
 0001:000290e8       _RegCloseKey@4             1002a0e8 f   advapi32:ADVAPI32.dll
 0001:000290ee       _RegCreateKeyExW@36        1002a0ee f   advapi32:ADVAPI32.dll
 0001:000290f4       _RegDeleteKeyW@8           1002a0f4 f   advapi32:ADVAPI32.dll
 0001:000290fa       _RegDeleteValueW@8         1002a0fa f   advapi32:ADVAPI32.dll
 0001:00029100       _RegEnumKeyExW@32          1002a100 f   advapi32:ADVAPI32.dll
 0001:00029106       _RegOpenKeyExW@20          1002a106 f   advapi32:ADVAPI32.dll
 0001:0002910c       _RegQueryInfoKeyW@48       1002a10c f   advapi32:ADVAPI32.dll
 0001:00029112       _RegSetValueExW@24         1002a112 f   advapi32:ADVAPI32.dll
 0001:00029118       _RegQueryValueExW@24       1002a118 f   advapi32:ADVAPI32.dll
 0001:0002911e       _CoCreateInstance@20       1002a11e f   ole32:ole32.dll
 0001:00029124       _StringFromGUID2@12        1002a124 f   ole32:ole32.dll
 0001:0002912a       _CoTaskMemAlloc@4          1002a12a f   ole32:ole32.dll
 0001:00029130       _CoTaskMemRealloc@8        1002a130 f   ole32:ole32.dll
 0001:00029136       _CoTaskMemFree@4           1002a136 f   ole32:ole32.dll
 0001:0002913c       _ReadClassStm@8            1002a13c f   ole32:ole32.dll
 0001:00029142       _WriteClassStm@8           1002a142 f   ole32:ole32.dll
 0001:00029148       _CreateDataAdviseHolder@4  1002a148 f   ole32:ole32.dll
 0001:0002914e       _OleSaveToStream@8         1002a14e f   ole32:ole32.dll
 0001:00029154       _CreateOleAdviseHolder@4   1002a154 f   ole32:ole32.dll
 0001:0002915a       _OleRegGetUserType@12      1002a15a f   ole32:ole32.dll
 0001:00029160       _OleRegGetMiscStatus@12    1002a160 f   ole32:ole32.dll
 0001:00029166       _OleRegEnumVerbs@8         1002a166 f   ole32:ole32.dll
 0001:0002916c       _CLSIDFromProgID@8         1002a16c f   ole32:ole32.dll
 0001:00029172       _SysAllocString@4          1002a172 f   oleaut32:OLEAUT32.dll
 0001:00029178       _SysAllocStringLen@8       1002a178 f   oleaut32:OLEAUT32.dll
 0001:0002917e       _SysFreeString@4           1002a17e f   oleaut32:OLEAUT32.dll
 0001:00029184       _SysStringLen@4            1002a184 f   oleaut32:OLEAUT32.dll
 0001:0002918a       _VariantClear@4            1002a18a f   oleaut32:OLEAUT32.dll
 0001:00029190       _VariantCopyInd@8          1002a190 f   oleaut32:OLEAUT32.dll
 0001:00029196       _VariantChangeType@16      1002a196 f   oleaut32:OLEAUT32.dll
 0001:0002919c       _SysStringByteLen@4        1002a19c f   oleaut32:OLEAUT32.dll
 0001:000291a2       _SysAllocStringByteLen@8   1002a1a2 f   oleaut32:OLEAUT32.dll
 0001:000291a8       _VariantInit@4             1002a1a8 f   oleaut32:OLEAUT32.dll
 0001:000291ae       _VarUI4FromStr@16          1002a1ae f   oleaut32:OLEAUT32.dll
 0001:000291b4       _LoadTypeLib@8             1002a1b4 f   oleaut32:OLEAUT32.dll
 0001:000291ba       _LoadRegTypeLib@20         1002a1ba f   oleaut32:OLEAUT32.dll
 0001:000291c0       _RegisterTypeLib@12        1002a1c0 f   oleaut32:OLEAUT32.dll
 0001:000291c6       _UnRegisterTypeLib@20      1002a1c6 f   oleaut32:OLEAUT32.dll
 0001:000291cc       _OleCreatePropertyFrame@44 1002a1cc f   oleaut32:OLEAUT32.dll
 0001:000291e0       @_RTC_AllocaHelper@12      1002a1e0 f   LIBCMTD:stack.obj
 0001:00029220       @_RTC_CheckStackVars2@12   1002a220 f   LIBCMTD:stack.obj
 0001:00029300       @_RTC_CheckStackVars@8     1002a300 f   LIBCMTD:stack.obj
 0001:00029360       __RTC_CheckEsp             1002a360 f   LIBCMTD:stack.obj
 0001:000293a0       @__security_check_cookie@4 1002a3a0 f   LIBCMTD:secchk.obj
 0001:000293c0       __CRT_RTC_INIT             1002a3c0 f   LIBCMTD:init.obj
 0001:000293d0       __CRT_RTC_INITW            1002a3d0 f   LIBCMTD:init.obj
 0001:000293e0       __RTC_InitBase             1002a3e0 f   LIBCMTD:init.obj
 0001:00029410       __RTC_Shutdown             1002a410 f   LIBCMTD:init.obj
 0001:00029430       ??_U@YAPAXI@Z              1002a430 f   LIBCMTD:new_array.obj
 0001:00029450       ??3@YAXPAXI@Z              1002a450 f   LIBCMTD:delete_scalar_size.obj
 0001:00029470       ??_V@YAXPAX@Z              1002a470 f   LIBCMTD:delete_array.obj
 0001:00029490       ??_V@YAXPAXI@Z             1002a490 f   LIBCMTD:delete_array_size.obj
 0001:000294b0       ?configure_argv@__scrt_narrow_argv_policy@@SAHXZ 1002a4b0 f i LIBCMTD:utility.obj
 0001:00029560       ?initialize_environment@__scrt_narrow_environment_policy@@SAHXZ 1002a560 f i LIBCMTD:utility.obj
 0001:000295e0       _NtCurrentTeb              1002a5e0 f i LIBCMTD:utility.obj
 0001:000295f0       ___scrt_acquire_startup_lock 1002a5f0 f   LIBCMTD:utility.obj
 0001:00029640       ___scrt_dllmain_after_initialize_c 1002a640 f   LIBCMTD:utility.obj
 0001:00029670       ___scrt_dllmain_before_initialize_c 1002a670 f   LIBCMTD:utility.obj
 0001:00029690       ___scrt_dllmain_crt_thread_attach 1002a690 f   LIBCMTD:utility.obj
 0001:000296c0       ___scrt_dllmain_crt_thread_detach 1002a6c0 f   LIBCMTD:utility.obj
 0001:000296e0       ___scrt_dllmain_exception_filter 1002a6e0 f   LIBCMTD:utility.obj
 0001:00029730       ___scrt_dllmain_uninitialize_c 1002a730 f   LIBCMTD:utility.obj
 0001:00029760       ___scrt_dllmain_uninitialize_critical 1002a760 f   LIBCMTD:utility.obj
 0001:00029780       ___scrt_initialize_crt     1002a780 f   LIBCMTD:utility.obj
 0001:000297d0       ___scrt_initialize_onexit_tables 1002a7d0 f   LIBCMTD:utility.obj
 0001:000298b0       ___scrt_is_nonwritable_in_current_image 1002a8b0 f   LIBCMTD:utility.obj
 0001:000299e0       ___scrt_release_startup_lock 1002a9e0 f   LIBCMTD:utility.obj
 0001:00029a10       ___scrt_uninitialize_crt   1002aa10 f   LIBCMTD:utility.obj
 0001:00029a50       __onexit                   1002aa50 f   LIBCMTD:utility.obj
 0001:00029ac0       _at_quick_exit             1002aac0 f   LIBCMTD:utility.obj
 0001:00029b00       _atexit                    1002ab00 f   LIBCMTD:utility.obj
 0001:00029b30       ??3@YAXPAX@Z               1002ab30 f   LIBCMTD:delete_scalar.obj
 0001:00029b50       ___raise_securityfailure   1002ab50 f   LIBCMTD:gs_report.obj
 0001:00029b80       ___report_gsfailure        1002ab80 f   LIBCMTD:gs_report.obj
 0001:00029c90       ___report_rangecheckfailure 1002ac90 f   LIBCMTD:gs_report.obj
 0001:00029ca0       ___report_securityfailure  1002aca0 f   LIBCMTD:gs_report.obj
 0001:00029d80       ___report_securityfailureEx 1002ad80 f   LIBCMTD:gs_report.obj
 0001:00029fd0       __Init_thread_abort        1002afd0 f   LIBCMTD:thread_safe_statics.obj
 0001:00029ff0       __Init_thread_footer       1002aff0 f   LIBCMTD:thread_safe_statics.obj
 0001:0002a040       __Init_thread_header       1002b040 f   LIBCMTD:thread_safe_statics.obj
 0001:0002a0b0       __Init_thread_lock         1002b0b0 f   LIBCMTD:thread_safe_statics.obj
 0001:0002a0c0       __Init_thread_notify       1002b0c0 f   LIBCMTD:thread_safe_statics.obj
 0001:0002a110       __Init_thread_unlock       1002b110 f   LIBCMTD:thread_safe_statics.obj
 0001:0002a120       __Init_thread_wait         1002b120 f   LIBCMTD:thread_safe_statics.obj
 0001:0002a1b0       ??2@YAPAXIABUnothrow_t@std@@@Z 1002b1b0 f   LIBCMTD:new_scalar_nothrow.obj
 0001:0002a240       ??_U@YAPAXIABUnothrow_t@std@@@Z 1002b240 f   LIBCMTD:new_array_nothrow.obj
 0001:0002a260       __allmul                   1002b260 f   LIBCMTD:llmul.obj
 0001:0002a2a0       __alloca_probe_16          1002b2a0 f   LIBCMTD:alloca16.obj
 0001:0002a2b6       __alloca_probe_8           1002b2b6     LIBCMTD:alloca16.obj
 0001:0002a2d0       __alloca_probe             1002b2d0 f   LIBCMTD:chkstk.obj
 0001:0002a2d0       __chkstk                   1002b2d0 f   LIBCMTD:chkstk.obj
 0001:0002a7d0       __CRT_INIT@12              1002b7d0 f   LIBCMTD:dll_dllmain.obj
 0001:0002a7f0       __DllMainCRTStartup@12     1002b7f0 f   LIBCMTD:dll_dllmain.obj
 0001:0002a8b0       ?_RTC_AllocaFailure@@YAXPAXPAU_RTC_ALLOCA_NODE@@H@Z 1002b8b0 f   LIBCMTD:error.obj
 0001:0002a9a0       ?_RTC_Failure@@YAXPAXH@Z   1002b9a0 f   LIBCMTD:error.obj
 0001:0002a9f0       ?_RTC_StackFailure@@YAXPAXPBD@Z 1002b9f0 f   LIBCMTD:error.obj
 0001:0002adb0       __RTC_UninitUse            1002bdb0 f   LIBCMTD:error.obj
 0001:0002ae60       __vsprintf_s_l             1002be60 f i LIBCMTD:error.obj
 0001:0002ae90       _sprintf_s                 1002be90 f i LIBCMTD:error.obj
 0001:0002aeb0       ?_RTC_GetErrorFunc@@YAP6AHHPBDH00ZZPBX@Z 1002beb0 f   LIBCMTD:userapi.obj
 0001:0002aec0       ?_RTC_GetErrorFuncW@@YAP6AHHPB_WH00ZZPBX@Z 1002bec0 f   LIBCMTD:userapi.obj
 0001:0002aed0       __RTC_GetErrDesc           1002bed0 f   LIBCMTD:userapi.obj
 0001:0002aef0       __RTC_NumErrors            1002bef0 f   LIBCMTD:userapi.obj
 0001:0002af00       __RTC_SetErrorFunc         1002bf00 f   LIBCMTD:userapi.obj
 0001:0002af20       __RTC_SetErrorFuncW        1002bf20 f   LIBCMTD:userapi.obj
 0001:0002af40       __RTC_SetErrorType         1002bf40 f   LIBCMTD:userapi.obj
 0001:0002af70       ??2@YAPAXI@Z               1002bf70 f   LIBCMTD:new_scalar.obj
 0001:0002afc0       ___isa_available_init      1002bfc0 f   LIBCMTD:cpu_disp.obj
 0001:0002b300       __get_startup_argv_mode    1002c300 f   LIBCMTD:argv_mode.obj
 0001:0002b310       ___scrt_is_ucrt_dll_in_use 1002c310 f   LIBCMTD:ucrt_detection.obj
 0001:0002b340       ___scrt_fastfail           1002c340 f   LIBCMTD:utility_desktop.obj
 0001:0002b480       ___scrt_get_show_window_mode 1002c480 f   LIBCMTD:utility_desktop.obj
 0001:0002b4c0       ___scrt_initialize_mta     1002c4c0 f   LIBCMTD:utility_desktop.obj
 0001:0002b4d0       ___scrt_initialize_winrt   1002c4d0 f   LIBCMTD:utility_desktop.obj
 0001:0002b4e0       ___scrt_is_managed_app     1002c4e0 f   LIBCMTD:utility_desktop.obj
 0001:0002b570       ___scrt_set_unhandled_exception_filter 1002c570 f   LIBCMTD:utility_desktop.obj
 0001:0002b580       ___scrt_exe_initialize_mta 1002c580 f   LIBCMTD:utility_desktop.obj
 0001:0002b580       ___scrt_stub_for_initialize_mta 1002c580 f   LIBCMTD:utility_desktop.obj
 0001:0002b590       ___scrt_unhandled_exception_filter@4 1002c590 f   LIBCMTD:utility_desktop.obj
 0001:0002b610       __crt_debugger_hook        1002c610 f   LIBCMTD:utility_desktop.obj
 0001:0002b620       @_guard_check_icall_nop@4  1002c620 f i LIBCMTD:guard_support.obj
 0001:0002b630       _ReadNoFence               1002c630 f i LIBCMTD:guard_support.obj
 0001:0002b650       _ReadPointerNoFence        1002c650 f i LIBCMTD:guard_support.obj
 0001:0002b670       ___castguard_check_failure_debugbreak 1002c670 f i LIBCMTD:guard_support.obj
 0001:0002b690       ___castguard_check_failure_fastfail 1002c690 f i LIBCMTD:guard_support.obj
 0001:0002b6b0       ___castguard_check_failure_nop 1002c6b0 f i LIBCMTD:guard_support.obj
 0001:0002b6c0       ___castguard_check_failure_os_handled 1002c6c0 f i LIBCMTD:guard_support.obj
 0001:0002b740       ___castguard_slow_path_check_debugbreak 1002c740 f i LIBCMTD:guard_support.obj
 0001:0002b770       ___castguard_slow_path_check_fastfail 1002c770 f i LIBCMTD:guard_support.obj
 0001:0002b7b0       ___castguard_slow_path_check_nop 1002c7b0 f i LIBCMTD:guard_support.obj
 0001:0002b7c0       ___castguard_slow_path_check_os_handled 1002c7c0 f i LIBCMTD:guard_support.obj
 0001:0002b860       __guard_icall_checks_enforced 1002c860 f i LIBCMTD:guard_support.obj
 0001:0002b900       ___security_init_cookie    1002c900 f   LIBCMTD:gs_support.obj
 0001:0002b980       ?__scrt_initialize_type_info@@YAXXZ 1002c980 f   LIBCMTD:tncleanup.obj
 0001:0002b990       ?__scrt_uninitialize_type_info@@YAXXZ 1002c990 f   LIBCMTD:tncleanup.obj
 0001:0002b9b0       ___local_stdio_scanf_options 1002c9b0 f i LIBCMTD:default_local_stdio_options.obj
 0001:0002b9c0       ___scrt_initialize_default_local_stdio_options 1002c9c0 f   LIBCMTD:default_local_stdio_options.obj
 0001:0002ba00       ___scrt_get_dyn_tls_init_callback 1002ca00 f   LIBCMTD:dyn_tls_init.obj
 0001:0002ba10       __RTC_Initialize           1002ca10 f   LIBCMTD:initsect.obj
 0001:0002ba40       __RTC_Terminate            1002ca40 f   LIBCMTD:initsect.obj
 0001:0002bef0       ?_RTC_GetSrcLine@@YAHPAEPA_WKPAH1K@Z 1002cef0 f   LIBCMTD:pdblkup.obj
 0001:0002c270       __except_handler4_noexcept 1002d270 f   LIBCMTD:chandler4_noexcept.obj
 0001:0002c2d0       ??0bad_alloc@std@@AAE@QBD@Z 1002d2d0 f i LIBCMTD:throw_bad_alloc.obj
 0001:0002c300       ??0bad_alloc@std@@QAE@ABV01@@Z 1002d300 f i LIBCMTD:throw_bad_alloc.obj
 0001:0002c330       ??0bad_alloc@std@@QAE@XZ   1002d330 f i LIBCMTD:throw_bad_alloc.obj
 0001:0002c360       ??0bad_array_new_length@std@@QAE@ABV01@@Z 1002d360 f i LIBCMTD:throw_bad_alloc.obj
 0001:0002c390       ??0bad_array_new_length@std@@QAE@XZ 1002d390 f i LIBCMTD:throw_bad_alloc.obj
 0001:0002c3c0       ??0exception@std@@QAE@ABV01@@Z 1002d3c0 f i LIBCMTD:throw_bad_alloc.obj
 0001:0002c400       ??0exception@std@@QAE@QBDH@Z 1002d400 f i LIBCMTD:throw_bad_alloc.obj
 0001:0002c430       ??1bad_alloc@std@@UAE@XZ   1002d430 f i LIBCMTD:throw_bad_alloc.obj
 0001:0002c450       ??1bad_array_new_length@std@@UAE@XZ 1002d450 f i LIBCMTD:throw_bad_alloc.obj
 0001:0002c470       ??1exception@std@@UAE@XZ   1002d470 f i LIBCMTD:throw_bad_alloc.obj
 0001:0002c4a0       ??_Ebad_alloc@std@@UAEPAXI@Z 1002d4a0 f i LIBCMTD:throw_bad_alloc.obj
 0001:0002c4a0       ??_Gbad_alloc@std@@UAEPAXI@Z 1002d4a0 f i LIBCMTD:throw_bad_alloc.obj
 0001:0002c4d0       ??_Gbad_array_new_length@std@@UAEPAXI@Z 1002d4d0 f i LIBCMTD:throw_bad_alloc.obj
 0001:0002c4d0       ??_Ebad_array_new_length@std@@UAEPAXI@Z 1002d4d0 f i LIBCMTD:throw_bad_alloc.obj
 0001:0002c500       ??_Eexception@std@@UAEPAXI@Z 1002d500 f i LIBCMTD:throw_bad_alloc.obj
 0001:0002c500       ??_Gexception@std@@UAEPAXI@Z 1002d500 f i LIBCMTD:throw_bad_alloc.obj
 0001:0002c530       ?__scrt_throw_std_bad_alloc@@YAXXZ 1002d530 f   LIBCMTD:throw_bad_alloc.obj
 0001:0002c550       ?__scrt_throw_std_bad_array_new_length@@YAXXZ 1002d550 f   LIBCMTD:throw_bad_alloc.obj
 0001:0002c570       ?what@exception@std@@UBEPBDXZ 1002d570 f i LIBCMTD:throw_bad_alloc.obj
 0001:0002c5a0       ??1type_info@@UAE@XZ       1002d5a0 f   LIBCMTD:std_type_info_static.obj
 0001:0002c5c0       ??_Etype_info@@UAEPAXI@Z   1002d5c0 f i LIBCMTD:std_type_info_static.obj
 0001:0002c5c0       ??_Gtype_info@@UAEPAXI@Z   1002d5c0 f i LIBCMTD:std_type_info_static.obj
 0001:0002c5ee       ??$?2PAUHINSTANCE__@@@Wrapper@?$CSimpleArray@PAUHINSTANCE__@@V?$CSimpleArrayEqualHelper@PAUHINSTANCE__@@@ATL@@@ATL@@SAPAXIPAPAUHINSTANCE__@@@Z 1002d5ee f i atls:atlbase.obj
 0001:0002c5f6       ??0?$CSimpleArray@PAUHINSTANCE__@@V?$CSimpleArrayEqualHelper@PAUHINSTANCE__@@@ATL@@@ATL@@QAE@XZ 1002d5f6 f i atls:atlbase.obj
 0001:0002c603       ??0CAtlBaseModule@ATL@@QAE@XZ 1002d603 f   atls:atlbase.obj
 0001:0002c656       ??0Wrapper@?$CSimpleArray@PAUHINSTANCE__@@V?$CSimpleArrayEqualHelper@PAUHINSTANCE__@@@ATL@@@ATL@@QAE@ABQAUHINSTANCE__@@@Z 1002d656 f i atls:atlbase.obj
 0001:0002c666       ??0_ATL_BASE_MODULE70@ATL@@QAE@XZ 1002d666 f i atls:atlbase.obj
 0001:0002c689       ??1?$CSimpleArray@PAUHINSTANCE__@@V?$CSimpleArrayEqualHelper@PAUHINSTANCE__@@@ATL@@@ATL@@QAE@XZ 1002d689 f i atls:atlbase.obj
 0001:0002c68e       ??1CAtlBaseModule@ATL@@QAE@XZ 1002d68e f   atls:atlbase.obj
 0001:0002c6a4       ??1_ATL_BASE_MODULE70@ATL@@QAE@XZ 1002d6a4 f i atls:atlbase.obj
 0001:0002c6ac       ??A?$CSimpleArray@PAUHINSTANCE__@@V?$CSimpleArrayEqualHelper@PAUHINSTANCE__@@@ATL@@@ATL@@QAEAAPAUHINSTANCE__@@H@Z 1002d6ac f i atls:atlbase.obj
 0001:0002c6d1       ?Add@?$CSimpleArray@PAUHINSTANCE__@@V?$CSimpleArrayEqualHelper@PAUHINSTANCE__@@@ATL@@@ATL@@QAEHABQAUHINSTANCE__@@@Z 1002d6d1 f i atls:atlbase.obj
 0001:0002c753       ?AddResourceInstance@CAtlBaseModule@ATL@@QAE_NPAUHINSTANCE__@@@Z 1002d753 f   atls:atlbase.obj
 0001:0002c786       ?GetHInstanceAt@CAtlBaseModule@ATL@@QAEPAUHINSTANCE__@@H@Z 1002d786 f   atls:atlbase.obj
 0001:0002c7cb       ?GetSize@?$CSimpleArray@PAUHINSTANCE__@@V?$CSimpleArrayEqualHelper@PAUHINSTANCE__@@@ATL@@@ATL@@QBEHXZ 1002d7cb f i atls:atlbase.obj
 0001:0002c7cf       ?InternalSetAtIndex@?$CSimpleArray@PAUHINSTANCE__@@V?$CSimpleArrayEqualHelper@PAUHINSTANCE__@@@ATL@@@ATL@@QAEXHABQAUHINSTANCE__@@@Z 1002d7cf f i atls:atlbase.obj
 0001:0002c7e9       ?RemoveAll@?$CSimpleArray@PAUHINSTANCE__@@V?$CSimpleArrayEqualHelper@PAUHINSTANCE__@@@ATL@@@ATL@@QAEXXZ 1002d7e9 f i atls:atlbase.obj
 0001:0002c806       ?RemoveAt@?$CSimpleArray@PAUHINSTANCE__@@V?$CSimpleArrayEqualHelper@PAUHINSTANCE__@@@ATL@@@ATL@@QAEHH@Z 1002d806 f i atls:atlbase.obj
 0001:0002c854       ?RemoveResourceInstance@CAtlBaseModule@ATL@@QAE_NPAUHINSTANCE__@@@Z 1002d854 f   atls:atlbase.obj
 0001:0002c8b1       ?memmove_s@Checked@ATL@@YAXPAXIPBXI@Z 1002d8b1 f i atls:atlbase.obj
 0001:0002cc0e       ?GetCodeAddress@_stdcallthunk@ATL@@QAEPAXXZ 1002dc0e f i atls:atlthunk.obj
 0001:0002cc38       ?Init@_stdcallthunk@ATL@@QAEHKPAX@Z 1002dc38 f i atls:atlthunk.obj
 0001:0002cc6d       ?__AllocStdCallThunk@@YGPAXXZ 1002dc6d f   atls:atlthunk.obj
 0001:0002cc72       ?__AllocStdCallThunk@ATL@@YGPAXXZ 1002dc72 f   atls:atlthunk.obj
 0001:0002cc77       ?__AllocStdCallThunk_cmn@@YAPAXXZ 1002dc77 f   atls:atlthunk.obj
 0001:0002cd3d       ?__FreeStdCallThunk@@YGXPAX@Z 1002dd3d f   atls:atlthunk.obj
 0001:0002cd4d       ?__FreeStdCallThunk@ATL@@YGXPAX@Z 1002dd4d f   atls:atlthunk.obj
 0001:0002cd5d       ?__FreeStdCallThunk_cmn@@YAXPAX@Z 1002dd5d f   atls:atlthunk.obj
 0001:0002cdf8       _AtlThunk_AllocateData@0   1002ddf8 f   atls:atlthunk.obj
 0001:0002ce5d       _AtlThunk_DataToCode@4     1002de5d f   atls:atlthunk.obj
 0001:0002cea4       _AtlThunk_FreeData@4       1002dea4 f   atls:atlthunk.obj
 0001:0002cefa       _AtlThunk_InitData@12      1002defa f   atls:atlthunk.obj
 0001:0002cf49       _MemoryBarrier             1002df49 f i atls:atlthunk.obj
 0001:0002cf57       __InlineInterlockedCompareExchangePointer 1002df57 f i atls:atlthunk.obj
 0001:0002cf70       _memset                    1002df70 f   libvcruntimed:memset.obj
 0001:0002d0d0       ??$__crt_interlocked_exchange_pointer@$$A6AXXZP6AXXZ@@YAP6AXXZPDS6AXXZQ6AXXZ@Z 1002e0d0 f i libvcruntimed:purevirt.obj
 0001:0002d0e0       ??$__crt_interlocked_read_pointer@$$A6AXXZ@@YAP6AXXZPDS6AXXZ@Z 1002e0e0 f i libvcruntimed:purevirt.obj
 0001:0002d100       ?__crt_interlocked_read_32@@YAHPDH@Z 1002e100 f i libvcruntimed:purevirt.obj
 0001:0002d120       __get_purecall_handler     1002e120 f   libvcruntimed:purevirt.obj
 0001:0002d140       __purecall                 1002e140 f   libvcruntimed:purevirt.obj
 0001:0002d170       __set_purecall_handler     1002e170 f   libvcruntimed:purevirt.obj
 0001:0002d340       _memcmp                    1002e340 f   libvcruntimed:memcmp.obj
 0001:0002dc10       _memcpy                    1002ec10 f   libvcruntimed:memcpy.obj
 0001:0002e190       _wcsstr                    1002f190 f   libvcruntimed:wcsstr.obj
 0001:0002e6c0       __except_handler4          1002f6c0 f   libvcruntimed:chandler4.obj
 0001:0002e8b0       ___vcrt_initialize         1002f8b0 f   libvcruntimed:initialization.obj
 0001:0002e8f0       ___vcrt_thread_attach      1002f8f0 f   libvcruntimed:initialization.obj
 0001:0002e910       ___vcrt_thread_detach      1002f910 f   libvcruntimed:initialization.obj
 0001:0002e930       ___vcrt_uninitialize       1002f930 f   libvcruntimed:initialization.obj
 0001:0002e950       ___vcrt_uninitialize_critical 1002f950 f   libvcruntimed:initialization.obj
 0001:0002e970       ??$?0AAViterator@TryBlockMap@__FrameHandler3@@AAV012@$0A@@?$pair@Viterator@TryBlockMap@__FrameHandler3@@V123@@std@@QAE@AAViterator@TryBlockMap@__FrameHandler3@@0@Z 1002f970 f i libvcruntimed:trnsctrl.obj
 0001:0002e9c0       ??$forward@AAViterator@TryBlockMap@__FrameHandler3@@@std@@YAAAViterator@TryBlockMap@__FrameHandler3@@AAV123@@Z 1002f9c0 f i libvcruntimed:trnsctrl.obj
 0001:0002e9d0       ??0iterator@TryBlockMap@__FrameHandler3@@QAE@AAV12@I@Z 1002f9d0 f i libvcruntimed:trnsctrl.obj
 0001:0002ea00       ?GetRangeOfTrysToCheck@__FrameHandler3@@SA?AU?$pair@Viterator@TryBlockMap@__FrameHandler3@@V123@@std@@AAVTryBlockMap@1@HPAXPBU_s_FuncInfo@@H@Z 1002fa00 f   libvcruntimed:trnsctrl.obj
 0001:0002eae0       ?_CallCatchBlock2@@YAPAXPAUEHRegistrationNode@@PBU_s_FuncInfo@@PAXHK@Z 1002fae0 f   libvcruntimed:trnsctrl.obj
 0001:0002eb50       ?_CallSETranslator@@YAHPAUEHExceptionRecord@@PAUEHRegistrationNode@@PAX2PBU_s_FuncInfo@@H1@Z 1002fb50 f   libvcruntimed:trnsctrl.obj
 0001:0002ec50       ?_JumpToContinuation@@YGXPAXPAUEHRegistrationNode@@@Z 1002fc50 f   libvcruntimed:trnsctrl.obj
 0001:0002ec90       ?_UnwindNestedFrames@@YGXPAUEHRegistrationNode@@PAUEHExceptionRecord@@@Z 1002fc90 f   libvcruntimed:trnsctrl.obj
 0001:0002ecf0       __CatchGuardHandler        1002fcf0 f   libvcruntimed:trnsctrl.obj
 0001:0002ed40       __CreateFrameInfo          1002fd40 f   libvcruntimed:trnsctrl.obj
 0001:0002ed70       __FindAndUnlinkFrame       1002fd70 f   libvcruntimed:trnsctrl.obj
 0001:0002ede0       __TranslatorGuardHandler   1002fde0 f   libvcruntimed:trnsctrl.obj
 0001:0002ee90       ___CxxFrameHandler         1002fe90 f   libvcruntimed:trnsctrl.obj
 0001:0002eed0       ___CxxFrameHandler2        1002fed0 f   libvcruntimed:trnsctrl.obj
 0001:0002ef10       ___CxxFrameHandler3        1002ff10 f   libvcruntimed:trnsctrl.obj
 0001:0002ef50       ___CxxLongjmpUnwind@4      1002ff50 f   libvcruntimed:trnsctrl.obj
 0001:0002ef90       ___DestructExceptionObject 1002ff90 f   libvcruntimed:ehhelpers.obj
 0001:0002f0b0       ?_CallMemberFunction0@@YGXQAX0@Z 100300b0 f i libvcruntimed:ehhelpers.obj
 0001:0002f150       ?raw_name@type_info@@QBEPBDXZ 10030150 f i libvcruntimed:ehhelpers.obj
 0001:0002f170       __IsExceptionObjectToBeDestroyed 10030170 f   libvcruntimed:ehhelpers.obj
 0001:0002f1b0       __SetWinRTOutOfMemoryExceptionCallback 100301b0 f   libvcruntimed:ehhelpers.obj
 0001:0002f1c0       ___AdjustPointer           100301c0 f   libvcruntimed:ehhelpers.obj
 0001:0002f210       ___FrameUnwindFilter       10030210 f   libvcruntimed:ehhelpers.obj
 0001:0002f2a0       ___GetPlatformExceptionInfo 100302a0 f   libvcruntimed:ehhelpers.obj
 0001:0002f320       ___current_exception       10030320 f   libvcruntimed:ehhelpers.obj
 0001:0002f330       ___current_exception_context 10030330 f   libvcruntimed:ehhelpers.obj
 0001:0002f340       ___processing_throw        10030340 f   libvcruntimed:ehhelpers.obj
 0001:0002f350       ___std_terminate           10030350 f   libvcruntimed:ehhelpers.obj
 0001:0002f360       __is_exception_typeof      10030360 f   libvcruntimed:ehhelpers.obj
 0001:0002f460       ??$?RD@__crt_internal_free_policy@@QBEXQBD@Z 10030460 f i libvcruntimed:std_type_info.obj
 0001:0002f480       ??$?RX@__crt_internal_free_policy@@QBEXQBX@Z 10030480 f i libvcruntimed:std_type_info.obj
 0001:0002f4a0       ??$__crt_interlocked_compare_exchange_pointer@$$CBDPAD$$T@@YAPBDPDSBDQAD$$T@Z 100304a0 f i libvcruntimed:std_type_info.obj
 0001:0002f4c0       ??$__crt_interlocked_read_pointer@$$CBD@@YAPBDPDSBD@Z 100304c0 f i libvcruntimed:std_type_info.obj
 0001:0002f4e0       ??0?$__crt_unique_heap_ptr@DU__crt_internal_free_policy@@@@QAE@QAD@Z 100304e0 f i libvcruntimed:std_type_info.obj
 0001:0002f500       ??0?$__crt_unique_heap_ptr@XU__crt_internal_free_policy@@@@QAE@QAX@Z 10030500 f i libvcruntimed:std_type_info.obj
 0001:0002f520       ??1?$__crt_unique_heap_ptr@DU__crt_internal_free_policy@@@@QAE@XZ 10030520 f i libvcruntimed:std_type_info.obj
 0001:0002f540       ??1?$__crt_unique_heap_ptr@XU__crt_internal_free_policy@@@@QAE@XZ 10030540 f i libvcruntimed:std_type_info.obj
 0001:0002f560       ??B?$__crt_unique_heap_ptr@DU__crt_internal_free_policy@@@@QBE_NXZ 10030560 f i libvcruntimed:std_type_info.obj
 0001:0002f580       ??B?$__crt_unique_heap_ptr@XU__crt_internal_free_policy@@@@QBE_NXZ 10030580 f i libvcruntimed:std_type_info.obj
 0001:0002f610       ?detach@?$__crt_unique_heap_ptr@XU__crt_internal_free_policy@@@@QAEPAXXZ 10030610 f i libvcruntimed:std_type_info.obj
 0001:0002f640       ?get@?$__crt_unique_heap_ptr@DU__crt_internal_free_policy@@@@QBEPADXZ 10030640 f i libvcruntimed:std_type_info.obj
 0001:0002f650       ?get@?$__crt_unique_heap_ptr@XU__crt_internal_free_policy@@@@QBEPAXXZ 10030650 f i libvcruntimed:std_type_info.obj
 0001:0002f660       ?is_valid@?$__crt_unique_heap_ptr@DU__crt_internal_free_policy@@@@QBE_NXZ 10030660 f i libvcruntimed:std_type_info.obj
 0001:0002f690       ?is_valid@?$__crt_unique_heap_ptr@XU__crt_internal_free_policy@@@@QBE_NXZ 10030690 f i libvcruntimed:std_type_info.obj
 0001:0002f6c0       ?release@?$__crt_unique_heap_ptr@DU__crt_internal_free_policy@@@@QAEXXZ 100306c0 f i libvcruntimed:std_type_info.obj
 0001:0002f6f0       ?release@?$__crt_unique_heap_ptr@XU__crt_internal_free_policy@@@@QAEXXZ 100306f0 f i libvcruntimed:std_type_info.obj
 0001:0002f720       ___std_type_info_compare   10030720 f   libvcruntimed:std_type_info.obj
 0001:0002f750       ___std_type_info_destroy_list 10030750 f   libvcruntimed:std_type_info.obj
 0001:0002f790       ___std_type_info_hash      10030790 f   libvcruntimed:std_type_info.obj
 0001:0002f7f0       ___std_type_info_name      100307f0 f   libvcruntimed:std_type_info.obj
 0001:0002f9d0       ___vcrt_GetModuleFileNameW 100309d0 f   libvcruntimed:winapi_thunks.obj
 0001:0002f9f0       ___vcrt_GetModuleHandleW   100309f0 f   libvcruntimed:winapi_thunks.obj
 0001:0002fa00       ___vcrt_LoadLibraryExW     10030a00 f   libvcruntimed:winapi_thunks.obj
 0001:0002fa20       ??$?RD@__crt_public_free_policy@@QBEXQBD@Z 10030a20 f i libvcruntimed:std_exception.obj
 0001:0002fa40       ??0?$__crt_unique_heap_ptr@DU__crt_public_free_policy@@@@QAE@QAD@Z 10030a40 f i libvcruntimed:std_exception.obj
 0001:0002fa60       ??1?$__crt_unique_heap_ptr@DU__crt_public_free_policy@@@@QAE@XZ 10030a60 f i libvcruntimed:std_exception.obj
 0001:0002fa80       ??B?$__crt_unique_heap_ptr@DU__crt_public_free_policy@@@@QBE_NXZ 10030a80 f i libvcruntimed:std_exception.obj
 0001:0002faa0       ?detach@?$__crt_unique_heap_ptr@DU__crt_public_free_policy@@@@QAEPADXZ 10030aa0 f i libvcruntimed:std_exception.obj
 0001:0002fad0       ?get@?$__crt_unique_heap_ptr@DU__crt_public_free_policy@@@@QBEPADXZ 10030ad0 f i libvcruntimed:std_exception.obj
 0001:0002fae0       ?is_valid@?$__crt_unique_heap_ptr@DU__crt_public_free_policy@@@@QBE_NXZ 10030ae0 f i libvcruntimed:std_exception.obj
 0001:0002fb10       ?release@?$__crt_unique_heap_ptr@DU__crt_public_free_policy@@@@QAEXXZ 10030b10 f i libvcruntimed:std_exception.obj
 0001:0002fb40       ___std_exception_copy      10030b40 f   libvcruntimed:std_exception.obj
 0001:0002fc30       ___std_exception_destroy   10030c30 f   libvcruntimed:std_exception.obj
 0001:0002fc60       __CxxThrowException@8      10030c60 f   libvcruntimed:throw.obj
 0001:0002fd10       _memmove                   10030d10 f   libvcruntimed:memmove.obj
 0001:00030290       __local_unwind4            10031290 f   libvcruntimed:exsup4.obj
 0001:00030364       __seh_longjmp_unwind4@4    10031364 f   libvcruntimed:exsup4.obj
 0001:0003038c       @_EH4_CallFilterFunc@8     1003138c f   libvcruntimed:exsup4.obj
 0001:000303a4       @_EH4_TransferToHandler@8  100313a4 f   libvcruntimed:exsup4.obj
 0001:000303c0       @_EH4_GlobalUnwind2@8      100313c0 f   libvcruntimed:exsup4.obj
 0001:000303dc       @_EH4_LocalUnwind@16       100313dc f   libvcruntimed:exsup4.obj
 0001:00030410       ___except_validate_context_record 10031410 f   libvcruntimed:jbcxrval.obj
 0001:00030460       ___except_validate_jump_buffer 10031460 f   libvcruntimed:jbcxrval.obj
 0001:00030480       ___except_validate_jump_buffer_common 10031480 f i libvcruntimed:jbcxrval.obj
 0001:000304e0       ??$?RU__vcrt_ptd@@@__crt_internal_free_policy@@QBEXQBU__vcrt_ptd@@@Z 100314e0 f i libvcruntimed:per_thread_data.obj
 0001:00030500       ??0?$__crt_unique_heap_ptr@U__vcrt_ptd@@U__crt_internal_free_policy@@@@QAE@QAU__vcrt_ptd@@@Z 10031500 f i libvcruntimed:per_thread_data.obj
 0001:00030540       ??1?$__crt_unique_heap_ptr@U__vcrt_ptd@@U__crt_internal_free_policy@@@@QAE@XZ 10031540 f i libvcruntimed:per_thread_data.obj
 0001:00030580       ??B?$__crt_unique_heap_ptr@U__vcrt_ptd@@U__crt_internal_free_policy@@@@QBE_NXZ 10031580 f i libvcruntimed:per_thread_data.obj
 0001:000305a0       ?detach@?$__crt_unique_heap_ptr@U__vcrt_ptd@@U__crt_internal_free_policy@@@@QAEPAU__vcrt_ptd@@XZ 100315a0 f i libvcruntimed:per_thread_data.obj
 0001:000305d0       ?get@?$__crt_unique_heap_ptr@U__vcrt_ptd@@U__crt_internal_free_policy@@@@QBEPAU__vcrt_ptd@@XZ 100315d0 f i libvcruntimed:per_thread_data.obj
 0001:000305e0       ?is_valid@?$__crt_unique_heap_ptr@U__vcrt_ptd@@U__crt_internal_free_policy@@@@QBE_NXZ 100315e0 f i libvcruntimed:per_thread_data.obj
 0001:00030610       ?release@?$__crt_unique_heap_ptr@U__vcrt_ptd@@U__crt_internal_free_policy@@@@QAEXXZ 10031610 f i libvcruntimed:per_thread_data.obj
 0001:00030670       ___vcrt_freefls@4          10031670 f   libvcruntimed:per_thread_data.obj
 0001:000306a0       ___vcrt_freeptd            100316a0 f   libvcruntimed:per_thread_data.obj
 0001:00030700       ___vcrt_getptd             10031700 f   libvcruntimed:per_thread_data.obj
 0001:00030720       ___vcrt_getptd_noexit      10031720 f   libvcruntimed:per_thread_data.obj
 0001:00030880       ___vcrt_getptd_noinit      10031880 f   libvcruntimed:per_thread_data.obj
 0001:000308e0       ___vcrt_initialize_ptd     100318e0 f   libvcruntimed:per_thread_data.obj
 0001:00030930       ___vcrt_uninitialize_ptd   10031930 f   libvcruntimed:per_thread_data.obj
 0001:00030960       ___vcrt_initialize_locks   10031960 f   libvcruntimed:locks.obj
 0001:000309c0       ___vcrt_lock               100319c0 f   libvcruntimed:locks.obj
 0001:000309e0       ___vcrt_uninitialize_locks 100319e0 f   libvcruntimed:locks.obj
 0001:00030a30       ___vcrt_unlock             10031a30 f   libvcruntimed:locks.obj
 0001:000315c0       ??$TypeMatchHelper@V__FrameHandler3@@@@YAHPBU_s_HandlerType@@PBU_s_CatchableType@@PBU_s_ThrowInfo@@@Z 100325c0 f i libvcruntimed:frame.obj
 0001:000316a0       ??$__InternalCxxFrameHandler@V__FrameHandler3@@@@YA?AW4_EXCEPTION_DISPOSITION@@PAUEHExceptionRecord@@PAUEHRegistrationNode@@PAU_CONTEXT@@PAXPBU_s_FuncInfo@@H1E@Z 100326a0 f i libvcruntimed:frame.obj
 0001:00031860       ??0HandlerMap@__FrameHandler3@@QAE@PBU_s_TryBlockMapEntry@@II@Z 10032860 f i libvcruntimed:frame.obj
 0001:00031890       ??0TryBlockMap@__FrameHandler3@@QAE@PBU_s_FuncInfo@@I@Z 10032890 f i libvcruntimed:frame.obj
 0001:000318c0       ??0bad_exception@std@@QAE@ABV01@@Z 100328c0 f i libvcruntimed:frame.obj
 0001:000318f0       ??0bad_exception@std@@QAE@XZ 100328f0 f i libvcruntimed:frame.obj
 0001:00031920       ??0iterator@HandlerMap@__FrameHandler3@@QAE@AAV12@I@Z 10032920 f i libvcruntimed:frame.obj
 0001:00031950       ??1bad_exception@std@@UAE@XZ 10032950 f i libvcruntimed:frame.obj
 0001:00031970       ??8iterator@HandlerMap@__FrameHandler3@@QBE_NABV012@@Z 10032970 f i libvcruntimed:frame.obj
 0001:000319a0       ??8type_info@@QBE_NABV0@@Z 100329a0 f i libvcruntimed:frame.obj
 0001:000319e0       ??9iterator@HandlerMap@__FrameHandler3@@QBE_NABV012@@Z 100329e0 f i libvcruntimed:frame.obj
 0001:00031a20       ??Diterator@HandlerMap@__FrameHandler3@@QAE?BU_s_HandlerType@@XZ 10032a20 f i libvcruntimed:frame.obj
 0001:00031a60       ??Diterator@TryBlockMap@__FrameHandler3@@QAE?BU_s_TryBlockMapEntry@@XZ 10032a60 f i libvcruntimed:frame.obj
 0001:00031ab0       ??Eiterator@HandlerMap@__FrameHandler3@@QAEAAV012@XZ 10032ab0 f i libvcruntimed:frame.obj
 0001:00031ad0       ??Eiterator@TryBlockMap@__FrameHandler3@@QAEAAV012@XZ 10032ad0 f i libvcruntimed:frame.obj
 0001:00031af0       ??Miterator@TryBlockMap@__FrameHandler3@@QBE_NABV012@@Z 10032af0 f i libvcruntimed:frame.obj
 0001:00031b20       ??_Ebad_exception@std@@UAEPAXI@Z 10032b20 f i libvcruntimed:frame.obj
 0001:00031b20       ??_Gbad_exception@std@@UAEPAXI@Z 10032b20 f i libvcruntimed:frame.obj
 0001:00031b50       ?BuildCatchObject@__FrameHandler3@@SAXPAUEHExceptionRecord@@PAXPBU_s_HandlerType@@PBU_s_CatchableType@@@Z 10032b50 f   libvcruntimed:frame.obj
 0001:00031b70       ?BuildCatchObjectHelper@__FrameHandler3@@SAHPAUEHExceptionRecord@@PAXPBU_s_HandlerType@@PBU_s_CatchableType@@@Z 10032b70 f   libvcruntimed:frame.obj
 0001:00031f10       ?FrameUnwindToEmptyState@__FrameHandler3@@SAXPAUEHRegistrationNode@@PAXPBU_s_FuncInfo@@@Z 10032f10 f   libvcruntimed:frame.obj
 0001:00031f30       ?FrameUnwindToState@__FrameHandler3@@SAXPAUEHRegistrationNode@@PAXPBU_s_FuncInfo@@H@Z 10032f30 f   libvcruntimed:frame.obj
 0001:000320b0       ?GetMaxState@__FrameHandler3@@SAHPAXPBU_s_FuncInfo@@@Z 100330b0 f i libvcruntimed:frame.obj
 0001:000321d0       ?TypeMatch@__FrameHandler3@@SAHPBU_s_HandlerType@@PBU_s_CatchableType@@PBU_s_ThrowInfo@@@Z 100331d0 f   libvcruntimed:frame.obj
 0001:000321f0       ?_CallMemberFunction1@@YGXQAX00@Z 100331f0 f i libvcruntimed:frame.obj
 0001:00032220       ?_CallMemberFunction2@@YGXQAX00H@Z 10033220 f i libvcruntimed:frame.obj
 0001:00032250       ?begin@HandlerMap@__FrameHandler3@@QAE?AViterator@12@XZ 10033250 f i libvcruntimed:frame.obj
 0001:00032270       ?end@HandlerMap@__FrameHandler3@@QAE?AViterator@12@XZ 10033270 f i libvcruntimed:frame.obj
 0001:000322a0       ?getESTypes@__FrameHandler3@@SAPBU_s_ESTypeList@@PBU_s_FuncInfo@@@Z 100332a0 f i libvcruntimed:frame.obj
 0001:000322b0       ?getLastEntry@HandlerMap@__FrameHandler3@@QAEPBU_s_HandlerType@@XZ 100332b0 f i libvcruntimed:frame.obj
 0001:000322d0       ?getMagicNum@__FrameHandler3@@SAIPBU_s_FuncInfo@@@Z 100332d0 f i libvcruntimed:frame.obj
 0001:000322e0       ?getNumTryBlocks@TryBlockMap@__FrameHandler3@@QAEIXZ 100332e0 f i libvcruntimed:frame.obj
 0001:00032300       ?isEHs@__FrameHandler3@@SA_NPBU_s_FuncInfo@@@Z 10033300 f i libvcruntimed:frame.obj
 0001:00032330       ?isNoExcept@__FrameHandler3@@SA_NPBU_s_FuncInfo@@@Z 10033330 f i libvcruntimed:frame.obj
 0001:00032360       ___BuildCatchObject        10033360 f   libvcruntimed:frame.obj
 0001:00032380       ___BuildCatchObjectHelper  10033380 f   libvcruntimed:frame.obj
 0001:000323a0       ___TypeMatch               100333a0 f   libvcruntimed:frame.obj
 0001:000323c0       ___vcrt_EncodePointer      100333c0 f i libvcruntimed:frame.obj
 0001:000323d0       __CallSettingFrame@12      100333d0 f   libvcruntimed:lowhelpr.obj
 0001:000323f7       __NLG_Return               100333f7     libvcruntimed:lowhelpr.obj
 0001:00032420       ??$?0$00@DName@@QAE@PBDU?$StringLifeSelector@$00@@@Z 10033420 f i libvcruntimed:undname.obj
 0001:00032470       ??$?0$00@pcharNode@@QAE@PBDHU?$StringLifeSelector@$00@@@Z 10033470 f i libvcruntimed:undname.obj
 0001:000324b0       ??$?0$01@DName@@QAE@PBDU?$StringLifeSelector@$01@@@Z 100334b0 f i libvcruntimed:undname.obj
 0001:00032500       ??$?0$01@pcharNode@@QAE@PBDHU?$StringLifeSelector@$01@@@Z 10033500 f i libvcruntimed:undname.obj
 0001:00032580       ??$?0$0A@@DName@@QAE@PBDU?$StringLifeSelector@$0A@@@@Z 10033580 f i libvcruntimed:undname.obj
 0001:000325d0       ??$?0$0A@@pcharNode@@QAE@PBDHU?$StringLifeSelector@$0A@@@@Z 100335d0 f i libvcruntimed:undname.obj
 0001:00032650       ??$?0_K$0A@@?$optional@_K@std@@QAE@$$QA_K@Z 10033650 f i libvcruntimed:undname.obj
 0001:00032690       ??$?0_K@?$_Optional_construct_base@_K@std@@QAE@Uin_place_t@1@$$QA_K@Z 10033690 f i libvcruntimed:undname.obj
 0001:000326c0       ??$?0_K@?$_Optional_destruct_base@_K$00@std@@QAE@Uin_place_t@1@$$QA_K@Z 100336c0 f i libvcruntimed:undname.obj
 0001:000326f0       ??$append@VDNameNode@@@DName@@AAEXPBVDNameNode@@@Z 100336f0 f i libvcruntimed:undname.obj
 0001:00032780       ??$append@VDNameStatusNode@@@DName@@AAEXPBVDNameStatusNode@@@Z 10033780 f i libvcruntimed:undname.obj
 0001:00032810       ??$append@VcharNode@@@DName@@AAEXPBVcharNode@@@Z 10033810 f i libvcruntimed:undname.obj
 0001:000328a0       ??$append@VpDNameNode@@@DName@@AAEXPBVpDNameNode@@@Z 100338a0 f i libvcruntimed:undname.obj
 0001:00032930       ??$append@VpcharNode@@@DName@@AAEXPBVpcharNode@@@Z 10033930 f i libvcruntimed:undname.obj
 0001:000329c0       ??$doPchar@$00@DName@@AAEXPBDH@Z 100339c0 f i libvcruntimed:undname.obj
 0001:00032ad0       ??$doPchar@$01@DName@@AAEXPBDH@Z 10033ad0 f i libvcruntimed:undname.obj
 0001:00032be0       ??$doPchar@$0A@@DName@@AAEXPBDH@Z 10033be0 f i libvcruntimed:undname.obj
 0001:00032cf0       ??$forward@_K@std@@YA$$QA_KAA_K@Z 10033cf0 f i libvcruntimed:undname.obj
 0001:00032d00       ??$size@D$04@std@@YAIAAY04$$CBD@Z 10033d00 f i libvcruntimed:undname.obj
 0001:00032d10       ??$size@D$0EB@@std@@YAIAAY0EB@$$CBD@Z 10033d10 f i libvcruntimed:undname.obj
 0001:00032d20       ??0?$_Optional_construct_base@_K@std@@QAE@XZ 10033d20 f i libvcruntimed:undname.obj
 0001:00032d40       ??0?$_Optional_destruct_base@_K$00@std@@QAE@XZ 10033d40 f i libvcruntimed:undname.obj
 0001:00032d60       ??0?$optional@_K@std@@QAE@XZ 10033d60 f i libvcruntimed:undname.obj
 0001:00032d80       ??0Block@_HeapManager@@QAE@XZ 10033d80 f i libvcruntimed:undname.obj
 0001:00032da0       ??0DName@@QAE@AAPBDD@Z     10033da0 f   libvcruntimed:undname.obj
 0001:00032f10       ??0DName@@QAE@ABUStringLiteral@@@Z 10033f10 f   libvcruntimed:undname.obj
 0001:00032f60       ??0DName@@QAE@ABV0@@Z      10033f60 f i libvcruntimed:undname.obj
 0001:00032f90       ??0DName@@QAE@D@Z          10033f90 f   libvcruntimed:undname.obj
 0001:00032fc0       ??0DName@@QAE@PAV0@@Z      10033fc0 f   libvcruntimed:undname.obj
 0001:00033070       ??0DName@@QAE@W4DNameStatus@@@Z 10034070 f   libvcruntimed:undname.obj
 0001:00033110       ??0DName@@QAE@XZ           10034110 f i libvcruntimed:undname.obj
 0001:00033140       ??0DName@@QAE@_J@Z         10034140 f   libvcruntimed:undname.obj
 0001:00033230       ??0DName@@QAE@_K@Z         10034230 f   libvcruntimed:undname.obj
 0001:000332e0       ??0DNameNode@@IAE@XZ       100342e0 f i libvcruntimed:undname.obj
 0001:00033300       ??0Replicator@@QAE@XZ      10034300 f i libvcruntimed:undname.obj
 0001:00033340       ??0UnDecorator@@QAE@PBDP6APADJ@ZK@Z 10034340 f i libvcruntimed:undname.obj
 0001:000333c0       ??0_Nontrivial_dummy_type@std@@QAE@XZ 100343c0 f i libvcruntimed:undname.obj
 0001:000333d0       ??0charNode@@QAE@D@Z       100343d0 f i libvcruntimed:undname.obj
 0001:00033400       ??0pDNameNode@@QAE@PAVDName@@@Z 10034400 f   libvcruntimed:undname.obj
 0001:00033460       ??0pairNode@@QAE@PBVDNameNode@@0@Z 10034460 f i libvcruntimed:undname.obj
 0001:000334c0       ??2@YAPAXIAAV_HeapManager@@H@Z 100344c0 f   libvcruntimed:undname.obj
 0001:00033500       ??4DName@@QAEAAV0@ABUStringLiteral@@@Z 10034500 f   libvcruntimed:undname.obj
 0001:00033540       ??4DName@@QAEAAV0@ABV0@@Z  10034540 f   libvcruntimed:undname.obj
 0001:00033570       ??4DName@@QAEAAV0@D@Z      10034570 f i libvcruntimed:undname.obj
 0001:000335a0       ??4DName@@QAEAAV0@PAV0@@Z  100345a0 f   libvcruntimed:undname.obj
 0001:00033640       ??4DName@@QAEAAV0@W4DNameStatus@@@Z 10034640 f   libvcruntimed:undname.obj
 0001:000336c0       ??AReplicator@@QBE?AVDName@@H@Z 100346c0 f   libvcruntimed:undname.obj
 0001:00033730       ??B?$optional@_K@std@@QBE_NXZ 10034730 f i libvcruntimed:undname.obj
 0001:00033750       ??D?$optional@_K@std@@QGAEAA_KXZ 10034750 f i libvcruntimed:undname.obj
 0001:00033760       ??H@YA?AVDName@@ABUStringLiteral@@ABV0@@Z 10034760 f i libvcruntimed:undname.obj
 0001:00033790       ??H@YA?AVDName@@DABV0@@Z   10034790 f i libvcruntimed:undname.obj
 0001:000337c0       ??H@YA?AVDName@@W4DNameStatus@@ABV0@@Z 100347c0 f i libvcruntimed:undname.obj
 0001:000337f0       ??HDName@@QBE?AV0@ABUStringLiteral@@@Z 100347f0 f   libvcruntimed:undname.obj
 0001:00033830       ??HDName@@QBE?AV0@ABV0@@Z  10034830 f   libvcruntimed:undname.obj
 0001:00033870       ??HDName@@QBE?AV0@D@Z      10034870 f   libvcruntimed:undname.obj
 0001:000338b0       ??HDName@@QBE?AV0@PAV0@@Z  100348b0 f   libvcruntimed:undname.obj
 0001:000338f0       ??HDName@@QBE?AV0@W4DNameStatus@@@Z 100348f0 f   libvcruntimed:undname.obj
 0001:00033930       ??HStringLiteral@@QBE?AU0@H@Z 10034930 f i libvcruntimed:undname.obj
 0001:00033960       ??YDName@@QAEAAV0@ABUStringLiteral@@@Z 10034960 f   libvcruntimed:undname.obj
 0001:00033a00       ??YDName@@QAEAAV0@ABV0@@Z  10034a00 f   libvcruntimed:undname.obj
 0001:00033aa0       ??YDName@@QAEAAV0@D@Z      10034aa0 f   libvcruntimed:undname.obj
 0001:00033b20       ??YDName@@QAEAAV0@PAV0@@Z  10034b20 f   libvcruntimed:undname.obj
 0001:00033bd0       ??YDName@@QAEAAV0@W4DNameStatus@@@Z 10034bd0 f   libvcruntimed:undname.obj
 0001:00033c30       ??YReplicator@@QAEAAV0@ABVDName@@@Z 10034c30 f   libvcruntimed:undname.obj
 0001:00033cc0       ??_5DName@@QAEAAV0@ABV0@@Z 10034cc0 f   libvcruntimed:undname.obj
 0001:00033d20       ??__K_l@@YA?AUStringLiteral@@PBDI@Z 10034d20 f i libvcruntimed:undname.obj
 0001:00033d40       ?Constructor@_HeapManager@@QAEXP6APAXI@ZP6AXPAX@Z@Z 10034d40 f i libvcruntimed:undname.obj
 0001:00033d80       ?Destructor@_HeapManager@@QAEXXZ 10034d80 f i libvcruntimed:undname.obj
 0001:00033df0       ?UScore@UnDecorator@@SA?AUStringLiteral@@W4Tokens@@@Z 10034df0 f   libvcruntimed:undname.obj
 0001:00033e40       ?composeDeclaration@UnDecorator@@CA?AVDName@@ABV2@@Z 10034e40 f i libvcruntimed:undname.obj
 0001:00035db0       ?dbGetString@DName@@QBEPADXZ 10036db0 f   libvcruntimed:undname.obj
 0001:00035dd0       ?doAccessSpecifiers@UnDecorator@@SAHXZ 10036dd0 f i libvcruntimed:undname.obj
 0001:00035e00       ?doAllocationLanguage@UnDecorator@@SAHXZ 10036e00 f i libvcruntimed:undname.obj
 0001:00035e30       ?doAllocationModel@UnDecorator@@SAHXZ 10036e30 f i libvcruntimed:undname.obj
 0001:00035e60       ?doEcsu@UnDecorator@@SAHXZ 10036e60 f i libvcruntimed:undname.obj
 0001:00035e90       ?doEllipsis@UnDecorator@@SAHXZ 10036e90 f i libvcruntimed:undname.obj
 0001:00035ec0       ?doFunctionReturns@UnDecorator@@SAHXZ 10036ec0 f i libvcruntimed:undname.obj
 0001:00035ef0       ?doMSKeywords@UnDecorator@@SAHXZ 10036ef0 f i libvcruntimed:undname.obj
 0001:00035f20       ?doMemberTypes@UnDecorator@@SAHXZ 10036f20 f i libvcruntimed:undname.obj
 0001:00035f50       ?doNameOnly@UnDecorator@@SAHXZ 10036f50 f i libvcruntimed:undname.obj
 0001:00035f60       ?doNoIdentCharCheck@UnDecorator@@SAHXZ 10036f60 f i libvcruntimed:undname.obj
 0001:00035f70       ?doPchar@DName@@AAEXD@Z    10036f70 f   libvcruntimed:undname.obj
 0001:00035fe0       ?doPtr64@UnDecorator@@SAHXZ 10036fe0 f i libvcruntimed:undname.obj
 0001:00036010       ?doRestrictionSpec@UnDecorator@@SAHXZ 10037010 f i libvcruntimed:undname.obj
 0001:00036040       ?doThisTypes@UnDecorator@@SAHXZ 10037040 f i libvcruntimed:undname.obj
 0001:00036070       ?doThrowTypes@UnDecorator@@SAHXZ 10037070 f i libvcruntimed:undname.obj
 0001:000360a0       ?doTypeOnly@UnDecorator@@SAHXZ 100370a0 f i libvcruntimed:undname.obj
 0001:000360b0       ?doUnderScore@UnDecorator@@SAHXZ 100370b0 f i libvcruntimed:undname.obj
 0001:000360e0       ?getArgumentList@UnDecorator@@CA?AVDName@@XZ 100370e0 f   libvcruntimed:undname.obj
 0001:00036230       ?getArgumentTypes@UnDecorator@@CA?AVDName@@XZ 10037230 f   libvcruntimed:undname.obj
 0001:00036440       ?getArrayObject@UnDecorator@@CA?AVDName@@XZ 10037440 f   libvcruntimed:undname.obj
 0001:00036520       ?getArrayType@UnDecorator@@CA?AVDName@@ABV2@@Z 10037520 f i libvcruntimed:undname.obj
 0001:000367c0       ?getBasedType@UnDecorator@@CA?AVDName@@XZ 100377c0 f   libvcruntimed:undname.obj
 0001:000368b0       ?getBasicDataType@UnDecorator@@CA?AVDName@@ABV2@@Z 100378b0 f   libvcruntimed:undname.obj
 0001:000371c0       ?getCHPEName@UnDecorator@@QAEPADPADH@Z 100381c0 f i libvcruntimed:undname.obj
 0001:00037320       ?getCallIndex@UnDecorator@@CA?AVDName@@XZ 10038320 f i libvcruntimed:undname.obj
 0001:00037340       ?getCallingConvention@UnDecorator@@CA?AVDName@@XZ 10038340 f   libvcruntimed:undname.obj
 0001:00037580       ?getDataIndirectType@UnDecorator@@CA?AVDName@@ABV2@W4IndirectionKind@@0H@Z 10038580 f   libvcruntimed:undname.obj
 0001:00037ea0       ?getDataIndirectType@UnDecorator@@CA?AVDName@@XZ 10038ea0 f i libvcruntimed:undname.obj
 0001:00037ee0       ?getDataType@UnDecorator@@CA?AVDName@@PAV2@@Z 10038ee0 f   libvcruntimed:undname.obj
 0001:00038020       ?getDecoratedName@UnDecorator@@CA?AVDName@@XZ 10039020 f   libvcruntimed:undname.obj
 0001:00038460       ?getDimension@UnDecorator@@CA?AVDName@@_N@Z 10039460 f   libvcruntimed:undname.obj
 0001:000386c0       ?getDispatchTarget@UnDecorator@@CA?AVDName@@XZ 100396c0 f   libvcruntimed:undname.obj
 0001:00038760       ?getDisplacement@UnDecorator@@CA?AVDName@@XZ 10039760 f i libvcruntimed:undname.obj
 0001:00038780       ?getECSUDataType@UnDecorator@@CA?AVDName@@XZ 10039780 f   libvcruntimed:undname.obj
 0001:000389e0       ?getECSUName@UnDecorator@@CA?AVDName@@XZ 100399e0 f i libvcruntimed:undname.obj
 0001:00038a00       ?getEnumType@UnDecorator@@CA?AVDName@@XZ 10039a00 f i libvcruntimed:undname.obj
 0001:00038bb0       ?getExtendedDataIndirectType@UnDecorator@@CA?AVDName@@AAW4IndirectionKind@@AA_NH@Z 10039bb0 f   libvcruntimed:undname.obj
 0001:00038e00       ?getExternalDataType@UnDecorator@@CA?AVDName@@ABV2@@Z 10039e00 f i libvcruntimed:undname.obj
 0001:00038ea0       ?getFloatingPoint@UnDecorator@@CA?AVDName@@H@Z 10039ea0 f   libvcruntimed:undname.obj
 0001:00039050       ?getFunctionIndirectType@UnDecorator@@CA?AVDName@@ABV2@@Z 1003a050 f   libvcruntimed:undname.obj
 0001:00039530       ?getGuardNumber@UnDecorator@@CA?AVDName@@XZ 1003a530 f i libvcruntimed:undname.obj
 0001:00039550       ?getLastChar@DName@@QBEDXZ 1003a550 f i libvcruntimed:undname.obj
 0001:00039590       ?getLastChar@DNameStatusNode@@UBEDXZ 1003a590 f i libvcruntimed:undname.obj
 0001:000395c0       ?getLastChar@charNode@@UBEDXZ 1003a5c0 f i libvcruntimed:undname.obj
 0001:000395e0       ?getLastChar@pDNameNode@@UBEDXZ 1003a5e0 f i libvcruntimed:undname.obj
 0001:00039610       ?getLastChar@pairNode@@UBEDXZ 1003a610 f i libvcruntimed:undname.obj
 0001:00039680       ?getLastChar@pcharNode@@UBEDXZ 1003a680 f i libvcruntimed:undname.obj
 0001:000396c0       ?getLexicalFrame@UnDecorator@@CA?AVDName@@XZ 1003a6c0 f i libvcruntimed:undname.obj
 0001:00039700       ?getMemoryWithBuffer@_HeapManager@@QAEPAXI@Z 1003a700 f   libvcruntimed:undname.obj
 0001:000397f0       ?getMemoryWithoutBuffer@_HeapManager@@QAEPAXI@Z 1003a7f0 f   libvcruntimed:undname.obj
 0001:00039830       ?getNoexcept@UnDecorator@@CA?AVDName@@XZ 1003a830 f   libvcruntimed:undname.obj
 0001:000398b0       ?getNumberOfDimensions@UnDecorator@@CAHXZ 1003a8b0 f   libvcruntimed:undname.obj
 0001:000399b0       ?getOperatorName@UnDecorator@@CA?AVDName@@_NPA_N@Z 1003a9b0 f i libvcruntimed:undname.obj
 0001:0003a4a0       ?getPointerType@UnDecorator@@CA?AVDName@@ABV2@0@Z 1003b4a0 f i libvcruntimed:undname.obj
 0001:0003a4c0       ?getPointerTypeArray@UnDecorator@@CA?AVDName@@ABV2@0@Z 1003b4c0 f i libvcruntimed:undname.obj
 0001:0003a4e0       ?getPrimaryDataType@UnDecorator@@CA?AVDName@@ABV2@@Z 1003b4e0 f   libvcruntimed:undname.obj
 0001:0003a970       ?getPtrRefDataType@UnDecorator@@CA?AVDName@@ABV2@H@Z 1003b970 f   libvcruntimed:undname.obj
 0001:0003ac20       ?getPtrRefType@UnDecorator@@CA?AVDName@@ABV2@0W4IndirectionKind@@@Z 1003bc20 f   libvcruntimed:undname.obj
 0001:0003ada0       ?getReferenceType@UnDecorator@@CA?AVDName@@ABV2@0W4IndirectionKind@@@Z 1003bda0 f i libvcruntimed:undname.obj
 0001:0003adc0       ?getRestrictionSpec@UnDecorator@@CA?AVDName@@XZ 1003bdc0 f   libvcruntimed:undname.obj
 0001:0003af80       ?getReturnType@UnDecorator@@CA?AVDName@@PAV2@@Z 1003bf80 f   libvcruntimed:undname.obj
 0001:0003afd0       ?getScope@UnDecorator@@CA?AVDName@@XZ 1003bfd0 f   libvcruntimed:undname.obj
 0001:0003b560       ?getScopedName@UnDecorator@@CA?AVDName@@XZ 1003c560 f   libvcruntimed:undname.obj
 0001:0003b6b0       ?getSignedDimension@UnDecorator@@CA?AVDName@@XZ 1003c6b0 f   libvcruntimed:undname.obj
 0001:0003b730       ?getStorageConvention@UnDecorator@@CA?AVDName@@XZ 1003c730 f i libvcruntimed:undname.obj
 0001:0003b750       ?getString@DName@@QBEPADPAD0@Z 1003c750 f i libvcruntimed:undname.obj
 0001:0003b7b0       ?getString@DName@@QBEPADPADH@Z 1003c7b0 f i libvcruntimed:undname.obj
 0001:0003b840       ?getString@DNameStatusNode@@UBEPADPAD0@Z 1003c840 f i libvcruntimed:undname.obj
 0001:0003b880       ?getString@charNode@@UBEPADPAD0@Z 1003c880 f i libvcruntimed:undname.obj
 0001:0003b8b0       ?getString@pDNameNode@@UBEPADPAD0@Z 1003c8b0 f i libvcruntimed:undname.obj
 0001:0003b8f0       ?getString@pairNode@@UBEPADPAD0@Z 1003c8f0 f i libvcruntimed:undname.obj
 0001:0003b980       ?getString@pcharNode@@UBEPADPAD0@Z 1003c980 f i libvcruntimed:undname.obj
 0001:0003b9b0       ?getStringEncoding@UnDecorator@@CA?AVDName@@W4PrefixKind@@H@Z 1003c9b0 f   libvcruntimed:undname.obj
 0001:0003bac0       ?getStringHelper@@YAPADPADPBD1H@Z 1003cac0 f i libvcruntimed:undname.obj
 0001:0003bb00       ?getStringObject@UnDecorator@@CA?AVDName@@XZ 1003cb00 f   libvcruntimed:undname.obj
 0001:0003bbb0       ?getSymbolName@UnDecorator@@CA?AVDName@@XZ 1003cbb0 f i libvcruntimed:undname.obj
 0001:0003bc40       ?getTemplateArgumentList@UnDecorator@@CA?AVDName@@XZ 1003cc40 f   libvcruntimed:undname.obj
 0001:0003bf30       ?getTemplateName@UnDecorator@@CA?AVDName@@_N@Z 1003cf30 f   libvcruntimed:undname.obj
 0001:0003c0f0       ?getTemplateNonTypeArgument@UnDecorator@@CA?AVDName@@XZ 1003d0f0 f   libvcruntimed:undname.obj
 0001:0003c630       ?getTemplateTypeArgument@UnDecorator@@CA?AVDName@@XZ 1003d630 f   libvcruntimed:undname.obj
 0001:0003c7d0       ?getThisType@UnDecorator@@CA?AVDName@@XZ 1003d7d0 f i libvcruntimed:undname.obj
 0001:0003c810       ?getThrowTypes@UnDecorator@@CA?AVDName@@XZ 1003d810 f   libvcruntimed:undname.obj
 0001:0003c850       ?getTypeEncoding@UnDecorator@@CAHXZ 1003d850 f i libvcruntimed:undname.obj
 0001:0003d310       ?getUndecoratedName@UnDecorator@@QAEPADPADH@Z 1003e310 f i libvcruntimed:undname.obj
 0001:0003d470       ?getVCallThunkType@UnDecorator@@CA?AVDName@@XZ 1003e470 f i libvcruntimed:undname.obj
 0001:0003d4f0       ?getValue@UnDecorator@@CA?AV?$optional@_K@std@@XZ 1003e4f0 f   libvcruntimed:undname.obj
 0001:0003d5b0       ?getValueObject@UnDecorator@@CA?AVDName@@XZ 1003e5b0 f   libvcruntimed:undname.obj
 0001:0003d770       ?getVbTableType@UnDecorator@@CA?AVDName@@ABV2@@Z 1003e770 f i libvcruntimed:undname.obj
 0001:0003d790       ?getVdispMapType@UnDecorator@@CA?AVDName@@ABV2@@Z 1003e790 f i libvcruntimed:undname.obj
 0001:0003d820       ?getVfTableType@UnDecorator@@CA?AVDName@@ABV2@@Z 1003e820 f i libvcruntimed:undname.obj
 0001:0003da20       ?getZName@UnDecorator@@CA?AVDName@@_N0@Z 1003ea20 f   libvcruntimed:undname.obj
 0001:0003dd60       ?haveTemplateParameters@UnDecorator@@SAHXZ 1003ed60 f i libvcruntimed:undname.obj
 0001:0003dd70       ?isArray@DName@@QBEHXZ     1003ed70 f i libvcruntimed:undname.obj
 0001:0003dd90       ?isComArray@DName@@QBEHXZ  1003ed90 f i libvcruntimed:undname.obj
 0001:0003ddb0       ?isEmpty@DName@@QBEHXZ     1003edb0 f i libvcruntimed:undname.obj
 0001:0003dde0       ?isFull@Replicator@@QBEHXZ 1003ede0 f i libvcruntimed:undname.obj
 0001:0003de10       ?isNoTE@DName@@QBEHXZ      1003ee10 f i libvcruntimed:undname.obj
 0001:0003de30       ?isPinPtr@DName@@QBEHXZ    1003ee30 f i libvcruntimed:undname.obj
 0001:0003de50       ?isPtrRef@DName@@QBEHXZ    1003ee50 f i libvcruntimed:undname.obj
 0001:0003de70       ?isUDC@DName@@QBEHXZ       1003ee70 f i libvcruntimed:undname.obj
 0001:0003deb0       ?isUDTThunk@DName@@QBEHXZ  1003eeb0 f i libvcruntimed:undname.obj
 0001:0003def0       ?isVCallThunk@DName@@QBEHXZ 1003eef0 f i libvcruntimed:undname.obj
 0001:0003df10       ?isValid@DName@@QBEHXZ     1003ef10 f i libvcruntimed:undname.obj
 0001:0003df50       ?length@DName@@QBEHXZ      1003ef50 f i libvcruntimed:undname.obj
 0001:0003df90       ?length@DNameStatusNode@@UBEHXZ 1003ef90 f i libvcruntimed:undname.obj
 0001:0003dfb0       ?length@charNode@@UBEHXZ   1003efb0 f i libvcruntimed:undname.obj
 0001:0003dfc0       ?length@pDNameNode@@UBEHXZ 1003efc0 f i libvcruntimed:undname.obj
 0001:0003dff0       ?length@pairNode@@UBEHXZ   1003eff0 f i libvcruntimed:undname.obj
 0001:0003e060       ?length@pcharNode@@UBEHXZ  1003f060 f i libvcruntimed:undname.obj
 0001:0003e080       ?make@DNameStatusNode@@SAPBV1@W4DNameStatus@@@Z 1003f080 f i libvcruntimed:undname.obj
 0001:0003e0b0       ?parseDecoratedName@UnDecorator@@CA?AVDName@@XZ 1003f0b0 f   libvcruntimed:undname.obj
 0001:0003e240       ?raw_length@DNameStatusNode@@UBEHXZ 1003f240 f i libvcruntimed:undname.obj
 0001:0003e260       ?raw_length@charNode@@UBEHXZ 1003f260 f i libvcruntimed:undname.obj
 0001:0003e280       ?raw_length@pDNameNode@@UBEHXZ 1003f280 f i libvcruntimed:undname.obj
 0001:0003e290       ?raw_length@pairNode@@UBEHXZ 1003f290 f i libvcruntimed:undname.obj
 0001:0003e2b0       ?raw_length@pcharNode@@UBEHXZ 1003f2b0 f i libvcruntimed:undname.obj
 0001:0003e2d0       ?setIsArray@DName@@QAEXXZ  1003f2d0 f i libvcruntimed:undname.obj
 0001:0003e2f0       ?setIsComArray@DName@@QAEXXZ 1003f2f0 f i libvcruntimed:undname.obj
 0001:0003e310       ?setIsNoTE@DName@@QAEXXZ   1003f310 f i libvcruntimed:undname.obj
 0001:0003e330       ?setIsPinPtr@DName@@QAEXXZ 1003f330 f i libvcruntimed:undname.obj
 0001:0003e350       ?setIsUDC@DName@@QAEXXZ    1003f350 f i libvcruntimed:undname.obj
 0001:0003e380       ?setIsVCallThunk@DName@@QAEXXZ 1003f380 f i libvcruntimed:undname.obj
 0001:0003e3a0       ?setPtrRef@DName@@QAEAAV1@XZ 1003f3a0 f i libvcruntimed:undname.obj
 0001:0003e3c0       ?status@DName@@QBE?AW4DNameStatus@@XZ 1003f3c0 f i libvcruntimed:undname.obj
 0001:0003e4c0       ___unDName                 1003f4c0 f   libvcruntimed:undname.obj
 0001:0003e4f0       ___unDNameEx               1003f4f0 f   libvcruntimed:undname.obj
 0001:0003e5c0       _unDNameGenerateCHPE       1003f5c0 f   libvcruntimed:undname.obj
 0001:0003e620       __global_unwind2           1003f620 f   libvcruntimed:exsup.obj
 0001:0003e686       __local_unwind2            1003f686 f   libvcruntimed:exsup.obj
 0001:0003e70a       __abnormal_termination     1003f70a f   libvcruntimed:exsup.obj
 0001:0003e730       __NLG_Notify1              1003f730 f   libvcruntimed:exsup.obj
 0001:0003e73c       __NLG_Notify               1003f73c f   libvcruntimed:exsup.obj
 0001:0003e753       __NLG_Dispatch2            1003f753     libvcruntimed:exsup.obj
 0001:0003e753       __NLG_Dispatch             1003f753     libvcruntimed:exsup.obj
 0001:0003e75b       __NLG_Call                 1003f75b f   libvcruntimed:exsup.obj
 0001:0003e75d       __NLG_Return2              1003f75d     libvcruntimed:exsup.obj
 0001:0003e760       ??$__crt_interlocked_exchange_pointer@UHINSTANCE__@@PAU1@@@YAPAUHINSTANCE__@@PDSAU0@QAU0@@Z 1003f760 f i libvcruntimed:winapi_downlevel.obj
 0001:0003e770       ??$__crt_interlocked_exchange_pointer@UHINSTANCE__@@PAX@@YAPAUHINSTANCE__@@PDSAU0@QAX@Z 1003f770 f i libvcruntimed:winapi_downlevel.obj
 0001:0003e780       ??$__crt_interlocked_exchange_pointer@XPAX@@YAPAXPDSAXQAX@Z 1003f780 f i libvcruntimed:winapi_downlevel.obj
 0001:0003e790       ??$__crt_interlocked_read_pointer@UHINSTANCE__@@@@YAPAUHINSTANCE__@@PDSAU0@@Z 1003f790 f i libvcruntimed:winapi_downlevel.obj
 0001:0003e7b0       ??$__crt_interlocked_read_pointer@X@@YAPAXPDSAX@Z 1003f7b0 f i libvcruntimed:winapi_downlevel.obj
 0001:0003eb80       ___vcrt_FlsAlloc           1003fb80 f   libvcruntimed:winapi_downlevel.obj
 0001:0003ebc0       ___vcrt_FlsFree            1003fbc0 f   libvcruntimed:winapi_downlevel.obj
 0001:0003ec00       ___vcrt_FlsGetValue        1003fc00 f   libvcruntimed:winapi_downlevel.obj
 0001:0003ec40       ___vcrt_FlsSetValue        1003fc40 f   libvcruntimed:winapi_downlevel.obj
 0001:0003ec90       ___vcrt_InitializeCriticalSectionEx 1003fc90 f   libvcruntimed:winapi_downlevel.obj
 0001:0003ed10       __get_unexpected           1003fd10 f   libvcruntimed:unexpected.obj
 0001:0003ed30       _set_unexpected            1003fd30 f   libvcruntimed:unexpected.obj
 0001:0003ed60       _unexpected                1003fd60 f   libvcruntimed:unexpected.obj
 0001:0003eda0       ?GetCurrentState@__FrameHandler3@@SAHPAUEHRegistrationNode@@PAXPBU_s_FuncInfo@@@Z 1003fda0 f   libvcruntimed:ehstate.obj
 0001:0003edd0       ?SetState@__FrameHandler3@@SAXPAUEHRegistrationNode@@PBU_s_FuncInfo@@H@Z 1003fdd0 f   libvcruntimed:ehstate.obj
 0001:0003ede0       ??$?0ABV?$stream_output_adapter@D@__crt_stdio_output@@AB_KABQBDABQAU__crt_locale_pointers@@ABQAD@?$format_validation_base@DV?$stream_output_adapter@D@__crt_stdio_output@@@__crt_stdio_output@@IAE@ABV?$stream_output_adapter@D@1@AB_KABQBDABQAU__crt_locale_pointers@@ABQAD@Z 1003fde0 f i libucrtd:output.obj
 0001:0003ee10       ??$?0ABV?$stream_output_adapter@D@__crt_stdio_output@@AB_KABQBDABQAU__crt_locale_pointers@@ABQAD@?$positional_parameter_base@DV?$stream_output_adapter@D@__crt_stdio_output@@@__crt_stdio_output@@IAE@ABV?$stream_output_adapter@D@1@AB_KABQBDABQAU__crt_locale_pointers@@ABQAD@Z 1003fe10 f i libucrtd:output.obj
 0001:0003ee90       ??$?0ABV?$stream_output_adapter@D@__crt_stdio_output@@AB_KABQBDABQAU__crt_locale_pointers@@ABQAD@?$standard_base@DV?$stream_output_adapter@D@__crt_stdio_output@@@__crt_stdio_output@@IAE@ABV?$stream_output_adapter@D@1@AB_KABQBDABQAU__crt_locale_pointers@@ABQAD@Z 1003fe90 f i libucrtd:output.obj
 0001:0003eee0       ??$?0ABV?$stream_output_adapter@_W@__crt_stdio_output@@AB_KABQB_WABQAU__crt_locale_pointers@@ABQAD@?$format_validation_base@_WV?$stream_output_adapter@_W@__crt_stdio_output@@@__crt_stdio_output@@IAE@ABV?$stream_output_adapter@_W@1@AB_KABQB_WABQAU__crt_locale_pointers@@ABQAD@Z 1003fee0 f i libucrtd:output.obj
 0001:0003ef10       ??$?0ABV?$stream_output_adapter@_W@__crt_stdio_output@@AB_KABQB_WABQAU__crt_locale_pointers@@ABQAD@?$positional_parameter_base@_WV?$stream_output_adapter@_W@__crt_stdio_output@@@__crt_stdio_output@@IAE@ABV?$stream_output_adapter@_W@1@AB_KABQB_WABQAU__crt_locale_pointers@@ABQAD@Z 1003ff10 f i libucrtd:output.obj
 0001:0003ef90       ??$?0ABV?$stream_output_adapter@_W@__crt_stdio_output@@AB_KABQB_WABQAU__crt_locale_pointers@@ABQAD@?$standard_base@_WV?$stream_output_adapter@_W@__crt_stdio_output@@@__crt_stdio_output@@IAE@ABV?$stream_output_adapter@_W@1@AB_KABQB_WABQAU__crt_locale_pointers@@ABQAD@Z 1003ff90 f i libucrtd:output.obj
 0001:0003efe0       ??$?0ABV?$string_output_adapter@D@__crt_stdio_output@@AB_KABQBDABQAU__crt_locale_pointers@@ABQAD@?$format_validation_base@DV?$string_output_adapter@D@__crt_stdio_output@@@__crt_stdio_output@@IAE@ABV?$string_output_adapter@D@1@AB_KABQBDABQAU__crt_locale_pointers@@ABQAD@Z 1003ffe0 f i libucrtd:output.obj
 0001:0003f010       ??$?0ABV?$string_output_adapter@D@__crt_stdio_output@@AB_KABQBDABQAU__crt_locale_pointers@@ABQAD@?$positional_parameter_base@DV?$string_output_adapter@D@__crt_stdio_output@@@__crt_stdio_output@@IAE@ABV?$string_output_adapter@D@1@AB_KABQBDABQAU__crt_locale_pointers@@ABQAD@Z 10040010 f i libucrtd:output.obj
 0001:0003f090       ??$?0ABV?$string_output_adapter@D@__crt_stdio_output@@AB_KABQBDABQAU__crt_locale_pointers@@ABQAD@?$standard_base@DV?$string_output_adapter@D@__crt_stdio_output@@@__crt_stdio_output@@IAE@ABV?$string_output_adapter@D@1@AB_KABQBDABQAU__crt_locale_pointers@@ABQAD@Z 10040090 f i libucrtd:output.obj
 0001:0003f0e0       ??$?0ABV?$string_output_adapter@_W@__crt_stdio_output@@AB_KABQB_WABQAU__crt_locale_pointers@@ABQAD@?$format_validation_base@_WV?$string_output_adapter@_W@__crt_stdio_output@@@__crt_stdio_output@@IAE@ABV?$string_output_adapter@_W@1@AB_KABQB_WABQAU__crt_locale_pointers@@ABQAD@Z 100400e0 f i libucrtd:output.obj
 0001:0003f110       ??$?0ABV?$string_output_adapter@_W@__crt_stdio_output@@AB_KABQB_WABQAU__crt_locale_pointers@@ABQAD@?$positional_parameter_base@_WV?$string_output_adapter@_W@__crt_stdio_output@@@__crt_stdio_output@@IAE@ABV?$string_output_adapter@_W@1@AB_KABQB_WABQAU__crt_locale_pointers@@ABQAD@Z 10040110 f i libucrtd:output.obj
 0001:0003f190       ??$?0ABV?$string_output_adapter@_W@__crt_stdio_output@@AB_KABQB_WABQAU__crt_locale_pointers@@ABQAD@?$standard_base@_WV?$string_output_adapter@_W@__crt_stdio_output@@@__crt_stdio_output@@IAE@ABV?$string_output_adapter@_W@1@AB_KABQB_WABQAU__crt_locale_pointers@@ABQAD@Z 10040190 f i libucrtd:output.obj
 0001:0003f6c0       ??$__crt_interlocked_read@J@@YAJPDJ@Z 100406c0 f i libucrtd:output.obj
 0001:00042460       ??$count@D@formatting_buffer@__crt_stdio_output@@QBEIXZ 10043460 f i libucrtd:output.obj
 0001:000424a0       ??$count@_W@formatting_buffer@__crt_stdio_output@@QBEIXZ 100434a0 f i libucrtd:output.obj
 0001:000424e0       ??$data@D@formatting_buffer@__crt_stdio_output@@QAEPADXZ 100434e0 f i libucrtd:output.obj
 0001:00042520       ??$data@_W@formatting_buffer@__crt_stdio_output@@QAEPA_WXZ 10043520 f i libucrtd:output.obj
 0001:00042560       ??$ensure_buffer_is_big_enough@D@formatting_buffer@__crt_stdio_output@@QAE_NI@Z 10043560 f i libucrtd:output.obj
 0001:00042640       ??$ensure_buffer_is_big_enough@_W@formatting_buffer@__crt_stdio_output@@QAE_NI@Z 10043640 f i libucrtd:output.obj
 0001:00042730       ??$extract_argument_from_va_list@C_J@?$positional_parameter_base@DV?$stream_output_adapter@D@__crt_stdio_output@@@__crt_stdio_output@@IAE_NAA_J@Z 10043730 f i libucrtd:output.obj
 0001:00042870       ??$extract_argument_from_va_list@C_J@?$positional_parameter_base@DV?$string_output_adapter@D@__crt_stdio_output@@@__crt_stdio_output@@IAE_NAA_J@Z 10043870 f i libucrtd:output.obj
 0001:000429b0       ??$extract_argument_from_va_list@C_J@?$positional_parameter_base@_WV?$stream_output_adapter@_W@__crt_stdio_output@@@__crt_stdio_output@@IAE_NAA_J@Z 100439b0 f i libucrtd:output.obj
 0001:00042af0       ??$extract_argument_from_va_list@C_J@?$positional_parameter_base@_WV?$string_output_adapter@_W@__crt_stdio_output@@@__crt_stdio_output@@IAE_NAA_J@Z 10043af0 f i libucrtd:output.obj
 0001:00042c30       ??$extract_argument_from_va_list@C_J@?$standard_base@DV?$stream_output_adapter@D@__crt_stdio_output@@@__crt_stdio_output@@IAE_NAA_J@Z 10043c30 f i libucrtd:output.obj
 0001:00042c60       ??$extract_argument_from_va_list@C_J@?$standard_base@DV?$string_output_adapter@D@__crt_stdio_output@@@__crt_stdio_output@@IAE_NAA_J@Z 10043c60 f i libucrtd:output.obj
 0001:00042c90       ??$extract_argument_from_va_list@C_J@?$standard_base@_WV?$stream_output_adapter@_W@__crt_stdio_output@@@__crt_stdio_output@@IAE_NAA_J@Z 10043c90 f i libucrtd:output.obj
 0001:00042cc0       ??$extract_argument_from_va_list@C_J@?$standard_base@_WV?$string_output_adapter@_W@__crt_stdio_output@@@__crt_stdio_output@@IAE_NAA_J@Z 10043cc0 f i libucrtd:output.obj
 0001:00042cf0       ??$extract_argument_from_va_list@E_J@?$positional_parameter_base@DV?$stream_output_adapter@D@__crt_stdio_output@@@__crt_stdio_output@@IAE_NAA_J@Z 10043cf0 f i libucrtd:output.obj
 0001:00042e30       ??$extract_argument_from_va_list@E_J@?$positional_parameter_base@DV?$string_output_adapter@D@__crt_stdio_output@@@__crt_stdio_output@@IAE_NAA_J@Z 10043e30 f i libucrtd:output.obj
 0001:00042f70       ??$extract_argument_from_va_list@E_J@?$positional_parameter_base@_WV?$stream_output_adapter@_W@__crt_stdio_output@@@__crt_stdio_output@@IAE_NAA_J@Z 10043f70 f i libucrtd:output.obj
 0001:000430b0       ??$extract_argument_from_va_list@E_J@?$positional_parameter_base@_WV?$string_output_adapter@_W@__crt_stdio_output@@@__crt_stdio_output@@IAE_NAA_J@Z 100440b0 f i libucrtd:output.obj
 0001:000431f0       ??$extract_argument_from_va_list@E_J@?$standard_base@DV?$stream_output_adapter@D@__crt_stdio_output@@@__crt_stdio_output@@IAE_NAA_J@Z 100441f0 f i libucrtd:output.obj
 0001:00043220       ??$extract_argument_from_va_list@E_J@?$standard_base@DV?$string_output_adapter@D@__crt_stdio_output@@@__crt_stdio_output@@IAE_NAA_J@Z 10044220 f i libucrtd:output.obj
 0001:00043250       ??$extract_argument_from_va_list@E_J@?$standard_base@_WV?$stream_output_adapter@_W@__crt_stdio_output@@@__crt_stdio_output@@IAE_NAA_J@Z 10044250 f i libucrtd:output.obj
 0001:00043280       ??$extract_argument_from_va_list@E_J@?$standard_base@_WV?$string_output_adapter@_W@__crt_stdio_output@@@__crt_stdio_output@@IAE_NAA_J@Z 10044280 f i libucrtd:output.obj
 0001:000432b0       ??$extract_argument_from_va_list@F_J@?$positional_parameter_base@DV?$stream_output_adapter@D@__crt_stdio_output@@@__crt_stdio_output@@IAE_NAA_J@Z 100442b0 f i libucrtd:output.obj
 0001:000433e0       ??$extract_argument_from_va_list@F_J@?$positional_parameter_base@DV?$string_output_adapter@D@__crt_stdio_output@@@__crt_stdio_output@@IAE_NAA_J@Z 100443e0 f i libucrtd:output.obj
 0001:00043510       ??$extract_argument_from_va_list@F_J@?$positional_parameter_base@_WV?$stream_output_adapter@_W@__crt_stdio_output@@@__crt_stdio_output@@IAE_NAA_J@Z 10044510 f i libucrtd:output.obj
 0001:00043640       ??$extract_argument_from_va_list@F_J@?$positional_parameter_base@_WV?$string_output_adapter@_W@__crt_stdio_output@@@__crt_stdio_output@@IAE_NAA_J@Z 10044640 f i libucrtd:output.obj
 0001:00043770       ??$extract_argument_from_va_list@F_J@?$standard_base@DV?$stream_output_adapter@D@__crt_stdio_output@@@__crt_stdio_output@@IAE_NAA_J@Z 10044770 f i libucrtd:output.obj
 0001:000437a0       ??$extract_argument_from_va_list@F_J@?$standard_base@DV?$string_output_adapter@D@__crt_stdio_output@@@__crt_stdio_output@@IAE_NAA_J@Z 100447a0 f i libucrtd:output.obj
 0001:000437d0       ??$extract_argument_from_va_list@F_J@?$standard_base@_WV?$stream_output_adapter@_W@__crt_stdio_output@@@__crt_stdio_output@@IAE_NAA_J@Z 100447d0 f i libucrtd:output.obj
 0001:00043800       ??$extract_argument_from_va_list@F_J@?$standard_base@_WV?$string_output_adapter@_W@__crt_stdio_output@@@__crt_stdio_output@@IAE_NAA_J@Z 10044800 f i libucrtd:output.obj
 0001:00043830       ??$extract_argument_from_va_list@GD@?$positional_parameter_base@DV?$stream_output_adapter@D@__crt_stdio_output@@@__crt_stdio_output@@IAE_NAAD@Z 10044830 f i libucrtd:output.obj
 0001:00043960       ??$extract_argument_from_va_list@GD@?$positional_parameter_base@DV?$string_output_adapter@D@__crt_stdio_output@@@__crt_stdio_output@@IAE_NAAD@Z 10044960 f i libucrtd:output.obj
 0001:00043a90       ??$extract_argument_from_va_list@GD@?$standard_base@DV?$stream_output_adapter@D@__crt_stdio_output@@@__crt_stdio_output@@IAE_NAAD@Z 10044a90 f i libucrtd:output.obj
 0001:00043ac0       ??$extract_argument_from_va_list@GD@?$standard_base@DV?$string_output_adapter@D@__crt_stdio_output@@@__crt_stdio_output@@IAE_NAAD@Z 10044ac0 f i libucrtd:output.obj
 0001:00043af0       ??$extract_argument_from_va_list@G_J@?$positional_parameter_base@DV?$stream_output_adapter@D@__crt_stdio_output@@@__crt_stdio_output@@IAE_NAA_J@Z 10044af0 f i libucrtd:output.obj
 0001:00043c30       ??$extract_argument_from_va_list@G_J@?$positional_parameter_base@DV?$string_output_adapter@D@__crt_stdio_output@@@__crt_stdio_output@@IAE_NAA_J@Z 10044c30 f i libucrtd:output.obj
 0001:00043d70       ??$extract_argument_from_va_list@G_J@?$positional_parameter_base@_WV?$stream_output_adapter@_W@__crt_stdio_output@@@__crt_stdio_output@@IAE_NAA_J@Z 10044d70 f i libucrtd:output.obj
 0001:00043eb0       ??$extract_argument_from_va_list@G_J@?$positional_parameter_base@_WV?$string_output_adapter@_W@__crt_stdio_output@@@__crt_stdio_output@@IAE_NAA_J@Z 10044eb0 f i libucrtd:output.obj
 0001:00043ff0       ??$extract_argument_from_va_list@G_J@?$standard_base@DV?$stream_output_adapter@D@__crt_stdio_output@@@__crt_stdio_output@@IAE_NAA_J@Z 10044ff0 f i libucrtd:output.obj
 0001:00044020       ??$extract_argument_from_va_list@G_J@?$standard_base@DV?$string_output_adapter@D@__crt_stdio_output@@@__crt_stdio_output@@IAE_NAA_J@Z 10045020 f i libucrtd:output.obj
 0001:00044050       ??$extract_argument_from_va_list@G_J@?$standard_base@_WV?$stream_output_adapter@_W@__crt_stdio_output@@@__crt_stdio_output@@IAE_NAA_J@Z 10045050 f i libucrtd:output.obj
 0001:00044080       ??$extract_argument_from_va_list@G_J@?$standard_base@_WV?$string_output_adapter@_W@__crt_stdio_output@@@__crt_stdio_output@@IAE_NAA_J@Z 10045080 f i libucrtd:output.obj
 0001:000440b0       ??$extract_argument_from_va_list@H_J@?$positional_parameter_base@DV?$stream_output_adapter@D@__crt_stdio_output@@@__crt_stdio_output@@IAE_NAA_J@Z 100450b0 f i libucrtd:output.obj
 0001:000441e0       ??$extract_argument_from_va_list@H_J@?$positional_parameter_base@DV?$string_output_adapter@D@__crt_stdio_output@@@__crt_stdio_output@@IAE_NAA_J@Z 100451e0 f i libucrtd:output.obj
 0001:00044310       ??$extract_argument_from_va_list@H_J@?$positional_parameter_base@_WV?$stream_output_adapter@_W@__crt_stdio_output@@@__crt_stdio_output@@IAE_NAA_J@Z 10045310 f i libucrtd:output.obj
 0001:00044440       ??$extract_argument_from_va_list@H_J@?$positional_parameter_base@_WV?$string_output_adapter@_W@__crt_stdio_output@@@__crt_stdio_output@@IAE_NAA_J@Z 10045440 f i libucrtd:output.obj
 0001:00044570       ??$extract_argument_from_va_list@H_J@?$standard_base@DV?$stream_output_adapter@D@__crt_stdio_output@@@__crt_stdio_output@@IAE_NAA_J@Z 10045570 f i libucrtd:output.obj
 0001:000445a0       ??$extract_argument_from_va_list@H_J@?$standard_base@DV?$string_output_adapter@D@__crt_stdio_output@@@__crt_stdio_output@@IAE_NAA_J@Z 100455a0 f i libucrtd:output.obj
 0001:000445d0       ??$extract_argument_from_va_list@H_J@?$standard_base@_WV?$stream_output_adapter@_W@__crt_stdio_output@@@__crt_stdio_output@@IAE_NAA_J@Z 100455d0 f i libucrtd:output.obj
 0001:00044600       ??$extract_argument_from_va_list@H_J@?$standard_base@_WV?$string_output_adapter@_W@__crt_stdio_output@@@__crt_stdio_output@@IAE_NAA_J@Z 10045600 f i libucrtd:output.obj
 0001:00044630       ??$extract_argument_from_va_list@I_J@?$positional_parameter_base@DV?$stream_output_adapter@D@__crt_stdio_output@@@__crt_stdio_output@@IAE_NAA_J@Z 10045630 f i libucrtd:output.obj
 0001:00044760       ??$extract_argument_from_va_list@I_J@?$positional_parameter_base@DV?$string_output_adapter@D@__crt_stdio_output@@@__crt_stdio_output@@IAE_NAA_J@Z 10045760 f i libucrtd:output.obj
 0001:00044890       ??$extract_argument_from_va_list@I_J@?$positional_parameter_base@_WV?$stream_output_adapter@_W@__crt_stdio_output@@@__crt_stdio_output@@IAE_NAA_J@Z 10045890 f i libucrtd:output.obj
 0001:000449c0       ??$extract_argument_from_va_list@I_J@?$positional_parameter_base@_WV?$string_output_adapter@_W@__crt_stdio_output@@@__crt_stdio_output@@IAE_NAA_J@Z 100459c0 f i libucrtd:output.obj
 0001:00044af0       ??$extract_argument_from_va_list@I_J@?$standard_base@DV?$stream_output_adapter@D@__crt_stdio_output@@@__crt_stdio_output@@IAE_NAA_J@Z 10045af0 f i libucrtd:output.obj
 0001:00044b20       ??$extract_argument_from_va_list@I_J@?$standard_base@DV?$string_output_adapter@D@__crt_stdio_output@@@__crt_stdio_output@@IAE_NAA_J@Z 10045b20 f i libucrtd:output.obj
 0001:00044b50       ??$extract_argument_from_va_list@I_J@?$standard_base@_WV?$stream_output_adapter@_W@__crt_stdio_output@@@__crt_stdio_output@@IAE_NAA_J@Z 10045b50 f i libucrtd:output.obj
 0001:00044b80       ??$extract_argument_from_va_list@I_J@?$standard_base@_WV?$string_output_adapter@_W@__crt_stdio_output@@@__crt_stdio_output@@IAE_NAA_J@Z 10045b80 f i libucrtd:output.obj
 0001:00044bb0       ??$extract_argument_from_va_list@PADPAD@?$positional_parameter_base@DV?$stream_output_adapter@D@__crt_stdio_output@@@__crt_stdio_output@@IAE_NAAPAD@Z 10045bb0 f i libucrtd:output.obj
 0001:00044ce0       ??$extract_argument_from_va_list@PADPAD@?$positional_parameter_base@DV?$string_output_adapter@D@__crt_stdio_output@@@__crt_stdio_output@@IAE_NAAPAD@Z 10045ce0 f i libucrtd:output.obj
 0001:00044e10       ??$extract_argument_from_va_list@PADPAD@?$positional_parameter_base@_WV?$stream_output_adapter@_W@__crt_stdio_output@@@__crt_stdio_output@@IAE_NAAPAD@Z 10045e10 f i libucrtd:output.obj
 0001:00044f40       ??$extract_argument_from_va_list@PADPAD@?$positional_parameter_base@_WV?$string_output_adapter@_W@__crt_stdio_output@@@__crt_stdio_output@@IAE_NAAPAD@Z 10045f40 f i libucrtd:output.obj
 0001:00045070       ??$extract_argument_from_va_list@PADPAD@?$standard_base@DV?$stream_output_adapter@D@__crt_stdio_output@@@__crt_stdio_output@@IAE_NAAPAD@Z 10046070 f i libucrtd:output.obj
 0001:000450a0       ??$extract_argument_from_va_list@PADPAD@?$standard_base@DV?$string_output_adapter@D@__crt_stdio_output@@@__crt_stdio_output@@IAE_NAAPAD@Z 100460a0 f i libucrtd:output.obj
 0001:000450d0       ??$extract_argument_from_va_list@PADPAD@?$standard_base@_WV?$stream_output_adapter@_W@__crt_stdio_output@@@__crt_stdio_output@@IAE_NAAPAD@Z 100460d0 f i libucrtd:output.obj
 0001:00045100       ??$extract_argument_from_va_list@PADPAD@?$standard_base@_WV?$string_output_adapter@_W@__crt_stdio_output@@@__crt_stdio_output@@IAE_NAAPAD@Z 10046100 f i libucrtd:output.obj
 0001:00045130       ??$extract_argument_from_va_list@PAUansi_string@?1??type_case_Z@?$output_processor@DV?$stream_output_adapter@D@__crt_stdio_output@@V?$format_validation_base@DV?$stream_output_adapter@D@__crt_stdio_output@@@2@@__crt_stdio_output@@AAE_NXZ@PAU1?1??234@AAE_NXZ@@?$standard_base@DV?$stream_output_adapter@D@__crt_stdio_output@@@__crt_stdio_output@@IAE_NAAPAUansi_string@?1??type_case_Z@?$output_processor@DV?$stream_output_adapter@D@__crt_stdio_output@@V?$format_validation_base@DV?$stream_output_adapter@D@__crt_stdio_output@@@2@@1@AAE_NXZ@@Z 10046130 f i libucrtd:output.obj
 0001:00045160       ??$extract_argument_from_va_list@PAUansi_string@?1??type_case_Z@?$output_processor@DV?$stream_output_adapter@D@__crt_stdio_output@@V?$positional_parameter_base@DV?$stream_output_adapter@D@__crt_stdio_output@@@2@@__crt_stdio_output@@AAE_NXZ@PAU1?1??234@AAE_NXZ@@?$positional_parameter_base@DV?$stream_output_adapter@D@__crt_stdio_output@@@__crt_stdio_output@@IAE_NAAPAUansi_string@?1??type_case_Z@?$output_processor@DV?$stream_output_adapter@D@__crt_stdio_output@@V?$positional_parameter_base@DV?$stream_output_adapter@D@__crt_stdio_output@@@2@@1@AAE_NXZ@@Z 10046160 f i libucrtd:output.obj
 0001:00045290       ??$extract_argument_from_va_list@PAUansi_string@?1??type_case_Z@?$output_processor@DV?$stream_output_adapter@D@__crt_stdio_output@@V?$positional_parameter_base@DV?$stream_output_adapter@D@__crt_stdio_output@@@2@@__crt_stdio_output@@AAE_NXZ@PAU1?1??234@AAE_NXZ@@?$standard_base@DV?$stream_output_adapter@D@__crt_stdio_output@@@__crt_stdio_output@@IAE_NAAPAUansi_string@?1??type_case_Z@?$output_processor@DV?$stream_output_adapter@D@__crt_stdio_output@@V?$positional_parameter_base@DV?$stream_output_adapter@D@__crt_stdio_output@@@2@@1@AAE_NXZ@@Z 10046290 f i libucrtd:output.obj
 0001:000452c0       ??$extract_argument_from_va_list@PAUansi_string@?1??type_case_Z@?$output_processor@DV?$stream_output_adapter@D@__crt_stdio_output@@V?$standard_base@DV?$stream_output_adapter@D@__crt_stdio_output@@@2@@__crt_stdio_output@@AAE_NXZ@PAU1?1??234@AAE_NXZ@@?$standard_base@DV?$stream_output_adapter@D@__crt_stdio_output@@@__crt_stdio_output@@IAE_NAAPAUansi_string@?1??type_case_Z@?$output_processor@DV?$stream_output_adapter@D@__crt_stdio_output@@V?$standard_base@DV?$stream_output_adapter@D@__crt_stdio_output@@@2@@1@AAE_NXZ@@Z 100462c0 f i libucrtd:output.obj
 0001:000452f0       ??$extract_argument_from_va_list@PAUansi_string@?1??type_case_Z@?$output_processor@DV?$string_output_adapter@D@__crt_stdio_output@@V?$format_validation_base@DV?$string_output_adapter@D@__crt_stdio_output@@@2@@__crt_stdio_output@@AAE_NXZ@PAU1?1??234@AAE_NXZ@@?$standard_base@DV?$string_output_adapter@D@__crt_stdio_output@@@__crt_stdio_output@@IAE_NAAPAUansi_string@?1??type_case_Z@?$output_processor@DV?$string_output_adapter@D@__crt_stdio_output@@V?$format_validation_base@DV?$string_output_adapter@D@__crt_stdio_output@@@2@@1@AAE_NXZ@@Z 100462f0 f i libucrtd:output.obj
 0001:00045320       ??$extract_argument_from_va_list@PAUansi_string@?1??type_case_Z@?$output_processor@DV?$string_output_adapter@D@__crt_stdio_output@@V?$positional_parameter_base@DV?$string_output_adapter@D@__crt_stdio_output@@@2@@__crt_stdio_output@@AAE_NXZ@PAU1?1??234@AAE_NXZ@@?$positional_parameter_base@DV?$string_output_adapter@D@__crt_stdio_output@@@__crt_stdio_output@@IAE_NAAPAUansi_string@?1??type_case_Z@?$output_processor@DV?$string_output_adapter@D@__crt_stdio_output@@V?$positional_parameter_base@DV?$string_output_adapter@D@__crt_stdio_output@@@2@@1@AAE_NXZ@@Z 10046320 f i libucrtd:output.obj
 0001:00045450       ??$extract_argument_from_va_list@PAUansi_string@?1??type_case_Z@?$output_processor@DV?$string_output_adapter@D@__crt_stdio_output@@V?$positional_parameter_base@DV?$string_output_adapter@D@__crt_stdio_output@@@2@@__crt_stdio_output@@AAE_NXZ@PAU1?1??234@AAE_NXZ@@?$standard_base@DV?$string_output_adapter@D@__crt_stdio_output@@@__crt_stdio_output@@IAE_NAAPAUansi_string@?1??type_case_Z@?$output_processor@DV?$string_output_adapter@D@__crt_stdio_output@@V?$positional_parameter_base@DV?$string_output_adapter@D@__crt_stdio_output@@@2@@1@AAE_NXZ@@Z 10046450 f i libucrtd:output.obj
 0001:00045480       ??$extract_argument_from_va_list@PAUansi_string@?1??type_case_Z@?$output_processor@DV?$string_output_adapter@D@__crt_stdio_output@@V?$standard_base@DV?$string_output_adapter@D@__crt_stdio_output@@@2@@__crt_stdio_output@@AAE_NXZ@PAU1?1??234@AAE_NXZ@@?$standard_base@DV?$string_output_adapter@D@__crt_stdio_output@@@__crt_stdio_output@@IAE_NAAPAUansi_string@?1??type_case_Z@?$output_processor@DV?$string_output_adapter@D@__crt_stdio_output@@V?$standard_base@DV?$string_output_adapter@D@__crt_stdio_output@@@2@@1@AAE_NXZ@@Z 10046480 f i libucrtd:output.obj
 0001:000454b0       ??$extract_argument_from_va_list@PAUansi_string@?1??type_case_Z@?$output_processor@_WV?$stream_output_adapter@_W@__crt_stdio_output@@V?$format_validation_base@_WV?$stream_output_adapter@_W@__crt_stdio_output@@@2@@__crt_stdio_output@@AAE_NXZ@PAU1?1??234@AAE_NXZ@@?$standard_base@_WV?$stream_output_adapter@_W@__crt_stdio_output@@@__crt_stdio_output@@IAE_NAAPAUansi_string@?1??type_case_Z@?$output_processor@_WV?$stream_output_adapter@_W@__crt_stdio_output@@V?$format_validation_base@_WV?$stream_output_adapter@_W@__crt_stdio_output@@@2@@1@AAE_NXZ@@Z 100464b0 f i libucrtd:output.obj
 0001:000454e0       ??$extract_argument_from_va_list@PAUansi_string@?1??type_case_Z@?$output_processor@_WV?$stream_output_adapter@_W@__crt_stdio_output@@V?$positional_parameter_base@_WV?$stream_output_adapter@_W@__crt_stdio_output@@@2@@__crt_stdio_output@@AAE_NXZ@PAU1?1??234@AAE_NXZ@@?$positional_parameter_base@_WV?$stream_output_adapter@_W@__crt_stdio_output@@@__crt_stdio_output@@IAE_NAAPAUansi_string@?1??type_case_Z@?$output_processor@_WV?$stream_output_adapter@_W@__crt_stdio_output@@V?$positional_parameter_base@_WV?$stream_output_adapter@_W@__crt_stdio_output@@@2@@1@AAE_NXZ@@Z 100464e0 f i libucrtd:output.obj
 0001:00045610       ??$extract_argument_from_va_list@PAUansi_string@?1??type_case_Z@?$output_processor@_WV?$stream_output_adapter@_W@__crt_stdio_output@@V?$positional_parameter_base@_WV?$stream_output_adapter@_W@__crt_stdio_output@@@2@@__crt_stdio_output@@AAE_NXZ@PAU1?1??234@AAE_NXZ@@?$standard_base@_WV?$stream_output_adapter@_W@__crt_stdio_output@@@__crt_stdio_output@@IAE_NAAPAUansi_string@?1??type_case_Z@?$output_processor@_WV?$stream_output_adapter@_W@__crt_stdio_output@@V?$positional_parameter_base@_WV?$stream_output_adapter@_W@__crt_stdio_output@@@2@@1@AAE_NXZ@@Z 10046610 f i libucrtd:output.obj
 0001:00045640       ??$extract_argument_from_va_list@PAUansi_string@?1??type_case_Z@?$output_processor@_WV?$stream_output_adapter@_W@__crt_stdio_output@@V?$standard_base@_WV?$stream_output_adapter@_W@__crt_stdio_output@@@2@@__crt_stdio_output@@AAE_NXZ@PAU1?1??234@AAE_NXZ@@?$standard_base@_WV?$stream_output_adapter@_W@__crt_stdio_output@@@__crt_stdio_output@@IAE_NAAPAUansi_string@?1??type_case_Z@?$output_processor@_WV?$stream_output_adapter@_W@__crt_stdio_output@@V?$standard_base@_WV?$stream_output_adapter@_W@__crt_stdio_output@@@2@@1@AAE_NXZ@@Z 10046640 f i libucrtd:output.obj
 0001:00045670       ??$extract_argument_from_va_list@PAUansi_string@?1??type_case_Z@?$output_processor@_WV?$string_output_adapter@_W@__crt_stdio_output@@V?$format_validation_base@_WV?$string_output_adapter@_W@__crt_stdio_output@@@2@@__crt_stdio_output@@AAE_NXZ@PAU1?1??234@AAE_NXZ@@?$standard_base@_WV?$string_output_adapter@_W@__crt_stdio_output@@@__crt_stdio_output@@IAE_NAAPAUansi_string@?1??type_case_Z@?$output_processor@_WV?$string_output_adapter@_W@__crt_stdio_output@@V?$format_validation_base@_WV?$string_output_adapter@_W@__crt_stdio_output@@@2@@1@AAE_NXZ@@Z 10046670 f i libucrtd:output.obj
 0001:000456a0       ??$extract_argument_from_va_list@PAUansi_string@?1??type_case_Z@?$output_processor@_WV?$string_output_adapter@_W@__crt_stdio_output@@V?$positional_parameter_base@_WV?$string_output_adapter@_W@__crt_stdio_output@@@2@@__crt_stdio_output@@AAE_NXZ@PAU1?1??234@AAE_NXZ@@?$positional_parameter_base@_WV?$string_output_adapter@_W@__crt_stdio_output@@@__crt_stdio_output@@IAE_NAAPAUansi_string@?1??type_case_Z@?$output_processor@_WV?$string_output_adapter@_W@__crt_stdio_output@@V?$positional_parameter_base@_WV?$string_output_adapter@_W@__crt_stdio_output@@@2@@1@AAE_NXZ@@Z 100466a0 f i libucrtd:output.obj
 0001:000457d0       ??$extract_argument_from_va_list@PAUansi_string@?1??type_case_Z@?$output_processor@_WV?$string_output_adapter@_W@__crt_stdio_output@@V?$positional_parameter_base@_WV?$string_output_adapter@_W@__crt_stdio_output@@@2@@__crt_stdio_output@@AAE_NXZ@PAU1?1??234@AAE_NXZ@@?$standard_base@_WV?$string_output_adapter@_W@__crt_stdio_output@@@__crt_stdio_output@@IAE_NAAPAUansi_string@?1??type_case_Z@?$output_processor@_WV?$string_output_adapter@_W@__crt_stdio_output@@V?$positional_parameter_base@_WV?$string_output_adapter@_W@__crt_stdio_output@@@2@@1@AAE_NXZ@@Z 100467d0 f i libucrtd:output.obj
 0001:00045800       ??$extract_argument_from_va_list@PAUansi_string@?1??type_case_Z@?$output_processor@_WV?$string_output_adapter@_W@__crt_stdio_output@@V?$standard_base@_WV?$string_output_adapter@_W@__crt_stdio_output@@@2@@__crt_stdio_output@@AAE_NXZ@PAU1?1??234@AAE_NXZ@@?$standard_base@_WV?$string_output_adapter@_W@__crt_stdio_output@@@__crt_stdio_output@@IAE_NAAPAUansi_string@?1??type_case_Z@?$output_processor@_WV?$string_output_adapter@_W@__crt_stdio_output@@V?$standard_base@_WV?$string_output_adapter@_W@__crt_stdio_output@@@2@@1@AAE_NXZ@@Z 10046800 f i libucrtd:output.obj
 0001:00045830       ??$extract_argument_from_va_list@PAXPAX@?$positional_parameter_base@DV?$stream_output_adapter@D@__crt_stdio_output@@@__crt_stdio_output@@IAE_NAAPAX@Z 10046830 f i libucrtd:output.obj
 0001:00045960       ??$extract_argument_from_va_list@PAXPAX@?$positional_parameter_base@DV?$string_output_adapter@D@__crt_stdio_output@@@__crt_stdio_output@@IAE_NAAPAX@Z 10046960 f i libucrtd:output.obj
 0001:00045a90       ??$extract_argument_from_va_list@PAXPAX@?$positional_parameter_base@_WV?$stream_output_adapter@_W@__crt_stdio_output@@@__crt_stdio_output@@IAE_NAAPAX@Z 10046a90 f i libucrtd:output.obj
 0001:00045bc0       ??$extract_argument_from_va_list@PAXPAX@?$positional_parameter_base@_WV?$string_output_adapter@_W@__crt_stdio_output@@@__crt_stdio_output@@IAE_NAAPAX@Z 10046bc0 f i libucrtd:output.obj
 0001:00045cf0       ??$extract_argument_from_va_list@PAXPAX@?$standard_base@DV?$stream_output_adapter@D@__crt_stdio_output@@@__crt_stdio_output@@IAE_NAAPAX@Z 10046cf0 f i libucrtd:output.obj
 0001:00045d20       ??$extract_argument_from_va_list@PAXPAX@?$standard_base@DV?$string_output_adapter@D@__crt_stdio_output@@@__crt_stdio_output@@IAE_NAAPAX@Z 10046d20 f i libucrtd:output.obj
 0001:00045d50       ??$extract_argument_from_va_list@PAXPAX@?$standard_base@_WV?$stream_output_adapter@_W@__crt_stdio_output@@@__crt_stdio_output@@IAE_NAAPAX@Z 10046d50 f i libucrtd:output.obj
 0001:00045d80       ??$extract_argument_from_va_list@PAXPAX@?$standard_base@_WV?$string_output_adapter@_W@__crt_stdio_output@@@__crt_stdio_output@@IAE_NAAPAX@Z 10046d80 f i libucrtd:output.obj
 0001:00045db0       ??$extract_argument_from_va_list@U_CRT_DOUBLE@@U1@@?$positional_parameter_base@DV?$stream_output_adapter@D@__crt_stdio_output@@@__crt_stdio_output@@IAE_NAAU_CRT_DOUBLE@@@Z 10046db0 f i libucrtd:output.obj
 0001:00045f10       ??$extract_argument_from_va_list@U_CRT_DOUBLE@@U1@@?$positional_parameter_base@DV?$string_output_adapter@D@__crt_stdio_output@@@__crt_stdio_output@@IAE_NAAU_CRT_DOUBLE@@@Z 10046f10 f i libucrtd:output.obj
 0001:00046070       ??$extract_argument_from_va_list@U_CRT_DOUBLE@@U1@@?$positional_parameter_base@_WV?$stream_output_adapter@_W@__crt_stdio_output@@@__crt_stdio_output@@IAE_NAAU_CRT_DOUBLE@@@Z 10047070 f i libucrtd:output.obj
 0001:000461d0       ??$extract_argument_from_va_list@U_CRT_DOUBLE@@U1@@?$positional_parameter_base@_WV?$string_output_adapter@_W@__crt_stdio_output@@@__crt_stdio_output@@IAE_NAAU_CRT_DOUBLE@@@Z 100471d0 f i libucrtd:output.obj
 0001:00046330       ??$extract_argument_from_va_list@U_CRT_DOUBLE@@U1@@?$standard_base@DV?$stream_output_adapter@D@__crt_stdio_output@@@__crt_stdio_output@@IAE_NAAU_CRT_DOUBLE@@@Z 10047330 f i libucrtd:output.obj
 0001:00046380       ??$extract_argument_from_va_list@U_CRT_DOUBLE@@U1@@?$standard_base@DV?$string_output_adapter@D@__crt_stdio_output@@@__crt_stdio_output@@IAE_NAAU_CRT_DOUBLE@@@Z 10047380 f i libucrtd:output.obj
 0001:000463d0       ??$extract_argument_from_va_list@U_CRT_DOUBLE@@U1@@?$standard_base@_WV?$stream_output_adapter@_W@__crt_stdio_output@@@__crt_stdio_output@@IAE_NAAU_CRT_DOUBLE@@@Z 100473d0 f i libucrtd:output.obj
 0001:00046420       ??$extract_argument_from_va_list@U_CRT_DOUBLE@@U1@@?$standard_base@_WV?$string_output_adapter@_W@__crt_stdio_output@@@__crt_stdio_output@@IAE_NAAU_CRT_DOUBLE@@@Z 10047420 f i libucrtd:output.obj
 0001:00046470       ??$extract_argument_from_va_list@_J_J@?$positional_parameter_base@DV?$stream_output_adapter@D@__crt_stdio_output@@@__crt_stdio_output@@IAE_NAA_J@Z 10047470 f i libucrtd:output.obj
 0001:000465a0       ??$extract_argument_from_va_list@_J_J@?$positional_parameter_base@DV?$string_output_adapter@D@__crt_stdio_output@@@__crt_stdio_output@@IAE_NAA_J@Z 100475a0 f i libucrtd:output.obj
 0001:000466d0       ??$extract_argument_from_va_list@_J_J@?$positional_parameter_base@_WV?$stream_output_adapter@_W@__crt_stdio_output@@@__crt_stdio_output@@IAE_NAA_J@Z 100476d0 f i libucrtd:output.obj
 0001:00046800       ??$extract_argument_from_va_list@_J_J@?$positional_parameter_base@_WV?$string_output_adapter@_W@__crt_stdio_output@@@__crt_stdio_output@@IAE_NAA_J@Z 10047800 f i libucrtd:output.obj
 0001:00046930       ??$extract_argument_from_va_list@_J_J@?$standard_base@DV?$stream_output_adapter@D@__crt_stdio_output@@@__crt_stdio_output@@IAE_NAA_J@Z 10047930 f i libucrtd:output.obj
 0001:00046960       ??$extract_argument_from_va_list@_J_J@?$standard_base@DV?$string_output_adapter@D@__crt_stdio_output@@@__crt_stdio_output@@IAE_NAA_J@Z 10047960 f i libucrtd:output.obj
 0001:00046990       ??$extract_argument_from_va_list@_J_J@?$standard_base@_WV?$stream_output_adapter@_W@__crt_stdio_output@@@__crt_stdio_output@@IAE_NAA_J@Z 10047990 f i libucrtd:output.obj
 0001:000469c0       ??$extract_argument_from_va_list@_J_J@?$standard_base@_WV?$string_output_adapter@_W@__crt_stdio_output@@@__crt_stdio_output@@IAE_NAA_J@Z 100479c0 f i libucrtd:output.obj
 0001:000469f0       ??$extract_argument_from_va_list@_K_J@?$positional_parameter_base@DV?$stream_output_adapter@D@__crt_stdio_output@@@__crt_stdio_output@@IAE_NAA_J@Z 100479f0 f i libucrtd:output.obj
 0001:00046b20       ??$extract_argument_from_va_list@_K_J@?$positional_parameter_base@DV?$string_output_adapter@D@__crt_stdio_output@@@__crt_stdio_output@@IAE_NAA_J@Z 10047b20 f i libucrtd:output.obj
 0001:00046c50       ??$extract_argument_from_va_list@_K_J@?$positional_parameter_base@_WV?$stream_output_adapter@_W@__crt_stdio_output@@@__crt_stdio_output@@IAE_NAA_J@Z 10047c50 f i libucrtd:output.obj
 0001:00046d80       ??$extract_argument_from_va_list@_K_J@?$positional_parameter_base@_WV?$string_output_adapter@_W@__crt_stdio_output@@@__crt_stdio_output@@IAE_NAA_J@Z 10047d80 f i libucrtd:output.obj
 0001:00046eb0       ??$extract_argument_from_va_list@_K_J@?$standard_base@DV?$stream_output_adapter@D@__crt_stdio_output@@@__crt_stdio_output@@IAE_NAA_J@Z 10047eb0 f i libucrtd:output.obj
 0001:00046ee0       ??$extract_argument_from_va_list@_K_J@?$standard_base@DV?$string_output_adapter@D@__crt_stdio_output@@@__crt_stdio_output@@IAE_NAA_J@Z 10047ee0 f i libucrtd:output.obj
 0001:00046f10       ??$extract_argument_from_va_list@_K_J@?$standard_base@_WV?$stream_output_adapter@_W@__crt_stdio_output@@@__crt_stdio_output@@IAE_NAA_J@Z 10047f10 f i libucrtd:output.obj
 0001:00046f40       ??$extract_argument_from_va_list@_K_J@?$standard_base@_WV?$string_output_adapter@_W@__crt_stdio_output@@@__crt_stdio_output@@IAE_NAA_J@Z 10047f40 f i libucrtd:output.obj
 0001:00046f70       ??$extract_argument_from_va_list@_W_W@?$positional_parameter_base@DV?$stream_output_adapter@D@__crt_stdio_output@@@__crt_stdio_output@@IAE_NAA_W@Z 10047f70 f i libucrtd:output.obj
 0001:000470a0       ??$extract_argument_from_va_list@_W_W@?$positional_parameter_base@DV?$string_output_adapter@D@__crt_stdio_output@@@__crt_stdio_output@@IAE_NAA_W@Z 100480a0 f i libucrtd:output.obj
 0001:000471d0       ??$extract_argument_from_va_list@_W_W@?$positional_parameter_base@_WV?$stream_output_adapter@_W@__crt_stdio_output@@@__crt_stdio_output@@IAE_NAA_W@Z 100481d0 f i libucrtd:output.obj
 0001:00047300       ??$extract_argument_from_va_list@_W_W@?$positional_parameter_base@_WV?$string_output_adapter@_W@__crt_stdio_output@@@__crt_stdio_output@@IAE_NAA_W@Z 10048300 f i libucrtd:output.obj
 0001:00047430       ??$extract_argument_from_va_list@_W_W@?$standard_base@DV?$stream_output_adapter@D@__crt_stdio_output@@@__crt_stdio_output@@IAE_NAA_W@Z 10048430 f i libucrtd:output.obj
 0001:00047460       ??$extract_argument_from_va_list@_W_W@?$standard_base@DV?$string_output_adapter@D@__crt_stdio_output@@@__crt_stdio_output@@IAE_NAA_W@Z 10048460 f i libucrtd:output.obj
 0001:00047490       ??$extract_argument_from_va_list@_W_W@?$standard_base@_WV?$stream_output_adapter@_W@__crt_stdio_output@@@__crt_stdio_output@@IAE_NAA_W@Z 10048490 f i libucrtd:output.obj
 0001:000474c0       ??$extract_argument_from_va_list@_W_W@?$standard_base@_WV?$string_output_adapter@_W@__crt_stdio_output@@@__crt_stdio_output@@IAE_NAA_W@Z 100484c0 f i libucrtd:output.obj
 0001:000474f0       ??$get_parameter_type@D@?$positional_parameter_base@DV?$stream_output_adapter@D@__crt_stdio_output@@@__crt_stdio_output@@CA?AW4parameter_type@01@PAD@Z 100484f0 f i libucrtd:output.obj
 0001:00047500       ??$get_parameter_type@D@?$positional_parameter_base@DV?$string_output_adapter@D@__crt_stdio_output@@@__crt_stdio_output@@CA?AW4parameter_type@01@PAD@Z 10048500 f i libucrtd:output.obj
 0001:00047510       ??$get_parameter_type@D@?$positional_parameter_base@_WV?$stream_output_adapter@_W@__crt_stdio_output@@@__crt_stdio_output@@CA?AW4parameter_type@01@PAD@Z 10048510 f i libucrtd:output.obj
 0001:00047520       ??$get_parameter_type@D@?$positional_parameter_base@_WV?$string_output_adapter@_W@__crt_stdio_output@@@__crt_stdio_output@@CA?AW4parameter_type@01@PAD@Z 10048520 f i libucrtd:output.obj
 0001:00047530       ??$get_parameter_type@Uansi_string@?1??type_case_Z@?$output_processor@DV?$stream_output_adapter@D@__crt_stdio_output@@V?$positional_parameter_base@DV?$stream_output_adapter@D@__crt_stdio_output@@@2@@__crt_stdio_output@@AAE_NXZ@@?$positional_parameter_base@DV?$stream_output_adapter@D@__crt_stdio_output@@@__crt_stdio_output@@CA?AW4parameter_type@01@PAUansi_string@?1??type_case_Z@?$output_processor@DV?$stream_output_adapter@D@__crt_stdio_output@@V?$positional_parameter_base@DV?$stream_output_adapter@D@__crt_stdio_output@@@2@@1@AAE_NXZ@@Z 10048530 f i libucrtd:output.obj
 0001:00047540       ??$get_parameter_type@Uansi_string@?1??type_case_Z@?$output_processor@DV?$string_output_adapter@D@__crt_stdio_output@@V?$positional_parameter_base@DV?$string_output_adapter@D@__crt_stdio_output@@@2@@__crt_stdio_output@@AAE_NXZ@@?$positional_parameter_base@DV?$string_output_adapter@D@__crt_stdio_output@@@__crt_stdio_output@@CA?AW4parameter_type@01@PAUansi_string@?1??type_case_Z@?$output_processor@DV?$string_output_adapter@D@__crt_stdio_output@@V?$positional_parameter_base@DV?$string_output_adapter@D@__crt_stdio_output@@@2@@1@AAE_NXZ@@Z 10048540 f i libucrtd:output.obj
 0001:00047550       ??$get_parameter_type@Uansi_string@?1??type_case_Z@?$output_processor@_WV?$stream_output_adapter@_W@__crt_stdio_output@@V?$positional_parameter_base@_WV?$stream_output_adapter@_W@__crt_stdio_output@@@2@@__crt_stdio_output@@AAE_NXZ@@?$positional_parameter_base@_WV?$stream_output_adapter@_W@__crt_stdio_output@@@__crt_stdio_output@@CA?AW4parameter_type@01@PAUansi_string@?1??type_case_Z@?$output_processor@_WV?$stream_output_adapter@_W@__crt_stdio_output@@V?$positional_parameter_base@_WV?$stream_output_adapter@_W@__crt_stdio_output@@@2@@1@AAE_NXZ@@Z 10048550 f i libucrtd:output.obj
 0001:00047560       ??$get_parameter_type@Uansi_string@?1??type_case_Z@?$output_processor@_WV?$string_output_adapter@_W@__crt_stdio_output@@V?$positional_parameter_base@_WV?$string_output_adapter@_W@__crt_stdio_output@@@2@@__crt_stdio_output@@AAE_NXZ@@?$positional_parameter_base@_WV?$string_output_adapter@_W@__crt_stdio_output@@@__crt_stdio_output@@CA?AW4parameter_type@01@PAUansi_string@?1??type_case_Z@?$output_processor@_WV?$string_output_adapter@_W@__crt_stdio_output@@V?$positional_parameter_base@_WV?$string_output_adapter@_W@__crt_stdio_output@@@2@@1@AAE_NXZ@@Z 10048560 f i libucrtd:output.obj
 0001:00047570       ??$get_parameter_type@X@?$positional_parameter_base@DV?$stream_output_adapter@D@__crt_stdio_output@@@__crt_stdio_output@@CA?AW4parameter_type@01@PAX@Z 10048570 f i libucrtd:output.obj
 0001:00047580       ??$get_parameter_type@X@?$positional_parameter_base@DV?$string_output_adapter@D@__crt_stdio_output@@@__crt_stdio_output@@CA?AW4parameter_type@01@PAX@Z 10048580 f i libucrtd:output.obj
 0001:00047590       ??$get_parameter_type@X@?$positional_parameter_base@_WV?$stream_output_adapter@_W@__crt_stdio_output@@@__crt_stdio_output@@CA?AW4parameter_type@01@PAX@Z 10048590 f i libucrtd:output.obj
 0001:000475a0       ??$get_parameter_type@X@?$positional_parameter_base@_WV?$string_output_adapter@_W@__crt_stdio_output@@@__crt_stdio_output@@CA?AW4parameter_type@01@PAX@Z 100485a0 f i libucrtd:output.obj
 0001:000475b0       ??$is_character_specifier@D@?$positional_parameter_base@DV?$stream_output_adapter@D@__crt_stdio_output@@@__crt_stdio_output@@CA_ND@Z 100485b0 f i libucrtd:output.obj
 0001:000475e0       ??$is_character_specifier@D@?$positional_parameter_base@DV?$string_output_adapter@D@__crt_stdio_output@@@__crt_stdio_output@@CA_ND@Z 100485e0 f i libucrtd:output.obj
 0001:00047610       ??$is_character_specifier@_W@?$positional_parameter_base@_WV?$stream_output_adapter@_W@__crt_stdio_output@@@__crt_stdio_output@@CA_N_W@Z 10048610 f i libucrtd:output.obj
 0001:00047640       ??$is_character_specifier@_W@?$positional_parameter_base@_WV?$string_output_adapter@_W@__crt_stdio_output@@@__crt_stdio_output@@CA_N_W@Z 10048640 f i libucrtd:output.obj
 0001:00047670       ??$is_integral_specifier@D@?$positional_parameter_base@DV?$stream_output_adapter@D@__crt_stdio_output@@@__crt_stdio_output@@CA_ND@Z 10048670 f i libucrtd:output.obj
 0001:000476d0       ??$is_integral_specifier@D@?$positional_parameter_base@DV?$string_output_adapter@D@__crt_stdio_output@@@__crt_stdio_output@@CA_ND@Z 100486d0 f i libucrtd:output.obj
 0001:00047730       ??$is_integral_specifier@_W@?$positional_parameter_base@_WV?$stream_output_adapter@_W@__crt_stdio_output@@@__crt_stdio_output@@CA_N_W@Z 10048730 f i libucrtd:output.obj
 0001:00047790       ??$is_integral_specifier@_W@?$positional_parameter_base@_WV?$string_output_adapter@_W@__crt_stdio_output@@@__crt_stdio_output@@CA_N_W@Z 10048790 f i libucrtd:output.obj
 0001:000477f0       ??$is_pointer_specifier@D@?$positional_parameter_base@DV?$stream_output_adapter@D@__crt_stdio_output@@@__crt_stdio_output@@CA_ND@Z 100487f0 f i libucrtd:output.obj
 0001:00047820       ??$is_pointer_specifier@D@?$positional_parameter_base@DV?$string_output_adapter@D@__crt_stdio_output@@@__crt_stdio_output@@CA_ND@Z 10048820 f i libucrtd:output.obj
 0001:00047850       ??$is_pointer_specifier@_W@?$positional_parameter_base@_WV?$stream_output_adapter@_W@__crt_stdio_output@@@__crt_stdio_output@@CA_N_W@Z 10048850 f i libucrtd:output.obj
 0001:00047880       ??$is_pointer_specifier@_W@?$positional_parameter_base@_WV?$string_output_adapter@_W@__crt_stdio_output@@@__crt_stdio_output@@CA_N_W@Z 10048880 f i libucrtd:output.obj
 0001:000478b0       ??$is_string_specifier@D@?$positional_parameter_base@DV?$stream_output_adapter@D@__crt_stdio_output@@@__crt_stdio_output@@CA_ND@Z 100488b0 f i libucrtd:output.obj
 0001:000478e0       ??$is_string_specifier@D@?$positional_parameter_base@DV?$string_output_adapter@D@__crt_stdio_output@@@__crt_stdio_output@@CA_ND@Z 100488e0 f i libucrtd:output.obj
 0001:00047910       ??$is_string_specifier@_W@?$positional_parameter_base@_WV?$stream_output_adapter@_W@__crt_stdio_output@@@__crt_stdio_output@@CA_N_W@Z 10048910 f i libucrtd:output.obj
 0001:00047940       ??$is_string_specifier@_W@?$positional_parameter_base@_WV?$string_output_adapter@_W@__crt_stdio_output@@@__crt_stdio_output@@CA_N_W@Z 10048940 f i libucrtd:output.obj
 0001:00047970       ??$is_wide_character_specifier@D@__crt_stdio_output@@YA_N_KDW4length_modifier@0@@Z 10048970 f i libucrtd:output.obj
 0001:000479f0       ??$is_wide_character_specifier@_W@__crt_stdio_output@@YA_N_K_WW4length_modifier@0@@Z 100489f0 f i libucrtd:output.obj
 0001:00047ab0       ??$peek_va_arg@C@__crt_stdio_output@@YACPAD@Z 10048ab0 f i libucrtd:output.obj
 0001:00047ad0       ??$peek_va_arg@E@__crt_stdio_output@@YAEPAD@Z 10048ad0 f i libucrtd:output.obj
 0001:00047af0       ??$peek_va_arg@F@__crt_stdio_output@@YAFPAD@Z 10048af0 f i libucrtd:output.obj
 0001:00047b10       ??$peek_va_arg@G@__crt_stdio_output@@YAGPAD@Z 10048b10 f i libucrtd:output.obj
 0001:00047b30       ??$peek_va_arg@H@__crt_stdio_output@@YAHPAD@Z 10048b30 f i libucrtd:output.obj
 0001:00047b50       ??$peek_va_arg@I@__crt_stdio_output@@YAIPAD@Z 10048b50 f i libucrtd:output.obj
 0001:00047b70       ??$peek_va_arg@PAD@__crt_stdio_output@@YAPADPAD@Z 10048b70 f i libucrtd:output.obj
 0001:00047b90       ??$peek_va_arg@PAUansi_string@?1??type_case_Z@?$output_processor@DV?$stream_output_adapter@D@__crt_stdio_output@@V?$positional_parameter_base@DV?$stream_output_adapter@D@__crt_stdio_output@@@2@@__crt_stdio_output@@AAE_NXZ@@__crt_stdio_output@@YAPAUansi_string@?1??type_case_Z@?$output_processor@DV?$stream_output_adapter@D@__crt_stdio_output@@V?$positional_parameter_base@DV?$stream_output_adapter@D@__crt_stdio_output@@@2@@0@AAE_NXZ@PAD@Z 10048b90 f i libucrtd:output.obj
 0001:00047bb0       ??$peek_va_arg@PAUansi_string@?1??type_case_Z@?$output_processor@DV?$string_output_adapter@D@__crt_stdio_output@@V?$positional_parameter_base@DV?$string_output_adapter@D@__crt_stdio_output@@@2@@__crt_stdio_output@@AAE_NXZ@@__crt_stdio_output@@YAPAUansi_string@?1??type_case_Z@?$output_processor@DV?$string_output_adapter@D@__crt_stdio_output@@V?$positional_parameter_base@DV?$string_output_adapter@D@__crt_stdio_output@@@2@@0@AAE_NXZ@PAD@Z 10048bb0 f i libucrtd:output.obj
 0001:00047bd0       ??$peek_va_arg@PAUansi_string@?1??type_case_Z@?$output_processor@_WV?$stream_output_adapter@_W@__crt_stdio_output@@V?$positional_parameter_base@_WV?$stream_output_adapter@_W@__crt_stdio_output@@@2@@__crt_stdio_output@@AAE_NXZ@@__crt_stdio_output@@YAPAUansi_string@?1??type_case_Z@?$output_processor@_WV?$stream_output_adapter@_W@__crt_stdio_output@@V?$positional_parameter_base@_WV?$stream_output_adapter@_W@__crt_stdio_output@@@2@@0@AAE_NXZ@PAD@Z 10048bd0 f i libucrtd:output.obj
 0001:00047bf0       ??$peek_va_arg@PAUansi_string@?1??type_case_Z@?$output_processor@_WV?$string_output_adapter@_W@__crt_stdio_output@@V?$positional_parameter_base@_WV?$string_output_adapter@_W@__crt_stdio_output@@@2@@__crt_stdio_output@@AAE_NXZ@@__crt_stdio_output@@YAPAUansi_string@?1??type_case_Z@?$output_processor@_WV?$string_output_adapter@_W@__crt_stdio_output@@V?$positional_parameter_base@_WV?$string_output_adapter@_W@__crt_stdio_output@@@2@@0@AAE_NXZ@PAD@Z 10048bf0 f i libucrtd:output.obj
 0001:00047c10       ??$peek_va_arg@PAX@__crt_stdio_output@@YAPAXPAD@Z 10048c10 f i libucrtd:output.obj
 0001:00047c30       ??$peek_va_arg@U_CRT_DOUBLE@@@__crt_stdio_output@@YA?AU_CRT_DOUBLE@@PAD@Z 10048c30 f i libucrtd:output.obj
 0001:00047c50       ??$peek_va_arg@_J@__crt_stdio_output@@YA_JPAD@Z 10048c50 f i libucrtd:output.obj
 0001:00047c70       ??$peek_va_arg@_K@__crt_stdio_output@@YA_KPAD@Z 10048c70 f i libucrtd:output.obj
 0001:00047c90       ??$peek_va_arg@_W@__crt_stdio_output@@YA_WPAD@Z 10048c90 f i libucrtd:output.obj
 0001:00047cb0       ??$puttc_nolock@ABDPAU_iobuf@@@?$__crt_char_traits@D@@SAHABD$$QAPAU_iobuf@@@Z 10048cb0 f i libucrtd:output.obj
 0001:00047cd0       ??$puttc_nolock@AB_WPAU_iobuf@@@?$__crt_char_traits@_W@@SAGAB_W$$QAPAU_iobuf@@@Z 10048cd0 f i libucrtd:output.obj
 0001:00047cf0       ??$read_va_arg@C@__crt_stdio_output@@YACAAPAD@Z 10048cf0 f i libucrtd:output.obj
 0001:00047d10       ??$read_va_arg@E@__crt_stdio_output@@YAEAAPAD@Z 10048d10 f i libucrtd:output.obj
 0001:00047d30       ??$read_va_arg@F@__crt_stdio_output@@YAFAAPAD@Z 10048d30 f i libucrtd:output.obj
 0001:00047d50       ??$read_va_arg@G@__crt_stdio_output@@YAGAAPAD@Z 10048d50 f i libucrtd:output.obj
 0001:00047d70       ??$read_va_arg@H@__crt_stdio_output@@YAHAAPAD@Z 10048d70 f i libucrtd:output.obj
 0001:00047d90       ??$read_va_arg@I@__crt_stdio_output@@YAIAAPAD@Z 10048d90 f i libucrtd:output.obj
 0001:00047db0       ??$read_va_arg@PAD@__crt_stdio_output@@YAPADAAPAD@Z 10048db0 f i libucrtd:output.obj
 0001:00047dd0       ??$read_va_arg@PAUansi_string@?1??type_case_Z@?$output_processor@DV?$stream_output_adapter@D@__crt_stdio_output@@V?$format_validation_base@DV?$stream_output_adapter@D@__crt_stdio_output@@@2@@__crt_stdio_output@@AAE_NXZ@@__crt_stdio_output@@YAPAUansi_string@?1??type_case_Z@?$output_processor@DV?$stream_output_adapter@D@__crt_stdio_output@@V?$format_validation_base@DV?$stream_output_adapter@D@__crt_stdio_output@@@2@@0@AAE_NXZ@AAPAD@Z 10048dd0 f i libucrtd:output.obj
 0001:00047df0       ??$read_va_arg@PAUansi_string@?1??type_case_Z@?$output_processor@DV?$stream_output_adapter@D@__crt_stdio_output@@V?$positional_parameter_base@DV?$stream_output_adapter@D@__crt_stdio_output@@@2@@__crt_stdio_output@@AAE_NXZ@@__crt_stdio_output@@YAPAUansi_string@?1??type_case_Z@?$output_processor@DV?$stream_output_adapter@D@__crt_stdio_output@@V?$positional_parameter_base@DV?$stream_output_adapter@D@__crt_stdio_output@@@2@@0@AAE_NXZ@AAPAD@Z 10048df0 f i libucrtd:output.obj
 0001:00047e10       ??$read_va_arg@PAUansi_string@?1??type_case_Z@?$output_processor@DV?$stream_output_adapter@D@__crt_stdio_output@@V?$standard_base@DV?$stream_output_adapter@D@__crt_stdio_output@@@2@@__crt_stdio_output@@AAE_NXZ@@__crt_stdio_output@@YAPAUansi_string@?1??type_case_Z@?$output_processor@DV?$stream_output_adapter@D@__crt_stdio_output@@V?$standard_base@DV?$stream_output_adapter@D@__crt_stdio_output@@@2@@0@AAE_NXZ@AAPAD@Z 10048e10 f i libucrtd:output.obj
 0001:00047e30       ??$read_va_arg@PAUansi_string@?1??type_case_Z@?$output_processor@DV?$string_output_adapter@D@__crt_stdio_output@@V?$format_validation_base@DV?$string_output_adapter@D@__crt_stdio_output@@@2@@__crt_stdio_output@@AAE_NXZ@@__crt_stdio_output@@YAPAUansi_string@?1??type_case_Z@?$output_processor@DV?$string_output_adapter@D@__crt_stdio_output@@V?$format_validation_base@DV?$string_output_adapter@D@__crt_stdio_output@@@2@@0@AAE_NXZ@AAPAD@Z 10048e30 f i libucrtd:output.obj
 0001:00047e50       ??$read_va_arg@PAUansi_string@?1??type_case_Z@?$output_processor@DV?$string_output_adapter@D@__crt_stdio_output@@V?$positional_parameter_base@DV?$string_output_adapter@D@__crt_stdio_output@@@2@@__crt_stdio_output@@AAE_NXZ@@__crt_stdio_output@@YAPAUansi_string@?1??type_case_Z@?$output_processor@DV?$string_output_adapter@D@__crt_stdio_output@@V?$positional_parameter_base@DV?$string_output_adapter@D@__crt_stdio_output@@@2@@0@AAE_NXZ@AAPAD@Z 10048e50 f i libucrtd:output.obj
 0001:00047e70       ??$read_va_arg@PAUansi_string@?1??type_case_Z@?$output_processor@DV?$string_output_adapter@D@__crt_stdio_output@@V?$standard_base@DV?$string_output_adapter@D@__crt_stdio_output@@@2@@__crt_stdio_output@@AAE_NXZ@@__crt_stdio_output@@YAPAUansi_string@?1??type_case_Z@?$output_processor@DV?$string_output_adapter@D@__crt_stdio_output@@V?$standard_base@DV?$string_output_adapter@D@__crt_stdio_output@@@2@@0@AAE_NXZ@AAPAD@Z 10048e70 f i libucrtd:output.obj
 0001:00047e90       ??$read_va_arg@PAUansi_string@?1??type_case_Z@?$output_processor@_WV?$stream_output_adapter@_W@__crt_stdio_output@@V?$format_validation_base@_WV?$stream_output_adapter@_W@__crt_stdio_output@@@2@@__crt_stdio_output@@AAE_NXZ@@__crt_stdio_output@@YAPAUansi_string@?1??type_case_Z@?$output_processor@_WV?$stream_output_adapter@_W@__crt_stdio_output@@V?$format_validation_base@_WV?$stream_output_adapter@_W@__crt_stdio_output@@@2@@0@AAE_NXZ@AAPAD@Z 10048e90 f i libucrtd:output.obj
 0001:00047eb0       ??$read_va_arg@PAUansi_string@?1??type_case_Z@?$output_processor@_WV?$stream_output_adapter@_W@__crt_stdio_output@@V?$positional_parameter_base@_WV?$stream_output_adapter@_W@__crt_stdio_output@@@2@@__crt_stdio_output@@AAE_NXZ@@__crt_stdio_output@@YAPAUansi_string@?1??type_case_Z@?$output_processor@_WV?$stream_output_adapter@_W@__crt_stdio_output@@V?$positional_parameter_base@_WV?$stream_output_adapter@_W@__crt_stdio_output@@@2@@0@AAE_NXZ@AAPAD@Z 10048eb0 f i libucrtd:output.obj
 0001:00047ed0       ??$read_va_arg@PAUansi_string@?1??type_case_Z@?$output_processor@_WV?$stream_output_adapter@_W@__crt_stdio_output@@V?$standard_base@_WV?$stream_output_adapter@_W@__crt_stdio_output@@@2@@__crt_stdio_output@@AAE_NXZ@@__crt_stdio_output@@YAPAUansi_string@?1??type_case_Z@?$output_processor@_WV?$stream_output_adapter@_W@__crt_stdio_output@@V?$standard_base@_WV?$stream_output_adapter@_W@__crt_stdio_output@@@2@@0@AAE_NXZ@AAPAD@Z 10048ed0 f i libucrtd:output.obj
 0001:00047ef0       ??$read_va_arg@PAUansi_string@?1??type_case_Z@?$output_processor@_WV?$string_output_adapter@_W@__crt_stdio_output@@V?$format_validation_base@_WV?$string_output_adapter@_W@__crt_stdio_output@@@2@@__crt_stdio_output@@AAE_NXZ@@__crt_stdio_output@@YAPAUansi_string@?1??type_case_Z@?$output_processor@_WV?$string_output_adapter@_W@__crt_stdio_output@@V?$format_validation_base@_WV?$string_output_adapter@_W@__crt_stdio_output@@@2@@0@AAE_NXZ@AAPAD@Z 10048ef0 f i libucrtd:output.obj
 0001:00047f10       ??$read_va_arg@PAUansi_string@?1??type_case_Z@?$output_processor@_WV?$string_output_adapter@_W@__crt_stdio_output@@V?$positional_parameter_base@_WV?$string_output_adapter@_W@__crt_stdio_output@@@2@@__crt_stdio_output@@AAE_NXZ@@__crt_stdio_output@@YAPAUansi_string@?1??type_case_Z@?$output_processor@_WV?$string_output_adapter@_W@__crt_stdio_output@@V?$positional_parameter_base@_WV?$string_output_adapter@_W@__crt_stdio_output@@@2@@0@AAE_NXZ@AAPAD@Z 10048f10 f i libucrtd:output.obj
 0001:00047f30       ??$read_va_arg@PAUansi_string@?1??type_case_Z@?$output_processor@_WV?$string_output_adapter@_W@__crt_stdio_output@@V?$standard_base@_WV?$string_output_adapter@_W@__crt_stdio_output@@@2@@__crt_stdio_output@@AAE_NXZ@@__crt_stdio_output@@YAPAUansi_string@?1??type_case_Z@?$output_processor@_WV?$string_output_adapter@_W@__crt_stdio_output@@V?$standard_base@_WV?$string_output_adapter@_W@__crt_stdio_output@@@2@@0@AAE_NXZ@AAPAD@Z 10048f30 f i libucrtd:output.obj
 0001:00047f50       ??$read_va_arg@PAX@__crt_stdio_output@@YAPAXAAPAD@Z 10048f50 f i libucrtd:output.obj
 0001:00047f70       ??$read_va_arg@U_CRT_DOUBLE@@@__crt_stdio_output@@YA?AU_CRT_DOUBLE@@AAPAD@Z 10048f70 f i libucrtd:output.obj
 0001:00047f90       ??$read_va_arg@_J@__crt_stdio_output@@YA_JAAPAD@Z 10048f90 f i libucrtd:output.obj
 0001:00047fb0       ??$read_va_arg@_K@__crt_stdio_output@@YA_KAAPAD@Z 10048fb0 f i libucrtd:output.obj
 0001:00047fd0       ??$read_va_arg@_W@__crt_stdio_output@@YA_WAAPAD@Z 10048fd0 f i libucrtd:output.obj
 0001:00047ff0       ??$scratch_count@D@formatting_buffer@__crt_stdio_output@@QBEIXZ 10048ff0 f i libucrtd:output.obj
 0001:00048010       ??$scratch_data@D@formatting_buffer@__crt_stdio_output@@QAEPADXZ 10049010 f i libucrtd:output.obj
 0001:00048060       ??$tcstol@AAPBDPAPADH@?$__crt_char_traits@D@@SAJAAPBD$$QAPAPAD$$QAH@Z 10049060 f i libucrtd:output.obj
 0001:00048090       ??$tcstol@AAPB_WPAPA_WH@?$__crt_char_traits@_W@@SAJAAPB_W$$QAPAPA_W$$QAH@Z 10049090 f i libucrtd:output.obj
 0001:000480c0       ??$tcstol@PBDPAPADH@?$__crt_char_traits@D@@SAJ$$QAPBD$$QAPAPAD$$QAH@Z 100490c0 f i libucrtd:output.obj
 0001:000480f0       ??$tcstol@PB_WPAPA_WH@?$__crt_char_traits@_W@@SAJ$$QAPB_W$$QAPAPA_W$$QAH@Z 100490f0 f i libucrtd:output.obj
 0001:00048120       ??$type_case_integer_parse_into_buffer@I@?$output_processor@DV?$stream_output_adapter@D@__crt_stdio_output@@V?$format_validation_base@DV?$stream_output_adapter@D@__crt_stdio_output@@@2@@__crt_stdio_output@@AAEXII_N@Z 10049120 f i libucrtd:output.obj
 0001:000481f0       ??$type_case_integer_parse_into_buffer@I@?$output_processor@DV?$stream_output_adapter@D@__crt_stdio_output@@V?$positional_parameter_base@DV?$stream_output_adapter@D@__crt_stdio_output@@@2@@__crt_stdio_output@@AAEXII_N@Z 100491f0 f i libucrtd:output.obj
 0001:000482c0       ??$type_case_integer_parse_into_buffer@I@?$output_processor@DV?$stream_output_adapter@D@__crt_stdio_output@@V?$standard_base@DV?$stream_output_adapter@D@__crt_stdio_output@@@2@@__crt_stdio_output@@AAEXII_N@Z 100492c0 f i libucrtd:output.obj
 0001:00048390       ??$type_case_integer_parse_into_buffer@I@?$output_processor@DV?$string_output_adapter@D@__crt_stdio_output@@V?$format_validation_base@DV?$string_output_adapter@D@__crt_stdio_output@@@2@@__crt_stdio_output@@AAEXII_N@Z 10049390 f i libucrtd:output.obj
 0001:00048460       ??$type_case_integer_parse_into_buffer@I@?$output_processor@DV?$string_output_adapter@D@__crt_stdio_output@@V?$positional_parameter_base@DV?$string_output_adapter@D@__crt_stdio_output@@@2@@__crt_stdio_output@@AAEXII_N@Z 10049460 f i libucrtd:output.obj
 0001:00048530       ??$type_case_integer_parse_into_buffer@I@?$output_processor@DV?$string_output_adapter@D@__crt_stdio_output@@V?$standard_base@DV?$string_output_adapter@D@__crt_stdio_output@@@2@@__crt_stdio_output@@AAEXII_N@Z 10049530 f i libucrtd:output.obj
 0001:00048600       ??$type_case_integer_parse_into_buffer@I@?$output_processor@_WV?$stream_output_adapter@_W@__crt_stdio_output@@V?$format_validation_base@_WV?$stream_output_adapter@_W@__crt_stdio_output@@@2@@__crt_stdio_output@@AAEXII_N@Z 10049600 f i libucrtd:output.obj
 0001:000486e0       ??$type_case_integer_parse_into_buffer@I@?$output_processor@_WV?$stream_output_adapter@_W@__crt_stdio_output@@V?$positional_parameter_base@_WV?$stream_output_adapter@_W@__crt_stdio_output@@@2@@__crt_stdio_output@@AAEXII_N@Z 100496e0 f i libucrtd:output.obj
 0001:000487c0       ??$type_case_integer_parse_into_buffer@I@?$output_processor@_WV?$stream_output_adapter@_W@__crt_stdio_output@@V?$standard_base@_WV?$stream_output_adapter@_W@__crt_stdio_output@@@2@@__crt_stdio_output@@AAEXII_N@Z 100497c0 f i libucrtd:output.obj
 0001:000488a0       ??$type_case_integer_parse_into_buffer@I@?$output_processor@_WV?$string_output_adapter@_W@__crt_stdio_output@@V?$format_validation_base@_WV?$string_output_adapter@_W@__crt_stdio_output@@@2@@__crt_stdio_output@@AAEXII_N@Z 100498a0 f i libucrtd:output.obj
 0001:00048980       ??$type_case_integer_parse_into_buffer@I@?$output_processor@_WV?$string_output_adapter@_W@__crt_stdio_output@@V?$positional_parameter_base@_WV?$string_output_adapter@_W@__crt_stdio_output@@@2@@__crt_stdio_output@@AAEXII_N@Z 10049980 f i libucrtd:output.obj
 0001:00048a60       ??$type_case_integer_parse_into_buffer@I@?$output_processor@_WV?$string_output_adapter@_W@__crt_stdio_output@@V?$standard_base@_WV?$string_output_adapter@_W@__crt_stdio_output@@@2@@__crt_stdio_output@@AAEXII_N@Z 10049a60 f i libucrtd:output.obj
 0001:00048b40       ??$type_case_integer_parse_into_buffer@_K@?$output_processor@DV?$stream_output_adapter@D@__crt_stdio_output@@V?$format_validation_base@DV?$stream_output_adapter@D@__crt_stdio_output@@@2@@__crt_stdio_output@@AAEX_KI_N@Z 10049b40 f i libucrtd:output.obj
 0001:00048c30       ??$type_case_integer_parse_into_buffer@_K@?$output_processor@DV?$stream_output_adapter@D@__crt_stdio_output@@V?$positional_parameter_base@DV?$stream_output_adapter@D@__crt_stdio_output@@@2@@__crt_stdio_output@@AAEX_KI_N@Z 10049c30 f i libucrtd:output.obj
 0001:00048d20       ??$type_case_integer_parse_into_buffer@_K@?$output_processor@DV?$stream_output_adapter@D@__crt_stdio_output@@V?$standard_base@DV?$stream_output_adapter@D@__crt_stdio_output@@@2@@__crt_stdio_output@@AAEX_KI_N@Z 10049d20 f i libucrtd:output.obj
 0001:00048e10       ??$type_case_integer_parse_into_buffer@_K@?$output_processor@DV?$string_output_adapter@D@__crt_stdio_output@@V?$format_validation_base@DV?$string_output_adapter@D@__crt_stdio_output@@@2@@__crt_stdio_output@@AAEX_KI_N@Z 10049e10 f i libucrtd:output.obj
 0001:00048f00       ??$type_case_integer_parse_into_buffer@_K@?$output_processor@DV?$string_output_adapter@D@__crt_stdio_output@@V?$positional_parameter_base@DV?$string_output_adapter@D@__crt_stdio_output@@@2@@__crt_stdio_output@@AAEX_KI_N@Z 10049f00 f i libucrtd:output.obj
 0001:00048ff0       ??$type_case_integer_parse_into_buffer@_K@?$output_processor@DV?$string_output_adapter@D@__crt_stdio_output@@V?$standard_base@DV?$string_output_adapter@D@__crt_stdio_output@@@2@@__crt_stdio_output@@AAEX_KI_N@Z 10049ff0 f i libucrtd:output.obj
 0001:000490e0       ??$type_case_integer_parse_into_buffer@_K@?$output_processor@_WV?$stream_output_adapter@_W@__crt_stdio_output@@V?$format_validation_base@_WV?$stream_output_adapter@_W@__crt_stdio_output@@@2@@__crt_stdio_output@@AAEX_KI_N@Z 1004a0e0 f i libucrtd:output.obj
 0001:000491e0       ??$type_case_integer_parse_into_buffer@_K@?$output_processor@_WV?$stream_output_adapter@_W@__crt_stdio_output@@V?$positional_parameter_base@_WV?$stream_output_adapter@_W@__crt_stdio_output@@@2@@__crt_stdio_output@@AAEX_KI_N@Z 1004a1e0 f i libucrtd:output.obj
 0001:000492e0       ??$type_case_integer_parse_into_buffer@_K@?$output_processor@_WV?$stream_output_adapter@_W@__crt_stdio_output@@V?$standard_base@_WV?$stream_output_adapter@_W@__crt_stdio_output@@@2@@__crt_stdio_output@@AAEX_KI_N@Z 1004a2e0 f i libucrtd:output.obj
 0001:000493e0       ??$type_case_integer_parse_into_buffer@_K@?$output_processor@_WV?$string_output_adapter@_W@__crt_stdio_output@@V?$format_validation_base@_WV?$string_output_adapter@_W@__crt_stdio_output@@@2@@__crt_stdio_output@@AAEX_KI_N@Z 1004a3e0 f i libucrtd:output.obj
 0001:000494e0       ??$type_case_integer_parse_into_buffer@_K@?$output_processor@_WV?$string_output_adapter@_W@__crt_stdio_output@@V?$positional_parameter_base@_WV?$string_output_adapter@_W@__crt_stdio_output@@@2@@__crt_stdio_output@@AAEX_KI_N@Z 1004a4e0 f i libucrtd:output.obj
 0001:000495e0       ??$type_case_integer_parse_into_buffer@_K@?$output_processor@_WV?$string_output_adapter@_W@__crt_stdio_output@@V?$standard_base@_WV?$string_output_adapter@_W@__crt_stdio_output@@@2@@__crt_stdio_output@@AAEX_KI_N@Z 1004a5e0 f i libucrtd:output.obj
 0001:000496e0       ??$write_multiple_characters@V?$stream_output_adapter@D@__crt_stdio_output@@D@__crt_stdio_output@@YAXABV?$stream_output_adapter@D@0@DHQAH@Z 1004a6e0 f i libucrtd:output.obj
 0001:00049730       ??$write_multiple_characters@V?$stream_output_adapter@_W@__crt_stdio_output@@D@__crt_stdio_output@@YAXABV?$stream_output_adapter@_W@0@DHQAH@Z 1004a730 f i libucrtd:output.obj
 0001:00049780       ??$write_multiple_characters@V?$string_output_adapter@D@__crt_stdio_output@@D@__crt_stdio_output@@YAXABV?$string_output_adapter@D@0@DHQAH@Z 1004a780 f i libucrtd:output.obj
 0001:000497d0       ??$write_multiple_characters@V?$string_output_adapter@_W@__crt_stdio_output@@D@__crt_stdio_output@@YAXABV?$string_output_adapter@_W@0@DHQAH@Z 1004a7d0 f i libucrtd:output.obj
 0001:00049b20       ??0?$common_data@D@__crt_stdio_output@@IAE@XZ 1004ab20 f i libucrtd:output.obj
 0001:00049bd0       ??0?$common_data@_W@__crt_stdio_output@@IAE@XZ 1004abd0 f i libucrtd:output.obj
 0001:00049c80       ??0?$output_adapter_data@DV?$stream_output_adapter@D@__crt_stdio_output@@@__crt_stdio_output@@IAE@ABV?$stream_output_adapter@D@1@_KQBDQAU__crt_locale_pointers@@QAD@Z 1004ac80 f i libucrtd:output.obj
 0001:00049ce0       ??0?$output_adapter_data@DV?$string_output_adapter@D@__crt_stdio_output@@@__crt_stdio_output@@IAE@ABV?$string_output_adapter@D@1@_KQBDQAU__crt_locale_pointers@@QAD@Z 1004ace0 f i libucrtd:output.obj
 0001:00049d40       ??0?$output_adapter_data@_WV?$stream_output_adapter@_W@__crt_stdio_output@@@__crt_stdio_output@@IAE@ABV?$stream_output_adapter@_W@1@_KQB_WQAU__crt_locale_pointers@@QAD@Z 1004ad40 f i libucrtd:output.obj
 0001:00049da0       ??0?$output_adapter_data@_WV?$string_output_adapter@_W@__crt_stdio_output@@@__crt_stdio_output@@IAE@ABV?$string_output_adapter@_W@1@_KQB_WQAU__crt_locale_pointers@@QAD@Z 1004ada0 f i libucrtd:output.obj
 0001:00049e00       ??0?$output_processor@DV?$stream_output_adapter@D@__crt_stdio_output@@V?$format_validation_base@DV?$stream_output_adapter@D@__crt_stdio_output@@@2@@__crt_stdio_output@@QAE@ABV?$stream_output_adapter@D@1@_KQBDQAU__crt_locale_pointers@@QAD@Z 1004ae00 f i libucrtd:output.obj
 0001:00049e30       ??0?$output_processor@DV?$stream_output_adapter@D@__crt_stdio_output@@V?$positional_parameter_base@DV?$stream_output_adapter@D@__crt_stdio_output@@@2@@__crt_stdio_output@@QAE@ABV?$stream_output_adapter@D@1@_KQBDQAU__crt_locale_pointers@@QAD@Z 1004ae30 f i libucrtd:output.obj
 0001:00049e60       ??0?$output_processor@DV?$stream_output_adapter@D@__crt_stdio_output@@V?$standard_base@DV?$stream_output_adapter@D@__crt_stdio_output@@@2@@__crt_stdio_output@@QAE@ABV?$stream_output_adapter@D@1@_KQBDQAU__crt_locale_pointers@@QAD@Z 1004ae60 f i libucrtd:output.obj
 0001:00049e90       ??0?$output_processor@DV?$string_output_adapter@D@__crt_stdio_output@@V?$format_validation_base@DV?$string_output_adapter@D@__crt_stdio_output@@@2@@__crt_stdio_output@@QAE@ABV?$string_output_adapter@D@1@_KQBDQAU__crt_locale_pointers@@QAD@Z 1004ae90 f i libucrtd:output.obj
 0001:00049ec0       ??0?$output_processor@DV?$string_output_adapter@D@__crt_stdio_output@@V?$positional_parameter_base@DV?$string_output_adapter@D@__crt_stdio_output@@@2@@__crt_stdio_output@@QAE@ABV?$string_output_adapter@D@1@_KQBDQAU__crt_locale_pointers@@QAD@Z 1004aec0 f i libucrtd:output.obj
 0001:00049ef0       ??0?$output_processor@DV?$string_output_adapter@D@__crt_stdio_output@@V?$standard_base@DV?$string_output_adapter@D@__crt_stdio_output@@@2@@__crt_stdio_output@@QAE@ABV?$string_output_adapter@D@1@_KQBDQAU__crt_locale_pointers@@QAD@Z 1004aef0 f i libucrtd:output.obj
 0001:00049f20       ??0?$output_processor@_WV?$stream_output_adapter@_W@__crt_stdio_output@@V?$format_validation_base@_WV?$stream_output_adapter@_W@__crt_stdio_output@@@2@@__crt_stdio_output@@QAE@ABV?$stream_output_adapter@_W@1@_KQB_WQAU__crt_locale_pointers@@QAD@Z 1004af20 f i libucrtd:output.obj
 0001:00049f50       ??0?$output_processor@_WV?$stream_output_adapter@_W@__crt_stdio_output@@V?$positional_parameter_base@_WV?$stream_output_adapter@_W@__crt_stdio_output@@@2@@__crt_stdio_output@@QAE@ABV?$stream_output_adapter@_W@1@_KQB_WQAU__crt_locale_pointers@@QAD@Z 1004af50 f i libucrtd:output.obj
 0001:00049f80       ??0?$output_processor@_WV?$stream_output_adapter@_W@__crt_stdio_output@@V?$standard_base@_WV?$stream_output_adapter@_W@__crt_stdio_output@@@2@@__crt_stdio_output@@QAE@ABV?$stream_output_adapter@_W@1@_KQB_WQAU__crt_locale_pointers@@QAD@Z 1004af80 f i libucrtd:output.obj
 0001:00049fb0       ??0?$output_processor@_WV?$string_output_adapter@_W@__crt_stdio_output@@V?$format_validation_base@_WV?$string_output_adapter@_W@__crt_stdio_output@@@2@@__crt_stdio_output@@QAE@ABV?$string_output_adapter@_W@1@_KQB_WQAU__crt_locale_pointers@@QAD@Z 1004afb0 f i libucrtd:output.obj
 0001:00049fe0       ??0?$output_processor@_WV?$string_output_adapter@_W@__crt_stdio_output@@V?$positional_parameter_base@_WV?$string_output_adapter@_W@__crt_stdio_output@@@2@@__crt_stdio_output@@QAE@ABV?$string_output_adapter@_W@1@_KQB_WQAU__crt_locale_pointers@@QAD@Z 1004afe0 f i libucrtd:output.obj
 0001:0004a010       ??0?$output_processor@_WV?$string_output_adapter@_W@__crt_stdio_output@@V?$standard_base@_WV?$string_output_adapter@_W@__crt_stdio_output@@@2@@__crt_stdio_output@@QAE@ABV?$string_output_adapter@_W@1@_KQB_WQAU__crt_locale_pointers@@QAD@Z 1004b010 f i libucrtd:output.obj
 0001:0004a040       ??0?$stream_output_adapter@D@__crt_stdio_output@@QAE@QAU_iobuf@@@Z 1004b040 f i libucrtd:output.obj
 0001:0004a060       ??0?$stream_output_adapter@_W@__crt_stdio_output@@QAE@QAU_iobuf@@@Z 1004b060 f i libucrtd:output.obj
 0001:0004a080       ??0?$string_output_adapter@D@__crt_stdio_output@@QAE@QAU?$string_output_adapter_context@D@1@@Z 1004b080 f i libucrtd:output.obj
 0001:0004a0a0       ??0?$string_output_adapter@_W@__crt_stdio_output@@QAE@QAU?$string_output_adapter_context@_W@1@@Z 1004b0a0 f i libucrtd:output.obj
 0001:0004a0c0       ??0_LocaleUpdate@@QAE@QAU__crt_locale_pointers@@@Z 1004b0c0 f i libucrtd:output.obj
 0001:0004a190       ??0__acrt_stdio_temporary_buffering_guard@@QAE@QAU_iobuf@@@Z 1004b190 f i libucrtd:output.obj
 0001:0004a1c0       ??0__crt_deferred_errno_cache@@QAE@XZ 1004b1c0 f i libucrtd:output.obj
 0001:0004a1e0       ??0__crt_errno_guard@@QAE@QAH@Z 1004b1e0 f i libucrtd:output.obj
 0001:0004a210       ??0__crt_stdio_stream@@QAE@QAU_iobuf@@@Z 1004b210 f i libucrtd:output.obj
 0001:0004a230       ??0formatting_buffer@__crt_stdio_output@@QAE@XZ 1004b230 f i libucrtd:output.obj
 0001:0004a260       ??1?$common_data@D@__crt_stdio_output@@QAE@XZ 1004b260 f i libucrtd:output.obj
 0001:0004a280       ??1?$common_data@_W@__crt_stdio_output@@QAE@XZ 1004b280 f i libucrtd:output.obj
 0001:0004a2a0       ??1?$format_validation_base@DV?$stream_output_adapter@D@__crt_stdio_output@@@__crt_stdio_output@@QAE@XZ 1004b2a0 f i libucrtd:output.obj
 0001:0004a2c0       ??1?$format_validation_base@DV?$string_output_adapter@D@__crt_stdio_output@@@__crt_stdio_output@@QAE@XZ 1004b2c0 f i libucrtd:output.obj
 0001:0004a2e0       ??1?$format_validation_base@_WV?$stream_output_adapter@_W@__crt_stdio_output@@@__crt_stdio_output@@QAE@XZ 1004b2e0 f i libucrtd:output.obj
 0001:0004a300       ??1?$format_validation_base@_WV?$string_output_adapter@_W@__crt_stdio_output@@@__crt_stdio_output@@QAE@XZ 1004b300 f i libucrtd:output.obj
 0001:0004a320       ??1?$output_adapter_data@DV?$stream_output_adapter@D@__crt_stdio_output@@@__crt_stdio_output@@QAE@XZ 1004b320 f i libucrtd:output.obj
 0001:0004a340       ??1?$output_adapter_data@DV?$string_output_adapter@D@__crt_stdio_output@@@__crt_stdio_output@@QAE@XZ 1004b340 f i libucrtd:output.obj
 0001:0004a360       ??1?$output_adapter_data@_WV?$stream_output_adapter@_W@__crt_stdio_output@@@__crt_stdio_output@@QAE@XZ 1004b360 f i libucrtd:output.obj
 0001:0004a380       ??1?$output_adapter_data@_WV?$string_output_adapter@_W@__crt_stdio_output@@@__crt_stdio_output@@QAE@XZ 1004b380 f i libucrtd:output.obj
 0001:0004a3a0       ??1?$output_processor@DV?$stream_output_adapter@D@__crt_stdio_output@@V?$format_validation_base@DV?$stream_output_adapter@D@__crt_stdio_output@@@2@@__crt_stdio_output@@QAE@XZ 1004b3a0 f i libucrtd:output.obj
 0001:0004a3c0       ??1?$output_processor@DV?$stream_output_adapter@D@__crt_stdio_output@@V?$positional_parameter_base@DV?$stream_output_adapter@D@__crt_stdio_output@@@2@@__crt_stdio_output@@QAE@XZ 1004b3c0 f i libucrtd:output.obj
 0001:0004a3e0       ??1?$output_processor@DV?$stream_output_adapter@D@__crt_stdio_output@@V?$standard_base@DV?$stream_output_adapter@D@__crt_stdio_output@@@2@@__crt_stdio_output@@QAE@XZ 1004b3e0 f i libucrtd:output.obj
 0001:0004a400       ??1?$output_processor@DV?$string_output_adapter@D@__crt_stdio_output@@V?$format_validation_base@DV?$string_output_adapter@D@__crt_stdio_output@@@2@@__crt_stdio_output@@QAE@XZ 1004b400 f i libucrtd:output.obj
 0001:0004a420       ??1?$output_processor@DV?$string_output_adapter@D@__crt_stdio_output@@V?$positional_parameter_base@DV?$string_output_adapter@D@__crt_stdio_output@@@2@@__crt_stdio_output@@QAE@XZ 1004b420 f i libucrtd:output.obj
 0001:0004a440       ??1?$output_processor@DV?$string_output_adapter@D@__crt_stdio_output@@V?$standard_base@DV?$string_output_adapter@D@__crt_stdio_output@@@2@@__crt_stdio_output@@QAE@XZ 1004b440 f i libucrtd:output.obj
 0001:0004a460       ??1?$output_processor@_WV?$stream_output_adapter@_W@__crt_stdio_output@@V?$format_validation_base@_WV?$stream_output_adapter@_W@__crt_stdio_output@@@2@@__crt_stdio_output@@QAE@XZ 1004b460 f i libucrtd:output.obj
 0001:0004a480       ??1?$output_processor@_WV?$stream_output_adapter@_W@__crt_stdio_output@@V?$positional_parameter_base@_WV?$stream_output_adapter@_W@__crt_stdio_output@@@2@@__crt_stdio_output@@QAE@XZ 1004b480 f i libucrtd:output.obj
 0001:0004a4a0       ??1?$output_processor@_WV?$stream_output_adapter@_W@__crt_stdio_output@@V?$standard_base@_WV?$stream_output_adapter@_W@__crt_stdio_output@@@2@@__crt_stdio_output@@QAE@XZ 1004b4a0 f i libucrtd:output.obj
 0001:0004a4c0       ??1?$output_processor@_WV?$string_output_adapter@_W@__crt_stdio_output@@V?$format_validation_base@_WV?$string_output_adapter@_W@__crt_stdio_output@@@2@@__crt_stdio_output@@QAE@XZ 1004b4c0 f i libucrtd:output.obj
 0001:0004a4e0       ??1?$output_processor@_WV?$string_output_adapter@_W@__crt_stdio_output@@V?$positional_parameter_base@_WV?$string_output_adapter@_W@__crt_stdio_output@@@2@@__crt_stdio_output@@QAE@XZ 1004b4e0 f i libucrtd:output.obj
 0001:0004a500       ??1?$output_processor@_WV?$string_output_adapter@_W@__crt_stdio_output@@V?$standard_base@_WV?$string_output_adapter@_W@__crt_stdio_output@@@2@@__crt_stdio_output@@QAE@XZ 1004b500 f i libucrtd:output.obj
 0001:0004a520       ??1?$positional_parameter_base@DV?$stream_output_adapter@D@__crt_stdio_output@@@__crt_stdio_output@@QAE@XZ 1004b520 f i libucrtd:output.obj
 0001:0004a540       ??1?$positional_parameter_base@DV?$string_output_adapter@D@__crt_stdio_output@@@__crt_stdio_output@@QAE@XZ 1004b540 f i libucrtd:output.obj
 0001:0004a560       ??1?$positional_parameter_base@_WV?$stream_output_adapter@_W@__crt_stdio_output@@@__crt_stdio_output@@QAE@XZ 1004b560 f i libucrtd:output.obj
 0001:0004a580       ??1?$positional_parameter_base@_WV?$string_output_adapter@_W@__crt_stdio_output@@@__crt_stdio_output@@QAE@XZ 1004b580 f i libucrtd:output.obj
 0001:0004a5a0       ??1?$standard_base@DV?$stream_output_adapter@D@__crt_stdio_output@@@__crt_stdio_output@@QAE@XZ 1004b5a0 f i libucrtd:output.obj
 0001:0004a5c0       ??1?$standard_base@DV?$string_output_adapter@D@__crt_stdio_output@@@__crt_stdio_output@@QAE@XZ 1004b5c0 f i libucrtd:output.obj
 0001:0004a5e0       ??1?$standard_base@_WV?$stream_output_adapter@_W@__crt_stdio_output@@@__crt_stdio_output@@QAE@XZ 1004b5e0 f i libucrtd:output.obj
 0001:0004a600       ??1?$standard_base@_WV?$string_output_adapter@_W@__crt_stdio_output@@@__crt_stdio_output@@QAE@XZ 1004b600 f i libucrtd:output.obj
 0001:0004a620       ??1_LocaleUpdate@@QAE@XZ   1004b620 f i libucrtd:output.obj
 0001:0004a650       ??1__acrt_stdio_temporary_buffering_guard@@QAE@XZ 1004b650 f i libucrtd:output.obj
 0001:0004a680       ??1__crt_errno_guard@@QAE@XZ 1004b680 f i libucrtd:output.obj
 0001:0004a6b0       ??1formatting_buffer@__crt_stdio_output@@QAE@XZ 1004b6b0 f i libucrtd:output.obj
 0001:0004a6d0       ??4?$__crt_unique_heap_ptr@DU__crt_internal_free_policy@@@@QAEAAV0@$$QAV0@@Z 1004b6d0 f i libucrtd:output.obj
 0001:0004a700       ??A?$spectre_mitigated_lookup_table@Ustate_transition_pair@__crt_stdio_output@@$0IA@@__crt_stdio_output@@QBEABUstate_transition_pair@1@I@Z 1004b700 f i libucrtd:output.obj
 0001:0004a720       ??C__crt_stdio_stream@@QBEPAU__crt_stdio_stream_data@@XZ 1004b720 f i libucrtd:output.obj
 0001:0004ae60       ?GetLocaleT@_LocaleUpdate@@QAEPAU__crt_locale_pointers@@XZ 1004be60 f i libucrtd:output.obj
 0001:0004ae80       ?adjust_hexit@?$output_processor@DV?$stream_output_adapter@D@__crt_stdio_output@@V?$format_validation_base@DV?$stream_output_adapter@D@__crt_stdio_output@@@2@@__crt_stdio_output@@CADH_N@Z 1004be80 f i libucrtd:output.obj
 0001:0004aec0       ?adjust_hexit@?$output_processor@DV?$stream_output_adapter@D@__crt_stdio_output@@V?$positional_parameter_base@DV?$stream_output_adapter@D@__crt_stdio_output@@@2@@__crt_stdio_output@@CADH_N@Z 1004bec0 f i libucrtd:output.obj
 0001:0004af00       ?adjust_hexit@?$output_processor@DV?$stream_output_adapter@D@__crt_stdio_output@@V?$standard_base@DV?$stream_output_adapter@D@__crt_stdio_output@@@2@@__crt_stdio_output@@CADH_N@Z 1004bf00 f i libucrtd:output.obj
 0001:0004af40       ?adjust_hexit@?$output_processor@DV?$string_output_adapter@D@__crt_stdio_output@@V?$format_validation_base@DV?$string_output_adapter@D@__crt_stdio_output@@@2@@__crt_stdio_output@@CADH_N@Z 1004bf40 f i libucrtd:output.obj
 0001:0004af80       ?adjust_hexit@?$output_processor@DV?$string_output_adapter@D@__crt_stdio_output@@V?$positional_parameter_base@DV?$string_output_adapter@D@__crt_stdio_output@@@2@@__crt_stdio_output@@CADH_N@Z 1004bf80 f i libucrtd:output.obj
 0001:0004afc0       ?adjust_hexit@?$output_processor@DV?$string_output_adapter@D@__crt_stdio_output@@V?$standard_base@DV?$string_output_adapter@D@__crt_stdio_output@@@2@@__crt_stdio_output@@CADH_N@Z 1004bfc0 f i libucrtd:output.obj
 0001:0004b000       ?adjust_hexit@?$output_processor@_WV?$stream_output_adapter@_W@__crt_stdio_output@@V?$format_validation_base@_WV?$stream_output_adapter@_W@__crt_stdio_output@@@2@@__crt_stdio_output@@CADH_N@Z 1004c000 f i libucrtd:output.obj
 0001:0004b040       ?adjust_hexit@?$output_processor@_WV?$stream_output_adapter@_W@__crt_stdio_output@@V?$positional_parameter_base@_WV?$stream_output_adapter@_W@__crt_stdio_output@@@2@@__crt_stdio_output@@CADH_N@Z 1004c040 f i libucrtd:output.obj
 0001:0004b080       ?adjust_hexit@?$output_processor@_WV?$stream_output_adapter@_W@__crt_stdio_output@@V?$standard_base@_WV?$stream_output_adapter@_W@__crt_stdio_output@@@2@@__crt_stdio_output@@CADH_N@Z 1004c080 f i libucrtd:output.obj
 0001:0004b0c0       ?adjust_hexit@?$output_processor@_WV?$string_output_adapter@_W@__crt_stdio_output@@V?$format_validation_base@_WV?$string_output_adapter@_W@__crt_stdio_output@@@2@@__crt_stdio_output@@CADH_N@Z 1004c0c0 f i libucrtd:output.obj
 0001:0004b100       ?adjust_hexit@?$output_processor@_WV?$string_output_adapter@_W@__crt_stdio_output@@V?$positional_parameter_base@_WV?$string_output_adapter@_W@__crt_stdio_output@@@2@@__crt_stdio_output@@CADH_N@Z 1004c100 f i libucrtd:output.obj
 0001:0004b140       ?adjust_hexit@?$output_processor@_WV?$string_output_adapter@_W@__crt_stdio_output@@V?$standard_base@_WV?$string_output_adapter@_W@__crt_stdio_output@@@2@@__crt_stdio_output@@CADH_N@Z 1004c140 f i libucrtd:output.obj
 0001:0004b180       ?advance_to_next_pass@?$positional_parameter_base@DV?$stream_output_adapter@D@__crt_stdio_output@@@__crt_stdio_output@@IAE_NXZ 1004c180 f i libucrtd:output.obj
 0001:0004b220       ?advance_to_next_pass@?$positional_parameter_base@DV?$string_output_adapter@D@__crt_stdio_output@@@__crt_stdio_output@@IAE_NXZ 1004c220 f i libucrtd:output.obj
 0001:0004b2c0       ?advance_to_next_pass@?$positional_parameter_base@_WV?$stream_output_adapter@_W@__crt_stdio_output@@@__crt_stdio_output@@IAE_NXZ 1004c2c0 f i libucrtd:output.obj
 0001:0004b360       ?advance_to_next_pass@?$positional_parameter_base@_WV?$string_output_adapter@_W@__crt_stdio_output@@@__crt_stdio_output@@IAE_NXZ 1004c360 f i libucrtd:output.obj
 0001:0004b400       ?advance_to_next_pass@?$standard_base@DV?$stream_output_adapter@D@__crt_stdio_output@@@__crt_stdio_output@@IAE_NXZ 1004c400 f i libucrtd:output.obj
 0001:0004b450       ?advance_to_next_pass@?$standard_base@DV?$string_output_adapter@D@__crt_stdio_output@@@__crt_stdio_output@@IAE_NXZ 1004c450 f i libucrtd:output.obj
 0001:0004b4a0       ?advance_to_next_pass@?$standard_base@_WV?$stream_output_adapter@_W@__crt_stdio_output@@@__crt_stdio_output@@IAE_NXZ 1004c4a0 f i libucrtd:output.obj
 0001:0004b4f0       ?advance_to_next_pass@?$standard_base@_WV?$string_output_adapter@_W@__crt_stdio_output@@@__crt_stdio_output@@IAE_NXZ 1004c4f0 f i libucrtd:output.obj
 0001:0004b540       ?crop_zeroes@__crt_stdio_output@@YAXPADQAU__crt_locale_pointers@@@Z 1004c540 f i libucrtd:output.obj
 0001:0004b640       ?find_next_state@?$output_processor@DV?$stream_output_adapter@D@__crt_stdio_output@@V?$format_validation_base@DV?$stream_output_adapter@D@__crt_stdio_output@@@2@@__crt_stdio_output@@ABE?AW4state@2@DW432@@Z 1004c640 f i libucrtd:output.obj
 0001:0004b6b0       ?find_next_state@?$output_processor@DV?$stream_output_adapter@D@__crt_stdio_output@@V?$positional_parameter_base@DV?$stream_output_adapter@D@__crt_stdio_output@@@2@@__crt_stdio_output@@ABE?AW4state@2@DW432@@Z 1004c6b0 f i libucrtd:output.obj
 0001:0004b720       ?find_next_state@?$output_processor@DV?$stream_output_adapter@D@__crt_stdio_output@@V?$standard_base@DV?$stream_output_adapter@D@__crt_stdio_output@@@2@@__crt_stdio_output@@ABE?AW4state@2@DW432@@Z 1004c720 f i libucrtd:output.obj
 0001:0004b790       ?find_next_state@?$output_processor@DV?$string_output_adapter@D@__crt_stdio_output@@V?$format_validation_base@DV?$string_output_adapter@D@__crt_stdio_output@@@2@@__crt_stdio_output@@ABE?AW4state@2@DW432@@Z 1004c790 f i libucrtd:output.obj
 0001:0004b800       ?find_next_state@?$output_processor@DV?$string_output_adapter@D@__crt_stdio_output@@V?$positional_parameter_base@DV?$string_output_adapter@D@__crt_stdio_output@@@2@@__crt_stdio_output@@ABE?AW4state@2@DW432@@Z 1004c800 f i libucrtd:output.obj
 0001:0004b870       ?find_next_state@?$output_processor@DV?$string_output_adapter@D@__crt_stdio_output@@V?$standard_base@DV?$string_output_adapter@D@__crt_stdio_output@@@2@@__crt_stdio_output@@ABE?AW4state@2@DW432@@Z 1004c870 f i libucrtd:output.obj
 0001:0004b8e0       ?find_next_state@?$output_processor@_WV?$stream_output_adapter@_W@__crt_stdio_output@@V?$format_validation_base@_WV?$stream_output_adapter@_W@__crt_stdio_output@@@2@@__crt_stdio_output@@ABE?AW4state@2@_WW432@@Z 1004c8e0 f i libucrtd:output.obj
 0001:0004b950       ?find_next_state@?$output_processor@_WV?$stream_output_adapter@_W@__crt_stdio_output@@V?$positional_parameter_base@_WV?$stream_output_adapter@_W@__crt_stdio_output@@@2@@__crt_stdio_output@@ABE?AW4state@2@_WW432@@Z 1004c950 f i libucrtd:output.obj
 0001:0004b9c0       ?find_next_state@?$output_processor@_WV?$stream_output_adapter@_W@__crt_stdio_output@@V?$standard_base@_WV?$stream_output_adapter@_W@__crt_stdio_output@@@2@@__crt_stdio_output@@ABE?AW4state@2@_WW432@@Z 1004c9c0 f i libucrtd:output.obj
 0001:0004ba30       ?find_next_state@?$output_processor@_WV?$string_output_adapter@_W@__crt_stdio_output@@V?$format_validation_base@_WV?$string_output_adapter@_W@__crt_stdio_output@@@2@@__crt_stdio_output@@ABE?AW4state@2@_WW432@@Z 1004ca30 f i libucrtd:output.obj
 0001:0004baa0       ?find_next_state@?$output_processor@_WV?$string_output_adapter@_W@__crt_stdio_output@@V?$positional_parameter_base@_WV?$string_output_adapter@_W@__crt_stdio_output@@@2@@__crt_stdio_output@@ABE?AW4state@2@_WW432@@Z 1004caa0 f i libucrtd:output.obj
 0001:0004bb10       ?find_next_state@?$output_processor@_WV?$string_output_adapter@_W@__crt_stdio_output@@V?$standard_base@_WV?$string_output_adapter@_W@__crt_stdio_output@@@2@@__crt_stdio_output@@ABE?AW4state@2@_WW432@@Z 1004cb10 f i libucrtd:output.obj
 0001:0004bb80       ?force_decimal_point@__crt_stdio_output@@YAXPADQAU__crt_locale_pointers@@@Z 1004cb80 f i libucrtd:output.obj
 0001:0004bc50       ?get@__crt_deferred_errno_cache@@QAEAAHXZ 1004cc50 f i libucrtd:output.obj
 0001:0004bc80       ?get_flags@__crt_stdio_stream@@QBEJXZ 1004cc80 f i libucrtd:output.obj
 0001:0004bca0       ?get_parameter_type@?$positional_parameter_base@DV?$stream_output_adapter@D@__crt_stdio_output@@@__crt_stdio_output@@CA?AW4parameter_type@12@F@Z 1004cca0 f i libucrtd:output.obj
 0001:0004bcb0       ?get_parameter_type@?$positional_parameter_base@DV?$stream_output_adapter@D@__crt_stdio_output@@@__crt_stdio_output@@CA?AW4parameter_type@12@G@Z 1004ccb0 f i libucrtd:output.obj
 0001:0004bcc0       ?get_parameter_type@?$positional_parameter_base@DV?$stream_output_adapter@D@__crt_stdio_output@@@__crt_stdio_output@@CA?AW4parameter_type@12@H@Z 1004ccc0 f i libucrtd:output.obj
 0001:0004bcd0       ?get_parameter_type@?$positional_parameter_base@DV?$stream_output_adapter@D@__crt_stdio_output@@@__crt_stdio_output@@CA?AW4parameter_type@12@I@Z 1004ccd0 f i libucrtd:output.obj
 0001:0004bce0       ?get_parameter_type@?$positional_parameter_base@DV?$stream_output_adapter@D@__crt_stdio_output@@@__crt_stdio_output@@CA?AW4parameter_type@12@U_CRT_DOUBLE@@@Z 1004cce0 f i libucrtd:output.obj
 0001:0004bcf0       ?get_parameter_type@?$positional_parameter_base@DV?$stream_output_adapter@D@__crt_stdio_output@@@__crt_stdio_output@@CA?AW4parameter_type@12@_J@Z 1004ccf0 f i libucrtd:output.obj
 0001:0004bd00       ?get_parameter_type@?$positional_parameter_base@DV?$stream_output_adapter@D@__crt_stdio_output@@@__crt_stdio_output@@CA?AW4parameter_type@12@_K@Z 1004cd00 f i libucrtd:output.obj
 0001:0004bd10       ?get_parameter_type@?$positional_parameter_base@DV?$stream_output_adapter@D@__crt_stdio_output@@@__crt_stdio_output@@CA?AW4parameter_type@12@_W@Z 1004cd10 f i libucrtd:output.obj
 0001:0004bd20       ?get_parameter_type@?$positional_parameter_base@DV?$string_output_adapter@D@__crt_stdio_output@@@__crt_stdio_output@@CA?AW4parameter_type@12@F@Z 1004cd20 f i libucrtd:output.obj
 0001:0004bd30       ?get_parameter_type@?$positional_parameter_base@DV?$string_output_adapter@D@__crt_stdio_output@@@__crt_stdio_output@@CA?AW4parameter_type@12@G@Z 1004cd30 f i libucrtd:output.obj
 0001:0004bd40       ?get_parameter_type@?$positional_parameter_base@DV?$string_output_adapter@D@__crt_stdio_output@@@__crt_stdio_output@@CA?AW4parameter_type@12@H@Z 1004cd40 f i libucrtd:output.obj
 0001:0004bd50       ?get_parameter_type@?$positional_parameter_base@DV?$string_output_adapter@D@__crt_stdio_output@@@__crt_stdio_output@@CA?AW4parameter_type@12@I@Z 1004cd50 f i libucrtd:output.obj
 0001:0004bd60       ?get_parameter_type@?$positional_parameter_base@DV?$string_output_adapter@D@__crt_stdio_output@@@__crt_stdio_output@@CA?AW4parameter_type@12@U_CRT_DOUBLE@@@Z 1004cd60 f i libucrtd:output.obj
 0001:0004bd70       ?get_parameter_type@?$positional_parameter_base@DV?$string_output_adapter@D@__crt_stdio_output@@@__crt_stdio_output@@CA?AW4parameter_type@12@_J@Z 1004cd70 f i libucrtd:output.obj
 0001:0004bd80       ?get_parameter_type@?$positional_parameter_base@DV?$string_output_adapter@D@__crt_stdio_output@@@__crt_stdio_output@@CA?AW4parameter_type@12@_K@Z 1004cd80 f i libucrtd:output.obj
 0001:0004bd90       ?get_parameter_type@?$positional_parameter_base@DV?$string_output_adapter@D@__crt_stdio_output@@@__crt_stdio_output@@CA?AW4parameter_type@12@_W@Z 1004cd90 f i libucrtd:output.obj
 0001:0004bda0       ?get_parameter_type@?$positional_parameter_base@_WV?$stream_output_adapter@_W@__crt_stdio_output@@@__crt_stdio_output@@CA?AW4parameter_type@12@F@Z 1004cda0 f i libucrtd:output.obj
 0001:0004bdb0       ?get_parameter_type@?$positional_parameter_base@_WV?$stream_output_adapter@_W@__crt_stdio_output@@@__crt_stdio_output@@CA?AW4parameter_type@12@G@Z 1004cdb0 f i libucrtd:output.obj
 0001:0004bdc0       ?get_parameter_type@?$positional_parameter_base@_WV?$stream_output_adapter@_W@__crt_stdio_output@@@__crt_stdio_output@@CA?AW4parameter_type@12@H@Z 1004cdc0 f i libucrtd:output.obj
 0001:0004bdd0       ?get_parameter_type@?$positional_parameter_base@_WV?$stream_output_adapter@_W@__crt_stdio_output@@@__crt_stdio_output@@CA?AW4parameter_type@12@I@Z 1004cdd0 f i libucrtd:output.obj
 0001:0004bde0       ?get_parameter_type@?$positional_parameter_base@_WV?$stream_output_adapter@_W@__crt_stdio_output@@@__crt_stdio_output@@CA?AW4parameter_type@12@U_CRT_DOUBLE@@@Z 1004cde0 f i libucrtd:output.obj
 0001:0004bdf0       ?get_parameter_type@?$positional_parameter_base@_WV?$stream_output_adapter@_W@__crt_stdio_output@@@__crt_stdio_output@@CA?AW4parameter_type@12@_J@Z 1004cdf0 f i libucrtd:output.obj
 0001:0004be00       ?get_parameter_type@?$positional_parameter_base@_WV?$stream_output_adapter@_W@__crt_stdio_output@@@__crt_stdio_output@@CA?AW4parameter_type@12@_K@Z 1004ce00 f i libucrtd:output.obj
 0001:0004be10       ?get_parameter_type@?$positional_parameter_base@_WV?$stream_output_adapter@_W@__crt_stdio_output@@@__crt_stdio_output@@CA?AW4parameter_type@12@_W@Z 1004ce10 f i libucrtd:output.obj
 0001:0004be20       ?get_parameter_type@?$positional_parameter_base@_WV?$string_output_adapter@_W@__crt_stdio_output@@@__crt_stdio_output@@CA?AW4parameter_type@12@F@Z 1004ce20 f i libucrtd:output.obj
 0001:0004be30       ?get_parameter_type@?$positional_parameter_base@_WV?$string_output_adapter@_W@__crt_stdio_output@@@__crt_stdio_output@@CA?AW4parameter_type@12@G@Z 1004ce30 f i libucrtd:output.obj
 0001:0004be40       ?get_parameter_type@?$positional_parameter_base@_WV?$string_output_adapter@_W@__crt_stdio_output@@@__crt_stdio_output@@CA?AW4parameter_type@12@H@Z 1004ce40 f i libucrtd:output.obj
 0001:0004be50       ?get_parameter_type@?$positional_parameter_base@_WV?$string_output_adapter@_W@__crt_stdio_output@@@__crt_stdio_output@@CA?AW4parameter_type@12@I@Z 1004ce50 f i libucrtd:output.obj
 0001:0004be60       ?get_parameter_type@?$positional_parameter_base@_WV?$string_output_adapter@_W@__crt_stdio_output@@@__crt_stdio_output@@CA?AW4parameter_type@12@U_CRT_DOUBLE@@@Z 1004ce60 f i libucrtd:output.obj
 0001:0004be70       ?get_parameter_type@?$positional_parameter_base@_WV?$string_output_adapter@_W@__crt_stdio_output@@@__crt_stdio_output@@CA?AW4parameter_type@12@_J@Z 1004ce70 f i libucrtd:output.obj
 0001:0004be80       ?get_parameter_type@?$positional_parameter_base@_WV?$string_output_adapter@_W@__crt_stdio_output@@@__crt_stdio_output@@CA?AW4parameter_type@12@_K@Z 1004ce80 f i libucrtd:output.obj
 0001:0004be90       ?get_parameter_type@?$positional_parameter_base@_WV?$string_output_adapter@_W@__crt_stdio_output@@@__crt_stdio_output@@CA?AW4parameter_type@12@_W@Z 1004ce90 f i libucrtd:output.obj
 0001:0004bea0       ?has_flag@?$output_processor@DV?$stream_output_adapter@D@__crt_stdio_output@@V?$format_validation_base@DV?$stream_output_adapter@D@__crt_stdio_output@@@2@@__crt_stdio_output@@ABE_NI@Z 1004cea0 f i libucrtd:output.obj
 0001:0004bed0       ?has_flag@?$output_processor@DV?$stream_output_adapter@D@__crt_stdio_output@@V?$positional_parameter_base@DV?$stream_output_adapter@D@__crt_stdio_output@@@2@@__crt_stdio_output@@ABE_NI@Z 1004ced0 f i libucrtd:output.obj
 0001:0004bf00       ?has_flag@?$output_processor@DV?$stream_output_adapter@D@__crt_stdio_output@@V?$standard_base@DV?$stream_output_adapter@D@__crt_stdio_output@@@2@@__crt_stdio_output@@ABE_NI@Z 1004cf00 f i libucrtd:output.obj
 0001:0004bf30       ?has_flag@?$output_processor@DV?$string_output_adapter@D@__crt_stdio_output@@V?$format_validation_base@DV?$string_output_adapter@D@__crt_stdio_output@@@2@@__crt_stdio_output@@ABE_NI@Z 1004cf30 f i libucrtd:output.obj
 0001:0004bf60       ?has_flag@?$output_processor@DV?$string_output_adapter@D@__crt_stdio_output@@V?$positional_parameter_base@DV?$string_output_adapter@D@__crt_stdio_output@@@2@@__crt_stdio_output@@ABE_NI@Z 1004cf60 f i libucrtd:output.obj
 0001:0004bf90       ?has_flag@?$output_processor@DV?$string_output_adapter@D@__crt_stdio_output@@V?$standard_base@DV?$string_output_adapter@D@__crt_stdio_output@@@2@@__crt_stdio_output@@ABE_NI@Z 1004cf90 f i libucrtd:output.obj
 0001:0004bfc0       ?has_flag@?$output_processor@_WV?$stream_output_adapter@_W@__crt_stdio_output@@V?$format_validation_base@_WV?$stream_output_adapter@_W@__crt_stdio_output@@@2@@__crt_stdio_output@@ABE_NI@Z 1004cfc0 f i libucrtd:output.obj
 0001:0004bff0       ?has_flag@?$output_processor@_WV?$stream_output_adapter@_W@__crt_stdio_output@@V?$positional_parameter_base@_WV?$stream_output_adapter@_W@__crt_stdio_output@@@2@@__crt_stdio_output@@ABE_NI@Z 1004cff0 f i libucrtd:output.obj
 0001:0004c020       ?has_flag@?$output_processor@_WV?$stream_output_adapter@_W@__crt_stdio_output@@V?$standard_base@_WV?$stream_output_adapter@_W@__crt_stdio_output@@@2@@__crt_stdio_output@@ABE_NI@Z 1004d020 f i libucrtd:output.obj
 0001:0004c050       ?has_flag@?$output_processor@_WV?$string_output_adapter@_W@__crt_stdio_output@@V?$format_validation_base@_WV?$string_output_adapter@_W@__crt_stdio_output@@@2@@__crt_stdio_output@@ABE_NI@Z 1004d050 f i libucrtd:output.obj
 0001:0004c080       ?has_flag@?$output_processor@_WV?$string_output_adapter@_W@__crt_stdio_output@@V?$positional_parameter_base@_WV?$string_output_adapter@_W@__crt_stdio_output@@@2@@__crt_stdio_output@@ABE_NI@Z 1004d080 f i libucrtd:output.obj
 0001:0004c0b0       ?has_flag@?$output_processor@_WV?$string_output_adapter@_W@__crt_stdio_output@@V?$standard_base@_WV?$string_output_adapter@_W@__crt_stdio_output@@@2@@__crt_stdio_output@@ABE_NI@Z 1004d0b0 f i libucrtd:output.obj
 0001:0004c0e0       ?is_positional_parameter_reappearance_consistent@?$positional_parameter_base@DV?$stream_output_adapter@D@__crt_stdio_output@@@__crt_stdio_output@@AAE_NABUparameter_data@12@W4parameter_type@12@DW4length_modifier@2@@Z 1004d0e0 f i libucrtd:output.obj
 0001:0004c310       ?is_positional_parameter_reappearance_consistent@?$positional_parameter_base@DV?$string_output_adapter@D@__crt_stdio_output@@@__crt_stdio_output@@AAE_NABUparameter_data@12@W4parameter_type@12@DW4length_modifier@2@@Z 1004d310 f i libucrtd:output.obj
 0001:0004c540       ?is_positional_parameter_reappearance_consistent@?$positional_parameter_base@_WV?$stream_output_adapter@_W@__crt_stdio_output@@@__crt_stdio_output@@AAE_NABUparameter_data@12@W4parameter_type@12@_WW4length_modifier@2@@Z 1004d540 f i libucrtd:output.obj
 0001:0004c770       ?is_positional_parameter_reappearance_consistent@?$positional_parameter_base@_WV?$string_output_adapter@_W@__crt_stdio_output@@@__crt_stdio_output@@AAE_NABUparameter_data@12@W4parameter_type@12@_WW4length_modifier@2@@Z 1004d770 f i libucrtd:output.obj
 0001:0004c9a0       ?is_string_backed@__crt_stdio_stream@@QBE_NXZ 1004d9a0 f i libucrtd:output.obj
 0001:0004c9e0       ?narrow_null_string@?$output_processor@DV?$stream_output_adapter@D@__crt_stdio_output@@V?$format_validation_base@DV?$stream_output_adapter@D@__crt_stdio_output@@@2@@__crt_stdio_output@@CAPADXZ 1004d9e0 f i libucrtd:output.obj
 0001:0004c9f0       ?narrow_null_string@?$output_processor@DV?$stream_output_adapter@D@__crt_stdio_output@@V?$positional_parameter_base@DV?$stream_output_adapter@D@__crt_stdio_output@@@2@@__crt_stdio_output@@CAPADXZ 1004d9f0 f i libucrtd:output.obj
 0001:0004ca00       ?narrow_null_string@?$output_processor@DV?$stream_output_adapter@D@__crt_stdio_output@@V?$standard_base@DV?$stream_output_adapter@D@__crt_stdio_output@@@2@@__crt_stdio_output@@CAPADXZ 1004da00 f i libucrtd:output.obj
 0001:0004ca10       ?narrow_null_string@?$output_processor@DV?$string_output_adapter@D@__crt_stdio_output@@V?$format_validation_base@DV?$string_output_adapter@D@__crt_stdio_output@@@2@@__crt_stdio_output@@CAPADXZ 1004da10 f i libucrtd:output.obj
 0001:0004ca20       ?narrow_null_string@?$output_processor@DV?$string_output_adapter@D@__crt_stdio_output@@V?$positional_parameter_base@DV?$string_output_adapter@D@__crt_stdio_output@@@2@@__crt_stdio_output@@CAPADXZ 1004da20 f i libucrtd:output.obj
 0001:0004ca30       ?narrow_null_string@?$output_processor@DV?$string_output_adapter@D@__crt_stdio_output@@V?$standard_base@DV?$string_output_adapter@D@__crt_stdio_output@@@2@@__crt_stdio_output@@CAPADXZ 1004da30 f i libucrtd:output.obj
 0001:0004ca40       ?narrow_null_string@?$output_processor@_WV?$stream_output_adapter@_W@__crt_stdio_output@@V?$format_validation_base@_WV?$stream_output_adapter@_W@__crt_stdio_output@@@2@@__crt_stdio_output@@CAPADXZ 1004da40 f i libucrtd:output.obj
 0001:0004ca50       ?narrow_null_string@?$output_processor@_WV?$stream_output_adapter@_W@__crt_stdio_output@@V?$positional_parameter_base@_WV?$stream_output_adapter@_W@__crt_stdio_output@@@2@@__crt_stdio_output@@CAPADXZ 1004da50 f i libucrtd:output.obj
 0001:0004ca60       ?narrow_null_string@?$output_processor@_WV?$stream_output_adapter@_W@__crt_stdio_output@@V?$standard_base@_WV?$stream_output_adapter@_W@__crt_stdio_output@@@2@@__crt_stdio_output@@CAPADXZ 1004da60 f i libucrtd:output.obj
 0001:0004ca70       ?narrow_null_string@?$output_processor@_WV?$string_output_adapter@_W@__crt_stdio_output@@V?$format_validation_base@_WV?$string_output_adapter@_W@__crt_stdio_output@@@2@@__crt_stdio_output@@CAPADXZ 1004da70 f i libucrtd:output.obj
 0001:0004ca80       ?narrow_null_string@?$output_processor@_WV?$string_output_adapter@_W@__crt_stdio_output@@V?$positional_parameter_base@_WV?$string_output_adapter@_W@__crt_stdio_output@@@2@@__crt_stdio_output@@CAPADXZ 1004da80 f i libucrtd:output.obj
 0001:0004ca90       ?narrow_null_string@?$output_processor@_WV?$string_output_adapter@_W@__crt_stdio_output@@V?$standard_base@_WV?$string_output_adapter@_W@__crt_stdio_output@@@2@@__crt_stdio_output@@CAPADXZ 1004da90 f i libucrtd:output.obj
 0001:0004caa0       ?parse_int_from_format_string@?$output_processor@DV?$stream_output_adapter@D@__crt_stdio_output@@V?$format_validation_base@DV?$stream_output_adapter@D@__crt_stdio_output@@@2@@__crt_stdio_output@@AAE_NQAH@Z 1004daa0 f i libucrtd:output.obj
 0001:0004cb60       ?parse_int_from_format_string@?$output_processor@DV?$stream_output_adapter@D@__crt_stdio_output@@V?$positional_parameter_base@DV?$stream_output_adapter@D@__crt_stdio_output@@@2@@__crt_stdio_output@@AAE_NQAH@Z 1004db60 f i libucrtd:output.obj
 0001:0004cc20       ?parse_int_from_format_string@?$output_processor@DV?$stream_output_adapter@D@__crt_stdio_output@@V?$standard_base@DV?$stream_output_adapter@D@__crt_stdio_output@@@2@@__crt_stdio_output@@AAE_NQAH@Z 1004dc20 f i libucrtd:output.obj
 0001:0004cce0       ?parse_int_from_format_string@?$output_processor@DV?$string_output_adapter@D@__crt_stdio_output@@V?$format_validation_base@DV?$string_output_adapter@D@__crt_stdio_output@@@2@@__crt_stdio_output@@AAE_NQAH@Z 1004dce0 f i libucrtd:output.obj
 0001:0004cda0       ?parse_int_from_format_string@?$output_processor@DV?$string_output_adapter@D@__crt_stdio_output@@V?$positional_parameter_base@DV?$string_output_adapter@D@__crt_stdio_output@@@2@@__crt_stdio_output@@AAE_NQAH@Z 1004dda0 f i libucrtd:output.obj
 0001:0004ce60       ?parse_int_from_format_string@?$output_processor@DV?$string_output_adapter@D@__crt_stdio_output@@V?$standard_base@DV?$string_output_adapter@D@__crt_stdio_output@@@2@@__crt_stdio_output@@AAE_NQAH@Z 1004de60 f i libucrtd:output.obj
 0001:0004cf20       ?parse_int_from_format_string@?$output_processor@_WV?$stream_output_adapter@_W@__crt_stdio_output@@V?$format_validation_base@_WV?$stream_output_adapter@_W@__crt_stdio_output@@@2@@__crt_stdio_output@@AAE_NQAH@Z 1004df20 f i libucrtd:output.obj
 0001:0004cfe0       ?parse_int_from_format_string@?$output_processor@_WV?$stream_output_adapter@_W@__crt_stdio_output@@V?$positional_parameter_base@_WV?$stream_output_adapter@_W@__crt_stdio_output@@@2@@__crt_stdio_output@@AAE_NQAH@Z 1004dfe0 f i libucrtd:output.obj
 0001:0004d0a0       ?parse_int_from_format_string@?$output_processor@_WV?$stream_output_adapter@_W@__crt_stdio_output@@V?$standard_base@_WV?$stream_output_adapter@_W@__crt_stdio_output@@@2@@__crt_stdio_output@@AAE_NQAH@Z 1004e0a0 f i libucrtd:output.obj
 0001:0004d160       ?parse_int_from_format_string@?$output_processor@_WV?$string_output_adapter@_W@__crt_stdio_output@@V?$format_validation_base@_WV?$string_output_adapter@_W@__crt_stdio_output@@@2@@__crt_stdio_output@@AAE_NQAH@Z 1004e160 f i libucrtd:output.obj
 0001:0004d220       ?parse_int_from_format_string@?$output_processor@_WV?$string_output_adapter@_W@__crt_stdio_output@@V?$positional_parameter_base@_WV?$string_output_adapter@_W@__crt_stdio_output@@@2@@__crt_stdio_output@@AAE_NQAH@Z 1004e220 f i libucrtd:output.obj
 0001:0004d2e0       ?parse_int_from_format_string@?$output_processor@_WV?$string_output_adapter@_W@__crt_stdio_output@@V?$standard_base@_WV?$string_output_adapter@_W@__crt_stdio_output@@@2@@__crt_stdio_output@@AAE_NQAH@Z 1004e2e0 f i libucrtd:output.obj
 0001:0004d3a0       ?process@?$output_processor@DV?$stream_output_adapter@D@__crt_stdio_output@@V?$format_validation_base@DV?$stream_output_adapter@D@__crt_stdio_output@@@2@@__crt_stdio_output@@QAEHXZ 1004e3a0 f i libucrtd:output.obj
 0001:0004d650       ?process@?$output_processor@DV?$stream_output_adapter@D@__crt_stdio_output@@V?$positional_parameter_base@DV?$stream_output_adapter@D@__crt_stdio_output@@@2@@__crt_stdio_output@@QAEHXZ 1004e650 f i libucrtd:output.obj
 0001:0004d900       ?process@?$output_processor@DV?$stream_output_adapter@D@__crt_stdio_output@@V?$standard_base@DV?$stream_output_adapter@D@__crt_stdio_output@@@2@@__crt_stdio_output@@QAEHXZ 1004e900 f i libucrtd:output.obj
 0001:0004dbb0       ?process@?$output_processor@DV?$string_output_adapter@D@__crt_stdio_output@@V?$format_validation_base@DV?$string_output_adapter@D@__crt_stdio_output@@@2@@__crt_stdio_output@@QAEHXZ 1004ebb0 f i libucrtd:output.obj
 0001:0004de60       ?process@?$output_processor@DV?$string_output_adapter@D@__crt_stdio_output@@V?$positional_parameter_base@DV?$string_output_adapter@D@__crt_stdio_output@@@2@@__crt_stdio_output@@QAEHXZ 1004ee60 f i libucrtd:output.obj
 0001:0004e110       ?process@?$output_processor@DV?$string_output_adapter@D@__crt_stdio_output@@V?$standard_base@DV?$string_output_adapter@D@__crt_stdio_output@@@2@@__crt_stdio_output@@QAEHXZ 1004f110 f i libucrtd:output.obj
 0001:0004e3c0       ?process@?$output_processor@_WV?$stream_output_adapter@_W@__crt_stdio_output@@V?$format_validation_base@_WV?$stream_output_adapter@_W@__crt_stdio_output@@@2@@__crt_stdio_output@@QAEHXZ 1004f3c0 f i libucrtd:output.obj
 0001:0004e670       ?process@?$output_processor@_WV?$stream_output_adapter@_W@__crt_stdio_output@@V?$positional_parameter_base@_WV?$stream_output_adapter@_W@__crt_stdio_output@@@2@@__crt_stdio_output@@QAEHXZ 1004f670 f i libucrtd:output.obj
 0001:0004e920       ?process@?$output_processor@_WV?$stream_output_adapter@_W@__crt_stdio_output@@V?$standard_base@_WV?$stream_output_adapter@_W@__crt_stdio_output@@@2@@__crt_stdio_output@@QAEHXZ 1004f920 f i libucrtd:output.obj
 0001:0004ebd0       ?process@?$output_processor@_WV?$string_output_adapter@_W@__crt_stdio_output@@V?$format_validation_base@_WV?$string_output_adapter@_W@__crt_stdio_output@@@2@@__crt_stdio_output@@QAEHXZ 1004fbd0 f i libucrtd:output.obj
 0001:0004ee80       ?process@?$output_processor@_WV?$string_output_adapter@_W@__crt_stdio_output@@V?$positional_parameter_base@_WV?$string_output_adapter@_W@__crt_stdio_output@@@2@@__crt_stdio_output@@QAEHXZ 1004fe80 f i libucrtd:output.obj
 0001:0004f130       ?process@?$output_processor@_WV?$string_output_adapter@_W@__crt_stdio_output@@V?$standard_base@_WV?$string_output_adapter@_W@__crt_stdio_output@@@2@@__crt_stdio_output@@QAEHXZ 10050130 f i libucrtd:output.obj
 0001:0004f3e0       ?public_stream@__crt_stdio_stream@@QBEPAU_iobuf@@XZ 100503e0 f i libucrtd:output.obj
 0001:0004f400       ?set_flag@?$output_processor@DV?$stream_output_adapter@D@__crt_stdio_output@@V?$format_validation_base@DV?$stream_output_adapter@D@__crt_stdio_output@@@2@@__crt_stdio_output@@AAEXI@Z 10050400 f i libucrtd:output.obj
 0001:0004f420       ?set_flag@?$output_processor@DV?$stream_output_adapter@D@__crt_stdio_output@@V?$positional_parameter_base@DV?$stream_output_adapter@D@__crt_stdio_output@@@2@@__crt_stdio_output@@AAEXI@Z 10050420 f i libucrtd:output.obj
 0001:0004f440       ?set_flag@?$output_processor@DV?$stream_output_adapter@D@__crt_stdio_output@@V?$standard_base@DV?$stream_output_adapter@D@__crt_stdio_output@@@2@@__crt_stdio_output@@AAEXI@Z 10050440 f i libucrtd:output.obj
 0001:0004f460       ?set_flag@?$output_processor@DV?$string_output_adapter@D@__crt_stdio_output@@V?$format_validation_base@DV?$string_output_adapter@D@__crt_stdio_output@@@2@@__crt_stdio_output@@AAEXI@Z 10050460 f i libucrtd:output.obj
 0001:0004f480       ?set_flag@?$output_processor@DV?$string_output_adapter@D@__crt_stdio_output@@V?$positional_parameter_base@DV?$string_output_adapter@D@__crt_stdio_output@@@2@@__crt_stdio_output@@AAEXI@Z 10050480 f i libucrtd:output.obj
 0001:0004f4a0       ?set_flag@?$output_processor@DV?$string_output_adapter@D@__crt_stdio_output@@V?$standard_base@DV?$string_output_adapter@D@__crt_stdio_output@@@2@@__crt_stdio_output@@AAEXI@Z 100504a0 f i libucrtd:output.obj
 0001:0004f4c0       ?set_flag@?$output_processor@_WV?$stream_output_adapter@_W@__crt_stdio_output@@V?$format_validation_base@_WV?$stream_output_adapter@_W@__crt_stdio_output@@@2@@__crt_stdio_output@@AAEXI@Z 100504c0 f i libucrtd:output.obj
 0001:0004f4e0       ?set_flag@?$output_processor@_WV?$stream_output_adapter@_W@__crt_stdio_output@@V?$positional_parameter_base@_WV?$stream_output_adapter@_W@__crt_stdio_output@@@2@@__crt_stdio_output@@AAEXI@Z 100504e0 f i libucrtd:output.obj
 0001:0004f500       ?set_flag@?$output_processor@_WV?$stream_output_adapter@_W@__crt_stdio_output@@V?$standard_base@_WV?$stream_output_adapter@_W@__crt_stdio_output@@@2@@__crt_stdio_output@@AAEXI@Z 10050500 f i libucrtd:output.obj
 0001:0004f520       ?set_flag@?$output_processor@_WV?$string_output_adapter@_W@__crt_stdio_output@@V?$format_validation_base@_WV?$string_output_adapter@_W@__crt_stdio_output@@@2@@__crt_stdio_output@@AAEXI@Z 10050520 f i libucrtd:output.obj
 0001:0004f540       ?set_flag@?$output_processor@_WV?$string_output_adapter@_W@__crt_stdio_output@@V?$positional_parameter_base@_WV?$string_output_adapter@_W@__crt_stdio_output@@@2@@__crt_stdio_output@@AAEXI@Z 10050540 f i libucrtd:output.obj
 0001:0004f560       ?set_flag@?$output_processor@_WV?$string_output_adapter@_W@__crt_stdio_output@@V?$standard_base@_WV?$string_output_adapter@_W@__crt_stdio_output@@@2@@__crt_stdio_output@@AAEXI@Z 10050560 f i libucrtd:output.obj
 0001:0004f580       ?should_format@?$positional_parameter_base@DV?$stream_output_adapter@D@__crt_stdio_output@@@__crt_stdio_output@@IAE_NXZ 10050580 f i libucrtd:output.obj
 0001:0004f5c0       ?should_format@?$positional_parameter_base@DV?$string_output_adapter@D@__crt_stdio_output@@@__crt_stdio_output@@IAE_NXZ 100505c0 f i libucrtd:output.obj
 0001:0004f600       ?should_format@?$positional_parameter_base@_WV?$stream_output_adapter@_W@__crt_stdio_output@@@__crt_stdio_output@@IAE_NXZ 10050600 f i libucrtd:output.obj
 0001:0004f640       ?should_format@?$positional_parameter_base@_WV?$string_output_adapter@_W@__crt_stdio_output@@@__crt_stdio_output@@IAE_NXZ 10050640 f i libucrtd:output.obj
 0001:0004f680       ?should_format@?$standard_base@DV?$stream_output_adapter@D@__crt_stdio_output@@@__crt_stdio_output@@IAE_NXZ 10050680 f i libucrtd:output.obj
 0001:0004f690       ?should_format@?$standard_base@DV?$string_output_adapter@D@__crt_stdio_output@@@__crt_stdio_output@@IAE_NXZ 10050690 f i libucrtd:output.obj
 0001:0004f6a0       ?should_format@?$standard_base@_WV?$stream_output_adapter@_W@__crt_stdio_output@@@__crt_stdio_output@@IAE_NXZ 100506a0 f i libucrtd:output.obj
 0001:0004f6b0       ?should_format@?$standard_base@_WV?$string_output_adapter@_W@__crt_stdio_output@@@__crt_stdio_output@@IAE_NXZ 100506b0 f i libucrtd:output.obj
 0001:0004f6c0       ?should_skip_normal_state_processing@?$positional_parameter_base@DV?$stream_output_adapter@D@__crt_stdio_output@@@__crt_stdio_output@@IAE_NXZ 100506c0 f i libucrtd:output.obj
 0001:0004f710       ?should_skip_normal_state_processing@?$positional_parameter_base@DV?$string_output_adapter@D@__crt_stdio_output@@@__crt_stdio_output@@IAE_NXZ 10050710 f i libucrtd:output.obj
 0001:0004f760       ?should_skip_normal_state_processing@?$positional_parameter_base@_WV?$stream_output_adapter@_W@__crt_stdio_output@@@__crt_stdio_output@@IAE_NXZ 10050760 f i libucrtd:output.obj
 0001:0004f7b0       ?should_skip_normal_state_processing@?$positional_parameter_base@_WV?$string_output_adapter@_W@__crt_stdio_output@@@__crt_stdio_output@@IAE_NXZ 100507b0 f i libucrtd:output.obj
 0001:0004f800       ?should_skip_normal_state_processing@?$standard_base@DV?$stream_output_adapter@D@__crt_stdio_output@@@__crt_stdio_output@@IAE_NXZ 10050800 f i libucrtd:output.obj
 0001:0004f810       ?should_skip_normal_state_processing@?$standard_base@DV?$string_output_adapter@D@__crt_stdio_output@@@__crt_stdio_output@@IAE_NXZ 10050810 f i libucrtd:output.obj
 0001:0004f820       ?should_skip_normal_state_processing@?$standard_base@_WV?$stream_output_adapter@_W@__crt_stdio_output@@@__crt_stdio_output@@IAE_NXZ 10050820 f i libucrtd:output.obj
 0001:0004f830       ?should_skip_normal_state_processing@?$standard_base@_WV?$string_output_adapter@_W@__crt_stdio_output@@@__crt_stdio_output@@IAE_NXZ 10050830 f i libucrtd:output.obj
 0001:0004f840       ?should_skip_type_state_output@?$positional_parameter_base@DV?$stream_output_adapter@D@__crt_stdio_output@@@__crt_stdio_output@@IBE_NXZ 10050840 f i libucrtd:output.obj
 0001:0004f880       ?should_skip_type_state_output@?$positional_parameter_base@DV?$string_output_adapter@D@__crt_stdio_output@@@__crt_stdio_output@@IBE_NXZ 10050880 f i libucrtd:output.obj
 0001:0004f8c0       ?should_skip_type_state_output@?$positional_parameter_base@_WV?$stream_output_adapter@_W@__crt_stdio_output@@@__crt_stdio_output@@IBE_NXZ 100508c0 f i libucrtd:output.obj
 0001:0004f900       ?should_skip_type_state_output@?$positional_parameter_base@_WV?$string_output_adapter@_W@__crt_stdio_output@@@__crt_stdio_output@@IBE_NXZ 10050900 f i libucrtd:output.obj
 0001:0004f940       ?should_skip_type_state_output@?$standard_base@DV?$stream_output_adapter@D@__crt_stdio_output@@@__crt_stdio_output@@IBE_NXZ 10050940 f i libucrtd:output.obj
 0001:0004f950       ?should_skip_type_state_output@?$standard_base@DV?$string_output_adapter@D@__crt_stdio_output@@@__crt_stdio_output@@IBE_NXZ 10050950 f i libucrtd:output.obj
 0001:0004f960       ?should_skip_type_state_output@?$standard_base@_WV?$stream_output_adapter@_W@__crt_stdio_output@@@__crt_stdio_output@@IBE_NXZ 10050960 f i libucrtd:output.obj
 0001:0004f970       ?should_skip_type_state_output@?$standard_base@_WV?$string_output_adapter@_W@__crt_stdio_output@@@__crt_stdio_output@@IBE_NXZ 10050970 f i libucrtd:output.obj
 0001:0004f980       ?state_case_dot@?$output_processor@DV?$stream_output_adapter@D@__crt_stdio_output@@V?$format_validation_base@DV?$stream_output_adapter@D@__crt_stdio_output@@@2@@__crt_stdio_output@@AAE_NXZ 10050980 f i libucrtd:output.obj
 0001:0004f9a0       ?state_case_dot@?$output_processor@DV?$stream_output_adapter@D@__crt_stdio_output@@V?$positional_parameter_base@DV?$stream_output_adapter@D@__crt_stdio_output@@@2@@__crt_stdio_output@@AAE_NXZ 100509a0 f i libucrtd:output.obj
 0001:0004f9c0       ?state_case_dot@?$output_processor@DV?$stream_output_adapter@D@__crt_stdio_output@@V?$standard_base@DV?$stream_output_adapter@D@__crt_stdio_output@@@2@@__crt_stdio_output@@AAE_NXZ 100509c0 f i libucrtd:output.obj
 0001:0004f9e0       ?state_case_dot@?$output_processor@DV?$string_output_adapter@D@__crt_stdio_output@@V?$format_validation_base@DV?$string_output_adapter@D@__crt_stdio_output@@@2@@__crt_stdio_output@@AAE_NXZ 100509e0 f i libucrtd:output.obj
 0001:0004fa00       ?state_case_dot@?$output_processor@DV?$string_output_adapter@D@__crt_stdio_output@@V?$positional_parameter_base@DV?$string_output_adapter@D@__crt_stdio_output@@@2@@__crt_stdio_output@@AAE_NXZ 10050a00 f i libucrtd:output.obj
 0001:0004fa20       ?state_case_dot@?$output_processor@DV?$string_output_adapter@D@__crt_stdio_output@@V?$standard_base@DV?$string_output_adapter@D@__crt_stdio_output@@@2@@__crt_stdio_output@@AAE_NXZ 10050a20 f i libucrtd:output.obj
 0001:0004fa40       ?state_case_dot@?$output_processor@_WV?$stream_output_adapter@_W@__crt_stdio_output@@V?$format_validation_base@_WV?$stream_output_adapter@_W@__crt_stdio_output@@@2@@__crt_stdio_output@@AAE_NXZ 10050a40 f i libucrtd:output.obj
 0001:0004fa60       ?state_case_dot@?$output_processor@_WV?$stream_output_adapter@_W@__crt_stdio_output@@V?$positional_parameter_base@_WV?$stream_output_adapter@_W@__crt_stdio_output@@@2@@__crt_stdio_output@@AAE_NXZ 10050a60 f i libucrtd:output.obj
 0001:0004fa80       ?state_case_dot@?$output_processor@_WV?$stream_output_adapter@_W@__crt_stdio_output@@V?$standard_base@_WV?$stream_output_adapter@_W@__crt_stdio_output@@@2@@__crt_stdio_output@@AAE_NXZ 10050a80 f i libucrtd:output.obj
 0001:0004faa0       ?state_case_dot@?$output_processor@_WV?$string_output_adapter@_W@__crt_stdio_output@@V?$format_validation_base@_WV?$string_output_adapter@_W@__crt_stdio_output@@@2@@__crt_stdio_output@@AAE_NXZ 10050aa0 f i libucrtd:output.obj
 0001:0004fac0       ?state_case_dot@?$output_processor@_WV?$string_output_adapter@_W@__crt_stdio_output@@V?$positional_parameter_base@_WV?$string_output_adapter@_W@__crt_stdio_output@@@2@@__crt_stdio_output@@AAE_NXZ 10050ac0 f i libucrtd:output.obj
 0001:0004fae0       ?state_case_dot@?$output_processor@_WV?$string_output_adapter@_W@__crt_stdio_output@@V?$standard_base@_WV?$string_output_adapter@_W@__crt_stdio_output@@@2@@__crt_stdio_output@@AAE_NXZ 10050ae0 f i libucrtd:output.obj
 0001:0004fb00       ?state_case_flag@?$output_processor@DV?$stream_output_adapter@D@__crt_stdio_output@@V?$format_validation_base@DV?$stream_output_adapter@D@__crt_stdio_output@@@2@@__crt_stdio_output@@AAE_NXZ 10050b00 f i libucrtd:output.obj
 0001:0004fbb0       ?state_case_flag@?$output_processor@DV?$stream_output_adapter@D@__crt_stdio_output@@V?$positional_parameter_base@DV?$stream_output_adapter@D@__crt_stdio_output@@@2@@__crt_stdio_output@@AAE_NXZ 10050bb0 f i libucrtd:output.obj
 0001:0004fc60       ?state_case_flag@?$output_processor@DV?$stream_output_adapter@D@__crt_stdio_output@@V?$standard_base@DV?$stream_output_adapter@D@__crt_stdio_output@@@2@@__crt_stdio_output@@AAE_NXZ 10050c60 f i libucrtd:output.obj
 0001:0004fd10       ?state_case_flag@?$output_processor@DV?$string_output_adapter@D@__crt_stdio_output@@V?$format_validation_base@DV?$string_output_adapter@D@__crt_stdio_output@@@2@@__crt_stdio_output@@AAE_NXZ 10050d10 f i libucrtd:output.obj
 0001:0004fdc0       ?state_case_flag@?$output_processor@DV?$string_output_adapter@D@__crt_stdio_output@@V?$positional_parameter_base@DV?$string_output_adapter@D@__crt_stdio_output@@@2@@__crt_stdio_output@@AAE_NXZ 10050dc0 f i libucrtd:output.obj
 0001:0004fe70       ?state_case_flag@?$output_processor@DV?$string_output_adapter@D@__crt_stdio_output@@V?$standard_base@DV?$string_output_adapter@D@__crt_stdio_output@@@2@@__crt_stdio_output@@AAE_NXZ 10050e70 f i libucrtd:output.obj
 0001:0004ff20       ?state_case_flag@?$output_processor@_WV?$stream_output_adapter@_W@__crt_stdio_output@@V?$format_validation_base@_WV?$stream_output_adapter@_W@__crt_stdio_output@@@2@@__crt_stdio_output@@AAE_NXZ 10050f20 f i libucrtd:output.obj
 0001:0004ffd0       ?state_case_flag@?$output_processor@_WV?$stream_output_adapter@_W@__crt_stdio_output@@V?$positional_parameter_base@_WV?$stream_output_adapter@_W@__crt_stdio_output@@@2@@__crt_stdio_output@@AAE_NXZ 10050fd0 f i libucrtd:output.obj
 0001:00050080       ?state_case_flag@?$output_processor@_WV?$stream_output_adapter@_W@__crt_stdio_output@@V?$standard_base@_WV?$stream_output_adapter@_W@__crt_stdio_output@@@2@@__crt_stdio_output@@AAE_NXZ 10051080 f i libucrtd:output.obj
 0001:00050130       ?state_case_flag@?$output_processor@_WV?$string_output_adapter@_W@__crt_stdio_output@@V?$format_validation_base@_WV?$string_output_adapter@_W@__crt_stdio_output@@@2@@__crt_stdio_output@@AAE_NXZ 10051130 f i libucrtd:output.obj
 0001:000501e0       ?state_case_flag@?$output_processor@_WV?$string_output_adapter@_W@__crt_stdio_output@@V?$positional_parameter_base@_WV?$string_output_adapter@_W@__crt_stdio_output@@@2@@__crt_stdio_output@@AAE_NXZ 100511e0 f i libucrtd:output.obj
 0001:00050290       ?state_case_flag@?$output_processor@_WV?$string_output_adapter@_W@__crt_stdio_output@@V?$standard_base@_WV?$string_output_adapter@_W@__crt_stdio_output@@@2@@__crt_stdio_output@@AAE_NXZ 10051290 f i libucrtd:output.obj
 0001:00050340       ?state_case_normal@?$output_processor@DV?$stream_output_adapter@D@__crt_stdio_output@@V?$format_validation_base@DV?$stream_output_adapter@D@__crt_stdio_output@@@2@@__crt_stdio_output@@AAE_NXZ 10051340 f i libucrtd:output.obj
 0001:000503f0       ?state_case_normal@?$output_processor@DV?$stream_output_adapter@D@__crt_stdio_output@@V?$positional_parameter_base@DV?$stream_output_adapter@D@__crt_stdio_output@@@2@@__crt_stdio_output@@AAE_NXZ 100513f0 f i libucrtd:output.obj
 0001:000504a0       ?state_case_normal@?$output_processor@DV?$stream_output_adapter@D@__crt_stdio_output@@V?$standard_base@DV?$stream_output_adapter@D@__crt_stdio_output@@@2@@__crt_stdio_output@@AAE_NXZ 100514a0 f i libucrtd:output.obj
 0001:00050550       ?state_case_normal@?$output_processor@DV?$string_output_adapter@D@__crt_stdio_output@@V?$format_validation_base@DV?$string_output_adapter@D@__crt_stdio_output@@@2@@__crt_stdio_output@@AAE_NXZ 10051550 f i libucrtd:output.obj
 0001:00050600       ?state_case_normal@?$output_processor@DV?$string_output_adapter@D@__crt_stdio_output@@V?$positional_parameter_base@DV?$string_output_adapter@D@__crt_stdio_output@@@2@@__crt_stdio_output@@AAE_NXZ 10051600 f i libucrtd:output.obj
 0001:000506b0       ?state_case_normal@?$output_processor@DV?$string_output_adapter@D@__crt_stdio_output@@V?$standard_base@DV?$string_output_adapter@D@__crt_stdio_output@@@2@@__crt_stdio_output@@AAE_NXZ 100516b0 f i libucrtd:output.obj
 0001:00050760       ?state_case_normal@?$output_processor@_WV?$stream_output_adapter@_W@__crt_stdio_output@@V?$format_validation_base@_WV?$stream_output_adapter@_W@__crt_stdio_output@@@2@@__crt_stdio_output@@AAE_NXZ 10051760 f i libucrtd:output.obj
 0001:00050810       ?state_case_normal@?$output_processor@_WV?$stream_output_adapter@_W@__crt_stdio_output@@V?$positional_parameter_base@_WV?$stream_output_adapter@_W@__crt_stdio_output@@@2@@__crt_stdio_output@@AAE_NXZ 10051810 f i libucrtd:output.obj
 0001:000508c0       ?state_case_normal@?$output_processor@_WV?$stream_output_adapter@_W@__crt_stdio_output@@V?$standard_base@_WV?$stream_output_adapter@_W@__crt_stdio_output@@@2@@__crt_stdio_output@@AAE_NXZ 100518c0 f i libucrtd:output.obj
 0001:00050970       ?state_case_normal@?$output_processor@_WV?$string_output_adapter@_W@__crt_stdio_output@@V?$format_validation_base@_WV?$string_output_adapter@_W@__crt_stdio_output@@@2@@__crt_stdio_output@@AAE_NXZ 10051970 f i libucrtd:output.obj
 0001:00050a20       ?state_case_normal@?$output_processor@_WV?$string_output_adapter@_W@__crt_stdio_output@@V?$positional_parameter_base@_WV?$string_output_adapter@_W@__crt_stdio_output@@@2@@__crt_stdio_output@@AAE_NXZ 10051a20 f i libucrtd:output.obj
 0001:00050ad0       ?state_case_normal@?$output_processor@_WV?$string_output_adapter@_W@__crt_stdio_output@@V?$standard_base@_WV?$string_output_adapter@_W@__crt_stdio_output@@@2@@__crt_stdio_output@@AAE_NXZ 10051ad0 f i libucrtd:output.obj
 0001:00050b80       ?state_case_normal_common@?$output_processor@DV?$stream_output_adapter@D@__crt_stdio_output@@V?$format_validation_base@DV?$stream_output_adapter@D@__crt_stdio_output@@@2@@__crt_stdio_output@@AAE_NXZ 10051b80 f i libucrtd:output.obj
 0001:00050bd0       ?state_case_normal_common@?$output_processor@DV?$stream_output_adapter@D@__crt_stdio_output@@V?$positional_parameter_base@DV?$stream_output_adapter@D@__crt_stdio_output@@@2@@__crt_stdio_output@@AAE_NXZ 10051bd0 f i libucrtd:output.obj
 0001:00050c20       ?state_case_normal_common@?$output_processor@DV?$stream_output_adapter@D@__crt_stdio_output@@V?$standard_base@DV?$stream_output_adapter@D@__crt_stdio_output@@@2@@__crt_stdio_output@@AAE_NXZ 10051c20 f i libucrtd:output.obj
 0001:00050c70       ?state_case_normal_common@?$output_processor@DV?$string_output_adapter@D@__crt_stdio_output@@V?$format_validation_base@DV?$string_output_adapter@D@__crt_stdio_output@@@2@@__crt_stdio_output@@AAE_NXZ 10051c70 f i libucrtd:output.obj
 0001:00050cc0       ?state_case_normal_common@?$output_processor@DV?$string_output_adapter@D@__crt_stdio_output@@V?$positional_parameter_base@DV?$string_output_adapter@D@__crt_stdio_output@@@2@@__crt_stdio_output@@AAE_NXZ 10051cc0 f i libucrtd:output.obj
 0001:00050d10       ?state_case_normal_common@?$output_processor@DV?$string_output_adapter@D@__crt_stdio_output@@V?$standard_base@DV?$string_output_adapter@D@__crt_stdio_output@@@2@@__crt_stdio_output@@AAE_NXZ 10051d10 f i libucrtd:output.obj
 0001:00050d60       ?state_case_normal_common@?$output_processor@_WV?$stream_output_adapter@_W@__crt_stdio_output@@V?$format_validation_base@_WV?$stream_output_adapter@_W@__crt_stdio_output@@@2@@__crt_stdio_output@@AAE_NXZ 10051d60 f i libucrtd:output.obj
 0001:00050db0       ?state_case_normal_common@?$output_processor@_WV?$stream_output_adapter@_W@__crt_stdio_output@@V?$positional_parameter_base@_WV?$stream_output_adapter@_W@__crt_stdio_output@@@2@@__crt_stdio_output@@AAE_NXZ 10051db0 f i libucrtd:output.obj
 0001:00050e00       ?state_case_normal_common@?$output_processor@_WV?$stream_output_adapter@_W@__crt_stdio_output@@V?$standard_base@_WV?$stream_output_adapter@_W@__crt_stdio_output@@@2@@__crt_stdio_output@@AAE_NXZ 10051e00 f i libucrtd:output.obj
 0001:00050e50       ?state_case_normal_common@?$output_processor@_WV?$string_output_adapter@_W@__crt_stdio_output@@V?$format_validation_base@_WV?$string_output_adapter@_W@__crt_stdio_output@@@2@@__crt_stdio_output@@AAE_NXZ 10051e50 f i libucrtd:output.obj
 0001:00050ea0       ?state_case_normal_common@?$output_processor@_WV?$string_output_adapter@_W@__crt_stdio_output@@V?$positional_parameter_base@_WV?$string_output_adapter@_W@__crt_stdio_output@@@2@@__crt_stdio_output@@AAE_NXZ 10051ea0 f i libucrtd:output.obj
 0001:00050ef0       ?state_case_normal_common@?$output_processor@_WV?$string_output_adapter@_W@__crt_stdio_output@@V?$standard_base@_WV?$string_output_adapter@_W@__crt_stdio_output@@@2@@__crt_stdio_output@@AAE_NXZ 10051ef0 f i libucrtd:output.obj
 0001:00050f40       ?state_case_normal_tchar@?$output_processor@DV?$stream_output_adapter@D@__crt_stdio_output@@V?$format_validation_base@DV?$stream_output_adapter@D@__crt_stdio_output@@@2@@__crt_stdio_output@@AAE_ND@Z 10051f40 f i libucrtd:output.obj
 0001:00051040       ?state_case_normal_tchar@?$output_processor@DV?$stream_output_adapter@D@__crt_stdio_output@@V?$positional_parameter_base@DV?$stream_output_adapter@D@__crt_stdio_output@@@2@@__crt_stdio_output@@AAE_ND@Z 10052040 f i libucrtd:output.obj
 0001:00051140       ?state_case_normal_tchar@?$output_processor@DV?$stream_output_adapter@D@__crt_stdio_output@@V?$standard_base@DV?$stream_output_adapter@D@__crt_stdio_output@@@2@@__crt_stdio_output@@AAE_ND@Z 10052140 f i libucrtd:output.obj
 0001:00051240       ?state_case_normal_tchar@?$output_processor@DV?$string_output_adapter@D@__crt_stdio_output@@V?$format_validation_base@DV?$string_output_adapter@D@__crt_stdio_output@@@2@@__crt_stdio_output@@AAE_ND@Z 10052240 f i libucrtd:output.obj
 0001:00051340       ?state_case_normal_tchar@?$output_processor@DV?$string_output_adapter@D@__crt_stdio_output@@V?$positional_parameter_base@DV?$string_output_adapter@D@__crt_stdio_output@@@2@@__crt_stdio_output@@AAE_ND@Z 10052340 f i libucrtd:output.obj
 0001:00051440       ?state_case_normal_tchar@?$output_processor@DV?$string_output_adapter@D@__crt_stdio_output@@V?$standard_base@DV?$string_output_adapter@D@__crt_stdio_output@@@2@@__crt_stdio_output@@AAE_ND@Z 10052440 f i libucrtd:output.obj
 0001:00051540       ?state_case_normal_tchar@?$output_processor@_WV?$stream_output_adapter@_W@__crt_stdio_output@@V?$format_validation_base@_WV?$stream_output_adapter@_W@__crt_stdio_output@@@2@@__crt_stdio_output@@AAE_N_W@Z 10052540 f i libucrtd:output.obj
 0001:00051560       ?state_case_normal_tchar@?$output_processor@_WV?$stream_output_adapter@_W@__crt_stdio_output@@V?$positional_parameter_base@_WV?$stream_output_adapter@_W@__crt_stdio_output@@@2@@__crt_stdio_output@@AAE_N_W@Z 10052560 f i libucrtd:output.obj
 0001:00051580       ?state_case_normal_tchar@?$output_processor@_WV?$stream_output_adapter@_W@__crt_stdio_output@@V?$standard_base@_WV?$stream_output_adapter@_W@__crt_stdio_output@@@2@@__crt_stdio_output@@AAE_N_W@Z 10052580 f i libucrtd:output.obj
 0001:000515a0       ?state_case_normal_tchar@?$output_processor@_WV?$string_output_adapter@_W@__crt_stdio_output@@V?$format_validation_base@_WV?$string_output_adapter@_W@__crt_stdio_output@@@2@@__crt_stdio_output@@AAE_N_W@Z 100525a0 f i libucrtd:output.obj
 0001:000515c0       ?state_case_normal_tchar@?$output_processor@_WV?$string_output_adapter@_W@__crt_stdio_output@@V?$positional_parameter_base@_WV?$string_output_adapter@_W@__crt_stdio_output@@@2@@__crt_stdio_output@@AAE_N_W@Z 100525c0 f i libucrtd:output.obj
 0001:000515e0       ?state_case_normal_tchar@?$output_processor@_WV?$string_output_adapter@_W@__crt_stdio_output@@V?$standard_base@_WV?$string_output_adapter@_W@__crt_stdio_output@@@2@@__crt_stdio_output@@AAE_N_W@Z 100525e0 f i libucrtd:output.obj
 0001:00051600       ?state_case_percent@?$output_processor@DV?$stream_output_adapter@D@__crt_stdio_output@@V?$format_validation_base@DV?$stream_output_adapter@D@__crt_stdio_output@@@2@@__crt_stdio_output@@AAE_NXZ 10052600 f i libucrtd:output.obj
 0001:00051650       ?state_case_percent@?$output_processor@DV?$stream_output_adapter@D@__crt_stdio_output@@V?$positional_parameter_base@DV?$stream_output_adapter@D@__crt_stdio_output@@@2@@__crt_stdio_output@@AAE_NXZ 10052650 f i libucrtd:output.obj
 0001:000516a0       ?state_case_percent@?$output_processor@DV?$stream_output_adapter@D@__crt_stdio_output@@V?$standard_base@DV?$stream_output_adapter@D@__crt_stdio_output@@@2@@__crt_stdio_output@@AAE_NXZ 100526a0 f i libucrtd:output.obj
 0001:000516f0       ?state_case_percent@?$output_processor@DV?$string_output_adapter@D@__crt_stdio_output@@V?$format_validation_base@DV?$string_output_adapter@D@__crt_stdio_output@@@2@@__crt_stdio_output@@AAE_NXZ 100526f0 f i libucrtd:output.obj
 0001:00051740       ?state_case_percent@?$output_processor@DV?$string_output_adapter@D@__crt_stdio_output@@V?$positional_parameter_base@DV?$string_output_adapter@D@__crt_stdio_output@@@2@@__crt_stdio_output@@AAE_NXZ 10052740 f i libucrtd:output.obj
 0001:00051790       ?state_case_percent@?$output_processor@DV?$string_output_adapter@D@__crt_stdio_output@@V?$standard_base@DV?$string_output_adapter@D@__crt_stdio_output@@@2@@__crt_stdio_output@@AAE_NXZ 10052790 f i libucrtd:output.obj
 0001:000517e0       ?state_case_percent@?$output_processor@_WV?$stream_output_adapter@_W@__crt_stdio_output@@V?$format_validation_base@_WV?$stream_output_adapter@_W@__crt_stdio_output@@@2@@__crt_stdio_output@@AAE_NXZ 100527e0 f i libucrtd:output.obj
 0001:00051830       ?state_case_percent@?$output_processor@_WV?$stream_output_adapter@_W@__crt_stdio_output@@V?$positional_parameter_base@_WV?$stream_output_adapter@_W@__crt_stdio_output@@@2@@__crt_stdio_output@@AAE_NXZ 10052830 f i libucrtd:output.obj
 0001:00051880       ?state_case_percent@?$output_processor@_WV?$stream_output_adapter@_W@__crt_stdio_output@@V?$standard_base@_WV?$stream_output_adapter@_W@__crt_stdio_output@@@2@@__crt_stdio_output@@AAE_NXZ 10052880 f i libucrtd:output.obj
 0001:000518d0       ?state_case_percent@?$output_processor@_WV?$string_output_adapter@_W@__crt_stdio_output@@V?$format_validation_base@_WV?$string_output_adapter@_W@__crt_stdio_output@@@2@@__crt_stdio_output@@AAE_NXZ 100528d0 f i libucrtd:output.obj
 0001:00051920       ?state_case_percent@?$output_processor@_WV?$string_output_adapter@_W@__crt_stdio_output@@V?$positional_parameter_base@_WV?$string_output_adapter@_W@__crt_stdio_output@@@2@@__crt_stdio_output@@AAE_NXZ 10052920 f i libucrtd:output.obj
 0001:00051970       ?state_case_percent@?$output_processor@_WV?$string_output_adapter@_W@__crt_stdio_output@@V?$standard_base@_WV?$string_output_adapter@_W@__crt_stdio_output@@@2@@__crt_stdio_output@@AAE_NXZ 10052970 f i libucrtd:output.obj
 0001:000519c0       ?state_case_precision@?$output_processor@DV?$stream_output_adapter@D@__crt_stdio_output@@V?$format_validation_base@DV?$stream_output_adapter@D@__crt_stdio_output@@@2@@__crt_stdio_output@@AAE_NXZ 100529c0 f i libucrtd:output.obj
 0001:00051a30       ?state_case_precision@?$output_processor@DV?$stream_output_adapter@D@__crt_stdio_output@@V?$positional_parameter_base@DV?$stream_output_adapter@D@__crt_stdio_output@@@2@@__crt_stdio_output@@AAE_NXZ 10052a30 f i libucrtd:output.obj
 0001:00051aa0       ?state_case_precision@?$output_processor@DV?$stream_output_adapter@D@__crt_stdio_output@@V?$standard_base@DV?$stream_output_adapter@D@__crt_stdio_output@@@2@@__crt_stdio_output@@AAE_NXZ 10052aa0 f i libucrtd:output.obj
 0001:00051b10       ?state_case_precision@?$output_processor@DV?$string_output_adapter@D@__crt_stdio_output@@V?$format_validation_base@DV?$string_output_adapter@D@__crt_stdio_output@@@2@@__crt_stdio_output@@AAE_NXZ 10052b10 f i libucrtd:output.obj
 0001:00051b80       ?state_case_precision@?$output_processor@DV?$string_output_adapter@D@__crt_stdio_output@@V?$positional_parameter_base@DV?$string_output_adapter@D@__crt_stdio_output@@@2@@__crt_stdio_output@@AAE_NXZ 10052b80 f i libucrtd:output.obj
 0001:00051bf0       ?state_case_precision@?$output_processor@DV?$string_output_adapter@D@__crt_stdio_output@@V?$standard_base@DV?$string_output_adapter@D@__crt_stdio_output@@@2@@__crt_stdio_output@@AAE_NXZ 10052bf0 f i libucrtd:output.obj
 0001:00051c60       ?state_case_precision@?$output_processor@_WV?$stream_output_adapter@_W@__crt_stdio_output@@V?$format_validation_base@_WV?$stream_output_adapter@_W@__crt_stdio_output@@@2@@__crt_stdio_output@@AAE_NXZ 10052c60 f i libucrtd:output.obj
 0001:00051cd0       ?state_case_precision@?$output_processor@_WV?$stream_output_adapter@_W@__crt_stdio_output@@V?$positional_parameter_base@_WV?$stream_output_adapter@_W@__crt_stdio_output@@@2@@__crt_stdio_output@@AAE_NXZ 10052cd0 f i libucrtd:output.obj
 0001:00051d40       ?state_case_precision@?$output_processor@_WV?$stream_output_adapter@_W@__crt_stdio_output@@V?$standard_base@_WV?$stream_output_adapter@_W@__crt_stdio_output@@@2@@__crt_stdio_output@@AAE_NXZ 10052d40 f i libucrtd:output.obj
 0001:00051db0       ?state_case_precision@?$output_processor@_WV?$string_output_adapter@_W@__crt_stdio_output@@V?$format_validation_base@_WV?$string_output_adapter@_W@__crt_stdio_output@@@2@@__crt_stdio_output@@AAE_NXZ 10052db0 f i libucrtd:output.obj
 0001:00051e20       ?state_case_precision@?$output_processor@_WV?$string_output_adapter@_W@__crt_stdio_output@@V?$positional_parameter_base@_WV?$string_output_adapter@_W@__crt_stdio_output@@@2@@__crt_stdio_output@@AAE_NXZ 10052e20 f i libucrtd:output.obj
 0001:00051e90       ?state_case_precision@?$output_processor@_WV?$string_output_adapter@_W@__crt_stdio_output@@V?$standard_base@_WV?$string_output_adapter@_W@__crt_stdio_output@@@2@@__crt_stdio_output@@AAE_NXZ 10052e90 f i libucrtd:output.obj
 0001:00051f00       ?state_case_size@?$output_processor@DV?$stream_output_adapter@D@__crt_stdio_output@@V?$format_validation_base@DV?$stream_output_adapter@D@__crt_stdio_output@@@2@@__crt_stdio_output@@AAE_NXZ 10052f00 f i libucrtd:output.obj
 0001:000522d0       ?state_case_size@?$output_processor@DV?$stream_output_adapter@D@__crt_stdio_output@@V?$positional_parameter_base@DV?$stream_output_adapter@D@__crt_stdio_output@@@2@@__crt_stdio_output@@AAE_NXZ 100532d0 f i libucrtd:output.obj
 0001:000526a0       ?state_case_size@?$output_processor@DV?$stream_output_adapter@D@__crt_stdio_output@@V?$standard_base@DV?$stream_output_adapter@D@__crt_stdio_output@@@2@@__crt_stdio_output@@AAE_NXZ 100536a0 f i libucrtd:output.obj
 0001:00052a70       ?state_case_size@?$output_processor@DV?$string_output_adapter@D@__crt_stdio_output@@V?$format_validation_base@DV?$string_output_adapter@D@__crt_stdio_output@@@2@@__crt_stdio_output@@AAE_NXZ 10053a70 f i libucrtd:output.obj
 0001:00052e40       ?state_case_size@?$output_processor@DV?$string_output_adapter@D@__crt_stdio_output@@V?$positional_parameter_base@DV?$string_output_adapter@D@__crt_stdio_output@@@2@@__crt_stdio_output@@AAE_NXZ 10053e40 f i libucrtd:output.obj
 0001:00053210       ?state_case_size@?$output_processor@DV?$string_output_adapter@D@__crt_stdio_output@@V?$standard_base@DV?$string_output_adapter@D@__crt_stdio_output@@@2@@__crt_stdio_output@@AAE_NXZ 10054210 f i libucrtd:output.obj
 0001:000535e0       ?state_case_size@?$output_processor@_WV?$stream_output_adapter@_W@__crt_stdio_output@@V?$format_validation_base@_WV?$stream_output_adapter@_W@__crt_stdio_output@@@2@@__crt_stdio_output@@AAE_NXZ 100545e0 f i libucrtd:output.obj
 0001:000539b0       ?state_case_size@?$output_processor@_WV?$stream_output_adapter@_W@__crt_stdio_output@@V?$positional_parameter_base@_WV?$stream_output_adapter@_W@__crt_stdio_output@@@2@@__crt_stdio_output@@AAE_NXZ 100549b0 f i libucrtd:output.obj
 0001:00053d80       ?state_case_size@?$output_processor@_WV?$stream_output_adapter@_W@__crt_stdio_output@@V?$standard_base@_WV?$stream_output_adapter@_W@__crt_stdio_output@@@2@@__crt_stdio_output@@AAE_NXZ 10054d80 f i libucrtd:output.obj
 0001:00054150       ?state_case_size@?$output_processor@_WV?$string_output_adapter@_W@__crt_stdio_output@@V?$format_validation_base@_WV?$string_output_adapter@_W@__crt_stdio_output@@@2@@__crt_stdio_output@@AAE_NXZ 10055150 f i libucrtd:output.obj
 0001:00054520       ?state_case_size@?$output_processor@_WV?$string_output_adapter@_W@__crt_stdio_output@@V?$positional_parameter_base@_WV?$string_output_adapter@_W@__crt_stdio_output@@@2@@__crt_stdio_output@@AAE_NXZ 10055520 f i libucrtd:output.obj
 0001:000548f0       ?state_case_size@?$output_processor@_WV?$string_output_adapter@_W@__crt_stdio_output@@V?$standard_base@_WV?$string_output_adapter@_W@__crt_stdio_output@@@2@@__crt_stdio_output@@AAE_NXZ 100558f0 f i libucrtd:output.obj
 0001:00054cc0       ?state_case_type@?$output_processor@DV?$stream_output_adapter@D@__crt_stdio_output@@V?$format_validation_base@DV?$stream_output_adapter@D@__crt_stdio_output@@@2@@__crt_stdio_output@@AAE_NXZ 10055cc0 f i libucrtd:output.obj
 0001:00055070       ?state_case_type@?$output_processor@DV?$stream_output_adapter@D@__crt_stdio_output@@V?$positional_parameter_base@DV?$stream_output_adapter@D@__crt_stdio_output@@@2@@__crt_stdio_output@@AAE_NXZ 10056070 f i libucrtd:output.obj
 0001:00055420       ?state_case_type@?$output_processor@DV?$stream_output_adapter@D@__crt_stdio_output@@V?$standard_base@DV?$stream_output_adapter@D@__crt_stdio_output@@@2@@__crt_stdio_output@@AAE_NXZ 10056420 f i libucrtd:output.obj
 0001:000557d0       ?state_case_type@?$output_processor@DV?$string_output_adapter@D@__crt_stdio_output@@V?$format_validation_base@DV?$string_output_adapter@D@__crt_stdio_output@@@2@@__crt_stdio_output@@AAE_NXZ 100567d0 f i libucrtd:output.obj
 0001:00055b80       ?state_case_type@?$output_processor@DV?$string_output_adapter@D@__crt_stdio_output@@V?$positional_parameter_base@DV?$string_output_adapter@D@__crt_stdio_output@@@2@@__crt_stdio_output@@AAE_NXZ 10056b80 f i libucrtd:output.obj
 0001:00055f30       ?state_case_type@?$output_processor@DV?$string_output_adapter@D@__crt_stdio_output@@V?$standard_base@DV?$string_output_adapter@D@__crt_stdio_output@@@2@@__crt_stdio_output@@AAE_NXZ 10056f30 f i libucrtd:output.obj
 0001:000562e0       ?state_case_type@?$output_processor@_WV?$stream_output_adapter@_W@__crt_stdio_output@@V?$format_validation_base@_WV?$stream_output_adapter@_W@__crt_stdio_output@@@2@@__crt_stdio_output@@AAE_NXZ 100572e0 f i libucrtd:output.obj
 0001:000566c0       ?state_case_type@?$output_processor@_WV?$stream_output_adapter@_W@__crt_stdio_output@@V?$positional_parameter_base@_WV?$stream_output_adapter@_W@__crt_stdio_output@@@2@@__crt_stdio_output@@AAE_NXZ 100576c0 f i libucrtd:output.obj
 0001:00056aa0       ?state_case_type@?$output_processor@_WV?$stream_output_adapter@_W@__crt_stdio_output@@V?$standard_base@_WV?$stream_output_adapter@_W@__crt_stdio_output@@@2@@__crt_stdio_output@@AAE_NXZ 10057aa0 f i libucrtd:output.obj
 0001:00056e80       ?state_case_type@?$output_processor@_WV?$string_output_adapter@_W@__crt_stdio_output@@V?$format_validation_base@_WV?$string_output_adapter@_W@__crt_stdio_output@@@2@@__crt_stdio_output@@AAE_NXZ 10057e80 f i libucrtd:output.obj
 0001:00057260       ?state_case_type@?$output_processor@_WV?$string_output_adapter@_W@__crt_stdio_output@@V?$positional_parameter_base@_WV?$string_output_adapter@_W@__crt_stdio_output@@@2@@__crt_stdio_output@@AAE_NXZ 10058260 f i libucrtd:output.obj
 0001:00057640       ?state_case_type@?$output_processor@_WV?$string_output_adapter@_W@__crt_stdio_output@@V?$standard_base@_WV?$string_output_adapter@_W@__crt_stdio_output@@@2@@__crt_stdio_output@@AAE_NXZ 10058640 f i libucrtd:output.obj
 0001:00057a20       ?state_case_width@?$output_processor@DV?$stream_output_adapter@D@__crt_stdio_output@@V?$format_validation_base@DV?$stream_output_adapter@D@__crt_stdio_output@@@2@@__crt_stdio_output@@AAE_NXZ 10058a20 f i libucrtd:output.obj
 0001:00057aa0       ?state_case_width@?$output_processor@DV?$stream_output_adapter@D@__crt_stdio_output@@V?$positional_parameter_base@DV?$stream_output_adapter@D@__crt_stdio_output@@@2@@__crt_stdio_output@@AAE_NXZ 10058aa0 f i libucrtd:output.obj
 0001:00057b20       ?state_case_width@?$output_processor@DV?$stream_output_adapter@D@__crt_stdio_output@@V?$standard_base@DV?$stream_output_adapter@D@__crt_stdio_output@@@2@@__crt_stdio_output@@AAE_NXZ 10058b20 f i libucrtd:output.obj
 0001:00057ba0       ?state_case_width@?$output_processor@DV?$string_output_adapter@D@__crt_stdio_output@@V?$format_validation_base@DV?$string_output_adapter@D@__crt_stdio_output@@@2@@__crt_stdio_output@@AAE_NXZ 10058ba0 f i libucrtd:output.obj
 0001:00057c20       ?state_case_width@?$output_processor@DV?$string_output_adapter@D@__crt_stdio_output@@V?$positional_parameter_base@DV?$string_output_adapter@D@__crt_stdio_output@@@2@@__crt_stdio_output@@AAE_NXZ 10058c20 f i libucrtd:output.obj
 0001:00057ca0       ?state_case_width@?$output_processor@DV?$string_output_adapter@D@__crt_stdio_output@@V?$standard_base@DV?$string_output_adapter@D@__crt_stdio_output@@@2@@__crt_stdio_output@@AAE_NXZ 10058ca0 f i libucrtd:output.obj
 0001:00057d20       ?state_case_width@?$output_processor@_WV?$stream_output_adapter@_W@__crt_stdio_output@@V?$format_validation_base@_WV?$stream_output_adapter@_W@__crt_stdio_output@@@2@@__crt_stdio_output@@AAE_NXZ 10058d20 f i libucrtd:output.obj
 0001:00057da0       ?state_case_width@?$output_processor@_WV?$stream_output_adapter@_W@__crt_stdio_output@@V?$positional_parameter_base@_WV?$stream_output_adapter@_W@__crt_stdio_output@@@2@@__crt_stdio_output@@AAE_NXZ 10058da0 f i libucrtd:output.obj
 0001:00057e20       ?state_case_width@?$output_processor@_WV?$stream_output_adapter@_W@__crt_stdio_output@@V?$standard_base@_WV?$stream_output_adapter@_W@__crt_stdio_output@@@2@@__crt_stdio_output@@AAE_NXZ 10058e20 f i libucrtd:output.obj
 0001:00057ea0       ?state_case_width@?$output_processor@_WV?$string_output_adapter@_W@__crt_stdio_output@@V?$format_validation_base@_WV?$string_output_adapter@_W@__crt_stdio_output@@@2@@__crt_stdio_output@@AAE_NXZ 10058ea0 f i libucrtd:output.obj
 0001:00057f20       ?state_case_width@?$output_processor@_WV?$string_output_adapter@_W@__crt_stdio_output@@V?$positional_parameter_base@_WV?$string_output_adapter@_W@__crt_stdio_output@@@2@@__crt_stdio_output@@AAE_NXZ 10058f20 f i libucrtd:output.obj
 0001:00057fa0       ?state_case_width@?$output_processor@_WV?$string_output_adapter@_W@__crt_stdio_output@@V?$standard_base@_WV?$string_output_adapter@_W@__crt_stdio_output@@@2@@__crt_stdio_output@@AAE_NXZ 10058fa0 f i libucrtd:output.obj
 0001:00058020       ?state_count@?$format_validation_base@DV?$stream_output_adapter@D@__crt_stdio_output@@@__crt_stdio_output@@KAIXZ 10059020 f i libucrtd:output.obj
 0001:00058030       ?state_count@?$format_validation_base@DV?$string_output_adapter@D@__crt_stdio_output@@@__crt_stdio_output@@KAIXZ 10059030 f i libucrtd:output.obj
 0001:00058040       ?state_count@?$format_validation_base@_WV?$stream_output_adapter@_W@__crt_stdio_output@@@__crt_stdio_output@@KAIXZ 10059040 f i libucrtd:output.obj
 0001:00058050       ?state_count@?$format_validation_base@_WV?$string_output_adapter@_W@__crt_stdio_output@@@__crt_stdio_output@@KAIXZ 10059050 f i libucrtd:output.obj
 0001:00058060       ?state_count@?$standard_base@DV?$stream_output_adapter@D@__crt_stdio_output@@@__crt_stdio_output@@KAIXZ 10059060 f i libucrtd:output.obj
 0001:00058070       ?state_count@?$standard_base@DV?$string_output_adapter@D@__crt_stdio_output@@@__crt_stdio_output@@KAIXZ 10059070 f i libucrtd:output.obj
 0001:00058080       ?state_count@?$standard_base@_WV?$stream_output_adapter@_W@__crt_stdio_output@@@__crt_stdio_output@@KAIXZ 10059080 f i libucrtd:output.obj
 0001:00058090       ?state_count@?$standard_base@_WV?$string_output_adapter@_W@__crt_stdio_output@@@__crt_stdio_output@@KAIXZ 10059090 f i libucrtd:output.obj
 0001:000580a0       ?state_transition_table@?$format_validation_base@DV?$stream_output_adapter@D@__crt_stdio_output@@@__crt_stdio_output@@KAABV?$spectre_mitigated_lookup_table@Ustate_transition_pair@__crt_stdio_output@@$0IA@@2@XZ 100590a0 f i libucrtd:output.obj
 0001:000580b0       ?state_transition_table@?$format_validation_base@DV?$string_output_adapter@D@__crt_stdio_output@@@__crt_stdio_output@@KAABV?$spectre_mitigated_lookup_table@Ustate_transition_pair@__crt_stdio_output@@$0IA@@2@XZ 100590b0 f i libucrtd:output.obj
 0001:000580c0       ?state_transition_table@?$format_validation_base@_WV?$stream_output_adapter@_W@__crt_stdio_output@@@__crt_stdio_output@@KAABV?$spectre_mitigated_lookup_table@Ustate_transition_pair@__crt_stdio_output@@$0IA@@2@XZ 100590c0 f i libucrtd:output.obj
 0001:000580d0       ?state_transition_table@?$format_validation_base@_WV?$string_output_adapter@_W@__crt_stdio_output@@@__crt_stdio_output@@KAABV?$spectre_mitigated_lookup_table@Ustate_transition_pair@__crt_stdio_output@@$0IA@@2@XZ 100590d0 f i libucrtd:output.obj
 0001:000580e0       ?state_transition_table@?$standard_base@DV?$stream_output_adapter@D@__crt_stdio_output@@@__crt_stdio_output@@KAABV?$spectre_mitigated_lookup_table@Ustate_transition_pair@__crt_stdio_output@@$0IA@@2@XZ 100590e0 f i libucrtd:output.obj
 0001:000580f0       ?state_transition_table@?$standard_base@DV?$string_output_adapter@D@__crt_stdio_output@@@__crt_stdio_output@@KAABV?$spectre_mitigated_lookup_table@Ustate_transition_pair@__crt_stdio_output@@$0IA@@2@XZ 100590f0 f i libucrtd:output.obj
 0001:00058100       ?state_transition_table@?$standard_base@_WV?$stream_output_adapter@_W@__crt_stdio_output@@@__crt_stdio_output@@KAABV?$spectre_mitigated_lookup_table@Ustate_transition_pair@__crt_stdio_output@@$0IA@@2@XZ 10059100 f i libucrtd:output.obj
 0001:00058110       ?state_transition_table@?$standard_base@_WV?$string_output_adapter@_W@__crt_stdio_output@@@__crt_stdio_output@@KAABV?$spectre_mitigated_lookup_table@Ustate_transition_pair@__crt_stdio_output@@$0IA@@2@XZ 10059110 f i libucrtd:output.obj
 0001:00058120       ?tchar_string@?$common_data@D@__crt_stdio_output@@IAEAAPADD@Z 10059120 f i libucrtd:output.obj
 0001:00058140       ?tchar_string@?$common_data@D@__crt_stdio_output@@IAEAAPADXZ 10059140 f i libucrtd:output.obj
 0001:00058160       ?tchar_string@?$common_data@_W@__crt_stdio_output@@IAEAAPA_WXZ 10059160 f i libucrtd:output.obj
 0001:00058180       ?tchar_string@?$common_data@_W@__crt_stdio_output@@IAEAAPA_W_W@Z 10059180 f i libucrtd:output.obj
 0001:000581a0       ?to_integer_size@__crt_stdio_output@@YAIW4length_modifier@1@@Z 100591a0 f i libucrtd:output.obj
 0001:00058240       ?type_case_X@?$output_processor@DV?$stream_output_adapter@D@__crt_stdio_output@@V?$format_validation_base@DV?$stream_output_adapter@D@__crt_stdio_output@@@2@@__crt_stdio_output@@AAE_NXZ 10059240 f i libucrtd:output.obj
 0001:00058260       ?type_case_X@?$output_processor@DV?$stream_output_adapter@D@__crt_stdio_output@@V?$positional_parameter_base@DV?$stream_output_adapter@D@__crt_stdio_output@@@2@@__crt_stdio_output@@AAE_NXZ 10059260 f i libucrtd:output.obj
 0001:00058280       ?type_case_X@?$output_processor@DV?$stream_output_adapter@D@__crt_stdio_output@@V?$standard_base@DV?$stream_output_adapter@D@__crt_stdio_output@@@2@@__crt_stdio_output@@AAE_NXZ 10059280 f i libucrtd:output.obj
 0001:000582a0       ?type_case_X@?$output_processor@DV?$string_output_adapter@D@__crt_stdio_output@@V?$format_validation_base@DV?$string_output_adapter@D@__crt_stdio_output@@@2@@__crt_stdio_output@@AAE_NXZ 100592a0 f i libucrtd:output.obj
 0001:000582c0       ?type_case_X@?$output_processor@DV?$string_output_adapter@D@__crt_stdio_output@@V?$positional_parameter_base@DV?$string_output_adapter@D@__crt_stdio_output@@@2@@__crt_stdio_output@@AAE_NXZ 100592c0 f i libucrtd:output.obj
 0001:000582e0       ?type_case_X@?$output_processor@DV?$string_output_adapter@D@__crt_stdio_output@@V?$standard_base@DV?$string_output_adapter@D@__crt_stdio_output@@@2@@__crt_stdio_output@@AAE_NXZ 100592e0 f i libucrtd:output.obj
 0001:00058300       ?type_case_X@?$output_processor@_WV?$stream_output_adapter@_W@__crt_stdio_output@@V?$format_validation_base@_WV?$stream_output_adapter@_W@__crt_stdio_output@@@2@@__crt_stdio_output@@AAE_NXZ 10059300 f i libucrtd:output.obj
 0001:00058320       ?type_case_X@?$output_processor@_WV?$stream_output_adapter@_W@__crt_stdio_output@@V?$positional_parameter_base@_WV?$stream_output_adapter@_W@__crt_stdio_output@@@2@@__crt_stdio_output@@AAE_NXZ 10059320 f i libucrtd:output.obj
 0001:00058340       ?type_case_X@?$output_processor@_WV?$stream_output_adapter@_W@__crt_stdio_output@@V?$standard_base@_WV?$stream_output_adapter@_W@__crt_stdio_output@@@2@@__crt_stdio_output@@AAE_NXZ 10059340 f i libucrtd:output.obj
 0001:00058360       ?type_case_X@?$output_processor@_WV?$string_output_adapter@_W@__crt_stdio_output@@V?$format_validation_base@_WV?$string_output_adapter@_W@__crt_stdio_output@@@2@@__crt_stdio_output@@AAE_NXZ 10059360 f i libucrtd:output.obj
 0001:00058380       ?type_case_X@?$output_processor@_WV?$string_output_adapter@_W@__crt_stdio_output@@V?$positional_parameter_base@_WV?$string_output_adapter@_W@__crt_stdio_output@@@2@@__crt_stdio_output@@AAE_NXZ 10059380 f i libucrtd:output.obj
 0001:000583a0       ?type_case_X@?$output_processor@_WV?$string_output_adapter@_W@__crt_stdio_output@@V?$standard_base@_WV?$string_output_adapter@_W@__crt_stdio_output@@@2@@__crt_stdio_output@@AAE_NXZ 100593a0 f i libucrtd:output.obj
 0001:000583c0       ?type_case_Z@?$output_processor@DV?$stream_output_adapter@D@__crt_stdio_output@@V?$format_validation_base@DV?$stream_output_adapter@D@__crt_stdio_output@@@2@@__crt_stdio_output@@AAE_NXZ 100593c0 f i libucrtd:output.obj
 0001:000584b0       ?type_case_Z@?$output_processor@DV?$stream_output_adapter@D@__crt_stdio_output@@V?$positional_parameter_base@DV?$stream_output_adapter@D@__crt_stdio_output@@@2@@__crt_stdio_output@@AAE_NXZ 100594b0 f i libucrtd:output.obj
 0001:000585a0       ?type_case_Z@?$output_processor@DV?$stream_output_adapter@D@__crt_stdio_output@@V?$standard_base@DV?$stream_output_adapter@D@__crt_stdio_output@@@2@@__crt_stdio_output@@AAE_NXZ 100595a0 f i libucrtd:output.obj
 0001:00058690       ?type_case_Z@?$output_processor@DV?$string_output_adapter@D@__crt_stdio_output@@V?$format_validation_base@DV?$string_output_adapter@D@__crt_stdio_output@@@2@@__crt_stdio_output@@AAE_NXZ 10059690 f i libucrtd:output.obj
 0001:00058780       ?type_case_Z@?$output_processor@DV?$string_output_adapter@D@__crt_stdio_output@@V?$positional_parameter_base@DV?$string_output_adapter@D@__crt_stdio_output@@@2@@__crt_stdio_output@@AAE_NXZ 10059780 f i libucrtd:output.obj
 0001:00058870       ?type_case_Z@?$output_processor@DV?$string_output_adapter@D@__crt_stdio_output@@V?$standard_base@DV?$string_output_adapter@D@__crt_stdio_output@@@2@@__crt_stdio_output@@AAE_NXZ 10059870 f i libucrtd:output.obj
 0001:00058960       ?type_case_Z@?$output_processor@_WV?$stream_output_adapter@_W@__crt_stdio_output@@V?$format_validation_base@_WV?$stream_output_adapter@_W@__crt_stdio_output@@@2@@__crt_stdio_output@@AAE_NXZ 10059960 f i libucrtd:output.obj
 0001:00058a50       ?type_case_Z@?$output_processor@_WV?$stream_output_adapter@_W@__crt_stdio_output@@V?$positional_parameter_base@_WV?$stream_output_adapter@_W@__crt_stdio_output@@@2@@__crt_stdio_output@@AAE_NXZ 10059a50 f i libucrtd:output.obj
 0001:00058b40       ?type_case_Z@?$output_processor@_WV?$stream_output_adapter@_W@__crt_stdio_output@@V?$standard_base@_WV?$stream_output_adapter@_W@__crt_stdio_output@@@2@@__crt_stdio_output@@AAE_NXZ 10059b40 f i libucrtd:output.obj
 0001:00058c30       ?type_case_Z@?$output_processor@_WV?$string_output_adapter@_W@__crt_stdio_output@@V?$format_validation_base@_WV?$string_output_adapter@_W@__crt_stdio_output@@@2@@__crt_stdio_output@@AAE_NXZ 10059c30 f i libucrtd:output.obj
 0001:00058d20       ?type_case_Z@?$output_processor@_WV?$string_output_adapter@_W@__crt_stdio_output@@V?$positional_parameter_base@_WV?$string_output_adapter@_W@__crt_stdio_output@@@2@@__crt_stdio_output@@AAE_NXZ 10059d20 f i libucrtd:output.obj
 0001:00058e10       ?type_case_Z@?$output_processor@_WV?$string_output_adapter@_W@__crt_stdio_output@@V?$standard_base@_WV?$string_output_adapter@_W@__crt_stdio_output@@@2@@__crt_stdio_output@@AAE_NXZ 10059e10 f i libucrtd:output.obj
 0001:00058f00       ?type_case_a@?$output_processor@DV?$stream_output_adapter@D@__crt_stdio_output@@V?$format_validation_base@DV?$stream_output_adapter@D@__crt_stdio_output@@@2@@__crt_stdio_output@@AAE_NXZ 10059f00 f i libucrtd:output.obj
 0001:00059170       ?type_case_a@?$output_processor@DV?$stream_output_adapter@D@__crt_stdio_output@@V?$positional_parameter_base@DV?$stream_output_adapter@D@__crt_stdio_output@@@2@@__crt_stdio_output@@AAE_NXZ 1005a170 f i libucrtd:output.obj
 0001:000593e0       ?type_case_a@?$output_processor@DV?$stream_output_adapter@D@__crt_stdio_output@@V?$standard_base@DV?$stream_output_adapter@D@__crt_stdio_output@@@2@@__crt_stdio_output@@AAE_NXZ 1005a3e0 f i libucrtd:output.obj
 0001:00059650       ?type_case_a@?$output_processor@DV?$string_output_adapter@D@__crt_stdio_output@@V?$format_validation_base@DV?$string_output_adapter@D@__crt_stdio_output@@@2@@__crt_stdio_output@@AAE_NXZ 1005a650 f i libucrtd:output.obj
 0001:000598c0       ?type_case_a@?$output_processor@DV?$string_output_adapter@D@__crt_stdio_output@@V?$positional_parameter_base@DV?$string_output_adapter@D@__crt_stdio_output@@@2@@__crt_stdio_output@@AAE_NXZ 1005a8c0 f i libucrtd:output.obj
 0001:00059b30       ?type_case_a@?$output_processor@DV?$string_output_adapter@D@__crt_stdio_output@@V?$standard_base@DV?$string_output_adapter@D@__crt_stdio_output@@@2@@__crt_stdio_output@@AAE_NXZ 1005ab30 f i libucrtd:output.obj
 0001:00059da0       ?type_case_a@?$output_processor@_WV?$stream_output_adapter@_W@__crt_stdio_output@@V?$format_validation_base@_WV?$stream_output_adapter@_W@__crt_stdio_output@@@2@@__crt_stdio_output@@AAE_NXZ 1005ada0 f i libucrtd:output.obj
 0001:0005a010       ?type_case_a@?$output_processor@_WV?$stream_output_adapter@_W@__crt_stdio_output@@V?$positional_parameter_base@_WV?$stream_output_adapter@_W@__crt_stdio_output@@@2@@__crt_stdio_output@@AAE_NXZ 1005b010 f i libucrtd:output.obj
 0001:0005a280       ?type_case_a@?$output_processor@_WV?$stream_output_adapter@_W@__crt_stdio_output@@V?$standard_base@_WV?$stream_output_adapter@_W@__crt_stdio_output@@@2@@__crt_stdio_output@@AAE_NXZ 1005b280 f i libucrtd:output.obj
 0001:0005a4f0       ?type_case_a@?$output_processor@_WV?$string_output_adapter@_W@__crt_stdio_output@@V?$format_validation_base@_WV?$string_output_adapter@_W@__crt_stdio_output@@@2@@__crt_stdio_output@@AAE_NXZ 1005b4f0 f i libucrtd:output.obj
 0001:0005a760       ?type_case_a@?$output_processor@_WV?$string_output_adapter@_W@__crt_stdio_output@@V?$positional_parameter_base@_WV?$string_output_adapter@_W@__crt_stdio_output@@@2@@__crt_stdio_output@@AAE_NXZ 1005b760 f i libucrtd:output.obj
 0001:0005a9d0       ?type_case_a@?$output_processor@_WV?$string_output_adapter@_W@__crt_stdio_output@@V?$standard_base@_WV?$string_output_adapter@_W@__crt_stdio_output@@@2@@__crt_stdio_output@@AAE_NXZ 1005b9d0 f i libucrtd:output.obj
 0001:0005ac40       ?type_case_c@?$output_processor@DV?$stream_output_adapter@D@__crt_stdio_output@@V?$format_validation_base@DV?$stream_output_adapter@D@__crt_stdio_output@@@2@@__crt_stdio_output@@AAE_NXZ 1005bc40 f i libucrtd:output.obj
 0001:0005ac60       ?type_case_c@?$output_processor@DV?$stream_output_adapter@D@__crt_stdio_output@@V?$positional_parameter_base@DV?$stream_output_adapter@D@__crt_stdio_output@@@2@@__crt_stdio_output@@AAE_NXZ 1005bc60 f i libucrtd:output.obj
 0001:0005ac80       ?type_case_c@?$output_processor@DV?$stream_output_adapter@D@__crt_stdio_output@@V?$standard_base@DV?$stream_output_adapter@D@__crt_stdio_output@@@2@@__crt_stdio_output@@AAE_NXZ 1005bc80 f i libucrtd:output.obj
 0001:0005aca0       ?type_case_c@?$output_processor@DV?$string_output_adapter@D@__crt_stdio_output@@V?$format_validation_base@DV?$string_output_adapter@D@__crt_stdio_output@@@2@@__crt_stdio_output@@AAE_NXZ 1005bca0 f i libucrtd:output.obj
 0001:0005acc0       ?type_case_c@?$output_processor@DV?$string_output_adapter@D@__crt_stdio_output@@V?$positional_parameter_base@DV?$string_output_adapter@D@__crt_stdio_output@@@2@@__crt_stdio_output@@AAE_NXZ 1005bcc0 f i libucrtd:output.obj
 0001:0005ace0       ?type_case_c@?$output_processor@DV?$string_output_adapter@D@__crt_stdio_output@@V?$standard_base@DV?$string_output_adapter@D@__crt_stdio_output@@@2@@__crt_stdio_output@@AAE_NXZ 1005bce0 f i libucrtd:output.obj
 0001:0005ad00       ?type_case_c@?$output_processor@_WV?$stream_output_adapter@_W@__crt_stdio_output@@V?$format_validation_base@_WV?$stream_output_adapter@_W@__crt_stdio_output@@@2@@__crt_stdio_output@@AAE_NXZ 1005bd00 f i libucrtd:output.obj
 0001:0005ad20       ?type_case_c@?$output_processor@_WV?$stream_output_adapter@_W@__crt_stdio_output@@V?$positional_parameter_base@_WV?$stream_output_adapter@_W@__crt_stdio_output@@@2@@__crt_stdio_output@@AAE_NXZ 1005bd20 f i libucrtd:output.obj
 0001:0005ad40       ?type_case_c@?$output_processor@_WV?$stream_output_adapter@_W@__crt_stdio_output@@V?$standard_base@_WV?$stream_output_adapter@_W@__crt_stdio_output@@@2@@__crt_stdio_output@@AAE_NXZ 1005bd40 f i libucrtd:output.obj
 0001:0005ad60       ?type_case_c@?$output_processor@_WV?$string_output_adapter@_W@__crt_stdio_output@@V?$format_validation_base@_WV?$string_output_adapter@_W@__crt_stdio_output@@@2@@__crt_stdio_output@@AAE_NXZ 1005bd60 f i libucrtd:output.obj
 0001:0005ad80       ?type_case_c@?$output_processor@_WV?$string_output_adapter@_W@__crt_stdio_output@@V?$positional_parameter_base@_WV?$string_output_adapter@_W@__crt_stdio_output@@@2@@__crt_stdio_output@@AAE_NXZ 1005bd80 f i libucrtd:output.obj
 0001:0005ada0       ?type_case_c@?$output_processor@_WV?$string_output_adapter@_W@__crt_stdio_output@@V?$standard_base@_WV?$string_output_adapter@_W@__crt_stdio_output@@@2@@__crt_stdio_output@@AAE_NXZ 1005bda0 f i libucrtd:output.obj
 0001:0005adc0       ?type_case_c_tchar@?$output_processor@DV?$stream_output_adapter@D@__crt_stdio_output@@V?$format_validation_base@DV?$stream_output_adapter@D@__crt_stdio_output@@@2@@__crt_stdio_output@@AAE_ND@Z 1005bdc0 f i libucrtd:output.obj
 0001:0005aed0       ?type_case_c_tchar@?$output_processor@DV?$stream_output_adapter@D@__crt_stdio_output@@V?$positional_parameter_base@DV?$stream_output_adapter@D@__crt_stdio_output@@@2@@__crt_stdio_output@@AAE_ND@Z 1005bed0 f i libucrtd:output.obj
 0001:0005afe0       ?type_case_c_tchar@?$output_processor@DV?$stream_output_adapter@D@__crt_stdio_output@@V?$standard_base@DV?$stream_output_adapter@D@__crt_stdio_output@@@2@@__crt_stdio_output@@AAE_ND@Z 1005bfe0 f i libucrtd:output.obj
 0001:0005b0f0       ?type_case_c_tchar@?$output_processor@DV?$string_output_adapter@D@__crt_stdio_output@@V?$format_validation_base@DV?$string_output_adapter@D@__crt_stdio_output@@@2@@__crt_stdio_output@@AAE_ND@Z 1005c0f0 f i libucrtd:output.obj
 0001:0005b200       ?type_case_c_tchar@?$output_processor@DV?$string_output_adapter@D@__crt_stdio_output@@V?$positional_parameter_base@DV?$string_output_adapter@D@__crt_stdio_output@@@2@@__crt_stdio_output@@AAE_ND@Z 1005c200 f i libucrtd:output.obj
 0001:0005b310       ?type_case_c_tchar@?$output_processor@DV?$string_output_adapter@D@__crt_stdio_output@@V?$standard_base@DV?$string_output_adapter@D@__crt_stdio_output@@@2@@__crt_stdio_output@@AAE_ND@Z 1005c310 f i libucrtd:output.obj
 0001:0005b420       ?type_case_c_tchar@?$output_processor@_WV?$stream_output_adapter@_W@__crt_stdio_output@@V?$format_validation_base@_WV?$stream_output_adapter@_W@__crt_stdio_output@@@2@@__crt_stdio_output@@AAE_N_W@Z 1005c420 f i libucrtd:output.obj
 0001:0005b520       ?type_case_c_tchar@?$output_processor@_WV?$stream_output_adapter@_W@__crt_stdio_output@@V?$positional_parameter_base@_WV?$stream_output_adapter@_W@__crt_stdio_output@@@2@@__crt_stdio_output@@AAE_N_W@Z 1005c520 f i libucrtd:output.obj
 0001:0005b620       ?type_case_c_tchar@?$output_processor@_WV?$stream_output_adapter@_W@__crt_stdio_output@@V?$standard_base@_WV?$stream_output_adapter@_W@__crt_stdio_output@@@2@@__crt_stdio_output@@AAE_N_W@Z 1005c620 f i libucrtd:output.obj
 0001:0005b720       ?type_case_c_tchar@?$output_processor@_WV?$string_output_adapter@_W@__crt_stdio_output@@V?$format_validation_base@_WV?$string_output_adapter@_W@__crt_stdio_output@@@2@@__crt_stdio_output@@AAE_N_W@Z 1005c720 f i libucrtd:output.obj
 0001:0005b820       ?type_case_c_tchar@?$output_processor@_WV?$string_output_adapter@_W@__crt_stdio_output@@V?$positional_parameter_base@_WV?$string_output_adapter@_W@__crt_stdio_output@@@2@@__crt_stdio_output@@AAE_N_W@Z 1005c820 f i libucrtd:output.obj
 0001:0005b920       ?type_case_c_tchar@?$output_processor@_WV?$string_output_adapter@_W@__crt_stdio_output@@V?$standard_base@_WV?$string_output_adapter@_W@__crt_stdio_output@@@2@@__crt_stdio_output@@AAE_N_W@Z 1005c920 f i libucrtd:output.obj
 0001:0005ba20       ?type_case_d@?$output_processor@DV?$stream_output_adapter@D@__crt_stdio_output@@V?$format_validation_base@DV?$stream_output_adapter@D@__crt_stdio_output@@@2@@__crt_stdio_output@@AAE_NXZ 1005ca20 f i libucrtd:output.obj
 0001:0005ba50       ?type_case_d@?$output_processor@DV?$stream_output_adapter@D@__crt_stdio_output@@V?$positional_parameter_base@DV?$stream_output_adapter@D@__crt_stdio_output@@@2@@__crt_stdio_output@@AAE_NXZ 1005ca50 f i libucrtd:output.obj
 0001:0005ba80       ?type_case_d@?$output_processor@DV?$stream_output_adapter@D@__crt_stdio_output@@V?$standard_base@DV?$stream_output_adapter@D@__crt_stdio_output@@@2@@__crt_stdio_output@@AAE_NXZ 1005ca80 f i libucrtd:output.obj
 0001:0005bab0       ?type_case_d@?$output_processor@DV?$string_output_adapter@D@__crt_stdio_output@@V?$format_validation_base@DV?$string_output_adapter@D@__crt_stdio_output@@@2@@__crt_stdio_output@@AAE_NXZ 1005cab0 f i libucrtd:output.obj
 0001:0005bae0       ?type_case_d@?$output_processor@DV?$string_output_adapter@D@__crt_stdio_output@@V?$positional_parameter_base@DV?$string_output_adapter@D@__crt_stdio_output@@@2@@__crt_stdio_output@@AAE_NXZ 1005cae0 f i libucrtd:output.obj
 0001:0005bb10       ?type_case_d@?$output_processor@DV?$string_output_adapter@D@__crt_stdio_output@@V?$standard_base@DV?$string_output_adapter@D@__crt_stdio_output@@@2@@__crt_stdio_output@@AAE_NXZ 1005cb10 f i libucrtd:output.obj
 0001:0005bb40       ?type_case_d@?$output_processor@_WV?$stream_output_adapter@_W@__crt_stdio_output@@V?$format_validation_base@_WV?$stream_output_adapter@_W@__crt_stdio_output@@@2@@__crt_stdio_output@@AAE_NXZ 1005cb40 f i libucrtd:output.obj
 0001:0005bb70       ?type_case_d@?$output_processor@_WV?$stream_output_adapter@_W@__crt_stdio_output@@V?$positional_parameter_base@_WV?$stream_output_adapter@_W@__crt_stdio_output@@@2@@__crt_stdio_output@@AAE_NXZ 1005cb70 f i libucrtd:output.obj
 0001:0005bba0       ?type_case_d@?$output_processor@_WV?$stream_output_adapter@_W@__crt_stdio_output@@V?$standard_base@_WV?$stream_output_adapter@_W@__crt_stdio_output@@@2@@__crt_stdio_output@@AAE_NXZ 1005cba0 f i libucrtd:output.obj
 0001:0005bbd0       ?type_case_d@?$output_processor@_WV?$string_output_adapter@_W@__crt_stdio_output@@V?$format_validation_base@_WV?$string_output_adapter@_W@__crt_stdio_output@@@2@@__crt_stdio_output@@AAE_NXZ 1005cbd0 f i libucrtd:output.obj
 0001:0005bc00       ?type_case_d@?$output_processor@_WV?$string_output_adapter@_W@__crt_stdio_output@@V?$positional_parameter_base@_WV?$string_output_adapter@_W@__crt_stdio_output@@@2@@__crt_stdio_output@@AAE_NXZ 1005cc00 f i libucrtd:output.obj
 0001:0005bc30       ?type_case_d@?$output_processor@_WV?$string_output_adapter@_W@__crt_stdio_output@@V?$standard_base@_WV?$string_output_adapter@_W@__crt_stdio_output@@@2@@__crt_stdio_output@@AAE_NXZ 1005cc30 f i libucrtd:output.obj
 0001:0005bc60       ?type_case_integer@?$output_processor@DV?$stream_output_adapter@D@__crt_stdio_output@@V?$format_validation_base@DV?$stream_output_adapter@D@__crt_stdio_output@@@2@@__crt_stdio_output@@AAE_NI_N@Z 1005cc60 f i libucrtd:output.obj
 0001:0005bfb0       ?type_case_integer@?$output_processor@DV?$stream_output_adapter@D@__crt_stdio_output@@V?$positional_parameter_base@DV?$stream_output_adapter@D@__crt_stdio_output@@@2@@__crt_stdio_output@@AAE_NI_N@Z 1005cfb0 f i libucrtd:output.obj
 0001:0005c300       ?type_case_integer@?$output_processor@DV?$stream_output_adapter@D@__crt_stdio_output@@V?$standard_base@DV?$stream_output_adapter@D@__crt_stdio_output@@@2@@__crt_stdio_output@@AAE_NI_N@Z 1005d300 f i libucrtd:output.obj
 0001:0005c650       ?type_case_integer@?$output_processor@DV?$string_output_adapter@D@__crt_stdio_output@@V?$format_validation_base@DV?$string_output_adapter@D@__crt_stdio_output@@@2@@__crt_stdio_output@@AAE_NI_N@Z 1005d650 f i libucrtd:output.obj
 0001:0005c9a0       ?type_case_integer@?$output_processor@DV?$string_output_adapter@D@__crt_stdio_output@@V?$positional_parameter_base@DV?$string_output_adapter@D@__crt_stdio_output@@@2@@__crt_stdio_output@@AAE_NI_N@Z 1005d9a0 f i libucrtd:output.obj
 0001:0005ccf0       ?type_case_integer@?$output_processor@DV?$string_output_adapter@D@__crt_stdio_output@@V?$standard_base@DV?$string_output_adapter@D@__crt_stdio_output@@@2@@__crt_stdio_output@@AAE_NI_N@Z 1005dcf0 f i libucrtd:output.obj
 0001:0005d040       ?type_case_integer@?$output_processor@_WV?$stream_output_adapter@_W@__crt_stdio_output@@V?$format_validation_base@_WV?$stream_output_adapter@_W@__crt_stdio_output@@@2@@__crt_stdio_output@@AAE_NI_N@Z 1005e040 f i libucrtd:output.obj
 0001:0005d390       ?type_case_integer@?$output_processor@_WV?$stream_output_adapter@_W@__crt_stdio_output@@V?$positional_parameter_base@_WV?$stream_output_adapter@_W@__crt_stdio_output@@@2@@__crt_stdio_output@@AAE_NI_N@Z 1005e390 f i libucrtd:output.obj
 0001:0005d6e0       ?type_case_integer@?$output_processor@_WV?$stream_output_adapter@_W@__crt_stdio_output@@V?$standard_base@_WV?$stream_output_adapter@_W@__crt_stdio_output@@@2@@__crt_stdio_output@@AAE_NI_N@Z 1005e6e0 f i libucrtd:output.obj
 0001:0005da30       ?type_case_integer@?$output_processor@_WV?$string_output_adapter@_W@__crt_stdio_output@@V?$format_validation_base@_WV?$string_output_adapter@_W@__crt_stdio_output@@@2@@__crt_stdio_output@@AAE_NI_N@Z 1005ea30 f i libucrtd:output.obj
 0001:0005dd80       ?type_case_integer@?$output_processor@_WV?$string_output_adapter@_W@__crt_stdio_output@@V?$positional_parameter_base@_WV?$string_output_adapter@_W@__crt_stdio_output@@@2@@__crt_stdio_output@@AAE_NI_N@Z 1005ed80 f i libucrtd:output.obj
 0001:0005e0d0       ?type_case_integer@?$output_processor@_WV?$string_output_adapter@_W@__crt_stdio_output@@V?$standard_base@_WV?$string_output_adapter@_W@__crt_stdio_output@@@2@@__crt_stdio_output@@AAE_NI_N@Z 1005f0d0 f i libucrtd:output.obj
 0001:0005e420       ?type_case_n@?$output_processor@DV?$stream_output_adapter@D@__crt_stdio_output@@V?$format_validation_base@DV?$stream_output_adapter@D@__crt_stdio_output@@@2@@__crt_stdio_output@@AAE_NXZ 1005f420 f i libucrtd:output.obj
 0001:0005e610       ?type_case_n@?$output_processor@DV?$stream_output_adapter@D@__crt_stdio_output@@V?$positional_parameter_base@DV?$stream_output_adapter@D@__crt_stdio_output@@@2@@__crt_stdio_output@@AAE_NXZ 1005f610 f i libucrtd:output.obj
 0001:0005e800       ?type_case_n@?$output_processor@DV?$stream_output_adapter@D@__crt_stdio_output@@V?$standard_base@DV?$stream_output_adapter@D@__crt_stdio_output@@@2@@__crt_stdio_output@@AAE_NXZ 1005f800 f i libucrtd:output.obj
 0001:0005e9f0       ?type_case_n@?$output_processor@DV?$string_output_adapter@D@__crt_stdio_output@@V?$format_validation_base@DV?$string_output_adapter@D@__crt_stdio_output@@@2@@__crt_stdio_output@@AAE_NXZ 1005f9f0 f i libucrtd:output.obj
 0001:0005ebe0       ?type_case_n@?$output_processor@DV?$string_output_adapter@D@__crt_stdio_output@@V?$positional_parameter_base@DV?$string_output_adapter@D@__crt_stdio_output@@@2@@__crt_stdio_output@@AAE_NXZ 1005fbe0 f i libucrtd:output.obj
 0001:0005edd0       ?type_case_n@?$output_processor@DV?$string_output_adapter@D@__crt_stdio_output@@V?$standard_base@DV?$string_output_adapter@D@__crt_stdio_output@@@2@@__crt_stdio_output@@AAE_NXZ 1005fdd0 f i libucrtd:output.obj
 0001:0005efc0       ?type_case_n@?$output_processor@_WV?$stream_output_adapter@_W@__crt_stdio_output@@V?$format_validation_base@_WV?$stream_output_adapter@_W@__crt_stdio_output@@@2@@__crt_stdio_output@@AAE_NXZ 1005ffc0 f i libucrtd:output.obj
 0001:0005f1b0       ?type_case_n@?$output_processor@_WV?$stream_output_adapter@_W@__crt_stdio_output@@V?$positional_parameter_base@_WV?$stream_output_adapter@_W@__crt_stdio_output@@@2@@__crt_stdio_output@@AAE_NXZ 100601b0 f i libucrtd:output.obj
 0001:0005f3a0       ?type_case_n@?$output_processor@_WV?$stream_output_adapter@_W@__crt_stdio_output@@V?$standard_base@_WV?$stream_output_adapter@_W@__crt_stdio_output@@@2@@__crt_stdio_output@@AAE_NXZ 100603a0 f i libucrtd:output.obj
 0001:0005f590       ?type_case_n@?$output_processor@_WV?$string_output_adapter@_W@__crt_stdio_output@@V?$format_validation_base@_WV?$string_output_adapter@_W@__crt_stdio_output@@@2@@__crt_stdio_output@@AAE_NXZ 10060590 f i libucrtd:output.obj
 0001:0005f780       ?type_case_n@?$output_processor@_WV?$string_output_adapter@_W@__crt_stdio_output@@V?$positional_parameter_base@_WV?$string_output_adapter@_W@__crt_stdio_output@@@2@@__crt_stdio_output@@AAE_NXZ 10060780 f i libucrtd:output.obj
 0001:0005f970       ?type_case_n@?$output_processor@_WV?$string_output_adapter@_W@__crt_stdio_output@@V?$standard_base@_WV?$string_output_adapter@_W@__crt_stdio_output@@@2@@__crt_stdio_output@@AAE_NXZ 10060970 f i libucrtd:output.obj
 0001:0005fb60       ?type_case_o@?$output_processor@DV?$stream_output_adapter@D@__crt_stdio_output@@V?$format_validation_base@DV?$stream_output_adapter@D@__crt_stdio_output@@@2@@__crt_stdio_output@@AAE_NXZ 10060b60 f i libucrtd:output.obj
 0001:0005fba0       ?type_case_o@?$output_processor@DV?$stream_output_adapter@D@__crt_stdio_output@@V?$positional_parameter_base@DV?$stream_output_adapter@D@__crt_stdio_output@@@2@@__crt_stdio_output@@AAE_NXZ 10060ba0 f i libucrtd:output.obj
 0001:0005fbe0       ?type_case_o@?$output_processor@DV?$stream_output_adapter@D@__crt_stdio_output@@V?$standard_base@DV?$stream_output_adapter@D@__crt_stdio_output@@@2@@__crt_stdio_output@@AAE_NXZ 10060be0 f i libucrtd:output.obj
 0001:0005fc20       ?type_case_o@?$output_processor@DV?$string_output_adapter@D@__crt_stdio_output@@V?$format_validation_base@DV?$string_output_adapter@D@__crt_stdio_output@@@2@@__crt_stdio_output@@AAE_NXZ 10060c20 f i libucrtd:output.obj
 0001:0005fc60       ?type_case_o@?$output_processor@DV?$string_output_adapter@D@__crt_stdio_output@@V?$positional_parameter_base@DV?$string_output_adapter@D@__crt_stdio_output@@@2@@__crt_stdio_output@@AAE_NXZ 10060c60 f i libucrtd:output.obj
 0001:0005fca0       ?type_case_o@?$output_processor@DV?$string_output_adapter@D@__crt_stdio_output@@V?$standard_base@DV?$string_output_adapter@D@__crt_stdio_output@@@2@@__crt_stdio_output@@AAE_NXZ 10060ca0 f i libucrtd:output.obj
 0001:0005fce0       ?type_case_o@?$output_processor@_WV?$stream_output_adapter@_W@__crt_stdio_output@@V?$format_validation_base@_WV?$stream_output_adapter@_W@__crt_stdio_output@@@2@@__crt_stdio_output@@AAE_NXZ 10060ce0 f i libucrtd:output.obj
 0001:0005fd20       ?type_case_o@?$output_processor@_WV?$stream_output_adapter@_W@__crt_stdio_output@@V?$positional_parameter_base@_WV?$stream_output_adapter@_W@__crt_stdio_output@@@2@@__crt_stdio_output@@AAE_NXZ 10060d20 f i libucrtd:output.obj
 0001:0005fd60       ?type_case_o@?$output_processor@_WV?$stream_output_adapter@_W@__crt_stdio_output@@V?$standard_base@_WV?$stream_output_adapter@_W@__crt_stdio_output@@@2@@__crt_stdio_output@@AAE_NXZ 10060d60 f i libucrtd:output.obj
 0001:0005fda0       ?type_case_o@?$output_processor@_WV?$string_output_adapter@_W@__crt_stdio_output@@V?$format_validation_base@_WV?$string_output_adapter@_W@__crt_stdio_output@@@2@@__crt_stdio_output@@AAE_NXZ 10060da0 f i libucrtd:output.obj
 0001:0005fde0       ?type_case_o@?$output_processor@_WV?$string_output_adapter@_W@__crt_stdio_output@@V?$positional_parameter_base@_WV?$string_output_adapter@_W@__crt_stdio_output@@@2@@__crt_stdio_output@@AAE_NXZ 10060de0 f i libucrtd:output.obj
 0001:0005fe20       ?type_case_o@?$output_processor@_WV?$string_output_adapter@_W@__crt_stdio_output@@V?$standard_base@_WV?$string_output_adapter@_W@__crt_stdio_output@@@2@@__crt_stdio_output@@AAE_NXZ 10060e20 f i libucrtd:output.obj
 0001:0005fe60       ?type_case_p@?$output_processor@DV?$stream_output_adapter@D@__crt_stdio_output@@V?$format_validation_base@DV?$stream_output_adapter@D@__crt_stdio_output@@@2@@__crt_stdio_output@@AAE_NXZ 10060e60 f i libucrtd:output.obj
 0001:0005fe90       ?type_case_p@?$output_processor@DV?$stream_output_adapter@D@__crt_stdio_output@@V?$positional_parameter_base@DV?$stream_output_adapter@D@__crt_stdio_output@@@2@@__crt_stdio_output@@AAE_NXZ 10060e90 f i libucrtd:output.obj
 0001:0005fec0       ?type_case_p@?$output_processor@DV?$stream_output_adapter@D@__crt_stdio_output@@V?$standard_base@DV?$stream_output_adapter@D@__crt_stdio_output@@@2@@__crt_stdio_output@@AAE_NXZ 10060ec0 f i libucrtd:output.obj
 0001:0005fef0       ?type_case_p@?$output_processor@DV?$string_output_adapter@D@__crt_stdio_output@@V?$format_validation_base@DV?$string_output_adapter@D@__crt_stdio_output@@@2@@__crt_stdio_output@@AAE_NXZ 10060ef0 f i libucrtd:output.obj
 0001:0005ff20       ?type_case_p@?$output_processor@DV?$string_output_adapter@D@__crt_stdio_output@@V?$positional_parameter_base@DV?$string_output_adapter@D@__crt_stdio_output@@@2@@__crt_stdio_output@@AAE_NXZ 10060f20 f i libucrtd:output.obj
 0001:0005ff50       ?type_case_p@?$output_processor@DV?$string_output_adapter@D@__crt_stdio_output@@V?$standard_base@DV?$string_output_adapter@D@__crt_stdio_output@@@2@@__crt_stdio_output@@AAE_NXZ 10060f50 f i libucrtd:output.obj
 0001:0005ff80       ?type_case_p@?$output_processor@_WV?$stream_output_adapter@_W@__crt_stdio_output@@V?$format_validation_base@_WV?$stream_output_adapter@_W@__crt_stdio_output@@@2@@__crt_stdio_output@@AAE_NXZ 10060f80 f i libucrtd:output.obj
 0001:0005ffb0       ?type_case_p@?$output_processor@_WV?$stream_output_adapter@_W@__crt_stdio_output@@V?$positional_parameter_base@_WV?$stream_output_adapter@_W@__crt_stdio_output@@@2@@__crt_stdio_output@@AAE_NXZ 10060fb0 f i libucrtd:output.obj
 0001:0005ffe0       ?type_case_p@?$output_processor@_WV?$stream_output_adapter@_W@__crt_stdio_output@@V?$standard_base@_WV?$stream_output_adapter@_W@__crt_stdio_output@@@2@@__crt_stdio_output@@AAE_NXZ 10060fe0 f i libucrtd:output.obj
 0001:00060010       ?type_case_p@?$output_processor@_WV?$string_output_adapter@_W@__crt_stdio_output@@V?$format_validation_base@_WV?$string_output_adapter@_W@__crt_stdio_output@@@2@@__crt_stdio_output@@AAE_NXZ 10061010 f i libucrtd:output.obj
 0001:00060040       ?type_case_p@?$output_processor@_WV?$string_output_adapter@_W@__crt_stdio_output@@V?$positional_parameter_base@_WV?$string_output_adapter@_W@__crt_stdio_output@@@2@@__crt_stdio_output@@AAE_NXZ 10061040 f i libucrtd:output.obj
 0001:00060070       ?type_case_p@?$output_processor@_WV?$string_output_adapter@_W@__crt_stdio_output@@V?$standard_base@_WV?$string_output_adapter@_W@__crt_stdio_output@@@2@@__crt_stdio_output@@AAE_NXZ 10061070 f i libucrtd:output.obj
 0001:000600a0       ?type_case_s@?$output_processor@DV?$stream_output_adapter@D@__crt_stdio_output@@V?$format_validation_base@DV?$stream_output_adapter@D@__crt_stdio_output@@@2@@__crt_stdio_output@@AAE_NXZ 100610a0 f i libucrtd:output.obj
 0001:00060190       ?type_case_s@?$output_processor@DV?$stream_output_adapter@D@__crt_stdio_output@@V?$positional_parameter_base@DV?$stream_output_adapter@D@__crt_stdio_output@@@2@@__crt_stdio_output@@AAE_NXZ 10061190 f i libucrtd:output.obj
 0001:00060280       ?type_case_s@?$output_processor@DV?$stream_output_adapter@D@__crt_stdio_output@@V?$standard_base@DV?$stream_output_adapter@D@__crt_stdio_output@@@2@@__crt_stdio_output@@AAE_NXZ 10061280 f i libucrtd:output.obj
 0001:00060370       ?type_case_s@?$output_processor@DV?$string_output_adapter@D@__crt_stdio_output@@V?$format_validation_base@DV?$string_output_adapter@D@__crt_stdio_output@@@2@@__crt_stdio_output@@AAE_NXZ 10061370 f i libucrtd:output.obj
 0001:00060460       ?type_case_s@?$output_processor@DV?$string_output_adapter@D@__crt_stdio_output@@V?$positional_parameter_base@DV?$string_output_adapter@D@__crt_stdio_output@@@2@@__crt_stdio_output@@AAE_NXZ 10061460 f i libucrtd:output.obj
 0001:00060550       ?type_case_s@?$output_processor@DV?$string_output_adapter@D@__crt_stdio_output@@V?$standard_base@DV?$string_output_adapter@D@__crt_stdio_output@@@2@@__crt_stdio_output@@AAE_NXZ 10061550 f i libucrtd:output.obj
 0001:00060640       ?type_case_s@?$output_processor@_WV?$stream_output_adapter@_W@__crt_stdio_output@@V?$format_validation_base@_WV?$stream_output_adapter@_W@__crt_stdio_output@@@2@@__crt_stdio_output@@AAE_NXZ 10061640 f i libucrtd:output.obj
 0001:00060730       ?type_case_s@?$output_processor@_WV?$stream_output_adapter@_W@__crt_stdio_output@@V?$positional_parameter_base@_WV?$stream_output_adapter@_W@__crt_stdio_output@@@2@@__crt_stdio_output@@AAE_NXZ 10061730 f i libucrtd:output.obj
 0001:00060820       ?type_case_s@?$output_processor@_WV?$stream_output_adapter@_W@__crt_stdio_output@@V?$standard_base@_WV?$stream_output_adapter@_W@__crt_stdio_output@@@2@@__crt_stdio_output@@AAE_NXZ 10061820 f i libucrtd:output.obj
 0001:00060910       ?type_case_s@?$output_processor@_WV?$string_output_adapter@_W@__crt_stdio_output@@V?$format_validation_base@_WV?$string_output_adapter@_W@__crt_stdio_output@@@2@@__crt_stdio_output@@AAE_NXZ 10061910 f i libucrtd:output.obj
 0001:00060a00       ?type_case_s@?$output_processor@_WV?$string_output_adapter@_W@__crt_stdio_output@@V?$positional_parameter_base@_WV?$string_output_adapter@_W@__crt_stdio_output@@@2@@__crt_stdio_output@@AAE_NXZ 10061a00 f i libucrtd:output.obj
 0001:00060af0       ?type_case_s@?$output_processor@_WV?$string_output_adapter@_W@__crt_stdio_output@@V?$standard_base@_WV?$string_output_adapter@_W@__crt_stdio_output@@@2@@__crt_stdio_output@@AAE_NXZ 10061af0 f i libucrtd:output.obj
 0001:00060be0       ?type_case_s_compute_narrow_string_length@?$output_processor@DV?$stream_output_adapter@D@__crt_stdio_output@@V?$format_validation_base@DV?$stream_output_adapter@D@__crt_stdio_output@@@2@@__crt_stdio_output@@ABEHHD@Z 10061be0 f i libucrtd:output.obj
 0001:00060c10       ?type_case_s_compute_narrow_string_length@?$output_processor@DV?$stream_output_adapter@D@__crt_stdio_output@@V?$positional_parameter_base@DV?$stream_output_adapter@D@__crt_stdio_output@@@2@@__crt_stdio_output@@ABEHHD@Z 10061c10 f i libucrtd:output.obj
 0001:00060c40       ?type_case_s_compute_narrow_string_length@?$output_processor@DV?$stream_output_adapter@D@__crt_stdio_output@@V?$standard_base@DV?$stream_output_adapter@D@__crt_stdio_output@@@2@@__crt_stdio_output@@ABEHHD@Z 10061c40 f i libucrtd:output.obj
 0001:00060c70       ?type_case_s_compute_narrow_string_length@?$output_processor@DV?$string_output_adapter@D@__crt_stdio_output@@V?$format_validation_base@DV?$string_output_adapter@D@__crt_stdio_output@@@2@@__crt_stdio_output@@ABEHHD@Z 10061c70 f i libucrtd:output.obj
 0001:00060ca0       ?type_case_s_compute_narrow_string_length@?$output_processor@DV?$string_output_adapter@D@__crt_stdio_output@@V?$positional_parameter_base@DV?$string_output_adapter@D@__crt_stdio_output@@@2@@__crt_stdio_output@@ABEHHD@Z 10061ca0 f i libucrtd:output.obj
 0001:00060cd0       ?type_case_s_compute_narrow_string_length@?$output_processor@DV?$string_output_adapter@D@__crt_stdio_output@@V?$standard_base@DV?$string_output_adapter@D@__crt_stdio_output@@@2@@__crt_stdio_output@@ABEHHD@Z 10061cd0 f i libucrtd:output.obj
 0001:00060d00       ?type_case_s_compute_narrow_string_length@?$output_processor@_WV?$stream_output_adapter@_W@__crt_stdio_output@@V?$format_validation_base@_WV?$stream_output_adapter@_W@__crt_stdio_output@@@2@@__crt_stdio_output@@ABEHH_W@Z 10061d00 f i libucrtd:output.obj
 0001:00060d70       ?type_case_s_compute_narrow_string_length@?$output_processor@_WV?$stream_output_adapter@_W@__crt_stdio_output@@V?$positional_parameter_base@_WV?$stream_output_adapter@_W@__crt_stdio_output@@@2@@__crt_stdio_output@@ABEHH_W@Z 10061d70 f i libucrtd:output.obj
 0001:00060de0       ?type_case_s_compute_narrow_string_length@?$output_processor@_WV?$stream_output_adapter@_W@__crt_stdio_output@@V?$standard_base@_WV?$stream_output_adapter@_W@__crt_stdio_output@@@2@@__crt_stdio_output@@ABEHH_W@Z 10061de0 f i libucrtd:output.obj
 0001:00060e50       ?type_case_s_compute_narrow_string_length@?$output_processor@_WV?$string_output_adapter@_W@__crt_stdio_output@@V?$format_validation_base@_WV?$string_output_adapter@_W@__crt_stdio_output@@@2@@__crt_stdio_output@@ABEHH_W@Z 10061e50 f i libucrtd:output.obj
 0001:00060ec0       ?type_case_s_compute_narrow_string_length@?$output_processor@_WV?$string_output_adapter@_W@__crt_stdio_output@@V?$positional_parameter_base@_WV?$string_output_adapter@_W@__crt_stdio_output@@@2@@__crt_stdio_output@@ABEHH_W@Z 10061ec0 f i libucrtd:output.obj
 0001:00060f30       ?type_case_s_compute_narrow_string_length@?$output_processor@_WV?$string_output_adapter@_W@__crt_stdio_output@@V?$standard_base@_WV?$string_output_adapter@_W@__crt_stdio_output@@@2@@__crt_stdio_output@@ABEHH_W@Z 10061f30 f i libucrtd:output.obj
 0001:00060fa0       ?type_case_u@?$output_processor@DV?$stream_output_adapter@D@__crt_stdio_output@@V?$format_validation_base@DV?$stream_output_adapter@D@__crt_stdio_output@@@2@@__crt_stdio_output@@AAE_NXZ 10061fa0 f i libucrtd:output.obj
 0001:00060fc0       ?type_case_u@?$output_processor@DV?$stream_output_adapter@D@__crt_stdio_output@@V?$positional_parameter_base@DV?$stream_output_adapter@D@__crt_stdio_output@@@2@@__crt_stdio_output@@AAE_NXZ 10061fc0 f i libucrtd:output.obj
 0001:00060fe0       ?type_case_u@?$output_processor@DV?$stream_output_adapter@D@__crt_stdio_output@@V?$standard_base@DV?$stream_output_adapter@D@__crt_stdio_output@@@2@@__crt_stdio_output@@AAE_NXZ 10061fe0 f i libucrtd:output.obj
 0001:00061000       ?type_case_u@?$output_processor@DV?$string_output_adapter@D@__crt_stdio_output@@V?$format_validation_base@DV?$string_output_adapter@D@__crt_stdio_output@@@2@@__crt_stdio_output@@AAE_NXZ 10062000 f i libucrtd:output.obj
 0001:00061020       ?type_case_u@?$output_processor@DV?$string_output_adapter@D@__crt_stdio_output@@V?$positional_parameter_base@DV?$string_output_adapter@D@__crt_stdio_output@@@2@@__crt_stdio_output@@AAE_NXZ 10062020 f i libucrtd:output.obj
 0001:00061040       ?type_case_u@?$output_processor@DV?$string_output_adapter@D@__crt_stdio_output@@V?$standard_base@DV?$string_output_adapter@D@__crt_stdio_output@@@2@@__crt_stdio_output@@AAE_NXZ 10062040 f i libucrtd:output.obj
 0001:00061060       ?type_case_u@?$output_processor@_WV?$stream_output_adapter@_W@__crt_stdio_output@@V?$format_validation_base@_WV?$stream_output_adapter@_W@__crt_stdio_output@@@2@@__crt_stdio_output@@AAE_NXZ 10062060 f i libucrtd:output.obj
 0001:00061080       ?type_case_u@?$output_processor@_WV?$stream_output_adapter@_W@__crt_stdio_output@@V?$positional_parameter_base@_WV?$stream_output_adapter@_W@__crt_stdio_output@@@2@@__crt_stdio_output@@AAE_NXZ 10062080 f i libucrtd:output.obj
 0001:000610a0       ?type_case_u@?$output_processor@_WV?$stream_output_adapter@_W@__crt_stdio_output@@V?$standard_base@_WV?$stream_output_adapter@_W@__crt_stdio_output@@@2@@__crt_stdio_output@@AAE_NXZ 100620a0 f i libucrtd:output.obj
 0001:000610c0       ?type_case_u@?$output_processor@_WV?$string_output_adapter@_W@__crt_stdio_output@@V?$format_validation_base@_WV?$string_output_adapter@_W@__crt_stdio_output@@@2@@__crt_stdio_output@@AAE_NXZ 100620c0 f i libucrtd:output.obj
 0001:000610e0       ?type_case_u@?$output_processor@_WV?$string_output_adapter@_W@__crt_stdio_output@@V?$positional_parameter_base@_WV?$string_output_adapter@_W@__crt_stdio_output@@@2@@__crt_stdio_output@@AAE_NXZ 100620e0 f i libucrtd:output.obj
 0001:00061100       ?type_case_u@?$output_processor@_WV?$string_output_adapter@_W@__crt_stdio_output@@V?$standard_base@_WV?$string_output_adapter@_W@__crt_stdio_output@@@2@@__crt_stdio_output@@AAE_NXZ 10062100 f i libucrtd:output.obj
 0001:00061120       ?type_case_x@?$output_processor@DV?$stream_output_adapter@D@__crt_stdio_output@@V?$format_validation_base@DV?$stream_output_adapter@D@__crt_stdio_output@@@2@@__crt_stdio_output@@AAE_NXZ 10062120 f i libucrtd:output.obj
 0001:00061140       ?type_case_x@?$output_processor@DV?$stream_output_adapter@D@__crt_stdio_output@@V?$positional_parameter_base@DV?$stream_output_adapter@D@__crt_stdio_output@@@2@@__crt_stdio_output@@AAE_NXZ 10062140 f i libucrtd:output.obj
 0001:00061160       ?type_case_x@?$output_processor@DV?$stream_output_adapter@D@__crt_stdio_output@@V?$standard_base@DV?$stream_output_adapter@D@__crt_stdio_output@@@2@@__crt_stdio_output@@AAE_NXZ 10062160 f i libucrtd:output.obj
 0001:00061180       ?type_case_x@?$output_processor@DV?$string_output_adapter@D@__crt_stdio_output@@V?$format_validation_base@DV?$string_output_adapter@D@__crt_stdio_output@@@2@@__crt_stdio_output@@AAE_NXZ 10062180 f i libucrtd:output.obj
 0001:000611a0       ?type_case_x@?$output_processor@DV?$string_output_adapter@D@__crt_stdio_output@@V?$positional_parameter_base@DV?$string_output_adapter@D@__crt_stdio_output@@@2@@__crt_stdio_output@@AAE_NXZ 100621a0 f i libucrtd:output.obj
 0001:000611c0       ?type_case_x@?$output_processor@DV?$string_output_adapter@D@__crt_stdio_output@@V?$standard_base@DV?$string_output_adapter@D@__crt_stdio_output@@@2@@__crt_stdio_output@@AAE_NXZ 100621c0 f i libucrtd:output.obj
 0001:000611e0       ?type_case_x@?$output_processor@_WV?$stream_output_adapter@_W@__crt_stdio_output@@V?$format_validation_base@_WV?$stream_output_adapter@_W@__crt_stdio_output@@@2@@__crt_stdio_output@@AAE_NXZ 100621e0 f i libucrtd:output.obj
 0001:00061200       ?type_case_x@?$output_processor@_WV?$stream_output_adapter@_W@__crt_stdio_output@@V?$positional_parameter_base@_WV?$stream_output_adapter@_W@__crt_stdio_output@@@2@@__crt_stdio_output@@AAE_NXZ 10062200 f i libucrtd:output.obj
 0001:00061220       ?type_case_x@?$output_processor@_WV?$stream_output_adapter@_W@__crt_stdio_output@@V?$standard_base@_WV?$stream_output_adapter@_W@__crt_stdio_output@@@2@@__crt_stdio_output@@AAE_NXZ 10062220 f i libucrtd:output.obj
 0001:00061240       ?type_case_x@?$output_processor@_WV?$string_output_adapter@_W@__crt_stdio_output@@V?$format_validation_base@_WV?$string_output_adapter@_W@__crt_stdio_output@@@2@@__crt_stdio_output@@AAE_NXZ 10062240 f i libucrtd:output.obj
 0001:00061260       ?type_case_x@?$output_processor@_WV?$string_output_adapter@_W@__crt_stdio_output@@V?$positional_parameter_base@_WV?$string_output_adapter@_W@__crt_stdio_output@@@2@@__crt_stdio_output@@AAE_NXZ 10062260 f i libucrtd:output.obj
 0001:00061280       ?type_case_x@?$output_processor@_WV?$string_output_adapter@_W@__crt_stdio_output@@V?$standard_base@_WV?$string_output_adapter@_W@__crt_stdio_output@@@2@@__crt_stdio_output@@AAE_NXZ 10062280 f i libucrtd:output.obj
 0001:000612a0       ?unset_flag@?$output_processor@DV?$stream_output_adapter@D@__crt_stdio_output@@V?$format_validation_base@DV?$stream_output_adapter@D@__crt_stdio_output@@@2@@__crt_stdio_output@@AAEXI@Z 100622a0 f i libucrtd:output.obj
 0001:000612c0       ?unset_flag@?$output_processor@DV?$stream_output_adapter@D@__crt_stdio_output@@V?$positional_parameter_base@DV?$stream_output_adapter@D@__crt_stdio_output@@@2@@__crt_stdio_output@@AAEXI@Z 100622c0 f i libucrtd:output.obj
 0001:000612e0       ?unset_flag@?$output_processor@DV?$stream_output_adapter@D@__crt_stdio_output@@V?$standard_base@DV?$stream_output_adapter@D@__crt_stdio_output@@@2@@__crt_stdio_output@@AAEXI@Z 100622e0 f i libucrtd:output.obj
 0001:00061300       ?unset_flag@?$output_processor@DV?$string_output_adapter@D@__crt_stdio_output@@V?$format_validation_base@DV?$string_output_adapter@D@__crt_stdio_output@@@2@@__crt_stdio_output@@AAEXI@Z 10062300 f i libucrtd:output.obj
 0001:00061320       ?unset_flag@?$output_processor@DV?$string_output_adapter@D@__crt_stdio_output@@V?$positional_parameter_base@DV?$string_output_adapter@D@__crt_stdio_output@@@2@@__crt_stdio_output@@AAEXI@Z 10062320 f i libucrtd:output.obj
 0001:00061340       ?unset_flag@?$output_processor@DV?$string_output_adapter@D@__crt_stdio_output@@V?$standard_base@DV?$string_output_adapter@D@__crt_stdio_output@@@2@@__crt_stdio_output@@AAEXI@Z 10062340 f i libucrtd:output.obj
 0001:00061360       ?unset_flag@?$output_processor@_WV?$stream_output_adapter@_W@__crt_stdio_output@@V?$format_validation_base@_WV?$stream_output_adapter@_W@__crt_stdio_output@@@2@@__crt_stdio_output@@AAEXI@Z 10062360 f i libucrtd:output.obj
 0001:00061380       ?unset_flag@?$output_processor@_WV?$stream_output_adapter@_W@__crt_stdio_output@@V?$positional_parameter_base@_WV?$stream_output_adapter@_W@__crt_stdio_output@@@2@@__crt_stdio_output@@AAEXI@Z 10062380 f i libucrtd:output.obj
 0001:000613a0       ?unset_flag@?$output_processor@_WV?$stream_output_adapter@_W@__crt_stdio_output@@V?$standard_base@_WV?$stream_output_adapter@_W@__crt_stdio_output@@@2@@__crt_stdio_output@@AAEXI@Z 100623a0 f i libucrtd:output.obj
 0001:000613c0       ?unset_flag@?$output_processor@_WV?$string_output_adapter@_W@__crt_stdio_output@@V?$format_validation_base@_WV?$string_output_adapter@_W@__crt_stdio_output@@@2@@__crt_stdio_output@@AAEXI@Z 100623c0 f i libucrtd:output.obj
 0001:000613e0       ?unset_flag@?$output_processor@_WV?$string_output_adapter@_W@__crt_stdio_output@@V?$positional_parameter_base@_WV?$string_output_adapter@_W@__crt_stdio_output@@@2@@__crt_stdio_output@@AAEXI@Z 100623e0 f i libucrtd:output.obj
 0001:00061400       ?unset_flag@?$output_processor@_WV?$string_output_adapter@_W@__crt_stdio_output@@V?$standard_base@_WV?$string_output_adapter@_W@__crt_stdio_output@@@2@@__crt_stdio_output@@AAEXI@Z 10062400 f i libucrtd:output.obj
 0001:00061420       ?update_field_width@?$positional_parameter_base@DV?$stream_output_adapter@D@__crt_stdio_output@@@__crt_stdio_output@@IAE_NXZ 10062420 f i libucrtd:output.obj
 0001:000615a0       ?update_field_width@?$positional_parameter_base@DV?$string_output_adapter@D@__crt_stdio_output@@@__crt_stdio_output@@IAE_NXZ 100625a0 f i libucrtd:output.obj
 0001:00061720       ?update_field_width@?$positional_parameter_base@_WV?$stream_output_adapter@_W@__crt_stdio_output@@@__crt_stdio_output@@IAE_NXZ 10062720 f i libucrtd:output.obj
 0001:000618a0       ?update_field_width@?$positional_parameter_base@_WV?$string_output_adapter@_W@__crt_stdio_output@@@__crt_stdio_output@@IAE_NXZ 100628a0 f i libucrtd:output.obj
 0001:00061a20       ?update_field_width@?$standard_base@DV?$stream_output_adapter@D@__crt_stdio_output@@@__crt_stdio_output@@IAE_NXZ 10062a20 f i libucrtd:output.obj
 0001:00061a50       ?update_field_width@?$standard_base@DV?$string_output_adapter@D@__crt_stdio_output@@@__crt_stdio_output@@IAE_NXZ 10062a50 f i libucrtd:output.obj
 0001:00061a80       ?update_field_width@?$standard_base@_WV?$stream_output_adapter@_W@__crt_stdio_output@@@__crt_stdio_output@@IAE_NXZ 10062a80 f i libucrtd:output.obj
 0001:00061ab0       ?update_field_width@?$standard_base@_WV?$string_output_adapter@_W@__crt_stdio_output@@@__crt_stdio_output@@IAE_NXZ 10062ab0 f i libucrtd:output.obj
 0001:00061ae0       ?update_precision@?$positional_parameter_base@DV?$stream_output_adapter@D@__crt_stdio_output@@@__crt_stdio_output@@IAE_NXZ 10062ae0 f i libucrtd:output.obj
 0001:00061c60       ?update_precision@?$positional_parameter_base@DV?$string_output_adapter@D@__crt_stdio_output@@@__crt_stdio_output@@IAE_NXZ 10062c60 f i libucrtd:output.obj
 0001:00061de0       ?update_precision@?$positional_parameter_base@_WV?$stream_output_adapter@_W@__crt_stdio_output@@@__crt_stdio_output@@IAE_NXZ 10062de0 f i libucrtd:output.obj
 0001:00061f60       ?update_precision@?$positional_parameter_base@_WV?$string_output_adapter@_W@__crt_stdio_output@@@__crt_stdio_output@@IAE_NXZ 10062f60 f i libucrtd:output.obj
 0001:000620e0       ?update_precision@?$standard_base@DV?$stream_output_adapter@D@__crt_stdio_output@@@__crt_stdio_output@@IAE_NXZ 100630e0 f i libucrtd:output.obj
 0001:00062110       ?update_precision@?$standard_base@DV?$string_output_adapter@D@__crt_stdio_output@@@__crt_stdio_output@@IAE_NXZ 10063110 f i libucrtd:output.obj
 0001:00062140       ?update_precision@?$standard_base@_WV?$stream_output_adapter@_W@__crt_stdio_output@@@__crt_stdio_output@@IAE_NXZ 10063140 f i libucrtd:output.obj
 0001:00062170       ?update_precision@?$standard_base@_WV?$string_output_adapter@_W@__crt_stdio_output@@@__crt_stdio_output@@IAE_NXZ 10063170 f i libucrtd:output.obj
 0001:000621a0       ?valid@__crt_stdio_stream@@QBE_NXZ 100631a0 f i libucrtd:output.obj
 0001:000621d0       ?validate@?$stream_output_adapter@D@__crt_stdio_output@@QBE_NXZ 100631d0 f i libucrtd:output.obj
 0001:00062280       ?validate@?$stream_output_adapter@_W@__crt_stdio_output@@QBE_NXZ 10063280 f i libucrtd:output.obj
 0001:00062330       ?validate@?$string_output_adapter@D@__crt_stdio_output@@QBE_NXZ 10063330 f i libucrtd:output.obj
 0001:000623c0       ?validate@?$string_output_adapter@_W@__crt_stdio_output@@QBE_NXZ 100633c0 f i libucrtd:output.obj
 0001:00062450       ?validate_and_store_parameter_data@?$positional_parameter_base@DV?$stream_output_adapter@D@__crt_stdio_output@@@__crt_stdio_output@@AAE_NAAUparameter_data@12@W4parameter_type@12@DW4length_modifier@2@@Z 10063450 f i libucrtd:output.obj
 0001:00062520       ?validate_and_store_parameter_data@?$positional_parameter_base@DV?$string_output_adapter@D@__crt_stdio_output@@@__crt_stdio_output@@AAE_NAAUparameter_data@12@W4parameter_type@12@DW4length_modifier@2@@Z 10063520 f i libucrtd:output.obj
 0001:000625f0       ?validate_and_store_parameter_data@?$positional_parameter_base@_WV?$stream_output_adapter@_W@__crt_stdio_output@@@__crt_stdio_output@@AAE_NAAUparameter_data@12@W4parameter_type@12@_WW4length_modifier@2@@Z 100635f0 f i libucrtd:output.obj
 0001:000626d0       ?validate_and_store_parameter_data@?$positional_parameter_base@_WV?$string_output_adapter@_W@__crt_stdio_output@@@__crt_stdio_output@@AAE_NAAUparameter_data@12@W4parameter_type@12@_WW4length_modifier@2@@Z 100636d0 f i libucrtd:output.obj
 0001:000627b0       ?validate_and_update_state_at_beginning_of_format_character@?$positional_parameter_base@DV?$stream_output_adapter@D@__crt_stdio_output@@@__crt_stdio_output@@IAE_NXZ 100637b0 f i libucrtd:output.obj
 0001:000629d0       ?validate_and_update_state_at_beginning_of_format_character@?$positional_parameter_base@DV?$string_output_adapter@D@__crt_stdio_output@@@__crt_stdio_output@@IAE_NXZ 100639d0 f i libucrtd:output.obj
 0001:00062bf0       ?validate_and_update_state_at_beginning_of_format_character@?$positional_parameter_base@_WV?$stream_output_adapter@_W@__crt_stdio_output@@@__crt_stdio_output@@IAE_NXZ 10063bf0 f i libucrtd:output.obj
 0001:00062e10       ?validate_and_update_state_at_beginning_of_format_character@?$positional_parameter_base@_WV?$string_output_adapter@_W@__crt_stdio_output@@@__crt_stdio_output@@IAE_NXZ 10063e10 f i libucrtd:output.obj
 0001:00063030       ?validate_and_update_state_at_beginning_of_format_character@?$standard_base@DV?$stream_output_adapter@D@__crt_stdio_output@@@__crt_stdio_output@@IAE_NXZ 10064030 f i libucrtd:output.obj
 0001:00063040       ?validate_and_update_state_at_beginning_of_format_character@?$standard_base@DV?$string_output_adapter@D@__crt_stdio_output@@@__crt_stdio_output@@IAE_NXZ 10064040 f i libucrtd:output.obj
 0001:00063050       ?validate_and_update_state_at_beginning_of_format_character@?$standard_base@_WV?$stream_output_adapter@_W@__crt_stdio_output@@@__crt_stdio_output@@IAE_NXZ 10064050 f i libucrtd:output.obj
 0001:00063060       ?validate_and_update_state_at_beginning_of_format_character@?$standard_base@_WV?$string_output_adapter@_W@__crt_stdio_output@@@__crt_stdio_output@@IAE_NXZ 10064060 f i libucrtd:output.obj
 0001:00063070       ?validate_and_update_state_at_end_of_format_string@?$format_validation_base@DV?$stream_output_adapter@D@__crt_stdio_output@@@__crt_stdio_output@@IBE_NXZ 10064070 f i libucrtd:output.obj
 0001:00063110       ?validate_and_update_state_at_end_of_format_string@?$format_validation_base@DV?$string_output_adapter@D@__crt_stdio_output@@@__crt_stdio_output@@IBE_NXZ 10064110 f i libucrtd:output.obj
 0001:000631b0       ?validate_and_update_state_at_end_of_format_string@?$format_validation_base@_WV?$stream_output_adapter@_W@__crt_stdio_output@@@__crt_stdio_output@@IBE_NXZ 100641b0 f i libucrtd:output.obj
 0001:00063250       ?validate_and_update_state_at_end_of_format_string@?$format_validation_base@_WV?$string_output_adapter@_W@__crt_stdio_output@@@__crt_stdio_output@@IBE_NXZ 10064250 f i libucrtd:output.obj
 0001:000632f0       ?validate_and_update_state_at_end_of_format_string@?$positional_parameter_base@DV?$stream_output_adapter@D@__crt_stdio_output@@@__crt_stdio_output@@IAE_NXZ 100642f0 f i libucrtd:output.obj
 0001:00063490       ?validate_and_update_state_at_end_of_format_string@?$positional_parameter_base@DV?$string_output_adapter@D@__crt_stdio_output@@@__crt_stdio_output@@IAE_NXZ 10064490 f i libucrtd:output.obj
 0001:00063630       ?validate_and_update_state_at_end_of_format_string@?$positional_parameter_base@_WV?$stream_output_adapter@_W@__crt_stdio_output@@@__crt_stdio_output@@IAE_NXZ 10064630 f i libucrtd:output.obj
 0001:000637d0       ?validate_and_update_state_at_end_of_format_string@?$positional_parameter_base@_WV?$string_output_adapter@_W@__crt_stdio_output@@@__crt_stdio_output@@IAE_NXZ 100647d0 f i libucrtd:output.obj
 0001:00063970       ?validate_and_update_state_at_end_of_format_string@?$standard_base@DV?$stream_output_adapter@D@__crt_stdio_output@@@__crt_stdio_output@@IBE_NXZ 10064970 f i libucrtd:output.obj
 0001:00063980       ?validate_and_update_state_at_end_of_format_string@?$standard_base@DV?$string_output_adapter@D@__crt_stdio_output@@@__crt_stdio_output@@IBE_NXZ 10064980 f i libucrtd:output.obj
 0001:00063990       ?validate_and_update_state_at_end_of_format_string@?$standard_base@_WV?$stream_output_adapter@_W@__crt_stdio_output@@@__crt_stdio_output@@IBE_NXZ 10064990 f i libucrtd:output.obj
 0001:000639a0       ?validate_and_update_state_at_end_of_format_string@?$standard_base@_WV?$string_output_adapter@_W@__crt_stdio_output@@@__crt_stdio_output@@IBE_NXZ 100649a0 f i libucrtd:output.obj
 0001:000639b0       ?validate_state_for_type_case_a@?$positional_parameter_base@DV?$stream_output_adapter@D@__crt_stdio_output@@@__crt_stdio_output@@IAE_NXZ 100649b0 f i libucrtd:output.obj
 0001:00063aa0       ?validate_state_for_type_case_a@?$positional_parameter_base@DV?$string_output_adapter@D@__crt_stdio_output@@@__crt_stdio_output@@IAE_NXZ 10064aa0 f i libucrtd:output.obj
 0001:00063b90       ?validate_state_for_type_case_a@?$positional_parameter_base@_WV?$stream_output_adapter@_W@__crt_stdio_output@@@__crt_stdio_output@@IAE_NXZ 10064b90 f i libucrtd:output.obj
 0001:00063c80       ?validate_state_for_type_case_a@?$positional_parameter_base@_WV?$string_output_adapter@_W@__crt_stdio_output@@@__crt_stdio_output@@IAE_NXZ 10064c80 f i libucrtd:output.obj
 0001:00063d70       ?validate_state_for_type_case_a@?$standard_base@DV?$stream_output_adapter@D@__crt_stdio_output@@@__crt_stdio_output@@IBE_NXZ 10064d70 f i libucrtd:output.obj
 0001:00063d80       ?validate_state_for_type_case_a@?$standard_base@DV?$string_output_adapter@D@__crt_stdio_output@@@__crt_stdio_output@@IBE_NXZ 10064d80 f i libucrtd:output.obj
 0001:00063d90       ?validate_state_for_type_case_a@?$standard_base@_WV?$stream_output_adapter@_W@__crt_stdio_output@@@__crt_stdio_output@@IBE_NXZ 10064d90 f i libucrtd:output.obj
 0001:00063da0       ?validate_state_for_type_case_a@?$standard_base@_WV?$string_output_adapter@_W@__crt_stdio_output@@@__crt_stdio_output@@IBE_NXZ 10064da0 f i libucrtd:output.obj
 0001:00063db0       ?validate_stream_is_ansi_if_required@?$__acrt_stdio_char_traits@D@@SA_NQAU_iobuf@@@Z 10064db0 f i libucrtd:output.obj
 0001:00063ee0       ?validate_stream_is_ansi_if_required@?$__acrt_stdio_char_traits@_W@@SA_NQAU_iobuf@@@Z 10064ee0 f i libucrtd:output.obj
 0001:00063ef0       ?wide_null_string@?$output_processor@DV?$stream_output_adapter@D@__crt_stdio_output@@V?$format_validation_base@DV?$stream_output_adapter@D@__crt_stdio_output@@@2@@__crt_stdio_output@@CAPA_WXZ 10064ef0 f i libucrtd:output.obj
 0001:00063f00       ?wide_null_string@?$output_processor@DV?$stream_output_adapter@D@__crt_stdio_output@@V?$positional_parameter_base@DV?$stream_output_adapter@D@__crt_stdio_output@@@2@@__crt_stdio_output@@CAPA_WXZ 10064f00 f i libucrtd:output.obj
 0001:00063f10       ?wide_null_string@?$output_processor@DV?$stream_output_adapter@D@__crt_stdio_output@@V?$standard_base@DV?$stream_output_adapter@D@__crt_stdio_output@@@2@@__crt_stdio_output@@CAPA_WXZ 10064f10 f i libucrtd:output.obj
 0001:00063f20       ?wide_null_string@?$output_processor@DV?$string_output_adapter@D@__crt_stdio_output@@V?$format_validation_base@DV?$string_output_adapter@D@__crt_stdio_output@@@2@@__crt_stdio_output@@CAPA_WXZ 10064f20 f i libucrtd:output.obj
 0001:00063f30       ?wide_null_string@?$output_processor@DV?$string_output_adapter@D@__crt_stdio_output@@V?$positional_parameter_base@DV?$string_output_adapter@D@__crt_stdio_output@@@2@@__crt_stdio_output@@CAPA_WXZ 10064f30 f i libucrtd:output.obj
 0001:00063f40       ?wide_null_string@?$output_processor@DV?$string_output_adapter@D@__crt_stdio_output@@V?$standard_base@DV?$string_output_adapter@D@__crt_stdio_output@@@2@@__crt_stdio_output@@CAPA_WXZ 10064f40 f i libucrtd:output.obj
 0001:00063f50       ?wide_null_string@?$output_processor@_WV?$stream_output_adapter@_W@__crt_stdio_output@@V?$format_validation_base@_WV?$stream_output_adapter@_W@__crt_stdio_output@@@2@@__crt_stdio_output@@CAPA_WXZ 10064f50 f i libucrtd:output.obj
 0001:00063f60       ?wide_null_string@?$output_processor@_WV?$stream_output_adapter@_W@__crt_stdio_output@@V?$positional_parameter_base@_WV?$stream_output_adapter@_W@__crt_stdio_output@@@2@@__crt_stdio_output@@CAPA_WXZ 10064f60 f i libucrtd:output.obj
 0001:00063f70       ?wide_null_string@?$output_processor@_WV?$stream_output_adapter@_W@__crt_stdio_output@@V?$standard_base@_WV?$stream_output_adapter@_W@__crt_stdio_output@@@2@@__crt_stdio_output@@CAPA_WXZ 10064f70 f i libucrtd:output.obj
 0001:00063f80       ?wide_null_string@?$output_processor@_WV?$string_output_adapter@_W@__crt_stdio_output@@V?$format_validation_base@_WV?$string_output_adapter@_W@__crt_stdio_output@@@2@@__crt_stdio_output@@CAPA_WXZ 10064f80 f i libucrtd:output.obj
 0001:00063f90       ?wide_null_string@?$output_processor@_WV?$string_output_adapter@_W@__crt_stdio_output@@V?$positional_parameter_base@_WV?$string_output_adapter@_W@__crt_stdio_output@@@2@@__crt_stdio_output@@CAPA_WXZ 10064f90 f i libucrtd:output.obj
 0001:00063fa0       ?wide_null_string@?$output_processor@_WV?$string_output_adapter@_W@__crt_stdio_output@@V?$standard_base@_WV?$string_output_adapter@_W@__crt_stdio_output@@@2@@__crt_stdio_output@@CAPA_WXZ 10064fa0 f i libucrtd:output.obj
 0001:00063fb0       ?write_character@?$output_adapter_common@DV?$stream_output_adapter@D@__crt_stdio_output@@@__crt_stdio_output@@QBEXDQAH@Z 10064fb0 f i libucrtd:output.obj
 0001:00063ff0       ?write_character@?$output_adapter_common@_WV?$stream_output_adapter@_W@__crt_stdio_output@@@__crt_stdio_output@@QBEX_WQAH@Z 10064ff0 f i libucrtd:output.obj
 0001:00064030       ?write_character@?$string_output_adapter@D@__crt_stdio_output@@QBE_NDQAH@Z 10065030 f i libucrtd:output.obj
 0001:000640c0       ?write_character@?$string_output_adapter@_W@__crt_stdio_output@@QBE_N_WQAH@Z 100650c0 f i libucrtd:output.obj
 0001:00064160       ?write_character_without_count_update@?$stream_output_adapter@D@__crt_stdio_output@@QBE_ND@Z 10065160 f i libucrtd:output.obj
 0001:000641d0       ?write_character_without_count_update@?$stream_output_adapter@_W@__crt_stdio_output@@QBE_N_W@Z 100651d0 f i libucrtd:output.obj
 0001:00064240       ?write_stored_string_tchar@?$output_processor@DV?$stream_output_adapter@D@__crt_stdio_output@@V?$format_validation_base@DV?$stream_output_adapter@D@__crt_stdio_output@@@2@@__crt_stdio_output@@AAE_ND@Z 10065240 f i libucrtd:output.obj
 0001:00064360       ?write_stored_string_tchar@?$output_processor@DV?$stream_output_adapter@D@__crt_stdio_output@@V?$positional_parameter_base@DV?$stream_output_adapter@D@__crt_stdio_output@@@2@@__crt_stdio_output@@AAE_ND@Z 10065360 f i libucrtd:output.obj
 0001:00064480       ?write_stored_string_tchar@?$output_processor@DV?$stream_output_adapter@D@__crt_stdio_output@@V?$standard_base@DV?$stream_output_adapter@D@__crt_stdio_output@@@2@@__crt_stdio_output@@AAE_ND@Z 10065480 f i libucrtd:output.obj
 0001:000645a0       ?write_stored_string_tchar@?$output_processor@DV?$string_output_adapter@D@__crt_stdio_output@@V?$format_validation_base@DV?$string_output_adapter@D@__crt_stdio_output@@@2@@__crt_stdio_output@@AAE_ND@Z 100655a0 f i libucrtd:output.obj
 0001:000646c0       ?write_stored_string_tchar@?$output_processor@DV?$string_output_adapter@D@__crt_stdio_output@@V?$positional_parameter_base@DV?$string_output_adapter@D@__crt_stdio_output@@@2@@__crt_stdio_output@@AAE_ND@Z 100656c0 f i libucrtd:output.obj
 0001:000647e0       ?write_stored_string_tchar@?$output_processor@DV?$string_output_adapter@D@__crt_stdio_output@@V?$standard_base@DV?$string_output_adapter@D@__crt_stdio_output@@@2@@__crt_stdio_output@@AAE_ND@Z 100657e0 f i libucrtd:output.obj
 0001:00064900       ?write_stored_string_tchar@?$output_processor@_WV?$stream_output_adapter@_W@__crt_stdio_output@@V?$format_validation_base@_WV?$stream_output_adapter@_W@__crt_stdio_output@@@2@@__crt_stdio_output@@AAE_N_W@Z 10065900 f i libucrtd:output.obj
 0001:000649f0       ?write_stored_string_tchar@?$output_processor@_WV?$stream_output_adapter@_W@__crt_stdio_output@@V?$positional_parameter_base@_WV?$stream_output_adapter@_W@__crt_stdio_output@@@2@@__crt_stdio_output@@AAE_N_W@Z 100659f0 f i libucrtd:output.obj
 0001:00064ae0       ?write_stored_string_tchar@?$output_processor@_WV?$stream_output_adapter@_W@__crt_stdio_output@@V?$standard_base@_WV?$stream_output_adapter@_W@__crt_stdio_output@@@2@@__crt_stdio_output@@AAE_N_W@Z 10065ae0 f i libucrtd:output.obj
 0001:00064bd0       ?write_stored_string_tchar@?$output_processor@_WV?$string_output_adapter@_W@__crt_stdio_output@@V?$format_validation_base@_WV?$string_output_adapter@_W@__crt_stdio_output@@@2@@__crt_stdio_output@@AAE_N_W@Z 10065bd0 f i libucrtd:output.obj
 0001:00064cc0       ?write_stored_string_tchar@?$output_processor@_WV?$string_output_adapter@_W@__crt_stdio_output@@V?$positional_parameter_base@_WV?$string_output_adapter@_W@__crt_stdio_output@@@2@@__crt_stdio_output@@AAE_N_W@Z 10065cc0 f i libucrtd:output.obj
 0001:00064db0       ?write_stored_string_tchar@?$output_processor@_WV?$string_output_adapter@_W@__crt_stdio_output@@V?$standard_base@_WV?$string_output_adapter@_W@__crt_stdio_output@@@2@@__crt_stdio_output@@AAE_N_W@Z 10065db0 f i libucrtd:output.obj
 0001:00064ea0       ?write_string@?$stream_output_adapter@D@__crt_stdio_output@@QBEXQBDHQAHAAV__crt_deferred_errno_cache@@@Z 10065ea0 f i libucrtd:output.obj
 0001:00064f00       ?write_string@?$stream_output_adapter@_W@__crt_stdio_output@@QBEXQB_WHQAHAAV__crt_deferred_errno_cache@@@Z 10065f00 f i libucrtd:output.obj
 0001:00064f60       ?write_string@?$string_output_adapter@D@__crt_stdio_output@@QBEXQBDHQAHAAV__crt_deferred_errno_cache@@@Z 10065f60 f i libucrtd:output.obj
 0001:00065060       ?write_string@?$string_output_adapter@_W@__crt_stdio_output@@QBEXQB_WHQAHAAV__crt_deferred_errno_cache@@@Z 10066060 f i libucrtd:output.obj
 0001:00065170       ?write_string_impl@?$output_adapter_common@DV?$stream_output_adapter@D@__crt_stdio_output@@@__crt_stdio_output@@IBEXQBDHQAHAAV__crt_deferred_errno_cache@@@Z 10066170 f i libucrtd:output.obj
 0001:00065210       ?write_string_impl@?$output_adapter_common@_WV?$stream_output_adapter@_W@__crt_stdio_output@@@__crt_stdio_output@@IBEXQB_WHQAHAAV__crt_deferred_errno_cache@@@Z 10066210 f i libucrtd:output.obj
 0001:000652b0       ___acrt_disable_global_locale_sync 100662b0 f i libucrtd:output.obj
 0001:000652d0       ___acrt_enable_global_locale_sync 100662d0 f i libucrtd:output.obj
 0001:000652f0       ___acrt_isleadbyte_l_noupdate 100662f0 f i libucrtd:output.obj
 0001:00065310       ___acrt_locale_changed     10066310 f i libucrtd:output.obj
 0001:00065340       ___acrt_locale_get_ctype_array_value 10066340 f i libucrtd:output.obj
 0001:00065370       ___stdio_common_vfprintf   10066370 f   libucrtd:output.obj
 0001:000653a0       ___stdio_common_vfprintf_p 100663a0 f   libucrtd:output.obj
 0001:000653d0       ___stdio_common_vfprintf_s 100663d0 f   libucrtd:output.obj
 0001:00065400       ___stdio_common_vfwprintf  10066400 f   libucrtd:output.obj
 0001:00065430       ___stdio_common_vfwprintf_p 10066430 f   libucrtd:output.obj
 0001:00065460       ___stdio_common_vfwprintf_s 10066460 f   libucrtd:output.obj
 0001:00065490       ___stdio_common_vsnprintf_s 10066490 f   libucrtd:output.obj
 0001:000654c0       ___stdio_common_vsnwprintf_s 100664c0 f   libucrtd:output.obj
 0001:000654f0       ___stdio_common_vsprintf   100664f0 f   libucrtd:output.obj
 0001:00065520       ___stdio_common_vsprintf_p 10066520 f   libucrtd:output.obj
 0001:00065550       ___stdio_common_vsprintf_s 10066550 f   libucrtd:output.obj
 0001:00065580       ___stdio_common_vswprintf  10066580 f   libucrtd:output.obj
 0001:000655b0       ___stdio_common_vswprintf_p 100665b0 f   libucrtd:output.obj
 0001:000655e0       ___stdio_common_vswprintf_s 100665e0 f   libucrtd:output.obj
 0001:00065610       __ctype_fast_check_internal 10066610 f i libucrtd:output.obj
 0001:00065630       __isdigit_fast_internal    10066630 f i libucrtd:output.obj
 0001:00065650       __tolower_fast_internal    10066650 f i libucrtd:output.obj
 0001:00065670       _free                      10066670 f   libucrtd:free.obj
 0001:000656a0       _malloc                    100666a0 f   libucrtd:malloc.obj
 0001:000656c0       ??$?RU?$__crt_report_hook_node@D@@@__crt_internal_free_policy@@QBEXQBU?$__crt_report_hook_node@D@@@Z 100666c0 f i libucrtd:dbgrpt.obj
 0001:000656e0       ??$?RU?$__crt_report_hook_node@_W@@@__crt_internal_free_policy@@QBEXQBU?$__crt_report_hook_node@_W@@@Z 100666e0 f i libucrtd:dbgrpt.obj
 0001:000664d0       ??$get_module_file_name@AAPAUHINSTANCE__@@AAY0BAF@DK@?$__crt_char_traits@D@@SAKAAPAUHINSTANCE__@@AAY0BAF@D$$QAK@Z 100674d0 f i libucrtd:dbgrpt.obj
 0001:000664f0       ??$get_module_file_name@AAPAUHINSTANCE__@@AAY0BAF@_WK@?$__crt_char_traits@_W@@SAKAAPAUHINSTANCE__@@AAY0BAF@_W$$QAK@Z 100674f0 f i libucrtd:dbgrpt.obj
 0001:00066510       ??$tcscpy_s@AAY0BAF@DIPBD@?$__crt_char_traits@D@@SAHAAY0BAF@D$$QAI$$QAPBD@Z 10067510 f i libucrtd:dbgrpt.obj
 0001:00066530       ??$tcscpy_s@AAY0BAF@_WIPB_W@?$__crt_char_traits@_W@@SAHAAY0BAF@_W$$QAI$$QAPB_W@Z 10067530 f i libucrtd:dbgrpt.obj
 0001:00066550       ??$tcslen@AAY0BAF@D@?$__crt_char_traits@D@@SAIAAY0BAF@D@Z 10067550 f i libucrtd:dbgrpt.obj
 0001:00066570       ??$tcslen@AAY0BAF@_W@?$__crt_char_traits@_W@@SAIAAY0BAF@_W@Z 10067570 f i libucrtd:dbgrpt.obj
 0001:00066590       ??$tcslen@ABQBD@?$__crt_char_traits@D@@SAIABQBD@Z 10067590 f i libucrtd:dbgrpt.obj
 0001:000665b0       ??$tcslen@ABQB_W@?$__crt_char_traits@_W@@SAIABQB_W@Z 100675b0 f i libucrtd:dbgrpt.obj
 0001:000666b0       ??0?$__crt_unique_heap_ptr@U?$__crt_report_hook_node@D@@U__crt_internal_free_policy@@@@QAE@QAU?$__crt_report_hook_node@D@@@Z 100676b0 f i libucrtd:dbgrpt.obj
 0001:000666d0       ??0?$__crt_unique_heap_ptr@U?$__crt_report_hook_node@_W@@U__crt_internal_free_policy@@@@QAE@QAU?$__crt_report_hook_node@_W@@@Z 100676d0 f i libucrtd:dbgrpt.obj
 0001:000666f0       ??1?$__crt_unique_heap_ptr@U?$__crt_report_hook_node@D@@U__crt_internal_free_policy@@@@QAE@XZ 100676f0 f i libucrtd:dbgrpt.obj
 0001:00066710       ??1?$__crt_unique_heap_ptr@U?$__crt_report_hook_node@_W@@U__crt_internal_free_policy@@@@QAE@XZ 10067710 f i libucrtd:dbgrpt.obj
 0001:00066730       ??B?$__crt_unique_heap_ptr@U?$__crt_report_hook_node@D@@U__crt_internal_free_policy@@@@QBE_NXZ 10067730 f i libucrtd:dbgrpt.obj
 0001:00066750       ??B?$__crt_unique_heap_ptr@U?$__crt_report_hook_node@_W@@U__crt_internal_free_policy@@@@QBE_NXZ 10067750 f i libucrtd:dbgrpt.obj
 0001:00066c90       ?detach@?$__crt_unique_heap_ptr@U?$__crt_report_hook_node@D@@U__crt_internal_free_policy@@@@QAEPAU?$__crt_report_hook_node@D@@XZ 10067c90 f i libucrtd:dbgrpt.obj
 0001:00066cc0       ?detach@?$__crt_unique_heap_ptr@U?$__crt_report_hook_node@_W@@U__crt_internal_free_policy@@@@QAEPAU?$__crt_report_hook_node@_W@@XZ 10067cc0 f i libucrtd:dbgrpt.obj
 0001:00066cf0       ?get@?$__crt_unique_heap_ptr@U?$__crt_report_hook_node@D@@U__crt_internal_free_policy@@@@QBEPAU?$__crt_report_hook_node@D@@XZ 10067cf0 f i libucrtd:dbgrpt.obj
 0001:00066d10       ?get@?$__crt_unique_heap_ptr@U?$__crt_report_hook_node@_W@@U__crt_internal_free_policy@@@@QBEPAU?$__crt_report_hook_node@_W@@XZ 10067d10 f i libucrtd:dbgrpt.obj
 0001:00066d90       ?is_valid@?$__crt_unique_heap_ptr@U?$__crt_report_hook_node@D@@U__crt_internal_free_policy@@@@QBE_NXZ 10067d90 f i libucrtd:dbgrpt.obj
 0001:00066dc0       ?is_valid@?$__crt_unique_heap_ptr@U?$__crt_report_hook_node@_W@@U__crt_internal_free_policy@@@@QBE_NXZ 10067dc0 f i libucrtd:dbgrpt.obj
 0001:00066df0       ?release@?$__crt_unique_heap_ptr@U?$__crt_report_hook_node@D@@U__crt_internal_free_policy@@@@QAEXXZ 10067df0 f i libucrtd:dbgrpt.obj
 0001:00066e20       ?release@?$__crt_unique_heap_ptr@U?$__crt_report_hook_node@_W@@U__crt_internal_free_policy@@@@QAEXXZ 10067e20 f i libucrtd:dbgrpt.obj
 0001:00066e50       __CrtDbgReport             10067e50 f   libucrtd:dbgrpt.obj
 0001:00066ea0       __CrtDbgReportW            10067ea0 f   libucrtd:dbgrpt.obj
 0001:00066ef0       __CrtSetReportHook2        10067ef0 f   libucrtd:dbgrpt.obj
 0001:00066f10       __CrtSetReportHookW2       10067f10 f   libucrtd:dbgrpt.obj
 0001:00066f30       ___acrt_MessageWindowA     10067f30 f   libucrtd:dbgrpt.obj
 0001:00066f60       ___acrt_MessageWindowW     10067f60 f   libucrtd:dbgrpt.obj
 0001:00066f90       __invoke_watson_if_error   10067f90 f i libucrtd:dbgrpt.obj
 0001:00066fc0       __invoke_watson_if_oneof   10067fc0 f i libucrtd:dbgrpt.obj
 0001:00067000       __snwprintf_s              10068000 f i libucrtd:dbgrpt.obj
 0001:00067040       __vsnwprintf_s_l           10068040 f i libucrtd:dbgrpt.obj
 0001:000673c0       _wcscpy_s                  100683c0 f   libucrtd:wcscpy_s.obj
 0001:000680e0       ??1?$__crt_simd_cleanup_guard@$00@@QAE@XZ 100690e0 f i libucrtd:strnlen.obj
 0001:000680f0       ??1?$__crt_simd_cleanup_guard@$0A@@@QAE@XZ 100690f0 f i libucrtd:strnlen.obj
 0001:00068100       ?compare_equals@?$__crt_simd_traits@$00E@@SA?AT__m256i@@T2@0@Z 10069100 f i libucrtd:strnlen.obj
 0001:00068140       ?compare_equals@?$__crt_simd_traits@$00G@@SA?AT__m256i@@T2@0@Z 10069140 f i libucrtd:strnlen.obj
 0001:00068180       ?compare_equals@?$__crt_simd_traits@$0A@E@@SA?AT__m128i@@T2@0@Z 10069180 f i libucrtd:strnlen.obj
 0001:000681c0       ?compare_equals@?$__crt_simd_traits@$0A@G@@SA?AT__m128i@@T2@0@Z 100691c0 f i libucrtd:strnlen.obj
 0001:00068200       ?compute_byte_mask@?$__crt_simd_pack_traits@$00@@SAHT__m256i@@@Z 10069200 f i libucrtd:strnlen.obj
 0001:00068230       ?compute_byte_mask@?$__crt_simd_pack_traits@$0A@@@SAHT__m128i@@@Z 10069230 f i libucrtd:strnlen.obj
 0001:00068260       ?get_zero_pack@?$__crt_simd_pack_traits@$00@@SA?AT__m256i@@XZ 10069260 f i libucrtd:strnlen.obj
 0001:00068290       ?get_zero_pack@?$__crt_simd_pack_traits@$0A@@@SA?AT__m128i@@XZ 10069290 f i libucrtd:strnlen.obj
 0001:000682c0       _strnlen                   100692c0 f   libucrtd:strnlen.obj
 0001:000682e0       _wcslen                    100692e0 f   libucrtd:strnlen.obj
 0001:00068300       _wcsnlen                   10069300 f   libucrtd:strnlen.obj
 0001:00068320       ??$__crt_fast_decode_pointer@P6AXPB_W00II@Z@@YAP6AXPB_W00II@ZQ6AX000II@Z@Z 10069320 f i libucrtd:invalid_parameter.obj
 0001:00068350       ??$__crt_fast_encode_pointer@P6AXPB_W00II@Z@@YAP6AXPB_W00II@ZQ6AX000II@Z@Z 10069350 f i libucrtd:invalid_parameter.obj
 0001:00068380       ??$initialize_from_array@$$BY00Q6AXPB_W00II@Z@?$dual_state_global@P6AXPB_W00II@Z@__crt_state_management@@QAAXAAY00Q6AXPB_W00II@Z@Z 10069380 f i libucrtd:invalid_parameter.obj
 0001:000683d0       ?__crt_rotate_pointer_value@@YAIIH@Z 100693d0 f i libucrtd:invalid_parameter.obj
 0001:000683e0       ?dangerous_get_state_array@?$dual_state_global@P6AXPB_W00II@Z@__crt_state_management@@QAEPAP6AXPB_W00II@ZXZ 100693e0 f i libucrtd:invalid_parameter.obj
 0001:000683f0       ?get_current_state_index@__crt_state_management@@YAIXZ 100693f0 f i libucrtd:invalid_parameter.obj
 0001:00068400       ?value@?$dual_state_global@P6AXPB_W00II@Z@__crt_state_management@@QAEAAP6AXPB_W00II@ZXZ 10069400 f i libucrtd:invalid_parameter.obj
 0001:00068420       ___acrt_call_reportfault   10069420 f   libucrtd:invalid_parameter.obj
 0001:00068580       ___acrt_initialize_invalid_parameter_handler 10069580 f   libucrtd:invalid_parameter.obj
 0001:000685b0       __get_invalid_parameter_handler 100695b0 f   libucrtd:invalid_parameter.obj
 0001:000685d0       __get_thread_local_invalid_parameter_handler 100695d0 f   libucrtd:invalid_parameter.obj
 0001:00068600       __invalid_parameter        10069600 f   libucrtd:invalid_parameter.obj
 0001:000686c0       __invalid_parameter_noinfo 100696c0 f   libucrtd:invalid_parameter.obj
 0001:000686e0       __invalid_parameter_noinfo_noreturn 100696e0 f   libucrtd:invalid_parameter.obj
 0001:00068710       __invoke_watson            10069710 f   libucrtd:invalid_parameter.obj
 0001:00068750       __set_invalid_parameter_handler 10069750 f   libucrtd:invalid_parameter.obj
 0001:000687a0       __set_thread_local_invalid_parameter_handler 100697a0 f   libucrtd:invalid_parameter.obj
 0001:000687d0       ___acrt_errno_from_os_error 100697d0 f   libucrtd:errno.obj
 0001:00068850       ___acrt_errno_map_os_error 10069850 f   libucrtd:errno.obj
 0001:00068880       ___doserrno                10069880 f   libucrtd:errno.obj
 0001:000688b0       __errno                    100698b0 f   libucrtd:errno.obj
 0001:000688e0       __get_doserrno             100698e0 f   libucrtd:errno.obj
 0001:00068970       __get_errno                10069970 f   libucrtd:errno.obj
 0001:00068a00       __set_doserrno             10069a00 f   libucrtd:errno.obj
 0001:00068a30       __set_errno                10069a30 f   libucrtd:errno.obj
 0001:00068a60       _calloc                    10069a60 f   libucrtd:calloc.obj
 0001:00068a80       __recalloc                 10069a80 f   libucrtd:recalloc.obj
 0001:00068ab0       __recalloc_base            10069ab0 f   libucrtd:recalloc.obj
 0001:00068b4a       __resetstkoflw             10069b4a f   libucrtd:resetstk.obj
 0001:00069030       _wcscat_s                  1006a030 f   libucrtd:wcscat_s.obj
 0001:00069480       _wcsncpy_s                 1006a480 f   libucrtd:wcsncpy_s.obj
 0001:000695c0       ___isascii                 1006a5c0 f   libucrtd:_ctype.obj
 0001:000695f0       ___iscsym                  1006a5f0 f   libucrtd:_ctype.obj
 0001:00069630       ___iscsymf                 1006a630 f   libucrtd:_ctype.obj
 0001:00069670       ___toascii                 1006a670 f   libucrtd:_ctype.obj
 0001:00069680       __isalnum_l                1006a680 f   libucrtd:_ctype.obj
 0001:000696a0       __isalpha_l                1006a6a0 f   libucrtd:_ctype.obj
 0001:000696c0       __isblank_l                1006a6c0 f   libucrtd:_ctype.obj
 0001:000696e0       __iscntrl_l                1006a6e0 f   libucrtd:_ctype.obj
 0001:00069700       __iscsym_l                 1006a700 f   libucrtd:_ctype.obj
 0001:00069740       __iscsymf_l                1006a740 f   libucrtd:_ctype.obj
 0001:00069780       __isdigit_l                1006a780 f   libucrtd:_ctype.obj
 0001:000697a0       __isgraph_l                1006a7a0 f   libucrtd:_ctype.obj
 0001:000697c0       __islower_l                1006a7c0 f   libucrtd:_ctype.obj
 0001:000697e0       __isprint_l                1006a7e0 f   libucrtd:_ctype.obj
 0001:00069800       __ispunct_l                1006a800 f   libucrtd:_ctype.obj
 0001:00069820       __isspace_l                1006a820 f   libucrtd:_ctype.obj
 0001:00069840       __isupper_l                1006a840 f   libucrtd:_ctype.obj
 0001:00069860       __isxdigit_l               1006a860 f   libucrtd:_ctype.obj
 0001:00069880       _isalnum                   1006a880 f   libucrtd:_ctype.obj
 0001:000698a0       _isalpha                   1006a8a0 f   libucrtd:_ctype.obj
 0001:000698c0       _isblank                   1006a8c0 f   libucrtd:_ctype.obj
 0001:000698f0       _iscntrl                   1006a8f0 f   libucrtd:_ctype.obj
 0001:00069910       _isdigit                   1006a910 f   libucrtd:_ctype.obj
 0001:00069930       _isgraph                   1006a930 f   libucrtd:_ctype.obj
 0001:00069950       _islower                   1006a950 f   libucrtd:_ctype.obj
 0001:00069970       _isprint                   1006a970 f   libucrtd:_ctype.obj
 0001:00069990       _ispunct                   1006a990 f   libucrtd:_ctype.obj
 0001:000699b0       _isspace                   1006a9b0 f   libucrtd:_ctype.obj
 0001:000699d0       _isupper                   1006a9d0 f   libucrtd:_ctype.obj
 0001:000699f0       _isxdigit                  1006a9f0 f   libucrtd:_ctype.obj
 0001:00069a10       _wcscat                    1006aa10 f   libucrtd:wcscat.obj
 0001:00069a70       _wcscpy                    1006aa70 f   libucrtd:wcscpy.obj
 0001:0006a100       ??$open_file@ABQBDABQBDABHPAU_iobuf@@@?$__crt_char_traits@D@@SAPAU_iobuf@@ABQBD0ABH$$QAPAU1@@Z 1006b100 f i libucrtd:fopen.obj
 0001:0006a130       ??$open_file@ABQB_WABQB_WABHPAU_iobuf@@@?$__crt_char_traits@_W@@SAPAU_iobuf@@ABQB_W0ABH$$QAPAU1@@Z 1006b130 f i libucrtd:fopen.obj
 0001:0006a160       ?unlock@__crt_stdio_stream@@QBEXXZ 1006b160 f i libucrtd:fopen.obj
 0001:0006a180       __fsopen                   1006b180 f   libucrtd:fopen.obj
 0001:0006a1a0       __wfopen                   1006b1a0 f   libucrtd:fopen.obj
 0001:0006a1c0       __wfopen_s                 1006b1c0 f   libucrtd:fopen.obj
 0001:0006a1e0       __wfsopen                  1006b1e0 f   libucrtd:fopen.obj
 0001:0006a200       _fopen                     1006b200 f   libucrtd:fopen.obj
 0001:0006a220       _fopen_s                   1006b220 f   libucrtd:fopen.obj
 0001:0006a240       ?is_in_use@__crt_stdio_stream@@QBE_NXZ 1006b240 f i libucrtd:fclose.obj
 0001:0006a280       __fclose_nolock            1006b280 f   libucrtd:fclose.obj
 0001:0006a3c0       _fclose                    1006b3c0 f   libucrtd:fclose.obj
 0001:0006a510       __fputc_nolock             1006b510 f   libucrtd:fputc.obj
 0001:0006a5a0       __fputchar                 1006b5a0 f   libucrtd:fputc.obj
 0001:0006a5c0       __putc_nolock              1006b5c0 f   libucrtd:fputc.obj
 0001:0006a5e0       _fputc                     1006b5e0 f   libucrtd:fputc.obj
 0001:0006a820       _putc                      1006b820 f   libucrtd:fputc.obj
 0001:0006a840       _putchar                   1006b840 f   libucrtd:fputc.obj
 0001:0006a8b0       __seh_filter_dll           1006b8b0 f   libucrtd:exception_filter.obj
 0001:0006a8e0       __seh_filter_exe           1006b8e0 f   libucrtd:exception_filter.obj
 0001:0006aaf0       ??$?B$$A6GXPAXK0@Z@__crt_fast_encoded_nullptr_t@@QBEP6GXPAXK0@ZXZ 1006baf0 f i libucrtd:exit.obj
 0001:0006abd0       ??$__crt_fast_decode_pointer@P6GXPAXK0@Z@@YAP6GXPAXK0@ZQ6GX0K0@Z@Z 1006bbd0 f i libucrtd:exit.obj
 0001:0006ac00       ??$__crt_fast_encode_pointer@P6GXPAXK0@Z@@YAP6GXPAXK0@ZQ6GX0K0@Z@Z 1006bc00 f i libucrtd:exit.obj
 0001:0006ac30       ??$__crt_get_proc_address@P6GXI@Z@@YAP6GXI@ZQAUHINSTANCE__@@QBD@Z 1006bc30 f i libucrtd:exit.obj
 0001:0006acc0       ??0?$__crt_unique_handle_t@U__crt_hmodule_traits@@@@QAE@QAUHINSTANCE__@@@Z 1006bcc0 f i libucrtd:exit.obj
 0001:0006ace0       ??1?$__crt_unique_handle_t@U__crt_hmodule_traits@@@@QAE@XZ 1006bce0 f i libucrtd:exit.obj
 0001:0006aea0       ?__acrt_select_exit_lock@@YA?AW4__acrt_lock_id@@XZ 1006bea0 f i libucrtd:exit.obj
 0001:0006aeb0       ?__crt_fast_encode_pointer@@YA?AU__crt_fast_encoded_nullptr_t@@$$T@Z 1006beb0 f i libucrtd:exit.obj
 0001:0006aee0       ?close@?$__crt_unique_handle_t@U__crt_hmodule_traits@@@@QAEXXZ 1006bee0 f i libucrtd:exit.obj
 0001:0006af20       ?close@__crt_hmodule_traits@@SA_NPAUHINSTANCE__@@@Z 1006bf20 f i libucrtd:exit.obj
 0001:0006b010       ?get@?$__crt_unique_handle_t@U__crt_hmodule_traits@@@@QBEPAUHINSTANCE__@@XZ 1006c010 f i libucrtd:exit.obj
 0001:0006b030       ?get_address_of@?$__crt_unique_handle_t@U__crt_hmodule_traits@@@@QAEPAPAUHINSTANCE__@@XZ 1006c030 f i libucrtd:exit.obj
 0001:0006b040       ?get_invalid_value@__crt_hmodule_traits@@SAPAUHINSTANCE__@@XZ 1006c040 f i libucrtd:exit.obj
 0001:0006b1c0       __Exit                     1006c1c0 f   libucrtd:exit.obj
 0001:0006b1e0       ___acrt_initialize_thread_local_exit_callback 1006c1e0 f   libucrtd:exit.obj
 0001:0006b1f0       __c_exit                   1006c1f0 f   libucrtd:exit.obj
 0001:0006b210       __cexit                    1006c210 f   libucrtd:exit.obj
 0001:0006b230       __exit                     1006c230 f   libucrtd:exit.obj
 0001:0006b250       __is_c_termination_complete 1006c250 f   libucrtd:exit.obj
 0001:0006b270       __register_thread_local_exe_atexit_callback 1006c270 f   libucrtd:exit.obj
 0001:0006b2b0       _exit                      1006c2b0 f   libucrtd:exit.obj
 0001:0006b2d0       _quick_exit                1006c2d0 f   libucrtd:exit.obj
 0001:0006b2f0       ??$?RE@__crt_internal_free_policy@@QBEXQBE@Z 1006c2f0 f i libucrtd:argv_parsing.obj
 0001:0006b310       ??$?RPAD@__crt_internal_free_policy@@QBEXQBQAD@Z 1006c310 f i libucrtd:argv_parsing.obj
 0001:0006b330       ??$?RPA_W@__crt_internal_free_policy@@QBEXQBQA_W@Z 1006c330 f i libucrtd:argv_parsing.obj
 0001:0006b890       ??$get_module_file_name@$$TAAY0BAF@DH@?$__crt_char_traits@D@@SAK$$QA$$TAAY0BAF@D$$QAH@Z 1006c890 f i libucrtd:argv_parsing.obj
 0001:0006b8b0       ??$get_module_file_name@$$TAAY0BAF@_WH@?$__crt_char_traits@_W@@SAK$$QA$$TAAY0BAF@_W$$QAH@Z 1006c8b0 f i libucrtd:argv_parsing.obj
 0001:0006bfd0       ??$set_program_name@PAD@?$__crt_char_traits@D@@SAX$$QAPAD@Z 1006cfd0 f i libucrtd:argv_parsing.obj
 0001:0006bff0       ??$set_program_name@PA_W@?$__crt_char_traits@_W@@SAX$$QAPA_W@Z 1006cff0 f i libucrtd:argv_parsing.obj
 0001:0006c050       ??0?$__crt_unique_heap_ptr@EU__crt_internal_free_policy@@@@QAE@QAE@Z 1006d050 f i libucrtd:argv_parsing.obj
 0001:0006c070       ??0?$__crt_unique_heap_ptr@PADU__crt_internal_free_policy@@@@QAE@QAPAD@Z 1006d070 f i libucrtd:argv_parsing.obj
 0001:0006c090       ??0?$__crt_unique_heap_ptr@PA_WU__crt_internal_free_policy@@@@QAE@QAPA_W@Z 1006d090 f i libucrtd:argv_parsing.obj
 0001:0006c0b0       ??1?$__crt_unique_heap_ptr@EU__crt_internal_free_policy@@@@QAE@XZ 1006d0b0 f i libucrtd:argv_parsing.obj
 0001:0006c0d0       ??1?$__crt_unique_heap_ptr@PADU__crt_internal_free_policy@@@@QAE@XZ 1006d0d0 f i libucrtd:argv_parsing.obj
 0001:0006c0f0       ??1?$__crt_unique_heap_ptr@PA_WU__crt_internal_free_policy@@@@QAE@XZ 1006d0f0 f i libucrtd:argv_parsing.obj
 0001:0006c110       ??B?$__crt_unique_heap_ptr@EU__crt_internal_free_policy@@@@QBE_NXZ 1006d110 f i libucrtd:argv_parsing.obj
 0001:0006c1d0       ?detach@?$__crt_unique_heap_ptr@EU__crt_internal_free_policy@@@@QAEPAEXZ 1006d1d0 f i libucrtd:argv_parsing.obj
 0001:0006c200       ?detach@?$__crt_unique_heap_ptr@PADU__crt_internal_free_policy@@@@QAEPAPADXZ 1006d200 f i libucrtd:argv_parsing.obj
 0001:0006c230       ?detach@?$__crt_unique_heap_ptr@PA_WU__crt_internal_free_policy@@@@QAEPAPA_WXZ 1006d230 f i libucrtd:argv_parsing.obj
 0001:0006c2c0       ?get@?$__crt_unique_heap_ptr@EU__crt_internal_free_policy@@@@QBEPAEXZ 1006d2c0 f i libucrtd:argv_parsing.obj
 0001:0006c2e0       ?get@?$__crt_unique_heap_ptr@PADU__crt_internal_free_policy@@@@QBEPAPADXZ 1006d2e0 f i libucrtd:argv_parsing.obj
 0001:0006c300       ?get@?$__crt_unique_heap_ptr@PA_WU__crt_internal_free_policy@@@@QBEPAPA_WXZ 1006d300 f i libucrtd:argv_parsing.obj
 0001:0006c320       ?get_address_of@?$__crt_unique_heap_ptr@PADU__crt_internal_free_policy@@@@QAEPAPAPADXZ 1006d320 f i libucrtd:argv_parsing.obj
 0001:0006c330       ?get_address_of@?$__crt_unique_heap_ptr@PA_WU__crt_internal_free_policy@@@@QAEPAPAPA_WXZ 1006d330 f i libucrtd:argv_parsing.obj
 0001:0006c380       ?is_valid@?$__crt_unique_heap_ptr@EU__crt_internal_free_policy@@@@QBE_NXZ 1006d380 f i libucrtd:argv_parsing.obj
 0001:0006c3b0       ?release@?$__crt_unique_heap_ptr@EU__crt_internal_free_policy@@@@QAEXXZ 1006d3b0 f i libucrtd:argv_parsing.obj
 0001:0006c3e0       ?release@?$__crt_unique_heap_ptr@PADU__crt_internal_free_policy@@@@QAEXXZ 1006d3e0 f i libucrtd:argv_parsing.obj
 0001:0006c410       ?release@?$__crt_unique_heap_ptr@PA_WU__crt_internal_free_policy@@@@QAEXXZ 1006d410 f i libucrtd:argv_parsing.obj
 0001:0006c480       ___acrt_allocate_buffer_for_argv 1006d480 f   libucrtd:argv_parsing.obj
 0001:0006c540       __configure_narrow_argv    1006d540 f   libucrtd:argv_parsing.obj
 0001:0006c560       __configure_wide_argv      1006d560 f   libucrtd:argv_parsing.obj
 0001:0006c580       __set_pgmptr               1006d580 f i libucrtd:argv_parsing.obj
 0001:0006c590       __set_wpgmptr              1006d590 f i libucrtd:argv_parsing.obj
 0001:0006c59f       ??$?R_W@__crt_internal_free_policy@@QBEXQB_W@Z 1006d59f f i libucrtd:environment_initialization.obj
 0001:0006ca08       ??$get_environment_from_os@$$V@?$__crt_char_traits@D@@SAPADXZ 1006da08 f i libucrtd:environment_initialization.obj
 0001:0006ca0d       ??$get_environment_from_os@$$V@?$__crt_char_traits@_W@@SAPA_WXZ 1006da0d f i libucrtd:environment_initialization.obj
 0001:0006cb36       ??$set_variable_in_environment_nolock@PADH@?$__crt_char_traits@D@@SAH$$QAPAD$$QAH@Z 1006db36 f i libucrtd:environment_initialization.obj
 0001:0006cb4e       ??$set_variable_in_environment_nolock@PA_WH@?$__crt_char_traits@_W@@SAH$$QAPA_W$$QAH@Z 1006db4e f i libucrtd:environment_initialization.obj
 0001:0006cb66       ??$tcscpy_s@PADABIAAPAD@?$__crt_char_traits@D@@SAH$$QAPADABIAAPAD@Z 1006db66 f i libucrtd:environment_initialization.obj
 0001:0006cb84       ??$tcscpy_s@PA_WABIAAPA_W@?$__crt_char_traits@_W@@SAH$$QAPA_WABIAAPA_W@Z 1006db84 f i libucrtd:environment_initialization.obj
 0001:0006cba2       ??$tcslen@AAPAD@?$__crt_char_traits@D@@SAIAAPAD@Z 1006dba2 f i libucrtd:environment_initialization.obj
 0001:0006cbba       ??$tcslen@AAPA_W@?$__crt_char_traits@_W@@SAIAAPA_W@Z 1006dbba f i libucrtd:environment_initialization.obj
 0001:0006cbd8       ??$uninitialize@A6AXAAPAPAD@Z@?$dual_state_global@PAPAD@__crt_state_management@@QAEXA6AXAAPAPAD@Z@Z 1006dbd8 f i libucrtd:environment_initialization.obj
 0001:0006cc01       ??$uninitialize@A6AXAAPAPA_W@Z@?$dual_state_global@PAPA_W@__crt_state_management@@QAEXA6AXAAPAPA_W@Z@Z 1006dc01 f i libucrtd:environment_initialization.obj
 0001:0006cc60       ??0?$__crt_unique_heap_ptr@_WU__crt_internal_free_policy@@@@QAE@QA_W@Z 1006dc60 f i libucrtd:environment_initialization.obj
 0001:0006cc70       ??1?$__crt_unique_heap_ptr@_WU__crt_internal_free_policy@@@@QAE@XZ 1006dc70 f i libucrtd:environment_initialization.obj
 0001:0006cc85       ??B?$__crt_unique_heap_ptr@PADU__crt_internal_free_policy@@@@QBE_NXZ 1006dc85 f i libucrtd:environment_initialization.obj
 0001:0006cc8c       ??B?$__crt_unique_heap_ptr@PA_WU__crt_internal_free_policy@@@@QBE_NXZ 1006dc8c f i libucrtd:environment_initialization.obj
 0001:0006cc93       ??B?$__crt_unique_heap_ptr@_WU__crt_internal_free_policy@@@@QBE_NXZ 1006dc93 f i libucrtd:environment_initialization.obj
 0001:0006cc9a       ?__crt_compute_required_transform_buffer_count@@YAIIQBD@Z 1006dc9a f i libucrtd:environment_initialization.obj
 0001:0006ccb6       ?__crt_compute_required_transform_buffer_count@@YAIIQB_W@Z 1006dcb6 f i libucrtd:environment_initialization.obj
 0001:0006ccd4       ?__crt_transform_string@@YAIIQBDQA_WI@Z 1006dcd4 f i libucrtd:environment_initialization.obj
 0001:0006ccf3       ?__crt_transform_string@@YAIIQB_WQADI@Z 1006dcf3 f i libucrtd:environment_initialization.obj
 0001:0006cd15       ?detach@?$__crt_unique_heap_ptr@DU__crt_internal_free_policy@@@@QAEPADXZ 1006dd15 f i libucrtd:environment_initialization.obj
 0001:0006cd1b       ?detach@?$__crt_unique_heap_ptr@_WU__crt_internal_free_policy@@@@QAEPA_WXZ 1006dd1b f i libucrtd:environment_initialization.obj
 0001:0006cd21       ?get@?$__crt_unique_heap_ptr@_WU__crt_internal_free_policy@@@@QBEPA_WXZ 1006dd21 f i libucrtd:environment_initialization.obj
 0001:0006cd48       ?initialize@?$dual_state_global@PAPAD@__crt_state_management@@QAEXQAPAD@Z 1006dd48 f i libucrtd:environment_initialization.obj
 0001:0006cd6e       ?initialize@?$dual_state_global@PAPA_W@__crt_state_management@@QAEXQAPA_W@Z 1006dd6e f i libucrtd:environment_initialization.obj
 0001:0006cd94       ?is_valid@?$__crt_unique_heap_ptr@PADU__crt_internal_free_policy@@@@QBE_NXZ 1006dd94 f i libucrtd:environment_initialization.obj
 0001:0006cd9b       ?is_valid@?$__crt_unique_heap_ptr@PA_WU__crt_internal_free_policy@@@@QBE_NXZ 1006dd9b f i libucrtd:environment_initialization.obj
 0001:0006cda2       ?is_valid@?$__crt_unique_heap_ptr@_WU__crt_internal_free_policy@@@@QBE_NXZ 1006dda2 f i libucrtd:environment_initialization.obj
 0001:0006cdb1       ?release@?$__crt_unique_heap_ptr@_WU__crt_internal_free_policy@@@@QAEXXZ 1006ddb1 f i libucrtd:environment_initialization.obj
 0001:0006cdc6       ?value@?$dual_state_global@PAPAD@__crt_state_management@@QAEAAPAPADXZ 1006ddc6 f i libucrtd:environment_initialization.obj
 0001:0006cdc9       ?value@?$dual_state_global@PAPA_W@__crt_state_management@@QAEAAPAPA_WXZ 1006ddc9 f i libucrtd:environment_initialization.obj
 0001:0006cdcc       ___dcrt_get_or_create_narrow_environment_nolock 1006ddcc f   libucrtd:environment_initialization.obj
 0001:0006cdd1       ___dcrt_get_or_create_wide_environment_nolock 1006ddd1 f   libucrtd:environment_initialization.obj
 0001:0006cdd6       ___dcrt_uninitialize_environments_nolock 1006ddd6 f   libucrtd:environment_initialization.obj
 0001:0006ce0d       ___p__environ              1006de0d f   libucrtd:environment_initialization.obj
 0001:0006ce13       ___p__wenviron             1006de13 f   libucrtd:environment_initialization.obj
 0001:0006ce19       __get_initial_narrow_environment 1006de19 f   libucrtd:environment_initialization.obj
 0001:0006ce2d       __get_initial_wide_environment 1006de2d f   libucrtd:environment_initialization.obj
 0001:0006ce41       __initialize_narrow_environment 1006de41 f   libucrtd:environment_initialization.obj
 0001:0006ce46       __initialize_wide_environment 1006de46 f   libucrtd:environment_initialization.obj
 0001:0006ce50       ??$?B$$A6AXXZ@__crt_fast_encoded_nullptr_t@@QBEP6AXXZXZ 1006de50 f i libucrtd:onexit.obj
 0001:0006ce70       ??$?BP6AXXZ@__crt_fast_encoded_nullptr_t@@QBEPAP6AXXZXZ 1006de70 f i libucrtd:onexit.obj
 0001:0006ce90       ??$?RP6AXXZ@__crt_internal_free_policy@@QBEXQBQ6AXXZ@Z 1006de90 f i libucrtd:onexit.obj
 0001:0006d050       ??$__crt_fast_decode_pointer@P6AXXZ@@YAP6AXXZQ6AXXZ@Z 1006e050 f i libucrtd:onexit.obj
 0001:0006d080       ??$__crt_fast_decode_pointer@PAP6AXXZ@@YAPAP6AXXZQAP6AXXZ@Z 1006e080 f i libucrtd:onexit.obj
 0001:0006d0b0       ??$__crt_fast_encode_pointer@P6AHXZ@@YAP6AHXZQ6AHXZ@Z 1006e0b0 f i libucrtd:onexit.obj
 0001:0006d0e0       ??$__crt_fast_encode_pointer@P6AXXZ@@YAP6AXXZQ6AXXZ@Z 1006e0e0 f i libucrtd:onexit.obj
 0001:0006d110       ??$__crt_fast_encode_pointer@PAP6AXXZ@@YAPAP6AXXZQAP6AXXZ@Z 1006e110 f i libucrtd:onexit.obj
 0001:0006d210       ??0?$__crt_unique_heap_ptr@P6AXXZU__crt_internal_free_policy@@@@QAE@QAP6AXXZ@Z 1006e210 f i libucrtd:onexit.obj
 0001:0006d230       ??1?$__crt_unique_heap_ptr@P6AXXZU__crt_internal_free_policy@@@@QAE@XZ 1006e230 f i libucrtd:onexit.obj
 0001:0006d250       ??1scoped_global_state_reset@__crt_state_management@@QAE@XZ 1006e250 f i libucrtd:onexit.obj
 0001:0006d6c0       ?detach@?$__crt_unique_heap_ptr@P6AXXZU__crt_internal_free_policy@@@@QAEPAP6AXXZXZ 1006e6c0 f i libucrtd:onexit.obj
 0001:0006d6f0       ?release@?$__crt_unique_heap_ptr@P6AXXZU__crt_internal_free_policy@@@@QAEXXZ 1006e6f0 f i libucrtd:onexit.obj
 0001:0006d720       __crt_at_quick_exit        1006e720 f   libucrtd:onexit.obj
 0001:0006d740       __crt_atexit               1006e740 f   libucrtd:onexit.obj
 0001:0006d760       __execute_onexit_table     1006e760 f   libucrtd:onexit.obj
 0001:0006d790       __initialize_onexit_table  1006e790 f   libucrtd:onexit.obj
 0001:0006d7f0       __register_onexit_function 1006e7f0 f   libucrtd:onexit.obj
 0001:0006da30       ??$?BX@__crt_fast_encoded_nullptr_t@@QBEPAXXZ 1006ea30 f i libucrtd:initialization.obj
 0001:0006da50       ??$__crt_fast_encode_pointer@PAX@@YAPAXQAX@Z 1006ea50 f i libucrtd:initialization.obj
 0001:0006db10       ?initialize@?$dual_state_global@PAU__crt_locale_data@@@__crt_state_management@@QAEXQAU__crt_locale_data@@@Z 1006eb10 f i libucrtd:initialization.obj
 0001:0006db50       ___acrt_initialize         1006eb50 f   libucrtd:initialization.obj
 0001:0006db70       ___acrt_thread_attach      1006eb70 f   libucrtd:initialization.obj
 0001:0006db90       ___acrt_thread_detach      1006eb90 f   libucrtd:initialization.obj
 0001:0006dba0       ___acrt_uninitialize       1006eba0 f   libucrtd:initialization.obj
 0001:0006dbc0       ___acrt_uninitialize_critical 1006ebc0 f   libucrtd:initialization.obj
 0001:0006f430       __CrtCheckMemory           10070430 f   libucrtd:debug_heap.obj
 0001:0006f5c0       __CrtDoForAllClientObjects 100705c0 f   libucrtd:debug_heap.obj
 0001:0006f710       __CrtDumpMemoryLeaks       10070710 f   libucrtd:debug_heap.obj
 0001:0006f7b0       __CrtGetAllocHook          100707b0 f   libucrtd:debug_heap.obj
 0001:0006f7c0       __CrtGetDumpClient         100707c0 f   libucrtd:debug_heap.obj
 0001:0006f7d0       __CrtIsMemoryBlock         100707d0 f   libucrtd:debug_heap.obj
 0001:0006f920       __CrtIsValidHeapPointer    10070920 f   libucrtd:debug_heap.obj
 0001:0006f950       __CrtIsValidPointer        10070950 f   libucrtd:debug_heap.obj
 0001:0006f980       __CrtMemCheckpoint         10070980 f   libucrtd:debug_heap.obj
 0001:0006fbb0       __CrtMemDifference         10070bb0 f   libucrtd:debug_heap.obj
 0001:0006fe20       __CrtMemDumpAllObjectsSince 10070e20 f   libucrtd:debug_heap.obj
 0001:0006fec0       __CrtMemDumpStatistics     10070ec0 f   libucrtd:debug_heap.obj
 0001:0006fff0       __CrtReportBlockType       10070ff0 f   libucrtd:debug_heap.obj
 0001:00070020       __CrtSetAllocHook          10071020 f   libucrtd:debug_heap.obj
 0001:00070040       __CrtSetBreakAlloc         10071040 f   libucrtd:debug_heap.obj
 0001:00070060       __CrtSetDbgBlockType       10071060 f   libucrtd:debug_heap.obj
 0001:00070140       __CrtSetDbgFlag            10071140 f   libucrtd:debug_heap.obj
 0001:000702b0       __CrtSetDumpClient         100712b0 f   libucrtd:debug_heap.obj
 0001:000702d0       ___acrt_get_locale_data_prefix 100712d0 f i libucrtd:debug_heap.obj
 0001:000702f0       ___p__crtBreakAlloc        100712f0 f   libucrtd:debug_heap.obj
 0001:00070300       ___p__crtDbgFlag           10071300 f   libucrtd:debug_heap.obj
 0001:00070310       __aligned_free_dbg         10071310 f   libucrtd:debug_heap.obj
 0001:000703c0       __aligned_malloc_dbg       100713c0 f   libucrtd:debug_heap.obj
 0001:000703f0       __aligned_msize_dbg        100713f0 f   libucrtd:debug_heap.obj
 0001:00070520       __aligned_offset_malloc_dbg 10071520 f   libucrtd:debug_heap.obj
 0001:00070700       __aligned_offset_realloc_dbg 10071700 f   libucrtd:debug_heap.obj
 0001:00070a10       __aligned_offset_recalloc_dbg 10071a10 f   libucrtd:debug_heap.obj
 0001:00070ad0       __aligned_realloc_dbg      10071ad0 f   libucrtd:debug_heap.obj
 0001:00070b00       __aligned_recalloc_dbg     10071b00 f   libucrtd:debug_heap.obj
 0001:00070b30       __calloc_dbg               10071b30 f   libucrtd:debug_heap.obj
 0001:00070ba0       __chvalidchk_l             10071ba0 f i libucrtd:debug_heap.obj
 0001:00070bc0       __expand_dbg               10071bc0 f   libucrtd:debug_heap.obj
 0001:00070cf0       __free_dbg                 10071cf0 f   libucrtd:debug_heap.obj
 0001:00070da0       __ischartype_l             10071da0 f i libucrtd:debug_heap.obj
 0001:00070e20       __malloc_dbg               10071e20 f   libucrtd:debug_heap.obj
 0001:00070e40       __msize_dbg                10071e40 f   libucrtd:debug_heap.obj
 0001:00070fd0       __realloc_dbg              10071fd0 f   libucrtd:debug_heap.obj
 0001:00071070       __recalloc_dbg             10072070 f   libucrtd:debug_heap.obj
 0001:00071120       __initterm                 10072120 f   libucrtd:initterm.obj
 0001:00071170       __initterm_e               10072170 f   libucrtd:initterm.obj
 0001:000714e0       _strcpy_s                  100724e0 f   libucrtd:strcpy_s.obj
 0001:00071910       _strcat_s                  10072910 f   libucrtd:strcat_s.obj
 0001:00071930       ??$?B$$A6AHI@Z@__crt_fast_encoded_nullptr_t@@QBEP6AHI@ZXZ 10072930 f i libucrtd:new_handler.obj
 0001:00071950       ??$__crt_fast_decode_pointer@P6AHI@Z@@YAP6AHI@ZQ6AHI@Z@Z 10072950 f i libucrtd:new_handler.obj
 0001:00071980       ??$__crt_fast_encode_pointer@P6AHI@Z@@YAP6AHI@ZQ6AHI@Z@Z 10072980 f i libucrtd:new_handler.obj
 0001:000719b0       ?_set_new_handler@@YAP6AHI@ZH@Z 100729b0 f   libucrtd:new_handler.obj
 0001:00071a10       ?initialize@?$dual_state_global@P6AHI@Z@__crt_state_management@@QAEXQ6AHI@Z@Z 10072a10 f i libucrtd:new_handler.obj
 0001:00071a50       ?value@?$dual_state_global@P6AHI@Z@__crt_state_management@@QAEAAP6AHI@ZXZ 10072a50 f i libucrtd:new_handler.obj
 0001:00071a70       ___acrt_initialize_new_handler 10072a70 f   libucrtd:new_handler.obj
 0001:00071a90       __callnewh                 10072a90 f   libucrtd:new_handler.obj
 0001:00071ad0       __query_new_handler        10072ad0 f   libucrtd:new_handler.obj
 0001:00071b60       __set_new_handler          10072b60 f   libucrtd:new_handler.obj
 0001:00071c40       __get_terminate            10072c40 f   libucrtd:terminate.obj
 0001:00071c60       _set_terminate             10072c60 f   libucrtd:terminate.obj
 0001:00071c90       _terminate                 10072c90 f   libucrtd:terminate.obj
 0001:00072660       __makepath                 10073660 f   libucrtd:makepath.obj
 0001:00072690       __makepath_s               10073690 f   libucrtd:makepath.obj
 0001:000726c0       __wmakepath                100736c0 f   libucrtd:makepath.obj
 0001:000726f0       __wmakepath_s              100736f0 f   libucrtd:makepath.obj
 0001:00074040       ??$tcsncpy_s@AAPADIAAPBDABI@?$__crt_char_traits@D@@SAHAAPAD$$QAIAAPBDABI@Z 10075040 f i libucrtd:splitpath.obj
 0001:00074070       ??$tcsncpy_s@AAPADIAAPBDH@?$__crt_char_traits@D@@SAHAAPAD$$QAIAAPBD$$QAH@Z 10075070 f i libucrtd:splitpath.obj
 0001:000740a0       ??$tcsncpy_s@AAPA_WIAAPB_WABI@?$__crt_char_traits@_W@@SAHAAPA_W$$QAIAAPB_WABI@Z 100750a0 f i libucrtd:splitpath.obj
 0001:000740d0       ??$tcsncpy_s@AAPA_WIAAPB_WH@?$__crt_char_traits@_W@@SAHAAPA_W$$QAIAAPB_W$$QAH@Z 100750d0 f i libucrtd:splitpath.obj
 0001:00074310       __splitpath                10075310 f   libucrtd:splitpath.obj
 0001:00074340       __splitpath_s              10075340 f   libucrtd:splitpath.obj
 0001:00074390       __wsplitpath               10075390 f   libucrtd:splitpath.obj
 0001:000743c0       __wsplitpath_s             100753c0 f   libucrtd:splitpath.obj
 0001:00074410       __set_abort_behavior       10075410 f   libucrtd:abort.obj
 0001:00074440       _abort                     10075440 f   libucrtd:abort.obj
 0001:000744b0       _strcmp                    100754b0 f   libucrtd:strcmp.obj
 0001:00074540       _strlen                    10075540 f   libucrtd:strlen.obj
 0001:000745d0       ??$is_overflow_condition@K@__crt_strtox@@YA_NIK@Z 100755d0 f i libucrtd:atox.obj
 0001:00074630       ??$is_overflow_condition@_K@__crt_strtox@@YA_NI_K@Z 10075630 f i libucrtd:atox.obj
 0001:000746c0       ??$make_c_string_character_source@D$$T@__crt_strtox@@YA?AV?$c_string_character_source@D@0@QBD$$T@Z 100756c0 f i libucrtd:atox.obj
 0001:000746e0       ??$make_c_string_character_source@_W$$T@__crt_strtox@@YA?AV?$c_string_character_source@_W@0@QB_W$$T@Z 100756e0 f i libucrtd:atox.obj
 0001:00074700       ??$parse_integer@KV?$c_string_character_source@D@__crt_strtox@@@__crt_strtox@@YAKQAU__crt_locale_pointers@@V?$c_string_character_source@D@0@H_N@Z 10075700 f i libucrtd:atox.obj
 0001:00074a70       ??$parse_integer@KV?$c_string_character_source@_W@__crt_strtox@@@__crt_strtox@@YAKQAU__crt_locale_pointers@@V?$c_string_character_source@_W@0@H_N@Z 10075a70 f i libucrtd:atox.obj
 0001:00074de0       ??$parse_integer@_KV?$c_string_character_source@D@__crt_strtox@@@__crt_strtox@@YA_KQAU__crt_locale_pointers@@V?$c_string_character_source@D@0@H_N@Z 10075de0 f i libucrtd:atox.obj
 0001:00075200       ??$parse_integer@_KV?$c_string_character_source@_W@__crt_strtox@@@__crt_strtox@@YA_KQAU__crt_locale_pointers@@V?$c_string_character_source@_W@0@H_N@Z 10076200 f i libucrtd:atox.obj
 0001:00075630       ??$parse_integer_from_string@JD$$T@__crt_strtox@@YAJQBD$$THQAU__crt_locale_pointers@@@Z 10076630 f i libucrtd:atox.obj
 0001:00075670       ??$parse_integer_from_string@J_W$$T@__crt_strtox@@YAJQB_W$$THQAU__crt_locale_pointers@@@Z 10076670 f i libucrtd:atox.obj
 0001:000756b0       ??$parse_integer_from_string@_JD$$T@__crt_strtox@@YA_JQBD$$THQAU__crt_locale_pointers@@@Z 100766b0 f i libucrtd:atox.obj
 0001:000756f0       ??$parse_integer_from_string@_J_W$$T@__crt_strtox@@YA_JQB_W$$THQAU__crt_locale_pointers@@@Z 100766f0 f i libucrtd:atox.obj
 0001:00075730       ??0?$c_string_character_source@D@__crt_strtox@@QAE@QBDQAPBD@Z 10076730 f i libucrtd:atox.obj
 0001:00075770       ??0?$c_string_character_source@_W@__crt_strtox@@QAE@QB_WQAPB_W@Z 10076770 f i libucrtd:atox.obj
 0001:000757b0       ??1?$c_string_character_source@D@__crt_strtox@@QAE@XZ 100767b0 f i libucrtd:atox.obj
 0001:000757e0       ??1?$c_string_character_source@_W@__crt_strtox@@QAE@XZ 100767e0 f i libucrtd:atox.obj
 0001:00075810       ?get@?$c_string_character_source@D@__crt_strtox@@QAEDXZ 10076810 f i libucrtd:atox.obj
 0001:00075840       ?get@?$c_string_character_source@_W@__crt_strtox@@QAE_WXZ 10076840 f i libucrtd:atox.obj
 0001:00075870       ?is_space@__crt_strtox@@YA_NDQAU__crt_locale_pointers@@@Z 10076870 f i libucrtd:atox.obj
 0001:000758b0       ?is_space@__crt_strtox@@YA_N_WPAU__crt_locale_pointers@@@Z 100768b0 f i libucrtd:atox.obj
 0001:000758e0       ?maximum_signed_value@__crt_strtox@@YAJK@Z 100768e0 f i libucrtd:atox.obj
 0001:000758f0       ?maximum_signed_value@__crt_strtox@@YA_J_K@Z 100768f0 f i libucrtd:atox.obj
 0001:00075900       ?minimum_signed_value@__crt_strtox@@YAJK@Z 10076900 f i libucrtd:atox.obj
 0001:00075910       ?minimum_signed_value@__crt_strtox@@YA_J_K@Z 10076910 f i libucrtd:atox.obj
 0001:00075920       ?parse_digit@__crt_strtox@@YAID@Z 10076920 f i libucrtd:atox.obj
 0001:00075980       ?parse_digit@__crt_strtox@@YAI_W@Z 10076980 f i libucrtd:atox.obj
 0001:000759d0       ?restore_state@?$c_string_character_source@D@__crt_strtox@@QAE_NQBD@Z 100769d0 f i libucrtd:atox.obj
 0001:000759f0       ?restore_state@?$c_string_character_source@_W@__crt_strtox@@QAE_NQB_W@Z 100769f0 f i libucrtd:atox.obj
 0001:00075a10       ?save_state@?$c_string_character_source@D@__crt_strtox@@QBEPBDXZ 10076a10 f i libucrtd:atox.obj
 0001:00075a30       ?save_state@?$c_string_character_source@_W@__crt_strtox@@QBEPB_WXZ 10076a30 f i libucrtd:atox.obj
 0001:00075a50       ?unget@?$c_string_character_source@D@__crt_strtox@@QAEXD@Z 10076a50 f i libucrtd:atox.obj
 0001:00075b00       ?unget@?$c_string_character_source@_W@__crt_strtox@@QAEX_W@Z 10076b00 f i libucrtd:atox.obj
 0001:00075bb0       ?validate@?$c_string_character_source@D@__crt_strtox@@QBE_NXZ 10076bb0 f i libucrtd:atox.obj
 0001:00075c40       ?validate@?$c_string_character_source@_W@__crt_strtox@@QBE_NXZ 10076c40 f i libucrtd:atox.obj
 0001:00075cd0       ?wide_character_to_digit@__crt_strtox@@YAH_W@Z 10076cd0 f i libucrtd:atox.obj
 0001:00076000       ___ascii_iswalpha          10077000 f i libucrtd:atox.obj
 0001:00076040       ___ascii_toupper           10077040 f i libucrtd:atox.obj
 0001:00076060       ___ascii_towupper          10077060 f i libucrtd:atox.obj
 0001:00076080       __atoi64                   10077080 f   libucrtd:atox.obj
 0001:000760a0       __atoi64_l                 100770a0 f   libucrtd:atox.obj
 0001:000760c0       __atoi_l                   100770c0 f   libucrtd:atox.obj
 0001:000760e0       __atol_l                   100770e0 f   libucrtd:atox.obj
 0001:00076100       __atoll_l                  10077100 f   libucrtd:atox.obj
 0001:00076120       __wtoi                     10077120 f   libucrtd:atox.obj
 0001:00076140       __wtoi64                   10077140 f   libucrtd:atox.obj
 0001:00076160       __wtoi64_l                 10077160 f   libucrtd:atox.obj
 0001:00076180       __wtoi_l                   10077180 f   libucrtd:atox.obj
 0001:000761a0       __wtol                     100771a0 f   libucrtd:atox.obj
 0001:000761c0       __wtol_l                   100771c0 f   libucrtd:atox.obj
 0001:000761e0       __wtoll                    100771e0 f   libucrtd:atox.obj
 0001:00076200       __wtoll_l                  10077200 f   libucrtd:atox.obj
 0001:00076220       _atoi                      10077220 f   libucrtd:atox.obj
 0001:00076240       _atol                      10077240 f   libucrtd:atox.obj
 0001:00076260       _atoll                     10077260 f   libucrtd:atox.obj
 0001:00076280       _strncmp                   10077280 f   libucrtd:strncmp.obj
 0001:00076300       _wcsncmp                   10077300 f   libucrtd:wcsncmp.obj
 0001:00076360       __CrtGetDebugFillThreshold 10077360 f   libucrtd:debug_fill_threshold.obj
 0001:00076370       __CrtSetDebugFillThreshold 10077370 f   libucrtd:debug_fill_threshold.obj
 0001:00076390       ??$make_c_string_character_source@DPAPAD@__crt_strtox@@YA?AV?$c_string_character_source@D@0@QBDQAPAD@Z 10077390 f i libucrtd:strtox.obj
 0001:000763b0       ??$make_c_string_character_source@_WPAPA_W@__crt_strtox@@YA?AV?$c_string_character_source@_W@0@QB_WQAPA_W@Z 100773b0 f i libucrtd:strtox.obj
 0001:000763d0       ??$parse_integer_from_string@JDPAPAD@__crt_strtox@@YAJQBDQAPADHQAU__crt_locale_pointers@@@Z 100773d0 f i libucrtd:strtox.obj
 0001:00076410       ??$parse_integer_from_string@J_WPAPA_W@__crt_strtox@@YAJQB_WQAPA_WHQAU__crt_locale_pointers@@@Z 10077410 f i libucrtd:strtox.obj
 0001:00076450       ??$parse_integer_from_string@KDPAPAD@__crt_strtox@@YAKQBDQAPADHQAU__crt_locale_pointers@@@Z 10077450 f i libucrtd:strtox.obj
 0001:00076490       ??$parse_integer_from_string@K_WPAPA_W@__crt_strtox@@YAKQB_WQAPA_WHQAU__crt_locale_pointers@@@Z 10077490 f i libucrtd:strtox.obj
 0001:000764d0       ??$parse_integer_from_string@_JDPAPAD@__crt_strtox@@YA_JQBDQAPADHQAU__crt_locale_pointers@@@Z 100774d0 f i libucrtd:strtox.obj
 0001:00076510       ??$parse_integer_from_string@_J_WPAPA_W@__crt_strtox@@YA_JQB_WQAPA_WHQAU__crt_locale_pointers@@@Z 10077510 f i libucrtd:strtox.obj
 0001:00076550       ??$parse_integer_from_string@_KDPAPAD@__crt_strtox@@YA_KQBDQAPADHQAU__crt_locale_pointers@@@Z 10077550 f i libucrtd:strtox.obj
 0001:00076590       ??$parse_integer_from_string@_K_WPAPA_W@__crt_strtox@@YA_KQB_WQAPA_WHQAU__crt_locale_pointers@@@Z 10077590 f i libucrtd:strtox.obj
 0001:000765d0       __strtoi64                 100775d0 f   libucrtd:strtox.obj
 0001:000765f0       __strtoi64_l               100775f0 f   libucrtd:strtox.obj
 0001:00076610       __strtoimax_l              10077610 f   libucrtd:strtox.obj
 0001:00076630       __strtol_l                 10077630 f   libucrtd:strtox.obj
 0001:00076650       __strtoll_l                10077650 f   libucrtd:strtox.obj
 0001:00076670       __strtoui64                10077670 f   libucrtd:strtox.obj
 0001:00076690       __strtoui64_l              10077690 f   libucrtd:strtox.obj
 0001:000766b0       __strtoul_l                100776b0 f   libucrtd:strtox.obj
 0001:000766d0       __strtoull_l               100776d0 f   libucrtd:strtox.obj
 0001:000766f0       __strtoumax_l              100776f0 f   libucrtd:strtox.obj
 0001:00076710       __wcstoi64                 10077710 f   libucrtd:strtox.obj
 0001:00076730       __wcstoi64_l               10077730 f   libucrtd:strtox.obj
 0001:00076750       __wcstoimax_l              10077750 f   libucrtd:strtox.obj
 0001:00076770       __wcstol_l                 10077770 f   libucrtd:strtox.obj
 0001:00076790       __wcstoll_l                10077790 f   libucrtd:strtox.obj
 0001:000767b0       __wcstoui64                100777b0 f   libucrtd:strtox.obj
 0001:000767d0       __wcstoui64_l              100777d0 f   libucrtd:strtox.obj
 0001:000767f0       __wcstoul_l                100777f0 f   libucrtd:strtox.obj
 0001:00076810       __wcstoull_l               10077810 f   libucrtd:strtox.obj
 0001:00076830       __wcstoumax_l              10077830 f   libucrtd:strtox.obj
 0001:00076850       _strtoimax                 10077850 f   libucrtd:strtox.obj
 0001:00076870       _strtol                    10077870 f   libucrtd:strtox.obj
 0001:00076890       _strtoll                   10077890 f   libucrtd:strtox.obj
 0001:000768b0       _strtoul                   100778b0 f   libucrtd:strtox.obj
 0001:000768d0       _strtoull                  100778d0 f   libucrtd:strtox.obj
 0001:000768f0       _strtoumax                 100778f0 f   libucrtd:strtox.obj
 0001:00076910       _wcstoimax                 10077910 f   libucrtd:strtox.obj
 0001:00076930       _wcstol                    10077930 f   libucrtd:strtox.obj
 0001:00076950       _wcstoll                   10077950 f   libucrtd:strtox.obj
 0001:00076970       _wcstoul                   10077970 f   libucrtd:strtox.obj
 0001:00076990       _wcstoull                  10077990 f   libucrtd:strtox.obj
 0001:000769b0       _wcstoumax                 100779b0 f   libucrtd:strtox.obj
 0001:000769d0       __mbtowc_l                 100779d0 f   libucrtd:mbtowc.obj
 0001:00076cf0       _mbtowc                    10077cf0 f   libucrtd:mbtowc.obj
 0001:00076d10       __wctomb_l                 10077d10 f   libucrtd:wctomb.obj
 0001:00076d90       __wctomb_s_l               10077d90 f   libucrtd:wctomb.obj
 0001:00077150       _wctomb                    10078150 f   libucrtd:wctomb.obj
 0001:000771a0       _wctomb_s                  100781a0 f   libucrtd:wctomb.obj
 0001:000771d0       ??$?RU__acrt_ptd@@@__crt_internal_free_policy@@QBEXQBU__acrt_ptd@@@Z 100781d0 f i libucrtd:per_thread_data.obj
 0001:00077680       ??0?$__crt_unique_heap_ptr@U__acrt_ptd@@U__crt_internal_free_policy@@@@QAE@QAU__acrt_ptd@@@Z 10078680 f i libucrtd:per_thread_data.obj
 0001:000776a0       ??0__crt_scoped_get_last_error_reset@@QAE@XZ 100786a0 f i libucrtd:per_thread_data.obj
 0001:000776c0       ??1?$__crt_unique_heap_ptr@U__acrt_ptd@@U__crt_internal_free_policy@@@@QAE@XZ 100786c0 f i libucrtd:per_thread_data.obj
 0001:000776e0       ??1__crt_scoped_get_last_error_reset@@QAE@XZ 100786e0 f i libucrtd:per_thread_data.obj
 0001:00077700       ??B?$__crt_unique_heap_ptr@U__acrt_ptd@@U__crt_internal_free_policy@@@@QBE_NXZ 10078700 f i libucrtd:per_thread_data.obj
 0001:000779e0       ?dangerous_get_state_array@?$dual_state_global@PAU__crt_locale_data@@@__crt_state_management@@QAEPAPAU__crt_locale_data@@XZ 100789e0 f i libucrtd:per_thread_data.obj
 0001:00077b60       ?detach@?$__crt_unique_heap_ptr@U__acrt_ptd@@U__crt_internal_free_policy@@@@QAEPAU__acrt_ptd@@XZ 10078b60 f i libucrtd:per_thread_data.obj
 0001:00077b90       ?get@?$__crt_unique_heap_ptr@U__acrt_ptd@@U__crt_internal_free_policy@@@@QBEPAU__acrt_ptd@@XZ 10078b90 f i libucrtd:per_thread_data.obj
 0001:00077bb0       ?get_current_state_index@__crt_state_management@@YAIABV__crt_scoped_get_last_error_reset@@@Z 10078bb0 f i libucrtd:per_thread_data.obj
 0001:00077d20       ?is_valid@?$__crt_unique_heap_ptr@U__acrt_ptd@@U__crt_internal_free_policy@@@@QBE_NXZ 10078d20 f i libucrtd:per_thread_data.obj
 0001:00077d50       ?release@?$__crt_unique_heap_ptr@U__acrt_ptd@@U__crt_internal_free_policy@@@@QAEXXZ 10078d50 f i libucrtd:per_thread_data.obj
 0001:00077e40       ?value@?$dual_state_global@PAU__crt_locale_data@@@__crt_state_management@@QAEAAPAU__crt_locale_data@@XZ 10078e40 f i libucrtd:per_thread_data.obj
 0001:00077e60       ___acrt_freeptd            10078e60 f   libucrtd:per_thread_data.obj
 0001:00077e90       ___acrt_getptd             10078e90 f   libucrtd:per_thread_data.obj
 0001:00077eb0       ___acrt_getptd_head        10078eb0 f   libucrtd:per_thread_data.obj
 0001:00077ed0       ___acrt_getptd_noexit      10078ed0 f   libucrtd:per_thread_data.obj
 0001:00077ee0       ___acrt_initialize_ptd     10078ee0 f   libucrtd:per_thread_data.obj
 0001:00077f20       ___acrt_uninitialize_ptd   10078f20 f   libucrtd:per_thread_data.obj
 0001:00077f50       ___threadhandle            10078f50 f   libucrtd:per_thread_data.obj
 0001:00077f60       ___threadid                10078f60 f   libucrtd:per_thread_data.obj
 0001:00077f70       ?value@?$dual_state_global@PAU__crt_multibyte_data@@@__crt_state_management@@QAEAAPAU__crt_multibyte_data@@XZ 10078f70 f i libucrtd:locale_update.obj
 0001:00077f90       ___acrt_should_sync_with_global_locale 10078f90 f i libucrtd:locale_update.obj
 0001:00077fc0       ___acrt_update_locale_info 10078fc0 f   libucrtd:locale_update.obj
 0001:00078000       ___acrt_update_multibyte_info 10079000 f   libucrtd:locale_update.obj
 0001:00078040       ?__acrt_fp_classify@@YA?AW4__acrt_fp_class@@ABN@Z 10079040 f i libucrtd:cvt.obj
 0001:00078160       ?__acrt_fp_is_negative@@YA_NABN@Z 10079160 f i libucrtd:cvt.obj
 0001:00079450       ?strrchr@@YAPADQADH@Z      1007a450 f i libucrtd:cvt.obj
 0001:00079470       ___acrt_fp_format          1007a470 f   libucrtd:cvt.obj
 0001:00079930       __fputwc_nolock            1007a930 f   libucrtd:fputwc.obj
 0001:00079b20       __fputwchar                1007ab20 f   libucrtd:fputwc.obj
 0001:00079b40       __putwc_nolock             1007ab40 f   libucrtd:fputwc.obj
 0001:00079b60       _fputwc                    1007ab60 f   libucrtd:fputwc.obj
 0001:00079c70       _putwc                     1007ac70 f   libucrtd:fputwc.obj
 0001:00079c90       _putwchar                  1007ac90 f   libucrtd:fputwc.obj
 0001:00079cb0       ?lowio_handle@__crt_stdio_stream@@QBEHXZ 1007acb0 f i libucrtd:fileno.obj
 0001:00079cd0       __fileno                   1007acd0 f   libucrtd:fileno.obj
 0001:00079d70       ??$?RPAU__crt_stdio_stream_data@@@__crt_internal_free_policy@@QBEXQBQAU__crt_stdio_stream_data@@@Z 1007ad70 f i libucrtd:_file.obj
 0001:00079d90       ??0?$__crt_unique_heap_ptr@PAU__crt_stdio_stream_data@@U__crt_internal_free_policy@@@@QAE@QAPAU__crt_stdio_stream_data@@@Z 1007ad90 f i libucrtd:_file.obj
 0001:00079db0       ??1?$__crt_unique_heap_ptr@PAU__crt_stdio_stream_data@@U__crt_internal_free_policy@@@@QAE@XZ 1007adb0 f i libucrtd:_file.obj
 0001:00079dd0       ?detach@?$__crt_unique_heap_ptr@PAU__crt_stdio_stream_data@@U__crt_internal_free_policy@@@@QAEPAPAU__crt_stdio_stream_data@@XZ 1007add0 f i libucrtd:_file.obj
 0001:00079e00       ?release@?$__crt_unique_heap_ptr@PAU__crt_stdio_stream_data@@U__crt_internal_free_policy@@@@QAEXXZ 1007ae00 f i libucrtd:_file.obj
 0001:00079e30       ___acrt_initialize_stdio   1007ae30 f   libucrtd:_file.obj
 0001:00079fa0       ___acrt_iob_func           1007afa0 f   libucrtd:_file.obj
 0001:00079fb0       ___acrt_uninitialize_stdio 1007afb0 f   libucrtd:_file.obj
 0001:0007a030       __get_stream_buffer_pointers 1007b030 f   libucrtd:_file.obj
 0001:0007a110       __lock_file                1007b110 f   libucrtd:_file.obj
 0001:0007a140       __unlock_file              1007b140 f   libucrtd:_file.obj
 0001:0007a170       __get_printf_count_output  1007b170 f   libucrtd:printf_count_output.obj
 0001:0007a1a0       __set_printf_count_output  1007b1a0 f   libucrtd:printf_count_output.obj
 0001:0007a200       ?has_any_buffer@__crt_stdio_stream@@QBE_NXZ 1007b200 f i libucrtd:_sftbuf.obj
 0001:0007a220       ?has_any_of@__crt_stdio_stream@@QBE_NJ@Z 1007b220 f i libucrtd:_sftbuf.obj
 0001:0007a260       ?has_temporary_buffer@__crt_stdio_stream@@QBE_NXZ 1007b260 f i libucrtd:_sftbuf.obj
 0001:0007a280       ?set_flags@__crt_stdio_stream@@QBE_NJ@Z 1007b280 f i libucrtd:_sftbuf.obj
 0001:0007a2d0       ?unset_flags@__crt_stdio_stream@@QBE_NJ@Z 1007b2d0 f i libucrtd:_sftbuf.obj
 0001:0007a320       ___acrt_should_use_temporary_buffer 1007b320 f   libucrtd:_sftbuf.obj
 0001:0007a370       ___acrt_stdio_begin_temporary_buffering_nolock 1007b370 f   libucrtd:_sftbuf.obj
 0001:0007a520       ___acrt_stdio_end_temporary_buffering_nolock 1007b520 f   libucrtd:_sftbuf.obj
 0001:0007a5b0       ??$?RU__crt_locale_data@@@__crt_internal_free_policy@@QBEXQBU__crt_locale_data@@@Z 1007b5b0 f i libucrtd:wsetlocale.obj
 0001:0007a5d0       ??$?RU__crt_locale_pointers@@@__crt_internal_free_policy@@QBEXQBU__crt_locale_pointers@@@Z 1007b5d0 f i libucrtd:wsetlocale.obj
 0001:0007a5f0       ??$?RU__crt_multibyte_data@@@__crt_internal_free_policy@@QBEXQBU__crt_multibyte_data@@@Z 1007b5f0 f i libucrtd:wsetlocale.obj
 0001:0007abe0       ??0?$__crt_unique_heap_ptr@U__crt_locale_data@@U__crt_internal_free_policy@@@@QAE@QAU__crt_locale_data@@@Z 1007bbe0 f i libucrtd:wsetlocale.obj
 0001:0007ac00       ??0?$__crt_unique_heap_ptr@U__crt_locale_pointers@@U__crt_internal_free_policy@@@@QAE@QAU__crt_locale_pointers@@@Z 1007bc00 f i libucrtd:wsetlocale.obj
 0001:0007ac20       ??0?$__crt_unique_heap_ptr@U__crt_multibyte_data@@U__crt_internal_free_policy@@@@QAE@QAU__crt_multibyte_data@@@Z 1007bc20 f i libucrtd:wsetlocale.obj
 0001:0007ac40       ??0_expandlocale_locale_name_cache@@QAE@QA_WIQAU__crt_qualified_locale_data@@@Z 1007bc40 f i libucrtd:wsetlocale.obj
 0001:0007acb0       ??1?$__crt_unique_heap_ptr@U__crt_locale_data@@U__crt_internal_free_policy@@@@QAE@XZ 1007bcb0 f i libucrtd:wsetlocale.obj
 0001:0007acd0       ??1?$__crt_unique_heap_ptr@U__crt_locale_pointers@@U__crt_internal_free_policy@@@@QAE@XZ 1007bcd0 f i libucrtd:wsetlocale.obj
 0001:0007acf0       ??1?$__crt_unique_heap_ptr@U__crt_multibyte_data@@U__crt_internal_free_policy@@@@QAE@XZ 1007bcf0 f i libucrtd:wsetlocale.obj
 0001:0007ad10       ??1_expandlocale_locale_name_cache@@QAE@XZ 1007bd10 f i libucrtd:wsetlocale.obj
 0001:0007ad70       ??B?$__crt_unique_heap_ptr@U__crt_locale_data@@U__crt_internal_free_policy@@@@QBE_NXZ 1007bd70 f i libucrtd:wsetlocale.obj
 0001:0007ad90       ??B?$__crt_unique_heap_ptr@U__crt_locale_pointers@@U__crt_internal_free_policy@@@@QBE_NXZ 1007bd90 f i libucrtd:wsetlocale.obj
 0001:0007adb0       ??B?$__crt_unique_heap_ptr@U__crt_multibyte_data@@U__crt_internal_free_policy@@@@QBE_NXZ 1007bdb0 f i libucrtd:wsetlocale.obj
 0001:0007b190       ?commit_locale_name@_expandlocale_locale_name_cache@@QAEXQB_WI@Z 1007c190 f i libucrtd:wsetlocale.obj
 0001:0007b1f0       ?commit_locale_name_cache_already_updated@_expandlocale_locale_name_cache@@QAEXQB_WI@Z 1007c1f0 f i libucrtd:wsetlocale.obj
 0001:0007b250       ?detach@?$__crt_unique_heap_ptr@U__crt_locale_data@@U__crt_internal_free_policy@@@@QAEPAU__crt_locale_data@@XZ 1007c250 f i libucrtd:wsetlocale.obj
 0001:0007b280       ?detach@?$__crt_unique_heap_ptr@U__crt_locale_pointers@@U__crt_internal_free_policy@@@@QAEPAU__crt_locale_pointers@@XZ 1007c280 f i libucrtd:wsetlocale.obj
 0001:0007b2b0       ?detach@?$__crt_unique_heap_ptr@U__crt_multibyte_data@@U__crt_internal_free_policy@@@@QAEPAU__crt_multibyte_data@@XZ 1007c2b0 f i libucrtd:wsetlocale.obj
 0001:0007b2e0       ?get@?$__crt_unique_heap_ptr@U__crt_locale_data@@U__crt_internal_free_policy@@@@QBEPAU__crt_locale_data@@XZ 1007c2e0 f i libucrtd:wsetlocale.obj
 0001:0007b300       ?get@?$__crt_unique_heap_ptr@U__crt_locale_pointers@@U__crt_internal_free_policy@@@@QBEPAU__crt_locale_pointers@@XZ 1007c300 f i libucrtd:wsetlocale.obj
 0001:0007b320       ?get@?$__crt_unique_heap_ptr@U__crt_multibyte_data@@U__crt_internal_free_policy@@@@QBEPAU__crt_multibyte_data@@XZ 1007c320 f i libucrtd:wsetlocale.obj
 0001:0007b340       ?is_valid@?$__crt_unique_heap_ptr@U__crt_locale_data@@U__crt_internal_free_policy@@@@QBE_NXZ 1007c340 f i libucrtd:wsetlocale.obj
 0001:0007b370       ?is_valid@?$__crt_unique_heap_ptr@U__crt_locale_pointers@@U__crt_internal_free_policy@@@@QBE_NXZ 1007c370 f i libucrtd:wsetlocale.obj
 0001:0007b3a0       ?is_valid@?$__crt_unique_heap_ptr@U__crt_multibyte_data@@U__crt_internal_free_policy@@@@QBE_NXZ 1007c3a0 f i libucrtd:wsetlocale.obj
 0001:0007b3d0       ?release@?$__crt_unique_heap_ptr@U__crt_locale_data@@U__crt_internal_free_policy@@@@QAEXXZ 1007c3d0 f i libucrtd:wsetlocale.obj
 0001:0007b400       ?release@?$__crt_unique_heap_ptr@U__crt_locale_pointers@@U__crt_internal_free_policy@@@@QAEXXZ 1007c400 f i libucrtd:wsetlocale.obj
 0001:0007b430       ?release@?$__crt_unique_heap_ptr@U__crt_multibyte_data@@U__crt_internal_free_policy@@@@QAEXXZ 1007c430 f i libucrtd:wsetlocale.obj
 0001:0007b460       ___acrt_copy_locale_name   1007c460 f   libucrtd:wsetlocale.obj
 0001:0007b500       ___acrt_set_locale_changed 1007c500 f   libucrtd:wsetlocale.obj
 0001:0007b520       ___acrt_uninitialize_locale 1007c520 f   libucrtd:wsetlocale.obj
 0001:0007b540       ___ascii_tolower           1007c540 f i libucrtd:wsetlocale.obj
 0001:0007b560       ___ascii_towlower          1007c560 f i libucrtd:wsetlocale.obj
 0001:0007b580       ___lc_lctowcs              1007c580 f   libucrtd:wsetlocale.obj
 0001:0007b630       ___lc_wcstolc              1007c630 f   libucrtd:wsetlocale.obj
 0001:0007b860       __configthreadlocale       1007c860 f   libucrtd:wsetlocale.obj
 0001:0007b9e0       __create_locale            1007c9e0 f   libucrtd:wsetlocale.obj
 0001:0007c020       __free_locale              1007d020 f   libucrtd:wsetlocale.obj
 0001:0007c150       __get_current_locale       1007d150 f   libucrtd:wsetlocale.obj
 0001:0007c220       __wcreate_locale           1007d220 f   libucrtd:wsetlocale.obj
 0001:0007c460       __wcscats                  1007d460 f   libucrtd:wsetlocale.obj
 0001:0007c4e0       __wsetlocale               1007d4e0 f   libucrtd:wsetlocale.obj
 0001:0007dbd0       ___p___mb_cur_max          1007ebd0 f   libucrtd:nlsdata.obj
 0001:0007ded0       ___acrt_initialize_lowio   1007eed0 f   libucrtd:ioinit.obj
 0001:0007df70       ___acrt_uninitialize_lowio 1007ef70 f   libucrtd:ioinit.obj
 0001:0007dfd0       __CrtGetReportHook         1007efd0 f   libucrtd:dbgrptt.obj
 0001:0007dfe0       __CrtSetReportFile         1007efe0 f   libucrtd:dbgrptt.obj
 0001:0007e0e0       __CrtSetReportHook         1007f0e0 f   libucrtd:dbgrptt.obj
 0001:0007e100       __CrtSetReportMode         1007f100 f   libucrtd:dbgrptt.obj
 0001:0007e240       __VCrtDbgReportA           1007f240 f   libucrtd:dbgrptt.obj
 0001:0007eac0       __VCrtDbgReportW           1007fac0 f   libucrtd:dbgrptt.obj
 0001:0007f470       __snprintf_s               10080470 f i libucrtd:dbgrptt.obj
 0001:0007f4b0       __vsnprintf_s              100804b0 f i libucrtd:dbgrptt.obj
 0001:0007f4e0       __vsnprintf_s_l            100804e0 f i libucrtd:dbgrptt.obj
 0001:0007f670       ??$__acrt_wcs_to_mbs_cp@U__crt_win32_buffer_no_resizing@@@@YAHQB_WAAV?$__crt_win32_buffer@DU__crt_win32_buffer_no_resizing@@@@I@Z 10080670 f i libucrtd:getmodulefilenamea.obj
 0001:0007f6a0       ??0?$__crt_win32_buffer@DU__crt_win32_buffer_no_resizing@@@@QAE@QADI@Z 100806a0 f i libucrtd:getmodulefilenamea.obj
 0001:0007f6f0       ??1?$__crt_win32_buffer@DU__crt_win32_buffer_no_resizing@@@@QAE@XZ 100806f0 f i libucrtd:getmodulefilenamea.obj
 0001:0007f760       ?__acrt_get_utf8_acp_compatibility_codepage@@YAIXZ 10080760 f i libucrtd:getmodulefilenamea.obj
 0001:0007f7f0       ?_deallocate@?$__crt_win32_buffer@DU__crt_win32_buffer_no_resizing@@@@AAEXXZ 100807f0 f i libucrtd:getmodulefilenamea.obj
 0001:0007f830       ?allocate@?$__crt_win32_buffer@DU__crt_win32_buffer_no_resizing@@@@QAEHI@Z 10080830 f i libucrtd:getmodulefilenamea.obj
 0001:0007f8a0       ?allocate@__crt_win32_buffer_no_resizing@@SAHQAPAXIABV__crt_win32_buffer_empty_debug_info@@@Z 100808a0 f i libucrtd:getmodulefilenamea.obj
 0001:0007f8c0       ?capacity@?$__crt_win32_buffer@DU__crt_win32_buffer_no_resizing@@@@QBEIXZ 100808c0 f i libucrtd:getmodulefilenamea.obj
 0001:0007f8e0       ?data@?$__crt_win32_buffer@DU__crt_win32_buffer_no_resizing@@@@QAEPADXZ 100808e0 f i libucrtd:getmodulefilenamea.obj
 0001:0007f900       ?deallocate@__crt_win32_buffer_no_resizing@@SAXQAXABV__crt_win32_buffer_empty_debug_info@@@Z 10080900 f i libucrtd:getmodulefilenamea.obj
 0001:0007f910       ?debug_info@?$__crt_win32_buffer@DU__crt_win32_buffer_no_resizing@@@@QBEABV__crt_win32_buffer_empty_debug_info@@XZ 10080910 f i libucrtd:getmodulefilenamea.obj
 0001:0007f920       ?set_to_nullptr@?$__crt_win32_buffer@DU__crt_win32_buffer_no_resizing@@@@QAEXXZ 10080920 f i libucrtd:getmodulefilenamea.obj
 0001:0007f960       ?size@?$__crt_win32_buffer@DU__crt_win32_buffer_no_resizing@@@@QAEXI@Z 10080960 f i libucrtd:getmodulefilenamea.obj
 0001:0007f980       ?size@?$__crt_win32_buffer@DU__crt_win32_buffer_no_resizing@@@@QBEIXZ 10080980 f i libucrtd:getmodulefilenamea.obj
 0001:0007f9a0       ___acrt_GetModuleFileNameA 100809a0 f   libucrtd:getmodulefilenamea.obj
 0001:0007fc80       ??$message_box@$$TABQBDABQBDK@?$__crt_char_traits@D@@SAH$$QA$$TABQBD1$$QAK@Z 10080c80 f i libucrtd:crtmbox.obj
 0001:0007fcb0       ??$message_box@$$TABQB_WABQB_WK@?$__crt_char_traits@_W@@SAH$$QA$$TABQB_W1$$QAK@Z 10080cb0 f i libucrtd:crtmbox.obj
 0001:0007fce0       ??$message_box@PAUHWND__@@ABQBDABQBDABI@?$__crt_char_traits@D@@SAH$$QAPAUHWND__@@ABQBD1ABI@Z 10080ce0 f i libucrtd:crtmbox.obj
 0001:0007fd10       ??$message_box@PAUHWND__@@ABQB_WABQB_WABI@?$__crt_char_traits@_W@@SAH$$QAPAUHWND__@@ABQB_W1ABI@Z 10080d10 f i libucrtd:crtmbox.obj
 0001:0007fd40       ??$output_debug_string@ABQBD@?$__crt_char_traits@D@@SAXABQBD@Z 10080d40 f i libucrtd:crtmbox.obj
 0001:0007fd60       ??$output_debug_string@ABQB_W@?$__crt_char_traits@_W@@SAXABQB_W@Z 10080d60 f i libucrtd:crtmbox.obj
 0001:0007fd80       ___acrt_show_narrow_message_box 10080d80 f   libucrtd:crtmbox.obj
 0001:0007fda0       ___acrt_show_wide_message_box 10080da0 f   libucrtd:crtmbox.obj
 0001:0007fdc0       ___acrt_initialize_locks   10080dc0 f   libucrtd:locks.obj
 0001:0007fe20       ___acrt_lock               10080e20 f   libucrtd:locks.obj
 0001:0007fe40       ___acrt_uninitialize_locks 10080e40 f   libucrtd:locks.obj
 0001:0007fe90       ___acrt_unlock             10080e90 f   libucrtd:locks.obj
 0001:0007feb0       __lock_locales             10080eb0 f   libucrtd:locks.obj
 0001:0007fed0       __unlock_locales           10080ed0 f   libucrtd:locks.obj
 0001:0007fef0       ??$?B$$A6AXH@Z@__crt_fast_encoded_nullptr_t@@QBEP6AXH@ZXZ 10080ef0 f i libucrtd:signal.obj
 0001:0007ffe0       ??$__crt_fast_decode_pointer@P6AXH@Z@@YAP6AXH@ZQ6AXH@Z@Z 10080fe0 f i libucrtd:signal.obj
 0001:00080010       ??$__crt_fast_encode_pointer@P6AXH@Z@@YAP6AXH@ZQ6AXH@Z@Z 10081010 f i libucrtd:signal.obj
 0001:000802c0       ?initialize@?$dual_state_global@P6AXH@Z@__crt_state_management@@QAEXQ6AXH@Z@Z 100812c0 f i libucrtd:signal.obj
 0001:00080400       ?value@?$dual_state_global@P6AXH@Z@__crt_state_management@@QAEAAP6AXH@ZXZ 10081400 f i libucrtd:signal.obj
 0001:00080420       ___acrt_get_sigabrt_handler 10081420 f   libucrtd:signal.obj
 0001:00080440       ___acrt_initialize_signal_handlers 10081440 f   libucrtd:signal.obj
 0001:00080480       ___fpecode                 10081480 f   libucrtd:signal.obj
 0001:00080490       ___pxcptinfoptrs           10081490 f   libucrtd:signal.obj
 0001:000804a0       _raise                     100814a0 f   libucrtd:signal.obj
 0001:00080870       _signal                    10081870 f   libucrtd:signal.obj
 0001:00080af0       __msize                    10081af0 f   libucrtd:msize.obj
 0001:00080b10       __msize_base               10081b10 f   libucrtd:msize.obj
 0001:00080bb0       __realloc_base             10081bb0 f   libucrtd:realloc_base.obj
 0001:00080c70       ??$?B$$A6GHPA_WKJ@Z@__crt_fast_encoded_nullptr_t@@QBEP6GHPA_WKJ@ZXZ 10081c70 f i libucrtd:winapi_thunks.obj
 0001:00080d60       ??$__crt_fast_decode_pointer@P6GHPA_WKJ@Z@@YAP6GHPA_WKJ@ZQ6GH0KJ@Z@Z 10081d60 f i libucrtd:winapi_thunks.obj
 0001:00080d90       ??$__crt_fast_decode_pointer@PAX@@YAPAXQAX@Z 10081d90 f i libucrtd:winapi_thunks.obj
 0001:00080dc0       ??$__crt_fast_encode_pointer@P6GHPA_WKJ@Z@@YAP6GHPA_WKJ@ZQ6GH0KJ@Z@Z 10081dc0 f i libucrtd:winapi_thunks.obj
 0001:00081720       _GetCurrentThreadEffectiveToken 10082720 f i libucrtd:winapi_thunks.obj
 0001:00081730       ___acrt_AppPolicyGetProcessTerminationMethodInternal@4 10082730 f   libucrtd:winapi_thunks.obj
 0001:00081770       ___acrt_AppPolicyGetShowDeveloperDiagnosticInternal@4 10082770 f   libucrtd:winapi_thunks.obj
 0001:000817b0       ___acrt_AppPolicyGetThreadInitializationTypeInternal@4 100827b0 f   libucrtd:winapi_thunks.obj
 0001:000817f0       ___acrt_AppPolicyGetWindowingModelInternal@4 100827f0 f   libucrtd:winapi_thunks.obj
 0001:00081830       ___acrt_AreFileApisANSI@0  10082830 f   libucrtd:winapi_thunks.obj
 0001:00081870       ___acrt_CompareStringEx@36 10082870 f   libucrtd:winapi_thunks.obj
 0001:000818f0       ___acrt_EnumSystemLocalesEx@16 100828f0 f   libucrtd:winapi_thunks.obj
 0001:00081950       ___acrt_FlsAlloc@4         10082950 f   libucrtd:winapi_thunks.obj
 0001:00081990       ___acrt_FlsFree@4          10082990 f   libucrtd:winapi_thunks.obj
 0001:000819d0       ___acrt_FlsGetValue@4      100829d0 f   libucrtd:winapi_thunks.obj
 0001:00081a10       ___acrt_FlsSetValue@8      10082a10 f   libucrtd:winapi_thunks.obj
 0001:00081a60       ___acrt_GetDateFormatEx@28 10082a60 f   libucrtd:winapi_thunks.obj
 0001:00081ae0       ___acrt_GetEnabledXStateFeatures@0 10082ae0 f   libucrtd:winapi_thunks.obj
 0001:00081b20       ___acrt_GetLocaleInfoEx@16 10082b20 f   libucrtd:winapi_thunks.obj
 0001:00081b80       ___acrt_GetSystemTimePreciseAsFileTime@4 10082b80 f   libucrtd:winapi_thunks.obj
 0001:00081bc0       ___acrt_GetTimeFormatEx@24 10082bc0 f   libucrtd:winapi_thunks.obj
 0001:00081c30       ___acrt_GetUserDefaultLocaleName@8 10082c30 f   libucrtd:winapi_thunks.obj
 0001:00081c80       ___acrt_GetXStateFeaturesMask@8 10082c80 f   libucrtd:winapi_thunks.obj
 0001:00081cc0       ___acrt_InitializeCriticalSectionEx@12 10082cc0 f   libucrtd:winapi_thunks.obj
 0001:00081d10       ___acrt_IsValidLocaleName@4 10082d10 f   libucrtd:winapi_thunks.obj
 0001:00081d60       ___acrt_LCIDToLocaleName@16 10082d60 f   libucrtd:winapi_thunks.obj
 0001:00081dc0       ___acrt_LCMapStringEx@36   10082dc0 f   libucrtd:winapi_thunks.obj
 0001:00081e40       ___acrt_LocaleNameToLCID@8 10082e40 f   libucrtd:winapi_thunks.obj
 0001:00081e90       ___acrt_LocateXStateFeature@12 10082e90 f   libucrtd:winapi_thunks.obj
 0001:00081ee0       ___acrt_MessageBoxA@16     10082ee0 f   libucrtd:winapi_thunks.obj
 0001:00081f30       ___acrt_MessageBoxW@16     10082f30 f   libucrtd:winapi_thunks.obj
 0001:00081f80       ___acrt_RoInitialize@4     10082f80 f   libucrtd:winapi_thunks.obj
 0001:00081fc0       ___acrt_RoUninitialize@0   10082fc0 f   libucrtd:winapi_thunks.obj
 0001:00081ff0       ___acrt_RtlGenRandom@8     10082ff0 f   libucrtd:winapi_thunks.obj
 0001:00082030       ___acrt_SetThreadStackGuarantee@4 10083030 f   libucrtd:winapi_thunks.obj
 0001:00082070       ___acrt_can_show_message_box 10083070 f   libucrtd:winapi_thunks.obj
 0001:000820b0       ___acrt_can_use_vista_locale_apis 100830b0 f   libucrtd:winapi_thunks.obj
 0001:000820e0       ___acrt_can_use_xstate_apis 100830e0 f   libucrtd:winapi_thunks.obj
 0001:00082110       ___acrt_eagerly_load_locale_apis 10083110 f   libucrtd:winapi_thunks.obj
 0001:00082150       ___acrt_get_parent_window  10083150 f   libucrtd:winapi_thunks.obj
 0001:000821c0       ___acrt_initialize_winapi_thunks 100831c0 f   libucrtd:winapi_thunks.obj
 0001:00082230       ___acrt_is_interactive     10083230 f   libucrtd:winapi_thunks.obj
 0001:000822e0       ___acrt_uninitialize_winapi_thunks 100832e0 f   libucrtd:winapi_thunks.obj
 0001:00082350       __chvalidator              10083350 f   libucrtd:isctype.obj
 0001:000823a0       __chvalidator_l            100833a0 f   libucrtd:isctype.obj
 0001:00082420       __isctype                  10083420 f   libucrtd:isctype.obj
 0001:00082460       __isctype_l                10083460 f   libucrtd:isctype.obj
 0001:000825e0       __isleadbyte_fast_internal 100835e0 f i libucrtd:isctype.obj
 0001:00082600       ??$?RU__crt_stdio_stream_data@@@__crt_internal_free_policy@@QBEXQBU__crt_stdio_stream_data@@@Z 10083600 f i libucrtd:stream.obj
 0001:00082620       ??0?$__crt_unique_heap_ptr@U__crt_stdio_stream_data@@U__crt_internal_free_policy@@@@QAE@QAU__crt_stdio_stream_data@@@Z 10083620 f i libucrtd:stream.obj
 0001:00082640       ??0__crt_stdio_stream@@QAE@QAU__crt_stdio_stream_data@@@Z 10083640 f i libucrtd:stream.obj
 0001:00082660       ??0__crt_stdio_stream@@QAE@XZ 10083660 f i libucrtd:stream.obj
 0001:00082680       ??1?$__crt_unique_heap_ptr@U__crt_stdio_stream_data@@U__crt_internal_free_policy@@@@QAE@XZ 10083680 f i libucrtd:stream.obj
 0001:000826a0       ?__acrt_stdio_allocate_stream@@YA?AV__crt_stdio_stream@@XZ 100836a0 f   libucrtd:stream.obj
 0001:00082790       ?__acrt_stdio_free_stream@@YAXV__crt_stdio_stream@@@Z 10083790 f   libucrtd:stream.obj
 0001:00082810       ?deallocate@__crt_stdio_stream@@QAEXXZ 10083810 f i libucrtd:stream.obj
 0001:00082830       ?detach@?$__crt_unique_heap_ptr@U__crt_stdio_stream_data@@U__crt_internal_free_policy@@@@QAEPAU__crt_stdio_stream_data@@XZ 10083830 f i libucrtd:stream.obj
 0001:000829a0       ?lock@__crt_stdio_stream@@QBEXXZ 100839a0 f i libucrtd:stream.obj
 0001:000829c0       ?release@?$__crt_unique_heap_ptr@U__crt_stdio_stream_data@@U__crt_internal_free_policy@@@@QAEXXZ 100839c0 f i libucrtd:stream.obj
 0001:000829f0       ?try_allocate@__crt_stdio_stream@@QAE_NXZ 100839f0 f i libucrtd:stream.obj
 0001:00082a40       ??$__acrt_stdio_parse_mode@D@@YA?AU__acrt_stdio_stream_mode@@QBD@Z 10083a40 f i libucrtd:openfile.obj
 0001:000832b0       ??$__acrt_stdio_parse_mode@_W@@YA?AU__acrt_stdio_stream_mode@@QB_W@Z 100842b0 f i libucrtd:openfile.obj
 0001:00083e40       ??$tcsncmp@AAPBDAAY02$$CBDI@?$__crt_char_traits@D@@SAHAAPBDAAY02$$CBD$$QAI@Z 10084e40 f i libucrtd:openfile.obj
 0001:00083e60       ??$tcsncmp@AAPB_WAAY02$$CB_WI@?$__crt_char_traits@_W@@SAHAAPB_WAAY02$$CB_W$$QAI@Z 10084e60 f i libucrtd:openfile.obj
 0001:00083e80       ??$tcsnicmp@AAPBDAAY04$$CBDI@?$__crt_char_traits@D@@SAHAAPBDAAY04$$CBD$$QAI@Z 10084e80 f i libucrtd:openfile.obj
 0001:00083ea0       ??$tcsnicmp@AAPBDAAY06$$CBDI@?$__crt_char_traits@D@@SAHAAPBDAAY06$$CBD$$QAI@Z 10084ea0 f i libucrtd:openfile.obj
 0001:00083ec0       ??$tcsnicmp@AAPBDAAY07$$CBDI@?$__crt_char_traits@D@@SAHAAPBDAAY07$$CBD$$QAI@Z 10084ec0 f i libucrtd:openfile.obj
 0001:00083ee0       ??$tcsnicmp@AAPB_WAAY04$$CB_WI@?$__crt_char_traits@_W@@SAHAAPB_WAAY04$$CB_W$$QAI@Z 10084ee0 f i libucrtd:openfile.obj
 0001:00083f00       ??$tcsnicmp@AAPB_WAAY06$$CB_WI@?$__crt_char_traits@_W@@SAHAAPB_WAAY06$$CB_W$$QAI@Z 10084f00 f i libucrtd:openfile.obj
 0001:00083f20       ??$tcsnicmp@AAPB_WAAY07$$CB_WI@?$__crt_char_traits@_W@@SAHAAPB_WAAY07$$CB_W$$QAI@Z 10084f20 f i libucrtd:openfile.obj
 0001:00083f40       ??$tsopen_s@PAHABQBDABHABHH@?$__crt_char_traits@D@@SAH$$QAPAHABQBDABH2$$QAH@Z 10084f40 f i libucrtd:openfile.obj
 0001:00083f70       ??$tsopen_s@PAHABQB_WABHABHH@?$__crt_char_traits@_W@@SAH$$QAPAHABQB_WABH2$$QAH@Z 10084f70 f i libucrtd:openfile.obj
 0001:00083fa0       ?__acrt_stdio_parse_mode_D@@YA_NAAU__acrt_stdio_stream_mode@@@Z 10084fa0 f i libucrtd:openfile.obj
 0001:00083fd0       ?__acrt_stdio_parse_mode_N@@YA_NAAU__acrt_stdio_stream_mode@@@Z 10084fd0 f i libucrtd:openfile.obj
 0001:00083ff0       ?__acrt_stdio_parse_mode_R@@YA_NAAU__acrt_stdio_stream_mode@@AA_N@Z 10084ff0 f i libucrtd:openfile.obj
 0001:00084020       ?__acrt_stdio_parse_mode_S@@YA_NAAU__acrt_stdio_stream_mode@@AA_N@Z 10085020 f i libucrtd:openfile.obj
 0001:00084050       ?__acrt_stdio_parse_mode_T@@YA_NAAU__acrt_stdio_stream_mode@@@Z 10085050 f i libucrtd:openfile.obj
 0001:00084080       ?__acrt_stdio_parse_mode_b@@YA_NAAU__acrt_stdio_stream_mode@@@Z 10085080 f i libucrtd:openfile.obj
 0001:000840b0       ?__acrt_stdio_parse_mode_c@@YA_NAAU__acrt_stdio_stream_mode@@AA_N@Z 100850b0 f i libucrtd:openfile.obj
 0001:000840e0       ?__acrt_stdio_parse_mode_n@@YA_NAAU__acrt_stdio_stream_mode@@AA_N@Z 100850e0 f i libucrtd:openfile.obj
 0001:00084110       ?__acrt_stdio_parse_mode_plus@@YA_NAAU__acrt_stdio_stream_mode@@AA_N@Z 10085110 f i libucrtd:openfile.obj
 0001:00084180       ?__acrt_stdio_parse_mode_t@@YA_NAAU__acrt_stdio_stream_mode@@@Z 10085180 f i libucrtd:openfile.obj
 0001:000841b0       ?__acrt_stdio_parse_mode_x@@YA_NAAU__acrt_stdio_stream_mode@@@Z 100851b0 f i libucrtd:openfile.obj
 0001:000841e0       __openfile                 100851e0 f   libucrtd:openfile.obj
 0001:00084210       __wopenfile                10085210 f   libucrtd:openfile.obj
 0001:000844f0       __close                    100854f0 f   libucrtd:close.obj
 0001:00084670       __close_nolock             10085670 f   libucrtd:close.obj
 0001:000846d0       ?has_crt_buffer@__crt_stdio_stream@@QBE_NXZ 100856d0 f i libucrtd:_freebuf.obj
 0001:000846f0       ___acrt_stdio_free_buffer_nolock 100856f0 f   libucrtd:_freebuf.obj
 0001:00084d50       ?__acrt_stdio_reset_buffer@@YAXV__crt_stdio_stream@@@Z 10085d50 f i libucrtd:fflush.obj
 0001:00084e50       ?has_all_of@__crt_stdio_stream@@QBE_NJ@Z 10085e50 f i libucrtd:fflush.obj
 0001:00084f20       ___acrt_stdio_flush_nolock 10085f20 f   libucrtd:fflush.obj
 0001:00084ff0       __fflush_nolock            10085ff0 f   libucrtd:fflush.obj
 0001:00085070       __flushall                 10086070 f   libucrtd:fflush.obj
 0001:00085090       _fflush                    10086090 f   libucrtd:fflush.obj
 0001:000857e0       ?has_big_buffer@__crt_stdio_stream@@QBE_NXZ 100867e0 f i libucrtd:_flsbuf.obj
 0001:000858e0       ___acrt_stdio_flush_and_write_narrow_nolock 100868e0 f   libucrtd:_flsbuf.obj
 0001:00085910       ___acrt_stdio_flush_and_write_wide_nolock 10086910 f   libucrtd:_flsbuf.obj
 0001:00085c40       ___acrt_get_begin_thread_init_policy 10086c40 f   libucrtd:win_policies.obj
 0001:00085c60       ___acrt_get_developer_information_policy 10086c60 f   libucrtd:win_policies.obj
 0001:00085c80       ___acrt_get_process_end_policy 10086c80 f   libucrtd:win_policies.obj
 0001:00085ca0       ___acrt_get_windowing_model_policy 10086ca0 f   libucrtd:win_policies.obj
 0001:00085f70       ??$__acrt_mbs_to_wcs_cp@U__crt_win32_buffer_internal_dynamic_resizing@@@@YAHQBDAAV?$__crt_win32_buffer@_WU__crt_win32_buffer_internal_dynamic_resizing@@@@I@Z 10086f70 f i libucrtd:argv_wildcards.obj
 0001:00085fa0       ??$__acrt_wcs_to_mbs_cp@U__crt_win32_buffer_internal_dynamic_resizing@@@@YAHQB_WAAV?$__crt_win32_buffer@DU__crt_win32_buffer_internal_dynamic_resizing@@@@I@Z 10086fa0 f i libucrtd:argv_wildcards.obj
 0001:00086ef0       ??$tcsncpy_s@AAPADIAAPADABI@?$__crt_char_traits@D@@SAHAAPAD$$QAI0ABI@Z 10087ef0 f i libucrtd:argv_wildcards.obj
 0001:00086f20       ??$tcsncpy_s@AAPA_WIAAPA_WABI@?$__crt_char_traits@_W@@SAHAAPA_W$$QAI0ABI@Z 10087f20 f i libucrtd:argv_wildcards.obj
 0001:00086f50       ??$tcsncpy_s@PADABIABQBDABI@?$__crt_char_traits@D@@SAH$$QAPADABIABQBD1@Z 10087f50 f i libucrtd:argv_wildcards.obj
 0001:00086f80       ??$tcsncpy_s@PADIABQBDABI@?$__crt_char_traits@D@@SAH$$QAPAD$$QAIABQBDABI@Z 10087f80 f i libucrtd:argv_wildcards.obj
 0001:00086fb0       ??$tcsncpy_s@PA_WABIABQB_WABI@?$__crt_char_traits@_W@@SAH$$QAPA_WABIABQB_W1@Z 10087fb0 f i libucrtd:argv_wildcards.obj
 0001:00086fe0       ??$tcsncpy_s@PA_WIABQB_WABI@?$__crt_char_traits@_W@@SAH$$QAPA_W$$QAIABQB_WABI@Z 10087fe0 f i libucrtd:argv_wildcards.obj
 0001:00087010       ??$tcspbrk@AAPADAAY02$$CBD@?$__crt_char_traits@D@@SAPADAAPADAAY02$$CBD@Z 10088010 f i libucrtd:argv_wildcards.obj
 0001:00087030       ??$tcspbrk@AAPA_WAAY02$$CB_W@?$__crt_char_traits@_W@@SAPA_WAAPA_WAAY02$$CB_W@Z 10088030 f i libucrtd:argv_wildcards.obj
 0001:00087050       ??0?$__crt_unique_handle_t@U__crt_findfile_traits@@@@QAE@QAX@Z 10088050 f i libucrtd:argv_wildcards.obj
 0001:00087070       ??0?$__crt_win32_buffer@DU__crt_win32_buffer_internal_dynamic_resizing@@@@QAE@XZ 10088070 f i libucrtd:argv_wildcards.obj
 0001:000870c0       ??0?$__crt_win32_buffer@_WU__crt_win32_buffer_internal_dynamic_resizing@@@@QAE@XZ 100880c0 f i libucrtd:argv_wildcards.obj
 0001:00087170       ??1?$__crt_unique_handle_t@U__crt_findfile_traits@@@@QAE@XZ 10088170 f i libucrtd:argv_wildcards.obj
 0001:00087190       ??1?$__crt_win32_buffer@DU__crt_win32_buffer_internal_dynamic_resizing@@@@QAE@XZ 10088190 f i libucrtd:argv_wildcards.obj
 0001:000871d0       ??1?$__crt_win32_buffer@_WU__crt_win32_buffer_internal_dynamic_resizing@@@@QAE@XZ 100881d0 f i libucrtd:argv_wildcards.obj
 0001:00087430       ?_deallocate@?$__crt_win32_buffer@DU__crt_win32_buffer_internal_dynamic_resizing@@@@AAEXXZ 10088430 f i libucrtd:argv_wildcards.obj
 0001:00087470       ?_deallocate@?$__crt_win32_buffer@_WU__crt_win32_buffer_internal_dynamic_resizing@@@@AAEXXZ 10088470 f i libucrtd:argv_wildcards.obj
 0001:000874b0       ?allocate@?$__crt_win32_buffer@DU__crt_win32_buffer_internal_dynamic_resizing@@@@QAEHI@Z 100884b0 f i libucrtd:argv_wildcards.obj
 0001:00087520       ?allocate@?$__crt_win32_buffer@_WU__crt_win32_buffer_internal_dynamic_resizing@@@@QAEHI@Z 10088520 f i libucrtd:argv_wildcards.obj
 0001:00087590       ?allocate@__crt_win32_buffer_internal_dynamic_resizing@@SAHQAPAXIABV__crt_win32_buffer_empty_debug_info@@@Z 10088590 f i libucrtd:argv_wildcards.obj
 0001:000876d0       ?capacity@?$__crt_win32_buffer@DU__crt_win32_buffer_internal_dynamic_resizing@@@@QBEIXZ 100886d0 f i libucrtd:argv_wildcards.obj
 0001:000876f0       ?capacity@?$__crt_win32_buffer@_WU__crt_win32_buffer_internal_dynamic_resizing@@@@QBEIXZ 100886f0 f i libucrtd:argv_wildcards.obj
 0001:00087710       ?close@?$__crt_unique_handle_t@U__crt_findfile_traits@@@@QAEXXZ 10088710 f i libucrtd:argv_wildcards.obj
 0001:00087750       ?close@__crt_findfile_traits@@SA_NPAX@Z 10088750 f i libucrtd:argv_wildcards.obj
 0001:00087780       ?data@?$__crt_win32_buffer@DU__crt_win32_buffer_internal_dynamic_resizing@@@@QAEPADXZ 10088780 f i libucrtd:argv_wildcards.obj
 0001:000877a0       ?data@?$__crt_win32_buffer@_WU__crt_win32_buffer_internal_dynamic_resizing@@@@QAEPA_WXZ 100887a0 f i libucrtd:argv_wildcards.obj
 0001:000877c0       ?deallocate@__crt_win32_buffer_internal_dynamic_resizing@@SAXQAXABV__crt_win32_buffer_empty_debug_info@@@Z 100887c0 f i libucrtd:argv_wildcards.obj
 0001:000877e0       ?debug_info@?$__crt_win32_buffer@DU__crt_win32_buffer_internal_dynamic_resizing@@@@QBEABV__crt_win32_buffer_empty_debug_info@@XZ 100887e0 f i libucrtd:argv_wildcards.obj
 0001:000877f0       ?debug_info@?$__crt_win32_buffer@_WU__crt_win32_buffer_internal_dynamic_resizing@@@@QBEABV__crt_win32_buffer_empty_debug_info@@XZ 100887f0 f i libucrtd:argv_wildcards.obj
 0001:00087b00       ?get@?$__crt_unique_handle_t@U__crt_findfile_traits@@@@QBEPAXXZ 10088b00 f i libucrtd:argv_wildcards.obj
 0001:00087b70       ?get_invalid_value@__crt_findfile_traits@@SAPAXXZ 10088b70 f i libucrtd:argv_wildcards.obj
 0001:00087c00       ?set_to_nullptr@?$__crt_win32_buffer@DU__crt_win32_buffer_internal_dynamic_resizing@@@@QAEXXZ 10088c00 f i libucrtd:argv_wildcards.obj
 0001:00087c40       ?set_to_nullptr@?$__crt_win32_buffer@_WU__crt_win32_buffer_internal_dynamic_resizing@@@@QAEXXZ 10088c40 f i libucrtd:argv_wildcards.obj
 0001:00087c80       ?size@?$__crt_win32_buffer@DU__crt_win32_buffer_internal_dynamic_resizing@@@@QAEXI@Z 10088c80 f i libucrtd:argv_wildcards.obj
 0001:00087ca0       ?size@?$__crt_win32_buffer@_WU__crt_win32_buffer_internal_dynamic_resizing@@@@QAEXI@Z 10088ca0 f i libucrtd:argv_wildcards.obj
 0001:00087d00       ?strpbrk@@YAPADQADQBD@Z    10088d00 f i libucrtd:argv_wildcards.obj
 0001:00087d20       ?wcspbrk@@YAPA_WPA_WPB_W@Z 10088d20 f i libucrtd:argv_wildcards.obj
 0001:00087d40       ___acrt_expand_narrow_argv_wildcards 10088d40 f   libucrtd:argv_wildcards.obj
 0001:00087d60       ___acrt_expand_wide_argv_wildcards 10088d60 f   libucrtd:argv_wildcards.obj
 0001:00087e40       ??$initialize_from_array@$$BY10BAA@E@?$dual_state_global@PAE@__crt_state_management@@QAAXAAY10BAA@E@Z 10088e40 f i libucrtd:mbctype.obj
 0001:00087e90       ??$initialize_from_array@$$BY10BAB@E@?$dual_state_global@PAE@__crt_state_management@@QAAXAAY10BAB@E@Z 10088e90 f i libucrtd:mbctype.obj
 0001:00088100       ?dangerous_get_state_array@?$dual_state_global@PAE@__crt_state_management@@QAEPAPAEXZ 10089100 f i libucrtd:mbctype.obj
 0001:00088110       ?dangerous_get_state_array@?$dual_state_global@PAU__crt_multibyte_data@@@__crt_state_management@@QAEPAPAU__crt_multibyte_data@@XZ 10089110 f i libucrtd:mbctype.obj
 0001:000881e0       ?initialize@?$dual_state_global@PAU__crt_multibyte_data@@@__crt_state_management@@QAEXQAU__crt_multibyte_data@@@Z 100891e0 f i libucrtd:mbctype.obj
 0001:00088930       ?value@?$dual_state_global@PAE@__crt_state_management@@QAEAAPAEXZ 10089930 f i libucrtd:mbctype.obj
 0001:00088950       ___acrt_initialize_multibyte 10089950 f   libucrtd:mbctype.obj
 0001:00088a00       ___acrt_update_thread_multibyte_data 10089a00 f   libucrtd:mbctype.obj
 0001:00088a20       ___p__mbcasemap            10089a20 f   libucrtd:mbctype.obj
 0001:00088a40       ___p__mbctype              10089a40 f   libucrtd:mbctype.obj
 0001:00088a60       __getmbcp                  10089a60 f   libucrtd:mbctype.obj
 0001:00088ad0       __setmbcp                  10089ad0 f   libucrtd:mbctype.obj
 0001:00088b00       __setmbcp_nolock           10089b00 f   libucrtd:mbctype.obj
 0001:00089071       __ismbbalnum               1008a071 f   libucrtd:ismbbyte.obj
 0001:0008908c       __ismbbalnum_l             1008a08c f   libucrtd:ismbbyte.obj
 0001:000890a8       __ismbbalpha               1008a0a8 f   libucrtd:ismbbyte.obj
 0001:000890c3       __ismbbalpha_l             1008a0c3 f   libucrtd:ismbbyte.obj
 0001:000890df       __ismbbblank               1008a0df f   libucrtd:ismbbyte.obj
 0001:00089102       __ismbbblank_l             1008a102 f   libucrtd:ismbbyte.obj
 0001:00089126       __ismbbgraph               1008a126 f   libucrtd:ismbbyte.obj
 0001:00089141       __ismbbgraph_l             1008a141 f   libucrtd:ismbbyte.obj
 0001:0008915d       __ismbbkalnum              1008a15d f   libucrtd:ismbbyte.obj
 0001:00089175       __ismbbkalnum_l            1008a175 f   libucrtd:ismbbyte.obj
 0001:0008918e       __ismbbkana                1008a18e f   libucrtd:ismbbyte.obj
 0001:000891a1       __ismbbkana_l              1008a1a1 f   libucrtd:ismbbyte.obj
 0001:000891f0       __ismbbkprint              1008a1f0 f   libucrtd:ismbbyte.obj
 0001:00089208       __ismbbkprint_l            1008a208 f   libucrtd:ismbbyte.obj
 0001:00089221       __ismbbkpunct              1008a221 f   libucrtd:ismbbyte.obj
 0001:00089239       __ismbbkpunct_l            1008a239 f   libucrtd:ismbbyte.obj
 0001:00089252       __ismbblead                1008a252 f   libucrtd:ismbbyte.obj
 0001:0008926a       __ismbblead_l              1008a26a f   libucrtd:ismbbyte.obj
 0001:00089283       __ismbbprint               1008a283 f   libucrtd:ismbbyte.obj
 0001:0008929e       __ismbbprint_l             1008a29e f   libucrtd:ismbbyte.obj
 0001:000892ba       __ismbbpunct               1008a2ba f   libucrtd:ismbbyte.obj
 0001:000892d2       __ismbbpunct_l             1008a2d2 f   libucrtd:ismbbyte.obj
 0001:000892eb       __ismbbtrail               1008a2eb f   libucrtd:ismbbyte.obj
 0001:00089303       __ismbbtrail_l             1008a303 f   libucrtd:ismbbyte.obj
 0001:00089320       ___acrt_initialize_command_line 1008a320 f   libucrtd:argv_data.obj
 0001:00089340       ___acrt_uninitialize_command_line 1008a340 f   libucrtd:argv_data.obj
 0001:00089350       ___p___argc                1008a350 f   libucrtd:argv_data.obj
 0001:00089360       ___p___argv                1008a360 f   libucrtd:argv_data.obj
 0001:00089370       ___p___wargv               1008a370 f   libucrtd:argv_data.obj
 0001:00089380       ___p__acmdln               1008a380 f   libucrtd:argv_data.obj
 0001:00089390       ___p__pgmptr               1008a390 f   libucrtd:argv_data.obj
 0001:000893a0       ___p__wcmdln               1008a3a0 f   libucrtd:argv_data.obj
 0001:000893b0       ___p__wpgmptr              1008a3b0 f   libucrtd:argv_data.obj
 0001:000893c0       __get_pgmptr               1008a3c0 f   libucrtd:argv_data.obj
 0001:000894d0       __get_wpgmptr              1008a4d0 f   libucrtd:argv_data.obj
 0001:00089690       ___acrt_MultiByteToWideChar 1008a690 f   libucrtd:multibytetowidechar.obj
 0001:00089790       ___acrt_WideCharToMultiByte 1008a790 f   libucrtd:widechartomultibyte.obj
 0001:000898e9       ___dcrt_get_narrow_environment_from_os 1008a8e9 f   libucrtd:get_environment_from_os.obj
 0001:0008997b       ___dcrt_get_wide_environment_from_os 1008a97b f   libucrtd:get_environment_from_os.obj
 0001:0008a310       ??$get_or_create_environment_nolock@$$V@?$__crt_char_traits@D@@SAPAPADXZ 1008b310 f i libucrtd:setenv.obj
 0001:0008a315       ??$get_or_create_environment_nolock@$$V@?$__crt_char_traits@_W@@SAPAPA_WXZ 1008b315 f i libucrtd:setenv.obj
 0001:0008a31a       ??$set_environment_variable@ABQADQAD@?$__crt_char_traits@D@@SAHABQAD$$QBQAD@Z 1008b31a f i libucrtd:setenv.obj
 0001:0008a332       ??$set_environment_variable@ABQA_WQA_W@?$__crt_char_traits@_W@@SAHABQA_W$$QBQA_W@Z 1008b332 f i libucrtd:setenv.obj
 0001:0008a349       ??$tcschr@ABQADD@?$__crt_char_traits@D@@SAPADABQAD$$QAD@Z 1008b349 f i libucrtd:setenv.obj
 0001:0008a363       ??$tcschr@ABQA_WD@?$__crt_char_traits@_W@@SAPA_WABQA_W$$QAD@Z 1008b363 f i libucrtd:setenv.obj
 0001:0008a381       ??$tcscpy_s@AAPADABIAAPAD@?$__crt_char_traits@D@@SAHAAPADABI0@Z 1008b381 f i libucrtd:setenv.obj
 0001:0008a39f       ??$tcscpy_s@AAPA_WABIAAPA_W@?$__crt_char_traits@_W@@SAHAAPA_WABI0@Z 1008b39f f i libucrtd:setenv.obj
 0001:0008a3bd       ??$tcscpy_s@ABQADABIABQAD@?$__crt_char_traits@D@@SAHABQADABI0@Z 1008b3bd f i libucrtd:setenv.obj
 0001:0008a3db       ??$tcscpy_s@ABQA_WABIABQA_W@?$__crt_char_traits@_W@@SAHABQA_WABI0@Z 1008b3db f i libucrtd:setenv.obj
 0001:0008a3f9       ??$tcslen@ABQAD@?$__crt_char_traits@D@@SAIABQAD@Z 1008b3f9 f i libucrtd:setenv.obj
 0001:0008a411       ??$tcslen@ABQA_W@?$__crt_char_traits@_W@@SAIABQA_W@Z 1008b411 f i libucrtd:setenv.obj
 0001:0008a42f       ??$tcsnicoll@ABQBDAAPADABI@?$__crt_char_traits@D@@SAHABQBDAAPADABI@Z 1008b42f f i libucrtd:setenv.obj
 0001:0008a44d       ??$tcsnicoll@ABQB_WAAPA_WABI@?$__crt_char_traits@_W@@SAHABQB_WAAPA_WABI@Z 1008b44d f i libucrtd:setenv.obj
 0001:0008a46b       ??$tcsnlen@PADH@?$__crt_char_traits@D@@SAI$$QAPAD$$QAH@Z 1008b46b f i libucrtd:setenv.obj
 0001:0008a483       ??$tcsnlen@PA_WH@?$__crt_char_traits@_W@@SAI$$QAPA_W$$QAH@Z 1008b483 f i libucrtd:setenv.obj
 0001:0008a4bf       ?strchr@@YAPADQADH@Z       1008b4bf f i libucrtd:setenv.obj
 0001:0008a4ca       ?wcschr@@YAPA_WPA_W_W@Z    1008b4ca f i libucrtd:setenv.obj
 0001:0008a4d5       ___dcrt_set_variable_in_narrow_environment_nolock 1008b4d5 f   libucrtd:setenv.obj
 0001:0008a4e0       ___dcrt_set_variable_in_wide_environment_nolock 1008b4e0 f   libucrtd:setenv.obj
 0001:0008a4f0       ___acrt_getheap            1008b4f0 f   libucrtd:heap_handle.obj
 0001:0008a530       ___acrt_initialize_heap    1008b530 f   libucrtd:heap_handle.obj
 0001:0008a560       ___acrt_uninitialize_heap  1008b560 f   libucrtd:heap_handle.obj
 0001:0008a580       __get_heap_handle          1008b580 f   libucrtd:heap_handle.obj
 0001:0008a5c0       ___acrt_execute_initializers 1008b5c0 f   libucrtd:shared_initialization.obj
 0001:0008a670       ___acrt_execute_uninitializers 1008b670 f   libucrtd:shared_initialization.obj
 0001:0008a6d0       ??$__crt_fast_decode_pointer@P6AHPAU_exception@@@Z@@YAP6AHPAU_exception@@@ZQ6AH0@Z@Z 1008b6d0 f i libucrtd:matherr.obj
 0001:0008a700       ??$__crt_fast_encode_pointer@P6AHPAU_exception@@@Z@@YAP6AHPAU_exception@@@ZQ6AH0@Z@Z 1008b700 f i libucrtd:matherr.obj
 0001:0008a730       ?initialize@?$dual_state_global@P6AHPAU_exception@@@Z@__crt_state_management@@QAEXQ6AHPAU_exception@@@Z@Z 1008b730 f i libucrtd:matherr.obj
 0001:0008a770       ?value@?$dual_state_global@P6AHPAU_exception@@@Z@__crt_state_management@@QAEAAP6AHPAU_exception@@@ZXZ 1008b770 f i libucrtd:matherr.obj
 0001:0008a790       ___acrt_has_user_matherr   1008b790 f   libucrtd:matherr.obj
 0001:0008a7d0       ___acrt_initialize_user_matherr 1008b7d0 f   libucrtd:matherr.obj
 0001:0008a7f0       ___acrt_invoke_user_matherr 1008b7f0 f   libucrtd:matherr.obj
 0001:0008a840       ___setusermatherr          1008b840 f   libucrtd:matherr.obj
 0001:0008a880       __free_base                1008b880 f   libucrtd:free_base.obj
 0001:0008a930       __expand                   1008b930 f   libucrtd:expand.obj
 0001:0008a950       __expand_base              1008b950 f   libucrtd:expand.obj
 0001:0008aa80       ?value@?$dual_state_global@J@__crt_state_management@@QAEAAJXZ 1008ba80 f i libucrtd:new_mode.obj
 0001:0008aaa0       __query_new_mode           1008baa0 f   libucrtd:new_mode.obj
 0001:0008aac0       __set_new_mode             1008bac0 f   libucrtd:new_mode.obj
 0001:0008ab60       __CrtDefaultAllocHook      1008bb60 f   libucrtd:debug_heap_hook.obj
 0001:0008ab6c       __mbsdec                   1008bb6c f   libucrtd:mbsdec.obj
 0001:0008ab83       __mbsdec_l                 1008bb83 f   libucrtd:mbsdec.obj
 0001:0008b070       _strncpy_s                 1008c070 f   libucrtd:strncpy_s.obj
 0001:0008b240       ___acrt_report_runtime_error 1008c240 f   libucrtd:report_runtime_error.obj
 0001:0008b430       __query_app_type           1008c430 f   libucrtd:report_runtime_error.obj
 0001:0008b440       __set_app_type             1008c440 f   libucrtd:report_runtime_error.obj
 0001:0008b450       __iswctype_l               1008c450 f   libucrtd:iswctype.obj
 0001:0008b470       _iswctype                  1008c470 f   libucrtd:iswctype.obj
 0001:0008b4e0       ___iswcsym                 1008c4e0 f i libucrtd:_wctype.obj
 0001:0008b520       ___iswcsymf                1008c520 f i libucrtd:_wctype.obj
 0001:0008b560       __isleadbyte_l             1008c560 f i libucrtd:_wctype.obj
 0001:0008b5b0       __iswalnum_l               1008c5b0 f i libucrtd:_wctype.obj
 0001:0008b5d0       __iswalpha_l               1008c5d0 f i libucrtd:_wctype.obj
 0001:0008b5f0       __iswblank_l               1008c5f0 f i libucrtd:_wctype.obj
 0001:0008b630       __iswcntrl_l               1008c630 f i libucrtd:_wctype.obj
 0001:0008b650       __iswcsym_l                1008c650 f i libucrtd:_wctype.obj
 0001:0008b690       __iswcsymf_l               1008c690 f i libucrtd:_wctype.obj
 0001:0008b6d0       __iswdigit_l               1008c6d0 f i libucrtd:_wctype.obj
 0001:0008b6f0       __iswgraph_l               1008c6f0 f i libucrtd:_wctype.obj
 0001:0008b710       __iswlower_l               1008c710 f i libucrtd:_wctype.obj
 0001:0008b730       __iswprint_l               1008c730 f i libucrtd:_wctype.obj
 0001:0008b750       __iswpunct_l               1008c750 f i libucrtd:_wctype.obj
 0001:0008b770       __iswspace_l               1008c770 f i libucrtd:_wctype.obj
 0001:0008b790       __iswupper_l               1008c790 f i libucrtd:_wctype.obj
 0001:0008b7b0       __iswxdigit_l              1008c7b0 f i libucrtd:_wctype.obj
 0001:0008b7d0       _isleadbyte                1008c7d0 f i libucrtd:_wctype.obj
 0001:0008b7f0       _iswalnum                  1008c7f0 f i libucrtd:_wctype.obj
 0001:0008b810       _iswalpha                  1008c810 f i libucrtd:_wctype.obj
 0001:0008b830       _iswascii                  1008c830 f i libucrtd:_wctype.obj
 0001:0008b860       _iswblank                  1008c860 f i libucrtd:_wctype.obj
 0001:0008b8a0       _iswcntrl                  1008c8a0 f i libucrtd:_wctype.obj
 0001:0008b8c0       _iswdigit                  1008c8c0 f i libucrtd:_wctype.obj
 0001:0008b8e0       _iswgraph                  1008c8e0 f i libucrtd:_wctype.obj
 0001:0008b900       _iswlower                  1008c900 f i libucrtd:_wctype.obj
 0001:0008b920       _iswprint                  1008c920 f i libucrtd:_wctype.obj
 0001:0008b940       _iswpunct                  1008c940 f i libucrtd:_wctype.obj
 0001:0008b960       _iswspace                  1008c960 f i libucrtd:_wctype.obj
 0001:0008b980       _iswupper                  1008c980 f i libucrtd:_wctype.obj
 0001:0008b9a0       _iswxdigit                 1008c9a0 f i libucrtd:_wctype.obj
 0001:0008ba30       ?__mbrtowc_utf8@__crt_mbstring@@YAIPA_WPBDIPAU_Mbstatet@@@Z 1008ca30 f   libucrtd:mbrtowc.obj
 0001:0008ba80       ?__mbsrtowcs_utf8@__crt_mbstring@@YAIPA_WPAPBDIPAU_Mbstatet@@@Z 1008ca80 f   libucrtd:mbrtowc.obj
 0001:0008c2f0       _btowc                     1008d2f0 f   libucrtd:mbrtowc.obj
 0001:0008c360       _mbrlen                    1008d360 f   libucrtd:mbrtowc.obj
 0001:0008c3b0       _mbrtowc                   1008d3b0 f   libucrtd:mbrtowc.obj
 0001:0008c440       _mbsrtowcs                 1008d440 f   libucrtd:mbrtowc.obj
 0001:0008c460       _mbsrtowcs_s               1008d460 f   libucrtd:mbrtowc.obj
 0001:0008c7b0       ??$?RG@__crt_internal_free_policy@@QBEXQBG@Z 1008d7b0 f i libucrtd:initctype.obj
 0001:0008c7d0       ??$?RJ@__crt_internal_free_policy@@QBEXQBJ@Z 1008d7d0 f i libucrtd:initctype.obj
 0001:0008c7f0       ??0?$__crt_unique_heap_ptr@GU__crt_internal_free_policy@@@@QAE@QAG@Z 1008d7f0 f i libucrtd:initctype.obj
 0001:0008c810       ??0?$__crt_unique_heap_ptr@JU__crt_internal_free_policy@@@@QAE@QAJ@Z 1008d810 f i libucrtd:initctype.obj
 0001:0008c830       ??1?$__crt_unique_heap_ptr@GU__crt_internal_free_policy@@@@QAE@XZ 1008d830 f i libucrtd:initctype.obj
 0001:0008c850       ??1?$__crt_unique_heap_ptr@JU__crt_internal_free_policy@@@@QAE@XZ 1008d850 f i libucrtd:initctype.obj
 0001:0008c870       ?detach@?$__crt_unique_heap_ptr@GU__crt_internal_free_policy@@@@QAEPAGXZ 1008d870 f i libucrtd:initctype.obj
 0001:0008c8a0       ?detach@?$__crt_unique_heap_ptr@JU__crt_internal_free_policy@@@@QAEPAJXZ 1008d8a0 f i libucrtd:initctype.obj
 0001:0008c8d0       ?release@?$__crt_unique_heap_ptr@GU__crt_internal_free_policy@@@@QAEXXZ 1008d8d0 f i libucrtd:initctype.obj
 0001:0008c900       ?release@?$__crt_unique_heap_ptr@JU__crt_internal_free_policy@@@@QAEXXZ 1008d900 f i libucrtd:initctype.obj
 0001:0008c930       ____lc_codepage_func       1008d930 f   libucrtd:initctype.obj
 0001:0008c970       ____lc_collate_cp_func     1008d970 f   libucrtd:initctype.obj
 0001:0008c9b0       ____lc_locale_name_func    1008d9b0 f   libucrtd:initctype.obj
 0001:0008c9f0       ____mb_cur_max_func        1008d9f0 f   libucrtd:initctype.obj
 0001:0008ca30       ____mb_cur_max_l_func      1008da30 f   libucrtd:initctype.obj
 0001:0008ca60       ___acrt_locale_initialize_ctype 1008da60 f   libucrtd:initctype.obj
 0001:0008d1e0       ?__c32rtomb_utf8@__crt_mbstring@@YAIPAD_UPAU_Mbstatet@@@Z 1008e1e0 f   libucrtd:c32rtomb.obj
 0001:0008d3c0       ?reset_and_return@__crt_mbstring@@YAIIPAU_Mbstatet@@@Z 1008e3c0 f i libucrtd:c32rtomb.obj
 0001:0008d3f0       ?return_illegal_sequence@__crt_mbstring@@YAIPAU_Mbstatet@@@Z 1008e3f0 f i libucrtd:c32rtomb.obj
 0001:0008d420       _c32rtomb                  1008e420 f   libucrtd:c32rtomb.obj
 0001:0008d440       ___acrt_add_locale_ref     1008e440 f   libucrtd:locale_refcounting.obj
 0001:0008d550       ___acrt_free_locale        1008e550 f   libucrtd:locale_refcounting.obj
