 Opos_Interfaces

 Timestamp is 5d42a05c (Thu Aug  1 17:18:36 2019)

 Preferred load address is 10000000

 Start         Length     Name                   Class
 0001:00000000 000006d0H .text$di                CODE
 0001:000006d0 00083760H .text$mn                CODE
 0001:00083e30 000001c0H .text$x                 CODE
 0001:00083ff0 000000a0H .text$yd                CODE
 0002:00000000 000001d4H .idata$5                DATA
 0002:000001d4 00000004H .00cfg                  DATA
 0002:000001d8 00000004H .CRT$XCA                DATA
 0002:000001dc 00000004H .CRT$XCL                DATA
 0002:000001e0 00000068H .CRT$XCU                DATA
 0002:00000248 00000004H .CRT$XCZ                DATA
 0002:0000024c 00000004H .CRT$XIA                DATA
 0002:00000250 0000000cH .CRT$XIC                DATA
 0002:0000025c 00000004H .CRT$XIZ                DATA
 0002:00000260 00000004H .CRT$XPA                DATA
 0002:00000264 00000008H .CRT$XPX                DATA
 0002:0000026c 00000004H .CRT$XPXA               DATA
 0002:00000270 00000004H .CRT$XPZ                DATA
 0002:00000274 00000004H .CRT$XTA                DATA
 0002:00000278 00000008H .CRT$XTZ                DATA
 0002:0000027c 00000000H .gfids$y                DATA
 0002:00000280 00023e9cH .rdata                  DATA
 0002:0002411c 00000344H .rdata$r                DATA
 0002:00024460 00000044H .rdata$sxdata           DATA
 0002:000244a4 00000394H .rdata$zzzdbg           DATA
 0002:00024838 00000004H .rtc$IAA                DATA
 0002:0002483c 00000008H .rtc$IMZ                DATA
 0002:00024844 00000004H .rtc$IZZ                DATA
 0002:00024848 00000004H .rtc$TAA                DATA
 0002:0002484c 00000008H .rtc$TMZ                DATA
 0002:00024854 00000004H .rtc$TZZ                DATA
 0002:00024858 00000d24H .xdata$x                DATA
 0002:0002557c 00000004H ATL$__a                 DATA
 0002:00025580 00000010H ATL$__z                 DATA
 0002:00025590 000000acH .edata                  DATA
 0002:0002563c 00000064H .idata$2                DATA
 0002:000256a0 00000014H .idata$3                DATA
 0002:000256b4 000001d4H .idata$4                DATA
 0002:00025888 000007dcH .idata$6                DATA
 0003:00000000 00000910H .data                   DATA
 0003:00000910 00000138H .data$r                 DATA
 0003:00000a48 0000353cH .bss                    DATA
 0004:00000000 00000140H .rsrc$01                DATA
 0004:00000140 000129f0H .rsrc$02                DATA

  Address         Publics by Value              Rva+Base       Lib:Object

 0000:00000000       ___volatile_metadata       00000000     <absolute>
 0000:00000000       ___guard_iat_count         00000000     <absolute>
 0000:00000000       ___guard_fids_table        00000000     <absolute>
 0000:00000000       ___guard_longjmp_table     00000000     <absolute>
 0000:00000000       ___guard_longjmp_count     00000000     <absolute>
 0000:00000000       ___hybrid_code_map_count   00000000     <absolute>
 0000:00000000       ___enclave_config          00000000     <absolute>
 0000:00000000       ___AbsoluteZero            00000000     <absolute>
 0000:00000000       ___dynamic_value_reloc_table 00000000     <absolute>
 0000:00000000       ___guard_iat_table         00000000     <absolute>
 0000:00000000       __except_list              00000000     <absolute>
 0000:00000000       ___guard_fids_count        00000000     <absolute>
 0000:00000000       ___hybrid_auxiliary_iat    00000000     <absolute>
 0000:00000000       ___hybrid_code_map         00000000     <absolute>
 0000:00000011       ___safe_se_handler_count   00000011     <absolute>
 0000:00000100       ___guard_flags             00000100     <absolute>
 0000:00000000       ___ImageBase               10000000     <linker-defined>
 0001:000006d0       ??$AtlMultiply@I@ATL@@YAJPAIII@Z 100016d0 f i StdAfx.obj
 0001:00000730       ??0?$CHeapPtr@_WVCCRTAllocator@ATL@@@ATL@@QAE@XZ 10001730 f i StdAfx.obj
 0001:00000760       ??0?$CHeapPtrBase@_WVCCRTAllocator@ATL@@@ATL@@IAE@XZ 10001760 f i StdAfx.obj
 0001:00000780       ??0?$CSimpleArray@GV?$CSimpleArrayEqualHelper@G@ATL@@@ATL@@QAE@XZ 10001780 f i StdAfx.obj
 0001:000007c0       ??0?$CTraceCategoryEx@$00$0A@@ATL@@QAE@PB_W@Z 100017c0 f i StdAfx.obj
 0001:000007f0       ??0?$CTraceCategoryEx@$01$0A@@ATL@@QAE@PB_W@Z 100017f0 f i StdAfx.obj
 0001:00000820       ??0?$CTraceCategoryEx@$03$0A@@ATL@@QAE@PB_W@Z 10001820 f i StdAfx.obj
 0001:00000850       ??0?$CTraceCategoryEx@$07$0A@@ATL@@QAE@PB_W@Z 10001850 f i StdAfx.obj
 0001:00000880       ??0?$CTraceCategoryEx@$0BA@$0A@@ATL@@QAE@PB_W@Z 10001880 f i StdAfx.obj
 0001:000008b0       ??0?$CTraceCategoryEx@$0BAA@$0A@@ATL@@QAE@PB_W@Z 100018b0 f i StdAfx.obj
 0001:000008f0       ??0?$CTraceCategoryEx@$0BAAA@$0A@@ATL@@QAE@PB_W@Z 100018f0 f i StdAfx.obj
 0001:00000930       ??0?$CTraceCategoryEx@$0BAAAA@$0A@@ATL@@QAE@PB_W@Z 10001930 f i StdAfx.obj
 0001:00000970       ??0?$CTraceCategoryEx@$0BAAAAA@$0A@@ATL@@QAE@PB_W@Z 10001970 f i StdAfx.obj
 0001:000009b0       ??0?$CTraceCategoryEx@$0CA@$0A@@ATL@@QAE@PB_W@Z 100019b0 f i StdAfx.obj
 0001:000009e0       ??0?$CTraceCategoryEx@$0CAA@$0A@@ATL@@QAE@PB_W@Z 100019e0 f i StdAfx.obj
 0001:00000a20       ??0?$CTraceCategoryEx@$0CAAA@$0A@@ATL@@QAE@PB_W@Z 10001a20 f i StdAfx.obj
 0001:00000a60       ??0?$CTraceCategoryEx@$0CAAAA@$0A@@ATL@@QAE@PB_W@Z 10001a60 f i StdAfx.obj
 0001:00000aa0       ??0?$CTraceCategoryEx@$0CAAAAA@$0A@@ATL@@QAE@PB_W@Z 10001aa0 f i StdAfx.obj
 0001:00000ae0       ??0?$CTraceCategoryEx@$0EA@$0A@@ATL@@QAE@PB_W@Z 10001ae0 f i StdAfx.obj
 0001:00000b10       ??0?$CTraceCategoryEx@$0EAA@$0A@@ATL@@QAE@PB_W@Z 10001b10 f i StdAfx.obj
 0001:00000b50       ??0?$CTraceCategoryEx@$0EAAA@$0A@@ATL@@QAE@PB_W@Z 10001b50 f i StdAfx.obj
 0001:00000b90       ??0?$CTraceCategoryEx@$0EAAAA@$0A@@ATL@@QAE@PB_W@Z 10001b90 f i StdAfx.obj
 0001:00000bd0       ??0?$CTraceCategoryEx@$0EAAAAA@$0A@@ATL@@QAE@PB_W@Z 10001bd0 f i StdAfx.obj
 0001:00000c10       ??0?$CTraceCategoryEx@$0IA@$0A@@ATL@@QAE@PB_W@Z 10001c10 f i StdAfx.obj
 0001:00000c50       ??0?$CTraceCategoryEx@$0IAA@$0A@@ATL@@QAE@PB_W@Z 10001c50 f i StdAfx.obj
 0001:00000c90       ??0?$CTraceCategoryEx@$0IAAA@$0A@@ATL@@QAE@PB_W@Z 10001c90 f i StdAfx.obj
 0001:00000cd0       ??0?$CTraceCategoryEx@$0IAAAA@$0A@@ATL@@QAE@PB_W@Z 10001cd0 f i StdAfx.obj
 0001:00000d10       ??0CAtlComModule@ATL@@QAE@XZ 10001d10 f i StdAfx.obj
 0001:00000df0       ??0CAtlWinModule@ATL@@QAE@XZ 10001df0 f i StdAfx.obj
 0001:00000e80       ??0CComCriticalSection@ATL@@QAE@XZ 10001e80 f i StdAfx.obj
 0001:00000eb0       ??0CPreserveLastError@ATL@@QAE@XZ 10001eb0 f i StdAfx.obj
 0001:00000ef0       ??0CTraceFileAndLineInfo@ATL@@QAE@PBDH@Z 10001ef0 f i StdAfx.obj
 0001:00000f20       ??0_ATL_COM_MODULE70@ATL@@QAE@XZ 10001f20 f i StdAfx.obj
 0001:00000f50       ??0_ATL_WIN_MODULE70@ATL@@QAE@XZ 10001f50 f i StdAfx.obj
 0001:00000f90       ??1?$CHeapPtr@_WVCCRTAllocator@ATL@@@ATL@@QAE@XZ 10001f90 f i StdAfx.obj
 0001:00000fc0       ??1?$CHeapPtrBase@_WVCCRTAllocator@ATL@@@ATL@@QAE@XZ 10001fc0 f i StdAfx.obj
 0001:00000ff0       ??1?$CSimpleArray@GV?$CSimpleArrayEqualHelper@G@ATL@@@ATL@@QAE@XZ 10001ff0 f i StdAfx.obj
 0001:00001020       ??1CAtlComModule@ATL@@QAE@XZ 10002020 f i StdAfx.obj
 0001:00001050       ??1CAtlWinModule@ATL@@QAE@XZ 10002050 f i StdAfx.obj
 0001:00001080       ??1CComBSTR@ATL@@QAE@XZ    10002080 f i StdAfx.obj
 0001:000010c0       ??1CComCriticalSection@ATL@@QAE@XZ 100020c0 f i StdAfx.obj
 0001:000010e0       ??1CPreserveLastError@ATL@@QAE@XZ 100020e0 f i StdAfx.obj
 0001:00001120       ??1_ATL_COM_MODULE70@ATL@@QAE@XZ 10002120 f i StdAfx.obj
 0001:00001150       ??1_ATL_WIN_MODULE70@ATL@@QAE@XZ 10002150 f i StdAfx.obj
 0001:00001190       ??1stringdispid@CComTypeInfoHolder@ATL@@QAE@XZ 10002190 f i StdAfx.obj
 0001:000011c0       ??A?$CSimpleArray@GV?$CSimpleArrayEqualHelper@G@ATL@@@ATL@@QAEAAGH@Z 100021c0 f i StdAfx.obj
 0001:00001240       ??B?$CHeapPtrBase@_WVCCRTAllocator@ATL@@@ATL@@QBEPA_WXZ 10002240 f i StdAfx.obj
 0001:00001260       ??B?$CTraceCategoryEx@$01$0A@@ATL@@QAEIXZ 10002260 f i StdAfx.obj
 0001:00001280       ??B?$CTraceCategoryEx@$0CA@$0A@@ATL@@QAEIXZ 10002280 f i StdAfx.obj
 0001:000012a0       ??RCTraceFileAndLineInfo@ATL@@QBAXHIPB_WZZ 100022a0 f i StdAfx.obj
 0001:00001340       ??_Estringdispid@CComTypeInfoHolder@ATL@@QAEPAXI@Z 10002340 f i StdAfx.obj
 0001:000013d0       ??_H@YGXPAXIIP6EPAX0@Z@Z   100023d0 f i StdAfx.obj
 0001:00001440       ??_I@YGXPAXIIP6EX0@Z@Z     10002440 f i StdAfx.obj
 0001:000014c0       ?Allocate@?$CHeapPtr@_WVCCRTAllocator@ATL@@@ATL@@QAE_NI@Z 100024c0 f i StdAfx.obj
 0001:00001550       ?Allocate@CCRTAllocator@ATL@@SAPAXI@Z 10002550 f i StdAfx.obj
 0001:00001570       ?AllocateBytes@?$CHeapPtrBase@_WVCCRTAllocator@ATL@@@ATL@@QAE_NI@Z 10002570 f i StdAfx.obj
 0001:000015e0       ?AtlWinModuleInit@ATL@@YGJPAU_ATL_WIN_MODULE70@1@@Z 100025e0 f i StdAfx.obj
 0001:000016b0       ?AtlWinModuleTerm@ATL@@YGJPAU_ATL_WIN_MODULE70@1@PAUHINSTANCE__@@@Z 100026b0 f i StdAfx.obj
 0001:00001770       ?Free@?$CHeapPtrBase@_WVCCRTAllocator@ATL@@@ATL@@QAEXXZ 10002770 f i StdAfx.obj
 0001:000017b0       ?Free@CCRTAllocator@ATL@@SAXPAX@Z 100027b0 f i StdAfx.obj
 0001:000017d0       ?GetCategoryName@CTrace@ATL@@CAPA_WI@Z 100027d0 f i StdAfx.obj
 0001:00001820       ?GetModuleInstance@CAtlBaseModule@ATL@@QAEPAUHINSTANCE__@@XZ 10002820 f i StdAfx.obj
 0001:00001840       ?GetSize@?$CSimpleArray@GV?$CSimpleArrayEqualHelper@G@ATL@@@ATL@@QBEHXZ 10002840 f i StdAfx.obj
 0001:00001860       ?Init@CComCriticalSection@ATL@@QAEJXZ 10002860 f i StdAfx.obj
 0001:000018c0       ?RegisterCategory@CTrace@ATL@@SAXPB_WI@Z 100028c0 f i StdAfx.obj
 0001:00001950       ?RemoveAll@?$CSimpleArray@GV?$CSimpleArrayEqualHelper@G@ATL@@@ATL@@QAEXXZ 10002950 f i StdAfx.obj
 0001:000019d0       ?Term@CAtlComModule@ATL@@QAEXXZ 100029d0 f i StdAfx.obj
 0001:00001a90       ?Term@CAtlWinModule@ATL@@QAEXXZ 10002a90 f i StdAfx.obj
 0001:00001ac0       ?Term@CComCriticalSection@ATL@@QAEJXZ 10002ac0 f i StdAfx.obj
 0001:00001b00       ?TraceV@CTrace@ATL@@CAXPBDHIIPB_W@Z 10002b00 f i StdAfx.obj
 0001:00001d80       ?TraceV@CTrace@ATL@@SAXPBDHIIPB_WPAD@Z 10002d80 f i StdAfx.obj
 0001:00001ec0       ?_AtlInitializeCriticalSectionEx@ATL@@YAHPAU_RTL_CRITICAL_SECTION@@KK@Z 10002ec0 f i StdAfx.obj
 0001:00001ef0       ?_AtlRaiseException@ATL@@YAXKK@Z 10002ef0 f i StdAfx.obj
 0001:00001f20       _HRESULT_FROM_WIN32        10002f20 f i StdAfx.obj
 0001:00001f60       ___local_stdio_printf_options 10002f60 f i StdAfx.obj
 0001:00001f70       __vswprintf_s_l            10002f70 f i StdAfx.obj
 0001:00001fe0       _swprintf_s                10002fe0 f i StdAfx.obj
 0001:00002170       _DllGetClassObject@12      10003170 f   OposInterfaces.obj
 0001:000021a0       _DllCanUnloadNow@0         100031a0 f   OposInterfaces.obj
 0001:000021e0       _DllRegisterServer@0       100031e0 f   OposInterfaces.obj
 0001:00002200       _DllUnregisterServer@0     10003200 f   OposInterfaces.obj
 0001:00002390       _DllMain@12                10003390 f   OposInterfaces.obj
 0001:000023f0       ??$?2PA_W@?$Wrapper@PA_W@?$CSimpleMap@PA_WPA_WVCExpansionVectorEqualHelper@ATL@@@ATL@@SAPAXIPAPA_W@Z 100033f0 f i OposInterfaces.obj
 0001:00002400       ??$AtlMultiply@K@ATL@@YAJPAKKK@Z 10003400 f i OposInterfaces.obj
 0001:00002460       ??$AtlMultiplyThrow@I@ATL@@YAIII@Z 10003460 f i OposInterfaces.obj
 0001:000024e0       ??0?$CAtlModuleT@VCComModule@ATL@@@ATL@@QAE@XZ 100034e0 f i OposInterfaces.obj
 0001:00002510       ??0?$CAtlSafeAllocBufferManager@VCCRTAllocator@ATL@@@_ATL_SAFE_ALLOCA_IMPL@ATL@@QAE@XZ 10003510 f i OposInterfaces.obj
 0001:00002530       ??0?$CAutoVectorPtr@_W@ATL@@QAE@XZ 10003530 f i OposInterfaces.obj
 0001:00002550       ??0?$CComCritSecLock@VCComCriticalSection@ATL@@@ATL@@QAE@AAVCComCriticalSection@1@_N@Z 10003550 f i OposInterfaces.obj
 0001:000025b0       ??0?$CComPtr@UICatRegister@@@ATL@@QAE@XZ 100035b0 f i OposInterfaces.obj
 0001:000025e0       ??0?$CComPtr@UITypeLib@@@ATL@@QAE@XZ 100035e0 f i OposInterfaces.obj
 0001:00002610       ??0?$CComPtrBase@UICatRegister@@@ATL@@IAE@XZ 10003610 f i OposInterfaces.obj
 0001:00002630       ??0?$CComPtrBase@UITypeLib@@@ATL@@IAE@XZ 10003630 f i OposInterfaces.obj
 0001:00002650       ??0?$CSimpleMap@PA_WPA_WVCExpansionVectorEqualHelper@ATL@@@ATL@@QAE@XZ 10003650 f i OposInterfaces.obj
 0001:00002690       ??0?$CTempBuffer@E$0BAA@VCCRTAllocator@ATL@@@ATL@@QAE@XZ 10003690 f i OposInterfaces.obj
 0001:000026b0       ??0?$CTempBuffer@_W$0BAA@VCCRTAllocator@ATL@@@ATL@@QAE@XZ 100036b0 f i OposInterfaces.obj
 0001:000026d0       ??0?$CTempBuffer@_W$0EAA@VCCRTAllocator@ATL@@@ATL@@QAE@XZ 100036d0 f i OposInterfaces.obj
 0001:000026f0       ??0?$Wrapper@PA_W@?$CSimpleMap@PA_WPA_WVCExpansionVectorEqualHelper@ATL@@@ATL@@QAE@ABQA_W@Z 100036f0 f i OposInterfaces.obj
 0001:00002720       ??0CAtlModule@ATL@@QAE@XZ  10003720 f i OposInterfaces.obj
 0001:00002840       ??0CComBSTR@ATL@@QAE@XZ    10003840 f i OposInterfaces.obj
 0001:00002860       ??0CComModule@ATL@@QAE@XZ  10003860 f i OposInterfaces.obj
 0001:000028d0       ??0CExpansionVector@ATL@@QAE@XZ 100038d0 f i OposInterfaces.obj
 0001:00002900       ??0CParseBuffer@CRegParser@ATL@@QAE@H@Z 10003900 f i OposInterfaces.obj
 0001:00002970       ??0CRegKey@ATL@@QAE@PAUHKEY__@@@Z 10003970 f i OposInterfaces.obj
 0001:000029b0       ??0CRegKey@ATL@@QAE@PAVCAtlTransactionManager@1@@Z 100039b0 f i OposInterfaces.obj
 0001:000029f0       ??0CRegObject@ATL@@QAE@XZ  100039f0 f i OposInterfaces.obj
 0001:00002a30       ??0CRegParser@ATL@@QAE@PAVCRegObject@1@@Z 10003a30 f i OposInterfaces.obj
 0001:00002a60       ??0IRegistrarBase@@QAE@XZ  10003a60 f i OposInterfaces.obj
 0001:00002a90       ??0IUnknown@@QAE@XZ        10003a90 f i OposInterfaces.obj
 0001:00002ab0       ??0_ATL_MODULE70@ATL@@QAE@XZ 10003ab0 f i OposInterfaces.obj
 0001:00002ae0       ??1?$CAtlModuleT@VCComModule@ATL@@@ATL@@UAE@XZ 10003ae0 f i OposInterfaces.obj
 0001:00002b10       ??1?$CAtlSafeAllocBufferManager@VCCRTAllocator@ATL@@@_ATL_SAFE_ALLOCA_IMPL@ATL@@QAE@XZ 10003b10 f i OposInterfaces.obj
 0001:00002b60       ??1?$CAutoVectorPtr@_W@ATL@@QAE@XZ 10003b60 f i OposInterfaces.obj
 0001:00002b90       ??1?$CComCritSecLock@VCComCriticalSection@ATL@@@ATL@@QAE@XZ 10003b90 f i OposInterfaces.obj
 0001:00002bc0       ??1?$CComPtr@UICatRegister@@@ATL@@QAE@XZ 10003bc0 f i OposInterfaces.obj
 0001:00002bf0       ??1?$CComPtr@UITypeLib@@@ATL@@QAE@XZ 10003bf0 f i OposInterfaces.obj
 0001:00002c20       ??1?$CComPtrBase@UICatRegister@@@ATL@@QAE@XZ 10003c20 f i OposInterfaces.obj
 0001:00002c70       ??1?$CComPtrBase@UITypeLib@@@ATL@@QAE@XZ 10003c70 f i OposInterfaces.obj
 0001:00002cc0       ??1?$CSimpleMap@PA_WPA_WVCExpansionVectorEqualHelper@ATL@@@ATL@@QAE@XZ 10003cc0 f i OposInterfaces.obj
 0001:00002cf0       ??1?$CTempBuffer@E$0BAA@VCCRTAllocator@ATL@@@ATL@@QAE@XZ 10003cf0 f i OposInterfaces.obj
 0001:00002d30       ??1?$CTempBuffer@_W$0BAA@VCCRTAllocator@ATL@@@ATL@@QAE@XZ 10003d30 f i OposInterfaces.obj
 0001:00002d70       ??1?$CTempBuffer@_W$0EAA@VCCRTAllocator@ATL@@@ATL@@QAE@XZ 10003d70 f i OposInterfaces.obj
 0001:00002db0       ??1CAtlModule@ATL@@UAE@XZ  10003db0 f i OposInterfaces.obj
 0001:00002de0       ??1CComModule@ATL@@UAE@XZ  10003de0 f i OposInterfaces.obj
 0001:00002e10       ??1CExpansionVector@ATL@@QAE@XZ 10003e10 f i OposInterfaces.obj
 0001:00002e40       ??1CParseBuffer@CRegParser@ATL@@QAE@XZ 10003e40 f i OposInterfaces.obj
 0001:00002e80       ??1CRegKey@ATL@@QAE@XZ     10003e80 f i OposInterfaces.obj
 0001:00002eb0       ??1CRegObject@ATL@@UAE@XZ  10003eb0 f i OposInterfaces.obj
 0001:00002ef0       ??1_ATL_MODULE70@ATL@@QAE@XZ 10003ef0 f i OposInterfaces.obj
 0001:00002f20       ??7CComBSTR@ATL@@QBE_NXZ   10003f20 f i OposInterfaces.obj
 0001:00002f60       ??8CComBSTR@ATL@@QBE_NH@Z  10003f60 f i OposInterfaces.obj
 0001:00002fc0       ??9CComBSTR@ATL@@QBE_NH@Z  10003fc0 f i OposInterfaces.obj
 0001:00003010       ??B?$CComPtrBase@UITypeLib@@@ATL@@QBEPAUITypeLib@@XZ 10004010 f i OposInterfaces.obj
 0001:00003030       ??B?$CTempBuffer@E$0BAA@VCCRTAllocator@ATL@@@ATL@@QBEPAEXZ 10004030 f i OposInterfaces.obj
 0001:00003050       ??B?$CTempBuffer@_W$0BAA@VCCRTAllocator@ATL@@@ATL@@QBEPA_WXZ 10004050 f i OposInterfaces.obj
 0001:00003070       ??B?$CTempBuffer@_W$0EAA@VCCRTAllocator@ATL@@@ATL@@QBEPA_WXZ 10004070 f i OposInterfaces.obj
 0001:00003090       ??B?$CTraceCategoryEx@$00$0A@@ATL@@QAEIXZ 10004090 f i OposInterfaces.obj
 0001:000030b0       ??B?$CTraceCategoryEx@$07$0A@@ATL@@QAEIXZ 100040b0 f i OposInterfaces.obj
 0001:000030d0       ??B?$CTraceCategoryEx@$0CAAA@$0A@@ATL@@QAEIXZ 100040d0 f i OposInterfaces.obj
 0001:000030f0       ??BCComBSTR@ATL@@QBEPA_WXZ 100040f0 f i OposInterfaces.obj
 0001:00003110       ??BCRegKey@ATL@@QBEPAUHKEY__@@XZ 10004110 f i OposInterfaces.obj
 0001:00003130       ??C?$CComPtrBase@UICatRegister@@@ATL@@QBEPAV?$_NoAddRefReleaseOnCComPtr@UICatRegister@@@1@XZ 10004130 f i OposInterfaces.obj
 0001:00003180       ??C?$CComPtrBase@UITypeLib@@@ATL@@QBEPAV?$_NoAddRefReleaseOnCComPtr@UITypeLib@@@1@XZ 10004180 f i OposInterfaces.obj
 0001:000031d0       ??I?$CComPtrBase@UICatRegister@@@ATL@@QAEPAPAUICatRegister@@XZ 100041d0 f i OposInterfaces.obj
 0001:00003220       ??I?$CComPtrBase@UITypeLib@@@ATL@@QAEPAPAUITypeLib@@XZ 10004220 f i OposInterfaces.obj
 0001:00003270       ??ICComBSTR@ATL@@QAEPAPA_WXZ 10004270 f i OposInterfaces.obj
 0001:00003290       ??_GCComModule@ATL@@UAEPAXI@Z 10004290 f i OposInterfaces.obj
 0001:00003290       ??_ECComModule@ATL@@UAEPAXI@Z 10004290 f i OposInterfaces.obj
 0001:000032d0       ??_GCRegObject@ATL@@UAEPAXI@Z 100042d0 f i OposInterfaces.obj
 0001:000032d0       ??_ECRegObject@ATL@@UAEPAXI@Z 100042d0 f i OposInterfaces.obj
 0001:00003310       ?Add@?$CSimpleMap@PA_WPA_WVCExpansionVectorEqualHelper@ATL@@@ATL@@QAEHABQA_W0@Z 10004310 f i OposInterfaces.obj
 0001:000033d0       ?Add@CExpansionVector@ATL@@QAEHPB_W0@Z 100043d0 f i OposInterfaces.obj
 0001:00003660       ?AddChar@CParseBuffer@CRegParser@ATL@@QAEHPB_W@Z 10004660 f i OposInterfaces.obj
 0001:000036a0       ?AddCommonRGSReplacements@?$CAtlModuleT@VCComModule@ATL@@@ATL@@UAEJPAUIRegistrarBase@@@Z 100046a0 f i OposInterfaces.obj
 0001:000036f0       ?AddRef@CRegObject@ATL@@UAGKXZ 100046f0 f i OposInterfaces.obj
 0001:00003740       ?AddReplacement@CRegObject@ATL@@UAGJPB_W0@Z 10004740 f i OposInterfaces.obj
 0001:00003850       ?AddString@CParseBuffer@CRegParser@ATL@@QAEHPB_W@Z 10004850 f i OposInterfaces.obj
 0001:00003940       ?AddValue@CRegParser@ATL@@IAEJAAVCRegKey@2@PB_WPA_W@Z 10004940 f i OposInterfaces.obj
 0001:000040d0       ?Allocate@?$CTempBuffer@E$0BAA@VCCRTAllocator@ATL@@@ATL@@QAEPAEI@Z 100050d0 f i OposInterfaces.obj
 0001:00004110       ?Allocate@?$CTempBuffer@_W$0BAA@VCCRTAllocator@ATL@@@ATL@@QAEPA_WI@Z 10005110 f i OposInterfaces.obj
 0001:00004150       ?Allocate@?$CTempBuffer@_W$0EAA@VCCRTAllocator@ATL@@@ATL@@QAEPA_WI@Z 10005150 f i OposInterfaces.obj
 0001:00004190       ?AllocateBytes@?$CTempBuffer@E$0BAA@VCCRTAllocator@ATL@@@ATL@@QAEPAEI@Z 10005190 f i OposInterfaces.obj
 0001:00004210       ?AllocateBytes@?$CTempBuffer@_W$0BAA@VCCRTAllocator@ATL@@@ATL@@QAEPA_WI@Z 10005210 f i OposInterfaces.obj
 0001:00004290       ?AllocateBytes@?$CTempBuffer@_W$0EAA@VCCRTAllocator@ATL@@@ATL@@QAEPA_WI@Z 10005290 f i OposInterfaces.obj
 0001:00004310       ?AllocateHeap@?$CTempBuffer@E$0BAA@VCCRTAllocator@ATL@@@ATL@@AAEXI@Z 10005310 f i OposInterfaces.obj
 0001:00004360       ?AllocateHeap@?$CTempBuffer@_W$0BAA@VCCRTAllocator@ATL@@@ATL@@AAEXI@Z 10005360 f i OposInterfaces.obj
 0001:000043b0       ?AllocateHeap@?$CTempBuffer@_W$0EAA@VCCRTAllocator@ATL@@@ATL@@AAEXI@Z 100053b0 f i OposInterfaces.obj
 0001:00004400       ?Append@CParseBuffer@CRegParser@ATL@@QAEHPB_WH@Z 10005400 f i OposInterfaces.obj
 0001:000045a0       ?AtlCallTermFunc@ATL@@YGXPAU_ATL_MODULE70@1@@Z 100055a0 f i OposInterfaces.obj
 0001:00004640       ?AtlCoTaskMemCAlloc@ATL@@YAPAXKK@Z 10005640 f i OposInterfaces.obj
 0001:000046d0       ?AtlCoTaskMemRecalloc@ATL@@YAPAXPAXKK@Z 100056d0 f i OposInterfaces.obj
 0001:00004770       ?AtlComModuleGetClassObject@ATL@@YGJPAU_ATL_COM_MODULE70@1@ABU_GUID@@1PAPAX@Z 10005770 f i OposInterfaces.obj
 0001:00004a00       ?AtlComModuleRegisterServer@ATL@@YGJPAU_ATL_COM_MODULE70@1@HPBU_GUID@@@Z 10005a00 f i OposInterfaces.obj
 0001:00004b90       ?AtlComModuleUnregisterServer@ATL@@YGJPAU_ATL_COM_MODULE70@1@HPBU_GUID@@@Z 10005b90 f i OposInterfaces.obj
 0001:00004cc0       ?AtlCrtErrorCheck@ATL@@YAHH@Z 10005cc0 f i OposInterfaces.obj
 0001:00004d90       ?AtlGetPerUserRegistration@ATL@@YGJPA_N@Z 10005d90 f i OposInterfaces.obj
 0001:00004dc0       ?AtlHresultFromLastError@ATL@@YAJXZ 10005dc0 f i OposInterfaces.obj
 0001:00004e00       ?AtlHresultFromWin32@ATL@@YAJK@Z 10005e00 f i OposInterfaces.obj
 0001:00004e20       ?AtlLoadTypeLib@ATL@@YGJPAUHINSTANCE__@@PB_WPAPA_WPAPAUITypeLib@@@Z 10005e20 f i OposInterfaces.obj
 0001:00005280       ?AtlRegisterClassCategoriesHelper@ATL@@YGJABU_GUID@@PBU_ATL_CATMAP_ENTRY@1@H@Z 10006280 f i OposInterfaces.obj
 0001:00005960       ?AtlRegisterTypeLib@ATL@@YGJPAUHINSTANCE__@@PB_W@Z 10006960 f i OposInterfaces.obj
 0001:00005ca0       ?AtlThrowImpl@ATL@@YGXJ@Z  10006ca0 f i OposInterfaces.obj
 0001:00005d50       ?AtlUnRegisterTypeLib@ATL@@YGJPAUHINSTANCE__@@PB_W@Z 10006d50 f i OposInterfaces.obj
 0001:00005f60       ?Attach@?$CAutoVectorPtr@_W@ATL@@QAEXPA_W@Z 10006f60 f i OposInterfaces.obj
 0001:00005fc0       ?Attach@CRegKey@ATL@@QAEXPAUHKEY__@@@Z 10006fc0 f i OposInterfaces.obj
 0001:00006030       ?CanForceRemoveKey@CRegParser@ATL@@IAEHPB_W@Z 10007030 f i OposInterfaces.obj
 0001:000060a0       ?ChToByte@CRegParser@ATL@@KAE_W@Z 100070a0 f i OposInterfaces.obj
 0001:000061c0       ?ClearReplacements@CExpansionVector@ATL@@QAEJXZ 100071c0 f i OposInterfaces.obj
 0001:00006250       ?ClearReplacements@CRegObject@ATL@@UAGJXZ 10007250 f i OposInterfaces.obj
 0001:000062a0       ?Close@CRegKey@ATL@@QAEJXZ 100072a0 f i OposInterfaces.obj
 0001:00006310       ?Decrement@CComMultiThreadModel@ATL@@SGKPAJ@Z 10007310 f i OposInterfaces.obj
 0001:00006330       ?DeleteSubKey@CRegKey@ATL@@QAEJPB_W@Z 10007330 f i OposInterfaces.obj
 0001:00006440       ?DeleteValue@CRegKey@ATL@@QAEJPB_W@Z 10007440 f i OposInterfaces.obj
 0001:000064b0       ?Detach@?$CAutoVectorPtr@_W@ATL@@QAEPA_WXZ 100074b0 f i OposInterfaces.obj
 0001:000064e0       ?Detach@CParseBuffer@CRegParser@ATL@@QAEPA_WXZ 100074e0 f i OposInterfaces.obj
 0001:00006530       ?Detach@CRegKey@ATL@@QAEPAUHKEY__@@XZ 10007530 f i OposInterfaces.obj
 0001:00006580       ?EndOfVar@CRegParser@ATL@@IAEHXZ 10007580 f i OposInterfaces.obj
 0001:000065f0       ?EscapeSingleQuote@CAtlModule@ATL@@SAXPA_WIPB_W@Z 100075f0 f i OposInterfaces.obj
 0001:000066a0       ?FinalConstruct@CRegObject@ATL@@QAEJXZ 100076a0 f i OposInterfaces.obj
 0001:000066d0       ?FindKey@?$CSimpleMap@PA_WPA_WVCExpansionVectorEqualHelper@ATL@@@ATL@@QBEHABQA_W@Z 100076d0 f i OposInterfaces.obj
 0001:00006740       ?Free@?$CAutoVectorPtr@_W@ATL@@QAEXXZ 10007740 f i OposInterfaces.obj
 0001:00006790       ?FreeHeap@?$CTempBuffer@E$0BAA@VCCRTAllocator@ATL@@@ATL@@AAEXXZ 10007790 f i OposInterfaces.obj
 0001:000067c0       ?FreeHeap@?$CTempBuffer@_W$0BAA@VCCRTAllocator@ATL@@@ATL@@AAEXXZ 100077c0 f i OposInterfaces.obj
 0001:000067f0       ?FreeHeap@?$CTempBuffer@_W$0EAA@VCCRTAllocator@ATL@@@ATL@@AAEXXZ 100077f0 f i OposInterfaces.obj
 0001:00006820       ?GenerateError@CRegParser@ATL@@IAEJI@Z 10007820 f i OposInterfaces.obj
 0001:00006840       ?GetAppId@?$CAtlModuleT@VCComModule@ATL@@@ATL@@SAPB_WXZ 10007840 f i OposInterfaces.obj
 0001:00006850       ?GetClassObject@CComModule@ATL@@QAEJABU_GUID@@0PAPAX@Z 10007850 f i OposInterfaces.obj
 0001:00006a50       ?GetGITPtr@CAtlModule@ATL@@UAEJPAPAUIGlobalInterfaceTable@@@Z 10007a50 f i OposInterfaces.obj
 0001:00006b50       ?GetKeyAt@?$CSimpleMap@PA_WPA_WVCExpansionVectorEqualHelper@ATL@@@ATL@@QBEAAPA_WH@Z 10007b50 f i OposInterfaces.obj
 0001:00006bd0       ?GetLockCount@CAtlModule@ATL@@UAEJXZ 10007bd0 f i OposInterfaces.obj
 0001:00006bf0       ?GetSize@?$CSimpleMap@PA_WPA_WVCExpansionVectorEqualHelper@ATL@@@ATL@@QBEHXZ 10007bf0 f i OposInterfaces.obj
 0001:00006c10       ?GetValueAt@?$CSimpleMap@PA_WPA_WVCExpansionVectorEqualHelper@ATL@@@ATL@@QBEAAPA_WH@Z 10007c10 f i OposInterfaces.obj
 0001:00006c90       ?HKeyFromString@CRegParser@ATL@@KAPAUHKEY__@@PA_W@Z 10007c90 f i OposInterfaces.obj
 0001:00006d00       ?HasSubKeys@CRegParser@ATL@@IAEHPAUHKEY__@@@Z 10007d00 f i OposInterfaces.obj
 0001:00006e10       ?Increment@CComMultiThreadModel@ATL@@SGKPAJ@Z 10007e10 f i OposInterfaces.obj
 0001:00006e30       ?Init@CComFakeCriticalSection@ATL@@QAEJXZ 10007e30 f i OposInterfaces.obj
 0001:00006e50       ?Init@CComModule@ATL@@QAEJPAU_ATL_OBJMAP_ENTRY30@2@PAUHINSTANCE__@@PBU_GUID@@@Z 10007e50 f i OposInterfaces.obj
 0001:00006f40       ?InitLibId@?$CAtlModuleT@VCComModule@ATL@@@ATL@@SAXXZ 10007f40 f i OposInterfaces.obj
 0001:00006f50       ?InternalSetAtIndex@?$CSimpleMap@PA_WPA_WVCExpansionVectorEqualHelper@ATL@@@ATL@@QAEXHABQA_W0@Z 10007f50 f i OposInterfaces.obj
 0001:00006ff0       ?IsEqualKey@CExpansionVectorEqualHelper@ATL@@SA_NQA_W0@Z 10007ff0 f i OposInterfaces.obj
 0001:00007020       ?IsSpace@CRegParser@ATL@@IAEH_W@Z 10008020 f i OposInterfaces.obj
 0001:00007090       ?Length@CComBSTR@ATL@@QBEIXZ 10008090 f i OposInterfaces.obj
 0001:000070d0       ?Lock@?$CComCritSecLock@VCComCriticalSection@ATL@@@ATL@@QAEJXZ 100080d0 f i OposInterfaces.obj
 0001:00007180       ?Lock@CAtlModule@ATL@@UAEJXZ 10008180 f i OposInterfaces.obj
 0001:000071b0       ?Lock@CComCriticalSection@ATL@@QAEJXZ 100081b0 f i OposInterfaces.obj
 0001:000071f0       ?Lock@CComFakeCriticalSection@ATL@@QAEJXZ 100081f0 f i OposInterfaces.obj
 0001:00007210       ?Lookup@?$CSimpleMap@PA_WPA_WVCExpansionVectorEqualHelper@ATL@@@ATL@@QBEPA_WABQA_W@Z 10008210 f i OposInterfaces.obj
 0001:00007260       ?NextToken@CRegParser@ATL@@IAEJPA_W@Z 10008260 f i OposInterfaces.obj
 0001:00007500       ?OLE2CT_EX@@YAPB_WPB_WI@Z  10008500 f i OposInterfaces.obj
 0001:00007510       ?OLE2T_EX@@YAPA_WPA_WI@Z   10008510 f i OposInterfaces.obj
 0001:00007520       ?Open@CRegKey@ATL@@QAEJPAUHKEY__@@PB_WK@Z 10008520 f i OposInterfaces.obj
 0001:00007670       ?PreProcessBuffer@CRegParser@ATL@@QAEJPA_WPAPA_W@Z 10008670 f i OposInterfaces.obj
 0001:00007bb0       ?QueryInterface@CRegObject@ATL@@UAGJABU_GUID@@PAPAX@Z 10008bb0 f i OposInterfaces.obj
 0001:00007c00       ?RecurseDeleteKey@CRegKey@ATL@@QAEJPB_W@Z 10008c00 f i OposInterfaces.obj
 0001:00007de0       ?RegCreateKeyExW@CAtlTransactionManager@ATL@@QAEJPAUHKEY__@@PB_WKPA_WKKQAU_SECURITY_ATTRIBUTES@@PAPAU3@PAK@Z 10008de0 f i OposInterfaces.obj
 0001:00007f10       ?RegDeleteKeyW@CAtlTransactionManager@ATL@@QAEJPAUHKEY__@@PB_W@Z 10008f10 f i OposInterfaces.obj
 0001:00008010       ?RegOpenKeyExW@CAtlTransactionManager@ATL@@QAEJPAUHKEY__@@PB_WKKPAPAU3@@Z 10009010 f i OposInterfaces.obj
 0001:00008120       ?RegisterBuffer@CRegParser@ATL@@QAEJPA_WH@Z 10009120 f i OposInterfaces.obj
 0001:00008450       ?RegisterFromResource@CRegObject@ATL@@IAEJPB_W00H@Z 10009450 f i OposInterfaces.obj
 0001:000087e0       ?RegisterServer@?$CAtlModuleT@VCComModule@ATL@@@ATL@@QAEJHPBU_GUID@@@Z 100097e0 f i OposInterfaces.obj
 0001:00008860       ?RegisterServer@CAtlComModule@ATL@@QAEJHPBU_GUID@@@Z 10009860 f i OposInterfaces.obj
 0001:00008890       ?RegisterServer@CComModule@ATL@@QAEJHPBU_GUID@@@Z 10009890 f i OposInterfaces.obj
 0001:00008970       ?RegisterSubkeys@CRegParser@ATL@@IAEJPA_WPAUHKEY__@@HH@Z 10009970 f i OposInterfaces.obj
 0001:00009490       ?Release@CRegObject@ATL@@UAGKXZ 1000a490 f i OposInterfaces.obj
 0001:000094d0       ?RemoveAll@?$CSimpleMap@PA_WPA_WVCExpansionVectorEqualHelper@ATL@@@ATL@@QAEXXZ 1000a4d0 f i OposInterfaces.obj
 0001:00009560       ?ResourceRegister@CRegObject@ATL@@QAGJPB_WI0@Z 1000a560 f i OposInterfaces.obj
 0001:00009640       ?ResourceRegisterSz@CRegObject@ATL@@QAGJPB_W00@Z 1000a640 f i OposInterfaces.obj
 0001:00009740       ?ResourceUnregister@CRegObject@ATL@@QAGJPB_WI0@Z 1000a740 f i OposInterfaces.obj
 0001:00009820       ?ResourceUnregisterSz@CRegObject@ATL@@QAGJPB_W00@Z 1000a820 f i OposInterfaces.obj
 0001:00009920       ?SetDWORDValue@CRegKey@ATL@@QAEJPB_WK@Z 1000a920 f i OposInterfaces.obj
 0001:000099a0       ?SetMultiStringValue@CRegKey@ATL@@QAEJPB_W0@Z 1000a9a0 f i OposInterfaces.obj
 0001:00009ac0       ?SetStringValue@CRegKey@ATL@@QAEJPB_W0K@Z 1000aac0 f i OposInterfaces.obj
 0001:00009bf0       ?SkipAssignment@CRegParser@ATL@@IAEJPA_W@Z 1000abf0 f i OposInterfaces.obj
 0001:00009cd0       ?SkipWhiteSpace@CRegParser@ATL@@IAEXXZ 1000acd0 f i OposInterfaces.obj
 0001:00009d20       ?StrChrW@CRegParser@ATL@@KAPA_WPA_W_W@Z 1000ad20 f i OposInterfaces.obj
 0001:00009d90       ?StrFromMap@CRegObject@ATL@@QAEPB_WPA_W@Z 1000ad90 f i OposInterfaces.obj
 0001:00009e20       ?T2COLE_EX@@YAPB_WPB_WI@Z  1000ae20 f i OposInterfaces.obj
 0001:00009e30       ?T2OLE_EX@@YAPA_WPA_WI@Z   1000ae30 f i OposInterfaces.obj
 0001:00009e40       ?Term@CAtlModule@ATL@@QAEXXZ 1000ae40 f i OposInterfaces.obj
 0001:00009ef0       ?Term@CComModule@ATL@@QAEXXZ 1000aef0 f i OposInterfaces.obj
 0001:00009fe0       ?Unlock@?$CComCritSecLock@VCComCriticalSection@ATL@@@ATL@@QAEXXZ 1000afe0 f i OposInterfaces.obj
 0001:0000a050       ?Unlock@CAtlModule@ATL@@UAEJXZ 1000b050 f i OposInterfaces.obj
 0001:0000a080       ?Unlock@CComCriticalSection@ATL@@QAEJXZ 1000b080 f i OposInterfaces.obj
 0001:0000a0c0       ?Unlock@CComFakeCriticalSection@ATL@@QAEJXZ 1000b0c0 f i OposInterfaces.obj
 0001:0000a0e0       ?UnregisterServer@?$CAtlModuleT@VCComModule@ATL@@@ATL@@QAEJHPBU_GUID@@@Z 1000b0e0 f i OposInterfaces.obj
 0001:0000a150       ?UnregisterServer@CAtlComModule@ATL@@QAEJHPBU_GUID@@@Z 1000b150 f i OposInterfaces.obj
 0001:0000a180       ?UnregisterServer@CComModule@ATL@@QAEJHPBU_GUID@@@Z 1000b180 f i OposInterfaces.obj
 0001:0000a260       ?UpdateRegistryFromResource@CAtlModule@ATL@@QAGJIHPAU_ATL_REGMAP_ENTRY@2@@Z 1000b260 f i OposInterfaces.obj
 0001:0000a730       ?UpdateRegistryFromResource@CAtlModule@ATL@@QAGJPB_WHPAU_ATL_REGMAP_ENTRY@2@@Z 1000b730 f i OposInterfaces.obj
 0001:0000ac20       ?UpdateRegistryFromResource@CComModule@ATL@@UAGJIHPAU_ATL_REGMAP_ENTRY@2@@Z 1000bc20 f i OposInterfaces.obj
 0001:0000ac50       ?UpdateRegistryFromResource@CComModule@ATL@@UAGJPB_WHPAU_ATL_REGMAP_ENTRY@2@@Z 1000bc50 f i OposInterfaces.obj
 0001:0000ac80       ?UpdateRegistryFromResourceD@CComModule@ATL@@UAGJIHPAU_ATL_REGMAP_ENTRY@2@@Z 1000bc80 f i OposInterfaces.obj
 0001:0000ac90       ?UpdateRegistryFromResourceD@CComModule@ATL@@UAGJPB_WHPAU_ATL_REGMAP_ENTRY@2@@Z 1000bc90 f i OposInterfaces.obj
 0001:0000aca0       ?VTFromRegType@CRegParser@ATL@@KAHPB_WAAG@Z 1000bca0 f i OposInterfaces.obj
 0001:0000ad80       ?_AtlGetConversionACP@ATL@@YGIXZ 1000bd80 f i OposInterfaces.obj
 0001:0000ad90       ?atlCreate@CRegKey@ATL@@QAEJPAUHKEY__@@PB_WPA_WKKPAU_SECURITY_ATTRIBUTES@@PAK@Z 1000bd90 f i OposInterfaces.obj
 0001:0000aef0       ?memcpy_s@Checked@ATL@@YAXPAXIPBXI@Z 1000bef0 f i OposInterfaces.obj
 0001:0000af20       ?ocscpy_s@@YA_NPA_WIPB_W@Z 1000bf20 f i OposInterfaces.obj
 0001:0000af80       ?ocslen@@YAHPB_W@Z         1000bf80 f i OposInterfaces.obj
 0001:0000afb0       ?tcsncpy_s@Checked@ATL@@YAHPA_WIPB_WI@Z 1000bfb0 f i OposInterfaces.obj
 0001:0000afe0       ?wcscat_s@Checked@ATL@@YAXPA_WIPB_W@Z 1000bfe0 f i OposInterfaces.obj
 0001:0000b010       ?wcscpy_s@Checked@ATL@@YAXPA_WIPB_W@Z 1000c010 f i OposInterfaces.obj
 0001:0000b040       ?wcsncpy_s@Checked@ATL@@YAHPA_WIPB_WI@Z 1000c040 f i OposInterfaces.obj
 0001:0000b070       ?wcsstr@@YAPA_WPA_WPB_W@Z  1000c070 f i OposInterfaces.obj
 0001:0000b090       _InlineIsEqualGUID         1000c090 f i OposInterfaces.obj
 0001:0000b130       _IsEqualGUID               1000c130 f i OposInterfaces.obj
 0001:0000b172       _DecodePointer@4           1000c172 f   kernel32:KERNEL32.dll
 0001:0000b178       _RaiseException@16         1000c178 f   kernel32:KERNEL32.dll
 0001:0000b17e       _GetLastError@0            1000c17e f   kernel32:KERNEL32.dll
 0001:0000b184       _SetLastError@4            1000c184 f   kernel32:KERNEL32.dll
 0001:0000b18a       _InitializeCriticalSectionEx@12 1000c18a f   kernel32:KERNEL32.dll
 0001:0000b190       _DeleteCriticalSection@4   1000c190 f   kernel32:KERNEL32.dll
 0001:0000b196       _EncodePointer@4           1000c196 f   kernel32:KERNEL32.dll
 0001:0000b19c       _EnterCriticalSection@4    1000c19c f   kernel32:KERNEL32.dll
 0001:0000b1a2       _LeaveCriticalSection@4    1000c1a2 f   kernel32:KERNEL32.dll
 0001:0000b1a8       _DisableThreadLibraryCalls@4 1000c1a8 f   kernel32:KERNEL32.dll
 0001:0000b1ae       _FreeLibrary@4             1000c1ae f   kernel32:KERNEL32.dll
 0001:0000b1b4       _GetModuleFileNameW@12     1000c1b4 f   kernel32:KERNEL32.dll
 0001:0000b1ba       _GetModuleHandleW@4        1000c1ba f   kernel32:KERNEL32.dll
 0001:0000b1c0       _GetProcAddress@8          1000c1c0 f   kernel32:KERNEL32.dll
 0001:0000b1c6       _LoadLibraryExW@12         1000c1c6 f   kernel32:KERNEL32.dll
 0001:0000b1cc       _LoadResource@8            1000c1cc f   kernel32:KERNEL32.dll
 0001:0000b1d2       _SizeofResource@8          1000c1d2 f   kernel32:KERNEL32.dll
 0001:0000b1d8       _FindResourceW@12          1000c1d8 f   kernel32:KERNEL32.dll
 0001:0000b1de       _lstrcmpiW@8               1000c1de f   kernel32:KERNEL32.dll
 0001:0000b1e4       _MultiByteToWideChar@24    1000c1e4 f   kernel32:KERNEL32.dll
 0001:0000b1ea       _UnregisterClassW@8        1000c1ea f   user32:USER32.dll
 0001:0000b1f0       _CharNextW@4               1000c1f0 f   user32:USER32.dll
 0001:0000b1f6       _RegCloseKey@4             1000c1f6 f   advapi32:ADVAPI32.dll
 0001:0000b1fc       _RegCreateKeyExW@36        1000c1fc f   advapi32:ADVAPI32.dll
 0001:0000b202       _RegDeleteKeyW@8           1000c202 f   advapi32:ADVAPI32.dll
 0001:0000b208       _RegDeleteValueW@8         1000c208 f   advapi32:ADVAPI32.dll
 0001:0000b20e       _RegEnumKeyExW@32          1000c20e f   advapi32:ADVAPI32.dll
 0001:0000b214       _RegOpenKeyExW@20          1000c214 f   advapi32:ADVAPI32.dll
 0001:0000b21a       _RegQueryInfoKeyW@48       1000c21a f   advapi32:ADVAPI32.dll
 0001:0000b220       _RegSetValueExW@24         1000c220 f   advapi32:ADVAPI32.dll
 0001:0000b226       _CoCreateInstance@20       1000c226 f   ole32:ole32.dll
 0001:0000b22c       _StringFromGUID2@12        1000c22c f   ole32:ole32.dll
 0001:0000b232       _CoTaskMemAlloc@4          1000c232 f   ole32:ole32.dll
 0001:0000b238       _CoTaskMemRealloc@8        1000c238 f   ole32:ole32.dll
 0001:0000b23e       _CoTaskMemFree@4           1000c23e f   ole32:ole32.dll
 0001:0000b244       _SysFreeString@4           1000c244 f   oleaut32:OLEAUT32.dll
 0001:0000b24a       _SysAllocString@4          1000c24a f   oleaut32:OLEAUT32.dll
 0001:0000b250       _SysStringLen@4            1000c250 f   oleaut32:OLEAUT32.dll
 0001:0000b256       _VarUI4FromStr@16          1000c256 f   oleaut32:OLEAUT32.dll
 0001:0000b25c       _LoadTypeLib@8             1000c25c f   oleaut32:OLEAUT32.dll
 0001:0000b262       _RegisterTypeLib@12        1000c262 f   oleaut32:OLEAUT32.dll
 0001:0000b268       _UnRegisterTypeLib@20      1000c268 f   oleaut32:OLEAUT32.dll
 0001:0000b26e       ??$?2PAUHINSTANCE__@@@Wrapper@?$CSimpleArray@PAUHINSTANCE__@@V?$CSimpleArrayEqualHelper@PAUHINSTANCE__@@@ATL@@@ATL@@SAPAXIPAPAUHINSTANCE__@@@Z 1000c26e f i atls:atlbase.obj
 0001:0000b276       ??0?$CSimpleArray@PAUHINSTANCE__@@V?$CSimpleArrayEqualHelper@PAUHINSTANCE__@@@ATL@@@ATL@@QAE@XZ 1000c276 f i atls:atlbase.obj
 0001:0000b283       ??0CAtlBaseModule@ATL@@QAE@XZ 1000c283 f   atls:atlbase.obj
 0001:0000b2d6       ??0Wrapper@?$CSimpleArray@PAUHINSTANCE__@@V?$CSimpleArrayEqualHelper@PAUHINSTANCE__@@@ATL@@@ATL@@QAE@ABQAUHINSTANCE__@@@Z 1000c2d6 f i atls:atlbase.obj
 0001:0000b2e6       ??0_ATL_BASE_MODULE70@ATL@@QAE@XZ 1000c2e6 f i atls:atlbase.obj
 0001:0000b309       ??1?$CSimpleArray@PAUHINSTANCE__@@V?$CSimpleArrayEqualHelper@PAUHINSTANCE__@@@ATL@@@ATL@@QAE@XZ 1000c309 f i atls:atlbase.obj
 0001:0000b30e       ??1CAtlBaseModule@ATL@@QAE@XZ 1000c30e f   atls:atlbase.obj
 0001:0000b324       ??1_ATL_BASE_MODULE70@ATL@@QAE@XZ 1000c324 f i atls:atlbase.obj
 0001:0000b32c       ??A?$CSimpleArray@PAUHINSTANCE__@@V?$CSimpleArrayEqualHelper@PAUHINSTANCE__@@@ATL@@@ATL@@QAEAAPAUHINSTANCE__@@H@Z 1000c32c f i atls:atlbase.obj
 0001:0000b351       ?Add@?$CSimpleArray@PAUHINSTANCE__@@V?$CSimpleArrayEqualHelper@PAUHINSTANCE__@@@ATL@@@ATL@@QAEHABQAUHINSTANCE__@@@Z 1000c351 f i atls:atlbase.obj
 0001:0000b3d3       ?AddResourceInstance@CAtlBaseModule@ATL@@QAE_NPAUHINSTANCE__@@@Z 1000c3d3 f   atls:atlbase.obj
 0001:0000b406       ?GetHInstanceAt@CAtlBaseModule@ATL@@QAEPAUHINSTANCE__@@H@Z 1000c406 f   atls:atlbase.obj
 0001:0000b44b       ?GetSize@?$CSimpleArray@PAUHINSTANCE__@@V?$CSimpleArrayEqualHelper@PAUHINSTANCE__@@@ATL@@@ATL@@QBEHXZ 1000c44b f i atls:atlbase.obj
 0001:0000b44f       ?InternalSetAtIndex@?$CSimpleArray@PAUHINSTANCE__@@V?$CSimpleArrayEqualHelper@PAUHINSTANCE__@@@ATL@@@ATL@@QAEXHABQAUHINSTANCE__@@@Z 1000c44f f i atls:atlbase.obj
 0001:0000b469       ?RemoveAll@?$CSimpleArray@PAUHINSTANCE__@@V?$CSimpleArrayEqualHelper@PAUHINSTANCE__@@@ATL@@@ATL@@QAEXXZ 1000c469 f i atls:atlbase.obj
 0001:0000b486       ?RemoveAt@?$CSimpleArray@PAUHINSTANCE__@@V?$CSimpleArrayEqualHelper@PAUHINSTANCE__@@@ATL@@@ATL@@QAEHH@Z 1000c486 f i atls:atlbase.obj
 0001:0000b4d4       ?RemoveResourceInstance@CAtlBaseModule@ATL@@QAE_NPAUHINSTANCE__@@@Z 1000c4d4 f   atls:atlbase.obj
 0001:0000b531       ?memmove_s@Checked@ATL@@YAXPAXIPBXI@Z 1000c531 f i atls:atlbase.obj
 0001:0000b5d0       ??3@YAXPAXI@Z              1000c5d0 f   LIBCMTD:delete_scalar_size.obj
 0001:0000b5f0       ??_V@YAXPAXI@Z             1000c5f0 f   LIBCMTD:delete_array_size.obj
 0001:0000b610       ?configure_argv@__scrt_narrow_argv_policy@@SAHXZ 1000c610 f i LIBCMTD:utility.obj
 0001:0000b6c0       ?initialize_environment@__scrt_narrow_environment_policy@@SAHXZ 1000c6c0 f i LIBCMTD:utility.obj
 0001:0000b740       _NtCurrentTeb              1000c740 f i LIBCMTD:utility.obj
 0001:0000b750       ___scrt_acquire_startup_lock 1000c750 f   LIBCMTD:utility.obj
 0001:0000b7a0       ___scrt_dllmain_after_initialize_c 1000c7a0 f   LIBCMTD:utility.obj
 0001:0000b7d0       ___scrt_dllmain_before_initialize_c 1000c7d0 f   LIBCMTD:utility.obj
 0001:0000b7f0       ___scrt_dllmain_crt_thread_attach 1000c7f0 f   LIBCMTD:utility.obj
 0001:0000b820       ___scrt_dllmain_crt_thread_detach 1000c820 f   LIBCMTD:utility.obj
 0001:0000b840       ___scrt_dllmain_exception_filter 1000c840 f   LIBCMTD:utility.obj
 0001:0000b890       ___scrt_dllmain_uninitialize_c 1000c890 f   LIBCMTD:utility.obj
 0001:0000b8c0       ___scrt_dllmain_uninitialize_critical 1000c8c0 f   LIBCMTD:utility.obj
 0001:0000b8e0       ___scrt_initialize_crt     1000c8e0 f   LIBCMTD:utility.obj
 0001:0000b930       ___scrt_initialize_onexit_tables 1000c930 f   LIBCMTD:utility.obj
 0001:0000ba10       ___scrt_is_nonwritable_in_current_image 1000ca10 f   LIBCMTD:utility.obj
 0001:0000bb40       ___scrt_release_startup_lock 1000cb40 f   LIBCMTD:utility.obj
 0001:0000bb70       ___scrt_uninitialize_crt   1000cb70 f   LIBCMTD:utility.obj
 0001:0000bbb0       __onexit                   1000cbb0 f   LIBCMTD:utility.obj
 0001:0000bc20       _at_quick_exit             1000cc20 f   LIBCMTD:utility.obj
 0001:0000bc60       _atexit                    1000cc60 f   LIBCMTD:utility.obj
 0001:0000bc90       @_RTC_AllocaHelper@12      1000cc90 f   LIBCMTD:stack.obj
 0001:0000bcd0       @_RTC_CheckStackVars2@12   1000ccd0 f   LIBCMTD:stack.obj
 0001:0000bdb0       @_RTC_CheckStackVars@8     1000cdb0 f   LIBCMTD:stack.obj
 0001:0000be20       __RTC_CheckEsp             1000ce20 f   LIBCMTD:stack.obj
 0001:0000be60       @__security_check_cookie@4 1000ce60 f   LIBCMTD:secchk.obj
 0001:0000be80       __CRT_RTC_INIT             1000ce80 f   LIBCMTD:init.obj
 0001:0000be90       __CRT_RTC_INITW            1000ce90 f   LIBCMTD:init.obj
 0001:0000bea0       __RTC_InitBase             1000cea0 f   LIBCMTD:init.obj
 0001:0000bed0       __RTC_Shutdown             1000ced0 f   LIBCMTD:init.obj
 0001:0000bef0       ??3@YAXPAX@Z               1000cef0 f   LIBCMTD:delete_scalar.obj
 0001:0000bf10       ??_V@YAXPAX@Z              1000cf10 f   LIBCMTD:delete_array.obj
 0001:0000bf30       ___raise_securityfailure   1000cf30 f   LIBCMTD:gs_report.obj
 0001:0000bf60       ___report_gsfailure        1000cf60 f   LIBCMTD:gs_report.obj
 0001:0000c070       ___report_rangecheckfailure 1000d070 f   LIBCMTD:gs_report.obj
 0001:0000c080       ___report_securityfailure  1000d080 f   LIBCMTD:gs_report.obj
 0001:0000c160       ___report_securityfailureEx 1000d160 f   LIBCMTD:gs_report.obj
 0001:0000c290       ??_U@YAPAXIABUnothrow_t@std@@@Z 1000d290 f   LIBCMTD:new_array_nothrow.obj
 0001:0000c2b0       __alloca_probe             1000d2b0 f   LIBCMTD:chkstk.obj
 0001:0000c2b0       __chkstk                   1000d2b0 f   LIBCMTD:chkstk.obj
 0001:0000c790       __CRT_INIT@12              1000d790 f   LIBCMTD:dll_dllmain.obj
 0001:0000c7b0       __DllMainCRTStartup@12     1000d7b0 f   LIBCMTD:dll_dllmain.obj
 0001:0000c7e0       @_guard_check_icall_nop@4  1000d7e0 f i LIBCMTD:guard_support.obj
 0001:0000c7f0       _ReadNoFence               1000d7f0 f i LIBCMTD:guard_support.obj
 0001:0000c810       _ReadPointerNoFence        1000d810 f i LIBCMTD:guard_support.obj
 0001:0000c830       __guard_icall_checks_enforced 1000d830 f i LIBCMTD:guard_support.obj
 0001:0000c860       ___isa_available_init      1000d860 f   LIBCMTD:cpu_disp.obj
 0001:0000cb40       __get_startup_argv_mode    1000db40 f   LIBCMTD:argv_mode.obj
 0001:0000cb50       ___scrt_is_ucrt_dll_in_use 1000db50 f   LIBCMTD:ucrt_detection.obj
 0001:0000cb80       ___scrt_fastfail           1000db80 f   LIBCMTD:utility_desktop.obj
 0001:0000ccc0       ___scrt_get_show_window_mode 1000dcc0 f   LIBCMTD:utility_desktop.obj
 0001:0000cd00       ___scrt_initialize_mta     1000dd00 f   LIBCMTD:utility_desktop.obj
 0001:0000cd10       ___scrt_initialize_winrt   1000dd10 f   LIBCMTD:utility_desktop.obj
 0001:0000cd20       ___scrt_is_managed_app     1000dd20 f   LIBCMTD:utility_desktop.obj
 0001:0000cdb0       ___scrt_set_unhandled_exception_filter 1000ddb0 f   LIBCMTD:utility_desktop.obj
 0001:0000cdc0       ___scrt_stub_for_initialize_mta 1000ddc0 f   LIBCMTD:utility_desktop.obj
 0001:0000cdc0       ___scrt_exe_initialize_mta 1000ddc0 f   LIBCMTD:utility_desktop.obj
 0001:0000cdd0       ___scrt_unhandled_exception_filter@4 1000ddd0 f   LIBCMTD:utility_desktop.obj
 0001:0000ce30       __crt_debugger_hook        1000de30 f   LIBCMTD:utility_desktop.obj
 0001:0000ced0       ?_RTC_AllocaFailure@@YAXPAXPAU_RTC_ALLOCA_NODE@@H@Z 1000ded0 f   LIBCMTD:error.obj
 0001:0000cfc0       ?_RTC_Failure@@YAXPAXH@Z   1000dfc0 f   LIBCMTD:error.obj
 0001:0000d010       ?_RTC_StackFailure@@YAXPAXPBD@Z 1000e010 f   LIBCMTD:error.obj
 0001:0000d3d0       __RTC_UninitUse            1000e3d0 f   LIBCMTD:error.obj
 0001:0000d480       __vsprintf_s_l             1000e480 f i LIBCMTD:error.obj
 0001:0000d4b0       _sprintf_s                 1000e4b0 f i LIBCMTD:error.obj
 0001:0000d4d0       ?_RTC_GetErrorFunc@@YAP6AHHPBDH00ZZPBX@Z 1000e4d0 f   LIBCMTD:userapi.obj
 0001:0000d4e0       ?_RTC_GetErrorFuncW@@YAP6AHHPB_WH00ZZPBX@Z 1000e4e0 f   LIBCMTD:userapi.obj
 0001:0000d4f0       __RTC_GetErrDesc           1000e4f0 f   LIBCMTD:userapi.obj
 0001:0000d510       __RTC_NumErrors            1000e510 f   LIBCMTD:userapi.obj
 0001:0000d520       __RTC_SetErrorFunc         1000e520 f   LIBCMTD:userapi.obj
 0001:0000d540       __RTC_SetErrorFuncW        1000e540 f   LIBCMTD:userapi.obj
 0001:0000d560       __RTC_SetErrorType         1000e560 f   LIBCMTD:userapi.obj
 0001:0000d590       ??2@YAPAXIABUnothrow_t@std@@@Z 1000e590 f   LIBCMTD:new_scalar_nothrow.obj
 0001:0000d680       ___security_init_cookie    1000e680 f   LIBCMTD:gs_support.obj
 0001:0000d700       ?__scrt_initialize_type_info@@YAXXZ 1000e700 f   LIBCMTD:tncleanup.obj
 0001:0000d710       ?__scrt_uninitialize_type_info@@YAXXZ 1000e710 f   LIBCMTD:tncleanup.obj
 0001:0000d730       ___local_stdio_scanf_options 1000e730 f i LIBCMTD:default_local_stdio_options.obj
 0001:0000d740       ___scrt_initialize_default_local_stdio_options 1000e740 f   LIBCMTD:default_local_stdio_options.obj
 0001:0000d780       ___scrt_get_dyn_tls_init_callback 1000e780 f   LIBCMTD:dyn_tls_init.obj
 0001:0000d790       __RTC_Initialize           1000e790 f   LIBCMTD:initsect.obj
 0001:0000d7c0       __RTC_Terminate            1000e7c0 f   LIBCMTD:initsect.obj
 0001:0000dc70       ?_RTC_GetSrcLine@@YAHPAEPA_WKPAH1K@Z 1000ec70 f   LIBCMTD:pdblkup.obj
 0001:0000e000       __except_handler4_noexcept 1000f000 f   LIBCMTD:chandler4_noexcept.obj
 0001:0000e050       ??2@YAPAXI@Z               1000f050 f   LIBCMTD:new_scalar.obj
 0001:0000e0a0       ??0bad_alloc@std@@AAE@QBD@Z 1000f0a0 f i LIBCMTD:throw_bad_alloc.obj
 0001:0000e0d0       ??0bad_alloc@std@@QAE@ABV01@@Z 1000f0d0 f i LIBCMTD:throw_bad_alloc.obj
 0001:0000e100       ??0bad_alloc@std@@QAE@XZ   1000f100 f i LIBCMTD:throw_bad_alloc.obj
 0001:0000e130       ??0bad_array_new_length@std@@QAE@ABV01@@Z 1000f130 f i LIBCMTD:throw_bad_alloc.obj
 0001:0000e160       ??0bad_array_new_length@std@@QAE@XZ 1000f160 f i LIBCMTD:throw_bad_alloc.obj
 0001:0000e190       ??0exception@std@@QAE@ABV01@@Z 1000f190 f i LIBCMTD:throw_bad_alloc.obj
 0001:0000e1d0       ??0exception@std@@QAE@QBDH@Z 1000f1d0 f i LIBCMTD:throw_bad_alloc.obj
 0001:0000e200       ??1bad_alloc@std@@UAE@XZ   1000f200 f i LIBCMTD:throw_bad_alloc.obj
 0001:0000e220       ??1bad_array_new_length@std@@UAE@XZ 1000f220 f i LIBCMTD:throw_bad_alloc.obj
 0001:0000e240       ??1exception@std@@UAE@XZ   1000f240 f i LIBCMTD:throw_bad_alloc.obj
 0001:0000e270       ??_Gbad_alloc@std@@UAEPAXI@Z 1000f270 f i LIBCMTD:throw_bad_alloc.obj
 0001:0000e270       ??_Ebad_alloc@std@@UAEPAXI@Z 1000f270 f i LIBCMTD:throw_bad_alloc.obj
 0001:0000e2a0       ??_Ebad_array_new_length@std@@UAEPAXI@Z 1000f2a0 f i LIBCMTD:throw_bad_alloc.obj
 0001:0000e2a0       ??_Gbad_array_new_length@std@@UAEPAXI@Z 1000f2a0 f i LIBCMTD:throw_bad_alloc.obj
 0001:0000e2d0       ??_Gexception@std@@UAEPAXI@Z 1000f2d0 f i LIBCMTD:throw_bad_alloc.obj
 0001:0000e2d0       ??_Eexception@std@@UAEPAXI@Z 1000f2d0 f i LIBCMTD:throw_bad_alloc.obj
 0001:0000e300       ?__scrt_throw_std_bad_alloc@@YAXXZ 1000f300 f   LIBCMTD:throw_bad_alloc.obj
 0001:0000e320       ?__scrt_throw_std_bad_array_new_length@@YAXXZ 1000f320 f   LIBCMTD:throw_bad_alloc.obj
 0001:0000e340       ?what@exception@std@@UBEPBDXZ 1000f340 f i LIBCMTD:throw_bad_alloc.obj
 0001:0000e370       ??1type_info@@UAE@XZ       1000f370 f   LIBCMTD:std_type_info_static.obj
 0001:0000e390       ??_Etype_info@@UAEPAXI@Z   1000f390 f i LIBCMTD:std_type_info_static.obj
 0001:0000e390       ??_Gtype_info@@UAEPAXI@Z   1000f390 f i LIBCMTD:std_type_info_static.obj
 0001:0000e3c0       _memset                    1000f3c0 f   libvcruntimed:memset.obj
 0001:0000e6d0       _memcmp                    1000f6d0 f   libvcruntimed:memcmp.obj
 0001:0000efa0       _memcpy                    1000ffa0 f   libvcruntimed:memcpy.obj
 0001:0000f520       _wcsstr                    10010520 f   libvcruntimed:wcsstr.obj
 0001:0000f9f0       _memmove                   100109f0 f   libvcruntimed:memmove.obj
 0001:0000ff70       ___vcrt_initialize         10010f70 f   libvcruntimed:initialization.obj
 0001:0000ffb0       ___vcrt_thread_attach      10010fb0 f   libvcruntimed:initialization.obj
 0001:0000ffd0       ___vcrt_thread_detach      10010fd0 f   libvcruntimed:initialization.obj
 0001:0000fff0       ___vcrt_uninitialize       10010ff0 f   libvcruntimed:initialization.obj
 0001:00010010       ___vcrt_uninitialize_critical 10011010 f   libvcruntimed:initialization.obj
 0001:00010090       __except_handler4          10011090 f   libvcruntimed:chandler4.obj
 0001:00010280       ??$?0AAViterator@TryBlockMap@__FrameHandler3@@AAV012@$0A@@?$pair@Viterator@TryBlockMap@__FrameHandler3@@V123@@std@@QAE@AAViterator@TryBlockMap@__FrameHandler3@@0@Z 10011280 f i libvcruntimed:trnsctrl.obj
 0001:000102d0       ??$forward@AAViterator@TryBlockMap@__FrameHandler3@@@std@@YAAAViterator@TryBlockMap@__FrameHandler3@@AAV123@@Z 100112d0 f i libvcruntimed:trnsctrl.obj
 0001:000102e0       ??0iterator@TryBlockMap@__FrameHandler3@@QAE@AAV12@I@Z 100112e0 f i libvcruntimed:trnsctrl.obj
 0001:00010310       ?GetRangeOfTrysToCheck@__FrameHandler3@@SA?AU?$pair@Viterator@TryBlockMap@__FrameHandler3@@V123@@std@@AAVTryBlockMap@1@HPAXPBU_s_FuncInfo@@H@Z 10011310 f   libvcruntimed:trnsctrl.obj
 0001:000103f0       ?_CallCatchBlock2@@YAPAXPAUEHRegistrationNode@@PBU_s_FuncInfo@@PAXHK@Z 100113f0 f   libvcruntimed:trnsctrl.obj
 0001:00010460       ?_CallSETranslator@@YAHPAUEHExceptionRecord@@PAUEHRegistrationNode@@PAX2PBU_s_FuncInfo@@H1@Z 10011460 f   libvcruntimed:trnsctrl.obj
 0001:00010560       ?_JumpToContinuation@@YGXPAXPAUEHRegistrationNode@@@Z 10011560 f   libvcruntimed:trnsctrl.obj
 0001:000105a0       ?_UnwindNestedFrames@@YGXPAUEHRegistrationNode@@PAUEHExceptionRecord@@@Z 100115a0 f   libvcruntimed:trnsctrl.obj
 0001:00010600       __CatchGuardHandler        10011600 f   libvcruntimed:trnsctrl.obj
 0001:00010650       __CreateFrameInfo          10011650 f   libvcruntimed:trnsctrl.obj
 0001:00010680       __FindAndUnlinkFrame       10011680 f   libvcruntimed:trnsctrl.obj
 0001:00010700       __TranslatorGuardHandler   10011700 f   libvcruntimed:trnsctrl.obj
 0001:000107b0       ___CxxFrameHandler         100117b0 f   libvcruntimed:trnsctrl.obj
 0001:000107f0       ___CxxFrameHandler2        100117f0 f   libvcruntimed:trnsctrl.obj
 0001:00010830       ___CxxFrameHandler3        10011830 f   libvcruntimed:trnsctrl.obj
 0001:00010870       ___CxxLongjmpUnwind@4      10011870 f   libvcruntimed:trnsctrl.obj
 0001:000108b0       ?<lambda_invoker_cdecl>@_Closure_wrapper_b3626920_1@@CAPAXI@Z 100118b0 f i libvcruntimed:std_type_info.obj
 0001:000108c0       ?<lambda_invoker_cdecl>@_Closure_wrapper_b3626920_2@@CAXQAX@Z 100118c0 f i libvcruntimed:std_type_info.obj
 0001:000108d0       ??$?RD@__crt_internal_free_policy@@QBEXQBD@Z 100118d0 f i libvcruntimed:std_type_info.obj
 0001:000108f0       ??$?RX@__crt_internal_free_policy@@QBEXQBX@Z 100118f0 f i libvcruntimed:std_type_info.obj
 0001:00010910       ??$__crt_interlocked_compare_exchange_pointer@$$CBDPAD$$T@@YAPBDPDSBDQAD$$T@Z 10011910 f i libvcruntimed:std_type_info.obj
 0001:00010930       ??$__crt_interlocked_read_pointer@$$CBD@@YAPBDPDSBD@Z 10011930 f i libvcruntimed:std_type_info.obj
 0001:00010950       ??0?$__crt_unique_heap_ptr@DU__crt_internal_free_policy@@@@QAE@QAD@Z 10011950 f i libvcruntimed:std_type_info.obj
 0001:00010970       ??0?$__crt_unique_heap_ptr@XU__crt_internal_free_policy@@@@QAE@QAX@Z 10011970 f i libvcruntimed:std_type_info.obj
 0001:00010990       ??1?$__crt_unique_heap_ptr@DU__crt_internal_free_policy@@@@QAE@XZ 10011990 f i libvcruntimed:std_type_info.obj
 0001:000109b0       ??1?$__crt_unique_heap_ptr@XU__crt_internal_free_policy@@@@QAE@XZ 100119b0 f i libvcruntimed:std_type_info.obj
 0001:000109d0       ??B?$__crt_unique_heap_ptr@DU__crt_internal_free_policy@@@@QBE_NXZ 100119d0 f i libvcruntimed:std_type_info.obj
 0001:000109f0       ??B?$__crt_unique_heap_ptr@XU__crt_internal_free_policy@@@@QBE_NXZ 100119f0 f i libvcruntimed:std_type_info.obj
 0001:00010a10       ??B_Closure_wrapper_b3626920_1@@QBEP6APAXI@ZXZ 10011a10 f i libvcruntimed:std_type_info.obj
 0001:00010a20       ??B_Closure_wrapper_b3626920_2@@QBEP6AXQAX@ZXZ 10011a20 f i libvcruntimed:std_type_info.obj
 0001:00010a80       ?__crt_interlocked_read_32@@YAHPDH@Z 10011a80 f i libvcruntimed:std_type_info.obj
 0001:00010aa0       ?detach@?$__crt_unique_heap_ptr@XU__crt_internal_free_policy@@@@QAEPAXXZ 10011aa0 f i libvcruntimed:std_type_info.obj
 0001:00010ad0       ?get@?$__crt_unique_heap_ptr@DU__crt_internal_free_policy@@@@QBEPADXZ 10011ad0 f i libvcruntimed:std_type_info.obj
 0001:00010ae0       ?get@?$__crt_unique_heap_ptr@XU__crt_internal_free_policy@@@@QBEPAXXZ 10011ae0 f i libvcruntimed:std_type_info.obj
 0001:00010af0       ?is_valid@?$__crt_unique_heap_ptr@DU__crt_internal_free_policy@@@@QBE_NXZ 10011af0 f i libvcruntimed:std_type_info.obj
 0001:00010b20       ?is_valid@?$__crt_unique_heap_ptr@XU__crt_internal_free_policy@@@@QBE_NXZ 10011b20 f i libvcruntimed:std_type_info.obj
 0001:00010b50       ?release@?$__crt_unique_heap_ptr@DU__crt_internal_free_policy@@@@QAEXXZ 10011b50 f i libvcruntimed:std_type_info.obj
 0001:00010b80       ?release@?$__crt_unique_heap_ptr@XU__crt_internal_free_policy@@@@QAEXXZ 10011b80 f i libvcruntimed:std_type_info.obj
 0001:00010bb0       ___std_type_info_compare   10011bb0 f   libvcruntimed:std_type_info.obj
 0001:00010be0       ___std_type_info_destroy_list 10011be0 f   libvcruntimed:std_type_info.obj
 0001:00010c20       ___std_type_info_hash      10011c20 f   libvcruntimed:std_type_info.obj
 0001:00010c80       ___std_type_info_name      10011c80 f   libvcruntimed:std_type_info.obj
 0001:00010e60       ___vcrt_GetModuleFileNameW 10011e60 f   libvcruntimed:winapi_thunks.obj
 0001:00010e80       ___vcrt_GetModuleHandleW   10011e80 f   libvcruntimed:winapi_thunks.obj
 0001:00010e90       ___vcrt_LoadLibraryExW     10011e90 f   libvcruntimed:winapi_thunks.obj
 0001:00010eb0       ??$?RD@__crt_public_free_policy@@QBEXQBD@Z 10011eb0 f i libvcruntimed:std_exception.obj
 0001:00010ed0       ??0?$__crt_unique_heap_ptr@DU__crt_public_free_policy@@@@QAE@QAD@Z 10011ed0 f i libvcruntimed:std_exception.obj
 0001:00010ef0       ??1?$__crt_unique_heap_ptr@DU__crt_public_free_policy@@@@QAE@XZ 10011ef0 f i libvcruntimed:std_exception.obj
 0001:00010f10       ??B?$__crt_unique_heap_ptr@DU__crt_public_free_policy@@@@QBE_NXZ 10011f10 f i libvcruntimed:std_exception.obj
 0001:00010f30       ?detach@?$__crt_unique_heap_ptr@DU__crt_public_free_policy@@@@QAEPADXZ 10011f30 f i libvcruntimed:std_exception.obj
 0001:00010f60       ?get@?$__crt_unique_heap_ptr@DU__crt_public_free_policy@@@@QBEPADXZ 10011f60 f i libvcruntimed:std_exception.obj
 0001:00010f70       ?is_valid@?$__crt_unique_heap_ptr@DU__crt_public_free_policy@@@@QBE_NXZ 10011f70 f i libvcruntimed:std_exception.obj
 0001:00010fa0       ?release@?$__crt_unique_heap_ptr@DU__crt_public_free_policy@@@@QAEXXZ 10011fa0 f i libvcruntimed:std_exception.obj
 0001:00010fd0       ___std_exception_copy      10011fd0 f   libvcruntimed:std_exception.obj
 0001:000110c0       ___std_exception_destroy   100120c0 f   libvcruntimed:std_exception.obj
 0001:000110f0       __CxxThrowException@8      100120f0 f   libvcruntimed:throw.obj
 0001:000111b0       ??$?RU__vcrt_ptd@@@__crt_internal_free_policy@@QBEXQBU__vcrt_ptd@@@Z 100121b0 f i libvcruntimed:per_thread_data.obj
 0001:000111d0       ??0?$__crt_unique_heap_ptr@U__vcrt_ptd@@U__crt_internal_free_policy@@@@QAE@QAU__vcrt_ptd@@@Z 100121d0 f i libvcruntimed:per_thread_data.obj
 0001:00011210       ??1?$__crt_unique_heap_ptr@U__vcrt_ptd@@U__crt_internal_free_policy@@@@QAE@XZ 10012210 f i libvcruntimed:per_thread_data.obj
 0001:00011250       ??B?$__crt_unique_heap_ptr@U__vcrt_ptd@@U__crt_internal_free_policy@@@@QBE_NXZ 10012250 f i libvcruntimed:per_thread_data.obj
 0001:00011270       ?detach@?$__crt_unique_heap_ptr@U__vcrt_ptd@@U__crt_internal_free_policy@@@@QAEPAU__vcrt_ptd@@XZ 10012270 f i libvcruntimed:per_thread_data.obj
 0001:000112a0       ?get@?$__crt_unique_heap_ptr@U__vcrt_ptd@@U__crt_internal_free_policy@@@@QBEPAU__vcrt_ptd@@XZ 100122a0 f i libvcruntimed:per_thread_data.obj
 0001:000112b0       ?is_valid@?$__crt_unique_heap_ptr@U__vcrt_ptd@@U__crt_internal_free_policy@@@@QBE_NXZ 100122b0 f i libvcruntimed:per_thread_data.obj
 0001:000112e0       ?release@?$__crt_unique_heap_ptr@U__vcrt_ptd@@U__crt_internal_free_policy@@@@QAEXXZ 100122e0 f i libvcruntimed:per_thread_data.obj
 0001:00011340       ___vcrt_freefls@4          10012340 f   libvcruntimed:per_thread_data.obj
 0001:00011370       ___vcrt_freeptd            10012370 f   libvcruntimed:per_thread_data.obj
 0001:000113d0       ___vcrt_getptd             100123d0 f   libvcruntimed:per_thread_data.obj
 0001:000113f0       ___vcrt_getptd_noexit      100123f0 f   libvcruntimed:per_thread_data.obj
 0001:00011550       ___vcrt_getptd_noinit      10012550 f   libvcruntimed:per_thread_data.obj
 0001:000115b0       ___vcrt_initialize_ptd     100125b0 f   libvcruntimed:per_thread_data.obj
 0001:00011600       ___vcrt_uninitialize_ptd   10012600 f   libvcruntimed:per_thread_data.obj
 0001:00011630       ___vcrt_initialize_locks   10012630 f   libvcruntimed:locks.obj
 0001:00011690       ___vcrt_lock               10012690 f   libvcruntimed:locks.obj
 0001:000116b0       ___vcrt_uninitialize_locks 100126b0 f   libvcruntimed:locks.obj
 0001:00011700       ___vcrt_unlock             10012700 f   libvcruntimed:locks.obj
 0001:00011720       __local_unwind4            10012720 f   libvcruntimed:exsup4.obj
 0001:000117f8       __seh_longjmp_unwind4@4    100127f8 f   libvcruntimed:exsup4.obj
 0001:00011820       @_EH4_CallFilterFunc@8     10012820 f   libvcruntimed:exsup4.obj
 0001:00011838       @_EH4_TransferToHandler@8  10012838 f   libvcruntimed:exsup4.obj
 0001:00011854       @_EH4_GlobalUnwind2@8      10012854 f   libvcruntimed:exsup4.obj
 0001:00011870       @_EH4_LocalUnwind@16       10012870 f   libvcruntimed:exsup4.obj
 0001:000118a0       ___except_validate_context_record 100128a0 f   libvcruntimed:jbcxrval.obj
 0001:000118f0       ___except_validate_jump_buffer 100128f0 f   libvcruntimed:jbcxrval.obj
 0001:00011910       ___except_validate_jump_buffer_common 10012910 f i libvcruntimed:jbcxrval.obj
 0001:00012580       ??$TypeMatchHelper@V__FrameHandler3@@@@YAHPBU_s_HandlerType@@PBU_s_CatchableType@@PBU_s_ThrowInfo@@@Z 10013580 f i libvcruntimed:frame.obj
 0001:00012660       ??$__InternalCxxFrameHandler@V__FrameHandler3@@@@YA?AW4_EXCEPTION_DISPOSITION@@PAUEHExceptionRecord@@PAUEHRegistrationNode@@PAU_CONTEXT@@PAXPBU_s_FuncInfo@@H1E@Z 10013660 f i libvcruntimed:frame.obj
 0001:00012840       ??0HandlerMap@__FrameHandler3@@QAE@PBU_s_TryBlockMapEntry@@II@Z 10013840 f i libvcruntimed:frame.obj
 0001:00012870       ??0TryBlockMap@__FrameHandler3@@QAE@PBU_s_FuncInfo@@I@Z 10013870 f i libvcruntimed:frame.obj
 0001:000128a0       ??0bad_exception@std@@QAE@ABV01@@Z 100138a0 f i libvcruntimed:frame.obj
 0001:000128d0       ??0bad_exception@std@@QAE@XZ 100138d0 f i libvcruntimed:frame.obj
 0001:00012900       ??0iterator@HandlerMap@__FrameHandler3@@QAE@AAV12@I@Z 10013900 f i libvcruntimed:frame.obj
 0001:00012930       ??1bad_exception@std@@UAE@XZ 10013930 f i libvcruntimed:frame.obj
 0001:00012950       ??8iterator@HandlerMap@__FrameHandler3@@QBE_NABV012@@Z 10013950 f i libvcruntimed:frame.obj
 0001:00012980       ??8type_info@@QBE_NABV0@@Z 10013980 f i libvcruntimed:frame.obj
 0001:000129c0       ??9iterator@HandlerMap@__FrameHandler3@@QBE_NABV012@@Z 100139c0 f i libvcruntimed:frame.obj
 0001:00012a00       ??Diterator@HandlerMap@__FrameHandler3@@QAE?BU_s_HandlerType@@XZ 10013a00 f i libvcruntimed:frame.obj
 0001:00012a40       ??Diterator@TryBlockMap@__FrameHandler3@@QAE?BU_s_TryBlockMapEntry@@XZ 10013a40 f i libvcruntimed:frame.obj
 0001:00012a90       ??Eiterator@HandlerMap@__FrameHandler3@@QAEAAV012@XZ 10013a90 f i libvcruntimed:frame.obj
 0001:00012ab0       ??Eiterator@TryBlockMap@__FrameHandler3@@QAEAAV012@XZ 10013ab0 f i libvcruntimed:frame.obj
 0001:00012ad0       ??Miterator@TryBlockMap@__FrameHandler3@@QBE_NABV012@@Z 10013ad0 f i libvcruntimed:frame.obj
 0001:00012b00       ??_Ebad_exception@std@@UAEPAXI@Z 10013b00 f i libvcruntimed:frame.obj
 0001:00012b00       ??_Gbad_exception@std@@UAEPAXI@Z 10013b00 f i libvcruntimed:frame.obj
 0001:00012b30       ?BuildCatchObject@__FrameHandler3@@SAXPAUEHExceptionRecord@@PAXPBU_s_HandlerType@@PBU_s_CatchableType@@@Z 10013b30 f   libvcruntimed:frame.obj
 0001:00012b50       ?BuildCatchObjectHelper@__FrameHandler3@@SAHPAUEHExceptionRecord@@PAXPBU_s_HandlerType@@PBU_s_CatchableType@@@Z 10013b50 f   libvcruntimed:frame.obj
 0001:00012ef0       ?FrameUnwindToEmptyState@__FrameHandler3@@SAXPAUEHRegistrationNode@@PAXPBU_s_FuncInfo@@@Z 10013ef0 f   libvcruntimed:frame.obj
 0001:00012f10       ?FrameUnwindToState@__FrameHandler3@@SAXPAUEHRegistrationNode@@PAXPBU_s_FuncInfo@@H@Z 10013f10 f   libvcruntimed:frame.obj
 0001:00013090       ?GetMaxState@__FrameHandler3@@SAHPAXPBU_s_FuncInfo@@@Z 10014090 f i libvcruntimed:frame.obj
 0001:000131c0       ?TypeMatch@__FrameHandler3@@SAHPBU_s_HandlerType@@PBU_s_CatchableType@@PBU_s_ThrowInfo@@@Z 100141c0 f   libvcruntimed:frame.obj
 0001:000131e0       ?_CallMemberFunction1@@YGXQAX00@Z 100141e0 f i libvcruntimed:frame.obj
 0001:00013210       ?_CallMemberFunction2@@YGXQAX00H@Z 10014210 f i libvcruntimed:frame.obj
 0001:00013240       ?_ValidateExecute@@YA_NP6GHXZ@Z 10014240 f i libvcruntimed:frame.obj
 0001:00013260       ?_ValidateRead@@YA_NPBXI@Z 10014260 f i libvcruntimed:frame.obj
 0001:00013280       ?_ValidateWrite@@YA_NPAXI@Z 10014280 f i libvcruntimed:frame.obj
 0001:000132a0       ?begin@HandlerMap@__FrameHandler3@@QAE?AViterator@12@XZ 100142a0 f i libvcruntimed:frame.obj
 0001:000132c0       ?end@HandlerMap@__FrameHandler3@@QAE?AViterator@12@XZ 100142c0 f i libvcruntimed:frame.obj
 0001:000132f0       ?getESTypes@__FrameHandler3@@SAPBU_s_ESTypeList@@PBU_s_FuncInfo@@@Z 100142f0 f i libvcruntimed:frame.obj
 0001:00013300       ?getLastEntry@HandlerMap@__FrameHandler3@@QAEPBU_s_HandlerType@@XZ 10014300 f i libvcruntimed:frame.obj
 0001:00013320       ?getMagicNum@__FrameHandler3@@SAIPBU_s_FuncInfo@@@Z 10014320 f i libvcruntimed:frame.obj
 0001:00013330       ?getNumTryBlocks@TryBlockMap@__FrameHandler3@@QAEIXZ 10014330 f i libvcruntimed:frame.obj
 0001:00013350       ?isEHs@__FrameHandler3@@SA_NPBU_s_FuncInfo@@@Z 10014350 f i libvcruntimed:frame.obj
 0001:00013380       ?isNoExcept@__FrameHandler3@@SA_NPBU_s_FuncInfo@@@Z 10014380 f i libvcruntimed:frame.obj
 0001:000133b0       ___BuildCatchObject        100143b0 f   libvcruntimed:frame.obj
 0001:000133d0       ___BuildCatchObjectHelper  100143d0 f   libvcruntimed:frame.obj
 0001:000133f0       ___TypeMatch               100143f0 f   libvcruntimed:frame.obj
 0001:00013410       ___vcrt_EncodePointer      10014410 f i libvcruntimed:frame.obj
 0001:00013420       __CallSettingFrame@12      10014420 f   libvcruntimed:lowhelpr.obj
 0001:00013447       __NLG_Return               10014447     libvcruntimed:lowhelpr.obj
 0001:00013470       ??0Block@_HeapManager@@QAE@XZ 10014470 f i libvcruntimed:undname.obj
 0001:00013490       ??0DName@@QAE@AAPBDD@Z     10014490 f   libvcruntimed:undname.obj
 0001:000136c0       ??0DName@@QAE@ABV0@@Z      100146c0 f i libvcruntimed:undname.obj
 0001:000136f0       ??0DName@@QAE@D@Z          100146f0 f   libvcruntimed:undname.obj
 0001:00013730       ??0DName@@QAE@PAV0@@Z      10014730 f   libvcruntimed:undname.obj
 0001:000137e0       ??0DName@@QAE@PBD@Z        100147e0 f   libvcruntimed:undname.obj
 0001:00013830       ??0DName@@QAE@W4DNameStatus@@@Z 10014830 f   libvcruntimed:undname.obj
 0001:000138d0       ??0DName@@QAE@XZ           100148d0 f i libvcruntimed:undname.obj
 0001:00013900       ??0DName@@QAE@_J@Z         10014900 f   libvcruntimed:undname.obj
 0001:000139f0       ??0DName@@QAE@_K@Z         100149f0 f   libvcruntimed:undname.obj
 0001:00013aa0       ??0DNameNode@@IAE@XZ       10014aa0 f i libvcruntimed:undname.obj
 0001:00013ac0       ??0Replicator@@QAE@XZ      10014ac0 f i libvcruntimed:undname.obj
 0001:00013b00       ??0UnDecorator@@QAE@PBDP6APADJ@ZK@Z 10014b00 f i libvcruntimed:undname.obj
 0001:00013b80       ??0charNode@@QAE@D@Z       10014b80 f i libvcruntimed:undname.obj
 0001:00013bb0       ??0pDNameNode@@QAE@PAVDName@@@Z 10014bb0 f   libvcruntimed:undname.obj
 0001:00013c10       ??0pairNode@@QAE@PBVDNameNode@@0@Z 10014c10 f i libvcruntimed:undname.obj
 0001:00013c50       ??0pcharNode@@QAE@PBDH@Z   10014c50 f   libvcruntimed:undname.obj
 0001:00013d10       ??2@YAPAXIAAV_HeapManager@@H@Z 10014d10 f i libvcruntimed:undname.obj
 0001:00013d30       ??4DName@@QAEAAV0@ABV0@@Z  10014d30 f   libvcruntimed:undname.obj
 0001:00013d60       ??4DName@@QAEAAV0@D@Z      10014d60 f i libvcruntimed:undname.obj
 0001:00013da0       ??4DName@@QAEAAV0@PAV0@@Z  10014da0 f   libvcruntimed:undname.obj
 0001:00013e40       ??4DName@@QAEAAV0@PBD@Z    10014e40 f   libvcruntimed:undname.obj
 0001:00013e80       ??4DName@@QAEAAV0@W4DNameStatus@@@Z 10014e80 f   libvcruntimed:undname.obj
 0001:00013f00       ??AReplicator@@QBE?AVDName@@H@Z 10014f00 f   libvcruntimed:undname.obj
 0001:00013f70       ??H@YA?AVDName@@DABV0@@Z   10014f70 f i libvcruntimed:undname.obj
 0001:00013fa0       ??H@YA?AVDName@@PBDABV0@@Z 10014fa0 f i libvcruntimed:undname.obj
 0001:00013fd0       ??H@YA?AVDName@@W4DNameStatus@@ABV0@@Z 10014fd0 f i libvcruntimed:undname.obj
 0001:00014000       ??HDName@@QBE?AV0@ABV0@@Z  10015000 f   libvcruntimed:undname.obj
 0001:00014040       ??HDName@@QBE?AV0@D@Z      10015040 f   libvcruntimed:undname.obj
 0001:00014080       ??HDName@@QBE?AV0@PAV0@@Z  10015080 f   libvcruntimed:undname.obj
 0001:000140c0       ??HDName@@QBE?AV0@PBD@Z    100150c0 f   libvcruntimed:undname.obj
 0001:00014100       ??HDName@@QBE?AV0@W4DNameStatus@@@Z 10015100 f   libvcruntimed:undname.obj
 0001:00014140       ??YDName@@QAEAAV0@ABV0@@Z  10015140 f   libvcruntimed:undname.obj
 0001:000141b0       ??YDName@@QAEAAV0@D@Z      100151b0 f   libvcruntimed:undname.obj
 0001:00014230       ??YDName@@QAEAAV0@PAV0@@Z  10015230 f   libvcruntimed:undname.obj
 0001:000142e0       ??YDName@@QAEAAV0@PBD@Z    100152e0 f   libvcruntimed:undname.obj
 0001:00014380       ??YDName@@QAEAAV0@W4DNameStatus@@@Z 10015380 f   libvcruntimed:undname.obj
 0001:000143e0       ??YReplicator@@QAEAAV0@ABVDName@@@Z 100153e0 f   libvcruntimed:undname.obj
 0001:00014470       ??_5DName@@QAEAAV0@ABV0@@Z 10015470 f   libvcruntimed:undname.obj
 0001:000144d0       ?Constructor@_HeapManager@@QAEXP6APAXI@ZP6AXPAX@Z@Z 100154d0 f i libvcruntimed:undname.obj
 0001:00014510       ?Destructor@_HeapManager@@QAEXXZ 10015510 f i libvcruntimed:undname.obj
 0001:00014570       ?UScore@UnDecorator@@SAPBDW4Tokens@@@Z 10015570 f   libvcruntimed:undname.obj
 0001:000145a0       ?append@DName@@AAEXPBVDNameNode@@@Z 100155a0 f   libvcruntimed:undname.obj
 0001:00014630       ?composeDeclaration@UnDecorator@@CA?AVDName@@ABV2@@Z 10015630 f i libvcruntimed:undname.obj
 0001:000163b0       ?dbGetString@DName@@QBEPADXZ 100173b0 f   libvcruntimed:undname.obj
 0001:000163d0       ?doAccessSpecifiers@UnDecorator@@SAHXZ 100173d0 f i libvcruntimed:undname.obj
 0001:00016400       ?doAllocationLanguage@UnDecorator@@SAHXZ 10017400 f i libvcruntimed:undname.obj
 0001:00016430       ?doAllocationModel@UnDecorator@@SAHXZ 10017430 f i libvcruntimed:undname.obj
 0001:00016460       ?doEcsu@UnDecorator@@SAHXZ 10017460 f i libvcruntimed:undname.obj
 0001:00016490       ?doEllipsis@UnDecorator@@SAHXZ 10017490 f i libvcruntimed:undname.obj
 0001:000164c0       ?doFunctionReturns@UnDecorator@@SAHXZ 100174c0 f i libvcruntimed:undname.obj
 0001:000164f0       ?doMSKeywords@UnDecorator@@SAHXZ 100174f0 f i libvcruntimed:undname.obj
 0001:00016520       ?doMemberTypes@UnDecorator@@SAHXZ 10017520 f i libvcruntimed:undname.obj
 0001:00016550       ?doNameOnly@UnDecorator@@SAHXZ 10017550 f i libvcruntimed:undname.obj
 0001:00016560       ?doNoIdentCharCheck@UnDecorator@@SAHXZ 10017560 f i libvcruntimed:undname.obj
 0001:00016570       ?doPchar@DName@@AAEXPBDH@Z 10017570 f   libvcruntimed:undname.obj
 0001:000166b0       ?doPtr64@UnDecorator@@SAHXZ 100176b0 f i libvcruntimed:undname.obj
 0001:000166e0       ?doRestrictionSpec@UnDecorator@@SAHXZ 100176e0 f i libvcruntimed:undname.obj
 0001:00016710       ?doThisTypes@UnDecorator@@SAHXZ 10017710 f i libvcruntimed:undname.obj
 0001:00016740       ?doThrowTypes@UnDecorator@@SAHXZ 10017740 f i libvcruntimed:undname.obj
 0001:00016770       ?doTypeOnly@UnDecorator@@SAHXZ 10017770 f i libvcruntimed:undname.obj
 0001:00016780       ?doUnderScore@UnDecorator@@SAHXZ 10017780 f i libvcruntimed:undname.obj
 0001:000167b0       ?getArgumentList@UnDecorator@@CA?AVDName@@XZ 100177b0 f   libvcruntimed:undname.obj
 0001:00016900       ?getArgumentTypes@UnDecorator@@CA?AVDName@@XZ 10017900 f   libvcruntimed:undname.obj
 0001:00016a50       ?getArrayType@UnDecorator@@CA?AVDName@@ABV2@@Z 10017a50 f i libvcruntimed:undname.obj
 0001:00016cc0       ?getBasedType@UnDecorator@@CA?AVDName@@XZ 10017cc0 f   libvcruntimed:undname.obj
 0001:00016d80       ?getBasicDataType@UnDecorator@@CA?AVDName@@ABV2@@Z 10017d80 f   libvcruntimed:undname.obj
 0001:00017380       ?getCHPEName@UnDecorator@@QAEPADPADH@Z 10018380 f i libvcruntimed:undname.obj
 0001:000174e0       ?getCallIndex@UnDecorator@@CA?AVDName@@XZ 100184e0 f i libvcruntimed:undname.obj
 0001:00017500       ?getCallingConvention@UnDecorator@@CA?AVDName@@XZ 10018500 f   libvcruntimed:undname.obj
 0001:000176e0       ?getDataIndirectType@UnDecorator@@CA?AVDName@@ABV2@PBD0H@Z 100186e0 f   libvcruntimed:undname.obj
 0001:00017f00       ?getDataIndirectType@UnDecorator@@CA?AVDName@@XZ 10018f00 f i libvcruntimed:undname.obj
 0001:00017f50       ?getDataType@UnDecorator@@CA?AVDName@@PAV2@@Z 10018f50 f   libvcruntimed:undname.obj
 0001:00018070       ?getDecoratedName@UnDecorator@@CA?AVDName@@XZ 10019070 f   libvcruntimed:undname.obj
 0001:00018470       ?getDimension@UnDecorator@@CA?AVDName@@_N@Z 10019470 f   libvcruntimed:undname.obj
 0001:00018720       ?getDispatchTarget@UnDecorator@@CA?AVDName@@XZ 10019720 f   libvcruntimed:undname.obj
 0001:000187c0       ?getDisplacement@UnDecorator@@CA?AVDName@@XZ 100197c0 f i libvcruntimed:undname.obj
 0001:000187e0       ?getECSUDataType@UnDecorator@@CA?AVDName@@XZ 100197e0 f   libvcruntimed:undname.obj
 0001:000189b0       ?getECSUName@UnDecorator@@CA?AVDName@@XZ 100199b0 f i libvcruntimed:undname.obj
 0001:000189d0       ?getEnumType@UnDecorator@@CA?AVDName@@XZ 100199d0 f i libvcruntimed:undname.obj
 0001:00018b20       ?getExtendedDataIndirectType@UnDecorator@@CA?AVDName@@AAPBDAA_NH@Z 10019b20 f   libvcruntimed:undname.obj
 0001:00018d70       ?getExternalDataType@UnDecorator@@CA?AVDName@@ABV2@@Z 10019d70 f i libvcruntimed:undname.obj
 0001:00018e10       ?getFunctionIndirectType@UnDecorator@@CA?AVDName@@ABV2@@Z 10019e10 f   libvcruntimed:undname.obj
 0001:000192e0       ?getGuardNumber@UnDecorator@@CA?AVDName@@XZ 1001a2e0 f i libvcruntimed:undname.obj
 0001:00019300       ?getLastChar@DName@@QBEDXZ 1001a300 f i libvcruntimed:undname.obj
 0001:00019340       ?getLastChar@DNameStatusNode@@UBEDXZ 1001a340 f i libvcruntimed:undname.obj
 0001:00019370       ?getLastChar@charNode@@UBEDXZ 1001a370 f i libvcruntimed:undname.obj
 0001:00019390       ?getLastChar@pDNameNode@@UBEDXZ 1001a390 f i libvcruntimed:undname.obj
 0001:000193c0       ?getLastChar@pairNode@@UBEDXZ 1001a3c0 f i libvcruntimed:undname.obj
 0001:00019430       ?getLastChar@pcharNode@@UBEDXZ 1001a430 f i libvcruntimed:undname.obj
 0001:00019470       ?getLexicalFrame@UnDecorator@@CA?AVDName@@XZ 1001a470 f i libvcruntimed:undname.obj
 0001:000194b0       ?getMemory@_HeapManager@@QAEPAXIH@Z 1001a4b0 f   libvcruntimed:undname.obj
 0001:000195d0       ?getNoexcept@UnDecorator@@CA?AVDName@@XZ 1001a5d0 f   libvcruntimed:undname.obj
 0001:00019640       ?getNumberOfDimensions@UnDecorator@@CAHXZ 1001a640 f   libvcruntimed:undname.obj
 0001:00019740       ?getOperatorName@UnDecorator@@CA?AVDName@@_NPA_N@Z 1001a740 f i libvcruntimed:undname.obj
 0001:0001a1b0       ?getPointerType@UnDecorator@@CA?AVDName@@ABV2@0@Z 1001b1b0 f i libvcruntimed:undname.obj
 0001:0001a1e0       ?getPointerTypeArray@UnDecorator@@CA?AVDName@@ABV2@0@Z 1001b1e0 f i libvcruntimed:undname.obj
 0001:0001a210       ?getPrimaryDataType@UnDecorator@@CA?AVDName@@ABV2@@Z 1001b210 f   libvcruntimed:undname.obj
 0001:0001a610       ?getPtrRefDataType@UnDecorator@@CA?AVDName@@ABV2@H@Z 1001b610 f   libvcruntimed:undname.obj
 0001:0001a840       ?getPtrRefType@UnDecorator@@CA?AVDName@@ABV2@0PBD@Z 1001b840 f   libvcruntimed:undname.obj
 0001:0001a9b0       ?getReferenceType@UnDecorator@@CA?AVDName@@ABV2@0PBD@Z 1001b9b0 f i libvcruntimed:undname.obj
 0001:0001a9d0       ?getRestrictionSpec@UnDecorator@@CA?AVDName@@XZ 1001b9d0 f   libvcruntimed:undname.obj
 0001:0001ab40       ?getReturnType@UnDecorator@@CA?AVDName@@PAV2@@Z 1001bb40 f   libvcruntimed:undname.obj
 0001:0001ab90       ?getScope@UnDecorator@@CA?AVDName@@XZ 1001bb90 f   libvcruntimed:undname.obj
 0001:0001b0c0       ?getScopedName@UnDecorator@@CA?AVDName@@XZ 1001c0c0 f   libvcruntimed:undname.obj
 0001:0001b1f0       ?getSignedDimension@UnDecorator@@CA?AVDName@@XZ 1001c1f0 f   libvcruntimed:undname.obj
 0001:0001b270       ?getStorageConvention@UnDecorator@@CA?AVDName@@XZ 1001c270 f i libvcruntimed:undname.obj
 0001:0001b290       ?getString@DName@@QBEPADPAD0@Z 1001c290 f i libvcruntimed:undname.obj
 0001:0001b2f0       ?getString@DName@@QBEPADPADH@Z 1001c2f0 f i libvcruntimed:undname.obj
 0001:0001b380       ?getString@DNameStatusNode@@UBEPADPAD0@Z 1001c380 f i libvcruntimed:undname.obj
 0001:0001b3c0       ?getString@charNode@@UBEPADPAD0@Z 1001c3c0 f i libvcruntimed:undname.obj
 0001:0001b3f0       ?getString@pDNameNode@@UBEPADPAD0@Z 1001c3f0 f i libvcruntimed:undname.obj
 0001:0001b430       ?getString@pairNode@@UBEPADPAD0@Z 1001c430 f i libvcruntimed:undname.obj
 0001:0001b4c0       ?getString@pcharNode@@UBEPADPAD0@Z 1001c4c0 f i libvcruntimed:undname.obj
 0001:0001b4f0       ?getStringEncoding@UnDecorator@@CA?AVDName@@PBDH@Z 1001c4f0 f   libvcruntimed:undname.obj
 0001:0001b600       ?getStringHelper@@YAPADPADPBD1H@Z 1001c600 f i libvcruntimed:undname.obj
 0001:0001b640       ?getSymbolName@UnDecorator@@CA?AVDName@@XZ 1001c640 f i libvcruntimed:undname.obj
 0001:0001b6d0       ?getTemplateArgumentList@UnDecorator@@CA?AVDName@@XZ 1001c6d0 f   libvcruntimed:undname.obj
 0001:0001b990       ?getTemplateName@UnDecorator@@CA?AVDName@@_N@Z 1001c990 f   libvcruntimed:undname.obj
 0001:0001bb60       ?getTemplateNonTypeArgument@UnDecorator@@CA?AVDName@@XZ 1001cb60 f   libvcruntimed:undname.obj
 0001:0001c190       ?getTemplateTypeArgument@UnDecorator@@CA?AVDName@@XZ 1001d190 f   libvcruntimed:undname.obj
 0001:0001c2f0       ?getThisType@UnDecorator@@CA?AVDName@@XZ 1001d2f0 f i libvcruntimed:undname.obj
 0001:0001c340       ?getThrowTypes@UnDecorator@@CA?AVDName@@XZ 1001d340 f   libvcruntimed:undname.obj
 0001:0001c380       ?getTypeEncoding@UnDecorator@@CAHXZ 1001d380 f i libvcruntimed:undname.obj
 0001:0001ce10       ?getUndecoratedName@UnDecorator@@QAEPADPADH@Z 1001de10 f i libvcruntimed:undname.obj
 0001:0001cf60       ?getVCallThunkType@UnDecorator@@CA?AVDName@@XZ 1001df60 f i libvcruntimed:undname.obj
 0001:0001cfc0       ?getVbTableType@UnDecorator@@CA?AVDName@@ABV2@@Z 1001dfc0 f i libvcruntimed:undname.obj
 0001:0001cfe0       ?getVdispMapType@UnDecorator@@CA?AVDName@@ABV2@@Z 1001dfe0 f i libvcruntimed:undname.obj
 0001:0001d050       ?getVfTableType@UnDecorator@@CA?AVDName@@ABV2@@Z 1001e050 f i libvcruntimed:undname.obj
 0001:0001d220       ?getZName@UnDecorator@@CA?AVDName@@_N0@Z 1001e220 f   libvcruntimed:undname.obj
 0001:0001d500       ?haveTemplateParameters@UnDecorator@@SAHXZ 1001e500 f i libvcruntimed:undname.obj
 0001:0001d510       ?isArray@DName@@QBEHXZ     1001e510 f i libvcruntimed:undname.obj
 0001:0001d530       ?isComArray@DName@@QBEHXZ  1001e530 f i libvcruntimed:undname.obj
 0001:0001d550       ?isEmpty@DName@@QBEHXZ     1001e550 f i libvcruntimed:undname.obj
 0001:0001d580       ?isFull@Replicator@@QBEHXZ 1001e580 f i libvcruntimed:undname.obj
 0001:0001d5b0       ?isNoTE@DName@@QBEHXZ      1001e5b0 f i libvcruntimed:undname.obj
 0001:0001d5d0       ?isPinPtr@DName@@QBEHXZ    1001e5d0 f i libvcruntimed:undname.obj
 0001:0001d5f0       ?isPtrRef@DName@@QBEHXZ    1001e5f0 f i libvcruntimed:undname.obj
 0001:0001d610       ?isUDC@DName@@QBEHXZ       1001e610 f i libvcruntimed:undname.obj
 0001:0001d650       ?isUDTThunk@DName@@QBEHXZ  1001e650 f i libvcruntimed:undname.obj
 0001:0001d690       ?isVCallThunk@DName@@QBEHXZ 1001e690 f i libvcruntimed:undname.obj
 0001:0001d6b0       ?isValid@DName@@QBEHXZ     1001e6b0 f i libvcruntimed:undname.obj
 0001:0001d6f0       ?length@DName@@QBEHXZ      1001e6f0 f i libvcruntimed:undname.obj
 0001:0001d730       ?length@DNameStatusNode@@UBEHXZ 1001e730 f i libvcruntimed:undname.obj
 0001:0001d750       ?length@charNode@@UBEHXZ   1001e750 f i libvcruntimed:undname.obj
 0001:0001d760       ?length@pDNameNode@@UBEHXZ 1001e760 f i libvcruntimed:undname.obj
 0001:0001d790       ?length@pairNode@@UBEHXZ   1001e790 f i libvcruntimed:undname.obj
 0001:0001d800       ?length@pcharNode@@UBEHXZ  1001e800 f i libvcruntimed:undname.obj
 0001:0001d820       ?make@DNameStatusNode@@SAPBV1@W4DNameStatus@@@Z 1001e820 f i libvcruntimed:undname.obj
 0001:0001d850       ?parseDecoratedName@UnDecorator@@CA?AVDName@@XZ 1001e850 f   libvcruntimed:undname.obj
 0001:0001d9d0       ?setIsArray@DName@@QAEXXZ  1001e9d0 f i libvcruntimed:undname.obj
 0001:0001d9f0       ?setIsComArray@DName@@QAEXXZ 1001e9f0 f i libvcruntimed:undname.obj
 0001:0001da10       ?setIsNoTE@DName@@QAEXXZ   1001ea10 f i libvcruntimed:undname.obj
 0001:0001da30       ?setIsPinPtr@DName@@QAEXXZ 1001ea30 f i libvcruntimed:undname.obj
 0001:0001da50       ?setIsUDC@DName@@QAEXXZ    1001ea50 f i libvcruntimed:undname.obj
 0001:0001da80       ?setIsVCallThunk@DName@@QAEXXZ 1001ea80 f i libvcruntimed:undname.obj
 0001:0001daa0       ?setPtrRef@DName@@QAEAAV1@XZ 1001eaa0 f i libvcruntimed:undname.obj
 0001:0001dac0       ?status@DName@@QBE?AW4DNameStatus@@XZ 1001eac0 f i libvcruntimed:undname.obj
 0001:0001dbc0       ___unDName                 1001ebc0 f   libvcruntimed:undname.obj
 0001:0001dbf0       ___unDNameEx               1001ebf0 f   libvcruntimed:undname.obj
 0001:0001dcc0       _unDNameGenerateCHPE       1001ecc0 f   libvcruntimed:undname.obj
 0001:0001dd20       ??$__crt_interlocked_exchange_pointer@UHINSTANCE__@@PAU1@@@YAPAUHINSTANCE__@@PDSAU0@QAU0@@Z 1001ed20 f i libvcruntimed:winapi_downlevel.obj
 0001:0001dd30       ??$__crt_interlocked_exchange_pointer@UHINSTANCE__@@PAX@@YAPAUHINSTANCE__@@PDSAU0@QAX@Z 1001ed30 f i libvcruntimed:winapi_downlevel.obj
 0001:0001dd40       ??$__crt_interlocked_exchange_pointer@XPAX@@YAPAXPDSAXQAX@Z 1001ed40 f i libvcruntimed:winapi_downlevel.obj
 0001:0001dd50       ??$__crt_interlocked_read_pointer@UHINSTANCE__@@@@YAPAUHINSTANCE__@@PDSAU0@@Z 1001ed50 f i libvcruntimed:winapi_downlevel.obj
 0001:0001dd70       ??$__crt_interlocked_read_pointer@X@@YAPAXPDSAX@Z 1001ed70 f i libvcruntimed:winapi_downlevel.obj
 0001:0001e140       ___vcrt_FlsAlloc           1001f140 f   libvcruntimed:winapi_downlevel.obj
 0001:0001e180       ___vcrt_FlsFree            1001f180 f   libvcruntimed:winapi_downlevel.obj
 0001:0001e1c0       ___vcrt_FlsGetValue        1001f1c0 f   libvcruntimed:winapi_downlevel.obj
 0001:0001e200       ___vcrt_FlsSetValue        1001f200 f   libvcruntimed:winapi_downlevel.obj
 0001:0001e250       ___vcrt_InitializeCriticalSectionEx 1001f250 f   libvcruntimed:winapi_downlevel.obj
 0001:0001e2a0       __global_unwind2           1001f2a0 f   libvcruntimed:exsup.obj
 0001:0001e306       __local_unwind2            1001f306 f   libvcruntimed:exsup.obj
 0001:0001e38a       __abnormal_termination     1001f38a f   libvcruntimed:exsup.obj
 0001:0001e3b0       __NLG_Notify1              1001f3b0 f   libvcruntimed:exsup.obj
 0001:0001e3bc       __NLG_Notify               1001f3bc f   libvcruntimed:exsup.obj
 0001:0001e3d3       __NLG_Dispatch             1001f3d3     libvcruntimed:exsup.obj
 0001:0001e3d3       __NLG_Dispatch2            1001f3d3     libvcruntimed:exsup.obj
 0001:0001e3db       __NLG_Call                 1001f3db f   libvcruntimed:exsup.obj
 0001:0001e3dd       __NLG_Return2              1001f3dd     libvcruntimed:exsup.obj
 0001:0001e410       __get_unexpected           1001f410 f   libvcruntimed:unexpected.obj
 0001:0001e430       _set_unexpected            1001f430 f   libvcruntimed:unexpected.obj
 0001:0001e460       _unexpected                1001f460 f   libvcruntimed:unexpected.obj
 0001:0001e4a0       ?GetCurrentState@__FrameHandler3@@SAHPAUEHRegistrationNode@@PAXPBU_s_FuncInfo@@@Z 1001f4a0 f   libvcruntimed:ehstate.obj
 0001:0001e4d0       ?SetState@__FrameHandler3@@SAXPAUEHRegistrationNode@@PBU_s_FuncInfo@@H@Z 1001f4d0 f   libvcruntimed:ehstate.obj
 0001:0001e4e0       ___DestructExceptionObject 1001f4e0 f   libvcruntimed:ehhelpers.obj
 0001:0001e610       ?_CallMemberFunction0@@YGXQAX0@Z 1001f610 f i libvcruntimed:ehhelpers.obj
 0001:0001e630       ?raw_name@type_info@@QBEPBDXZ 1001f630 f i libvcruntimed:ehhelpers.obj
 0001:0001e650       __IsExceptionObjectToBeDestroyed 1001f650 f   libvcruntimed:ehhelpers.obj
 0001:0001e690       __SetWinRTOutOfMemoryExceptionCallback 1001f690 f   libvcruntimed:ehhelpers.obj
 0001:0001e6a0       ___AdjustPointer           1001f6a0 f   libvcruntimed:ehhelpers.obj
 0001:0001e6f0       ___FrameUnwindFilter       1001f6f0 f   libvcruntimed:ehhelpers.obj
 0001:0001e770       ___GetPlatformExceptionInfo 1001f770 f   libvcruntimed:ehhelpers.obj
 0001:0001e7f0       ___current_exception       1001f7f0 f   libvcruntimed:ehhelpers.obj
 0001:0001e800       ___current_exception_context 1001f800 f   libvcruntimed:ehhelpers.obj
 0001:0001e810       ___processing_throw        1001f810 f   libvcruntimed:ehhelpers.obj
 0001:0001e820       ___std_terminate           1001f820 f   libvcruntimed:ehhelpers.obj
 0001:0001e830       __is_exception_typeof      1001f830 f   libvcruntimed:ehhelpers.obj
 0001:0001e910       ??$__crt_interlocked_exchange_pointer@$$A6AXXZP6AXXZ@@YAP6AXXZPDS6AXXZQ6AXXZ@Z 1001f910 f i libvcruntimed:purevirt.obj
 0001:0001e920       ??$__crt_interlocked_read_pointer@$$A6AXXZ@@YAP6AXXZPDS6AXXZ@Z 1001f920 f i libvcruntimed:purevirt.obj
 0001:0001e940       __get_purecall_handler     1001f940 f   libvcruntimed:purevirt.obj
 0001:0001e960       __purecall                 1001f960 f   libvcruntimed:purevirt.obj
 0001:0001e990       __set_purecall_handler     1001f990 f   libvcruntimed:purevirt.obj
 0001:0001e9b0       _free                      1001f9b0 f   libucrtd:free.obj
 0001:0001e9e0       _malloc                    1001f9e0 f   libucrtd:malloc.obj
 0001:0001ea00       ??$?RU?$__crt_report_hook_node@D@@@__crt_internal_free_policy@@QBEXQBU?$__crt_report_hook_node@D@@@Z 1001fa00 f i libucrtd:dbgrpt.obj
 0001:0001ea20       ??$?RU?$__crt_report_hook_node@_W@@@__crt_internal_free_policy@@QBEXQBU?$__crt_report_hook_node@_W@@@Z 1001fa20 f i libucrtd:dbgrpt.obj
 0001:0001f810       ??$get_module_file_name@AAPAUHINSTANCE__@@AAY0BAF@DK@?$__crt_char_traits@D@@SAKAAPAUHINSTANCE__@@AAY0BAF@D$$QAK@Z 10020810 f i libucrtd:dbgrpt.obj
 0001:0001f830       ??$get_module_file_name@AAPAUHINSTANCE__@@AAY0BAF@_WK@?$__crt_char_traits@_W@@SAKAAPAUHINSTANCE__@@AAY0BAF@_W$$QAK@Z 10020830 f i libucrtd:dbgrpt.obj
 0001:0001f850       ??$tcscpy_s@AAY0BAF@DIPBD@?$__crt_char_traits@D@@SAHAAY0BAF@D$$QAI$$QAPBD@Z 10020850 f i libucrtd:dbgrpt.obj
 0001:0001f870       ??$tcscpy_s@AAY0BAF@_WIPB_W@?$__crt_char_traits@_W@@SAHAAY0BAF@_W$$QAI$$QAPB_W@Z 10020870 f i libucrtd:dbgrpt.obj
 0001:0001f890       ??$tcslen@AAY0BAF@D@?$__crt_char_traits@D@@SAIAAY0BAF@D@Z 10020890 f i libucrtd:dbgrpt.obj
 0001:0001f8b0       ??$tcslen@AAY0BAF@_W@?$__crt_char_traits@_W@@SAIAAY0BAF@_W@Z 100208b0 f i libucrtd:dbgrpt.obj
 0001:0001f8d0       ??$tcslen@ABQBD@?$__crt_char_traits@D@@SAIABQBD@Z 100208d0 f i libucrtd:dbgrpt.obj
 0001:0001f8f0       ??$tcslen@ABQB_W@?$__crt_char_traits@_W@@SAIABQB_W@Z 100208f0 f i libucrtd:dbgrpt.obj
 0001:0001f9f0       ??0?$__crt_unique_heap_ptr@U?$__crt_report_hook_node@D@@U__crt_internal_free_policy@@@@QAE@QAU?$__crt_report_hook_node@D@@@Z 100209f0 f i libucrtd:dbgrpt.obj
 0001:0001fa10       ??0?$__crt_unique_heap_ptr@U?$__crt_report_hook_node@_W@@U__crt_internal_free_policy@@@@QAE@QAU?$__crt_report_hook_node@_W@@@Z 10020a10 f i libucrtd:dbgrpt.obj
 0001:0001fa30       ??1?$__crt_unique_heap_ptr@U?$__crt_report_hook_node@D@@U__crt_internal_free_policy@@@@QAE@XZ 10020a30 f i libucrtd:dbgrpt.obj
 0001:0001fa50       ??1?$__crt_unique_heap_ptr@U?$__crt_report_hook_node@_W@@U__crt_internal_free_policy@@@@QAE@XZ 10020a50 f i libucrtd:dbgrpt.obj
 0001:0001fa70       ??B?$__crt_unique_heap_ptr@U?$__crt_report_hook_node@D@@U__crt_internal_free_policy@@@@QBE_NXZ 10020a70 f i libucrtd:dbgrpt.obj
 0001:0001fa90       ??B?$__crt_unique_heap_ptr@U?$__crt_report_hook_node@_W@@U__crt_internal_free_policy@@@@QBE_NXZ 10020a90 f i libucrtd:dbgrpt.obj
 0001:0001ffd0       ?detach@?$__crt_unique_heap_ptr@U?$__crt_report_hook_node@D@@U__crt_internal_free_policy@@@@QAEPAU?$__crt_report_hook_node@D@@XZ 10020fd0 f i libucrtd:dbgrpt.obj
 0001:00020000       ?detach@?$__crt_unique_heap_ptr@U?$__crt_report_hook_node@_W@@U__crt_internal_free_policy@@@@QAEPAU?$__crt_report_hook_node@_W@@XZ 10021000 f i libucrtd:dbgrpt.obj
 0001:00020030       ?get@?$__crt_unique_heap_ptr@U?$__crt_report_hook_node@D@@U__crt_internal_free_policy@@@@QBEPAU?$__crt_report_hook_node@D@@XZ 10021030 f i libucrtd:dbgrpt.obj
 0001:00020050       ?get@?$__crt_unique_heap_ptr@U?$__crt_report_hook_node@_W@@U__crt_internal_free_policy@@@@QBEPAU?$__crt_report_hook_node@_W@@XZ 10021050 f i libucrtd:dbgrpt.obj
 0001:000200d0       ?is_valid@?$__crt_unique_heap_ptr@U?$__crt_report_hook_node@D@@U__crt_internal_free_policy@@@@QBE_NXZ 100210d0 f i libucrtd:dbgrpt.obj
 0001:00020100       ?is_valid@?$__crt_unique_heap_ptr@U?$__crt_report_hook_node@_W@@U__crt_internal_free_policy@@@@QBE_NXZ 10021100 f i libucrtd:dbgrpt.obj
 0001:00020130       ?release@?$__crt_unique_heap_ptr@U?$__crt_report_hook_node@D@@U__crt_internal_free_policy@@@@QAEXXZ 10021130 f i libucrtd:dbgrpt.obj
 0001:00020160       ?release@?$__crt_unique_heap_ptr@U?$__crt_report_hook_node@_W@@U__crt_internal_free_policy@@@@QAEXXZ 10021160 f i libucrtd:dbgrpt.obj
 0001:00020190       __CrtDbgReport             10021190 f   libucrtd:dbgrpt.obj
 0001:000201e0       __CrtDbgReportW            100211e0 f   libucrtd:dbgrpt.obj
 0001:00020230       __CrtSetReportHook2        10021230 f   libucrtd:dbgrpt.obj
 0001:00020250       __CrtSetReportHookW2       10021250 f   libucrtd:dbgrpt.obj
 0001:00020270       ___acrt_MessageWindowA     10021270 f   libucrtd:dbgrpt.obj
 0001:000202a0       ___acrt_MessageWindowW     100212a0 f   libucrtd:dbgrpt.obj
 0001:000202d0       __invoke_watson_if_error   100212d0 f i libucrtd:dbgrpt.obj
 0001:00020300       __invoke_watson_if_oneof   10021300 f i libucrtd:dbgrpt.obj
 0001:00020340       __snwprintf_s              10021340 f i libucrtd:dbgrpt.obj
 0001:00020380       __vsnwprintf_s_l           10021380 f i libucrtd:dbgrpt.obj
 0001:00020700       _wcscpy_s                  10021700 f   libucrtd:wcscpy_s.obj
 0001:00021420       ??1?$__crt_simd_cleanup_guard@$00@@QAE@XZ 10022420 f i libucrtd:strnlen.obj
 0001:00021430       ??1?$__crt_simd_cleanup_guard@$0A@@@QAE@XZ 10022430 f i libucrtd:strnlen.obj
 0001:00021440       ?compare_equals@?$__crt_simd_traits@$00E@@SA?AT__m256i@@T2@0@Z 10022440 f i libucrtd:strnlen.obj
 0001:00021480       ?compare_equals@?$__crt_simd_traits@$00G@@SA?AT__m256i@@T2@0@Z 10022480 f i libucrtd:strnlen.obj
 0001:000214c0       ?compare_equals@?$__crt_simd_traits@$0A@E@@SA?AT__m128i@@T2@0@Z 100224c0 f i libucrtd:strnlen.obj
 0001:00021500       ?compare_equals@?$__crt_simd_traits@$0A@G@@SA?AT__m128i@@T2@0@Z 10022500 f i libucrtd:strnlen.obj
 0001:00021540       ?compute_byte_mask@?$__crt_simd_pack_traits@$00@@SAHT__m256i@@@Z 10022540 f i libucrtd:strnlen.obj
 0001:00021570       ?compute_byte_mask@?$__crt_simd_pack_traits@$0A@@@SAHT__m128i@@@Z 10022570 f i libucrtd:strnlen.obj
 0001:000215a0       ?get_zero_pack@?$__crt_simd_pack_traits@$00@@SA?AT__m256i@@XZ 100225a0 f i libucrtd:strnlen.obj
 0001:000215d0       ?get_zero_pack@?$__crt_simd_pack_traits@$0A@@@SA?AT__m128i@@XZ 100225d0 f i libucrtd:strnlen.obj
 0001:00021600       _strnlen                   10022600 f   libucrtd:strnlen.obj
 0001:00021620       _wcslen                    10022620 f   libucrtd:strnlen.obj
 0001:00021640       _wcsnlen                   10022640 f   libucrtd:strnlen.obj
 0001:00021660       ??$?0ABV?$stream_output_adapter@D@__crt_stdio_output@@AB_KABQBDABQAU__crt_locale_pointers@@ABQAD@?$format_validation_base@DV?$stream_output_adapter@D@__crt_stdio_output@@@__crt_stdio_output@@IAE@ABV?$stream_output_adapter@D@1@AB_KABQBDABQAU__crt_locale_pointers@@ABQAD@Z 10022660 f i libucrtd:output.obj
 0001:00021690       ??$?0ABV?$stream_output_adapter@D@__crt_stdio_output@@AB_KABQBDABQAU__crt_locale_pointers@@ABQAD@?$positional_parameter_base@DV?$stream_output_adapter@D@__crt_stdio_output@@@__crt_stdio_output@@IAE@ABV?$stream_output_adapter@D@1@AB_KABQBDABQAU__crt_locale_pointers@@ABQAD@Z 10022690 f i libucrtd:output.obj
 0001:00021710       ??$?0ABV?$stream_output_adapter@D@__crt_stdio_output@@AB_KABQBDABQAU__crt_locale_pointers@@ABQAD@?$standard_base@DV?$stream_output_adapter@D@__crt_stdio_output@@@__crt_stdio_output@@IAE@ABV?$stream_output_adapter@D@1@AB_KABQBDABQAU__crt_locale_pointers@@ABQAD@Z 10022710 f i libucrtd:output.obj
 0001:00021760       ??$?0ABV?$stream_output_adapter@_W@__crt_stdio_output@@AB_KABQB_WABQAU__crt_locale_pointers@@ABQAD@?$format_validation_base@_WV?$stream_output_adapter@_W@__crt_stdio_output@@@__crt_stdio_output@@IAE@ABV?$stream_output_adapter@_W@1@AB_KABQB_WABQAU__crt_locale_pointers@@ABQAD@Z 10022760 f i libucrtd:output.obj
 0001:00021790       ??$?0ABV?$stream_output_adapter@_W@__crt_stdio_output@@AB_KABQB_WABQAU__crt_locale_pointers@@ABQAD@?$positional_parameter_base@_WV?$stream_output_adapter@_W@__crt_stdio_output@@@__crt_stdio_output@@IAE@ABV?$stream_output_adapter@_W@1@AB_KABQB_WABQAU__crt_locale_pointers@@ABQAD@Z 10022790 f i libucrtd:output.obj
 0001:00021810       ??$?0ABV?$stream_output_adapter@_W@__crt_stdio_output@@AB_KABQB_WABQAU__crt_locale_pointers@@ABQAD@?$standard_base@_WV?$stream_output_adapter@_W@__crt_stdio_output@@@__crt_stdio_output@@IAE@ABV?$stream_output_adapter@_W@1@AB_KABQB_WABQAU__crt_locale_pointers@@ABQAD@Z 10022810 f i libucrtd:output.obj
 0001:00021860       ??$?0ABV?$string_output_adapter@D@__crt_stdio_output@@AB_KABQBDABQAU__crt_locale_pointers@@ABQAD@?$format_validation_base@DV?$string_output_adapter@D@__crt_stdio_output@@@__crt_stdio_output@@IAE@ABV?$string_output_adapter@D@1@AB_KABQBDABQAU__crt_locale_pointers@@ABQAD@Z 10022860 f i libucrtd:output.obj
 0001:00021890       ??$?0ABV?$string_output_adapter@D@__crt_stdio_output@@AB_KABQBDABQAU__crt_locale_pointers@@ABQAD@?$positional_parameter_base@DV?$string_output_adapter@D@__crt_stdio_output@@@__crt_stdio_output@@IAE@ABV?$string_output_adapter@D@1@AB_KABQBDABQAU__crt_locale_pointers@@ABQAD@Z 10022890 f i libucrtd:output.obj
 0001:00021910       ??$?0ABV?$string_output_adapter@D@__crt_stdio_output@@AB_KABQBDABQAU__crt_locale_pointers@@ABQAD@?$standard_base@DV?$string_output_adapter@D@__crt_stdio_output@@@__crt_stdio_output@@IAE@ABV?$string_output_adapter@D@1@AB_KABQBDABQAU__crt_locale_pointers@@ABQAD@Z 10022910 f i libucrtd:output.obj
 0001:00021960       ??$?0ABV?$string_output_adapter@_W@__crt_stdio_output@@AB_KABQB_WABQAU__crt_locale_pointers@@ABQAD@?$format_validation_base@_WV?$string_output_adapter@_W@__crt_stdio_output@@@__crt_stdio_output@@IAE@ABV?$string_output_adapter@_W@1@AB_KABQB_WABQAU__crt_locale_pointers@@ABQAD@Z 10022960 f i libucrtd:output.obj
 0001:00021990       ??$?0ABV?$string_output_adapter@_W@__crt_stdio_output@@AB_KABQB_WABQAU__crt_locale_pointers@@ABQAD@?$positional_parameter_base@_WV?$string_output_adapter@_W@__crt_stdio_output@@@__crt_stdio_output@@IAE@ABV?$string_output_adapter@_W@1@AB_KABQB_WABQAU__crt_locale_pointers@@ABQAD@Z 10022990 f i libucrtd:output.obj
 0001:00021a10       ??$?0ABV?$string_output_adapter@_W@__crt_stdio_output@@AB_KABQB_WABQAU__crt_locale_pointers@@ABQAD@?$standard_base@_WV?$string_output_adapter@_W@__crt_stdio_output@@@__crt_stdio_output@@IAE@ABV?$string_output_adapter@_W@1@AB_KABQB_WABQAU__crt_locale_pointers@@ABQAD@Z 10022a10 f i libucrtd:output.obj
 0001:00021f40       ??$__crt_interlocked_read@J@@YAJPDJ@Z 10022f40 f i libucrtd:output.obj
 0001:00024ce0       ??$count@D@formatting_buffer@__crt_stdio_output@@QBEIXZ 10025ce0 f i libucrtd:output.obj
 0001:00024d20       ??$count@_W@formatting_buffer@__crt_stdio_output@@QBEIXZ 10025d20 f i libucrtd:output.obj
 0001:00024d60       ??$data@D@formatting_buffer@__crt_stdio_output@@QAEPADXZ 10025d60 f i libucrtd:output.obj
 0001:00024da0       ??$data@_W@formatting_buffer@__crt_stdio_output@@QAEPA_WXZ 10025da0 f i libucrtd:output.obj
 0001:00024de0       ??$ensure_buffer_is_big_enough@D@formatting_buffer@__crt_stdio_output@@QAE_NI@Z 10025de0 f i libucrtd:output.obj
 0001:00024ec0       ??$ensure_buffer_is_big_enough@_W@formatting_buffer@__crt_stdio_output@@QAE_NI@Z 10025ec0 f i libucrtd:output.obj
 0001:00024fb0       ??$extract_argument_from_va_list@C_J@?$positional_parameter_base@DV?$stream_output_adapter@D@__crt_stdio_output@@@__crt_stdio_output@@IAE_NAA_J@Z 10025fb0 f i libucrtd:output.obj
 0001:000250f0       ??$extract_argument_from_va_list@C_J@?$positional_parameter_base@DV?$string_output_adapter@D@__crt_stdio_output@@@__crt_stdio_output@@IAE_NAA_J@Z 100260f0 f i libucrtd:output.obj
 0001:00025230       ??$extract_argument_from_va_list@C_J@?$positional_parameter_base@_WV?$stream_output_adapter@_W@__crt_stdio_output@@@__crt_stdio_output@@IAE_NAA_J@Z 10026230 f i libucrtd:output.obj
 0001:00025370       ??$extract_argument_from_va_list@C_J@?$positional_parameter_base@_WV?$string_output_adapter@_W@__crt_stdio_output@@@__crt_stdio_output@@IAE_NAA_J@Z 10026370 f i libucrtd:output.obj
 0001:000254b0       ??$extract_argument_from_va_list@C_J@?$standard_base@DV?$stream_output_adapter@D@__crt_stdio_output@@@__crt_stdio_output@@IAE_NAA_J@Z 100264b0 f i libucrtd:output.obj
 0001:000254e0       ??$extract_argument_from_va_list@C_J@?$standard_base@DV?$string_output_adapter@D@__crt_stdio_output@@@__crt_stdio_output@@IAE_NAA_J@Z 100264e0 f i libucrtd:output.obj
 0001:00025510       ??$extract_argument_from_va_list@C_J@?$standard_base@_WV?$stream_output_adapter@_W@__crt_stdio_output@@@__crt_stdio_output@@IAE_NAA_J@Z 10026510 f i libucrtd:output.obj
 0001:00025540       ??$extract_argument_from_va_list@C_J@?$standard_base@_WV?$string_output_adapter@_W@__crt_stdio_output@@@__crt_stdio_output@@IAE_NAA_J@Z 10026540 f i libucrtd:output.obj
 0001:00025570       ??$extract_argument_from_va_list@E_J@?$positional_parameter_base@DV?$stream_output_adapter@D@__crt_stdio_output@@@__crt_stdio_output@@IAE_NAA_J@Z 10026570 f i libucrtd:output.obj
 0001:000256b0       ??$extract_argument_from_va_list@E_J@?$positional_parameter_base@DV?$string_output_adapter@D@__crt_stdio_output@@@__crt_stdio_output@@IAE_NAA_J@Z 100266b0 f i libucrtd:output.obj
 0001:000257f0       ??$extract_argument_from_va_list@E_J@?$positional_parameter_base@_WV?$stream_output_adapter@_W@__crt_stdio_output@@@__crt_stdio_output@@IAE_NAA_J@Z 100267f0 f i libucrtd:output.obj
 0001:00025930       ??$extract_argument_from_va_list@E_J@?$positional_parameter_base@_WV?$string_output_adapter@_W@__crt_stdio_output@@@__crt_stdio_output@@IAE_NAA_J@Z 10026930 f i libucrtd:output.obj
 0001:00025a70       ??$extract_argument_from_va_list@E_J@?$standard_base@DV?$stream_output_adapter@D@__crt_stdio_output@@@__crt_stdio_output@@IAE_NAA_J@Z 10026a70 f i libucrtd:output.obj
 0001:00025aa0       ??$extract_argument_from_va_list@E_J@?$standard_base@DV?$string_output_adapter@D@__crt_stdio_output@@@__crt_stdio_output@@IAE_NAA_J@Z 10026aa0 f i libucrtd:output.obj
 0001:00025ad0       ??$extract_argument_from_va_list@E_J@?$standard_base@_WV?$stream_output_adapter@_W@__crt_stdio_output@@@__crt_stdio_output@@IAE_NAA_J@Z 10026ad0 f i libucrtd:output.obj
 0001:00025b00       ??$extract_argument_from_va_list@E_J@?$standard_base@_WV?$string_output_adapter@_W@__crt_stdio_output@@@__crt_stdio_output@@IAE_NAA_J@Z 10026b00 f i libucrtd:output.obj
 0001:00025b30       ??$extract_argument_from_va_list@F_J@?$positional_parameter_base@DV?$stream_output_adapter@D@__crt_stdio_output@@@__crt_stdio_output@@IAE_NAA_J@Z 10026b30 f i libucrtd:output.obj
 0001:00025c60       ??$extract_argument_from_va_list@F_J@?$positional_parameter_base@DV?$string_output_adapter@D@__crt_stdio_output@@@__crt_stdio_output@@IAE_NAA_J@Z 10026c60 f i libucrtd:output.obj
 0001:00025d90       ??$extract_argument_from_va_list@F_J@?$positional_parameter_base@_WV?$stream_output_adapter@_W@__crt_stdio_output@@@__crt_stdio_output@@IAE_NAA_J@Z 10026d90 f i libucrtd:output.obj
 0001:00025ec0       ??$extract_argument_from_va_list@F_J@?$positional_parameter_base@_WV?$string_output_adapter@_W@__crt_stdio_output@@@__crt_stdio_output@@IAE_NAA_J@Z 10026ec0 f i libucrtd:output.obj
 0001:00025ff0       ??$extract_argument_from_va_list@F_J@?$standard_base@DV?$stream_output_adapter@D@__crt_stdio_output@@@__crt_stdio_output@@IAE_NAA_J@Z 10026ff0 f i libucrtd:output.obj
 0001:00026020       ??$extract_argument_from_va_list@F_J@?$standard_base@DV?$string_output_adapter@D@__crt_stdio_output@@@__crt_stdio_output@@IAE_NAA_J@Z 10027020 f i libucrtd:output.obj
 0001:00026050       ??$extract_argument_from_va_list@F_J@?$standard_base@_WV?$stream_output_adapter@_W@__crt_stdio_output@@@__crt_stdio_output@@IAE_NAA_J@Z 10027050 f i libucrtd:output.obj
 0001:00026080       ??$extract_argument_from_va_list@F_J@?$standard_base@_WV?$string_output_adapter@_W@__crt_stdio_output@@@__crt_stdio_output@@IAE_NAA_J@Z 10027080 f i libucrtd:output.obj
 0001:000260b0       ??$extract_argument_from_va_list@GD@?$positional_parameter_base@DV?$stream_output_adapter@D@__crt_stdio_output@@@__crt_stdio_output@@IAE_NAAD@Z 100270b0 f i libucrtd:output.obj
 0001:000261e0       ??$extract_argument_from_va_list@GD@?$positional_parameter_base@DV?$string_output_adapter@D@__crt_stdio_output@@@__crt_stdio_output@@IAE_NAAD@Z 100271e0 f i libucrtd:output.obj
 0001:00026310       ??$extract_argument_from_va_list@GD@?$standard_base@DV?$stream_output_adapter@D@__crt_stdio_output@@@__crt_stdio_output@@IAE_NAAD@Z 10027310 f i libucrtd:output.obj
 0001:00026340       ??$extract_argument_from_va_list@GD@?$standard_base@DV?$string_output_adapter@D@__crt_stdio_output@@@__crt_stdio_output@@IAE_NAAD@Z 10027340 f i libucrtd:output.obj
 0001:00026370       ??$extract_argument_from_va_list@G_J@?$positional_parameter_base@DV?$stream_output_adapter@D@__crt_stdio_output@@@__crt_stdio_output@@IAE_NAA_J@Z 10027370 f i libucrtd:output.obj
 0001:000264b0       ??$extract_argument_from_va_list@G_J@?$positional_parameter_base@DV?$string_output_adapter@D@__crt_stdio_output@@@__crt_stdio_output@@IAE_NAA_J@Z 100274b0 f i libucrtd:output.obj
 0001:000265f0       ??$extract_argument_from_va_list@G_J@?$positional_parameter_base@_WV?$stream_output_adapter@_W@__crt_stdio_output@@@__crt_stdio_output@@IAE_NAA_J@Z 100275f0 f i libucrtd:output.obj
 0001:00026730       ??$extract_argument_from_va_list@G_J@?$positional_parameter_base@_WV?$string_output_adapter@_W@__crt_stdio_output@@@__crt_stdio_output@@IAE_NAA_J@Z 10027730 f i libucrtd:output.obj
 0001:00026870       ??$extract_argument_from_va_list@G_J@?$standard_base@DV?$stream_output_adapter@D@__crt_stdio_output@@@__crt_stdio_output@@IAE_NAA_J@Z 10027870 f i libucrtd:output.obj
 0001:000268a0       ??$extract_argument_from_va_list@G_J@?$standard_base@DV?$string_output_adapter@D@__crt_stdio_output@@@__crt_stdio_output@@IAE_NAA_J@Z 100278a0 f i libucrtd:output.obj
 0001:000268d0       ??$extract_argument_from_va_list@G_J@?$standard_base@_WV?$stream_output_adapter@_W@__crt_stdio_output@@@__crt_stdio_output@@IAE_NAA_J@Z 100278d0 f i libucrtd:output.obj
 0001:00026900       ??$extract_argument_from_va_list@G_J@?$standard_base@_WV?$string_output_adapter@_W@__crt_stdio_output@@@__crt_stdio_output@@IAE_NAA_J@Z 10027900 f i libucrtd:output.obj
 0001:00026930       ??$extract_argument_from_va_list@H_J@?$positional_parameter_base@DV?$stream_output_adapter@D@__crt_stdio_output@@@__crt_stdio_output@@IAE_NAA_J@Z 10027930 f i libucrtd:output.obj
 0001:00026a60       ??$extract_argument_from_va_list@H_J@?$positional_parameter_base@DV?$string_output_adapter@D@__crt_stdio_output@@@__crt_stdio_output@@IAE_NAA_J@Z 10027a60 f i libucrtd:output.obj
 0001:00026b90       ??$extract_argument_from_va_list@H_J@?$positional_parameter_base@_WV?$stream_output_adapter@_W@__crt_stdio_output@@@__crt_stdio_output@@IAE_NAA_J@Z 10027b90 f i libucrtd:output.obj
 0001:00026cc0       ??$extract_argument_from_va_list@H_J@?$positional_parameter_base@_WV?$string_output_adapter@_W@__crt_stdio_output@@@__crt_stdio_output@@IAE_NAA_J@Z 10027cc0 f i libucrtd:output.obj
 0001:00026df0       ??$extract_argument_from_va_list@H_J@?$standard_base@DV?$stream_output_adapter@D@__crt_stdio_output@@@__crt_stdio_output@@IAE_NAA_J@Z 10027df0 f i libucrtd:output.obj
 0001:00026e20       ??$extract_argument_from_va_list@H_J@?$standard_base@DV?$string_output_adapter@D@__crt_stdio_output@@@__crt_stdio_output@@IAE_NAA_J@Z 10027e20 f i libucrtd:output.obj
 0001:00026e50       ??$extract_argument_from_va_list@H_J@?$standard_base@_WV?$stream_output_adapter@_W@__crt_stdio_output@@@__crt_stdio_output@@IAE_NAA_J@Z 10027e50 f i libucrtd:output.obj
 0001:00026e80       ??$extract_argument_from_va_list@H_J@?$standard_base@_WV?$string_output_adapter@_W@__crt_stdio_output@@@__crt_stdio_output@@IAE_NAA_J@Z 10027e80 f i libucrtd:output.obj
 0001:00026eb0       ??$extract_argument_from_va_list@I_J@?$positional_parameter_base@DV?$stream_output_adapter@D@__crt_stdio_output@@@__crt_stdio_output@@IAE_NAA_J@Z 10027eb0 f i libucrtd:output.obj
 0001:00026fe0       ??$extract_argument_from_va_list@I_J@?$positional_parameter_base@DV?$string_output_adapter@D@__crt_stdio_output@@@__crt_stdio_output@@IAE_NAA_J@Z 10027fe0 f i libucrtd:output.obj
 0001:00027110       ??$extract_argument_from_va_list@I_J@?$positional_parameter_base@_WV?$stream_output_adapter@_W@__crt_stdio_output@@@__crt_stdio_output@@IAE_NAA_J@Z 10028110 f i libucrtd:output.obj
 0001:00027240       ??$extract_argument_from_va_list@I_J@?$positional_parameter_base@_WV?$string_output_adapter@_W@__crt_stdio_output@@@__crt_stdio_output@@IAE_NAA_J@Z 10028240 f i libucrtd:output.obj
 0001:00027370       ??$extract_argument_from_va_list@I_J@?$standard_base@DV?$stream_output_adapter@D@__crt_stdio_output@@@__crt_stdio_output@@IAE_NAA_J@Z 10028370 f i libucrtd:output.obj
 0001:000273a0       ??$extract_argument_from_va_list@I_J@?$standard_base@DV?$string_output_adapter@D@__crt_stdio_output@@@__crt_stdio_output@@IAE_NAA_J@Z 100283a0 f i libucrtd:output.obj
 0001:000273d0       ??$extract_argument_from_va_list@I_J@?$standard_base@_WV?$stream_output_adapter@_W@__crt_stdio_output@@@__crt_stdio_output@@IAE_NAA_J@Z 100283d0 f i libucrtd:output.obj
 0001:00027400       ??$extract_argument_from_va_list@I_J@?$standard_base@_WV?$string_output_adapter@_W@__crt_stdio_output@@@__crt_stdio_output@@IAE_NAA_J@Z 10028400 f i libucrtd:output.obj
 0001:00027430       ??$extract_argument_from_va_list@PADPAD@?$positional_parameter_base@DV?$stream_output_adapter@D@__crt_stdio_output@@@__crt_stdio_output@@IAE_NAAPAD@Z 10028430 f i libucrtd:output.obj
 0001:00027560       ??$extract_argument_from_va_list@PADPAD@?$positional_parameter_base@DV?$string_output_adapter@D@__crt_stdio_output@@@__crt_stdio_output@@IAE_NAAPAD@Z 10028560 f i libucrtd:output.obj
 0001:00027690       ??$extract_argument_from_va_list@PADPAD@?$positional_parameter_base@_WV?$stream_output_adapter@_W@__crt_stdio_output@@@__crt_stdio_output@@IAE_NAAPAD@Z 10028690 f i libucrtd:output.obj
 0001:000277c0       ??$extract_argument_from_va_list@PADPAD@?$positional_parameter_base@_WV?$string_output_adapter@_W@__crt_stdio_output@@@__crt_stdio_output@@IAE_NAAPAD@Z 100287c0 f i libucrtd:output.obj
 0001:000278f0       ??$extract_argument_from_va_list@PADPAD@?$standard_base@DV?$stream_output_adapter@D@__crt_stdio_output@@@__crt_stdio_output@@IAE_NAAPAD@Z 100288f0 f i libucrtd:output.obj
 0001:00027920       ??$extract_argument_from_va_list@PADPAD@?$standard_base@DV?$string_output_adapter@D@__crt_stdio_output@@@__crt_stdio_output@@IAE_NAAPAD@Z 10028920 f i libucrtd:output.obj
 0001:00027950       ??$extract_argument_from_va_list@PADPAD@?$standard_base@_WV?$stream_output_adapter@_W@__crt_stdio_output@@@__crt_stdio_output@@IAE_NAAPAD@Z 10028950 f i libucrtd:output.obj
 0001:00027980       ??$extract_argument_from_va_list@PADPAD@?$standard_base@_WV?$string_output_adapter@_W@__crt_stdio_output@@@__crt_stdio_output@@IAE_NAAPAD@Z 10028980 f i libucrtd:output.obj
 0001:000280b0       ??$extract_argument_from_va_list@PAXPAX@?$positional_parameter_base@DV?$stream_output_adapter@D@__crt_stdio_output@@@__crt_stdio_output@@IAE_NAAPAX@Z 100290b0 f i libucrtd:output.obj
 0001:000281e0       ??$extract_argument_from_va_list@PAXPAX@?$positional_parameter_base@DV?$string_output_adapter@D@__crt_stdio_output@@@__crt_stdio_output@@IAE_NAAPAX@Z 100291e0 f i libucrtd:output.obj
 0001:00028310       ??$extract_argument_from_va_list@PAXPAX@?$positional_parameter_base@_WV?$stream_output_adapter@_W@__crt_stdio_output@@@__crt_stdio_output@@IAE_NAAPAX@Z 10029310 f i libucrtd:output.obj
 0001:00028440       ??$extract_argument_from_va_list@PAXPAX@?$positional_parameter_base@_WV?$string_output_adapter@_W@__crt_stdio_output@@@__crt_stdio_output@@IAE_NAAPAX@Z 10029440 f i libucrtd:output.obj
 0001:00028570       ??$extract_argument_from_va_list@PAXPAX@?$standard_base@DV?$stream_output_adapter@D@__crt_stdio_output@@@__crt_stdio_output@@IAE_NAAPAX@Z 10029570 f i libucrtd:output.obj
 0001:000285a0       ??$extract_argument_from_va_list@PAXPAX@?$standard_base@DV?$string_output_adapter@D@__crt_stdio_output@@@__crt_stdio_output@@IAE_NAAPAX@Z 100295a0 f i libucrtd:output.obj
 0001:000285d0       ??$extract_argument_from_va_list@PAXPAX@?$standard_base@_WV?$stream_output_adapter@_W@__crt_stdio_output@@@__crt_stdio_output@@IAE_NAAPAX@Z 100295d0 f i libucrtd:output.obj
 0001:00028600       ??$extract_argument_from_va_list@PAXPAX@?$standard_base@_WV?$string_output_adapter@_W@__crt_stdio_output@@@__crt_stdio_output@@IAE_NAAPAX@Z 10029600 f i libucrtd:output.obj
 0001:00028630       ??$extract_argument_from_va_list@U_CRT_DOUBLE@@U1@@?$positional_parameter_base@DV?$stream_output_adapter@D@__crt_stdio_output@@@__crt_stdio_output@@IAE_NAAU_CRT_DOUBLE@@@Z 10029630 f i libucrtd:output.obj
 0001:00028790       ??$extract_argument_from_va_list@U_CRT_DOUBLE@@U1@@?$positional_parameter_base@DV?$string_output_adapter@D@__crt_stdio_output@@@__crt_stdio_output@@IAE_NAAU_CRT_DOUBLE@@@Z 10029790 f i libucrtd:output.obj
 0001:000288f0       ??$extract_argument_from_va_list@U_CRT_DOUBLE@@U1@@?$positional_parameter_base@_WV?$stream_output_adapter@_W@__crt_stdio_output@@@__crt_stdio_output@@IAE_NAAU_CRT_DOUBLE@@@Z 100298f0 f i libucrtd:output.obj
 0001:00028a50       ??$extract_argument_from_va_list@U_CRT_DOUBLE@@U1@@?$positional_parameter_base@_WV?$string_output_adapter@_W@__crt_stdio_output@@@__crt_stdio_output@@IAE_NAAU_CRT_DOUBLE@@@Z 10029a50 f i libucrtd:output.obj
 0001:00028bb0       ??$extract_argument_from_va_list@U_CRT_DOUBLE@@U1@@?$standard_base@DV?$stream_output_adapter@D@__crt_stdio_output@@@__crt_stdio_output@@IAE_NAAU_CRT_DOUBLE@@@Z 10029bb0 f i libucrtd:output.obj
 0001:00028c00       ??$extract_argument_from_va_list@U_CRT_DOUBLE@@U1@@?$standard_base@DV?$string_output_adapter@D@__crt_stdio_output@@@__crt_stdio_output@@IAE_NAAU_CRT_DOUBLE@@@Z 10029c00 f i libucrtd:output.obj
 0001:00028c50       ??$extract_argument_from_va_list@U_CRT_DOUBLE@@U1@@?$standard_base@_WV?$stream_output_adapter@_W@__crt_stdio_output@@@__crt_stdio_output@@IAE_NAAU_CRT_DOUBLE@@@Z 10029c50 f i libucrtd:output.obj
 0001:00028ca0       ??$extract_argument_from_va_list@U_CRT_DOUBLE@@U1@@?$standard_base@_WV?$string_output_adapter@_W@__crt_stdio_output@@@__crt_stdio_output@@IAE_NAAU_CRT_DOUBLE@@@Z 10029ca0 f i libucrtd:output.obj
 0001:00028cf0       ??$extract_argument_from_va_list@_J_J@?$positional_parameter_base@DV?$stream_output_adapter@D@__crt_stdio_output@@@__crt_stdio_output@@IAE_NAA_J@Z 10029cf0 f i libucrtd:output.obj
 0001:00028e20       ??$extract_argument_from_va_list@_J_J@?$positional_parameter_base@DV?$string_output_adapter@D@__crt_stdio_output@@@__crt_stdio_output@@IAE_NAA_J@Z 10029e20 f i libucrtd:output.obj
 0001:00028f50       ??$extract_argument_from_va_list@_J_J@?$positional_parameter_base@_WV?$stream_output_adapter@_W@__crt_stdio_output@@@__crt_stdio_output@@IAE_NAA_J@Z 10029f50 f i libucrtd:output.obj
 0001:00029080       ??$extract_argument_from_va_list@_J_J@?$positional_parameter_base@_WV?$string_output_adapter@_W@__crt_stdio_output@@@__crt_stdio_output@@IAE_NAA_J@Z 1002a080 f i libucrtd:output.obj
 0001:000291b0       ??$extract_argument_from_va_list@_J_J@?$standard_base@DV?$stream_output_adapter@D@__crt_stdio_output@@@__crt_stdio_output@@IAE_NAA_J@Z 1002a1b0 f i libucrtd:output.obj
 0001:000291e0       ??$extract_argument_from_va_list@_J_J@?$standard_base@DV?$string_output_adapter@D@__crt_stdio_output@@@__crt_stdio_output@@IAE_NAA_J@Z 1002a1e0 f i libucrtd:output.obj
 0001:00029210       ??$extract_argument_from_va_list@_J_J@?$standard_base@_WV?$stream_output_adapter@_W@__crt_stdio_output@@@__crt_stdio_output@@IAE_NAA_J@Z 1002a210 f i libucrtd:output.obj
 0001:00029240       ??$extract_argument_from_va_list@_J_J@?$standard_base@_WV?$string_output_adapter@_W@__crt_stdio_output@@@__crt_stdio_output@@IAE_NAA_J@Z 1002a240 f i libucrtd:output.obj
 0001:00029270       ??$extract_argument_from_va_list@_K_J@?$positional_parameter_base@DV?$stream_output_adapter@D@__crt_stdio_output@@@__crt_stdio_output@@IAE_NAA_J@Z 1002a270 f i libucrtd:output.obj
 0001:000293a0       ??$extract_argument_from_va_list@_K_J@?$positional_parameter_base@DV?$string_output_adapter@D@__crt_stdio_output@@@__crt_stdio_output@@IAE_NAA_J@Z 1002a3a0 f i libucrtd:output.obj
 0001:000294d0       ??$extract_argument_from_va_list@_K_J@?$positional_parameter_base@_WV?$stream_output_adapter@_W@__crt_stdio_output@@@__crt_stdio_output@@IAE_NAA_J@Z 1002a4d0 f i libucrtd:output.obj
 0001:00029600       ??$extract_argument_from_va_list@_K_J@?$positional_parameter_base@_WV?$string_output_adapter@_W@__crt_stdio_output@@@__crt_stdio_output@@IAE_NAA_J@Z 1002a600 f i libucrtd:output.obj
 0001:00029730       ??$extract_argument_from_va_list@_K_J@?$standard_base@DV?$stream_output_adapter@D@__crt_stdio_output@@@__crt_stdio_output@@IAE_NAA_J@Z 1002a730 f i libucrtd:output.obj
 0001:00029760       ??$extract_argument_from_va_list@_K_J@?$standard_base@DV?$string_output_adapter@D@__crt_stdio_output@@@__crt_stdio_output@@IAE_NAA_J@Z 1002a760 f i libucrtd:output.obj
 0001:00029790       ??$extract_argument_from_va_list@_K_J@?$standard_base@_WV?$stream_output_adapter@_W@__crt_stdio_output@@@__crt_stdio_output@@IAE_NAA_J@Z 1002a790 f i libucrtd:output.obj
 0001:000297c0       ??$extract_argument_from_va_list@_K_J@?$standard_base@_WV?$string_output_adapter@_W@__crt_stdio_output@@@__crt_stdio_output@@IAE_NAA_J@Z 1002a7c0 f i libucrtd:output.obj
 0001:000297f0       ??$extract_argument_from_va_list@_W_W@?$positional_parameter_base@DV?$stream_output_adapter@D@__crt_stdio_output@@@__crt_stdio_output@@IAE_NAA_W@Z 1002a7f0 f i libucrtd:output.obj
 0001:00029920       ??$extract_argument_from_va_list@_W_W@?$positional_parameter_base@DV?$string_output_adapter@D@__crt_stdio_output@@@__crt_stdio_output@@IAE_NAA_W@Z 1002a920 f i libucrtd:output.obj
 0001:00029a50       ??$extract_argument_from_va_list@_W_W@?$positional_parameter_base@_WV?$stream_output_adapter@_W@__crt_stdio_output@@@__crt_stdio_output@@IAE_NAA_W@Z 1002aa50 f i libucrtd:output.obj
 0001:00029b80       ??$extract_argument_from_va_list@_W_W@?$positional_parameter_base@_WV?$string_output_adapter@_W@__crt_stdio_output@@@__crt_stdio_output@@IAE_NAA_W@Z 1002ab80 f i libucrtd:output.obj
 0001:00029cb0       ??$extract_argument_from_va_list@_W_W@?$standard_base@DV?$stream_output_adapter@D@__crt_stdio_output@@@__crt_stdio_output@@IAE_NAA_W@Z 1002acb0 f i libucrtd:output.obj
 0001:00029ce0       ??$extract_argument_from_va_list@_W_W@?$standard_base@DV?$string_output_adapter@D@__crt_stdio_output@@@__crt_stdio_output@@IAE_NAA_W@Z 1002ace0 f i libucrtd:output.obj
 0001:00029d10       ??$extract_argument_from_va_list@_W_W@?$standard_base@_WV?$stream_output_adapter@_W@__crt_stdio_output@@@__crt_stdio_output@@IAE_NAA_W@Z 1002ad10 f i libucrtd:output.obj
 0001:00029d40       ??$extract_argument_from_va_list@_W_W@?$standard_base@_WV?$string_output_adapter@_W@__crt_stdio_output@@@__crt_stdio_output@@IAE_NAA_W@Z 1002ad40 f i libucrtd:output.obj
 0001:00029d70       ??$get_parameter_type@D@?$positional_parameter_base@DV?$stream_output_adapter@D@__crt_stdio_output@@@__crt_stdio_output@@CA?AW4parameter_type@01@PAD@Z 1002ad70 f i libucrtd:output.obj
 0001:00029d80       ??$get_parameter_type@D@?$positional_parameter_base@DV?$string_output_adapter@D@__crt_stdio_output@@@__crt_stdio_output@@CA?AW4parameter_type@01@PAD@Z 1002ad80 f i libucrtd:output.obj
 0001:00029d90       ??$get_parameter_type@D@?$positional_parameter_base@_WV?$stream_output_adapter@_W@__crt_stdio_output@@@__crt_stdio_output@@CA?AW4parameter_type@01@PAD@Z 1002ad90 f i libucrtd:output.obj
 0001:00029da0       ??$get_parameter_type@D@?$positional_parameter_base@_WV?$string_output_adapter@_W@__crt_stdio_output@@@__crt_stdio_output@@CA?AW4parameter_type@01@PAD@Z 1002ada0 f i libucrtd:output.obj
 0001:00029df0       ??$get_parameter_type@X@?$positional_parameter_base@DV?$stream_output_adapter@D@__crt_stdio_output@@@__crt_stdio_output@@CA?AW4parameter_type@01@PAX@Z 1002adf0 f i libucrtd:output.obj
 0001:00029e00       ??$get_parameter_type@X@?$positional_parameter_base@DV?$string_output_adapter@D@__crt_stdio_output@@@__crt_stdio_output@@CA?AW4parameter_type@01@PAX@Z 1002ae00 f i libucrtd:output.obj
 0001:00029e10       ??$get_parameter_type@X@?$positional_parameter_base@_WV?$stream_output_adapter@_W@__crt_stdio_output@@@__crt_stdio_output@@CA?AW4parameter_type@01@PAX@Z 1002ae10 f i libucrtd:output.obj
 0001:00029e20       ??$get_parameter_type@X@?$positional_parameter_base@_WV?$string_output_adapter@_W@__crt_stdio_output@@@__crt_stdio_output@@CA?AW4parameter_type@01@PAX@Z 1002ae20 f i libucrtd:output.obj
 0001:00029e30       ??$is_character_specifier@D@?$positional_parameter_base@DV?$stream_output_adapter@D@__crt_stdio_output@@@__crt_stdio_output@@CA_ND@Z 1002ae30 f i libucrtd:output.obj
 0001:00029e60       ??$is_character_specifier@D@?$positional_parameter_base@DV?$string_output_adapter@D@__crt_stdio_output@@@__crt_stdio_output@@CA_ND@Z 1002ae60 f i libucrtd:output.obj
 0001:00029e90       ??$is_character_specifier@_W@?$positional_parameter_base@_WV?$stream_output_adapter@_W@__crt_stdio_output@@@__crt_stdio_output@@CA_N_W@Z 1002ae90 f i libucrtd:output.obj
 0001:00029ec0       ??$is_character_specifier@_W@?$positional_parameter_base@_WV?$string_output_adapter@_W@__crt_stdio_output@@@__crt_stdio_output@@CA_N_W@Z 1002aec0 f i libucrtd:output.obj
 0001:00029ef0       ??$is_integral_specifier@D@?$positional_parameter_base@DV?$stream_output_adapter@D@__crt_stdio_output@@@__crt_stdio_output@@CA_ND@Z 1002aef0 f i libucrtd:output.obj
 0001:00029f50       ??$is_integral_specifier@D@?$positional_parameter_base@DV?$string_output_adapter@D@__crt_stdio_output@@@__crt_stdio_output@@CA_ND@Z 1002af50 f i libucrtd:output.obj
 0001:00029fb0       ??$is_integral_specifier@_W@?$positional_parameter_base@_WV?$stream_output_adapter@_W@__crt_stdio_output@@@__crt_stdio_output@@CA_N_W@Z 1002afb0 f i libucrtd:output.obj
 0001:0002a010       ??$is_integral_specifier@_W@?$positional_parameter_base@_WV?$string_output_adapter@_W@__crt_stdio_output@@@__crt_stdio_output@@CA_N_W@Z 1002b010 f i libucrtd:output.obj
 0001:0002a070       ??$is_pointer_specifier@D@?$positional_parameter_base@DV?$stream_output_adapter@D@__crt_stdio_output@@@__crt_stdio_output@@CA_ND@Z 1002b070 f i libucrtd:output.obj
 0001:0002a0a0       ??$is_pointer_specifier@D@?$positional_parameter_base@DV?$string_output_adapter@D@__crt_stdio_output@@@__crt_stdio_output@@CA_ND@Z 1002b0a0 f i libucrtd:output.obj
 0001:0002a0d0       ??$is_pointer_specifier@_W@?$positional_parameter_base@_WV?$stream_output_adapter@_W@__crt_stdio_output@@@__crt_stdio_output@@CA_N_W@Z 1002b0d0 f i libucrtd:output.obj
 0001:0002a100       ??$is_pointer_specifier@_W@?$positional_parameter_base@_WV?$string_output_adapter@_W@__crt_stdio_output@@@__crt_stdio_output@@CA_N_W@Z 1002b100 f i libucrtd:output.obj
 0001:0002a130       ??$is_string_specifier@D@?$positional_parameter_base@DV?$stream_output_adapter@D@__crt_stdio_output@@@__crt_stdio_output@@CA_ND@Z 1002b130 f i libucrtd:output.obj
 0001:0002a160       ??$is_string_specifier@D@?$positional_parameter_base@DV?$string_output_adapter@D@__crt_stdio_output@@@__crt_stdio_output@@CA_ND@Z 1002b160 f i libucrtd:output.obj
 0001:0002a190       ??$is_string_specifier@_W@?$positional_parameter_base@_WV?$stream_output_adapter@_W@__crt_stdio_output@@@__crt_stdio_output@@CA_N_W@Z 1002b190 f i libucrtd:output.obj
 0001:0002a1c0       ??$is_string_specifier@_W@?$positional_parameter_base@_WV?$string_output_adapter@_W@__crt_stdio_output@@@__crt_stdio_output@@CA_N_W@Z 1002b1c0 f i libucrtd:output.obj
 0001:0002a1f0       ??$is_wide_character_specifier@D@__crt_stdio_output@@YA_N_KDW4length_modifier@0@@Z 1002b1f0 f i libucrtd:output.obj
 0001:0002a270       ??$is_wide_character_specifier@_W@__crt_stdio_output@@YA_N_K_WW4length_modifier@0@@Z 1002b270 f i libucrtd:output.obj
 0001:0002a330       ??$peek_va_arg@C@__crt_stdio_output@@YACPAD@Z 1002b330 f i libucrtd:output.obj
 0001:0002a350       ??$peek_va_arg@E@__crt_stdio_output@@YAEPAD@Z 1002b350 f i libucrtd:output.obj
 0001:0002a370       ??$peek_va_arg@F@__crt_stdio_output@@YAFPAD@Z 1002b370 f i libucrtd:output.obj
 0001:0002a390       ??$peek_va_arg@G@__crt_stdio_output@@YAGPAD@Z 1002b390 f i libucrtd:output.obj
 0001:0002a3b0       ??$peek_va_arg@H@__crt_stdio_output@@YAHPAD@Z 1002b3b0 f i libucrtd:output.obj
 0001:0002a3d0       ??$peek_va_arg@I@__crt_stdio_output@@YAIPAD@Z 1002b3d0 f i libucrtd:output.obj
 0001:0002a3f0       ??$peek_va_arg@PAD@__crt_stdio_output@@YAPADPAD@Z 1002b3f0 f i libucrtd:output.obj
 0001:0002a490       ??$peek_va_arg@PAX@__crt_stdio_output@@YAPAXPAD@Z 1002b490 f i libucrtd:output.obj
 0001:0002a4b0       ??$peek_va_arg@U_CRT_DOUBLE@@@__crt_stdio_output@@YA?AU_CRT_DOUBLE@@PAD@Z 1002b4b0 f i libucrtd:output.obj
 0001:0002a4d0       ??$peek_va_arg@_J@__crt_stdio_output@@YA_JPAD@Z 1002b4d0 f i libucrtd:output.obj
 0001:0002a4f0       ??$peek_va_arg@_K@__crt_stdio_output@@YA_KPAD@Z 1002b4f0 f i libucrtd:output.obj
 0001:0002a510       ??$peek_va_arg@_W@__crt_stdio_output@@YA_WPAD@Z 1002b510 f i libucrtd:output.obj
 0001:0002a530       ??$puttc_nolock@ABDPAU_iobuf@@@?$__crt_char_traits@D@@SAHABD$$QAPAU_iobuf@@@Z 1002b530 f i libucrtd:output.obj
 0001:0002a550       ??$puttc_nolock@AB_WPAU_iobuf@@@?$__crt_char_traits@_W@@SAGAB_W$$QAPAU_iobuf@@@Z 1002b550 f i libucrtd:output.obj
 0001:0002a570       ??$read_va_arg@C@__crt_stdio_output@@YACAAPAD@Z 1002b570 f i libucrtd:output.obj
 0001:0002a590       ??$read_va_arg@E@__crt_stdio_output@@YAEAAPAD@Z 1002b590 f i libucrtd:output.obj
 0001:0002a5b0       ??$read_va_arg@F@__crt_stdio_output@@YAFAAPAD@Z 1002b5b0 f i libucrtd:output.obj
 0001:0002a5d0       ??$read_va_arg@G@__crt_stdio_output@@YAGAAPAD@Z 1002b5d0 f i libucrtd:output.obj
 0001:0002a5f0       ??$read_va_arg@H@__crt_stdio_output@@YAHAAPAD@Z 1002b5f0 f i libucrtd:output.obj
 0001:0002a610       ??$read_va_arg@I@__crt_stdio_output@@YAIAAPAD@Z 1002b610 f i libucrtd:output.obj
 0001:0002a630       ??$read_va_arg@PAD@__crt_stdio_output@@YAPADAAPAD@Z 1002b630 f i libucrtd:output.obj
 0001:0002a7d0       ??$read_va_arg@PAX@__crt_stdio_output@@YAPAXAAPAD@Z 1002b7d0 f i libucrtd:output.obj
 0001:0002a7f0       ??$read_va_arg@U_CRT_DOUBLE@@@__crt_stdio_output@@YA?AU_CRT_DOUBLE@@AAPAD@Z 1002b7f0 f i libucrtd:output.obj
 0001:0002a810       ??$read_va_arg@_J@__crt_stdio_output@@YA_JAAPAD@Z 1002b810 f i libucrtd:output.obj
 0001:0002a830       ??$read_va_arg@_K@__crt_stdio_output@@YA_KAAPAD@Z 1002b830 f i libucrtd:output.obj
 0001:0002a850       ??$read_va_arg@_W@__crt_stdio_output@@YA_WAAPAD@Z 1002b850 f i libucrtd:output.obj
 0001:0002a870       ??$scratch_count@D@formatting_buffer@__crt_stdio_output@@QBEIXZ 1002b870 f i libucrtd:output.obj
 0001:0002a890       ??$scratch_data@D@formatting_buffer@__crt_stdio_output@@QAEPADXZ 1002b890 f i libucrtd:output.obj
 0001:0002a8e0       ??$tcstol@AAPBDPAPADH@?$__crt_char_traits@D@@SAJAAPBD$$QAPAPAD$$QAH@Z 1002b8e0 f i libucrtd:output.obj
 0001:0002a910       ??$tcstol@AAPB_WPAPA_WH@?$__crt_char_traits@_W@@SAJAAPB_W$$QAPAPA_W$$QAH@Z 1002b910 f i libucrtd:output.obj
 0001:0002a940       ??$tcstol@PBDPAPADH@?$__crt_char_traits@D@@SAJ$$QAPBD$$QAPAPAD$$QAH@Z 1002b940 f i libucrtd:output.obj
 0001:0002a970       ??$tcstol@PB_WPAPA_WH@?$__crt_char_traits@_W@@SAJ$$QAPB_W$$QAPAPA_W$$QAH@Z 1002b970 f i libucrtd:output.obj
 0001:0002a9a0       ??$type_case_integer_parse_into_buffer@I@?$output_processor@DV?$stream_output_adapter@D@__crt_stdio_output@@V?$format_validation_base@DV?$stream_output_adapter@D@__crt_stdio_output@@@2@@__crt_stdio_output@@AAEXII_N@Z 1002b9a0 f i libucrtd:output.obj
 0001:0002aa70       ??$type_case_integer_parse_into_buffer@I@?$output_processor@DV?$stream_output_adapter@D@__crt_stdio_output@@V?$positional_parameter_base@DV?$stream_output_adapter@D@__crt_stdio_output@@@2@@__crt_stdio_output@@AAEXII_N@Z 1002ba70 f i libucrtd:output.obj
 0001:0002ab40       ??$type_case_integer_parse_into_buffer@I@?$output_processor@DV?$stream_output_adapter@D@__crt_stdio_output@@V?$standard_base@DV?$stream_output_adapter@D@__crt_stdio_output@@@2@@__crt_stdio_output@@AAEXII_N@Z 1002bb40 f i libucrtd:output.obj
 0001:0002ac10       ??$type_case_integer_parse_into_buffer@I@?$output_processor@DV?$string_output_adapter@D@__crt_stdio_output@@V?$format_validation_base@DV?$string_output_adapter@D@__crt_stdio_output@@@2@@__crt_stdio_output@@AAEXII_N@Z 1002bc10 f i libucrtd:output.obj
 0001:0002ace0       ??$type_case_integer_parse_into_buffer@I@?$output_processor@DV?$string_output_adapter@D@__crt_stdio_output@@V?$positional_parameter_base@DV?$string_output_adapter@D@__crt_stdio_output@@@2@@__crt_stdio_output@@AAEXII_N@Z 1002bce0 f i libucrtd:output.obj
 0001:0002adb0       ??$type_case_integer_parse_into_buffer@I@?$output_processor@DV?$string_output_adapter@D@__crt_stdio_output@@V?$standard_base@DV?$string_output_adapter@D@__crt_stdio_output@@@2@@__crt_stdio_output@@AAEXII_N@Z 1002bdb0 f i libucrtd:output.obj
 0001:0002ae80       ??$type_case_integer_parse_into_buffer@I@?$output_processor@_WV?$stream_output_adapter@_W@__crt_stdio_output@@V?$format_validation_base@_WV?$stream_output_adapter@_W@__crt_stdio_output@@@2@@__crt_stdio_output@@AAEXII_N@Z 1002be80 f i libucrtd:output.obj
 0001:0002af60       ??$type_case_integer_parse_into_buffer@I@?$output_processor@_WV?$stream_output_adapter@_W@__crt_stdio_output@@V?$positional_parameter_base@_WV?$stream_output_adapter@_W@__crt_stdio_output@@@2@@__crt_stdio_output@@AAEXII_N@Z 1002bf60 f i libucrtd:output.obj
 0001:0002b040       ??$type_case_integer_parse_into_buffer@I@?$output_processor@_WV?$stream_output_adapter@_W@__crt_stdio_output@@V?$standard_base@_WV?$stream_output_adapter@_W@__crt_stdio_output@@@2@@__crt_stdio_output@@AAEXII_N@Z 1002c040 f i libucrtd:output.obj
 0001:0002b120       ??$type_case_integer_parse_into_buffer@I@?$output_processor@_WV?$string_output_adapter@_W@__crt_stdio_output@@V?$format_validation_base@_WV?$string_output_adapter@_W@__crt_stdio_output@@@2@@__crt_stdio_output@@AAEXII_N@Z 1002c120 f i libucrtd:output.obj
 0001:0002b200       ??$type_case_integer_parse_into_buffer@I@?$output_processor@_WV?$string_output_adapter@_W@__crt_stdio_output@@V?$positional_parameter_base@_WV?$string_output_adapter@_W@__crt_stdio_output@@@2@@__crt_stdio_output@@AAEXII_N@Z 1002c200 f i libucrtd:output.obj
 0001:0002b2e0       ??$type_case_integer_parse_into_buffer@I@?$output_processor@_WV?$string_output_adapter@_W@__crt_stdio_output@@V?$standard_base@_WV?$string_output_adapter@_W@__crt_stdio_output@@@2@@__crt_stdio_output@@AAEXII_N@Z 1002c2e0 f i libucrtd:output.obj
 0001:0002b3c0       ??$type_case_integer_parse_into_buffer@_K@?$output_processor@DV?$stream_output_adapter@D@__crt_stdio_output@@V?$format_validation_base@DV?$stream_output_adapter@D@__crt_stdio_output@@@2@@__crt_stdio_output@@AAEX_KI_N@Z 1002c3c0 f i libucrtd:output.obj
 0001:0002b4b0       ??$type_case_integer_parse_into_buffer@_K@?$output_processor@DV?$stream_output_adapter@D@__crt_stdio_output@@V?$positional_parameter_base@DV?$stream_output_adapter@D@__crt_stdio_output@@@2@@__crt_stdio_output@@AAEX_KI_N@Z 1002c4b0 f i libucrtd:output.obj
 0001:0002b5a0       ??$type_case_integer_parse_into_buffer@_K@?$output_processor@DV?$stream_output_adapter@D@__crt_stdio_output@@V?$standard_base@DV?$stream_output_adapter@D@__crt_stdio_output@@@2@@__crt_stdio_output@@AAEX_KI_N@Z 1002c5a0 f i libucrtd:output.obj
 0001:0002b690       ??$type_case_integer_parse_into_buffer@_K@?$output_processor@DV?$string_output_adapter@D@__crt_stdio_output@@V?$format_validation_base@DV?$string_output_adapter@D@__crt_stdio_output@@@2@@__crt_stdio_output@@AAEX_KI_N@Z 1002c690 f i libucrtd:output.obj
 0001:0002b780       ??$type_case_integer_parse_into_buffer@_K@?$output_processor@DV?$string_output_adapter@D@__crt_stdio_output@@V?$positional_parameter_base@DV?$string_output_adapter@D@__crt_stdio_output@@@2@@__crt_stdio_output@@AAEX_KI_N@Z 1002c780 f i libucrtd:output.obj
 0001:0002b870       ??$type_case_integer_parse_into_buffer@_K@?$output_processor@DV?$string_output_adapter@D@__crt_stdio_output@@V?$standard_base@DV?$string_output_adapter@D@__crt_stdio_output@@@2@@__crt_stdio_output@@AAEX_KI_N@Z 1002c870 f i libucrtd:output.obj
 0001:0002b960       ??$type_case_integer_parse_into_buffer@_K@?$output_processor@_WV?$stream_output_adapter@_W@__crt_stdio_output@@V?$format_validation_base@_WV?$stream_output_adapter@_W@__crt_stdio_output@@@2@@__crt_stdio_output@@AAEX_KI_N@Z 1002c960 f i libucrtd:output.obj
 0001:0002ba60       ??$type_case_integer_parse_into_buffer@_K@?$output_processor@_WV?$stream_output_adapter@_W@__crt_stdio_output@@V?$positional_parameter_base@_WV?$stream_output_adapter@_W@__crt_stdio_output@@@2@@__crt_stdio_output@@AAEX_KI_N@Z 1002ca60 f i libucrtd:output.obj
 0001:0002bb60       ??$type_case_integer_parse_into_buffer@_K@?$output_processor@_WV?$stream_output_adapter@_W@__crt_stdio_output@@V?$standard_base@_WV?$stream_output_adapter@_W@__crt_stdio_output@@@2@@__crt_stdio_output@@AAEX_KI_N@Z 1002cb60 f i libucrtd:output.obj
 0001:0002bc60       ??$type_case_integer_parse_into_buffer@_K@?$output_processor@_WV?$string_output_adapter@_W@__crt_stdio_output@@V?$format_validation_base@_WV?$string_output_adapter@_W@__crt_stdio_output@@@2@@__crt_stdio_output@@AAEX_KI_N@Z 1002cc60 f i libucrtd:output.obj
 0001:0002bd60       ??$type_case_integer_parse_into_buffer@_K@?$output_processor@_WV?$string_output_adapter@_W@__crt_stdio_output@@V?$positional_parameter_base@_WV?$string_output_adapter@_W@__crt_stdio_output@@@2@@__crt_stdio_output@@AAEX_KI_N@Z 1002cd60 f i libucrtd:output.obj
 0001:0002be60       ??$type_case_integer_parse_into_buffer@_K@?$output_processor@_WV?$string_output_adapter@_W@__crt_stdio_output@@V?$standard_base@_WV?$string_output_adapter@_W@__crt_stdio_output@@@2@@__crt_stdio_output@@AAEX_KI_N@Z 1002ce60 f i libucrtd:output.obj
 0001:0002bf60       ??$write_multiple_characters@V?$stream_output_adapter@D@__crt_stdio_output@@D@__crt_stdio_output@@YAXABV?$stream_output_adapter@D@0@DHQAH@Z 1002cf60 f i libucrtd:output.obj
 0001:0002bfb0       ??$write_multiple_characters@V?$stream_output_adapter@_W@__crt_stdio_output@@D@__crt_stdio_output@@YAXABV?$stream_output_adapter@_W@0@DHQAH@Z 1002cfb0 f i libucrtd:output.obj
 0001:0002c000       ??$write_multiple_characters@V?$string_output_adapter@D@__crt_stdio_output@@D@__crt_stdio_output@@YAXABV?$string_output_adapter@D@0@DHQAH@Z 1002d000 f i libucrtd:output.obj
 0001:0002c050       ??$write_multiple_characters@V?$string_output_adapter@_W@__crt_stdio_output@@D@__crt_stdio_output@@YAXABV?$string_output_adapter@_W@0@DHQAH@Z 1002d050 f i libucrtd:output.obj
 0001:0002c3a0       ??0?$common_data@D@__crt_stdio_output@@IAE@XZ 1002d3a0 f i libucrtd:output.obj
 0001:0002c450       ??0?$common_data@_W@__crt_stdio_output@@IAE@XZ 1002d450 f i libucrtd:output.obj
 0001:0002c500       ??0?$output_adapter_data@DV?$stream_output_adapter@D@__crt_stdio_output@@@__crt_stdio_output@@IAE@ABV?$stream_output_adapter@D@1@_KQBDQAU__crt_locale_pointers@@QAD@Z 1002d500 f i libucrtd:output.obj
 0001:0002c560       ??0?$output_adapter_data@DV?$string_output_adapter@D@__crt_stdio_output@@@__crt_stdio_output@@IAE@ABV?$string_output_adapter@D@1@_KQBDQAU__crt_locale_pointers@@QAD@Z 1002d560 f i libucrtd:output.obj
 0001:0002c5c0       ??0?$output_adapter_data@_WV?$stream_output_adapter@_W@__crt_stdio_output@@@__crt_stdio_output@@IAE@ABV?$stream_output_adapter@_W@1@_KQB_WQAU__crt_locale_pointers@@QAD@Z 1002d5c0 f i libucrtd:output.obj
 0001:0002c620       ??0?$output_adapter_data@_WV?$string_output_adapter@_W@__crt_stdio_output@@@__crt_stdio_output@@IAE@ABV?$string_output_adapter@_W@1@_KQB_WQAU__crt_locale_pointers@@QAD@Z 1002d620 f i libucrtd:output.obj
 0001:0002c680       ??0?$output_processor@DV?$stream_output_adapter@D@__crt_stdio_output@@V?$format_validation_base@DV?$stream_output_adapter@D@__crt_stdio_output@@@2@@__crt_stdio_output@@QAE@ABV?$stream_output_adapter@D@1@_KQBDQAU__crt_locale_pointers@@QAD@Z 1002d680 f i libucrtd:output.obj
 0001:0002c6b0       ??0?$output_processor@DV?$stream_output_adapter@D@__crt_stdio_output@@V?$positional_parameter_base@DV?$stream_output_adapter@D@__crt_stdio_output@@@2@@__crt_stdio_output@@QAE@ABV?$stream_output_adapter@D@1@_KQBDQAU__crt_locale_pointers@@QAD@Z 1002d6b0 f i libucrtd:output.obj
 0001:0002c6e0       ??0?$output_processor@DV?$stream_output_adapter@D@__crt_stdio_output@@V?$standard_base@DV?$stream_output_adapter@D@__crt_stdio_output@@@2@@__crt_stdio_output@@QAE@ABV?$stream_output_adapter@D@1@_KQBDQAU__crt_locale_pointers@@QAD@Z 1002d6e0 f i libucrtd:output.obj
 0001:0002c710       ??0?$output_processor@DV?$string_output_adapter@D@__crt_stdio_output@@V?$format_validation_base@DV?$string_output_adapter@D@__crt_stdio_output@@@2@@__crt_stdio_output@@QAE@ABV?$string_output_adapter@D@1@_KQBDQAU__crt_locale_pointers@@QAD@Z 1002d710 f i libucrtd:output.obj
 0001:0002c740       ??0?$output_processor@DV?$string_output_adapter@D@__crt_stdio_output@@V?$positional_parameter_base@DV?$string_output_adapter@D@__crt_stdio_output@@@2@@__crt_stdio_output@@QAE@ABV?$string_output_adapter@D@1@_KQBDQAU__crt_locale_pointers@@QAD@Z 1002d740 f i libucrtd:output.obj
 0001:0002c770       ??0?$output_processor@DV?$string_output_adapter@D@__crt_stdio_output@@V?$standard_base@DV?$string_output_adapter@D@__crt_stdio_output@@@2@@__crt_stdio_output@@QAE@ABV?$string_output_adapter@D@1@_KQBDQAU__crt_locale_pointers@@QAD@Z 1002d770 f i libucrtd:output.obj
 0001:0002c7a0       ??0?$output_processor@_WV?$stream_output_adapter@_W@__crt_stdio_output@@V?$format_validation_base@_WV?$stream_output_adapter@_W@__crt_stdio_output@@@2@@__crt_stdio_output@@QAE@ABV?$stream_output_adapter@_W@1@_KQB_WQAU__crt_locale_pointers@@QAD@Z 1002d7a0 f i libucrtd:output.obj
 0001:0002c7d0       ??0?$output_processor@_WV?$stream_output_adapter@_W@__crt_stdio_output@@V?$positional_parameter_base@_WV?$stream_output_adapter@_W@__crt_stdio_output@@@2@@__crt_stdio_output@@QAE@ABV?$stream_output_adapter@_W@1@_KQB_WQAU__crt_locale_pointers@@QAD@Z 1002d7d0 f i libucrtd:output.obj
 0001:0002c800       ??0?$output_processor@_WV?$stream_output_adapter@_W@__crt_stdio_output@@V?$standard_base@_WV?$stream_output_adapter@_W@__crt_stdio_output@@@2@@__crt_stdio_output@@QAE@ABV?$stream_output_adapter@_W@1@_KQB_WQAU__crt_locale_pointers@@QAD@Z 1002d800 f i libucrtd:output.obj
 0001:0002c830       ??0?$output_processor@_WV?$string_output_adapter@_W@__crt_stdio_output@@V?$format_validation_base@_WV?$string_output_adapter@_W@__crt_stdio_output@@@2@@__crt_stdio_output@@QAE@ABV?$string_output_adapter@_W@1@_KQB_WQAU__crt_locale_pointers@@QAD@Z 1002d830 f i libucrtd:output.obj
 0001:0002c860       ??0?$output_processor@_WV?$string_output_adapter@_W@__crt_stdio_output@@V?$positional_parameter_base@_WV?$string_output_adapter@_W@__crt_stdio_output@@@2@@__crt_stdio_output@@QAE@ABV?$string_output_adapter@_W@1@_KQB_WQAU__crt_locale_pointers@@QAD@Z 1002d860 f i libucrtd:output.obj
 0001:0002c890       ??0?$output_processor@_WV?$string_output_adapter@_W@__crt_stdio_output@@V?$standard_base@_WV?$string_output_adapter@_W@__crt_stdio_output@@@2@@__crt_stdio_output@@QAE@ABV?$string_output_adapter@_W@1@_KQB_WQAU__crt_locale_pointers@@QAD@Z 1002d890 f i libucrtd:output.obj
 0001:0002c8c0       ??0?$stream_output_adapter@D@__crt_stdio_output@@QAE@QAU_iobuf@@@Z 1002d8c0 f i libucrtd:output.obj
 0001:0002c8e0       ??0?$stream_output_adapter@_W@__crt_stdio_output@@QAE@QAU_iobuf@@@Z 1002d8e0 f i libucrtd:output.obj
 0001:0002c900       ??0?$string_output_adapter@D@__crt_stdio_output@@QAE@QAU?$string_output_adapter_context@D@1@@Z 1002d900 f i libucrtd:output.obj
 0001:0002c920       ??0?$string_output_adapter@_W@__crt_stdio_output@@QAE@QAU?$string_output_adapter_context@_W@1@@Z 1002d920 f i libucrtd:output.obj
 0001:0002c940       ??0_LocaleUpdate@@QAE@QAU__crt_locale_pointers@@@Z 1002d940 f i libucrtd:output.obj
 0001:0002ca20       ??0__acrt_stdio_temporary_buffering_guard@@QAE@QAU_iobuf@@@Z 1002da20 f i libucrtd:output.obj
 0001:0002ca50       ??0__crt_deferred_errno_cache@@QAE@XZ 1002da50 f i libucrtd:output.obj
 0001:0002ca70       ??0__crt_errno_guard@@QAE@QAH@Z 1002da70 f i libucrtd:output.obj
 0001:0002caa0       ??0__crt_stdio_stream@@QAE@QAU_iobuf@@@Z 1002daa0 f i libucrtd:output.obj
 0001:0002cac0       ??0formatting_buffer@__crt_stdio_output@@QAE@XZ 1002dac0 f i libucrtd:output.obj
 0001:0002caf0       ??1?$common_data@D@__crt_stdio_output@@QAE@XZ 1002daf0 f i libucrtd:output.obj
 0001:0002cb10       ??1?$common_data@_W@__crt_stdio_output@@QAE@XZ 1002db10 f i libucrtd:output.obj
 0001:0002cb30       ??1?$format_validation_base@DV?$stream_output_adapter@D@__crt_stdio_output@@@__crt_stdio_output@@QAE@XZ 1002db30 f i libucrtd:output.obj
 0001:0002cb50       ??1?$format_validation_base@DV?$string_output_adapter@D@__crt_stdio_output@@@__crt_stdio_output@@QAE@XZ 1002db50 f i libucrtd:output.obj
 0001:0002cb70       ??1?$format_validation_base@_WV?$stream_output_adapter@_W@__crt_stdio_output@@@__crt_stdio_output@@QAE@XZ 1002db70 f i libucrtd:output.obj
 0001:0002cb90       ??1?$format_validation_base@_WV?$string_output_adapter@_W@__crt_stdio_output@@@__crt_stdio_output@@QAE@XZ 1002db90 f i libucrtd:output.obj
 0001:0002cbb0       ??1?$output_adapter_data@DV?$stream_output_adapter@D@__crt_stdio_output@@@__crt_stdio_output@@QAE@XZ 1002dbb0 f i libucrtd:output.obj
 0001:0002cbd0       ??1?$output_adapter_data@DV?$string_output_adapter@D@__crt_stdio_output@@@__crt_stdio_output@@QAE@XZ 1002dbd0 f i libucrtd:output.obj
 0001:0002cbf0       ??1?$output_adapter_data@_WV?$stream_output_adapter@_W@__crt_stdio_output@@@__crt_stdio_output@@QAE@XZ 1002dbf0 f i libucrtd:output.obj
 0001:0002cc10       ??1?$output_adapter_data@_WV?$string_output_adapter@_W@__crt_stdio_output@@@__crt_stdio_output@@QAE@XZ 1002dc10 f i libucrtd:output.obj
 0001:0002cc30       ??1?$output_processor@DV?$stream_output_adapter@D@__crt_stdio_output@@V?$format_validation_base@DV?$stream_output_adapter@D@__crt_stdio_output@@@2@@__crt_stdio_output@@QAE@XZ 1002dc30 f i libucrtd:output.obj
 0001:0002cc50       ??1?$output_processor@DV?$stream_output_adapter@D@__crt_stdio_output@@V?$positional_parameter_base@DV?$stream_output_adapter@D@__crt_stdio_output@@@2@@__crt_stdio_output@@QAE@XZ 1002dc50 f i libucrtd:output.obj
 0001:0002cc70       ??1?$output_processor@DV?$stream_output_adapter@D@__crt_stdio_output@@V?$standard_base@DV?$stream_output_adapter@D@__crt_stdio_output@@@2@@__crt_stdio_output@@QAE@XZ 1002dc70 f i libucrtd:output.obj
 0001:0002cc90       ??1?$output_processor@DV?$string_output_adapter@D@__crt_stdio_output@@V?$format_validation_base@DV?$string_output_adapter@D@__crt_stdio_output@@@2@@__crt_stdio_output@@QAE@XZ 1002dc90 f i libucrtd:output.obj
 0001:0002ccb0       ??1?$output_processor@DV?$string_output_adapter@D@__crt_stdio_output@@V?$positional_parameter_base@DV?$string_output_adapter@D@__crt_stdio_output@@@2@@__crt_stdio_output@@QAE@XZ 1002dcb0 f i libucrtd:output.obj
 0001:0002ccd0       ??1?$output_processor@DV?$string_output_adapter@D@__crt_stdio_output@@V?$standard_base@DV?$string_output_adapter@D@__crt_stdio_output@@@2@@__crt_stdio_output@@QAE@XZ 1002dcd0 f i libucrtd:output.obj
 0001:0002ccf0       ??1?$output_processor@_WV?$stream_output_adapter@_W@__crt_stdio_output@@V?$format_validation_base@_WV?$stream_output_adapter@_W@__crt_stdio_output@@@2@@__crt_stdio_output@@QAE@XZ 1002dcf0 f i libucrtd:output.obj
 0001:0002cd10       ??1?$output_processor@_WV?$stream_output_adapter@_W@__crt_stdio_output@@V?$positional_parameter_base@_WV?$stream_output_adapter@_W@__crt_stdio_output@@@2@@__crt_stdio_output@@QAE@XZ 1002dd10 f i libucrtd:output.obj
 0001:0002cd30       ??1?$output_processor@_WV?$stream_output_adapter@_W@__crt_stdio_output@@V?$standard_base@_WV?$stream_output_adapter@_W@__crt_stdio_output@@@2@@__crt_stdio_output@@QAE@XZ 1002dd30 f i libucrtd:output.obj
 0001:0002cd50       ??1?$output_processor@_WV?$string_output_adapter@_W@__crt_stdio_output@@V?$format_validation_base@_WV?$string_output_adapter@_W@__crt_stdio_output@@@2@@__crt_stdio_output@@QAE@XZ 1002dd50 f i libucrtd:output.obj
 0001:0002cd70       ??1?$output_processor@_WV?$string_output_adapter@_W@__crt_stdio_output@@V?$positional_parameter_base@_WV?$string_output_adapter@_W@__crt_stdio_output@@@2@@__crt_stdio_output@@QAE@XZ 1002dd70 f i libucrtd:output.obj
 0001:0002cd90       ??1?$output_processor@_WV?$string_output_adapter@_W@__crt_stdio_output@@V?$standard_base@_WV?$string_output_adapter@_W@__crt_stdio_output@@@2@@__crt_stdio_output@@QAE@XZ 1002dd90 f i libucrtd:output.obj
 0001:0002cdb0       ??1?$positional_parameter_base@DV?$stream_output_adapter@D@__crt_stdio_output@@@__crt_stdio_output@@QAE@XZ 1002ddb0 f i libucrtd:output.obj
 0001:0002cdd0       ??1?$positional_parameter_base@DV?$string_output_adapter@D@__crt_stdio_output@@@__crt_stdio_output@@QAE@XZ 1002ddd0 f i libucrtd:output.obj
 0001:0002cdf0       ??1?$positional_parameter_base@_WV?$stream_output_adapter@_W@__crt_stdio_output@@@__crt_stdio_output@@QAE@XZ 1002ddf0 f i libucrtd:output.obj
 0001:0002ce10       ??1?$positional_parameter_base@_WV?$string_output_adapter@_W@__crt_stdio_output@@@__crt_stdio_output@@QAE@XZ 1002de10 f i libucrtd:output.obj
 0001:0002ce30       ??1?$standard_base@DV?$stream_output_adapter@D@__crt_stdio_output@@@__crt_stdio_output@@QAE@XZ 1002de30 f i libucrtd:output.obj
 0001:0002ce50       ??1?$standard_base@DV?$string_output_adapter@D@__crt_stdio_output@@@__crt_stdio_output@@QAE@XZ 1002de50 f i libucrtd:output.obj
 0001:0002ce70       ??1?$standard_base@_WV?$stream_output_adapter@_W@__crt_stdio_output@@@__crt_stdio_output@@QAE@XZ 1002de70 f i libucrtd:output.obj
 0001:0002ce90       ??1?$standard_base@_WV?$string_output_adapter@_W@__crt_stdio_output@@@__crt_stdio_output@@QAE@XZ 1002de90 f i libucrtd:output.obj
 0001:0002ceb0       ??1_LocaleUpdate@@QAE@XZ   1002deb0 f i libucrtd:output.obj
 0001:0002cef0       ??1__acrt_stdio_temporary_buffering_guard@@QAE@XZ 1002def0 f i libucrtd:output.obj
 0001:0002cf20       ??1__crt_errno_guard@@QAE@XZ 1002df20 f i libucrtd:output.obj
 0001:0002cf50       ??1formatting_buffer@__crt_stdio_output@@QAE@XZ 1002df50 f i libucrtd:output.obj
 0001:0002cf70       ??4?$__crt_unique_heap_ptr@DU__crt_internal_free_policy@@@@QAEAAV0@$$QAV0@@Z 1002df70 f i libucrtd:output.obj
 0001:0002cfa0       ??C__crt_stdio_stream@@QBEPAU__crt_stdio_stream_data@@XZ 1002dfa0 f i libucrtd:output.obj
 0001:0002d6e0       ?GetLocaleT@_LocaleUpdate@@QAEPAU__crt_locale_pointers@@XZ 1002e6e0 f i libucrtd:output.obj
 0001:0002d700       ?adjust_hexit@?$output_processor@DV?$stream_output_adapter@D@__crt_stdio_output@@V?$format_validation_base@DV?$stream_output_adapter@D@__crt_stdio_output@@@2@@__crt_stdio_output@@CADH_N@Z 1002e700 f i libucrtd:output.obj
 0001:0002d740       ?adjust_hexit@?$output_processor@DV?$stream_output_adapter@D@__crt_stdio_output@@V?$positional_parameter_base@DV?$stream_output_adapter@D@__crt_stdio_output@@@2@@__crt_stdio_output@@CADH_N@Z 1002e740 f i libucrtd:output.obj
 0001:0002d780       ?adjust_hexit@?$output_processor@DV?$stream_output_adapter@D@__crt_stdio_output@@V?$standard_base@DV?$stream_output_adapter@D@__crt_stdio_output@@@2@@__crt_stdio_output@@CADH_N@Z 1002e780 f i libucrtd:output.obj
 0001:0002d7c0       ?adjust_hexit@?$output_processor@DV?$string_output_adapter@D@__crt_stdio_output@@V?$format_validation_base@DV?$string_output_adapter@D@__crt_stdio_output@@@2@@__crt_stdio_output@@CADH_N@Z 1002e7c0 f i libucrtd:output.obj
 0001:0002d800       ?adjust_hexit@?$output_processor@DV?$string_output_adapter@D@__crt_stdio_output@@V?$positional_parameter_base@DV?$string_output_adapter@D@__crt_stdio_output@@@2@@__crt_stdio_output@@CADH_N@Z 1002e800 f i libucrtd:output.obj
 0001:0002d840       ?adjust_hexit@?$output_processor@DV?$string_output_adapter@D@__crt_stdio_output@@V?$standard_base@DV?$string_output_adapter@D@__crt_stdio_output@@@2@@__crt_stdio_output@@CADH_N@Z 1002e840 f i libucrtd:output.obj
 0001:0002d880       ?adjust_hexit@?$output_processor@_WV?$stream_output_adapter@_W@__crt_stdio_output@@V?$format_validation_base@_WV?$stream_output_adapter@_W@__crt_stdio_output@@@2@@__crt_stdio_output@@CADH_N@Z 1002e880 f i libucrtd:output.obj
 0001:0002d8c0       ?adjust_hexit@?$output_processor@_WV?$stream_output_adapter@_W@__crt_stdio_output@@V?$positional_parameter_base@_WV?$stream_output_adapter@_W@__crt_stdio_output@@@2@@__crt_stdio_output@@CADH_N@Z 1002e8c0 f i libucrtd:output.obj
 0001:0002d900       ?adjust_hexit@?$output_processor@_WV?$stream_output_adapter@_W@__crt_stdio_output@@V?$standard_base@_WV?$stream_output_adapter@_W@__crt_stdio_output@@@2@@__crt_stdio_output@@CADH_N@Z 1002e900 f i libucrtd:output.obj
 0001:0002d940       ?adjust_hexit@?$output_processor@_WV?$string_output_adapter@_W@__crt_stdio_output@@V?$format_validation_base@_WV?$string_output_adapter@_W@__crt_stdio_output@@@2@@__crt_stdio_output@@CADH_N@Z 1002e940 f i libucrtd:output.obj
 0001:0002d980       ?adjust_hexit@?$output_processor@_WV?$string_output_adapter@_W@__crt_stdio_output@@V?$positional_parameter_base@_WV?$string_output_adapter@_W@__crt_stdio_output@@@2@@__crt_stdio_output@@CADH_N@Z 1002e980 f i libucrtd:output.obj
 0001:0002d9c0       ?adjust_hexit@?$output_processor@_WV?$string_output_adapter@_W@__crt_stdio_output@@V?$standard_base@_WV?$string_output_adapter@_W@__crt_stdio_output@@@2@@__crt_stdio_output@@CADH_N@Z 1002e9c0 f i libucrtd:output.obj
 0001:0002da00       ?advance_to_next_pass@?$positional_parameter_base@DV?$stream_output_adapter@D@__crt_stdio_output@@@__crt_stdio_output@@IAE_NXZ 1002ea00 f i libucrtd:output.obj
 0001:0002daa0       ?advance_to_next_pass@?$positional_parameter_base@DV?$string_output_adapter@D@__crt_stdio_output@@@__crt_stdio_output@@IAE_NXZ 1002eaa0 f i libucrtd:output.obj
 0001:0002db40       ?advance_to_next_pass@?$positional_parameter_base@_WV?$stream_output_adapter@_W@__crt_stdio_output@@@__crt_stdio_output@@IAE_NXZ 1002eb40 f i libucrtd:output.obj
 0001:0002dbe0       ?advance_to_next_pass@?$positional_parameter_base@_WV?$string_output_adapter@_W@__crt_stdio_output@@@__crt_stdio_output@@IAE_NXZ 1002ebe0 f i libucrtd:output.obj
 0001:0002dc80       ?advance_to_next_pass@?$standard_base@DV?$stream_output_adapter@D@__crt_stdio_output@@@__crt_stdio_output@@IAE_NXZ 1002ec80 f i libucrtd:output.obj
 0001:0002dcd0       ?advance_to_next_pass@?$standard_base@DV?$string_output_adapter@D@__crt_stdio_output@@@__crt_stdio_output@@IAE_NXZ 1002ecd0 f i libucrtd:output.obj
 0001:0002dd20       ?advance_to_next_pass@?$standard_base@_WV?$stream_output_adapter@_W@__crt_stdio_output@@@__crt_stdio_output@@IAE_NXZ 1002ed20 f i libucrtd:output.obj
 0001:0002dd70       ?advance_to_next_pass@?$standard_base@_WV?$string_output_adapter@_W@__crt_stdio_output@@@__crt_stdio_output@@IAE_NXZ 1002ed70 f i libucrtd:output.obj
 0001:0002ddc0       ?crop_zeroes@__crt_stdio_output@@YAXPADQAU__crt_locale_pointers@@@Z 1002edc0 f i libucrtd:output.obj
 0001:0002dec0       ?find_next_state@?$output_processor@DV?$stream_output_adapter@D@__crt_stdio_output@@V?$format_validation_base@DV?$stream_output_adapter@D@__crt_stdio_output@@@2@@__crt_stdio_output@@ABE?AW4state@2@DW432@@Z 1002eec0 f i libucrtd:output.obj
 0001:0002df40       ?find_next_state@?$output_processor@DV?$stream_output_adapter@D@__crt_stdio_output@@V?$positional_parameter_base@DV?$stream_output_adapter@D@__crt_stdio_output@@@2@@__crt_stdio_output@@ABE?AW4state@2@DW432@@Z 1002ef40 f i libucrtd:output.obj
 0001:0002dfc0       ?find_next_state@?$output_processor@DV?$stream_output_adapter@D@__crt_stdio_output@@V?$standard_base@DV?$stream_output_adapter@D@__crt_stdio_output@@@2@@__crt_stdio_output@@ABE?AW4state@2@DW432@@Z 1002efc0 f i libucrtd:output.obj
 0001:0002e040       ?find_next_state@?$output_processor@DV?$string_output_adapter@D@__crt_stdio_output@@V?$format_validation_base@DV?$string_output_adapter@D@__crt_stdio_output@@@2@@__crt_stdio_output@@ABE?AW4state@2@DW432@@Z 1002f040 f i libucrtd:output.obj
 0001:0002e0c0       ?find_next_state@?$output_processor@DV?$string_output_adapter@D@__crt_stdio_output@@V?$positional_parameter_base@DV?$string_output_adapter@D@__crt_stdio_output@@@2@@__crt_stdio_output@@ABE?AW4state@2@DW432@@Z 1002f0c0 f i libucrtd:output.obj
 0001:0002e140       ?find_next_state@?$output_processor@DV?$string_output_adapter@D@__crt_stdio_output@@V?$standard_base@DV?$string_output_adapter@D@__crt_stdio_output@@@2@@__crt_stdio_output@@ABE?AW4state@2@DW432@@Z 1002f140 f i libucrtd:output.obj
 0001:0002e1c0       ?find_next_state@?$output_processor@_WV?$stream_output_adapter@_W@__crt_stdio_output@@V?$format_validation_base@_WV?$stream_output_adapter@_W@__crt_stdio_output@@@2@@__crt_stdio_output@@ABE?AW4state@2@_WW432@@Z 1002f1c0 f i libucrtd:output.obj
 0001:0002e240       ?find_next_state@?$output_processor@_WV?$stream_output_adapter@_W@__crt_stdio_output@@V?$positional_parameter_base@_WV?$stream_output_adapter@_W@__crt_stdio_output@@@2@@__crt_stdio_output@@ABE?AW4state@2@_WW432@@Z 1002f240 f i libucrtd:output.obj
 0001:0002e2c0       ?find_next_state@?$output_processor@_WV?$stream_output_adapter@_W@__crt_stdio_output@@V?$standard_base@_WV?$stream_output_adapter@_W@__crt_stdio_output@@@2@@__crt_stdio_output@@ABE?AW4state@2@_WW432@@Z 1002f2c0 f i libucrtd:output.obj
 0001:0002e340       ?find_next_state@?$output_processor@_WV?$string_output_adapter@_W@__crt_stdio_output@@V?$format_validation_base@_WV?$string_output_adapter@_W@__crt_stdio_output@@@2@@__crt_stdio_output@@ABE?AW4state@2@_WW432@@Z 1002f340 f i libucrtd:output.obj
 0001:0002e3c0       ?find_next_state@?$output_processor@_WV?$string_output_adapter@_W@__crt_stdio_output@@V?$positional_parameter_base@_WV?$string_output_adapter@_W@__crt_stdio_output@@@2@@__crt_stdio_output@@ABE?AW4state@2@_WW432@@Z 1002f3c0 f i libucrtd:output.obj
 0001:0002e440       ?find_next_state@?$output_processor@_WV?$string_output_adapter@_W@__crt_stdio_output@@V?$standard_base@_WV?$string_output_adapter@_W@__crt_stdio_output@@@2@@__crt_stdio_output@@ABE?AW4state@2@_WW432@@Z 1002f440 f i libucrtd:output.obj
 0001:0002e4c0       ?force_decimal_point@__crt_stdio_output@@YAXPADQAU__crt_locale_pointers@@@Z 1002f4c0 f i libucrtd:output.obj
 0001:0002e590       ?get@__crt_deferred_errno_cache@@QAEAAHXZ 1002f590 f i libucrtd:output.obj
 0001:0002e5c0       ?get_flags@__crt_stdio_stream@@QBEJXZ 1002f5c0 f i libucrtd:output.obj
 0001:0002e5e0       ?get_parameter_type@?$positional_parameter_base@DV?$stream_output_adapter@D@__crt_stdio_output@@@__crt_stdio_output@@CA?AW4parameter_type@12@F@Z 1002f5e0 f i libucrtd:output.obj
 0001:0002e5f0       ?get_parameter_type@?$positional_parameter_base@DV?$stream_output_adapter@D@__crt_stdio_output@@@__crt_stdio_output@@CA?AW4parameter_type@12@G@Z 1002f5f0 f i libucrtd:output.obj
 0001:0002e600       ?get_parameter_type@?$positional_parameter_base@DV?$stream_output_adapter@D@__crt_stdio_output@@@__crt_stdio_output@@CA?AW4parameter_type@12@H@Z 1002f600 f i libucrtd:output.obj
 0001:0002e610       ?get_parameter_type@?$positional_parameter_base@DV?$stream_output_adapter@D@__crt_stdio_output@@@__crt_stdio_output@@CA?AW4parameter_type@12@I@Z 1002f610 f i libucrtd:output.obj
 0001:0002e620       ?get_parameter_type@?$positional_parameter_base@DV?$stream_output_adapter@D@__crt_stdio_output@@@__crt_stdio_output@@CA?AW4parameter_type@12@U_CRT_DOUBLE@@@Z 1002f620 f i libucrtd:output.obj
 0001:0002e630       ?get_parameter_type@?$positional_parameter_base@DV?$stream_output_adapter@D@__crt_stdio_output@@@__crt_stdio_output@@CA?AW4parameter_type@12@_J@Z 1002f630 f i libucrtd:output.obj
 0001:0002e640       ?get_parameter_type@?$positional_parameter_base@DV?$stream_output_adapter@D@__crt_stdio_output@@@__crt_stdio_output@@CA?AW4parameter_type@12@_K@Z 1002f640 f i libucrtd:output.obj
 0001:0002e650       ?get_parameter_type@?$positional_parameter_base@DV?$stream_output_adapter@D@__crt_stdio_output@@@__crt_stdio_output@@CA?AW4parameter_type@12@_W@Z 1002f650 f i libucrtd:output.obj
 0001:0002e660       ?get_parameter_type@?$positional_parameter_base@DV?$string_output_adapter@D@__crt_stdio_output@@@__crt_stdio_output@@CA?AW4parameter_type@12@F@Z 1002f660 f i libucrtd:output.obj
 0001:0002e670       ?get_parameter_type@?$positional_parameter_base@DV?$string_output_adapter@D@__crt_stdio_output@@@__crt_stdio_output@@CA?AW4parameter_type@12@G@Z 1002f670 f i libucrtd:output.obj
 0001:0002e680       ?get_parameter_type@?$positional_parameter_base@DV?$string_output_adapter@D@__crt_stdio_output@@@__crt_stdio_output@@CA?AW4parameter_type@12@H@Z 1002f680 f i libucrtd:output.obj
 0001:0002e690       ?get_parameter_type@?$positional_parameter_base@DV?$string_output_adapter@D@__crt_stdio_output@@@__crt_stdio_output@@CA?AW4parameter_type@12@I@Z 1002f690 f i libucrtd:output.obj
 0001:0002e6a0       ?get_parameter_type@?$positional_parameter_base@DV?$string_output_adapter@D@__crt_stdio_output@@@__crt_stdio_output@@CA?AW4parameter_type@12@U_CRT_DOUBLE@@@Z 1002f6a0 f i libucrtd:output.obj
 0001:0002e6b0       ?get_parameter_type@?$positional_parameter_base@DV?$string_output_adapter@D@__crt_stdio_output@@@__crt_stdio_output@@CA?AW4parameter_type@12@_J@Z 1002f6b0 f i libucrtd:output.obj
 0001:0002e6c0       ?get_parameter_type@?$positional_parameter_base@DV?$string_output_adapter@D@__crt_stdio_output@@@__crt_stdio_output@@CA?AW4parameter_type@12@_K@Z 1002f6c0 f i libucrtd:output.obj
 0001:0002e6d0       ?get_parameter_type@?$positional_parameter_base@DV?$string_output_adapter@D@__crt_stdio_output@@@__crt_stdio_output@@CA?AW4parameter_type@12@_W@Z 1002f6d0 f i libucrtd:output.obj
 0001:0002e6e0       ?get_parameter_type@?$positional_parameter_base@_WV?$stream_output_adapter@_W@__crt_stdio_output@@@__crt_stdio_output@@CA?AW4parameter_type@12@F@Z 1002f6e0 f i libucrtd:output.obj
 0001:0002e6f0       ?get_parameter_type@?$positional_parameter_base@_WV?$stream_output_adapter@_W@__crt_stdio_output@@@__crt_stdio_output@@CA?AW4parameter_type@12@G@Z 1002f6f0 f i libucrtd:output.obj
 0001:0002e700       ?get_parameter_type@?$positional_parameter_base@_WV?$stream_output_adapter@_W@__crt_stdio_output@@@__crt_stdio_output@@CA?AW4parameter_type@12@H@Z 1002f700 f i libucrtd:output.obj
 0001:0002e710       ?get_parameter_type@?$positional_parameter_base@_WV?$stream_output_adapter@_W@__crt_stdio_output@@@__crt_stdio_output@@CA?AW4parameter_type@12@I@Z 1002f710 f i libucrtd:output.obj
 0001:0002e720       ?get_parameter_type@?$positional_parameter_base@_WV?$stream_output_adapter@_W@__crt_stdio_output@@@__crt_stdio_output@@CA?AW4parameter_type@12@U_CRT_DOUBLE@@@Z 1002f720 f i libucrtd:output.obj
 0001:0002e730       ?get_parameter_type@?$positional_parameter_base@_WV?$stream_output_adapter@_W@__crt_stdio_output@@@__crt_stdio_output@@CA?AW4parameter_type@12@_J@Z 1002f730 f i libucrtd:output.obj
 0001:0002e740       ?get_parameter_type@?$positional_parameter_base@_WV?$stream_output_adapter@_W@__crt_stdio_output@@@__crt_stdio_output@@CA?AW4parameter_type@12@_K@Z 1002f740 f i libucrtd:output.obj
 0001:0002e750       ?get_parameter_type@?$positional_parameter_base@_WV?$stream_output_adapter@_W@__crt_stdio_output@@@__crt_stdio_output@@CA?AW4parameter_type@12@_W@Z 1002f750 f i libucrtd:output.obj
 0001:0002e760       ?get_parameter_type@?$positional_parameter_base@_WV?$string_output_adapter@_W@__crt_stdio_output@@@__crt_stdio_output@@CA?AW4parameter_type@12@F@Z 1002f760 f i libucrtd:output.obj
 0001:0002e770       ?get_parameter_type@?$positional_parameter_base@_WV?$string_output_adapter@_W@__crt_stdio_output@@@__crt_stdio_output@@CA?AW4parameter_type@12@G@Z 1002f770 f i libucrtd:output.obj
 0001:0002e780       ?get_parameter_type@?$positional_parameter_base@_WV?$string_output_adapter@_W@__crt_stdio_output@@@__crt_stdio_output@@CA?AW4parameter_type@12@H@Z 1002f780 f i libucrtd:output.obj
 0001:0002e790       ?get_parameter_type@?$positional_parameter_base@_WV?$string_output_adapter@_W@__crt_stdio_output@@@__crt_stdio_output@@CA?AW4parameter_type@12@I@Z 1002f790 f i libucrtd:output.obj
 0001:0002e7a0       ?get_parameter_type@?$positional_parameter_base@_WV?$string_output_adapter@_W@__crt_stdio_output@@@__crt_stdio_output@@CA?AW4parameter_type@12@U_CRT_DOUBLE@@@Z 1002f7a0 f i libucrtd:output.obj
 0001:0002e7b0       ?get_parameter_type@?$positional_parameter_base@_WV?$string_output_adapter@_W@__crt_stdio_output@@@__crt_stdio_output@@CA?AW4parameter_type@12@_J@Z 1002f7b0 f i libucrtd:output.obj
 0001:0002e7c0       ?get_parameter_type@?$positional_parameter_base@_WV?$string_output_adapter@_W@__crt_stdio_output@@@__crt_stdio_output@@CA?AW4parameter_type@12@_K@Z 1002f7c0 f i libucrtd:output.obj
 0001:0002e7d0       ?get_parameter_type@?$positional_parameter_base@_WV?$string_output_adapter@_W@__crt_stdio_output@@@__crt_stdio_output@@CA?AW4parameter_type@12@_W@Z 1002f7d0 f i libucrtd:output.obj
 0001:0002e7e0       ?has_flag@?$output_processor@DV?$stream_output_adapter@D@__crt_stdio_output@@V?$format_validation_base@DV?$stream_output_adapter@D@__crt_stdio_output@@@2@@__crt_stdio_output@@ABE_NI@Z 1002f7e0 f i libucrtd:output.obj
 0001:0002e810       ?has_flag@?$output_processor@DV?$stream_output_adapter@D@__crt_stdio_output@@V?$positional_parameter_base@DV?$stream_output_adapter@D@__crt_stdio_output@@@2@@__crt_stdio_output@@ABE_NI@Z 1002f810 f i libucrtd:output.obj
 0001:0002e840       ?has_flag@?$output_processor@DV?$stream_output_adapter@D@__crt_stdio_output@@V?$standard_base@DV?$stream_output_adapter@D@__crt_stdio_output@@@2@@__crt_stdio_output@@ABE_NI@Z 1002f840 f i libucrtd:output.obj
 0001:0002e870       ?has_flag@?$output_processor@DV?$string_output_adapter@D@__crt_stdio_output@@V?$format_validation_base@DV?$string_output_adapter@D@__crt_stdio_output@@@2@@__crt_stdio_output@@ABE_NI@Z 1002f870 f i libucrtd:output.obj
 0001:0002e8a0       ?has_flag@?$output_processor@DV?$string_output_adapter@D@__crt_stdio_output@@V?$positional_parameter_base@DV?$string_output_adapter@D@__crt_stdio_output@@@2@@__crt_stdio_output@@ABE_NI@Z 1002f8a0 f i libucrtd:output.obj
 0001:0002e8d0       ?has_flag@?$output_processor@DV?$string_output_adapter@D@__crt_stdio_output@@V?$standard_base@DV?$string_output_adapter@D@__crt_stdio_output@@@2@@__crt_stdio_output@@ABE_NI@Z 1002f8d0 f i libucrtd:output.obj
 0001:0002e900       ?has_flag@?$output_processor@_WV?$stream_output_adapter@_W@__crt_stdio_output@@V?$format_validation_base@_WV?$stream_output_adapter@_W@__crt_stdio_output@@@2@@__crt_stdio_output@@ABE_NI@Z 1002f900 f i libucrtd:output.obj
 0001:0002e930       ?has_flag@?$output_processor@_WV?$stream_output_adapter@_W@__crt_stdio_output@@V?$positional_parameter_base@_WV?$stream_output_adapter@_W@__crt_stdio_output@@@2@@__crt_stdio_output@@ABE_NI@Z 1002f930 f i libucrtd:output.obj
 0001:0002e960       ?has_flag@?$output_processor@_WV?$stream_output_adapter@_W@__crt_stdio_output@@V?$standard_base@_WV?$stream_output_adapter@_W@__crt_stdio_output@@@2@@__crt_stdio_output@@ABE_NI@Z 1002f960 f i libucrtd:output.obj
 0001:0002e990       ?has_flag@?$output_processor@_WV?$string_output_adapter@_W@__crt_stdio_output@@V?$format_validation_base@_WV?$string_output_adapter@_W@__crt_stdio_output@@@2@@__crt_stdio_output@@ABE_NI@Z 1002f990 f i libucrtd:output.obj
 0001:0002e9c0       ?has_flag@?$output_processor@_WV?$string_output_adapter@_W@__crt_stdio_output@@V?$positional_parameter_base@_WV?$string_output_adapter@_W@__crt_stdio_output@@@2@@__crt_stdio_output@@ABE_NI@Z 1002f9c0 f i libucrtd:output.obj
 0001:0002e9f0       ?has_flag@?$output_processor@_WV?$string_output_adapter@_W@__crt_stdio_output@@V?$standard_base@_WV?$string_output_adapter@_W@__crt_stdio_output@@@2@@__crt_stdio_output@@ABE_NI@Z 1002f9f0 f i libucrtd:output.obj
 0001:0002ea20       ?is_positional_parameter_reappearance_consistent@?$positional_parameter_base@DV?$stream_output_adapter@D@__crt_stdio_output@@@__crt_stdio_output@@AAE_NABUparameter_data@12@W4parameter_type@12@DW4length_modifier@2@@Z 1002fa20 f i libucrtd:output.obj
 0001:0002ec50       ?is_positional_parameter_reappearance_consistent@?$positional_parameter_base@DV?$string_output_adapter@D@__crt_stdio_output@@@__crt_stdio_output@@AAE_NABUparameter_data@12@W4parameter_type@12@DW4length_modifier@2@@Z 1002fc50 f i libucrtd:output.obj
 0001:0002ee80       ?is_positional_parameter_reappearance_consistent@?$positional_parameter_base@_WV?$stream_output_adapter@_W@__crt_stdio_output@@@__crt_stdio_output@@AAE_NABUparameter_data@12@W4parameter_type@12@_WW4length_modifier@2@@Z 1002fe80 f i libucrtd:output.obj
 0001:0002f0b0       ?is_positional_parameter_reappearance_consistent@?$positional_parameter_base@_WV?$string_output_adapter@_W@__crt_stdio_output@@@__crt_stdio_output@@AAE_NABUparameter_data@12@W4parameter_type@12@_WW4length_modifier@2@@Z 100300b0 f i libucrtd:output.obj
 0001:0002f2e0       ?is_string_backed@__crt_stdio_stream@@QBE_NXZ 100302e0 f i libucrtd:output.obj
 0001:0002f320       ?narrow_null_string@?$output_processor@DV?$stream_output_adapter@D@__crt_stdio_output@@V?$format_validation_base@DV?$stream_output_adapter@D@__crt_stdio_output@@@2@@__crt_stdio_output@@CAPADXZ 10030320 f i libucrtd:output.obj
 0001:0002f330       ?narrow_null_string@?$output_processor@DV?$stream_output_adapter@D@__crt_stdio_output@@V?$positional_parameter_base@DV?$stream_output_adapter@D@__crt_stdio_output@@@2@@__crt_stdio_output@@CAPADXZ 10030330 f i libucrtd:output.obj
 0001:0002f340       ?narrow_null_string@?$output_processor@DV?$stream_output_adapter@D@__crt_stdio_output@@V?$standard_base@DV?$stream_output_adapter@D@__crt_stdio_output@@@2@@__crt_stdio_output@@CAPADXZ 10030340 f i libucrtd:output.obj
 0001:0002f350       ?narrow_null_string@?$output_processor@DV?$string_output_adapter@D@__crt_stdio_output@@V?$format_validation_base@DV?$string_output_adapter@D@__crt_stdio_output@@@2@@__crt_stdio_output@@CAPADXZ 10030350 f i libucrtd:output.obj
 0001:0002f360       ?narrow_null_string@?$output_processor@DV?$string_output_adapter@D@__crt_stdio_output@@V?$positional_parameter_base@DV?$string_output_adapter@D@__crt_stdio_output@@@2@@__crt_stdio_output@@CAPADXZ 10030360 f i libucrtd:output.obj
 0001:0002f370       ?narrow_null_string@?$output_processor@DV?$string_output_adapter@D@__crt_stdio_output@@V?$standard_base@DV?$string_output_adapter@D@__crt_stdio_output@@@2@@__crt_stdio_output@@CAPADXZ 10030370 f i libucrtd:output.obj
 0001:0002f380       ?narrow_null_string@?$output_processor@_WV?$stream_output_adapter@_W@__crt_stdio_output@@V?$format_validation_base@_WV?$stream_output_adapter@_W@__crt_stdio_output@@@2@@__crt_stdio_output@@CAPADXZ 10030380 f i libucrtd:output.obj
 0001:0002f390       ?narrow_null_string@?$output_processor@_WV?$stream_output_adapter@_W@__crt_stdio_output@@V?$positional_parameter_base@_WV?$stream_output_adapter@_W@__crt_stdio_output@@@2@@__crt_stdio_output@@CAPADXZ 10030390 f i libucrtd:output.obj
 0001:0002f3a0       ?narrow_null_string@?$output_processor@_WV?$stream_output_adapter@_W@__crt_stdio_output@@V?$standard_base@_WV?$stream_output_adapter@_W@__crt_stdio_output@@@2@@__crt_stdio_output@@CAPADXZ 100303a0 f i libucrtd:output.obj
 0001:0002f3b0       ?narrow_null_string@?$output_processor@_WV?$string_output_adapter@_W@__crt_stdio_output@@V?$format_validation_base@_WV?$string_output_adapter@_W@__crt_stdio_output@@@2@@__crt_stdio_output@@CAPADXZ 100303b0 f i libucrtd:output.obj
 0001:0002f3c0       ?narrow_null_string@?$output_processor@_WV?$string_output_adapter@_W@__crt_stdio_output@@V?$positional_parameter_base@_WV?$string_output_adapter@_W@__crt_stdio_output@@@2@@__crt_stdio_output@@CAPADXZ 100303c0 f i libucrtd:output.obj
 0001:0002f3d0       ?narrow_null_string@?$output_processor@_WV?$string_output_adapter@_W@__crt_stdio_output@@V?$standard_base@_WV?$string_output_adapter@_W@__crt_stdio_output@@@2@@__crt_stdio_output@@CAPADXZ 100303d0 f i libucrtd:output.obj
 0001:0002f3e0       ?parse_int_from_format_string@?$output_processor@DV?$stream_output_adapter@D@__crt_stdio_output@@V?$format_validation_base@DV?$stream_output_adapter@D@__crt_stdio_output@@@2@@__crt_stdio_output@@AAE_NQAH@Z 100303e0 f i libucrtd:output.obj
 0001:0002f4a0       ?parse_int_from_format_string@?$output_processor@DV?$stream_output_adapter@D@__crt_stdio_output@@V?$positional_parameter_base@DV?$stream_output_adapter@D@__crt_stdio_output@@@2@@__crt_stdio_output@@AAE_NQAH@Z 100304a0 f i libucrtd:output.obj
 0001:0002f560       ?parse_int_from_format_string@?$output_processor@DV?$stream_output_adapter@D@__crt_stdio_output@@V?$standard_base@DV?$stream_output_adapter@D@__crt_stdio_output@@@2@@__crt_stdio_output@@AAE_NQAH@Z 10030560 f i libucrtd:output.obj
 0001:0002f620       ?parse_int_from_format_string@?$output_processor@DV?$string_output_adapter@D@__crt_stdio_output@@V?$format_validation_base@DV?$string_output_adapter@D@__crt_stdio_output@@@2@@__crt_stdio_output@@AAE_NQAH@Z 10030620 f i libucrtd:output.obj
 0001:0002f6e0       ?parse_int_from_format_string@?$output_processor@DV?$string_output_adapter@D@__crt_stdio_output@@V?$positional_parameter_base@DV?$string_output_adapter@D@__crt_stdio_output@@@2@@__crt_stdio_output@@AAE_NQAH@Z 100306e0 f i libucrtd:output.obj
 0001:0002f7a0       ?parse_int_from_format_string@?$output_processor@DV?$string_output_adapter@D@__crt_stdio_output@@V?$standard_base@DV?$string_output_adapter@D@__crt_stdio_output@@@2@@__crt_stdio_output@@AAE_NQAH@Z 100307a0 f i libucrtd:output.obj
 0001:0002f860       ?parse_int_from_format_string@?$output_processor@_WV?$stream_output_adapter@_W@__crt_stdio_output@@V?$format_validation_base@_WV?$stream_output_adapter@_W@__crt_stdio_output@@@2@@__crt_stdio_output@@AAE_NQAH@Z 10030860 f i libucrtd:output.obj
 0001:0002f920       ?parse_int_from_format_string@?$output_processor@_WV?$stream_output_adapter@_W@__crt_stdio_output@@V?$positional_parameter_base@_WV?$stream_output_adapter@_W@__crt_stdio_output@@@2@@__crt_stdio_output@@AAE_NQAH@Z 10030920 f i libucrtd:output.obj
 0001:0002f9e0       ?parse_int_from_format_string@?$output_processor@_WV?$stream_output_adapter@_W@__crt_stdio_output@@V?$standard_base@_WV?$stream_output_adapter@_W@__crt_stdio_output@@@2@@__crt_stdio_output@@AAE_NQAH@Z 100309e0 f i libucrtd:output.obj
 0001:0002faa0       ?parse_int_from_format_string@?$output_processor@_WV?$string_output_adapter@_W@__crt_stdio_output@@V?$format_validation_base@_WV?$string_output_adapter@_W@__crt_stdio_output@@@2@@__crt_stdio_output@@AAE_NQAH@Z 10030aa0 f i libucrtd:output.obj
 0001:0002fb60       ?parse_int_from_format_string@?$output_processor@_WV?$string_output_adapter@_W@__crt_stdio_output@@V?$positional_parameter_base@_WV?$string_output_adapter@_W@__crt_stdio_output@@@2@@__crt_stdio_output@@AAE_NQAH@Z 10030b60 f i libucrtd:output.obj
 0001:0002fc20       ?parse_int_from_format_string@?$output_processor@_WV?$string_output_adapter@_W@__crt_stdio_output@@V?$standard_base@_WV?$string_output_adapter@_W@__crt_stdio_output@@@2@@__crt_stdio_output@@AAE_NQAH@Z 10030c20 f i libucrtd:output.obj
 0001:0002fce0       ?process@?$output_processor@DV?$stream_output_adapter@D@__crt_stdio_output@@V?$format_validation_base@DV?$stream_output_adapter@D@__crt_stdio_output@@@2@@__crt_stdio_output@@QAEHXZ 10030ce0 f i libucrtd:output.obj
 0001:0002ff90       ?process@?$output_processor@DV?$stream_output_adapter@D@__crt_stdio_output@@V?$positional_parameter_base@DV?$stream_output_adapter@D@__crt_stdio_output@@@2@@__crt_stdio_output@@QAEHXZ 10030f90 f i libucrtd:output.obj
 0001:00030240       ?process@?$output_processor@DV?$stream_output_adapter@D@__crt_stdio_output@@V?$standard_base@DV?$stream_output_adapter@D@__crt_stdio_output@@@2@@__crt_stdio_output@@QAEHXZ 10031240 f i libucrtd:output.obj
 0001:000304f0       ?process@?$output_processor@DV?$string_output_adapter@D@__crt_stdio_output@@V?$format_validation_base@DV?$string_output_adapter@D@__crt_stdio_output@@@2@@__crt_stdio_output@@QAEHXZ 100314f0 f i libucrtd:output.obj
 0001:000307a0       ?process@?$output_processor@DV?$string_output_adapter@D@__crt_stdio_output@@V?$positional_parameter_base@DV?$string_output_adapter@D@__crt_stdio_output@@@2@@__crt_stdio_output@@QAEHXZ 100317a0 f i libucrtd:output.obj
 0001:00030a50       ?process@?$output_processor@DV?$string_output_adapter@D@__crt_stdio_output@@V?$standard_base@DV?$string_output_adapter@D@__crt_stdio_output@@@2@@__crt_stdio_output@@QAEHXZ 10031a50 f i libucrtd:output.obj
 0001:00030d00       ?process@?$output_processor@_WV?$stream_output_adapter@_W@__crt_stdio_output@@V?$format_validation_base@_WV?$stream_output_adapter@_W@__crt_stdio_output@@@2@@__crt_stdio_output@@QAEHXZ 10031d00 f i libucrtd:output.obj
 0001:00030fb0       ?process@?$output_processor@_WV?$stream_output_adapter@_W@__crt_stdio_output@@V?$positional_parameter_base@_WV?$stream_output_adapter@_W@__crt_stdio_output@@@2@@__crt_stdio_output@@QAEHXZ 10031fb0 f i libucrtd:output.obj
 0001:00031260       ?process@?$output_processor@_WV?$stream_output_adapter@_W@__crt_stdio_output@@V?$standard_base@_WV?$stream_output_adapter@_W@__crt_stdio_output@@@2@@__crt_stdio_output@@QAEHXZ 10032260 f i libucrtd:output.obj
 0001:00031510       ?process@?$output_processor@_WV?$string_output_adapter@_W@__crt_stdio_output@@V?$format_validation_base@_WV?$string_output_adapter@_W@__crt_stdio_output@@@2@@__crt_stdio_output@@QAEHXZ 10032510 f i libucrtd:output.obj
 0001:000317c0       ?process@?$output_processor@_WV?$string_output_adapter@_W@__crt_stdio_output@@V?$positional_parameter_base@_WV?$string_output_adapter@_W@__crt_stdio_output@@@2@@__crt_stdio_output@@QAEHXZ 100327c0 f i libucrtd:output.obj
 0001:00031a70       ?process@?$output_processor@_WV?$string_output_adapter@_W@__crt_stdio_output@@V?$standard_base@_WV?$string_output_adapter@_W@__crt_stdio_output@@@2@@__crt_stdio_output@@QAEHXZ 10032a70 f i libucrtd:output.obj
 0001:00031d20       ?public_stream@__crt_stdio_stream@@QBEPAU_iobuf@@XZ 10032d20 f i libucrtd:output.obj
 0001:00031d40       ?set_flag@?$output_processor@DV?$stream_output_adapter@D@__crt_stdio_output@@V?$format_validation_base@DV?$stream_output_adapter@D@__crt_stdio_output@@@2@@__crt_stdio_output@@AAEXI@Z 10032d40 f i libucrtd:output.obj
 0001:00031d60       ?set_flag@?$output_processor@DV?$stream_output_adapter@D@__crt_stdio_output@@V?$positional_parameter_base@DV?$stream_output_adapter@D@__crt_stdio_output@@@2@@__crt_stdio_output@@AAEXI@Z 10032d60 f i libucrtd:output.obj
 0001:00031d80       ?set_flag@?$output_processor@DV?$stream_output_adapter@D@__crt_stdio_output@@V?$standard_base@DV?$stream_output_adapter@D@__crt_stdio_output@@@2@@__crt_stdio_output@@AAEXI@Z 10032d80 f i libucrtd:output.obj
 0001:00031da0       ?set_flag@?$output_processor@DV?$string_output_adapter@D@__crt_stdio_output@@V?$format_validation_base@DV?$string_output_adapter@D@__crt_stdio_output@@@2@@__crt_stdio_output@@AAEXI@Z 10032da0 f i libucrtd:output.obj
 0001:00031dc0       ?set_flag@?$output_processor@DV?$string_output_adapter@D@__crt_stdio_output@@V?$positional_parameter_base@DV?$string_output_adapter@D@__crt_stdio_output@@@2@@__crt_stdio_output@@AAEXI@Z 10032dc0 f i libucrtd:output.obj
 0001:00031de0       ?set_flag@?$output_processor@DV?$string_output_adapter@D@__crt_stdio_output@@V?$standard_base@DV?$string_output_adapter@D@__crt_stdio_output@@@2@@__crt_stdio_output@@AAEXI@Z 10032de0 f i libucrtd:output.obj
 0001:00031e00       ?set_flag@?$output_processor@_WV?$stream_output_adapter@_W@__crt_stdio_output@@V?$format_validation_base@_WV?$stream_output_adapter@_W@__crt_stdio_output@@@2@@__crt_stdio_output@@AAEXI@Z 10032e00 f i libucrtd:output.obj
 0001:00031e20       ?set_flag@?$output_processor@_WV?$stream_output_adapter@_W@__crt_stdio_output@@V?$positional_parameter_base@_WV?$stream_output_adapter@_W@__crt_stdio_output@@@2@@__crt_stdio_output@@AAEXI@Z 10032e20 f i libucrtd:output.obj
 0001:00031e40       ?set_flag@?$output_processor@_WV?$stream_output_adapter@_W@__crt_stdio_output@@V?$standard_base@_WV?$stream_output_adapter@_W@__crt_stdio_output@@@2@@__crt_stdio_output@@AAEXI@Z 10032e40 f i libucrtd:output.obj
 0001:00031e60       ?set_flag@?$output_processor@_WV?$string_output_adapter@_W@__crt_stdio_output@@V?$format_validation_base@_WV?$string_output_adapter@_W@__crt_stdio_output@@@2@@__crt_stdio_output@@AAEXI@Z 10032e60 f i libucrtd:output.obj
 0001:00031e80       ?set_flag@?$output_processor@_WV?$string_output_adapter@_W@__crt_stdio_output@@V?$positional_parameter_base@_WV?$string_output_adapter@_W@__crt_stdio_output@@@2@@__crt_stdio_output@@AAEXI@Z 10032e80 f i libucrtd:output.obj
 0001:00031ea0       ?set_flag@?$output_processor@_WV?$string_output_adapter@_W@__crt_stdio_output@@V?$standard_base@_WV?$string_output_adapter@_W@__crt_stdio_output@@@2@@__crt_stdio_output@@AAEXI@Z 10032ea0 f i libucrtd:output.obj
 0001:00031ec0       ?should_format@?$positional_parameter_base@DV?$stream_output_adapter@D@__crt_stdio_output@@@__crt_stdio_output@@IAE_NXZ 10032ec0 f i libucrtd:output.obj
 0001:00031f00       ?should_format@?$positional_parameter_base@DV?$string_output_adapter@D@__crt_stdio_output@@@__crt_stdio_output@@IAE_NXZ 10032f00 f i libucrtd:output.obj
 0001:00031f40       ?should_format@?$positional_parameter_base@_WV?$stream_output_adapter@_W@__crt_stdio_output@@@__crt_stdio_output@@IAE_NXZ 10032f40 f i libucrtd:output.obj
 0001:00031f80       ?should_format@?$positional_parameter_base@_WV?$string_output_adapter@_W@__crt_stdio_output@@@__crt_stdio_output@@IAE_NXZ 10032f80 f i libucrtd:output.obj
 0001:00031fc0       ?should_format@?$standard_base@DV?$stream_output_adapter@D@__crt_stdio_output@@@__crt_stdio_output@@IAE_NXZ 10032fc0 f i libucrtd:output.obj
 0001:00031fd0       ?should_format@?$standard_base@DV?$string_output_adapter@D@__crt_stdio_output@@@__crt_stdio_output@@IAE_NXZ 10032fd0 f i libucrtd:output.obj
 0001:00031fe0       ?should_format@?$standard_base@_WV?$stream_output_adapter@_W@__crt_stdio_output@@@__crt_stdio_output@@IAE_NXZ 10032fe0 f i libucrtd:output.obj
 0001:00031ff0       ?should_format@?$standard_base@_WV?$string_output_adapter@_W@__crt_stdio_output@@@__crt_stdio_output@@IAE_NXZ 10032ff0 f i libucrtd:output.obj
 0001:00032000       ?should_skip_normal_state_processing@?$positional_parameter_base@DV?$stream_output_adapter@D@__crt_stdio_output@@@__crt_stdio_output@@IAE_NXZ 10033000 f i libucrtd:output.obj
 0001:00032050       ?should_skip_normal_state_processing@?$positional_parameter_base@DV?$string_output_adapter@D@__crt_stdio_output@@@__crt_stdio_output@@IAE_NXZ 10033050 f i libucrtd:output.obj
 0001:000320a0       ?should_skip_normal_state_processing@?$positional_parameter_base@_WV?$stream_output_adapter@_W@__crt_stdio_output@@@__crt_stdio_output@@IAE_NXZ 100330a0 f i libucrtd:output.obj
 0001:000320f0       ?should_skip_normal_state_processing@?$positional_parameter_base@_WV?$string_output_adapter@_W@__crt_stdio_output@@@__crt_stdio_output@@IAE_NXZ 100330f0 f i libucrtd:output.obj
 0001:00032140       ?should_skip_normal_state_processing@?$standard_base@DV?$stream_output_adapter@D@__crt_stdio_output@@@__crt_stdio_output@@IAE_NXZ 10033140 f i libucrtd:output.obj
 0001:00032150       ?should_skip_normal_state_processing@?$standard_base@DV?$string_output_adapter@D@__crt_stdio_output@@@__crt_stdio_output@@IAE_NXZ 10033150 f i libucrtd:output.obj
 0001:00032160       ?should_skip_normal_state_processing@?$standard_base@_WV?$stream_output_adapter@_W@__crt_stdio_output@@@__crt_stdio_output@@IAE_NXZ 10033160 f i libucrtd:output.obj
 0001:00032170       ?should_skip_normal_state_processing@?$standard_base@_WV?$string_output_adapter@_W@__crt_stdio_output@@@__crt_stdio_output@@IAE_NXZ 10033170 f i libucrtd:output.obj
 0001:00032180       ?should_skip_type_state_output@?$positional_parameter_base@DV?$stream_output_adapter@D@__crt_stdio_output@@@__crt_stdio_output@@IBE_NXZ 10033180 f i libucrtd:output.obj
 0001:000321c0       ?should_skip_type_state_output@?$positional_parameter_base@DV?$string_output_adapter@D@__crt_stdio_output@@@__crt_stdio_output@@IBE_NXZ 100331c0 f i libucrtd:output.obj
 0001:00032200       ?should_skip_type_state_output@?$positional_parameter_base@_WV?$stream_output_adapter@_W@__crt_stdio_output@@@__crt_stdio_output@@IBE_NXZ 10033200 f i libucrtd:output.obj
 0001:00032240       ?should_skip_type_state_output@?$positional_parameter_base@_WV?$string_output_adapter@_W@__crt_stdio_output@@@__crt_stdio_output@@IBE_NXZ 10033240 f i libucrtd:output.obj
 0001:00032280       ?should_skip_type_state_output@?$standard_base@DV?$stream_output_adapter@D@__crt_stdio_output@@@__crt_stdio_output@@IBE_NXZ 10033280 f i libucrtd:output.obj
 0001:00032290       ?should_skip_type_state_output@?$standard_base@DV?$string_output_adapter@D@__crt_stdio_output@@@__crt_stdio_output@@IBE_NXZ 10033290 f i libucrtd:output.obj
 0001:000322a0       ?should_skip_type_state_output@?$standard_base@_WV?$stream_output_adapter@_W@__crt_stdio_output@@@__crt_stdio_output@@IBE_NXZ 100332a0 f i libucrtd:output.obj
 0001:000322b0       ?should_skip_type_state_output@?$standard_base@_WV?$string_output_adapter@_W@__crt_stdio_output@@@__crt_stdio_output@@IBE_NXZ 100332b0 f i libucrtd:output.obj
 0001:000322c0       ?state_case_dot@?$output_processor@DV?$stream_output_adapter@D@__crt_stdio_output@@V?$format_validation_base@DV?$stream_output_adapter@D@__crt_stdio_output@@@2@@__crt_stdio_output@@AAE_NXZ 100332c0 f i libucrtd:output.obj
 0001:000322e0       ?state_case_dot@?$output_processor@DV?$stream_output_adapter@D@__crt_stdio_output@@V?$positional_parameter_base@DV?$stream_output_adapter@D@__crt_stdio_output@@@2@@__crt_stdio_output@@AAE_NXZ 100332e0 f i libucrtd:output.obj
 0001:00032300       ?state_case_dot@?$output_processor@DV?$stream_output_adapter@D@__crt_stdio_output@@V?$standard_base@DV?$stream_output_adapter@D@__crt_stdio_output@@@2@@__crt_stdio_output@@AAE_NXZ 10033300 f i libucrtd:output.obj
 0001:00032320       ?state_case_dot@?$output_processor@DV?$string_output_adapter@D@__crt_stdio_output@@V?$format_validation_base@DV?$string_output_adapter@D@__crt_stdio_output@@@2@@__crt_stdio_output@@AAE_NXZ 10033320 f i libucrtd:output.obj
 0001:00032340       ?state_case_dot@?$output_processor@DV?$string_output_adapter@D@__crt_stdio_output@@V?$positional_parameter_base@DV?$string_output_adapter@D@__crt_stdio_output@@@2@@__crt_stdio_output@@AAE_NXZ 10033340 f i libucrtd:output.obj
 0001:00032360       ?state_case_dot@?$output_processor@DV?$string_output_adapter@D@__crt_stdio_output@@V?$standard_base@DV?$string_output_adapter@D@__crt_stdio_output@@@2@@__crt_stdio_output@@AAE_NXZ 10033360 f i libucrtd:output.obj
 0001:00032380       ?state_case_dot@?$output_processor@_WV?$stream_output_adapter@_W@__crt_stdio_output@@V?$format_validation_base@_WV?$stream_output_adapter@_W@__crt_stdio_output@@@2@@__crt_stdio_output@@AAE_NXZ 10033380 f i libucrtd:output.obj
 0001:000323a0       ?state_case_dot@?$output_processor@_WV?$stream_output_adapter@_W@__crt_stdio_output@@V?$positional_parameter_base@_WV?$stream_output_adapter@_W@__crt_stdio_output@@@2@@__crt_stdio_output@@AAE_NXZ 100333a0 f i libucrtd:output.obj
 0001:000323c0       ?state_case_dot@?$output_processor@_WV?$stream_output_adapter@_W@__crt_stdio_output@@V?$standard_base@_WV?$stream_output_adapter@_W@__crt_stdio_output@@@2@@__crt_stdio_output@@AAE_NXZ 100333c0 f i libucrtd:output.obj
 0001:000323e0       ?state_case_dot@?$output_processor@_WV?$string_output_adapter@_W@__crt_stdio_output@@V?$format_validation_base@_WV?$string_output_adapter@_W@__crt_stdio_output@@@2@@__crt_stdio_output@@AAE_NXZ 100333e0 f i libucrtd:output.obj
 0001:00032400       ?state_case_dot@?$output_processor@_WV?$string_output_adapter@_W@__crt_stdio_output@@V?$positional_parameter_base@_WV?$string_output_adapter@_W@__crt_stdio_output@@@2@@__crt_stdio_output@@AAE_NXZ 10033400 f i libucrtd:output.obj
 0001:00032420       ?state_case_dot@?$output_processor@_WV?$string_output_adapter@_W@__crt_stdio_output@@V?$standard_base@_WV?$string_output_adapter@_W@__crt_stdio_output@@@2@@__crt_stdio_output@@AAE_NXZ 10033420 f i libucrtd:output.obj
 0001:00032440       ?state_case_flag@?$output_processor@DV?$stream_output_adapter@D@__crt_stdio_output@@V?$format_validation_base@DV?$stream_output_adapter@D@__crt_stdio_output@@@2@@__crt_stdio_output@@AAE_NXZ 10033440 f i libucrtd:output.obj
 0001:000324f0       ?state_case_flag@?$output_processor@DV?$stream_output_adapter@D@__crt_stdio_output@@V?$positional_parameter_base@DV?$stream_output_adapter@D@__crt_stdio_output@@@2@@__crt_stdio_output@@AAE_NXZ 100334f0 f i libucrtd:output.obj
 0001:000325a0       ?state_case_flag@?$output_processor@DV?$stream_output_adapter@D@__crt_stdio_output@@V?$standard_base@DV?$stream_output_adapter@D@__crt_stdio_output@@@2@@__crt_stdio_output@@AAE_NXZ 100335a0 f i libucrtd:output.obj
 0001:00032650       ?state_case_flag@?$output_processor@DV?$string_output_adapter@D@__crt_stdio_output@@V?$format_validation_base@DV?$string_output_adapter@D@__crt_stdio_output@@@2@@__crt_stdio_output@@AAE_NXZ 10033650 f i libucrtd:output.obj
 0001:00032700       ?state_case_flag@?$output_processor@DV?$string_output_adapter@D@__crt_stdio_output@@V?$positional_parameter_base@DV?$string_output_adapter@D@__crt_stdio_output@@@2@@__crt_stdio_output@@AAE_NXZ 10033700 f i libucrtd:output.obj
 0001:000327b0       ?state_case_flag@?$output_processor@DV?$string_output_adapter@D@__crt_stdio_output@@V?$standard_base@DV?$string_output_adapter@D@__crt_stdio_output@@@2@@__crt_stdio_output@@AAE_NXZ 100337b0 f i libucrtd:output.obj
 0001:00032860       ?state_case_flag@?$output_processor@_WV?$stream_output_adapter@_W@__crt_stdio_output@@V?$format_validation_base@_WV?$stream_output_adapter@_W@__crt_stdio_output@@@2@@__crt_stdio_output@@AAE_NXZ 10033860 f i libucrtd:output.obj
 0001:00032910       ?state_case_flag@?$output_processor@_WV?$stream_output_adapter@_W@__crt_stdio_output@@V?$positional_parameter_base@_WV?$stream_output_adapter@_W@__crt_stdio_output@@@2@@__crt_stdio_output@@AAE_NXZ 10033910 f i libucrtd:output.obj
 0001:000329c0       ?state_case_flag@?$output_processor@_WV?$stream_output_adapter@_W@__crt_stdio_output@@V?$standard_base@_WV?$stream_output_adapter@_W@__crt_stdio_output@@@2@@__crt_stdio_output@@AAE_NXZ 100339c0 f i libucrtd:output.obj
 0001:00032a70       ?state_case_flag@?$output_processor@_WV?$string_output_adapter@_W@__crt_stdio_output@@V?$format_validation_base@_WV?$string_output_adapter@_W@__crt_stdio_output@@@2@@__crt_stdio_output@@AAE_NXZ 10033a70 f i libucrtd:output.obj
 0001:00032b20       ?state_case_flag@?$output_processor@_WV?$string_output_adapter@_W@__crt_stdio_output@@V?$positional_parameter_base@_WV?$string_output_adapter@_W@__crt_stdio_output@@@2@@__crt_stdio_output@@AAE_NXZ 10033b20 f i libucrtd:output.obj
 0001:00032bd0       ?state_case_flag@?$output_processor@_WV?$string_output_adapter@_W@__crt_stdio_output@@V?$standard_base@_WV?$string_output_adapter@_W@__crt_stdio_output@@@2@@__crt_stdio_output@@AAE_NXZ 10033bd0 f i libucrtd:output.obj
 0001:00032c80       ?state_case_normal@?$output_processor@DV?$stream_output_adapter@D@__crt_stdio_output@@V?$format_validation_base@DV?$stream_output_adapter@D@__crt_stdio_output@@@2@@__crt_stdio_output@@AAE_NXZ 10033c80 f i libucrtd:output.obj
 0001:00032d30       ?state_case_normal@?$output_processor@DV?$stream_output_adapter@D@__crt_stdio_output@@V?$positional_parameter_base@DV?$stream_output_adapter@D@__crt_stdio_output@@@2@@__crt_stdio_output@@AAE_NXZ 10033d30 f i libucrtd:output.obj
 0001:00032de0       ?state_case_normal@?$output_processor@DV?$stream_output_adapter@D@__crt_stdio_output@@V?$standard_base@DV?$stream_output_adapter@D@__crt_stdio_output@@@2@@__crt_stdio_output@@AAE_NXZ 10033de0 f i libucrtd:output.obj
 0001:00032e90       ?state_case_normal@?$output_processor@DV?$string_output_adapter@D@__crt_stdio_output@@V?$format_validation_base@DV?$string_output_adapter@D@__crt_stdio_output@@@2@@__crt_stdio_output@@AAE_NXZ 10033e90 f i libucrtd:output.obj
 0001:00032f40       ?state_case_normal@?$output_processor@DV?$string_output_adapter@D@__crt_stdio_output@@V?$positional_parameter_base@DV?$string_output_adapter@D@__crt_stdio_output@@@2@@__crt_stdio_output@@AAE_NXZ 10033f40 f i libucrtd:output.obj
 0001:00032ff0       ?state_case_normal@?$output_processor@DV?$string_output_adapter@D@__crt_stdio_output@@V?$standard_base@DV?$string_output_adapter@D@__crt_stdio_output@@@2@@__crt_stdio_output@@AAE_NXZ 10033ff0 f i libucrtd:output.obj
 0001:000330a0       ?state_case_normal@?$output_processor@_WV?$stream_output_adapter@_W@__crt_stdio_output@@V?$format_validation_base@_WV?$stream_output_adapter@_W@__crt_stdio_output@@@2@@__crt_stdio_output@@AAE_NXZ 100340a0 f i libucrtd:output.obj
 0001:00033150       ?state_case_normal@?$output_processor@_WV?$stream_output_adapter@_W@__crt_stdio_output@@V?$positional_parameter_base@_WV?$stream_output_adapter@_W@__crt_stdio_output@@@2@@__crt_stdio_output@@AAE_NXZ 10034150 f i libucrtd:output.obj
 0001:00033200       ?state_case_normal@?$output_processor@_WV?$stream_output_adapter@_W@__crt_stdio_output@@V?$standard_base@_WV?$stream_output_adapter@_W@__crt_stdio_output@@@2@@__crt_stdio_output@@AAE_NXZ 10034200 f i libucrtd:output.obj
 0001:000332b0       ?state_case_normal@?$output_processor@_WV?$string_output_adapter@_W@__crt_stdio_output@@V?$format_validation_base@_WV?$string_output_adapter@_W@__crt_stdio_output@@@2@@__crt_stdio_output@@AAE_NXZ 100342b0 f i libucrtd:output.obj
 0001:00033360       ?state_case_normal@?$output_processor@_WV?$string_output_adapter@_W@__crt_stdio_output@@V?$positional_parameter_base@_WV?$string_output_adapter@_W@__crt_stdio_output@@@2@@__crt_stdio_output@@AAE_NXZ 10034360 f i libucrtd:output.obj
 0001:00033410       ?state_case_normal@?$output_processor@_WV?$string_output_adapter@_W@__crt_stdio_output@@V?$standard_base@_WV?$string_output_adapter@_W@__crt_stdio_output@@@2@@__crt_stdio_output@@AAE_NXZ 10034410 f i libucrtd:output.obj
 0001:000334c0       ?state_case_normal_common@?$output_processor@DV?$stream_output_adapter@D@__crt_stdio_output@@V?$format_validation_base@DV?$stream_output_adapter@D@__crt_stdio_output@@@2@@__crt_stdio_output@@AAE_NXZ 100344c0 f i libucrtd:output.obj
 0001:00033510       ?state_case_normal_common@?$output_processor@DV?$stream_output_adapter@D@__crt_stdio_output@@V?$positional_parameter_base@DV?$stream_output_adapter@D@__crt_stdio_output@@@2@@__crt_stdio_output@@AAE_NXZ 10034510 f i libucrtd:output.obj
 0001:00033560       ?state_case_normal_common@?$output_processor@DV?$stream_output_adapter@D@__crt_stdio_output@@V?$standard_base@DV?$stream_output_adapter@D@__crt_stdio_output@@@2@@__crt_stdio_output@@AAE_NXZ 10034560 f i libucrtd:output.obj
 0001:000335b0       ?state_case_normal_common@?$output_processor@DV?$string_output_adapter@D@__crt_stdio_output@@V?$format_validation_base@DV?$string_output_adapter@D@__crt_stdio_output@@@2@@__crt_stdio_output@@AAE_NXZ 100345b0 f i libucrtd:output.obj
 0001:00033600       ?state_case_normal_common@?$output_processor@DV?$string_output_adapter@D@__crt_stdio_output@@V?$positional_parameter_base@DV?$string_output_adapter@D@__crt_stdio_output@@@2@@__crt_stdio_output@@AAE_NXZ 10034600 f i libucrtd:output.obj
 0001:00033650       ?state_case_normal_common@?$output_processor@DV?$string_output_adapter@D@__crt_stdio_output@@V?$standard_base@DV?$string_output_adapter@D@__crt_stdio_output@@@2@@__crt_stdio_output@@AAE_NXZ 10034650 f i libucrtd:output.obj
 0001:000336a0       ?state_case_normal_common@?$output_processor@_WV?$stream_output_adapter@_W@__crt_stdio_output@@V?$format_validation_base@_WV?$stream_output_adapter@_W@__crt_stdio_output@@@2@@__crt_stdio_output@@AAE_NXZ 100346a0 f i libucrtd:output.obj
 0001:000336f0       ?state_case_normal_common@?$output_processor@_WV?$stream_output_adapter@_W@__crt_stdio_output@@V?$positional_parameter_base@_WV?$stream_output_adapter@_W@__crt_stdio_output@@@2@@__crt_stdio_output@@AAE_NXZ 100346f0 f i libucrtd:output.obj
 0001:00033740       ?state_case_normal_common@?$output_processor@_WV?$stream_output_adapter@_W@__crt_stdio_output@@V?$standard_base@_WV?$stream_output_adapter@_W@__crt_stdio_output@@@2@@__crt_stdio_output@@AAE_NXZ 10034740 f i libucrtd:output.obj
 0001:00033790       ?state_case_normal_common@?$output_processor@_WV?$string_output_adapter@_W@__crt_stdio_output@@V?$format_validation_base@_WV?$string_output_adapter@_W@__crt_stdio_output@@@2@@__crt_stdio_output@@AAE_NXZ 10034790 f i libucrtd:output.obj
 0001:000337e0       ?state_case_normal_common@?$output_processor@_WV?$string_output_adapter@_W@__crt_stdio_output@@V?$positional_parameter_base@_WV?$string_output_adapter@_W@__crt_stdio_output@@@2@@__crt_stdio_output@@AAE_NXZ 100347e0 f i libucrtd:output.obj
 0001:00033830       ?state_case_normal_common@?$output_processor@_WV?$string_output_adapter@_W@__crt_stdio_output@@V?$standard_base@_WV?$string_output_adapter@_W@__crt_stdio_output@@@2@@__crt_stdio_output@@AAE_NXZ 10034830 f i libucrtd:output.obj
 0001:00033880       ?state_case_normal_tchar@?$output_processor@DV?$stream_output_adapter@D@__crt_stdio_output@@V?$format_validation_base@DV?$stream_output_adapter@D@__crt_stdio_output@@@2@@__crt_stdio_output@@AAE_ND@Z 10034880 f i libucrtd:output.obj
 0001:00033980       ?state_case_normal_tchar@?$output_processor@DV?$stream_output_adapter@D@__crt_stdio_output@@V?$positional_parameter_base@DV?$stream_output_adapter@D@__crt_stdio_output@@@2@@__crt_stdio_output@@AAE_ND@Z 10034980 f i libucrtd:output.obj
 0001:00033a80       ?state_case_normal_tchar@?$output_processor@DV?$stream_output_adapter@D@__crt_stdio_output@@V?$standard_base@DV?$stream_output_adapter@D@__crt_stdio_output@@@2@@__crt_stdio_output@@AAE_ND@Z 10034a80 f i libucrtd:output.obj
 0001:00033b80       ?state_case_normal_tchar@?$output_processor@DV?$string_output_adapter@D@__crt_stdio_output@@V?$format_validation_base@DV?$string_output_adapter@D@__crt_stdio_output@@@2@@__crt_stdio_output@@AAE_ND@Z 10034b80 f i libucrtd:output.obj
 0001:00033c80       ?state_case_normal_tchar@?$output_processor@DV?$string_output_adapter@D@__crt_stdio_output@@V?$positional_parameter_base@DV?$string_output_adapter@D@__crt_stdio_output@@@2@@__crt_stdio_output@@AAE_ND@Z 10034c80 f i libucrtd:output.obj
 0001:00033d80       ?state_case_normal_tchar@?$output_processor@DV?$string_output_adapter@D@__crt_stdio_output@@V?$standard_base@DV?$string_output_adapter@D@__crt_stdio_output@@@2@@__crt_stdio_output@@AAE_ND@Z 10034d80 f i libucrtd:output.obj
 0001:00033e80       ?state_case_normal_tchar@?$output_processor@_WV?$stream_output_adapter@_W@__crt_stdio_output@@V?$format_validation_base@_WV?$stream_output_adapter@_W@__crt_stdio_output@@@2@@__crt_stdio_output@@AAE_N_W@Z 10034e80 f i libucrtd:output.obj
 0001:00033ea0       ?state_case_normal_tchar@?$output_processor@_WV?$stream_output_adapter@_W@__crt_stdio_output@@V?$positional_parameter_base@_WV?$stream_output_adapter@_W@__crt_stdio_output@@@2@@__crt_stdio_output@@AAE_N_W@Z 10034ea0 f i libucrtd:output.obj
 0001:00033ec0       ?state_case_normal_tchar@?$output_processor@_WV?$stream_output_adapter@_W@__crt_stdio_output@@V?$standard_base@_WV?$stream_output_adapter@_W@__crt_stdio_output@@@2@@__crt_stdio_output@@AAE_N_W@Z 10034ec0 f i libucrtd:output.obj
 0001:00033ee0       ?state_case_normal_tchar@?$output_processor@_WV?$string_output_adapter@_W@__crt_stdio_output@@V?$format_validation_base@_WV?$string_output_adapter@_W@__crt_stdio_output@@@2@@__crt_stdio_output@@AAE_N_W@Z 10034ee0 f i libucrtd:output.obj
 0001:00033f00       ?state_case_normal_tchar@?$output_processor@_WV?$string_output_adapter@_W@__crt_stdio_output@@V?$positional_parameter_base@_WV?$string_output_adapter@_W@__crt_stdio_output@@@2@@__crt_stdio_output@@AAE_N_W@Z 10034f00 f i libucrtd:output.obj
 0001:00033f20       ?state_case_normal_tchar@?$output_processor@_WV?$string_output_adapter@_W@__crt_stdio_output@@V?$standard_base@_WV?$string_output_adapter@_W@__crt_stdio_output@@@2@@__crt_stdio_output@@AAE_N_W@Z 10034f20 f i libucrtd:output.obj
 0001:00033f40       ?state_case_percent@?$output_processor@DV?$stream_output_adapter@D@__crt_stdio_output@@V?$format_validation_base@DV?$stream_output_adapter@D@__crt_stdio_output@@@2@@__crt_stdio_output@@AAE_NXZ 10034f40 f i libucrtd:output.obj
 0001:00033f90       ?state_case_percent@?$output_processor@DV?$stream_output_adapter@D@__crt_stdio_output@@V?$positional_parameter_base@DV?$stream_output_adapter@D@__crt_stdio_output@@@2@@__crt_stdio_output@@AAE_NXZ 10034f90 f i libucrtd:output.obj
 0001:00033fe0       ?state_case_percent@?$output_processor@DV?$stream_output_adapter@D@__crt_stdio_output@@V?$standard_base@DV?$stream_output_adapter@D@__crt_stdio_output@@@2@@__crt_stdio_output@@AAE_NXZ 10034fe0 f i libucrtd:output.obj
 0001:00034030       ?state_case_percent@?$output_processor@DV?$string_output_adapter@D@__crt_stdio_output@@V?$format_validation_base@DV?$string_output_adapter@D@__crt_stdio_output@@@2@@__crt_stdio_output@@AAE_NXZ 10035030 f i libucrtd:output.obj
 0001:00034080       ?state_case_percent@?$output_processor@DV?$string_output_adapter@D@__crt_stdio_output@@V?$positional_parameter_base@DV?$string_output_adapter@D@__crt_stdio_output@@@2@@__crt_stdio_output@@AAE_NXZ 10035080 f i libucrtd:output.obj
 0001:000340d0       ?state_case_percent@?$output_processor@DV?$string_output_adapter@D@__crt_stdio_output@@V?$standard_base@DV?$string_output_adapter@D@__crt_stdio_output@@@2@@__crt_stdio_output@@AAE_NXZ 100350d0 f i libucrtd:output.obj
 0001:00034120       ?state_case_percent@?$output_processor@_WV?$stream_output_adapter@_W@__crt_stdio_output@@V?$format_validation_base@_WV?$stream_output_adapter@_W@__crt_stdio_output@@@2@@__crt_stdio_output@@AAE_NXZ 10035120 f i libucrtd:output.obj
 0001:00034170       ?state_case_percent@?$output_processor@_WV?$stream_output_adapter@_W@__crt_stdio_output@@V?$positional_parameter_base@_WV?$stream_output_adapter@_W@__crt_stdio_output@@@2@@__crt_stdio_output@@AAE_NXZ 10035170 f i libucrtd:output.obj
 0001:000341c0       ?state_case_percent@?$output_processor@_WV?$stream_output_adapter@_W@__crt_stdio_output@@V?$standard_base@_WV?$stream_output_adapter@_W@__crt_stdio_output@@@2@@__crt_stdio_output@@AAE_NXZ 100351c0 f i libucrtd:output.obj
 0001:00034210       ?state_case_percent@?$output_processor@_WV?$string_output_adapter@_W@__crt_stdio_output@@V?$format_validation_base@_WV?$string_output_adapter@_W@__crt_stdio_output@@@2@@__crt_stdio_output@@AAE_NXZ 10035210 f i libucrtd:output.obj
 0001:00034260       ?state_case_percent@?$output_processor@_WV?$string_output_adapter@_W@__crt_stdio_output@@V?$positional_parameter_base@_WV?$string_output_adapter@_W@__crt_stdio_output@@@2@@__crt_stdio_output@@AAE_NXZ 10035260 f i libucrtd:output.obj
 0001:000342b0       ?state_case_percent@?$output_processor@_WV?$string_output_adapter@_W@__crt_stdio_output@@V?$standard_base@_WV?$string_output_adapter@_W@__crt_stdio_output@@@2@@__crt_stdio_output@@AAE_NXZ 100352b0 f i libucrtd:output.obj
 0001:00034300       ?state_case_precision@?$output_processor@DV?$stream_output_adapter@D@__crt_stdio_output@@V?$format_validation_base@DV?$stream_output_adapter@D@__crt_stdio_output@@@2@@__crt_stdio_output@@AAE_NXZ 10035300 f i libucrtd:output.obj
 0001:00034370       ?state_case_precision@?$output_processor@DV?$stream_output_adapter@D@__crt_stdio_output@@V?$positional_parameter_base@DV?$stream_output_adapter@D@__crt_stdio_output@@@2@@__crt_stdio_output@@AAE_NXZ 10035370 f i libucrtd:output.obj
 0001:000343e0       ?state_case_precision@?$output_processor@DV?$stream_output_adapter@D@__crt_stdio_output@@V?$standard_base@DV?$stream_output_adapter@D@__crt_stdio_output@@@2@@__crt_stdio_output@@AAE_NXZ 100353e0 f i libucrtd:output.obj
 0001:00034450       ?state_case_precision@?$output_processor@DV?$string_output_adapter@D@__crt_stdio_output@@V?$format_validation_base@DV?$string_output_adapter@D@__crt_stdio_output@@@2@@__crt_stdio_output@@AAE_NXZ 10035450 f i libucrtd:output.obj
 0001:000344c0       ?state_case_precision@?$output_processor@DV?$string_output_adapter@D@__crt_stdio_output@@V?$positional_parameter_base@DV?$string_output_adapter@D@__crt_stdio_output@@@2@@__crt_stdio_output@@AAE_NXZ 100354c0 f i libucrtd:output.obj
 0001:00034530       ?state_case_precision@?$output_processor@DV?$string_output_adapter@D@__crt_stdio_output@@V?$standard_base@DV?$string_output_adapter@D@__crt_stdio_output@@@2@@__crt_stdio_output@@AAE_NXZ 10035530 f i libucrtd:output.obj
 0001:000345a0       ?state_case_precision@?$output_processor@_WV?$stream_output_adapter@_W@__crt_stdio_output@@V?$format_validation_base@_WV?$stream_output_adapter@_W@__crt_stdio_output@@@2@@__crt_stdio_output@@AAE_NXZ 100355a0 f i libucrtd:output.obj
 0001:00034610       ?state_case_precision@?$output_processor@_WV?$stream_output_adapter@_W@__crt_stdio_output@@V?$positional_parameter_base@_WV?$stream_output_adapter@_W@__crt_stdio_output@@@2@@__crt_stdio_output@@AAE_NXZ 10035610 f i libucrtd:output.obj
 0001:00034680       ?state_case_precision@?$output_processor@_WV?$stream_output_adapter@_W@__crt_stdio_output@@V?$standard_base@_WV?$stream_output_adapter@_W@__crt_stdio_output@@@2@@__crt_stdio_output@@AAE_NXZ 10035680 f i libucrtd:output.obj
 0001:000346f0       ?state_case_precision@?$output_processor@_WV?$string_output_adapter@_W@__crt_stdio_output@@V?$format_validation_base@_WV?$string_output_adapter@_W@__crt_stdio_output@@@2@@__crt_stdio_output@@AAE_NXZ 100356f0 f i libucrtd:output.obj
 0001:00034760       ?state_case_precision@?$output_processor@_WV?$string_output_adapter@_W@__crt_stdio_output@@V?$positional_parameter_base@_WV?$string_output_adapter@_W@__crt_stdio_output@@@2@@__crt_stdio_output@@AAE_NXZ 10035760 f i libucrtd:output.obj
 0001:000347d0       ?state_case_precision@?$output_processor@_WV?$string_output_adapter@_W@__crt_stdio_output@@V?$standard_base@_WV?$string_output_adapter@_W@__crt_stdio_output@@@2@@__crt_stdio_output@@AAE_NXZ 100357d0 f i libucrtd:output.obj
 0001:00034840       ?state_case_size@?$output_processor@DV?$stream_output_adapter@D@__crt_stdio_output@@V?$format_validation_base@DV?$stream_output_adapter@D@__crt_stdio_output@@@2@@__crt_stdio_output@@AAE_NXZ 10035840 f i libucrtd:output.obj
 0001:00034c10       ?state_case_size@?$output_processor@DV?$stream_output_adapter@D@__crt_stdio_output@@V?$positional_parameter_base@DV?$stream_output_adapter@D@__crt_stdio_output@@@2@@__crt_stdio_output@@AAE_NXZ 10035c10 f i libucrtd:output.obj
 0001:00034fe0       ?state_case_size@?$output_processor@DV?$stream_output_adapter@D@__crt_stdio_output@@V?$standard_base@DV?$stream_output_adapter@D@__crt_stdio_output@@@2@@__crt_stdio_output@@AAE_NXZ 10035fe0 f i libucrtd:output.obj
 0001:000353b0       ?state_case_size@?$output_processor@DV?$string_output_adapter@D@__crt_stdio_output@@V?$format_validation_base@DV?$string_output_adapter@D@__crt_stdio_output@@@2@@__crt_stdio_output@@AAE_NXZ 100363b0 f i libucrtd:output.obj
 0001:00035780       ?state_case_size@?$output_processor@DV?$string_output_adapter@D@__crt_stdio_output@@V?$positional_parameter_base@DV?$string_output_adapter@D@__crt_stdio_output@@@2@@__crt_stdio_output@@AAE_NXZ 10036780 f i libucrtd:output.obj
 0001:00035b50       ?state_case_size@?$output_processor@DV?$string_output_adapter@D@__crt_stdio_output@@V?$standard_base@DV?$string_output_adapter@D@__crt_stdio_output@@@2@@__crt_stdio_output@@AAE_NXZ 10036b50 f i libucrtd:output.obj
 0001:00035f20       ?state_case_size@?$output_processor@_WV?$stream_output_adapter@_W@__crt_stdio_output@@V?$format_validation_base@_WV?$stream_output_adapter@_W@__crt_stdio_output@@@2@@__crt_stdio_output@@AAE_NXZ 10036f20 f i libucrtd:output.obj
 0001:000362f0       ?state_case_size@?$output_processor@_WV?$stream_output_adapter@_W@__crt_stdio_output@@V?$positional_parameter_base@_WV?$stream_output_adapter@_W@__crt_stdio_output@@@2@@__crt_stdio_output@@AAE_NXZ 100372f0 f i libucrtd:output.obj
 0001:000366c0       ?state_case_size@?$output_processor@_WV?$stream_output_adapter@_W@__crt_stdio_output@@V?$standard_base@_WV?$stream_output_adapter@_W@__crt_stdio_output@@@2@@__crt_stdio_output@@AAE_NXZ 100376c0 f i libucrtd:output.obj
 0001:00036a90       ?state_case_size@?$output_processor@_WV?$string_output_adapter@_W@__crt_stdio_output@@V?$format_validation_base@_WV?$string_output_adapter@_W@__crt_stdio_output@@@2@@__crt_stdio_output@@AAE_NXZ 10037a90 f i libucrtd:output.obj
 0001:00036e60       ?state_case_size@?$output_processor@_WV?$string_output_adapter@_W@__crt_stdio_output@@V?$positional_parameter_base@_WV?$string_output_adapter@_W@__crt_stdio_output@@@2@@__crt_stdio_output@@AAE_NXZ 10037e60 f i libucrtd:output.obj
 0001:00037230       ?state_case_size@?$output_processor@_WV?$string_output_adapter@_W@__crt_stdio_output@@V?$standard_base@_WV?$string_output_adapter@_W@__crt_stdio_output@@@2@@__crt_stdio_output@@AAE_NXZ 10038230 f i libucrtd:output.obj
 0001:00037600       ?state_case_type@?$output_processor@DV?$stream_output_adapter@D@__crt_stdio_output@@V?$format_validation_base@DV?$stream_output_adapter@D@__crt_stdio_output@@@2@@__crt_stdio_output@@AAE_NXZ 10038600 f i libucrtd:output.obj
 0001:000379b0       ?state_case_type@?$output_processor@DV?$stream_output_adapter@D@__crt_stdio_output@@V?$positional_parameter_base@DV?$stream_output_adapter@D@__crt_stdio_output@@@2@@__crt_stdio_output@@AAE_NXZ 100389b0 f i libucrtd:output.obj
 0001:00037d60       ?state_case_type@?$output_processor@DV?$stream_output_adapter@D@__crt_stdio_output@@V?$standard_base@DV?$stream_output_adapter@D@__crt_stdio_output@@@2@@__crt_stdio_output@@AAE_NXZ 10038d60 f i libucrtd:output.obj
 0001:00038110       ?state_case_type@?$output_processor@DV?$string_output_adapter@D@__crt_stdio_output@@V?$format_validation_base@DV?$string_output_adapter@D@__crt_stdio_output@@@2@@__crt_stdio_output@@AAE_NXZ 10039110 f i libucrtd:output.obj
 0001:000384c0       ?state_case_type@?$output_processor@DV?$string_output_adapter@D@__crt_stdio_output@@V?$positional_parameter_base@DV?$string_output_adapter@D@__crt_stdio_output@@@2@@__crt_stdio_output@@AAE_NXZ 100394c0 f i libucrtd:output.obj
 0001:00038870       ?state_case_type@?$output_processor@DV?$string_output_adapter@D@__crt_stdio_output@@V?$standard_base@DV?$string_output_adapter@D@__crt_stdio_output@@@2@@__crt_stdio_output@@AAE_NXZ 10039870 f i libucrtd:output.obj
 0001:00038c20       ?state_case_type@?$output_processor@_WV?$stream_output_adapter@_W@__crt_stdio_output@@V?$format_validation_base@_WV?$stream_output_adapter@_W@__crt_stdio_output@@@2@@__crt_stdio_output@@AAE_NXZ 10039c20 f i libucrtd:output.obj
 0001:00039000       ?state_case_type@?$output_processor@_WV?$stream_output_adapter@_W@__crt_stdio_output@@V?$positional_parameter_base@_WV?$stream_output_adapter@_W@__crt_stdio_output@@@2@@__crt_stdio_output@@AAE_NXZ 1003a000 f i libucrtd:output.obj
 0001:000393e0       ?state_case_type@?$output_processor@_WV?$stream_output_adapter@_W@__crt_stdio_output@@V?$standard_base@_WV?$stream_output_adapter@_W@__crt_stdio_output@@@2@@__crt_stdio_output@@AAE_NXZ 1003a3e0 f i libucrtd:output.obj
 0001:000397c0       ?state_case_type@?$output_processor@_WV?$string_output_adapter@_W@__crt_stdio_output@@V?$format_validation_base@_WV?$string_output_adapter@_W@__crt_stdio_output@@@2@@__crt_stdio_output@@AAE_NXZ 1003a7c0 f i libucrtd:output.obj
 0001:00039ba0       ?state_case_type@?$output_processor@_WV?$string_output_adapter@_W@__crt_stdio_output@@V?$positional_parameter_base@_WV?$string_output_adapter@_W@__crt_stdio_output@@@2@@__crt_stdio_output@@AAE_NXZ 1003aba0 f i libucrtd:output.obj
 0001:00039f80       ?state_case_type@?$output_processor@_WV?$string_output_adapter@_W@__crt_stdio_output@@V?$standard_base@_WV?$string_output_adapter@_W@__crt_stdio_output@@@2@@__crt_stdio_output@@AAE_NXZ 1003af80 f i libucrtd:output.obj
 0001:0003a360       ?state_case_width@?$output_processor@DV?$stream_output_adapter@D@__crt_stdio_output@@V?$format_validation_base@DV?$stream_output_adapter@D@__crt_stdio_output@@@2@@__crt_stdio_output@@AAE_NXZ 1003b360 f i libucrtd:output.obj
 0001:0003a3e0       ?state_case_width@?$output_processor@DV?$stream_output_adapter@D@__crt_stdio_output@@V?$positional_parameter_base@DV?$stream_output_adapter@D@__crt_stdio_output@@@2@@__crt_stdio_output@@AAE_NXZ 1003b3e0 f i libucrtd:output.obj
 0001:0003a460       ?state_case_width@?$output_processor@DV?$stream_output_adapter@D@__crt_stdio_output@@V?$standard_base@DV?$stream_output_adapter@D@__crt_stdio_output@@@2@@__crt_stdio_output@@AAE_NXZ 1003b460 f i libucrtd:output.obj
 0001:0003a4e0       ?state_case_width@?$output_processor@DV?$string_output_adapter@D@__crt_stdio_output@@V?$format_validation_base@DV?$string_output_adapter@D@__crt_stdio_output@@@2@@__crt_stdio_output@@AAE_NXZ 1003b4e0 f i libucrtd:output.obj
 0001:0003a560       ?state_case_width@?$output_processor@DV?$string_output_adapter@D@__crt_stdio_output@@V?$positional_parameter_base@DV?$string_output_adapter@D@__crt_stdio_output@@@2@@__crt_stdio_output@@AAE_NXZ 1003b560 f i libucrtd:output.obj
 0001:0003a5e0       ?state_case_width@?$output_processor@DV?$string_output_adapter@D@__crt_stdio_output@@V?$standard_base@DV?$string_output_adapter@D@__crt_stdio_output@@@2@@__crt_stdio_output@@AAE_NXZ 1003b5e0 f i libucrtd:output.obj
 0001:0003a660       ?state_case_width@?$output_processor@_WV?$stream_output_adapter@_W@__crt_stdio_output@@V?$format_validation_base@_WV?$stream_output_adapter@_W@__crt_stdio_output@@@2@@__crt_stdio_output@@AAE_NXZ 1003b660 f i libucrtd:output.obj
 0001:0003a6e0       ?state_case_width@?$output_processor@_WV?$stream_output_adapter@_W@__crt_stdio_output@@V?$positional_parameter_base@_WV?$stream_output_adapter@_W@__crt_stdio_output@@@2@@__crt_stdio_output@@AAE_NXZ 1003b6e0 f i libucrtd:output.obj
 0001:0003a760       ?state_case_width@?$output_processor@_WV?$stream_output_adapter@_W@__crt_stdio_output@@V?$standard_base@_WV?$stream_output_adapter@_W@__crt_stdio_output@@@2@@__crt_stdio_output@@AAE_NXZ 1003b760 f i libucrtd:output.obj
 0001:0003a7e0       ?state_case_width@?$output_processor@_WV?$string_output_adapter@_W@__crt_stdio_output@@V?$format_validation_base@_WV?$string_output_adapter@_W@__crt_stdio_output@@@2@@__crt_stdio_output@@AAE_NXZ 1003b7e0 f i libucrtd:output.obj
 0001:0003a860       ?state_case_width@?$output_processor@_WV?$string_output_adapter@_W@__crt_stdio_output@@V?$positional_parameter_base@_WV?$string_output_adapter@_W@__crt_stdio_output@@@2@@__crt_stdio_output@@AAE_NXZ 1003b860 f i libucrtd:output.obj
 0001:0003a8e0       ?state_case_width@?$output_processor@_WV?$string_output_adapter@_W@__crt_stdio_output@@V?$standard_base@_WV?$string_output_adapter@_W@__crt_stdio_output@@@2@@__crt_stdio_output@@AAE_NXZ 1003b8e0 f i libucrtd:output.obj
 0001:0003a960       ?state_count@?$format_validation_base@DV?$stream_output_adapter@D@__crt_stdio_output@@@__crt_stdio_output@@KAIXZ 1003b960 f i libucrtd:output.obj
 0001:0003a970       ?state_count@?$format_validation_base@DV?$string_output_adapter@D@__crt_stdio_output@@@__crt_stdio_output@@KAIXZ 1003b970 f i libucrtd:output.obj
 0001:0003a980       ?state_count@?$format_validation_base@_WV?$stream_output_adapter@_W@__crt_stdio_output@@@__crt_stdio_output@@KAIXZ 1003b980 f i libucrtd:output.obj
 0001:0003a990       ?state_count@?$format_validation_base@_WV?$string_output_adapter@_W@__crt_stdio_output@@@__crt_stdio_output@@KAIXZ 1003b990 f i libucrtd:output.obj
 0001:0003a9a0       ?state_count@?$standard_base@DV?$stream_output_adapter@D@__crt_stdio_output@@@__crt_stdio_output@@KAIXZ 1003b9a0 f i libucrtd:output.obj
 0001:0003a9b0       ?state_count@?$standard_base@DV?$string_output_adapter@D@__crt_stdio_output@@@__crt_stdio_output@@KAIXZ 1003b9b0 f i libucrtd:output.obj
 0001:0003a9c0       ?state_count@?$standard_base@_WV?$stream_output_adapter@_W@__crt_stdio_output@@@__crt_stdio_output@@KAIXZ 1003b9c0 f i libucrtd:output.obj
 0001:0003a9d0       ?state_count@?$standard_base@_WV?$string_output_adapter@_W@__crt_stdio_output@@@__crt_stdio_output@@KAIXZ 1003b9d0 f i libucrtd:output.obj
 0001:0003a9e0       ?state_transition_table@?$format_validation_base@DV?$stream_output_adapter@D@__crt_stdio_output@@@__crt_stdio_output@@KAPBEXZ 1003b9e0 f i libucrtd:output.obj
 0001:0003a9f0       ?state_transition_table@?$format_validation_base@DV?$string_output_adapter@D@__crt_stdio_output@@@__crt_stdio_output@@KAPBEXZ 1003b9f0 f i libucrtd:output.obj
 0001:0003aa00       ?state_transition_table@?$format_validation_base@_WV?$stream_output_adapter@_W@__crt_stdio_output@@@__crt_stdio_output@@KAPBEXZ 1003ba00 f i libucrtd:output.obj
 0001:0003aa10       ?state_transition_table@?$format_validation_base@_WV?$string_output_adapter@_W@__crt_stdio_output@@@__crt_stdio_output@@KAPBEXZ 1003ba10 f i libucrtd:output.obj
 0001:0003aa20       ?state_transition_table@?$standard_base@DV?$stream_output_adapter@D@__crt_stdio_output@@@__crt_stdio_output@@KAPBEXZ 1003ba20 f i libucrtd:output.obj
 0001:0003aa30       ?state_transition_table@?$standard_base@DV?$string_output_adapter@D@__crt_stdio_output@@@__crt_stdio_output@@KAPBEXZ 1003ba30 f i libucrtd:output.obj
 0001:0003aa40       ?state_transition_table@?$standard_base@_WV?$stream_output_adapter@_W@__crt_stdio_output@@@__crt_stdio_output@@KAPBEXZ 1003ba40 f i libucrtd:output.obj
 0001:0003aa50       ?state_transition_table@?$standard_base@_WV?$string_output_adapter@_W@__crt_stdio_output@@@__crt_stdio_output@@KAPBEXZ 1003ba50 f i libucrtd:output.obj
 0001:0003aa60       ?tchar_string@?$common_data@D@__crt_stdio_output@@IAEAAPADD@Z 1003ba60 f i libucrtd:output.obj
 0001:0003aa80       ?tchar_string@?$common_data@D@__crt_stdio_output@@IAEAAPADXZ 1003ba80 f i libucrtd:output.obj
 0001:0003aaa0       ?tchar_string@?$common_data@_W@__crt_stdio_output@@IAEAAPA_WXZ 1003baa0 f i libucrtd:output.obj
 0001:0003aac0       ?tchar_string@?$common_data@_W@__crt_stdio_output@@IAEAAPA_W_W@Z 1003bac0 f i libucrtd:output.obj
 0001:0003aae0       ?to_integer_size@__crt_stdio_output@@YAIW4length_modifier@1@@Z 1003bae0 f i libucrtd:output.obj
 0001:0003ab80       ?type_case_X@?$output_processor@DV?$stream_output_adapter@D@__crt_stdio_output@@V?$format_validation_base@DV?$stream_output_adapter@D@__crt_stdio_output@@@2@@__crt_stdio_output@@AAE_NXZ 1003bb80 f i libucrtd:output.obj
 0001:0003aba0       ?type_case_X@?$output_processor@DV?$stream_output_adapter@D@__crt_stdio_output@@V?$positional_parameter_base@DV?$stream_output_adapter@D@__crt_stdio_output@@@2@@__crt_stdio_output@@AAE_NXZ 1003bba0 f i libucrtd:output.obj
 0001:0003abc0       ?type_case_X@?$output_processor@DV?$stream_output_adapter@D@__crt_stdio_output@@V?$standard_base@DV?$stream_output_adapter@D@__crt_stdio_output@@@2@@__crt_stdio_output@@AAE_NXZ 1003bbc0 f i libucrtd:output.obj
 0001:0003abe0       ?type_case_X@?$output_processor@DV?$string_output_adapter@D@__crt_stdio_output@@V?$format_validation_base@DV?$string_output_adapter@D@__crt_stdio_output@@@2@@__crt_stdio_output@@AAE_NXZ 1003bbe0 f i libucrtd:output.obj
 0001:0003ac00       ?type_case_X@?$output_processor@DV?$string_output_adapter@D@__crt_stdio_output@@V?$positional_parameter_base@DV?$string_output_adapter@D@__crt_stdio_output@@@2@@__crt_stdio_output@@AAE_NXZ 1003bc00 f i libucrtd:output.obj
 0001:0003ac20       ?type_case_X@?$output_processor@DV?$string_output_adapter@D@__crt_stdio_output@@V?$standard_base@DV?$string_output_adapter@D@__crt_stdio_output@@@2@@__crt_stdio_output@@AAE_NXZ 1003bc20 f i libucrtd:output.obj
 0001:0003ac40       ?type_case_X@?$output_processor@_WV?$stream_output_adapter@_W@__crt_stdio_output@@V?$format_validation_base@_WV?$stream_output_adapter@_W@__crt_stdio_output@@@2@@__crt_stdio_output@@AAE_NXZ 1003bc40 f i libucrtd:output.obj
 0001:0003ac60       ?type_case_X@?$output_processor@_WV?$stream_output_adapter@_W@__crt_stdio_output@@V?$positional_parameter_base@_WV?$stream_output_adapter@_W@__crt_stdio_output@@@2@@__crt_stdio_output@@AAE_NXZ 1003bc60 f i libucrtd:output.obj
 0001:0003ac80       ?type_case_X@?$output_processor@_WV?$stream_output_adapter@_W@__crt_stdio_output@@V?$standard_base@_WV?$stream_output_adapter@_W@__crt_stdio_output@@@2@@__crt_stdio_output@@AAE_NXZ 1003bc80 f i libucrtd:output.obj
 0001:0003aca0       ?type_case_X@?$output_processor@_WV?$string_output_adapter@_W@__crt_stdio_output@@V?$format_validation_base@_WV?$string_output_adapter@_W@__crt_stdio_output@@@2@@__crt_stdio_output@@AAE_NXZ 1003bca0 f i libucrtd:output.obj
 0001:0003acc0       ?type_case_X@?$output_processor@_WV?$string_output_adapter@_W@__crt_stdio_output@@V?$positional_parameter_base@_WV?$string_output_adapter@_W@__crt_stdio_output@@@2@@__crt_stdio_output@@AAE_NXZ 1003bcc0 f i libucrtd:output.obj
 0001:0003ace0       ?type_case_X@?$output_processor@_WV?$string_output_adapter@_W@__crt_stdio_output@@V?$standard_base@_WV?$string_output_adapter@_W@__crt_stdio_output@@@2@@__crt_stdio_output@@AAE_NXZ 1003bce0 f i libucrtd:output.obj
 0001:0003ad00       ?type_case_Z@?$output_processor@DV?$stream_output_adapter@D@__crt_stdio_output@@V?$format_validation_base@DV?$stream_output_adapter@D@__crt_stdio_output@@@2@@__crt_stdio_output@@AAE_NXZ 1003bd00 f i libucrtd:output.obj
 0001:0003adf0       ?type_case_Z@?$output_processor@DV?$stream_output_adapter@D@__crt_stdio_output@@V?$positional_parameter_base@DV?$stream_output_adapter@D@__crt_stdio_output@@@2@@__crt_stdio_output@@AAE_NXZ 1003bdf0 f i libucrtd:output.obj
 0001:0003aee0       ?type_case_Z@?$output_processor@DV?$stream_output_adapter@D@__crt_stdio_output@@V?$standard_base@DV?$stream_output_adapter@D@__crt_stdio_output@@@2@@__crt_stdio_output@@AAE_NXZ 1003bee0 f i libucrtd:output.obj
 0001:0003afd0       ?type_case_Z@?$output_processor@DV?$string_output_adapter@D@__crt_stdio_output@@V?$format_validation_base@DV?$string_output_adapter@D@__crt_stdio_output@@@2@@__crt_stdio_output@@AAE_NXZ 1003bfd0 f i libucrtd:output.obj
 0001:0003b0c0       ?type_case_Z@?$output_processor@DV?$string_output_adapter@D@__crt_stdio_output@@V?$positional_parameter_base@DV?$string_output_adapter@D@__crt_stdio_output@@@2@@__crt_stdio_output@@AAE_NXZ 1003c0c0 f i libucrtd:output.obj
 0001:0003b1b0       ?type_case_Z@?$output_processor@DV?$string_output_adapter@D@__crt_stdio_output@@V?$standard_base@DV?$string_output_adapter@D@__crt_stdio_output@@@2@@__crt_stdio_output@@AAE_NXZ 1003c1b0 f i libucrtd:output.obj
 0001:0003b2a0       ?type_case_Z@?$output_processor@_WV?$stream_output_adapter@_W@__crt_stdio_output@@V?$format_validation_base@_WV?$stream_output_adapter@_W@__crt_stdio_output@@@2@@__crt_stdio_output@@AAE_NXZ 1003c2a0 f i libucrtd:output.obj
 0001:0003b390       ?type_case_Z@?$output_processor@_WV?$stream_output_adapter@_W@__crt_stdio_output@@V?$positional_parameter_base@_WV?$stream_output_adapter@_W@__crt_stdio_output@@@2@@__crt_stdio_output@@AAE_NXZ 1003c390 f i libucrtd:output.obj
 0001:0003b480       ?type_case_Z@?$output_processor@_WV?$stream_output_adapter@_W@__crt_stdio_output@@V?$standard_base@_WV?$stream_output_adapter@_W@__crt_stdio_output@@@2@@__crt_stdio_output@@AAE_NXZ 1003c480 f i libucrtd:output.obj
 0001:0003b570       ?type_case_Z@?$output_processor@_WV?$string_output_adapter@_W@__crt_stdio_output@@V?$format_validation_base@_WV?$string_output_adapter@_W@__crt_stdio_output@@@2@@__crt_stdio_output@@AAE_NXZ 1003c570 f i libucrtd:output.obj
 0001:0003b660       ?type_case_Z@?$output_processor@_WV?$string_output_adapter@_W@__crt_stdio_output@@V?$positional_parameter_base@_WV?$string_output_adapter@_W@__crt_stdio_output@@@2@@__crt_stdio_output@@AAE_NXZ 1003c660 f i libucrtd:output.obj
 0001:0003b750       ?type_case_Z@?$output_processor@_WV?$string_output_adapter@_W@__crt_stdio_output@@V?$standard_base@_WV?$string_output_adapter@_W@__crt_stdio_output@@@2@@__crt_stdio_output@@AAE_NXZ 1003c750 f i libucrtd:output.obj
 0001:0003b840       ?type_case_a@?$output_processor@DV?$stream_output_adapter@D@__crt_stdio_output@@V?$format_validation_base@DV?$stream_output_adapter@D@__crt_stdio_output@@@2@@__crt_stdio_output@@AAE_NXZ 1003c840 f i libucrtd:output.obj
 0001:0003bab0       ?type_case_a@?$output_processor@DV?$stream_output_adapter@D@__crt_stdio_output@@V?$positional_parameter_base@DV?$stream_output_adapter@D@__crt_stdio_output@@@2@@__crt_stdio_output@@AAE_NXZ 1003cab0 f i libucrtd:output.obj
 0001:0003bd20       ?type_case_a@?$output_processor@DV?$stream_output_adapter@D@__crt_stdio_output@@V?$standard_base@DV?$stream_output_adapter@D@__crt_stdio_output@@@2@@__crt_stdio_output@@AAE_NXZ 1003cd20 f i libucrtd:output.obj
 0001:0003bf90       ?type_case_a@?$output_processor@DV?$string_output_adapter@D@__crt_stdio_output@@V?$format_validation_base@DV?$string_output_adapter@D@__crt_stdio_output@@@2@@__crt_stdio_output@@AAE_NXZ 1003cf90 f i libucrtd:output.obj
 0001:0003c200       ?type_case_a@?$output_processor@DV?$string_output_adapter@D@__crt_stdio_output@@V?$positional_parameter_base@DV?$string_output_adapter@D@__crt_stdio_output@@@2@@__crt_stdio_output@@AAE_NXZ 1003d200 f i libucrtd:output.obj
 0001:0003c470       ?type_case_a@?$output_processor@DV?$string_output_adapter@D@__crt_stdio_output@@V?$standard_base@DV?$string_output_adapter@D@__crt_stdio_output@@@2@@__crt_stdio_output@@AAE_NXZ 1003d470 f i libucrtd:output.obj
 0001:0003c6e0       ?type_case_a@?$output_processor@_WV?$stream_output_adapter@_W@__crt_stdio_output@@V?$format_validation_base@_WV?$stream_output_adapter@_W@__crt_stdio_output@@@2@@__crt_stdio_output@@AAE_NXZ 1003d6e0 f i libucrtd:output.obj
 0001:0003c950       ?type_case_a@?$output_processor@_WV?$stream_output_adapter@_W@__crt_stdio_output@@V?$positional_parameter_base@_WV?$stream_output_adapter@_W@__crt_stdio_output@@@2@@__crt_stdio_output@@AAE_NXZ 1003d950 f i libucrtd:output.obj
 0001:0003cbc0       ?type_case_a@?$output_processor@_WV?$stream_output_adapter@_W@__crt_stdio_output@@V?$standard_base@_WV?$stream_output_adapter@_W@__crt_stdio_output@@@2@@__crt_stdio_output@@AAE_NXZ 1003dbc0 f i libucrtd:output.obj
 0001:0003ce30       ?type_case_a@?$output_processor@_WV?$string_output_adapter@_W@__crt_stdio_output@@V?$format_validation_base@_WV?$string_output_adapter@_W@__crt_stdio_output@@@2@@__crt_stdio_output@@AAE_NXZ 1003de30 f i libucrtd:output.obj
 0001:0003d0a0       ?type_case_a@?$output_processor@_WV?$string_output_adapter@_W@__crt_stdio_output@@V?$positional_parameter_base@_WV?$string_output_adapter@_W@__crt_stdio_output@@@2@@__crt_stdio_output@@AAE_NXZ 1003e0a0 f i libucrtd:output.obj
 0001:0003d310       ?type_case_a@?$output_processor@_WV?$string_output_adapter@_W@__crt_stdio_output@@V?$standard_base@_WV?$string_output_adapter@_W@__crt_stdio_output@@@2@@__crt_stdio_output@@AAE_NXZ 1003e310 f i libucrtd:output.obj
 0001:0003d580       ?type_case_c@?$output_processor@DV?$stream_output_adapter@D@__crt_stdio_output@@V?$format_validation_base@DV?$stream_output_adapter@D@__crt_stdio_output@@@2@@__crt_stdio_output@@AAE_NXZ 1003e580 f i libucrtd:output.obj
 0001:0003d5a0       ?type_case_c@?$output_processor@DV?$stream_output_adapter@D@__crt_stdio_output@@V?$positional_parameter_base@DV?$stream_output_adapter@D@__crt_stdio_output@@@2@@__crt_stdio_output@@AAE_NXZ 1003e5a0 f i libucrtd:output.obj
 0001:0003d5c0       ?type_case_c@?$output_processor@DV?$stream_output_adapter@D@__crt_stdio_output@@V?$standard_base@DV?$stream_output_adapter@D@__crt_stdio_output@@@2@@__crt_stdio_output@@AAE_NXZ 1003e5c0 f i libucrtd:output.obj
 0001:0003d5e0       ?type_case_c@?$output_processor@DV?$string_output_adapter@D@__crt_stdio_output@@V?$format_validation_base@DV?$string_output_adapter@D@__crt_stdio_output@@@2@@__crt_stdio_output@@AAE_NXZ 1003e5e0 f i libucrtd:output.obj
 0001:0003d600       ?type_case_c@?$output_processor@DV?$string_output_adapter@D@__crt_stdio_output@@V?$positional_parameter_base@DV?$string_output_adapter@D@__crt_stdio_output@@@2@@__crt_stdio_output@@AAE_NXZ 1003e600 f i libucrtd:output.obj
 0001:0003d620       ?type_case_c@?$output_processor@DV?$string_output_adapter@D@__crt_stdio_output@@V?$standard_base@DV?$string_output_adapter@D@__crt_stdio_output@@@2@@__crt_stdio_output@@AAE_NXZ 1003e620 f i libucrtd:output.obj
 0001:0003d640       ?type_case_c@?$output_processor@_WV?$stream_output_adapter@_W@__crt_stdio_output@@V?$format_validation_base@_WV?$stream_output_adapter@_W@__crt_stdio_output@@@2@@__crt_stdio_output@@AAE_NXZ 1003e640 f i libucrtd:output.obj
 0001:0003d660       ?type_case_c@?$output_processor@_WV?$stream_output_adapter@_W@__crt_stdio_output@@V?$positional_parameter_base@_WV?$stream_output_adapter@_W@__crt_stdio_output@@@2@@__crt_stdio_output@@AAE_NXZ 1003e660 f i libucrtd:output.obj
 0001:0003d680       ?type_case_c@?$output_processor@_WV?$stream_output_adapter@_W@__crt_stdio_output@@V?$standard_base@_WV?$stream_output_adapter@_W@__crt_stdio_output@@@2@@__crt_stdio_output@@AAE_NXZ 1003e680 f i libucrtd:output.obj
 0001:0003d6a0       ?type_case_c@?$output_processor@_WV?$string_output_adapter@_W@__crt_stdio_output@@V?$format_validation_base@_WV?$string_output_adapter@_W@__crt_stdio_output@@@2@@__crt_stdio_output@@AAE_NXZ 1003e6a0 f i libucrtd:output.obj
 0001:0003d6c0       ?type_case_c@?$output_processor@_WV?$string_output_adapter@_W@__crt_stdio_output@@V?$positional_parameter_base@_WV?$string_output_adapter@_W@__crt_stdio_output@@@2@@__crt_stdio_output@@AAE_NXZ 1003e6c0 f i libucrtd:output.obj
 0001:0003d6e0       ?type_case_c@?$output_processor@_WV?$string_output_adapter@_W@__crt_stdio_output@@V?$standard_base@_WV?$string_output_adapter@_W@__crt_stdio_output@@@2@@__crt_stdio_output@@AAE_NXZ 1003e6e0 f i libucrtd:output.obj
 0001:0003d700       ?type_case_c_tchar@?$output_processor@DV?$stream_output_adapter@D@__crt_stdio_output@@V?$format_validation_base@DV?$stream_output_adapter@D@__crt_stdio_output@@@2@@__crt_stdio_output@@AAE_ND@Z 1003e700 f i libucrtd:output.obj
 0001:0003d810       ?type_case_c_tchar@?$output_processor@DV?$stream_output_adapter@D@__crt_stdio_output@@V?$positional_parameter_base@DV?$stream_output_adapter@D@__crt_stdio_output@@@2@@__crt_stdio_output@@AAE_ND@Z 1003e810 f i libucrtd:output.obj
 0001:0003d920       ?type_case_c_tchar@?$output_processor@DV?$stream_output_adapter@D@__crt_stdio_output@@V?$standard_base@DV?$stream_output_adapter@D@__crt_stdio_output@@@2@@__crt_stdio_output@@AAE_ND@Z 1003e920 f i libucrtd:output.obj
 0001:0003da30       ?type_case_c_tchar@?$output_processor@DV?$string_output_adapter@D@__crt_stdio_output@@V?$format_validation_base@DV?$string_output_adapter@D@__crt_stdio_output@@@2@@__crt_stdio_output@@AAE_ND@Z 1003ea30 f i libucrtd:output.obj
 0001:0003db40       ?type_case_c_tchar@?$output_processor@DV?$string_output_adapter@D@__crt_stdio_output@@V?$positional_parameter_base@DV?$string_output_adapter@D@__crt_stdio_output@@@2@@__crt_stdio_output@@AAE_ND@Z 1003eb40 f i libucrtd:output.obj
 0001:0003dc50       ?type_case_c_tchar@?$output_processor@DV?$string_output_adapter@D@__crt_stdio_output@@V?$standard_base@DV?$string_output_adapter@D@__crt_stdio_output@@@2@@__crt_stdio_output@@AAE_ND@Z 1003ec50 f i libucrtd:output.obj
 0001:0003dd60       ?type_case_c_tchar@?$output_processor@_WV?$stream_output_adapter@_W@__crt_stdio_output@@V?$format_validation_base@_WV?$stream_output_adapter@_W@__crt_stdio_output@@@2@@__crt_stdio_output@@AAE_N_W@Z 1003ed60 f i libucrtd:output.obj
 0001:0003de60       ?type_case_c_tchar@?$output_processor@_WV?$stream_output_adapter@_W@__crt_stdio_output@@V?$positional_parameter_base@_WV?$stream_output_adapter@_W@__crt_stdio_output@@@2@@__crt_stdio_output@@AAE_N_W@Z 1003ee60 f i libucrtd:output.obj
 0001:0003df60       ?type_case_c_tchar@?$output_processor@_WV?$stream_output_adapter@_W@__crt_stdio_output@@V?$standard_base@_WV?$stream_output_adapter@_W@__crt_stdio_output@@@2@@__crt_stdio_output@@AAE_N_W@Z 1003ef60 f i libucrtd:output.obj
 0001:0003e060       ?type_case_c_tchar@?$output_processor@_WV?$string_output_adapter@_W@__crt_stdio_output@@V?$format_validation_base@_WV?$string_output_adapter@_W@__crt_stdio_output@@@2@@__crt_stdio_output@@AAE_N_W@Z 1003f060 f i libucrtd:output.obj
 0001:0003e160       ?type_case_c_tchar@?$output_processor@_WV?$string_output_adapter@_W@__crt_stdio_output@@V?$positional_parameter_base@_WV?$string_output_adapter@_W@__crt_stdio_output@@@2@@__crt_stdio_output@@AAE_N_W@Z 1003f160 f i libucrtd:output.obj
 0001:0003e260       ?type_case_c_tchar@?$output_processor@_WV?$string_output_adapter@_W@__crt_stdio_output@@V?$standard_base@_WV?$string_output_adapter@_W@__crt_stdio_output@@@2@@__crt_stdio_output@@AAE_N_W@Z 1003f260 f i libucrtd:output.obj
 0001:0003e360       ?type_case_d@?$output_processor@DV?$stream_output_adapter@D@__crt_stdio_output@@V?$format_validation_base@DV?$stream_output_adapter@D@__crt_stdio_output@@@2@@__crt_stdio_output@@AAE_NXZ 1003f360 f i libucrtd:output.obj
 0001:0003e390       ?type_case_d@?$output_processor@DV?$stream_output_adapter@D@__crt_stdio_output@@V?$positional_parameter_base@DV?$stream_output_adapter@D@__crt_stdio_output@@@2@@__crt_stdio_output@@AAE_NXZ 1003f390 f i libucrtd:output.obj
 0001:0003e3c0       ?type_case_d@?$output_processor@DV?$stream_output_adapter@D@__crt_stdio_output@@V?$standard_base@DV?$stream_output_adapter@D@__crt_stdio_output@@@2@@__crt_stdio_output@@AAE_NXZ 1003f3c0 f i libucrtd:output.obj
 0001:0003e3f0       ?type_case_d@?$output_processor@DV?$string_output_adapter@D@__crt_stdio_output@@V?$format_validation_base@DV?$string_output_adapter@D@__crt_stdio_output@@@2@@__crt_stdio_output@@AAE_NXZ 1003f3f0 f i libucrtd:output.obj
 0001:0003e420       ?type_case_d@?$output_processor@DV?$string_output_adapter@D@__crt_stdio_output@@V?$positional_parameter_base@DV?$string_output_adapter@D@__crt_stdio_output@@@2@@__crt_stdio_output@@AAE_NXZ 1003f420 f i libucrtd:output.obj
 0001:0003e450       ?type_case_d@?$output_processor@DV?$string_output_adapter@D@__crt_stdio_output@@V?$standard_base@DV?$string_output_adapter@D@__crt_stdio_output@@@2@@__crt_stdio_output@@AAE_NXZ 1003f450 f i libucrtd:output.obj
 0001:0003e480       ?type_case_d@?$output_processor@_WV?$stream_output_adapter@_W@__crt_stdio_output@@V?$format_validation_base@_WV?$stream_output_adapter@_W@__crt_stdio_output@@@2@@__crt_stdio_output@@AAE_NXZ 1003f480 f i libucrtd:output.obj
 0001:0003e4b0       ?type_case_d@?$output_processor@_WV?$stream_output_adapter@_W@__crt_stdio_output@@V?$positional_parameter_base@_WV?$stream_output_adapter@_W@__crt_stdio_output@@@2@@__crt_stdio_output@@AAE_NXZ 1003f4b0 f i libucrtd:output.obj
 0001:0003e4e0       ?type_case_d@?$output_processor@_WV?$stream_output_adapter@_W@__crt_stdio_output@@V?$standard_base@_WV?$stream_output_adapter@_W@__crt_stdio_output@@@2@@__crt_stdio_output@@AAE_NXZ 1003f4e0 f i libucrtd:output.obj
 0001:0003e510       ?type_case_d@?$output_processor@_WV?$string_output_adapter@_W@__crt_stdio_output@@V?$format_validation_base@_WV?$string_output_adapter@_W@__crt_stdio_output@@@2@@__crt_stdio_output@@AAE_NXZ 1003f510 f i libucrtd:output.obj
 0001:0003e540       ?type_case_d@?$output_processor@_WV?$string_output_adapter@_W@__crt_stdio_output@@V?$positional_parameter_base@_WV?$string_output_adapter@_W@__crt_stdio_output@@@2@@__crt_stdio_output@@AAE_NXZ 1003f540 f i libucrtd:output.obj
 0001:0003e570       ?type_case_d@?$output_processor@_WV?$string_output_adapter@_W@__crt_stdio_output@@V?$standard_base@_WV?$string_output_adapter@_W@__crt_stdio_output@@@2@@__crt_stdio_output@@AAE_NXZ 1003f570 f i libucrtd:output.obj
 0001:0003e5a0       ?type_case_integer@?$output_processor@DV?$stream_output_adapter@D@__crt_stdio_output@@V?$format_validation_base@DV?$stream_output_adapter@D@__crt_stdio_output@@@2@@__crt_stdio_output@@AAE_NI_N@Z 1003f5a0 f i libucrtd:output.obj
 0001:0003e8f0       ?type_case_integer@?$output_processor@DV?$stream_output_adapter@D@__crt_stdio_output@@V?$positional_parameter_base@DV?$stream_output_adapter@D@__crt_stdio_output@@@2@@__crt_stdio_output@@AAE_NI_N@Z 1003f8f0 f i libucrtd:output.obj
 0001:0003ec40       ?type_case_integer@?$output_processor@DV?$stream_output_adapter@D@__crt_stdio_output@@V?$standard_base@DV?$stream_output_adapter@D@__crt_stdio_output@@@2@@__crt_stdio_output@@AAE_NI_N@Z 1003fc40 f i libucrtd:output.obj
 0001:0003ef90       ?type_case_integer@?$output_processor@DV?$string_output_adapter@D@__crt_stdio_output@@V?$format_validation_base@DV?$string_output_adapter@D@__crt_stdio_output@@@2@@__crt_stdio_output@@AAE_NI_N@Z 1003ff90 f i libucrtd:output.obj
 0001:0003f2e0       ?type_case_integer@?$output_processor@DV?$string_output_adapter@D@__crt_stdio_output@@V?$positional_parameter_base@DV?$string_output_adapter@D@__crt_stdio_output@@@2@@__crt_stdio_output@@AAE_NI_N@Z 100402e0 f i libucrtd:output.obj
 0001:0003f630       ?type_case_integer@?$output_processor@DV?$string_output_adapter@D@__crt_stdio_output@@V?$standard_base@DV?$string_output_adapter@D@__crt_stdio_output@@@2@@__crt_stdio_output@@AAE_NI_N@Z 10040630 f i libucrtd:output.obj
 0001:0003f980       ?type_case_integer@?$output_processor@_WV?$stream_output_adapter@_W@__crt_stdio_output@@V?$format_validation_base@_WV?$stream_output_adapter@_W@__crt_stdio_output@@@2@@__crt_stdio_output@@AAE_NI_N@Z 10040980 f i libucrtd:output.obj
 0001:0003fcd0       ?type_case_integer@?$output_processor@_WV?$stream_output_adapter@_W@__crt_stdio_output@@V?$positional_parameter_base@_WV?$stream_output_adapter@_W@__crt_stdio_output@@@2@@__crt_stdio_output@@AAE_NI_N@Z 10040cd0 f i libucrtd:output.obj
 0001:00040020       ?type_case_integer@?$output_processor@_WV?$stream_output_adapter@_W@__crt_stdio_output@@V?$standard_base@_WV?$stream_output_adapter@_W@__crt_stdio_output@@@2@@__crt_stdio_output@@AAE_NI_N@Z 10041020 f i libucrtd:output.obj
 0001:00040370       ?type_case_integer@?$output_processor@_WV?$string_output_adapter@_W@__crt_stdio_output@@V?$format_validation_base@_WV?$string_output_adapter@_W@__crt_stdio_output@@@2@@__crt_stdio_output@@AAE_NI_N@Z 10041370 f i libucrtd:output.obj
 0001:000406c0       ?type_case_integer@?$output_processor@_WV?$string_output_adapter@_W@__crt_stdio_output@@V?$positional_parameter_base@_WV?$string_output_adapter@_W@__crt_stdio_output@@@2@@__crt_stdio_output@@AAE_NI_N@Z 100416c0 f i libucrtd:output.obj
 0001:00040a10       ?type_case_integer@?$output_processor@_WV?$string_output_adapter@_W@__crt_stdio_output@@V?$standard_base@_WV?$string_output_adapter@_W@__crt_stdio_output@@@2@@__crt_stdio_output@@AAE_NI_N@Z 10041a10 f i libucrtd:output.obj
 0001:00040d60       ?type_case_n@?$output_processor@DV?$stream_output_adapter@D@__crt_stdio_output@@V?$format_validation_base@DV?$stream_output_adapter@D@__crt_stdio_output@@@2@@__crt_stdio_output@@AAE_NXZ 10041d60 f i libucrtd:output.obj
 0001:00040f50       ?type_case_n@?$output_processor@DV?$stream_output_adapter@D@__crt_stdio_output@@V?$positional_parameter_base@DV?$stream_output_adapter@D@__crt_stdio_output@@@2@@__crt_stdio_output@@AAE_NXZ 10041f50 f i libucrtd:output.obj
 0001:00041140       ?type_case_n@?$output_processor@DV?$stream_output_adapter@D@__crt_stdio_output@@V?$standard_base@DV?$stream_output_adapter@D@__crt_stdio_output@@@2@@__crt_stdio_output@@AAE_NXZ 10042140 f i libucrtd:output.obj
 0001:00041330       ?type_case_n@?$output_processor@DV?$string_output_adapter@D@__crt_stdio_output@@V?$format_validation_base@DV?$string_output_adapter@D@__crt_stdio_output@@@2@@__crt_stdio_output@@AAE_NXZ 10042330 f i libucrtd:output.obj
 0001:00041520       ?type_case_n@?$output_processor@DV?$string_output_adapter@D@__crt_stdio_output@@V?$positional_parameter_base@DV?$string_output_adapter@D@__crt_stdio_output@@@2@@__crt_stdio_output@@AAE_NXZ 10042520 f i libucrtd:output.obj
 0001:00041710       ?type_case_n@?$output_processor@DV?$string_output_adapter@D@__crt_stdio_output@@V?$standard_base@DV?$string_output_adapter@D@__crt_stdio_output@@@2@@__crt_stdio_output@@AAE_NXZ 10042710 f i libucrtd:output.obj
 0001:00041900       ?type_case_n@?$output_processor@_WV?$stream_output_adapter@_W@__crt_stdio_output@@V?$format_validation_base@_WV?$stream_output_adapter@_W@__crt_stdio_output@@@2@@__crt_stdio_output@@AAE_NXZ 10042900 f i libucrtd:output.obj
 0001:00041af0       ?type_case_n@?$output_processor@_WV?$stream_output_adapter@_W@__crt_stdio_output@@V?$positional_parameter_base@_WV?$stream_output_adapter@_W@__crt_stdio_output@@@2@@__crt_stdio_output@@AAE_NXZ 10042af0 f i libucrtd:output.obj
 0001:00041ce0       ?type_case_n@?$output_processor@_WV?$stream_output_adapter@_W@__crt_stdio_output@@V?$standard_base@_WV?$stream_output_adapter@_W@__crt_stdio_output@@@2@@__crt_stdio_output@@AAE_NXZ 10042ce0 f i libucrtd:output.obj
 0001:00041ed0       ?type_case_n@?$output_processor@_WV?$string_output_adapter@_W@__crt_stdio_output@@V?$format_validation_base@_WV?$string_output_adapter@_W@__crt_stdio_output@@@2@@__crt_stdio_output@@AAE_NXZ 10042ed0 f i libucrtd:output.obj
 0001:000420c0       ?type_case_n@?$output_processor@_WV?$string_output_adapter@_W@__crt_stdio_output@@V?$positional_parameter_base@_WV?$string_output_adapter@_W@__crt_stdio_output@@@2@@__crt_stdio_output@@AAE_NXZ 100430c0 f i libucrtd:output.obj
 0001:000422b0       ?type_case_n@?$output_processor@_WV?$string_output_adapter@_W@__crt_stdio_output@@V?$standard_base@_WV?$string_output_adapter@_W@__crt_stdio_output@@@2@@__crt_stdio_output@@AAE_NXZ 100432b0 f i libucrtd:output.obj
 0001:000424a0       ?type_case_o@?$output_processor@DV?$stream_output_adapter@D@__crt_stdio_output@@V?$format_validation_base@DV?$stream_output_adapter@D@__crt_stdio_output@@@2@@__crt_stdio_output@@AAE_NXZ 100434a0 f i libucrtd:output.obj
 0001:000424e0       ?type_case_o@?$output_processor@DV?$stream_output_adapter@D@__crt_stdio_output@@V?$positional_parameter_base@DV?$stream_output_adapter@D@__crt_stdio_output@@@2@@__crt_stdio_output@@AAE_NXZ 100434e0 f i libucrtd:output.obj
 0001:00042520       ?type_case_o@?$output_processor@DV?$stream_output_adapter@D@__crt_stdio_output@@V?$standard_base@DV?$stream_output_adapter@D@__crt_stdio_output@@@2@@__crt_stdio_output@@AAE_NXZ 10043520 f i libucrtd:output.obj
 0001:00042560       ?type_case_o@?$output_processor@DV?$string_output_adapter@D@__crt_stdio_output@@V?$format_validation_base@DV?$string_output_adapter@D@__crt_stdio_output@@@2@@__crt_stdio_output@@AAE_NXZ 10043560 f i libucrtd:output.obj
 0001:000425a0       ?type_case_o@?$output_processor@DV?$string_output_adapter@D@__crt_stdio_output@@V?$positional_parameter_base@DV?$string_output_adapter@D@__crt_stdio_output@@@2@@__crt_stdio_output@@AAE_NXZ 100435a0 f i libucrtd:output.obj
 0001:000425e0       ?type_case_o@?$output_processor@DV?$string_output_adapter@D@__crt_stdio_output@@V?$standard_base@DV?$string_output_adapter@D@__crt_stdio_output@@@2@@__crt_stdio_output@@AAE_NXZ 100435e0 f i libucrtd:output.obj
 0001:00042620       ?type_case_o@?$output_processor@_WV?$stream_output_adapter@_W@__crt_stdio_output@@V?$format_validation_base@_WV?$stream_output_adapter@_W@__crt_stdio_output@@@2@@__crt_stdio_output@@AAE_NXZ 10043620 f i libucrtd:output.obj
 0001:00042660       ?type_case_o@?$output_processor@_WV?$stream_output_adapter@_W@__crt_stdio_output@@V?$positional_parameter_base@_WV?$stream_output_adapter@_W@__crt_stdio_output@@@2@@__crt_stdio_output@@AAE_NXZ 10043660 f i libucrtd:output.obj
 0001:000426a0       ?type_case_o@?$output_processor@_WV?$stream_output_adapter@_W@__crt_stdio_output@@V?$standard_base@_WV?$stream_output_adapter@_W@__crt_stdio_output@@@2@@__crt_stdio_output@@AAE_NXZ 100436a0 f i libucrtd:output.obj
 0001:000426e0       ?type_case_o@?$output_processor@_WV?$string_output_adapter@_W@__crt_stdio_output@@V?$format_validation_base@_WV?$string_output_adapter@_W@__crt_stdio_output@@@2@@__crt_stdio_output@@AAE_NXZ 100436e0 f i libucrtd:output.obj
 0001:00042720       ?type_case_o@?$output_processor@_WV?$string_output_adapter@_W@__crt_stdio_output@@V?$positional_parameter_base@_WV?$string_output_adapter@_W@__crt_stdio_output@@@2@@__crt_stdio_output@@AAE_NXZ 10043720 f i libucrtd:output.obj
 0001:00042760       ?type_case_o@?$output_processor@_WV?$string_output_adapter@_W@__crt_stdio_output@@V?$standard_base@_WV?$string_output_adapter@_W@__crt_stdio_output@@@2@@__crt_stdio_output@@AAE_NXZ 10043760 f i libucrtd:output.obj
 0001:000427a0       ?type_case_p@?$output_processor@DV?$stream_output_adapter@D@__crt_stdio_output@@V?$format_validation_base@DV?$stream_output_adapter@D@__crt_stdio_output@@@2@@__crt_stdio_output@@AAE_NXZ 100437a0 f i libucrtd:output.obj
 0001:000427d0       ?type_case_p@?$output_processor@DV?$stream_output_adapter@D@__crt_stdio_output@@V?$positional_parameter_base@DV?$stream_output_adapter@D@__crt_stdio_output@@@2@@__crt_stdio_output@@AAE_NXZ 100437d0 f i libucrtd:output.obj
 0001:00042800       ?type_case_p@?$output_processor@DV?$stream_output_adapter@D@__crt_stdio_output@@V?$standard_base@DV?$stream_output_adapter@D@__crt_stdio_output@@@2@@__crt_stdio_output@@AAE_NXZ 10043800 f i libucrtd:output.obj
 0001:00042830       ?type_case_p@?$output_processor@DV?$string_output_adapter@D@__crt_stdio_output@@V?$format_validation_base@DV?$string_output_adapter@D@__crt_stdio_output@@@2@@__crt_stdio_output@@AAE_NXZ 10043830 f i libucrtd:output.obj
 0001:00042860       ?type_case_p@?$output_processor@DV?$string_output_adapter@D@__crt_stdio_output@@V?$positional_parameter_base@DV?$string_output_adapter@D@__crt_stdio_output@@@2@@__crt_stdio_output@@AAE_NXZ 10043860 f i libucrtd:output.obj
 0001:00042890       ?type_case_p@?$output_processor@DV?$string_output_adapter@D@__crt_stdio_output@@V?$standard_base@DV?$string_output_adapter@D@__crt_stdio_output@@@2@@__crt_stdio_output@@AAE_NXZ 10043890 f i libucrtd:output.obj
 0001:000428c0       ?type_case_p@?$output_processor@_WV?$stream_output_adapter@_W@__crt_stdio_output@@V?$format_validation_base@_WV?$stream_output_adapter@_W@__crt_stdio_output@@@2@@__crt_stdio_output@@AAE_NXZ 100438c0 f i libucrtd:output.obj
 0001:000428f0       ?type_case_p@?$output_processor@_WV?$stream_output_adapter@_W@__crt_stdio_output@@V?$positional_parameter_base@_WV?$stream_output_adapter@_W@__crt_stdio_output@@@2@@__crt_stdio_output@@AAE_NXZ 100438f0 f i libucrtd:output.obj
 0001:00042920       ?type_case_p@?$output_processor@_WV?$stream_output_adapter@_W@__crt_stdio_output@@V?$standard_base@_WV?$stream_output_adapter@_W@__crt_stdio_output@@@2@@__crt_stdio_output@@AAE_NXZ 10043920 f i libucrtd:output.obj
 0001:00042950       ?type_case_p@?$output_processor@_WV?$string_output_adapter@_W@__crt_stdio_output@@V?$format_validation_base@_WV?$string_output_adapter@_W@__crt_stdio_output@@@2@@__crt_stdio_output@@AAE_NXZ 10043950 f i libucrtd:output.obj
 0001:00042980       ?type_case_p@?$output_processor@_WV?$string_output_adapter@_W@__crt_stdio_output@@V?$positional_parameter_base@_WV?$string_output_adapter@_W@__crt_stdio_output@@@2@@__crt_stdio_output@@AAE_NXZ 10043980 f i libucrtd:output.obj
 0001:000429b0       ?type_case_p@?$output_processor@_WV?$string_output_adapter@_W@__crt_stdio_output@@V?$standard_base@_WV?$string_output_adapter@_W@__crt_stdio_output@@@2@@__crt_stdio_output@@AAE_NXZ 100439b0 f i libucrtd:output.obj
 0001:000429e0       ?type_case_s@?$output_processor@DV?$stream_output_adapter@D@__crt_stdio_output@@V?$format_validation_base@DV?$stream_output_adapter@D@__crt_stdio_output@@@2@@__crt_stdio_output@@AAE_NXZ 100439e0 f i libucrtd:output.obj
 0001:00042ad0       ?type_case_s@?$output_processor@DV?$stream_output_adapter@D@__crt_stdio_output@@V?$positional_parameter_base@DV?$stream_output_adapter@D@__crt_stdio_output@@@2@@__crt_stdio_output@@AAE_NXZ 10043ad0 f i libucrtd:output.obj
 0001:00042bc0       ?type_case_s@?$output_processor@DV?$stream_output_adapter@D@__crt_stdio_output@@V?$standard_base@DV?$stream_output_adapter@D@__crt_stdio_output@@@2@@__crt_stdio_output@@AAE_NXZ 10043bc0 f i libucrtd:output.obj
 0001:00042cb0       ?type_case_s@?$output_processor@DV?$string_output_adapter@D@__crt_stdio_output@@V?$format_validation_base@DV?$string_output_adapter@D@__crt_stdio_output@@@2@@__crt_stdio_output@@AAE_NXZ 10043cb0 f i libucrtd:output.obj
 0001:00042da0       ?type_case_s@?$output_processor@DV?$string_output_adapter@D@__crt_stdio_output@@V?$positional_parameter_base@DV?$string_output_adapter@D@__crt_stdio_output@@@2@@__crt_stdio_output@@AAE_NXZ 10043da0 f i libucrtd:output.obj
 0001:00042e90       ?type_case_s@?$output_processor@DV?$string_output_adapter@D@__crt_stdio_output@@V?$standard_base@DV?$string_output_adapter@D@__crt_stdio_output@@@2@@__crt_stdio_output@@AAE_NXZ 10043e90 f i libucrtd:output.obj
 0001:00042f80       ?type_case_s@?$output_processor@_WV?$stream_output_adapter@_W@__crt_stdio_output@@V?$format_validation_base@_WV?$stream_output_adapter@_W@__crt_stdio_output@@@2@@__crt_stdio_output@@AAE_NXZ 10043f80 f i libucrtd:output.obj
 0001:00043070       ?type_case_s@?$output_processor@_WV?$stream_output_adapter@_W@__crt_stdio_output@@V?$positional_parameter_base@_WV?$stream_output_adapter@_W@__crt_stdio_output@@@2@@__crt_stdio_output@@AAE_NXZ 10044070 f i libucrtd:output.obj
 0001:00043160       ?type_case_s@?$output_processor@_WV?$stream_output_adapter@_W@__crt_stdio_output@@V?$standard_base@_WV?$stream_output_adapter@_W@__crt_stdio_output@@@2@@__crt_stdio_output@@AAE_NXZ 10044160 f i libucrtd:output.obj
 0001:00043250       ?type_case_s@?$output_processor@_WV?$string_output_adapter@_W@__crt_stdio_output@@V?$format_validation_base@_WV?$string_output_adapter@_W@__crt_stdio_output@@@2@@__crt_stdio_output@@AAE_NXZ 10044250 f i libucrtd:output.obj
 0001:00043340       ?type_case_s@?$output_processor@_WV?$string_output_adapter@_W@__crt_stdio_output@@V?$positional_parameter_base@_WV?$string_output_adapter@_W@__crt_stdio_output@@@2@@__crt_stdio_output@@AAE_NXZ 10044340 f i libucrtd:output.obj
 0001:00043430       ?type_case_s@?$output_processor@_WV?$string_output_adapter@_W@__crt_stdio_output@@V?$standard_base@_WV?$string_output_adapter@_W@__crt_stdio_output@@@2@@__crt_stdio_output@@AAE_NXZ 10044430 f i libucrtd:output.obj
 0001:00043520       ?type_case_s_compute_narrow_string_length@?$output_processor@DV?$stream_output_adapter@D@__crt_stdio_output@@V?$format_validation_base@DV?$stream_output_adapter@D@__crt_stdio_output@@@2@@__crt_stdio_output@@ABEHHD@Z 10044520 f i libucrtd:output.obj
 0001:00043550       ?type_case_s_compute_narrow_string_length@?$output_processor@DV?$stream_output_adapter@D@__crt_stdio_output@@V?$positional_parameter_base@DV?$stream_output_adapter@D@__crt_stdio_output@@@2@@__crt_stdio_output@@ABEHHD@Z 10044550 f i libucrtd:output.obj
 0001:00043580       ?type_case_s_compute_narrow_string_length@?$output_processor@DV?$stream_output_adapter@D@__crt_stdio_output@@V?$standard_base@DV?$stream_output_adapter@D@__crt_stdio_output@@@2@@__crt_stdio_output@@ABEHHD@Z 10044580 f i libucrtd:output.obj
 0001:000435b0       ?type_case_s_compute_narrow_string_length@?$output_processor@DV?$string_output_adapter@D@__crt_stdio_output@@V?$format_validation_base@DV?$string_output_adapter@D@__crt_stdio_output@@@2@@__crt_stdio_output@@ABEHHD@Z 100445b0 f i libucrtd:output.obj
 0001:000435e0       ?type_case_s_compute_narrow_string_length@?$output_processor@DV?$string_output_adapter@D@__crt_stdio_output@@V?$positional_parameter_base@DV?$string_output_adapter@D@__crt_stdio_output@@@2@@__crt_stdio_output@@ABEHHD@Z 100445e0 f i libucrtd:output.obj
 0001:00043610       ?type_case_s_compute_narrow_string_length@?$output_processor@DV?$string_output_adapter@D@__crt_stdio_output@@V?$standard_base@DV?$string_output_adapter@D@__crt_stdio_output@@@2@@__crt_stdio_output@@ABEHHD@Z 10044610 f i libucrtd:output.obj
 0001:00043640       ?type_case_s_compute_narrow_string_length@?$output_processor@_WV?$stream_output_adapter@_W@__crt_stdio_output@@V?$format_validation_base@_WV?$stream_output_adapter@_W@__crt_stdio_output@@@2@@__crt_stdio_output@@ABEHH_W@Z 10044640 f i libucrtd:output.obj
 0001:000436b0       ?type_case_s_compute_narrow_string_length@?$output_processor@_WV?$stream_output_adapter@_W@__crt_stdio_output@@V?$positional_parameter_base@_WV?$stream_output_adapter@_W@__crt_stdio_output@@@2@@__crt_stdio_output@@ABEHH_W@Z 100446b0 f i libucrtd:output.obj
 0001:00043720       ?type_case_s_compute_narrow_string_length@?$output_processor@_WV?$stream_output_adapter@_W@__crt_stdio_output@@V?$standard_base@_WV?$stream_output_adapter@_W@__crt_stdio_output@@@2@@__crt_stdio_output@@ABEHH_W@Z 10044720 f i libucrtd:output.obj
 0001:00043790       ?type_case_s_compute_narrow_string_length@?$output_processor@_WV?$string_output_adapter@_W@__crt_stdio_output@@V?$format_validation_base@_WV?$string_output_adapter@_W@__crt_stdio_output@@@2@@__crt_stdio_output@@ABEHH_W@Z 10044790 f i libucrtd:output.obj
 0001:00043800       ?type_case_s_compute_narrow_string_length@?$output_processor@_WV?$string_output_adapter@_W@__crt_stdio_output@@V?$positional_parameter_base@_WV?$string_output_adapter@_W@__crt_stdio_output@@@2@@__crt_stdio_output@@ABEHH_W@Z 10044800 f i libucrtd:output.obj
 0001:00043870       ?type_case_s_compute_narrow_string_length@?$output_processor@_WV?$string_output_adapter@_W@__crt_stdio_output@@V?$standard_base@_WV?$string_output_adapter@_W@__crt_stdio_output@@@2@@__crt_stdio_output@@ABEHH_W@Z 10044870 f i libucrtd:output.obj
 0001:000438e0       ?type_case_u@?$output_processor@DV?$stream_output_adapter@D@__crt_stdio_output@@V?$format_validation_base@DV?$stream_output_adapter@D@__crt_stdio_output@@@2@@__crt_stdio_output@@AAE_NXZ 100448e0 f i libucrtd:output.obj
 0001:00043900       ?type_case_u@?$output_processor@DV?$stream_output_adapter@D@__crt_stdio_output@@V?$positional_parameter_base@DV?$stream_output_adapter@D@__crt_stdio_output@@@2@@__crt_stdio_output@@AAE_NXZ 10044900 f i libucrtd:output.obj
 0001:00043920       ?type_case_u@?$output_processor@DV?$stream_output_adapter@D@__crt_stdio_output@@V?$standard_base@DV?$stream_output_adapter@D@__crt_stdio_output@@@2@@__crt_stdio_output@@AAE_NXZ 10044920 f i libucrtd:output.obj
 0001:00043940       ?type_case_u@?$output_processor@DV?$string_output_adapter@D@__crt_stdio_output@@V?$format_validation_base@DV?$string_output_adapter@D@__crt_stdio_output@@@2@@__crt_stdio_output@@AAE_NXZ 10044940 f i libucrtd:output.obj
 0001:00043960       ?type_case_u@?$output_processor@DV?$string_output_adapter@D@__crt_stdio_output@@V?$positional_parameter_base@DV?$string_output_adapter@D@__crt_stdio_output@@@2@@__crt_stdio_output@@AAE_NXZ 10044960 f i libucrtd:output.obj
 0001:00043980       ?type_case_u@?$output_processor@DV?$string_output_adapter@D@__crt_stdio_output@@V?$standard_base@DV?$string_output_adapter@D@__crt_stdio_output@@@2@@__crt_stdio_output@@AAE_NXZ 10044980 f i libucrtd:output.obj
 0001:000439a0       ?type_case_u@?$output_processor@_WV?$stream_output_adapter@_W@__crt_stdio_output@@V?$format_validation_base@_WV?$stream_output_adapter@_W@__crt_stdio_output@@@2@@__crt_stdio_output@@AAE_NXZ 100449a0 f i libucrtd:output.obj
 0001:000439c0       ?type_case_u@?$output_processor@_WV?$stream_output_adapter@_W@__crt_stdio_output@@V?$positional_parameter_base@_WV?$stream_output_adapter@_W@__crt_stdio_output@@@2@@__crt_stdio_output@@AAE_NXZ 100449c0 f i libucrtd:output.obj
 0001:000439e0       ?type_case_u@?$output_processor@_WV?$stream_output_adapter@_W@__crt_stdio_output@@V?$standard_base@_WV?$stream_output_adapter@_W@__crt_stdio_output@@@2@@__crt_stdio_output@@AAE_NXZ 100449e0 f i libucrtd:output.obj
 0001:00043a00       ?type_case_u@?$output_processor@_WV?$string_output_adapter@_W@__crt_stdio_output@@V?$format_validation_base@_WV?$string_output_adapter@_W@__crt_stdio_output@@@2@@__crt_stdio_output@@AAE_NXZ 10044a00 f i libucrtd:output.obj
 0001:00043a20       ?type_case_u@?$output_processor@_WV?$string_output_adapter@_W@__crt_stdio_output@@V?$positional_parameter_base@_WV?$string_output_adapter@_W@__crt_stdio_output@@@2@@__crt_stdio_output@@AAE_NXZ 10044a20 f i libucrtd:output.obj
 0001:00043a40       ?type_case_u@?$output_processor@_WV?$string_output_adapter@_W@__crt_stdio_output@@V?$standard_base@_WV?$string_output_adapter@_W@__crt_stdio_output@@@2@@__crt_stdio_output@@AAE_NXZ 10044a40 f i libucrtd:output.obj
 0001:00043a60       ?type_case_x@?$output_processor@DV?$stream_output_adapter@D@__crt_stdio_output@@V?$format_validation_base@DV?$stream_output_adapter@D@__crt_stdio_output@@@2@@__crt_stdio_output@@AAE_NXZ 10044a60 f i libucrtd:output.obj
 0001:00043a80       ?type_case_x@?$output_processor@DV?$stream_output_adapter@D@__crt_stdio_output@@V?$positional_parameter_base@DV?$stream_output_adapter@D@__crt_stdio_output@@@2@@__crt_stdio_output@@AAE_NXZ 10044a80 f i libucrtd:output.obj
 0001:00043aa0       ?type_case_x@?$output_processor@DV?$stream_output_adapter@D@__crt_stdio_output@@V?$standard_base@DV?$stream_output_adapter@D@__crt_stdio_output@@@2@@__crt_stdio_output@@AAE_NXZ 10044aa0 f i libucrtd:output.obj
 0001:00043ac0       ?type_case_x@?$output_processor@DV?$string_output_adapter@D@__crt_stdio_output@@V?$format_validation_base@DV?$string_output_adapter@D@__crt_stdio_output@@@2@@__crt_stdio_output@@AAE_NXZ 10044ac0 f i libucrtd:output.obj
 0001:00043ae0       ?type_case_x@?$output_processor@DV?$string_output_adapter@D@__crt_stdio_output@@V?$positional_parameter_base@DV?$string_output_adapter@D@__crt_stdio_output@@@2@@__crt_stdio_output@@AAE_NXZ 10044ae0 f i libucrtd:output.obj
 0001:00043b00       ?type_case_x@?$output_processor@DV?$string_output_adapter@D@__crt_stdio_output@@V?$standard_base@DV?$string_output_adapter@D@__crt_stdio_output@@@2@@__crt_stdio_output@@AAE_NXZ 10044b00 f i libucrtd:output.obj
 0001:00043b20       ?type_case_x@?$output_processor@_WV?$stream_output_adapter@_W@__crt_stdio_output@@V?$format_validation_base@_WV?$stream_output_adapter@_W@__crt_stdio_output@@@2@@__crt_stdio_output@@AAE_NXZ 10044b20 f i libucrtd:output.obj
 0001:00043b40       ?type_case_x@?$output_processor@_WV?$stream_output_adapter@_W@__crt_stdio_output@@V?$positional_parameter_base@_WV?$stream_output_adapter@_W@__crt_stdio_output@@@2@@__crt_stdio_output@@AAE_NXZ 10044b40 f i libucrtd:output.obj
 0001:00043b60       ?type_case_x@?$output_processor@_WV?$stream_output_adapter@_W@__crt_stdio_output@@V?$standard_base@_WV?$stream_output_adapter@_W@__crt_stdio_output@@@2@@__crt_stdio_output@@AAE_NXZ 10044b60 f i libucrtd:output.obj
 0001:00043b80       ?type_case_x@?$output_processor@_WV?$string_output_adapter@_W@__crt_stdio_output@@V?$format_validation_base@_WV?$string_output_adapter@_W@__crt_stdio_output@@@2@@__crt_stdio_output@@AAE_NXZ 10044b80 f i libucrtd:output.obj
 0001:00043ba0       ?type_case_x@?$output_processor@_WV?$string_output_adapter@_W@__crt_stdio_output@@V?$positional_parameter_base@_WV?$string_output_adapter@_W@__crt_stdio_output@@@2@@__crt_stdio_output@@AAE_NXZ 10044ba0 f i libucrtd:output.obj
 0001:00043bc0       ?type_case_x@?$output_processor@_WV?$string_output_adapter@_W@__crt_stdio_output@@V?$standard_base@_WV?$string_output_adapter@_W@__crt_stdio_output@@@2@@__crt_stdio_output@@AAE_NXZ 10044bc0 f i libucrtd:output.obj
 0001:00043be0       ?unset_flag@?$output_processor@DV?$stream_output_adapter@D@__crt_stdio_output@@V?$format_validation_base@DV?$stream_output_adapter@D@__crt_stdio_output@@@2@@__crt_stdio_output@@AAEXI@Z 10044be0 f i libucrtd:output.obj
 0001:00043c00       ?unset_flag@?$output_processor@DV?$stream_output_adapter@D@__crt_stdio_output@@V?$positional_parameter_base@DV?$stream_output_adapter@D@__crt_stdio_output@@@2@@__crt_stdio_output@@AAEXI@Z 10044c00 f i libucrtd:output.obj
 0001:00043c20       ?unset_flag@?$output_processor@DV?$stream_output_adapter@D@__crt_stdio_output@@V?$standard_base@DV?$stream_output_adapter@D@__crt_stdio_output@@@2@@__crt_stdio_output@@AAEXI@Z 10044c20 f i libucrtd:output.obj
 0001:00043c40       ?unset_flag@?$output_processor@DV?$string_output_adapter@D@__crt_stdio_output@@V?$format_validation_base@DV?$string_output_adapter@D@__crt_stdio_output@@@2@@__crt_stdio_output@@AAEXI@Z 10044c40 f i libucrtd:output.obj
 0001:00043c60       ?unset_flag@?$output_processor@DV?$string_output_adapter@D@__crt_stdio_output@@V?$positional_parameter_base@DV?$string_output_adapter@D@__crt_stdio_output@@@2@@__crt_stdio_output@@AAEXI@Z 10044c60 f i libucrtd:output.obj
 0001:00043c80       ?unset_flag@?$output_processor@DV?$string_output_adapter@D@__crt_stdio_output@@V?$standard_base@DV?$string_output_adapter@D@__crt_stdio_output@@@2@@__crt_stdio_output@@AAEXI@Z 10044c80 f i libucrtd:output.obj
 0001:00043ca0       ?unset_flag@?$output_processor@_WV?$stream_output_adapter@_W@__crt_stdio_output@@V?$format_validation_base@_WV?$stream_output_adapter@_W@__crt_stdio_output@@@2@@__crt_stdio_output@@AAEXI@Z 10044ca0 f i libucrtd:output.obj
 0001:00043cc0       ?unset_flag@?$output_processor@_WV?$stream_output_adapter@_W@__crt_stdio_output@@V?$positional_parameter_base@_WV?$stream_output_adapter@_W@__crt_stdio_output@@@2@@__crt_stdio_output@@AAEXI@Z 10044cc0 f i libucrtd:output.obj
 0001:00043ce0       ?unset_flag@?$output_processor@_WV?$stream_output_adapter@_W@__crt_stdio_output@@V?$standard_base@_WV?$stream_output_adapter@_W@__crt_stdio_output@@@2@@__crt_stdio_output@@AAEXI@Z 10044ce0 f i libucrtd:output.obj
 0001:00043d00       ?unset_flag@?$output_processor@_WV?$string_output_adapter@_W@__crt_stdio_output@@V?$format_validation_base@_WV?$string_output_adapter@_W@__crt_stdio_output@@@2@@__crt_stdio_output@@AAEXI@Z 10044d00 f i libucrtd:output.obj
 0001:00043d20       ?unset_flag@?$output_processor@_WV?$string_output_adapter@_W@__crt_stdio_output@@V?$positional_parameter_base@_WV?$string_output_adapter@_W@__crt_stdio_output@@@2@@__crt_stdio_output@@AAEXI@Z 10044d20 f i libucrtd:output.obj
 0001:00043d40       ?unset_flag@?$output_processor@_WV?$string_output_adapter@_W@__crt_stdio_output@@V?$standard_base@_WV?$string_output_adapter@_W@__crt_stdio_output@@@2@@__crt_stdio_output@@AAEXI@Z 10044d40 f i libucrtd:output.obj
 0001:00043d60       ?update_field_width@?$positional_parameter_base@DV?$stream_output_adapter@D@__crt_stdio_output@@@__crt_stdio_output@@IAE_NXZ 10044d60 f i libucrtd:output.obj
 0001:00043ee0       ?update_field_width@?$positional_parameter_base@DV?$string_output_adapter@D@__crt_stdio_output@@@__crt_stdio_output@@IAE_NXZ 10044ee0 f i libucrtd:output.obj
 0001:00044060       ?update_field_width@?$positional_parameter_base@_WV?$stream_output_adapter@_W@__crt_stdio_output@@@__crt_stdio_output@@IAE_NXZ 10045060 f i libucrtd:output.obj
 0001:000441e0       ?update_field_width@?$positional_parameter_base@_WV?$string_output_adapter@_W@__crt_stdio_output@@@__crt_stdio_output@@IAE_NXZ 100451e0 f i libucrtd:output.obj
 0001:00044360       ?update_field_width@?$standard_base@DV?$stream_output_adapter@D@__crt_stdio_output@@@__crt_stdio_output@@IAE_NXZ 10045360 f i libucrtd:output.obj
 0001:00044390       ?update_field_width@?$standard_base@DV?$string_output_adapter@D@__crt_stdio_output@@@__crt_stdio_output@@IAE_NXZ 10045390 f i libucrtd:output.obj
 0001:000443c0       ?update_field_width@?$standard_base@_WV?$stream_output_adapter@_W@__crt_stdio_output@@@__crt_stdio_output@@IAE_NXZ 100453c0 f i libucrtd:output.obj
 0001:000443f0       ?update_field_width@?$standard_base@_WV?$string_output_adapter@_W@__crt_stdio_output@@@__crt_stdio_output@@IAE_NXZ 100453f0 f i libucrtd:output.obj
 0001:00044420       ?update_precision@?$positional_parameter_base@DV?$stream_output_adapter@D@__crt_stdio_output@@@__crt_stdio_output@@IAE_NXZ 10045420 f i libucrtd:output.obj
 0001:000445a0       ?update_precision@?$positional_parameter_base@DV?$string_output_adapter@D@__crt_stdio_output@@@__crt_stdio_output@@IAE_NXZ 100455a0 f i libucrtd:output.obj
 0001:00044720       ?update_precision@?$positional_parameter_base@_WV?$stream_output_adapter@_W@__crt_stdio_output@@@__crt_stdio_output@@IAE_NXZ 10045720 f i libucrtd:output.obj
 0001:000448a0       ?update_precision@?$positional_parameter_base@_WV?$string_output_adapter@_W@__crt_stdio_output@@@__crt_stdio_output@@IAE_NXZ 100458a0 f i libucrtd:output.obj
 0001:00044a20       ?update_precision@?$standard_base@DV?$stream_output_adapter@D@__crt_stdio_output@@@__crt_stdio_output@@IAE_NXZ 10045a20 f i libucrtd:output.obj
 0001:00044a50       ?update_precision@?$standard_base@DV?$string_output_adapter@D@__crt_stdio_output@@@__crt_stdio_output@@IAE_NXZ 10045a50 f i libucrtd:output.obj
 0001:00044a80       ?update_precision@?$standard_base@_WV?$stream_output_adapter@_W@__crt_stdio_output@@@__crt_stdio_output@@IAE_NXZ 10045a80 f i libucrtd:output.obj
 0001:00044ab0       ?update_precision@?$standard_base@_WV?$string_output_adapter@_W@__crt_stdio_output@@@__crt_stdio_output@@IAE_NXZ 10045ab0 f i libucrtd:output.obj
 0001:00044ae0       ?valid@__crt_stdio_stream@@QBE_NXZ 10045ae0 f i libucrtd:output.obj
 0001:00044b10       ?validate@?$stream_output_adapter@D@__crt_stdio_output@@QBE_NXZ 10045b10 f i libucrtd:output.obj
 0001:00044bc0       ?validate@?$stream_output_adapter@_W@__crt_stdio_output@@QBE_NXZ 10045bc0 f i libucrtd:output.obj
 0001:00044c70       ?validate@?$string_output_adapter@D@__crt_stdio_output@@QBE_NXZ 10045c70 f i libucrtd:output.obj
 0001:00044d00       ?validate@?$string_output_adapter@_W@__crt_stdio_output@@QBE_NXZ 10045d00 f i libucrtd:output.obj
 0001:00044d90       ?validate_and_store_parameter_data@?$positional_parameter_base@DV?$stream_output_adapter@D@__crt_stdio_output@@@__crt_stdio_output@@AAE_NAAUparameter_data@12@W4parameter_type@12@DW4length_modifier@2@@Z 10045d90 f i libucrtd:output.obj
 0001:00044e60       ?validate_and_store_parameter_data@?$positional_parameter_base@DV?$string_output_adapter@D@__crt_stdio_output@@@__crt_stdio_output@@AAE_NAAUparameter_data@12@W4parameter_type@12@DW4length_modifier@2@@Z 10045e60 f i libucrtd:output.obj
 0001:00044f30       ?validate_and_store_parameter_data@?$positional_parameter_base@_WV?$stream_output_adapter@_W@__crt_stdio_output@@@__crt_stdio_output@@AAE_NAAUparameter_data@12@W4parameter_type@12@_WW4length_modifier@2@@Z 10045f30 f i libucrtd:output.obj
 0001:00045010       ?validate_and_store_parameter_data@?$positional_parameter_base@_WV?$string_output_adapter@_W@__crt_stdio_output@@@__crt_stdio_output@@AAE_NAAUparameter_data@12@W4parameter_type@12@_WW4length_modifier@2@@Z 10046010 f i libucrtd:output.obj
 0001:000450f0       ?validate_and_update_state_at_beginning_of_format_character@?$positional_parameter_base@DV?$stream_output_adapter@D@__crt_stdio_output@@@__crt_stdio_output@@IAE_NXZ 100460f0 f i libucrtd:output.obj
 0001:00045310       ?validate_and_update_state_at_beginning_of_format_character@?$positional_parameter_base@DV?$string_output_adapter@D@__crt_stdio_output@@@__crt_stdio_output@@IAE_NXZ 10046310 f i libucrtd:output.obj
 0001:00045530       ?validate_and_update_state_at_beginning_of_format_character@?$positional_parameter_base@_WV?$stream_output_adapter@_W@__crt_stdio_output@@@__crt_stdio_output@@IAE_NXZ 10046530 f i libucrtd:output.obj
 0001:00045750       ?validate_and_update_state_at_beginning_of_format_character@?$positional_parameter_base@_WV?$string_output_adapter@_W@__crt_stdio_output@@@__crt_stdio_output@@IAE_NXZ 10046750 f i libucrtd:output.obj
 0001:00045970       ?validate_and_update_state_at_beginning_of_format_character@?$standard_base@DV?$stream_output_adapter@D@__crt_stdio_output@@@__crt_stdio_output@@IAE_NXZ 10046970 f i libucrtd:output.obj
 0001:00045980       ?validate_and_update_state_at_beginning_of_format_character@?$standard_base@DV?$string_output_adapter@D@__crt_stdio_output@@@__crt_stdio_output@@IAE_NXZ 10046980 f i libucrtd:output.obj
 0001:00045990       ?validate_and_update_state_at_beginning_of_format_character@?$standard_base@_WV?$stream_output_adapter@_W@__crt_stdio_output@@@__crt_stdio_output@@IAE_NXZ 10046990 f i libucrtd:output.obj
 0001:000459a0       ?validate_and_update_state_at_beginning_of_format_character@?$standard_base@_WV?$string_output_adapter@_W@__crt_stdio_output@@@__crt_stdio_output@@IAE_NXZ 100469a0 f i libucrtd:output.obj
 0001:000459b0       ?validate_and_update_state_at_end_of_format_string@?$format_validation_base@DV?$stream_output_adapter@D@__crt_stdio_output@@@__crt_stdio_output@@IBE_NXZ 100469b0 f i libucrtd:output.obj
 0001:00045a50       ?validate_and_update_state_at_end_of_format_string@?$format_validation_base@DV?$string_output_adapter@D@__crt_stdio_output@@@__crt_stdio_output@@IBE_NXZ 10046a50 f i libucrtd:output.obj
 0001:00045af0       ?validate_and_update_state_at_end_of_format_string@?$format_validation_base@_WV?$stream_output_adapter@_W@__crt_stdio_output@@@__crt_stdio_output@@IBE_NXZ 10046af0 f i libucrtd:output.obj
 0001:00045b90       ?validate_and_update_state_at_end_of_format_string@?$format_validation_base@_WV?$string_output_adapter@_W@__crt_stdio_output@@@__crt_stdio_output@@IBE_NXZ 10046b90 f i libucrtd:output.obj
 0001:00045c30       ?validate_and_update_state_at_end_of_format_string@?$positional_parameter_base@DV?$stream_output_adapter@D@__crt_stdio_output@@@__crt_stdio_output@@IAE_NXZ 10046c30 f i libucrtd:output.obj
 0001:00045dd0       ?validate_and_update_state_at_end_of_format_string@?$positional_parameter_base@DV?$string_output_adapter@D@__crt_stdio_output@@@__crt_stdio_output@@IAE_NXZ 10046dd0 f i libucrtd:output.obj
 0001:00045f70       ?validate_and_update_state_at_end_of_format_string@?$positional_parameter_base@_WV?$stream_output_adapter@_W@__crt_stdio_output@@@__crt_stdio_output@@IAE_NXZ 10046f70 f i libucrtd:output.obj
 0001:00046110       ?validate_and_update_state_at_end_of_format_string@?$positional_parameter_base@_WV?$string_output_adapter@_W@__crt_stdio_output@@@__crt_stdio_output@@IAE_NXZ 10047110 f i libucrtd:output.obj
 0001:000462b0       ?validate_and_update_state_at_end_of_format_string@?$standard_base@DV?$stream_output_adapter@D@__crt_stdio_output@@@__crt_stdio_output@@IBE_NXZ 100472b0 f i libucrtd:output.obj
 0001:000462c0       ?validate_and_update_state_at_end_of_format_string@?$standard_base@DV?$string_output_adapter@D@__crt_stdio_output@@@__crt_stdio_output@@IBE_NXZ 100472c0 f i libucrtd:output.obj
 0001:000462d0       ?validate_and_update_state_at_end_of_format_string@?$standard_base@_WV?$stream_output_adapter@_W@__crt_stdio_output@@@__crt_stdio_output@@IBE_NXZ 100472d0 f i libucrtd:output.obj
 0001:000462e0       ?validate_and_update_state_at_end_of_format_string@?$standard_base@_WV?$string_output_adapter@_W@__crt_stdio_output@@@__crt_stdio_output@@IBE_NXZ 100472e0 f i libucrtd:output.obj
 0001:000462f0       ?validate_state_for_type_case_a@?$positional_parameter_base@DV?$stream_output_adapter@D@__crt_stdio_output@@@__crt_stdio_output@@IAE_NXZ 100472f0 f i libucrtd:output.obj
 0001:000463e0       ?validate_state_for_type_case_a@?$positional_parameter_base@DV?$string_output_adapter@D@__crt_stdio_output@@@__crt_stdio_output@@IAE_NXZ 100473e0 f i libucrtd:output.obj
 0001:000464d0       ?validate_state_for_type_case_a@?$positional_parameter_base@_WV?$stream_output_adapter@_W@__crt_stdio_output@@@__crt_stdio_output@@IAE_NXZ 100474d0 f i libucrtd:output.obj
 0001:000465c0       ?validate_state_for_type_case_a@?$positional_parameter_base@_WV?$string_output_adapter@_W@__crt_stdio_output@@@__crt_stdio_output@@IAE_NXZ 100475c0 f i libucrtd:output.obj
 0001:000466b0       ?validate_state_for_type_case_a@?$standard_base@DV?$stream_output_adapter@D@__crt_stdio_output@@@__crt_stdio_output@@IBE_NXZ 100476b0 f i libucrtd:output.obj
 0001:000466c0       ?validate_state_for_type_case_a@?$standard_base@DV?$string_output_adapter@D@__crt_stdio_output@@@__crt_stdio_output@@IBE_NXZ 100476c0 f i libucrtd:output.obj
 0001:000466d0       ?validate_state_for_type_case_a@?$standard_base@_WV?$stream_output_adapter@_W@__crt_stdio_output@@@__crt_stdio_output@@IBE_NXZ 100476d0 f i libucrtd:output.obj
 0001:000466e0       ?validate_state_for_type_case_a@?$standard_base@_WV?$string_output_adapter@_W@__crt_stdio_output@@@__crt_stdio_output@@IBE_NXZ 100476e0 f i libucrtd:output.obj
 0001:000466f0       ?validate_stream_is_ansi_if_required@?$__acrt_stdio_char_traits@D@@SA_NQAU_iobuf@@@Z 100476f0 f i libucrtd:output.obj
 0001:00046820       ?validate_stream_is_ansi_if_required@?$__acrt_stdio_char_traits@_W@@SA_NQAU_iobuf@@@Z 10047820 f i libucrtd:output.obj
 0001:00046830       ?wide_null_string@?$output_processor@DV?$stream_output_adapter@D@__crt_stdio_output@@V?$format_validation_base@DV?$stream_output_adapter@D@__crt_stdio_output@@@2@@__crt_stdio_output@@CAPA_WXZ 10047830 f i libucrtd:output.obj
 0001:00046840       ?wide_null_string@?$output_processor@DV?$stream_output_adapter@D@__crt_stdio_output@@V?$positional_parameter_base@DV?$stream_output_adapter@D@__crt_stdio_output@@@2@@__crt_stdio_output@@CAPA_WXZ 10047840 f i libucrtd:output.obj
 0001:00046850       ?wide_null_string@?$output_processor@DV?$stream_output_adapter@D@__crt_stdio_output@@V?$standard_base@DV?$stream_output_adapter@D@__crt_stdio_output@@@2@@__crt_stdio_output@@CAPA_WXZ 10047850 f i libucrtd:output.obj
 0001:00046860       ?wide_null_string@?$output_processor@DV?$string_output_adapter@D@__crt_stdio_output@@V?$format_validation_base@DV?$string_output_adapter@D@__crt_stdio_output@@@2@@__crt_stdio_output@@CAPA_WXZ 10047860 f i libucrtd:output.obj
 0001:00046870       ?wide_null_string@?$output_processor@DV?$string_output_adapter@D@__crt_stdio_output@@V?$positional_parameter_base@DV?$string_output_adapter@D@__crt_stdio_output@@@2@@__crt_stdio_output@@CAPA_WXZ 10047870 f i libucrtd:output.obj
 0001:00046880       ?wide_null_string@?$output_processor@DV?$string_output_adapter@D@__crt_stdio_output@@V?$standard_base@DV?$string_output_adapter@D@__crt_stdio_output@@@2@@__crt_stdio_output@@CAPA_WXZ 10047880 f i libucrtd:output.obj
 0001:00046890       ?wide_null_string@?$output_processor@_WV?$stream_output_adapter@_W@__crt_stdio_output@@V?$format_validation_base@_WV?$stream_output_adapter@_W@__crt_stdio_output@@@2@@__crt_stdio_output@@CAPA_WXZ 10047890 f i libucrtd:output.obj
 0001:000468a0       ?wide_null_string@?$output_processor@_WV?$stream_output_adapter@_W@__crt_stdio_output@@V?$positional_parameter_base@_WV?$stream_output_adapter@_W@__crt_stdio_output@@@2@@__crt_stdio_output@@CAPA_WXZ 100478a0 f i libucrtd:output.obj
 0001:000468b0       ?wide_null_string@?$output_processor@_WV?$stream_output_adapter@_W@__crt_stdio_output@@V?$standard_base@_WV?$stream_output_adapter@_W@__crt_stdio_output@@@2@@__crt_stdio_output@@CAPA_WXZ 100478b0 f i libucrtd:output.obj
 0001:000468c0       ?wide_null_string@?$output_processor@_WV?$string_output_adapter@_W@__crt_stdio_output@@V?$format_validation_base@_WV?$string_output_adapter@_W@__crt_stdio_output@@@2@@__crt_stdio_output@@CAPA_WXZ 100478c0 f i libucrtd:output.obj
 0001:000468d0       ?wide_null_string@?$output_processor@_WV?$string_output_adapter@_W@__crt_stdio_output@@V?$positional_parameter_base@_WV?$string_output_adapter@_W@__crt_stdio_output@@@2@@__crt_stdio_output@@CAPA_WXZ 100478d0 f i libucrtd:output.obj
 0001:000468e0       ?wide_null_string@?$output_processor@_WV?$string_output_adapter@_W@__crt_stdio_output@@V?$standard_base@_WV?$string_output_adapter@_W@__crt_stdio_output@@@2@@__crt_stdio_output@@CAPA_WXZ 100478e0 f i libucrtd:output.obj
 0001:000468f0       ?write_character@?$output_adapter_common@DV?$stream_output_adapter@D@__crt_stdio_output@@@__crt_stdio_output@@QBEXDQAH@Z 100478f0 f i libucrtd:output.obj
 0001:00046930       ?write_character@?$output_adapter_common@_WV?$stream_output_adapter@_W@__crt_stdio_output@@@__crt_stdio_output@@QBEX_WQAH@Z 10047930 f i libucrtd:output.obj
 0001:00046970       ?write_character@?$string_output_adapter@D@__crt_stdio_output@@QBE_NDQAH@Z 10047970 f i libucrtd:output.obj
 0001:00046a00       ?write_character@?$string_output_adapter@_W@__crt_stdio_output@@QBE_N_WQAH@Z 10047a00 f i libucrtd:output.obj
 0001:00046aa0       ?write_character_without_count_update@?$stream_output_adapter@D@__crt_stdio_output@@QBE_ND@Z 10047aa0 f i libucrtd:output.obj
 0001:00046b10       ?write_character_without_count_update@?$stream_output_adapter@_W@__crt_stdio_output@@QBE_N_W@Z 10047b10 f i libucrtd:output.obj
 0001:00046b80       ?write_stored_string_tchar@?$output_processor@DV?$stream_output_adapter@D@__crt_stdio_output@@V?$format_validation_base@DV?$stream_output_adapter@D@__crt_stdio_output@@@2@@__crt_stdio_output@@AAE_ND@Z 10047b80 f i libucrtd:output.obj
 0001:00046c90       ?write_stored_string_tchar@?$output_processor@DV?$stream_output_adapter@D@__crt_stdio_output@@V?$positional_parameter_base@DV?$stream_output_adapter@D@__crt_stdio_output@@@2@@__crt_stdio_output@@AAE_ND@Z 10047c90 f i libucrtd:output.obj
 0001:00046da0       ?write_stored_string_tchar@?$output_processor@DV?$stream_output_adapter@D@__crt_stdio_output@@V?$standard_base@DV?$stream_output_adapter@D@__crt_stdio_output@@@2@@__crt_stdio_output@@AAE_ND@Z 10047da0 f i libucrtd:output.obj
 0001:00046eb0       ?write_stored_string_tchar@?$output_processor@DV?$string_output_adapter@D@__crt_stdio_output@@V?$format_validation_base@DV?$string_output_adapter@D@__crt_stdio_output@@@2@@__crt_stdio_output@@AAE_ND@Z 10047eb0 f i libucrtd:output.obj
 0001:00046fc0       ?write_stored_string_tchar@?$output_processor@DV?$string_output_adapter@D@__crt_stdio_output@@V?$positional_parameter_base@DV?$string_output_adapter@D@__crt_stdio_output@@@2@@__crt_stdio_output@@AAE_ND@Z 10047fc0 f i libucrtd:output.obj
 0001:000470d0       ?write_stored_string_tchar@?$output_processor@DV?$string_output_adapter@D@__crt_stdio_output@@V?$standard_base@DV?$string_output_adapter@D@__crt_stdio_output@@@2@@__crt_stdio_output@@AAE_ND@Z 100480d0 f i libucrtd:output.obj
 0001:000471e0       ?write_stored_string_tchar@?$output_processor@_WV?$stream_output_adapter@_W@__crt_stdio_output@@V?$format_validation_base@_WV?$stream_output_adapter@_W@__crt_stdio_output@@@2@@__crt_stdio_output@@AAE_N_W@Z 100481e0 f i libucrtd:output.obj
 0001:000472d0       ?write_stored_string_tchar@?$output_processor@_WV?$stream_output_adapter@_W@__crt_stdio_output@@V?$positional_parameter_base@_WV?$stream_output_adapter@_W@__crt_stdio_output@@@2@@__crt_stdio_output@@AAE_N_W@Z 100482d0 f i libucrtd:output.obj
 0001:000473c0       ?write_stored_string_tchar@?$output_processor@_WV?$stream_output_adapter@_W@__crt_stdio_output@@V?$standard_base@_WV?$stream_output_adapter@_W@__crt_stdio_output@@@2@@__crt_stdio_output@@AAE_N_W@Z 100483c0 f i libucrtd:output.obj
 0001:000474b0       ?write_stored_string_tchar@?$output_processor@_WV?$string_output_adapter@_W@__crt_stdio_output@@V?$format_validation_base@_WV?$string_output_adapter@_W@__crt_stdio_output@@@2@@__crt_stdio_output@@AAE_N_W@Z 100484b0 f i libucrtd:output.obj
 0001:000475a0       ?write_stored_string_tchar@?$output_processor@_WV?$string_output_adapter@_W@__crt_stdio_output@@V?$positional_parameter_base@_WV?$string_output_adapter@_W@__crt_stdio_output@@@2@@__crt_stdio_output@@AAE_N_W@Z 100485a0 f i libucrtd:output.obj
 0001:00047690       ?write_stored_string_tchar@?$output_processor@_WV?$string_output_adapter@_W@__crt_stdio_output@@V?$standard_base@_WV?$string_output_adapter@_W@__crt_stdio_output@@@2@@__crt_stdio_output@@AAE_N_W@Z 10048690 f i libucrtd:output.obj
 0001:00047780       ?write_string@?$stream_output_adapter@D@__crt_stdio_output@@QBEXQBDHQAHAAV__crt_deferred_errno_cache@@@Z 10048780 f i libucrtd:output.obj
 0001:000477e0       ?write_string@?$stream_output_adapter@_W@__crt_stdio_output@@QBEXQB_WHQAHAAV__crt_deferred_errno_cache@@@Z 100487e0 f i libucrtd:output.obj
 0001:00047840       ?write_string@?$string_output_adapter@D@__crt_stdio_output@@QBEXQBDHQAHAAV__crt_deferred_errno_cache@@@Z 10048840 f i libucrtd:output.obj
 0001:00047940       ?write_string@?$string_output_adapter@_W@__crt_stdio_output@@QBEXQB_WHQAHAAV__crt_deferred_errno_cache@@@Z 10048940 f i libucrtd:output.obj
 0001:00047a50       ?write_string_impl@?$output_adapter_common@DV?$stream_output_adapter@D@__crt_stdio_output@@@__crt_stdio_output@@IBEXQBDHQAHAAV__crt_deferred_errno_cache@@@Z 10048a50 f i libucrtd:output.obj
 0001:00047af0       ?write_string_impl@?$output_adapter_common@_WV?$stream_output_adapter@_W@__crt_stdio_output@@@__crt_stdio_output@@IBEXQB_WHQAHAAV__crt_deferred_errno_cache@@@Z 10048af0 f i libucrtd:output.obj
 0001:00047b90       ___acrt_isleadbyte_l_noupdate 10048b90 f i libucrtd:output.obj
 0001:00047bb0       ___acrt_locale_changed     10048bb0 f i libucrtd:output.obj
 0001:00047be0       ___acrt_locale_get_ctype_array_value 10048be0 f i libucrtd:output.obj
 0001:00047c10       ___stdio_common_vfprintf   10048c10 f   libucrtd:output.obj
 0001:00047c40       ___stdio_common_vfprintf_p 10048c40 f   libucrtd:output.obj
 0001:00047c70       ___stdio_common_vfprintf_s 10048c70 f   libucrtd:output.obj
 0001:00047ca0       ___stdio_common_vfwprintf  10048ca0 f   libucrtd:output.obj
 0001:00047cd0       ___stdio_common_vfwprintf_p 10048cd0 f   libucrtd:output.obj
 0001:00047d00       ___stdio_common_vfwprintf_s 10048d00 f   libucrtd:output.obj
 0001:00047d30       ___stdio_common_vsnprintf_s 10048d30 f   libucrtd:output.obj
 0001:00047d60       ___stdio_common_vsnwprintf_s 10048d60 f   libucrtd:output.obj
 0001:00047d90       ___stdio_common_vsprintf   10048d90 f   libucrtd:output.obj
 0001:00047dc0       ___stdio_common_vsprintf_p 10048dc0 f   libucrtd:output.obj
 0001:00047df0       ___stdio_common_vsprintf_s 10048df0 f   libucrtd:output.obj
 0001:00047e20       ___stdio_common_vswprintf  10048e20 f   libucrtd:output.obj
 0001:00047e50       ___stdio_common_vswprintf_p 10048e50 f   libucrtd:output.obj
 0001:00047e80       ___stdio_common_vswprintf_s 10048e80 f   libucrtd:output.obj
 0001:00047eb0       __ctype_fast_check_internal 10048eb0 f i libucrtd:output.obj
 0001:00047ed0       __isdigit_fast_internal    10048ed0 f i libucrtd:output.obj
 0001:00047ef0       __tolower_fast_internal    10048ef0 f i libucrtd:output.obj
 0001:00047f10       ??$__crt_fast_decode_pointer@P6AXPB_W00II@Z@@YAP6AXPB_W00II@ZQ6AX000II@Z@Z 10048f10 f i libucrtd:invalid_parameter.obj
 0001:00047f40       ??$__crt_fast_encode_pointer@P6AXPB_W00II@Z@@YAP6AXPB_W00II@ZQ6AX000II@Z@Z 10048f40 f i libucrtd:invalid_parameter.obj
 0001:00047f70       ??$initialize_from_array@$$BY00Q6AXPB_W00II@Z@?$dual_state_global@P6AXPB_W00II@Z@__crt_state_management@@QAAXAAY00Q6AXPB_W00II@Z@Z 10048f70 f i libucrtd:invalid_parameter.obj
 0001:00047fc0       ?__crt_rotate_pointer_value@@YAIIH@Z 10048fc0 f i libucrtd:invalid_parameter.obj
 0001:00047fd0       ?dangerous_get_state_array@?$dual_state_global@P6AXPB_W00II@Z@__crt_state_management@@QAEPAP6AXPB_W00II@ZXZ 10048fd0 f i libucrtd:invalid_parameter.obj
 0001:00047fe0       ?get_current_state_index@__crt_state_management@@YAIXZ 10048fe0 f i libucrtd:invalid_parameter.obj
 0001:00047ff0       ?value@?$dual_state_global@P6AXPB_W00II@Z@__crt_state_management@@QAEAAP6AXPB_W00II@ZXZ 10048ff0 f i libucrtd:invalid_parameter.obj
 0001:00048010       ___acrt_call_reportfault   10049010 f   libucrtd:invalid_parameter.obj
 0001:00048170       ___acrt_initialize_invalid_parameter_handler 10049170 f   libucrtd:invalid_parameter.obj
 0001:000481a0       __get_invalid_parameter_handler 100491a0 f   libucrtd:invalid_parameter.obj
 0001:000481c0       __get_thread_local_invalid_parameter_handler 100491c0 f   libucrtd:invalid_parameter.obj
 0001:000481f0       __invalid_parameter        100491f0 f   libucrtd:invalid_parameter.obj
 0001:000482b0       __invalid_parameter_noinfo 100492b0 f   libucrtd:invalid_parameter.obj
 0001:000482d0       __invalid_parameter_noinfo_noreturn 100492d0 f   libucrtd:invalid_parameter.obj
 0001:00048300       __invoke_watson            10049300 f   libucrtd:invalid_parameter.obj
 0001:00048340       __set_invalid_parameter_handler 10049340 f   libucrtd:invalid_parameter.obj
 0001:00048390       __set_thread_local_invalid_parameter_handler 10049390 f   libucrtd:invalid_parameter.obj
 0001:000483c0       ___acrt_errno_from_os_error 100493c0 f   libucrtd:errno.obj
 0001:00048440       ___acrt_errno_map_os_error 10049440 f   libucrtd:errno.obj
 0001:00048470       ___doserrno                10049470 f   libucrtd:errno.obj
 0001:000484a0       __errno                    100494a0 f   libucrtd:errno.obj
 0001:000484d0       __get_doserrno             100494d0 f   libucrtd:errno.obj
 0001:00048560       __get_errno                10049560 f   libucrtd:errno.obj
 0001:000485f0       __set_doserrno             100495f0 f   libucrtd:errno.obj
 0001:00048620       __set_errno                10049620 f   libucrtd:errno.obj
 0001:00048650       __recalloc                 10049650 f   libucrtd:recalloc.obj
 0001:00048680       __recalloc_base            10049680 f   libucrtd:recalloc.obj
 0001:00048b40       _wcscat_s                  10049b40 f   libucrtd:wcscat_s.obj
 0001:00048f90       _wcsncpy_s                 10049f90 f   libucrtd:wcsncpy_s.obj
 0001:00049000       __seh_filter_dll           1004a000 f   libucrtd:exception_filter.obj
 0001:00049030       __seh_filter_exe           1004a030 f   libucrtd:exception_filter.obj
 0001:00049240       ??$?B$$A6GXPAXK0@Z@__crt_fast_encoded_nullptr_t@@QBEP6GXPAXK0@ZXZ 1004a240 f i libucrtd:exit.obj
 0001:00049320       ??$__crt_fast_decode_pointer@P6GXPAXK0@Z@@YAP6GXPAXK0@ZQ6GX0K0@Z@Z 1004a320 f i libucrtd:exit.obj
 0001:00049350       ??$__crt_fast_encode_pointer@P6GXPAXK0@Z@@YAP6GXPAXK0@ZQ6GX0K0@Z@Z 1004a350 f i libucrtd:exit.obj
 0001:00049380       ??$__crt_get_proc_address@P6GXI@Z@@YAP6GXI@ZQAUHINSTANCE__@@QBD@Z 1004a380 f i libucrtd:exit.obj
 0001:00049410       ??0?$__crt_unique_handle_t@U__crt_hmodule_traits@@@@QAE@QAUHINSTANCE__@@@Z 1004a410 f i libucrtd:exit.obj
 0001:00049430       ??1?$__crt_unique_handle_t@U__crt_hmodule_traits@@@@QAE@XZ 1004a430 f i libucrtd:exit.obj
 0001:000495f0       ?__acrt_select_exit_lock@@YA?AW4__acrt_lock_id@@XZ 1004a5f0 f i libucrtd:exit.obj
 0001:00049600       ?__crt_fast_encode_pointer@@YA?AU__crt_fast_encoded_nullptr_t@@$$T@Z 1004a600 f i libucrtd:exit.obj
 0001:00049630       ?close@?$__crt_unique_handle_t@U__crt_hmodule_traits@@@@QAEXXZ 1004a630 f i libucrtd:exit.obj
 0001:00049670       ?close@__crt_hmodule_traits@@SA_NPAUHINSTANCE__@@@Z 1004a670 f i libucrtd:exit.obj
 0001:00049760       ?get@?$__crt_unique_handle_t@U__crt_hmodule_traits@@@@QBEPAUHINSTANCE__@@XZ 1004a760 f i libucrtd:exit.obj
 0001:00049780       ?get_address_of@?$__crt_unique_handle_t@U__crt_hmodule_traits@@@@QAEPAPAUHINSTANCE__@@XZ 1004a780 f i libucrtd:exit.obj
 0001:00049790       ?get_invalid_value@__crt_hmodule_traits@@SAPAUHINSTANCE__@@XZ 1004a790 f i libucrtd:exit.obj
 0001:00049910       __Exit                     1004a910 f   libucrtd:exit.obj
 0001:00049930       ___acrt_initialize_thread_local_exit_callback 1004a930 f   libucrtd:exit.obj
 0001:00049940       __c_exit                   1004a940 f   libucrtd:exit.obj
 0001:00049960       __cexit                    1004a960 f   libucrtd:exit.obj
 0001:00049980       __exit                     1004a980 f   libucrtd:exit.obj
 0001:000499a0       __is_c_termination_complete 1004a9a0 f   libucrtd:exit.obj
 0001:000499c0       __register_thread_local_exe_atexit_callback 1004a9c0 f   libucrtd:exit.obj
 0001:00049a00       _exit                      1004aa00 f   libucrtd:exit.obj
 0001:00049a20       _quick_exit                1004aa20 f   libucrtd:exit.obj
 0001:00049a40       ??$?RE@__crt_internal_free_policy@@QBEXQBE@Z 1004aa40 f i libucrtd:argv_parsing.obj
 0001:00049a60       ??$?RPAD@__crt_internal_free_policy@@QBEXQBQAD@Z 1004aa60 f i libucrtd:argv_parsing.obj
 0001:00049a80       ??$?RPA_W@__crt_internal_free_policy@@QBEXQBQA_W@Z 1004aa80 f i libucrtd:argv_parsing.obj
 0001:00049fe0       ??$get_module_file_name@$$TAAY0BAF@DH@?$__crt_char_traits@D@@SAK$$QA$$TAAY0BAF@D$$QAH@Z 1004afe0 f i libucrtd:argv_parsing.obj
 0001:0004a000       ??$get_module_file_name@$$TAAY0BAF@_WH@?$__crt_char_traits@_W@@SAK$$QA$$TAAY0BAF@_W$$QAH@Z 1004b000 f i libucrtd:argv_parsing.obj
 0001:0004a720       ??$set_program_name@PAD@?$__crt_char_traits@D@@SAX$$QAPAD@Z 1004b720 f i libucrtd:argv_parsing.obj
 0001:0004a740       ??$set_program_name@PA_W@?$__crt_char_traits@_W@@SAX$$QAPA_W@Z 1004b740 f i libucrtd:argv_parsing.obj
 0001:0004a7a0       ??0?$__crt_unique_heap_ptr@EU__crt_internal_free_policy@@@@QAE@QAE@Z 1004b7a0 f i libucrtd:argv_parsing.obj
 0001:0004a7c0       ??0?$__crt_unique_heap_ptr@PADU__crt_internal_free_policy@@@@QAE@QAPAD@Z 1004b7c0 f i libucrtd:argv_parsing.obj
 0001:0004a7e0       ??0?$__crt_unique_heap_ptr@PA_WU__crt_internal_free_policy@@@@QAE@QAPA_W@Z 1004b7e0 f i libucrtd:argv_parsing.obj
 0001:0004a800       ??1?$__crt_unique_heap_ptr@EU__crt_internal_free_policy@@@@QAE@XZ 1004b800 f i libucrtd:argv_parsing.obj
 0001:0004a820       ??1?$__crt_unique_heap_ptr@PADU__crt_internal_free_policy@@@@QAE@XZ 1004b820 f i libucrtd:argv_parsing.obj
 0001:0004a840       ??1?$__crt_unique_heap_ptr@PA_WU__crt_internal_free_policy@@@@QAE@XZ 1004b840 f i libucrtd:argv_parsing.obj
 0001:0004a860       ??B?$__crt_unique_heap_ptr@EU__crt_internal_free_policy@@@@QBE_NXZ 1004b860 f i libucrtd:argv_parsing.obj
 0001:0004a920       ?detach@?$__crt_unique_heap_ptr@EU__crt_internal_free_policy@@@@QAEPAEXZ 1004b920 f i libucrtd:argv_parsing.obj
 0001:0004a950       ?detach@?$__crt_unique_heap_ptr@PADU__crt_internal_free_policy@@@@QAEPAPADXZ 1004b950 f i libucrtd:argv_parsing.obj
 0001:0004a980       ?detach@?$__crt_unique_heap_ptr@PA_WU__crt_internal_free_policy@@@@QAEPAPA_WXZ 1004b980 f i libucrtd:argv_parsing.obj
 0001:0004aa10       ?get@?$__crt_unique_heap_ptr@EU__crt_internal_free_policy@@@@QBEPAEXZ 1004ba10 f i libucrtd:argv_parsing.obj
 0001:0004aa30       ?get@?$__crt_unique_heap_ptr@PADU__crt_internal_free_policy@@@@QBEPAPADXZ 1004ba30 f i libucrtd:argv_parsing.obj
 0001:0004aa50       ?get@?$__crt_unique_heap_ptr@PA_WU__crt_internal_free_policy@@@@QBEPAPA_WXZ 1004ba50 f i libucrtd:argv_parsing.obj
 0001:0004aa70       ?get_address_of@?$__crt_unique_heap_ptr@PADU__crt_internal_free_policy@@@@QAEPAPAPADXZ 1004ba70 f i libucrtd:argv_parsing.obj
 0001:0004aa80       ?get_address_of@?$__crt_unique_heap_ptr@PA_WU__crt_internal_free_policy@@@@QAEPAPAPA_WXZ 1004ba80 f i libucrtd:argv_parsing.obj
 0001:0004aad0       ?is_valid@?$__crt_unique_heap_ptr@EU__crt_internal_free_policy@@@@QBE_NXZ 1004bad0 f i libucrtd:argv_parsing.obj
 0001:0004ab00       ?release@?$__crt_unique_heap_ptr@EU__crt_internal_free_policy@@@@QAEXXZ 1004bb00 f i libucrtd:argv_parsing.obj
 0001:0004ab30       ?release@?$__crt_unique_heap_ptr@PADU__crt_internal_free_policy@@@@QAEXXZ 1004bb30 f i libucrtd:argv_parsing.obj
 0001:0004ab60       ?release@?$__crt_unique_heap_ptr@PA_WU__crt_internal_free_policy@@@@QAEXXZ 1004bb60 f i libucrtd:argv_parsing.obj
 0001:0004abd0       ___acrt_allocate_buffer_for_argv 1004bbd0 f   libucrtd:argv_parsing.obj
 0001:0004ac90       __configure_narrow_argv    1004bc90 f   libucrtd:argv_parsing.obj
 0001:0004acb0       __configure_wide_argv      1004bcb0 f   libucrtd:argv_parsing.obj
 0001:0004acd0       __set_pgmptr               1004bcd0 f i libucrtd:argv_parsing.obj
 0001:0004ace0       __set_wpgmptr              1004bce0 f i libucrtd:argv_parsing.obj
 0001:0004acef       ??$?R_W@__crt_internal_free_policy@@QBEXQB_W@Z 1004bcef f i libucrtd:environment_initialization.obj
 0001:0004b158       ??$get_environment_from_os@$$V@?$__crt_char_traits@D@@SAPADXZ 1004c158 f i libucrtd:environment_initialization.obj
 0001:0004b15d       ??$get_environment_from_os@$$V@?$__crt_char_traits@_W@@SAPA_WXZ 1004c15d f i libucrtd:environment_initialization.obj
 0001:0004b286       ??$set_variable_in_environment_nolock@PADH@?$__crt_char_traits@D@@SAH$$QAPAD$$QAH@Z 1004c286 f i libucrtd:environment_initialization.obj
 0001:0004b29e       ??$set_variable_in_environment_nolock@PA_WH@?$__crt_char_traits@_W@@SAH$$QAPA_W$$QAH@Z 1004c29e f i libucrtd:environment_initialization.obj
 0001:0004b2b6       ??$tcscpy_s@PADABIAAPAD@?$__crt_char_traits@D@@SAH$$QAPADABIAAPAD@Z 1004c2b6 f i libucrtd:environment_initialization.obj
 0001:0004b2d4       ??$tcscpy_s@PA_WABIAAPA_W@?$__crt_char_traits@_W@@SAH$$QAPA_WABIAAPA_W@Z 1004c2d4 f i libucrtd:environment_initialization.obj
 0001:0004b2f2       ??$tcslen@AAPAD@?$__crt_char_traits@D@@SAIAAPAD@Z 1004c2f2 f i libucrtd:environment_initialization.obj
 0001:0004b30a       ??$tcslen@AAPA_W@?$__crt_char_traits@_W@@SAIAAPA_W@Z 1004c30a f i libucrtd:environment_initialization.obj
 0001:0004b328       ??$uninitialize@A6AXAAPAPAD@Z@?$dual_state_global@PAPAD@__crt_state_management@@QAEXA6AXAAPAPAD@Z@Z 1004c328 f i libucrtd:environment_initialization.obj
 0001:0004b351       ??$uninitialize@A6AXAAPAPA_W@Z@?$dual_state_global@PAPA_W@__crt_state_management@@QAEXA6AXAAPAPA_W@Z@Z 1004c351 f i libucrtd:environment_initialization.obj
 0001:0004b3b0       ??0?$__crt_unique_heap_ptr@_WU__crt_internal_free_policy@@@@QAE@QA_W@Z 1004c3b0 f i libucrtd:environment_initialization.obj
 0001:0004b3c0       ??1?$__crt_unique_heap_ptr@_WU__crt_internal_free_policy@@@@QAE@XZ 1004c3c0 f i libucrtd:environment_initialization.obj
 0001:0004b3d5       ??B?$__crt_unique_heap_ptr@PADU__crt_internal_free_policy@@@@QBE_NXZ 1004c3d5 f i libucrtd:environment_initialization.obj
 0001:0004b3dc       ??B?$__crt_unique_heap_ptr@PA_WU__crt_internal_free_policy@@@@QBE_NXZ 1004c3dc f i libucrtd:environment_initialization.obj
 0001:0004b3e3       ??B?$__crt_unique_heap_ptr@_WU__crt_internal_free_policy@@@@QBE_NXZ 1004c3e3 f i libucrtd:environment_initialization.obj
 0001:0004b3ea       ?__crt_compute_required_transform_buffer_count@@YAIIQBD@Z 1004c3ea f i libucrtd:environment_initialization.obj
 0001:0004b406       ?__crt_compute_required_transform_buffer_count@@YAIIQB_W@Z 1004c406 f i libucrtd:environment_initialization.obj
 0001:0004b424       ?__crt_transform_string@@YAIIQBDQA_WI@Z 1004c424 f i libucrtd:environment_initialization.obj
 0001:0004b443       ?__crt_transform_string@@YAIIQB_WQADI@Z 1004c443 f i libucrtd:environment_initialization.obj
 0001:0004b465       ?detach@?$__crt_unique_heap_ptr@DU__crt_internal_free_policy@@@@QAEPADXZ 1004c465 f i libucrtd:environment_initialization.obj
 0001:0004b46b       ?detach@?$__crt_unique_heap_ptr@_WU__crt_internal_free_policy@@@@QAEPA_WXZ 1004c46b f i libucrtd:environment_initialization.obj
 0001:0004b471       ?get@?$__crt_unique_heap_ptr@_WU__crt_internal_free_policy@@@@QBEPA_WXZ 1004c471 f i libucrtd:environment_initialization.obj
 0001:0004b498       ?initialize@?$dual_state_global@PAPAD@__crt_state_management@@QAEXQAPAD@Z 1004c498 f i libucrtd:environment_initialization.obj
 0001:0004b4be       ?initialize@?$dual_state_global@PAPA_W@__crt_state_management@@QAEXQAPA_W@Z 1004c4be f i libucrtd:environment_initialization.obj
 0001:0004b4e4       ?is_valid@?$__crt_unique_heap_ptr@PADU__crt_internal_free_policy@@@@QBE_NXZ 1004c4e4 f i libucrtd:environment_initialization.obj
 0001:0004b4eb       ?is_valid@?$__crt_unique_heap_ptr@PA_WU__crt_internal_free_policy@@@@QBE_NXZ 1004c4eb f i libucrtd:environment_initialization.obj
 0001:0004b4f2       ?is_valid@?$__crt_unique_heap_ptr@_WU__crt_internal_free_policy@@@@QBE_NXZ 1004c4f2 f i libucrtd:environment_initialization.obj
 0001:0004b501       ?release@?$__crt_unique_heap_ptr@_WU__crt_internal_free_policy@@@@QAEXXZ 1004c501 f i libucrtd:environment_initialization.obj
 0001:0004b516       ?value@?$dual_state_global@PAPAD@__crt_state_management@@QAEAAPAPADXZ 1004c516 f i libucrtd:environment_initialization.obj
 0001:0004b519       ?value@?$dual_state_global@PAPA_W@__crt_state_management@@QAEAAPAPA_WXZ 1004c519 f i libucrtd:environment_initialization.obj
 0001:0004b51c       ___dcrt_get_or_create_narrow_environment_nolock 1004c51c f   libucrtd:environment_initialization.obj
 0001:0004b521       ___dcrt_get_or_create_wide_environment_nolock 1004c521 f   libucrtd:environment_initialization.obj
 0001:0004b526       ___dcrt_uninitialize_environments_nolock 1004c526 f   libucrtd:environment_initialization.obj
 0001:0004b55d       ___p__environ              1004c55d f   libucrtd:environment_initialization.obj
 0001:0004b563       ___p__wenviron             1004c563 f   libucrtd:environment_initialization.obj
 0001:0004b569       __get_initial_narrow_environment 1004c569 f   libucrtd:environment_initialization.obj
 0001:0004b57d       __get_initial_wide_environment 1004c57d f   libucrtd:environment_initialization.obj
 0001:0004b591       __initialize_narrow_environment 1004c591 f   libucrtd:environment_initialization.obj
 0001:0004b596       __initialize_wide_environment 1004c596 f   libucrtd:environment_initialization.obj
 0001:0004b5a0       ??$?B$$A6AXXZ@__crt_fast_encoded_nullptr_t@@QBEP6AXXZXZ 1004c5a0 f i libucrtd:onexit.obj
 0001:0004b5c0       ??$?BP6AXXZ@__crt_fast_encoded_nullptr_t@@QBEPAP6AXXZXZ 1004c5c0 f i libucrtd:onexit.obj
 0001:0004b5e0       ??$?RP6AXXZ@__crt_internal_free_policy@@QBEXQBQ6AXXZ@Z 1004c5e0 f i libucrtd:onexit.obj
 0001:0004b7a0       ??$__crt_fast_decode_pointer@P6AXXZ@@YAP6AXXZQ6AXXZ@Z 1004c7a0 f i libucrtd:onexit.obj
 0001:0004b7d0       ??$__crt_fast_decode_pointer@PAP6AXXZ@@YAPAP6AXXZQAP6AXXZ@Z 1004c7d0 f i libucrtd:onexit.obj
 0001:0004b800       ??$__crt_fast_encode_pointer@P6AHXZ@@YAP6AHXZQ6AHXZ@Z 1004c800 f i libucrtd:onexit.obj
 0001:0004b830       ??$__crt_fast_encode_pointer@P6AXXZ@@YAP6AXXZQ6AXXZ@Z 1004c830 f i libucrtd:onexit.obj
 0001:0004b860       ??$__crt_fast_encode_pointer@PAP6AXXZ@@YAPAP6AXXZQAP6AXXZ@Z 1004c860 f i libucrtd:onexit.obj
 0001:0004b960       ??0?$__crt_unique_heap_ptr@P6AXXZU__crt_internal_free_policy@@@@QAE@QAP6AXXZ@Z 1004c960 f i libucrtd:onexit.obj
 0001:0004b980       ??1?$__crt_unique_heap_ptr@P6AXXZU__crt_internal_free_policy@@@@QAE@XZ 1004c980 f i libucrtd:onexit.obj
 0001:0004b9a0       ??1scoped_global_state_reset@__crt_state_management@@QAE@XZ 1004c9a0 f i libucrtd:onexit.obj
 0001:0004be10       ?detach@?$__crt_unique_heap_ptr@P6AXXZU__crt_internal_free_policy@@@@QAEPAP6AXXZXZ 1004ce10 f i libucrtd:onexit.obj
 0001:0004be40       ?release@?$__crt_unique_heap_ptr@P6AXXZU__crt_internal_free_policy@@@@QAEXXZ 1004ce40 f i libucrtd:onexit.obj
 0001:0004be70       __crt_at_quick_exit        1004ce70 f   libucrtd:onexit.obj
 0001:0004be90       __crt_atexit               1004ce90 f   libucrtd:onexit.obj
 0001:0004beb0       __execute_onexit_table     1004ceb0 f   libucrtd:onexit.obj
 0001:0004bee0       __initialize_onexit_table  1004cee0 f   libucrtd:onexit.obj
 0001:0004bf40       __register_onexit_function 1004cf40 f   libucrtd:onexit.obj
 0001:0004c180       ??$?BX@__crt_fast_encoded_nullptr_t@@QBEPAXXZ 1004d180 f i libucrtd:initialization.obj
 0001:0004c1a0       ??$__crt_fast_encode_pointer@PAX@@YAPAXQAX@Z 1004d1a0 f i libucrtd:initialization.obj
 0001:0004c260       ?initialize@?$dual_state_global@PAU__crt_locale_data@@@__crt_state_management@@QAEXQAU__crt_locale_data@@@Z 1004d260 f i libucrtd:initialization.obj
 0001:0004c2a0       ___acrt_initialize         1004d2a0 f   libucrtd:initialization.obj
 0001:0004c2c0       ___acrt_thread_attach      1004d2c0 f   libucrtd:initialization.obj
 0001:0004c2e0       ___acrt_thread_detach      1004d2e0 f   libucrtd:initialization.obj
 0001:0004c2f0       ___acrt_uninitialize       1004d2f0 f   libucrtd:initialization.obj
 0001:0004c310       ___acrt_uninitialize_critical 1004d310 f   libucrtd:initialization.obj
 0001:0004db80       __CrtCheckMemory           1004eb80 f   libucrtd:debug_heap.obj
 0001:0004dd10       __CrtDoForAllClientObjects 1004ed10 f   libucrtd:debug_heap.obj
 0001:0004de60       __CrtDumpMemoryLeaks       1004ee60 f   libucrtd:debug_heap.obj
 0001:0004df00       __CrtGetAllocHook          1004ef00 f   libucrtd:debug_heap.obj
 0001:0004df10       __CrtGetDumpClient         1004ef10 f   libucrtd:debug_heap.obj
 0001:0004df20       __CrtIsMemoryBlock         1004ef20 f   libucrtd:debug_heap.obj
 0001:0004e070       __CrtIsValidHeapPointer    1004f070 f   libucrtd:debug_heap.obj
 0001:0004e0a0       __CrtIsValidPointer        1004f0a0 f   libucrtd:debug_heap.obj
 0001:0004e0d0       __CrtMemCheckpoint         1004f0d0 f   libucrtd:debug_heap.obj
 0001:0004e300       __CrtMemDifference         1004f300 f   libucrtd:debug_heap.obj
 0001:0004e570       __CrtMemDumpAllObjectsSince 1004f570 f   libucrtd:debug_heap.obj
 0001:0004e610       __CrtMemDumpStatistics     1004f610 f   libucrtd:debug_heap.obj
 0001:0004e740       __CrtReportBlockType       1004f740 f   libucrtd:debug_heap.obj
 0001:0004e770       __CrtSetAllocHook          1004f770 f   libucrtd:debug_heap.obj
 0001:0004e790       __CrtSetBreakAlloc         1004f790 f   libucrtd:debug_heap.obj
 0001:0004e7b0       __CrtSetDbgBlockType       1004f7b0 f   libucrtd:debug_heap.obj
 0001:0004e890       __CrtSetDbgFlag            1004f890 f   libucrtd:debug_heap.obj
 0001:0004ea00       __CrtSetDumpClient         1004fa00 f   libucrtd:debug_heap.obj
 0001:0004ea20       ___acrt_get_locale_data_prefix 1004fa20 f i libucrtd:debug_heap.obj
 0001:0004ea40       ___p__crtBreakAlloc        1004fa40 f   libucrtd:debug_heap.obj
 0001:0004ea50       ___p__crtDbgFlag           1004fa50 f   libucrtd:debug_heap.obj
 0001:0004ea60       __aligned_free_dbg         1004fa60 f   libucrtd:debug_heap.obj
 0001:0004eb10       __aligned_malloc_dbg       1004fb10 f   libucrtd:debug_heap.obj
 0001:0004eb40       __aligned_msize_dbg        1004fb40 f   libucrtd:debug_heap.obj
 0001:0004ec70       __aligned_offset_malloc_dbg 1004fc70 f   libucrtd:debug_heap.obj
 0001:0004ee50       __aligned_offset_realloc_dbg 1004fe50 f   libucrtd:debug_heap.obj
 0001:0004f160       __aligned_offset_recalloc_dbg 10050160 f   libucrtd:debug_heap.obj
 0001:0004f220       __aligned_realloc_dbg      10050220 f   libucrtd:debug_heap.obj
 0001:0004f250       __aligned_recalloc_dbg     10050250 f   libucrtd:debug_heap.obj
 0001:0004f280       __calloc_dbg               10050280 f   libucrtd:debug_heap.obj
 0001:0004f2f0       __chvalidchk_l             100502f0 f i libucrtd:debug_heap.obj
 0001:0004f310       __expand_dbg               10050310 f   libucrtd:debug_heap.obj
 0001:0004f440       __free_dbg                 10050440 f   libucrtd:debug_heap.obj
 0001:0004f4f0       __ischartype_l             100504f0 f i libucrtd:debug_heap.obj
 0001:0004f570       __malloc_dbg               10050570 f   libucrtd:debug_heap.obj
 0001:0004f590       __msize_dbg                10050590 f   libucrtd:debug_heap.obj
 0001:0004f720       __realloc_dbg              10050720 f   libucrtd:debug_heap.obj
 0001:0004f7c0       __recalloc_dbg             100507c0 f   libucrtd:debug_heap.obj
 0001:0004f870       __initterm                 10050870 f   libucrtd:initterm.obj
 0001:0004f8c0       __initterm_e               100508c0 f   libucrtd:initterm.obj
 0001:0004f950       __get_terminate            10050950 f   libucrtd:terminate.obj
 0001:0004f970       _set_terminate             10050970 f   libucrtd:terminate.obj
 0001:0004f9a0       _terminate                 100509a0 f   libucrtd:terminate.obj
 0001:0004fd40       _strcpy_s                  10050d40 f   libucrtd:strcpy_s.obj
 0001:00050170       _strcat_s                  10051170 f   libucrtd:strcat_s.obj
 0001:00050ad0       __makepath                 10051ad0 f   libucrtd:makepath.obj
 0001:00050b00       __makepath_s               10051b00 f   libucrtd:makepath.obj
 0001:00050b30       __wmakepath                10051b30 f   libucrtd:makepath.obj
 0001:00050b60       __wmakepath_s              10051b60 f   libucrtd:makepath.obj
 0001:000524b0       ??$tcsncpy_s@AAPADIAAPBDABI@?$__crt_char_traits@D@@SAHAAPAD$$QAIAAPBDABI@Z 100534b0 f i libucrtd:splitpath.obj
 0001:000524e0       ??$tcsncpy_s@AAPADIAAPBDH@?$__crt_char_traits@D@@SAHAAPAD$$QAIAAPBD$$QAH@Z 100534e0 f i libucrtd:splitpath.obj
 0001:00052510       ??$tcsncpy_s@AAPA_WIAAPB_WABI@?$__crt_char_traits@_W@@SAHAAPA_W$$QAIAAPB_WABI@Z 10053510 f i libucrtd:splitpath.obj
 0001:00052540       ??$tcsncpy_s@AAPA_WIAAPB_WH@?$__crt_char_traits@_W@@SAHAAPA_W$$QAIAAPB_W$$QAH@Z 10053540 f i libucrtd:splitpath.obj
 0001:00052780       __splitpath                10053780 f   libucrtd:splitpath.obj
 0001:000527b0       __splitpath_s              100537b0 f   libucrtd:splitpath.obj
 0001:00052800       __wsplitpath               10053800 f   libucrtd:splitpath.obj
 0001:00052830       __wsplitpath_s             10053830 f   libucrtd:splitpath.obj
 0001:00052880       ??$?B$$A6AHI@Z@__crt_fast_encoded_nullptr_t@@QBEP6AHI@ZXZ 10053880 f i libucrtd:new_handler.obj
 0001:000528a0       ??$__crt_fast_decode_pointer@P6AHI@Z@@YAP6AHI@ZQ6AHI@Z@Z 100538a0 f i libucrtd:new_handler.obj
 0001:000528d0       ??$__crt_fast_encode_pointer@P6AHI@Z@@YAP6AHI@ZQ6AHI@Z@Z 100538d0 f i libucrtd:new_handler.obj
 0001:00052900       ?_set_new_handler@@YAP6AHI@ZH@Z 10053900 f   libucrtd:new_handler.obj
 0001:00052960       ?initialize@?$dual_state_global@P6AHI@Z@__crt_state_management@@QAEXQ6AHI@Z@Z 10053960 f i libucrtd:new_handler.obj
 0001:000529a0       ?value@?$dual_state_global@P6AHI@Z@__crt_state_management@@QAEAAP6AHI@ZXZ 100539a0 f i libucrtd:new_handler.obj
 0001:000529c0       ___acrt_initialize_new_handler 100539c0 f   libucrtd:new_handler.obj
 0001:000529e0       __callnewh                 100539e0 f   libucrtd:new_handler.obj
 0001:00052a20       __query_new_handler        10053a20 f   libucrtd:new_handler.obj
 0001:00052ab0       __set_new_handler          10053ab0 f   libucrtd:new_handler.obj
 0001:00052b60       _strcmp                    10053b60 f   libucrtd:strcmp.obj
 0001:00052bf0       _strlen                    10053bf0 f   libucrtd:strlen.obj
 0001:00052c80       __set_abort_behavior       10053c80 f   libucrtd:abort.obj
 0001:00052cb0       _abort                     10053cb0 f   libucrtd:abort.obj
 0001:00052d20       ??$is_overflow_condition@K@__crt_strtox@@YA_NIK@Z 10053d20 f i libucrtd:atox.obj
 0001:00052d80       ??$is_overflow_condition@_K@__crt_strtox@@YA_NI_K@Z 10053d80 f i libucrtd:atox.obj
 0001:00052e10       ??$make_c_string_character_source@D$$T@__crt_strtox@@YA?AV?$c_string_character_source@D@0@QBD$$T@Z 10053e10 f i libucrtd:atox.obj
 0001:00052e30       ??$make_c_string_character_source@_W$$T@__crt_strtox@@YA?AV?$c_string_character_source@_W@0@QB_W$$T@Z 10053e30 f i libucrtd:atox.obj
 0001:00052e50       ??$parse_integer@KV?$c_string_character_source@D@__crt_strtox@@@__crt_strtox@@YAKQAU__crt_locale_pointers@@V?$c_string_character_source@D@0@H_N@Z 10053e50 f i libucrtd:atox.obj
 0001:000531c0       ??$parse_integer@KV?$c_string_character_source@_W@__crt_strtox@@@__crt_strtox@@YAKQAU__crt_locale_pointers@@V?$c_string_character_source@_W@0@H_N@Z 100541c0 f i libucrtd:atox.obj
 0001:00053530       ??$parse_integer@_KV?$c_string_character_source@D@__crt_strtox@@@__crt_strtox@@YA_KQAU__crt_locale_pointers@@V?$c_string_character_source@D@0@H_N@Z 10054530 f i libucrtd:atox.obj
 0001:00053950       ??$parse_integer@_KV?$c_string_character_source@_W@__crt_strtox@@@__crt_strtox@@YA_KQAU__crt_locale_pointers@@V?$c_string_character_source@_W@0@H_N@Z 10054950 f i libucrtd:atox.obj
 0001:00053d80       ??$parse_integer_from_string@JD$$T@__crt_strtox@@YAJQBD$$THQAU__crt_locale_pointers@@@Z 10054d80 f i libucrtd:atox.obj
 0001:00053dc0       ??$parse_integer_from_string@J_W$$T@__crt_strtox@@YAJQB_W$$THQAU__crt_locale_pointers@@@Z 10054dc0 f i libucrtd:atox.obj
 0001:00053e00       ??$parse_integer_from_string@_JD$$T@__crt_strtox@@YA_JQBD$$THQAU__crt_locale_pointers@@@Z 10054e00 f i libucrtd:atox.obj
 0001:00053e40       ??$parse_integer_from_string@_J_W$$T@__crt_strtox@@YA_JQB_W$$THQAU__crt_locale_pointers@@@Z 10054e40 f i libucrtd:atox.obj
 0001:00053e80       ??0?$c_string_character_source@D@__crt_strtox@@QAE@QBDQAPBD@Z 10054e80 f i libucrtd:atox.obj
 0001:00053ec0       ??0?$c_string_character_source@_W@__crt_strtox@@QAE@QB_WQAPB_W@Z 10054ec0 f i libucrtd:atox.obj
 0001:00053f00       ??1?$c_string_character_source@D@__crt_strtox@@QAE@XZ 10054f00 f i libucrtd:atox.obj
 0001:00053f30       ??1?$c_string_character_source@_W@__crt_strtox@@QAE@XZ 10054f30 f i libucrtd:atox.obj
 0001:00053f60       ?get@?$c_string_character_source@D@__crt_strtox@@QAEDXZ 10054f60 f i libucrtd:atox.obj
 0001:00053f90       ?get@?$c_string_character_source@_W@__crt_strtox@@QAE_WXZ 10054f90 f i libucrtd:atox.obj
 0001:00053fc0       ?is_space@__crt_strtox@@YA_NDQAU__crt_locale_pointers@@@Z 10054fc0 f i libucrtd:atox.obj
 0001:00054000       ?is_space@__crt_strtox@@YA_N_WPAU__crt_locale_pointers@@@Z 10055000 f i libucrtd:atox.obj
 0001:00054030       ?maximum_signed_value@__crt_strtox@@YAJK@Z 10055030 f i libucrtd:atox.obj
 0001:00054040       ?maximum_signed_value@__crt_strtox@@YA_J_K@Z 10055040 f i libucrtd:atox.obj
 0001:00054050       ?minimum_signed_value@__crt_strtox@@YAJK@Z 10055050 f i libucrtd:atox.obj
 0001:00054060       ?minimum_signed_value@__crt_strtox@@YA_J_K@Z 10055060 f i libucrtd:atox.obj
 0001:00054070       ?parse_digit@__crt_strtox@@YAID@Z 10055070 f i libucrtd:atox.obj
 0001:000540d0       ?parse_digit@__crt_strtox@@YAI_W@Z 100550d0 f i libucrtd:atox.obj
 0001:00054120       ?restore_state@?$c_string_character_source@D@__crt_strtox@@QAE_NQBD@Z 10055120 f i libucrtd:atox.obj
 0001:00054140       ?restore_state@?$c_string_character_source@_W@__crt_strtox@@QAE_NQB_W@Z 10055140 f i libucrtd:atox.obj
 0001:00054160       ?save_state@?$c_string_character_source@D@__crt_strtox@@QBEPBDXZ 10055160 f i libucrtd:atox.obj
 0001:00054180       ?save_state@?$c_string_character_source@_W@__crt_strtox@@QBEPB_WXZ 10055180 f i libucrtd:atox.obj
 0001:000541a0       ?unget@?$c_string_character_source@D@__crt_strtox@@QAEXD@Z 100551a0 f i libucrtd:atox.obj
 0001:00054250       ?unget@?$c_string_character_source@_W@__crt_strtox@@QAEX_W@Z 10055250 f i libucrtd:atox.obj
 0001:00054300       ?validate@?$c_string_character_source@D@__crt_strtox@@QBE_NXZ 10055300 f i libucrtd:atox.obj
 0001:00054390       ?validate@?$c_string_character_source@_W@__crt_strtox@@QBE_NXZ 10055390 f i libucrtd:atox.obj
 0001:00054420       ?wide_character_to_digit@__crt_strtox@@YAH_W@Z 10055420 f i libucrtd:atox.obj
 0001:00054750       ___ascii_iswalpha          10055750 f i libucrtd:atox.obj
 0001:00054790       ___ascii_toupper           10055790 f i libucrtd:atox.obj
 0001:000547b0       ___ascii_towupper          100557b0 f i libucrtd:atox.obj
 0001:000547d0       __atoi64                   100557d0 f   libucrtd:atox.obj
 0001:000547f0       __atoi64_l                 100557f0 f   libucrtd:atox.obj
 0001:00054810       __atoi_l                   10055810 f   libucrtd:atox.obj
 0001:00054830       __atol_l                   10055830 f   libucrtd:atox.obj
 0001:00054850       __atoll_l                  10055850 f   libucrtd:atox.obj
 0001:00054870       __wtoi                     10055870 f   libucrtd:atox.obj
 0001:00054890       __wtoi64                   10055890 f   libucrtd:atox.obj
 0001:000548b0       __wtoi64_l                 100558b0 f   libucrtd:atox.obj
 0001:000548d0       __wtoi_l                   100558d0 f   libucrtd:atox.obj
 0001:000548f0       __wtol                     100558f0 f   libucrtd:atox.obj
 0001:00054910       __wtol_l                   10055910 f   libucrtd:atox.obj
 0001:00054930       __wtoll                    10055930 f   libucrtd:atox.obj
 0001:00054950       __wtoll_l                  10055950 f   libucrtd:atox.obj
 0001:00054970       _atoi                      10055970 f   libucrtd:atox.obj
 0001:00054990       _atol                      10055990 f   libucrtd:atox.obj
 0001:000549b0       _atoll                     100559b0 f   libucrtd:atox.obj
 0001:000549d0       _strncmp                   100559d0 f   libucrtd:strncmp.obj
 0001:00054a50       _wcsncmp                   10055a50 f   libucrtd:wcsncmp.obj
 0001:00054ab0       __CrtGetReportHook         10055ab0 f   libucrtd:dbgrptt.obj
 0001:00054ac0       __CrtSetReportFile         10055ac0 f   libucrtd:dbgrptt.obj
 0001:00054bc0       __CrtSetReportHook         10055bc0 f   libucrtd:dbgrptt.obj
 0001:00054be0       __CrtSetReportMode         10055be0 f   libucrtd:dbgrptt.obj
 0001:00054d20       __VCrtDbgReportA           10055d20 f   libucrtd:dbgrptt.obj
 0001:000555a0       __VCrtDbgReportW           100565a0 f   libucrtd:dbgrptt.obj
 0001:00055f50       __snprintf_s               10056f50 f i libucrtd:dbgrptt.obj
 0001:00055f90       __vsnprintf_s              10056f90 f i libucrtd:dbgrptt.obj
 0001:00055fc0       __vsnprintf_s_l            10056fc0 f i libucrtd:dbgrptt.obj
 0001:00056150       ??$__acrt_wcs_to_mbs_cp@U__crt_win32_buffer_no_resizing@@@@YAHQB_WAAV?$__crt_win32_buffer@DU__crt_win32_buffer_no_resizing@@@@I@Z 10057150 f i libucrtd:getmodulefilenamea.obj
 0001:00056180       ??0?$__crt_win32_buffer@DU__crt_win32_buffer_no_resizing@@@@QAE@QADI@Z 10057180 f i libucrtd:getmodulefilenamea.obj
 0001:000561d0       ??1?$__crt_win32_buffer@DU__crt_win32_buffer_no_resizing@@@@QAE@XZ 100571d0 f i libucrtd:getmodulefilenamea.obj
 0001:00056240       ?__acrt_get_utf8_acp_compatibility_codepage@@YAIXZ 10057240 f i libucrtd:getmodulefilenamea.obj
 0001:000562d0       ?_deallocate@?$__crt_win32_buffer@DU__crt_win32_buffer_no_resizing@@@@AAEXXZ 100572d0 f i libucrtd:getmodulefilenamea.obj
 0001:00056310       ?allocate@?$__crt_win32_buffer@DU__crt_win32_buffer_no_resizing@@@@QAEHI@Z 10057310 f i libucrtd:getmodulefilenamea.obj
 0001:00056380       ?allocate@__crt_win32_buffer_no_resizing@@SAHQAPAXIABV__crt_win32_buffer_empty_debug_info@@@Z 10057380 f i libucrtd:getmodulefilenamea.obj
 0001:000563a0       ?capacity@?$__crt_win32_buffer@DU__crt_win32_buffer_no_resizing@@@@QBEIXZ 100573a0 f i libucrtd:getmodulefilenamea.obj
 0001:000563c0       ?data@?$__crt_win32_buffer@DU__crt_win32_buffer_no_resizing@@@@QAEPADXZ 100573c0 f i libucrtd:getmodulefilenamea.obj
 0001:000563e0       ?deallocate@__crt_win32_buffer_no_resizing@@SAXQAXABV__crt_win32_buffer_empty_debug_info@@@Z 100573e0 f i libucrtd:getmodulefilenamea.obj
 0001:000563f0       ?debug_info@?$__crt_win32_buffer@DU__crt_win32_buffer_no_resizing@@@@QBEABV__crt_win32_buffer_empty_debug_info@@XZ 100573f0 f i libucrtd:getmodulefilenamea.obj
 0001:00056400       ?set_to_nullptr@?$__crt_win32_buffer@DU__crt_win32_buffer_no_resizing@@@@QAEXXZ 10057400 f i libucrtd:getmodulefilenamea.obj
 0001:00056440       ?size@?$__crt_win32_buffer@DU__crt_win32_buffer_no_resizing@@@@QAEXI@Z 10057440 f i libucrtd:getmodulefilenamea.obj
 0001:00056460       ?size@?$__crt_win32_buffer@DU__crt_win32_buffer_no_resizing@@@@QBEIXZ 10057460 f i libucrtd:getmodulefilenamea.obj
 0001:00056480       ___acrt_GetModuleFileNameA 10057480 f   libucrtd:getmodulefilenamea.obj
 0001:00056760       ??$message_box@$$TABQBDABQBDK@?$__crt_char_traits@D@@SAH$$QA$$TABQBD1$$QAK@Z 10057760 f i libucrtd:crtmbox.obj
 0001:00056790       ??$message_box@$$TABQB_WABQB_WK@?$__crt_char_traits@_W@@SAH$$QA$$TABQB_W1$$QAK@Z 10057790 f i libucrtd:crtmbox.obj
 0001:000567c0       ??$message_box@PAUHWND__@@ABQBDABQBDABI@?$__crt_char_traits@D@@SAH$$QAPAUHWND__@@ABQBD1ABI@Z 100577c0 f i libucrtd:crtmbox.obj
 0001:000567f0       ??$message_box@PAUHWND__@@ABQB_WABQB_WABI@?$__crt_char_traits@_W@@SAH$$QAPAUHWND__@@ABQB_W1ABI@Z 100577f0 f i libucrtd:crtmbox.obj
 0001:00056820       ??$output_debug_string@ABQBD@?$__crt_char_traits@D@@SAXABQBD@Z 10057820 f i libucrtd:crtmbox.obj
 0001:00056840       ??$output_debug_string@ABQB_W@?$__crt_char_traits@_W@@SAXABQB_W@Z 10057840 f i libucrtd:crtmbox.obj
 0001:00056860       ___acrt_show_narrow_message_box 10057860 f   libucrtd:crtmbox.obj
 0001:00056880       ___acrt_show_wide_message_box 10057880 f   libucrtd:crtmbox.obj
 0001:000568a0       ___acrt_initialize_locks   100578a0 f   libucrtd:locks.obj
 0001:00056900       ___acrt_lock               10057900 f   libucrtd:locks.obj
 0001:00056920       ___acrt_uninitialize_locks 10057920 f   libucrtd:locks.obj
 0001:00056970       ___acrt_unlock             10057970 f   libucrtd:locks.obj
 0001:00056990       __lock_locales             10057990 f   libucrtd:locks.obj
 0001:000569b0       __unlock_locales           100579b0 f   libucrtd:locks.obj
 0001:000569d0       ??$?B$$A6AXH@Z@__crt_fast_encoded_nullptr_t@@QBEP6AXH@ZXZ 100579d0 f i libucrtd:signal.obj
 0001:00056ac0       ??$__crt_fast_decode_pointer@P6AXH@Z@@YAP6AXH@ZQ6AXH@Z@Z 10057ac0 f i libucrtd:signal.obj
 0001:00056af0       ??$__crt_fast_encode_pointer@P6AXH@Z@@YAP6AXH@ZQ6AXH@Z@Z 10057af0 f i libucrtd:signal.obj
 0001:00056da0       ?initialize@?$dual_state_global@P6AXH@Z@__crt_state_management@@QAEXQ6AXH@Z@Z 10057da0 f i libucrtd:signal.obj
 0001:00056ee0       ?value@?$dual_state_global@P6AXH@Z@__crt_state_management@@QAEAAP6AXH@ZXZ 10057ee0 f i libucrtd:signal.obj
 0001:00056f00       ___acrt_get_sigabrt_handler 10057f00 f   libucrtd:signal.obj
 0001:00056f20       ___acrt_initialize_signal_handlers 10057f20 f   libucrtd:signal.obj
 0001:00056f60       ___fpecode                 10057f60 f   libucrtd:signal.obj
 0001:00056f70       ___pxcptinfoptrs           10057f70 f   libucrtd:signal.obj
 0001:00056f80       _raise                     10057f80 f   libucrtd:signal.obj
 0001:00057350       _signal                    10058350 f   libucrtd:signal.obj
 0001:000575d0       __CrtGetDebugFillThreshold 100585d0 f   libucrtd:debug_fill_threshold.obj
 0001:000575e0       __CrtSetDebugFillThreshold 100585e0 f   libucrtd:debug_fill_threshold.obj
 0001:00057600       ??$make_c_string_character_source@DPAPAD@__crt_strtox@@YA?AV?$c_string_character_source@D@0@QBDQAPAD@Z 10058600 f i libucrtd:strtox.obj
 0001:00057620       ??$make_c_string_character_source@_WPAPA_W@__crt_strtox@@YA?AV?$c_string_character_source@_W@0@QB_WQAPA_W@Z 10058620 f i libucrtd:strtox.obj
 0001:00057640       ??$parse_integer_from_string@JDPAPAD@__crt_strtox@@YAJQBDQAPADHQAU__crt_locale_pointers@@@Z 10058640 f i libucrtd:strtox.obj
 0001:00057680       ??$parse_integer_from_string@J_WPAPA_W@__crt_strtox@@YAJQB_WQAPA_WHQAU__crt_locale_pointers@@@Z 10058680 f i libucrtd:strtox.obj
 0001:000576c0       ??$parse_integer_from_string@KDPAPAD@__crt_strtox@@YAKQBDQAPADHQAU__crt_locale_pointers@@@Z 100586c0 f i libucrtd:strtox.obj
 0001:00057700       ??$parse_integer_from_string@K_WPAPA_W@__crt_strtox@@YAKQB_WQAPA_WHQAU__crt_locale_pointers@@@Z 10058700 f i libucrtd:strtox.obj
 0001:00057740       ??$parse_integer_from_string@_JDPAPAD@__crt_strtox@@YA_JQBDQAPADHQAU__crt_locale_pointers@@@Z 10058740 f i libucrtd:strtox.obj
 0001:00057780       ??$parse_integer_from_string@_J_WPAPA_W@__crt_strtox@@YA_JQB_WQAPA_WHQAU__crt_locale_pointers@@@Z 10058780 f i libucrtd:strtox.obj
 0001:000577c0       ??$parse_integer_from_string@_KDPAPAD@__crt_strtox@@YA_KQBDQAPADHQAU__crt_locale_pointers@@@Z 100587c0 f i libucrtd:strtox.obj
 0001:00057800       ??$parse_integer_from_string@_K_WPAPA_W@__crt_strtox@@YA_KQB_WQAPA_WHQAU__crt_locale_pointers@@@Z 10058800 f i libucrtd:strtox.obj
 0001:00057840       __strtoi64                 10058840 f   libucrtd:strtox.obj
 0001:00057860       __strtoi64_l               10058860 f   libucrtd:strtox.obj
 0001:00057880       __strtoimax_l              10058880 f   libucrtd:strtox.obj
 0001:000578a0       __strtol_l                 100588a0 f   libucrtd:strtox.obj
 0001:000578c0       __strtoll_l                100588c0 f   libucrtd:strtox.obj
 0001:000578e0       __strtoui64                100588e0 f   libucrtd:strtox.obj
 0001:00057900       __strtoui64_l              10058900 f   libucrtd:strtox.obj
 0001:00057920       __strtoul_l                10058920 f   libucrtd:strtox.obj
 0001:00057940       __strtoull_l               10058940 f   libucrtd:strtox.obj
 0001:00057960       __strtoumax_l              10058960 f   libucrtd:strtox.obj
 0001:00057980       __wcstoi64                 10058980 f   libucrtd:strtox.obj
 0001:000579a0       __wcstoi64_l               100589a0 f   libucrtd:strtox.obj
 0001:000579c0       __wcstoimax_l              100589c0 f   libucrtd:strtox.obj
 0001:000579e0       __wcstol_l                 100589e0 f   libucrtd:strtox.obj
 0001:00057a00       __wcstoll_l                10058a00 f   libucrtd:strtox.obj
 0001:00057a20       __wcstoui64                10058a20 f   libucrtd:strtox.obj
 0001:00057a40       __wcstoui64_l              10058a40 f   libucrtd:strtox.obj
 0001:00057a60       __wcstoul_l                10058a60 f   libucrtd:strtox.obj
 0001:00057a80       __wcstoull_l               10058a80 f   libucrtd:strtox.obj
 0001:00057aa0       __wcstoumax_l              10058aa0 f   libucrtd:strtox.obj
 0001:00057ac0       _strtoimax                 10058ac0 f   libucrtd:strtox.obj
 0001:00057ae0       _strtol                    10058ae0 f   libucrtd:strtox.obj
 0001:00057b00       _strtoll                   10058b00 f   libucrtd:strtox.obj
 0001:00057b20       _strtoul                   10058b20 f   libucrtd:strtox.obj
 0001:00057b40       _strtoull                  10058b40 f   libucrtd:strtox.obj
 0001:00057b60       _strtoumax                 10058b60 f   libucrtd:strtox.obj
 0001:00057b80       _wcstoimax                 10058b80 f   libucrtd:strtox.obj
 0001:00057ba0       _wcstol                    10058ba0 f   libucrtd:strtox.obj
 0001:00057bc0       _wcstoll                   10058bc0 f   libucrtd:strtox.obj
 0001:00057be0       _wcstoul                   10058be0 f   libucrtd:strtox.obj
 0001:00057c00       _wcstoull                  10058c00 f   libucrtd:strtox.obj
 0001:00057c20       _wcstoumax                 10058c20 f   libucrtd:strtox.obj
 0001:00057c40       __mbtowc_l                 10058c40 f   libucrtd:mbtowc.obj
 0001:00057f60       _mbtowc                    10058f60 f   libucrtd:mbtowc.obj
 0001:00057f80       __wctomb_l                 10058f80 f   libucrtd:wctomb.obj
 0001:00058000       __wctomb_s_l               10059000 f   libucrtd:wctomb.obj
 0001:000583c0       _wctomb                    100593c0 f   libucrtd:wctomb.obj
 0001:00058410       _wctomb_s                  10059410 f   libucrtd:wctomb.obj
 0001:00058440       ??$?RU__acrt_ptd@@@__crt_internal_free_policy@@QBEXQBU__acrt_ptd@@@Z 10059440 f i libucrtd:per_thread_data.obj
 0001:000588f0       ??0?$__crt_unique_heap_ptr@U__acrt_ptd@@U__crt_internal_free_policy@@@@QAE@QAU__acrt_ptd@@@Z 100598f0 f i libucrtd:per_thread_data.obj
 0001:00058910       ??0__crt_scoped_get_last_error_reset@@QAE@XZ 10059910 f i libucrtd:per_thread_data.obj
 0001:00058930       ??1?$__crt_unique_heap_ptr@U__acrt_ptd@@U__crt_internal_free_policy@@@@QAE@XZ 10059930 f i libucrtd:per_thread_data.obj
 0001:00058950       ??1__crt_scoped_get_last_error_reset@@QAE@XZ 10059950 f i libucrtd:per_thread_data.obj
 0001:00058970       ??B?$__crt_unique_heap_ptr@U__acrt_ptd@@U__crt_internal_free_policy@@@@QBE_NXZ 10059970 f i libucrtd:per_thread_data.obj
 0001:00058c50       ?dangerous_get_state_array@?$dual_state_global@PAU__crt_locale_data@@@__crt_state_management@@QAEPAPAU__crt_locale_data@@XZ 10059c50 f i libucrtd:per_thread_data.obj
 0001:00058dd0       ?detach@?$__crt_unique_heap_ptr@U__acrt_ptd@@U__crt_internal_free_policy@@@@QAEPAU__acrt_ptd@@XZ 10059dd0 f i libucrtd:per_thread_data.obj
 0001:00058e00       ?get@?$__crt_unique_heap_ptr@U__acrt_ptd@@U__crt_internal_free_policy@@@@QBEPAU__acrt_ptd@@XZ 10059e00 f i libucrtd:per_thread_data.obj
 0001:00058e20       ?get_current_state_index@__crt_state_management@@YAIABV__crt_scoped_get_last_error_reset@@@Z 10059e20 f i libucrtd:per_thread_data.obj
 0001:00058f90       ?is_valid@?$__crt_unique_heap_ptr@U__acrt_ptd@@U__crt_internal_free_policy@@@@QBE_NXZ 10059f90 f i libucrtd:per_thread_data.obj
 0001:00058fc0       ?release@?$__crt_unique_heap_ptr@U__acrt_ptd@@U__crt_internal_free_policy@@@@QAEXXZ 10059fc0 f i libucrtd:per_thread_data.obj
 0001:000590b0       ?value@?$dual_state_global@PAU__crt_locale_data@@@__crt_state_management@@QAEAAPAU__crt_locale_data@@XZ 1005a0b0 f i libucrtd:per_thread_data.obj
 0001:000590d0       ___acrt_freeptd            1005a0d0 f   libucrtd:per_thread_data.obj
 0001:00059100       ___acrt_getptd             1005a100 f   libucrtd:per_thread_data.obj
 0001:00059120       ___acrt_getptd_head        1005a120 f   libucrtd:per_thread_data.obj
 0001:00059140       ___acrt_getptd_noexit      1005a140 f   libucrtd:per_thread_data.obj
 0001:00059150       ___acrt_initialize_ptd     1005a150 f   libucrtd:per_thread_data.obj
 0001:00059190       ___acrt_uninitialize_ptd   1005a190 f   libucrtd:per_thread_data.obj
 0001:000591c0       ___threadhandle            1005a1c0 f   libucrtd:per_thread_data.obj
 0001:000591d0       ___threadid                1005a1d0 f   libucrtd:per_thread_data.obj
 0001:000591e0       ?value@?$dual_state_global@PAU__crt_multibyte_data@@@__crt_state_management@@QAEAAPAU__crt_multibyte_data@@XZ 1005a1e0 f i libucrtd:locale_update.obj
 0001:00059200       ___acrt_update_locale_info 1005a200 f   libucrtd:locale_update.obj
 0001:00059240       ___acrt_update_multibyte_info 1005a240 f   libucrtd:locale_update.obj
 0001:00059280       ?__acrt_fp_classify@@YA?AW4__acrt_fp_class@@ABN@Z 1005a280 f i libucrtd:cvt.obj
 0001:000593a0       ?__acrt_fp_is_negative@@YA_NABN@Z 1005a3a0 f i libucrtd:cvt.obj
 0001:0005a3f0       ?strrchr@@YAPADQADH@Z      1005b3f0 f i libucrtd:cvt.obj
 0001:0005a410       ___acrt_fp_format          1005b410 f   libucrtd:cvt.obj
 0001:0005a8a0       __fputwc_nolock            1005b8a0 f   libucrtd:fputwc.obj
 0001:0005aa90       __fputwchar                1005ba90 f   libucrtd:fputwc.obj
 0001:0005aab0       __putwc_nolock             1005bab0 f   libucrtd:fputwc.obj
 0001:0005aad0       _fputwc                    1005bad0 f   libucrtd:fputwc.obj
 0001:0005abe0       _putwc                     1005bbe0 f   libucrtd:fputwc.obj
 0001:0005ac00       _putwchar                  1005bc00 f   libucrtd:fputwc.obj
 0001:0005ac20       ?lowio_handle@__crt_stdio_stream@@QBEHXZ 1005bc20 f i libucrtd:fileno.obj
 0001:0005ac40       __fileno                   1005bc40 f   libucrtd:fileno.obj
 0001:0005ace0       ??$?RPAU__crt_stdio_stream_data@@@__crt_internal_free_policy@@QBEXQBQAU__crt_stdio_stream_data@@@Z 1005bce0 f i libucrtd:_file.obj
 0001:0005ad00       ??0?$__crt_unique_heap_ptr@PAU__crt_stdio_stream_data@@U__crt_internal_free_policy@@@@QAE@QAPAU__crt_stdio_stream_data@@@Z 1005bd00 f i libucrtd:_file.obj
 0001:0005ad20       ??1?$__crt_unique_heap_ptr@PAU__crt_stdio_stream_data@@U__crt_internal_free_policy@@@@QAE@XZ 1005bd20 f i libucrtd:_file.obj
 0001:0005ad40       ?detach@?$__crt_unique_heap_ptr@PAU__crt_stdio_stream_data@@U__crt_internal_free_policy@@@@QAEPAPAU__crt_stdio_stream_data@@XZ 1005bd40 f i libucrtd:_file.obj
 0001:0005ad70       ?release@?$__crt_unique_heap_ptr@PAU__crt_stdio_stream_data@@U__crt_internal_free_policy@@@@QAEXXZ 1005bd70 f i libucrtd:_file.obj
 0001:0005ada0       ___acrt_initialize_stdio   1005bda0 f   libucrtd:_file.obj
 0001:0005af10       ___acrt_iob_func           1005bf10 f   libucrtd:_file.obj
 0001:0005af20       ___acrt_uninitialize_stdio 1005bf20 f   libucrtd:_file.obj
 0001:0005afa0       __get_stream_buffer_pointers 1005bfa0 f   libucrtd:_file.obj
 0001:0005b080       __lock_file                1005c080 f   libucrtd:_file.obj
 0001:0005b0b0       __unlock_file              1005c0b0 f   libucrtd:_file.obj
 0001:0005b0e0       __fputc_nolock             1005c0e0 f   libucrtd:fputc.obj
 0001:0005b170       __fputchar                 1005c170 f   libucrtd:fputc.obj
 0001:0005b190       __putc_nolock              1005c190 f   libucrtd:fputc.obj
 0001:0005b1b0       _fputc                     1005c1b0 f   libucrtd:fputc.obj
 0001:0005b3f0       _putc                      1005c3f0 f   libucrtd:fputc.obj
 0001:0005b410       _putchar                   1005c410 f   libucrtd:fputc.obj
 0001:0005b430       __get_printf_count_output  1005c430 f   libucrtd:printf_count_output.obj
 0001:0005b460       __set_printf_count_output  1005c460 f   libucrtd:printf_count_output.obj
 0001:0005b4c0       ?has_any_buffer@__crt_stdio_stream@@QBE_NXZ 1005c4c0 f i libucrtd:_sftbuf.obj
 0001:0005b4e0       ?has_any_of@__crt_stdio_stream@@QBE_NJ@Z 1005c4e0 f i libucrtd:_sftbuf.obj
 0001:0005b520       ?has_temporary_buffer@__crt_stdio_stream@@QBE_NXZ 1005c520 f i libucrtd:_sftbuf.obj
 0001:0005b540       ?set_flags@__crt_stdio_stream@@QBE_NJ@Z 1005c540 f i libucrtd:_sftbuf.obj
 0001:0005b590       ?unset_flags@__crt_stdio_stream@@QBE_NJ@Z 1005c590 f i libucrtd:_sftbuf.obj
 0001:0005b5e0       ___acrt_stdio_begin_temporary_buffering_nolock 1005c5e0 f   libucrtd:_sftbuf.obj
 0001:0005b7a0       ___acrt_stdio_end_temporary_buffering_nolock 1005c7a0 f   libucrtd:_sftbuf.obj
 0001:0005b830       ??$?RU__crt_locale_data@@@__crt_internal_free_policy@@QBEXQBU__crt_locale_data@@@Z 1005c830 f i libucrtd:wsetlocale.obj
 0001:0005b850       ??$?RU__crt_locale_pointers@@@__crt_internal_free_policy@@QBEXQBU__crt_locale_pointers@@@Z 1005c850 f i libucrtd:wsetlocale.obj
 0001:0005b870       ??$?RU__crt_multibyte_data@@@__crt_internal_free_policy@@QBEXQBU__crt_multibyte_data@@@Z 1005c870 f i libucrtd:wsetlocale.obj
 0001:0005be60       ??0?$__crt_unique_heap_ptr@U__crt_locale_data@@U__crt_internal_free_policy@@@@QAE@QAU__crt_locale_data@@@Z 1005ce60 f i libucrtd:wsetlocale.obj
 0001:0005be80       ??0?$__crt_unique_heap_ptr@U__crt_locale_pointers@@U__crt_internal_free_policy@@@@QAE@QAU__crt_locale_pointers@@@Z 1005ce80 f i libucrtd:wsetlocale.obj
 0001:0005bea0       ??0?$__crt_unique_heap_ptr@U__crt_multibyte_data@@U__crt_internal_free_policy@@@@QAE@QAU__crt_multibyte_data@@@Z 1005cea0 f i libucrtd:wsetlocale.obj
 0001:0005bec0       ??0_expandlocale_locale_name_cache@@QAE@QA_WIQAU__crt_qualified_locale_data@@@Z 1005cec0 f i libucrtd:wsetlocale.obj
 0001:0005bf30       ??1?$__crt_unique_heap_ptr@U__crt_locale_data@@U__crt_internal_free_policy@@@@QAE@XZ 1005cf30 f i libucrtd:wsetlocale.obj
 0001:0005bf50       ??1?$__crt_unique_heap_ptr@U__crt_locale_pointers@@U__crt_internal_free_policy@@@@QAE@XZ 1005cf50 f i libucrtd:wsetlocale.obj
 0001:0005bf70       ??1?$__crt_unique_heap_ptr@U__crt_multibyte_data@@U__crt_internal_free_policy@@@@QAE@XZ 1005cf70 f i libucrtd:wsetlocale.obj
 0001:0005bf90       ??1_expandlocale_locale_name_cache@@QAE@XZ 1005cf90 f i libucrtd:wsetlocale.obj
 0001:0005bff0       ??B?$__crt_unique_heap_ptr@U__crt_locale_data@@U__crt_internal_free_policy@@@@QBE_NXZ 1005cff0 f i libucrtd:wsetlocale.obj
 0001:0005c010       ??B?$__crt_unique_heap_ptr@U__crt_locale_pointers@@U__crt_internal_free_policy@@@@QBE_NXZ 1005d010 f i libucrtd:wsetlocale.obj
 0001:0005c030       ??B?$__crt_unique_heap_ptr@U__crt_multibyte_data@@U__crt_internal_free_policy@@@@QBE_NXZ 1005d030 f i libucrtd:wsetlocale.obj
 0001:0005c420       ?commit_locale_name@_expandlocale_locale_name_cache@@QAEXQB_WI@Z 1005d420 f i libucrtd:wsetlocale.obj
 0001:0005c480       ?commit_locale_name_cache_already_updated@_expandlocale_locale_name_cache@@QAEXQB_WI@Z 1005d480 f i libucrtd:wsetlocale.obj
 0001:0005c4e0       ?detach@?$__crt_unique_heap_ptr@U__crt_locale_data@@U__crt_internal_free_policy@@@@QAEPAU__crt_locale_data@@XZ 1005d4e0 f i libucrtd:wsetlocale.obj
 0001:0005c510       ?detach@?$__crt_unique_heap_ptr@U__crt_locale_pointers@@U__crt_internal_free_policy@@@@QAEPAU__crt_locale_pointers@@XZ 1005d510 f i libucrtd:wsetlocale.obj
 0001:0005c540       ?detach@?$__crt_unique_heap_ptr@U__crt_multibyte_data@@U__crt_internal_free_policy@@@@QAEPAU__crt_multibyte_data@@XZ 1005d540 f i libucrtd:wsetlocale.obj
 0001:0005c570       ?get@?$__crt_unique_heap_ptr@U__crt_locale_data@@U__crt_internal_free_policy@@@@QBEPAU__crt_locale_data@@XZ 1005d570 f i libucrtd:wsetlocale.obj
 0001:0005c590       ?get@?$__crt_unique_heap_ptr@U__crt_locale_pointers@@U__crt_internal_free_policy@@@@QBEPAU__crt_locale_pointers@@XZ 1005d590 f i libucrtd:wsetlocale.obj
 0001:0005c5b0       ?get@?$__crt_unique_heap_ptr@U__crt_multibyte_data@@U__crt_internal_free_policy@@@@QBEPAU__crt_multibyte_data@@XZ 1005d5b0 f i libucrtd:wsetlocale.obj
 0001:0005c5d0       ?is_valid@?$__crt_unique_heap_ptr@U__crt_locale_data@@U__crt_internal_free_policy@@@@QBE_NXZ 1005d5d0 f i libucrtd:wsetlocale.obj
 0001:0005c600       ?is_valid@?$__crt_unique_heap_ptr@U__crt_locale_pointers@@U__crt_internal_free_policy@@@@QBE_NXZ 1005d600 f i libucrtd:wsetlocale.obj
 0001:0005c630       ?is_valid@?$__crt_unique_heap_ptr@U__crt_multibyte_data@@U__crt_internal_free_policy@@@@QBE_NXZ 1005d630 f i libucrtd:wsetlocale.obj
 0001:0005c660       ?release@?$__crt_unique_heap_ptr@U__crt_locale_data@@U__crt_internal_free_policy@@@@QAEXXZ 1005d660 f i libucrtd:wsetlocale.obj
 0001:0005c690       ?release@?$__crt_unique_heap_ptr@U__crt_locale_pointers@@U__crt_internal_free_policy@@@@QAEXXZ 1005d690 f i libucrtd:wsetlocale.obj
 0001:0005c6c0       ?release@?$__crt_unique_heap_ptr@U__crt_multibyte_data@@U__crt_internal_free_policy@@@@QAEXXZ 1005d6c0 f i libucrtd:wsetlocale.obj
 0001:0005c6f0       ___acrt_copy_locale_name   1005d6f0 f   libucrtd:wsetlocale.obj
 0001:0005c790       ___acrt_set_locale_changed 1005d790 f   libucrtd:wsetlocale.obj
 0001:0005c7b0       ___acrt_uninitialize_locale 1005d7b0 f   libucrtd:wsetlocale.obj
 0001:0005c7d0       ___ascii_tolower           1005d7d0 f i libucrtd:wsetlocale.obj
 0001:0005c7f0       ___ascii_towlower          1005d7f0 f i libucrtd:wsetlocale.obj
 0001:0005c810       ___lc_lctowcs              1005d810 f   libucrtd:wsetlocale.obj
 0001:0005c8c0       ___lc_wcstolc              1005d8c0 f   libucrtd:wsetlocale.obj
 0001:0005caf0       __configthreadlocale       1005daf0 f   libucrtd:wsetlocale.obj
 0001:0005cc70       __create_locale            1005dc70 f   libucrtd:wsetlocale.obj
 0001:0005d2b0       __free_locale              1005e2b0 f   libucrtd:wsetlocale.obj
 0001:0005d3e0       __get_current_locale       1005e3e0 f   libucrtd:wsetlocale.obj
 0001:0005d4b0       __wcreate_locale           1005e4b0 f   libucrtd:wsetlocale.obj
 0001:0005d6f0       __wcscats                  1005e6f0 f   libucrtd:wsetlocale.obj
 0001:0005d770       __wsetlocale               1005e770 f   libucrtd:wsetlocale.obj
 0001:0005ee70       ___p___mb_cur_max          1005fe70 f   libucrtd:nlsdata.obj
 0001:0005f170       ___acrt_initialize_lowio   10060170 f   libucrtd:ioinit.obj
 0001:0005f210       ___acrt_uninitialize_lowio 10060210 f   libucrtd:ioinit.obj
 0001:0005f270       __msize                    10060270 f   libucrtd:msize.obj
 0001:0005f290       __msize_base               10060290 f   libucrtd:msize.obj
 0001:0005f330       __realloc_base             10060330 f   libucrtd:realloc_base.obj
 0001:0005f6d0       ___acrt_get_begin_thread_init_policy 100606d0 f   libucrtd:win_policies.obj
 0001:0005f6f0       ___acrt_get_developer_information_policy 100606f0 f   libucrtd:win_policies.obj
 0001:0005f710       ___acrt_get_process_end_policy 10060710 f   libucrtd:win_policies.obj
 0001:0005f730       ___acrt_get_windowing_model_policy 10060730 f   libucrtd:win_policies.obj
 0001:0005fa00       ??$__acrt_mbs_to_wcs_cp@U__crt_win32_buffer_internal_dynamic_resizing@@@@YAHQBDAAV?$__crt_win32_buffer@_WU__crt_win32_buffer_internal_dynamic_resizing@@@@I@Z 10060a00 f i libucrtd:argv_wildcards.obj
 0001:0005fa30       ??$__acrt_wcs_to_mbs_cp@U__crt_win32_buffer_internal_dynamic_resizing@@@@YAHQB_WAAV?$__crt_win32_buffer@DU__crt_win32_buffer_internal_dynamic_resizing@@@@I@Z 10060a30 f i libucrtd:argv_wildcards.obj
 0001:00060980       ??$tcsncpy_s@AAPADIAAPADABI@?$__crt_char_traits@D@@SAHAAPAD$$QAI0ABI@Z 10061980 f i libucrtd:argv_wildcards.obj
 0001:000609b0       ??$tcsncpy_s@AAPA_WIAAPA_WABI@?$__crt_char_traits@_W@@SAHAAPA_W$$QAI0ABI@Z 100619b0 f i libucrtd:argv_wildcards.obj
 0001:000609e0       ??$tcsncpy_s@PADABIABQBDABI@?$__crt_char_traits@D@@SAH$$QAPADABIABQBD1@Z 100619e0 f i libucrtd:argv_wildcards.obj
 0001:00060a10       ??$tcsncpy_s@PADIABQBDABI@?$__crt_char_traits@D@@SAH$$QAPAD$$QAIABQBDABI@Z 10061a10 f i libucrtd:argv_wildcards.obj
 0001:00060a40       ??$tcsncpy_s@PA_WABIABQB_WABI@?$__crt_char_traits@_W@@SAH$$QAPA_WABIABQB_W1@Z 10061a40 f i libucrtd:argv_wildcards.obj
 0001:00060a70       ??$tcsncpy_s@PA_WIABQB_WABI@?$__crt_char_traits@_W@@SAH$$QAPA_W$$QAIABQB_WABI@Z 10061a70 f i libucrtd:argv_wildcards.obj
 0001:00060aa0       ??$tcspbrk@AAPADAAY02$$CBD@?$__crt_char_traits@D@@SAPADAAPADAAY02$$CBD@Z 10061aa0 f i libucrtd:argv_wildcards.obj
 0001:00060ac0       ??$tcspbrk@AAPA_WAAY02$$CB_W@?$__crt_char_traits@_W@@SAPA_WAAPA_WAAY02$$CB_W@Z 10061ac0 f i libucrtd:argv_wildcards.obj
 0001:00060ae0       ??0?$__crt_unique_handle_t@U__crt_findfile_traits@@@@QAE@QAX@Z 10061ae0 f i libucrtd:argv_wildcards.obj
 0001:00060b00       ??0?$__crt_win32_buffer@DU__crt_win32_buffer_internal_dynamic_resizing@@@@QAE@XZ 10061b00 f i libucrtd:argv_wildcards.obj
 0001:00060b50       ??0?$__crt_win32_buffer@_WU__crt_win32_buffer_internal_dynamic_resizing@@@@QAE@XZ 10061b50 f i libucrtd:argv_wildcards.obj
 0001:00060c00       ??1?$__crt_unique_handle_t@U__crt_findfile_traits@@@@QAE@XZ 10061c00 f i libucrtd:argv_wildcards.obj
 0001:00060c20       ??1?$__crt_win32_buffer@DU__crt_win32_buffer_internal_dynamic_resizing@@@@QAE@XZ 10061c20 f i libucrtd:argv_wildcards.obj
 0001:00060c60       ??1?$__crt_win32_buffer@_WU__crt_win32_buffer_internal_dynamic_resizing@@@@QAE@XZ 10061c60 f i libucrtd:argv_wildcards.obj
 0001:00060ec0       ?_deallocate@?$__crt_win32_buffer@DU__crt_win32_buffer_internal_dynamic_resizing@@@@AAEXXZ 10061ec0 f i libucrtd:argv_wildcards.obj
 0001:00060f00       ?_deallocate@?$__crt_win32_buffer@_WU__crt_win32_buffer_internal_dynamic_resizing@@@@AAEXXZ 10061f00 f i libucrtd:argv_wildcards.obj
 0001:00060f40       ?allocate@?$__crt_win32_buffer@DU__crt_win32_buffer_internal_dynamic_resizing@@@@QAEHI@Z 10061f40 f i libucrtd:argv_wildcards.obj
 0001:00060fb0       ?allocate@?$__crt_win32_buffer@_WU__crt_win32_buffer_internal_dynamic_resizing@@@@QAEHI@Z 10061fb0 f i libucrtd:argv_wildcards.obj
 0001:00061020       ?allocate@__crt_win32_buffer_internal_dynamic_resizing@@SAHQAPAXIABV__crt_win32_buffer_empty_debug_info@@@Z 10062020 f i libucrtd:argv_wildcards.obj
 0001:00061160       ?capacity@?$__crt_win32_buffer@DU__crt_win32_buffer_internal_dynamic_resizing@@@@QBEIXZ 10062160 f i libucrtd:argv_wildcards.obj
 0001:00061180       ?capacity@?$__crt_win32_buffer@_WU__crt_win32_buffer_internal_dynamic_resizing@@@@QBEIXZ 10062180 f i libucrtd:argv_wildcards.obj
 0001:000611a0       ?close@?$__crt_unique_handle_t@U__crt_findfile_traits@@@@QAEXXZ 100621a0 f i libucrtd:argv_wildcards.obj
 0001:000611e0       ?close@__crt_findfile_traits@@SA_NPAX@Z 100621e0 f i libucrtd:argv_wildcards.obj
 0001:00061210       ?data@?$__crt_win32_buffer@DU__crt_win32_buffer_internal_dynamic_resizing@@@@QAEPADXZ 10062210 f i libucrtd:argv_wildcards.obj
 0001:00061230       ?data@?$__crt_win32_buffer@_WU__crt_win32_buffer_internal_dynamic_resizing@@@@QAEPA_WXZ 10062230 f i libucrtd:argv_wildcards.obj
 0001:00061250       ?deallocate@__crt_win32_buffer_internal_dynamic_resizing@@SAXQAXABV__crt_win32_buffer_empty_debug_info@@@Z 10062250 f i libucrtd:argv_wildcards.obj
 0001:00061270       ?debug_info@?$__crt_win32_buffer@DU__crt_win32_buffer_internal_dynamic_resizing@@@@QBEABV__crt_win32_buffer_empty_debug_info@@XZ 10062270 f i libucrtd:argv_wildcards.obj
 0001:00061280       ?debug_info@?$__crt_win32_buffer@_WU__crt_win32_buffer_internal_dynamic_resizing@@@@QBEABV__crt_win32_buffer_empty_debug_info@@XZ 10062280 f i libucrtd:argv_wildcards.obj
 0001:00061590       ?get@?$__crt_unique_handle_t@U__crt_findfile_traits@@@@QBEPAXXZ 10062590 f i libucrtd:argv_wildcards.obj
 0001:00061600       ?get_invalid_value@__crt_findfile_traits@@SAPAXXZ 10062600 f i libucrtd:argv_wildcards.obj
 0001:00061690       ?set_to_nullptr@?$__crt_win32_buffer@DU__crt_win32_buffer_internal_dynamic_resizing@@@@QAEXXZ 10062690 f i libucrtd:argv_wildcards.obj
 0001:000616d0       ?set_to_nullptr@?$__crt_win32_buffer@_WU__crt_win32_buffer_internal_dynamic_resizing@@@@QAEXXZ 100626d0 f i libucrtd:argv_wildcards.obj
 0001:00061710       ?size@?$__crt_win32_buffer@DU__crt_win32_buffer_internal_dynamic_resizing@@@@QAEXI@Z 10062710 f i libucrtd:argv_wildcards.obj
 0001:00061730       ?size@?$__crt_win32_buffer@_WU__crt_win32_buffer_internal_dynamic_resizing@@@@QAEXI@Z 10062730 f i libucrtd:argv_wildcards.obj
 0001:00061790       ?strpbrk@@YAPADQADQBD@Z    10062790 f i libucrtd:argv_wildcards.obj
 0001:000617b0       ?wcspbrk@@YAPA_WPA_WPB_W@Z 100627b0 f i libucrtd:argv_wildcards.obj
 0001:000617d0       ___acrt_expand_narrow_argv_wildcards 100627d0 f   libucrtd:argv_wildcards.obj
 0001:000617f0       ___acrt_expand_wide_argv_wildcards 100627f0 f   libucrtd:argv_wildcards.obj
 0001:000618d0       ??$initialize_from_array@$$BY10BAA@E@?$dual_state_global@PAE@__crt_state_management@@QAAXAAY10BAA@E@Z 100628d0 f i libucrtd:mbctype.obj
 0001:00061920       ??$initialize_from_array@$$BY10BAB@E@?$dual_state_global@PAE@__crt_state_management@@QAAXAAY10BAB@E@Z 10062920 f i libucrtd:mbctype.obj
 0001:00061b90       ?dangerous_get_state_array@?$dual_state_global@PAE@__crt_state_management@@QAEPAPAEXZ 10062b90 f i libucrtd:mbctype.obj
 0001:00061ba0       ?dangerous_get_state_array@?$dual_state_global@PAU__crt_multibyte_data@@@__crt_state_management@@QAEPAPAU__crt_multibyte_data@@XZ 10062ba0 f i libucrtd:mbctype.obj
 0001:00061c70       ?initialize@?$dual_state_global@PAU__crt_multibyte_data@@@__crt_state_management@@QAEXQAU__crt_multibyte_data@@@Z 10062c70 f i libucrtd:mbctype.obj
 0001:000623d0       ?value@?$dual_state_global@PAE@__crt_state_management@@QAEAAPAEXZ 100633d0 f i libucrtd:mbctype.obj
 0001:000623f0       ___acrt_initialize_multibyte 100633f0 f   libucrtd:mbctype.obj
 0001:000624a0       ___acrt_update_thread_multibyte_data 100634a0 f   libucrtd:mbctype.obj
 0001:000624c0       ___p__mbcasemap            100634c0 f   libucrtd:mbctype.obj
 0001:000624e0       ___p__mbctype              100634e0 f   libucrtd:mbctype.obj
 0001:00062500       __getmbcp                  10063500 f   libucrtd:mbctype.obj
 0001:00062570       __setmbcp                  10063570 f   libucrtd:mbctype.obj
 0001:000625a0       __setmbcp_nolock           100635a0 f   libucrtd:mbctype.obj
 0001:00062b11       __ismbbalnum               10063b11 f   libucrtd:ismbbyte.obj
 0001:00062b2c       __ismbbalnum_l             10063b2c f   libucrtd:ismbbyte.obj
 0001:00062b48       __ismbbalpha               10063b48 f   libucrtd:ismbbyte.obj
 0001:00062b63       __ismbbalpha_l             10063b63 f   libucrtd:ismbbyte.obj
 0001:00062b7f       __ismbbblank               10063b7f f   libucrtd:ismbbyte.obj
 0001:00062ba2       __ismbbblank_l             10063ba2 f   libucrtd:ismbbyte.obj
 0001:00062bc6       __ismbbgraph               10063bc6 f   libucrtd:ismbbyte.obj
 0001:00062be1       __ismbbgraph_l             10063be1 f   libucrtd:ismbbyte.obj
 0001:00062bfd       __ismbbkalnum              10063bfd f   libucrtd:ismbbyte.obj
 0001:00062c15       __ismbbkalnum_l            10063c15 f   libucrtd:ismbbyte.obj
 0001:00062c2e       __ismbbkana                10063c2e f   libucrtd:ismbbyte.obj
 0001:00062c41       __ismbbkana_l              10063c41 f   libucrtd:ismbbyte.obj
 0001:00062c90       __ismbbkprint              10063c90 f   libucrtd:ismbbyte.obj
 0001:00062ca8       __ismbbkprint_l            10063ca8 f   libucrtd:ismbbyte.obj
 0001:00062cc1       __ismbbkpunct              10063cc1 f   libucrtd:ismbbyte.obj
 0001:00062cd9       __ismbbkpunct_l            10063cd9 f   libucrtd:ismbbyte.obj
 0001:00062cf2       __ismbblead                10063cf2 f   libucrtd:ismbbyte.obj
 0001:00062d0a       __ismbblead_l              10063d0a f   libucrtd:ismbbyte.obj
 0001:00062d23       __ismbbprint               10063d23 f   libucrtd:ismbbyte.obj
 0001:00062d3e       __ismbbprint_l             10063d3e f   libucrtd:ismbbyte.obj
 0001:00062d5a       __ismbbpunct               10063d5a f   libucrtd:ismbbyte.obj
 0001:00062d72       __ismbbpunct_l             10063d72 f   libucrtd:ismbbyte.obj
 0001:00062d8b       __ismbbtrail               10063d8b f   libucrtd:ismbbyte.obj
 0001:00062da3       __ismbbtrail_l             10063da3 f   libucrtd:ismbbyte.obj
 0001:00062dc0       ___acrt_initialize_command_line 10063dc0 f   libucrtd:argv_data.obj
 0001:00062de0       ___acrt_uninitialize_command_line 10063de0 f   libucrtd:argv_data.obj
 0001:00062df0       ___p___argc                10063df0 f   libucrtd:argv_data.obj
 0001:00062e00       ___p___argv                10063e00 f   libucrtd:argv_data.obj
 0001:00062e10       ___p___wargv               10063e10 f   libucrtd:argv_data.obj
 0001:00062e20       ___p__acmdln               10063e20 f   libucrtd:argv_data.obj
 0001:00062e30       ___p__pgmptr               10063e30 f   libucrtd:argv_data.obj
 0001:00062e40       ___p__wcmdln               10063e40 f   libucrtd:argv_data.obj
 0001:00062e50       ___p__wpgmptr              10063e50 f   libucrtd:argv_data.obj
 0001:00062e60       __get_pgmptr               10063e60 f   libucrtd:argv_data.obj
 0001:00062f70       __get_wpgmptr              10063f70 f   libucrtd:argv_data.obj
 0001:00063130       ___acrt_MultiByteToWideChar 10064130 f   libucrtd:multibytetowidechar.obj
 0001:00063230       ___acrt_WideCharToMultiByte 10064230 f   libucrtd:widechartomultibyte.obj
 0001:00063372       ___dcrt_get_narrow_environment_from_os 10064372 f   libucrtd:get_environment_from_os.obj
 0001:00063404       ___dcrt_get_wide_environment_from_os 10064404 f   libucrtd:get_environment_from_os.obj
 0001:00063d99       ??$get_or_create_environment_nolock@$$V@?$__crt_char_traits@D@@SAPAPADXZ 10064d99 f i libucrtd:setenv.obj
 0001:00063d9e       ??$get_or_create_environment_nolock@$$V@?$__crt_char_traits@_W@@SAPAPA_WXZ 10064d9e f i libucrtd:setenv.obj
 0001:00063da3       ??$set_environment_variable@ABQADQAD@?$__crt_char_traits@D@@SAHABQAD$$QBQAD@Z 10064da3 f i libucrtd:setenv.obj
 0001:00063dbb       ??$set_environment_variable@ABQA_WQA_W@?$__crt_char_traits@_W@@SAHABQA_W$$QBQA_W@Z 10064dbb f i libucrtd:setenv.obj
 0001:00063dd2       ??$tcschr@ABQADD@?$__crt_char_traits@D@@SAPADABQAD$$QAD@Z 10064dd2 f i libucrtd:setenv.obj
 0001:00063dec       ??$tcschr@ABQA_WD@?$__crt_char_traits@_W@@SAPA_WABQA_W$$QAD@Z 10064dec f i libucrtd:setenv.obj
 0001:00063e0a       ??$tcscpy_s@AAPADABIAAPAD@?$__crt_char_traits@D@@SAHAAPADABI0@Z 10064e0a f i libucrtd:setenv.obj
 0001:00063e28       ??$tcscpy_s@AAPA_WABIAAPA_W@?$__crt_char_traits@_W@@SAHAAPA_WABI0@Z 10064e28 f i libucrtd:setenv.obj
 0001:00063e46       ??$tcscpy_s@ABQADABIABQAD@?$__crt_char_traits@D@@SAHABQADABI0@Z 10064e46 f i libucrtd:setenv.obj
 0001:00063e64       ??$tcscpy_s@ABQA_WABIABQA_W@?$__crt_char_traits@_W@@SAHABQA_WABI0@Z 10064e64 f i libucrtd:setenv.obj
 0001:00063e82       ??$tcslen@ABQAD@?$__crt_char_traits@D@@SAIABQAD@Z 10064e82 f i libucrtd:setenv.obj
 0001:00063e9a       ??$tcslen@ABQA_W@?$__crt_char_traits@_W@@SAIABQA_W@Z 10064e9a f i libucrtd:setenv.obj
 0001:00063eb8       ??$tcsnicoll@ABQBDAAPADABI@?$__crt_char_traits@D@@SAHABQBDAAPADABI@Z 10064eb8 f i libucrtd:setenv.obj
 0001:00063ed6       ??$tcsnicoll@ABQB_WAAPA_WABI@?$__crt_char_traits@_W@@SAHABQB_WAAPA_WABI@Z 10064ed6 f i libucrtd:setenv.obj
 0001:00063ef4       ??$tcsnlen@PADH@?$__crt_char_traits@D@@SAI$$QAPAD$$QAH@Z 10064ef4 f i libucrtd:setenv.obj
 0001:00063f0c       ??$tcsnlen@PA_WH@?$__crt_char_traits@_W@@SAI$$QAPA_W$$QAH@Z 10064f0c f i libucrtd:setenv.obj
 0001:00063f48       ?strchr@@YAPADQADH@Z       10064f48 f i libucrtd:setenv.obj
 0001:00063f53       ?wcschr@@YAPA_WPA_W_W@Z    10064f53 f i libucrtd:setenv.obj
 0001:00063f5e       ___dcrt_set_variable_in_narrow_environment_nolock 10064f5e f   libucrtd:setenv.obj
 0001:00063f69       ___dcrt_set_variable_in_wide_environment_nolock 10064f69 f   libucrtd:setenv.obj
 0001:00063fa0       ??$?B$$A6GHPA_WKJ@Z@__crt_fast_encoded_nullptr_t@@QBEP6GHPA_WKJ@ZXZ 10064fa0 f i libucrtd:winapi_thunks.obj
 0001:00064090       ??$__crt_fast_decode_pointer@P6GHPA_WKJ@Z@@YAP6GHPA_WKJ@ZQ6GH0KJ@Z@Z 10065090 f i libucrtd:winapi_thunks.obj
 0001:000640c0       ??$__crt_fast_decode_pointer@PAX@@YAPAXQAX@Z 100650c0 f i libucrtd:winapi_thunks.obj
 0001:000640f0       ??$__crt_fast_encode_pointer@P6GHPA_WKJ@Z@@YAP6GHPA_WKJ@ZQ6GH0KJ@Z@Z 100650f0 f i libucrtd:winapi_thunks.obj
 0001:00064a50       _GetCurrentThreadEffectiveToken 10065a50 f i libucrtd:winapi_thunks.obj
 0001:00064a60       ___acrt_AppPolicyGetProcessTerminationMethodInternal@4 10065a60 f   libucrtd:winapi_thunks.obj
 0001:00064aa0       ___acrt_AppPolicyGetShowDeveloperDiagnosticInternal@4 10065aa0 f   libucrtd:winapi_thunks.obj
 0001:00064ae0       ___acrt_AppPolicyGetThreadInitializationTypeInternal@4 10065ae0 f   libucrtd:winapi_thunks.obj
 0001:00064b20       ___acrt_AppPolicyGetWindowingModelInternal@4 10065b20 f   libucrtd:winapi_thunks.obj
 0001:00064b60       ___acrt_AreFileApisANSI@0  10065b60 f   libucrtd:winapi_thunks.obj
 0001:00064ba0       ___acrt_CompareStringEx@36 10065ba0 f   libucrtd:winapi_thunks.obj
 0001:00064c20       ___acrt_EnumSystemLocalesEx@16 10065c20 f   libucrtd:winapi_thunks.obj
 0001:00064c80       ___acrt_FlsAlloc@4         10065c80 f   libucrtd:winapi_thunks.obj
 0001:00064cc0       ___acrt_FlsFree@4          10065cc0 f   libucrtd:winapi_thunks.obj
 0001:00064d00       ___acrt_FlsGetValue@4      10065d00 f   libucrtd:winapi_thunks.obj
 0001:00064d40       ___acrt_FlsSetValue@8      10065d40 f   libucrtd:winapi_thunks.obj
 0001:00064d90       ___acrt_GetDateFormatEx@28 10065d90 f   libucrtd:winapi_thunks.obj
 0001:00064e10       ___acrt_GetEnabledXStateFeatures@0 10065e10 f   libucrtd:winapi_thunks.obj
 0001:00064e50       ___acrt_GetLocaleInfoEx@16 10065e50 f   libucrtd:winapi_thunks.obj
 0001:00064eb0       ___acrt_GetSystemTimePreciseAsFileTime@4 10065eb0 f   libucrtd:winapi_thunks.obj
 0001:00064ef0       ___acrt_GetTimeFormatEx@24 10065ef0 f   libucrtd:winapi_thunks.obj
 0001:00064f60       ___acrt_GetUserDefaultLocaleName@8 10065f60 f   libucrtd:winapi_thunks.obj
 0001:00064fb0       ___acrt_GetXStateFeaturesMask@8 10065fb0 f   libucrtd:winapi_thunks.obj
 0001:00064ff0       ___acrt_InitializeCriticalSectionEx@12 10065ff0 f   libucrtd:winapi_thunks.obj
 0001:00065040       ___acrt_IsValidLocaleName@4 10066040 f   libucrtd:winapi_thunks.obj
 0001:00065090       ___acrt_LCIDToLocaleName@16 10066090 f   libucrtd:winapi_thunks.obj
 0001:000650f0       ___acrt_LCMapStringEx@36   100660f0 f   libucrtd:winapi_thunks.obj
 0001:00065170       ___acrt_LocaleNameToLCID@8 10066170 f   libucrtd:winapi_thunks.obj
 0001:000651c0       ___acrt_LocateXStateFeature@12 100661c0 f   libucrtd:winapi_thunks.obj
 0001:00065210       ___acrt_MessageBoxA@16     10066210 f   libucrtd:winapi_thunks.obj
 0001:00065260       ___acrt_MessageBoxW@16     10066260 f   libucrtd:winapi_thunks.obj
 0001:000652b0       ___acrt_RoInitialize@4     100662b0 f   libucrtd:winapi_thunks.obj
 0001:000652f0       ___acrt_RoUninitialize@0   100662f0 f   libucrtd:winapi_thunks.obj
 0001:00065320       ___acrt_RtlGenRandom@8     10066320 f   libucrtd:winapi_thunks.obj
 0001:00065360       ___acrt_SetThreadStackGuarantee@4 10066360 f   libucrtd:winapi_thunks.obj
 0001:000653a0       ___acrt_can_show_message_box 100663a0 f   libucrtd:winapi_thunks.obj
 0001:000653e0       ___acrt_can_use_vista_locale_apis 100663e0 f   libucrtd:winapi_thunks.obj
 0001:00065410       ___acrt_can_use_xstate_apis 10066410 f   libucrtd:winapi_thunks.obj
 0001:00065440       ___acrt_eagerly_load_locale_apis 10066440 f   libucrtd:winapi_thunks.obj
 0001:00065480       ___acrt_get_parent_window  10066480 f   libucrtd:winapi_thunks.obj
 0001:000654f0       ___acrt_initialize_winapi_thunks 100664f0 f   libucrtd:winapi_thunks.obj
 0001:00065560       ___acrt_is_interactive     10066560 f   libucrtd:winapi_thunks.obj
 0001:00065610       ___acrt_uninitialize_winapi_thunks 10066610 f   libucrtd:winapi_thunks.obj
 0001:00065680       ___acrt_getheap            10066680 f   libucrtd:heap_handle.obj
 0001:000656c0       ___acrt_initialize_heap    100666c0 f   libucrtd:heap_handle.obj
 0001:000656f0       ___acrt_uninitialize_heap  100666f0 f   libucrtd:heap_handle.obj
 0001:00065710       __get_heap_handle          10066710 f   libucrtd:heap_handle.obj
 0001:00065750       ___acrt_execute_initializers 10066750 f   libucrtd:shared_initialization.obj
 0001:00065800       ___acrt_execute_uninitializers 10066800 f   libucrtd:shared_initialization.obj
 0001:00065860       ??$__crt_fast_decode_pointer@P6AHPAU_exception@@@Z@@YAP6AHPAU_exception@@@ZQ6AH0@Z@Z 10066860 f i libucrtd:matherr.obj
 0001:00065890       ??$__crt_fast_encode_pointer@P6AHPAU_exception@@@Z@@YAP6AHPAU_exception@@@ZQ6AH0@Z@Z 10066890 f i libucrtd:matherr.obj
 0001:000658c0       ?initialize@?$dual_state_global@P6AHPAU_exception@@@Z@__crt_state_management@@QAEXQ6AHPAU_exception@@@Z@Z 100668c0 f i libucrtd:matherr.obj
 0001:00065900       ?value@?$dual_state_global@P6AHPAU_exception@@@Z@__crt_state_management@@QAEAAP6AHPAU_exception@@@ZXZ 10066900 f i libucrtd:matherr.obj
 0001:00065920       ___acrt_has_user_matherr   10066920 f   libucrtd:matherr.obj
 0001:00065960       ___acrt_initialize_user_matherr 10066960 f   libucrtd:matherr.obj
 0001:00065980       ___acrt_invoke_user_matherr 10066980 f   libucrtd:matherr.obj
 0001:000659d0       ___setusermatherr          100669d0 f   libucrtd:matherr.obj
 0001:00065a00       __chvalidator              10066a00 f   libucrtd:isctype.obj
 0001:00065a50       __chvalidator_l            10066a50 f   libucrtd:isctype.obj
 0001:00065ad0       __isctype                  10066ad0 f   libucrtd:isctype.obj
 0001:00065b10       __isctype_l                10066b10 f   libucrtd:isctype.obj
 0001:00065c90       __isleadbyte_fast_internal 10066c90 f i libucrtd:isctype.obj
 0001:00065cc0       __free_base                10066cc0 f   libucrtd:free_base.obj
 0001:00065d70       __expand                   10066d70 f   libucrtd:expand.obj
 0001:00065d90       __expand_base              10066d90 f   libucrtd:expand.obj
 0001:00065ec0       ?value@?$dual_state_global@J@__crt_state_management@@QAEAAJXZ 10066ec0 f i libucrtd:new_mode.obj
 0001:00065ee0       __query_new_mode           10066ee0 f   libucrtd:new_mode.obj
 0001:00065f00       __set_new_mode             10066f00 f   libucrtd:new_mode.obj
 0001:00065fa0       __CrtDefaultAllocHook      10066fa0 f   libucrtd:debug_heap_hook.obj
 0001:00065fac       __mbsdec                   10066fac f   libucrtd:mbsdec.obj
 0001:00065fc3       __mbsdec_l                 10066fc3 f   libucrtd:mbsdec.obj
 0001:000664b0       _strncpy_s                 100674b0 f   libucrtd:strncpy_s.obj
 0001:00066680       ___acrt_report_runtime_error 10067680 f   libucrtd:report_runtime_error.obj
 0001:00066870       __query_app_type           10067870 f   libucrtd:report_runtime_error.obj
 0001:00066880       __set_app_type             10067880 f   libucrtd:report_runtime_error.obj
 0001:00066890       __iswctype_l               10067890 f   libucrtd:iswctype.obj
 0001:000668b0       _iswctype                  100678b0 f   libucrtd:iswctype.obj
 0001:00067a30       __i64toa                   10068a30 f   libucrtd:xtoa.obj
 0001:00067a80       __i64toa_s                 10068a80 f   libucrtd:xtoa.obj
 0001:00067ad0       __i64tow                   10068ad0 f   libucrtd:xtoa.obj
 0001:00067b20       __i64tow_s                 10068b20 f   libucrtd:xtoa.obj
 0001:00067b70       __itoa                     10068b70 f   libucrtd:xtoa.obj
 0001:00067bc0       __itoa_s                   10068bc0 f   libucrtd:xtoa.obj
 0001:00067c10       __itow                     10068c10 f   libucrtd:xtoa.obj
 0001:00067c60       __itow_s                   10068c60 f   libucrtd:xtoa.obj
 0001:00067cb0       __ltoa                     10068cb0 f   libucrtd:xtoa.obj
 0001:00067d00       __ltoa_s                   10068d00 f   libucrtd:xtoa.obj
 0001:00067d50       __ltow                     10068d50 f   libucrtd:xtoa.obj
 0001:00067da0       __ltow_s                   10068da0 f   libucrtd:xtoa.obj
 0001:00067df0       __ui64toa                  10068df0 f   libucrtd:xtoa.obj
 0001:00067e20       __ui64toa_s                10068e20 f   libucrtd:xtoa.obj
 0001:00067e50       __ui64tow                  10068e50 f   libucrtd:xtoa.obj
 0001:00067e80       __ui64tow_s                10068e80 f   libucrtd:xtoa.obj
 0001:00067eb0       __ultoa                    10068eb0 f   libucrtd:xtoa.obj
 0001:00067ee0       __ultoa_s                  10068ee0 f   libucrtd:xtoa.obj
 0001:00067f10       __ultow                    10068f10 f   libucrtd:xtoa.obj
 0001:00067f40       __ultow_s                  10068f40 f   libucrtd:xtoa.obj
 0001:00068350       __mbstowcs_l               10069350 f   libucrtd:mbstowcs.obj
 0001:00068370       __mbstowcs_s_l             10069370 f   libucrtd:mbstowcs.obj
 0001:00068730       _mbstowcs                  10069730 f   libucrtd:mbstowcs.obj
 0001:00068780       _mbstowcs_s                10069780 f   libucrtd:mbstowcs.obj
 0001:00068e70       __wcstombs_l               10069e70 f   libucrtd:wcstombs.obj
 0001:00068e90       __wcstombs_s_l             10069e90 f   libucrtd:wcstombs.obj
 0001:00069200       _wcstombs                  1006a200 f   libucrtd:wcstombs.obj
 0001:00069220       _wcstombs_s                1006a220 f   libucrtd:wcstombs.obj
 0001:00069250       ___acrt_OutputDebugStringA@4 1006a250 f   libucrtd:outputdebugstringa.obj
 0001:000692e0       ___iswcsym                 1006a2e0 f i libucrtd:_wctype.obj
 0001:00069320       ___iswcsymf                1006a320 f i libucrtd:_wctype.obj
 0001:00069360       __isleadbyte_l             1006a360 f i libucrtd:_wctype.obj
 0001:000693b0       __iswalnum_l               1006a3b0 f i libucrtd:_wctype.obj
 0001:000693d0       __iswalpha_l               1006a3d0 f i libucrtd:_wctype.obj
 0001:000693f0       __iswblank_l               1006a3f0 f i libucrtd:_wctype.obj
 0001:00069430       __iswcntrl_l               1006a430 f i libucrtd:_wctype.obj
 0001:00069450       __iswcsym_l                1006a450 f i libucrtd:_wctype.obj
 0001:00069490       __iswcsymf_l               1006a490 f i libucrtd:_wctype.obj
 0001:000694d0       __iswdigit_l               1006a4d0 f i libucrtd:_wctype.obj
 0001:000694f0       __iswgraph_l               1006a4f0 f i libucrtd:_wctype.obj
 0001:00069510       __iswlower_l               1006a510 f i libucrtd:_wctype.obj
 0001:00069530       __iswprint_l               1006a530 f i libucrtd:_wctype.obj
 0001:00069550       __iswpunct_l               1006a550 f i libucrtd:_wctype.obj
 0001:00069570       __iswspace_l               1006a570 f i libucrtd:_wctype.obj
 0001:00069590       __iswupper_l               1006a590 f i libucrtd:_wctype.obj
 0001:000695b0       __iswxdigit_l              1006a5b0 f i libucrtd:_wctype.obj
 0001:000695d0       _isleadbyte                1006a5d0 f i libucrtd:_wctype.obj
 0001:000695f0       _iswalnum                  1006a5f0 f i libucrtd:_wctype.obj
 0001:00069610       _iswalpha                  1006a610 f i libucrtd:_wctype.obj
 0001:00069630       _iswascii                  1006a630 f i libucrtd:_wctype.obj
 0001:00069660       _iswblank                  1006a660 f i libucrtd:_wctype.obj
 0001:000696a0       _iswcntrl                  1006a6a0 f i libucrtd:_wctype.obj
 0001:000696c0       _iswdigit                  1006a6c0 f i libucrtd:_wctype.obj
 0001:000696e0       _iswgraph                  1006a6e0 f i libucrtd:_wctype.obj
 0001:00069700       _iswlower                  1006a700 f i libucrtd:_wctype.obj
 0001:00069720       _iswprint                  1006a720 f i libucrtd:_wctype.obj
 0001:00069740       _iswpunct                  1006a740 f i libucrtd:_wctype.obj
 0001:00069760       _iswspace                  1006a760 f i libucrtd:_wctype.obj
 0001:00069780       _iswupper                  1006a780 f i libucrtd:_wctype.obj
 0001:000697a0       _iswxdigit                 1006a7a0 f i libucrtd:_wctype.obj
 0001:00069830       ?__mbrtowc_utf8@__crt_mbstring@@YAIPA_WPBDIPAU_Mbstatet@@@Z 1006a830 f   libucrtd:mbrtowc.obj
 0001:00069880       ?__mbsrtowcs_utf8@__crt_mbstring@@YAIPA_WPAPBDIPAU_Mbstatet@@@Z 1006a880 f   libucrtd:mbrtowc.obj
 0001:0006a0f0       _btowc                     1006b0f0 f   libucrtd:mbrtowc.obj
 0001:0006a160       _mbrlen                    1006b160 f   libucrtd:mbrtowc.obj
 0001:0006a1b0       _mbrtowc                   1006b1b0 f   libucrtd:mbrtowc.obj
 0001:0006a240       _mbsrtowcs                 1006b240 f   libucrtd:mbrtowc.obj
 0001:0006a260       _mbsrtowcs_s               1006b260 f   libucrtd:mbrtowc.obj
 0001:0006a5b0       ??$?RG@__crt_internal_free_policy@@QBEXQBG@Z 1006b5b0 f i libucrtd:initctype.obj
 0001:0006a5d0       ??$?RJ@__crt_internal_free_policy@@QBEXQBJ@Z 1006b5d0 f i libucrtd:initctype.obj
 0001:0006a5f0       ??0?$__crt_unique_heap_ptr@GU__crt_internal_free_policy@@@@QAE@QAG@Z 1006b5f0 f i libucrtd:initctype.obj
 0001:0006a610       ??0?$__crt_unique_heap_ptr@JU__crt_internal_free_policy@@@@QAE@QAJ@Z 1006b610 f i libucrtd:initctype.obj
 0001:0006a630       ??1?$__crt_unique_heap_ptr@GU__crt_internal_free_policy@@@@QAE@XZ 1006b630 f i libucrtd:initctype.obj
 0001:0006a650       ??1?$__crt_unique_heap_ptr@JU__crt_internal_free_policy@@@@QAE@XZ 1006b650 f i libucrtd:initctype.obj
 0001:0006a670       ?detach@?$__crt_unique_heap_ptr@GU__crt_internal_free_policy@@@@QAEPAGXZ 1006b670 f i libucrtd:initctype.obj
 0001:0006a6a0       ?detach@?$__crt_unique_heap_ptr@JU__crt_internal_free_policy@@@@QAEPAJXZ 1006b6a0 f i libucrtd:initctype.obj
 0001:0006a6d0       ?release@?$__crt_unique_heap_ptr@GU__crt_internal_free_policy@@@@QAEXXZ 1006b6d0 f i libucrtd:initctype.obj
 0001:0006a700       ?release@?$__crt_unique_heap_ptr@JU__crt_internal_free_policy@@@@QAEXXZ 1006b700 f i libucrtd:initctype.obj
 0001:0006a730       ____lc_codepage_func       1006b730 f   libucrtd:initctype.obj
 0001:0006a770       ____lc_collate_cp_func     1006b770 f   libucrtd:initctype.obj
 0001:0006a7b0       ____lc_locale_name_func    1006b7b0 f   libucrtd:initctype.obj
 0001:0006a7f0       ____mb_cur_max_func        1006b7f0 f   libucrtd:initctype.obj
 0001:0006a830       ____mb_cur_max_l_func      1006b830 f   libucrtd:initctype.obj
 0001:0006a860       ___acrt_locale_initialize_ctype 1006b860 f   libucrtd:initctype.obj
 0001:0006afe0       ?__c32rtomb_utf8@__crt_mbstring@@YAIPAD_UPAU_Mbstatet@@@Z 1006bfe0 f   libucrtd:c32rtomb.obj
 0001:0006b1c0       ?reset_and_return@__crt_mbstring@@YAIIPAU_Mbstatet@@@Z 1006c1c0 f i libucrtd:c32rtomb.obj
 0001:0006b1f0       ?return_illegal_sequence@__crt_mbstring@@YAIPAU_Mbstatet@@@Z 1006c1f0 f i libucrtd:c32rtomb.obj
 0001:0006b220       _c32rtomb                  1006c220 f   libucrtd:c32rtomb.obj
 0001:0006b240       ___acrt_add_locale_ref     1006c240 f   libucrtd:locale_refcounting.obj
 0001:0006b350       ___acrt_free_locale        1006c350 f   libucrtd:locale_refcounting.obj
 0001:0006b620       ___acrt_locale_add_lc_time_reference 1006c620 f   libucrtd:locale_refcounting.obj
 0001:0006b660       ___acrt_locale_free_lc_time_if_unreferenced 1006c660 f   libucrtd:locale_refcounting.obj
 0001:0006b6b0       ___acrt_locale_release_lc_time_reference 1006c6b0 f   libucrtd:locale_refcounting.obj
 0001:0006b6e0       ___acrt_release_locale_ref 1006c6e0 f   libucrtd:locale_refcounting.obj
 0001:0006b7f0       ___acrt_update_thread_locale_data 1006c7f0 f   libucrtd:locale_refcounting.obj
 0001:0006b8c0       __updatetlocinfoEx_nolock  1006c8c0 f   libucrtd:locale_refcounting.obj
 0001:0006b940       ___acrt_fp_strflt_to_string 1006c940 f   libucrtd:_fptostr.obj
 0001:0006c280       ??0big_integer@__crt_strtox@@QAE@ABU01@@Z 1006d280 f i libucrtd:cfout.obj
 0001:0006c2c0       ??0big_integer@__crt_strtox@@QAE@XZ 1006d2c0 f i libucrtd:cfout.obj
 0001:0006c380       ??4big_integer@__crt_strtox@@QAEAAU01@ABU01@@Z 1006d380 f i libucrtd:cfout.obj
 0001:0006c3c0       ??8__crt_strtox@@YA_NABUbig_integer@0@0@Z 1006d3c0 f i libucrtd:cfout.obj
 0001:0006c420       ??9__crt_strtox@@YA_NABUbig_integer@0@0@Z 1006d420 f i libucrtd:cfout.obj
 0001:0006c460       ?add_carry@__crt_strtox@@YAIAAIII@Z 1006d460 f i libucrtd:cfout.obj
 0001:0006c4a0       ?add_multiply_carry@__crt_strtox@@YAIAAIIII@Z 1006d4a0 f i libucrtd:cfout.obj
 0001:0006c4e0       ?bit_scan_reverse@__crt_strtox@@YAII@Z 1006d4e0 f i libucrtd:cfout.obj
 0001:0006c510       ?count_sequential_high_zeroes@__crt_strtox@@YAII@Z 1006d510 f i libucrtd:cfout.obj
 0001:0006c550       ?divide@__crt_strtox@@YA_KAAUbig_integer@1@ABU21@@Z 1006d550 f i libucrtd:cfout.obj
 0001:0006cfd0       ?is_zero@__crt_strtox@@YA_NABUbig_integer@1@@Z 1006dfd0 f i libucrtd:cfout.obj
 0001:0006d000       ?make_big_integer@__crt_strtox@@YA?AUbig_integer@1@_K@Z 1006e000 f i libucrtd:cfout.obj
 0001:0006d0b0       ?make_big_integer_power_of_two@__crt_strtox@@YA?AUbig_integer@1@I@Z 1006e0b0 f i libucrtd:cfout.obj
 0001:0006d160       ?multiply@__crt_strtox@@YA_NAAUbig_integer@1@ABU21@@Z 1006e160 f i libucrtd:cfout.obj
 0001:0006d4e0       ?multiply@__crt_strtox@@YA_NAAUbig_integer@1@I@Z 1006e4e0 f i libucrtd:cfout.obj
 0001:0006d5b0       ?multiply_64_32@__crt_strtox@@YA_K_KI@Z 1006e5b0 f i libucrtd:cfout.obj
 0001:0006d5d0       ?multiply_by_power_of_ten@__crt_strtox@@YA_NAAUbig_integer@1@I@Z 1006e5d0 f i libucrtd:cfout.obj
 0001:0006d770       ?multiply_core@__crt_strtox@@YAIQAIII@Z 1006e770 f i libucrtd:cfout.obj
 0001:0006d7e0       ?shift_left@__crt_strtox@@YA_NAAUbig_integer@1@I@Z 1006e7e0 f i libucrtd:cfout.obj
 0001:0006db30       ___acrt_fltout             1006eb30 f   libucrtd:cfout.obj
 0001:0006e620       ?has_big_buffer@__crt_stdio_stream@@QBE_NXZ 1006f620 f i libucrtd:_flsbuf.obj
 0001:0006e720       ___acrt_stdio_flush_and_write_narrow_nolock 1006f720 f   libucrtd:_flsbuf.obj
 0001:0006e750       ___acrt_stdio_flush_and_write_wide_nolock 1006f750 f   libucrtd:_flsbuf.obj
 0001:0006e780       ??0__crt_stdio_stream@@QAE@QAU__crt_stdio_stream_data@@@Z 1006f780 f i libucrtd:closeall.obj
 0001:0006e7a0       ?is_in_use@__crt_stdio_stream@@QBE_NXZ 1006f7a0 f i libucrtd:closeall.obj
 0001:0006e7e0       __fcloseall                1006f7e0 f   libucrtd:closeall.obj
 0001:0006eec0       ?__acrt_stdio_reset_buffer@@YAXV__crt_stdio_stream@@@Z 1006fec0 f i libucrtd:fflush.obj
 0001:0006efc0       ?has_all_of@__crt_stdio_stream@@QBE_NJ@Z 1006ffc0 f i libucrtd:fflush.obj
 0001:0006f090       ___acrt_stdio_flush_nolock 10070090 f   libucrtd:fflush.obj
 0001:0006f160       __fflush_nolock            10070160 f   libucrtd:fflush.obj
 0001:0006f1e0       __flushall                 100701e0 f   libucrtd:fflush.obj
 0001:0006f200       _fflush                    10070200 f   libucrtd:fflush.obj
 0001:0006f270       ?has_crt_buffer@__crt_stdio_stream@@QBE_NXZ 10070270 f i libucrtd:_freebuf.obj
 0001:0006f290       ___acrt_stdio_free_buffer_nolock 10070290 f   libucrtd:_freebuf.obj
 0001:0006f340       __isatty                   10070340 f   libucrtd:isatty.obj
 0001:0006f410       ??$?RUlconv@@@__crt_internal_free_policy@@QBEXQBUlconv@@@Z 10070410 f i libucrtd:initmon.obj
 0001:0006f430       ??0?$__crt_unique_heap_ptr@Ulconv@@U__crt_internal_free_policy@@@@QAE@QAUlconv@@@Z 10070430 f i libucrtd:initmon.obj
 0001:0006f450       ??1?$__crt_unique_heap_ptr@Ulconv@@U__crt_internal_free_policy@@@@QAE@XZ 10070450 f i libucrtd:initmon.obj
 0001:0006f470       ?detach@?$__crt_unique_heap_ptr@Ulconv@@U__crt_internal_free_policy@@@@QAEPAUlconv@@XZ 10070470 f i libucrtd:initmon.obj
 0001:0006f4a0       ?release@?$__crt_unique_heap_ptr@Ulconv@@U__crt_internal_free_policy@@@@QAEXXZ 100704a0 f i libucrtd:initmon.obj
 0001:0006f4d0       ___acrt_locale_free_monetary 100704d0 f   libucrtd:initmon.obj
 0001:0006f680       ___acrt_locale_initialize_monetary 10070680 f   libucrtd:initmon.obj
 0001:0006fd20       ___acrt_locale_free_numeric 10070d20 f   libucrtd:initnum.obj
 0001:0006fdd0       ___acrt_locale_initialize_numeric 10070dd0 f   libucrtd:initnum.obj
 0001:00070220       ??$?RU__crt_lc_time_data@@@__crt_internal_free_policy@@QBEXQBU__crt_lc_time_data@@@Z 10071220 f i libucrtd:inittime.obj
 0001:00070300       ??0?$__crt_unique_heap_ptr@U__crt_lc_time_data@@U__crt_internal_free_policy@@@@QAE@QAU__crt_lc_time_data@@@Z 10071300 f i libucrtd:inittime.obj
 0001:00070320       ??1?$__crt_unique_heap_ptr@U__crt_lc_time_data@@U__crt_internal_free_policy@@@@QAE@XZ 10071320 f i libucrtd:inittime.obj
 0001:00070340       ??B?$__crt_unique_heap_ptr@U__crt_lc_time_data@@U__crt_internal_free_policy@@@@QBE_NXZ 10071340 f i libucrtd:inittime.obj
 0001:00070360       ?detach@?$__crt_unique_heap_ptr@U__crt_lc_time_data@@U__crt_internal_free_policy@@@@QAEPAU__crt_lc_time_data@@XZ 10071360 f i libucrtd:inittime.obj
 0001:000703d0       ?get@?$__crt_unique_heap_ptr@U__crt_lc_time_data@@U__crt_internal_free_policy@@@@QBEPAU__crt_lc_time_data@@XZ 100713d0 f i libucrtd:inittime.obj
 0001:000708a0       ?is_valid@?$__crt_unique_heap_ptr@U__crt_lc_time_data@@U__crt_internal_free_policy@@@@QBE_NXZ 100718a0 f i libucrtd:inittime.obj
 0001:000708d0       ?release@?$__crt_unique_heap_ptr@U__crt_lc_time_data@@U__crt_internal_free_policy@@@@QAEXXZ 100718d0 f i libucrtd:inittime.obj
 0001:00070900       ___acrt_locale_free_time   10071900 f   libucrtd:inittime.obj
 0001:00070a50       ___acrt_locale_initialize_time 10071a50 f   libucrtd:inittime.obj
 0001:00070ad0       ___pctype_func             10071ad0 f   libucrtd:ctype.obj
 0001:00070b10       ___pwctype_func            10071b10 f   libucrtd:ctype.obj
 0001:00070ff0       _wcsncat_s                 10071ff0 f   libucrtd:wcsncat_s.obj
 0001:00071010       _wcscmp                    10072010 f   libucrtd:wcscmp.obj
 0001:00071090       _wcscspn                   10072090 f   libucrtd:wcscspn.obj
 0001:00071100       _wcspbrk                   10072100 f   libucrtd:wcspbrk.obj
 0001:00071160       ??0?$__crt_scoped_stack_ptr@_W@@QAE@U?$__crt_scoped_stack_ptr_tag@_W@@@Z 10072160 f i libucrtd:getstringtypea.obj
 0001:00071180       ??0?$__crt_scoped_stack_ptr_tag@_W@@QAE@QA_W@Z 10072180 f i libucrtd:getstringtypea.obj
 0001:000711a0       ??1?$__crt_scoped_stack_ptr@_W@@QAE@XZ 100721a0 f i libucrtd:getstringtypea.obj
 0001:000711c0       ?get@?$__crt_scoped_stack_ptr@_W@@QBEPA_WXZ 100721c0 f i libucrtd:getstringtypea.obj
 0001:000711e0       __MallocaComputeSize       100721e0 f i libucrtd:getstringtypea.obj
 0001:00071210       __MarkAllocaS              10072210 f i libucrtd:getstringtypea.obj
 0001:00071240       ___acrt_GetStringTypeA     10072240 f   libucrtd:getstringtypea.obj
 0001:000713f0       __freea_crt                100723f0 f i libucrtd:getstringtypea.obj
 0001:00071fc0       ___acrt_get_qualified_locale 10072fc0 f   libucrtd:get_qualified_locale.obj
 0001:00072fd0       ___acrt_get_qualified_locale_downlevel 10073fd0 f   libucrtd:getqloc_downlevel.obj
 0001:00073270       _localeconv                10074270 f   libucrtd:localeconv.obj
 0001:000732b0       ??$?RU__crt_lowio_handle_data@@@__crt_internal_free_policy@@QBEXQBU__crt_lowio_handle_data@@@Z 100742b0 f i libucrtd:osfinfo.obj
 0001:000732d0       ??0?$__crt_unique_heap_ptr@U__crt_lowio_handle_data@@U__crt_internal_free_policy@@@@QAE@QAU__crt_lowio_handle_data@@@Z 100742d0 f i libucrtd:osfinfo.obj
 0001:000732f0       ??1?$__crt_unique_heap_ptr@U__crt_lowio_handle_data@@U__crt_internal_free_policy@@@@QAE@XZ 100742f0 f i libucrtd:osfinfo.obj
 0001:00073310       ??B?$__crt_unique_heap_ptr@U__crt_lowio_handle_data@@U__crt_internal_free_policy@@@@QBE_NXZ 10074310 f i libucrtd:osfinfo.obj
 0001:00073330       ?detach@?$__crt_unique_heap_ptr@U__crt_lowio_handle_data@@U__crt_internal_free_policy@@@@QAEPAU__crt_lowio_handle_data@@XZ 10074330 f i libucrtd:osfinfo.obj
 0001:00073360       ?get@?$__crt_unique_heap_ptr@U__crt_lowio_handle_data@@U__crt_internal_free_policy@@@@QBEPAU__crt_lowio_handle_data@@XZ 10074360 f i libucrtd:osfinfo.obj
 0001:00073380       ?is_valid@?$__crt_unique_heap_ptr@U__crt_lowio_handle_data@@U__crt_internal_free_policy@@@@QBE_NXZ 10074380 f i libucrtd:osfinfo.obj
 0001:000733b0       ?release@?$__crt_unique_heap_ptr@U__crt_lowio_handle_data@@U__crt_internal_free_policy@@@@QAEXXZ 100743b0 f i libucrtd:osfinfo.obj
 0001:000733e0       ___acrt_lowio_create_handle_array 100743e0 f   libucrtd:osfinfo.obj
 0001:00073540       ___acrt_lowio_destroy_handle_array 10074540 f   libucrtd:osfinfo.obj
 0001:000735a0       ___acrt_lowio_ensure_fh_exists 100745a0 f   libucrtd:osfinfo.obj
 0001:00073700       ___acrt_lowio_lock_fh      10074700 f   libucrtd:osfinfo.obj
 0001:00073730       ___acrt_lowio_set_os_handle 10074730 f   libucrtd:osfinfo.obj
 0001:00073800       ___acrt_lowio_unlock_fh    10074800 f   libucrtd:osfinfo.obj
 0001:00073830       __alloc_osfhnd             10074830 f   libucrtd:osfinfo.obj
 0001:00073a10       __free_osfhnd              10074a10 f   libucrtd:osfinfo.obj
 0001:00073b00       __get_osfhandle            10074b00 f   libucrtd:osfinfo.obj
 0001:00073c80       __open_osfhandle           10074c80 f   libucrtd:osfinfo.obj
 0001:00073e80       __malloc_base              10074e80 f   libucrtd:malloc_base.obj
 0001:00074030       _qsort                     10075030 f   libucrtd:qsort.obj
 0001:000746b0       _strpbrk                   100756b0 f   libucrtd:strpbrk.obj
 0001:000746f0       ??B?$__crt_scoped_stack_ptr@_W@@QBE_NXZ 100756f0 f i libucrtd:lcmapstringa.obj
 0001:00074ae0       ___acrt_LCMapStringA       10075ae0 f   libucrtd:lcmapstringa.obj
 0001:00074b70       __wcsnicoll                10075b70 f   libucrtd:wcsnicol.obj
 0001:00074d30       __wcsnicoll_l              10075d30 f   libucrtd:wcsnicol.obj
 0001:00074f80       __strnicoll                10075f80 f   libucrtd:strnicol.obj
 0001:00074fd0       __strnicoll_l              10075fd0 f   libucrtd:strnicol.obj
 0001:000753f0       ___acrt_SetEnvironmentVariableA 100763f0 f   libucrtd:setenvironmentvariablea.obj
 0001:000755b0       ___acrt_DownlevelLCIDToLocaleName 100765b0 f   libucrtd:lcidtoname_downlevel.obj
 0001:00075680       ___acrt_DownlevelLocaleNameToLCID 10076680 f   libucrtd:lcidtoname_downlevel.obj
 0001:000756c0       __set_error_mode           100766c0 f   libucrtd:set_error_mode.obj
 0001:00075780       ___acrt_GetStringTypeW     10076780 f   libucrtd:getstringtypew.obj
 0001:000757a0       ?__wcsrtombs_utf8@__crt_mbstring@@YAIPADPAPB_WIPAU_Mbstatet@@@Z 100767a0 f   libucrtd:wcrtomb.obj
 0001:00075f80       _wcrtomb                   10076f80 f   libucrtd:wcrtomb.obj
 0001:00075fd0       _wcrtomb_s                 10076fd0 f   libucrtd:wcrtomb.obj
 0001:000760f0       _wcsrtombs                 100770f0 f   libucrtd:wcrtomb.obj
 0001:00076110       _wcsrtombs_s               10077110 f   libucrtd:wcrtomb.obj
 0001:00076460       _wctob                     10077460 f   libucrtd:wcrtomb.obj
 0001:000764e0       ?__mbrtoc32_utf8@__crt_mbstring@@YAIPA_UPBDIPAU_Mbstatet@@@Z 100774e0 f   libucrtd:mbrtoc32.obj
 0001:000767b0       _mbrtoc32                  100777b0 f   libucrtd:mbrtoc32.obj
 0001:00076950       ___acrt_GetLocaleInfoA     10077950 f   libucrtd:getlocaleinfoa.obj
 0001:00076d10       _log10                     10077d10 f   libucrtd:log10.obj
 0001:00076d60       _ceil                      10077d60 f   libucrtd:ceil_pentium4.obj
 0001:00076da0       __ceil_pentium4            10077da0 f   libucrtd:ceil_pentium4.obj
 0001:00076e80       _fegetenv                  10077e80 f   libucrtd:fegetenv.obj
 0001:00076ea0       _fesetenv                  10077ea0 f   libucrtd:fesetenv.obj
 0001:00076f10       _feholdexcept              10077f10 f   libucrtd:feholdexcept.obj
 0001:000784e0       __utf8_no_of_trailbytes    100794e0 f i libucrtd:write.obj
 0001:00078500       __write                    10079500 f   libucrtd:write.obj
 0001:00078750       __write_nolock             10079750 f   libucrtd:write.obj
 0001:00079310       __lseek                    1007a310 f   libucrtd:lseek.obj
 0001:00079330       __lseek_nolock             1007a330 f   libucrtd:lseek.obj
 0001:00079350       __lseeki64                 1007a350 f   libucrtd:lseek.obj
 0001:00079370       __lseeki64_nolock          1007a370 f   libucrtd:lseek.obj
 0001:00079390       ___acrt_stdio_allocate_buffer_nolock 1007a390 f   libucrtd:_getbuf.obj
 0001:000794a0       __fclose_nolock            1007a4a0 f   libucrtd:fclose.obj
 0001:000795e0       _fclose                    1007a5e0 f   libucrtd:fclose.obj
 0001:00079940       __commit                   1007a940 f   libucrtd:commit.obj
 0001:00079aa0       ___ascii_wcsicmp           1007aaa0 f   libucrtd:wcsicmp.obj
 0001:00079b10       __towlower_fast_internal   1007ab10 f i libucrtd:wcsicmp.obj
 0001:00079b50       __towlower_internal        1007ab50 f i libucrtd:wcsicmp.obj
 0001:00079b90       __wcsicmp                  1007ab90 f   libucrtd:wcsicmp.obj
 0001:00079cd0       __wcsicmp_l                1007acd0 f   libucrtd:wcsicmp.obj
 0001:00079eb0       ___ascii_wcsnicmp          1007aeb0 f   libucrtd:wcsnicmp.obj
 0001:00079f40       __wcsnicmp                 1007af40 f   libucrtd:wcsnicmp.obj
 0001:0007a080       __wcsnicmp_l               1007b080 f   libucrtd:wcsnicmp.obj
 0001:0007a280       ___strncnt                 1007b280 f   libucrtd:strncnt.obj
 0001:0007a2d0       ___acrt_CompareStringW     1007b2d0 f   libucrtd:comparestringw.obj
 0001:0007a380       __strnicmp                 1007b380 f   libucrtd:strnicmp.obj
 0001:0007a540       __strnicmp_l               1007b540 f   libucrtd:strnicmp.obj
 0001:0007ac10       ___acrt_CompareStringA     1007bc10 f   libucrtd:comparestringa.obj
 0001:0007ac70       ?__c16rtomb_utf8@__crt_mbstring@@YAIPAD_SPAU_Mbstatet@@@Z 1007bc70 f   libucrtd:c16rtomb.obj
 0001:0007ae70       _c16rtomb                  1007be70 f   libucrtd:c16rtomb.obj
 0001:0007ae90       ___acrt_initialize_sse2    1007be90 f   libucrtd:mathfcns.obj
 0001:0007aeb0       __set_SSE2_enable          1007beb0 f   libucrtd:mathfcns.obj
 0001:0007af00       __CIlog10                  1007bf00 f   libucrtd:log10_impl.obj
 0001:0007af3b       __CIlog10_default          1007bf3b f   libucrtd:log10_impl.obj
 0001:0007af4f       __log10_default            1007bf4f     libucrtd:log10_impl.obj
 0001:0007b010       __CIlog10_pentium4         1007c010 f   libucrtd:log10_pentium4.obj
 0001:0007b028       __log10_pentium4           1007c028     libucrtd:log10_pentium4.obj
 0001:0007b2a0       ___libm_error_support      1007c2a0 f   libucrtd:libm_error.obj
 0001:0007b860       ___libm_setusermatherr     1007c860 f   libucrtd:libm_error.obj
 0001:0007b8a0       __ceil_default             1007c8a0 f   libucrtd:ceil.obj
 0001:0007b9c0       ??$__acrt_fenv_shift_bits@W4__acrt_fenv_abstract_control@@@@YA?AW4__acrt_fenv_abstract_control@@W40@0I@Z 1007c9c0 f i libucrtd:_fenvutils.obj
 0001:0007b9e0       ??$__acrt_fenv_shift_bits@W4__acrt_fenv_abstract_status@@@@YA?AW4__acrt_fenv_abstract_status@@W40@0I@Z 1007c9e0 f i libucrtd:_fenvutils.obj
 0001:0007ba00       ??$__acrt_fenv_translate_bit@W4__acrt_fenv_abstract_control@@W4__acrt_fenv_machine_sse_control@@@@YA?AW4__acrt_fenv_abstract_control@@W4__acrt_fenv_machine_sse_control@@0W40@1@Z 1007ca00 f i libucrtd:_fenvutils.obj
 0001:0007ba40       ??$__acrt_fenv_translate_bit@W4__acrt_fenv_abstract_control@@W4__acrt_fenv_machine_x87_control@@@@YA?AW4__acrt_fenv_abstract_control@@W4__acrt_fenv_machine_x87_control@@0W40@1@Z 1007ca40 f i libucrtd:_fenvutils.obj
 0001:0007ba80       ??$__acrt_fenv_translate_bit@W4__acrt_fenv_abstract_status@@W4__acrt_fenv_machine_sse_status@@@@YA?AW4__acrt_fenv_abstract_status@@W4__acrt_fenv_machine_sse_status@@0W40@1@Z 1007ca80 f i libucrtd:_fenvutils.obj
 0001:0007bac0       ??$__acrt_fenv_translate_bit@W4__acrt_fenv_abstract_status@@W4__acrt_fenv_machine_x87_status@@@@YA?AW4__acrt_fenv_abstract_status@@W4__acrt_fenv_machine_x87_status@@0W40@1@Z 1007cac0 f i libucrtd:_fenvutils.obj
 0001:0007bb00       ??$__acrt_fenv_translate_bit@W4__acrt_fenv_machine_sse_control@@W4__acrt_fenv_abstract_control@@@@YA?AW4__acrt_fenv_machine_sse_control@@W4__acrt_fenv_abstract_control@@0W40@1@Z 1007cb00 f i libucrtd:_fenvutils.obj
 0001:0007bb40       ??$__acrt_fenv_translate_bit@W4__acrt_fenv_machine_sse_status@@W4__acrt_fenv_abstract_status@@@@YA?AW4__acrt_fenv_machine_sse_status@@W4__acrt_fenv_abstract_status@@0W40@1@Z 1007cb40 f i libucrtd:_fenvutils.obj
 0001:0007bb80       ??$__acrt_fenv_translate_bit@W4__acrt_fenv_machine_x87_control@@W4__acrt_fenv_abstract_control@@@@YA?AW4__acrt_fenv_machine_x87_control@@W4__acrt_fenv_abstract_control@@0W40@1@Z 1007cb80 f i libucrtd:_fenvutils.obj
 0001:0007bbc0       ??$__acrt_fenv_translate_bit@W4__acrt_fenv_machine_x87_status@@W4__acrt_fenv_abstract_status@@@@YA?AW4__acrt_fenv_machine_x87_status@@W4__acrt_fenv_abstract_status@@0W40@1@Z 1007cbc0 f i libucrtd:_fenvutils.obj
 0001:0007bc00       ??$__acrt_fenv_unshift_bits@W4__acrt_fenv_abstract_control@@@@YA?AW4__acrt_fenv_abstract_control@@W40@0I@Z 1007cc00 f i libucrtd:_fenvutils.obj
 0001:0007bc20       ??$__acrt_fenv_unshift_bits@W4__acrt_fenv_abstract_status@@@@YA?AW4__acrt_fenv_abstract_status@@W40@0I@Z 1007cc20 f i libucrtd:_fenvutils.obj
 0001:0007c650       ??I@YA?AW4__acrt_fenv_abstract_control@@W40@0@Z 1007d650 f i libucrtd:_fenvutils.obj
 0001:0007c660       ??I@YA?AW4__acrt_fenv_abstract_status@@W40@0@Z 1007d660 f i libucrtd:_fenvutils.obj
 0001:0007c670       ??I@YA?AW4__acrt_fenv_machine_sse_control@@W40@0@Z 1007d670 f i libucrtd:_fenvutils.obj
 0001:0007c690       ??I@YA?AW4__acrt_fenv_machine_sse_status@@W40@0@Z 1007d690 f i libucrtd:_fenvutils.obj
 0001:0007c6a0       ??I@YA?AW4__acrt_fenv_machine_x87_control@@W40@0@Z 1007d6a0 f i libucrtd:_fenvutils.obj
 0001:0007c6c0       ??I@YA?AW4__acrt_fenv_machine_x87_status@@W40@0@Z 1007d6c0 f i libucrtd:_fenvutils.obj
 0001:0007c6d0       ??U@YA?AW4__acrt_fenv_abstract_control@@W40@0@Z 1007d6d0 f i libucrtd:_fenvutils.obj
 0001:0007c6e0       ??U@YA?AW4__acrt_fenv_abstract_status@@W40@0@Z 1007d6e0 f i libucrtd:_fenvutils.obj
 0001:0007c6f0       ??U@YA?AW4__acrt_fenv_machine_sse_control@@W40@0@Z 1007d6f0 f i libucrtd:_fenvutils.obj
 0001:0007c710       ??U@YA?AW4__acrt_fenv_machine_x87_control@@W40@0@Z 1007d710 f i libucrtd:_fenvutils.obj
 0001:0007c730       ??_5@YAAAW4__acrt_fenv_abstract_control@@AAW40@W40@@Z 1007d730 f i libucrtd:_fenvutils.obj
 0001:0007c750       ??_5@YAAAW4__acrt_fenv_abstract_status@@AAW40@W40@@Z 1007d750 f i libucrtd:_fenvutils.obj
 0001:0007c770       ??_5@YAAAW4__acrt_fenv_machine_sse_control@@AAW40@W40@@Z 1007d770 f i libucrtd:_fenvutils.obj
 0001:0007c790       ??_5@YAAAW4__acrt_fenv_machine_sse_status@@AAW40@W40@@Z 1007d790 f i libucrtd:_fenvutils.obj
 0001:0007c7b0       ??_5@YAAAW4__acrt_fenv_machine_x87_control@@AAW40@W40@@Z 1007d7b0 f i libucrtd:_fenvutils.obj
 0001:0007c7d0       ??_5@YAAAW4__acrt_fenv_machine_x87_status@@AAW40@W40@@Z 1007d7d0 f i libucrtd:_fenvutils.obj
 0001:0007c7f0       ?__acrt_fenv_shift_abstract_sse_control@@YA?AW4__acrt_fenv_abstract_control@@W41@@Z 1007d7f0 f i libucrtd:_fenvutils.obj
 0001:0007c830       ?__acrt_fenv_shift_abstract_sse_status@@YA?AW4__acrt_fenv_abstract_status@@W41@@Z 1007d830 f i libucrtd:_fenvutils.obj
 0001:0007c850       ?__acrt_fenv_shift_abstract_x87_control@@YA?AW4__acrt_fenv_abstract_control@@W41@@Z 1007d850 f i libucrtd:_fenvutils.obj
 0001:0007c890       ?__acrt_fenv_shift_abstract_x87_status@@YA?AW4__acrt_fenv_abstract_status@@W41@@Z 1007d890 f i libucrtd:_fenvutils.obj
 0001:0007c8b0       ?__acrt_fenv_unshift_abstract_sse_control@@YA?AW4__acrt_fenv_abstract_control@@W41@@Z 1007d8b0 f i libucrtd:_fenvutils.obj
 0001:0007c8f0       ?__acrt_fenv_unshift_abstract_sse_status@@YA?AW4__acrt_fenv_abstract_status@@W41@@Z 1007d8f0 f i libucrtd:_fenvutils.obj
 0001:0007c910       ?__acrt_fenv_unshift_abstract_x87_control@@YA?AW4__acrt_fenv_abstract_control@@W41@@Z 1007d910 f i libucrtd:_fenvutils.obj
 0001:0007c950       ?__acrt_fenv_unshift_abstract_x87_status@@YA?AW4__acrt_fenv_abstract_status@@W41@@Z 1007d950 f i libucrtd:_fenvutils.obj
 0001:0007ce80       ___acrt_fenv_expand_round_control 1007de80 f   libucrtd:_fenvutils.obj
 0001:0007cec0       ___acrt_fenv_get_common_round_control 1007dec0 f   libucrtd:_fenvutils.obj
 0001:0007cf20       ___acrt_fenv_get_control   1007df20 f   libucrtd:_fenvutils.obj
 0001:0007cfa0       ___acrt_fenv_get_fp_status_word_from_exception_mask 1007dfa0 f   libucrtd:_fenvutils.obj
 0001:0007cfe0       ___acrt_fenv_get_status    1007dfe0 f   libucrtd:_fenvutils.obj
 0001:0007d050       ___acrt_fenv_set_control   1007e050 f   libucrtd:_fenvutils.obj
 0001:0007d090       ___acrt_fenv_set_status    1007e090 f   libucrtd:_fenvutils.obj
 0001:0007d2e0       ___control87_2             1007e2e0 f   libucrtd:ieee87.obj
 0001:0007d410       ___fpreset_sse2            1007e410 f   libucrtd:ieee87.obj
 0001:0007d780       __clearfp                  1007e780 f   libucrtd:ieee87.obj
 0001:0007d7d0       __control87                1007e7d0 f   libucrtd:ieee87.obj
 0001:0007d880       __controlfp                1007e880 f   libucrtd:ieee87.obj
 0001:0007d8a0       __fpreset                  1007e8a0 f   libucrtd:ieee87.obj
 0001:0007da60       __set_controlfp            1007ea60 f   libucrtd:ieee87.obj
 0001:0007daf0       __statusfp                 1007eaf0 f   libucrtd:ieee87.obj
 0001:0007db40       __statusfp2                1007eb40 f   libucrtd:ieee87.obj
 0001:0007dc57       __putwch                   1007ec57 f   libucrtd:putwch.obj
 0001:0007dc84       __putwch_nolock            1007ec84 f   libucrtd:putwch.obj
 0001:0007e6c0       __read                     1007f6c0 f   libucrtd:read.obj
 0001:0007e9a0       __read_nolock              1007f9a0 f   libucrtd:read.obj
 0001:0007f5f0       __close                    100805f0 f   libucrtd:close.obj
 0001:0007f770       __close_nolock             10080770 f   libucrtd:close.obj
 0001:0007f7d0       ??$?RU__crt_stdio_stream_data@@@__crt_internal_free_policy@@QBEXQBU__crt_stdio_stream_data@@@Z 100807d0 f i libucrtd:stream.obj
 0001:0007f7f0       ??0?$__crt_unique_heap_ptr@U__crt_stdio_stream_data@@U__crt_internal_free_policy@@@@QAE@QAU__crt_stdio_stream_data@@@Z 100807f0 f i libucrtd:stream.obj
 0001:0007f810       ??0__crt_stdio_stream@@QAE@XZ 10080810 f i libucrtd:stream.obj
 0001:0007f830       ??1?$__crt_unique_heap_ptr@U__crt_stdio_stream_data@@U__crt_internal_free_policy@@@@QAE@XZ 10080830 f i libucrtd:stream.obj
 0001:0007f850       ?__acrt_stdio_allocate_stream@@YA?AV__crt_stdio_stream@@XZ 10080850 f   libucrtd:stream.obj
 0001:0007f940       ?__acrt_stdio_free_stream@@YAXV__crt_stdio_stream@@@Z 10080940 f   libucrtd:stream.obj
 0001:0007f9c0       ?deallocate@__crt_stdio_stream@@QAEXXZ 100809c0 f i libucrtd:stream.obj
 0001:0007f9e0       ?detach@?$__crt_unique_heap_ptr@U__crt_stdio_stream_data@@U__crt_internal_free_policy@@@@QAEPAU__crt_stdio_stream_data@@XZ 100809e0 f i libucrtd:stream.obj
 0001:0007fb50       ?lock@__crt_stdio_stream@@QBEXXZ 10080b50 f i libucrtd:stream.obj
 0001:0007fb70       ?release@?$__crt_unique_heap_ptr@U__crt_stdio_stream_data@@U__crt_internal_free_policy@@@@QAEXXZ 10080b70 f i libucrtd:stream.obj
 0001:0007fba0       ?try_allocate@__crt_stdio_stream@@QAE_NXZ 10080ba0 f i libucrtd:stream.obj
 0001:0007fbf0       ?unlock@__crt_stdio_stream@@QBEXXZ 10080bf0 f i libucrtd:stream.obj
 0001:0007fc10       __towlower_l               10080c10 f   libucrtd:towlower.obj
 0001:0007fd10       _towlower                  10080d10 f   libucrtd:towlower.obj
 0001:0007fd30       ___ascii_strnicmp          10080d30 f   libucrtd:_strnicm.obj
 0001:0007fdc0       __fFEXP                    10080dc0 f   libucrtd:87tran.obj
 0001:0007fe17       __rtinfpopse               10080e17     libucrtd:87tran.obj
 0001:0007fe19       __rtinfnpopse              10080e19     libucrtd:87tran.obj
 0001:0007fe29       __fFLN                     10080e29     libucrtd:87tran.obj
 0001:0007fede       __rtinfpop                 10080ede     libucrtd:87tran.obj
 0001:0007fee0       __rtinfnpop                10080ee0     libucrtd:87tran.obj
 0001:0007fef0       __rtforexpinf              10080ef0 f   libucrtd:87tran.obj
 0001:0007fefd       __ffexpm1                  10080efd     libucrtd:87tran.obj
 0001:0007ffb0       __trandisp1                10080fb0 f   libucrtd:87disp.obj
 0001:00080025       __trandisp2                10081025 f   libucrtd:87disp.obj
 0001:000800bf       __rttospopde               100810bf     libucrtd:87disp.obj
 0001:000800c4       __rttospop                 100810c4     libucrtd:87disp.obj
 0001:000800d0       __rtnospop                 100810d0 f   libucrtd:87disp.obj
 0001:000800e0       __rttosnpop                100810e0 f   libucrtd:87disp.obj
 0001:000800e1       __rtnospopde               100810e1     libucrtd:87disp.obj
 0001:000800e8       __rtzeropop                100810e8     libucrtd:87disp.obj
 0001:000800ea       __rtzeronpop               100810ea     libucrtd:87disp.obj
 0001:000800f0       __rtzerospop               100810f0 f   libucrtd:87disp.obj
 0001:000800fd       __rtonepop                 100810fd     libucrtd:87disp.obj
 0001:00080100       __rtonenpop                10081100 f   libucrtd:87disp.obj
 0001:00080110       __tosnan1                  10081110 f   libucrtd:87disp.obj
 0001:00080140       __nosnan2                  10081140 f   libucrtd:87disp.obj
 0001:00080150       __tosnan2                  10081150 f   libucrtd:87disp.obj
 0001:00080180       __nan2                     10081180 f   libucrtd:87disp.obj
 0001:000801c0       __rtindfpop                100811c0 f   libucrtd:87disp.obj
 0001:000801c2       __rtindfnpop               100811c2     libucrtd:87disp.obj
 0001:000801d3       __rttosnpopde              100811d3     libucrtd:87disp.obj
 0001:000801e0       __rtatan2inf               100811e0 f   libucrtd:87disp.obj
 0001:000801fd       __rtchsifneg               100811fd     libucrtd:87disp.obj
 0001:00080210       ___setfflag                10081210 f   libucrtd:fp_flags.obj
 0001:00080230       __twoToTOS                 10081230 f   libucrtd:common.obj
 0001:00080245       __load_CW                  10081245 f   libucrtd:common.obj
 0001:0008025c       __convertTOStoQNaN         1008125c f   libucrtd:common.obj
 0001:00080275       __fload_withFB             10081275 f   libucrtd:common.obj
 0001:000802b8       __checkTOS_withFB          100812b8 f   libucrtd:common.obj
 0001:000802ce       __fast_exit                100812ce f   libucrtd:common.obj
 0001:000802db       __math_exit                100812db f   libucrtd:common.obj
 0001:00080305       __check_overflow_exit      10081305 f   libucrtd:common.obj
 0001:00080319       __check_range_exit         10081319 f   libucrtd:common.obj
 0001:000803c0       __startTwoArgErrorHandling 100813c0 f   libucrtd:genexcep.obj
 0001:000803d7       __startOneArgErrorHandling 100813d7 f   libucrtd:genexcep.obj
 0001:00080420       __frnd                     10081420 f   libucrtd:frnd.obj
 0001:00080440       __errcode                  10081440 f   libucrtd:fpexcept.obj
 0001:000804b0       __except1                  100814b0 f   libucrtd:fpexcept.obj
 0001:000805b0       __except2                  100815b0 f   libucrtd:fpexcept.obj
 0001:00080710       __handle_exc               10081710 f   libucrtd:fpexcept.obj
 0001:00080a30       __handle_qnan2             10081a30 f   libucrtd:fpexcept.obj
 0001:00080a50       __raise_exc                10081a50 f   libucrtd:fpexcept.obj
 0001:00080a80       __raise_exc_ex             10081a80 f   libucrtd:fpexcept.obj
 0001:00081000       __raise_excf               10082000 f   libucrtd:fpexcept.obj
 0001:00081030       __set_errno_from_matherr   10082030 f   libucrtd:fpexcept.obj
 0001:00081070       __umatherr                 10082070 f   libucrtd:fpexcept.obj
 0001:00081110       __add_exp                  10082110 f   libucrtd:util.obj
 0001:00081150       __decomp                   10082150 f   libucrtd:util.obj
 0001:00081280       __get_exp                  10082280 f   libucrtd:util.obj
 0001:000812b0       __set_bexp                 100822b0 f   libucrtd:util.obj
 0001:000812e0       __set_exp                  100822e0 f   libucrtd:util.obj
 0001:00081320       __sptype                   10082320 f   libucrtd:util.obj
 0001:000813a0       ___clrfp_sse2              100823a0 f   libucrtd:fpctrl.obj
 0001:000813e0       ___ctrlfp_sse2             100823e0 f   libucrtd:fpctrl.obj
 0001:00081440       ___fclrf_sse2              10082440 f   libucrtd:fpctrl.obj
 0001:00081460       ___get_fpsr_sse2           10082460 f   libucrtd:fpctrl.obj
 0001:00081490       ___set_fpsr_sse2           10082490 f   libucrtd:fpctrl.obj
 0001:00081570       ___set_statfp_sse2         10082570 f   libucrtd:fpctrl.obj
 0001:000815a0       ___statfp_sse2             100825a0 f   libucrtd:fpctrl.obj
 0001:000815d0       __clrfp                    100825d0 f   libucrtd:fpctrl.obj
 0001:000815f0       __ctrlfp                   100825f0 f   libucrtd:fpctrl.obj
 0001:00081620       __set_statfp               10082620 f   libucrtd:fpctrl.obj
 0001:00081690       __statfp                   10082690 f   libucrtd:fpctrl.obj
 0001:000816b0       __controlfp_s              100826b0 f   libucrtd:contrlfp.obj
 0001:00081845       ___dcrt_lowio_ensure_console_output_initialized 10082845 f   libucrtd:initcon.obj
 0001:00081864       ___dcrt_terminate_console_output 10082864 f   libucrtd:initcon.obj
 0001:0008187b       ___dcrt_write_console      1008287b f   libucrtd:initcon.obj
 0001:000818d0       ___acrt_LCMapStringW       100828d0 f   libucrtd:lcmapstringw.obj
 0001:00081930       __d_inttype                10082930 f   libucrtd:powhlp.obj
 0001:000819c0       __powhlp                   100829c0 f   libucrtd:powhlp.obj
 0001:00081b60       __87except                 10082b60 f   libucrtd:87except.obj
 0001:00081d50       __chgsign                  10082d50 f   libucrtd:ieeemisc.obj
 0001:00081d90       __chgsignf                 10082d90 f   libucrtd:ieeemisc.obj
 0001:00081dd0       __copysign                 10082dd0 f   libucrtd:ieeemisc.obj
 0001:00081e10       __copysignf                10082e10 f   libucrtd:ieeemisc.obj
 0001:00081e60       __finite                   10082e60 f   libucrtd:ieeemisc.obj
 0001:00081e80       __fpclass                  10082e80 f   libucrtd:ieeemisc.obj
 0001:00081f80       __isnan                    10082f80 f   libucrtd:ieeemisc.obj
 0001:00081fd0       __logb                     10082fd0 f   libucrtd:ieeemisc.obj
 0001:000820f0       __nextafter                100830f0 f   libucrtd:ieeemisc.obj
 0001:00082120       __scalb                    10083120 f   libucrtd:ieeemisc.obj
 0001:00082140       _ldexp                     10083140 f   libucrtd:ldexp.obj
 0001:00082440       _nextafter                 10083440 f   libucrtd:nextafter.obj
 0001:00082470       _nexttoward                10083470 f   libucrtd:nexttoward.obj
 0001:000828a0       __d_int                    100838a0 f   libucrtd:_test.obj
 0001:00082b50       __dtest                    10083b50 f   libucrtd:_test.obj
 0001:00082c70       __fd_int                   10083c70 f   libucrtd:_test.obj
 0001:00082e50       __fdtest                   10083e50 f   libucrtd:_test.obj
 0001:00082f20       __fperrraise               10083f20 f   libucrtd:_test.obj
 0001:00082f50       __ld_int                   10083f50 f   libucrtd:_test.obj
 0001:00082f70       __ldtest                   10083f70 f   libucrtd:_test.obj
 0001:00082f90       ??_4@YAAAW4__acrt_fenv_abstract_status@@AAW40@W40@@Z 10083f90 f i libucrtd:fegetexceptflag.obj
 0001:00082fb0       _fegetexceptflag           10083fb0 f   libucrtd:fegetexceptflag.obj
 0001:00083000       ??S@YA?AW4__acrt_fenv_abstract_status@@W40@@Z 10084000 f i libucrtd:fesetexceptflag.obj
 0001:00083010       _fesetexceptflag           10084010 f   libucrtd:fesetexceptflag.obj
 0001:000830d0       _fetestexcept              100840d0 f   libucrtd:fetestexcept.obj
 0001:000830f7       _IsDebuggerPresent@0       100840f7 f   kernel32:KERNEL32.dll
 0001:000830fd       _OutputDebugStringW@4      100840fd f   kernel32:KERNEL32.dll
 0001:00083103       _UnhandledExceptionFilter@4 10084103 f   kernel32:KERNEL32.dll
 0001:00083109       _SetUnhandledExceptionFilter@4 10084109 f   kernel32:KERNEL32.dll
 0001:0008310f       _GetCurrentProcess@0       1008410f f   kernel32:KERNEL32.dll
 0001:00083115       _TerminateProcess@8        10084115 f   kernel32:KERNEL32.dll
 0001:0008311b       _IsProcessorFeaturePresent@4 1008411b f   kernel32:KERNEL32.dll
 0001:00083121       _GetStartupInfoW@4         10084121 f   kernel32:KERNEL32.dll
 0001:00083127       _WideCharToMultiByte@32    10084127 f   kernel32:KERNEL32.dll
 0001:0008312d       _QueryPerformanceCounter@4 1008412d f   kernel32:KERNEL32.dll
 0001:00083133       _GetCurrentProcessId@0     10084133 f   kernel32:KERNEL32.dll
 0001:00083139       _GetCurrentThreadId@0      10084139 f   kernel32:KERNEL32.dll
 0001:0008313f       _GetSystemTimeAsFileTime@4 1008413f f   kernel32:KERNEL32.dll
 0001:00083145       _InitializeSListHead@4     10084145 f   kernel32:KERNEL32.dll
 0001:0008314b       _HeapAlloc@12              1008414b f   kernel32:KERNEL32.dll
 0001:00083151       _HeapFree@12               10084151 f   kernel32:KERNEL32.dll
 0001:00083157       _GetProcessHeap@0          10084157 f   kernel32:KERNEL32.dll
 0001:0008315d       _VirtualQuery@12           1008415d f   kernel32:KERNEL32.dll
 0001:00083163       _RtlUnwind@16              10084163 f   kernel32:KERNEL32.dll
 0001:00083169       _InterlockedPushEntrySList@8 10084169 f   kernel32:KERNEL32.dll
 0001:0008316f       _InterlockedFlushSList@4   1008416f f   kernel32:KERNEL32.dll
 0001:00083175       _InitializeCriticalSectionAndSpinCount@8 10084175 f   kernel32:KERNEL32.dll
 0001:0008317b       _TlsAlloc@0                1008417b f   kernel32:KERNEL32.dll
 0001:00083181       _TlsGetValue@4             10084181 f   kernel32:KERNEL32.dll
 0001:00083187       _TlsSetValue@8             10084187 f   kernel32:KERNEL32.dll
 0001:0008318d       _TlsFree@4                 1008418d f   kernel32:KERNEL32.dll
 0001:00083193       _GetModuleHandleExW@12     10084193 f   kernel32:KERNEL32.dll
 0001:00083199       _ExitProcess@4             10084199 f   kernel32:KERNEL32.dll
 0001:0008319f       _HeapValidate@12           1008419f f   kernel32:KERNEL32.dll
 0001:000831a5       _GetSystemInfo@4           100841a5 f   kernel32:KERNEL32.dll
 0001:000831ab       _GetStdHandle@4            100841ab f   kernel32:KERNEL32.dll
 0001:000831b1       _GetFileType@4             100841b1 f   kernel32:KERNEL32.dll
 0001:000831b7       _WriteFile@20              100841b7 f   kernel32:KERNEL32.dll
 0001:000831bd       _WriteConsoleW@20          100841bd f   kernel32:KERNEL32.dll
 0001:000831c3       _SetConsoleCtrlHandler@8   100841c3 f   kernel32:KERNEL32.dll
 0001:000831c9       _GetCurrentThread@0        100841c9 f   kernel32:KERNEL32.dll
 0001:000831cf       _HeapSize@12               100841cf f   kernel32:KERNEL32.dll
 0001:000831d5       _HeapReAlloc@16            100841d5 f   kernel32:KERNEL32.dll
 0001:000831db       _FindClose@4               100841db f   kernel32:KERNEL32.dll
 0001:000831e1       _FindFirstFileExW@24       100841e1 f   kernel32:KERNEL32.dll
 0001:000831e7       _FindNextFileW@8           100841e7 f   kernel32:KERNEL32.dll
 0001:000831ed       _IsValidCodePage@4         100841ed f   kernel32:KERNEL32.dll
 0001:000831f3       _GetACP@0                  100841f3 f   kernel32:KERNEL32.dll
 0001:000831f9       _GetOEMCP@0                100841f9 f   kernel32:KERNEL32.dll
 0001:000831ff       _GetCPInfo@8               100841ff f   kernel32:KERNEL32.dll
 0001:00083205       _GetCommandLineA@0         10084205 f   kernel32:KERNEL32.dll
 0001:0008320b       _GetCommandLineW@0         1008420b f   kernel32:KERNEL32.dll
 0001:00083211       _GetEnvironmentStringsW@0  10084211 f   kernel32:KERNEL32.dll
 0001:00083217       _FreeEnvironmentStringsW@4 10084217 f   kernel32:KERNEL32.dll
 0001:0008321d       _SetEnvironmentVariableW@8 1008421d f   kernel32:KERNEL32.dll
 0001:00083223       _GetDateFormatW@24         10084223 f   kernel32:KERNEL32.dll
 0001:00083229       _GetTimeFormatW@24         10084229 f   kernel32:KERNEL32.dll
 0001:0008322f       _CompareStringW@24         1008422f f   kernel32:KERNEL32.dll
 0001:00083235       _LCMapStringW@24           10084235 f   kernel32:KERNEL32.dll
 0001:0008323b       _GetLocaleInfoW@16         1008423b f   kernel32:KERNEL32.dll
 0001:00083241       _IsValidLocale@8           10084241 f   kernel32:KERNEL32.dll
 0001:00083247       _GetUserDefaultLCID@0      10084247 f   kernel32:KERNEL32.dll
 0001:0008324d       _EnumSystemLocalesW@8      1008424d f   kernel32:KERNEL32.dll
 0001:00083253       _HeapQueryInformation@20   10084253 f   kernel32:KERNEL32.dll
 0001:00083259       _GetFileSizeEx@8           10084259 f   kernel32:KERNEL32.dll
 0001:0008325f       _SetFilePointerEx@20       1008425f f   kernel32:KERNEL32.dll
 0001:00083265       _GetStringTypeW@16         10084265 f   kernel32:KERNEL32.dll
 0001:0008326b       _SetStdHandle@8            1008426b f   kernel32:KERNEL32.dll
 0001:00083271       _GetConsoleCP@0            10084271 f   kernel32:KERNEL32.dll
 0001:00083277       _GetConsoleMode@8          10084277 f   kernel32:KERNEL32.dll
 0001:0008327d       _FlushFileBuffers@4        1008427d f   kernel32:KERNEL32.dll
 0001:00083283       _ReadFile@20               10084283 f   kernel32:KERNEL32.dll
 0001:00083289       _ReadConsoleW@20           10084289 f   kernel32:KERNEL32.dll
 0001:0008328f       _CloseHandle@4             1008428f f   kernel32:KERNEL32.dll
 0001:00083295       _CreateFileW@28            10084295 f   kernel32:KERNEL32.dll
 0001:000832a0       __FindPESection            100842a0 f   LIBCMTD:pesect.obj
 0001:00083320       __IsNonwritableInCurrentImage 10084320 f   LIBCMTD:pesect.obj
 0001:00083450       __ValidateImageBase        10084450 f   LIBCMTD:pesect.obj
 0001:000834b0       __allshl                   100844b0 f   LIBCMTD:llshl.obj
 0001:000834d0       __aulldiv                  100844d0 f   LIBCMTD:ulldiv.obj
 0001:00083540       __aullrem                  10084540 f   LIBCMTD:ullrem.obj
 0001:000835c0       __allmul                   100845c0 f   LIBCMTD:llmul.obj
 0001:00083600       __alldiv                   10084600 f   LIBCMTD:lldiv.obj
 0001:000836b0       __allrem                   100846b0 f   LIBCMTD:llrem.obj
 0001:00083770       __aullshr                  10084770 f   LIBCMTD:ullshr.obj
 0001:00083790       __alloca_probe_16          10084790 f   LIBCMTD:alloca16.obj
 0001:000837a6       __alloca_probe_8           100847a6     LIBCMTD:alloca16.obj
 0001:000837c0       __ftol2_sse                100847c0 f   LIBCMTD:ftol2.obj
 0001:000837c9       __ftol2_pentium4           100847c9 f   LIBCMTD:ftol2.obj
 0001:000837dc       __ftol2_sse_excpt          100847dc f   LIBCMTD:ftol2.obj
 0001:00083800       __ftol2                    10084800 f   LIBCMTD:ftol2.obj
 0001:00083880       __initialize_default_precision 10084880 f   LIBCMTD:default_precision.obj
 0001:000838b0       __SEH_prolog4              100848b0 f   LIBCMTD:sehprolg4.obj
 0001:000838f6       __SEH_epilog4              100848f6 f   LIBCMTD:sehprolg4.obj
 0001:00083910       _strrchr                   10084910 f   libvcruntimed:strrchr.obj
 0001:00083a50       _strchr                    10084a50 f   libvcruntimed:strchr.obj
 0001:00083abe       ___from_strstr_to_strchr   10084abe     libvcruntimed:strchr.obj
 0001:00083b80       _wcschr                    10084b80 f   libvcruntimed:wcschr.obj
 0001:00083cf0       __filter_x86_sse2_floating_point_exception_default 10084cf0 f   LIBCMTD:x86_exception_filter.obj
 0001:00083cf0       __filter_x86_sse2_floating_point_exception 10084cf0 f   LIBCMTD:x86_exception_filter.obj
 0002:00000000       __imp__RegQueryInfoKeyW@48 10086000     advapi32:ADVAPI32.dll
 0002:00000004       __imp__RegOpenKeyExW@20    10086004     advapi32:ADVAPI32.dll
 0002:00000008       __imp__RegEnumKeyExW@32    10086008     advapi32:ADVAPI32.dll
 0002:0000000c       __imp__RegDeleteValueW@8   1008600c     advapi32:ADVAPI32.dll
 0002:00000010       __imp__RegDeleteKeyW@8     10086010     advapi32:ADVAPI32.dll
 0002:00000014       __imp__RegCreateKeyExW@36  10086014     advapi32:ADVAPI32.dll
 0002:00000018       __imp__RegCloseKey@4       10086018     advapi32:ADVAPI32.dll
 0002:0000001c       __imp__RegSetValueExW@24   1008601c     advapi32:ADVAPI32.dll
 0002:00000020       \177ADVAPI32_NULL_THUNK_DATA 10086020     advapi32:ADVAPI32.dll
 0002:00000024       __imp__DisableThreadLibraryCalls@4 10086024     kernel32:KERNEL32.dll
 0002:00000028       __imp__FreeLibrary@4       10086028     kernel32:KERNEL32.dll
 0002:0000002c       __imp__GetModuleFileNameW@12 1008602c     kernel32:KERNEL32.dll
 0002:00000030       __imp__GetModuleHandleW@4  10086030     kernel32:KERNEL32.dll
 0002:00000034       __imp__GetProcAddress@8    10086034     kernel32:KERNEL32.dll
 0002:00000038       __imp__LoadLibraryExW@12   10086038     kernel32:KERNEL32.dll
 0002:0000003c       __imp__LoadResource@8      1008603c     kernel32:KERNEL32.dll
 0002:00000040       __imp__LeaveCriticalSection@4 10086040     kernel32:KERNEL32.dll
 0002:00000044       __imp__FindResourceW@12    10086044     kernel32:KERNEL32.dll
 0002:00000048       __imp__lstrcmpiW@8         10086048     kernel32:KERNEL32.dll
 0002:0000004c       __imp__MultiByteToWideChar@24 1008604c     kernel32:KERNEL32.dll
 0002:00000050       __imp__CloseHandle@4       10086050     kernel32:KERNEL32.dll
 0002:00000054       __imp__ReadConsoleW@20     10086054     kernel32:KERNEL32.dll
 0002:00000058       __imp__ReadFile@20         10086058     kernel32:KERNEL32.dll
 0002:0000005c       __imp__FlushFileBuffers@4  1008605c     kernel32:KERNEL32.dll
 0002:00000060       __imp__EnterCriticalSection@4 10086060     kernel32:KERNEL32.dll
 0002:00000064       __imp__EncodePointer@4     10086064     kernel32:KERNEL32.dll
 0002:00000068       __imp__DeleteCriticalSection@4 10086068     kernel32:KERNEL32.dll
 0002:0000006c       __imp__InitializeCriticalSectionEx@12 1008606c     kernel32:KERNEL32.dll
 0002:00000070       __imp__SetLastError@4      10086070     kernel32:KERNEL32.dll
 0002:00000074       __imp__GetLastError@0      10086074     kernel32:KERNEL32.dll
 0002:00000078       __imp__RaiseException@16   10086078     kernel32:KERNEL32.dll
 0002:0000007c       __imp__SizeofResource@8    1008607c     kernel32:KERNEL32.dll
 0002:00000080       __imp__DecodePointer@4     10086080     kernel32:KERNEL32.dll
 0002:00000084       __imp__GetConsoleMode@8    10086084     kernel32:KERNEL32.dll
 0002:00000088       __imp__GetConsoleCP@0      10086088     kernel32:KERNEL32.dll
 0002:0000008c       __imp__SetStdHandle@8      1008608c     kernel32:KERNEL32.dll
 0002:00000090       __imp__GetStringTypeW@16   10086090     kernel32:KERNEL32.dll
 0002:00000094       __imp__SetFilePointerEx@20 10086094     kernel32:KERNEL32.dll
 0002:00000098       __imp__GetFileSizeEx@8     10086098     kernel32:KERNEL32.dll
 0002:0000009c       __imp__HeapQueryInformation@20 1008609c     kernel32:KERNEL32.dll
 0002:000000a0       __imp__EnumSystemLocalesW@8 100860a0     kernel32:KERNEL32.dll
 0002:000000a4       __imp__GetUserDefaultLCID@0 100860a4     kernel32:KERNEL32.dll
 0002:000000a8       __imp__IsValidLocale@8     100860a8     kernel32:KERNEL32.dll
 0002:000000ac       __imp__GetLocaleInfoW@16   100860ac     kernel32:KERNEL32.dll
 0002:000000b0       __imp__LCMapStringW@24     100860b0     kernel32:KERNEL32.dll
 0002:000000b4       __imp__CompareStringW@24   100860b4     kernel32:KERNEL32.dll
 0002:000000b8       __imp__GetTimeFormatW@24   100860b8     kernel32:KERNEL32.dll
 0002:000000bc       __imp__IsDebuggerPresent@0 100860bc     kernel32:KERNEL32.dll
 0002:000000c0       __imp__OutputDebugStringW@4 100860c0     kernel32:KERNEL32.dll
 0002:000000c4       __imp__UnhandledExceptionFilter@4 100860c4     kernel32:KERNEL32.dll
 0002:000000c8       __imp__SetUnhandledExceptionFilter@4 100860c8     kernel32:KERNEL32.dll
 0002:000000cc       __imp__GetCurrentProcess@0 100860cc     kernel32:KERNEL32.dll
 0002:000000d0       __imp__TerminateProcess@8  100860d0     kernel32:KERNEL32.dll
 0002:000000d4       __imp__IsProcessorFeaturePresent@4 100860d4     kernel32:KERNEL32.dll
 0002:000000d8       __imp__GetStartupInfoW@4   100860d8     kernel32:KERNEL32.dll
 0002:000000dc       __imp__WideCharToMultiByte@32 100860dc     kernel32:KERNEL32.dll
 0002:000000e0       __imp__QueryPerformanceCounter@4 100860e0     kernel32:KERNEL32.dll
 0002:000000e4       __imp__GetCurrentProcessId@0 100860e4     kernel32:KERNEL32.dll
 0002:000000e8       __imp__GetCurrentThreadId@0 100860e8     kernel32:KERNEL32.dll
 0002:000000ec       __imp__GetSystemTimeAsFileTime@4 100860ec     kernel32:KERNEL32.dll
 0002:000000f0       __imp__InitializeSListHead@4 100860f0     kernel32:KERNEL32.dll
 0002:000000f4       __imp__HeapAlloc@12        100860f4     kernel32:KERNEL32.dll
 0002:000000f8       __imp__HeapFree@12         100860f8     kernel32:KERNEL32.dll
 0002:000000fc       __imp__GetProcessHeap@0    100860fc     kernel32:KERNEL32.dll
 0002:00000100       __imp__VirtualQuery@12     10086100     kernel32:KERNEL32.dll
 0002:00000104       __imp__RtlUnwind@16        10086104     kernel32:KERNEL32.dll
 0002:00000108       __imp__InterlockedPushEntrySList@8 10086108     kernel32:KERNEL32.dll
 0002:0000010c       __imp__InterlockedFlushSList@4 1008610c     kernel32:KERNEL32.dll
 0002:00000110       __imp__InitializeCriticalSectionAndSpinCount@8 10086110     kernel32:KERNEL32.dll
 0002:00000114       __imp__TlsAlloc@0          10086114     kernel32:KERNEL32.dll
 0002:00000118       __imp__TlsGetValue@4       10086118     kernel32:KERNEL32.dll
 0002:0000011c       __imp__TlsSetValue@8       1008611c     kernel32:KERNEL32.dll
 0002:00000120       __imp__TlsFree@4           10086120     kernel32:KERNEL32.dll
 0002:00000124       __imp__GetModuleHandleExW@12 10086124     kernel32:KERNEL32.dll
 0002:00000128       __imp__ExitProcess@4       10086128     kernel32:KERNEL32.dll
 0002:0000012c       __imp__HeapValidate@12     1008612c     kernel32:KERNEL32.dll
 0002:00000130       __imp__GetSystemInfo@4     10086130     kernel32:KERNEL32.dll
 0002:00000134       __imp__GetStdHandle@4      10086134     kernel32:KERNEL32.dll
 0002:00000138       __imp__GetFileType@4       10086138     kernel32:KERNEL32.dll
 0002:0000013c       __imp__WriteFile@20        1008613c     kernel32:KERNEL32.dll
 0002:00000140       __imp__WriteConsoleW@20    10086140     kernel32:KERNEL32.dll
 0002:00000144       __imp__SetConsoleCtrlHandler@8 10086144     kernel32:KERNEL32.dll
 0002:00000148       __imp__GetCurrentThread@0  10086148     kernel32:KERNEL32.dll
 0002:0000014c       __imp__HeapSize@12         1008614c     kernel32:KERNEL32.dll
 0002:00000150       __imp__HeapReAlloc@16      10086150     kernel32:KERNEL32.dll
 0002:00000154       __imp__FindClose@4         10086154     kernel32:KERNEL32.dll
 0002:00000158       __imp__FindFirstFileExW@24 10086158     kernel32:KERNEL32.dll
 0002:0000015c       __imp__FindNextFileW@8     1008615c     kernel32:KERNEL32.dll
 0002:00000160       __imp__IsValidCodePage@4   10086160     kernel32:KERNEL32.dll
 0002:00000164       __imp__GetACP@0            10086164     kernel32:KERNEL32.dll
 0002:00000168       __imp__GetOEMCP@0          10086168     kernel32:KERNEL32.dll
 0002:0000016c       __imp__GetCPInfo@8         1008616c     kernel32:KERNEL32.dll
 0002:00000170       __imp__GetCommandLineA@0   10086170     kernel32:KERNEL32.dll
 0002:00000174       __imp__GetCommandLineW@0   10086174     kernel32:KERNEL32.dll
 0002:00000178       __imp__GetEnvironmentStringsW@0 10086178     kernel32:KERNEL32.dll
 0002:0000017c       __imp__FreeEnvironmentStringsW@4 1008617c     kernel32:KERNEL32.dll
 0002:00000180       __imp__SetEnvironmentVariableW@8 10086180     kernel32:KERNEL32.dll
 0002:00000184       __imp__GetDateFormatW@24   10086184     kernel32:KERNEL32.dll
 0002:00000188       __imp__CreateFileW@28      10086188     kernel32:KERNEL32.dll
 0002:0000018c       \177KERNEL32_NULL_THUNK_DATA 1008618c     kernel32:KERNEL32.dll
 0002:00000190       __imp__LoadTypeLib@8       10086190     oleaut32:OLEAUT32.dll
 0002:00000194       __imp__UnRegisterTypeLib@20 10086194     oleaut32:OLEAUT32.dll
 0002:00000198       __imp__SysStringLen@4      10086198     oleaut32:OLEAUT32.dll
 0002:0000019c       __imp__SysAllocString@4    1008619c     oleaut32:OLEAUT32.dll
 0002:000001a0       __imp__SysFreeString@4     100861a0     oleaut32:OLEAUT32.dll
 0002:000001a4       __imp__VarUI4FromStr@16    100861a4     oleaut32:OLEAUT32.dll
 0002:000001a8       __imp__RegisterTypeLib@12  100861a8     oleaut32:OLEAUT32.dll
 0002:000001ac       \177OLEAUT32_NULL_THUNK_DATA 100861ac     oleaut32:OLEAUT32.dll
 0002:000001b0       __imp__UnregisterClassW@8  100861b0     user32:USER32.dll
 0002:000001b4       __imp__CharNextW@4         100861b4     user32:USER32.dll
 0002:000001b8       \177USER32_NULL_THUNK_DATA 100861b8     user32:USER32.dll
 0002:000001bc       __imp__CoTaskMemRealloc@8  100861bc     ole32:ole32.dll
 0002:000001c0       __imp__CoCreateInstance@20 100861c0     ole32:ole32.dll
 0002:000001c4       __imp__StringFromGUID2@12  100861c4     ole32:ole32.dll
 0002:000001c8       __imp__CoTaskMemAlloc@4    100861c8     ole32:ole32.dll
 0002:000001cc       __imp__CoTaskMemFree@4     100861cc     ole32:ole32.dll
 0002:000001d0       \177ole32_NULL_THUNK_DATA  100861d0     ole32:ole32.dll
 0002:000001d4       ___guard_check_icall_fptr  100861d4     LIBCMTD:guard_support.obj
 0002:000001d8       ___xc_a                    100861d8     LIBCMTD:initializers.obj
 0002:00000248       ___xc_z                    10086248     LIBCMTD:initializers.obj
 0002:0000024c       ___xi_a                    1008624c     LIBCMTD:initializers.obj
 0002:00000250       ___acrt_stdio_initializer  10086250     libucrtd:stdio_initializer.obj
 0002:00000254       ___acrt_multibyte_initializer 10086254     libucrtd:multibyte_initializer.obj
 0002:00000258       ___acrt_tran_sse2_initializer 10086258     libucrtd:sse2_initializer.obj
 0002:0000025c       ___xi_z                    1008625c     LIBCMTD:initializers.obj
 0002:00000260       ___xp_a                    10086260     LIBCMTD:initializers.obj
 0002:00000264       ___acrt_locale_terminator  10086264     libucrtd:locale_initializer.obj
 0002:00000268       ___dcrt_console_output_terminator 10086268     libucrtd:console_output_initializer.obj
 0002:0000026c       ___acrt_stdio_terminator   1008626c     libucrtd:stdio_initializer.obj
 0002:00000270       ___xp_z                    10086270     LIBCMTD:initializers.obj
 0002:00000274       ___xt_a                    10086274     LIBCMTD:initializers.obj
 0002:00000278       ___xt_z                    10086278     LIBCMTD:initializers.obj
 0002:0000207c       _LIBID_ATLLib              1008807c     StdAfx.obj
 0002:0000208c       ?chDirSep@ATL@@3_WB        1008808c     StdAfx.obj
 0002:00002090       ?chRightBracket@ATL@@3_WB  10088090     StdAfx.obj
 0002:00002094       ?chLeftBracket@ATL@@3_WB   10088094     StdAfx.obj
 0002:00002098       ?chQuote@ATL@@3_WB         10088098     StdAfx.obj
 0002:0000209c       ?chEquals@ATL@@3_WB        1008809c     StdAfx.obj
 0002:000020a0       ?szStringVal@ATL@@3QB_WB   100880a0     StdAfx.obj
 0002:000020a4       ?multiszStringVal@ATL@@3QB_WB 100880a4     StdAfx.obj
 0002:000020a8       ?szDwordVal@ATL@@3QB_WB    100880a8     StdAfx.obj
 0002:000020ac       ?szBinaryVal@ATL@@3QB_WB   100880ac     StdAfx.obj
 0002:000020b0       ?szValToken@ATL@@3QB_WB    100880b0     StdAfx.obj
 0002:000020b4       ?szForceRemove@ATL@@3QB_WB 100880b4     StdAfx.obj
 0002:000020b8       ?szNoRemove@ATL@@3QB_WB    100880b8     StdAfx.obj
 0002:000020bc       ?szDelete@ATL@@3QB_WB      100880bc     StdAfx.obj
 0002:000020c0       _CLSID_Registrar           100880c0     StdAfx.obj
 0002:000020d0       _IID_IRegistrar            100880d0     StdAfx.obj
 0002:000020e0       _IID_IDocHostUIHandlerDispatch 100880e0     StdAfx.obj
 0002:000020f0       _IID_IAxWinHostWindow      100880f0     StdAfx.obj
 0002:00002100       _IID_IAxWinHostWindowLic   10088100     StdAfx.obj
 0002:00002110       _IID_IAxWinAmbientDispatch 10088110     StdAfx.obj
 0002:00002120       _IID_IAxWinAmbientDispatchEx 10088120     StdAfx.obj
 0002:00002130       _IID_IInternalConnection   10088130     StdAfx.obj
 0002:00002140       ??_C@_13COJANIEC@?$AA0@    10088140     StdAfx.obj
 0002:00002144       ??_C@_17CNPHIMPH@?$AA?$CF?$AAl?$AAs@ 10088144     StdAfx.obj
 0002:00002150       ??_C@_1OE@JOBBNNDF@?$AAC?$AA?3?$AA?2?$AAP?$AAr?$AAo?$AAg?$AAr?$AAa?$AAm?$AA?5?$AAF?$AAi?$AAl?$AAe@ 10088150     StdAfx.obj
 0002:00002234       ??_C@_1O@LFNDFEBP@?$AA?$CF?$AAl?$AAs?$AA?5?$AA?9?$AA?5@ 10088234     StdAfx.obj
 0002:00002244       ??_C@_1M@PGKOAACE@?$AA?$CF?$AAu?$AA?5?$AA?9?$AA?5@ 10088244     StdAfx.obj
 0002:00002250       ??_C@_1O@OAIPCDPO@?$AA?$CF?$AAl?$AAs?$AA?$CF?$AAl?$AAs@ 10088250     StdAfx.obj
 0002:00002260       ??_C@_17LGGGMOOB@?$AA?$CF?$AAh?$AAs@ 10088260     StdAfx.obj
 0002:00002268       ??_C@_1EO@EBPPKGOM@?$AAf?$AAa?$AAl?$AAs?$AAe?$AA?5?$AA?$CG?$AA?$CG?$AA?5?$AA?$CC?$AAT?$AAo?$AAo?$AA?5?$AAm@ 10088268     StdAfx.obj
 0002:000022b8       ??_C@_1OE@ONLKLPLG@?$AAC?$AA?3?$AA?2?$AAP?$AAr?$AAo?$AAg?$AAr?$AAa?$AAm?$AA?5?$AAF?$AAi?$AAl?$AAe@ 100882b8     StdAfx.obj
 0002:000023a0       ??_C@_1OC@CHADIGKG@?$AAC?$AA?3?$AA?2?$AAP?$AAr?$AAo?$AAg?$AAr?$AAa?$AAm?$AA?5?$AAF?$AAi?$AAl?$AAe@ 100883a0     StdAfx.obj
 0002:00002488       ??_C@_0HB@MCHNLOIM@C?3?2Program?5Files?5?$CIx86?$CJ?2Microsof@ 10088488     StdAfx.obj
 0002:00002500       ??_C@_1IA@KEEOONGN@?$AAE?$AAR?$AAR?$AAO?$AAR?$AA?5?$AA?3?$AA?5?$AAU?$AAn?$AAa?$AAb?$AAl?$AAe?$AA?5@ 10088500     StdAfx.obj
 0002:00002580       ??_C@_1IG@OPJAFKJH@?$AAE?$AAR?$AAR?$AAO?$AAR?$AA?5?$AA?3?$AA?5?$AAU?$AAn?$AAa?$AAb?$AAl?$AAe?$AA?5@ 10088580     StdAfx.obj
 0002:00002608       ??_C@_1EA@JHMKKLFC@?$AAn?$AAI?$AAn?$AAd?$AAe?$AAx?$AA?5?$AA?$DO?$AA?$DN?$AA?5?$AA0?$AA?5?$AA?$CG?$AA?$CG?$AA?5@ 10088608     StdAfx.obj
 0002:00002648       ??_C@_1OK@PHBFGBNG@?$AAC?$AA?3?$AA?2?$AAP?$AAr?$AAo?$AAg?$AAr?$AAa?$AAm?$AA?5?$AAF?$AAi?$AAl?$AAe@ 10088648     StdAfx.obj
 0002:00002734       ??_C@_1BK@NHECDDNK@?$AAm?$AA_?$AAp?$AAD?$AAa?$AAt?$AAa?$AA?5?$AA?$DN?$AA?$DN?$AA?5?$AA0@ 10088734     StdAfx.obj
 0002:0000454c       _LIBID_OPOSINTERFACESLib   1008a54c     OposInterfaces.obj
 0002:0000455c       _DIID_IOPOSBeltSO          1008a55c     OposInterfaces.obj
 0002:0000456c       _DIID_IOPOSBillAcceptorSO  1008a56c     OposInterfaces.obj
 0002:0000457c       _DIID_IOPOSBillDispenserSO 1008a57c     OposInterfaces.obj
 0002:0000458c       _DIID_IOPOSBiometricsSO    1008a58c     OposInterfaces.obj
 0002:0000459c       _DIID_IOPOSBumpBarSO       1008a59c     OposInterfaces.obj
 0002:000045ac       _DIID_IOPOSCashChangerSO   1008a5ac     OposInterfaces.obj
 0002:000045bc       _DIID_IOPOSCashDrawerSO    1008a5bc     OposInterfaces.obj
 0002:000045cc       _DIID_IOPOSCATSO           1008a5cc     OposInterfaces.obj
 0002:000045dc       _DIID_IOPOSCheckScannerSO  1008a5dc     OposInterfaces.obj
 0002:000045ec       _DIID_IOPOSCoinAcceptorSO  1008a5ec     OposInterfaces.obj
 0002:000045fc       _DIID_IOPOSCoinDispenserSO 1008a5fc     OposInterfaces.obj
 0002:0000460c       _DIID_IOPOSElectronicJournalSO 1008a60c     OposInterfaces.obj
 0002:0000461c       _DIID_IOPOSElectronicValueRWSO 1008a61c     OposInterfaces.obj
 0002:0000462c       _DIID_IOPOSFiscalPrinterSO 1008a62c     OposInterfaces.obj
 0002:0000463c       _DIID_IOPOSGateSO          1008a63c     OposInterfaces.obj
 0002:0000464c       _DIID_IOPOSImageScannerSO  1008a64c     OposInterfaces.obj
 0002:0000465c       _DIID_IOPOSItemDispenserSO 1008a65c     OposInterfaces.obj
 0002:0000466c       _DIID_IOPOSKeylockSO       1008a66c     OposInterfaces.obj
 0002:0000467c       _DIID_IOPOSLightsSO        1008a67c     OposInterfaces.obj
 0002:0000468c       _DIID_IOPOSLineDisplaySO   1008a68c     OposInterfaces.obj
 0002:0000469c       _DIID_IOPOSMICRSO          1008a69c     OposInterfaces.obj
 0002:000046ac       _DIID_IOPOSMotionSensorSO  1008a6ac     OposInterfaces.obj
 0002:000046bc       _DIID_IOPOSMSRSO           1008a6bc     OposInterfaces.obj
 0002:000046cc       _DIID_IOPOSPINPadSO        1008a6cc     OposInterfaces.obj
 0002:000046dc       _DIID_IOPOSPointCardRWSO   1008a6dc     OposInterfaces.obj
 0002:000046ec       _DIID_IOPOSPOSKeyboardSO   1008a6ec     OposInterfaces.obj
 0002:000046fc       _DIID_IOPOSPOSPowerSO      1008a6fc     OposInterfaces.obj
 0002:0000470c       _DIID_IOPOSPOSPrinterSO    1008a70c     OposInterfaces.obj
 0002:0000471c       _DIID_IOPOSRemoteOrderDisplaySO 1008a71c     OposInterfaces.obj
 0002:0000472c       _DIID_IOPOSRFIDScannerSO   1008a72c     OposInterfaces.obj
 0002:0000473c       _DIID_IOPOSScaleSO         1008a73c     OposInterfaces.obj
 0002:0000474c       _DIID_IOPOSScannerSO       1008a74c     OposInterfaces.obj
 0002:0000475c       _DIID_IOPOSSignatureCaptureSO 1008a75c     OposInterfaces.obj
 0002:0000476c       _DIID_IOPOSSmartCardRWSO   1008a76c     OposInterfaces.obj
 0002:0000477c       _DIID_IOPOSToneIndicatorSO 1008a77c     OposInterfaces.obj
 0002:0000478c       _DIID_IOPOSHardTotalsSO    1008a78c     OposInterfaces.obj
 0002:000047a0       ??_C@_0HD@NJLPEDHO@C?3?2Program?5Files?5?$CIx86?$CJ?2Microsof@ 1008a7a0     OposInterfaces.obj
 0002:00004814       ??_C@_1CK@DFMKPFAK@?$AAA?$AAt?$AAl?$AAT?$AAh?$AAr?$AAo?$AAw?$AA?3?$AA?5?$AAh?$AAr?$AA?5?$AA?$DN?$AA?5@ 1008a814     OposInterfaces.obj
 0002:00004840       ??_C@_1M@HLGKFCJM@?$AAf?$AAa?$AAl?$AAs?$AAe@ 1008a840     OposInterfaces.obj
 0002:00004850       ??_C@_1OG@PAKCOIDO@?$AAC?$AA?3?$AA?2?$AAP?$AAr?$AAo?$AAg?$AAr?$AAa?$AAm?$AA?5?$AAF?$AAi?$AAl?$AAe@ 1008a850     OposInterfaces.obj
 0002:00004938       ??_C@_1BM@GBBOFEAE@?$AA_?$AA_?$AAa?$AAt?$AAl?$AA_?$AAc?$AAo?$AAn?$AAd?$AAV?$AAa?$AAl@ 1008a938     OposInterfaces.obj
 0002:00004958       ??_C@_1OG@BLIKCHKM@?$AAC?$AA?3?$AA?2?$AAP?$AAr?$AAo?$AAg?$AAr?$AAa?$AAm?$AA?5?$AAF?$AAi?$AAl?$AAe@ 1008a958     OposInterfaces.obj
 0002:00004a40       __GUID_00000000_0000_0000_c000_000000000046 1008aa40     OposInterfaces.obj
 0002:00004a50       ??_C@_1BG@ILBPLEEF@?$AAn?$AAN?$AAu?$AAl?$AAl?$AA?5?$AA?$DN?$AA?$DN?$AA?5?$AA0@ 1008aa50     OposInterfaces.obj
 0002:00004a68       ??_C@_1PO@BMFEKDOK@?$AAC?$AA?3?$AA?2?$AAP?$AAr?$AAo?$AAg?$AAr?$AAa?$AAm?$AA?5?$AAF?$AAi?$AAl?$AAe@ 1008aa68     OposInterfaces.obj
 0002:00004b68       ??_C@_1BK@BIGILECK@?$AAA?$AAd?$AAv?$AAa?$AAp?$AAi?$AA3?$AA2?$AA?4?$AAd?$AAl?$AAl@ 1008ab68     OposInterfaces.obj
 0002:00004b84       ??_C@_1BO@KNMGNOCJ@?$AAh?$AAA?$AAd?$AAv?$AAA?$AAP?$AAI?$AA3?$AA2?$AA?5?$AA?$CB?$AA?$DN?$AA?5?$AA0@ 1008ab84     OposInterfaces.obj
 0002:00004ba4       ??_C@_0BG@EKFFMJIO@RegOpenKeyTransactedW@ 1008aba4     OposInterfaces.obj
 0002:00004bbc       ??_C@_0BI@MNCFCPFK@RegCreateKeyTransactedW@ 1008abbc     OposInterfaces.obj
 0002:00004bd4       ??_C@_0BI@HAKLOOGP@RegDeleteKeyTransactedW@ 1008abd4     OposInterfaces.obj
 0002:00004bec       ??_C@_1BG@OHCCAGNO@?$AA?$CB?$AAm?$AA_?$AAb?$AAL?$AAo?$AAc?$AAk?$AAe?$AAd@ 1008abec     OposInterfaces.obj
 0002:00004c04       ??_C@_1BE@NPGJNKLA@?$AAm?$AA_?$AAb?$AAL?$AAo?$AAc?$AAk?$AAe?$AAd@ 1008ac04     OposInterfaces.obj
 0002:00004c18       ??_C@_1CC@DNHFMIHP@?$AA_?$AAp?$AAA?$AAt?$AAl?$AAM?$AAo?$AAd?$AAu?$AAl?$AAe?$AA?5?$AA?$DN?$AA?$DN?$AA?5@ 1008ac18     OposInterfaces.obj
 0002:00004c40       ??_C@_1HK@DFMOIGDB@?$AAE?$AAR?$AAR?$AAO?$AAR?$AA?5?$AA?3?$AA?5?$AAU?$AAn?$AAa?$AAb?$AAl?$AAe?$AA?5@ 1008ac40     OposInterfaces.obj
 0002:00004cbc       __GUID_00000146_0000_0000_c000_000000000046 1008acbc     OposInterfaces.obj
 0002:00004ccc       ??_C@_1BG@LENCCAOJ@?$AAp?$AAp?$AAG?$AAI?$AAT?$AA?5?$AA?$CB?$AA?$DN?$AA?5?$AA0@ 1008accc     OposInterfaces.obj
 0002:00004ce4       ??_C@_1BI@JBLBCKD@?$AAm?$AA_?$AAp?$AAG?$AAI?$AAT?$AA?5?$AA?$CB?$AA?$DN?$AA?5?$AA0@ 1008ace4     OposInterfaces.obj
 0002:00004cfc       ??_7CComModule@ATL@@6B@    1008acfc     OposInterfaces.obj
 0002:00004d24       ??_C@_1BM@NFPICFEL@?$AA_?$AAp?$AAM?$AAo?$AAd?$AAu?$AAl?$AAe?$AA?5?$AA?$DN?$AA?$DN?$AA?5?$AA0@ 1008ad24     OposInterfaces.obj
 0002:00004d40       ??_C@_1BI@JPOONHGO@?$AAm?$AA_?$AAh?$AAK?$AAe?$AAy?$AA?5?$AA?$DN?$AA?$DN?$AA?5?$AA0@ 1008ad40     OposInterfaces.obj
 0002:00004d58       ??_C@_1BI@KCHMLGAI@?$AAm?$AA_?$AAh?$AAK?$AAe?$AAy?$AA?5?$AA?$CB?$AA?$DN?$AA?5?$AA0@ 1008ad58     OposInterfaces.obj
 0002:00004d70       ??_C@_0BA@LILAPHGE@RegDeleteKeyExW@ 1008ad70     OposInterfaces.obj
 0002:00004d80       ??_C@_1CA@JAHJEEHI@?$AAh?$AAK?$AAe?$AAy?$AAP?$AAa?$AAr?$AAe?$AAn?$AAt?$AA?5?$AA?$CB?$AA?$DN?$AA?5?$AA0@ 1008ad80     OposInterfaces.obj
 0002:00004da0       ??_C@_1BG@OMKLFNDM@?$AAl?$AAR?$AAe?$AAs?$AA?5?$AA?$DN?$AA?$DN?$AA?5?$AA0?$AAL@ 1008ada0     OposInterfaces.obj
 0002:00004db8       ??_C@_1FG@MAMCHIIA@?$AA?$CI?$AAd?$AAw?$AAT?$AAy?$AAp?$AAe?$AA?5?$AA?$DN?$AA?$DN?$AA?5?$AA?$CI?$AA?5?$AA1?$AAu@ 1008adb8     OposInterfaces.obj
 0002:00004e10       ??_C@_1IA@CIKBLAHF@?$AAC?$AAR?$AAe?$AAg?$AAK?$AAe?$AAy?$AA?3?$AA?3?$AAR?$AAe?$AAc?$AAu?$AAr?$AAs@ 1008ae10     OposInterfaces.obj
 0002:00004e90       ??_C@_1DO@EIGOLNAA@?$AAl?$AAp?$AAs?$AAz?$AAK?$AAe?$AAy?$AA?5?$AA?$CB?$AA?$DN?$AA?5?$AA0?$AA?5?$AA?$CG?$AA?$CG@ 1008ae90     OposInterfaces.obj
 0002:00004ed0       ??_C@_1OC@IJCCKHFC@?$AAC?$AA?3?$AA?2?$AAP?$AAr?$AAo?$AAg?$AAr?$AAa?$AAm?$AA?5?$AAF?$AAi?$AAl?$AAe@ 1008aed0     OposInterfaces.obj
 0002:00004fb4       ??_C@_1BG@MMFPEKL@?$AAs?$AAz?$AAK?$AAe?$AAy?$AA?5?$AA?$CB?$AA?$DN?$AA?5?$AA0@ 1008afb4     OposInterfaces.obj
 0002:00004fcc       ??_C@_1BK@LDPHGFPN@?$AAs?$AAz?$AAV?$AAa?$AAl?$AAu?$AAe?$AA?5?$AA?$CB?$AA?$DN?$AA?5?$AA0@ 1008afcc     OposInterfaces.obj
 0002:00004fe8       ?rgszNeverDelete@CRegParser@ATL@@1QBQB_WB 1008afe8     OposInterfaces.obj
 0002:00005018       ??_C@_1O@JFMKDNFA@?$AAp?$AA?5?$AA?$CB?$AA?$DN?$AA?5?$AA0@ 1008b018     OposInterfaces.obj
 0002:00005028       ??_7CRegObject@ATL@@6B@    1008b028     OposInterfaces.obj
 0002:00005040       ??_C@_1JM@PMKLGAKF@?$AAs?$AAt?$AAa?$AAt?$AAi?$AAc?$AAa?$AAl?$AAl?$AAy?$AA?5?$AAl?$AAi?$AAn?$AAk@ 1008b040     OposInterfaces.obj
 0002:000050e0       ??_C@_1KC@MLBIPPDL@?$AAL?$AA?$CC?$AAs?$AAt?$AAa?$AAt?$AAi?$AAc?$AAa?$AAl?$AAl?$AAy?$AA?5?$AAl?$AAi@ 1008b0e0     OposInterfaces.obj
 0002:00005188       ??_C@_0HB@LOMGIJOA@C?3?2Program?5Files?5?$CIx86?$CJ?2Microsof@ 1008b188     OposInterfaces.obj
 0002:000051fc       ??_C@_1DM@JBIDINMA@?$AAF?$AAa?$AAi?$AAl?$AAe?$AAd?$AA?5?$AAt?$AAo?$AA?5?$AAL?$AAo?$AAa?$AAd?$AAL@ 1008b1fc     OposInterfaces.obj
 0002:00005238       ??_C@_1FE@HJDAOHJE@?$AAF?$AAa?$AAi?$AAl?$AAe?$AAd?$AA?5?$AAt?$AAo?$AA?5?$AAF?$AAi?$AAn?$AAd?$AAR@ 1008b238     OposInterfaces.obj
 0002:00005290       ??_C@_1FG@BBJFPKL@?$AAF?$AAa?$AAi?$AAl?$AAe?$AAd?$AA?5?$AAt?$AAo?$AA?5?$AAF?$AAi?$AAn?$AAd?$AAR@ 1008b290     OposInterfaces.obj
 0002:000052e8       ??_C@_1DA@KJKEAFMD@?$AAF?$AAa?$AAi?$AAl?$AAe?$AAd?$AA?5?$AAt?$AAo?$AA?5?$AAL?$AAo?$AAa?$AAd?$AAR@ 1008b2e8     OposInterfaces.obj
 0002:00005318       ??_C@_1CK@BCPDHANH@?$AAM?$AAa?$AAp?$AA?5?$AAE?$AAn?$AAt?$AAr?$AAy?$AA?5?$AAn?$AAo?$AAt?$AA?5?$AAf@ 1008b318     OposInterfaces.obj
 0002:00005348       ??_C@_1FI@KMIOGKOO@?$AAB?$AAo?$AAg?$AAu?$AAs?$AA?5?$AAv?$AAa?$AAl?$AAu?$AAe?$AA?5?$AA?$CF?$AAT?$AAc@ 1008b348     OposInterfaces.obj
 0002:000053a0       ?map@?1??HKeyFromString@CRegParser@ATL@@KAPAUHKEY__@@PA_W@Z@4QBUkeymap@?1??123@KAPAU4@0@Z@B 1008b3a0     OposInterfaces.obj
 0002:00005410       ??_C@_19NCHLBIN@?$AAH?$AAK?$AAC?$AAR@ 1008b410     OposInterfaces.obj
 0002:0000541c       ??_C@_19JAPAIJDE@?$AAH?$AAK?$AAC?$AAU@ 1008b41c     OposInterfaces.obj
 0002:00005428       ??_C@_19PEALEEJB@?$AAH?$AAK?$AAL?$AAM@ 1008b428     OposInterfaces.obj
 0002:00005434       ??_C@_17PJOJPMPB@?$AAH?$AAK?$AAU@ 1008b434     OposInterfaces.obj
 0002:0000543c       ??_C@_19PNBHMJPL@?$AAH?$AAK?$AAP?$AAD@ 1008b43c     OposInterfaces.obj
 0002:00005448       ??_C@_19GFFAIJHG@?$AAH?$AAK?$AAD?$AAD@ 1008b448     OposInterfaces.obj
 0002:00005454       ??_C@_19OFICIBHH@?$AAH?$AAK?$AAC?$AAC@ 1008b454     OposInterfaces.obj
 0002:00005460       ??_C@_1CE@PACHPJFI@?$AAH?$AAK?$AAE?$AAY?$AA_?$AAC?$AAL?$AAA?$AAS?$AAS?$AAE?$AAS?$AA_?$AAR?$AAO@ 1008b460     OposInterfaces.obj
 0002:00005484       ??_C@_1CE@HLHNCBPM@?$AAH?$AAK?$AAE?$AAY?$AA_?$AAC?$AAU?$AAR?$AAR?$AAE?$AAN?$AAT?$AA_?$AAU?$AAS@ 1008b484     OposInterfaces.obj
 0002:000054a8       ??_C@_1CG@GFBEANJL@?$AAH?$AAK?$AAE?$AAY?$AA_?$AAL?$AAO?$AAC?$AAA?$AAL?$AA_?$AAM?$AAA?$AAC?$AAH@ 1008b4a8     OposInterfaces.obj
 0002:000054d0       ??_C@_1BG@BGODANIO@?$AAH?$AAK?$AAE?$AAY?$AA_?$AAU?$AAS?$AAE?$AAR?$AAS@ 1008b4d0     OposInterfaces.obj
 0002:000054e8       ??_C@_1CM@KHNNAOIC@?$AAH?$AAK?$AAE?$AAY?$AA_?$AAP?$AAE?$AAR?$AAF?$AAO?$AAR?$AAM?$AAA?$AAN?$AAC@ 1008b4e8     OposInterfaces.obj
 0002:00005514       ??_C@_1BM@HAGMMHIA@?$AAH?$AAK?$AAE?$AAY?$AA_?$AAD?$AAY?$AAN?$AA_?$AAD?$AAA?$AAT?$AAA@ 1008b514     OposInterfaces.obj
 0002:00005530       ??_C@_1CI@BBJOACGG@?$AAH?$AAK?$AAE?$AAY?$AA_?$AAC?$AAU?$AAR?$AAR?$AAE?$AAN?$AAT?$AA_?$AAC?$AAO@ 1008b530     OposInterfaces.obj
 0002:00005558       ??_C@_1EI@CDDJHMMA@?$AAN?$AAe?$AAx?$AAt?$AAT?$AAo?$AAk?$AAe?$AAn?$AA?5?$AA?3?$AA?5?$AAU?$AAn?$AAe@ 1008b558     OposInterfaces.obj
 0002:000055a0       ??_C@_1DA@BDBPEMM@?$AA?$CF?$AAT?$AAs?$AA?5?$AAT?$AAy?$AAp?$AAe?$AA?5?$AAn?$AAo?$AAt?$AA?5?$AAs?$AAu@ 1008b5a0     OposInterfaces.obj
 0002:000055d0       ??_C@_1BA@HANLFFFG@?$AAd?$AAe?$AAf?$AAa?$AAu?$AAl?$AAt@ 1008b5d0     OposInterfaces.obj
 0002:000055e0       ??_C@_1DE@GENBDOHF@?$AAS?$AAe?$AAt?$AAt?$AAi?$AAn?$AAg?$AA?5?$AAV?$AAa?$AAl?$AAu?$AAe?$AA?5?$AA?$CF@ 1008b5e0     OposInterfaces.obj
 0002:00005614       ??_C@_1DC@OPMJCKIB@?$AAS?$AAe?$AAt?$AAt?$AAi?$AAn?$AAg?$AA?5?$AAV?$AAa?$AAl?$AAu?$AAe?$AA?5?$AA?$CF@ 1008b614     OposInterfaces.obj
 0002:00005648       ??_C@_1FK@OIDGAAMP@?$AAB?$AAi?$AAn?$AAa?$AAr?$AAy?$AA?5?$AAD?$AAa?$AAt?$AAa?$AA?5?$AAd?$AAo?$AAe@ 1008b648     OposInterfaces.obj
 0002:000056a4       ??_C@_1CM@LNIALBHN@?$AAS?$AAh?$AAo?$AAu?$AAl?$AAd?$AA?5?$AAn?$AAo?$AAt?$AA?5?$AAb?$AAe?$AA?5?$AAh@ 1008b6a4     OposInterfaces.obj
 0002:000056d0       ??_C@_1BK@ODFKMBGC@?$AAl?$AAp?$AAs?$AAz?$AAR?$AAe?$AAg?$AA?5?$AA?$CB?$AA?$DN?$AA?5?$AA0@ 1008b6d0     OposInterfaces.obj
 0002:000056ec       ??_C@_1BK@DGLFCBHI@?$AAp?$AAp?$AAs?$AAz?$AAR?$AAe?$AAg?$AA?5?$AA?$CB?$AA?$DN?$AA?5?$AA0@ 1008b6ec     OposInterfaces.obj
 0002:00005708       ??_C@_1EA@NHKLICFA@?$AAH?$AAK?$AAC?$AAU?$AA?$AN?$AA?6?$AA?$HL?$AA?7?$AAS?$AAo?$AAf?$AAt?$AAw?$AAa?$AAr@ 1008b708     OposInterfaces.obj
 0002:00005748       ??_C@_1BE@LJOLIMEM@?$AA?$AN?$AA?6?$AA?7?$AA?$HN?$AA?$AN?$AA?6?$AA?$HN?$AA?$AN?$AA?6@ 1008b748     OposInterfaces.obj
 0002:0000575c       ??_C@_1DG@KOLNJMBJ@?$AAE?$AAr?$AAr?$AAo?$AAr?$AA?5?$AAn?$AAo?$AA?5?$AAc?$AAl?$AAo?$AAs?$AAi?$AAn@ 1008b75c     OposInterfaces.obj
 0002:00005794       ??_C@_19IGGGDNCK@?$AA?$CF?$AAT?$AAs?$AA?6@ 1008b794     OposInterfaces.obj
 0002:000057a0       ??_C@_1DM@JFHAPNGI@?$AAH?$AAK?$AAe?$AAy?$AAF?$AAr?$AAo?$AAm?$AAS?$AAt?$AAr?$AAi?$AAn?$AAg?$AA?5@ 1008b7a0     OposInterfaces.obj
 0002:000057e0       ??_C@_1FE@MCPBFDLN@?$AAS?$AAy?$AAn?$AAt?$AAa?$AAx?$AA?5?$AAe?$AAr?$AAr?$AAo?$AAr?$AA?0?$AA?5?$AAe@ 1008b7e0     OposInterfaces.obj
 0002:00005838       ??_C@_1EE@EMAKHHOG@?$AAF?$AAa?$AAi?$AAl?$AAe?$AAd?$AA?5?$AAt?$AAo?$AA?5?$AAr?$AAe?$AAg?$AAi?$AAs@ 1008b838     OposInterfaces.obj
 0002:0000587c       ??_C@_1BM@KJDIPNJ@?$AAN?$AAu?$AAm?$AA?5?$AAE?$AAl?$AAs?$AA?5?$AA?$DN?$AA?5?$AA?$CF?$AAd?$AA?6@ 1008b87c     OposInterfaces.obj
 0002:00005898       ??_C@_1BM@BEOOHDFB@?$AAD?$AAe?$AAl?$AAe?$AAt?$AAi?$AAn?$AAg?$AA?5?$AA?$CF?$AAT?$AAs?$AA?6@ 1008b898     OposInterfaces.obj
 0002:000058b4       ??_C@_1CE@NOBELHPC@?$AAC?$AAr?$AAe?$AAa?$AAt?$AAi?$AAn?$AAg?$AA?5?$AAk?$AAe?$AAy?$AA?5?$AA?$CF?$AAT@ 1008b8b4     OposInterfaces.obj
 0002:000058d8       ??_C@_1CA@MKECKMBH@?$AAO?$AAp?$AAe?$AAn?$AAe?$AAd?$AA?5?$AAK?$AAe?$AAy?$AA?5?$AA?$CF?$AAT?$AAs?$AA?6@ 1008b8d8     OposInterfaces.obj
 0002:000058f8       ??_C@_1FK@OAJHMKAA@?$AAI?$AAg?$AAn?$AAo?$AAr?$AAi?$AAn?$AAg?$AA?5?$AAO?$AAp?$AAe?$AAn?$AA?5?$AAk@ 1008b8f8     OposInterfaces.obj
 0002:00005954       ??_C@_1CM@OHCCCDHD@?$AAE?$AAn?$AAd?$AAi?$AAn?$AAg?$AA?5?$AAR?$AAe?$AAc?$AAo?$AAv?$AAe?$AAr?$AAy@ 1008b954     OposInterfaces.obj
 0002:00005980       ??_C@_1FA@ECAJCMBE@?$AAD?$AAe?$AAl?$AAe?$AAt?$AAi?$AAn?$AAg?$AA?5?$AAn?$AAo?$AAn?$AA?9?$AAe?$AAm@ 1008b980     OposInterfaces.obj
 0002:000059d0       ??_C@_1CE@OGJGDPFE@?$AAD?$AAe?$AAl?$AAe?$AAt?$AAi?$AAn?$AAg?$AA?5?$AAK?$AAe?$AAy?$AA?5?$AA?$CF?$AAT@ 1008b9d0     OposInterfaces.obj
 0002:000059f4       ??_C@_1DC@HEJCCJC@?$AA0?$AA?5?$AA?$CB?$AA?$DN?$AA?5?$AAp?$AAM?$AAa?$AAp?$AAE?$AAn?$AAt?$AAr?$AAi?$AAe@ 1008b9f4     OposInterfaces.obj
 0002:00005a28       ??_C@_1O@MNLDABAF@?$AAM?$AAo?$AAd?$AAu?$AAl?$AAe@ 1008ba28     OposInterfaces.obj
 0002:00005a38       ??_C@_1BG@JBACFMF@?$AAM?$AAo?$AAd?$AAu?$AAl?$AAe?$AA_?$AAR?$AAa?$AAw@ 1008ba38     OposInterfaces.obj
 0002:00005a50       ??_C@_1BC@KAILKFFG@?$AAR?$AAE?$AAG?$AAI?$AAS?$AAT?$AAR?$AAY@ 1008ba50     OposInterfaces.obj
 0002:00005a64       ??_C@_11LOCGONAA@@         1008ba64     OposInterfaces.obj
 0002:00005a68       ??_C@_1EC@GOCPDDCL@?$AAp?$AAb?$AAs?$AAt?$AAr?$AAP?$AAa?$AAt?$AAh?$AA?5?$AA?$CB?$AA?$DN?$AA?5?$AA0?$AA?5@ 1008ba68     OposInterfaces.obj
 0002:00005aac       ??_C@_1CE@MNLFIKHJ@?$AAh?$AAI?$AAn?$AAs?$AAt?$AAT?$AAy?$AAp?$AAe?$AAL?$AAi?$AAb?$AA?5?$AA?$CB?$AA?$DN@ 1008baac     OposInterfaces.obj
 0002:00005ad0       ??_C@_19ILOCMLCJ@?$AA?4?$AAt?$AAl?$AAb@ 1008bad0     OposInterfaces.obj
 0002:00005adc       __GUID_0002e012_0000_0000_c000_000000000046 1008badc     OposInterfaces.obj
 0002:00005af0       ??_C@_1OK@NEECLFPA@?$AA0?$AA?5?$AA?$CG?$AA?$CG?$AA?5?$AAL?$AA?$CC?$AAU?$AAs?$AAe?$AA?5?$AAO?$AAB?$AAJ?$AAE@ 1008baf0     OposInterfaces.obj
 0002:00005bdc       ??_C@_1CG@IDMIONOG@?$AAp?$AAE?$AAn?$AAt?$AAr?$AAy?$AA?9?$AA?$DO?$AAi?$AAT?$AAy?$AAp?$AAe?$AA?5?$AA?$DN@ 1008bbdc     OposInterfaces.obj
 0002:00005c04       ??_C@_1O@FHBGLCIO@?$AAC?$AAL?$AAS?$AAI?$AAD?$AA?2@ 1008bc04     OposInterfaces.obj
 0002:00005c14       ??_C@_1CK@IFBKBFAA@?$AA?2?$AAR?$AAe?$AAq?$AAu?$AAi?$AAr?$AAe?$AAd?$AA?5?$AAC?$AAa?$AAt?$AAe?$AAg@ 1008bc14     OposInterfaces.obj
 0002:00005c40       ??_C@_1DA@BIHALFED@?$AA?2?$AAI?$AAm?$AAp?$AAl?$AAe?$AAm?$AAe?$AAn?$AAt?$AAe?$AAd?$AA?5?$AAC?$AAa@ 1008bc40     OposInterfaces.obj
 0002:00005c70       ??_C@_1BK@EDKOLFBJ@?$AAO?$AAL?$AAE?$AAA?$AAU?$AAT?$AA3?$AA2?$AA?4?$AAD?$AAL?$AAL@ 1008bc70     OposInterfaces.obj
 0002:00005c8c       ??_C@_0BJ@CNLFOMHB@UnRegisterTypeLibForUser@ 1008bc8c     OposInterfaces.obj
 0002:00005ca8       ??_C@_0BH@LBOMMKPJ@RegisterTypeLibForUser@ 1008bca8     OposInterfaces.obj
 0002:00005cc0       ??_C@_1CA@GAOMIJFK@?$AAp?$AAC?$AAo?$AAm?$AAM?$AAo?$AAd?$AAu?$AAl?$AAe?$AA?5?$AA?$CB?$AA?$DN?$AA?5?$AA0@ 1008bcc0     OposInterfaces.obj
 0002:00005ce0       ??_C@_1EA@JIHAIGJA@?$AAp?$AAC?$AAo?$AAm?$AAM?$AAo?$AAd?$AAu?$AAl?$AAe?$AA?9?$AA?$DO?$AAm?$AA_?$AAh@ 1008bce0     OposInterfaces.obj
 0002:00005d20       ??_C@_1IO@OONIPMJC@?$AAE?$AAR?$AAR?$AAO?$AAR?$AA?5?$AA?3?$AA?5?$AAU?$AAn?$AAa?$AAb?$AAl?$AAe?$AA?5@ 1008bd20     OposInterfaces.obj
 0002:00005db0       ??_C@_1IO@BDEIDBOP@?$AAE?$AAR?$AAR?$AAO?$AAR?$AA?5?$AA?3?$AA?5?$AAU?$AAn?$AAa?$AAb?$AAl?$AAe?$AA?5@ 1008bdb0     OposInterfaces.obj
 0002:00005e40       ??_C@_19LMDLLIGP@?$AAp?$AA?$DN?$AA?$DN?$AA0@ 1008be40     OposInterfaces.obj
 0002:00005e4c       ??_C@_19JHCPJMAL@?$AAp?$AA?$CB?$AA?$DN?$AA0@ 1008be4c     OposInterfaces.obj
 0002:00005e58       ??_C@_1BC@EMCLECFJ@?$AAm?$AA_?$AAp?$AA?5?$AA?$DN?$AA?$DN?$AA?5?$AA0@ 1008be58     OposInterfaces.obj
 0002:00005e6c       ??_C@_1M@PPPPCDEP@?$AAA?$AAP?$AAP?$AAI?$AAD@ 1008be6c     OposInterfaces.obj
 0002:00005e78       _GUID_NULL                 1008be78     uuid:cguid_i.obj
 0002:00005e88       _CATID_MARSHALER           1008be88     uuid:cguid_i.obj
 0002:00005e98       _IID_IRpcChannel           1008be98     uuid:cguid_i.obj
 0002:00005ea8       _IID_IRpcStub              1008bea8     uuid:cguid_i.obj
 0002:00005eb8       _IID_IStubManager          1008beb8     uuid:cguid_i.obj
 0002:00005ec8       _IID_IRpcProxy             1008bec8     uuid:cguid_i.obj
 0002:00005ed8       _IID_IProxyManager         1008bed8     uuid:cguid_i.obj
 0002:00005ee8       _IID_IPSFactory            1008bee8     uuid:cguid_i.obj
 0002:00005ef8       _IID_IInternalMoniker      1008bef8     uuid:cguid_i.obj
 0002:00005f08       _IID_IDfReserved1          1008bf08     uuid:cguid_i.obj
 0002:00005f18       _IID_IDfReserved2          1008bf18     uuid:cguid_i.obj
 0002:00005f28       _IID_IDfReserved3          1008bf28     uuid:cguid_i.obj
 0002:00005f38       _CLSID_StdMarshal          1008bf38     uuid:cguid_i.obj
 0002:00005f48       _IID_IStub                 1008bf48     uuid:cguid_i.obj
 0002:00005f58       _IID_IProxy                1008bf58     uuid:cguid_i.obj
 0002:00005f68       _IID_IEnumGeneric          1008bf68     uuid:cguid_i.obj
 0002:00005f78       _IID_IEnumHolder           1008bf78     uuid:cguid_i.obj
 0002:00005f88       _IID_IEnumCallback         1008bf88     uuid:cguid_i.obj
 0002:00005f98       _IID_IOleManager           1008bf98     uuid:cguid_i.obj
 0002:00005fa8       _IID_IOlePresObj           1008bfa8     uuid:cguid_i.obj
 0002:00005fb8       _IID_IDebug                1008bfb8     uuid:cguid_i.obj
 0002:00005fc8       _IID_IDebugStream          1008bfc8     uuid:cguid_i.obj
 0002:00005fd8       _CLSID_PSGenObject         1008bfd8     uuid:cguid_i.obj
 0002:00005fe8       _CLSID_PSClientSite        1008bfe8     uuid:cguid_i.obj
 0002:00005ff8       _CLSID_PSClassObject       1008bff8     uuid:cguid_i.obj
 0002:00006008       _CLSID_PSInPlaceActive     1008c008     uuid:cguid_i.obj
 0002:00006018       _CLSID_PSInPlaceFrame      1008c018     uuid:cguid_i.obj
 0002:00006028       _CLSID_PSDragDrop          1008c028     uuid:cguid_i.obj
 0002:00006038       _CLSID_PSBindCtx           1008c038     uuid:cguid_i.obj
 0002:00006048       _CLSID_PSEnumerators       1008c048     uuid:cguid_i.obj
 0002:00006058       _CLSID_StaticMetafile      1008c058     uuid:cguid_i.obj
 0002:00006068       _CLSID_StaticDib           1008c068     uuid:cguid_i.obj
 0002:00006078       _CLSID_Picture_Metafile    1008c078     uuid:cguid_i.obj
 0002:00006088       _CLSID_Picture_EnhMetafile 1008c088     uuid:cguid_i.obj
 0002:00006098       _CLSID_Picture_Dib         1008c098     uuid:cguid_i.obj
 0002:000060a8       _CLSID_DCOMAccessControl   1008c0a8     uuid:cguid_i.obj
 0002:000060b8       _CLSID_StdGlobalInterfaceTable 1008c0b8     uuid:cguid_i.obj
 0002:000060c8       _CLSID_ManualResetEvent    1008c0c8     uuid:cguid_i.obj
 0002:000060d8       _CLSID_StdEvent            1008c0d8     uuid:cguid_i.obj
 0002:000060e8       _CLSID_SynchronizeContainer 1008c0e8     uuid:cguid_i.obj
 0002:000060f8       _CLSID_ComBinding          1008c0f8     uuid:cguid_i.obj
 0002:00006108       _CLSID_StdAsyncActManager  1008c108     uuid:cguid_i.obj
 0002:00006118       _CLSID_InProcFreeMarshaler 1008c118     uuid:cguid_i.obj
 0002:00006128       _CLSID_RemoteUnknownPSFactory 1008c128     uuid:cguid_i.obj
 0002:00006138       _IID_IRichEditOle          1008c138     uuid:cguid_i.obj
 0002:00006148       _IID_IRichEditOleCallback  1008c148     uuid:cguid_i.obj
 0002:00006158       _CLSID_AllClasses          1008c158     uuid:cguid_i.obj
 0002:00006168       _CLSID_LocalMachineClasses 1008c168     uuid:cguid_i.obj
 0002:00006178       _CLSID_CurrentUserClasses  1008c178     uuid:cguid_i.obj
 0002:00006188       _CLSID_AddrControl         1008c188     uuid:cguid_i.obj
 0002:00006198       _CLSID_GlobalOptions       1008c198     uuid:cguid_i.obj
 0002:000061a8       _CLSID_SurrogateManager    1008c1a8     uuid:cguid_i.obj
 0002:000061b8       _CLSID_ContextSwitcher     1008c1b8     uuid:cguid_i.obj
 0002:000061c8       _CLSID_ActivationStore     1008c1c8     uuid:cguid_i.obj
 0002:000061d8       _IID_IPropertyFrame        1008c1d8     uuid:cguid_i.obj
 0002:000061e8       _CLSID_CFontPropPage       1008c1e8     uuid:cguid_i.obj
 0002:000061f8       _CLSID_CColorPropPage      1008c1f8     uuid:cguid_i.obj
 0002:00006208       _CLSID_CPicturePropPage    1008c208     uuid:cguid_i.obj
 0002:00006218       _CLSID_StockFontPage       1008c218     uuid:cguid_i.obj
 0002:00006228       _CLSID_StockColorPage      1008c228     uuid:cguid_i.obj
 0002:00006238       _CLSID_StockPicturePage    1008c238     uuid:cguid_i.obj
 0002:00006248       _CLSID_PersistPropset      1008c248     uuid:cguid_i.obj
 0002:00006258       _CLSID_ConvertVBX          1008c258     uuid:cguid_i.obj
 0002:00006268       _CLSID_StdFont             1008c268     uuid:cguid_i.obj
 0002:00006278       _CLSID_StdPicture          1008c278     uuid:cguid_i.obj
 0002:00006288       _GUID_HIMETRIC             1008c288     uuid:cguid_i.obj
 0002:00006298       _GUID_COLOR                1008c298     uuid:cguid_i.obj
 0002:000062a8       _GUID_XPOSPIXEL            1008c2a8     uuid:cguid_i.obj
 0002:000062b8       _GUID_YPOSPIXEL            1008c2b8     uuid:cguid_i.obj
 0002:000062c8       _GUID_XSIZEPIXEL           1008c2c8     uuid:cguid_i.obj
 0002:000062d8       _GUID_YSIZEPIXEL           1008c2d8     uuid:cguid_i.obj
 0002:000062e8       _GUID_XPOS                 1008c2e8     uuid:cguid_i.obj
 0002:000062f8       _GUID_YPOS                 1008c2f8     uuid:cguid_i.obj
 0002:00006308       _GUID_XSIZE                1008c308     uuid:cguid_i.obj
 0002:00006318       _GUID_YSIZE                1008c318     uuid:cguid_i.obj
 0002:00006328       _GUID_TRISTATE             1008c328     uuid:cguid_i.obj
 0002:00006338       _GUID_OPTIONVALUEEXCLUSIVE 1008c338     uuid:cguid_i.obj
 0002:00006348       _GUID_CHECKVALUEEXCLUSIVE  1008c348     uuid:cguid_i.obj
 0002:00006358       _GUID_FONTNAME             1008c358     uuid:cguid_i.obj
 0002:00006368       _GUID_FONTSIZE             1008c368     uuid:cguid_i.obj
 0002:00006378       _GUID_FONTBOLD             1008c378     uuid:cguid_i.obj
 0002:00006388       _GUID_FONTITALIC           1008c388     uuid:cguid_i.obj
 0002:00006398       _GUID_FONTUNDERSCORE       1008c398     uuid:cguid_i.obj
 0002:000063a8       _GUID_FONTSTRIKETHROUGH    1008c3a8     uuid:cguid_i.obj
 0002:000063b8       _GUID_HANDLE               1008c3b8     uuid:cguid_i.obj
 0002:000063c8       _IID_StdOle                1008c3c8     uuid:cguid_i.obj
 0002:000063d8       _IID_ICursor               1008c3d8     uuid:cguid_i.obj
 0002:000063e8       _IID_ICursorMove           1008c3e8     uuid:cguid_i.obj
 0002:000063f8       _IID_ICursorScroll         1008c3f8     uuid:cguid_i.obj
 0002:00006408       _IID_ICursorUpdateARow     1008c408     uuid:cguid_i.obj
 0002:00006418       _IID_INotifyDBEvents       1008c418     uuid:cguid_i.obj
 0002:00006428       _IID_ICursorFind           1008c428     uuid:cguid_i.obj
 0002:00006438       _IID_IEntryID              1008c438     uuid:cguid_i.obj
 0002:00006448       __GUID_NAMEONLY            1008c448     uuid:cguid_i.obj
 0002:00006458       __DBBMKGUID                1008c458     uuid:cguid_i.obj
 0002:00006468       __DBCIDGUID                1008c468     uuid:cguid_i.obj
 0002:00006478       _IID_IBoundObject          1008c478     uuid:cguid_i.obj
 0002:00006488       _IID_IBoundObjectSite      1008c488     uuid:cguid_i.obj
 0002:00006498       _CLSID_GblComponentCategoriesMgr 1008c498     uuid:cguid_i.obj
 0002:000064a8       _CLSID_ThumbnailFCNHandler 1008c4a8     uuid:cguid_i.obj
 0002:000064b8       _CLSID_ThumbnailUpdater    1008c4b8     uuid:cguid_i.obj
 0002:000064c8       _IID_ICallbackWithNoReentrancyToApplicationSTA 1008c4c8     uuid:cguid_i.obj
 0002:000064d8       _CLSID_TypeLibRegistrationReader 1008c4d8     uuid:cguid_i.obj
 0002:000064e8       _GUID_DEVCLASS_1394        1008c4e8     uuid:cguid_i.obj
 0002:000064f8       _GUID_DEVCLASS_1394DEBUG   1008c4f8     uuid:cguid_i.obj
 0002:00006508       _GUID_DEVCLASS_61883       1008c508     uuid:cguid_i.obj
 0002:00006518       _GUID_DEVCLASS_ADAPTER     1008c518     uuid:cguid_i.obj
 0002:00006528       _GUID_DEVCLASS_APMSUPPORT  1008c528     uuid:cguid_i.obj
 0002:00006538       _GUID_DEVCLASS_AVC         1008c538     uuid:cguid_i.obj
 0002:00006548       _GUID_DEVCLASS_BATTERY     1008c548     uuid:cguid_i.obj
 0002:00006558       _GUID_DEVCLASS_BIOMETRIC   1008c558     uuid:cguid_i.obj
 0002:00006568       _GUID_DEVCLASS_BLUETOOTH   1008c568     uuid:cguid_i.obj
 0002:00006578       _GUID_DEVCLASS_CAMERA      1008c578     uuid:cguid_i.obj
 0002:00006588       _GUID_DEVCLASS_CDROM       1008c588     uuid:cguid_i.obj
 0002:00006598       _GUID_DEVCLASS_COMPUTER    1008c598     uuid:cguid_i.obj
 0002:000065a8       _GUID_DEVCLASS_DECODER     1008c5a8     uuid:cguid_i.obj
 0002:000065b8       _GUID_DEVCLASS_DISKDRIVE   1008c5b8     uuid:cguid_i.obj
 0002:000065c8       _GUID_DEVCLASS_DISPLAY     1008c5c8     uuid:cguid_i.obj
 0002:000065d8       _GUID_DEVCLASS_DOT4        1008c5d8     uuid:cguid_i.obj
 0002:000065e8       _GUID_DEVCLASS_DOT4PRINT   1008c5e8     uuid:cguid_i.obj
 0002:000065f8       _GUID_DEVCLASS_EHSTORAGESILO 1008c5f8     uuid:cguid_i.obj
 0002:00006608       _GUID_DEVCLASS_ENUM1394    1008c608     uuid:cguid_i.obj
 0002:00006618       _GUID_DEVCLASS_EXTENSION   1008c618     uuid:cguid_i.obj
 0002:00006628       _GUID_DEVCLASS_FDC         1008c628     uuid:cguid_i.obj
 0002:00006638       _GUID_DEVCLASS_FIRMWARE    1008c638     uuid:cguid_i.obj
 0002:00006648       _GUID_DEVCLASS_FLOPPYDISK  1008c648     uuid:cguid_i.obj
 0002:00006658       _GUID_DEVCLASS_GPS         1008c658     uuid:cguid_i.obj
 0002:00006668       _GUID_DEVCLASS_HDC         1008c668     uuid:cguid_i.obj
 0002:00006678       _GUID_DEVCLASS_HIDCLASS    1008c678     uuid:cguid_i.obj
 0002:00006688       _GUID_DEVCLASS_HOLOGRAPHIC 1008c688     uuid:cguid_i.obj
 0002:00006698       _GUID_DEVCLASS_IMAGE       1008c698     uuid:cguid_i.obj
 0002:000066a8       _GUID_DEVCLASS_INFINIBAND  1008c6a8     uuid:cguid_i.obj
 0002:000066b8       _GUID_DEVCLASS_INFRARED    1008c6b8     uuid:cguid_i.obj
 0002:000066c8       _GUID_DEVCLASS_KEYBOARD    1008c6c8     uuid:cguid_i.obj
 0002:000066d8       _GUID_DEVCLASS_LEGACYDRIVER 1008c6d8     uuid:cguid_i.obj
 0002:000066e8       _GUID_DEVCLASS_MEDIA       1008c6e8     uuid:cguid_i.obj
 0002:000066f8       _GUID_DEVCLASS_MEDIUM_CHANGER 1008c6f8     uuid:cguid_i.obj
 0002:00006708       _GUID_DEVCLASS_MEMORY      1008c708     uuid:cguid_i.obj
 0002:00006718       _GUID_DEVCLASS_MODEM       1008c718     uuid:cguid_i.obj
 0002:00006728       _GUID_DEVCLASS_MONITOR     1008c728     uuid:cguid_i.obj
 0002:00006738       _GUID_DEVCLASS_MOUSE       1008c738     uuid:cguid_i.obj
 0002:00006748       _GUID_DEVCLASS_MTD         1008c748     uuid:cguid_i.obj
 0002:00006758       _GUID_DEVCLASS_MULTIFUNCTION 1008c758     uuid:cguid_i.obj
 0002:00006768       _GUID_DEVCLASS_MULTIPORTSERIAL 1008c768     uuid:cguid_i.obj
 0002:00006778       _GUID_DEVCLASS_NET         1008c778     uuid:cguid_i.obj
 0002:00006788       _GUID_DEVCLASS_NETCLIENT   1008c788     uuid:cguid_i.obj
 0002:00006798       _GUID_DEVCLASS_NETDRIVER   1008c798     uuid:cguid_i.obj
 0002:000067a8       _GUID_DEVCLASS_NETSERVICE  1008c7a8     uuid:cguid_i.obj
 0002:000067b8       _GUID_DEVCLASS_NETTRANS    1008c7b8     uuid:cguid_i.obj
 0002:000067c8       _GUID_DEVCLASS_NODRIVER    1008c7c8     uuid:cguid_i.obj
 0002:000067d8       _GUID_DEVCLASS_PCMCIA      1008c7d8     uuid:cguid_i.obj
 0002:000067e8       _GUID_DEVCLASS_PNPPRINTERS 1008c7e8     uuid:cguid_i.obj
 0002:000067f8       _GUID_DEVCLASS_PORTS       1008c7f8     uuid:cguid_i.obj
 0002:00006808       _GUID_DEVCLASS_PRINTER     1008c808     uuid:cguid_i.obj
 0002:00006818       _GUID_DEVCLASS_PRINTERUPGRADE 1008c818     uuid:cguid_i.obj
 0002:00006828       _GUID_DEVCLASS_PRINTQUEUE  1008c828     uuid:cguid_i.obj
 0002:00006838       _GUID_DEVCLASS_PROCESSOR   1008c838     uuid:cguid_i.obj
 0002:00006848       _GUID_DEVCLASS_SBP2        1008c848     uuid:cguid_i.obj
 0002:00006858       _GUID_DEVCLASS_SCMDISK     1008c858     uuid:cguid_i.obj
 0002:00006868       _GUID_DEVCLASS_SCMVOLUME   1008c868     uuid:cguid_i.obj
 0002:00006878       _GUID_DEVCLASS_SCSIADAPTER 1008c878     uuid:cguid_i.obj
 0002:00006888       _GUID_DEVCLASS_SECURITYACCELERATOR 1008c888     uuid:cguid_i.obj
 0002:00006898       _GUID_DEVCLASS_SENSOR      1008c898     uuid:cguid_i.obj
 0002:000068a8       _GUID_DEVCLASS_SIDESHOW    1008c8a8     uuid:cguid_i.obj
 0002:000068b8       _GUID_DEVCLASS_SMARTCARDREADER 1008c8b8     uuid:cguid_i.obj
 0002:000068c8       _GUID_DEVCLASS_SMRDISK     1008c8c8     uuid:cguid_i.obj
 0002:000068d8       _GUID_DEVCLASS_SMRVOLUME   1008c8d8     uuid:cguid_i.obj
 0002:000068e8       _GUID_DEVCLASS_SOFTWARECOMPONENT 1008c8e8     uuid:cguid_i.obj
 0002:000068f8       _GUID_DEVCLASS_SOUND       1008c8f8     uuid:cguid_i.obj
 0002:00006908       _GUID_DEVCLASS_SYSTEM      1008c908     uuid:cguid_i.obj
 0002:00006918       _GUID_DEVCLASS_TAPEDRIVE   1008c918     uuid:cguid_i.obj
 0002:00006928       _GUID_DEVCLASS_UNKNOWN     1008c928     uuid:cguid_i.obj
 0002:00006938       _GUID_DEVCLASS_UCM         1008c938     uuid:cguid_i.obj
 0002:00006948       _GUID_DEVCLASS_USB         1008c948     uuid:cguid_i.obj
 0002:00006958       _GUID_DEVCLASS_VOLUME      1008c958     uuid:cguid_i.obj
 0002:00006968       _GUID_DEVCLASS_VOLUMESNAPSHOT 1008c968     uuid:cguid_i.obj
 0002:00006978       _GUID_DEVCLASS_WCEUSBS     1008c978     uuid:cguid_i.obj
 0002:00006988       _GUID_DEVCLASS_WPD         1008c988     uuid:cguid_i.obj
 0002:00006998       _GUID_DEVCLASS_FSFILTER_TOP 1008c998     uuid:cguid_i.obj
 0002:000069a8       _GUID_DEVCLASS_FSFILTER_ACTIVITYMONITOR 1008c9a8     uuid:cguid_i.obj
 0002:000069b8       _GUID_DEVCLASS_FSFILTER_UNDELETE 1008c9b8     uuid:cguid_i.obj
 0002:000069c8       _GUID_DEVCLASS_FSFILTER_ANTIVIRUS 1008c9c8     uuid:cguid_i.obj
 0002:000069d8       _GUID_DEVCLASS_FSFILTER_REPLICATION 1008c9d8     uuid:cguid_i.obj
 0002:000069e8       _GUID_DEVCLASS_FSFILTER_CONTINUOUSBACKUP 1008c9e8     uuid:cguid_i.obj
 0002:000069f8       _GUID_DEVCLASS_FSFILTER_CONTENTSCREENER 1008c9f8     uuid:cguid_i.obj
 0002:00006a08       _GUID_DEVCLASS_FSFILTER_QUOTAMANAGEMENT 1008ca08     uuid:cguid_i.obj
 0002:00006a18       _GUID_DEVCLASS_FSFILTER_SYSTEMRECOVERY 1008ca18     uuid:cguid_i.obj
 0002:00006a28       _GUID_DEVCLASS_FSFILTER_CFSMETADATASERVER 1008ca28     uuid:cguid_i.obj
 0002:00006a38       _GUID_DEVCLASS_FSFILTER_HSM 1008ca38     uuid:cguid_i.obj
 0002:00006a48       _GUID_DEVCLASS_FSFILTER_COMPRESSION 1008ca48     uuid:cguid_i.obj
 0002:00006a58       _GUID_DEVCLASS_FSFILTER_ENCRYPTION 1008ca58     uuid:cguid_i.obj
 0002:00006a68       _GUID_DEVCLASS_FSFILTER_VIRTUALIZATION 1008ca68     uuid:cguid_i.obj
 0002:00006a78       _GUID_DEVCLASS_FSFILTER_PHYSICALQUOTAMANAGEMENT 1008ca78     uuid:cguid_i.obj
 0002:00006a88       _GUID_DEVCLASS_FSFILTER_OPENFILEBACKUP 1008ca88     uuid:cguid_i.obj
 0002:00006a98       _GUID_DEVCLASS_FSFILTER_SECURITYENHANCER 1008ca98     uuid:cguid_i.obj
 0002:00006aa8       _GUID_DEVCLASS_FSFILTER_COPYPROTECTION 1008caa8     uuid:cguid_i.obj
 0002:00006ab8       _GUID_DEVCLASS_FSFILTER_BOTTOM 1008cab8     uuid:cguid_i.obj
 0002:00006ac8       _GUID_DEVCLASS_FSFILTER_SYSTEM 1008cac8     uuid:cguid_i.obj
 0002:00006ad8       _GUID_DEVCLASS_FSFILTER_INFRASTRUCTURE 1008cad8     uuid:cguid_i.obj
 0002:00006ae8       _GUID_DEVINTERFACE_DISK    1008cae8     uuid:cguid_i.obj
 0002:00006af8       _GUID_DEVINTERFACE_CDROM   1008caf8     uuid:cguid_i.obj
 0002:00006b08       _GUID_DEVINTERFACE_PARTITION 1008cb08     uuid:cguid_i.obj
 0002:00006b18       _GUID_DEVINTERFACE_TAPE    1008cb18     uuid:cguid_i.obj
 0002:00006b28       _GUID_DEVINTERFACE_WRITEONCEDISK 1008cb28     uuid:cguid_i.obj
 0002:00006b38       _GUID_DEVINTERFACE_VOLUME  1008cb38     uuid:cguid_i.obj
 0002:00006b48       _GUID_DEVINTERFACE_MEDIUMCHANGER 1008cb48     uuid:cguid_i.obj
 0002:00006b58       _GUID_DEVINTERFACE_FLOPPY  1008cb58     uuid:cguid_i.obj
 0002:00006b68       _GUID_DEVINTERFACE_CDCHANGER 1008cb68     uuid:cguid_i.obj
 0002:00006b78       _GUID_DEVINTERFACE_STORAGEPORT 1008cb78     uuid:cguid_i.obj
 0002:00006b88       _GUID_DEVINTERFACE_VMLUN   1008cb88     uuid:cguid_i.obj
 0002:00006b98       _GUID_DEVINTERFACE_SES     1008cb98     uuid:cguid_i.obj
 0002:00006ba8       _GUID_DEVINTERFACE_SERVICE_VOLUME 1008cba8     uuid:cguid_i.obj
 0002:00006bb8       _GUID_DEVINTERFACE_HIDDEN_VOLUME 1008cbb8     uuid:cguid_i.obj
 0002:00006bc8       _GUID_DEVINTERFACE_UNIFIED_ACCESS_RPMB 1008cbc8     uuid:cguid_i.obj
 0002:00006bd8       _GUID_DEVINTERFACE_SCM_PHYSICAL_DEVICE 1008cbd8     uuid:cguid_i.obj
 0002:00006be8       _GUID_SCM_PD_HEALTH_NOTIFICATION 1008cbe8     uuid:cguid_i.obj
 0002:00006bf8       _GUID_SCM_PD_PASSTHROUGH_INVDIMM 1008cbf8     uuid:cguid_i.obj
 0002:00006c08       _GUID_DEVINTERFACE_COMPORT 1008cc08     uuid:cguid_i.obj
 0002:00006c18       _GUID_DEVINTERFACE_SERENUM_BUS_ENUMERATOR 1008cc18     uuid:cguid_i.obj
 0002:00006c28       _CLSID_StdURLMoniker       1008cc28     uuid:ieguids.obj
 0002:00006c38       _CLSID_StdURLProtocol      1008cc38     uuid:ieguids.obj
 0002:00006c48       _CLSID_HttpProtocol        1008cc48     uuid:ieguids.obj
 0002:00006c58       _CLSID_FtpProtocol         1008cc58     uuid:ieguids.obj
 0002:00006c68       _CLSID_GopherProtocol      1008cc68     uuid:ieguids.obj
 0002:00006c78       _CLSID_HttpSProtocol       1008cc78     uuid:ieguids.obj
 0002:00006c88       _CLSID_MkProtocol          1008cc88     uuid:ieguids.obj
 0002:00006c98       _CLSID_FileProtocol        1008cc98     uuid:ieguids.obj
 0002:00006ca8       _CLSID_PSUrlMonProxy       1008cca8     uuid:ieguids.obj
 0002:00006cb8       _CLSID_UrlMkBindCtx        1008ccb8     uuid:ieguids.obj
 0002:00006cc8       _CLSID_ResProtocol         1008ccc8     uuid:ieguids.obj
 0002:00006cd8       _CLSID_AboutProtocol       1008ccd8     uuid:ieguids.obj
 0002:00006ce8       _CLSID_JSProtocol          1008cce8     uuid:ieguids.obj
 0002:00006cf8       _CLSID_MailtoProtocol      1008ccf8     uuid:ieguids.obj
 0002:00006d08       _CLSID_TBAuthProtocol      1008cd08     uuid:ieguids.obj
 0002:00006d18       _CLSID_IE4_PROTOCOLS       1008cd18     uuid:ieguids.obj
 0002:00006d28       _IID_IAsyncMoniker         1008cd28     uuid:ieguids.obj
 0002:00006d38       _IID_IBindStatusCallbackHolder 1008cd38     uuid:ieguids.obj
 0002:00006d48       _IID_IAsyncBindCtx         1008cd48     uuid:ieguids.obj
 0002:00006d58       _IID_IBindStatusCallbackMsg 1008cd58     uuid:ieguids.obj
 0002:00006d68       _IID_IDebugRegister        1008cd68     uuid:ieguids.obj
 0002:00006d78       _IID_IDebugOut             1008cd78     uuid:ieguids.obj
 0002:00006d88       _CLSID_StdNotificationMgr  1008cd88     uuid:ieguids.obj
 0002:00006d98       _CLSID_WebCheckDefaultProcess 1008cd98     uuid:ieguids.obj
 0002:00006da8       _IID_IEnumPropertyMap      1008cda8     uuid:ieguids.obj
 0002:00006db8       _IID_IPropertyMap          1008cdb8     uuid:ieguids.obj
 0002:00006dc8       _IID_INotification         1008cdc8     uuid:ieguids.obj
 0002:00006dd8       _IID_INotificationMgr      1008cdd8     uuid:ieguids.obj
 0002:00006de8       _IID_INotificationSink     1008cde8     uuid:ieguids.obj
 0002:00006df8       _IID_IScheduleGroup        1008cdf8     uuid:ieguids.obj
 0002:00006e08       _IID_INotificationReport   1008ce08     uuid:ieguids.obj
 0002:00006e18       _IID_IEnumNotification     1008ce18     uuid:ieguids.obj
 0002:00006e28       _IID_IEnumScheduleGroup    1008ce28     uuid:ieguids.obj
 0002:00006e38       _IID_IEnumNotificationSinkItem 1008ce38     uuid:ieguids.obj
 0002:00006e48       _IID_INotificationHelper   1008ce48     uuid:ieguids.obj
 0002:00006e58       _IID_INotificationPing     1008ce58     uuid:ieguids.obj
 0002:00006e68       _IID_INotificationRunning  1008ce68     uuid:ieguids.obj
 0002:00006e78       _IID_INotificationProcessMgr0 1008ce78     uuid:ieguids.obj
 0002:00006e88       _IID_IOInet                1008ce88     uuid:ieguids.obj
 0002:00006e98       _IID_IOInetBindInfo        1008ce98     uuid:ieguids.obj
 0002:00006ea8       _IID_IOInetBindClient      1008cea8     uuid:ieguids.obj
 0002:00006eb8       _IID_IOInetProtocolRoot    1008ceb8     uuid:ieguids.obj
 0002:00006ec8       _IID_IOInetProtocol        1008cec8     uuid:ieguids.obj
 0002:00006ed8       _IID_IOInetProtocolSink    1008ced8     uuid:ieguids.obj
 0002:00006ee8       _IID_IOInetSession         1008cee8     uuid:ieguids.obj
 0002:00006ef8       _IID_IOInetThreadSwitch    1008cef8     uuid:ieguids.obj
 0002:00006f08       _IID_IOInetCache           1008cf08     uuid:ieguids.obj
 0002:00006f18       _IID_IOInetPriority        1008cf18     uuid:ieguids.obj
 0002:00006f28       _IID_IOInetProtocolInfo    1008cf28     uuid:ieguids.obj
 0002:00006f38       _CLSID_GLOBAL_BROADCAST    1008cf38     uuid:ieguids.obj
 0002:00006f48       _CLSID_PROCESS_BROADCAST   1008cf48     uuid:ieguids.obj
 0002:00006f58       _CLSID_THREAD_BROADCAST    1008cf58     uuid:ieguids.obj
 0002:00006f68       _CLSID_1                   1008cf68     uuid:ieguids.obj
 0002:00006f78       _CLSID_2                   1008cf78     uuid:ieguids.obj
 0002:00006f88       _CLSID_3                   1008cf88     uuid:ieguids.obj
 0002:00006f98       _CLSID_4                   1008cf98     uuid:ieguids.obj
 0002:00006fa8       _CLSID_5                   1008cfa8     uuid:ieguids.obj
 0002:00006fb8       _CLSID_6                   1008cfb8     uuid:ieguids.obj
 0002:00006fc8       _CLSID_7                   1008cfc8     uuid:ieguids.obj
 0002:00006fd8       _CLSID_8                   1008cfd8     uuid:ieguids.obj
 0002:00006fe8       _CLSID_9                   1008cfe8     uuid:ieguids.obj
 0002:00006ff8       _CLSID_a                   1008cff8     uuid:ieguids.obj
 0002:00007008       _CLSID_b                   1008d008     uuid:ieguids.obj
 0002:00007018       _CLSID_c                   1008d018     uuid:ieguids.obj
 0002:00007028       _CLSID_d                   1008d028     uuid:ieguids.obj
 0002:00007038       _NOTIFICATIONTYPE_ITEM_START 1008d038     uuid:ieguids.obj
 0002:00007048       _NOTIFICATIONTYPE_ITEM_RESTART 1008d048     uuid:ieguids.obj
 0002:00007058       _NOTIFICATIONTYPE_ITEM_DONE 1008d058     uuid:ieguids.obj
 0002:00007068       _NOTIFICATIONTYPE_GROUP_START 1008d068     uuid:ieguids.obj
 0002:00007078       _NOTIFICATIONTYPE_GROUP_RESTART 1008d078     uuid:ieguids.obj
 0002:00007088       _NOTIFICATIONTYPE_GROUP_DONE 1008d088     uuid:ieguids.obj
 0002:00007098       _NOTIFICATIONTYPE_i6       1008d098     uuid:ieguids.obj
 0002:000070a8       _NOTIFICATIONTYPE_i7       1008d0a8     uuid:ieguids.obj
 0002:000070b8       _NOTIFICATIONTYPE_i8       1008d0b8     uuid:ieguids.obj
 0002:000070c8       _NOTIFICATIONTYPE_i9       1008d0c8     uuid:ieguids.obj
 0002:000070d8       _NOTIFICATIONTYPE_iA       1008d0d8     uuid:ieguids.obj
 0002:000070e8       _NOTIFICATIONTYPE_iB       1008d0e8     uuid:ieguids.obj
 0002:000070f8       _NOTIFICATIONTYPE_iC       1008d0f8     uuid:ieguids.obj
 0002:00007108       _NOTIFICATIONTYPE_iD       1008d108     uuid:ieguids.obj
 0002:00007118       _NOTIFICATIONTYPE_iE       1008d118     uuid:ieguids.obj
 0002:00007128       _NOTIFICATIONTYPE_iF       1008d128     uuid:ieguids.obj
 0002:00007138       _NOTFCOOKIE_SCHEDULE_GROUP_DAILY 1008d138     uuid:ieguids.obj
 0002:00007148       _NOTFCOOKIE_SCHEDULE_GROUP_WEEKLY 1008d148     uuid:ieguids.obj
 0002:00007158       _NOTFCOOKIE_SCHEDULE_GROUP_MONTHLY 1008d158     uuid:ieguids.obj
 0002:00007168       _NOTFCOOKIE_SCHEDULE_GROUP_MANUAL 1008d168     uuid:ieguids.obj
 0002:00007178       _NOTIFICATIONTYPE_NULL     1008d178     uuid:ieguids.obj
 0002:00007188       _NOTIFICATIONTYPE_ANOUNCMENT 1008d188     uuid:ieguids.obj
 0002:00007198       _NOTIFICATIONTYPE_TASK     1008d198     uuid:ieguids.obj
 0002:000071a8       _NOTIFICATIONTYPE_ALERT    1008d1a8     uuid:ieguids.obj
 0002:000071b8       _NOTIFICATIONTYPE_INET_IDLE 1008d1b8     uuid:ieguids.obj
 0002:000071c8       _NOTIFICATIONTYPE_INET_OFFLINE 1008d1c8     uuid:ieguids.obj
 0002:000071d8       _NOTIFICATIONTYPE_INET_ONLINE 1008d1d8     uuid:ieguids.obj
 0002:000071e8       _NOTIFICATIONTYPE_TASKS_SUSPEND 1008d1e8     uuid:ieguids.obj
 0002:000071f8       _NOTIFICATIONTYPE_TASKS_RESUME 1008d1f8     uuid:ieguids.obj
 0002:00007208       _NOTIFICATIONTYPE_TASKS_ABORT 1008d208     uuid:ieguids.obj
 0002:00007218       _NOTIFICATIONTYPE_TASKS_COMPLETED 1008d218     uuid:ieguids.obj
 0002:00007228       _NOTIFICATIONTYPE_TASKS_PROGRESS 1008d228     uuid:ieguids.obj
 0002:00007238       _NOTIFICATIONTYPE_AGENT_START 1008d238     uuid:ieguids.obj
 0002:00007248       _NOTIFICATIONTYPE_BEGIN_REPORT 1008d248     uuid:ieguids.obj
 0002:00007258       _NOTIFICATIONTYPE_END_REPORT 1008d258     uuid:ieguids.obj
 0002:00007268       _NOTIFICATIONTYPE_AGENT_INIT 1008d268     uuid:ieguids.obj
 0002:00007278       _NOTIFICATIONTYPE_CONNECT_TO_INTERNET 1008d278     uuid:ieguids.obj
 0002:00007288       _NOTIFICATIONTYPE_DISCONNECT_FROM_INTERNET 1008d288     uuid:ieguids.obj
 0002:00007298       _NOTIFICATIONTYPE_CONFIG_CHANGED 1008d298     uuid:ieguids.obj
 0002:000072a8       _NOTIFICATIONTYPE_PROGRESS_REPORT 1008d2a8     uuid:ieguids.obj
 0002:000072b8       _NOTIFICATIONTYPE_USER_IDLE_BEGIN 1008d2b8     uuid:ieguids.obj
 0002:000072c8       _NOTIFICATIONTYPE_USER_IDLE_END 1008d2c8     uuid:ieguids.obj
 0002:000072d8       _NOTIFICATIONTYPE_TASKS_STARTED 1008d2d8     uuid:ieguids.obj
 0002:000072e8       _NOTIFICATIONTYPE_TASKS_ERROR 1008d2e8     uuid:ieguids.obj
 0002:000072f8       _NOTIFICATIONTYPE_d        1008d2f8     uuid:ieguids.obj
 0002:00007308       _NOTIFICATIONTYPE_e        1008d308     uuid:ieguids.obj
 0002:00007318       _NOTIFICATIONTYPE_f        1008d318     uuid:ieguids.obj
 0002:00007328       _NOTIFICATIONTYPE_11       1008d328     uuid:ieguids.obj
 0002:00007338       _NOTIFICATIONTYPE_12       1008d338     uuid:ieguids.obj
 0002:00007348       _NOTIFICATIONTYPE_13       1008d348     uuid:ieguids.obj
 0002:00007358       _NOTIFICATIONTYPE_14       1008d358     uuid:ieguids.obj
 0002:00007368       _NOTIFICATIONTYPE_15       1008d368     uuid:ieguids.obj
 0002:00007378       _NOTIFICATIONTYPE_START_0  1008d378     uuid:ieguids.obj
 0002:00007388       _NOTIFICATIONTYPE_START_1  1008d388     uuid:ieguids.obj
 0002:00007398       _NOTIFICATIONTYPE_START_2  1008d398     uuid:ieguids.obj
 0002:000073a8       _NOTIFICATIONTYPE_START_3  1008d3a8     uuid:ieguids.obj
 0002:000073b8       _NOTIFICATIONTYPE_START_4  1008d3b8     uuid:ieguids.obj
 0002:000073c8       _NOTIFICATIONTYPE_START_5  1008d3c8     uuid:ieguids.obj
 0002:000073d8       _NOTIFICATIONTYPE_START_6  1008d3d8     uuid:ieguids.obj
 0002:000073e8       _NOTIFICATIONTYPE_START_7  1008d3e8     uuid:ieguids.obj
 0002:000073f8       _NOTIFICATIONTYPE_START_8  1008d3f8     uuid:ieguids.obj
 0002:00007408       _NOTIFICATIONTYPE_START_9  1008d408     uuid:ieguids.obj
 0002:00007418       _NOTIFICATIONTYPE_START_A  1008d418     uuid:ieguids.obj
 0002:00007428       _NOTIFICATIONTYPE_START_B  1008d428     uuid:ieguids.obj
 0002:00007438       _NOTIFICATIONTYPE_START_C  1008d438     uuid:ieguids.obj
 0002:00007448       _NOTIFICATIONTYPE_START_D  1008d448     uuid:ieguids.obj
 0002:00007458       _NOTIFICATIONTYPE_START_E  1008d458     uuid:ieguids.obj
 0002:00007468       _NOTIFICATIONTYPE_START_F  1008d468     uuid:ieguids.obj
 0002:00007478       _CLSID_NotificaitonTest1   1008d478     uuid:ieguids.obj
 0002:00007488       _CLSID_NotificaitonTest2   1008d488     uuid:ieguids.obj
 0002:00007498       _CLSID_NotificaitonTest3   1008d498     uuid:ieguids.obj
 0002:000074a8       _CLSID_NotificaitonTest4   1008d4a8     uuid:ieguids.obj
 0002:000074b8       _CLSID_CdlProtocol         1008d4b8     uuid:ieguids.obj
 0002:000074c8       _CLSID_ClassInstallFilter  1008d4c8     uuid:ieguids.obj
 0002:000074d8       _LIBID_Accessibility       1008d4d8     uuid:ieguids.obj
 0002:000074e8       _IID_IAccessible           1008d4e8     uuid:ieguids.obj
 0002:000074f8       _IIS_ControlAccessible     1008d4f8     uuid:ieguids.obj
 0002:00007508       _SID_SContainerDispatch    1008d508     uuid:ieguids.obj
 0002:00007518       _SID_SDataPathBrowser      1008d518     uuid:ieguids.obj
 0002:00007528       _GUID_PathProperty         1008d528     uuid:ieguids.obj
 0002:00007538       _GUID_HasPathProperties    1008d538     uuid:ieguids.obj
 0002:00007548       _CLSID_StdHlink            1008d548     uuid:ieguids.obj
 0002:00007558       _CLSID_StdHlinkBrowseContext 1008d558     uuid:ieguids.obj
 0002:00007568       _OLE_DATAPATH_BMP          1008d568     uuid:ieguids.obj
 0002:00007578       _OLE_DATAPATH_DIB          1008d578     uuid:ieguids.obj
 0002:00007588       _OLE_DATAPATH_WMF          1008d588     uuid:ieguids.obj
 0002:00007598       _OLE_DATAPATH_ENHMF        1008d598     uuid:ieguids.obj
 0002:000075a8       _OLE_DATAPATH_GIF          1008d5a8     uuid:ieguids.obj
 0002:000075b8       _OLE_DATAPATH_JPEG         1008d5b8     uuid:ieguids.obj
 0002:000075c8       _OLE_DATAPATH_TIFF         1008d5c8     uuid:ieguids.obj
 0002:000075d8       _OLE_DATAPATH_XBM          1008d5d8     uuid:ieguids.obj
 0002:000075e8       _OLE_DATAPATH_PCX          1008d5e8     uuid:ieguids.obj
 0002:000075f8       _OLE_DATAPATH_PICT         1008d5f8     uuid:ieguids.obj
 0002:00007608       _OLE_DATAPATH_CGM          1008d608     uuid:ieguids.obj
 0002:00007618       _OLE_DATAPATH_EPS          1008d618     uuid:ieguids.obj
 0002:00007628       _OLE_DATAPATH_COMMONIMAGE  1008d628     uuid:ieguids.obj
 0002:00007638       _OLE_DATAPATH_ALLIMAGE     1008d638     uuid:ieguids.obj
 0002:00007648       _OLE_DATAPATH_AVI          1008d648     uuid:ieguids.obj
 0002:00007658       _OLE_DATAPATH_MPEG         1008d658     uuid:ieguids.obj
 0002:00007668       _OLE_DATAPATH_QUICKTIME    1008d668     uuid:ieguids.obj
 0002:00007678       _OLE_DATAPATH_BASICAUDIO   1008d678     uuid:ieguids.obj
 0002:00007688       _OLE_DATAPATH_MIDI         1008d688     uuid:ieguids.obj
 0002:00007698       _OLE_DATAPATH_WAV          1008d698     uuid:ieguids.obj
 0002:000076a8       _OLE_DATAPATH_RIFF         1008d6a8     uuid:ieguids.obj
 0002:000076b8       _OLE_DATAPATH_SOUND        1008d6b8     uuid:ieguids.obj
 0002:000076c8       _OLE_DATAPATH_VIDEO        1008d6c8     uuid:ieguids.obj
 0002:000076d8       _OLE_DATAPATH_ALLMM        1008d6d8     uuid:ieguids.obj
 0002:000076e8       _OLE_DATAPATH_ANSITEXT     1008d6e8     uuid:ieguids.obj
 0002:000076f8       _OLE_DATAPATH_UNICODE      1008d6f8     uuid:ieguids.obj
 0002:00007708       _OLE_DATAPATH_RTF          1008d708     uuid:ieguids.obj
 0002:00007718       _OLE_DATAPATH_HTML         1008d718     uuid:ieguids.obj
 0002:00007728       _OLE_DATAPATH_POSTSCRIPT   1008d728     uuid:ieguids.obj
 0002:00007738       _OLE_DATAPATH_ALLTEXT      1008d738     uuid:ieguids.obj
 0002:00007748       _OLE_DATAPATH_DIF          1008d748     uuid:ieguids.obj
 0002:00007758       _OLE_DATAPATH_SYLK         1008d758     uuid:ieguids.obj
 0002:00007768       _OLE_DATAPATH_BIFF         1008d768     uuid:ieguids.obj
 0002:00007778       _OLE_DATAPATH_PALETTE      1008d778     uuid:ieguids.obj
 0002:00007788       _OLE_DATAPATH_PENDATA      1008d788     uuid:ieguids.obj
 0002:00007798       _FLAGID_Internet           1008d798     uuid:ieguids.obj
 0002:000077a8       _ARRAYID_PathProperties    1008d7a8     uuid:ieguids.obj
 0002:000077b8       _CLSID_StdComponentCategoriesMgr 1008d7b8     uuid:ieguids.obj
 0002:000077c8       _CATID_Insertable          1008d7c8     uuid:ieguids.obj
 0002:000077d8       _CATID_Control             1008d7d8     uuid:ieguids.obj
 0002:000077e8       _CATID_Programmable        1008d7e8     uuid:ieguids.obj
 0002:000077f8       _CATID_IsShortcut          1008d7f8     uuid:ieguids.obj
 0002:00007808       _CATID_NeverShowExt        1008d808     uuid:ieguids.obj
 0002:00007818       _CATID_DocObject           1008d818     uuid:ieguids.obj
 0002:00007828       _CATID_Printable           1008d828     uuid:ieguids.obj
 0002:00007838       _CATID_RequiresDataPathHost 1008d838     uuid:ieguids.obj
 0002:00007848       _CATID_PersistsToMoniker   1008d848     uuid:ieguids.obj
 0002:00007858       _CATID_PersistsToStorage   1008d858     uuid:ieguids.obj
 0002:00007868       _CATID_PersistsToStreamInit 1008d868     uuid:ieguids.obj
 0002:00007878       _CATID_PersistsToStream    1008d878     uuid:ieguids.obj
 0002:00007888       _CATID_PersistsToMemory    1008d888     uuid:ieguids.obj
 0002:00007898       _CATID_PersistsToFile      1008d898     uuid:ieguids.obj
 0002:000078a8       _CATID_PersistsToPropertyBag 1008d8a8     uuid:ieguids.obj
 0002:000078b8       _CATID_InternetAware       1008d8b8     uuid:ieguids.obj
 0002:000078c8       _CATID_SafeForScripting    1008d8c8     uuid:ieguids.obj
 0002:000078d8       _CATID_SafeForInitializing 1008d8d8     uuid:ieguids.obj
 0002:000078e8       _CATID_DesignTimeUIActivatableControl 1008d8e8     uuid:ieguids.obj
 0002:000078f8       _CATID_AppContainerCompatible 1008d8f8     uuid:ieguids.obj
 0002:00007908       _CATID_ExtensionValidation 1008d908     uuid:ieguids.obj
 0002:00007918       _CLSID_IImgCtx             1008d918     uuid:ieguids.obj
 0002:00007928       _IID_IImgCtx               1008d928     uuid:ieguids.obj
 0002:00007938       _CLSID_IImageDecodeFilter  1008d938     uuid:ieguids.obj
 0002:00007948       _CGID_MSHTML               1008d948     uuid:ieguids.obj
 0002:00007958       _CLSID_MHTMLDocument       1008d958     uuid:ieguids.obj
 0002:00007968       _CLSID_HTADocument         1008d968     uuid:ieguids.obj
 0002:00007978       _CLSID_HTMLApplication     1008d978     uuid:ieguids.obj
 0002:00007988       _CLSID_HTMLPluginDocument  1008d988     uuid:ieguids.obj
 0002:00007998       _CGID_DocHostCommandHandler 1008d998     uuid:ieguids.obj
 0002:000079a8       _SID_SHTMLEditServices     1008d9a8     uuid:ieguids.obj
 0002:000079b8       _CGID_ScriptSite           1008d9b8     uuid:ieguids.obj
 0002:000079c8       _CLSID_IEXMLDocument       1008d9c8     uuid:ieguids.obj
 0002:000079d8       _CLSID_SVGDocument         1008d9d8     uuid:ieguids.obj
 0002:000079e8       _CLSID_XHTMLDocument       1008d9e8     uuid:ieguids.obj
 0002:000079f8       _CLSID_TDC                 1008d9f8     uuid:ieguids.obj
 0002:00007a08       _BFID_MONOCHROME           1008da08     uuid:ieguids.obj
 0002:00007a18       _BFID_RGB_4                1008da18     uuid:ieguids.obj
 0002:00007a28       _BFID_RGB_8                1008da28     uuid:ieguids.obj
 0002:00007a38       _BFID_RGB_555              1008da38     uuid:ieguids.obj
 0002:00007a48       _BFID_RGB_565              1008da48     uuid:ieguids.obj
 0002:00007a58       _BFID_RGB_24               1008da58     uuid:ieguids.obj
 0002:00007a68       _BFID_RGB_32               1008da68     uuid:ieguids.obj
 0002:00007a78       _BFID_RGBA_32              1008da78     uuid:ieguids.obj
 0002:00007a88       _BFID_GRAY_8               1008da88     uuid:ieguids.obj
 0002:00007a98       _BFID_GRAY_16              1008da98     uuid:ieguids.obj
 0002:00007aa8       _CLSID_IntDitherer         1008daa8     uuid:ieguids.obj
 0002:00007ab8       _IID_IIntDitherer          1008dab8     uuid:ieguids.obj
 0002:00007ac8       _NAMEDTIMER_DRAW           1008dac8     uuid:ieguids.obj
 0002:00007ad8       _CLSID_SoftDistExt         1008dad8     uuid:ieguids.obj
 0002:00007ae8       _CLSID_IActiveXSafetyProvider 1008dae8     uuid:ieguids.obj
 0002:00007af8       _CLSID_InternetSecurityManager 1008daf8     uuid:ieguids.obj
 0002:00007b08       _CLSID_InternetZoneManager 1008db08     uuid:ieguids.obj
 0002:00007b18       _GUID_CUSTOM_LOCALMACHINEZONEUNLOCKED 1008db18     uuid:ieguids.obj
 0002:00007b28       _CLSID_PersistentZoneIdentifier 1008db28     uuid:ieguids.obj
 0002:00007b38       _CLSID_HTMLLoadOptions     1008db38     uuid:ieguids.obj
 0002:00007b48       _CLSID_SubscriptionThrottler 1008db48     uuid:ieguids.obj
 0002:00007b58       _CGID_DownloadHost         1008db58     uuid:ieguids.obj
 0002:00007b68       _CGID_InternetExplorer     1008db68     uuid:ieguids.obj
 0002:00007b78       _SID_SVersionHost          1008db78     uuid:ieguids.obj
 0002:00007b88       _CLSID_XFeedsManager       1008db88     uuid:ieguids.obj
 0002:00007b98       _OID_INIPropStorage        1008db98     uuid:ieguids.obj
 0002:00007ba8       _SID_SNewWindowManagerDown 1008dba8     uuid:ieguids.obj
 0002:00007bb8       _IID_IDocObjectService     1008dbb8     uuid:ieguids.obj
 0002:00007bc8       _IID_IOpsProfileSimple     1008dbc8     uuid:ieguids.obj
 0002:00007bd8       _IID_ITridentService3      1008dbd8     uuid:ieguids.obj
 0002:00007be8       _IID_ITridentService4      1008dbe8     uuid:ieguids.obj
 0002:00007bf8       _IID_ITridentService5      1008dbf8     uuid:ieguids.obj
 0002:00007c08       _UUID_SharedRendertargetData 1008dc08     uuid:ieguids.obj
 0002:00007c18       _GUID_ATLVer30             1008dc18     atls:atlbase.obj
 0002:00007c28       _GUID_ATLVer70             1008dc28     atls:atlbase.obj
 0002:00007c38       _GUID_ATLVer100            1008dc38     atls:atlbase.obj
 0002:00007c48       _GUID_ATLVer110            1008dc48     atls:atlbase.obj
 0002:00007c58       ??_C@_1IC@ONKHOIDK@?$AAE?$AAR?$AAR?$AAO?$AAR?$AA?5?$AA?3?$AA?5?$AAU?$AAn?$AAa?$AAb?$AAl?$AAe?$AA?5@ 1008dc58     atls:atlbase.obj
 0002:00007cdc       ??_C@_13HADIAKP@?$AAS@     1008dcdc     atls:stdafx.obj
 0002:00007ce0       ??_C@_13LHMFKAAD@?$AAM@    1008dce0     atls:stdafx.obj
 0002:00007ce4       ??_C@_13MKMNOPIJ@?$AAD@    1008dce4     atls:stdafx.obj
 0002:00007ce8       ??_C@_13OPKGLAFF@?$AAB@    1008dce8     atls:stdafx.obj
 0002:00007cec       ??_C@_17LLMMEOJD@?$AAV?$AAa?$AAl@ 1008dcec     atls:stdafx.obj
 0002:00007cf4       ??_C@_1BI@JFAIJMHL@?$AAF?$AAo?$AAr?$AAc?$AAe?$AAR?$AAe?$AAm?$AAo?$AAv?$AAe@ 1008dcf4     atls:stdafx.obj
 0002:00007d0c       ??_C@_1BC@GCKHIPE@?$AAN?$AAo?$AAR?$AAe?$AAm?$AAo?$AAv?$AAe@ 1008dd0c     atls:stdafx.obj
 0002:00007d20       ??_C@_1O@JDLOHAN@?$AAD?$AAe?$AAl?$AAe?$AAt?$AAe@ 1008dd20     atls:stdafx.obj
 0002:00007d30       ??_C@_1CA@ONGMEOAB@?$AAa?$AAt?$AAl?$AAT?$AAr?$AAa?$AAc?$AAe?$AAG?$AAe?$AAn?$AAe?$AAr?$AAa?$AAl@ 1008dd30     atls:stdafx.obj
 0002:00007d50       ??_C@_1BI@MAFGHOEE@?$AAa?$AAt?$AAl?$AAT?$AAr?$AAa?$AAc?$AAe?$AAC?$AAO?$AAM@ 1008dd50     atls:stdafx.obj
 0002:00007d68       ??_C@_1BG@FPLJJEMF@?$AAa?$AAt?$AAl?$AAT?$AAr?$AAa?$AAc?$AAe?$AAQ?$AAI@ 1008dd68     atls:stdafx.obj
 0002:00007d80       ??_C@_1CE@NIAEAIDK@?$AAa?$AAt?$AAl?$AAT?$AAr?$AAa?$AAc?$AAe?$AAR?$AAe?$AAg?$AAi?$AAs?$AAt?$AAr@ 1008dd80     atls:stdafx.obj
 0002:00007da4       ??_C@_1CC@BNHGJFNK@?$AAa?$AAt?$AAl?$AAT?$AAr?$AAa?$AAc?$AAe?$AAR?$AAe?$AAf?$AAc?$AAo?$AAu?$AAn@ 1008dda4     atls:stdafx.obj
 0002:00007dc8       ??_C@_1CE@NAJDPMNB@?$AAa?$AAt?$AAl?$AAT?$AAr?$AAa?$AAc?$AAe?$AAW?$AAi?$AAn?$AAd?$AAo?$AAw?$AAi@ 1008ddc8     atls:stdafx.obj
 0002:00007dec       ??_C@_1CC@IMNJGBED@?$AAa?$AAt?$AAl?$AAT?$AAr?$AAa?$AAc?$AAe?$AAC?$AAo?$AAn?$AAt?$AAr?$AAo?$AAl@ 1008ddec     atls:stdafx.obj
 0002:00007e10       ??_C@_1CA@OMOMONMN@?$AAa?$AAt?$AAl?$AAT?$AAr?$AAa?$AAc?$AAe?$AAH?$AAo?$AAs?$AAt?$AAi?$AAn?$AAg@ 1008de10     atls:stdafx.obj
 0002:00007e30       ??_C@_1CC@JNJJDOOH@?$AAa?$AAt?$AAl?$AAT?$AAr?$AAa?$AAc?$AAe?$AAD?$AAB?$AAC?$AAl?$AAi?$AAe?$AAn@ 1008de30     atls:stdafx.obj
 0002:00007e54       ??_C@_1CG@MNMMIOOI@?$AAa?$AAt?$AAl?$AAT?$AAr?$AAa?$AAc?$AAe?$AAD?$AAB?$AAP?$AAr?$AAo?$AAv?$AAi@ 1008de54     atls:stdafx.obj
 0002:00007e7c       ??_C@_1BO@EFPHNHHN@?$AAa?$AAt?$AAl?$AAT?$AAr?$AAa?$AAc?$AAe?$AAS?$AAn?$AAa?$AAp?$AAi?$AAn@ 1008de7c     atls:stdafx.obj
 0002:00007e9c       ??_C@_1CA@DMHPIODO@?$AAa?$AAt?$AAl?$AAT?$AAr?$AAa?$AAc?$AAe?$AAN?$AAo?$AAt?$AAI?$AAm?$AAp?$AAl@ 1008de9c     atls:stdafx.obj
 0002:00007ebc       ??_C@_1CG@KFEEMCDH@?$AAa?$AAt?$AAl?$AAT?$AAr?$AAa?$AAc?$AAe?$AAA?$AAl?$AAl?$AAo?$AAc?$AAa?$AAt@ 1008debc     atls:stdafx.obj
 0002:00007ee4       ??_C@_1CE@IMMADNAP@?$AAa?$AAt?$AAl?$AAT?$AAr?$AAa?$AAc?$AAe?$AAE?$AAx?$AAc?$AAe?$AAp?$AAt?$AAi@ 1008dee4     atls:stdafx.obj
 0002:00007f08       ??_C@_1BK@NCJHOFCL@?$AAa?$AAt?$AAl?$AAT?$AAr?$AAa?$AAc?$AAe?$AAT?$AAi?$AAm?$AAe@ 1008df08     atls:stdafx.obj
 0002:00007f24       ??_C@_1BM@GIKLHLFD@?$AAa?$AAt?$AAl?$AAT?$AAr?$AAa?$AAc?$AAe?$AAC?$AAa?$AAc?$AAh?$AAe@ 1008df24     atls:stdafx.obj
 0002:00007f40       ??_C@_1CA@PBPHANCD@?$AAa?$AAt?$AAl?$AAT?$AAr?$AAa?$AAc?$AAe?$AAS?$AAt?$AAe?$AAn?$AAc?$AAi?$AAl@ 1008df40     atls:stdafx.obj
 0002:00007f60       ??_C@_1BO@GMLILNDJ@?$AAa?$AAt?$AAl?$AAT?$AAr?$AAa?$AAc?$AAe?$AAS?$AAt?$AAr?$AAi?$AAn?$AAg@ 1008df60     atls:stdafx.obj
 0002:00007f80       ??_C@_1BI@OKDLCIEM@?$AAa?$AAt?$AAl?$AAT?$AAr?$AAa?$AAc?$AAe?$AAM?$AAa?$AAp@ 1008df80     atls:stdafx.obj
 0002:00007f98       ??_C@_1BK@DMHCKHHD@?$AAa?$AAt?$AAl?$AAT?$AAr?$AAa?$AAc?$AAe?$AAU?$AAt?$AAi?$AAl@ 1008df98     atls:stdafx.obj
 0002:00007fb4       ??_C@_1CC@DMMBNCFG@?$AAa?$AAt?$AAl?$AAT?$AAr?$AAa?$AAc?$AAe?$AAS?$AAe?$AAc?$AAu?$AAr?$AAi?$AAt@ 1008dfb4     atls:stdafx.obj
 0002:00007fd8       ??_C@_1BK@OPAPOCAL@?$AAa?$AAt?$AAl?$AAT?$AAr?$AAa?$AAc?$AAe?$AAS?$AAy?$AAn?$AAc@ 1008dfd8     atls:stdafx.obj
 0002:00007ff4       ??_C@_1BM@FHAEDBFK@?$AAa?$AAt?$AAl?$AAT?$AAr?$AAa?$AAc?$AAe?$AAI?$AAS?$AAA?$AAP?$AAI@ 1008dff4     atls:stdafx.obj
 0002:00008018       ?nothrow@std@@3Unothrow_t@1@B 1008e018     LIBCMTD:std_nothrow.obj
 0002:0000801c       __pRawDllMain              1008e01c     LIBCMTD:dll_dllmain.obj
 0002:0000801c       __pDefaultRawDllMain       1008e01c     LIBCMTD:dll_dllmain.obj
 0002:000080c0       ??_C@_0NN@NGPKDKPD@The?5value?5of?5ESP?5was?5not?5proper@ 1008e0c0     LIBCMTD:error.obj
 0002:000081a0       ??_C@_0BBN@GPMLNJCF@A?5cast?5to?5a?5smaller?5data?5type?5h@ 1008e1a0     LIBCMTD:error.obj
 0002:000082c0       ??_C@_0BN@FFOINMNJ@Stack?5memory?5was?5corrupted?6?$AN@ 1008e2c0     LIBCMTD:error.obj
 0002:000082e0       ??_C@_0DG@HKJMLLLP@A?5local?5variable?5was?5used?5befor@ 1008e2e0     LIBCMTD:error.obj
 0002:00008318       ??_C@_0CM@NGINOKPC@Stack?5memory?5around?5_alloca?5was@ 1008e318     LIBCMTD:error.obj
 0002:00008344       ??_C@_0BO@GNIAFIKK@Unknown?5Runtime?5Check?5Error?6?$AN@ 1008e344     LIBCMTD:error.obj
 0002:00008368       ??_C@_1GM@OLMCBDMB@?$AAR?$AAu?$AAn?$AAt?$AAi?$AAm?$AAe?$AA?5?$AAC?$AAh?$AAe?$AAc?$AAk?$AA?5?$AAE@ 1008e368     LIBCMTD:error.obj
 0002:000083d8       ??_C@_1EA@NFKNIFJP@?$AAR?$AAu?$AAn?$AA?9?$AAT?$AAi?$AAm?$AAe?$AA?5?$AAC?$AAh?$AAe?$AAc?$AAk?$AA?5@ 1008e3d8     LIBCMTD:error.obj
 0002:00008418       ??_C@_0BB@PFFGGCJP@Unknown?5Filename@ 1008e418     LIBCMTD:error.obj
 0002:0000842c       ??_C@_0BE@GNBOBNCK@Unknown?5Module?5Name@ 1008e42c     LIBCMTD:error.obj
 0002:00008440       ??_C@_0CA@IODNCDPG@Run?9Time?5Check?5Failure?5?$CD?$CFd?5?9?5?$CFs@ 1008e440     LIBCMTD:error.obj
 0002:00008460       ??_C@_0CG@IAFNJNEE@Stack?5corrupted?5near?5unknown?5va@ 1008e460     LIBCMTD:error.obj
 0002:00008488       ??_C@_05MKKEDADM@?$CF?42X?5@ 1008e488     LIBCMTD:error.obj
 0002:00008490       ??_C@_0EJ@LJKNEOLN@Stack?5area?5around?5_alloca?5memor@ 1008e490     LIBCMTD:error.obj
 0002:000084dc       ??_C@_01EEMJAFIK@?6@       1008e4dc     LIBCMTD:error.obj
 0002:000084e0       ??_C@_02LLMPMKNF@?$DO?5@   1008e4e0     LIBCMTD:error.obj
 0002:000084e4       ??_C@_08OMAHNMHJ@?6Data?3?5?$DM@ 1008e4e4     LIBCMTD:error.obj
 0002:000084f0       ??_C@_0CK@DKGBICFE@?6Allocation?5number?5within?5this?5@ 1008e4f0     LIBCMTD:error.obj
 0002:0000851c       ??_C@_07DFDJCKFN@?6Size?3?5@ 1008e51c     LIBCMTD:error.obj
 0002:00008524       ??_C@_0N@MHFFIMFG@?6Address?3?50x@ 1008e524     LIBCMTD:error.obj
 0002:00008538       ??_C@_0EI@CLEPFNGI@Stack?5area?5around?5_alloca?5memor@ 1008e538     LIBCMTD:error.obj
 0002:00008580       ??_C@_0BK@ODNDAGKB@?$CFs?$CFs?$CFp?$CFs?$CFzd?$CFs?$CFd?$CFs?$CFs?$CFs?$CFs?$CFs@ 1008e580     LIBCMTD:error.obj
 0002:0000859c       ??_C@_0DE@OHJBPMBP@A?5variable?5is?5being?5used?5withou@ 1008e59c     LIBCMTD:error.obj
 0002:000085e4       ??_C@_0BJ@HEGAHDFO@Stack?5pointer?5corruption@ 1008e5e4     LIBCMTD:userapi.obj
 0002:00008600       ??_C@_0CK@FEGOIOPB@Cast?5to?5smaller?5type?5causing?5lo@ 1008e600     LIBCMTD:userapi.obj
 0002:0000862c       ??_C@_0BI@CIGMDCBH@Stack?5memory?5corruption@ 1008e62c     LIBCMTD:userapi.obj
 0002:00008644       ??_C@_0CK@CNLNOEPB@Local?5variable?5used?5before?5init@ 1008e644     LIBCMTD:userapi.obj
 0002:00008670       ??_C@_0BP@OGBCLIBO@Stack?5around?5_alloca?5corrupted@ 1008e670     LIBCMTD:userapi.obj
 0002:000086d8       ??_C@_1EI@MLPKHBGE@?$AAa?$AAp?$AAi?$AA?9?$AAm?$AAs?$AA?9?$AAw?$AAi?$AAn?$AA?9?$AAc?$AAo?$AAr?$AAe@ 1008e6d8     LIBCMTD:pdblkup.obj
 0002:00008720       ??_C@_1BK@JHLNAEJL@?$AAa?$AAd?$AAv?$AAa?$AAp?$AAi?$AA3?$AA2?$AA?4?$AAd?$AAl?$AAl@ 1008e720     LIBCMTD:pdblkup.obj
 0002:0000873c       ??_C@_0O@COHOBMLB@RegOpenKeyExW@ 1008e73c     LIBCMTD:pdblkup.obj
 0002:0000874c       ??_C@_0BB@GLNAEDBD@RegQueryValueExW@ 1008e74c     LIBCMTD:pdblkup.obj
 0002:00008760       ??_C@_0M@HLOHPNFA@RegCloseKey@ 1008e760     LIBCMTD:pdblkup.obj
 0002:00008770       ??_C@_1HE@EBEAGLFB@?$AAS?$AAO?$AAF?$AAT?$AAW?$AAA?$AAR?$AAE?$AA?2?$AAW?$AAo?$AAw?$AA6?$AA4?$AA3@ 1008e770     LIBCMTD:pdblkup.obj
 0002:000087e4       ??_C@_1BG@EABPBLLF@?$AAP?$AAr?$AAo?$AAd?$AAu?$AAc?$AAt?$AAD?$AAi?$AAr@ 1008e7e4     LIBCMTD:pdblkup.obj
 0002:00008818       ??_C@_1BC@JINFINNJ@?$AAM?$AAS?$AAP?$AAD?$AAB?$AA1?$AA4?$AA0@ 1008e818     LIBCMTD:pdblkup.obj
 0002:0000882c       ??_C@_0BB@KCIACLNC@PDBOpenValidate5@ 1008e82c     LIBCMTD:pdblkup.obj
 0002:00008840       ??_C@_01KDCPPGHE@r@        1008e840     LIBCMTD:pdblkup.obj
 0002:00008848       ??_7exception@std@@6B@     1008e848     LIBCMTD:throw_bad_alloc.obj
 0002:00008850       ??_C@_0BC@EOODALEL@Unknown?5exception@ 1008e850     LIBCMTD:throw_bad_alloc.obj
 0002:00008868       ??_7bad_alloc@std@@6B@     1008e868     LIBCMTD:throw_bad_alloc.obj
 0002:00008870       ??_C@_0P@GHFPNOJB@bad?5allocation@ 1008e870     LIBCMTD:throw_bad_alloc.obj
 0002:00008884       ??_7bad_array_new_length@std@@6B@ 1008e884     LIBCMTD:throw_bad_alloc.obj
 0002:0000888c       ??_C@_0BF@KINCDENJ@bad?5array?5new?5length@ 1008e88c     LIBCMTD:throw_bad_alloc.obj
 0002:000088a8       ??_7type_info@@6B@         1008e8a8     LIBCMTD:std_type_info_static.obj
 0002:000088b0       ??_C@_0EG@JFCNJADL@d?3?2agent?2_work?23?2s?2src?2vctools?2@ 1008e8b0     libvcruntimed:std_type_info.obj
 0002:000088f8       ??_C@_1FK@OACNEHHA@?$AAt?$AAo?$AA?9?$AA?$DO?$AA_?$AAW?$AAh?$AAa?$AAt?$AA?5?$AA?$DN?$AA?$DN?$AA?5?$AAn?$AAu@ 1008e8f8     libvcruntimed:std_exception.obj
 0002:00008958       ??_C@_1IM@JDJIHKNJ@?$AAd?$AA?3?$AA?2?$AAa?$AAg?$AAe?$AAn?$AAt?$AA?2?$AA_?$AAw?$AAo?$AAr?$AAk?$AA?2@ 1008e958     libvcruntimed:std_exception.obj
 0002:00008a08       ??_C@_0EO@OEGLKFCL@d?3?2agent?2_work?23?2s?2src?2vctools?2@ 1008ea08     libvcruntimed:per_thread_data.obj
 0002:00008a5c       ??_7bad_exception@std@@6B@ 1008ea5c     libvcruntimed:frame.obj
 0002:00008a64       ??_C@_0O@DPKOEFFH@bad?5exception@ 1008ea64     libvcruntimed:frame.obj
 0002:00008c18       ??_C@_08EHJDFFNH@__based?$CI@ 1008ec18     libvcruntimed:undname.obj
 0002:00008c24       ??_C@_07KOLFKCDI@__cdecl@  1008ec24     libvcruntimed:undname.obj
 0002:00008c2c       ??_C@_08GHMPAG@__pascal@   1008ec2c     libvcruntimed:undname.obj
 0002:00008c38       ??_C@_09IFJBGAPI@__stdcall@ 1008ec38     libvcruntimed:undname.obj
 0002:00008c44       ??_C@_0L@NPHFGOKO@__thiscall@ 1008ec44     libvcruntimed:undname.obj
 0002:00008c50       ??_C@_0L@JMKHOMEK@__fastcall@ 1008ec50     libvcruntimed:undname.obj
 0002:00008c5c       ??_C@_0N@BCKKPABJ@__vectorcall@ 1008ec5c     libvcruntimed:undname.obj
 0002:00008c6c       ??_C@_09HIJEGCPM@__clrcall@ 1008ec6c     libvcruntimed:undname.obj
 0002:00008c78       ??_C@_06GHPCKEAG@__eabi@   1008ec78     libvcruntimed:undname.obj
 0002:00008c80       ??_C@_09IOPIDJLG@__swift_1@ 1008ec80     libvcruntimed:undname.obj
 0002:00008c8c       ??_C@_09KFNFGKHF@__swift_2@ 1008ec8c     libvcruntimed:undname.obj
 0002:00008c98       ??_C@_07JOMMBBKO@__ptr64@  1008ec98     libvcruntimed:undname.obj
 0002:00008ca0       ??_C@_0L@PILCLIHE@__restrict@ 1008eca0     libvcruntimed:undname.obj
 0002:00008cac       ??_C@_0M@GFIIJFMG@__unaligned@ 1008ecac     libvcruntimed:undname.obj
 0002:00008cb8       ??_C@_09DHDLOLLB@restrict?$CI@ 1008ecb8     libvcruntimed:undname.obj
 0002:00008cc2       ??_C@_00CNPNBAHC@@         1008ecc2     libvcruntimed:undname.obj
 0002:00008cc4       ??_C@_04NIHEBCM@?5new@     1008ecc4     libvcruntimed:undname.obj
 0002:00008ccc       ??_C@_07FPCDHGMM@?5delete@ 1008eccc     libvcruntimed:undname.obj
 0002:00008cd4       ??_C@_01NEMOKFLO@?$DN@     1008ecd4     libvcruntimed:undname.obj
 0002:00008cd8       ??_C@_02GPIOPFAK@?$DO?$DO@ 1008ecd8     libvcruntimed:undname.obj
 0002:00008cdc       ??_C@_02FODMEDOG@?$DM?$DM@ 1008ecdc     libvcruntimed:undname.obj
 0002:00008ce0       ??_C@_01DCLJPIOD@?$CB@     1008ece0     libvcruntimed:undname.obj
 0002:00008ce4       ??_C@_02EGOFBIJA@?$DN?$DN@ 1008ece4     libvcruntimed:undname.obj
 0002:00008ce8       ??_C@_02FDNJECIE@?$CB?$DN@ 1008ece8     libvcruntimed:undname.obj
 0002:00008cec       ??_C@_02GPECMEKF@?$FL?$FN@ 1008ecec     libvcruntimed:undname.obj
 0002:00008cf0       ??_C@_08LHJFAFGD@operator@ 1008ecf0     libvcruntimed:undname.obj
 0002:00008cfc       ??_C@_02HBOOOICD@?9?$DO@   1008ecfc     libvcruntimed:undname.obj
 0002:00008d00       ??_C@_01NBENCBCI@?$CK@     1008ed00     libvcruntimed:undname.obj
 0002:00008d04       ??_C@_02ECNGHCIF@?$CL?$CL@ 1008ed04     libvcruntimed:undname.obj
 0002:00008d08       ??_C@_02BAABKJLB@?9?9@     1008ed08     libvcruntimed:undname.obj
 0002:00008d0c       ??_C@_01JOAMLHOP@?9@       1008ed0c     libvcruntimed:undname.obj
 0002:00008d10       ??_C@_01MIFGBAGJ@?$CL@     1008ed10     libvcruntimed:undname.obj
 0002:00008d14       ??_C@_01HNPIGOCE@?$CG@     1008ed14     libvcruntimed:undname.obj
 0002:00008d18       ??_C@_03MNHNFDLC@?9?$DO?$CK@ 1008ed18     libvcruntimed:undname.obj
 0002:00008d1c       ??_C@_01KMDKNFGN@?1@       1008ed1c     libvcruntimed:undname.obj
 0002:00008d20       ??_C@_01FGNFDNOH@?$CF@     1008ed20     libvcruntimed:undname.obj
 0002:00008d24       ??_C@_01MNNFJEPP@?$DM@     1008ed24     libvcruntimed:undname.obj
 0002:00008d28       ??_C@_02EHCHHCKH@?$DM?$DN@ 1008ed28     libvcruntimed:undname.obj
 0002:00008d2c       ??_C@_01PPODPGHN@?$DO@     1008ed2c     libvcruntimed:undname.obj
 0002:00008d30       ??_C@_02EEKDKGMJ@?$DO?$DN@ 1008ed30     libvcruntimed:undname.obj
 0002:00008d34       ??_C@_01IHBHIGKO@?0@       1008ed34     libvcruntimed:undname.obj
 0002:00008d38       ??_C@_02HCKGKOFO@?$CI?$CJ@ 1008ed38     libvcruntimed:undname.obj
 0002:00008d3c       ??_C@_01PJKLJHI@?$HO@      1008ed3c     libvcruntimed:undname.obj
 0002:00008d40       ??_C@_01JKBOJNNK@?$FO@     1008ed40     libvcruntimed:undname.obj
 0002:00008d44       ??_C@_01DNKMNLPK@?$HM@     1008ed44     libvcruntimed:undname.obj
 0002:00008d48       ??_C@_02PPKAJPJL@?$CG?$CG@ 1008ed48     libvcruntimed:undname.obj
 0002:00008d4c       ??_C@_02NONPIBCD@?$HM?$HM@ 1008ed4c     libvcruntimed:undname.obj
 0002:00008d50       ??_C@_02FPIMKNGF@?$CK?$DN@ 1008ed50     libvcruntimed:undname.obj
 0002:00008d54       ??_C@_02FOEOMHFC@?$CL?$DN@ 1008ed54     libvcruntimed:undname.obj
 0002:00008d58       ??_C@_02FKMDLLOA@?9?$DN@   1008ed58     libvcruntimed:undname.obj
 0002:00008d5c       ??_C@_02FJEHGPIO@?1?$DN@   1008ed5c     libvcruntimed:undname.obj
 0002:00008d60       ??_C@_02FENAOKFI@?$CF?$DN@ 1008ed60     libvcruntimed:undname.obj
 0002:00008d64       ??_C@_03IKFCCPFF@?$DO?$DO?$DN@ 1008ed64     libvcruntimed:undname.obj
 0002:00008d68       ??_C@_03CDNPDDLA@?$DM?$DM?$DN@ 1008ed68     libvcruntimed:undname.obj
 0002:00008d6c       ??_C@_02FGJGFEAB@?$CG?$DN@ 1008ed6c     libvcruntimed:undname.obj
 0002:00008d70       ??_C@_02DHLNPPGH@?$HM?$DN@ 1008ed70     libvcruntimed:undname.obj
 0002:00008d74       ??_C@_02MHEGNOJ@?$FO?$DN@  1008ed74     libvcruntimed:undname.obj
 0002:00008d78       ??_C@_09IFPLHPGF@?$GAvftable?8@ 1008ed78     libvcruntimed:undname.obj
 0002:00008d84       ??_C@_09BLBHBJP@?$GAvbtable?8@ 1008ed84     libvcruntimed:undname.obj
 0002:00008d90       ??_C@_07FEEIOKP@?$GAvcall?8@ 1008ed90     libvcruntimed:undname.obj
 0002:00008d98       ??_C@_08LLFFHHDJ@?$GAtypeof?8@ 1008ed98     libvcruntimed:undname.obj
 0002:00008da4       ??_C@_0BF@KDPPACIK@?$GAlocal?5static?5guard?8@ 1008eda4     libvcruntimed:undname.obj
 0002:00008dbc       ??_C@_08OBABFOLI@?$GAstring?8@ 1008edbc     libvcruntimed:undname.obj
 0002:00008dc8       ??_C@_0BD@JDLKDPAB@?$GAvbase?5destructor?8@ 1008edc8     libvcruntimed:undname.obj
 0002:00008ddc       ??_C@_0BN@DEGPLNFK@?$GAvector?5deleting?5destructor?8@ 1008eddc     libvcruntimed:undname.obj
 0002:00008dfc       ??_C@_0BO@OBMKPJIG@?$GAdefault?5constructor?5closure?8@ 1008edfc     libvcruntimed:undname.obj
 0002:00008e1c       ??_C@_0BN@IMDCHIKM@?$GAscalar?5deleting?5destructor?8@ 1008ee1c     libvcruntimed:undname.obj
 0002:00008e3c       ??_C@_0BO@PFGOCPJJ@?$GAvector?5constructor?5iterator?8@ 1008ee3c     libvcruntimed:undname.obj
 0002:00008e5c       ??_C@_0BN@LFPFMEDL@?$GAvector?5destructor?5iterator?8@ 1008ee5c     libvcruntimed:undname.obj
 0002:00008e7c       ??_C@_0CE@IKBNEHA@?$GAvector?5vbase?5constructor?5itera@ 1008ee7c     libvcruntimed:undname.obj
 0002:00008ea0       ??_C@_0BL@NILFHHPC@?$GAvirtual?5displacement?5map?8@ 1008eea0     libvcruntimed:undname.obj
 0002:00008ebc       ??_C@_0CB@JONCMFFK@?$GAeh?5vector?5constructor?5iterator@ 1008eebc     libvcruntimed:undname.obj
 0002:00008ee0       ??_C@_0CA@GCEOPDGL@?$GAeh?5vector?5destructor?5iterator?8@ 1008eee0     libvcruntimed:undname.obj
 0002:00008f00       ??_C@_0CH@OOJPLCPH@?$GAeh?5vector?5vbase?5constructor?5it@ 1008ef00     libvcruntimed:undname.obj
 0002:00008f28       ??_C@_0BL@LLKPOHJI@?$GAcopy?5constructor?5closure?8@ 1008ef28     libvcruntimed:undname.obj
 0002:00008f44       ??_C@_0BA@KBCDOMBN@?$GAudt?5returning?8@ 1008ef44     libvcruntimed:undname.obj
 0002:00008f54       ??_C@_03KLGMFNMG@?$GAEH@   1008ef54     libvcruntimed:undname.obj
 0002:00008f58       ??_C@_05KHLCHHI@?$GARTTI@  1008ef58     libvcruntimed:undname.obj
 0002:00008f60       ??_C@_0BA@KKLDJDLB@?$GAlocal?5vftable?8@ 1008ef60     libvcruntimed:undname.obj
 0002:00008f70       ??_C@_0CE@IIHCMGGL@?$GAlocal?5vftable?5constructor?5clos@ 1008ef70     libvcruntimed:undname.obj
 0002:00008f94       ??_C@_06FHBGPFGH@?5new?$FL?$FN@ 1008ef94     libvcruntimed:undname.obj
 0002:00008f9c       ??_C@_09LBNFPBCA@?5delete?$FL?$FN@ 1008ef9c     libvcruntimed:undname.obj
 0002:00008fa8       ??_C@_0P@HJKNJFNN@?$GAomni?5callsig?8@ 1008efa8     libvcruntimed:undname.obj
 0002:00008fb8       ??_C@_0BL@CNOONJFP@?$GAplacement?5delete?5closure?8@ 1008efb8     libvcruntimed:undname.obj
 0002:00008fd4       ??_C@_0BN@CKNJLHMB@?$GAplacement?5delete?$FL?$FN?5closure?8@ 1008efd4     libvcruntimed:undname.obj
 0002:00008ff4       ??_C@_0CG@CFDHKGGD@?$GAmanaged?5vector?5constructor?5ite@ 1008eff4     libvcruntimed:undname.obj
 0002:0000901c       ??_C@_0CF@IMGKMJNO@?$GAmanaged?5vector?5destructor?5iter@ 1008f01c     libvcruntimed:undname.obj
 0002:00009044       ??_C@_0CG@HLDDJMAG@?$GAeh?5vector?5copy?5constructor?5ite@ 1008f044     libvcruntimed:undname.obj
 0002:0000906c       ??_C@_0CM@FCBBDIGB@?$GAeh?5vector?5vbase?5copy?5construct@ 1008f06c     libvcruntimed:undname.obj
 0002:00009098       ??_C@_0BL@CLIPGLGB@?$GAdynamic?5initializer?5for?5?8@ 1008f098     libvcruntimed:undname.obj
 0002:000090b4       ??_C@_0CB@PDBIFEP@?$GAdynamic?5atexit?5destructor?5for?5@ 1008f0b4     libvcruntimed:undname.obj
 0002:000090d8       ??_C@_0CD@CGAJBKEJ@?$GAvector?5copy?5constructor?5iterat@ 1008f0d8     libvcruntimed:undname.obj
 0002:000090fc       ??_C@_0CJ@GJELGAMM@?$GAvector?5vbase?5copy?5constructor?5@ 1008f0fc     libvcruntimed:undname.obj
 0002:00009128       ??_C@_0CL@FGIJHLCE@?$GAmanaged?5vector?5copy?5constructo@ 1008f128     libvcruntimed:undname.obj
 0002:00009154       ??_C@_0BM@PMGGMLDN@?$GAlocal?5static?5thread?5guard?8@ 1008f154     libvcruntimed:undname.obj
 0002:00009170       ??_C@_0N@BDNMDMOL@operator?5?$CC?$CC?5@ 1008f170     libvcruntimed:undname.obj
 0002:00009180       ??_C@_0BC@GGEBGALA@operator?5co_await@ 1008f180     libvcruntimed:undname.obj
 0002:00009194       ??_C@_0M@GAAIMMOH@operator?$DM?$DN?$DO@ 1008f194     libvcruntimed:undname.obj
 0002:000091a0       ??_C@_0BC@DAFEJGAK@?5Type?5Descriptor?8@ 1008f1a0     libvcruntimed:undname.obj
 0002:000091b4       ??_C@_0BM@LDKODKLH@?5Base?5Class?5Descriptor?5at?5?$CI@ 1008f1b4     libvcruntimed:undname.obj
 0002:000091d0       ??_C@_0BD@LGICGFMM@?5Base?5Class?5Array?8@ 1008f1d0     libvcruntimed:undname.obj
 0002:000091e4       ??_C@_0BN@MECKDCOJ@?5Class?5Hierarchy?5Descriptor?8@ 1008f1e4     libvcruntimed:undname.obj
 0002:00009204       ??_C@_0BK@CFCOFLF@?5Complete?5Object?5Locator?8@ 1008f204     libvcruntimed:undname.obj
 0002:00009220       ??_C@_04HEJADOOB@CV?3?5@   1008f220     libvcruntimed:undname.obj
 0002:00009228       ??_C@_03GDILBHBJ@$$h@      1008f228     libvcruntimed:undname.obj
 0002:0000922c       ??_C@_02MOLJINC@?3?3@      1008f22c     libvcruntimed:undname.obj
 0002:00009230       ??_C@_0BE@JAEOCHPE@template?9parameter?9@ 1008f230     libvcruntimed:undname.obj
 0002:00009244       ??_C@_0O@KHGCOMHP@generic?9type?9@ 1008f244     libvcruntimed:undname.obj
 0002:00009254       ??_C@_01NLNLIGKH@?$GA@     1008f254     libvcruntimed:undname.obj
 0002:00009258       ??_C@_01GEODFPGF@?8@       1008f258     libvcruntimed:undname.obj
 0002:0000925c       ??_C@_0BG@JNJLAMPM@?$GAanonymous?5namespace?8@ 1008f25c     libvcruntimed:undname.obj
 0002:00009274       ??_C@_02OHHJMEON@?8?8@     1008f274     libvcruntimed:undname.obj
 0002:00009278       ??_C@_0BN@IBLMMFAP@?$GAnon?9type?9template?9parameter@ 1008f278     libvcruntimed:undname.obj
 0002:00009298       ??_C@_03KHICJKCI@?4?4?4@   1008f298     libvcruntimed:undname.obj
 0002:0000929c       ??_C@_04HIBGFPH@NULL@      1008f29c     libvcruntimed:undname.obj
 0002:000092a4       ??_C@_02DPKJAMEF@?$CFd@    1008f2a4     libvcruntimed:undname.obj
 0002:000092a8       ??_C@_0BK@IHCCFNEL@?$GAtemplate?9type?9parameter?9@ 1008f2a8     libvcruntimed:undname.obj
 0002:000092c4       ??_C@_0BK@OFCNNNKO@?$GAgeneric?9class?9parameter?9@ 1008f2c4     libvcruntimed:undname.obj
 0002:000092e0       ??_C@_0BL@NGJBLFIL@?$GAgeneric?9method?9parameter?9@ 1008f2e0     libvcruntimed:undname.obj
 0002:000092fc       ??_C@_04GKJNKENE@void@     1008f2fc     libvcruntimed:undname.obj
 0002:00009304       ??_C@_0BE@EODMJLIF@?$GAtemplate?9parameter@ 1008f304     libvcruntimed:undname.obj
 0002:00009318       ??_C@_03OPGICMGF@?$HN?8?5@ 1008f318     libvcruntimed:undname.obj
 0002:0000931c       ??_C@_02IGFCGPIL@?$HN?8@   1008f31c     libvcruntimed:undname.obj
 0002:00009320       ??_C@_01CLKCMJKC@?5@       1008f320     libvcruntimed:undname.obj
 0002:00009324       ??_C@_0N@CBHHHENL@?$GAvtordispex?$HL@ 1008f324     libvcruntimed:undname.obj
 0002:00009334       ??_C@_0L@GHPFDFH@?$GAvtordisp?$HL@ 1008f334     libvcruntimed:undname.obj
 0002:00009340       ??_C@_0L@HNGCOGAE@?$GAadjustor?$HL@ 1008f340     libvcruntimed:undname.obj
 0002:0000934c       ??_C@_0CB@KJDOOODE@?$GAlocal?5static?5destructor?5helper@ 1008f34c     libvcruntimed:undname.obj
 0002:00009370       ??_C@_0DB@ILEFOCIJ@?$GAtemplate?5static?5data?5member?5co@ 1008f370     libvcruntimed:undname.obj
 0002:000093a4       ??_C@_0DA@HGFJFBBE@?$GAtemplate?5static?5data?5member?5de@ 1008f3a4     libvcruntimed:undname.obj
 0002:000093d4       ??_C@_07PGOEDBHP@static?5@ 1008f3d4     libvcruntimed:undname.obj
 0002:000093dc       ??_C@_08NIEOINHE@virtual?5@ 1008f3dc     libvcruntimed:undname.obj
 0002:000093e8       ??_C@_09LAPHOOG@private?3?5@ 1008f3e8     libvcruntimed:undname.obj
 0002:000093f4       ??_C@_0M@GAIFPFIP@protected?3?5@ 1008f3f4     libvcruntimed:undname.obj
 0002:00009400       ??_C@_08GPDDCMKI@public?3?5@ 1008f400     libvcruntimed:undname.obj
 0002:0000940c       ??_C@_08KJLFOPNE@?$FLthunk?$FN?3@ 1008f40c     libvcruntimed:undname.obj
 0002:00009418       ??_C@_0M@DHNBOJMP@extern?5?$CCC?$CC?5@ 1008f418     libvcruntimed:undname.obj
 0002:00009424       ??_C@_02KCKGHPCA@?$CJ?5@   1008f424     libvcruntimed:undname.obj
 0002:00009428       ??_C@_05CIHEBHNO@char?5@   1008f428     libvcruntimed:undname.obj
 0002:00009430       ??_C@_06EHJMALKF@short?5@  1008f430     libvcruntimed:undname.obj
 0002:00009438       ??_C@_04LAHKHJMA@int?5@    1008f438     libvcruntimed:undname.obj
 0002:00009440       ??_C@_05CJIMAING@long?5@   1008f440     libvcruntimed:undname.obj
 0002:00009448       ??_C@_09EBBEKKIH@unsigned?5@ 1008f448     libvcruntimed:undname.obj
 0002:00009454       ??_C@_05BEFAKPML@void?5@   1008f454     libvcruntimed:undname.obj
 0002:0000945c       ??_C@_08PABEKFH@volatile@  1008f45c     libvcruntimed:undname.obj
 0002:00009468       ??_C@_0BA@LKIJLKPP@std?3?3nullptr_t?5@ 1008f468     libvcruntimed:undname.obj
 0002:00009478       ??_C@_0P@GCOCNKDM@std?3?3nullptr_t@ 1008f478     libvcruntimed:undname.obj
 0002:00009488       ??_C@_0L@EGPHHEKN@?$DMellipsis?$DO@ 1008f488     libvcruntimed:undname.obj
 0002:00009494       ??_C@_04EENFHACM@?0?4?4?4@ 1008f494     libvcruntimed:undname.obj
 0002:0000949c       ??_C@_0M@ELJOJFFH@?0?$DMellipsis?$DO@ 1008f49c     libvcruntimed:undname.obj
 0002:000094a8       ??_C@_09DNHFEOJI@?5noexcept@ 1008f4a8     libvcruntimed:undname.obj
 0002:000094b4       ??_C@_03PBJBJNON@cpu@      1008f4b4     libvcruntimed:undname.obj
 0002:000094b8       ??_C@_03DCBBJBAA@amp@      1008f4b8     libvcruntimed:undname.obj
 0002:000094bc       ??_C@_02KEGNLNML@?0?5@     1008f4bc     libvcruntimed:undname.obj
 0002:000094c0       ??_C@_04ENMBGAPA@char@     1008f4c0     libvcruntimed:undname.obj
 0002:000094c8       ??_C@_05BFKKPKCG@short@    1008f4c8     libvcruntimed:undname.obj
 0002:000094d0       ??_C@_03JBIPMCLC@int@      1008f4d0     libvcruntimed:undname.obj
 0002:000094d4       ??_C@_04GOKPGOLB@long@     1008f4d4     libvcruntimed:undname.obj
 0002:000094dc       ??_C@_05KNFBNCOH@float@    1008f4dc     libvcruntimed:undname.obj
 0002:000094e4       ??_C@_06BNJCAIGJ@double@   1008f4e4     libvcruntimed:undname.obj
 0002:000094ec       ??_C@_04DDKJGDCM@bool@     1008f4ec     libvcruntimed:undname.obj
 0002:000094f4       ??_C@_06EBGKOKIG@__int8@   1008f4f4     libvcruntimed:undname.obj
 0002:000094fc       ??_C@_07ICFHOGAF@__int16@  1008f4fc     libvcruntimed:undname.obj
 0002:00009504       ??_C@_07OFLPPHGP@__int32@  1008f504     libvcruntimed:undname.obj
 0002:0000950c       ??_C@_07LFCOJCAC@__int64@  1008f50c     libvcruntimed:undname.obj
 0002:00009514       ??_C@_08GAHOLHEO@__int128@ 1008f514     libvcruntimed:undname.obj
 0002:00009520       ??_C@_09EEKGDCPH@?$DMunknown?$DO@ 1008f520     libvcruntimed:undname.obj
 0002:0000952c       ??_C@_07CFHGOPCN@char8_t@  1008f52c     libvcruntimed:undname.obj
 0002:00009534       ??_C@_08HBIPOFJB@char16_t@ 1008f534     libvcruntimed:undname.obj
 0002:00009540       ??_C@_08IECNCBKG@char32_t@ 1008f540     libvcruntimed:undname.obj
 0002:0000954c       ??_C@_07CLGGIAMF@wchar_t@  1008f54c     libvcruntimed:undname.obj
 0002:00009554       ??_C@_06GCICPBLB@__w64?5@  1008f554     libvcruntimed:undname.obj
 0002:0000955c       ??_C@_07NFANNNEC@UNKNOWN@  1008f55c     libvcruntimed:undname.obj
 0002:00009564       ??_C@_07EDHNAJHC@signed?5@ 1008f564     libvcruntimed:undname.obj
 0002:0000956c       ??_C@_05BNCCCJPP@const@    1008f56c     libvcruntimed:undname.obj
 0002:00009574       ??_C@_09EFNPDFFP@?5volatile@ 1008f574     libvcruntimed:undname.obj
 0002:00009580       ??_C@_0P@GCIFDJCJ@?$GAunknown?5ecsu?8@ 1008f580     libvcruntimed:undname.obj
 0002:00009590       ??_C@_06MOJHIBMG@union?5@  1008f590     libvcruntimed:undname.obj
 0002:00009598       ??_C@_07DIBCDNGL@struct?5@ 1008f598     libvcruntimed:undname.obj
 0002:000095a0       ??_C@_06LJBABKPM@class?5@  1008f5a0     libvcruntimed:undname.obj
 0002:000095a8       ??_C@_08KOFANOFK@coclass?5@ 1008f5a8     libvcruntimed:undname.obj
 0002:000095b4       ??_C@_0N@DLIEFKNA@cointerface?5@ 1008f5b4     libvcruntimed:undname.obj
 0002:000095c4       ??_C@_05LJGMCFOG@enum?5@   1008f5c4     libvcruntimed:undname.obj
 0002:000095cc       ??_C@_09GAIEOBLP@volatile?5@ 1008f5cc     libvcruntimed:undname.obj
 0002:000095d8       ??_C@_06LIJLOJAG@const?5@  1008f5d8     libvcruntimed:undname.obj
 0002:000095e0       ??_C@_02KJPKDIBN@?$CG?5@   1008f5e0     libvcruntimed:undname.obj
 0002:000095e4       ??_C@_03PCKGMOPB@?$CG?$CG?5@ 1008f5e4     libvcruntimed:undname.obj
 0002:000095e8       ??_C@_0M@EALIELKG@cli?3?3array?$DM@ 1008f5e8     libvcruntimed:undname.obj
 0002:000095f4       ??_C@_0O@GKABPPIF@cli?3?3pin_ptr?$DM@ 1008f5f4     libvcruntimed:undname.obj
 0002:00009604       ??_C@_02GOGNNPBN@?$CJ?$FL@ 1008f604     libvcruntimed:undname.obj
 0002:00009608       ??_C@_06EEGAIFAK@?$HLflat?$HN@ 1008f608     libvcruntimed:undname.obj
 0002:00009610       ??_C@_05JIBOFOHK@?$HLfor?5@ 1008f610     libvcruntimed:undname.obj
 0002:00009618       ??_C@_02MDINNEEG@s?5@      1008f618     libvcruntimed:undname.obj
 0002:00009620       ??_7DNameNode@@6B@         1008f620     libvcruntimed:undname.obj
 0002:00009630       ??_7charNode@@6B@          1008f630     libvcruntimed:undname.obj
 0002:00009640       ??_7pcharNode@@6B@         1008f640     libvcruntimed:undname.obj
 0002:00009650       ??_7pDNameNode@@6B@        1008f650     libvcruntimed:undname.obj
 0002:00009660       ??_7DNameStatusNode@@6B@   1008f660     libvcruntimed:undname.obj
 0002:00009670       ??_7pairNode@@6B@          1008f670     libvcruntimed:undname.obj
 0002:0000967c       ??_C@_04OKOHEJBO@?5?$DP?$DP?5@ 1008f67c     libvcruntimed:undname.obj
 0002:00009684       ?nodes@?1??make@DNameStatusNode@@SAPBV2@W4DNameStatus@@@Z@4QBV2@B 1008f684     libvcruntimed:undname.obj
 0002:000096c0       ??_C@_1DM@KHCHBNEB@?$AAa?$AAp?$AAi?$AA?9?$AAm?$AAs?$AA?9?$AAw?$AAi?$AAn?$AA?9?$AAc?$AAo?$AAr?$AAe@ 1008f6c0     libvcruntimed:winapi_downlevel.obj
 0002:000096fc       ??_C@_1DK@LPPGFMPP@?$AAa?$AAp?$AAi?$AA?9?$AAm?$AAs?$AA?9?$AAw?$AAi?$AAn?$AA?9?$AAc?$AAo?$AAr?$AAe@ 1008f6fc     libvcruntimed:winapi_downlevel.obj
 0002:00009738       ??_C@_1BC@GDMECMAK@?$AAk?$AAe?$AAr?$AAn?$AAe?$AAl?$AA3?$AA2@ 1008f738     libvcruntimed:winapi_downlevel.obj
 0002:0000974c       ??_C@_1BA@PFFKHIOG@?$AAa?$AAp?$AAi?$AA?9?$AAm?$AAs?$AA?9@ 1008f74c     libvcruntimed:winapi_downlevel.obj
 0002:00009760       ??_C@_1EM@LBIFGLGH@?$AAc?$AAa?$AAc?$AAh?$AAe?$AAd?$AA_?$AAh?$AAa?$AAn?$AAd?$AAl?$AAe?$AA?5?$AA?$DN@ 1008f760     libvcruntimed:winapi_downlevel.obj
 0002:000097b0       ??_C@_1JO@BBNDOBIB@?$AAd?$AA?3?$AA?2?$AAa?$AAg?$AAe?$AAn?$AAt?$AA?2?$AA_?$AAw?$AAo?$AAr?$AAk?$AA?2@ 1008f7b0     libvcruntimed:winapi_downlevel.obj
 0002:00009850       ??_C@_1DI@MAHEDLDB@?$AAc?$AAa?$AAc?$AAh?$AAe?$AAd?$AA_?$AAh?$AAa?$AAn?$AAd?$AAl?$AAe?$AA?5?$AA?$DN@ 1008f850     libvcruntimed:winapi_downlevel.obj
 0002:00009888       ??_C@_1FC@IBNCGNKL@?$AAc?$AAa?$AAc?$AAh?$AAe?$AAd?$AA_?$AAf?$AAp?$AA?5?$AA?$DN?$AA?$DN?$AA?5?$AAi?$AAn@ 1008f888     libvcruntimed:winapi_downlevel.obj
 0002:000098dc       ??_C@_1CI@GDJBAGLP@?$AAc?$AAa?$AAc?$AAh?$AAe?$AAd?$AA_?$AAf?$AAp?$AA?5?$AA?$DN?$AA?$DN?$AA?5?$AAn?$AAe@ 1008f8dc     libvcruntimed:winapi_downlevel.obj
 0002:0000990c       ??_C@_08KNHFBNJ@FlsAlloc@  1008f90c     libvcruntimed:winapi_downlevel.obj
 0002:00009920       ??_C@_07PEJMOBNF@FlsFree@  1008f920     libvcruntimed:winapi_downlevel.obj
 0002:00009930       ??_C@_0M@GDNOONDI@FlsGetValue@ 1008f930     libvcruntimed:winapi_downlevel.obj
 0002:00009944       ??_C@_0M@JCPCPOEF@FlsSetValue@ 1008f944     libvcruntimed:winapi_downlevel.obj
 0002:00009958       ??_C@_0BM@HCFOFFN@InitializeCriticalSectionEx@ 1008f958     libvcruntimed:winapi_downlevel.obj
 0002:00009974       __pDestructExceptionObject 1008f974     libvcruntimed:ehhelpers.obj
 0002:00009984       ??_C@_1BA@GLMCNLEM@?$AAW?$AAa?$AAr?$AAn?$AAi?$AAn?$AAg@ 1008f984     libucrtd:dbgrpt.obj
 0002:00009994       ??_C@_1M@ILHOPKA@?$AAE?$AAr?$AAr?$AAo?$AAr@ 1008f994     libucrtd:dbgrpt.obj
 0002:000099a0       ??_C@_1CC@CGHMNGDG@?$AAA?$AAs?$AAs?$AAe?$AAr?$AAt?$AAi?$AAo?$AAn?$AA?5?$AAF?$AAa?$AAi?$AAl?$AAe@ 1008f9a0     libucrtd:dbgrpt.obj
 0002:000099c8       ??_C@_1OG@PMPPFHAF@?$AA?6?$AA?6?$AAF?$AAo?$AAr?$AA?5?$AAi?$AAn?$AAf?$AAo?$AAr?$AAm?$AAa?$AAt?$AAi@ 1008f9c8     libucrtd:dbgrpt.obj
 0002:00009ab0       ??_C@_1MG@LJLILFFD@?$AAD?$AAe?$AAb?$AAu?$AAg?$AA?5?$AA?$CF?$AAl?$AAs?$AA?$CB?$AA?6?$AA?6?$AAP?$AAr?$AAo@ 1008fab0     libucrtd:dbgrpt.obj
 0002:00009b78       ??_C@_1MG@OODCADGL@?$AAD?$AAe?$AAb?$AAu?$AAg?$AA?5?$AA?$CF?$AAl?$AAs?$AA?$CB?$AA?6?$AA?6?$AAP?$AAr?$AAo@ 1008fb78     libucrtd:dbgrpt.obj
 0002:00009c40       ??_C@_0BH@DNAGHKFM@?$DMprogram?5name?5unknown?$DO@ 1008fc40     libucrtd:dbgrpt.obj
 0002:00009c58       ??_C@_1CO@EAEJAADC@?$AA?$DM?$AAp?$AAr?$AAo?$AAg?$AAr?$AAa?$AAm?$AA?5?$AAn?$AAa?$AAm?$AAe?$AA?5?$AAu@ 1008fc58     libucrtd:dbgrpt.obj
 0002:00009c88       ??_C@_1FK@BNNDOGMN@?$AA?$CI?$AA?$CC?$AAT?$AAh?$AAe?$AA?5?$AAh?$AAo?$AAo?$AAk?$AA?5?$AAf?$AAu?$AAn?$AAc@ 1008fc88     libucrtd:dbgrpt.obj
 0002:00009ce8       ??_C@_1FO@GMJDLAJD@?$AAm?$AAi?$AAn?$AAk?$AAe?$AAr?$AAn?$AAe?$AAl?$AA?2?$AAc?$AAr?$AAt?$AAs?$AA?2@ 1008fce8     libucrtd:dbgrpt.obj
 0002:00009d48       ??_C@_0CP@HDJNPEFB@minkernel?2crts?2ucrt?2src?2appcrt?2@ 1008fd48     libucrtd:dbgrpt.obj
 0002:00009d78       ??_C@_1HI@OFEHGPPC@?$AAm?$AAo?$AAd?$AAe?$AA?5?$AA?$DN?$AA?$DN?$AA?5?$AA_?$AAC?$AAR?$AAT?$AA_?$AAR?$AAP@ 1008fd78     libucrtd:dbgrpt.obj
 0002:00009df0       ??_C@_1CO@FFNKOJOG@?$AAc?$AAo?$AAm?$AAm?$AAo?$AAn?$AA_?$AAs?$AAe?$AAt?$AA_?$AAr?$AAe?$AAp?$AAo@ 1008fdf0     libucrtd:dbgrpt.obj
 0002:00009e20       ??_C@_1CI@ONEHFNHD@?$AAn?$AAe?$AAw?$AA_?$AAh?$AAo?$AAo?$AAk?$AA?5?$AA?$CB?$AA?$DN?$AA?5?$AAn?$AAu?$AAl@ 1008fe20     libucrtd:dbgrpt.obj
 0002:00009e4c       ??_C@_1CM@EHMOGBJJ@?$AAc?$AAo?$AAm?$AAm?$AAo?$AAn?$AA_?$AAm?$AAe?$AAs?$AAs?$AAa?$AAg?$AAe?$AA_@ 1008fe4c     libucrtd:dbgrpt.obj
 0002:00009e78       ??_C@_1PE@ECNALGCA@?$AAt?$AAr?$AAa?$AAi?$AAt?$AAs?$AA?3?$AA?3?$AAt?$AAc?$AAs?$AAc?$AAp?$AAy?$AA_@ 1008fe78     libucrtd:dbgrpt.obj
 0002:00009f6c       ??_C@_1BK@PEDCIPMA@?$AAE?$AAx?$AAp?$AAr?$AAe?$AAs?$AAs?$AAi?$AAo?$AAn?$AA?3?$AA?5@ 1008ff6c     libucrtd:dbgrpt.obj
 0002:00009f88       ??_C@_15IABLJNFO@?$AA?6?$AA?6@ 1008ff88     libucrtd:dbgrpt.obj
 0002:00009f90       ??_C@_1BA@GLLGCPCK@?$AA?6?$AAL?$AAi?$AAn?$AAe?$AA?3?$AA?5@ 1008ff90     libucrtd:dbgrpt.obj
 0002:00009fa0       ??_C@_1BA@LNHECFIM@?$AA?6?$AAF?$AAi?$AAl?$AAe?$AA?3?$AA?5@ 1008ffa0     libucrtd:dbgrpt.obj
 0002:00009fb0       ??_C@_17LGKOMLJ@?$AA?4?$AA?4?$AA?4@ 1008ffb0     libucrtd:dbgrpt.obj
 0002:00009fb8       ??_C@_1BE@CGCJKGHI@?$AA?6?$AAM?$AAo?$AAd?$AAu?$AAl?$AAe?$AA?3?$AA?5@ 1008ffb8     libucrtd:dbgrpt.obj
 0002:00009fcc       ??_C@_1BI@KALLJECN@?$AA?$CI?$AA?$CK?$AA_?$AAe?$AAr?$AAr?$AAn?$AAo?$AA?$CI?$AA?$CJ?$AA?$CJ@ 1008ffcc     libucrtd:dbgrpt.obj
 0002:00009fe8       ??_C@_1JM@IBOIJEOO@?$AAw?$AAc?$AAs?$AAc?$AAp?$AAy?$AA_?$AAs?$AA?$CI?$AAm?$AAe?$AAs?$AAs?$AAa?$AAg@ 1008ffe8     libucrtd:dbgrpt.obj
 0002:0000a088       ??_C@_1FG@BBOLDHGF@?$AA_?$AAC?$AAr?$AAt?$AAD?$AAb?$AAg?$AAR?$AAe?$AAp?$AAo?$AAr?$AAt?$AA?3?$AA?5@ 10090088     libucrtd:dbgrpt.obj
 0002:0000a0e0       ??_C@_1EK@MBDPDCGA@?$AAM?$AAi?$AAc?$AAr?$AAo?$AAs?$AAo?$AAf?$AAt?$AA?5?$AAV?$AAi?$AAs?$AAu?$AAa@ 100900e0     libucrtd:dbgrpt.obj
 0002:0000a130       ??_C@_1GI@BBAEIKL@?$AA?$CI?$AA?$CI?$AAd?$AAe?$AAs?$AAt?$AAi?$AAn?$AAa?$AAt?$AAi?$AAo?$AAn?$AA?$CJ?$AA?$CJ@ 10090130     libucrtd:wcscpy_s.obj
 0002:0000a198       ??_C@_1HI@PBJPCEBC@?$AAm?$AAi?$AAn?$AAk?$AAe?$AAr?$AAn?$AAe?$AAl?$AA?2?$AAc?$AAr?$AAt?$AAs?$AA?2@ 10090198     libucrtd:wcscpy_s.obj
 0002:0000a210       ??_C@_1CA@FHIAGDFH@?$AAc?$AAo?$AAm?$AAm?$AAo?$AAn?$AA_?$AAt?$AAc?$AAs?$AAc?$AAp?$AAy?$AA_?$AAs@ 10090210     libucrtd:wcscpy_s.obj
 0002:0000a230       ??_C@_1CK@EIOKGPJL@?$AA?$CI?$AA?$CI?$AA?$CI?$AAs?$AAo?$AAu?$AAr?$AAc?$AAe?$AA?$CJ?$AA?$CJ?$AA?$CJ?$AA?5?$AA?$CB?$AA?$DN@ 10090230     libucrtd:wcscpy_s.obj
 0002:0000a25c       ??_C@_1CI@HCPHDDLE@?$AAB?$AAu?$AAf?$AAf?$AAe?$AAr?$AA?5?$AAi?$AAs?$AA?5?$AAt?$AAo?$AAo?$AA?5?$AAs@ 1009025c     libucrtd:wcscpy_s.obj
