 OPOSScanner

 Timestamp is 5d429fdc (Thu Aug  1 17:16:28 2019)

 Preferred load address is 10000000

 Start         Length     Name                   Class
 0001:00000000 00000d90H .text$di                CODE
 0001:00000d90 000a75d0H .text$mn                CODE
 0001:000a8360 000001c0H .text$x                 CODE
 0001:000a8520 00000120H .text$yd                CODE
 0002:00000000 00000358H .idata$5                DATA
 0002:00000358 00000004H .00cfg                  DATA
 0002:0000035c 00000004H .CRT$XCA                DATA
 0002:00000360 00000004H .CRT$XCL                DATA
 0002:00000364 0000006cH .CRT$XCU                DATA
 0002:000003d0 00000004H .CRT$XCZ                DATA
 0002:000003d4 00000004H .CRT$XIA                DATA
 0002:000003d8 00000010H .CRT$XIC                DATA
 0002:000003e8 00000004H .CRT$XIZ                DATA
 0002:000003ec 00000004H .CRT$XLA                DATA
 0002:000003f0 00000004H .CRT$XLZ                DATA
 0002:000003f4 00000004H .CRT$XPA                DATA
 0002:000003f8 00000008H .CRT$XPX                DATA
 0002:00000400 00000004H .CRT$XPXA               DATA
 0002:00000404 00000004H .CRT$XPZ                DATA
 0002:00000408 00000004H .CRT$XTA                DATA
 0002:0000040c 00000004H .CRT$XTZ                DATA
 0002:00000410 00000000H .gfids$y                DATA
 0002:00000410 0002f28cH .rdata                  DATA
 0002:0002f69c 00000018H .rdata$T                DATA
 0002:0002f6b4 0000033cH .rdata$r                DATA
 0002:0002f9f0 00000044H .rdata$sxdata           DATA
 0002:0002fa34 00000400H .rdata$zzzdbg           DATA
 0002:0002fe34 00000004H .rtc$IAA                DATA
 0002:0002fe38 00000018H .rtc$IMZ                DATA
 0002:0002fe50 00000004H .rtc$IZZ                DATA
 0002:0002fe54 00000004H .rtc$TAA                DATA
 0002:0002fe58 00000018H .rtc$TMZ                DATA
 0002:0002fe70 00000004H .rtc$TZZ                DATA
 0002:0002fe74 00000004H .tls                    DATA
 0002:0002fe78 00000004H .tls$                   DATA
 0002:0002fe7c 00000004H .tls$ZZZ                DATA
 0002:0002fe80 00000e44H .xdata$x                DATA
 0002:00030cc4 00000004H ATL$__a                 DATA
 0002:00030cc8 00000008H ATL$__z                 DATA
 0002:00030cd0 000000a8H .edata                  DATA
 0002:00030d78 00000078H .idata$2                DATA
 0002:00030df0 00000014H .idata$3                DATA
 0002:00030e04 00000358H .idata$4                DATA
 0002:0003115c 00000d50H .idata$6                DATA
 0003:00000000 00000b90H .data                   DATA
 0003:00000b90 00000138H .data$r                 DATA
 0003:00000cc8 00003580H .bss                    DATA
 0004:00000000 00000220H .rsrc$01                DATA
 0004:00000220 00003ba0H .rsrc$02                DATA

  Address         Publics by Value              Rva+Base       Lib:Object

 0000:00000000       ___hybrid_auxiliary_iat    00000000     <absolute>
 0000:00000000       ___enclave_config          00000000     <absolute>
 0000:00000000       ___guard_fids_table        00000000     <absolute>
 0000:00000000       __except_list              00000000     <absolute>
 0000:00000000       ___guard_iat_table         00000000     <absolute>
 0000:00000000       ___guard_fids_count        00000000     <absolute>
 0000:00000000       ___guard_longjmp_count     00000000     <absolute>
 0000:00000000       ___guard_longjmp_table     00000000     <absolute>
 0000:00000000       ___AbsoluteZero            00000000     <absolute>
 0000:00000000       ___volatile_metadata       00000000     <absolute>
 0000:00000000       ___dynamic_value_reloc_table 00000000     <absolute>
 0000:00000000       ___guard_iat_count         00000000     <absolute>
 0000:00000000       ___hybrid_code_map_count   00000000     <absolute>
 0000:00000000       ___hybrid_code_map         00000000     <absolute>
 0000:00000011       ___safe_se_handler_count   00000011     <absolute>
 0000:0000002c       __tls_array                0000002c     <absolute>
 0000:00000100       ___guard_flags             00000100     <absolute>
 0000:00000000       ___ImageBase               10000000     <linker-defined>
 0001:00000d90       ?_assert@@YAXPB_W0I@Z      10001d90 f   Assert.obj
 0001:00000ec0       ___local_stdio_printf_options 10001ec0 f i Assert.obj
 0001:00000ed0       ___vswprintf_l             10001ed0 f i Assert.obj
 0001:00000f00       __swprintf                 10001f00 f i Assert.obj
 0001:00000f60       __vswprintf_c_l            10001f60 f i Assert.obj
 0001:00000fd0       __vswprintf_l              10001fd0 f i Assert.obj
 0001:00001000       ?cw_memcpy@@YGHPADPB_WH@Z  10002000 f   CWString.obj
 0001:00001060       ?cw_memcpy@@YGHPA_WPBDH@Z  10002060 f   CWString.obj
 0001:000010c0       ?cw_memcpy@@YGHPADPBDH@Z   100020c0 f   CWString.obj
 0001:00001110       ?cw_memcpy@@YGHPA_WPB_WH@Z 10002110 f   CWString.obj
 0001:00001150       ?cw_memset@@YAXPADDH@Z     10002150 f   CWString.obj
 0001:00001170       ?cw_memset@@YAXPA_W_WH@Z   10002170 f   CWString.obj
 0001:00001190       ?cw_strlen@@YAHPBD@Z       10002190 f   CWString.obj
 0001:000011e0       ?cw_strlen@@YAHPB_W@Z      100021e0 f   CWString.obj
 0001:00001230       ?cw_strcpy@@YAHPADPB_W@Z   10002230 f   CWString.obj
 0001:00001250       ?cw_strcpy@@YAHPA_WPBD@Z   10002250 f   CWString.obj
 0001:00001270       ?cw_strcpy@@YAHPADPBD@Z    10002270 f   CWString.obj
 0001:00001290       ?cw_strcpy@@YAHPA_WPB_W@Z  10002290 f   CWString.obj
 0001:000012b0       ?cw_strcat@@YAHPADPB_W@Z   100022b0 f   CWString.obj
 0001:000012e0       ?cw_strcat@@YAHPA_WPBD@Z   100022e0 f   CWString.obj
 0001:00001310       ?cw_strcat@@YAHPADPBD@Z    10002310 f   CWString.obj
 0001:00001340       ?cw_strcat@@YAHPA_WPB_W@Z  10002340 f   CWString.obj
 0001:00001370       ?cw_dup@@YGXPBDAAHAAPA_W1@Z 10002370 f   CWString.obj
 0001:00001430       ?cw_dup@@YGXPB_WAAHAAPAD1@Z 10002430 f   CWString.obj
 0001:000014e0       ?DupChar@_CW@@AAEXXZ       100024e0 f   CWString.obj
 0001:00001530       ?DupWide@_CW@@AAEXXZ       10002530 f   CWString.obj
 0001:00001580       ?GetCharsMbcs@_CW@@QAEHXZ  10002580 f   CWString.obj
 0001:000015e0       ?GetCharsWide@_CW@@QAEHXZ  100025e0 f   CWString.obj
 0001:00001640       ?SetVARIANT_BOOL@OposVariant@@QAEXF@Z 10002640 f   OposVariant.obj
 0001:000016a0       ?SetVARIANT_BOOL_Ptr@OposVariant@@QAEXPAFAAJ@Z 100026a0 f   OposVariant.obj
 0001:000016f0       ?GetLONG@OposVariant@@QAEJXZ 100026f0 f   OposVariant.obj
 0001:00001780       ?ChangeLONG@OposVariant@@QAEXPAJAAJ@Z 10002780 f   OposVariant.obj
 0001:00001840       ?SetLONG@OposVariant@@QAEXJ@Z 10002840 f   OposVariant.obj
 0001:00001880       ?SetLONG_Ptr@OposVariant@@QAEXPAJAAJ@Z 10002880 f   OposVariant.obj
 0001:000018d0       ?ChangeCURRENCY@OposVariant@@QAEXPATtagCY@@AAJ@Z 100028d0 f   OposVariant.obj
 0001:00001990       ?SetCURRENCY@OposVariant@@QAEXTtagCY@@@Z 10002990 f   OposVariant.obj
 0001:000019d0       ?SetCURRENCY_Ptr@OposVariant@@QAEXPATtagCY@@AAJ@Z 100029d0 f   OposVariant.obj
 0001:00001a20       ?ChangeBSTR@OposVariant@@QAEXPAPA_WAAJ@Z 10002a20 f   OposVariant.obj
 0001:00001ae0       ?SetBSTR@OposVariant@@QAEXPA_WAAJ@Z 10002ae0 f   OposVariant.obj
 0001:00001b30       ?SetBSTR_Copy@OposVariant@@QAEXPA_WAAJ@Z 10002b30 f   OposVariant.obj
 0001:00001bd0       ?SetBSTR_OutPtr@OposVariant@@QAE_NPAPA_WAAJ@Z 10002bd0 f   OposVariant.obj
 0001:00001c20       ?SetBSTR_InOutPtr@OposVariant@@QAE_NPAPA_WAAJ@Z 10002c20 f   OposVariant.obj
 0001:00001c70       ?SetVARIANT@OposVariant@@QAEXAAUtagVARIANT@@GAAJ@Z 10002c70 f   OposVariant.obj
 0001:00001cf0       ?SetVARIANT_Ptr@OposVariant@@QAEXAAPAUtagVARIANT@@GAAJ@Z 10002cf0 f   OposVariant.obj
 0001:00001d90       ?SetString@OposVariant@@QAEXPB_WAAJ@Z 10002d90 f   OposVariant.obj
 0001:00001e20       ?SetDispatch_Ptr@OposVariant@@QAEXPAUIDispatch@@AAJ@Z 10002e20 f   OposVariant.obj
 0001:00001e90       ??0OposDispParms@@QAE@PAVOposVariant@@H@Z 10002e90 f   OposVariant.obj
 0001:00001f60       ??1OposDispParms@@QAE@XZ   10002f60 f   OposVariant.obj
 0001:00001fb0       ??$AtlMultiply@I@ATL@@YAJPAIII@Z 10002fb0 f i OposVariant.obj
 0001:00002010       ??0?$CHeapPtr@_WVCCRTAllocator@ATL@@@ATL@@QAE@XZ 10003010 f i OposVariant.obj
 0001:00002040       ??0?$CHeapPtrBase@_WVCCRTAllocator@ATL@@@ATL@@IAE@XZ 10003040 f i OposVariant.obj
 0001:00002060       ??0?$CSimpleArray@GV?$CSimpleArrayEqualHelper@G@ATL@@@ATL@@QAE@XZ 10003060 f i OposVariant.obj
 0001:000020a0       ??0?$CTraceCategoryEx@$00$0A@@ATL@@QAE@PB_W@Z 100030a0 f i OposVariant.obj
 0001:000020d0       ??0?$CTraceCategoryEx@$01$0A@@ATL@@QAE@PB_W@Z 100030d0 f i OposVariant.obj
 0001:00002100       ??0?$CTraceCategoryEx@$03$0A@@ATL@@QAE@PB_W@Z 10003100 f i OposVariant.obj
 0001:00002130       ??0?$CTraceCategoryEx@$07$0A@@ATL@@QAE@PB_W@Z 10003130 f i OposVariant.obj
 0001:00002160       ??0?$CTraceCategoryEx@$0BA@$0A@@ATL@@QAE@PB_W@Z 10003160 f i OposVariant.obj
 0001:00002190       ??0?$CTraceCategoryEx@$0BAA@$0A@@ATL@@QAE@PB_W@Z 10003190 f i OposVariant.obj
 0001:000021d0       ??0?$CTraceCategoryEx@$0BAAA@$0A@@ATL@@QAE@PB_W@Z 100031d0 f i OposVariant.obj
 0001:00002210       ??0?$CTraceCategoryEx@$0BAAAA@$0A@@ATL@@QAE@PB_W@Z 10003210 f i OposVariant.obj
 0001:00002250       ??0?$CTraceCategoryEx@$0BAAAAA@$0A@@ATL@@QAE@PB_W@Z 10003250 f i OposVariant.obj
 0001:00002290       ??0?$CTraceCategoryEx@$0CA@$0A@@ATL@@QAE@PB_W@Z 10003290 f i OposVariant.obj
 0001:000022c0       ??0?$CTraceCategoryEx@$0CAA@$0A@@ATL@@QAE@PB_W@Z 100032c0 f i OposVariant.obj
 0001:00002300       ??0?$CTraceCategoryEx@$0CAAA@$0A@@ATL@@QAE@PB_W@Z 10003300 f i OposVariant.obj
 0001:00002340       ??0?$CTraceCategoryEx@$0CAAAA@$0A@@ATL@@QAE@PB_W@Z 10003340 f i OposVariant.obj
 0001:00002380       ??0?$CTraceCategoryEx@$0CAAAAA@$0A@@ATL@@QAE@PB_W@Z 10003380 f i OposVariant.obj
 0001:000023c0       ??0?$CTraceCategoryEx@$0EA@$0A@@ATL@@QAE@PB_W@Z 100033c0 f i OposVariant.obj
 0001:000023f0       ??0?$CTraceCategoryEx@$0EAA@$0A@@ATL@@QAE@PB_W@Z 100033f0 f i OposVariant.obj
 0001:00002430       ??0?$CTraceCategoryEx@$0EAAA@$0A@@ATL@@QAE@PB_W@Z 10003430 f i OposVariant.obj
 0001:00002470       ??0?$CTraceCategoryEx@$0EAAAA@$0A@@ATL@@QAE@PB_W@Z 10003470 f i OposVariant.obj
 0001:000024b0       ??0?$CTraceCategoryEx@$0EAAAAA@$0A@@ATL@@QAE@PB_W@Z 100034b0 f i OposVariant.obj
 0001:000024f0       ??0?$CTraceCategoryEx@$0IA@$0A@@ATL@@QAE@PB_W@Z 100034f0 f i OposVariant.obj
 0001:00002530       ??0?$CTraceCategoryEx@$0IAA@$0A@@ATL@@QAE@PB_W@Z 10003530 f i OposVariant.obj
 0001:00002570       ??0?$CTraceCategoryEx@$0IAAA@$0A@@ATL@@QAE@PB_W@Z 10003570 f i OposVariant.obj
 0001:000025b0       ??0?$CTraceCategoryEx@$0IAAAA@$0A@@ATL@@QAE@PB_W@Z 100035b0 f i OposVariant.obj
 0001:000025f0       ??0CAtlComModule@ATL@@QAE@XZ 100035f0 f i OposVariant.obj
 0001:000026d0       ??0CAtlWinModule@ATL@@QAE@XZ 100036d0 f i OposVariant.obj
 0001:00002760       ??0CComCriticalSection@ATL@@QAE@XZ 10003760 f i OposVariant.obj
 0001:00002790       ??0CPreserveLastError@ATL@@QAE@XZ 10003790 f i OposVariant.obj
 0001:000027d0       ??0CTraceFileAndLineInfo@ATL@@QAE@PBDH@Z 100037d0 f i OposVariant.obj
 0001:00002800       ??0_ATL_COM_MODULE70@ATL@@QAE@XZ 10003800 f i OposVariant.obj
 0001:00002830       ??0_ATL_WIN_MODULE70@ATL@@QAE@XZ 10003830 f i OposVariant.obj
 0001:00002870       ??1?$CHeapPtr@_WVCCRTAllocator@ATL@@@ATL@@QAE@XZ 10003870 f i OposVariant.obj
 0001:000028a0       ??1?$CHeapPtrBase@_WVCCRTAllocator@ATL@@@ATL@@QAE@XZ 100038a0 f i OposVariant.obj
 0001:000028d0       ??1?$CSimpleArray@GV?$CSimpleArrayEqualHelper@G@ATL@@@ATL@@QAE@XZ 100038d0 f i OposVariant.obj
 0001:00002900       ??1CAtlComModule@ATL@@QAE@XZ 10003900 f i OposVariant.obj
 0001:00002930       ??1CAtlWinModule@ATL@@QAE@XZ 10003930 f i OposVariant.obj
 0001:00002960       ??1CComBSTR@ATL@@QAE@XZ    10003960 f i OposVariant.obj
 0001:000029a0       ??1CComCriticalSection@ATL@@QAE@XZ 100039a0 f i OposVariant.obj
 0001:000029c0       ??1CPreserveLastError@ATL@@QAE@XZ 100039c0 f i OposVariant.obj
 0001:00002a00       ??1_ATL_COM_MODULE70@ATL@@QAE@XZ 10003a00 f i OposVariant.obj
 0001:00002a30       ??1_ATL_WIN_MODULE70@ATL@@QAE@XZ 10003a30 f i OposVariant.obj
 0001:00002a70       ??1stringdispid@CComTypeInfoHolder@ATL@@QAE@XZ 10003a70 f i OposVariant.obj
 0001:00002aa0       ??A?$CSimpleArray@GV?$CSimpleArrayEqualHelper@G@ATL@@@ATL@@QAEAAGH@Z 10003aa0 f i OposVariant.obj
 0001:00002b20       ??B?$CHeapPtrBase@_WVCCRTAllocator@ATL@@@ATL@@QBEPA_WXZ 10003b20 f i OposVariant.obj
 0001:00002b40       ??B?$CTraceCategoryEx@$01$0A@@ATL@@QAEIXZ 10003b40 f i OposVariant.obj
 0001:00002b60       ??B?$CTraceCategoryEx@$0CA@$0A@@ATL@@QAEIXZ 10003b60 f i OposVariant.obj
 0001:00002b80       ??RCTraceFileAndLineInfo@ATL@@QBAXHIPB_WZZ 10003b80 f i OposVariant.obj
 0001:00002c20       ??_Estringdispid@CComTypeInfoHolder@ATL@@QAEPAXI@Z 10003c20 f i OposVariant.obj
 0001:00002cb0       ??_H@YGXPAXIIP6EPAX0@Z@Z   10003cb0 f i OposVariant.obj
 0001:00002d20       ??_I@YGXPAXIIP6EX0@Z@Z     10003d20 f i OposVariant.obj
 0001:00002da0       ?Allocate@?$CHeapPtr@_WVCCRTAllocator@ATL@@@ATL@@QAE_NI@Z 10003da0 f i OposVariant.obj
 0001:00002e30       ?Allocate@CCRTAllocator@ATL@@SAPAXI@Z 10003e30 f i OposVariant.obj
 0001:00002e50       ?AllocateBytes@?$CHeapPtrBase@_WVCCRTAllocator@ATL@@@ATL@@QAE_NI@Z 10003e50 f i OposVariant.obj
 0001:00002ec0       ?AtlWinModuleInit@ATL@@YGJPAU_ATL_WIN_MODULE70@1@@Z 10003ec0 f i OposVariant.obj
 0001:00002f90       ?AtlWinModuleTerm@ATL@@YGJPAU_ATL_WIN_MODULE70@1@PAUHINSTANCE__@@@Z 10003f90 f i OposVariant.obj
 0001:00003050       ?Clear@OposVariant@@QAEJXZ 10004050 f i OposVariant.obj
 0001:00003090       ?Free@?$CHeapPtrBase@_WVCCRTAllocator@ATL@@@ATL@@QAEXXZ 10004090 f i OposVariant.obj
 0001:000030d0       ?Free@CCRTAllocator@ATL@@SAXPAX@Z 100040d0 f i OposVariant.obj
 0001:000030f0       ?GetCategoryName@CTrace@ATL@@CAPA_WI@Z 100040f0 f i OposVariant.obj
 0001:00003140       ?GetModuleInstance@CAtlBaseModule@ATL@@QAEPAUHINSTANCE__@@XZ 10004140 f i OposVariant.obj
 0001:00003160       ?GetSize@?$CSimpleArray@GV?$CSimpleArrayEqualHelper@G@ATL@@@ATL@@QBEHXZ 10004160 f i OposVariant.obj
 0001:00003180       ?Init@CComCriticalSection@ATL@@QAEJXZ 10004180 f i OposVariant.obj
 0001:000031e0       ?RegisterCategory@CTrace@ATL@@SAXPB_WI@Z 100041e0 f i OposVariant.obj
 0001:00003270       ?RemoveAll@?$CSimpleArray@GV?$CSimpleArrayEqualHelper@G@ATL@@@ATL@@QAEXXZ 10004270 f i OposVariant.obj
 0001:000032f0       ?Term@CAtlComModule@ATL@@QAEXXZ 100042f0 f i OposVariant.obj
 0001:000033b0       ?Term@CAtlWinModule@ATL@@QAEXXZ 100043b0 f i OposVariant.obj
 0001:000033e0       ?Term@CComCriticalSection@ATL@@QAEJXZ 100043e0 f i OposVariant.obj
 0001:00003420       ?TraceV@CTrace@ATL@@CAXPBDHIIPB_W@Z 10004420 f i OposVariant.obj
 0001:000036a0       ?TraceV@CTrace@ATL@@SAXPBDHIIPB_WPAD@Z 100046a0 f i OposVariant.obj
 0001:000037e0       ?_AtlInitializeCriticalSectionEx@ATL@@YAHPAU_RTL_CRITICAL_SECTION@@KK@Z 100047e0 f i OposVariant.obj
 0001:00003810       ?_AtlRaiseException@ATL@@YAXKK@Z 10004810 f i OposVariant.obj
 0001:00003840       _HRESULT_FROM_WIN32        10004840 f i OposVariant.obj
 0001:00003880       __vswprintf_s_l            10004880 f i OposVariant.obj
 0001:000038f0       _swprintf_s                100048f0 f i OposVariant.obj
 0001:00003950       ?ObjectMain@CComObjectRootBase@ATL@@SGX_N@Z 10004950 f i Scanner.obj
 0001:00003960       ?GetCategoryMap@CComObjectRootBase@ATL@@SAPBU_ATL_CATMAP_ENTRY@2@XZ 10004960 f i Scanner.obj
 0001:00003970       ?CreateInstance@?$CComCreator@V?$CComObjectCached@VCComClassFactory@ATL@@@ATL@@@ATL@@SGJPAXABU_GUID@@PAPAX@Z 10004970 f i Scanner.obj
 0001:00003af0       ?CreateInstance@?$CComCreator2@V?$CComCreator@V?$CComObject@VCOPOSScanner@@@ATL@@@ATL@@V?$CComCreator@V?$CComAggObject@VCOPOSScanner@@@ATL@@@2@@ATL@@SGJPAXABU_GUID@@PAPAX@Z 10004af0 f i Scanner.obj
 0001:00003b70       ?GetObjectDescription@?$CComCoClass@VCOPOSScanner@@$1?CLSID_OPOSScanner@@3U_GUID@@B@ATL@@SGPB_WXZ 10004b70 f i Scanner.obj
 0001:00003b80       ?UpdateRegistry@COPOSScanner@@SGJH@Z 10004b80 f i Scanner.obj
 0001:00003cd0       _DllGetClassObject@12      10004cd0 f   Scanner.obj
 0001:00003d00       _DllCanUnloadNow@0         10004d00 f   Scanner.obj
 0001:00003d40       _DllRegisterServer@0       10004d40 f   Scanner.obj
 0001:00003d60       _DllUnregisterServer@0     10004d60 f   Scanner.obj
 0001:00003ef0       _DllMain@12                10004ef0 f   Scanner.obj
 0001:00003f50       ??$?2G@Wrapper@?$CSimpleArray@GV?$CSimpleArrayEqualHelper@G@ATL@@@ATL@@SAPAXIPAG@Z 10004f50 f i Scanner.obj
 0001:00003f60       ??$?2PA_W@?$Wrapper@PA_W@?$CSimpleMap@PA_WPA_WVCExpansionVectorEqualHelper@ATL@@@ATL@@SAPAXIPAPA_W@Z 10004f60 f i Scanner.obj
 0001:00003f70       ??$?4UITypeInfo2@@@?$CComPtr@UITypeInfo@@@ATL@@QAEPAUITypeInfo@@ABV?$CComPtr@UITypeInfo2@@@1@@Z 10004f70 f i Scanner.obj
 0001:00003fd0       ??$AtlAdd@K@ATL@@YAJPAKKK@Z 10004fd0 f i Scanner.obj
 0001:00004010       ??$AtlAdd@_K@ATL@@YAJPA_K_K1@Z 10005010 f i Scanner.obj
 0001:00004080       ??$AtlAddThrow@K@ATL@@YAKKK@Z 10005080 f i Scanner.obj
 0001:00004100       ??$AtlModuleRegisterWndClassInfoT@VAtlModuleRegisterWndClassInfoParamW@ATL@@@ATL@@YAGPAU_ATL_BASE_MODULE70@0@PAU_ATL_WIN_MODULE70@0@PAU_ATL_WNDCLASSINFOW@0@PAP6GJPAUHWND__@@IIJ@ZVAtlModuleRegisterWndClassInfoParamW@0@@Z 10005100 f i Scanner.obj
 0001:00004510       ??$AtlMultiply@H@ATL@@YAJPAHHH@Z 10005510 f i Scanner.obj
 0001:00004590       ??$AtlMultiply@K@ATL@@YAJPAKKK@Z 10005590 f i Scanner.obj
 0001:000045f0       ??$AtlMultiplyThrow@I@ATL@@YAIII@Z 100055f0 f i Scanner.obj
 0001:00004670       ??$QueryInterface@UIPersistStream@@@IUnknown@@QAGJPAPAUIPersistStream@@@Z 10005670 f i Scanner.obj
 0001:000046a0       ??$QueryInterface@UITypeInfo2@@@IUnknown@@QAGJPAPAUITypeInfo2@@@Z 100056a0 f i Scanner.obj
 0001:000046d0       ??0?$CAtlModuleT@VCComModule@ATL@@@ATL@@QAE@XZ 100056d0 f i Scanner.obj
 0001:00004700       ??0?$CAtlSafeAllocBufferManager@VCCRTAllocator@ATL@@@_ATL_SAFE_ALLOCA_IMPL@ATL@@QAE@XZ 10005700 f i Scanner.obj
 0001:00004720       ??0?$CAutoVectorPtr@_W@ATL@@QAE@XZ 10005720 f i Scanner.obj
 0001:00004740       ??0?$CComAggObject@VCOPOSScanner@@@ATL@@QAE@PAX@Z 10005740 f i Scanner.obj
 0001:000047b0       ??0?$CComContainedObject@VCOPOSScanner@@@ATL@@QAE@PAX@Z 100057b0 f i Scanner.obj
 0001:000048c0       ??0?$CComCritSecLock@VCComCriticalSection@ATL@@@ATL@@QAE@AAVCComCriticalSection@1@_N@Z 100058c0 f i Scanner.obj
 0001:00004920       ??0?$CComEnum@UIEnumConnectionPoints@@$1?_GUID_b196b285_bab4_101a_b69c_00aa00341d07@@3U__s_GUID@@BPAUIConnectionPoint@@V?$_CopyInterface@UIConnectionPoint@@@ATL@@VCComSingleThreadModel@6@@ATL@@QAE@XZ 10005920 f i Scanner.obj
 0001:00004960       ??0?$CComEnum@UIEnumConnections@@$1?_GUID_b196b287_bab4_101a_b69c_00aa00341d07@@3U__s_GUID@@BUtagCONNECTDATA@@V?$_Copy@UtagCONNECTDATA@@@ATL@@VCComSingleThreadModel@6@@ATL@@QAE@XZ 10005960 f i Scanner.obj
 0001:000049a0       ??0?$CComEnumImpl@UIEnumConnectionPoints@@$1?_GUID_b196b285_bab4_101a_b69c_00aa00341d07@@3U__s_GUID@@BPAUIConnectionPoint@@V?$_CopyInterface@UIConnectionPoint@@@ATL@@@ATL@@QAE@XZ 100059a0 f i Scanner.obj
 0001:00004a00       ??0?$CComEnumImpl@UIEnumConnections@@$1?_GUID_b196b287_bab4_101a_b69c_00aa00341d07@@3U__s_GUID@@BUtagCONNECTDATA@@V?$_Copy@UtagCONNECTDATA@@@ATL@@@ATL@@QAE@XZ 10005a00 f i Scanner.obj
 0001:00004a60       ??0?$CComObject@V?$CComEnum@UIEnumConnectionPoints@@$1?_GUID_b196b285_bab4_101a_b69c_00aa00341d07@@3U__s_GUID@@BPAUIConnectionPoint@@V?$_CopyInterface@UIConnectionPoint@@@ATL@@VCComSingleThreadModel@6@@ATL@@@ATL@@QAE@PAX@Z 10005a60 f i Scanner.obj
 0001:00004ab0       ??0?$CComObject@V?$CComEnum@UIEnumConnections@@$1?_GUID_b196b287_bab4_101a_b69c_00aa00341d07@@3U__s_GUID@@BUtagCONNECTDATA@@V?$_Copy@UtagCONNECTDATA@@@ATL@@VCComSingleThreadModel@6@@ATL@@@ATL@@QAE@PAX@Z 10005ab0 f i Scanner.obj
 0001:00004b00       ??0?$CComObject@VCOPOSScanner@@@ATL@@QAE@PAX@Z 10005b00 f i Scanner.obj
 0001:00004c20       ??0?$CComObjectCached@VCComClassFactory@ATL@@@ATL@@QAE@PAX@Z 10005c20 f i Scanner.obj
 0001:00004c60       ??0?$CComObjectRootEx@VCComMultiThreadModel@ATL@@@ATL@@QAE@XZ 10005c60 f i Scanner.obj
 0001:00004ca0       ??0?$CComObjectRootEx@VCComSingleThreadModel@ATL@@@ATL@@QAE@XZ 10005ca0 f i Scanner.obj
 0001:00004cd0       ??0?$CComPtr@UIAdviseSink@@@ATL@@QAE@PAUIAdviseSink@@@Z 10005cd0 f i Scanner.obj
 0001:00004d00       ??0?$CComPtr@UICatRegister@@@ATL@@QAE@XZ 10005d00 f i Scanner.obj
 0001:00004d30       ??0?$CComPtr@UIConnectionPoint@@@ATL@@QAE@XZ 10005d30 f i Scanner.obj
 0001:00004d60       ??0?$CComPtr@UIConnectionPointContainer@@@ATL@@QAE@XZ 10005d60 f i Scanner.obj
 0001:00004d90       ??0?$CComPtr@UIDataObject@@@ATL@@QAE@XZ 10005d90 f i Scanner.obj
 0001:00004dc0       ??0?$CComPtr@UIDispatch@@@ATL@@QAE@XZ 10005dc0 f i Scanner.obj
 0001:00004df0       ??0?$CComPtr@UIOleClientSite@@@ATL@@QAE@PAUIOleClientSite@@@Z 10005df0 f i Scanner.obj
 0001:00004e20       ??0?$CComPtr@UIOleControlSite@@@ATL@@QAE@XZ 10005e20 f i Scanner.obj
 0001:00004e50       ??0?$CComPtr@UIOleInPlaceActiveObject@@@ATL@@QAE@XZ 10005e50 f i Scanner.obj
 0001:00004e80       ??0?$CComPtr@UIOleInPlaceFrame@@@ATL@@QAE@XZ 10005e80 f i Scanner.obj
 0001:00004eb0       ??0?$CComPtr@UIOleInPlaceObject@@@ATL@@QAE@XZ 10005eb0 f i Scanner.obj
 0001:00004ee0       ??0?$CComPtr@UIOleInPlaceUIWindow@@@ATL@@QAE@XZ 10005ee0 f i Scanner.obj
 0001:00004f10       ??0?$CComPtr@UIOleObject@@@ATL@@QAE@XZ 10005f10 f i Scanner.obj
 0001:00004f40       ??0?$CComPtr@UIPersistStream@@@ATL@@QAE@XZ 10005f40 f i Scanner.obj
 0001:00004f70       ??0?$CComPtr@UIPersistStreamInit@@@ATL@@QAE@XZ 10005f70 f i Scanner.obj
 0001:00004fa0       ??0?$CComPtr@UIPointerInactive@@@ATL@@QAE@XZ 10005fa0 f i Scanner.obj
 0001:00004fd0       ??0?$CComPtr@UIProvideClassInfo2@@@ATL@@QAE@XZ 10005fd0 f i Scanner.obj
 0001:00005000       ??0?$CComPtr@UISpecifyPropertyPages@@@ATL@@QAE@XZ 10006000 f i Scanner.obj
 0001:00005030       ??0?$CComPtr@UIStream@@@ATL@@QAE@XZ 10006030 f i Scanner.obj
 0001:00005060       ??0?$CComPtr@UITypeInfo2@@@ATL@@QAE@XZ 10006060 f i Scanner.obj
 0001:00005090       ??0?$CComPtr@UITypeInfo@@@ATL@@QAE@ABV01@@Z 10006090 f i Scanner.obj
 0001:000050c0       ??0?$CComPtr@UITypeInfo@@@ATL@@QAE@XZ 100060c0 f i Scanner.obj
 0001:000050f0       ??0?$CComPtr@UITypeLib@@@ATL@@QAE@XZ 100060f0 f i Scanner.obj
 0001:00005120       ??0?$CComPtr@UIUnknown@@@ATL@@QAE@ABV01@@Z 10006120 f i Scanner.obj
 0001:00005150       ??0?$CComPtr@UIUnknown@@@ATL@@QAE@PAUIUnknown@@@Z 10006150 f i Scanner.obj
 0001:00005180       ??0?$CComPtr@UIUnknown@@@ATL@@QAE@XZ 10006180 f i Scanner.obj
 0001:000051b0       ??0?$CComPtr@UIViewObjectEx@@@ATL@@QAE@XZ 100061b0 f i Scanner.obj
 0001:000051e0       ??0?$CComPtrBase@UIAdviseSink@@@ATL@@IAE@PAUIAdviseSink@@@Z 100061e0 f i Scanner.obj
 0001:00005230       ??0?$CComPtrBase@UICatRegister@@@ATL@@IAE@XZ 10006230 f i Scanner.obj
 0001:00005250       ??0?$CComPtrBase@UIConnectionPoint@@@ATL@@IAE@XZ 10006250 f i Scanner.obj
 0001:00005270       ??0?$CComPtrBase@UIConnectionPointContainer@@@ATL@@IAE@XZ 10006270 f i Scanner.obj
 0001:00005290       ??0?$CComPtrBase@UIDataObject@@@ATL@@IAE@XZ 10006290 f i Scanner.obj
 0001:000052b0       ??0?$CComPtrBase@UIDispatch@@@ATL@@IAE@XZ 100062b0 f i Scanner.obj
 0001:000052d0       ??0?$CComPtrBase@UIOleClientSite@@@ATL@@IAE@PAUIOleClientSite@@@Z 100062d0 f i Scanner.obj
 0001:00005320       ??0?$CComPtrBase@UIOleControlSite@@@ATL@@IAE@XZ 10006320 f i Scanner.obj
 0001:00005340       ??0?$CComPtrBase@UIOleInPlaceActiveObject@@@ATL@@IAE@XZ 10006340 f i Scanner.obj
 0001:00005360       ??0?$CComPtrBase@UIOleInPlaceFrame@@@ATL@@IAE@XZ 10006360 f i Scanner.obj
 0001:00005380       ??0?$CComPtrBase@UIOleInPlaceObject@@@ATL@@IAE@XZ 10006380 f i Scanner.obj
 0001:000053a0       ??0?$CComPtrBase@UIOleInPlaceUIWindow@@@ATL@@IAE@XZ 100063a0 f i Scanner.obj
 0001:000053c0       ??0?$CComPtrBase@UIOleObject@@@ATL@@IAE@XZ 100063c0 f i Scanner.obj
 0001:000053e0       ??0?$CComPtrBase@UIPersistStream@@@ATL@@IAE@XZ 100063e0 f i Scanner.obj
 0001:00005400       ??0?$CComPtrBase@UIPersistStreamInit@@@ATL@@IAE@XZ 10006400 f i Scanner.obj
 0001:00005420       ??0?$CComPtrBase@UIPointerInactive@@@ATL@@IAE@XZ 10006420 f i Scanner.obj
 0001:00005440       ??0?$CComPtrBase@UIProvideClassInfo2@@@ATL@@IAE@XZ 10006440 f i Scanner.obj
 0001:00005460       ??0?$CComPtrBase@UISpecifyPropertyPages@@@ATL@@IAE@XZ 10006460 f i Scanner.obj
 0001:00005480       ??0?$CComPtrBase@UIStream@@@ATL@@IAE@XZ 10006480 f i Scanner.obj
 0001:000054a0       ??0?$CComPtrBase@UITypeInfo2@@@ATL@@IAE@XZ 100064a0 f i Scanner.obj
 0001:000054c0       ??0?$CComPtrBase@UITypeInfo@@@ATL@@IAE@PAUITypeInfo@@@Z 100064c0 f i Scanner.obj
 0001:00005510       ??0?$CComPtrBase@UITypeInfo@@@ATL@@IAE@XZ 10006510 f i Scanner.obj
 0001:00005530       ??0?$CComPtrBase@UITypeLib@@@ATL@@IAE@XZ 10006530 f i Scanner.obj
 0001:00005550       ??0?$CComPtrBase@UIUnknown@@@ATL@@IAE@PAUIUnknown@@@Z 10006550 f i Scanner.obj
 0001:000055a0       ??0?$CComPtrBase@UIUnknown@@@ATL@@IAE@XZ 100065a0 f i Scanner.obj
 0001:000055c0       ??0?$CComPtrBase@UIViewObjectEx@@@ATL@@IAE@XZ 100065c0 f i Scanner.obj
 0001:000055e0       ??0?$CComQIPtr@UIOleControlSite@@$1?_GUID_b196b289_bab4_101a_b69c_00aa00341d07@@3U__s_GUID@@B@ATL@@QAE@PAUIUnknown@@@Z 100065e0 f i Scanner.obj
 0001:00005640       ??0?$CComQIPtr@UIOleObject@@$1?_GUID_00000112_0000_0000_c000_000000000046@@3U__s_GUID@@B@ATL@@QAE@XZ 10006640 f i Scanner.obj
 0001:00005670       ??0?$CComQIPtr@UISpecifyPropertyPages@@$1?_GUID_b196b28b_bab4_101a_b69c_00aa00341d07@@3U__s_GUID@@B@ATL@@QAE@XZ 10006670 f i Scanner.obj
 0001:000056a0       ??0?$CSimpleMap@PA_WPA_WVCExpansionVectorEqualHelper@ATL@@@ATL@@QAE@XZ 100066a0 f i Scanner.obj
 0001:000056e0       ??0?$CTempBuffer@E$0BAA@VCCRTAllocator@ATL@@@ATL@@QAE@XZ 100066e0 f i Scanner.obj
 0001:00005700       ??0?$CTempBuffer@_W$0BAA@VCCRTAllocator@ATL@@@ATL@@QAE@XZ 10006700 f i Scanner.obj
 0001:00005720       ??0?$CTempBuffer@_W$0EAA@VCCRTAllocator@ATL@@@ATL@@QAE@XZ 10006720 f i Scanner.obj
 0001:00005740       ??0?$Wrapper@PA_W@?$CSimpleMap@PA_WPA_WVCExpansionVectorEqualHelper@ATL@@@ATL@@QAE@ABQA_W@Z 10006740 f i Scanner.obj
 0001:00005770       ??0CAtlModule@ATL@@QAE@XZ  10006770 f i Scanner.obj
 0001:00005890       ??0CComAutoDeleteCriticalSection@ATL@@QAE@XZ 10006890 f i Scanner.obj
 0001:000058c0       ??0CComBSTR@ATL@@QAE@XZ    100068c0 f i Scanner.obj
 0001:000058e0       ??0CComClassFactory@ATL@@QAE@XZ 100068e0 f i Scanner.obj
 0001:00005920       ??0CComModule@ATL@@QAE@XZ  10006920 f i Scanner.obj
 0001:00005990       ??0CComObjectRootBase@ATL@@QAE@XZ 10006990 f i Scanner.obj
 0001:000059b0       ??0CComSafeDeleteCriticalSection@ATL@@QAE@XZ 100069b0 f i Scanner.obj
 0001:000059e0       ??0CComVariant@ATL@@QAE@XZ 100069e0 f i Scanner.obj
 0001:00005a30       ??0CExpansionVector@ATL@@QAE@XZ 10006a30 f i Scanner.obj
 0001:00005a60       ??0CParseBuffer@CRegParser@ATL@@QAE@H@Z 10006a60 f i Scanner.obj
 0001:00005ad0       ??0CRegKey@ATL@@QAE@PAUHKEY__@@@Z 10006ad0 f i Scanner.obj
 0001:00005b10       ??0CRegKey@ATL@@QAE@PAVCAtlTransactionManager@1@@Z 10006b10 f i Scanner.obj
 0001:00005b50       ??0CRegObject@ATL@@QAE@XZ  10006b50 f i Scanner.obj
 0001:00005b90       ??0CRegParser@ATL@@QAE@PAVCRegObject@1@@Z 10006b90 f i Scanner.obj
 0001:00005bc0       ??0IClassFactory@@QAE@XZ   10006bc0 f i Scanner.obj
 0001:00005bf0       ??0IEnumConnectionPoints@@QAE@XZ 10006bf0 f i Scanner.obj
 0001:00005c20       ??0IEnumConnections@@QAE@XZ 10006c20 f i Scanner.obj
 0001:00005c50       ??0IRegistrarBase@@QAE@XZ  10006c50 f i Scanner.obj
 0001:00005c80       ??0IUnknown@@QAE@XZ        10006c80 f i Scanner.obj
 0001:00005ca0       ??0ModuleLockHelper@ATL@@QAE@XZ 10006ca0 f i Scanner.obj
 0001:00005ce0       ??0OposVariant@@QAE@XZ     10006ce0 f i Scanner.obj
 0001:00005d10       ??0Wrapper@?$CSimpleArray@GV?$CSimpleArrayEqualHelper@G@ATL@@@ATL@@QAE@ABG@Z 10006d10 f i Scanner.obj
 0001:00005d40       ??0_ATL_MODULE70@ATL@@QAE@XZ 10006d40 f i Scanner.obj
 0001:00005d70       ??0_ATL_MSG@ATL@@QAE@PAUHWND__@@IIJH@Z 10006d70 f i Scanner.obj
 0001:00005de0       ??0_U_MENUorID@ATL@@QAE@I@Z 10006de0 f i Scanner.obj
 0001:00005e00       ??0_U_RECT@ATL@@QAE@AAUtagRECT@@@Z 10006e00 f i Scanner.obj
 0001:00005e20       ??0stringdispid@CComTypeInfoHolder@ATL@@QAE@XZ 10006e20 f i Scanner.obj
 0001:00005e60       ??1?$CAtlModuleT@VCComModule@ATL@@@ATL@@UAE@XZ 10006e60 f i Scanner.obj
 0001:00005e90       ??1?$CAtlSafeAllocBufferManager@VCCRTAllocator@ATL@@@_ATL_SAFE_ALLOCA_IMPL@ATL@@QAE@XZ 10006e90 f i Scanner.obj
 0001:00005ee0       ??1?$CAutoVectorPtr@_W@ATL@@QAE@XZ 10006ee0 f i Scanner.obj
 0001:00005f10       ??1?$CComAggObject@VCOPOSScanner@@@ATL@@UAE@XZ 10006f10 f i Scanner.obj
 0001:00005f80       ??1?$CComContainedObject@VCOPOSScanner@@@ATL@@UAE@XZ 10006f80 f i Scanner.obj
 0001:00005fb0       ??1?$CComCritSecLock@VCComCriticalSection@ATL@@@ATL@@QAE@XZ 10006fb0 f i Scanner.obj
 0001:00005fe0       ??1?$CComEnum@UIEnumConnectionPoints@@$1?_GUID_b196b285_bab4_101a_b69c_00aa00341d07@@3U__s_GUID@@BPAUIConnectionPoint@@V?$_CopyInterface@UIConnectionPoint@@@ATL@@VCComSingleThreadModel@6@@ATL@@UAE@XZ 10006fe0 f i Scanner.obj
 0001:00006010       ??1?$CComEnum@UIEnumConnections@@$1?_GUID_b196b287_bab4_101a_b69c_00aa00341d07@@3U__s_GUID@@BUtagCONNECTDATA@@V?$_Copy@UtagCONNECTDATA@@@ATL@@VCComSingleThreadModel@6@@ATL@@UAE@XZ 10007010 f i Scanner.obj
 0001:00006040       ??1?$CComEnumImpl@UIEnumConnectionPoints@@$1?_GUID_b196b285_bab4_101a_b69c_00aa00341d07@@3U__s_GUID@@BPAUIConnectionPoint@@V?$_CopyInterface@UIConnectionPoint@@@ATL@@@ATL@@UAE@XZ 10007040 f i Scanner.obj
 0001:000060d0       ??1?$CComEnumImpl@UIEnumConnections@@$1?_GUID_b196b287_bab4_101a_b69c_00aa00341d07@@3U__s_GUID@@BUtagCONNECTDATA@@V?$_Copy@UtagCONNECTDATA@@@ATL@@@ATL@@UAE@XZ 100070d0 f i Scanner.obj
 0001:00006160       ??1?$CComObject@V?$CComEnum@UIEnumConnectionPoints@@$1?_GUID_b196b285_bab4_101a_b69c_00aa00341d07@@3U__s_GUID@@BPAUIConnectionPoint@@V?$_CopyInterface@UIConnectionPoint@@@ATL@@VCComSingleThreadModel@6@@ATL@@@ATL@@UAE@XZ 10007160 f i Scanner.obj
 0001:000061c0       ??1?$CComObject@V?$CComEnum@UIEnumConnections@@$1?_GUID_b196b287_bab4_101a_b69c_00aa00341d07@@3U__s_GUID@@BUtagCONNECTDATA@@V?$_Copy@UtagCONNECTDATA@@@ATL@@VCComSingleThreadModel@6@@ATL@@@ATL@@UAE@XZ 100071c0 f i Scanner.obj
 0001:00006220       ??1?$CComObject@VCOPOSScanner@@@ATL@@UAE@XZ 10007220 f i Scanner.obj
 0001:00006360       ??1?$CComObjectCached@VCComClassFactory@ATL@@@ATL@@UAE@XZ 10007360 f i Scanner.obj
 0001:000063b0       ??1?$CComObjectRootEx@VCComMultiThreadModel@ATL@@@ATL@@QAE@XZ 100073b0 f i Scanner.obj
 0001:000063e0       ??1?$CComObjectRootEx@VCComSingleThreadModel@ATL@@@ATL@@QAE@XZ 100073e0 f i Scanner.obj
 0001:00006410       ??1?$CComPtr@UIAdviseSink@@@ATL@@QAE@XZ 10007410 f i Scanner.obj
 0001:00006440       ??1?$CComPtr@UICatRegister@@@ATL@@QAE@XZ 10007440 f i Scanner.obj
 0001:00006470       ??1?$CComPtr@UIConnectionPoint@@@ATL@@QAE@XZ 10007470 f i Scanner.obj
 0001:000064a0       ??1?$CComPtr@UIConnectionPointContainer@@@ATL@@QAE@XZ 100074a0 f i Scanner.obj
 0001:000064d0       ??1?$CComPtr@UIDataObject@@@ATL@@QAE@XZ 100074d0 f i Scanner.obj
 0001:00006500       ??1?$CComPtr@UIDispatch@@@ATL@@QAE@XZ 10007500 f i Scanner.obj
 0001:00006530       ??1?$CComPtr@UIOleClientSite@@@ATL@@QAE@XZ 10007530 f i Scanner.obj
 0001:00006560       ??1?$CComPtr@UIOleControlSite@@@ATL@@QAE@XZ 10007560 f i Scanner.obj
 0001:00006590       ??1?$CComPtr@UIOleInPlaceActiveObject@@@ATL@@QAE@XZ 10007590 f i Scanner.obj
 0001:000065c0       ??1?$CComPtr@UIOleInPlaceFrame@@@ATL@@QAE@XZ 100075c0 f i Scanner.obj
 0001:000065f0       ??1?$CComPtr@UIOleInPlaceObject@@@ATL@@QAE@XZ 100075f0 f i Scanner.obj
 0001:00006620       ??1?$CComPtr@UIOleInPlaceUIWindow@@@ATL@@QAE@XZ 10007620 f i Scanner.obj
 0001:00006650       ??1?$CComPtr@UIOleObject@@@ATL@@QAE@XZ 10007650 f i Scanner.obj
 0001:00006680       ??1?$CComPtr@UIPersistStream@@@ATL@@QAE@XZ 10007680 f i Scanner.obj
 0001:000066b0       ??1?$CComPtr@UIPersistStreamInit@@@ATL@@QAE@XZ 100076b0 f i Scanner.obj
 0001:000066e0       ??1?$CComPtr@UIPointerInactive@@@ATL@@QAE@XZ 100076e0 f i Scanner.obj
 0001:00006710       ??1?$CComPtr@UIProvideClassInfo2@@@ATL@@QAE@XZ 10007710 f i Scanner.obj
 0001:00006740       ??1?$CComPtr@UISpecifyPropertyPages@@@ATL@@QAE@XZ 10007740 f i Scanner.obj
 0001:00006770       ??1?$CComPtr@UIStream@@@ATL@@QAE@XZ 10007770 f i Scanner.obj
 0001:000067a0       ??1?$CComPtr@UITypeInfo2@@@ATL@@QAE@XZ 100077a0 f i Scanner.obj
 0001:000067d0       ??1?$CComPtr@UITypeInfo@@@ATL@@QAE@XZ 100077d0 f i Scanner.obj
 0001:00006800       ??1?$CComPtr@UITypeLib@@@ATL@@QAE@XZ 10007800 f i Scanner.obj
 0001:00006830       ??1?$CComPtr@UIUnknown@@@ATL@@QAE@XZ 10007830 f i Scanner.obj
 0001:00006860       ??1?$CComPtr@UIViewObjectEx@@@ATL@@QAE@XZ 10007860 f i Scanner.obj
 0001:00006890       ??1?$CComPtrBase@UIAdviseSink@@@ATL@@QAE@XZ 10007890 f i Scanner.obj
 0001:000068e0       ??1?$CComPtrBase@UICatRegister@@@ATL@@QAE@XZ 100078e0 f i Scanner.obj
 0001:00006930       ??1?$CComPtrBase@UIConnectionPoint@@@ATL@@QAE@XZ 10007930 f i Scanner.obj
 0001:00006980       ??1?$CComPtrBase@UIConnectionPointContainer@@@ATL@@QAE@XZ 10007980 f i Scanner.obj
 0001:000069d0       ??1?$CComPtrBase@UIDataObject@@@ATL@@QAE@XZ 100079d0 f i Scanner.obj
 0001:00006a20       ??1?$CComPtrBase@UIDispatch@@@ATL@@QAE@XZ 10007a20 f i Scanner.obj
 0001:00006a70       ??1?$CComPtrBase@UIOleClientSite@@@ATL@@QAE@XZ 10007a70 f i Scanner.obj
 0001:00006ac0       ??1?$CComPtrBase@UIOleControlSite@@@ATL@@QAE@XZ 10007ac0 f i Scanner.obj
 0001:00006b10       ??1?$CComPtrBase@UIOleInPlaceActiveObject@@@ATL@@QAE@XZ 10007b10 f i Scanner.obj
 0001:00006b60       ??1?$CComPtrBase@UIOleInPlaceFrame@@@ATL@@QAE@XZ 10007b60 f i Scanner.obj
 0001:00006bb0       ??1?$CComPtrBase@UIOleInPlaceObject@@@ATL@@QAE@XZ 10007bb0 f i Scanner.obj
 0001:00006c00       ??1?$CComPtrBase@UIOleInPlaceUIWindow@@@ATL@@QAE@XZ 10007c00 f i Scanner.obj
 0001:00006c50       ??1?$CComPtrBase@UIOleObject@@@ATL@@QAE@XZ 10007c50 f i Scanner.obj
 0001:00006ca0       ??1?$CComPtrBase@UIPersistStream@@@ATL@@QAE@XZ 10007ca0 f i Scanner.obj
 0001:00006cf0       ??1?$CComPtrBase@UIPersistStreamInit@@@ATL@@QAE@XZ 10007cf0 f i Scanner.obj
 0001:00006d40       ??1?$CComPtrBase@UIPointerInactive@@@ATL@@QAE@XZ 10007d40 f i Scanner.obj
 0001:00006d90       ??1?$CComPtrBase@UIProvideClassInfo2@@@ATL@@QAE@XZ 10007d90 f i Scanner.obj
 0001:00006de0       ??1?$CComPtrBase@UISpecifyPropertyPages@@@ATL@@QAE@XZ 10007de0 f i Scanner.obj
 0001:00006e30       ??1?$CComPtrBase@UIStream@@@ATL@@QAE@XZ 10007e30 f i Scanner.obj
 0001:00006e80       ??1?$CComPtrBase@UITypeInfo2@@@ATL@@QAE@XZ 10007e80 f i Scanner.obj
 0001:00006ed0       ??1?$CComPtrBase@UITypeInfo@@@ATL@@QAE@XZ 10007ed0 f i Scanner.obj
 0001:00006f20       ??1?$CComPtrBase@UITypeLib@@@ATL@@QAE@XZ 10007f20 f i Scanner.obj
 0001:00006f70       ??1?$CComPtrBase@UIUnknown@@@ATL@@QAE@XZ 10007f70 f i Scanner.obj
 0001:00006fc0       ??1?$CComPtrBase@UIViewObjectEx@@@ATL@@QAE@XZ 10007fc0 f i Scanner.obj
 0001:00007010       ??1?$CComQIPtr@UIOleControlSite@@$1?_GUID_b196b289_bab4_101a_b69c_00aa00341d07@@3U__s_GUID@@B@ATL@@QAE@XZ 10008010 f i Scanner.obj
 0001:00007040       ??1?$CComQIPtr@UIOleObject@@$1?_GUID_00000112_0000_0000_c000_000000000046@@3U__s_GUID@@B@ATL@@QAE@XZ 10008040 f i Scanner.obj
 0001:00007070       ??1?$CComQIPtr@UISpecifyPropertyPages@@$1?_GUID_b196b28b_bab4_101a_b69c_00aa00341d07@@3U__s_GUID@@B@ATL@@QAE@XZ 10008070 f i Scanner.obj
 0001:000070a0       ??1?$CSimpleMap@PA_WPA_WVCExpansionVectorEqualHelper@ATL@@@ATL@@QAE@XZ 100080a0 f i Scanner.obj
 0001:000070d0       ??1?$CTempBuffer@E$0BAA@VCCRTAllocator@ATL@@@ATL@@QAE@XZ 100080d0 f i Scanner.obj
 0001:00007110       ??1?$CTempBuffer@_W$0BAA@VCCRTAllocator@ATL@@@ATL@@QAE@XZ 10008110 f i Scanner.obj
 0001:00007150       ??1?$CTempBuffer@_W$0EAA@VCCRTAllocator@ATL@@@ATL@@QAE@XZ 10008150 f i Scanner.obj
 0001:00007190       ??1CAtlModule@ATL@@UAE@XZ  10008190 f i Scanner.obj
 0001:000071c0       ??1CComAutoDeleteCriticalSection@ATL@@QAE@XZ 100081c0 f i Scanner.obj
 0001:000071f0       ??1CComClassFactory@ATL@@UAE@XZ 100081f0 f i Scanner.obj
 0001:00007220       ??1CComModule@ATL@@UAE@XZ  10008220 f i Scanner.obj
 0001:00007250       ??1CComObjectRootBase@ATL@@QAE@XZ 10008250 f i Scanner.obj
 0001:00007270       ??1CComSafeDeleteCriticalSection@ATL@@QAE@XZ 10008270 f i Scanner.obj
 0001:000072b0       ??1CComVariant@ATL@@QAE@XZ 100082b0 f i Scanner.obj
 0001:00007310       ??1CExpansionVector@ATL@@QAE@XZ 10008310 f i Scanner.obj
 0001:00007340       ??1CParseBuffer@CRegParser@ATL@@QAE@XZ 10008340 f i Scanner.obj
 0001:00007380       ??1CRegKey@ATL@@QAE@XZ     10008380 f i Scanner.obj
 0001:000073b0       ??1CRegObject@ATL@@UAE@XZ  100083b0 f i Scanner.obj
 0001:000073f0       ??1ModuleLockHelper@ATL@@QAE@XZ 100083f0 f i Scanner.obj
 0001:00007430       ??1OposVariant@@QAE@XZ     10008430 f i Scanner.obj
 0001:00007460       ??1_ATL_MODULE70@ATL@@QAE@XZ 10008460 f i Scanner.obj
 0001:00007490       ??4?$CComPtr@UIAdviseSink@@@ATL@@QAEPAUIAdviseSink@@PAU2@@Z 10008490 f i Scanner.obj
 0001:00007500       ??4?$CComPtr@UIOleClientSite@@@ATL@@QAEPAUIOleClientSite@@PAU2@@Z 10008500 f i Scanner.obj
 0001:00007570       ??4?$CComPtr@UIUnknown@@@ATL@@QAEPAUIUnknown@@PAU2@@Z 10008570 f i Scanner.obj
 0001:000075e0       ??4?$CComQIPtr@UIOleObject@@$1?_GUID_00000112_0000_0000_c000_000000000046@@3U__s_GUID@@B@ATL@@QAEPAUIOleObject@@PAUIUnknown@@@Z 100085e0 f i Scanner.obj
 0001:00007630       ??4?$CComQIPtr@UISpecifyPropertyPages@@$1?_GUID_b196b28b_bab4_101a_b69c_00aa00341d07@@3U__s_GUID@@B@ATL@@QAEPAUISpecifyPropertyPages@@PAUIUnknown@@@Z 10008630 f i Scanner.obj
 0001:00007680       ??7?$CComPtrBase@UIOleClientSite@@@ATL@@QBE_NXZ 10008680 f i Scanner.obj
 0001:000076c0       ??7?$CComPtrBase@UIOleInPlaceSiteWindowless@@@ATL@@QBE_NXZ 100086c0 f i Scanner.obj
 0001:00007700       ??7CComBSTR@ATL@@QBE_NXZ   10008700 f i Scanner.obj
 0001:00007740       ??8?$CComPtrBase@UIAdviseSink@@@ATL@@QBE_NPAUIAdviseSink@@@Z 10008740 f i Scanner.obj
 0001:00007780       ??8?$CComPtrBase@UIConnectionPointContainer@@@ATL@@QBE_NPAUIConnectionPointContainer@@@Z 10008780 f i Scanner.obj
 0001:000077c0       ??8?$CComPtrBase@UIDataAdviseHolder@@@ATL@@QBE_NPAUIDataAdviseHolder@@@Z 100087c0 f i Scanner.obj
 0001:00007800       ??8?$CComPtrBase@UIOleAdviseHolder@@@ATL@@QBE_NPAUIOleAdviseHolder@@@Z 10008800 f i Scanner.obj
 0001:00007840       ??8?$CComPtrBase@UIOleClientSite@@@ATL@@QBE_NPAUIOleClientSite@@@Z 10008840 f i Scanner.obj
 0001:00007880       ??8?$CComPtrBase@UIOleControlSite@@@ATL@@QBE_NPAUIOleControlSite@@@Z 10008880 f i Scanner.obj
 0001:000078c0       ??8?$CComPtrBase@UIOleInPlaceObject@@@ATL@@QBE_NPAUIOleInPlaceObject@@@Z 100088c0 f i Scanner.obj
 0001:00007900       ??8?$CComPtrBase@UIOleInPlaceSiteWindowless@@@ATL@@QBE_NPAUIOleInPlaceSiteWindowless@@@Z 10008900 f i Scanner.obj
 0001:00007940       ??8?$CComPtrBase@UIOleObject@@@ATL@@QBE_NPAUIOleObject@@@Z 10008940 f i Scanner.obj
 0001:00007980       ??8?$CComPtrBase@UIPersistStream@@@ATL@@QBE_NPAUIPersistStream@@@Z 10008980 f i Scanner.obj
 0001:000079c0       ??8?$CComPtrBase@UIPersistStreamInit@@@ATL@@QBE_NPAUIPersistStreamInit@@@Z 100089c0 f i Scanner.obj
 0001:00007a00       ??8?$CComPtrBase@UIPointerInactive@@@ATL@@QBE_NPAUIPointerInactive@@@Z 10008a00 f i Scanner.obj
 0001:00007a40       ??8?$CComPtrBase@UIUnknown@@@ATL@@QBE_NPAUIUnknown@@@Z 10008a40 f i Scanner.obj
 0001:00007a80       ??8?$CComPtrBase@UIViewObjectEx@@@ATL@@QBE_NPAUIViewObjectEx@@@Z 10008a80 f i Scanner.obj
 0001:00007ac0       ??8CComBSTR@ATL@@QBE_NH@Z  10008ac0 f i Scanner.obj
 0001:00007b20       ??9?$CComPtrBase@UIAdviseSink@@@ATL@@QBE_NPAUIAdviseSink@@@Z 10008b20 f i Scanner.obj
 0001:00007b70       ??9?$CComPtrBase@UIConnectionPointContainer@@@ATL@@QBE_NPAUIConnectionPointContainer@@@Z 10008b70 f i Scanner.obj
 0001:00007bc0       ??9?$CComPtrBase@UIDataAdviseHolder@@@ATL@@QBE_NPAUIDataAdviseHolder@@@Z 10008bc0 f i Scanner.obj
 0001:00007c10       ??9?$CComPtrBase@UIOleAdviseHolder@@@ATL@@QBE_NPAUIOleAdviseHolder@@@Z 10008c10 f i Scanner.obj
 0001:00007c60       ??9?$CComPtrBase@UIOleClientSite@@@ATL@@QBE_NPAUIOleClientSite@@@Z 10008c60 f i Scanner.obj
 0001:00007cb0       ??9?$CComPtrBase@UIOleControlSite@@@ATL@@QBE_NPAUIOleControlSite@@@Z 10008cb0 f i Scanner.obj
 0001:00007d00       ??9?$CComPtrBase@UIOleInPlaceObject@@@ATL@@QBE_NPAUIOleInPlaceObject@@@Z 10008d00 f i Scanner.obj
 0001:00007d50       ??9?$CComPtrBase@UIOleInPlaceSiteWindowless@@@ATL@@QBE_NPAUIOleInPlaceSiteWindowless@@@Z 10008d50 f i Scanner.obj
 0001:00007da0       ??9?$CComPtrBase@UIOleObject@@@ATL@@QBE_NPAUIOleObject@@@Z 10008da0 f i Scanner.obj
 0001:00007df0       ??9?$CComPtrBase@UIPersistStream@@@ATL@@QBE_NPAUIPersistStream@@@Z 10008df0 f i Scanner.obj
 0001:00007e40       ??9?$CComPtrBase@UIPersistStreamInit@@@ATL@@QBE_NPAUIPersistStreamInit@@@Z 10008e40 f i Scanner.obj
 0001:00007e90       ??9?$CComPtrBase@UIPointerInactive@@@ATL@@QBE_NPAUIPointerInactive@@@Z 10008e90 f i Scanner.obj
 0001:00007ee0       ??9?$CComPtrBase@UIUnknown@@@ATL@@QBE_NPAUIUnknown@@@Z 10008ee0 f i Scanner.obj
 0001:00007f30       ??9?$CComPtrBase@UIViewObjectEx@@@ATL@@QBE_NPAUIViewObjectEx@@@Z 10008f30 f i Scanner.obj
 0001:00007f80       ??9CComBSTR@ATL@@QBE_NH@Z  10008f80 f i Scanner.obj
 0001:00007fd0       ??B?$CComPtrBase@UIAdviseSink@@@ATL@@QBEPAUIAdviseSink@@XZ 10008fd0 f i Scanner.obj
 0001:00007ff0       ??B?$CComPtrBase@UIDataAdviseHolder@@@ATL@@QBEPAUIDataAdviseHolder@@XZ 10008ff0 f i Scanner.obj
 0001:00008010       ??B?$CComPtrBase@UIDataObject@@@ATL@@QBEPAUIDataObject@@XZ 10009010 f i Scanner.obj
 0001:00008030       ??B?$CComPtrBase@UIOleAdviseHolder@@@ATL@@QBEPAUIOleAdviseHolder@@XZ 10009030 f i Scanner.obj
 0001:00008050       ??B?$CComPtrBase@UIOleClientSite@@@ATL@@QBEPAUIOleClientSite@@XZ 10009050 f i Scanner.obj
 0001:00008070       ??B?$CComPtrBase@UIOleControlSite@@@ATL@@QBEPAUIOleControlSite@@XZ 10009070 f i Scanner.obj
 0001:00008090       ??B?$CComPtrBase@UIOleInPlaceActiveObject@@@ATL@@QBEPAUIOleInPlaceActiveObject@@XZ 10009090 f i Scanner.obj
 0001:000080b0       ??B?$CComPtrBase@UIOleInPlaceFrame@@@ATL@@QBEPAUIOleInPlaceFrame@@XZ 100090b0 f i Scanner.obj
 0001:000080d0       ??B?$CComPtrBase@UIOleInPlaceSiteWindowless@@@ATL@@QBEPAUIOleInPlaceSiteWindowless@@XZ 100090d0 f i Scanner.obj
 0001:000080f0       ??B?$CComPtrBase@UIOleInPlaceUIWindow@@@ATL@@QBEPAUIOleInPlaceUIWindow@@XZ 100090f0 f i Scanner.obj
 0001:00008110       ??B?$CComPtrBase@UIOleObject@@@ATL@@QBEPAUIOleObject@@XZ 10009110 f i Scanner.obj
 0001:00008130       ??B?$CComPtrBase@UIPersistStream@@@ATL@@QBEPAUIPersistStream@@XZ 10009130 f i Scanner.obj
 0001:00008150       ??B?$CComPtrBase@UIProvideClassInfo2@@@ATL@@QBEPAUIProvideClassInfo2@@XZ 10009150 f i Scanner.obj
 0001:00008170       ??B?$CComPtrBase@UISpecifyPropertyPages@@@ATL@@QBEPAUISpecifyPropertyPages@@XZ 10009170 f i Scanner.obj
 0001:00008190       ??B?$CComPtrBase@UIStream@@@ATL@@QBEPAUIStream@@XZ 10009190 f i Scanner.obj
 0001:000081b0       ??B?$CComPtrBase@UITypeInfo2@@@ATL@@QBEPAUITypeInfo2@@XZ 100091b0 f i Scanner.obj
 0001:000081d0       ??B?$CComPtrBase@UITypeInfo@@@ATL@@QBEPAUITypeInfo@@XZ 100091d0 f i Scanner.obj
 0001:000081f0       ??B?$CComPtrBase@UITypeLib@@@ATL@@QBEPAUITypeLib@@XZ 100091f0 f i Scanner.obj
 0001:00008210       ??B?$CComPtrBase@UIUnknown@@@ATL@@QBEPAUIUnknown@@XZ 10009210 f i Scanner.obj
 0001:00008230       ??B?$CTempBuffer@E$0BAA@VCCRTAllocator@ATL@@@ATL@@QBEPAEXZ 10009230 f i Scanner.obj
 0001:00008250       ??B?$CTempBuffer@_W$0BAA@VCCRTAllocator@ATL@@@ATL@@QBEPA_WXZ 10009250 f i Scanner.obj
 0001:00008270       ??B?$CTempBuffer@_W$0EAA@VCCRTAllocator@ATL@@@ATL@@QBEPA_WXZ 10009270 f i Scanner.obj
 0001:00008290       ??B?$CTraceCategoryEx@$00$0A@@ATL@@QAEIXZ 10009290 f i Scanner.obj
 0001:000082b0       ??B?$CTraceCategoryEx@$07$0A@@ATL@@QAEIXZ 100092b0 f i Scanner.obj
 0001:000082d0       ??B?$CTraceCategoryEx@$0CAAA@$0A@@ATL@@QAEIXZ 100092d0 f i Scanner.obj
 0001:000082f0       ??B?$CTraceCategoryEx@$0EA@$0A@@ATL@@QAEIXZ 100092f0 f i Scanner.obj
 0001:00008310       ??B?$CTraceCategoryEx@$0IAA@$0A@@ATL@@QAEIXZ 10009310 f i Scanner.obj
 0001:00008330       ??BCComBSTR@ATL@@QBEPA_WXZ 10009330 f i Scanner.obj
 0001:00008350       ??BCRegKey@ATL@@QBEPAUHKEY__@@XZ 10009350 f i Scanner.obj
 0001:00008370       ??C?$CComPtrBase@UIAdviseSink@@@ATL@@QBEPAV?$_NoAddRefReleaseOnCComPtr@UIAdviseSink@@@1@XZ 10009370 f i Scanner.obj
 0001:000083c0       ??C?$CComPtrBase@UICatRegister@@@ATL@@QBEPAV?$_NoAddRefReleaseOnCComPtr@UICatRegister@@@1@XZ 100093c0 f i Scanner.obj
 0001:00008410       ??C?$CComPtrBase@UIConnectionPoint@@@ATL@@QBEPAV?$_NoAddRefReleaseOnCComPtr@UIConnectionPoint@@@1@XZ 10009410 f i Scanner.obj
 0001:00008460       ??C?$CComPtrBase@UIConnectionPointContainer@@@ATL@@QBEPAV?$_NoAddRefReleaseOnCComPtr@UIConnectionPointContainer@@@1@XZ 10009460 f i Scanner.obj
 0001:000084b0       ??C?$CComPtrBase@UIDataAdviseHolder@@@ATL@@QBEPAV?$_NoAddRefReleaseOnCComPtr@UIDataAdviseHolder@@@1@XZ 100094b0 f i Scanner.obj
 0001:00008500       ??C?$CComPtrBase@UIOleAdviseHolder@@@ATL@@QBEPAV?$_NoAddRefReleaseOnCComPtr@UIOleAdviseHolder@@@1@XZ 10009500 f i Scanner.obj
 0001:00008550       ??C?$CComPtrBase@UIOleClientSite@@@ATL@@QBEPAV?$_NoAddRefReleaseOnCComPtr@UIOleClientSite@@@1@XZ 10009550 f i Scanner.obj
 0001:000085a0       ??C?$CComPtrBase@UIOleControlSite@@@ATL@@QBEPAV?$_NoAddRefReleaseOnCComPtr@UIOleControlSite@@@1@XZ 100095a0 f i Scanner.obj
 0001:000085f0       ??C?$CComPtrBase@UIOleInPlaceFrame@@@ATL@@QBEPAV?$_NoAddRefReleaseOnCComPtr@UIOleInPlaceFrame@@@1@XZ 100095f0 f i Scanner.obj
 0001:00008640       ??C?$CComPtrBase@UIOleInPlaceObject@@@ATL@@QBEPAV?$_NoAddRefReleaseOnCComPtr@UIOleInPlaceObject@@@1@XZ 10009640 f i Scanner.obj
 0001:00008690       ??C?$CComPtrBase@UIOleInPlaceSiteWindowless@@@ATL@@QBEPAV?$_NoAddRefReleaseOnCComPtr@UIOleInPlaceSiteWindowless@@@1@XZ 10009690 f i Scanner.obj
 0001:000086e0       ??C?$CComPtrBase@UIOleInPlaceUIWindow@@@ATL@@QBEPAV?$_NoAddRefReleaseOnCComPtr@UIOleInPlaceUIWindow@@@1@XZ 100096e0 f i Scanner.obj
 0001:00008730       ??C?$CComPtrBase@UIOleObject@@@ATL@@QBEPAV?$_NoAddRefReleaseOnCComPtr@UIOleObject@@@1@XZ 10009730 f i Scanner.obj
 0001:00008780       ??C?$CComPtrBase@UIPersistStream@@@ATL@@QBEPAV?$_NoAddRefReleaseOnCComPtr@UIPersistStream@@@1@XZ 10009780 f i Scanner.obj
 0001:000087d0       ??C?$CComPtrBase@UIPersistStreamInit@@@ATL@@QBEPAV?$_NoAddRefReleaseOnCComPtr@UIPersistStreamInit@@@1@XZ 100097d0 f i Scanner.obj
 0001:00008820       ??C?$CComPtrBase@UIPointerInactive@@@ATL@@QBEPAV?$_NoAddRefReleaseOnCComPtr@UIPointerInactive@@@1@XZ 10009820 f i Scanner.obj
 0001:00008870       ??C?$CComPtrBase@UIProvideClassInfo2@@@ATL@@QBEPAV?$_NoAddRefReleaseOnCComPtr@UIProvideClassInfo2@@@1@XZ 10009870 f i Scanner.obj
 0001:000088c0       ??C?$CComPtrBase@UISpecifyPropertyPages@@@ATL@@QBEPAV?$_NoAddRefReleaseOnCComPtr@UISpecifyPropertyPages@@@1@XZ 100098c0 f i Scanner.obj
 0001:00008910       ??C?$CComPtrBase@UITypeInfo@@@ATL@@QBEPAV?$_NoAddRefReleaseOnCComPtr@UITypeInfo@@@1@XZ 10009910 f i Scanner.obj
 0001:00008960       ??C?$CComPtrBase@UITypeLib@@@ATL@@QBEPAV?$_NoAddRefReleaseOnCComPtr@UITypeLib@@@1@XZ 10009960 f i Scanner.obj
 0001:000089b0       ??C?$CComPtrBase@UIUnknown@@@ATL@@QBEPAV?$_NoAddRefReleaseOnCComPtr@UIUnknown@@@1@XZ 100099b0 f i Scanner.obj
 0001:00008a00       ??C?$CComPtrBase@UIViewObjectEx@@@ATL@@QBEPAV?$_NoAddRefReleaseOnCComPtr@UIViewObjectEx@@@1@XZ 10009a00 f i Scanner.obj
 0001:00008a50       ??I?$CComPtrBase@UICatRegister@@@ATL@@QAEPAPAUICatRegister@@XZ 10009a50 f i Scanner.obj
 0001:00008aa0       ??I?$CComPtrBase@UIConnectionPoint@@@ATL@@QAEPAPAUIConnectionPoint@@XZ 10009aa0 f i Scanner.obj
 0001:00008af0       ??I?$CComPtrBase@UIConnectionPointContainer@@@ATL@@QAEPAPAUIConnectionPointContainer@@XZ 10009af0 f i Scanner.obj
 0001:00008b40       ??I?$CComPtrBase@UIDataAdviseHolder@@@ATL@@QAEPAPAUIDataAdviseHolder@@XZ 10009b40 f i Scanner.obj
 0001:00008b90       ??I?$CComPtrBase@UIDataObject@@@ATL@@QAEPAPAUIDataObject@@XZ 10009b90 f i Scanner.obj
 0001:00008be0       ??I?$CComPtrBase@UIDispatch@@@ATL@@QAEPAPAUIDispatch@@XZ 10009be0 f i Scanner.obj
 0001:00008c30       ??I?$CComPtrBase@UIOleAdviseHolder@@@ATL@@QAEPAPAUIOleAdviseHolder@@XZ 10009c30 f i Scanner.obj
 0001:00008c80       ??I?$CComPtrBase@UIOleControlSite@@@ATL@@QAEPAPAUIOleControlSite@@XZ 10009c80 f i Scanner.obj
 0001:00008cd0       ??I?$CComPtrBase@UIOleInPlaceActiveObject@@@ATL@@QAEPAPAUIOleInPlaceActiveObject@@XZ 10009cd0 f i Scanner.obj
 0001:00008d20       ??I?$CComPtrBase@UIOleInPlaceFrame@@@ATL@@QAEPAPAUIOleInPlaceFrame@@XZ 10009d20 f i Scanner.obj
 0001:00008d70       ??I?$CComPtrBase@UIOleInPlaceObject@@@ATL@@QAEPAPAUIOleInPlaceObject@@XZ 10009d70 f i Scanner.obj
 0001:00008dc0       ??I?$CComPtrBase@UIOleInPlaceSiteWindowless@@@ATL@@QAEPAPAUIOleInPlaceSiteWindowless@@XZ 10009dc0 f i Scanner.obj
 0001:00008e10       ??I?$CComPtrBase@UIOleInPlaceUIWindow@@@ATL@@QAEPAPAUIOleInPlaceUIWindow@@XZ 10009e10 f i Scanner.obj
 0001:00008e60       ??I?$CComPtrBase@UIOleObject@@@ATL@@QAEPAPAUIOleObject@@XZ 10009e60 f i Scanner.obj
 0001:00008eb0       ??I?$CComPtrBase@UIPersistStream@@@ATL@@QAEPAPAUIPersistStream@@XZ 10009eb0 f i Scanner.obj
 0001:00008f00       ??I?$CComPtrBase@UIPointerInactive@@@ATL@@QAEPAPAUIPointerInactive@@XZ 10009f00 f i Scanner.obj
 0001:00008f50       ??I?$CComPtrBase@UIProvideClassInfo2@@@ATL@@QAEPAPAUIProvideClassInfo2@@XZ 10009f50 f i Scanner.obj
 0001:00008fa0       ??I?$CComPtrBase@UIStream@@@ATL@@QAEPAPAUIStream@@XZ 10009fa0 f i Scanner.obj
 0001:00008ff0       ??I?$CComPtrBase@UITypeInfo2@@@ATL@@QAEPAPAUITypeInfo2@@XZ 10009ff0 f i Scanner.obj
 0001:00009040       ??I?$CComPtrBase@UITypeInfo@@@ATL@@QAEPAPAUITypeInfo@@XZ 1000a040 f i Scanner.obj
 0001:00009090       ??I?$CComPtrBase@UITypeLib@@@ATL@@QAEPAPAUITypeLib@@XZ 1000a090 f i Scanner.obj
 0001:000090e0       ??I?$CComPtrBase@UIUnknown@@@ATL@@QAEPAPAUIUnknown@@XZ 1000a0e0 f i Scanner.obj
 0001:00009130       ??I?$CComPtrBase@UIViewObjectEx@@@ATL@@QAEPAPAUIViewObjectEx@@XZ 1000a130 f i Scanner.obj
 0001:00009180       ??ICComBSTR@ATL@@QAEPAPA_WXZ 1000a180 f i Scanner.obj
 0001:00009195       ??_E?$CComContainedObject@VCOPOSScanner@@@ATL@@W3AEPAXI@Z 1000a195 f i Scanner.obj
 0001:0000919d       ??_E?$CComContainedObject@VCOPOSScanner@@@ATL@@WEM@AEPAXI@Z 1000a19d f i Scanner.obj
 0001:000091a5       ??_E?$CComObject@VCOPOSScanner@@@ATL@@W3AEPAXI@Z 1000a1a5 f i Scanner.obj
 0001:000091ad       ??_E?$CComObject@VCOPOSScanner@@@ATL@@WEM@AEPAXI@Z 1000a1ad f i Scanner.obj
 0001:000091c0       ??_G?$CComAggObject@VCOPOSScanner@@@ATL@@UAEPAXI@Z 1000a1c0 f i Scanner.obj
 0001:000091c0       ??_E?$CComAggObject@VCOPOSScanner@@@ATL@@UAEPAXI@Z 1000a1c0 f i Scanner.obj
 0001:00009210       ??_G?$CComContainedObject@VCOPOSScanner@@@ATL@@UAEPAXI@Z 1000a210 f i Scanner.obj
 0001:00009210       ??_E?$CComContainedObject@VCOPOSScanner@@@ATL@@UAEPAXI@Z 1000a210 f i Scanner.obj
 0001:00009260       ??_G?$CComObject@V?$CComEnum@UIEnumConnectionPoints@@$1?_GUID_b196b285_bab4_101a_b69c_00aa00341d07@@3U__s_GUID@@BPAUIConnectionPoint@@V?$_CopyInterface@UIConnectionPoint@@@ATL@@VCComSingleThreadModel@6@@ATL@@@ATL@@UAEPAXI@Z 1000a260 f i Scanner.obj
 0001:00009260       ??_E?$CComObject@V?$CComEnum@UIEnumConnectionPoints@@$1?_GUID_b196b285_bab4_101a_b69c_00aa00341d07@@3U__s_GUID@@BPAUIConnectionPoint@@V?$_CopyInterface@UIConnectionPoint@@@ATL@@VCComSingleThreadModel@6@@ATL@@@ATL@@UAEPAXI@Z 1000a260 f i Scanner.obj
 0001:000092a0       ??_E?$CComObject@V?$CComEnum@UIEnumConnections@@$1?_GUID_b196b287_bab4_101a_b69c_00aa00341d07@@3U__s_GUID@@BUtagCONNECTDATA@@V?$_Copy@UtagCONNECTDATA@@@ATL@@VCComSingleThreadModel@6@@ATL@@@ATL@@UAEPAXI@Z 1000a2a0 f i Scanner.obj
 0001:000092a0       ??_G?$CComObject@V?$CComEnum@UIEnumConnections@@$1?_GUID_b196b287_bab4_101a_b69c_00aa00341d07@@3U__s_GUID@@BUtagCONNECTDATA@@V?$_Copy@UtagCONNECTDATA@@@ATL@@VCComSingleThreadModel@6@@ATL@@@ATL@@UAEPAXI@Z 1000a2a0 f i Scanner.obj
 0001:000092e0       ??_G?$CComObject@VCOPOSScanner@@@ATL@@UAEPAXI@Z 1000a2e0 f i Scanner.obj
 0001:000092e0       ??_E?$CComObject@VCOPOSScanner@@@ATL@@UAEPAXI@Z 1000a2e0 f i Scanner.obj
 0001:00009330       ??_G?$CComObjectCached@VCComClassFactory@ATL@@@ATL@@UAEPAXI@Z 1000a330 f i Scanner.obj
 0001:00009330       ??_E?$CComObjectCached@VCComClassFactory@ATL@@@ATL@@UAEPAXI@Z 1000a330 f i Scanner.obj
 0001:00009370       ??_ECComClassFactory@ATL@@UAEPAXI@Z 1000a370 f i Scanner.obj
 0001:00009370       ??_GCComClassFactory@ATL@@UAEPAXI@Z 1000a370 f i Scanner.obj
 0001:000093b0       ??_GCComModule@ATL@@UAEPAXI@Z 1000a3b0 f i Scanner.obj
 0001:000093b0       ??_ECComModule@ATL@@UAEPAXI@Z 1000a3b0 f i Scanner.obj
 0001:000093f0       ??_ECRegObject@ATL@@UAEPAXI@Z 1000a3f0 f i Scanner.obj
 0001:000093f0       ??_GCRegObject@ATL@@UAEPAXI@Z 1000a3f0 f i Scanner.obj
 0001:00009430       ?Add@?$CSimpleArray@GV?$CSimpleArrayEqualHelper@G@ATL@@@ATL@@QAEHABG@Z 1000a430 f i Scanner.obj
 0001:00009580       ?Add@?$CSimpleMap@PA_WPA_WVCExpansionVectorEqualHelper@ATL@@@ATL@@QAEHABQA_W0@Z 1000a580 f i Scanner.obj
 0001:00009640       ?Add@CComDynamicUnkArray@ATL@@QAEKPAUIUnknown@@@Z 1000a640 f i Scanner.obj
 0001:000097e0       ?Add@CExpansionVector@ATL@@QAEHPB_W0@Z 1000a7e0 f i Scanner.obj
 0001:00009a70       ?AddChar@CParseBuffer@CRegParser@ATL@@QAEHPB_W@Z 1000aa70 f i Scanner.obj
 0001:00009ab0       ?AddCommonRGSReplacements@?$CAtlModuleT@VCComModule@ATL@@@ATL@@UAEJPAUIRegistrarBase@@@Z 1000aab0 f i Scanner.obj
 0001:00009b00       ?AddCreateWndData@CAtlWinModule@ATL@@QAEXPAU_AtlCreateWndData@2@PAX@Z 1000ab00 f i Scanner.obj
 0001:00009b30       ?AddRef@?$CComAggObject@VCOPOSScanner@@@ATL@@UAGKXZ 1000ab30 f i Scanner.obj
 0001:00009b50       ?AddRef@?$CComContainedObject@VCOPOSScanner@@@ATL@@UAGKXZ 1000ab50 f i Scanner.obj
 0001:00009b6c       ?AddRef@?$CComContainedObject@VCOPOSScanner@@@ATL@@WHA@AGKXZ 1000ab6c f i Scanner.obj
 0001:00009b76       ?AddRef@?$CComContainedObject@VCOPOSScanner@@@ATL@@WHE@AGKXZ 1000ab76 f i Scanner.obj
 0001:00009b80       ?AddRef@?$CComContainedObject@VCOPOSScanner@@@ATL@@WHI@AGKXZ 1000ab80 f i Scanner.obj
 0001:00009b8a       ?AddRef@?$CComContainedObject@VCOPOSScanner@@@ATL@@WHM@AGKXZ 1000ab8a f i Scanner.obj
 0001:00009b94       ?AddRef@?$CComContainedObject@VCOPOSScanner@@@ATL@@WIA@AGKXZ 1000ab94 f i Scanner.obj
 0001:00009ba1       ?AddRef@?$CComContainedObject@VCOPOSScanner@@@ATL@@WIE@AGKXZ 1000aba1 f i Scanner.obj
 0001:00009bae       ?AddRef@?$CComContainedObject@VCOPOSScanner@@@ATL@@WII@AGKXZ 1000abae f i Scanner.obj
 0001:00009bbb       ?AddRef@?$CComContainedObject@VCOPOSScanner@@@ATL@@WIM@AGKXZ 1000abbb f i Scanner.obj
 0001:00009bc8       ?AddRef@?$CComContainedObject@VCOPOSScanner@@@ATL@@WJA@AGKXZ 1000abc8 f i Scanner.obj
 0001:00009bd5       ?AddRef@?$CComContainedObject@VCOPOSScanner@@@ATL@@WJE@AGKXZ 1000abd5 f i Scanner.obj
 0001:00009be2       ?AddRef@?$CComContainedObject@VCOPOSScanner@@@ATL@@WJI@AGKXZ 1000abe2 f i Scanner.obj
 0001:00009bef       ?AddRef@?$CComContainedObject@VCOPOSScanner@@@ATL@@WJM@AGKXZ 1000abef f i Scanner.obj
 0001:00009bfc       ?AddRef@?$CComContainedObject@VCOPOSScanner@@@ATL@@WKA@AGKXZ 1000abfc f i Scanner.obj
 0001:00009c09       ?AddRef@?$CComContainedObject@VCOPOSScanner@@@ATL@@WKI@AGKXZ 1000ac09 f i Scanner.obj
 0001:00009c16       ?AddRef@?$CComContainedObject@VCOPOSScanner@@@ATL@@WLE@AGKXZ 1000ac16 f i Scanner.obj
 0001:00009c30       ?AddRef@?$CComObject@V?$CComEnum@UIEnumConnectionPoints@@$1?_GUID_b196b285_bab4_101a_b69c_00aa00341d07@@3U__s_GUID@@BPAUIConnectionPoint@@V?$_CopyInterface@UIConnectionPoint@@@ATL@@VCComSingleThreadModel@6@@ATL@@@ATL@@UAGKXZ 1000ac30 f i Scanner.obj
 0001:00009c50       ?AddRef@?$CComObject@V?$CComEnum@UIEnumConnections@@$1?_GUID_b196b287_bab4_101a_b69c_00aa00341d07@@3U__s_GUID@@BUtagCONNECTDATA@@V?$_Copy@UtagCONNECTDATA@@@ATL@@VCComSingleThreadModel@6@@ATL@@@ATL@@UAGKXZ 1000ac50 f i Scanner.obj
 0001:00009c70       ?AddRef@?$CComObject@VCOPOSScanner@@@ATL@@UAGKXZ 1000ac70 f i Scanner.obj
 0001:00009c8c       ?AddRef@?$CComObject@VCOPOSScanner@@@ATL@@WHA@AGKXZ 1000ac8c f i Scanner.obj
 0001:00009c96       ?AddRef@?$CComObject@VCOPOSScanner@@@ATL@@WHE@AGKXZ 1000ac96 f i Scanner.obj
 0001:00009ca0       ?AddRef@?$CComObject@VCOPOSScanner@@@ATL@@WHI@AGKXZ 1000aca0 f i Scanner.obj
 0001:00009caa       ?AddRef@?$CComObject@VCOPOSScanner@@@ATL@@WHM@AGKXZ 1000acaa f i Scanner.obj
 0001:00009cb4       ?AddRef@?$CComObject@VCOPOSScanner@@@ATL@@WIA@AGKXZ 1000acb4 f i Scanner.obj
 0001:00009cc1       ?AddRef@?$CComObject@VCOPOSScanner@@@ATL@@WIE@AGKXZ 1000acc1 f i Scanner.obj
 0001:00009cce       ?AddRef@?$CComObject@VCOPOSScanner@@@ATL@@WII@AGKXZ 1000acce f i Scanner.obj
 0001:00009cdb       ?AddRef@?$CComObject@VCOPOSScanner@@@ATL@@WIM@AGKXZ 1000acdb f i Scanner.obj
 0001:00009ce8       ?AddRef@?$CComObject@VCOPOSScanner@@@ATL@@WJA@AGKXZ 1000ace8 f i Scanner.obj
 0001:00009cf5       ?AddRef@?$CComObject@VCOPOSScanner@@@ATL@@WJE@AGKXZ 1000acf5 f i Scanner.obj
 0001:00009d02       ?AddRef@?$CComObject@VCOPOSScanner@@@ATL@@WJI@AGKXZ 1000ad02 f i Scanner.obj
 0001:00009d0f       ?AddRef@?$CComObject@VCOPOSScanner@@@ATL@@WJM@AGKXZ 1000ad0f f i Scanner.obj
 0001:00009d1c       ?AddRef@?$CComObject@VCOPOSScanner@@@ATL@@WKA@AGKXZ 1000ad1c f i Scanner.obj
 0001:00009d29       ?AddRef@?$CComObject@VCOPOSScanner@@@ATL@@WKI@AGKXZ 1000ad29 f i Scanner.obj
 0001:00009d36       ?AddRef@?$CComObject@VCOPOSScanner@@@ATL@@WLE@AGKXZ 1000ad36 f i Scanner.obj
 0001:00009d50       ?AddRef@?$CComObjectCached@VCComClassFactory@ATL@@@ATL@@UAGKXZ 1000ad50 f i Scanner.obj
 0001:00009da0       ?AddRef@CRegObject@ATL@@UAGKXZ 1000ada0 f i Scanner.obj
 0001:00009df0       ?AddReplacement@CRegObject@ATL@@UAGJPB_W0@Z 1000adf0 f i Scanner.obj
 0001:00009f00       ?AddString@CParseBuffer@CRegParser@ATL@@QAEHPB_W@Z 1000af00 f i Scanner.obj
 0001:00009ff0       ?AddTermFunc@CAtlModule@ATL@@QAEJP6GXK@ZK@Z 1000aff0 f i Scanner.obj
 0001:0000a040       ?AddValue@CRegParser@ATL@@IAEJAAVCRegKey@2@PB_WPA_W@Z 1000b040 f i Scanner.obj
 0001:0000a7d0       ?Advise@?$CProxy_IOPOSEvents@VCOPOSScanner@@@@UAGJPAUIUnknown@@PAK@Z 1000b7d0 f i Scanner.obj
 0001:0000a820       ?Advise@?$IConnectionPointImpl@VCOPOSScanner@@$1?DIID__IOPOSScannerEvents@@3U_GUID@@BVCComDynamicUnkArray@ATL@@@ATL@@UAGJPAUIUnknown@@PAK@Z 1000b820 f i Scanner.obj
 0001:0000a9c0       ?Advise@?$IConnectionPointImpl@VCOPOSScanner@@$1?IID_IPropertyNotifySink@@3U_GUID@@BVCComDynamicUnkArray@ATL@@@ATL@@UAGJPAUIUnknown@@PAK@Z 1000b9c0 f i Scanner.obj
 0001:0000ab60       ?Advise@?$IOleObjectImpl@VCOPOSScanner@@@ATL@@UAGJPAUIAdviseSink@@PAK@Z 1000bb60 f i Scanner.obj
 0001:0000abf0       ?Allocate@?$CAtlSafeAllocBufferManager@VCCRTAllocator@ATL@@@_ATL_SAFE_ALLOCA_IMPL@ATL@@QAEPAXK@Z 1000bbf0 f i Scanner.obj
 0001:0000ac60       ?Allocate@?$CTempBuffer@E$0BAA@VCCRTAllocator@ATL@@@ATL@@QAEPAEI@Z 1000bc60 f i Scanner.obj
 0001:0000aca0       ?Allocate@?$CTempBuffer@_W$0BAA@VCCRTAllocator@ATL@@@ATL@@QAEPA_WI@Z 1000bca0 f i Scanner.obj
 0001:0000ace0       ?Allocate@?$CTempBuffer@_W$0EAA@VCCRTAllocator@ATL@@@ATL@@QAEPA_WI@Z 1000bce0 f i Scanner.obj
 0001:0000ad20       ?AllocateBytes@?$CTempBuffer@E$0BAA@VCCRTAllocator@ATL@@@ATL@@QAEPAEI@Z 1000bd20 f i Scanner.obj
 0001:0000ada0       ?AllocateBytes@?$CTempBuffer@_W$0BAA@VCCRTAllocator@ATL@@@ATL@@QAEPA_WI@Z 1000bda0 f i Scanner.obj
 0001:0000ae20       ?AllocateBytes@?$CTempBuffer@_W$0EAA@VCCRTAllocator@ATL@@@ATL@@QAEPA_WI@Z 1000be20 f i Scanner.obj
 0001:0000aea0       ?AllocateHeap@?$CTempBuffer@E$0BAA@VCCRTAllocator@ATL@@@ATL@@AAEXI@Z 1000bea0 f i Scanner.obj
 0001:0000aef0       ?AllocateHeap@?$CTempBuffer@_W$0BAA@VCCRTAllocator@ATL@@@ATL@@AAEXI@Z 1000bef0 f i Scanner.obj
 0001:0000af40       ?AllocateHeap@?$CTempBuffer@_W$0EAA@VCCRTAllocator@ATL@@@ATL@@AAEXI@Z 1000bf40 f i Scanner.obj
 0001:0000af90       ?Append@CParseBuffer@CRegParser@ATL@@QAEHPB_WH@Z 1000bf90 f i Scanner.obj
 0001:0000b130       ?AtlCallTermFunc@ATL@@YGXPAU_ATL_MODULE70@1@@Z 1000c130 f i Scanner.obj
 0001:0000b1d0       ?AtlCoTaskMemCAlloc@ATL@@YAPAXKK@Z 1000c1d0 f i Scanner.obj
 0001:0000b260       ?AtlCoTaskMemRecalloc@ATL@@YAPAXPAXKK@Z 1000c260 f i Scanner.obj
 0001:0000b300       ?AtlComModuleGetClassObject@ATL@@YGJPAU_ATL_COM_MODULE70@1@ABU_GUID@@1PAPAX@Z 1000c300 f i Scanner.obj
 0001:0000b590       ?AtlComModuleRegisterServer@ATL@@YGJPAU_ATL_COM_MODULE70@1@HPBU_GUID@@@Z 1000c590 f i Scanner.obj
 0001:0000b720       ?AtlComModuleUnregisterServer@ATL@@YGJPAU_ATL_COM_MODULE70@1@HPBU_GUID@@@Z 1000c720 f i Scanner.obj
 0001:0000b850       ?AtlComQIPtrAssign2@ATL@@YAXPAPAUIUnknown@@PAU2@ABU_GUID@@@Z 1000c850 f i Scanner.obj
 0001:0000b8d0       ?AtlCreateTargetDC@ATL@@YGPAUHDC__@@PAU2@PAUtagDVTARGETDEVICE@@@Z 1000c8d0 f i Scanner.obj
 0001:0000ba70       ?AtlCrtErrorCheck@ATL@@YAHH@Z 1000ca70 f i Scanner.obj
 0001:0000bb40       ?AtlGetPerUserRegistration@ATL@@YGJPA_N@Z 1000cb40 f i Scanner.obj
 0001:0000bb70       ?AtlHiMetricToPixel@ATL@@YGXPBUtagSIZE@@PAU2@@Z 1000cb70 f i Scanner.obj
 0001:0000bd40       ?AtlHresultFromLastError@ATL@@YAJXZ 1000cd40 f i Scanner.obj
 0001:0000bd80       ?AtlHresultFromWin32@ATL@@YAJK@Z 1000cd80 f i Scanner.obj
 0001:0000bda0       ?AtlIPersistStreamInit_Load@ATL@@YGJPAUIStream@@PBUATL_PROPMAP_ENTRY@1@PAXPAUIUnknown@@@Z 1000cda0 f i Scanner.obj
 0001:0000c200       ?AtlIPersistStreamInit_Save@ATL@@YGJPAUIStream@@HPBUATL_PROPMAP_ENTRY@1@PAXPAUIUnknown@@@Z 1000d200 f i Scanner.obj
 0001:0000c5e0       ?AtlInternalOleLoadFromStream@ATL@@YAJPAUIStream@@ABU_GUID@@PAPAXTClassesAllowedInStream@1@K@Z 1000d5e0 f i Scanner.obj
 0001:0000c880       ?AtlInternalQueryInterface@ATL@@YGJPAXPBU_ATL_INTMAP_ENTRY@1@ABU_GUID@@PAPAX@Z 1000d880 f i Scanner.obj
 0001:0000cab0       ?AtlLoadTypeLib@ATL@@YGJPAUHINSTANCE__@@PB_WPAPA_WPAPAUITypeLib@@@Z 1000dab0 f i Scanner.obj
 0001:0000cf10       ?AtlModuleAddTermFunc@ATL@@YGJPAU_ATL_MODULE70@1@P6GXK@ZK@Z 1000df10 f i Scanner.obj
 0001:0000d070       ?AtlRegisterClassCategoriesHelper@ATL@@YGJABU_GUID@@PBU_ATL_CATMAP_ENTRY@1@H@Z 1000e070 f i Scanner.obj
 0001:0000d750       ?AtlRegisterTypeLib@ATL@@YGJPAUHINSTANCE__@@PB_W@Z 1000e750 f i Scanner.obj
 0001:0000da90       ?AtlThrowImpl@ATL@@YGXJ@Z  1000ea90 f i Scanner.obj
 0001:0000db40       ?AtlUnRegisterTypeLib@ATL@@YGJPAUHINSTANCE__@@PB_W@Z 1000eb40 f i Scanner.obj
 0001:0000dd50       ?AtlWinModuleAddCreateWndData@ATL@@YGXPAU_ATL_WIN_MODULE70@1@PAU_AtlCreateWndData@1@PAX@Z 1000ed50 f i Scanner.obj
 0001:0000dec0       ?AtlWinModuleExtractCreateWndData@ATL@@YGPAXPAU_ATL_WIN_MODULE70@1@@Z 1000eec0 f i Scanner.obj
 0001:0000e040       ?AtlWinModuleRegisterClassExW@ATL@@YGGPAU_ATL_WIN_MODULE70@1@PBUtagWNDCLASSEXW@@@Z 1000f040 f i Scanner.obj
 0001:0000e110       ?AtlWinModuleRegisterWndClassInfoW@ATL@@YGGPAU_ATL_WIN_MODULE70@1@PAU_ATL_BASE_MODULE70@1@PAU_ATL_WNDCLASSINFOW@1@PAP6GJPAUHWND__@@IIJ@Z@Z 1000f110 f i Scanner.obj
 0001:0000e1a0       ?Attach@?$CAutoVectorPtr@_W@ATL@@QAEXPA_W@Z 1000f1a0 f i Scanner.obj
 0001:0000e200       ?Attach@CComBSTR@ATL@@QAEXPA_W@Z 1000f200 f i Scanner.obj
 0001:0000e250       ?Attach@CRegKey@ATL@@QAEXPAUHKEY__@@@Z 1000f250 f i Scanner.obj
 0001:0000e2c0       ?CanForceRemoveKey@CRegParser@ATL@@IAEHPB_W@Z 1000f2c0 f i Scanner.obj
 0001:0000e330       ?ChToByte@CRegParser@ATL@@KAE_W@Z 1000f330 f i Scanner.obj
 0001:0000e450       ?ChangeType@CComVariant@ATL@@QAEJGPBUtagVARIANT@@@Z 1000f450 f i Scanner.obj
 0001:0000e4b0       ?Cleanup@CComTypeInfoHolder@ATL@@SGXK@Z 1000f4b0 f i Scanner.obj
 0001:0000e580       ?Clear@CComVariant@ATL@@QAEJXZ 1000f580 f i Scanner.obj
 0001:0000e5c0       ?ClearReplacements@CExpansionVector@ATL@@QAEJXZ 1000f5c0 f i Scanner.obj
 0001:0000e650       ?ClearReplacements@CRegObject@ATL@@UAGJXZ 1000f650 f i Scanner.obj
 0001:0000e6a0       ?Clone@?$CComEnumImpl@UIEnumConnectionPoints@@$1?_GUID_b196b285_bab4_101a_b69c_00aa00341d07@@3U__s_GUID@@BPAUIConnectionPoint@@V?$_CopyInterface@UIConnectionPoint@@@ATL@@@ATL@@UAGJPAPAUIEnumConnectionPoints@@@Z 1000f6a0 f i Scanner.obj
 0001:0000e810       ?Clone@?$CComEnumImpl@UIEnumConnections@@$1?_GUID_b196b287_bab4_101a_b69c_00aa00341d07@@3U__s_GUID@@BUtagCONNECTDATA@@V?$_Copy@UtagCONNECTDATA@@@ATL@@@ATL@@UAGJPAPAUIEnumConnections@@@Z 1000f810 f i Scanner.obj
 0001:0000e980       ?Close@?$IOleObjectImpl@VCOPOSScanner@@@ATL@@UAGJK@Z 1000f980 f i Scanner.obj
 0001:0000ea10       ?Close@CRegKey@ATL@@QAEJXZ 1000fa10 f i Scanner.obj
 0001:0000ea80       ?ContextSensitiveHelp@?$IOleInPlaceActiveObjectImpl@VCOPOSScanner@@@ATL@@UAGJH@Z 1000fa80 f i Scanner.obj
 0001:0000eaf0       ?ContextSensitiveHelp@?$IOleInPlaceObjectWindowlessImpl@VCOPOSScanner@@@ATL@@UAGJH@Z 1000faf0 f i Scanner.obj
 0001:0000eb60       ?ControlQueryInterface@?$CComControl@VCOPOSScanner@@V?$CWindowImpl@VCOPOSScanner@@VCWindow@ATL@@V?$CWinTraits@$0FGAAAAAA@$0A@@3@@ATL@@@ATL@@UAEJABU_GUID@@PAPAX@Z 1000fb60 f i Scanner.obj
 0001:0000ebe0       ?CreateControlWindow@?$CComControl@VCOPOSScanner@@V?$CWindowImpl@VCOPOSScanner@@VCWindow@ATL@@V?$CWinTraits@$0FGAAAAAA@$0A@@3@@ATL@@@ATL@@UAEPAUHWND__@@PAU3@AAUtagRECT@@@Z 1000fbe0 f i Scanner.obj
 0001:0000ec60       ?CreateInstance@?$CComCreator@V?$CComAggObject@VCOPOSScanner@@@ATL@@@ATL@@SGJPAXABU_GUID@@PAPAX@Z 1000fc60 f i Scanner.obj
 0001:0000ede0       ?CreateInstance@?$CComCreator@V?$CComObject@VCOPOSScanner@@@ATL@@@ATL@@SGJPAXABU_GUID@@PAPAX@Z 1000fde0 f i Scanner.obj
 0001:0000ef70       ?CreateInstance@?$CComObject@V?$CComEnum@UIEnumConnectionPoints@@$1?_GUID_b196b285_bab4_101a_b69c_00aa00341d07@@3U__s_GUID@@BPAUIConnectionPoint@@V?$_CopyInterface@UIConnectionPoint@@@ATL@@VCComSingleThreadModel@6@@ATL@@@ATL@@SGJPAPAV12@@Z 1000ff70 f i Scanner.obj
 0001:0000f0e0       ?CreateInstance@?$CComObject@V?$CComEnum@UIEnumConnections@@$1?_GUID_b196b287_bab4_101a_b69c_00aa00341d07@@3U__s_GUID@@BUtagCONNECTDATA@@V?$_Copy@UtagCONNECTDATA@@@ATL@@VCComSingleThreadModel@6@@ATL@@@ATL@@SGJPAPAV12@@Z 100100e0 f i Scanner.obj
 0001:0000f250       ?CreateInstance@CComClassFactory@ATL@@UAGJPAUIUnknown@@ABU_GUID@@PAPAX@Z 10010250 f i Scanner.obj
 0001:0000f340       ?DAdvise@?$IDataObjectImpl@VCOPOSScanner@@@ATL@@UAGJPAUtagFORMATETC@@KPAUIAdviseSink@@PAK@Z 10010340 f i Scanner.obj
 0001:0000f440       ?DEVMODEOLE2T_EX@@YAPAU_devicemodeW@@PAU1@@Z 10010440 f i Scanner.obj
 0001:0000f450       ?DUnadvise@?$IDataObjectImpl@VCOPOSScanner@@@ATL@@UAGJK@Z 10010450 f i Scanner.obj
 0001:0000f520       ?Decrement@CComMultiThreadModel@ATL@@SGKPAJ@Z 10010520 f i Scanner.obj
 0001:0000f540       ?Decrement@CComSingleThreadModel@ATL@@SGKPAJ@Z 10010540 f i Scanner.obj
 0001:0000f560       ?DefWindowProcW@?$CWindowImplBaseT@VCWindow@ATL@@V?$CWinTraits@$0FGAAAAAA@$0A@@2@@ATL@@QAEJIIJ@Z 10010560 f i Scanner.obj
 0001:0000f5b0       ?DefaultReflectionHandler@?$CWindowImplRoot@VCWindow@ATL@@@ATL@@SAHPAUHWND__@@IIJAAJ@Z 100105b0 f i Scanner.obj
 0001:0000f7a0       ?DeleteSubKey@CRegKey@ATL@@QAEJPB_W@Z 100107a0 f i Scanner.obj
 0001:0000f8b0       ?DeleteValue@CRegKey@ATL@@QAEJPB_W@Z 100108b0 f i Scanner.obj
 0001:0000f920       ?Detach@?$CAutoVectorPtr@_W@ATL@@QAEPA_WXZ 10010920 f i Scanner.obj
 0001:0000f950       ?Detach@?$CComPtrBase@UIPersistStream@@@ATL@@QAEPAUIPersistStream@@XZ 10010950 f i Scanner.obj
 0001:0000f980       ?Detach@?$CComPtrBase@UITypeInfo@@@ATL@@QAEPAUITypeInfo@@XZ 10010980 f i Scanner.obj
 0001:0000f9b0       ?Detach@?$CComPtrBase@UIUnknown@@@ATL@@QAEPAUIUnknown@@XZ 100109b0 f i Scanner.obj
 0001:0000f9e0       ?Detach@CComBSTR@ATL@@QAEPA_WXZ 100109e0 f i Scanner.obj
 0001:0000fa10       ?Detach@CParseBuffer@CRegParser@ATL@@QAEPA_WXZ 10010a10 f i Scanner.obj
 0001:0000fa60       ?Detach@CRegKey@ATL@@QAEPAUHKEY__@@XZ 10010a60 f i Scanner.obj
 0001:0000fab0       ?DoEvent@COPOSScanner@@IAEXIIJ@Z 10010ab0 f i Scanner.obj
 0001:0000fbf0       ?DoVerb@?$IOleObjectImpl@VCOPOSScanner@@@ATL@@UAGJJPAUtagMSG@@PAUIOleClientSite@@JPAUHWND__@@PBUtagRECT@@@Z 10010bf0 f i Scanner.obj
 0001:0000fe00       ?DoVerbDiscardUndo@?$IOleObjectImpl@VCOPOSScanner@@@ATL@@QAEJPBUtagRECT@@PAUHWND__@@@Z 10010e00 f i Scanner.obj
 0001:0000fe70       ?DoVerbHide@?$IOleObjectImpl@VCOPOSScanner@@@ATL@@QAEJPBUtagRECT@@PAUHWND__@@@Z 10010e70 f i Scanner.obj
 0001:0000ff20       ?DoVerbInPlaceActivate@?$IOleObjectImpl@VCOPOSScanner@@@ATL@@QAEJPBUtagRECT@@PAUHWND__@@@Z 10010f20 f i Scanner.obj
 0001:0000ffc0       ?DoVerbOpen@?$IOleObjectImpl@VCOPOSScanner@@@ATL@@QAEJPBUtagRECT@@PAUHWND__@@@Z 10010fc0 f i Scanner.obj
 0001:00010030       ?DoVerbPrimary@?$IOleObjectImpl@VCOPOSScanner@@@ATL@@QAEJPBUtagRECT@@PAUHWND__@@@Z 10011030 f i Scanner.obj
 0001:00010140       ?DoVerbProperties@CComControlBase@ATL@@QAEJPBUtagRECT@@PAUHWND__@@@Z 10011140 f i Scanner.obj
 0001:00010460       ?DoVerbShow@?$IOleObjectImpl@VCOPOSScanner@@@ATL@@QAEJPBUtagRECT@@PAUHWND__@@@Z 10011460 f i Scanner.obj
 0001:000104f0       ?DoVerbUIActivate@?$IOleObjectImpl@VCOPOSScanner@@@ATL@@QAEJPBUtagRECT@@PAUHWND__@@@Z 100114f0 f i Scanner.obj
 0001:00010590       ?DoesVerbActivate@CComControlBase@ATL@@QAEHJ@Z 10011590 f i Scanner.obj
 0001:00010600       ?DoesVerbUIActivate@CComControlBase@ATL@@QAEHJ@Z 10011600 f i Scanner.obj
 0001:00010680       ?Draw@?$IViewObjectExImpl@VCOPOSScanner@@@ATL@@UAGJKJPAXPAUtagDVTARGETDEVICE@@PAUHDC__@@2PBU_RECTL@@3P6GHK@ZK@Z 10011680 f i Scanner.obj
 0001:00010720       ?Empty@CComBSTR@ATL@@QAEXXZ 10011720 f i Scanner.obj
 0001:00010760       ?EnableModeless@?$IOleInPlaceActiveObjectImpl@VCOPOSScanner@@@ATL@@UAGJH@Z 10011760 f i Scanner.obj
 0001:000107c0       ?EndOfVar@CRegParser@ATL@@IAEHXZ 100117c0 f i Scanner.obj
 0001:00010830       ?EnsureTI@CComTypeInfoHolder@ATL@@QAEJK@Z 10011830 f i Scanner.obj
 0001:00010890       ?EnumAdvise@?$IOleObjectImpl@VCOPOSScanner@@@ATL@@UAGJPAPAUIEnumSTATDATA@@@Z 10011890 f i Scanner.obj
 0001:000109a0       ?EnumConnectionPoints@?$IConnectionPointContainerImpl@VCOPOSScanner@@@ATL@@UAGJPAPAUIEnumConnectionPoints@@@Z 100119a0 f i Scanner.obj
 0001:00010dd0       ?EnumConnections@?$IConnectionPointImpl@VCOPOSScanner@@$1?DIID__IOPOSScannerEvents@@3U_GUID@@BVCComDynamicUnkArray@ATL@@@ATL@@UAGJPAPAUIEnumConnections@@@Z 10011dd0 f i Scanner.obj
 0001:00011020       ?EnumConnections@?$IConnectionPointImpl@VCOPOSScanner@@$1?IID_IPropertyNotifySink@@3U_GUID@@BVCComDynamicUnkArray@ATL@@@ATL@@UAGJPAPAUIEnumConnections@@@Z 10012020 f i Scanner.obj
 0001:00011270       ?EnumDAdvise@?$IDataObjectImpl@VCOPOSScanner@@@ATL@@UAGJPAPAUIEnumSTATDATA@@@Z 10012270 f i Scanner.obj
 0001:00011370       ?EnumFormatEtc@?$IDataObjectImpl@VCOPOSScanner@@@ATL@@UAGJKPAPAUIEnumFORMATETC@@@Z 10012370 f i Scanner.obj
 0001:000113e0       ?EnumVerbs@?$IOleObjectImpl@VCOPOSScanner@@@ATL@@UAGJPAPAUIEnumOLEVERB@@@Z 100123e0 f i Scanner.obj
 0001:00011490       ?EscapeSingleQuote@CAtlModule@ATL@@SAXPA_WIPB_W@Z 10012490 f i Scanner.obj
 0001:00011540       ?ExtractCreateWndData@CAtlWinModule@ATL@@QAEPAXXZ 10012540 f i Scanner.obj
 0001:00011570       ?FAccessAllowed@?$IObjectSafetyImpl@VCOPOSScanner@@$02@ATL@@MAEHXZ 10012570 f i Scanner.obj
 0001:00011590       ?FinalConstruct@?$CComAggObject@VCOPOSScanner@@@ATL@@QAEJXZ 10012590 f i Scanner.obj
 0001:000115d0       ?FinalConstruct@CComObjectRootBase@ATL@@QAEJXZ 100125d0 f i Scanner.obj
 0001:000115f0       ?FinalConstruct@CRegObject@ATL@@QAEJXZ 100125f0 f i Scanner.obj
 0001:00011620       ?FinalRelease@?$CComAggObject@VCOPOSScanner@@@ATL@@QAEXXZ 10012620 f i Scanner.obj
 0001:00011660       ?FinalRelease@CComObjectRootBase@ATL@@QAEXXZ 10012660 f i Scanner.obj
 0001:00011680       ?FindConnectionPoint@?$IConnectionPointContainerImpl@VCOPOSScanner@@@ATL@@UAGJABU_GUID@@PAPAUIConnectionPoint@@@Z 10012680 f i Scanner.obj
 0001:000117d0       ?FindKey@?$CSimpleMap@PA_WPA_WVCExpansionVectorEqualHelper@ATL@@@ATL@@QBEHABQA_W@Z 100127d0 f i Scanner.obj
 0001:00011840       ?FireTheEvent@?$CProxy_IOPOSEvents@VCOPOSScanner@@@@IAEXPAUIUnknown@@PAVOposVariant@@IAAJPB_WJ@Z 10012840 f i Scanner.obj
 0001:000119b0       ?FireViewChange@CComControlBase@ATL@@QAEJXZ 100129b0 f i Scanner.obj
 0001:00011a70       ?Fire_DataEvent@?$CProxy_IOPOSEvents@VCOPOSScanner@@@@QAEXJ@Z 10012a70 f i Scanner.obj
 0001:00011bd0       ?Fire_DirectIOEvent@?$CProxy_IOPOSEvents@VCOPOSScanner@@@@QAEXJPAJPAPA_W@Z 10012bd0 f i Scanner.obj
 0001:00011da0       ?Fire_ErrorEvent@?$CProxy_IOPOSEvents@VCOPOSScanner@@@@QAEXJJJPAJ@Z 10012da0 f i Scanner.obj
 0001:00011f90       ?Fire_StatusUpdateEvent@?$CProxy_IOPOSEvents@VCOPOSScanner@@@@QAEXJ@Z 10012f90 f i Scanner.obj
 0001:000120f0       ?FormatWindowClassName@AtlModuleRegisterWndClassInfoParamW@ATL@@SAXPA_WKPAX@Z 100130f0 f i Scanner.obj
 0001:00012120       ?Free@?$CAutoVectorPtr@_W@ATL@@QAEXXZ 10013120 f i Scanner.obj
 0001:00012170       ?FreeHeap@?$CTempBuffer@E$0BAA@VCCRTAllocator@ATL@@@ATL@@AAEXXZ 10013170 f i Scanner.obj
 0001:000121a0       ?FreeHeap@?$CTempBuffer@_W$0BAA@VCCRTAllocator@ATL@@@ATL@@AAEXXZ 100131a0 f i Scanner.obj
 0001:000121d0       ?FreeHeap@?$CTempBuffer@_W$0EAA@VCCRTAllocator@ATL@@@ATL@@AAEXXZ 100131d0 f i Scanner.obj
 0001:00012200       ?Freeze@?$IViewObjectExImpl@VCOPOSScanner@@@ATL@@UAGJKJPAXPAK@Z 10013200 f i Scanner.obj
 0001:00012270       ?GenerateError@CRegParser@ATL@@IAEJI@Z 10013270 f i Scanner.obj
 0001:00012290       ?GetAdvise@?$IViewObjectExImpl@VCOPOSScanner@@@ATL@@UAGJPAK0PAPAUIAdviseSink@@@Z 10013290 f i Scanner.obj
 0001:00012390       ?GetAmbientLocaleID@CComControlBase@ATL@@QAEJAAK@Z 10013390 f i Scanner.obj
 0001:00012470       ?GetAmbientProperty@CComControlBase@ATL@@QAEJJAAUtagVARIANT@@@Z 10013470 f i Scanner.obj
 0001:000124c0       ?GetAmbientUserMode@CComControlBase@ATL@@QAEJAAH@Z 100134c0 f i Scanner.obj
 0001:000125c0       ?GetAppId@?$CAtlModuleT@VCComModule@ATL@@@ATL@@SAPB_WXZ 100135c0 f i Scanner.obj
 0001:000125d0       ?GetAt@CComDynamicUnkArray@ATL@@QAEPAUIUnknown@@H@Z 100135d0 f i Scanner.obj
 0001:00012650       ?GetCanonicalFormatEtc@?$IDataObjectImpl@VCOPOSScanner@@@ATL@@UAGJPAUtagFORMATETC@@0@Z 10013650 f i Scanner.obj
 0001:000126c0       ?GetClassID@?$IPersistStorageImpl@VCOPOSScanner@@@ATL@@UAGJPAU_GUID@@@Z 100136c0 f i Scanner.obj
 0001:00012740       ?GetClassID@?$IPersistStreamInitImpl@VCOPOSScanner@@@ATL@@UAGJPAU_GUID@@@Z 10013740 f i Scanner.obj
 0001:000127c0       ?GetClassInfoExW@AtlModuleRegisterWndClassInfoParamW@ATL@@SAHPAUHINSTANCE__@@PB_WPAUtagWNDCLASSEXW@@@Z 100137c0 f i Scanner.obj
 0001:000127f0       ?GetClassInfoW@?$IProvideClassInfo2Impl@$1?CLSID_OPOSScanner@@3U_GUID@@B$1?DIID__IOPOSScannerEvents@@3U2@B$1?LIBID_OposScanner_CCO@@3U2@B$00$0A@VCComTypeInfoHolder@ATL@@@ATL@@UAGJPAPAUITypeInfo@@@Z 100137f0 f i Scanner.obj
 0001:00012810       ?GetClassObject@CComModule@ATL@@QAEJABU_GUID@@0PAPAX@Z 10013810 f i Scanner.obj
 0001:00012a10       ?GetClientSite@?$IOleObjectImpl@VCOPOSScanner@@@ATL@@UAGJPAPAUIOleClientSite@@@Z 10013a10 f i Scanner.obj
 0001:00012aa0       ?GetClipboardData@?$IOleObjectImpl@VCOPOSScanner@@@ATL@@UAGJKPAPAUIDataObject@@@Z 10013aa0 f i Scanner.obj
 0001:00012b10       ?GetCodeAddress@CDynamicStdCallThunk2@ATL@@QAEPAXXZ 10013b10 f i Scanner.obj
 0001:00012b40       ?GetColorSet@?$IViewObjectExImpl@VCOPOSScanner@@@ATL@@UAGJKJPAXPAUtagDVTARGETDEVICE@@PAUHDC__@@PAPAUtagLOGPALETTE@@@Z 10013b40 f i Scanner.obj
 0001:00012bb0       ?GetConnMap@COPOSScanner@@SAPBU_ATL_CONNMAP_ENTRY@ATL@@PAH@Z 10013bb0 f i Scanner.obj
 0001:00012cf0       ?GetConnectionInterface@?$IConnectionPointImpl@VCOPOSScanner@@$1?DIID__IOPOSScannerEvents@@3U_GUID@@BVCComDynamicUnkArray@ATL@@@ATL@@UAGJPAU_GUID@@@Z 10013cf0 f i Scanner.obj
 0001:00012d30       ?GetConnectionInterface@?$IConnectionPointImpl@VCOPOSScanner@@$1?IID_IPropertyNotifySink@@3U_GUID@@BVCComDynamicUnkArray@ATL@@@ATL@@UAGJPAU_GUID@@@Z 10013d30 f i Scanner.obj
 0001:00012d70       ?GetConnectionPointContainer@?$IConnectionPointImpl@VCOPOSScanner@@$1?DIID__IOPOSScannerEvents@@3U_GUID@@BVCComDynamicUnkArray@ATL@@@ATL@@UAGJPAPAUIConnectionPointContainer@@@Z 10013d70 f i Scanner.obj
 0001:00012de0       ?GetConnectionPointContainer@?$IConnectionPointImpl@VCOPOSScanner@@$1?IID_IPropertyNotifySink@@3U_GUID@@BVCComDynamicUnkArray@ATL@@@ATL@@UAGJPAPAUIConnectionPointContainer@@@Z 10013de0 f i Scanner.obj
 0001:00012e50       ?GetContentExtent@?$IQuickActivateImpl@VCOPOSScanner@@@ATL@@UAGJPAUtagSIZE@@@Z 10013e50 f i Scanner.obj
 0001:00012ee0       ?GetControlInfo@?$IOleControlImpl@VCOPOSScanner@@@ATL@@UAGJPAUtagCONTROLINFO@@@Z 10013ee0 f i Scanner.obj
 0001:00012f50       ?GetCookie@CComDynamicUnkArray@ATL@@QAGKPAPAUIUnknown@@@Z 10013f50 f i Scanner.obj
 0001:00013010       ?GetData@?$IDataObjectImpl@VCOPOSScanner@@@ATL@@UAGJPAUtagFORMATETC@@PAUtagSTGMEDIUM@@@Z 10014010 f i Scanner.obj
 0001:000130a0       ?GetData@CAtlSafeAllocBufferNode@?$CAtlSafeAllocBufferManager@VCCRTAllocator@ATL@@@_ATL_SAFE_ALLOCA_IMPL@ATL@@QAEPAXXZ 100140a0 f i Scanner.obj
 0001:000130c0       ?GetDataHere@?$IDataObjectImpl@VCOPOSScanner@@@ATL@@UAGJPAUtagFORMATETC@@PAUtagSTGMEDIUM@@@Z 100140c0 f i Scanner.obj
 0001:00013130       ?GetDropTarget@?$IOleInPlaceObjectWindowlessImpl@VCOPOSScanner@@@ATL@@UAGJPAPAUIDropTarget@@@Z 10014130 f i Scanner.obj
 0001:000131a0       ?GetExtent@?$IOleObjectImpl@VCOPOSScanner@@@ATL@@UAGJKPAUtagSIZE@@@Z 100141a0 f i Scanner.obj
 0001:00013240       ?GetExtent@?$IViewObjectExImpl@VCOPOSScanner@@@ATL@@UAGJKJPAUtagDVTARGETDEVICE@@PAUtagSIZE@@@Z 10014240 f i Scanner.obj
 0001:00013310       ?GetGITPtr@CAtlModule@ATL@@UAEJPAPAUIGlobalInterfaceTable@@@Z 10014310 f i Scanner.obj
 0001:00013410       ?GetGUID@?$IProvideClassInfo2Impl@$1?CLSID_OPOSScanner@@3U_GUID@@B$1?DIID__IOPOSScannerEvents@@3U2@B$1?LIBID_OposScanner_CCO@@3U2@B$00$0A@VCComTypeInfoHolder@ATL@@@ATL@@UAGJKPAU_GUID@@@Z 10014410 f i Scanner.obj
 0001:00013490       ?GetIDsOfNames@?$IDispatchImpl@UIOPOSScanner@@$1?IID_IOPOSScanner@@3U_GUID@@B$1?LIBID_OposScanner_CCO@@3U3@B$00$0A@VCComTypeInfoHolder@ATL@@@ATL@@UAGJABU_GUID@@PAPA_WIKPAJ@Z 10014490 f i Scanner.obj
 0001:000134c0       ?GetIDsOfNames@CComTypeInfoHolder@ATL@@QAEJABU_GUID@@PAPA_WIKPAJ@Z 100144c0 f i Scanner.obj
 0001:00013670       ?GetInterfaceSafetyOptions@?$IObjectSafetyImpl@VCOPOSScanner@@$02@ATL@@UAGJABU_GUID@@PAK1@Z 10014670 f i Scanner.obj
 0001:000137e0       ?GetKeyAt@?$CSimpleMap@PA_WPA_WVCExpansionVectorEqualHelper@ATL@@@ATL@@QBEAAPA_WH@Z 100147e0 f i Scanner.obj
 0001:00013860       ?GetLockCount@CAtlModule@ATL@@UAEJXZ 10014860 f i Scanner.obj
 0001:00013880       ?GetMiscStatus@?$IOleObjectImpl@VCOPOSScanner@@@ATL@@UAGJKPAK@Z 10014880 f i Scanner.obj
 0001:000138f0       ?GetMoniker@?$IOleObjectImpl@VCOPOSScanner@@@ATL@@UAGJKKPAPAUIMoniker@@@Z 100148f0 f i Scanner.obj
 0001:00013960       ?GetNaturalExtent@?$IViewObjectExImpl@VCOPOSScanner@@@ATL@@UAGJKJPAUtagDVTARGETDEVICE@@PAUHDC__@@PAUtagExtentInfo@@PAUtagSIZE@@@Z 10014960 f i Scanner.obj
 0001:00013a80       ?GetObjectCLSID@?$CComCoClass@VCOPOSScanner@@$1?CLSID_OPOSScanner@@3U_GUID@@B@ATL@@SGABU_GUID@@XZ 10014a80 f i Scanner.obj
 0001:00013a90       ?GetPages@?$ISpecifyPropertyPagesImpl@VCOPOSScanner@@@ATL@@UAGJPAUtagCAUUID@@@Z 10014a90 f i Scanner.obj
 0001:00013b00       ?GetPagesHelper@?$ISpecifyPropertyPagesImpl@VCOPOSScanner@@@ATL@@IAEJPAUtagCAUUID@@PBUATL_PROPMAP_ENTRY@2@@Z 10014b00 f i Scanner.obj
 0001:00013d00       ?GetProperty@?$CComPtr@UIDispatch@@@ATL@@QAEJJPAUtagVARIANT@@@Z 10014d00 f i Scanner.obj
 0001:00013d40       ?GetProperty@?$CComPtr@UIDispatch@@@ATL@@SAJPAUIDispatch@@JPAUtagVARIANT@@@Z 10014d40 f i Scanner.obj
 0001:00013ea0       ?GetPropertyMap@COPOSScanner@@SAPBUATL_PROPMAP_ENTRY@ATL@@XZ 10014ea0 f i Scanner.obj
 0001:00013eb0       ?GetRect@?$IViewObjectExImpl@VCOPOSScanner@@@ATL@@UAGJKPAU_RECTL@@@Z 10014eb0 f i Scanner.obj
 0001:00013f20       ?GetSize@?$CSimpleMap@PA_WPA_WVCExpansionVectorEqualHelper@ATL@@@ATL@@QBEHXZ 10014f20 f i Scanner.obj
 0001:00013f40       ?GetSize@CComDynamicUnkArray@ATL@@QBEHXZ 10014f40 f i Scanner.obj
 0001:00013f60       ?GetSizeMax@?$IPersistStreamInitImpl@VCOPOSScanner@@@ATL@@UAGJPAT_ULARGE_INTEGER@@@Z 10014f60 f i Scanner.obj
 0001:000144d0       ?GetSizeMax@CComVariant@ATL@@QBEJPAT_ULARGE_INTEGER@@@Z 100154d0 f i Scanner.obj
 0001:00014830       ?GetStreamSize@CComBSTR@ATL@@SAKPA_W@Z 10015830 f i Scanner.obj
 0001:00014880       ?GetTI@CComTypeInfoHolder@ATL@@QAEJK@Z 10015880 f i Scanner.obj
 0001:00015090       ?GetTI@CComTypeInfoHolder@ATL@@QAEJKPAPAUITypeInfo@@@Z 10016090 f i Scanner.obj
 0001:00015150       ?GetTypeInfo@?$IDispatchImpl@UIOPOSScanner@@$1?IID_IOPOSScanner@@3U_GUID@@B$1?LIBID_OposScanner_CCO@@3U3@B$00$0A@VCComTypeInfoHolder@ATL@@@ATL@@UAGJIKPAPAUITypeInfo@@@Z 10016150 f i Scanner.obj
 0001:00015180       ?GetTypeInfo@CComTypeInfoHolder@ATL@@QAEJIKPAPAUITypeInfo@@@Z 10016180 f i Scanner.obj
 0001:000151c0       ?GetTypeInfoCount@?$IDispatchImpl@UIOPOSScanner@@$1?IID_IOPOSScanner@@3U_GUID@@B$1?LIBID_OposScanner_CCO@@3U3@B$00$0A@VCComTypeInfoHolder@ATL@@@ATL@@UAGJPAI@Z 100161c0 f i Scanner.obj
 0001:000151e0       ?GetUnknown@CComDynamicUnkArray@ATL@@QAGPAUIUnknown@@K@Z 100161e0 f i Scanner.obj
 0001:00015250       ?GetUnknown@COPOSScanner@@QAEPAUIUnknown@@XZ 10016250 f i Scanner.obj
 0001:00015280       ?GetUserClassID@?$IOleObjectImpl@VCOPOSScanner@@@ATL@@UAGJPAU_GUID@@@Z 10016280 f i Scanner.obj
 0001:00015330       ?GetUserType@?$IOleObjectImpl@VCOPOSScanner@@@ATL@@UAGJKPAPA_W@Z 10016330 f i Scanner.obj
 0001:000153a0       ?GetValueAt@?$CSimpleMap@PA_WPA_WVCExpansionVectorEqualHelper@ATL@@@ATL@@QBEAAPA_WH@Z 100163a0 f i Scanner.obj
 0001:00015420       ?GetViewStatus@?$IViewObjectExImpl@VCOPOSScanner@@@ATL@@UAGJPAK@Z 10016420 f i Scanner.obj
 0001:000154e0       ?GetWNDPROC@CWndProcThunk@ATL@@QAEP6GJPAUHWND__@@IIJ@ZXZ 100164e0 f i Scanner.obj
 0001:00015510       ?GetWindow@?$IOleInPlaceActiveObjectImpl@VCOPOSScanner@@@ATL@@UAGJPAPAUHWND__@@@Z 10016510 f i Scanner.obj
 0001:000155e0       ?GetWindow@?$IOleInPlaceObjectWindowlessImpl@VCOPOSScanner@@@ATL@@UAGJPAPAUHWND__@@@Z 100165e0 f i Scanner.obj
 0001:000156b0       ?GetWindowLongPtrW@@YAJPAUHWND__@@H@Z 100166b0 f i Scanner.obj
 0001:000156e0       ?GetWindowProc@?$CWindowImplBaseT@VCWindow@ATL@@V?$CWinTraits@$0FGAAAAAA@$0A@@2@@ATL@@UAEP6GJPAUHWND__@@IIJ@ZXZ 100166e0 f i Scanner.obj
 0001:00015700       ?GetWndCaption@?$CWindowImpl@VCOPOSScanner@@VCWindow@ATL@@V?$CWinTraits@$0FGAAAAAA@$0A@@3@@ATL@@SAPB_WXZ 10016700 f i Scanner.obj
 0001:00015710       ?GetWndClassInfo@?$CWindowImpl@VCOPOSScanner@@VCWindow@ATL@@V?$CWinTraits@$0FGAAAAAA@$0A@@3@@ATL@@SAAAU_ATL_WNDCLASSINFOW@2@XZ 10016710 f i Scanner.obj
 0001:00015720       ?GetWndClassName@CWindow@ATL@@SAPB_WXZ 10016720 f i Scanner.obj
 0001:00015730       ?GetWndExStyle@?$CWinTraits@$0FGAAAAAA@$0A@@ATL@@SAKK@Z 10016730 f i Scanner.obj
 0001:00015760       ?GetWndExStyle@?$CWindowImplBaseT@VCWindow@ATL@@V?$CWinTraits@$0FGAAAAAA@$0A@@2@@ATL@@SAKK@Z 10016760 f i Scanner.obj
 0001:00015780       ?GetWndStyle@?$CWinTraits@$0FGAAAAAA@$0A@@ATL@@SAKK@Z 10016780 f i Scanner.obj
 0001:000157b0       ?GetWndStyle@?$CWindowImplBaseT@VCWindow@ATL@@V?$CWinTraits@$0FGAAAAAA@$0A@@2@@ATL@@SAKK@Z 100167b0 f i Scanner.obj
 0001:000157d0       ?GetZoomInfo@CComControlBase@ATL@@QAEXAAUATL_DRAWINFO@@@Z 100167d0 f i Scanner.obj
 0001:00015940       ?HKeyFromString@CRegParser@ATL@@KAPAUHKEY__@@PA_W@Z 10016940 f i Scanner.obj
 0001:000159b0       ?HandsOffStorage@?$IPersistStorageImpl@VCOPOSScanner@@@ATL@@UAGJXZ 100169b0 f i Scanner.obj
 0001:00015a10       ?HasSubKeys@CRegParser@ATL@@IAEHPAUHKEY__@@@Z 10016a10 f i Scanner.obj
 0001:00015b20       ?IDataObject_GetData@CComControlBase@ATL@@QAEJPAUtagFORMATETC@@PAUtagSTGMEDIUM@@@Z 10016b20 f i Scanner.obj
 0001:00015f40       ?IOleInPlaceObject_InPlaceDeactivate@CComControlBase@ATL@@QAEJXZ 10016f40 f i Scanner.obj
 0001:00016140       ?IOleInPlaceObject_SetObjectRects@CComControlBase@ATL@@QAEJPBUtagRECT@@0@Z 10017140 f i Scanner.obj
 0001:00016300       ?IOleInPlaceObject_UIDeactivate@CComControlBase@ATL@@QAEJXZ 10017300 f i Scanner.obj
 0001:00016570       ?IOleObject_Advise@CComControlBase@ATL@@QAEJPAUIAdviseSink@@PAK@Z 10017570 f i Scanner.obj
 0001:00016620       ?IOleObject_Close@CComControlBase@ATL@@QAEJK@Z 10017620 f i Scanner.obj
 0001:000168d0       ?IOleObject_GetClientSite@CComControlBase@ATL@@QAEJPAPAUIOleClientSite@@@Z 100178d0 f i Scanner.obj
 0001:00016970       ?IOleObject_SetClientSite@CComControlBase@ATL@@QAEJPAUIOleClientSite@@@Z 10017970 f i Scanner.obj
 0001:00016a40       ?IOleObject_SetExtent@CComControlBase@ATL@@QAEJKPAUtagSIZE@@@Z 10017a40 f i Scanner.obj
 0001:00016b80       ?IPSI_GetIPersistStreamInit@?$IPersistStorageImpl@VCOPOSScanner@@@ATL@@AAEPAUIPersistStreamInit@@XZ 10017b80 f i Scanner.obj
 0001:00016c50       ?IPersistStreamInit_Load@?$IPersistStreamInitImpl@VCOPOSScanner@@@ATL@@QAEJPAUIStream@@PBUATL_PROPMAP_ENTRY@2@@Z 10017c50 f i Scanner.obj
 0001:00016cd0       ?IPersistStreamInit_Save@?$IPersistStreamInitImpl@VCOPOSScanner@@@ATL@@QAEJPAUIStream@@HPBUATL_PROPMAP_ENTRY@2@@Z 10017cd0 f i Scanner.obj
 0001:00016d60       ?IQuickActivate_QuickActivate@CComControlBase@ATL@@QAEJPAUtagQACONTAINER@@PAUtagQACONTROL@@@Z 10017d60 f i Scanner.obj
 0001:000173b0       ?IViewObject_Draw@CComControlBase@ATL@@QAEJKJPAXPAUtagDVTARGETDEVICE@@PAUHDC__@@2PBU_RECTL@@3@Z 100183b0 f i Scanner.obj
 0001:00017650       ?InPlaceActivate@CComControlBase@ATL@@QAEJJPBUtagRECT@@@Z 10018650 f i Scanner.obj
 0001:00017fe0       ?InPlaceDeactivate@?$IOleInPlaceObjectWindowlessImpl@VCOPOSScanner@@@ATL@@UAGJXZ 10018fe0 f i Scanner.obj
 0001:00018060       ?Increment@CComMultiThreadModel@ATL@@SGKPAJ@Z 10019060 f i Scanner.obj
 0001:00018080       ?Increment@CComSingleThreadModel@ATL@@SGKPAJ@Z 10019080 f i Scanner.obj
 0001:000180a0       ?Init@?$CComEnumImpl@UIEnumConnectionPoints@@$1?_GUID_b196b285_bab4_101a_b69c_00aa00341d07@@3U__s_GUID@@BPAUIConnectionPoint@@V?$_CopyInterface@UIConnectionPoint@@@ATL@@@ATL@@QAEJPAPAUIConnectionPoint@@0PAUIUnknown@@W4CComEnumFlags@2@@Z 100190a0 f i Scanner.obj
 0001:00018280       ?Init@?$CComEnumImpl@UIEnumConnections@@$1?_GUID_b196b287_bab4_101a_b69c_00aa00341d07@@3U__s_GUID@@BUtagCONNECTDATA@@V?$_Copy@UtagCONNECTDATA@@@ATL@@@ATL@@QAEJPAUtagCONNECTDATA@@0PAUIUnknown@@W4CComEnumFlags@2@@Z 10019280 f i Scanner.obj
 0001:00018460       ?Init@CComFakeCriticalSection@ATL@@QAEJXZ 10019460 f i Scanner.obj
 0001:00018480       ?Init@CComModule@ATL@@QAEJPAU_ATL_OBJMAP_ENTRY30@2@PAUHINSTANCE__@@PBU_GUID@@@Z 10019480 f i Scanner.obj
 0001:00018570       ?Init@CComSafeDeleteCriticalSection@ATL@@QAEJXZ 10019570 f i Scanner.obj
 0001:000185f0       ?Init@CDynamicStdCallThunk2@ATL@@QAEHKPAX@Z 100195f0 f i Scanner.obj
 0001:00018650       ?Init@CWndProcThunk@ATL@@QAEHP6GJPAUHWND__@@IIJ@ZPAX@Z 10019650 f i Scanner.obj
 0001:00018690       ?InitFromData@?$IOleObjectImpl@VCOPOSScanner@@@ATL@@UAGJPAUIDataObject@@HK@Z 10019690 f i Scanner.obj
 0001:00018700       ?InitLibId@?$CAtlModuleT@VCComModule@ATL@@@ATL@@SAXXZ 10019700 f i Scanner.obj
 0001:00018710       ?InitNew@?$IPersistStorageImpl@VCOPOSScanner@@@ATL@@UAGJPAUIStorage@@@Z 10019710 f i Scanner.obj
 0001:00018800       ?InitNew@?$IPersistStreamInitImpl@VCOPOSScanner@@@ATL@@UAGJXZ 10019800 f i Scanner.obj
 0001:00018890       ?InlineIsEqualUnknown@ATL@@YGHABU_GUID@@@Z 10019890 f i Scanner.obj
 0001:00018900       ?InternalAddRef@?$CComObjectRootEx@VCComMultiThreadModel@ATL@@@ATL@@QAEKXZ 10019900 f i Scanner.obj
 0001:00018960       ?InternalAddRef@?$CComObjectRootEx@VCComSingleThreadModel@ATL@@@ATL@@QAEKXZ 10019960 f i Scanner.obj
 0001:000189c0       ?InternalFinalConstructAddRef@CComObjectRootBase@ATL@@QAEXXZ 100199c0 f i Scanner.obj
 0001:000189e0       ?InternalFinalConstructAddRef@COPOSScanner@@QAEXXZ 100199e0 f i Scanner.obj
 0001:00018a10       ?InternalFinalConstructRelease@CComObjectRootBase@ATL@@QAEXXZ 10019a10 f i Scanner.obj
 0001:00018a60       ?InternalFinalConstructRelease@COPOSScanner@@QAEXXZ 10019a60 f i Scanner.obj
 0001:00018a90       ?InternalGetSite@CComControlBase@ATL@@QAEJABU_GUID@@PAPAX@Z 10019a90 f i Scanner.obj
 0001:00018b50       ?InternalQueryInterface@CComObjectRootBase@ATL@@SGJPAXPBU_ATL_INTMAP_ENTRY@2@ABU_GUID@@PAPAX@Z 10019b50 f i Scanner.obj
 0001:00018c10       ?InternalRelease@?$CComObjectRootEx@VCComMultiThreadModel@ATL@@@ATL@@QAEKXZ 10019c10 f i Scanner.obj
 0001:00018c80       ?InternalRelease@?$CComObjectRootEx@VCComSingleThreadModel@ATL@@@ATL@@QAEKXZ 10019c80 f i Scanner.obj
 0001:00018cf0       ?InternalSetAtIndex@?$CSimpleArray@GV?$CSimpleArrayEqualHelper@G@ATL@@@ATL@@QAEXHABG@Z 10019cf0 f i Scanner.obj
 0001:00018d60       ?InternalSetAtIndex@?$CSimpleMap@PA_WPA_WVCExpansionVectorEqualHelper@ATL@@@ATL@@QAEXHABQA_W0@Z 10019d60 f i Scanner.obj
 0001:00018e00       ?Invoke@?$IDispatchImpl@UIOPOSScanner@@$1?IID_IOPOSScanner@@3U_GUID@@B$1?LIBID_OposScanner_CCO@@3U3@B$00$0A@VCComTypeInfoHolder@ATL@@@ATL@@UAGJJABU_GUID@@KGPAUtagDISPPARAMS@@PAUtagVARIANT@@PAUtagEXCEPINFO@@PAI@Z 10019e00 f i Scanner.obj
 0001:00018e40       ?Invoke@CComTypeInfoHolder@ATL@@QAEJPAUIDispatch@@JABU_GUID@@KGPAUtagDISPPARAMS@@PAUtagVARIANT@@PAUtagEXCEPINFO@@PAI@Z 10019e40 f i Scanner.obj
 0001:00018ed0       ?IsDirty@?$IPersistStorageImpl@VCOPOSScanner@@@ATL@@UAGJXZ 10019ed0 f i Scanner.obj
 0001:00018fc0       ?IsDirty@?$IPersistStreamInitImpl@VCOPOSScanner@@@ATL@@UAGJXZ 10019fc0 f i Scanner.obj
 0001:00019060       ?IsEqualKey@CExpansionVectorEqualHelper@ATL@@SA_NQA_W0@Z 1001a060 f i Scanner.obj
 0001:00019090       ?IsEqualObject@?$CComPtrBase@UIOleClientSite@@@ATL@@QAE_NPAUIUnknown@@@Z 1001a090 f i Scanner.obj
 0001:000191c0       ?IsEqualObject@?$CComPtrBase@UITypeInfo@@@ATL@@QAE_NPAUIUnknown@@@Z 1001a1c0 f i Scanner.obj
 0001:000192f0       ?IsSpace@CRegParser@ATL@@IAEH_W@Z 1001a2f0 f i Scanner.obj
 0001:00019360       ?IsUpToDate@?$IOleObjectImpl@VCOPOSScanner@@@ATL@@UAGJXZ 1001a360 f i Scanner.obj
 0001:000193c0       ?Length@CComBSTR@ATL@@QBEIXZ 1001a3c0 f i Scanner.obj
 0001:00019400       ?Load@?$IPersistStorageImpl@VCOPOSScanner@@@ATL@@UAGJPAUIStorage@@@Z 1001a400 f i Scanner.obj
 0001:00019560       ?Load@?$IPersistStreamInitImpl@VCOPOSScanner@@@ATL@@UAGJPAUIStream@@@Z 1001a560 f i Scanner.obj
 0001:000195f0       ?LoadCursorW@AtlModuleRegisterWndClassInfoParamW@ATL@@SAPAUHICON__@@PAUHINSTANCE__@@PB_W@Z 1001a5f0 f i Scanner.obj
 0001:00019620       ?LoadNameCache@CComTypeInfoHolder@ATL@@QAEJPAUITypeInfo@@@Z 1001a620 f i Scanner.obj
 0001:000198b0       ?Lock@?$CComCritSecLock@VCComCriticalSection@ATL@@@ATL@@QAEJXZ 1001a8b0 f i Scanner.obj
 0001:00019960       ?Lock@?$CComObjectRootEx@VCComSingleThreadModel@ATL@@@ATL@@QAEXXZ 1001a960 f i Scanner.obj
 0001:00019980       ?Lock@CAtlModule@ATL@@UAEJXZ 1001a980 f i Scanner.obj
 0001:000199b0       ?Lock@CComCriticalSection@ATL@@QAEJXZ 1001a9b0 f i Scanner.obj
 0001:000199f0       ?Lock@CComFakeCriticalSection@ATL@@QAEJXZ 1001a9f0 f i Scanner.obj
 0001:00019a10       ?LockServer@CComClassFactory@ATL@@UAGJH@Z 1001aa10 f i Scanner.obj
 0001:00019a70       ?Lookup@?$CSimpleMap@PA_WPA_WVCExpansionVectorEqualHelper@ATL@@@ATL@@QBEPA_WABQA_W@Z 1001aa70 f i Scanner.obj
 0001:00019ac0       ?Next@?$CComEnumImpl@UIEnumConnectionPoints@@$1?_GUID_b196b285_bab4_101a_b69c_00aa00341d07@@3U__s_GUID@@BPAUIConnectionPoint@@V?$_CopyInterface@UIConnectionPoint@@@ATL@@@ATL@@UAGJKPAPAUIConnectionPoint@@PAK@Z 1001aac0 f i Scanner.obj
 0001:00019c30       ?Next@?$CComEnumImpl@UIEnumConnections@@$1?_GUID_b196b287_bab4_101a_b69c_00aa00341d07@@3U__s_GUID@@BUtagCONNECTDATA@@V?$_Copy@UtagCONNECTDATA@@@ATL@@@ATL@@UAGJKPAUtagCONNECTDATA@@PAK@Z 1001ac30 f i Scanner.obj
 0001:00019da0       ?NextToken@CRegParser@ATL@@IAEJPA_W@Z 1001ada0 f i Scanner.obj
 0001:0001a040       ?OLE2CT_EX@@YAPB_WPB_WI@Z  1001b040 f i Scanner.obj
 0001:0001a050       ?OLE2CT_EX_DEF@@YAPB_WPB_W@Z 1001b050 f i Scanner.obj
 0001:0001a060       ?OLE2T_EX@@YAPA_WPA_WI@Z   1001b060 f i Scanner.obj
 0001:0001a070       ?OnAmbientPropertyChange@?$IOleControlImpl@VCOPOSScanner@@@ATL@@UAGJJ@Z 1001b070 f i Scanner.obj
 0001:0001a100       ?OnDocWindowActivate@?$IOleInPlaceActiveObjectImpl@VCOPOSScanner@@@ATL@@UAGJH@Z 1001b100 f i Scanner.obj
 0001:0001a190       ?OnDrawAdvanced@CComControlBase@ATL@@UAEJAAUATL_DRAWINFO@@@Z 1001b190 f i Scanner.obj
 0001:0001a3b0       ?OnFinalMessage@?$CWindowImplBaseT@VCWindow@ATL@@V?$CWinTraits@$0FGAAAAAA@$0A@@2@@ATL@@UAEXPAUHWND__@@@Z 1001b3b0 f i Scanner.obj
 0001:0001a3d0       ?OnFrameWindowActivate@?$IOleInPlaceActiveObjectImpl@VCOPOSScanner@@@ATL@@UAGJH@Z 1001b3d0 f i Scanner.obj
 0001:0001a430       ?OnKillFocus@CComControlBase@ATL@@QAEJIIJAAH@Z 1001b430 f i Scanner.obj
 0001:0001a530       ?OnMnemonic@?$IOleControlImpl@VCOPOSScanner@@@ATL@@UAGJPAUtagMSG@@@Z 1001b530 f i Scanner.obj
 0001:0001a5a0       ?OnMouseActivate@CComControlBase@ATL@@QAEJIIJAAH@Z 1001b5a0 f i Scanner.obj
 0001:0001a6f0       ?OnPaint@CComControlBase@ATL@@QAEJIIJAAH@Z 1001b6f0 f i Scanner.obj
 0001:0001a870       ?OnPostVerbDiscardUndo@?$IOleObjectImpl@VCOPOSScanner@@@ATL@@QAEJXZ 1001b870 f i Scanner.obj
 0001:0001a890       ?OnPostVerbHide@?$IOleObjectImpl@VCOPOSScanner@@@ATL@@QAEJXZ 1001b890 f i Scanner.obj
 0001:0001a8b0       ?OnPostVerbInPlaceActivate@?$IOleObjectImpl@VCOPOSScanner@@@ATL@@QAEJXZ 1001b8b0 f i Scanner.obj
 0001:0001a8d0       ?OnPostVerbOpen@?$IOleObjectImpl@VCOPOSScanner@@@ATL@@QAEJXZ 1001b8d0 f i Scanner.obj
 0001:0001a8f0       ?OnPostVerbShow@?$IOleObjectImpl@VCOPOSScanner@@@ATL@@QAEJXZ 1001b8f0 f i Scanner.obj
 0001:0001a910       ?OnPostVerbUIActivate@?$IOleObjectImpl@VCOPOSScanner@@@ATL@@QAEJXZ 1001b910 f i Scanner.obj
 0001:0001a930       ?OnPreVerbDiscardUndo@?$IOleObjectImpl@VCOPOSScanner@@@ATL@@QAEJXZ 1001b930 f i Scanner.obj
 0001:0001a950       ?OnPreVerbHide@?$IOleObjectImpl@VCOPOSScanner@@@ATL@@QAEJXZ 1001b950 f i Scanner.obj
 0001:0001a970       ?OnPreVerbInPlaceActivate@?$IOleObjectImpl@VCOPOSScanner@@@ATL@@QAEJXZ 1001b970 f i Scanner.obj
 0001:0001a990       ?OnPreVerbOpen@?$IOleObjectImpl@VCOPOSScanner@@@ATL@@QAEJXZ 1001b990 f i Scanner.obj
 0001:0001a9b0       ?OnPreVerbShow@?$IOleObjectImpl@VCOPOSScanner@@@ATL@@QAEJXZ 1001b9b0 f i Scanner.obj
 0001:0001a9d0       ?OnPreVerbUIActivate@?$IOleObjectImpl@VCOPOSScanner@@@ATL@@QAEJXZ 1001b9d0 f i Scanner.obj
 0001:0001a9f0       ?OnSetFocus@CComControlBase@ATL@@QAEJIIJAAH@Z 1001b9f0 f i Scanner.obj
 0001:0001ab80       ?OnWindowMessage@?$IOleInPlaceObjectWindowlessImpl@VCOPOSScanner@@@ATL@@UAGJIIJPAJ@Z 1001bb80 f i Scanner.obj
 0001:0001ace0       ?Open@CRegKey@ATL@@QAEJPAUHKEY__@@PB_WK@Z 1001bce0 f i Scanner.obj
 0001:0001ae30       ?OuterAddRef@CComObjectRootBase@ATL@@QAEKXZ 1001be30 f i Scanner.obj
 0001:0001ae70       ?OuterQueryInterface@CComObjectRootBase@ATL@@QAEJABU_GUID@@PAPAX@Z 1001be70 f i Scanner.obj
 0001:0001aec0       ?OuterRelease@CComObjectRootBase@ATL@@QAEKXZ 1001bec0 f i Scanner.obj
 0001:0001af00       ?PreProcessBuffer@CRegParser@ATL@@QAEJPA_WPAPA_W@Z 1001bf00 f i Scanner.obj
 0001:0001b440       ?PreTranslateAccelerator@CComControlBase@ATL@@QAEHPAUtagMSG@@AAJ@Z 1001c440 f i Scanner.obj
 0001:0001b460       ?ProcessWindowMessage@?$CComControl@VCOPOSScanner@@V?$CWindowImpl@VCOPOSScanner@@VCWindow@ATL@@V?$CWinTraits@$0FGAAAAAA@$0A@@3@@ATL@@@ATL@@UAEHPAUHWND__@@IIJAAJK@Z 1001c460 f i Scanner.obj
 0001:0001b630       ?ProcessWindowMessage@COPOSScanner@@UAEHPAUHWND__@@IIJAAJK@Z 1001c630 f i Scanner.obj
 0001:0001b730       ?PutProperty@?$CComPtr@UIDispatch@@@ATL@@QAEJJPAUtagVARIANT@@@Z 1001c730 f i Scanner.obj
 0001:0001b770       ?PutProperty@?$CComPtr@UIDispatch@@@ATL@@SAJPAUIDispatch@@JPAUtagVARIANT@@@Z 1001c770 f i Scanner.obj
 0001:0001b960       ?QueryGetData@?$IDataObjectImpl@VCOPOSScanner@@@ATL@@UAGJPAUtagFORMATETC@@@Z 1001c960 f i Scanner.obj
 0001:0001b9d0       ?QueryHitPoint@?$IViewObjectExImpl@VCOPOSScanner@@@ATL@@UAGJKPBUtagRECT@@UtagPOINT@@JPAK@Z 1001c9d0 f i Scanner.obj
 0001:0001bae0       ?QueryHitRect@?$IViewObjectExImpl@VCOPOSScanner@@@ATL@@UAGJKPBUtagRECT@@0JPAK@Z 1001cae0 f i Scanner.obj
 0001:0001bc30       ?QueryInterface@?$CComAggObject@VCOPOSScanner@@@ATL@@UAGJABU_GUID@@PAPAX@Z 1001cc30 f i Scanner.obj
 0001:0001bce0       ?QueryInterface@?$CComContainedObject@VCOPOSScanner@@@ATL@@UAGJABU_GUID@@PAPAX@Z 1001cce0 f i Scanner.obj
 0001:0001bd04       ?QueryInterface@?$CComContainedObject@VCOPOSScanner@@@ATL@@WHA@AGJABU_GUID@@PAPAX@Z 1001cd04 f i Scanner.obj
 0001:0001bd0e       ?QueryInterface@?$CComContainedObject@VCOPOSScanner@@@ATL@@WHE@AGJABU_GUID@@PAPAX@Z 1001cd0e f i Scanner.obj
 0001:0001bd18       ?QueryInterface@?$CComContainedObject@VCOPOSScanner@@@ATL@@WHI@AGJABU_GUID@@PAPAX@Z 1001cd18 f i Scanner.obj
 0001:0001bd22       ?QueryInterface@?$CComContainedObject@VCOPOSScanner@@@ATL@@WHM@AGJABU_GUID@@PAPAX@Z 1001cd22 f i Scanner.obj
 0001:0001bd2c       ?QueryInterface@?$CComContainedObject@VCOPOSScanner@@@ATL@@WIA@AGJABU_GUID@@PAPAX@Z 1001cd2c f i Scanner.obj
 0001:0001bd39       ?QueryInterface@?$CComContainedObject@VCOPOSScanner@@@ATL@@WIE@AGJABU_GUID@@PAPAX@Z 1001cd39 f i Scanner.obj
 0001:0001bd46       ?QueryInterface@?$CComContainedObject@VCOPOSScanner@@@ATL@@WII@AGJABU_GUID@@PAPAX@Z 1001cd46 f i Scanner.obj
 0001:0001bd53       ?QueryInterface@?$CComContainedObject@VCOPOSScanner@@@ATL@@WIM@AGJABU_GUID@@PAPAX@Z 1001cd53 f i Scanner.obj
 0001:0001bd60       ?QueryInterface@?$CComContainedObject@VCOPOSScanner@@@ATL@@WJA@AGJABU_GUID@@PAPAX@Z 1001cd60 f i Scanner.obj
 0001:0001bd6d       ?QueryInterface@?$CComContainedObject@VCOPOSScanner@@@ATL@@WJE@AGJABU_GUID@@PAPAX@Z 1001cd6d f i Scanner.obj
 0001:0001bd7a       ?QueryInterface@?$CComContainedObject@VCOPOSScanner@@@ATL@@WJI@AGJABU_GUID@@PAPAX@Z 1001cd7a f i Scanner.obj
 0001:0001bd87       ?QueryInterface@?$CComContainedObject@VCOPOSScanner@@@ATL@@WJM@AGJABU_GUID@@PAPAX@Z 1001cd87 f i Scanner.obj
 0001:0001bd94       ?QueryInterface@?$CComContainedObject@VCOPOSScanner@@@ATL@@WKA@AGJABU_GUID@@PAPAX@Z 1001cd94 f i Scanner.obj
 0001:0001bdb0       ?QueryInterface@?$CComObject@V?$CComEnum@UIEnumConnectionPoints@@$1?_GUID_b196b285_bab4_101a_b69c_00aa00341d07@@3U__s_GUID@@BPAUIConnectionPoint@@V?$_CopyInterface@UIConnectionPoint@@@ATL@@VCComSingleThreadModel@6@@ATL@@@ATL@@UAGJABU_GUID@@PAPAX@Z 1001cdb0 f i Scanner.obj
 0001:0001bdd0       ?QueryInterface@?$CComObject@V?$CComEnum@UIEnumConnections@@$1?_GUID_b196b287_bab4_101a_b69c_00aa00341d07@@3U__s_GUID@@BUtagCONNECTDATA@@V?$_Copy@UtagCONNECTDATA@@@ATL@@VCComSingleThreadModel@6@@ATL@@@ATL@@UAGJABU_GUID@@PAPAX@Z 1001cdd0 f i Scanner.obj
 0001:0001bdf0       ?QueryInterface@?$CComObject@VCOPOSScanner@@@ATL@@UAGJABU_GUID@@PAPAX@Z 1001cdf0 f i Scanner.obj
 0001:0001be0e       ?QueryInterface@?$CComObject@VCOPOSScanner@@@ATL@@WHA@AGJABU_GUID@@PAPAX@Z 1001ce0e f i Scanner.obj
 0001:0001be18       ?QueryInterface@?$CComObject@VCOPOSScanner@@@ATL@@WHE@AGJABU_GUID@@PAPAX@Z 1001ce18 f i Scanner.obj
 0001:0001be22       ?QueryInterface@?$CComObject@VCOPOSScanner@@@ATL@@WHI@AGJABU_GUID@@PAPAX@Z 1001ce22 f i Scanner.obj
 0001:0001be2c       ?QueryInterface@?$CComObject@VCOPOSScanner@@@ATL@@WHM@AGJABU_GUID@@PAPAX@Z 1001ce2c f i Scanner.obj
 0001:0001be36       ?QueryInterface@?$CComObject@VCOPOSScanner@@@ATL@@WIA@AGJABU_GUID@@PAPAX@Z 1001ce36 f i Scanner.obj
 0001:0001be43       ?QueryInterface@?$CComObject@VCOPOSScanner@@@ATL@@WIE@AGJABU_GUID@@PAPAX@Z 1001ce43 f i Scanner.obj
 0001:0001be50       ?QueryInterface@?$CComObject@VCOPOSScanner@@@ATL@@WII@AGJABU_GUID@@PAPAX@Z 1001ce50 f i Scanner.obj
 0001:0001be5d       ?QueryInterface@?$CComObject@VCOPOSScanner@@@ATL@@WIM@AGJABU_GUID@@PAPAX@Z 1001ce5d f i Scanner.obj
 0001:0001be6a       ?QueryInterface@?$CComObject@VCOPOSScanner@@@ATL@@WJA@AGJABU_GUID@@PAPAX@Z 1001ce6a f i Scanner.obj
 0001:0001be77       ?QueryInterface@?$CComObject@VCOPOSScanner@@@ATL@@WJE@AGJABU_GUID@@PAPAX@Z 1001ce77 f i Scanner.obj
 0001:0001be84       ?QueryInterface@?$CComObject@VCOPOSScanner@@@ATL@@WJI@AGJABU_GUID@@PAPAX@Z 1001ce84 f i Scanner.obj
 0001:0001be91       ?QueryInterface@?$CComObject@VCOPOSScanner@@@ATL@@WJM@AGJABU_GUID@@PAPAX@Z 1001ce91 f i Scanner.obj
 0001:0001be9e       ?QueryInterface@?$CComObject@VCOPOSScanner@@@ATL@@WKA@AGJABU_GUID@@PAPAX@Z 1001ce9e f i Scanner.obj
 0001:0001beb0       ?QueryInterface@?$CComObjectCached@VCComClassFactory@ATL@@@ATL@@UAGJABU_GUID@@PAPAX@Z 1001ceb0 f i Scanner.obj
 0001:0001bed0       ?QueryInterface@CRegObject@ATL@@UAGJABU_GUID@@PAPAX@Z 1001ced0 f i Scanner.obj
 0001:0001bf20       ?QuickActivate@?$IQuickActivateImpl@VCOPOSScanner@@@ATL@@UAGJPAUtagQACONTAINER@@PAUtagQACONTROL@@@Z 1001cf20 f i Scanner.obj
 0001:0001bfb0       ?ReactivateAndUndo@?$IOleInPlaceObjectWindowlessImpl@VCOPOSScanner@@@ATL@@UAGJXZ 1001cfb0 f i Scanner.obj
 0001:0001c020       ?ReadFromStream@CComBSTR@ATL@@QAEJPAUIStream@@@Z 1001d020 f i Scanner.obj
 0001:0001c420       ?ReadFromStream@CComVariant@ATL@@QAEJPAUIStream@@GTClassesAllowedInStream@2@K@Z 1001d420 f i Scanner.obj
 0001:0001c780       ?RecurseDeleteKey@CRegKey@ATL@@QAEJPB_W@Z 1001d780 f i Scanner.obj
 0001:0001c960       ?RegCreateKeyExW@CAtlTransactionManager@ATL@@QAEJPAUHKEY__@@PB_WKPA_WKKQAU_SECURITY_ATTRIBUTES@@PAPAU3@PAK@Z 1001d960 f i Scanner.obj
 0001:0001ca90       ?RegDeleteKeyW@CAtlTransactionManager@ATL@@QAEJPAUHKEY__@@PB_W@Z 1001da90 f i Scanner.obj
 0001:0001cb90       ?RegOpenKeyExW@CAtlTransactionManager@ATL@@QAEJPAUHKEY__@@PB_WKKPAPAU3@@Z 1001db90 f i Scanner.obj
 0001:0001cca0       ?Register@_ATL_WNDCLASSINFOW@ATL@@QAEGPAP6GJPAUHWND__@@IIJ@Z@Z 1001dca0 f i Scanner.obj
 0001:0001cce0       ?RegisterBuffer@CRegParser@ATL@@QAEJPA_WH@Z 1001dce0 f i Scanner.obj
 0001:0001d010       ?RegisterClassExW@AtlModuleRegisterWndClassInfoParamW@ATL@@SAGPAU_ATL_WIN_MODULE70@2@PBUtagWNDCLASSEXW@@@Z 1001e010 f i Scanner.obj
 0001:0001d030       ?RegisterFromResource@CRegObject@ATL@@IAEJPB_W00H@Z 1001e030 f i Scanner.obj
 0001:0001d3c0       ?RegisterServer@?$CAtlModuleT@VCComModule@ATL@@@ATL@@QAEJHPBU_GUID@@@Z 1001e3c0 f i Scanner.obj
 0001:0001d440       ?RegisterServer@CAtlComModule@ATL@@QAEJHPBU_GUID@@@Z 1001e440 f i Scanner.obj
 0001:0001d470       ?RegisterServer@CComModule@ATL@@QAEJHPBU_GUID@@@Z 1001e470 f i Scanner.obj
 0001:0001d550       ?RegisterSubkeys@CRegParser@ATL@@IAEJPA_WPAUHKEY__@@HH@Z 1001e550 f i Scanner.obj
 0001:0001e070       ?Release@?$CComAggObject@VCOPOSScanner@@@ATL@@UAGKXZ 1001f070 f i Scanner.obj
 0001:0001e130       ?Release@?$CComContainedObject@VCOPOSScanner@@@ATL@@UAGKXZ 1001f130 f i Scanner.obj
 0001:0001e14c       ?Release@?$CComContainedObject@VCOPOSScanner@@@ATL@@WHA@AGKXZ 1001f14c f i Scanner.obj
 0001:0001e156       ?Release@?$CComContainedObject@VCOPOSScanner@@@ATL@@WHE@AGKXZ 1001f156 f i Scanner.obj
 0001:0001e160       ?Release@?$CComContainedObject@VCOPOSScanner@@@ATL@@WHI@AGKXZ 1001f160 f i Scanner.obj
 0001:0001e16a       ?Release@?$CComContainedObject@VCOPOSScanner@@@ATL@@WHM@AGKXZ 1001f16a f i Scanner.obj
 0001:0001e174       ?Release@?$CComContainedObject@VCOPOSScanner@@@ATL@@WIA@AGKXZ 1001f174 f i Scanner.obj
 0001:0001e181       ?Release@?$CComContainedObject@VCOPOSScanner@@@ATL@@WIE@AGKXZ 1001f181 f i Scanner.obj
 0001:0001e18e       ?Release@?$CComContainedObject@VCOPOSScanner@@@ATL@@WII@AGKXZ 1001f18e f i Scanner.obj
 0001:0001e19b       ?Release@?$CComContainedObject@VCOPOSScanner@@@ATL@@WIM@AGKXZ 1001f19b f i Scanner.obj
 0001:0001e1a8       ?Release@?$CComContainedObject@VCOPOSScanner@@@ATL@@WJA@AGKXZ 1001f1a8 f i Scanner.obj
 0001:0001e1b5       ?Release@?$CComContainedObject@VCOPOSScanner@@@ATL@@WJE@AGKXZ 1001f1b5 f i Scanner.obj
 0001:0001e1c2       ?Release@?$CComContainedObject@VCOPOSScanner@@@ATL@@WJI@AGKXZ 1001f1c2 f i Scanner.obj
 0001:0001e1cf       ?Release@?$CComContainedObject@VCOPOSScanner@@@ATL@@WJM@AGKXZ 1001f1cf f i Scanner.obj
 0001:0001e1dc       ?Release@?$CComContainedObject@VCOPOSScanner@@@ATL@@WKA@AGKXZ 1001f1dc f i Scanner.obj
 0001:0001e1e9       ?Release@?$CComContainedObject@VCOPOSScanner@@@ATL@@WKI@AGKXZ 1001f1e9 f i Scanner.obj
 0001:0001e1f6       ?Release@?$CComContainedObject@VCOPOSScanner@@@ATL@@WLE@AGKXZ 1001f1f6 f i Scanner.obj
 0001:0001e210       ?Release@?$CComObject@V?$CComEnum@UIEnumConnectionPoints@@$1?_GUID_b196b285_bab4_101a_b69c_00aa00341d07@@3U__s_GUID@@BPAUIConnectionPoint@@V?$_CopyInterface@UIConnectionPoint@@@ATL@@VCComSingleThreadModel@6@@ATL@@@ATL@@UAGKXZ 1001f210 f i Scanner.obj
 0001:0001e2d0       ?Release@?$CComObject@V?$CComEnum@UIEnumConnections@@$1?_GUID_b196b287_bab4_101a_b69c_00aa00341d07@@3U__s_GUID@@BUtagCONNECTDATA@@V?$_Copy@UtagCONNECTDATA@@@ATL@@VCComSingleThreadModel@6@@ATL@@@ATL@@UAGKXZ 1001f2d0 f i Scanner.obj
 0001:0001e390       ?Release@?$CComObject@VCOPOSScanner@@@ATL@@UAGKXZ 1001f390 f i Scanner.obj
 0001:0001e449       ?Release@?$CComObject@VCOPOSScanner@@@ATL@@WHA@AGKXZ 1001f449 f i Scanner.obj
 0001:0001e453       ?Release@?$CComObject@VCOPOSScanner@@@ATL@@WHE@AGKXZ 1001f453 f i Scanner.obj
 0001:0001e45d       ?Release@?$CComObject@VCOPOSScanner@@@ATL@@WHI@AGKXZ 1001f45d f i Scanner.obj
 0001:0001e467       ?Release@?$CComObject@VCOPOSScanner@@@ATL@@WHM@AGKXZ 1001f467 f i Scanner.obj
 0001:0001e471       ?Release@?$CComObject@VCOPOSScanner@@@ATL@@WIA@AGKXZ 1001f471 f i Scanner.obj
 0001:0001e47e       ?Release@?$CComObject@VCOPOSScanner@@@ATL@@WIE@AGKXZ 1001f47e f i Scanner.obj
 0001:0001e48b       ?Release@?$CComObject@VCOPOSScanner@@@ATL@@WII@AGKXZ 1001f48b f i Scanner.obj
 0001:0001e498       ?Release@?$CComObject@VCOPOSScanner@@@ATL@@WIM@AGKXZ 1001f498 f i Scanner.obj
 0001:0001e4a5       ?Release@?$CComObject@VCOPOSScanner@@@ATL@@WJA@AGKXZ 1001f4a5 f i Scanner.obj
 0001:0001e4b2       ?Release@?$CComObject@VCOPOSScanner@@@ATL@@WJE@AGKXZ 1001f4b2 f i Scanner.obj
 0001:0001e4bf       ?Release@?$CComObject@VCOPOSScanner@@@ATL@@WJI@AGKXZ 1001f4bf f i Scanner.obj
 0001:0001e4cc       ?Release@?$CComObject@VCOPOSScanner@@@ATL@@WJM@AGKXZ 1001f4cc f i Scanner.obj
 0001:0001e4d9       ?Release@?$CComObject@VCOPOSScanner@@@ATL@@WKA@AGKXZ 1001f4d9 f i Scanner.obj
 0001:0001e4e6       ?Release@?$CComObject@VCOPOSScanner@@@ATL@@WKI@AGKXZ 1001f4e6 f i Scanner.obj
 0001:0001e4f3       ?Release@?$CComObject@VCOPOSScanner@@@ATL@@WLE@AGKXZ 1001f4f3 f i Scanner.obj
 0001:0001e500       ?Release@?$CComObjectCached@VCComClassFactory@ATL@@@ATL@@UAGKXZ 1001f500 f i Scanner.obj
 0001:0001e5a0       ?Release@?$CComPtrBase@UIAdviseSink@@@ATL@@QAEXXZ 1001f5a0 f i Scanner.obj
 0001:0001e600       ?Release@?$CComPtrBase@UIDispatch@@@ATL@@QAEXXZ 1001f600 f i Scanner.obj
 0001:0001e660       ?Release@?$CComPtrBase@UIOleInPlaceSiteWindowless@@@ATL@@QAEXXZ 1001f660 f i Scanner.obj
 0001:0001e6c0       ?Release@CRegObject@ATL@@UAGKXZ 1001f6c0 f i Scanner.obj
 0001:0001e700       ?Remove@CComDynamicUnkArray@ATL@@QAEHK@Z 1001f700 f i Scanner.obj
 0001:0001e7b0       ?RemoveAll@?$CSimpleMap@PA_WPA_WVCExpansionVectorEqualHelper@ATL@@@ATL@@QAEXXZ 1001f7b0 f i Scanner.obj
 0001:0001e840       ?Reset@?$CComEnumImpl@UIEnumConnectionPoints@@$1?_GUID_b196b285_bab4_101a_b69c_00aa00341d07@@3U__s_GUID@@BPAUIConnectionPoint@@V?$_CopyInterface@UIConnectionPoint@@@ATL@@@ATL@@UAGJXZ 1001f840 f i Scanner.obj
 0001:0001e860       ?Reset@?$CComEnumImpl@UIEnumConnections@@$1?_GUID_b196b287_bab4_101a_b69c_00aa00341d07@@3U__s_GUID@@BUtagCONNECTDATA@@V?$_Copy@UtagCONNECTDATA@@@ATL@@@ATL@@UAGJXZ 1001f860 f i Scanner.obj
 0001:0001e880       ?ResizeBorder@?$IOleInPlaceActiveObjectImpl@VCOPOSScanner@@@ATL@@UAGJPBUtagRECT@@PAUIOleInPlaceUIWindow@@H@Z 1001f880 f i Scanner.obj
 0001:0001e8e0       ?ResourceRegister@CRegObject@ATL@@QAGJPB_WI0@Z 1001f8e0 f i Scanner.obj
 0001:0001e9c0       ?ResourceRegisterSz@CRegObject@ATL@@QAGJPB_W00@Z 1001f9c0 f i Scanner.obj
 0001:0001eac0       ?ResourceUnregister@CRegObject@ATL@@QAGJPB_WI0@Z 1001fac0 f i Scanner.obj
 0001:0001eba0       ?ResourceUnregisterSz@CRegObject@ATL@@QAGJPB_W00@Z 1001fba0 f i Scanner.obj
 0001:0001eca0       ?SOData@COPOSScanner@@MAGJJ@Z 1001fca0 f i Scanner.obj
 0001:0001ed20       ?SODirectIO@COPOSScanner@@MAGJJPAJPAPA_W@Z 1001fd20 f i Scanner.obj
 0001:0001eee0       ?SOError@COPOSScanner@@MAGJJJJPAJ@Z 1001fee0 f i Scanner.obj
 0001:0001efa0       ?SOOutputCompleteDummy@COPOSScanner@@MAGJJ@Z 1001ffa0 f i Scanner.obj
 0001:0001efb0       ?SOStatusUpdate@COPOSScanner@@MAGJJ@Z 1001ffb0 f i Scanner.obj
 0001:0001f030       ?Save@?$IPersistStorageImpl@VCOPOSScanner@@@ATL@@UAGJPAUIStorage@@H@Z 10020030 f i Scanner.obj
 0001:0001f190       ?Save@?$IPersistStreamInitImpl@VCOPOSScanner@@@ATL@@UAGJPAUIStream@@H@Z 10020190 f i Scanner.obj
 0001:0001f220       ?SaveCompleted@?$IPersistStorageImpl@VCOPOSScanner@@@ATL@@UAGJPAUIStorage@@@Z 10020220 f i Scanner.obj
 0001:0001f280       ?SendOnDataChange@CComControlBase@ATL@@QAEJK@Z 10020280 f i Scanner.obj
 0001:0001f370       ?SendOnSave@CComControlBase@ATL@@QAEJXZ 10020370 f i Scanner.obj
 0001:0001f3e0       ?SendOnViewChange@CComControlBase@ATL@@QAEJKJ@Z 100203e0 f i Scanner.obj
 0001:0001f450       ?SetAdvise@?$IViewObjectExImpl@VCOPOSScanner@@@ATL@@UAGJKKPAUIAdviseSink@@@Z 10020450 f i Scanner.obj
 0001:0001f4e0       ?SetClientSite@?$IOleObjectImpl@VCOPOSScanner@@@ATL@@UAGJPAUIOleClientSite@@@Z 100204e0 f i Scanner.obj
 0001:0001f570       ?SetColorScheme@?$IOleObjectImpl@VCOPOSScanner@@@ATL@@UAGJPAUtagLOGPALETTE@@@Z 10020570 f i Scanner.obj
 0001:0001f5e0       ?SetContentExtent@?$IQuickActivateImpl@VCOPOSScanner@@@ATL@@UAGJPAUtagSIZE@@@Z 100205e0 f i Scanner.obj
 0001:0001f670       ?SetControlFocus@CComControlBase@ATL@@QAEHH@Z 10020670 f i Scanner.obj
 0001:0001f7f0       ?SetDWORDValue@CRegKey@ATL@@QAEJPB_WK@Z 100207f0 f i Scanner.obj
 0001:0001f870       ?SetData@?$IDataObjectImpl@VCOPOSScanner@@@ATL@@UAGJPAUtagFORMATETC@@PAUtagSTGMEDIUM@@H@Z 10020870 f i Scanner.obj
 0001:0001f8e0       ?SetExtent@?$IOleObjectImpl@VCOPOSScanner@@@ATL@@UAGJKPAUtagSIZE@@@Z 100208e0 f i Scanner.obj
 0001:0001f970       ?SetHostNames@?$IOleObjectImpl@VCOPOSScanner@@@ATL@@UAGJPB_W0@Z 10020970 f i Scanner.obj
 0001:0001f9d0       ?SetInterfaceSafetyOptions@?$IObjectSafetyImpl@VCOPOSScanner@@$02@ATL@@UAGJABU_GUID@@KK@Z 100209d0 f i Scanner.obj
 0001:0001fb40       ?SetMoniker@?$IOleObjectImpl@VCOPOSScanner@@@ATL@@UAGJKPAUIMoniker@@@Z 10020b40 f i Scanner.obj
 0001:0001fbb0       ?SetMultiStringValue@CRegKey@ATL@@QAEJPB_W0@Z 10020bb0 f i Scanner.obj
 0001:0001fcd0       ?SetObjectRects@?$IOleInPlaceObjectWindowlessImpl@VCOPOSScanner@@@ATL@@UAGJPBUtagRECT@@0@Z 10020cd0 f i Scanner.obj
 0001:0001fd60       ?SetStringValue@CRegKey@ATL@@QAEJPB_W0K@Z 10020d60 f i Scanner.obj
 0001:0001fe90       ?SetVoid@CComClassFactory@ATL@@QAEXPAX@Z 10020e90 f i Scanner.obj
 0001:0001feb0       ?SetVoid@CComObjectRootBase@ATL@@QAEXPAX@Z 10020eb0 f i Scanner.obj
 0001:0001fed0       ?SetWindowLongPtrW@@YAJPAUHWND__@@HJ@Z 10020ed0 f i Scanner.obj
 0001:0001ff00       ?ShowWindow@CWindow@ATL@@QAEHH@Z 10020f00 f i Scanner.obj
 0001:0001ff80       ?Skip@?$CComEnumImpl@UIEnumConnectionPoints@@$1?_GUID_b196b285_bab4_101a_b69c_00aa00341d07@@3U__s_GUID@@BPAUIConnectionPoint@@V?$_CopyInterface@UIConnectionPoint@@@ATL@@@ATL@@UAGJK@Z 10020f80 f i Scanner.obj
 0001:00020000       ?Skip@?$CComEnumImpl@UIEnumConnections@@$1?_GUID_b196b287_bab4_101a_b69c_00aa00341d07@@3U__s_GUID@@BUtagCONNECTDATA@@V?$_Copy@UtagCONNECTDATA@@@ATL@@@ATL@@UAGJK@Z 10021000 f i Scanner.obj
 0001:00020080       ?SkipAssignment@CRegParser@ATL@@IAEJPA_W@Z 10021080 f i Scanner.obj
 0001:00020160       ?SkipWhiteSpace@CRegParser@ATL@@IAEXXZ 10021160 f i Scanner.obj
 0001:000201b0       ?StartWindowProc@?$CWindowImplBaseT@VCWindow@ATL@@V?$CWinTraits@$0FGAAAAAA@$0A@@2@@ATL@@SGJPAUHWND__@@IIJ@Z 100211b0 f i Scanner.obj
 0001:000202d0       ?StrChrW@CRegParser@ATL@@KAPA_WPA_W_W@Z 100212d0 f i Scanner.obj
 0001:00020340       ?StrFromMap@CRegObject@ATL@@QAEPB_WPA_W@Z 10021340 f i Scanner.obj
 0001:000203d0       ?Swap@?$CComPtrBase@UIAdviseSink@@@ATL@@IAEXAAV12@@Z 100213d0 f i Scanner.obj
 0001:00020410       ?Swap@?$CComPtrBase@UIOleClientSite@@@ATL@@IAEXAAV12@@Z 10021410 f i Scanner.obj
 0001:00020450       ?Swap@?$CComPtrBase@UIUnknown@@@ATL@@IAEXAAV12@@Z 10021450 f i Scanner.obj
 0001:00020490       ?T2COLE_EX@@YAPB_WPB_WI@Z  10021490 f i Scanner.obj
 0001:000204a0       ?T2OLE_EX@@YAPA_WPA_WI@Z   100214a0 f i Scanner.obj
 0001:000204b0       ?Term@CAtlModule@ATL@@QAEXXZ 100214b0 f i Scanner.obj
 0001:00020560       ?Term@CComModule@ATL@@QAEXXZ 10021560 f i Scanner.obj
 0001:00020650       ?TranslateAcceleratorW@?$IOleInPlaceActiveObjectImpl@VCOPOSScanner@@@ATL@@UAGJPAUtagMSG@@@Z 10021650 f i Scanner.obj
 0001:00020850       ?UIDeactivate@?$IOleInPlaceObjectWindowlessImpl@VCOPOSScanner@@@ATL@@UAGJXZ 10021850 f i Scanner.obj
 0001:000208d0       ?Unadvise@?$CProxy_IOPOSEvents@VCOPOSScanner@@@@UAGJK@Z 100218d0 f i Scanner.obj
 0001:00020910       ?Unadvise@?$IConnectionPointImpl@VCOPOSScanner@@$1?DIID__IOPOSScannerEvents@@3U_GUID@@BVCComDynamicUnkArray@ATL@@@ATL@@UAGJK@Z 10021910 f i Scanner.obj
 0001:000209e0       ?Unadvise@?$IConnectionPointImpl@VCOPOSScanner@@$1?IID_IPropertyNotifySink@@3U_GUID@@BVCComDynamicUnkArray@ATL@@@ATL@@UAGJK@Z 100219e0 f i Scanner.obj
 0001:00020ab0       ?Unadvise@?$IOleObjectImpl@VCOPOSScanner@@@ATL@@UAGJK@Z 10021ab0 f i Scanner.obj
 0001:00020b80       ?Unfreeze@?$IViewObjectExImpl@VCOPOSScanner@@@ATL@@UAGJK@Z 10021b80 f i Scanner.obj
 0001:00020bf0       ?Unlock@?$CComCritSecLock@VCComCriticalSection@ATL@@@ATL@@QAEXXZ 10021bf0 f i Scanner.obj
 0001:00020c60       ?Unlock@?$CComObjectRootEx@VCComSingleThreadModel@ATL@@@ATL@@QAEXXZ 10021c60 f i Scanner.obj
 0001:00020c80       ?Unlock@CAtlModule@ATL@@UAEJXZ 10021c80 f i Scanner.obj
 0001:00020cb0       ?Unlock@CComCriticalSection@ATL@@QAEJXZ 10021cb0 f i Scanner.obj
 0001:00020cf0       ?Unlock@CComFakeCriticalSection@ATL@@QAEJXZ 10021cf0 f i Scanner.obj
 0001:00020d10       ?UnregisterServer@?$CAtlModuleT@VCComModule@ATL@@@ATL@@QAEJHPBU_GUID@@@Z 10021d10 f i Scanner.obj
 0001:00020d80       ?UnregisterServer@CAtlComModule@ATL@@QAEJHPBU_GUID@@@Z 10021d80 f i Scanner.obj
 0001:00020db0       ?UnregisterServer@CComModule@ATL@@QAEJHPBU_GUID@@@Z 10021db0 f i Scanner.obj
 0001:00020e90       ?Update@?$IOleObjectImpl@VCOPOSScanner@@@ATL@@UAGJXZ 10021e90 f i Scanner.obj
 0001:00020ef0       ?UpdateRegistryFromResource@CAtlModule@ATL@@QAGJIHPAU_ATL_REGMAP_ENTRY@2@@Z 10021ef0 f i Scanner.obj
 0001:000213c0       ?UpdateRegistryFromResource@CAtlModule@ATL@@QAGJPB_WHPAU_ATL_REGMAP_ENTRY@2@@Z 100223c0 f i Scanner.obj
 0001:000218b0       ?UpdateRegistryFromResource@CComModule@ATL@@UAGJIHPAU_ATL_REGMAP_ENTRY@2@@Z 100228b0 f i Scanner.obj
 0001:000218e0       ?UpdateRegistryFromResource@CComModule@ATL@@UAGJPB_WHPAU_ATL_REGMAP_ENTRY@2@@Z 100228e0 f i Scanner.obj
 0001:00021910       ?UpdateRegistryFromResourceD@CComModule@ATL@@UAGJIHPAU_ATL_REGMAP_ENTRY@2@@Z 10022910 f i Scanner.obj
 0001:00021920       ?UpdateRegistryFromResourceD@CComModule@ATL@@UAGJPB_WHPAU_ATL_REGMAP_ENTRY@2@@Z 10022920 f i Scanner.obj
 0001:00021930       ?VTFromRegType@CRegParser@ATL@@KAHPB_WAAG@Z 10022930 f i Scanner.obj
 0001:00021a10       ?WindowProc@?$CWindowImplBaseT@VCWindow@ATL@@V?$CWinTraits@$0FGAAAAAA@$0A@@2@@ATL@@SGJPAUHWND__@@IIJ@Z 10022a10 f i Scanner.obj
 0001:00021c20       ?WriteToStream@CComBSTR@ATL@@QAEJPAUIStream@@@Z 10022c20 f i Scanner.obj
 0001:00021d80       ?WriteToStream@CComVariant@ATL@@QAEJPAUIStream@@@Z 10022d80 f i Scanner.obj
 0001:000220c0       ?WriteToStream@CComVariant@ATL@@QAEJPAUIStream@@G@Z 100230c0 f i Scanner.obj
 0001:00022190       ?_AtlFinalConstruct@CComObjectRootBase@ATL@@QAEJXZ 10023190 f i Scanner.obj
 0001:000221b0       ?_AtlGetConversionACP@ATL@@YGIXZ 100231b0 f i Scanner.obj
 0001:000221c0       ?_AtlInitialConstruct@?$CComAggObject@VCOPOSScanner@@@ATL@@QAEJXZ 100231c0 f i Scanner.obj
 0001:00022210       ?_AtlInitialConstruct@?$CComObjectRootEx@VCComMultiThreadModel@ATL@@@ATL@@QAEJXZ 10023210 f i Scanner.obj
 0001:00022240       ?_AtlInitialConstruct@?$CComObjectRootEx@VCComSingleThreadModel@ATL@@@ATL@@QAEJXZ 10023240 f i Scanner.obj
 0001:00022260       ?_AtlVerifyStackAvailable@_ATL_SAFE_ALLOCA_IMPL@ATL@@YA_NK@Z 10023260 f i Scanner.obj
 0001:00022410       ?_GetEntries@?$CComEnum@UIEnumConnectionPoints@@$1?_GUID_b196b285_bab4_101a_b69c_00aa00341d07@@3U__s_GUID@@BPAUIConnectionPoint@@V?$_CopyInterface@UIConnectionPoint@@@ATL@@VCComSingleThreadModel@6@@ATL@@SGPBU_ATL_INTMAP_ENTRY@2@XZ 10023410 f i Scanner.obj
 0001:00022430       ?_GetEntries@?$CComEnum@UIEnumConnections@@$1?_GUID_b196b287_bab4_101a_b69c_00aa00341d07@@3U__s_GUID@@BUtagCONNECTDATA@@V?$_Copy@UtagCONNECTDATA@@@ATL@@VCComSingleThreadModel@6@@ATL@@SGPBU_ATL_INTMAP_ENTRY@2@XZ 10023430 f i Scanner.obj
 0001:00022450       ?_GetEntries@CComClassFactory@ATL@@SGPBU_ATL_INTMAP_ENTRY@2@XZ 10023450 f i Scanner.obj
 0001:00022470       ?_GetEntries@COPOSScanner@@SGPBU_ATL_INTMAP_ENTRY@ATL@@XZ 10023470 f i Scanner.obj
 0001:00022490       ?_GetRawUnknown@COPOSScanner@@QAEPAUIUnknown@@XZ 10023490 f i Scanner.obj
 0001:00022500       ?_GetViewStatus@COPOSScanner@@QAEKXZ 10023500 f i Scanner.obj
 0001:00022520       ?_InternalQueryInterface@?$CComEnum@UIEnumConnectionPoints@@$1?_GUID_b196b285_bab4_101a_b69c_00aa00341d07@@3U__s_GUID@@BPAUIConnectionPoint@@V?$_CopyInterface@UIConnectionPoint@@@ATL@@VCComSingleThreadModel@6@@ATL@@QAEJABU_GUID@@PAPAX@Z 10023520 f i Scanner.obj
 0001:00022560       ?_InternalQueryInterface@?$CComEnum@UIEnumConnections@@$1?_GUID_b196b287_bab4_101a_b69c_00aa00341d07@@3U__s_GUID@@BUtagCONNECTDATA@@V?$_Copy@UtagCONNECTDATA@@@ATL@@VCComSingleThreadModel@6@@ATL@@QAEJABU_GUID@@PAPAX@Z 10023560 f i Scanner.obj
 0001:000225a0       ?_InternalQueryInterface@CComClassFactory@ATL@@QAEJABU_GUID@@PAPAX@Z 100235a0 f i Scanner.obj
 0001:000225e0       ?_InternalQueryInterface@COPOSScanner@@QAEJABU_GUID@@PAPAX@Z 100235e0 f i Scanner.obj
 0001:00022620       ?_LocCPQueryInterface@?$IConnectionPointImpl@VCOPOSScanner@@$1?DIID__IOPOSScannerEvents@@3U_GUID@@BVCComDynamicUnkArray@ATL@@@ATL@@UAGJABU_GUID@@PAPAX@Z 10023620 f i Scanner.obj
 0001:000226c0       ?_LocCPQueryInterface@?$IConnectionPointImpl@VCOPOSScanner@@$1?IID_IPropertyNotifySink@@3U_GUID@@BVCComDynamicUnkArray@ATL@@@ATL@@UAGJABU_GUID@@PAPAX@Z 100236c0 f i Scanner.obj
 0001:00022760       ?atlCreate@?$CWindowImpl@VCOPOSScanner@@VCWindow@ATL@@V?$CWinTraits@$0FGAAAAAA@$0A@@3@@ATL@@QAEPAUHWND__@@PAU3@V_U_RECT@2@PB_WKKV_U_MENUorID@2@PAX@Z 10023760 f i Scanner.obj
 0001:00022810       ?atlCreate@?$CWindowImplBaseT@VCWindow@ATL@@V?$CWinTraits@$0FGAAAAAA@$0A@@2@@ATL@@QAEPAUHWND__@@PAU3@V_U_RECT@2@PB_WKKV_U_MENUorID@2@GPAX@Z 10023810 f i Scanner.obj
 0001:00022990       ?atlCreate@CRegKey@ATL@@QAEJPAUHKEY__@@PB_WPA_WKKPAU_SECURITY_ATTRIBUTES@@PAK@Z 10023990 f i Scanner.obj
 0001:00022af0       ?begin@CComDynamicUnkArray@ATL@@QAEPAPAUIUnknown@@XZ 10023af0 f i Scanner.obj
 0001:00022b10       ?copy@?$_Copy@UtagCONNECTDATA@@@ATL@@SAJPAUtagCONNECTDATA@@PBU3@@Z 10023b10 f i Scanner.obj
 0001:00022bd0       ?copy@?$_CopyInterface@UIConnectionPoint@@@ATL@@SAJPAPAUIConnectionPoint@@PBQAU3@@Z 10023bd0 f i Scanner.obj
 0001:00022c90       ?destroy@?$_Copy@UtagCONNECTDATA@@@ATL@@SAXPAUtagCONNECTDATA@@@Z 10023c90 f i Scanner.obj
 0001:00022cd0       ?destroy@?$_CopyInterface@UIConnectionPoint@@@ATL@@SAXPAPAUIConnectionPoint@@@Z 10023cd0 f i Scanner.obj
 0001:00022d10       ?end@CComDynamicUnkArray@ATL@@QAEPAPAUIUnknown@@XZ 10023d10 f i Scanner.obj
 0001:00022d30       ?init@?$_Copy@UtagCONNECTDATA@@@ATL@@SAXPAUtagCONNECTDATA@@@Z 10023d30 f i Scanner.obj
 0001:00022d40       ?init@?$_CopyInterface@UIConnectionPoint@@@ATL@@SAXPAPAUIConnectionPoint@@@Z 10023d40 f i Scanner.obj
 0001:00022d50       ?memcpy_s@Checked@ATL@@YAXPAXIPBXI@Z 10023d50 f i Scanner.obj
 0001:00022d80       ?ocscpy_s@@YA_NPA_WIPB_W@Z 10023d80 f i Scanner.obj
 0001:00022de0       ?ocslen@@YAHPB_W@Z         10023de0 f i Scanner.obj
 0001:00022e10       ?tcsncpy_s@Checked@ATL@@YAHPA_WIPB_WI@Z 10023e10 f i Scanner.obj
 0001:00022e40       ?wcscat_s@Checked@ATL@@YAXPA_WIPB_W@Z 10023e40 f i Scanner.obj
 0001:00022e70       ?wcscpy_s@Checked@ATL@@YAXPA_WIPB_W@Z 10023e70 f i Scanner.obj
 0001:00022ea0       ?wcsncpy_s@Checked@ATL@@YAHPA_WIPB_WI@Z 10023ea0 f i Scanner.obj
 0001:00022ed0       ?wcsstr@@YAPA_WPA_WPB_W@Z  10023ed0 f i Scanner.obj
 0001:00022ef0       _InlineIsEqualGUID         10023ef0 f i Scanner.obj
 0001:00022f90       _IsEqualGUID               10023f90 f i Scanner.obj
 0001:00022fe0       ??0COPOSScanner@@QAE@XZ    10023fe0 f   ScannerImpl.obj
 0001:000230f0       ?FinalConstruct@COPOSScanner@@QAEJXZ 100240f0 f   ScannerImpl.obj
 0001:000231c0       ??1COPOSScanner@@UAE@XZ    100241c0 f   ScannerImpl.obj
 0001:000232a0       ?WriteTrace@COPOSScanner@@QAAXPB_WZZ 100242a0 f   ScannerImpl.obj
 0001:00023350       ?WriteTraceString@COPOSScanner@@QAEXPB_WPA_W@Z 10024350 f   ScannerImpl.obj
 0001:000236c0       ?WriteTraceString@COPOSScanner@@QAAXPAXHHHPB_WZZ 100246c0 f   ScannerImpl.obj
 0001:000238f0       ?WriteTraceError@COPOSScanner@@QAEXPB_WK@Z 100248f0 f   ScannerImpl.obj
 0001:000239e0       ?WriteTraceMethods@COPOSScanner@@QAEXPAJH@Z 100249e0 f   ScannerImpl.obj
 0001:00023a50       ?GetOposProp@COPOSScanner@@IAEJPBDJPAJJ@Z 10024a50 f   ScannerImpl.obj
 0001:00023cc0       ?SetOposProp@COPOSScanner@@IAEJPBDJJJ@Z 10024cc0 f   ScannerImpl.obj
 0001:00023f50       ?GetOposProp@COPOSScanner@@IAEJPBDJPAFJ@Z 10024f50 f   ScannerImpl.obj
 0001:00023ff0       ?SetOposProp@COPOSScanner@@IAEJPBDJFJ@Z 10024ff0 f   ScannerImpl.obj
 0001:00024050       ?GetOposProp@COPOSScanner@@IAEJPBDJPAPA_WJ@Z 10025050 f   ScannerImpl.obj
 0001:000242d0       ?SetOposProp@COPOSScanner@@IAEJPBDJPA_WJ@Z 100252d0 f   ScannerImpl.obj
 0001:00024610       ?DoInvoke@COPOSScanner@@IAEJPBDJPAVOposVariant@@IHPAJ_N@Z 10025610 f   ScannerImpl.obj
 0001:00024f40       ?SetCOFreezeEvents@COPOSScanner@@IAEXF@Z 10025f40 f   ScannerImpl.obj
 0001:00025080       ?FreezeEvents@COPOSScanner@@MAGJH@Z 10026080 f   ScannerImpl.obj
 0001:00025160       ?OnDraw@COPOSScanner@@MAEJAAUATL_DRAWINFO@@@Z 10026160 f   ScannerImpl.obj
 0001:00025300       ?SOProcessID@COPOSScanner@@UAGJPAJ@Z 10026300 f   ScannerImpl.obj
 0001:00025340       ?get_OpenResult@COPOSScanner@@UAGJPAJ@Z 10026340 f   ScannerImpl.obj
 0001:00025380       ?get_CheckHealthText@COPOSScanner@@UAGJPAPA_W@Z 10026380 f   ScannerImpl.obj
 0001:000253b0       ?get_Claimed@COPOSScanner@@UAGJPAF@Z 100263b0 f   ScannerImpl.obj
 0001:000253e0       ?get_DataEventEnabled@COPOSScanner@@UAGJPAF@Z 100263e0 f   ScannerImpl.obj
 0001:00025410       ?put_DataEventEnabled@COPOSScanner@@UAGJF@Z 10026410 f   ScannerImpl.obj
 0001:00025440       ?get_DeviceEnabled@COPOSScanner@@UAGJPAF@Z 10026440 f   ScannerImpl.obj
 0001:00025470       ?put_DeviceEnabled@COPOSScanner@@UAGJF@Z 10026470 f   ScannerImpl.obj
 0001:000254a0       ?get_FreezeEvents@COPOSScanner@@UAGJPAF@Z 100264a0 f   ScannerImpl.obj
 0001:000254d0       ?put_FreezeEvents@COPOSScanner@@UAGJF@Z 100264d0 f   ScannerImpl.obj
 0001:00025560       ?get_ResultCode@COPOSScanner@@UAGJPAJ@Z 10026560 f   ScannerImpl.obj
 0001:000255f0       ?get_ResultCodeExtended@COPOSScanner@@UAGJPAJ@Z 100265f0 f   ScannerImpl.obj
 0001:00025620       ?get_State@COPOSScanner@@UAGJPAJ@Z 10026620 f   ScannerImpl.obj
 0001:00025670       ?get_ControlObjectDescription@COPOSScanner@@UAGJPAPA_W@Z 10026670 f   ScannerImpl.obj
 0001:000256f0       ?get_ControlObjectVersion@COPOSScanner@@UAGJPAJ@Z 100266f0 f   ScannerImpl.obj
 0001:00025730       ?get_ServiceObjectDescription@COPOSScanner@@UAGJPAPA_W@Z 10026730 f   ScannerImpl.obj
 0001:00025760       ?get_ServiceObjectVersion@COPOSScanner@@UAGJPAJ@Z 10026760 f   ScannerImpl.obj
 0001:00025790       ?get_DeviceDescription@COPOSScanner@@UAGJPAPA_W@Z 10026790 f   ScannerImpl.obj
 0001:000257c0       ?get_DeviceName@COPOSScanner@@UAGJPAPA_W@Z 100267c0 f   ScannerImpl.obj
 0001:000257f0       ?CheckHealth@COPOSScanner@@UAGJJPAJ@Z 100267f0 f   ScannerImpl.obj
 0001:00025890       ?ClaimDevice@COPOSScanner@@UAGJJPAJ@Z 10026890 f   ScannerImpl.obj
 0001:00025970       ?ClearInput@COPOSScanner@@UAGJPAJ@Z 10026970 f   ScannerImpl.obj
 0001:000259a0       ?Close@COPOSScanner@@UAGJPAJ@Z 100269a0 f   ScannerImpl.obj
 0001:00025a70       ?DirectIO@COPOSScanner@@UAGJJPAJPAPA_W0@Z 10026a70 f   ScannerImpl.obj
 0001:00025b80       ?Open@COPOSScanner@@UAGJPA_WPAJ@Z 10026b80 f   ScannerImpl.obj
 0001:00026d60       ?ReleaseDevice@COPOSScanner@@UAGJPAJ@Z 10027d60 f   ScannerImpl.obj
 0001:00026dd0       ?get_ScanData@COPOSScanner@@UAGJPAPA_W@Z 10027dd0 f   ScannerImpl.obj
 0001:00026e00       ?get_AutoDisable@COPOSScanner@@UAGJPAF@Z 10027e00 f   ScannerImpl.obj
 0001:00026e30       ?put_AutoDisable@COPOSScanner@@UAGJF@Z 10027e30 f   ScannerImpl.obj
 0001:00026e60       ?get_BinaryConversion@COPOSScanner@@UAGJPAJ@Z 10027e60 f   ScannerImpl.obj
 0001:00026e90       ?put_BinaryConversion@COPOSScanner@@UAGJJ@Z 10027e90 f   ScannerImpl.obj
 0001:00026ec0       ?get_DataCount@COPOSScanner@@UAGJPAJ@Z 10027ec0 f   ScannerImpl.obj
 0001:00026ef0       ?get_DecodeData@COPOSScanner@@UAGJPAF@Z 10027ef0 f   ScannerImpl.obj
 0001:00026f20       ?put_DecodeData@COPOSScanner@@UAGJF@Z 10027f20 f   ScannerImpl.obj
 0001:00026f50       ?get_ScanDataLabel@COPOSScanner@@UAGJPAPA_W@Z 10027f50 f   ScannerImpl.obj
 0001:00026f80       ?get_ScanDataType@COPOSScanner@@UAGJPAJ@Z 10027f80 f   ScannerImpl.obj
 0001:00026fb0       ?get_CapPowerReporting@COPOSScanner@@UAGJPAJ@Z 10027fb0 f   ScannerImpl.obj
 0001:00026fe0       ?get_PowerNotify@COPOSScanner@@UAGJPAJ@Z 10027fe0 f   ScannerImpl.obj
 0001:00027010       ?put_PowerNotify@COPOSScanner@@UAGJJ@Z 10028010 f   ScannerImpl.obj
 0001:00027040       ?get_PowerState@COPOSScanner@@UAGJPAJ@Z 10028040 f   ScannerImpl.obj
 0001:00027070       ?get_CapStatisticsReporting@COPOSScanner@@UAGJPAF@Z 10028070 f   ScannerImpl.obj
 0001:000270a0       ?get_CapUpdateStatistics@COPOSScanner@@UAGJPAF@Z 100280a0 f   ScannerImpl.obj
 0001:000270d0       ?ResetStatistics@COPOSScanner@@UAGJPA_WPAJ@Z 100280d0 f   ScannerImpl.obj
 0001:00027180       ?RetrieveStatistics@COPOSScanner@@UAGJPAPA_WPAJ@Z 10028180 f   ScannerImpl.obj
 0001:00027230       ?UpdateStatistics@COPOSScanner@@UAGJPA_WPAJ@Z 10028230 f   ScannerImpl.obj
 0001:000272e0       ?get_CapCompareFirmwareVersion@COPOSScanner@@UAGJPAF@Z 100282e0 f   ScannerImpl.obj
 0001:00027310       ?get_CapUpdateFirmware@COPOSScanner@@UAGJPAF@Z 10028310 f   ScannerImpl.obj
 0001:00027340       ?CompareFirmwareVersion@COPOSScanner@@UAGJPA_WPAJ1@Z 10028340 f   ScannerImpl.obj
 0001:00027430       ?UpdateFirmware@COPOSScanner@@UAGJPA_WPAJ@Z 10028430 f   ScannerImpl.obj
 0001:000274e0       ?ClearInputProperties@COPOSScanner@@UAGJPAJ@Z 100284e0 f   ScannerImpl.obj
 0001:00027510       ??0?$CComControl@VCOPOSScanner@@V?$CWindowImpl@VCOPOSScanner@@VCWindow@ATL@@V?$CWinTraits@$0FGAAAAAA@$0A@@3@@ATL@@@ATL@@QAE@XZ 10028510 f i ScannerImpl.obj
 0001:00027550       ??0?$CComPtr@UIAdviseSink@@@ATL@@QAE@XZ 10028550 f i ScannerImpl.obj
 0001:00027580       ??0?$CComPtr@UIDataAdviseHolder@@@ATL@@QAE@XZ 10028580 f i ScannerImpl.obj
 0001:000275b0       ??0?$CComPtr@UIOleAdviseHolder@@@ATL@@QAE@XZ 100285b0 f i ScannerImpl.obj
 0001:000275e0       ??0?$CComPtr@UIOleClientSite@@@ATL@@QAE@XZ 100285e0 f i ScannerImpl.obj
 0001:00027610       ??0?$CComPtr@UIOleInPlaceSiteWindowless@@@ATL@@QAE@XZ 10028610 f i ScannerImpl.obj
 0001:00027640       ??0?$CComPtrBase@UIAdviseSink@@@ATL@@IAE@XZ 10028640 f i ScannerImpl.obj
 0001:00027660       ??0?$CComPtrBase@UIDataAdviseHolder@@@ATL@@IAE@XZ 10028660 f i ScannerImpl.obj
 0001:00027680       ??0?$CComPtrBase@UIOleAdviseHolder@@@ATL@@IAE@XZ 10028680 f i ScannerImpl.obj
 0001:000276a0       ??0?$CComPtrBase@UIOleClientSite@@@ATL@@IAE@XZ 100286a0 f i ScannerImpl.obj
 0001:000276c0       ??0?$CComPtrBase@UIOleInPlaceSiteWindowless@@@ATL@@IAE@XZ 100286c0 f i ScannerImpl.obj
 0001:000276e0       ??0?$CComQIPtr@UIDispatch@@$1?_GUID_00020400_0000_0000_c000_000000000046@@3U__s_GUID@@B@ATL@@QAE@XZ 100286e0 f i ScannerImpl.obj
 0001:00027710       ??0?$CProxy_IOPOSEvents@VCOPOSScanner@@@@QAE@PAVCOPOSScanner@@@Z 10028710 f i ScannerImpl.obj
 0001:00027780       ??0?$CWindowImpl@VCOPOSScanner@@VCWindow@ATL@@V?$CWinTraits@$0FGAAAAAA@$0A@@3@@ATL@@QAE@XZ 10028780 f i ScannerImpl.obj
 0001:000277b0       ??0?$CWindowImplBaseT@VCWindow@ATL@@V?$CWinTraits@$0FGAAAAAA@$0A@@2@@ATL@@QAE@XZ 100287b0 f i ScannerImpl.obj
 0001:000277f0       ??0?$CWindowImplRoot@VCWindow@ATL@@@ATL@@QAE@XZ 100287f0 f i ScannerImpl.obj
 0001:00027850       ??0?$IConnectionPointContainerImpl@VCOPOSScanner@@@ATL@@QAE@XZ 10028850 f i ScannerImpl.obj
 0001:00027880       ??0?$IConnectionPointImpl@VCOPOSScanner@@$1?DIID__IOPOSScannerEvents@@3U_GUID@@BVCComDynamicUnkArray@ATL@@@ATL@@QAE@XZ 10028880 f i ScannerImpl.obj
 0001:000278c0       ??0?$IConnectionPointImpl@VCOPOSScanner@@$1?IID_IPropertyNotifySink@@3U_GUID@@BVCComDynamicUnkArray@ATL@@@ATL@@QAE@XZ 100288c0 f i ScannerImpl.obj
 0001:00027900       ??0?$IDataObjectImpl@VCOPOSScanner@@@ATL@@QAE@XZ 10028900 f i ScannerImpl.obj
 0001:00027930       ??0?$IDispatchImpl@UIOPOSScanner@@$1?IID_IOPOSScanner@@3U_GUID@@B$1?LIBID_OposScanner_CCO@@3U3@B$00$0A@VCComTypeInfoHolder@ATL@@@ATL@@QAE@XZ 10028930 f i ScannerImpl.obj
 0001:00027960       ??0?$IObjectSafetyImpl@VCOPOSScanner@@$02@ATL@@QAE@XZ 10028960 f i ScannerImpl.obj
 0001:000279a0       ??0?$IOleControlImpl@VCOPOSScanner@@@ATL@@QAE@XZ 100289a0 f i ScannerImpl.obj
 0001:000279d0       ??0?$IOleInPlaceActiveObjectImpl@VCOPOSScanner@@@ATL@@QAE@XZ 100289d0 f i ScannerImpl.obj
 0001:00027a00       ??0?$IOleInPlaceObjectWindowlessImpl@VCOPOSScanner@@@ATL@@QAE@XZ 10028a00 f i ScannerImpl.obj
 0001:00027a30       ??0?$IOleObjectImpl@VCOPOSScanner@@@ATL@@QAE@XZ 10028a30 f i ScannerImpl.obj
 0001:00027a60       ??0?$IPersistStorageImpl@VCOPOSScanner@@@ATL@@QAE@XZ 10028a60 f i ScannerImpl.obj
 0001:00027a90       ??0?$IPersistStreamInitImpl@VCOPOSScanner@@@ATL@@QAE@XZ 10028a90 f i ScannerImpl.obj
 0001:00027ac0       ??0?$IPropertyNotifySinkCP@VCOPOSScanner@@VCComDynamicUnkArray@ATL@@@ATL@@QAE@XZ 10028ac0 f i ScannerImpl.obj
 0001:00027af0       ??0?$IProvideClassInfo2Impl@$1?CLSID_OPOSScanner@@3U_GUID@@B$1?DIID__IOPOSScannerEvents@@3U2@B$1?LIBID_OposScanner_CCO@@3U2@B$00$0A@VCComTypeInfoHolder@ATL@@@ATL@@QAE@XZ 10028af0 f i ScannerImpl.obj
 0001:00027b20       ??0?$IQuickActivateImpl@VCOPOSScanner@@@ATL@@QAE@XZ 10028b20 f i ScannerImpl.obj
 0001:00027b50       ??0?$ISpecifyPropertyPagesImpl@VCOPOSScanner@@@ATL@@QAE@XZ 10028b50 f i ScannerImpl.obj
 0001:00027b80       ??0?$IViewObjectExImpl@VCOPOSScanner@@@ATL@@QAE@XZ 10028b80 f i ScannerImpl.obj
 0001:00027bb0       ??0?$_ICPLocator@$1?DIID__IOPOSScannerEvents@@3U_GUID@@B@ATL@@QAE@XZ 10028bb0 f i ScannerImpl.obj
 0001:00027bd0       ??0?$_ICPLocator@$1?IID_IPropertyNotifySink@@3U_GUID@@B@ATL@@QAE@XZ 10028bd0 f i ScannerImpl.obj
 0001:00027bf0       ??0CComControlBase@ATL@@QAE@AAPAUHWND__@@@Z 10028bf0 f i ScannerImpl.obj
 0001:00027da0       ??0CComDynamicUnkArray@ATL@@QAE@XZ 10028da0 f i ScannerImpl.obj
 0001:00027dd0       ??0CDynamicStdCallThunk2@ATL@@QAE@XZ 10028dd0 f i ScannerImpl.obj
 0001:00027df0       ??0CMessageMap@ATL@@QAE@XZ 10028df0 f i ScannerImpl.obj
 0001:00027e10       ??0CWindow@ATL@@QAE@PAUHWND__@@@Z 10028e10 f i ScannerImpl.obj
 0001:00027e30       ??0CWndProcThunk@ATL@@QAE@XZ 10028e30 f i ScannerImpl.obj
 0001:00027e60       ??0IConnectionPointContainer@@QAE@XZ 10028e60 f i ScannerImpl.obj
 0001:00027e90       ??0IDataObject@@QAE@XZ     10028e90 f i ScannerImpl.obj
 0001:00027ec0       ??0IDispatch@@QAE@XZ       10028ec0 f i ScannerImpl.obj
 0001:00027ef0       ??0IOPOSScanner@@QAE@XZ    10028ef0 f i ScannerImpl.obj
 0001:00027f20       ??0IOPOSScanner_1_10@@QAE@XZ 10028f20 f i ScannerImpl.obj
 0001:00027f50       ??0IOPOSScanner_1_5@@QAE@XZ 10028f50 f i ScannerImpl.obj
 0001:00027f80       ??0IOPOSScanner_1_8@@QAE@XZ 10028f80 f i ScannerImpl.obj
 0001:00027fb0       ??0IOPOSScanner_1_9@@QAE@XZ 10028fb0 f i ScannerImpl.obj
 0001:00027fe0       ??0IObjectSafety@@QAE@XZ   10028fe0 f i ScannerImpl.obj
 0001:00028010       ??0IOleControl@@QAE@XZ     10029010 f i ScannerImpl.obj
 0001:00028040       ??0IOleInPlaceActiveObject@@QAE@XZ 10029040 f i ScannerImpl.obj
 0001:00028070       ??0IOleInPlaceObject@@QAE@XZ 10029070 f i ScannerImpl.obj
 0001:000280a0       ??0IOleInPlaceObjectWindowless@@QAE@XZ 100290a0 f i ScannerImpl.obj
 0001:000280d0       ??0IOleObject@@QAE@XZ      100290d0 f i ScannerImpl.obj
 0001:00028100       ??0IOleWindow@@QAE@XZ      10029100 f i ScannerImpl.obj
 0001:00028130       ??0IPersist@@QAE@XZ        10029130 f i ScannerImpl.obj
 0001:00028160       ??0IPersistStorage@@QAE@XZ 10029160 f i ScannerImpl.obj
 0001:00028190       ??0IPersistStreamInit@@QAE@XZ 10029190 f i ScannerImpl.obj
 0001:000281c0       ??0IProvideClassInfo2@@QAE@XZ 100291c0 f i ScannerImpl.obj
 0001:000281f0       ??0IProvideClassInfo@@QAE@XZ 100291f0 f i ScannerImpl.obj
 0001:00028220       ??0IQuickActivate@@QAE@XZ  10029220 f i ScannerImpl.obj
 0001:00028250       ??0ISpecifyPropertyPages@@QAE@XZ 10029250 f i ScannerImpl.obj
 0001:00028280       ??0IViewObject2@@QAE@XZ    10029280 f i ScannerImpl.obj
 0001:000282b0       ??0IViewObject@@QAE@XZ     100292b0 f i ScannerImpl.obj
 0001:000282e0       ??0IViewObjectEx@@QAE@XZ   100292e0 f i ScannerImpl.obj
 0001:00028310       ??0OposVariantResult@@QAE@XZ 10029310 f i ScannerImpl.obj
 0001:00028340       ??0_CW@@QAE@PBD@Z          10029340 f i ScannerImpl.obj
 0001:00028380       ??0_CW@@QAE@PB_W@Z         10029380 f i ScannerImpl.obj
 0001:000283c0       ??0_CWNCC@@QAE@PBD@Z       100293c0 f i ScannerImpl.obj
 0001:000283f0       ??1?$CComControl@VCOPOSScanner@@V?$CWindowImpl@VCOPOSScanner@@VCWindow@ATL@@V?$CWinTraits@$0FGAAAAAA@$0A@@3@@ATL@@@ATL@@UAE@XZ 100293f0 f i ScannerImpl.obj
 0001:00028420       ??1?$CComPtr@UIDataAdviseHolder@@@ATL@@QAE@XZ 10029420 f i ScannerImpl.obj
 0001:00028450       ??1?$CComPtr@UIOleAdviseHolder@@@ATL@@QAE@XZ 10029450 f i ScannerImpl.obj
 0001:00028480       ??1?$CComPtr@UIOleInPlaceSiteWindowless@@@ATL@@QAE@XZ 10029480 f i ScannerImpl.obj
 0001:000284b0       ??1?$CComPtrBase@UIDataAdviseHolder@@@ATL@@QAE@XZ 100294b0 f i ScannerImpl.obj
 0001:00028500       ??1?$CComPtrBase@UIOleAdviseHolder@@@ATL@@QAE@XZ 10029500 f i ScannerImpl.obj
 0001:00028550       ??1?$CComPtrBase@UIOleInPlaceSiteWindowless@@@ATL@@QAE@XZ 10029550 f i ScannerImpl.obj
 0001:000285a0       ??1?$CComQIPtr@UIDispatch@@$1?_GUID_00020400_0000_0000_c000_000000000046@@3U__s_GUID@@B@ATL@@QAE@XZ 100295a0 f i ScannerImpl.obj
 0001:000285d0       ??1?$CProxy_IOPOSEvents@VCOPOSScanner@@@@QAE@XZ 100295d0 f i ScannerImpl.obj
 0001:00028600       ??1?$CWindowImpl@VCOPOSScanner@@VCWindow@ATL@@V?$CWinTraits@$0FGAAAAAA@$0A@@3@@ATL@@UAE@XZ 10029600 f i ScannerImpl.obj
 0001:00028630       ??1?$CWindowImplBaseT@VCWindow@ATL@@V?$CWinTraits@$0FGAAAAAA@$0A@@2@@ATL@@UAE@XZ 10029630 f i ScannerImpl.obj
 0001:00028660       ??1?$CWindowImplRoot@VCWindow@ATL@@@ATL@@UAE@XZ 10029660 f i ScannerImpl.obj
 0001:00028700       ??1?$IConnectionPointImpl@VCOPOSScanner@@$1?DIID__IOPOSScannerEvents@@3U_GUID@@BVCComDynamicUnkArray@ATL@@@ATL@@QAE@XZ 10029700 f i ScannerImpl.obj
 0001:00028780       ??1?$IConnectionPointImpl@VCOPOSScanner@@$1?IID_IPropertyNotifySink@@3U_GUID@@BVCComDynamicUnkArray@ATL@@@ATL@@QAE@XZ 10029780 f i ScannerImpl.obj
 0001:00028800       ??1?$IPropertyNotifySinkCP@VCOPOSScanner@@VCComDynamicUnkArray@ATL@@@ATL@@QAE@XZ 10029800 f i ScannerImpl.obj
 0001:00028830       ??1CComControlBase@ATL@@UAE@XZ 10029830 f i ScannerImpl.obj
 0001:000288f0       ??1CComDynamicUnkArray@ATL@@QAE@XZ 100298f0 f i ScannerImpl.obj
 0001:00028930       ??1CDynamicStdCallThunk2@ATL@@QAE@XZ 10029930 f i ScannerImpl.obj
 0001:00028960       ??1CWndProcThunk@ATL@@QAE@XZ 10029960 f i ScannerImpl.obj
 0001:00028990       ??1OposVariantResult@@QAE@XZ 10029990 f i ScannerImpl.obj
 0001:000289c0       ??1_CW@@QAE@XZ             100299c0 f i ScannerImpl.obj
 0001:00028a30       ??1_CWNCC@@QAE@XZ          10029a30 f i ScannerImpl.obj
 0001:00028a60       ??B_CW@@QAEPB_WXZ          10029a60 f i ScannerImpl.obj
 0001:00028aa0       ??B_CWNCC@@QAEPA_WXZ       10029aa0 f i ScannerImpl.obj
 0001:00028ad0       ??_EOposVariant@@QAEPAXI@Z 10029ad0 f i ScannerImpl.obj
 0001:00028b60       ?EventClaim@COPOSScanner@@IAEXXZ 10029b60 f i ScannerImpl.obj
 0001:00028ba0       ?EventClose@COPOSScanner@@IAEXXZ 10029ba0 f i ScannerImpl.obj
 0001:00028c40       ?EventInit@COPOSScanner@@IAEJXZ 10029c40 f i ScannerImpl.obj
 0001:00028e70       ?EventOpen@COPOSScanner@@IAEXXZ 10029e70 f i ScannerImpl.obj
 0001:00028eb0       ?EventPreCloseRelease@COPOSScanner@@IAEXXZ 10029eb0 f i ScannerImpl.obj
 0001:00028f30       ?EventUninit@COPOSScanner@@IAEXXZ 10029f30 f i ScannerImpl.obj
 0001:00029060       ?EventWindowProc@COPOSScanner@@IAGJIIJ@Z 1002a060 f i ScannerImpl.obj
 0001:000291f0       ?FireEventCleanup@COPOSScanner@@IAEXXZ 1002a1f0 f i ScannerImpl.obj
 0001:00029240       ?FireEventSetup@COPOSScanner@@IAE_NXZ 1002a240 f i ScannerImpl.obj
 0001:000292b0       ?GetModuleInstance@CComModule@ATL@@QAEPAUHINSTANCE__@@XZ 1002a2b0 f i ScannerImpl.obj
 0001:000292d0       ?SetRC@COPOSScanner@@IAEJJ@Z 1002a2d0 f i ScannerImpl.obj
 0001:00029300       ?s_EventWindowProc@COPOSScanner@@KGJPAUHWND__@@IIJ@Z 1002a300 f i ScannerImpl.obj
 0001:000293a0       __snwprintf                1002a3a0 f i ScannerImpl.obj
 0001:00029400       __vfwprintf_l              1002a400 f i ScannerImpl.obj
 0001:00029430       __vsnwprintf               1002a430 f i ScannerImpl.obj
 0001:00029460       __vsnwprintf_l             1002a460 f i ScannerImpl.obj
 0001:000294d0       _vfwprintf                 1002a4d0 f i ScannerImpl.obj
 0001:000294f2       _DebugBreak@0              1002a4f2 f   kernel32:KERNEL32.dll
 0001:000294f8       _Sleep@4                   1002a4f8 f   kernel32:KERNEL32.dll
 0001:000294fe       _GetCurrentProcess@0       1002a4fe f   kernel32:KERNEL32.dll
 0001:00029504       _TerminateProcess@8        1002a504 f   kernel32:KERNEL32.dll
 0001:0002950a       _MultiByteToWideChar@24    1002a50a f   kernel32:KERNEL32.dll
 0001:00029510       _WideCharToMultiByte@32    1002a510 f   kernel32:KERNEL32.dll
 0001:00029516       _DecodePointer@4           1002a516 f   kernel32:KERNEL32.dll
 0001:0002951c       _RaiseException@16         1002a51c f   kernel32:KERNEL32.dll
 0001:00029522       _GetLastError@0            1002a522 f   kernel32:KERNEL32.dll
 0001:00029528       _SetLastError@4            1002a528 f   kernel32:KERNEL32.dll
 0001:0002952e       _InitializeCriticalSectionEx@12 1002a52e f   kernel32:KERNEL32.dll
 0001:00029534       _DeleteCriticalSection@4   1002a534 f   kernel32:KERNEL32.dll
 0001:0002953a       _EncodePointer@4           1002a53a f   kernel32:KERNEL32.dll
 0001:00029540       _EnterCriticalSection@4    1002a540 f   kernel32:KERNEL32.dll
 0001:00029546       _LeaveCriticalSection@4    1002a546 f   kernel32:KERNEL32.dll
 0001:0002954c       _ResetEvent@4              1002a54c f   kernel32:KERNEL32.dll
 0001:00029552       _ReleaseMutex@4            1002a552 f   kernel32:KERNEL32.dll
 0001:00029558       _WaitForSingleObject@8     1002a558 f   kernel32:KERNEL32.dll
 0001:0002955e       _GetCurrentThreadId@0      1002a55e f   kernel32:KERNEL32.dll
 0001:00029564       _DisableThreadLibraryCalls@4 1002a564 f   kernel32:KERNEL32.dll
 0001:0002956a       _FreeLibrary@4             1002a56a f   kernel32:KERNEL32.dll
 0001:00029570       _GetModuleFileNameW@12     1002a570 f   kernel32:KERNEL32.dll
 0001:00029576       _GetModuleHandleW@4        1002a576 f   kernel32:KERNEL32.dll
 0001:0002957c       _GetProcAddress@8          1002a57c f   kernel32:KERNEL32.dll
 0001:00029582       _LoadLibraryExW@12         1002a582 f   kernel32:KERNEL32.dll
 0001:00029588       _LoadResource@8            1002a588 f   kernel32:KERNEL32.dll
 0001:0002958e       _SizeofResource@8          1002a58e f   kernel32:KERNEL32.dll
 0001:00029594       _FindResourceW@12          1002a594 f   kernel32:KERNEL32.dll
 0001:0002959a       _GlobalAlloc@8             1002a59a f   kernel32:KERNEL32.dll
 0001:000295a0       _GlobalUnlock@4            1002a5a0 f   kernel32:KERNEL32.dll
 0001:000295a6       _GlobalLock@4              1002a5a6 f   kernel32:KERNEL32.dll
 0001:000295ac       _MulDiv@12                 1002a5ac f   kernel32:KERNEL32.dll
 0001:000295b2       _lstrcmpiW@8               1002a5b2 f   kernel32:KERNEL32.dll
 0001:000295b8       _DeleteFileW@4             1002a5b8 f   kernel32:KERNEL32.dll
 0001:000295be       _CloseHandle@4             1002a5be f   kernel32:KERNEL32.dll
 0001:000295c4       _SetEvent@4                1002a5c4 f   kernel32:KERNEL32.dll
 0001:000295ca       _CreateMutexW@12           1002a5ca f   kernel32:KERNEL32.dll
 0001:000295d0       _CreateEventW@16           1002a5d0 f   kernel32:KERNEL32.dll
 0001:000295d6       _GetCurrentProcessId@0     1002a5d6 f   kernel32:KERNEL32.dll
 0001:000295dc       _LocalFree@4               1002a5dc f   kernel32:KERNEL32.dll
 0001:000295e2       _FormatMessageW@28         1002a5e2 f   kernel32:KERNEL32.dll
 0001:000295e8       _GetActiveWindow@0         1002a5e8 f   user32:USER32.dll
 0001:000295ee       _MessageBoxW@16            1002a5ee f   user32:USER32.dll
 0001:000295f4       _UnregisterClassW@8        1002a5f4 f   user32:USER32.dll
 0001:000295fa       _PostMessageW@16           1002a5fa f   user32:USER32.dll
 0001:00029600       _DefWindowProcW@16         1002a600 f   user32:USER32.dll
 0001:00029606       _CallWindowProcW@20        1002a606 f   user32:USER32.dll
 0001:0002960c       _RegisterClassExW@4        1002a60c f   user32:USER32.dll
 0001:00029612       _GetClassInfoExW@12        1002a612 f   user32:USER32.dll
 0001:00029618       _CreateWindowExW@48        1002a618 f   user32:USER32.dll
 0001:0002961e       _IsWindow@4                1002a61e f   user32:USER32.dll
 0001:00029624       _IsChild@8                 1002a624 f   user32:USER32.dll
 0001:0002962a       _DestroyWindow@4           1002a62a f   user32:USER32.dll
 0001:00029630       _ShowWindow@8              1002a630 f   user32:USER32.dll
 0001:00029636       _SetWindowPos@28           1002a636 f   user32:USER32.dll
 0001:0002963c       _CharNextW@4               1002a63c f   user32:USER32.dll
 0001:00029642       _SetFocus@4                1002a642 f   user32:USER32.dll
 0001:00029648       _GetFocus@0                1002a648 f   user32:USER32.dll
 0001:0002964e       _GetKeyState@4             1002a64e f   user32:USER32.dll
 0001:00029654       _GetDC@4                   1002a654 f   user32:USER32.dll
 0001:0002965a       _ReleaseDC@8               1002a65a f   user32:USER32.dll
 0001:00029660       _BeginPaint@8              1002a660 f   user32:USER32.dll
 0001:00029666       _EndPaint@8                1002a666 f   user32:USER32.dll
 0001:0002966c       _SetWindowRgn@12           1002a66c f   user32:USER32.dll
 0001:00029672       _InvalidateRect@12         1002a672 f   user32:USER32.dll
 0001:00029678       _GetClientRect@8           1002a678 f   user32:USER32.dll
 0001:0002967e       _IntersectRect@12          1002a67e f   user32:USER32.dll
 0001:00029684       _UnionRect@12              1002a684 f   user32:USER32.dll
 0001:0002968a       _OffsetRect@12             1002a68a f   user32:USER32.dll
 0001:00029690       _EqualRect@8               1002a690 f   user32:USER32.dll
 0001:00029696       _PtInRect@12               1002a696 f   user32:USER32.dll
 0001:0002969c       _GetWindowLongW@8          1002a69c f   user32:USER32.dll
 0001:000296a2       _SetWindowLongW@12         1002a6a2 f   user32:USER32.dll
 0001:000296a8       _GetParent@4               1002a6a8 f   user32:USER32.dll
 0001:000296ae       _LoadCursorW@8             1002a6ae f   user32:USER32.dll
 0001:000296b4       _PeekMessageW@20           1002a6b4 f   user32:USER32.dll
 0001:000296ba       _RegisterClassW@4          1002a6ba f   user32:USER32.dll
 0001:000296c0       _LoadBitmapW@8             1002a6c0 f   user32:USER32.dll
 0001:000296c6       _CloseMetaFile@4           1002a6c6 f   gdi32:GDI32.dll
 0001:000296cc       _CreateDCW@16              1002a6cc f   gdi32:GDI32.dll
 0001:000296d2       _CreateMetaFileW@4         1002a6d2 f   gdi32:GDI32.dll
 0001:000296d8       _CreateRectRgnIndirect@4   1002a6d8 f   gdi32:GDI32.dll
 0001:000296de       _DeleteDC@4                1002a6de f   gdi32:GDI32.dll
 0001:000296e4       _DeleteMetaFile@4          1002a6e4 f   gdi32:GDI32.dll
 0001:000296ea       _GetDeviceCaps@8           1002a6ea f   gdi32:GDI32.dll
 0001:000296f0       _RestoreDC@8               1002a6f0 f   gdi32:GDI32.dll
 0001:000296f6       _SaveDC@4                  1002a6f6 f   gdi32:GDI32.dll
 0001:000296fc       _SetMapMode@8              1002a6fc f   gdi32:GDI32.dll
 0001:00029702       _LPtoDP@12                 1002a702 f   gdi32:GDI32.dll
 0001:00029708       _SetViewportOrgEx@16       1002a708 f   gdi32:GDI32.dll
 0001:0002970e       _SetWindowExtEx@16         1002a70e f   gdi32:GDI32.dll
 0001:00029714       _SetWindowOrgEx@16         1002a714 f   gdi32:GDI32.dll
 0001:0002971a       _BitBlt@36                 1002a71a f   gdi32:GDI32.dll
 0001:00029720       _CreateCompatibleDC@4      1002a720 f   gdi32:GDI32.dll
 0001:00029726       _DeleteObject@4            1002a726 f   gdi32:GDI32.dll
 0001:0002972c       _SelectObject@8            1002a72c f   gdi32:GDI32.dll
 0001:00029732       _GetObjectW@12             1002a732 f   gdi32:GDI32.dll
 0001:00029738       _RegCloseKey@4             1002a738 f   advapi32:ADVAPI32.dll
 0001:0002973e       _RegCreateKeyExW@36        1002a73e f   advapi32:ADVAPI32.dll
 0001:00029744       _RegDeleteKeyW@8           1002a744 f   advapi32:ADVAPI32.dll
 0001:0002974a       _RegDeleteValueW@8         1002a74a f   advapi32:ADVAPI32.dll
 0001:00029750       _RegEnumKeyExW@32          1002a750 f   advapi32:ADVAPI32.dll
 0001:00029756       _RegOpenKeyExW@20          1002a756 f   advapi32:ADVAPI32.dll
 0001:0002975c       _RegQueryInfoKeyW@48       1002a75c f   advapi32:ADVAPI32.dll
 0001:00029762       _RegSetValueExW@24         1002a762 f   advapi32:ADVAPI32.dll
 0001:00029768       _RegQueryValueExW@24       1002a768 f   advapi32:ADVAPI32.dll
 0001:0002976e       _CoCreateInstance@20       1002a76e f   ole32:ole32.dll
 0001:00029774       _StringFromGUID2@12        1002a774 f   ole32:ole32.dll
 0001:0002977a       _CoTaskMemAlloc@4          1002a77a f   ole32:ole32.dll
 0001:00029780       _CoTaskMemRealloc@8        1002a780 f   ole32:ole32.dll
 0001:00029786       _CoTaskMemFree@4           1002a786 f   ole32:ole32.dll
 0001:0002978c       _ReadClassStm@8            1002a78c f   ole32:ole32.dll
 0001:00029792       _WriteClassStm@8           1002a792 f   ole32:ole32.dll
 0001:00029798       _CreateDataAdviseHolder@4  1002a798 f   ole32:ole32.dll
 0001:0002979e       _OleSaveToStream@8         1002a79e f   ole32:ole32.dll
 0001:000297a4       _CreateOleAdviseHolder@4   1002a7a4 f   ole32:ole32.dll
 0001:000297aa       _OleRegGetUserType@12      1002a7aa f   ole32:ole32.dll
 0001:000297b0       _OleRegGetMiscStatus@12    1002a7b0 f   ole32:ole32.dll
 0001:000297b6       _OleRegEnumVerbs@8         1002a7b6 f   ole32:ole32.dll
 0001:000297bc       _CLSIDFromProgID@8         1002a7bc f   ole32:ole32.dll
 0001:000297c2       _SysAllocString@4          1002a7c2 f   oleaut32:OLEAUT32.dll
 0001:000297c8       _SysAllocStringLen@8       1002a7c8 f   oleaut32:OLEAUT32.dll
 0001:000297ce       _SysFreeString@4           1002a7ce f   oleaut32:OLEAUT32.dll
 0001:000297d4       _SysStringLen@4            1002a7d4 f   oleaut32:OLEAUT32.dll
 0001:000297da       _VariantClear@4            1002a7da f   oleaut32:OLEAUT32.dll
 0001:000297e0       _VariantCopyInd@8          1002a7e0 f   oleaut32:OLEAUT32.dll
 0001:000297e6       _VariantChangeType@16      1002a7e6 f   oleaut32:OLEAUT32.dll
 0001:000297ec       _SysStringByteLen@4        1002a7ec f   oleaut32:OLEAUT32.dll
 0001:000297f2       _SysAllocStringByteLen@8   1002a7f2 f   oleaut32:OLEAUT32.dll
 0001:000297f8       _VariantInit@4             1002a7f8 f   oleaut32:OLEAUT32.dll
 0001:000297fe       _VarUI4FromStr@16          1002a7fe f   oleaut32:OLEAUT32.dll
 0001:00029804       _LoadTypeLib@8             1002a804 f   oleaut32:OLEAUT32.dll
 0001:0002980a       _LoadRegTypeLib@20         1002a80a f   oleaut32:OLEAUT32.dll
 0001:00029810       _RegisterTypeLib@12        1002a810 f   oleaut32:OLEAUT32.dll
 0001:00029816       _UnRegisterTypeLib@20      1002a816 f   oleaut32:OLEAUT32.dll
 0001:0002981c       _OleCreatePropertyFrame@44 1002a81c f   oleaut32:OLEAUT32.dll
 0001:00029830       @_RTC_AllocaHelper@12      1002a830 f   LIBCMTD:stack.obj
 0001:00029870       @_RTC_CheckStackVars2@12   1002a870 f   LIBCMTD:stack.obj
 0001:00029950       @_RTC_CheckStackVars@8     1002a950 f   LIBCMTD:stack.obj
 0001:000299c0       __RTC_CheckEsp             1002a9c0 f   LIBCMTD:stack.obj
 0001:00029a00       @__security_check_cookie@4 1002aa00 f   LIBCMTD:secchk.obj
 0001:00029a20       __CRT_RTC_INIT             1002aa20 f   LIBCMTD:init.obj
 0001:00029a30       __CRT_RTC_INITW            1002aa30 f   LIBCMTD:init.obj
 0001:00029a40       __RTC_InitBase             1002aa40 f   LIBCMTD:init.obj
 0001:00029a70       __RTC_Shutdown             1002aa70 f   LIBCMTD:init.obj
 0001:00029a90       ??_U@YAPAXI@Z              1002aa90 f   LIBCMTD:new_array.obj
 0001:00029ab0       ??3@YAXPAXI@Z              1002aab0 f   LIBCMTD:delete_scalar_size.obj
 0001:00029ad0       ??_V@YAXPAX@Z              1002aad0 f   LIBCMTD:delete_array.obj
 0001:00029af0       ??_V@YAXPAXI@Z             1002aaf0 f   LIBCMTD:delete_array_size.obj
 0001:00029b10       ?configure_argv@__scrt_narrow_argv_policy@@SAHXZ 1002ab10 f i LIBCMTD:utility.obj
 0001:00029bc0       ?initialize_environment@__scrt_narrow_environment_policy@@SAHXZ 1002abc0 f i LIBCMTD:utility.obj
 0001:00029c40       _NtCurrentTeb              1002ac40 f i LIBCMTD:utility.obj
 0001:00029c50       ___scrt_acquire_startup_lock 1002ac50 f   LIBCMTD:utility.obj
 0001:00029ca0       ___scrt_dllmain_after_initialize_c 1002aca0 f   LIBCMTD:utility.obj
 0001:00029cd0       ___scrt_dllmain_before_initialize_c 1002acd0 f   LIBCMTD:utility.obj
 0001:00029cf0       ___scrt_dllmain_crt_thread_attach 1002acf0 f   LIBCMTD:utility.obj
 0001:00029d20       ___scrt_dllmain_crt_thread_detach 1002ad20 f   LIBCMTD:utility.obj
 0001:00029d40       ___scrt_dllmain_exception_filter 1002ad40 f   LIBCMTD:utility.obj
 0001:00029d90       ___scrt_dllmain_uninitialize_c 1002ad90 f   LIBCMTD:utility.obj
 0001:00029dc0       ___scrt_dllmain_uninitialize_critical 1002adc0 f   LIBCMTD:utility.obj
 0001:00029de0       ___scrt_initialize_crt     1002ade0 f   LIBCMTD:utility.obj
 0001:00029e30       ___scrt_initialize_onexit_tables 1002ae30 f   LIBCMTD:utility.obj
 0001:00029f10       ___scrt_is_nonwritable_in_current_image 1002af10 f   LIBCMTD:utility.obj
 0001:0002a040       ___scrt_release_startup_lock 1002b040 f   LIBCMTD:utility.obj
 0001:0002a070       ___scrt_uninitialize_crt   1002b070 f   LIBCMTD:utility.obj
 0001:0002a0b0       __onexit                   1002b0b0 f   LIBCMTD:utility.obj
 0001:0002a120       _at_quick_exit             1002b120 f   LIBCMTD:utility.obj
 0001:0002a160       _atexit                    1002b160 f   LIBCMTD:utility.obj
 0001:0002a190       ??3@YAXPAX@Z               1002b190 f   LIBCMTD:delete_scalar.obj
 0001:0002a1b0       ___raise_securityfailure   1002b1b0 f   LIBCMTD:gs_report.obj
 0001:0002a1e0       ___report_gsfailure        1002b1e0 f   LIBCMTD:gs_report.obj
 0001:0002a2f0       ___report_rangecheckfailure 1002b2f0 f   LIBCMTD:gs_report.obj
 0001:0002a300       ___report_securityfailure  1002b300 f   LIBCMTD:gs_report.obj
 0001:0002a3e0       ___report_securityfailureEx 1002b3e0 f   LIBCMTD:gs_report.obj
 0001:0002a630       __Init_thread_abort        1002b630 f   LIBCMTD:thread_safe_statics.obj
 0001:0002a650       __Init_thread_footer       1002b650 f   LIBCMTD:thread_safe_statics.obj
 0001:0002a6a0       __Init_thread_header       1002b6a0 f   LIBCMTD:thread_safe_statics.obj
 0001:0002a710       __Init_thread_lock         1002b710 f   LIBCMTD:thread_safe_statics.obj
 0001:0002a720       __Init_thread_notify       1002b720 f   LIBCMTD:thread_safe_statics.obj
 0001:0002a770       __Init_thread_unlock       1002b770 f   LIBCMTD:thread_safe_statics.obj
 0001:0002a780       __Init_thread_wait         1002b780 f   LIBCMTD:thread_safe_statics.obj
 0001:0002a810       ??2@YAPAXIABUnothrow_t@std@@@Z 1002b810 f   LIBCMTD:new_scalar_nothrow.obj
 0001:0002a890       ??_U@YAPAXIABUnothrow_t@std@@@Z 1002b890 f   LIBCMTD:new_array_nothrow.obj
 0001:0002a8b0       __allmul                   1002b8b0 f   LIBCMTD:llmul.obj
 0001:0002a8f0       __alloca_probe_16          1002b8f0 f   LIBCMTD:alloca16.obj
 0001:0002a906       __alloca_probe_8           1002b906     LIBCMTD:alloca16.obj
 0001:0002a920       __chkstk                   1002b920 f   LIBCMTD:chkstk.obj
 0001:0002a920       __alloca_probe             1002b920 f   LIBCMTD:chkstk.obj
 0001:0002ae00       __CRT_INIT@12              1002be00 f   LIBCMTD:dll_dllmain.obj
 0001:0002ae20       __DllMainCRTStartup@12     1002be20 f   LIBCMTD:dll_dllmain.obj
 0001:0002aee0       ?_RTC_AllocaFailure@@YAXPAXPAU_RTC_ALLOCA_NODE@@H@Z 1002bee0 f   LIBCMTD:error.obj
 0001:0002afd0       ?_RTC_Failure@@YAXPAXH@Z   1002bfd0 f   LIBCMTD:error.obj
 0001:0002b020       ?_RTC_StackFailure@@YAXPAXPBD@Z 1002c020 f   LIBCMTD:error.obj
 0001:0002b3e0       __RTC_UninitUse            1002c3e0 f   LIBCMTD:error.obj
 0001:0002b490       __vsprintf_s_l             1002c490 f i LIBCMTD:error.obj
 0001:0002b4c0       _sprintf_s                 1002c4c0 f i LIBCMTD:error.obj
 0001:0002b4e0       ?_RTC_GetErrorFunc@@YAP6AHHPBDH00ZZPBX@Z 1002c4e0 f   LIBCMTD:userapi.obj
 0001:0002b4f0       ?_RTC_GetErrorFuncW@@YAP6AHHPB_WH00ZZPBX@Z 1002c4f0 f   LIBCMTD:userapi.obj
 0001:0002b500       __RTC_GetErrDesc           1002c500 f   LIBCMTD:userapi.obj
 0001:0002b520       __RTC_NumErrors            1002c520 f   LIBCMTD:userapi.obj
 0001:0002b530       __RTC_SetErrorFunc         1002c530 f   LIBCMTD:userapi.obj
 0001:0002b550       __RTC_SetErrorFuncW        1002c550 f   LIBCMTD:userapi.obj
 0001:0002b570       __RTC_SetErrorType         1002c570 f   LIBCMTD:userapi.obj
 0001:0002b5a0       ??2@YAPAXI@Z               1002c5a0 f   LIBCMTD:new_scalar.obj
 0001:0002b5f0       ___isa_available_init      1002c5f0 f   LIBCMTD:cpu_disp.obj
 0001:0002b8d0       __get_startup_argv_mode    1002c8d0 f   LIBCMTD:argv_mode.obj
 0001:0002b8e0       ___scrt_is_ucrt_dll_in_use 1002c8e0 f   LIBCMTD:ucrt_detection.obj
 0001:0002b910       ___scrt_fastfail           1002c910 f   LIBCMTD:utility_desktop.obj
 0001:0002ba50       ___scrt_get_show_window_mode 1002ca50 f   LIBCMTD:utility_desktop.obj
 0001:0002ba90       ___scrt_initialize_mta     1002ca90 f   LIBCMTD:utility_desktop.obj
 0001:0002baa0       ___scrt_initialize_winrt   1002caa0 f   LIBCMTD:utility_desktop.obj
 0001:0002bab0       ___scrt_is_managed_app     1002cab0 f   LIBCMTD:utility_desktop.obj
 0001:0002bb40       ___scrt_set_unhandled_exception_filter 1002cb40 f   LIBCMTD:utility_desktop.obj
 0001:0002bb50       ___scrt_exe_initialize_mta 1002cb50 f   LIBCMTD:utility_desktop.obj
 0001:0002bb50       ___scrt_stub_for_initialize_mta 1002cb50 f   LIBCMTD:utility_desktop.obj
 0001:0002bb60       ___scrt_unhandled_exception_filter@4 1002cb60 f   LIBCMTD:utility_desktop.obj
 0001:0002bbc0       __crt_debugger_hook        1002cbc0 f   LIBCMTD:utility_desktop.obj
 0001:0002bbd0       @_guard_check_icall_nop@4  1002cbd0 f i LIBCMTD:guard_support.obj
 0001:0002bbe0       _ReadNoFence               1002cbe0 f i LIBCMTD:guard_support.obj
 0001:0002bc00       _ReadPointerNoFence        1002cc00 f i LIBCMTD:guard_support.obj
 0001:0002bc20       __guard_icall_checks_enforced 1002cc20 f i LIBCMTD:guard_support.obj
 0001:0002bcc0       ___security_init_cookie    1002ccc0 f   LIBCMTD:gs_support.obj
 0001:0002bd40       ?__scrt_initialize_type_info@@YAXXZ 1002cd40 f   LIBCMTD:tncleanup.obj
 0001:0002bd50       ?__scrt_uninitialize_type_info@@YAXXZ 1002cd50 f   LIBCMTD:tncleanup.obj
 0001:0002bd70       ___local_stdio_scanf_options 1002cd70 f i LIBCMTD:default_local_stdio_options.obj
 0001:0002bd80       ___scrt_initialize_default_local_stdio_options 1002cd80 f   LIBCMTD:default_local_stdio_options.obj
 0001:0002bdc0       ___scrt_get_dyn_tls_init_callback 1002cdc0 f   LIBCMTD:dyn_tls_init.obj
 0001:0002bdd0       __RTC_Initialize           1002cdd0 f   LIBCMTD:initsect.obj
 0001:0002be00       __RTC_Terminate            1002ce00 f   LIBCMTD:initsect.obj
 0001:0002c2b0       ?_RTC_GetSrcLine@@YAHPAEPA_WKPAH1K@Z 1002d2b0 f   LIBCMTD:pdblkup.obj
 0001:0002c640       __except_handler4_noexcept 1002d640 f   LIBCMTD:chandler4_noexcept.obj
 0001:0002c690       ??0bad_alloc@std@@AAE@QBD@Z 1002d690 f i LIBCMTD:throw_bad_alloc.obj
 0001:0002c6c0       ??0bad_alloc@std@@QAE@ABV01@@Z 1002d6c0 f i LIBCMTD:throw_bad_alloc.obj
 0001:0002c6f0       ??0bad_alloc@std@@QAE@XZ   1002d6f0 f i LIBCMTD:throw_bad_alloc.obj
 0001:0002c720       ??0bad_array_new_length@std@@QAE@ABV01@@Z 1002d720 f i LIBCMTD:throw_bad_alloc.obj
 0001:0002c750       ??0bad_array_new_length@std@@QAE@XZ 1002d750 f i LIBCMTD:throw_bad_alloc.obj
 0001:0002c780       ??0exception@std@@QAE@ABV01@@Z 1002d780 f i LIBCMTD:throw_bad_alloc.obj
 0001:0002c7c0       ??0exception@std@@QAE@QBDH@Z 1002d7c0 f i LIBCMTD:throw_bad_alloc.obj
 0001:0002c7f0       ??1bad_alloc@std@@UAE@XZ   1002d7f0 f i LIBCMTD:throw_bad_alloc.obj
 0001:0002c810       ??1bad_array_new_length@std@@UAE@XZ 1002d810 f i LIBCMTD:throw_bad_alloc.obj
 0001:0002c830       ??1exception@std@@UAE@XZ   1002d830 f i LIBCMTD:throw_bad_alloc.obj
 0001:0002c860       ??_Ebad_alloc@std@@UAEPAXI@Z 1002d860 f i LIBCMTD:throw_bad_alloc.obj
 0001:0002c860       ??_Gbad_alloc@std@@UAEPAXI@Z 1002d860 f i LIBCMTD:throw_bad_alloc.obj
 0001:0002c890       ??_Gbad_array_new_length@std@@UAEPAXI@Z 1002d890 f i LIBCMTD:throw_bad_alloc.obj
 0001:0002c890       ??_Ebad_array_new_length@std@@UAEPAXI@Z 1002d890 f i LIBCMTD:throw_bad_alloc.obj
 0001:0002c8c0       ??_Eexception@std@@UAEPAXI@Z 1002d8c0 f i LIBCMTD:throw_bad_alloc.obj
 0001:0002c8c0       ??_Gexception@std@@UAEPAXI@Z 1002d8c0 f i LIBCMTD:throw_bad_alloc.obj
 0001:0002c8f0       ?__scrt_throw_std_bad_alloc@@YAXXZ 1002d8f0 f   LIBCMTD:throw_bad_alloc.obj
 0001:0002c910       ?__scrt_throw_std_bad_array_new_length@@YAXXZ 1002d910 f   LIBCMTD:throw_bad_alloc.obj
 0001:0002c930       ?what@exception@std@@UBEPBDXZ 1002d930 f i LIBCMTD:throw_bad_alloc.obj
 0001:0002c960       ??1type_info@@UAE@XZ       1002d960 f   LIBCMTD:std_type_info_static.obj
 0001:0002c980       ??_Etype_info@@UAEPAXI@Z   1002d980 f i LIBCMTD:std_type_info_static.obj
 0001:0002c980       ??_Gtype_info@@UAEPAXI@Z   1002d980 f i LIBCMTD:std_type_info_static.obj
 0001:0002c9ae       ??$?2PAUHINSTANCE__@@@Wrapper@?$CSimpleArray@PAUHINSTANCE__@@V?$CSimpleArrayEqualHelper@PAUHINSTANCE__@@@ATL@@@ATL@@SAPAXIPAPAUHINSTANCE__@@@Z 1002d9ae f i atls:atlbase.obj
 0001:0002c9b6       ??0?$CSimpleArray@PAUHINSTANCE__@@V?$CSimpleArrayEqualHelper@PAUHINSTANCE__@@@ATL@@@ATL@@QAE@XZ 1002d9b6 f i atls:atlbase.obj
 0001:0002c9c3       ??0CAtlBaseModule@ATL@@QAE@XZ 1002d9c3 f   atls:atlbase.obj
 0001:0002ca16       ??0Wrapper@?$CSimpleArray@PAUHINSTANCE__@@V?$CSimpleArrayEqualHelper@PAUHINSTANCE__@@@ATL@@@ATL@@QAE@ABQAUHINSTANCE__@@@Z 1002da16 f i atls:atlbase.obj
 0001:0002ca26       ??0_ATL_BASE_MODULE70@ATL@@QAE@XZ 1002da26 f i atls:atlbase.obj
 0001:0002ca49       ??1?$CSimpleArray@PAUHINSTANCE__@@V?$CSimpleArrayEqualHelper@PAUHINSTANCE__@@@ATL@@@ATL@@QAE@XZ 1002da49 f i atls:atlbase.obj
 0001:0002ca4e       ??1CAtlBaseModule@ATL@@QAE@XZ 1002da4e f   atls:atlbase.obj
 0001:0002ca64       ??1_ATL_BASE_MODULE70@ATL@@QAE@XZ 1002da64 f i atls:atlbase.obj
 0001:0002ca6c       ??A?$CSimpleArray@PAUHINSTANCE__@@V?$CSimpleArrayEqualHelper@PAUHINSTANCE__@@@ATL@@@ATL@@QAEAAPAUHINSTANCE__@@H@Z 1002da6c f i atls:atlbase.obj
 0001:0002ca91       ?Add@?$CSimpleArray@PAUHINSTANCE__@@V?$CSimpleArrayEqualHelper@PAUHINSTANCE__@@@ATL@@@ATL@@QAEHABQAUHINSTANCE__@@@Z 1002da91 f i atls:atlbase.obj
 0001:0002cb13       ?AddResourceInstance@CAtlBaseModule@ATL@@QAE_NPAUHINSTANCE__@@@Z 1002db13 f   atls:atlbase.obj
 0001:0002cb46       ?GetHInstanceAt@CAtlBaseModule@ATL@@QAEPAUHINSTANCE__@@H@Z 1002db46 f   atls:atlbase.obj
 0001:0002cb8b       ?GetSize@?$CSimpleArray@PAUHINSTANCE__@@V?$CSimpleArrayEqualHelper@PAUHINSTANCE__@@@ATL@@@ATL@@QBEHXZ 1002db8b f i atls:atlbase.obj
 0001:0002cb8f       ?InternalSetAtIndex@?$CSimpleArray@PAUHINSTANCE__@@V?$CSimpleArrayEqualHelper@PAUHINSTANCE__@@@ATL@@@ATL@@QAEXHABQAUHINSTANCE__@@@Z 1002db8f f i atls:atlbase.obj
 0001:0002cba9       ?RemoveAll@?$CSimpleArray@PAUHINSTANCE__@@V?$CSimpleArrayEqualHelper@PAUHINSTANCE__@@@ATL@@@ATL@@QAEXXZ 1002dba9 f i atls:atlbase.obj
 0001:0002cbc6       ?RemoveAt@?$CSimpleArray@PAUHINSTANCE__@@V?$CSimpleArrayEqualHelper@PAUHINSTANCE__@@@ATL@@@ATL@@QAEHH@Z 1002dbc6 f i atls:atlbase.obj
 0001:0002cc14       ?RemoveResourceInstance@CAtlBaseModule@ATL@@QAE_NPAUHINSTANCE__@@@Z 1002dc14 f   atls:atlbase.obj
 0001:0002cc71       ?memmove_s@Checked@ATL@@YAXPAXIPBXI@Z 1002dc71 f i atls:atlbase.obj
 0001:0002cfce       ?GetCodeAddress@_stdcallthunk@ATL@@QAEPAXXZ 1002dfce f i atls:atlthunk.obj
 0001:0002cff8       ?Init@_stdcallthunk@ATL@@QAEHKPAX@Z 1002dff8 f i atls:atlthunk.obj
 0001:0002d02d       ?__AllocStdCallThunk@@YGPAXXZ 1002e02d f   atls:atlthunk.obj
 0001:0002d032       ?__AllocStdCallThunk@ATL@@YGPAXXZ 1002e032 f   atls:atlthunk.obj
 0001:0002d037       ?__AllocStdCallThunk_cmn@@YAPAXXZ 1002e037 f   atls:atlthunk.obj
 0001:0002d0fd       ?__FreeStdCallThunk@@YGXPAX@Z 1002e0fd f   atls:atlthunk.obj
 0001:0002d10d       ?__FreeStdCallThunk@ATL@@YGXPAX@Z 1002e10d f   atls:atlthunk.obj
 0001:0002d11d       ?__FreeStdCallThunk_cmn@@YAXPAX@Z 1002e11d f   atls:atlthunk.obj
 0001:0002d1b8       _AtlThunk_AllocateData@0   1002e1b8 f   atls:atlthunk.obj
 0001:0002d21d       _AtlThunk_DataToCode@4     1002e21d f   atls:atlthunk.obj
 0001:0002d264       _AtlThunk_FreeData@4       1002e264 f   atls:atlthunk.obj
 0001:0002d2ba       _AtlThunk_InitData@12      1002e2ba f   atls:atlthunk.obj
 0001:0002d309       _MemoryBarrier             1002e309 f i atls:atlthunk.obj
 0001:0002d317       __InlineInterlockedCompareExchangePointer 1002e317 f i atls:atlthunk.obj
 0001:0002d330       _memset                    1002e330 f   libvcruntimed:memset.obj
 0001:0002d490       ??$__crt_interlocked_exchange_pointer@$$A6AXXZP6AXXZ@@YAP6AXXZPDS6AXXZQ6AXXZ@Z 1002e490 f i libvcruntimed:purevirt.obj
 0001:0002d4a0       ??$__crt_interlocked_read_pointer@$$A6AXXZ@@YAP6AXXZPDS6AXXZ@Z 1002e4a0 f i libvcruntimed:purevirt.obj
 0001:0002d4c0       ?__crt_interlocked_read_32@@YAHPDH@Z 1002e4c0 f i libvcruntimed:purevirt.obj
 0001:0002d4e0       __get_purecall_handler     1002e4e0 f   libvcruntimed:purevirt.obj
 0001:0002d500       __purecall                 1002e500 f   libvcruntimed:purevirt.obj
 0001:0002d530       __set_purecall_handler     1002e530 f   libvcruntimed:purevirt.obj
 0001:0002d700       _memcmp                    1002e700 f   libvcruntimed:memcmp.obj
 0001:0002dfd0       _memcpy                    1002efd0 f   libvcruntimed:memcpy.obj
 0001:0002e550       _wcsstr                    1002f550 f   libvcruntimed:wcsstr.obj
 0001:0002ea80       __except_handler4          1002fa80 f   libvcruntimed:chandler4.obj
 0001:0002ec70       ___vcrt_initialize         1002fc70 f   libvcruntimed:initialization.obj
 0001:0002ecb0       ___vcrt_thread_attach      1002fcb0 f   libvcruntimed:initialization.obj
 0001:0002ecd0       ___vcrt_thread_detach      1002fcd0 f   libvcruntimed:initialization.obj
 0001:0002ecf0       ___vcrt_uninitialize       1002fcf0 f   libvcruntimed:initialization.obj
 0001:0002ed10       ___vcrt_uninitialize_critical 1002fd10 f   libvcruntimed:initialization.obj
 0001:0002ed30       ??$?0AAViterator@TryBlockMap@__FrameHandler3@@AAV012@$0A@@?$pair@Viterator@TryBlockMap@__FrameHandler3@@V123@@std@@QAE@AAViterator@TryBlockMap@__FrameHandler3@@0@Z 1002fd30 f i libvcruntimed:trnsctrl.obj
 0001:0002ed80       ??$forward@AAViterator@TryBlockMap@__FrameHandler3@@@std@@YAAAViterator@TryBlockMap@__FrameHandler3@@AAV123@@Z 1002fd80 f i libvcruntimed:trnsctrl.obj
 0001:0002ed90       ??0iterator@TryBlockMap@__FrameHandler3@@QAE@AAV12@I@Z 1002fd90 f i libvcruntimed:trnsctrl.obj
 0001:0002edc0       ?GetRangeOfTrysToCheck@__FrameHandler3@@SA?AU?$pair@Viterator@TryBlockMap@__FrameHandler3@@V123@@std@@AAVTryBlockMap@1@HPAXPBU_s_FuncInfo@@H@Z 1002fdc0 f   libvcruntimed:trnsctrl.obj
 0001:0002eea0       ?_CallCatchBlock2@@YAPAXPAUEHRegistrationNode@@PBU_s_FuncInfo@@PAXHK@Z 1002fea0 f   libvcruntimed:trnsctrl.obj
 0001:0002ef10       ?_CallSETranslator@@YAHPAUEHExceptionRecord@@PAUEHRegistrationNode@@PAX2PBU_s_FuncInfo@@H1@Z 1002ff10 f   libvcruntimed:trnsctrl.obj
 0001:0002f010       ?_JumpToContinuation@@YGXPAXPAUEHRegistrationNode@@@Z 10030010 f   libvcruntimed:trnsctrl.obj
 0001:0002f050       ?_UnwindNestedFrames@@YGXPAUEHRegistrationNode@@PAUEHExceptionRecord@@@Z 10030050 f   libvcruntimed:trnsctrl.obj
 0001:0002f0b0       __CatchGuardHandler        100300b0 f   libvcruntimed:trnsctrl.obj
 0001:0002f100       __CreateFrameInfo          10030100 f   libvcruntimed:trnsctrl.obj
 0001:0002f130       __FindAndUnlinkFrame       10030130 f   libvcruntimed:trnsctrl.obj
 0001:0002f1b0       __TranslatorGuardHandler   100301b0 f   libvcruntimed:trnsctrl.obj
 0001:0002f260       ___CxxFrameHandler         10030260 f   libvcruntimed:trnsctrl.obj
 0001:0002f2a0       ___CxxFrameHandler2        100302a0 f   libvcruntimed:trnsctrl.obj
 0001:0002f2e0       ___CxxFrameHandler3        100302e0 f   libvcruntimed:trnsctrl.obj
 0001:0002f320       ___CxxLongjmpUnwind@4      10030320 f   libvcruntimed:trnsctrl.obj
 0001:0002f360       ?<lambda_invoker_cdecl>@_Closure_wrapper_b3626920_1@@CAPAXI@Z 10030360 f i libvcruntimed:std_type_info.obj
 0001:0002f370       ?<lambda_invoker_cdecl>@_Closure_wrapper_b3626920_2@@CAXQAX@Z 10030370 f i libvcruntimed:std_type_info.obj
 0001:0002f380       ??$?RD@__crt_internal_free_policy@@QBEXQBD@Z 10030380 f i libvcruntimed:std_type_info.obj
 0001:0002f3a0       ??$?RX@__crt_internal_free_policy@@QBEXQBX@Z 100303a0 f i libvcruntimed:std_type_info.obj
 0001:0002f3c0       ??$__crt_interlocked_compare_exchange_pointer@$$CBDPAD$$T@@YAPBDPDSBDQAD$$T@Z 100303c0 f i libvcruntimed:std_type_info.obj
 0001:0002f3e0       ??$__crt_interlocked_read_pointer@$$CBD@@YAPBDPDSBD@Z 100303e0 f i libvcruntimed:std_type_info.obj
 0001:0002f400       ??0?$__crt_unique_heap_ptr@DU__crt_internal_free_policy@@@@QAE@QAD@Z 10030400 f i libvcruntimed:std_type_info.obj
 0001:0002f420       ??0?$__crt_unique_heap_ptr@XU__crt_internal_free_policy@@@@QAE@QAX@Z 10030420 f i libvcruntimed:std_type_info.obj
 0001:0002f440       ??1?$__crt_unique_heap_ptr@DU__crt_internal_free_policy@@@@QAE@XZ 10030440 f i libvcruntimed:std_type_info.obj
 0001:0002f460       ??1?$__crt_unique_heap_ptr@XU__crt_internal_free_policy@@@@QAE@XZ 10030460 f i libvcruntimed:std_type_info.obj
 0001:0002f480       ??B?$__crt_unique_heap_ptr@DU__crt_internal_free_policy@@@@QBE_NXZ 10030480 f i libvcruntimed:std_type_info.obj
 0001:0002f4a0       ??B?$__crt_unique_heap_ptr@XU__crt_internal_free_policy@@@@QBE_NXZ 100304a0 f i libvcruntimed:std_type_info.obj
 0001:0002f4c0       ??B_Closure_wrapper_b3626920_1@@QBEP6APAXI@ZXZ 100304c0 f i libvcruntimed:std_type_info.obj
 0001:0002f4d0       ??B_Closure_wrapper_b3626920_2@@QBEP6AXQAX@ZXZ 100304d0 f i libvcruntimed:std_type_info.obj
 0001:0002f530       ?detach@?$__crt_unique_heap_ptr@XU__crt_internal_free_policy@@@@QAEPAXXZ 10030530 f i libvcruntimed:std_type_info.obj
 0001:0002f560       ?get@?$__crt_unique_heap_ptr@DU__crt_internal_free_policy@@@@QBEPADXZ 10030560 f i libvcruntimed:std_type_info.obj
 0001:0002f570       ?get@?$__crt_unique_heap_ptr@XU__crt_internal_free_policy@@@@QBEPAXXZ 10030570 f i libvcruntimed:std_type_info.obj
 0001:0002f580       ?is_valid@?$__crt_unique_heap_ptr@DU__crt_internal_free_policy@@@@QBE_NXZ 10030580 f i libvcruntimed:std_type_info.obj
 0001:0002f5b0       ?is_valid@?$__crt_unique_heap_ptr@XU__crt_internal_free_policy@@@@QBE_NXZ 100305b0 f i libvcruntimed:std_type_info.obj
 0001:0002f5e0       ?release@?$__crt_unique_heap_ptr@DU__crt_internal_free_policy@@@@QAEXXZ 100305e0 f i libvcruntimed:std_type_info.obj
 0001:0002f610       ?release@?$__crt_unique_heap_ptr@XU__crt_internal_free_policy@@@@QAEXXZ 10030610 f i libvcruntimed:std_type_info.obj
 0001:0002f640       ___std_type_info_compare   10030640 f   libvcruntimed:std_type_info.obj
 0001:0002f670       ___std_type_info_destroy_list 10030670 f   libvcruntimed:std_type_info.obj
 0001:0002f6b0       ___std_type_info_hash      100306b0 f   libvcruntimed:std_type_info.obj
 0001:0002f710       ___std_type_info_name      10030710 f   libvcruntimed:std_type_info.obj
 0001:0002f8f0       ___vcrt_GetModuleFileNameW 100308f0 f   libvcruntimed:winapi_thunks.obj
 0001:0002f910       ___vcrt_GetModuleHandleW   10030910 f   libvcruntimed:winapi_thunks.obj
 0001:0002f920       ___vcrt_LoadLibraryExW     10030920 f   libvcruntimed:winapi_thunks.obj
 0001:0002f940       ??$?RD@__crt_public_free_policy@@QBEXQBD@Z 10030940 f i libvcruntimed:std_exception.obj
 0001:0002f960       ??0?$__crt_unique_heap_ptr@DU__crt_public_free_policy@@@@QAE@QAD@Z 10030960 f i libvcruntimed:std_exception.obj
 0001:0002f980       ??1?$__crt_unique_heap_ptr@DU__crt_public_free_policy@@@@QAE@XZ 10030980 f i libvcruntimed:std_exception.obj
 0001:0002f9a0       ??B?$__crt_unique_heap_ptr@DU__crt_public_free_policy@@@@QBE_NXZ 100309a0 f i libvcruntimed:std_exception.obj
 0001:0002f9c0       ?detach@?$__crt_unique_heap_ptr@DU__crt_public_free_policy@@@@QAEPADXZ 100309c0 f i libvcruntimed:std_exception.obj
 0001:0002f9f0       ?get@?$__crt_unique_heap_ptr@DU__crt_public_free_policy@@@@QBEPADXZ 100309f0 f i libvcruntimed:std_exception.obj
 0001:0002fa00       ?is_valid@?$__crt_unique_heap_ptr@DU__crt_public_free_policy@@@@QBE_NXZ 10030a00 f i libvcruntimed:std_exception.obj
 0001:0002fa30       ?release@?$__crt_unique_heap_ptr@DU__crt_public_free_policy@@@@QAEXXZ 10030a30 f i libvcruntimed:std_exception.obj
 0001:0002fa60       ___std_exception_copy      10030a60 f   libvcruntimed:std_exception.obj
 0001:0002fb50       ___std_exception_destroy   10030b50 f   libvcruntimed:std_exception.obj
 0001:0002fb80       __CxxThrowException@8      10030b80 f   libvcruntimed:throw.obj
 0001:0002fc40       _memmove                   10030c40 f   libvcruntimed:memmove.obj
 0001:000301c0       __local_unwind4            100311c0 f   libvcruntimed:exsup4.obj
 0001:00030298       __seh_longjmp_unwind4@4    10031298 f   libvcruntimed:exsup4.obj
 0001:000302c0       @_EH4_CallFilterFunc@8     100312c0 f   libvcruntimed:exsup4.obj
 0001:000302d8       @_EH4_TransferToHandler@8  100312d8 f   libvcruntimed:exsup4.obj
 0001:000302f4       @_EH4_GlobalUnwind2@8      100312f4 f   libvcruntimed:exsup4.obj
 0001:00030310       @_EH4_LocalUnwind@16       10031310 f   libvcruntimed:exsup4.obj
 0001:00030340       ___except_validate_context_record 10031340 f   libvcruntimed:jbcxrval.obj
 0001:00030390       ___except_validate_jump_buffer 10031390 f   libvcruntimed:jbcxrval.obj
 0001:000303b0       ___except_validate_jump_buffer_common 100313b0 f i libvcruntimed:jbcxrval.obj
 0001:00030410       ??$?RU__vcrt_ptd@@@__crt_internal_free_policy@@QBEXQBU__vcrt_ptd@@@Z 10031410 f i libvcruntimed:per_thread_data.obj
 0001:00030430       ??0?$__crt_unique_heap_ptr@U__vcrt_ptd@@U__crt_internal_free_policy@@@@QAE@QAU__vcrt_ptd@@@Z 10031430 f i libvcruntimed:per_thread_data.obj
 0001:00030470       ??1?$__crt_unique_heap_ptr@U__vcrt_ptd@@U__crt_internal_free_policy@@@@QAE@XZ 10031470 f i libvcruntimed:per_thread_data.obj
 0001:000304b0       ??B?$__crt_unique_heap_ptr@U__vcrt_ptd@@U__crt_internal_free_policy@@@@QBE_NXZ 100314b0 f i libvcruntimed:per_thread_data.obj
 0001:000304d0       ?detach@?$__crt_unique_heap_ptr@U__vcrt_ptd@@U__crt_internal_free_policy@@@@QAEPAU__vcrt_ptd@@XZ 100314d0 f i libvcruntimed:per_thread_data.obj
 0001:00030500       ?get@?$__crt_unique_heap_ptr@U__vcrt_ptd@@U__crt_internal_free_policy@@@@QBEPAU__vcrt_ptd@@XZ 10031500 f i libvcruntimed:per_thread_data.obj
 0001:00030510       ?is_valid@?$__crt_unique_heap_ptr@U__vcrt_ptd@@U__crt_internal_free_policy@@@@QBE_NXZ 10031510 f i libvcruntimed:per_thread_data.obj
 0001:00030540       ?release@?$__crt_unique_heap_ptr@U__vcrt_ptd@@U__crt_internal_free_policy@@@@QAEXXZ 10031540 f i libvcruntimed:per_thread_data.obj
 0001:000305a0       ___vcrt_freefls@4          100315a0 f   libvcruntimed:per_thread_data.obj
 0001:000305d0       ___vcrt_freeptd            100315d0 f   libvcruntimed:per_thread_data.obj
 0001:00030630       ___vcrt_getptd             10031630 f   libvcruntimed:per_thread_data.obj
 0001:00030650       ___vcrt_getptd_noexit      10031650 f   libvcruntimed:per_thread_data.obj
 0001:000307b0       ___vcrt_getptd_noinit      100317b0 f   libvcruntimed:per_thread_data.obj
 0001:00030810       ___vcrt_initialize_ptd     10031810 f   libvcruntimed:per_thread_data.obj
 0001:00030860       ___vcrt_uninitialize_ptd   10031860 f   libvcruntimed:per_thread_data.obj
 0001:00030890       ___vcrt_initialize_locks   10031890 f   libvcruntimed:locks.obj
 0001:000308f0       ___vcrt_lock               100318f0 f   libvcruntimed:locks.obj
 0001:00030910       ___vcrt_uninitialize_locks 10031910 f   libvcruntimed:locks.obj
 0001:00030960       ___vcrt_unlock             10031960 f   libvcruntimed:locks.obj
 0001:00031590       ??$TypeMatchHelper@V__FrameHandler3@@@@YAHPBU_s_HandlerType@@PBU_s_CatchableType@@PBU_s_ThrowInfo@@@Z 10032590 f i libvcruntimed:frame.obj
 0001:00031670       ??$__InternalCxxFrameHandler@V__FrameHandler3@@@@YA?AW4_EXCEPTION_DISPOSITION@@PAUEHExceptionRecord@@PAUEHRegistrationNode@@PAU_CONTEXT@@PAXPBU_s_FuncInfo@@H1E@Z 10032670 f i libvcruntimed:frame.obj
 0001:00031850       ??0HandlerMap@__FrameHandler3@@QAE@PBU_s_TryBlockMapEntry@@II@Z 10032850 f i libvcruntimed:frame.obj
 0001:00031880       ??0TryBlockMap@__FrameHandler3@@QAE@PBU_s_FuncInfo@@I@Z 10032880 f i libvcruntimed:frame.obj
 0001:000318b0       ??0bad_exception@std@@QAE@ABV01@@Z 100328b0 f i libvcruntimed:frame.obj
 0001:000318e0       ??0bad_exception@std@@QAE@XZ 100328e0 f i libvcruntimed:frame.obj
 0001:00031910       ??0iterator@HandlerMap@__FrameHandler3@@QAE@AAV12@I@Z 10032910 f i libvcruntimed:frame.obj
 0001:00031940       ??1bad_exception@std@@UAE@XZ 10032940 f i libvcruntimed:frame.obj
 0001:00031960       ??8iterator@HandlerMap@__FrameHandler3@@QBE_NABV012@@Z 10032960 f i libvcruntimed:frame.obj
 0001:00031990       ??8type_info@@QBE_NABV0@@Z 10032990 f i libvcruntimed:frame.obj
 0001:000319d0       ??9iterator@HandlerMap@__FrameHandler3@@QBE_NABV012@@Z 100329d0 f i libvcruntimed:frame.obj
 0001:00031a10       ??Diterator@HandlerMap@__FrameHandler3@@QAE?BU_s_HandlerType@@XZ 10032a10 f i libvcruntimed:frame.obj
 0001:00031a50       ??Diterator@TryBlockMap@__FrameHandler3@@QAE?BU_s_TryBlockMapEntry@@XZ 10032a50 f i libvcruntimed:frame.obj
 0001:00031aa0       ??Eiterator@HandlerMap@__FrameHandler3@@QAEAAV012@XZ 10032aa0 f i libvcruntimed:frame.obj
 0001:00031ac0       ??Eiterator@TryBlockMap@__FrameHandler3@@QAEAAV012@XZ 10032ac0 f i libvcruntimed:frame.obj
 0001:00031ae0       ??Miterator@TryBlockMap@__FrameHandler3@@QBE_NABV012@@Z 10032ae0 f i libvcruntimed:frame.obj
 0001:00031b10       ??_Gbad_exception@std@@UAEPAXI@Z 10032b10 f i libvcruntimed:frame.obj
 0001:00031b10       ??_Ebad_exception@std@@UAEPAXI@Z 10032b10 f i libvcruntimed:frame.obj
 0001:00031b40       ?BuildCatchObject@__FrameHandler3@@SAXPAUEHExceptionRecord@@PAXPBU_s_HandlerType@@PBU_s_CatchableType@@@Z 10032b40 f   libvcruntimed:frame.obj
 0001:00031b60       ?BuildCatchObjectHelper@__FrameHandler3@@SAHPAUEHExceptionRecord@@PAXPBU_s_HandlerType@@PBU_s_CatchableType@@@Z 10032b60 f   libvcruntimed:frame.obj
 0001:00031f00       ?FrameUnwindToEmptyState@__FrameHandler3@@SAXPAUEHRegistrationNode@@PAXPBU_s_FuncInfo@@@Z 10032f00 f   libvcruntimed:frame.obj
 0001:00031f20       ?FrameUnwindToState@__FrameHandler3@@SAXPAUEHRegistrationNode@@PAXPBU_s_FuncInfo@@H@Z 10032f20 f   libvcruntimed:frame.obj
 0001:000320a0       ?GetMaxState@__FrameHandler3@@SAHPAXPBU_s_FuncInfo@@@Z 100330a0 f i libvcruntimed:frame.obj
 0001:000321d0       ?TypeMatch@__FrameHandler3@@SAHPBU_s_HandlerType@@PBU_s_CatchableType@@PBU_s_ThrowInfo@@@Z 100331d0 f   libvcruntimed:frame.obj
 0001:000321f0       ?_CallMemberFunction1@@YGXQAX00@Z 100331f0 f i libvcruntimed:frame.obj
 0001:00032220       ?_CallMemberFunction2@@YGXQAX00H@Z 10033220 f i libvcruntimed:frame.obj
 0001:00032250       ?_ValidateExecute@@YA_NP6GHXZ@Z 10033250 f i libvcruntimed:frame.obj
 0001:00032270       ?_ValidateRead@@YA_NPBXI@Z 10033270 f i libvcruntimed:frame.obj
 0001:00032290       ?_ValidateWrite@@YA_NPAXI@Z 10033290 f i libvcruntimed:frame.obj
 0001:000322b0       ?begin@HandlerMap@__FrameHandler3@@QAE?AViterator@12@XZ 100332b0 f i libvcruntimed:frame.obj
 0001:000322d0       ?end@HandlerMap@__FrameHandler3@@QAE?AViterator@12@XZ 100332d0 f i libvcruntimed:frame.obj
 0001:00032300       ?getESTypes@__FrameHandler3@@SAPBU_s_ESTypeList@@PBU_s_FuncInfo@@@Z 10033300 f i libvcruntimed:frame.obj
 0001:00032310       ?getLastEntry@HandlerMap@__FrameHandler3@@QAEPBU_s_HandlerType@@XZ 10033310 f i libvcruntimed:frame.obj
 0001:00032330       ?getMagicNum@__FrameHandler3@@SAIPBU_s_FuncInfo@@@Z 10033330 f i libvcruntimed:frame.obj
 0001:00032340       ?getNumTryBlocks@TryBlockMap@__FrameHandler3@@QAEIXZ 10033340 f i libvcruntimed:frame.obj
 0001:00032360       ?isEHs@__FrameHandler3@@SA_NPBU_s_FuncInfo@@@Z 10033360 f i libvcruntimed:frame.obj
 0001:00032390       ?isNoExcept@__FrameHandler3@@SA_NPBU_s_FuncInfo@@@Z 10033390 f i libvcruntimed:frame.obj
 0001:000323c0       ___BuildCatchObject        100333c0 f   libvcruntimed:frame.obj
 0001:000323e0       ___BuildCatchObjectHelper  100333e0 f   libvcruntimed:frame.obj
 0001:00032400       ___TypeMatch               10033400 f   libvcruntimed:frame.obj
 0001:00032420       ___vcrt_EncodePointer      10033420 f i libvcruntimed:frame.obj
 0001:00032430       __CallSettingFrame@12      10033430 f   libvcruntimed:lowhelpr.obj
 0001:00032457       __NLG_Return               10033457     libvcruntimed:lowhelpr.obj
 0001:00032480       ??0Block@_HeapManager@@QAE@XZ 10033480 f i libvcruntimed:undname.obj
 0001:000324a0       ??0DName@@QAE@AAPBDD@Z     100334a0 f   libvcruntimed:undname.obj
 0001:000326d0       ??0DName@@QAE@ABV0@@Z      100336d0 f i libvcruntimed:undname.obj
 0001:00032700       ??0DName@@QAE@D@Z          10033700 f   libvcruntimed:undname.obj
 0001:00032740       ??0DName@@QAE@PAV0@@Z      10033740 f   libvcruntimed:undname.obj
 0001:000327f0       ??0DName@@QAE@PBD@Z        100337f0 f   libvcruntimed:undname.obj
 0001:00032840       ??0DName@@QAE@W4DNameStatus@@@Z 10033840 f   libvcruntimed:undname.obj
 0001:000328e0       ??0DName@@QAE@XZ           100338e0 f i libvcruntimed:undname.obj
 0001:00032910       ??0DName@@QAE@_J@Z         10033910 f   libvcruntimed:undname.obj
 0001:00032a00       ??0DName@@QAE@_K@Z         10033a00 f   libvcruntimed:undname.obj
 0001:00032ab0       ??0DNameNode@@IAE@XZ       10033ab0 f i libvcruntimed:undname.obj
 0001:00032ad0       ??0Replicator@@QAE@XZ      10033ad0 f i libvcruntimed:undname.obj
 0001:00032b10       ??0UnDecorator@@QAE@PBDP6APADJ@ZK@Z 10033b10 f i libvcruntimed:undname.obj
 0001:00032b90       ??0charNode@@QAE@D@Z       10033b90 f i libvcruntimed:undname.obj
 0001:00032bc0       ??0pDNameNode@@QAE@PAVDName@@@Z 10033bc0 f   libvcruntimed:undname.obj
 0001:00032c20       ??0pairNode@@QAE@PBVDNameNode@@0@Z 10033c20 f i libvcruntimed:undname.obj
 0001:00032c60       ??0pcharNode@@QAE@PBDH@Z   10033c60 f   libvcruntimed:undname.obj
 0001:00032d20       ??2@YAPAXIAAV_HeapManager@@H@Z 10033d20 f i libvcruntimed:undname.obj
 0001:00032d40       ??4DName@@QAEAAV0@ABV0@@Z  10033d40 f   libvcruntimed:undname.obj
 0001:00032d70       ??4DName@@QAEAAV0@D@Z      10033d70 f i libvcruntimed:undname.obj
 0001:00032db0       ??4DName@@QAEAAV0@PAV0@@Z  10033db0 f   libvcruntimed:undname.obj
 0001:00032e50       ??4DName@@QAEAAV0@PBD@Z    10033e50 f   libvcruntimed:undname.obj
 0001:00032e90       ??4DName@@QAEAAV0@W4DNameStatus@@@Z 10033e90 f   libvcruntimed:undname.obj
 0001:00032f10       ??AReplicator@@QBE?AVDName@@H@Z 10033f10 f   libvcruntimed:undname.obj
 0001:00032f80       ??H@YA?AVDName@@DABV0@@Z   10033f80 f i libvcruntimed:undname.obj
 0001:00032fb0       ??H@YA?AVDName@@PBDABV0@@Z 10033fb0 f i libvcruntimed:undname.obj
 0001:00032fe0       ??H@YA?AVDName@@W4DNameStatus@@ABV0@@Z 10033fe0 f i libvcruntimed:undname.obj
 0001:00033010       ??HDName@@QBE?AV0@ABV0@@Z  10034010 f   libvcruntimed:undname.obj
 0001:00033050       ??HDName@@QBE?AV0@D@Z      10034050 f   libvcruntimed:undname.obj
 0001:00033090       ??HDName@@QBE?AV0@PAV0@@Z  10034090 f   libvcruntimed:undname.obj
 0001:000330d0       ??HDName@@QBE?AV0@PBD@Z    100340d0 f   libvcruntimed:undname.obj
 0001:00033110       ??HDName@@QBE?AV0@W4DNameStatus@@@Z 10034110 f   libvcruntimed:undname.obj
 0001:00033150       ??YDName@@QAEAAV0@ABV0@@Z  10034150 f   libvcruntimed:undname.obj
 0001:000331c0       ??YDName@@QAEAAV0@D@Z      100341c0 f   libvcruntimed:undname.obj
 0001:00033240       ??YDName@@QAEAAV0@PAV0@@Z  10034240 f   libvcruntimed:undname.obj
 0001:000332f0       ??YDName@@QAEAAV0@PBD@Z    100342f0 f   libvcruntimed:undname.obj
 0001:00033390       ??YDName@@QAEAAV0@W4DNameStatus@@@Z 10034390 f   libvcruntimed:undname.obj
 0001:000333f0       ??YReplicator@@QAEAAV0@ABVDName@@@Z 100343f0 f   libvcruntimed:undname.obj
 0001:00033480       ??_5DName@@QAEAAV0@ABV0@@Z 10034480 f   libvcruntimed:undname.obj
 0001:000334e0       ?Constructor@_HeapManager@@QAEXP6APAXI@ZP6AXPAX@Z@Z 100344e0 f i libvcruntimed:undname.obj
 0001:00033520       ?Destructor@_HeapManager@@QAEXXZ 10034520 f i libvcruntimed:undname.obj
 0001:00033580       ?UScore@UnDecorator@@SAPBDW4Tokens@@@Z 10034580 f   libvcruntimed:undname.obj
 0001:000335b0       ?append@DName@@AAEXPBVDNameNode@@@Z 100345b0 f   libvcruntimed:undname.obj
 0001:00033640       ?composeDeclaration@UnDecorator@@CA?AVDName@@ABV2@@Z 10034640 f i libvcruntimed:undname.obj
 0001:000353c0       ?dbGetString@DName@@QBEPADXZ 100363c0 f   libvcruntimed:undname.obj
 0001:000353e0       ?doAccessSpecifiers@UnDecorator@@SAHXZ 100363e0 f i libvcruntimed:undname.obj
 0001:00035410       ?doAllocationLanguage@UnDecorator@@SAHXZ 10036410 f i libvcruntimed:undname.obj
 0001:00035440       ?doAllocationModel@UnDecorator@@SAHXZ 10036440 f i libvcruntimed:undname.obj
 0001:00035470       ?doEcsu@UnDecorator@@SAHXZ 10036470 f i libvcruntimed:undname.obj
 0001:000354a0       ?doEllipsis@UnDecorator@@SAHXZ 100364a0 f i libvcruntimed:undname.obj
 0001:000354d0       ?doFunctionReturns@UnDecorator@@SAHXZ 100364d0 f i libvcruntimed:undname.obj
 0001:00035500       ?doMSKeywords@UnDecorator@@SAHXZ 10036500 f i libvcruntimed:undname.obj
 0001:00035530       ?doMemberTypes@UnDecorator@@SAHXZ 10036530 f i libvcruntimed:undname.obj
 0001:00035560       ?doNameOnly@UnDecorator@@SAHXZ 10036560 f i libvcruntimed:undname.obj
 0001:00035570       ?doNoIdentCharCheck@UnDecorator@@SAHXZ 10036570 f i libvcruntimed:undname.obj
 0001:00035580       ?doPchar@DName@@AAEXPBDH@Z 10036580 f   libvcruntimed:undname.obj
 0001:000356c0       ?doPtr64@UnDecorator@@SAHXZ 100366c0 f i libvcruntimed:undname.obj
 0001:000356f0       ?doRestrictionSpec@UnDecorator@@SAHXZ 100366f0 f i libvcruntimed:undname.obj
 0001:00035720       ?doThisTypes@UnDecorator@@SAHXZ 10036720 f i libvcruntimed:undname.obj
 0001:00035750       ?doThrowTypes@UnDecorator@@SAHXZ 10036750 f i libvcruntimed:undname.obj
 0001:00035780       ?doTypeOnly@UnDecorator@@SAHXZ 10036780 f i libvcruntimed:undname.obj
 0001:00035790       ?doUnderScore@UnDecorator@@SAHXZ 10036790 f i libvcruntimed:undname.obj
 0001:000357c0       ?getArgumentList@UnDecorator@@CA?AVDName@@XZ 100367c0 f   libvcruntimed:undname.obj
 0001:00035910       ?getArgumentTypes@UnDecorator@@CA?AVDName@@XZ 10036910 f   libvcruntimed:undname.obj
 0001:00035a60       ?getArrayType@UnDecorator@@CA?AVDName@@ABV2@@Z 10036a60 f i libvcruntimed:undname.obj
 0001:00035cd0       ?getBasedType@UnDecorator@@CA?AVDName@@XZ 10036cd0 f   libvcruntimed:undname.obj
 0001:00035d90       ?getBasicDataType@UnDecorator@@CA?AVDName@@ABV2@@Z 10036d90 f   libvcruntimed:undname.obj
 0001:00036390       ?getCHPEName@UnDecorator@@QAEPADPADH@Z 10037390 f i libvcruntimed:undname.obj
 0001:000364f0       ?getCallIndex@UnDecorator@@CA?AVDName@@XZ 100374f0 f i libvcruntimed:undname.obj
 0001:00036510       ?getCallingConvention@UnDecorator@@CA?AVDName@@XZ 10037510 f   libvcruntimed:undname.obj
 0001:000366f0       ?getDataIndirectType@UnDecorator@@CA?AVDName@@ABV2@PBD0H@Z 100376f0 f   libvcruntimed:undname.obj
 0001:00036f10       ?getDataIndirectType@UnDecorator@@CA?AVDName@@XZ 10037f10 f i libvcruntimed:undname.obj
 0001:00036f60       ?getDataType@UnDecorator@@CA?AVDName@@PAV2@@Z 10037f60 f   libvcruntimed:undname.obj
 0001:00037080       ?getDecoratedName@UnDecorator@@CA?AVDName@@XZ 10038080 f   libvcruntimed:undname.obj
 0001:00037480       ?getDimension@UnDecorator@@CA?AVDName@@_N@Z 10038480 f   libvcruntimed:undname.obj
 0001:00037730       ?getDispatchTarget@UnDecorator@@CA?AVDName@@XZ 10038730 f   libvcruntimed:undname.obj
 0001:000377d0       ?getDisplacement@UnDecorator@@CA?AVDName@@XZ 100387d0 f i libvcruntimed:undname.obj
 0001:000377f0       ?getECSUDataType@UnDecorator@@CA?AVDName@@XZ 100387f0 f   libvcruntimed:undname.obj
 0001:000379c0       ?getECSUName@UnDecorator@@CA?AVDName@@XZ 100389c0 f i libvcruntimed:undname.obj
 0001:000379e0       ?getEnumType@UnDecorator@@CA?AVDName@@XZ 100389e0 f i libvcruntimed:undname.obj
 0001:00037b30       ?getExtendedDataIndirectType@UnDecorator@@CA?AVDName@@AAPBDAA_NH@Z 10038b30 f   libvcruntimed:undname.obj
 0001:00037d80       ?getExternalDataType@UnDecorator@@CA?AVDName@@ABV2@@Z 10038d80 f i libvcruntimed:undname.obj
 0001:00037e20       ?getFunctionIndirectType@UnDecorator@@CA?AVDName@@ABV2@@Z 10038e20 f   libvcruntimed:undname.obj
 0001:000382f0       ?getGuardNumber@UnDecorator@@CA?AVDName@@XZ 100392f0 f i libvcruntimed:undname.obj
 0001:00038310       ?getLastChar@DName@@QBEDXZ 10039310 f i libvcruntimed:undname.obj
 0001:00038350       ?getLastChar@DNameStatusNode@@UBEDXZ 10039350 f i libvcruntimed:undname.obj
 0001:00038380       ?getLastChar@charNode@@UBEDXZ 10039380 f i libvcruntimed:undname.obj
 0001:000383a0       ?getLastChar@pDNameNode@@UBEDXZ 100393a0 f i libvcruntimed:undname.obj
 0001:000383d0       ?getLastChar@pairNode@@UBEDXZ 100393d0 f i libvcruntimed:undname.obj
 0001:00038440       ?getLastChar@pcharNode@@UBEDXZ 10039440 f i libvcruntimed:undname.obj
 0001:00038480       ?getLexicalFrame@UnDecorator@@CA?AVDName@@XZ 10039480 f i libvcruntimed:undname.obj
 0001:000384c0       ?getMemory@_HeapManager@@QAEPAXIH@Z 100394c0 f   libvcruntimed:undname.obj
 0001:000385e0       ?getNoexcept@UnDecorator@@CA?AVDName@@XZ 100395e0 f   libvcruntimed:undname.obj
 0001:00038650       ?getNumberOfDimensions@UnDecorator@@CAHXZ 10039650 f   libvcruntimed:undname.obj
 0001:00038750       ?getOperatorName@UnDecorator@@CA?AVDName@@_NPA_N@Z 10039750 f i libvcruntimed:undname.obj
 0001:000391c0       ?getPointerType@UnDecorator@@CA?AVDName@@ABV2@0@Z 1003a1c0 f i libvcruntimed:undname.obj
 0001:000391f0       ?getPointerTypeArray@UnDecorator@@CA?AVDName@@ABV2@0@Z 1003a1f0 f i libvcruntimed:undname.obj
 0001:00039220       ?getPrimaryDataType@UnDecorator@@CA?AVDName@@ABV2@@Z 1003a220 f   libvcruntimed:undname.obj
 0001:00039620       ?getPtrRefDataType@UnDecorator@@CA?AVDName@@ABV2@H@Z 1003a620 f   libvcruntimed:undname.obj
 0001:00039850       ?getPtrRefType@UnDecorator@@CA?AVDName@@ABV2@0PBD@Z 1003a850 f   libvcruntimed:undname.obj
 0001:000399c0       ?getReferenceType@UnDecorator@@CA?AVDName@@ABV2@0PBD@Z 1003a9c0 f i libvcruntimed:undname.obj
 0001:000399e0       ?getRestrictionSpec@UnDecorator@@CA?AVDName@@XZ 1003a9e0 f   libvcruntimed:undname.obj
 0001:00039b50       ?getReturnType@UnDecorator@@CA?AVDName@@PAV2@@Z 1003ab50 f   libvcruntimed:undname.obj
 0001:00039ba0       ?getScope@UnDecorator@@CA?AVDName@@XZ 1003aba0 f   libvcruntimed:undname.obj
 0001:0003a0d0       ?getScopedName@UnDecorator@@CA?AVDName@@XZ 1003b0d0 f   libvcruntimed:undname.obj
 0001:0003a200       ?getSignedDimension@UnDecorator@@CA?AVDName@@XZ 1003b200 f   libvcruntimed:undname.obj
 0001:0003a280       ?getStorageConvention@UnDecorator@@CA?AVDName@@XZ 1003b280 f i libvcruntimed:undname.obj
 0001:0003a2a0       ?getString@DName@@QBEPADPAD0@Z 1003b2a0 f i libvcruntimed:undname.obj
 0001:0003a300       ?getString@DName@@QBEPADPADH@Z 1003b300 f i libvcruntimed:undname.obj
 0001:0003a390       ?getString@DNameStatusNode@@UBEPADPAD0@Z 1003b390 f i libvcruntimed:undname.obj
 0001:0003a3d0       ?getString@charNode@@UBEPADPAD0@Z 1003b3d0 f i libvcruntimed:undname.obj
 0001:0003a400       ?getString@pDNameNode@@UBEPADPAD0@Z 1003b400 f i libvcruntimed:undname.obj
 0001:0003a440       ?getString@pairNode@@UBEPADPAD0@Z 1003b440 f i libvcruntimed:undname.obj
 0001:0003a4d0       ?getString@pcharNode@@UBEPADPAD0@Z 1003b4d0 f i libvcruntimed:undname.obj
 0001:0003a500       ?getStringEncoding@UnDecorator@@CA?AVDName@@PBDH@Z 1003b500 f   libvcruntimed:undname.obj
 0001:0003a610       ?getStringHelper@@YAPADPADPBD1H@Z 1003b610 f i libvcruntimed:undname.obj
 0001:0003a650       ?getSymbolName@UnDecorator@@CA?AVDName@@XZ 1003b650 f i libvcruntimed:undname.obj
 0001:0003a6e0       ?getTemplateArgumentList@UnDecorator@@CA?AVDName@@XZ 1003b6e0 f   libvcruntimed:undname.obj
 0001:0003a9a0       ?getTemplateName@UnDecorator@@CA?AVDName@@_N@Z 1003b9a0 f   libvcruntimed:undname.obj
 0001:0003ab70       ?getTemplateNonTypeArgument@UnDecorator@@CA?AVDName@@XZ 1003bb70 f   libvcruntimed:undname.obj
 0001:0003b1a0       ?getTemplateTypeArgument@UnDecorator@@CA?AVDName@@XZ 1003c1a0 f   libvcruntimed:undname.obj
 0001:0003b300       ?getThisType@UnDecorator@@CA?AVDName@@XZ 1003c300 f i libvcruntimed:undname.obj
 0001:0003b350       ?getThrowTypes@UnDecorator@@CA?AVDName@@XZ 1003c350 f   libvcruntimed:undname.obj
 0001:0003b390       ?getTypeEncoding@UnDecorator@@CAHXZ 1003c390 f i libvcruntimed:undname.obj
 0001:0003be20       ?getUndecoratedName@UnDecorator@@QAEPADPADH@Z 1003ce20 f i libvcruntimed:undname.obj
 0001:0003bf70       ?getVCallThunkType@UnDecorator@@CA?AVDName@@XZ 1003cf70 f i libvcruntimed:undname.obj
 0001:0003bfd0       ?getVbTableType@UnDecorator@@CA?AVDName@@ABV2@@Z 1003cfd0 f i libvcruntimed:undname.obj
 0001:0003bff0       ?getVdispMapType@UnDecorator@@CA?AVDName@@ABV2@@Z 1003cff0 f i libvcruntimed:undname.obj
 0001:0003c060       ?getVfTableType@UnDecorator@@CA?AVDName@@ABV2@@Z 1003d060 f i libvcruntimed:undname.obj
 0001:0003c230       ?getZName@UnDecorator@@CA?AVDName@@_N0@Z 1003d230 f   libvcruntimed:undname.obj
 0001:0003c510       ?haveTemplateParameters@UnDecorator@@SAHXZ 1003d510 f i libvcruntimed:undname.obj
 0001:0003c520       ?isArray@DName@@QBEHXZ     1003d520 f i libvcruntimed:undname.obj
 0001:0003c540       ?isComArray@DName@@QBEHXZ  1003d540 f i libvcruntimed:undname.obj
 0001:0003c560       ?isEmpty@DName@@QBEHXZ     1003d560 f i libvcruntimed:undname.obj
 0001:0003c590       ?isFull@Replicator@@QBEHXZ 1003d590 f i libvcruntimed:undname.obj
 0001:0003c5c0       ?isNoTE@DName@@QBEHXZ      1003d5c0 f i libvcruntimed:undname.obj
 0001:0003c5e0       ?isPinPtr@DName@@QBEHXZ    1003d5e0 f i libvcruntimed:undname.obj
 0001:0003c600       ?isPtrRef@DName@@QBEHXZ    1003d600 f i libvcruntimed:undname.obj
 0001:0003c620       ?isUDC@DName@@QBEHXZ       1003d620 f i libvcruntimed:undname.obj
 0001:0003c660       ?isUDTThunk@DName@@QBEHXZ  1003d660 f i libvcruntimed:undname.obj
 0001:0003c6a0       ?isVCallThunk@DName@@QBEHXZ 1003d6a0 f i libvcruntimed:undname.obj
 0001:0003c6c0       ?isValid@DName@@QBEHXZ     1003d6c0 f i libvcruntimed:undname.obj
 0001:0003c700       ?length@DName@@QBEHXZ      1003d700 f i libvcruntimed:undname.obj
 0001:0003c740       ?length@DNameStatusNode@@UBEHXZ 1003d740 f i libvcruntimed:undname.obj
 0001:0003c760       ?length@charNode@@UBEHXZ   1003d760 f i libvcruntimed:undname.obj
 0001:0003c770       ?length@pDNameNode@@UBEHXZ 1003d770 f i libvcruntimed:undname.obj
 0001:0003c7a0       ?length@pairNode@@UBEHXZ   1003d7a0 f i libvcruntimed:undname.obj
 0001:0003c810       ?length@pcharNode@@UBEHXZ  1003d810 f i libvcruntimed:undname.obj
 0001:0003c830       ?make@DNameStatusNode@@SAPBV1@W4DNameStatus@@@Z 1003d830 f i libvcruntimed:undname.obj
 0001:0003c860       ?parseDecoratedName@UnDecorator@@CA?AVDName@@XZ 1003d860 f   libvcruntimed:undname.obj
 0001:0003c9e0       ?setIsArray@DName@@QAEXXZ  1003d9e0 f i libvcruntimed:undname.obj
 0001:0003ca00       ?setIsComArray@DName@@QAEXXZ 1003da00 f i libvcruntimed:undname.obj
 0001:0003ca20       ?setIsNoTE@DName@@QAEXXZ   1003da20 f i libvcruntimed:undname.obj
 0001:0003ca40       ?setIsPinPtr@DName@@QAEXXZ 1003da40 f i libvcruntimed:undname.obj
 0001:0003ca60       ?setIsUDC@DName@@QAEXXZ    1003da60 f i libvcruntimed:undname.obj
 0001:0003ca90       ?setIsVCallThunk@DName@@QAEXXZ 1003da90 f i libvcruntimed:undname.obj
 0001:0003cab0       ?setPtrRef@DName@@QAEAAV1@XZ 1003dab0 f i libvcruntimed:undname.obj
 0001:0003cad0       ?status@DName@@QBE?AW4DNameStatus@@XZ 1003dad0 f i libvcruntimed:undname.obj
 0001:0003cbd0       ___unDName                 1003dbd0 f   libvcruntimed:undname.obj
 0001:0003cc00       ___unDNameEx               1003dc00 f   libvcruntimed:undname.obj
 0001:0003ccd0       _unDNameGenerateCHPE       1003dcd0 f   libvcruntimed:undname.obj
 0001:0003cd30       __global_unwind2           1003dd30 f   libvcruntimed:exsup.obj
 0001:0003cd96       __local_unwind2            1003dd96 f   libvcruntimed:exsup.obj
 0001:0003ce1a       __abnormal_termination     1003de1a f   libvcruntimed:exsup.obj
 0001:0003ce40       __NLG_Notify1              1003de40 f   libvcruntimed:exsup.obj
 0001:0003ce4c       __NLG_Notify               1003de4c f   libvcruntimed:exsup.obj
 0001:0003ce63       __NLG_Dispatch             1003de63     libvcruntimed:exsup.obj
 0001:0003ce63       __NLG_Dispatch2            1003de63     libvcruntimed:exsup.obj
 0001:0003ce6b       __NLG_Call                 1003de6b f   libvcruntimed:exsup.obj
 0001:0003ce6d       __NLG_Return2              1003de6d     libvcruntimed:exsup.obj
 0001:0003ce70       ??$__crt_interlocked_exchange_pointer@UHINSTANCE__@@PAU1@@@YAPAUHINSTANCE__@@PDSAU0@QAU0@@Z 1003de70 f i libvcruntimed:winapi_downlevel.obj
 0001:0003ce80       ??$__crt_interlocked_exchange_pointer@UHINSTANCE__@@PAX@@YAPAUHINSTANCE__@@PDSAU0@QAX@Z 1003de80 f i libvcruntimed:winapi_downlevel.obj
 0001:0003ce90       ??$__crt_interlocked_exchange_pointer@XPAX@@YAPAXPDSAXQAX@Z 1003de90 f i libvcruntimed:winapi_downlevel.obj
 0001:0003cea0       ??$__crt_interlocked_read_pointer@UHINSTANCE__@@@@YAPAUHINSTANCE__@@PDSAU0@@Z 1003dea0 f i libvcruntimed:winapi_downlevel.obj
 0001:0003cec0       ??$__crt_interlocked_read_pointer@X@@YAPAXPDSAX@Z 1003dec0 f i libvcruntimed:winapi_downlevel.obj
 0001:0003d290       ___vcrt_FlsAlloc           1003e290 f   libvcruntimed:winapi_downlevel.obj
 0001:0003d2d0       ___vcrt_FlsFree            1003e2d0 f   libvcruntimed:winapi_downlevel.obj
 0001:0003d310       ___vcrt_FlsGetValue        1003e310 f   libvcruntimed:winapi_downlevel.obj
 0001:0003d350       ___vcrt_FlsSetValue        1003e350 f   libvcruntimed:winapi_downlevel.obj
 0001:0003d3a0       ___vcrt_InitializeCriticalSectionEx 1003e3a0 f   libvcruntimed:winapi_downlevel.obj
 0001:0003d420       __get_unexpected           1003e420 f   libvcruntimed:unexpected.obj
 0001:0003d440       _set_unexpected            1003e440 f   libvcruntimed:unexpected.obj
 0001:0003d470       _unexpected                1003e470 f   libvcruntimed:unexpected.obj
 0001:0003d4b0       ?GetCurrentState@__FrameHandler3@@SAHPAUEHRegistrationNode@@PAXPBU_s_FuncInfo@@@Z 1003e4b0 f   libvcruntimed:ehstate.obj
 0001:0003d4e0       ?SetState@__FrameHandler3@@SAXPAUEHRegistrationNode@@PBU_s_FuncInfo@@H@Z 1003e4e0 f   libvcruntimed:ehstate.obj
 0001:0003d4f0       ___DestructExceptionObject 1003e4f0 f   libvcruntimed:ehhelpers.obj
 0001:0003d620       ?_CallMemberFunction0@@YGXQAX0@Z 1003e620 f i libvcruntimed:ehhelpers.obj
 0001:0003d640       ?raw_name@type_info@@QBEPBDXZ 1003e640 f i libvcruntimed:ehhelpers.obj
 0001:0003d660       __IsExceptionObjectToBeDestroyed 1003e660 f   libvcruntimed:ehhelpers.obj
 0001:0003d6a0       __SetWinRTOutOfMemoryExceptionCallback 1003e6a0 f   libvcruntimed:ehhelpers.obj
 0001:0003d6b0       ___AdjustPointer           1003e6b0 f   libvcruntimed:ehhelpers.obj
 0001:0003d700       ___FrameUnwindFilter       1003e700 f   libvcruntimed:ehhelpers.obj
 0001:0003d780       ___GetPlatformExceptionInfo 1003e780 f   libvcruntimed:ehhelpers.obj
 0001:0003d800       ___current_exception       1003e800 f   libvcruntimed:ehhelpers.obj
 0001:0003d810       ___current_exception_context 1003e810 f   libvcruntimed:ehhelpers.obj
 0001:0003d820       ___processing_throw        1003e820 f   libvcruntimed:ehhelpers.obj
 0001:0003d830       ___std_terminate           1003e830 f   libvcruntimed:ehhelpers.obj
 0001:0003d840       __is_exception_typeof      1003e840 f   libvcruntimed:ehhelpers.obj
 0001:0003d920       ??$?0ABV?$stream_output_adapter@D@__crt_stdio_output@@AB_KABQBDABQAU__crt_locale_pointers@@ABQAD@?$format_validation_base@DV?$stream_output_adapter@D@__crt_stdio_output@@@__crt_stdio_output@@IAE@ABV?$stream_output_adapter@D@1@AB_KABQBDABQAU__crt_locale_pointers@@ABQAD@Z 1003e920 f i libucrtd:output.obj
 0001:0003d950       ??$?0ABV?$stream_output_adapter@D@__crt_stdio_output@@AB_KABQBDABQAU__crt_locale_pointers@@ABQAD@?$positional_parameter_base@DV?$stream_output_adapter@D@__crt_stdio_output@@@__crt_stdio_output@@IAE@ABV?$stream_output_adapter@D@1@AB_KABQBDABQAU__crt_locale_pointers@@ABQAD@Z 1003e950 f i libucrtd:output.obj
 0001:0003d9d0       ??$?0ABV?$stream_output_adapter@D@__crt_stdio_output@@AB_KABQBDABQAU__crt_locale_pointers@@ABQAD@?$standard_base@DV?$stream_output_adapter@D@__crt_stdio_output@@@__crt_stdio_output@@IAE@ABV?$stream_output_adapter@D@1@AB_KABQBDABQAU__crt_locale_pointers@@ABQAD@Z 1003e9d0 f i libucrtd:output.obj
 0001:0003da20       ??$?0ABV?$stream_output_adapter@_W@__crt_stdio_output@@AB_KABQB_WABQAU__crt_locale_pointers@@ABQAD@?$format_validation_base@_WV?$stream_output_adapter@_W@__crt_stdio_output@@@__crt_stdio_output@@IAE@ABV?$stream_output_adapter@_W@1@AB_KABQB_WABQAU__crt_locale_pointers@@ABQAD@Z 1003ea20 f i libucrtd:output.obj
 0001:0003da50       ??$?0ABV?$stream_output_adapter@_W@__crt_stdio_output@@AB_KABQB_WABQAU__crt_locale_pointers@@ABQAD@?$positional_parameter_base@_WV?$stream_output_adapter@_W@__crt_stdio_output@@@__crt_stdio_output@@IAE@ABV?$stream_output_adapter@_W@1@AB_KABQB_WABQAU__crt_locale_pointers@@ABQAD@Z 1003ea50 f i libucrtd:output.obj
 0001:0003dad0       ??$?0ABV?$stream_output_adapter@_W@__crt_stdio_output@@AB_KABQB_WABQAU__crt_locale_pointers@@ABQAD@?$standard_base@_WV?$stream_output_adapter@_W@__crt_stdio_output@@@__crt_stdio_output@@IAE@ABV?$stream_output_adapter@_W@1@AB_KABQB_WABQAU__crt_locale_pointers@@ABQAD@Z 1003ead0 f i libucrtd:output.obj
 0001:0003db20       ??$?0ABV?$string_output_adapter@D@__crt_stdio_output@@AB_KABQBDABQAU__crt_locale_pointers@@ABQAD@?$format_validation_base@DV?$string_output_adapter@D@__crt_stdio_output@@@__crt_stdio_output@@IAE@ABV?$string_output_adapter@D@1@AB_KABQBDABQAU__crt_locale_pointers@@ABQAD@Z 1003eb20 f i libucrtd:output.obj
 0001:0003db50       ??$?0ABV?$string_output_adapter@D@__crt_stdio_output@@AB_KABQBDABQAU__crt_locale_pointers@@ABQAD@?$positional_parameter_base@DV?$string_output_adapter@D@__crt_stdio_output@@@__crt_stdio_output@@IAE@ABV?$string_output_adapter@D@1@AB_KABQBDABQAU__crt_locale_pointers@@ABQAD@Z 1003eb50 f i libucrtd:output.obj
 0001:0003dbd0       ??$?0ABV?$string_output_adapter@D@__crt_stdio_output@@AB_KABQBDABQAU__crt_locale_pointers@@ABQAD@?$standard_base@DV?$string_output_adapter@D@__crt_stdio_output@@@__crt_stdio_output@@IAE@ABV?$string_output_adapter@D@1@AB_KABQBDABQAU__crt_locale_pointers@@ABQAD@Z 1003ebd0 f i libucrtd:output.obj
 0001:0003dc20       ??$?0ABV?$string_output_adapter@_W@__crt_stdio_output@@AB_KABQB_WABQAU__crt_locale_pointers@@ABQAD@?$format_validation_base@_WV?$string_output_adapter@_W@__crt_stdio_output@@@__crt_stdio_output@@IAE@ABV?$string_output_adapter@_W@1@AB_KABQB_WABQAU__crt_locale_pointers@@ABQAD@Z 1003ec20 f i libucrtd:output.obj
 0001:0003dc50       ??$?0ABV?$string_output_adapter@_W@__crt_stdio_output@@AB_KABQB_WABQAU__crt_locale_pointers@@ABQAD@?$positional_parameter_base@_WV?$string_output_adapter@_W@__crt_stdio_output@@@__crt_stdio_output@@IAE@ABV?$string_output_adapter@_W@1@AB_KABQB_WABQAU__crt_locale_pointers@@ABQAD@Z 1003ec50 f i libucrtd:output.obj
 0001:0003dcd0       ??$?0ABV?$string_output_adapter@_W@__crt_stdio_output@@AB_KABQB_WABQAU__crt_locale_pointers@@ABQAD@?$standard_base@_WV?$string_output_adapter@_W@__crt_stdio_output@@@__crt_stdio_output@@IAE@ABV?$string_output_adapter@_W@1@AB_KABQB_WABQAU__crt_locale_pointers@@ABQAD@Z 1003ecd0 f i libucrtd:output.obj
 0001:0003e200       ??$__crt_interlocked_read@J@@YAJPDJ@Z 1003f200 f i libucrtd:output.obj
 0001:00040fa0       ??$count@D@formatting_buffer@__crt_stdio_output@@QBEIXZ 10041fa0 f i libucrtd:output.obj
 0001:00040fe0       ??$count@_W@formatting_buffer@__crt_stdio_output@@QBEIXZ 10041fe0 f i libucrtd:output.obj
 0001:00041020       ??$data@D@formatting_buffer@__crt_stdio_output@@QAEPADXZ 10042020 f i libucrtd:output.obj
 0001:00041060       ??$data@_W@formatting_buffer@__crt_stdio_output@@QAEPA_WXZ 10042060 f i libucrtd:output.obj
 0001:000410a0       ??$ensure_buffer_is_big_enough@D@formatting_buffer@__crt_stdio_output@@QAE_NI@Z 100420a0 f i libucrtd:output.obj
 0001:00041180       ??$ensure_buffer_is_big_enough@_W@formatting_buffer@__crt_stdio_output@@QAE_NI@Z 10042180 f i libucrtd:output.obj
 0001:00041270       ??$extract_argument_from_va_list@C_J@?$positional_parameter_base@DV?$stream_output_adapter@D@__crt_stdio_output@@@__crt_stdio_output@@IAE_NAA_J@Z 10042270 f i libucrtd:output.obj
 0001:000413b0       ??$extract_argument_from_va_list@C_J@?$positional_parameter_base@DV?$string_output_adapter@D@__crt_stdio_output@@@__crt_stdio_output@@IAE_NAA_J@Z 100423b0 f i libucrtd:output.obj
 0001:000414f0       ??$extract_argument_from_va_list@C_J@?$positional_parameter_base@_WV?$stream_output_adapter@_W@__crt_stdio_output@@@__crt_stdio_output@@IAE_NAA_J@Z 100424f0 f i libucrtd:output.obj
 0001:00041630       ??$extract_argument_from_va_list@C_J@?$positional_parameter_base@_WV?$string_output_adapter@_W@__crt_stdio_output@@@__crt_stdio_output@@IAE_NAA_J@Z 10042630 f i libucrtd:output.obj
 0001:00041770       ??$extract_argument_from_va_list@C_J@?$standard_base@DV?$stream_output_adapter@D@__crt_stdio_output@@@__crt_stdio_output@@IAE_NAA_J@Z 10042770 f i libucrtd:output.obj
 0001:000417a0       ??$extract_argument_from_va_list@C_J@?$standard_base@DV?$string_output_adapter@D@__crt_stdio_output@@@__crt_stdio_output@@IAE_NAA_J@Z 100427a0 f i libucrtd:output.obj
 0001:000417d0       ??$extract_argument_from_va_list@C_J@?$standard_base@_WV?$stream_output_adapter@_W@__crt_stdio_output@@@__crt_stdio_output@@IAE_NAA_J@Z 100427d0 f i libucrtd:output.obj
 0001:00041800       ??$extract_argument_from_va_list@C_J@?$standard_base@_WV?$string_output_adapter@_W@__crt_stdio_output@@@__crt_stdio_output@@IAE_NAA_J@Z 10042800 f i libucrtd:output.obj
 0001:00041830       ??$extract_argument_from_va_list@E_J@?$positional_parameter_base@DV?$stream_output_adapter@D@__crt_stdio_output@@@__crt_stdio_output@@IAE_NAA_J@Z 10042830 f i libucrtd:output.obj
 0001:00041970       ??$extract_argument_from_va_list@E_J@?$positional_parameter_base@DV?$string_output_adapter@D@__crt_stdio_output@@@__crt_stdio_output@@IAE_NAA_J@Z 10042970 f i libucrtd:output.obj
 0001:00041ab0       ??$extract_argument_from_va_list@E_J@?$positional_parameter_base@_WV?$stream_output_adapter@_W@__crt_stdio_output@@@__crt_stdio_output@@IAE_NAA_J@Z 10042ab0 f i libucrtd:output.obj
 0001:00041bf0       ??$extract_argument_from_va_list@E_J@?$positional_parameter_base@_WV?$string_output_adapter@_W@__crt_stdio_output@@@__crt_stdio_output@@IAE_NAA_J@Z 10042bf0 f i libucrtd:output.obj
 0001:00041d30       ??$extract_argument_from_va_list@E_J@?$standard_base@DV?$stream_output_adapter@D@__crt_stdio_output@@@__crt_stdio_output@@IAE_NAA_J@Z 10042d30 f i libucrtd:output.obj
 0001:00041d60       ??$extract_argument_from_va_list@E_J@?$standard_base@DV?$string_output_adapter@D@__crt_stdio_output@@@__crt_stdio_output@@IAE_NAA_J@Z 10042d60 f i libucrtd:output.obj
 0001:00041d90       ??$extract_argument_from_va_list@E_J@?$standard_base@_WV?$stream_output_adapter@_W@__crt_stdio_output@@@__crt_stdio_output@@IAE_NAA_J@Z 10042d90 f i libucrtd:output.obj
 0001:00041dc0       ??$extract_argument_from_va_list@E_J@?$standard_base@_WV?$string_output_adapter@_W@__crt_stdio_output@@@__crt_stdio_output@@IAE_NAA_J@Z 10042dc0 f i libucrtd:output.obj
 0001:00041df0       ??$extract_argument_from_va_list@F_J@?$positional_parameter_base@DV?$stream_output_adapter@D@__crt_stdio_output@@@__crt_stdio_output@@IAE_NAA_J@Z 10042df0 f i libucrtd:output.obj
 0001:00041f20       ??$extract_argument_from_va_list@F_J@?$positional_parameter_base@DV?$string_output_adapter@D@__crt_stdio_output@@@__crt_stdio_output@@IAE_NAA_J@Z 10042f20 f i libucrtd:output.obj
 0001:00042050       ??$extract_argument_from_va_list@F_J@?$positional_parameter_base@_WV?$stream_output_adapter@_W@__crt_stdio_output@@@__crt_stdio_output@@IAE_NAA_J@Z 10043050 f i libucrtd:output.obj
 0001:00042180       ??$extract_argument_from_va_list@F_J@?$positional_parameter_base@_WV?$string_output_adapter@_W@__crt_stdio_output@@@__crt_stdio_output@@IAE_NAA_J@Z 10043180 f i libucrtd:output.obj
 0001:000422b0       ??$extract_argument_from_va_list@F_J@?$standard_base@DV?$stream_output_adapter@D@__crt_stdio_output@@@__crt_stdio_output@@IAE_NAA_J@Z 100432b0 f i libucrtd:output.obj
 0001:000422e0       ??$extract_argument_from_va_list@F_J@?$standard_base@DV?$string_output_adapter@D@__crt_stdio_output@@@__crt_stdio_output@@IAE_NAA_J@Z 100432e0 f i libucrtd:output.obj
 0001:00042310       ??$extract_argument_from_va_list@F_J@?$standard_base@_WV?$stream_output_adapter@_W@__crt_stdio_output@@@__crt_stdio_output@@IAE_NAA_J@Z 10043310 f i libucrtd:output.obj
 0001:00042340       ??$extract_argument_from_va_list@F_J@?$standard_base@_WV?$string_output_adapter@_W@__crt_stdio_output@@@__crt_stdio_output@@IAE_NAA_J@Z 10043340 f i libucrtd:output.obj
 0001:00042370       ??$extract_argument_from_va_list@GD@?$positional_parameter_base@DV?$stream_output_adapter@D@__crt_stdio_output@@@__crt_stdio_output@@IAE_NAAD@Z 10043370 f i libucrtd:output.obj
 0001:000424a0       ??$extract_argument_from_va_list@GD@?$positional_parameter_base@DV?$string_output_adapter@D@__crt_stdio_output@@@__crt_stdio_output@@IAE_NAAD@Z 100434a0 f i libucrtd:output.obj
 0001:000425d0       ??$extract_argument_from_va_list@GD@?$standard_base@DV?$stream_output_adapter@D@__crt_stdio_output@@@__crt_stdio_output@@IAE_NAAD@Z 100435d0 f i libucrtd:output.obj
 0001:00042600       ??$extract_argument_from_va_list@GD@?$standard_base@DV?$string_output_adapter@D@__crt_stdio_output@@@__crt_stdio_output@@IAE_NAAD@Z 10043600 f i libucrtd:output.obj
 0001:00042630       ??$extract_argument_from_va_list@G_J@?$positional_parameter_base@DV?$stream_output_adapter@D@__crt_stdio_output@@@__crt_stdio_output@@IAE_NAA_J@Z 10043630 f i libucrtd:output.obj
 0001:00042770       ??$extract_argument_from_va_list@G_J@?$positional_parameter_base@DV?$string_output_adapter@D@__crt_stdio_output@@@__crt_stdio_output@@IAE_NAA_J@Z 10043770 f i libucrtd:output.obj
 0001:000428b0       ??$extract_argument_from_va_list@G_J@?$positional_parameter_base@_WV?$stream_output_adapter@_W@__crt_stdio_output@@@__crt_stdio_output@@IAE_NAA_J@Z 100438b0 f i libucrtd:output.obj
 0001:000429f0       ??$extract_argument_from_va_list@G_J@?$positional_parameter_base@_WV?$string_output_adapter@_W@__crt_stdio_output@@@__crt_stdio_output@@IAE_NAA_J@Z 100439f0 f i libucrtd:output.obj
 0001:00042b30       ??$extract_argument_from_va_list@G_J@?$standard_base@DV?$stream_output_adapter@D@__crt_stdio_output@@@__crt_stdio_output@@IAE_NAA_J@Z 10043b30 f i libucrtd:output.obj
 0001:00042b60       ??$extract_argument_from_va_list@G_J@?$standard_base@DV?$string_output_adapter@D@__crt_stdio_output@@@__crt_stdio_output@@IAE_NAA_J@Z 10043b60 f i libucrtd:output.obj
 0001:00042b90       ??$extract_argument_from_va_list@G_J@?$standard_base@_WV?$stream_output_adapter@_W@__crt_stdio_output@@@__crt_stdio_output@@IAE_NAA_J@Z 10043b90 f i libucrtd:output.obj
 0001:00042bc0       ??$extract_argument_from_va_list@G_J@?$standard_base@_WV?$string_output_adapter@_W@__crt_stdio_output@@@__crt_stdio_output@@IAE_NAA_J@Z 10043bc0 f i libucrtd:output.obj
 0001:00042bf0       ??$extract_argument_from_va_list@H_J@?$positional_parameter_base@DV?$stream_output_adapter@D@__crt_stdio_output@@@__crt_stdio_output@@IAE_NAA_J@Z 10043bf0 f i libucrtd:output.obj
 0001:00042d20       ??$extract_argument_from_va_list@H_J@?$positional_parameter_base@DV?$string_output_adapter@D@__crt_stdio_output@@@__crt_stdio_output@@IAE_NAA_J@Z 10043d20 f i libucrtd:output.obj
 0001:00042e50       ??$extract_argument_from_va_list@H_J@?$positional_parameter_base@_WV?$stream_output_adapter@_W@__crt_stdio_output@@@__crt_stdio_output@@IAE_NAA_J@Z 10043e50 f i libucrtd:output.obj
 0001:00042f80       ??$extract_argument_from_va_list@H_J@?$positional_parameter_base@_WV?$string_output_adapter@_W@__crt_stdio_output@@@__crt_stdio_output@@IAE_NAA_J@Z 10043f80 f i libucrtd:output.obj
 0001:000430b0       ??$extract_argument_from_va_list@H_J@?$standard_base@DV?$stream_output_adapter@D@__crt_stdio_output@@@__crt_stdio_output@@IAE_NAA_J@Z 100440b0 f i libucrtd:output.obj
 0001:000430e0       ??$extract_argument_from_va_list@H_J@?$standard_base@DV?$string_output_adapter@D@__crt_stdio_output@@@__crt_stdio_output@@IAE_NAA_J@Z 100440e0 f i libucrtd:output.obj
 0001:00043110       ??$extract_argument_from_va_list@H_J@?$standard_base@_WV?$stream_output_adapter@_W@__crt_stdio_output@@@__crt_stdio_output@@IAE_NAA_J@Z 10044110 f i libucrtd:output.obj
 0001:00043140       ??$extract_argument_from_va_list@H_J@?$standard_base@_WV?$string_output_adapter@_W@__crt_stdio_output@@@__crt_stdio_output@@IAE_NAA_J@Z 10044140 f i libucrtd:output.obj
 0001:00043170       ??$extract_argument_from_va_list@I_J@?$positional_parameter_base@DV?$stream_output_adapter@D@__crt_stdio_output@@@__crt_stdio_output@@IAE_NAA_J@Z 10044170 f i libucrtd:output.obj
 0001:000432a0       ??$extract_argument_from_va_list@I_J@?$positional_parameter_base@DV?$string_output_adapter@D@__crt_stdio_output@@@__crt_stdio_output@@IAE_NAA_J@Z 100442a0 f i libucrtd:output.obj
 0001:000433d0       ??$extract_argument_from_va_list@I_J@?$positional_parameter_base@_WV?$stream_output_adapter@_W@__crt_stdio_output@@@__crt_stdio_output@@IAE_NAA_J@Z 100443d0 f i libucrtd:output.obj
 0001:00043500       ??$extract_argument_from_va_list@I_J@?$positional_parameter_base@_WV?$string_output_adapter@_W@__crt_stdio_output@@@__crt_stdio_output@@IAE_NAA_J@Z 10044500 f i libucrtd:output.obj
 0001:00043630       ??$extract_argument_from_va_list@I_J@?$standard_base@DV?$stream_output_adapter@D@__crt_stdio_output@@@__crt_stdio_output@@IAE_NAA_J@Z 10044630 f i libucrtd:output.obj
 0001:00043660       ??$extract_argument_from_va_list@I_J@?$standard_base@DV?$string_output_adapter@D@__crt_stdio_output@@@__crt_stdio_output@@IAE_NAA_J@Z 10044660 f i libucrtd:output.obj
 0001:00043690       ??$extract_argument_from_va_list@I_J@?$standard_base@_WV?$stream_output_adapter@_W@__crt_stdio_output@@@__crt_stdio_output@@IAE_NAA_J@Z 10044690 f i libucrtd:output.obj
 0001:000436c0       ??$extract_argument_from_va_list@I_J@?$standard_base@_WV?$string_output_adapter@_W@__crt_stdio_output@@@__crt_stdio_output@@IAE_NAA_J@Z 100446c0 f i libucrtd:output.obj
 0001:000436f0       ??$extract_argument_from_va_list@PADPAD@?$positional_parameter_base@DV?$stream_output_adapter@D@__crt_stdio_output@@@__crt_stdio_output@@IAE_NAAPAD@Z 100446f0 f i libucrtd:output.obj
 0001:00043820       ??$extract_argument_from_va_list@PADPAD@?$positional_parameter_base@DV?$string_output_adapter@D@__crt_stdio_output@@@__crt_stdio_output@@IAE_NAAPAD@Z 10044820 f i libucrtd:output.obj
 0001:00043950       ??$extract_argument_from_va_list@PADPAD@?$positional_parameter_base@_WV?$stream_output_adapter@_W@__crt_stdio_output@@@__crt_stdio_output@@IAE_NAAPAD@Z 10044950 f i libucrtd:output.obj
 0001:00043a80       ??$extract_argument_from_va_list@PADPAD@?$positional_parameter_base@_WV?$string_output_adapter@_W@__crt_stdio_output@@@__crt_stdio_output@@IAE_NAAPAD@Z 10044a80 f i libucrtd:output.obj
 0001:00043bb0       ??$extract_argument_from_va_list@PADPAD@?$standard_base@DV?$stream_output_adapter@D@__crt_stdio_output@@@__crt_stdio_output@@IAE_NAAPAD@Z 10044bb0 f i libucrtd:output.obj
 0001:00043be0       ??$extract_argument_from_va_list@PADPAD@?$standard_base@DV?$string_output_adapter@D@__crt_stdio_output@@@__crt_stdio_output@@IAE_NAAPAD@Z 10044be0 f i libucrtd:output.obj
 0001:00043c10       ??$extract_argument_from_va_list@PADPAD@?$standard_base@_WV?$stream_output_adapter@_W@__crt_stdio_output@@@__crt_stdio_output@@IAE_NAAPAD@Z 10044c10 f i libucrtd:output.obj
 0001:00043c40       ??$extract_argument_from_va_list@PADPAD@?$standard_base@_WV?$string_output_adapter@_W@__crt_stdio_output@@@__crt_stdio_output@@IAE_NAAPAD@Z 10044c40 f i libucrtd:output.obj
 0001:00044370       ??$extract_argument_from_va_list@PAXPAX@?$positional_parameter_base@DV?$stream_output_adapter@D@__crt_stdio_output@@@__crt_stdio_output@@IAE_NAAPAX@Z 10045370 f i libucrtd:output.obj
 0001:000444a0       ??$extract_argument_from_va_list@PAXPAX@?$positional_parameter_base@DV?$string_output_adapter@D@__crt_stdio_output@@@__crt_stdio_output@@IAE_NAAPAX@Z 100454a0 f i libucrtd:output.obj
 0001:000445d0       ??$extract_argument_from_va_list@PAXPAX@?$positional_parameter_base@_WV?$stream_output_adapter@_W@__crt_stdio_output@@@__crt_stdio_output@@IAE_NAAPAX@Z 100455d0 f i libucrtd:output.obj
 0001:00044700       ??$extract_argument_from_va_list@PAXPAX@?$positional_parameter_base@_WV?$string_output_adapter@_W@__crt_stdio_output@@@__crt_stdio_output@@IAE_NAAPAX@Z 10045700 f i libucrtd:output.obj
 0001:00044830       ??$extract_argument_from_va_list@PAXPAX@?$standard_base@DV?$stream_output_adapter@D@__crt_stdio_output@@@__crt_stdio_output@@IAE_NAAPAX@Z 10045830 f i libucrtd:output.obj
 0001:00044860       ??$extract_argument_from_va_list@PAXPAX@?$standard_base@DV?$string_output_adapter@D@__crt_stdio_output@@@__crt_stdio_output@@IAE_NAAPAX@Z 10045860 f i libucrtd:output.obj
 0001:00044890       ??$extract_argument_from_va_list@PAXPAX@?$standard_base@_WV?$stream_output_adapter@_W@__crt_stdio_output@@@__crt_stdio_output@@IAE_NAAPAX@Z 10045890 f i libucrtd:output.obj
 0001:000448c0       ??$extract_argument_from_va_list@PAXPAX@?$standard_base@_WV?$string_output_adapter@_W@__crt_stdio_output@@@__crt_stdio_output@@IAE_NAAPAX@Z 100458c0 f i libucrtd:output.obj
 0001:000448f0       ??$extract_argument_from_va_list@U_CRT_DOUBLE@@U1@@?$positional_parameter_base@DV?$stream_output_adapter@D@__crt_stdio_output@@@__crt_stdio_output@@IAE_NAAU_CRT_DOUBLE@@@Z 100458f0 f i libucrtd:output.obj
 0001:00044a50       ??$extract_argument_from_va_list@U_CRT_DOUBLE@@U1@@?$positional_parameter_base@DV?$string_output_adapter@D@__crt_stdio_output@@@__crt_stdio_output@@IAE_NAAU_CRT_DOUBLE@@@Z 10045a50 f i libucrtd:output.obj
 0001:00044bb0       ??$extract_argument_from_va_list@U_CRT_DOUBLE@@U1@@?$positional_parameter_base@_WV?$stream_output_adapter@_W@__crt_stdio_output@@@__crt_stdio_output@@IAE_NAAU_CRT_DOUBLE@@@Z 10045bb0 f i libucrtd:output.obj
 0001:00044d10       ??$extract_argument_from_va_list@U_CRT_DOUBLE@@U1@@?$positional_parameter_base@_WV?$string_output_adapter@_W@__crt_stdio_output@@@__crt_stdio_output@@IAE_NAAU_CRT_DOUBLE@@@Z 10045d10 f i libucrtd:output.obj
 0001:00044e70       ??$extract_argument_from_va_list@U_CRT_DOUBLE@@U1@@?$standard_base@DV?$stream_output_adapter@D@__crt_stdio_output@@@__crt_stdio_output@@IAE_NAAU_CRT_DOUBLE@@@Z 10045e70 f i libucrtd:output.obj
 0001:00044ec0       ??$extract_argument_from_va_list@U_CRT_DOUBLE@@U1@@?$standard_base@DV?$string_output_adapter@D@__crt_stdio_output@@@__crt_stdio_output@@IAE_NAAU_CRT_DOUBLE@@@Z 10045ec0 f i libucrtd:output.obj
 0001:00044f10       ??$extract_argument_from_va_list@U_CRT_DOUBLE@@U1@@?$standard_base@_WV?$stream_output_adapter@_W@__crt_stdio_output@@@__crt_stdio_output@@IAE_NAAU_CRT_DOUBLE@@@Z 10045f10 f i libucrtd:output.obj
 0001:00044f60       ??$extract_argument_from_va_list@U_CRT_DOUBLE@@U1@@?$standard_base@_WV?$string_output_adapter@_W@__crt_stdio_output@@@__crt_stdio_output@@IAE_NAAU_CRT_DOUBLE@@@Z 10045f60 f i libucrtd:output.obj
 0001:00044fb0       ??$extract_argument_from_va_list@_J_J@?$positional_parameter_base@DV?$stream_output_adapter@D@__crt_stdio_output@@@__crt_stdio_output@@IAE_NAA_J@Z 10045fb0 f i libucrtd:output.obj
 0001:000450e0       ??$extract_argument_from_va_list@_J_J@?$positional_parameter_base@DV?$string_output_adapter@D@__crt_stdio_output@@@__crt_stdio_output@@IAE_NAA_J@Z 100460e0 f i libucrtd:output.obj
 0001:00045210       ??$extract_argument_from_va_list@_J_J@?$positional_parameter_base@_WV?$stream_output_adapter@_W@__crt_stdio_output@@@__crt_stdio_output@@IAE_NAA_J@Z 10046210 f i libucrtd:output.obj
 0001:00045340       ??$extract_argument_from_va_list@_J_J@?$positional_parameter_base@_WV?$string_output_adapter@_W@__crt_stdio_output@@@__crt_stdio_output@@IAE_NAA_J@Z 10046340 f i libucrtd:output.obj
 0001:00045470       ??$extract_argument_from_va_list@_J_J@?$standard_base@DV?$stream_output_adapter@D@__crt_stdio_output@@@__crt_stdio_output@@IAE_NAA_J@Z 10046470 f i libucrtd:output.obj
 0001:000454a0       ??$extract_argument_from_va_list@_J_J@?$standard_base@DV?$string_output_adapter@D@__crt_stdio_output@@@__crt_stdio_output@@IAE_NAA_J@Z 100464a0 f i libucrtd:output.obj
 0001:000454d0       ??$extract_argument_from_va_list@_J_J@?$standard_base@_WV?$stream_output_adapter@_W@__crt_stdio_output@@@__crt_stdio_output@@IAE_NAA_J@Z 100464d0 f i libucrtd:output.obj
 0001:00045500       ??$extract_argument_from_va_list@_J_J@?$standard_base@_WV?$string_output_adapter@_W@__crt_stdio_output@@@__crt_stdio_output@@IAE_NAA_J@Z 10046500 f i libucrtd:output.obj
 0001:00045530       ??$extract_argument_from_va_list@_K_J@?$positional_parameter_base@DV?$stream_output_adapter@D@__crt_stdio_output@@@__crt_stdio_output@@IAE_NAA_J@Z 10046530 f i libucrtd:output.obj
 0001:00045660       ??$extract_argument_from_va_list@_K_J@?$positional_parameter_base@DV?$string_output_adapter@D@__crt_stdio_output@@@__crt_stdio_output@@IAE_NAA_J@Z 10046660 f i libucrtd:output.obj
 0001:00045790       ??$extract_argument_from_va_list@_K_J@?$positional_parameter_base@_WV?$stream_output_adapter@_W@__crt_stdio_output@@@__crt_stdio_output@@IAE_NAA_J@Z 10046790 f i libucrtd:output.obj
 0001:000458c0       ??$extract_argument_from_va_list@_K_J@?$positional_parameter_base@_WV?$string_output_adapter@_W@__crt_stdio_output@@@__crt_stdio_output@@IAE_NAA_J@Z 100468c0 f i libucrtd:output.obj
 0001:000459f0       ??$extract_argument_from_va_list@_K_J@?$standard_base@DV?$stream_output_adapter@D@__crt_stdio_output@@@__crt_stdio_output@@IAE_NAA_J@Z 100469f0 f i libucrtd:output.obj
 0001:00045a20       ??$extract_argument_from_va_list@_K_J@?$standard_base@DV?$string_output_adapter@D@__crt_stdio_output@@@__crt_stdio_output@@IAE_NAA_J@Z 10046a20 f i libucrtd:output.obj
 0001:00045a50       ??$extract_argument_from_va_list@_K_J@?$standard_base@_WV?$stream_output_adapter@_W@__crt_stdio_output@@@__crt_stdio_output@@IAE_NAA_J@Z 10046a50 f i libucrtd:output.obj
 0001:00045a80       ??$extract_argument_from_va_list@_K_J@?$standard_base@_WV?$string_output_adapter@_W@__crt_stdio_output@@@__crt_stdio_output@@IAE_NAA_J@Z 10046a80 f i libucrtd:output.obj
 0001:00045ab0       ??$extract_argument_from_va_list@_W_W@?$positional_parameter_base@DV?$stream_output_adapter@D@__crt_stdio_output@@@__crt_stdio_output@@IAE_NAA_W@Z 10046ab0 f i libucrtd:output.obj
 0001:00045be0       ??$extract_argument_from_va_list@_W_W@?$positional_parameter_base@DV?$string_output_adapter@D@__crt_stdio_output@@@__crt_stdio_output@@IAE_NAA_W@Z 10046be0 f i libucrtd:output.obj
 0001:00045d10       ??$extract_argument_from_va_list@_W_W@?$positional_parameter_base@_WV?$stream_output_adapter@_W@__crt_stdio_output@@@__crt_stdio_output@@IAE_NAA_W@Z 10046d10 f i libucrtd:output.obj
 0001:00045e40       ??$extract_argument_from_va_list@_W_W@?$positional_parameter_base@_WV?$string_output_adapter@_W@__crt_stdio_output@@@__crt_stdio_output@@IAE_NAA_W@Z 10046e40 f i libucrtd:output.obj
 0001:00045f70       ??$extract_argument_from_va_list@_W_W@?$standard_base@DV?$stream_output_adapter@D@__crt_stdio_output@@@__crt_stdio_output@@IAE_NAA_W@Z 10046f70 f i libucrtd:output.obj
 0001:00045fa0       ??$extract_argument_from_va_list@_W_W@?$standard_base@DV?$string_output_adapter@D@__crt_stdio_output@@@__crt_stdio_output@@IAE_NAA_W@Z 10046fa0 f i libucrtd:output.obj
 0001:00045fd0       ??$extract_argument_from_va_list@_W_W@?$standard_base@_WV?$stream_output_adapter@_W@__crt_stdio_output@@@__crt_stdio_output@@IAE_NAA_W@Z 10046fd0 f i libucrtd:output.obj
 0001:00046000       ??$extract_argument_from_va_list@_W_W@?$standard_base@_WV?$string_output_adapter@_W@__crt_stdio_output@@@__crt_stdio_output@@IAE_NAA_W@Z 10047000 f i libucrtd:output.obj
 0001:00046030       ??$get_parameter_type@D@?$positional_parameter_base@DV?$stream_output_adapter@D@__crt_stdio_output@@@__crt_stdio_output@@CA?AW4parameter_type@01@PAD@Z 10047030 f i libucrtd:output.obj
 0001:00046040       ??$get_parameter_type@D@?$positional_parameter_base@DV?$string_output_adapter@D@__crt_stdio_output@@@__crt_stdio_output@@CA?AW4parameter_type@01@PAD@Z 10047040 f i libucrtd:output.obj
 0001:00046050       ??$get_parameter_type@D@?$positional_parameter_base@_WV?$stream_output_adapter@_W@__crt_stdio_output@@@__crt_stdio_output@@CA?AW4parameter_type@01@PAD@Z 10047050 f i libucrtd:output.obj
 0001:00046060       ??$get_parameter_type@D@?$positional_parameter_base@_WV?$string_output_adapter@_W@__crt_stdio_output@@@__crt_stdio_output@@CA?AW4parameter_type@01@PAD@Z 10047060 f i libucrtd:output.obj
 0001:000460b0       ??$get_parameter_type@X@?$positional_parameter_base@DV?$stream_output_adapter@D@__crt_stdio_output@@@__crt_stdio_output@@CA?AW4parameter_type@01@PAX@Z 100470b0 f i libucrtd:output.obj
 0001:000460c0       ??$get_parameter_type@X@?$positional_parameter_base@DV?$string_output_adapter@D@__crt_stdio_output@@@__crt_stdio_output@@CA?AW4parameter_type@01@PAX@Z 100470c0 f i libucrtd:output.obj
 0001:000460d0       ??$get_parameter_type@X@?$positional_parameter_base@_WV?$stream_output_adapter@_W@__crt_stdio_output@@@__crt_stdio_output@@CA?AW4parameter_type@01@PAX@Z 100470d0 f i libucrtd:output.obj
 0001:000460e0       ??$get_parameter_type@X@?$positional_parameter_base@_WV?$string_output_adapter@_W@__crt_stdio_output@@@__crt_stdio_output@@CA?AW4parameter_type@01@PAX@Z 100470e0 f i libucrtd:output.obj
 0001:000460f0       ??$is_character_specifier@D@?$positional_parameter_base@DV?$stream_output_adapter@D@__crt_stdio_output@@@__crt_stdio_output@@CA_ND@Z 100470f0 f i libucrtd:output.obj
 0001:00046120       ??$is_character_specifier@D@?$positional_parameter_base@DV?$string_output_adapter@D@__crt_stdio_output@@@__crt_stdio_output@@CA_ND@Z 10047120 f i libucrtd:output.obj
 0001:00046150       ??$is_character_specifier@_W@?$positional_parameter_base@_WV?$stream_output_adapter@_W@__crt_stdio_output@@@__crt_stdio_output@@CA_N_W@Z 10047150 f i libucrtd:output.obj
 0001:00046180       ??$is_character_specifier@_W@?$positional_parameter_base@_WV?$string_output_adapter@_W@__crt_stdio_output@@@__crt_stdio_output@@CA_N_W@Z 10047180 f i libucrtd:output.obj
 0001:000461b0       ??$is_integral_specifier@D@?$positional_parameter_base@DV?$stream_output_adapter@D@__crt_stdio_output@@@__crt_stdio_output@@CA_ND@Z 100471b0 f i libucrtd:output.obj
 0001:00046210       ??$is_integral_specifier@D@?$positional_parameter_base@DV?$string_output_adapter@D@__crt_stdio_output@@@__crt_stdio_output@@CA_ND@Z 10047210 f i libucrtd:output.obj
 0001:00046270       ??$is_integral_specifier@_W@?$positional_parameter_base@_WV?$stream_output_adapter@_W@__crt_stdio_output@@@__crt_stdio_output@@CA_N_W@Z 10047270 f i libucrtd:output.obj
 0001:000462d0       ??$is_integral_specifier@_W@?$positional_parameter_base@_WV?$string_output_adapter@_W@__crt_stdio_output@@@__crt_stdio_output@@CA_N_W@Z 100472d0 f i libucrtd:output.obj
 0001:00046330       ??$is_pointer_specifier@D@?$positional_parameter_base@DV?$stream_output_adapter@D@__crt_stdio_output@@@__crt_stdio_output@@CA_ND@Z 10047330 f i libucrtd:output.obj
 0001:00046360       ??$is_pointer_specifier@D@?$positional_parameter_base@DV?$string_output_adapter@D@__crt_stdio_output@@@__crt_stdio_output@@CA_ND@Z 10047360 f i libucrtd:output.obj
 0001:00046390       ??$is_pointer_specifier@_W@?$positional_parameter_base@_WV?$stream_output_adapter@_W@__crt_stdio_output@@@__crt_stdio_output@@CA_N_W@Z 10047390 f i libucrtd:output.obj
 0001:000463c0       ??$is_pointer_specifier@_W@?$positional_parameter_base@_WV?$string_output_adapter@_W@__crt_stdio_output@@@__crt_stdio_output@@CA_N_W@Z 100473c0 f i libucrtd:output.obj
 0001:000463f0       ??$is_string_specifier@D@?$positional_parameter_base@DV?$stream_output_adapter@D@__crt_stdio_output@@@__crt_stdio_output@@CA_ND@Z 100473f0 f i libucrtd:output.obj
 0001:00046420       ??$is_string_specifier@D@?$positional_parameter_base@DV?$string_output_adapter@D@__crt_stdio_output@@@__crt_stdio_output@@CA_ND@Z 10047420 f i libucrtd:output.obj
 0001:00046450       ??$is_string_specifier@_W@?$positional_parameter_base@_WV?$stream_output_adapter@_W@__crt_stdio_output@@@__crt_stdio_output@@CA_N_W@Z 10047450 f i libucrtd:output.obj
 0001:00046480       ??$is_string_specifier@_W@?$positional_parameter_base@_WV?$string_output_adapter@_W@__crt_stdio_output@@@__crt_stdio_output@@CA_N_W@Z 10047480 f i libucrtd:output.obj
 0001:000464b0       ??$is_wide_character_specifier@D@__crt_stdio_output@@YA_N_KDW4length_modifier@0@@Z 100474b0 f i libucrtd:output.obj
 0001:00046530       ??$is_wide_character_specifier@_W@__crt_stdio_output@@YA_N_K_WW4length_modifier@0@@Z 10047530 f i libucrtd:output.obj
 0001:000465f0       ??$peek_va_arg@C@__crt_stdio_output@@YACPAD@Z 100475f0 f i libucrtd:output.obj
 0001:00046610       ??$peek_va_arg@E@__crt_stdio_output@@YAEPAD@Z 10047610 f i libucrtd:output.obj
 0001:00046630       ??$peek_va_arg@F@__crt_stdio_output@@YAFPAD@Z 10047630 f i libucrtd:output.obj
 0001:00046650       ??$peek_va_arg@G@__crt_stdio_output@@YAGPAD@Z 10047650 f i libucrtd:output.obj
 0001:00046670       ??$peek_va_arg@H@__crt_stdio_output@@YAHPAD@Z 10047670 f i libucrtd:output.obj
 0001:00046690       ??$peek_va_arg@I@__crt_stdio_output@@YAIPAD@Z 10047690 f i libucrtd:output.obj
 0001:000466b0       ??$peek_va_arg@PAD@__crt_stdio_output@@YAPADPAD@Z 100476b0 f i libucrtd:output.obj
 0001:00046750       ??$peek_va_arg@PAX@__crt_stdio_output@@YAPAXPAD@Z 10047750 f i libucrtd:output.obj
 0001:00046770       ??$peek_va_arg@U_CRT_DOUBLE@@@__crt_stdio_output@@YA?AU_CRT_DOUBLE@@PAD@Z 10047770 f i libucrtd:output.obj
 0001:00046790       ??$peek_va_arg@_J@__crt_stdio_output@@YA_JPAD@Z 10047790 f i libucrtd:output.obj
 0001:000467b0       ??$peek_va_arg@_K@__crt_stdio_output@@YA_KPAD@Z 100477b0 f i libucrtd:output.obj
 0001:000467d0       ??$peek_va_arg@_W@__crt_stdio_output@@YA_WPAD@Z 100477d0 f i libucrtd:output.obj
 0001:000467f0       ??$puttc_nolock@ABDPAU_iobuf@@@?$__crt_char_traits@D@@SAHABD$$QAPAU_iobuf@@@Z 100477f0 f i libucrtd:output.obj
 0001:00046810       ??$puttc_nolock@AB_WPAU_iobuf@@@?$__crt_char_traits@_W@@SAGAB_W$$QAPAU_iobuf@@@Z 10047810 f i libucrtd:output.obj
 0001:00046830       ??$read_va_arg@C@__crt_stdio_output@@YACAAPAD@Z 10047830 f i libucrtd:output.obj
 0001:00046850       ??$read_va_arg@E@__crt_stdio_output@@YAEAAPAD@Z 10047850 f i libucrtd:output.obj
 0001:00046870       ??$read_va_arg@F@__crt_stdio_output@@YAFAAPAD@Z 10047870 f i libucrtd:output.obj
 0001:00046890       ??$read_va_arg@G@__crt_stdio_output@@YAGAAPAD@Z 10047890 f i libucrtd:output.obj
 0001:000468b0       ??$read_va_arg@H@__crt_stdio_output@@YAHAAPAD@Z 100478b0 f i libucrtd:output.obj
 0001:000468d0       ??$read_va_arg@I@__crt_stdio_output@@YAIAAPAD@Z 100478d0 f i libucrtd:output.obj
 0001:000468f0       ??$read_va_arg@PAD@__crt_stdio_output@@YAPADAAPAD@Z 100478f0 f i libucrtd:output.obj
 0001:00046a90       ??$read_va_arg@PAX@__crt_stdio_output@@YAPAXAAPAD@Z 10047a90 f i libucrtd:output.obj
 0001:00046ab0       ??$read_va_arg@U_CRT_DOUBLE@@@__crt_stdio_output@@YA?AU_CRT_DOUBLE@@AAPAD@Z 10047ab0 f i libucrtd:output.obj
 0001:00046ad0       ??$read_va_arg@_J@__crt_stdio_output@@YA_JAAPAD@Z 10047ad0 f i libucrtd:output.obj
 0001:00046af0       ??$read_va_arg@_K@__crt_stdio_output@@YA_KAAPAD@Z 10047af0 f i libucrtd:output.obj
 0001:00046b10       ??$read_va_arg@_W@__crt_stdio_output@@YA_WAAPAD@Z 10047b10 f i libucrtd:output.obj
 0001:00046b30       ??$scratch_count@D@formatting_buffer@__crt_stdio_output@@QBEIXZ 10047b30 f i libucrtd:output.obj
 0001:00046b50       ??$scratch_data@D@formatting_buffer@__crt_stdio_output@@QAEPADXZ 10047b50 f i libucrtd:output.obj
 0001:00046ba0       ??$tcstol@AAPBDPAPADH@?$__crt_char_traits@D@@SAJAAPBD$$QAPAPAD$$QAH@Z 10047ba0 f i libucrtd:output.obj
 0001:00046bd0       ??$tcstol@AAPB_WPAPA_WH@?$__crt_char_traits@_W@@SAJAAPB_W$$QAPAPA_W$$QAH@Z 10047bd0 f i libucrtd:output.obj
 0001:00046c00       ??$tcstol@PBDPAPADH@?$__crt_char_traits@D@@SAJ$$QAPBD$$QAPAPAD$$QAH@Z 10047c00 f i libucrtd:output.obj
 0001:00046c30       ??$tcstol@PB_WPAPA_WH@?$__crt_char_traits@_W@@SAJ$$QAPB_W$$QAPAPA_W$$QAH@Z 10047c30 f i libucrtd:output.obj
 0001:00046c60       ??$type_case_integer_parse_into_buffer@I@?$output_processor@DV?$stream_output_adapter@D@__crt_stdio_output@@V?$format_validation_base@DV?$stream_output_adapter@D@__crt_stdio_output@@@2@@__crt_stdio_output@@AAEXII_N@Z 10047c60 f i libucrtd:output.obj
 0001:00046d30       ??$type_case_integer_parse_into_buffer@I@?$output_processor@DV?$stream_output_adapter@D@__crt_stdio_output@@V?$positional_parameter_base@DV?$stream_output_adapter@D@__crt_stdio_output@@@2@@__crt_stdio_output@@AAEXII_N@Z 10047d30 f i libucrtd:output.obj
 0001:00046e00       ??$type_case_integer_parse_into_buffer@I@?$output_processor@DV?$stream_output_adapter@D@__crt_stdio_output@@V?$standard_base@DV?$stream_output_adapter@D@__crt_stdio_output@@@2@@__crt_stdio_output@@AAEXII_N@Z 10047e00 f i libucrtd:output.obj
 0001:00046ed0       ??$type_case_integer_parse_into_buffer@I@?$output_processor@DV?$string_output_adapter@D@__crt_stdio_output@@V?$format_validation_base@DV?$string_output_adapter@D@__crt_stdio_output@@@2@@__crt_stdio_output@@AAEXII_N@Z 10047ed0 f i libucrtd:output.obj
 0001:00046fa0       ??$type_case_integer_parse_into_buffer@I@?$output_processor@DV?$string_output_adapter@D@__crt_stdio_output@@V?$positional_parameter_base@DV?$string_output_adapter@D@__crt_stdio_output@@@2@@__crt_stdio_output@@AAEXII_N@Z 10047fa0 f i libucrtd:output.obj
 0001:00047070       ??$type_case_integer_parse_into_buffer@I@?$output_processor@DV?$string_output_adapter@D@__crt_stdio_output@@V?$standard_base@DV?$string_output_adapter@D@__crt_stdio_output@@@2@@__crt_stdio_output@@AAEXII_N@Z 10048070 f i libucrtd:output.obj
 0001:00047140       ??$type_case_integer_parse_into_buffer@I@?$output_processor@_WV?$stream_output_adapter@_W@__crt_stdio_output@@V?$format_validation_base@_WV?$stream_output_adapter@_W@__crt_stdio_output@@@2@@__crt_stdio_output@@AAEXII_N@Z 10048140 f i libucrtd:output.obj
 0001:00047220       ??$type_case_integer_parse_into_buffer@I@?$output_processor@_WV?$stream_output_adapter@_W@__crt_stdio_output@@V?$positional_parameter_base@_WV?$stream_output_adapter@_W@__crt_stdio_output@@@2@@__crt_stdio_output@@AAEXII_N@Z 10048220 f i libucrtd:output.obj
 0001:00047300       ??$type_case_integer_parse_into_buffer@I@?$output_processor@_WV?$stream_output_adapter@_W@__crt_stdio_output@@V?$standard_base@_WV?$stream_output_adapter@_W@__crt_stdio_output@@@2@@__crt_stdio_output@@AAEXII_N@Z 10048300 f i libucrtd:output.obj
 0001:000473e0       ??$type_case_integer_parse_into_buffer@I@?$output_processor@_WV?$string_output_adapter@_W@__crt_stdio_output@@V?$format_validation_base@_WV?$string_output_adapter@_W@__crt_stdio_output@@@2@@__crt_stdio_output@@AAEXII_N@Z 100483e0 f i libucrtd:output.obj
 0001:000474c0       ??$type_case_integer_parse_into_buffer@I@?$output_processor@_WV?$string_output_adapter@_W@__crt_stdio_output@@V?$positional_parameter_base@_WV?$string_output_adapter@_W@__crt_stdio_output@@@2@@__crt_stdio_output@@AAEXII_N@Z 100484c0 f i libucrtd:output.obj
 0001:000475a0       ??$type_case_integer_parse_into_buffer@I@?$output_processor@_WV?$string_output_adapter@_W@__crt_stdio_output@@V?$standard_base@_WV?$string_output_adapter@_W@__crt_stdio_output@@@2@@__crt_stdio_output@@AAEXII_N@Z 100485a0 f i libucrtd:output.obj
 0001:00047680       ??$type_case_integer_parse_into_buffer@_K@?$output_processor@DV?$stream_output_adapter@D@__crt_stdio_output@@V?$format_validation_base@DV?$stream_output_adapter@D@__crt_stdio_output@@@2@@__crt_stdio_output@@AAEX_KI_N@Z 10048680 f i libucrtd:output.obj
 0001:00047770       ??$type_case_integer_parse_into_buffer@_K@?$output_processor@DV?$stream_output_adapter@D@__crt_stdio_output@@V?$positional_parameter_base@DV?$stream_output_adapter@D@__crt_stdio_output@@@2@@__crt_stdio_output@@AAEX_KI_N@Z 10048770 f i libucrtd:output.obj
 0001:00047860       ??$type_case_integer_parse_into_buffer@_K@?$output_processor@DV?$stream_output_adapter@D@__crt_stdio_output@@V?$standard_base@DV?$stream_output_adapter@D@__crt_stdio_output@@@2@@__crt_stdio_output@@AAEX_KI_N@Z 10048860 f i libucrtd:output.obj
 0001:00047950       ??$type_case_integer_parse_into_buffer@_K@?$output_processor@DV?$string_output_adapter@D@__crt_stdio_output@@V?$format_validation_base@DV?$string_output_adapter@D@__crt_stdio_output@@@2@@__crt_stdio_output@@AAEX_KI_N@Z 10048950 f i libucrtd:output.obj
 0001:00047a40       ??$type_case_integer_parse_into_buffer@_K@?$output_processor@DV?$string_output_adapter@D@__crt_stdio_output@@V?$positional_parameter_base@DV?$string_output_adapter@D@__crt_stdio_output@@@2@@__crt_stdio_output@@AAEX_KI_N@Z 10048a40 f i libucrtd:output.obj
 0001:00047b30       ??$type_case_integer_parse_into_buffer@_K@?$output_processor@DV?$string_output_adapter@D@__crt_stdio_output@@V?$standard_base@DV?$string_output_adapter@D@__crt_stdio_output@@@2@@__crt_stdio_output@@AAEX_KI_N@Z 10048b30 f i libucrtd:output.obj
 0001:00047c20       ??$type_case_integer_parse_into_buffer@_K@?$output_processor@_WV?$stream_output_adapter@_W@__crt_stdio_output@@V?$format_validation_base@_WV?$stream_output_adapter@_W@__crt_stdio_output@@@2@@__crt_stdio_output@@AAEX_KI_N@Z 10048c20 f i libucrtd:output.obj
 0001:00047d20       ??$type_case_integer_parse_into_buffer@_K@?$output_processor@_WV?$stream_output_adapter@_W@__crt_stdio_output@@V?$positional_parameter_base@_WV?$stream_output_adapter@_W@__crt_stdio_output@@@2@@__crt_stdio_output@@AAEX_KI_N@Z 10048d20 f i libucrtd:output.obj
 0001:00047e20       ??$type_case_integer_parse_into_buffer@_K@?$output_processor@_WV?$stream_output_adapter@_W@__crt_stdio_output@@V?$standard_base@_WV?$stream_output_adapter@_W@__crt_stdio_output@@@2@@__crt_stdio_output@@AAEX_KI_N@Z 10048e20 f i libucrtd:output.obj
 0001:00047f20       ??$type_case_integer_parse_into_buffer@_K@?$output_processor@_WV?$string_output_adapter@_W@__crt_stdio_output@@V?$format_validation_base@_WV?$string_output_adapter@_W@__crt_stdio_output@@@2@@__crt_stdio_output@@AAEX_KI_N@Z 10048f20 f i libucrtd:output.obj
 0001:00048020       ??$type_case_integer_parse_into_buffer@_K@?$output_processor@_WV?$string_output_adapter@_W@__crt_stdio_output@@V?$positional_parameter_base@_WV?$string_output_adapter@_W@__crt_stdio_output@@@2@@__crt_stdio_output@@AAEX_KI_N@Z 10049020 f i libucrtd:output.obj
 0001:00048120       ??$type_case_integer_parse_into_buffer@_K@?$output_processor@_WV?$string_output_adapter@_W@__crt_stdio_output@@V?$standard_base@_WV?$string_output_adapter@_W@__crt_stdio_output@@@2@@__crt_stdio_output@@AAEX_KI_N@Z 10049120 f i libucrtd:output.obj
 0001:00048220       ??$write_multiple_characters@V?$stream_output_adapter@D@__crt_stdio_output@@D@__crt_stdio_output@@YAXABV?$stream_output_adapter@D@0@DHQAH@Z 10049220 f i libucrtd:output.obj
 0001:00048270       ??$write_multiple_characters@V?$stream_output_adapter@_W@__crt_stdio_output@@D@__crt_stdio_output@@YAXABV?$stream_output_adapter@_W@0@DHQAH@Z 10049270 f i libucrtd:output.obj
 0001:000482c0       ??$write_multiple_characters@V?$string_output_adapter@D@__crt_stdio_output@@D@__crt_stdio_output@@YAXABV?$string_output_adapter@D@0@DHQAH@Z 100492c0 f i libucrtd:output.obj
 0001:00048310       ??$write_multiple_characters@V?$string_output_adapter@_W@__crt_stdio_output@@D@__crt_stdio_output@@YAXABV?$string_output_adapter@_W@0@DHQAH@Z 10049310 f i libucrtd:output.obj
 0001:00048660       ??0?$common_data@D@__crt_stdio_output@@IAE@XZ 10049660 f i libucrtd:output.obj
 0001:00048710       ??0?$common_data@_W@__crt_stdio_output@@IAE@XZ 10049710 f i libucrtd:output.obj
 0001:000487c0       ??0?$output_adapter_data@DV?$stream_output_adapter@D@__crt_stdio_output@@@__crt_stdio_output@@IAE@ABV?$stream_output_adapter@D@1@_KQBDQAU__crt_locale_pointers@@QAD@Z 100497c0 f i libucrtd:output.obj
 0001:00048820       ??0?$output_adapter_data@DV?$string_output_adapter@D@__crt_stdio_output@@@__crt_stdio_output@@IAE@ABV?$string_output_adapter@D@1@_KQBDQAU__crt_locale_pointers@@QAD@Z 10049820 f i libucrtd:output.obj
 0001:00048880       ??0?$output_adapter_data@_WV?$stream_output_adapter@_W@__crt_stdio_output@@@__crt_stdio_output@@IAE@ABV?$stream_output_adapter@_W@1@_KQB_WQAU__crt_locale_pointers@@QAD@Z 10049880 f i libucrtd:output.obj
 0001:000488e0       ??0?$output_adapter_data@_WV?$string_output_adapter@_W@__crt_stdio_output@@@__crt_stdio_output@@IAE@ABV?$string_output_adapter@_W@1@_KQB_WQAU__crt_locale_pointers@@QAD@Z 100498e0 f i libucrtd:output.obj
 0001:00048940       ??0?$output_processor@DV?$stream_output_adapter@D@__crt_stdio_output@@V?$format_validation_base@DV?$stream_output_adapter@D@__crt_stdio_output@@@2@@__crt_stdio_output@@QAE@ABV?$stream_output_adapter@D@1@_KQBDQAU__crt_locale_pointers@@QAD@Z 10049940 f i libucrtd:output.obj
 0001:00048970       ??0?$output_processor@DV?$stream_output_adapter@D@__crt_stdio_output@@V?$positional_parameter_base@DV?$stream_output_adapter@D@__crt_stdio_output@@@2@@__crt_stdio_output@@QAE@ABV?$stream_output_adapter@D@1@_KQBDQAU__crt_locale_pointers@@QAD@Z 10049970 f i libucrtd:output.obj
 0001:000489a0       ??0?$output_processor@DV?$stream_output_adapter@D@__crt_stdio_output@@V?$standard_base@DV?$stream_output_adapter@D@__crt_stdio_output@@@2@@__crt_stdio_output@@QAE@ABV?$stream_output_adapter@D@1@_KQBDQAU__crt_locale_pointers@@QAD@Z 100499a0 f i libucrtd:output.obj
 0001:000489d0       ??0?$output_processor@DV?$string_output_adapter@D@__crt_stdio_output@@V?$format_validation_base@DV?$string_output_adapter@D@__crt_stdio_output@@@2@@__crt_stdio_output@@QAE@ABV?$string_output_adapter@D@1@_KQBDQAU__crt_locale_pointers@@QAD@Z 100499d0 f i libucrtd:output.obj
 0001:00048a00       ??0?$output_processor@DV?$string_output_adapter@D@__crt_stdio_output@@V?$positional_parameter_base@DV?$string_output_adapter@D@__crt_stdio_output@@@2@@__crt_stdio_output@@QAE@ABV?$string_output_adapter@D@1@_KQBDQAU__crt_locale_pointers@@QAD@Z 10049a00 f i libucrtd:output.obj
 0001:00048a30       ??0?$output_processor@DV?$string_output_adapter@D@__crt_stdio_output@@V?$standard_base@DV?$string_output_adapter@D@__crt_stdio_output@@@2@@__crt_stdio_output@@QAE@ABV?$string_output_adapter@D@1@_KQBDQAU__crt_locale_pointers@@QAD@Z 10049a30 f i libucrtd:output.obj
 0001:00048a60       ??0?$output_processor@_WV?$stream_output_adapter@_W@__crt_stdio_output@@V?$format_validation_base@_WV?$stream_output_adapter@_W@__crt_stdio_output@@@2@@__crt_stdio_output@@QAE@ABV?$stream_output_adapter@_W@1@_KQB_WQAU__crt_locale_pointers@@QAD@Z 10049a60 f i libucrtd:output.obj
 0001:00048a90       ??0?$output_processor@_WV?$stream_output_adapter@_W@__crt_stdio_output@@V?$positional_parameter_base@_WV?$stream_output_adapter@_W@__crt_stdio_output@@@2@@__crt_stdio_output@@QAE@ABV?$stream_output_adapter@_W@1@_KQB_WQAU__crt_locale_pointers@@QAD@Z 10049a90 f i libucrtd:output.obj
 0001:00048ac0       ??0?$output_processor@_WV?$stream_output_adapter@_W@__crt_stdio_output@@V?$standard_base@_WV?$stream_output_adapter@_W@__crt_stdio_output@@@2@@__crt_stdio_output@@QAE@ABV?$stream_output_adapter@_W@1@_KQB_WQAU__crt_locale_pointers@@QAD@Z 10049ac0 f i libucrtd:output.obj
 0001:00048af0       ??0?$output_processor@_WV?$string_output_adapter@_W@__crt_stdio_output@@V?$format_validation_base@_WV?$string_output_adapter@_W@__crt_stdio_output@@@2@@__crt_stdio_output@@QAE@ABV?$string_output_adapter@_W@1@_KQB_WQAU__crt_locale_pointers@@QAD@Z 10049af0 f i libucrtd:output.obj
 0001:00048b20       ??0?$output_processor@_WV?$string_output_adapter@_W@__crt_stdio_output@@V?$positional_parameter_base@_WV?$string_output_adapter@_W@__crt_stdio_output@@@2@@__crt_stdio_output@@QAE@ABV?$string_output_adapter@_W@1@_KQB_WQAU__crt_locale_pointers@@QAD@Z 10049b20 f i libucrtd:output.obj
 0001:00048b50       ??0?$output_processor@_WV?$string_output_adapter@_W@__crt_stdio_output@@V?$standard_base@_WV?$string_output_adapter@_W@__crt_stdio_output@@@2@@__crt_stdio_output@@QAE@ABV?$string_output_adapter@_W@1@_KQB_WQAU__crt_locale_pointers@@QAD@Z 10049b50 f i libucrtd:output.obj
 0001:00048b80       ??0?$stream_output_adapter@D@__crt_stdio_output@@QAE@QAU_iobuf@@@Z 10049b80 f i libucrtd:output.obj
 0001:00048ba0       ??0?$stream_output_adapter@_W@__crt_stdio_output@@QAE@QAU_iobuf@@@Z 10049ba0 f i libucrtd:output.obj
 0001:00048bc0       ??0?$string_output_adapter@D@__crt_stdio_output@@QAE@QAU?$string_output_adapter_context@D@1@@Z 10049bc0 f i libucrtd:output.obj
 0001:00048be0       ??0?$string_output_adapter@_W@__crt_stdio_output@@QAE@QAU?$string_output_adapter_context@_W@1@@Z 10049be0 f i libucrtd:output.obj
 0001:00048c00       ??0_LocaleUpdate@@QAE@QAU__crt_locale_pointers@@@Z 10049c00 f i libucrtd:output.obj
 0001:00048ce0       ??0__acrt_stdio_temporary_buffering_guard@@QAE@QAU_iobuf@@@Z 10049ce0 f i libucrtd:output.obj
 0001:00048d10       ??0__crt_deferred_errno_cache@@QAE@XZ 10049d10 f i libucrtd:output.obj
 0001:00048d30       ??0__crt_errno_guard@@QAE@QAH@Z 10049d30 f i libucrtd:output.obj
 0001:00048d60       ??0__crt_stdio_stream@@QAE@QAU_iobuf@@@Z 10049d60 f i libucrtd:output.obj
 0001:00048d80       ??0formatting_buffer@__crt_stdio_output@@QAE@XZ 10049d80 f i libucrtd:output.obj
 0001:00048db0       ??1?$common_data@D@__crt_stdio_output@@QAE@XZ 10049db0 f i libucrtd:output.obj
 0001:00048dd0       ??1?$common_data@_W@__crt_stdio_output@@QAE@XZ 10049dd0 f i libucrtd:output.obj
 0001:00048df0       ??1?$format_validation_base@DV?$stream_output_adapter@D@__crt_stdio_output@@@__crt_stdio_output@@QAE@XZ 10049df0 f i libucrtd:output.obj
 0001:00048e10       ??1?$format_validation_base@DV?$string_output_adapter@D@__crt_stdio_output@@@__crt_stdio_output@@QAE@XZ 10049e10 f i libucrtd:output.obj
 0001:00048e30       ??1?$format_validation_base@_WV?$stream_output_adapter@_W@__crt_stdio_output@@@__crt_stdio_output@@QAE@XZ 10049e30 f i libucrtd:output.obj
 0001:00048e50       ??1?$format_validation_base@_WV?$string_output_adapter@_W@__crt_stdio_output@@@__crt_stdio_output@@QAE@XZ 10049e50 f i libucrtd:output.obj
 0001:00048e70       ??1?$output_adapter_data@DV?$stream_output_adapter@D@__crt_stdio_output@@@__crt_stdio_output@@QAE@XZ 10049e70 f i libucrtd:output.obj
 0001:00048e90       ??1?$output_adapter_data@DV?$string_output_adapter@D@__crt_stdio_output@@@__crt_stdio_output@@QAE@XZ 10049e90 f i libucrtd:output.obj
 0001:00048eb0       ??1?$output_adapter_data@_WV?$stream_output_adapter@_W@__crt_stdio_output@@@__crt_stdio_output@@QAE@XZ 10049eb0 f i libucrtd:output.obj
 0001:00048ed0       ??1?$output_adapter_data@_WV?$string_output_adapter@_W@__crt_stdio_output@@@__crt_stdio_output@@QAE@XZ 10049ed0 f i libucrtd:output.obj
 0001:00048ef0       ??1?$output_processor@DV?$stream_output_adapter@D@__crt_stdio_output@@V?$format_validation_base@DV?$stream_output_adapter@D@__crt_stdio_output@@@2@@__crt_stdio_output@@QAE@XZ 10049ef0 f i libucrtd:output.obj
 0001:00048f10       ??1?$output_processor@DV?$stream_output_adapter@D@__crt_stdio_output@@V?$positional_parameter_base@DV?$stream_output_adapter@D@__crt_stdio_output@@@2@@__crt_stdio_output@@QAE@XZ 10049f10 f i libucrtd:output.obj
 0001:00048f30       ??1?$output_processor@DV?$stream_output_adapter@D@__crt_stdio_output@@V?$standard_base@DV?$stream_output_adapter@D@__crt_stdio_output@@@2@@__crt_stdio_output@@QAE@XZ 10049f30 f i libucrtd:output.obj
 0001:00048f50       ??1?$output_processor@DV?$string_output_adapter@D@__crt_stdio_output@@V?$format_validation_base@DV?$string_output_adapter@D@__crt_stdio_output@@@2@@__crt_stdio_output@@QAE@XZ 10049f50 f i libucrtd:output.obj
 0001:00048f70       ??1?$output_processor@DV?$string_output_adapter@D@__crt_stdio_output@@V?$positional_parameter_base@DV?$string_output_adapter@D@__crt_stdio_output@@@2@@__crt_stdio_output@@QAE@XZ 10049f70 f i libucrtd:output.obj
 0001:00048f90       ??1?$output_processor@DV?$string_output_adapter@D@__crt_stdio_output@@V?$standard_base@DV?$string_output_adapter@D@__crt_stdio_output@@@2@@__crt_stdio_output@@QAE@XZ 10049f90 f i libucrtd:output.obj
 0001:00048fb0       ??1?$output_processor@_WV?$stream_output_adapter@_W@__crt_stdio_output@@V?$format_validation_base@_WV?$stream_output_adapter@_W@__crt_stdio_output@@@2@@__crt_stdio_output@@QAE@XZ 10049fb0 f i libucrtd:output.obj
 0001:00048fd0       ??1?$output_processor@_WV?$stream_output_adapter@_W@__crt_stdio_output@@V?$positional_parameter_base@_WV?$stream_output_adapter@_W@__crt_stdio_output@@@2@@__crt_stdio_output@@QAE@XZ 10049fd0 f i libucrtd:output.obj
 0001:00048ff0       ??1?$output_processor@_WV?$stream_output_adapter@_W@__crt_stdio_output@@V?$standard_base@_WV?$stream_output_adapter@_W@__crt_stdio_output@@@2@@__crt_stdio_output@@QAE@XZ 10049ff0 f i libucrtd:output.obj
 0001:00049010       ??1?$output_processor@_WV?$string_output_adapter@_W@__crt_stdio_output@@V?$format_validation_base@_WV?$string_output_adapter@_W@__crt_stdio_output@@@2@@__crt_stdio_output@@QAE@XZ 1004a010 f i libucrtd:output.obj
 0001:00049030       ??1?$output_processor@_WV?$string_output_adapter@_W@__crt_stdio_output@@V?$positional_parameter_base@_WV?$string_output_adapter@_W@__crt_stdio_output@@@2@@__crt_stdio_output@@QAE@XZ 1004a030 f i libucrtd:output.obj
 0001:00049050       ??1?$output_processor@_WV?$string_output_adapter@_W@__crt_stdio_output@@V?$standard_base@_WV?$string_output_adapter@_W@__crt_stdio_output@@@2@@__crt_stdio_output@@QAE@XZ 1004a050 f i libucrtd:output.obj
 0001:00049070       ??1?$positional_parameter_base@DV?$stream_output_adapter@D@__crt_stdio_output@@@__crt_stdio_output@@QAE@XZ 1004a070 f i libucrtd:output.obj
 0001:00049090       ??1?$positional_parameter_base@DV?$string_output_adapter@D@__crt_stdio_output@@@__crt_stdio_output@@QAE@XZ 1004a090 f i libucrtd:output.obj
 0001:000490b0       ??1?$positional_parameter_base@_WV?$stream_output_adapter@_W@__crt_stdio_output@@@__crt_stdio_output@@QAE@XZ 1004a0b0 f i libucrtd:output.obj
 0001:000490d0       ??1?$positional_parameter_base@_WV?$string_output_adapter@_W@__crt_stdio_output@@@__crt_stdio_output@@QAE@XZ 1004a0d0 f i libucrtd:output.obj
 0001:000490f0       ??1?$standard_base@DV?$stream_output_adapter@D@__crt_stdio_output@@@__crt_stdio_output@@QAE@XZ 1004a0f0 f i libucrtd:output.obj
 0001:00049110       ??1?$standard_base@DV?$string_output_adapter@D@__crt_stdio_output@@@__crt_stdio_output@@QAE@XZ 1004a110 f i libucrtd:output.obj
 0001:00049130       ??1?$standard_base@_WV?$stream_output_adapter@_W@__crt_stdio_output@@@__crt_stdio_output@@QAE@XZ 1004a130 f i libucrtd:output.obj
 0001:00049150       ??1?$standard_base@_WV?$string_output_adapter@_W@__crt_stdio_output@@@__crt_stdio_output@@QAE@XZ 1004a150 f i libucrtd:output.obj
 0001:00049170       ??1_LocaleUpdate@@QAE@XZ   1004a170 f i libucrtd:output.obj
 0001:000491b0       ??1__acrt_stdio_temporary_buffering_guard@@QAE@XZ 1004a1b0 f i libucrtd:output.obj
 0001:000491e0       ??1__crt_errno_guard@@QAE@XZ 1004a1e0 f i libucrtd:output.obj
 0001:00049210       ??1formatting_buffer@__crt_stdio_output@@QAE@XZ 1004a210 f i libucrtd:output.obj
 0001:00049230       ??4?$__crt_unique_heap_ptr@DU__crt_internal_free_policy@@@@QAEAAV0@$$QAV0@@Z 1004a230 f i libucrtd:output.obj
 0001:00049260       ??C__crt_stdio_stream@@QBEPAU__crt_stdio_stream_data@@XZ 1004a260 f i libucrtd:output.obj
 0001:000499a0       ?GetLocaleT@_LocaleUpdate@@QAEPAU__crt_locale_pointers@@XZ 1004a9a0 f i libucrtd:output.obj
 0001:000499c0       ?adjust_hexit@?$output_processor@DV?$stream_output_adapter@D@__crt_stdio_output@@V?$format_validation_base@DV?$stream_output_adapter@D@__crt_stdio_output@@@2@@__crt_stdio_output@@CADH_N@Z 1004a9c0 f i libucrtd:output.obj
 0001:00049a00       ?adjust_hexit@?$output_processor@DV?$stream_output_adapter@D@__crt_stdio_output@@V?$positional_parameter_base@DV?$stream_output_adapter@D@__crt_stdio_output@@@2@@__crt_stdio_output@@CADH_N@Z 1004aa00 f i libucrtd:output.obj
 0001:00049a40       ?adjust_hexit@?$output_processor@DV?$stream_output_adapter@D@__crt_stdio_output@@V?$standard_base@DV?$stream_output_adapter@D@__crt_stdio_output@@@2@@__crt_stdio_output@@CADH_N@Z 1004aa40 f i libucrtd:output.obj
 0001:00049a80       ?adjust_hexit@?$output_processor@DV?$string_output_adapter@D@__crt_stdio_output@@V?$format_validation_base@DV?$string_output_adapter@D@__crt_stdio_output@@@2@@__crt_stdio_output@@CADH_N@Z 1004aa80 f i libucrtd:output.obj
 0001:00049ac0       ?adjust_hexit@?$output_processor@DV?$string_output_adapter@D@__crt_stdio_output@@V?$positional_parameter_base@DV?$string_output_adapter@D@__crt_stdio_output@@@2@@__crt_stdio_output@@CADH_N@Z 1004aac0 f i libucrtd:output.obj
 0001:00049b00       ?adjust_hexit@?$output_processor@DV?$string_output_adapter@D@__crt_stdio_output@@V?$standard_base@DV?$string_output_adapter@D@__crt_stdio_output@@@2@@__crt_stdio_output@@CADH_N@Z 1004ab00 f i libucrtd:output.obj
 0001:00049b40       ?adjust_hexit@?$output_processor@_WV?$stream_output_adapter@_W@__crt_stdio_output@@V?$format_validation_base@_WV?$stream_output_adapter@_W@__crt_stdio_output@@@2@@__crt_stdio_output@@CADH_N@Z 1004ab40 f i libucrtd:output.obj
 0001:00049b80       ?adjust_hexit@?$output_processor@_WV?$stream_output_adapter@_W@__crt_stdio_output@@V?$positional_parameter_base@_WV?$stream_output_adapter@_W@__crt_stdio_output@@@2@@__crt_stdio_output@@CADH_N@Z 1004ab80 f i libucrtd:output.obj
 0001:00049bc0       ?adjust_hexit@?$output_processor@_WV?$stream_output_adapter@_W@__crt_stdio_output@@V?$standard_base@_WV?$stream_output_adapter@_W@__crt_stdio_output@@@2@@__crt_stdio_output@@CADH_N@Z 1004abc0 f i libucrtd:output.obj
 0001:00049c00       ?adjust_hexit@?$output_processor@_WV?$string_output_adapter@_W@__crt_stdio_output@@V?$format_validation_base@_WV?$string_output_adapter@_W@__crt_stdio_output@@@2@@__crt_stdio_output@@CADH_N@Z 1004ac00 f i libucrtd:output.obj
 0001:00049c40       ?adjust_hexit@?$output_processor@_WV?$string_output_adapter@_W@__crt_stdio_output@@V?$positional_parameter_base@_WV?$string_output_adapter@_W@__crt_stdio_output@@@2@@__crt_stdio_output@@CADH_N@Z 1004ac40 f i libucrtd:output.obj
 0001:00049c80       ?adjust_hexit@?$output_processor@_WV?$string_output_adapter@_W@__crt_stdio_output@@V?$standard_base@_WV?$string_output_adapter@_W@__crt_stdio_output@@@2@@__crt_stdio_output@@CADH_N@Z 1004ac80 f i libucrtd:output.obj
 0001:00049cc0       ?advance_to_next_pass@?$positional_parameter_base@DV?$stream_output_adapter@D@__crt_stdio_output@@@__crt_stdio_output@@IAE_NXZ 1004acc0 f i libucrtd:output.obj
 0001:00049d60       ?advance_to_next_pass@?$positional_parameter_base@DV?$string_output_adapter@D@__crt_stdio_output@@@__crt_stdio_output@@IAE_NXZ 1004ad60 f i libucrtd:output.obj
 0001:00049e00       ?advance_to_next_pass@?$positional_parameter_base@_WV?$stream_output_adapter@_W@__crt_stdio_output@@@__crt_stdio_output@@IAE_NXZ 1004ae00 f i libucrtd:output.obj
 0001:00049ea0       ?advance_to_next_pass@?$positional_parameter_base@_WV?$string_output_adapter@_W@__crt_stdio_output@@@__crt_stdio_output@@IAE_NXZ 1004aea0 f i libucrtd:output.obj
 0001:00049f40       ?advance_to_next_pass@?$standard_base@DV?$stream_output_adapter@D@__crt_stdio_output@@@__crt_stdio_output@@IAE_NXZ 1004af40 f i libucrtd:output.obj
 0001:00049f90       ?advance_to_next_pass@?$standard_base@DV?$string_output_adapter@D@__crt_stdio_output@@@__crt_stdio_output@@IAE_NXZ 1004af90 f i libucrtd:output.obj
 0001:00049fe0       ?advance_to_next_pass@?$standard_base@_WV?$stream_output_adapter@_W@__crt_stdio_output@@@__crt_stdio_output@@IAE_NXZ 1004afe0 f i libucrtd:output.obj
 0001:0004a030       ?advance_to_next_pass@?$standard_base@_WV?$string_output_adapter@_W@__crt_stdio_output@@@__crt_stdio_output@@IAE_NXZ 1004b030 f i libucrtd:output.obj
 0001:0004a080       ?crop_zeroes@__crt_stdio_output@@YAXPADQAU__crt_locale_pointers@@@Z 1004b080 f i libucrtd:output.obj
 0001:0004a180       ?find_next_state@?$output_processor@DV?$stream_output_adapter@D@__crt_stdio_output@@V?$format_validation_base@DV?$stream_output_adapter@D@__crt_stdio_output@@@2@@__crt_stdio_output@@ABE?AW4state@2@DW432@@Z 1004b180 f i libucrtd:output.obj
 0001:0004a200       ?find_next_state@?$output_processor@DV?$stream_output_adapter@D@__crt_stdio_output@@V?$positional_parameter_base@DV?$stream_output_adapter@D@__crt_stdio_output@@@2@@__crt_stdio_output@@ABE?AW4state@2@DW432@@Z 1004b200 f i libucrtd:output.obj
 0001:0004a280       ?find_next_state@?$output_processor@DV?$stream_output_adapter@D@__crt_stdio_output@@V?$standard_base@DV?$stream_output_adapter@D@__crt_stdio_output@@@2@@__crt_stdio_output@@ABE?AW4state@2@DW432@@Z 1004b280 f i libucrtd:output.obj
 0001:0004a300       ?find_next_state@?$output_processor@DV?$string_output_adapter@D@__crt_stdio_output@@V?$format_validation_base@DV?$string_output_adapter@D@__crt_stdio_output@@@2@@__crt_stdio_output@@ABE?AW4state@2@DW432@@Z 1004b300 f i libucrtd:output.obj
 0001:0004a380       ?find_next_state@?$output_processor@DV?$string_output_adapter@D@__crt_stdio_output@@V?$positional_parameter_base@DV?$string_output_adapter@D@__crt_stdio_output@@@2@@__crt_stdio_output@@ABE?AW4state@2@DW432@@Z 1004b380 f i libucrtd:output.obj
 0001:0004a400       ?find_next_state@?$output_processor@DV?$string_output_adapter@D@__crt_stdio_output@@V?$standard_base@DV?$string_output_adapter@D@__crt_stdio_output@@@2@@__crt_stdio_output@@ABE?AW4state@2@DW432@@Z 1004b400 f i libucrtd:output.obj
 0001:0004a480       ?find_next_state@?$output_processor@_WV?$stream_output_adapter@_W@__crt_stdio_output@@V?$format_validation_base@_WV?$stream_output_adapter@_W@__crt_stdio_output@@@2@@__crt_stdio_output@@ABE?AW4state@2@_WW432@@Z 1004b480 f i libucrtd:output.obj
 0001:0004a500       ?find_next_state@?$output_processor@_WV?$stream_output_adapter@_W@__crt_stdio_output@@V?$positional_parameter_base@_WV?$stream_output_adapter@_W@__crt_stdio_output@@@2@@__crt_stdio_output@@ABE?AW4state@2@_WW432@@Z 1004b500 f i libucrtd:output.obj
 0001:0004a580       ?find_next_state@?$output_processor@_WV?$stream_output_adapter@_W@__crt_stdio_output@@V?$standard_base@_WV?$stream_output_adapter@_W@__crt_stdio_output@@@2@@__crt_stdio_output@@ABE?AW4state@2@_WW432@@Z 1004b580 f i libucrtd:output.obj
 0001:0004a600       ?find_next_state@?$output_processor@_WV?$string_output_adapter@_W@__crt_stdio_output@@V?$format_validation_base@_WV?$string_output_adapter@_W@__crt_stdio_output@@@2@@__crt_stdio_output@@ABE?AW4state@2@_WW432@@Z 1004b600 f i libucrtd:output.obj
 0001:0004a680       ?find_next_state@?$output_processor@_WV?$string_output_adapter@_W@__crt_stdio_output@@V?$positional_parameter_base@_WV?$string_output_adapter@_W@__crt_stdio_output@@@2@@__crt_stdio_output@@ABE?AW4state@2@_WW432@@Z 1004b680 f i libucrtd:output.obj
 0001:0004a700       ?find_next_state@?$output_processor@_WV?$string_output_adapter@_W@__crt_stdio_output@@V?$standard_base@_WV?$string_output_adapter@_W@__crt_stdio_output@@@2@@__crt_stdio_output@@ABE?AW4state@2@_WW432@@Z 1004b700 f i libucrtd:output.obj
 0001:0004a780       ?force_decimal_point@__crt_stdio_output@@YAXPADQAU__crt_locale_pointers@@@Z 1004b780 f i libucrtd:output.obj
 0001:0004a850       ?get@__crt_deferred_errno_cache@@QAEAAHXZ 1004b850 f i libucrtd:output.obj
 0001:0004a880       ?get_flags@__crt_stdio_stream@@QBEJXZ 1004b880 f i libucrtd:output.obj
 0001:0004a8a0       ?get_parameter_type@?$positional_parameter_base@DV?$stream_output_adapter@D@__crt_stdio_output@@@__crt_stdio_output@@CA?AW4parameter_type@12@F@Z 1004b8a0 f i libucrtd:output.obj
 0001:0004a8b0       ?get_parameter_type@?$positional_parameter_base@DV?$stream_output_adapter@D@__crt_stdio_output@@@__crt_stdio_output@@CA?AW4parameter_type@12@G@Z 1004b8b0 f i libucrtd:output.obj
 0001:0004a8c0       ?get_parameter_type@?$positional_parameter_base@DV?$stream_output_adapter@D@__crt_stdio_output@@@__crt_stdio_output@@CA?AW4parameter_type@12@H@Z 1004b8c0 f i libucrtd:output.obj
 0001:0004a8d0       ?get_parameter_type@?$positional_parameter_base@DV?$stream_output_adapter@D@__crt_stdio_output@@@__crt_stdio_output@@CA?AW4parameter_type@12@I@Z 1004b8d0 f i libucrtd:output.obj
 0001:0004a8e0       ?get_parameter_type@?$positional_parameter_base@DV?$stream_output_adapter@D@__crt_stdio_output@@@__crt_stdio_output@@CA?AW4parameter_type@12@U_CRT_DOUBLE@@@Z 1004b8e0 f i libucrtd:output.obj
 0001:0004a8f0       ?get_parameter_type@?$positional_parameter_base@DV?$stream_output_adapter@D@__crt_stdio_output@@@__crt_stdio_output@@CA?AW4parameter_type@12@_J@Z 1004b8f0 f i libucrtd:output.obj
 0001:0004a900       ?get_parameter_type@?$positional_parameter_base@DV?$stream_output_adapter@D@__crt_stdio_output@@@__crt_stdio_output@@CA?AW4parameter_type@12@_K@Z 1004b900 f i libucrtd:output.obj
 0001:0004a910       ?get_parameter_type@?$positional_parameter_base@DV?$stream_output_adapter@D@__crt_stdio_output@@@__crt_stdio_output@@CA?AW4parameter_type@12@_W@Z 1004b910 f i libucrtd:output.obj
 0001:0004a920       ?get_parameter_type@?$positional_parameter_base@DV?$string_output_adapter@D@__crt_stdio_output@@@__crt_stdio_output@@CA?AW4parameter_type@12@F@Z 1004b920 f i libucrtd:output.obj
 0001:0004a930       ?get_parameter_type@?$positional_parameter_base@DV?$string_output_adapter@D@__crt_stdio_output@@@__crt_stdio_output@@CA?AW4parameter_type@12@G@Z 1004b930 f i libucrtd:output.obj
 0001:0004a940       ?get_parameter_type@?$positional_parameter_base@DV?$string_output_adapter@D@__crt_stdio_output@@@__crt_stdio_output@@CA?AW4parameter_type@12@H@Z 1004b940 f i libucrtd:output.obj
 0001:0004a950       ?get_parameter_type@?$positional_parameter_base@DV?$string_output_adapter@D@__crt_stdio_output@@@__crt_stdio_output@@CA?AW4parameter_type@12@I@Z 1004b950 f i libucrtd:output.obj
 0001:0004a960       ?get_parameter_type@?$positional_parameter_base@DV?$string_output_adapter@D@__crt_stdio_output@@@__crt_stdio_output@@CA?AW4parameter_type@12@U_CRT_DOUBLE@@@Z 1004b960 f i libucrtd:output.obj
 0001:0004a970       ?get_parameter_type@?$positional_parameter_base@DV?$string_output_adapter@D@__crt_stdio_output@@@__crt_stdio_output@@CA?AW4parameter_type@12@_J@Z 1004b970 f i libucrtd:output.obj
 0001:0004a980       ?get_parameter_type@?$positional_parameter_base@DV?$string_output_adapter@D@__crt_stdio_output@@@__crt_stdio_output@@CA?AW4parameter_type@12@_K@Z 1004b980 f i libucrtd:output.obj
 0001:0004a990       ?get_parameter_type@?$positional_parameter_base@DV?$string_output_adapter@D@__crt_stdio_output@@@__crt_stdio_output@@CA?AW4parameter_type@12@_W@Z 1004b990 f i libucrtd:output.obj
 0001:0004a9a0       ?get_parameter_type@?$positional_parameter_base@_WV?$stream_output_adapter@_W@__crt_stdio_output@@@__crt_stdio_output@@CA?AW4parameter_type@12@F@Z 1004b9a0 f i libucrtd:output.obj
 0001:0004a9b0       ?get_parameter_type@?$positional_parameter_base@_WV?$stream_output_adapter@_W@__crt_stdio_output@@@__crt_stdio_output@@CA?AW4parameter_type@12@G@Z 1004b9b0 f i libucrtd:output.obj
 0001:0004a9c0       ?get_parameter_type@?$positional_parameter_base@_WV?$stream_output_adapter@_W@__crt_stdio_output@@@__crt_stdio_output@@CA?AW4parameter_type@12@H@Z 1004b9c0 f i libucrtd:output.obj
 0001:0004a9d0       ?get_parameter_type@?$positional_parameter_base@_WV?$stream_output_adapter@_W@__crt_stdio_output@@@__crt_stdio_output@@CA?AW4parameter_type@12@I@Z 1004b9d0 f i libucrtd:output.obj
 0001:0004a9e0       ?get_parameter_type@?$positional_parameter_base@_WV?$stream_output_adapter@_W@__crt_stdio_output@@@__crt_stdio_output@@CA?AW4parameter_type@12@U_CRT_DOUBLE@@@Z 1004b9e0 f i libucrtd:output.obj
 0001:0004a9f0       ?get_parameter_type@?$positional_parameter_base@_WV?$stream_output_adapter@_W@__crt_stdio_output@@@__crt_stdio_output@@CA?AW4parameter_type@12@_J@Z 1004b9f0 f i libucrtd:output.obj
 0001:0004aa00       ?get_parameter_type@?$positional_parameter_base@_WV?$stream_output_adapter@_W@__crt_stdio_output@@@__crt_stdio_output@@CA?AW4parameter_type@12@_K@Z 1004ba00 f i libucrtd:output.obj
 0001:0004aa10       ?get_parameter_type@?$positional_parameter_base@_WV?$stream_output_adapter@_W@__crt_stdio_output@@@__crt_stdio_output@@CA?AW4parameter_type@12@_W@Z 1004ba10 f i libucrtd:output.obj
 0001:0004aa20       ?get_parameter_type@?$positional_parameter_base@_WV?$string_output_adapter@_W@__crt_stdio_output@@@__crt_stdio_output@@CA?AW4parameter_type@12@F@Z 1004ba20 f i libucrtd:output.obj
 0001:0004aa30       ?get_parameter_type@?$positional_parameter_base@_WV?$string_output_adapter@_W@__crt_stdio_output@@@__crt_stdio_output@@CA?AW4parameter_type@12@G@Z 1004ba30 f i libucrtd:output.obj
 0001:0004aa40       ?get_parameter_type@?$positional_parameter_base@_WV?$string_output_adapter@_W@__crt_stdio_output@@@__crt_stdio_output@@CA?AW4parameter_type@12@H@Z 1004ba40 f i libucrtd:output.obj
 0001:0004aa50       ?get_parameter_type@?$positional_parameter_base@_WV?$string_output_adapter@_W@__crt_stdio_output@@@__crt_stdio_output@@CA?AW4parameter_type@12@I@Z 1004ba50 f i libucrtd:output.obj
 0001:0004aa60       ?get_parameter_type@?$positional_parameter_base@_WV?$string_output_adapter@_W@__crt_stdio_output@@@__crt_stdio_output@@CA?AW4parameter_type@12@U_CRT_DOUBLE@@@Z 1004ba60 f i libucrtd:output.obj
 0001:0004aa70       ?get_parameter_type@?$positional_parameter_base@_WV?$string_output_adapter@_W@__crt_stdio_output@@@__crt_stdio_output@@CA?AW4parameter_type@12@_J@Z 1004ba70 f i libucrtd:output.obj
 0001:0004aa80       ?get_parameter_type@?$positional_parameter_base@_WV?$string_output_adapter@_W@__crt_stdio_output@@@__crt_stdio_output@@CA?AW4parameter_type@12@_K@Z 1004ba80 f i libucrtd:output.obj
 0001:0004aa90       ?get_parameter_type@?$positional_parameter_base@_WV?$string_output_adapter@_W@__crt_stdio_output@@@__crt_stdio_output@@CA?AW4parameter_type@12@_W@Z 1004ba90 f i libucrtd:output.obj
 0001:0004aaa0       ?has_flag@?$output_processor@DV?$stream_output_adapter@D@__crt_stdio_output@@V?$format_validation_base@DV?$stream_output_adapter@D@__crt_stdio_output@@@2@@__crt_stdio_output@@ABE_NI@Z 1004baa0 f i libucrtd:output.obj
 0001:0004aad0       ?has_flag@?$output_processor@DV?$stream_output_adapter@D@__crt_stdio_output@@V?$positional_parameter_base@DV?$stream_output_adapter@D@__crt_stdio_output@@@2@@__crt_stdio_output@@ABE_NI@Z 1004bad0 f i libucrtd:output.obj
 0001:0004ab00       ?has_flag@?$output_processor@DV?$stream_output_adapter@D@__crt_stdio_output@@V?$standard_base@DV?$stream_output_adapter@D@__crt_stdio_output@@@2@@__crt_stdio_output@@ABE_NI@Z 1004bb00 f i libucrtd:output.obj
 0001:0004ab30       ?has_flag@?$output_processor@DV?$string_output_adapter@D@__crt_stdio_output@@V?$format_validation_base@DV?$string_output_adapter@D@__crt_stdio_output@@@2@@__crt_stdio_output@@ABE_NI@Z 1004bb30 f i libucrtd:output.obj
 0001:0004ab60       ?has_flag@?$output_processor@DV?$string_output_adapter@D@__crt_stdio_output@@V?$positional_parameter_base@DV?$string_output_adapter@D@__crt_stdio_output@@@2@@__crt_stdio_output@@ABE_NI@Z 1004bb60 f i libucrtd:output.obj
 0001:0004ab90       ?has_flag@?$output_processor@DV?$string_output_adapter@D@__crt_stdio_output@@V?$standard_base@DV?$string_output_adapter@D@__crt_stdio_output@@@2@@__crt_stdio_output@@ABE_NI@Z 1004bb90 f i libucrtd:output.obj
 0001:0004abc0       ?has_flag@?$output_processor@_WV?$stream_output_adapter@_W@__crt_stdio_output@@V?$format_validation_base@_WV?$stream_output_adapter@_W@__crt_stdio_output@@@2@@__crt_stdio_output@@ABE_NI@Z 1004bbc0 f i libucrtd:output.obj
 0001:0004abf0       ?has_flag@?$output_processor@_WV?$stream_output_adapter@_W@__crt_stdio_output@@V?$positional_parameter_base@_WV?$stream_output_adapter@_W@__crt_stdio_output@@@2@@__crt_stdio_output@@ABE_NI@Z 1004bbf0 f i libucrtd:output.obj
 0001:0004ac20       ?has_flag@?$output_processor@_WV?$stream_output_adapter@_W@__crt_stdio_output@@V?$standard_base@_WV?$stream_output_adapter@_W@__crt_stdio_output@@@2@@__crt_stdio_output@@ABE_NI@Z 1004bc20 f i libucrtd:output.obj
 0001:0004ac50       ?has_flag@?$output_processor@_WV?$string_output_adapter@_W@__crt_stdio_output@@V?$format_validation_base@_WV?$string_output_adapter@_W@__crt_stdio_output@@@2@@__crt_stdio_output@@ABE_NI@Z 1004bc50 f i libucrtd:output.obj
 0001:0004ac80       ?has_flag@?$output_processor@_WV?$string_output_adapter@_W@__crt_stdio_output@@V?$positional_parameter_base@_WV?$string_output_adapter@_W@__crt_stdio_output@@@2@@__crt_stdio_output@@ABE_NI@Z 1004bc80 f i libucrtd:output.obj
 0001:0004acb0       ?has_flag@?$output_processor@_WV?$string_output_adapter@_W@__crt_stdio_output@@V?$standard_base@_WV?$string_output_adapter@_W@__crt_stdio_output@@@2@@__crt_stdio_output@@ABE_NI@Z 1004bcb0 f i libucrtd:output.obj
 0001:0004ace0       ?is_positional_parameter_reappearance_consistent@?$positional_parameter_base@DV?$stream_output_adapter@D@__crt_stdio_output@@@__crt_stdio_output@@AAE_NABUparameter_data@12@W4parameter_type@12@DW4length_modifier@2@@Z 1004bce0 f i libucrtd:output.obj
 0001:0004af10       ?is_positional_parameter_reappearance_consistent@?$positional_parameter_base@DV?$string_output_adapter@D@__crt_stdio_output@@@__crt_stdio_output@@AAE_NABUparameter_data@12@W4parameter_type@12@DW4length_modifier@2@@Z 1004bf10 f i libucrtd:output.obj
 0001:0004b140       ?is_positional_parameter_reappearance_consistent@?$positional_parameter_base@_WV?$stream_output_adapter@_W@__crt_stdio_output@@@__crt_stdio_output@@AAE_NABUparameter_data@12@W4parameter_type@12@_WW4length_modifier@2@@Z 1004c140 f i libucrtd:output.obj
 0001:0004b370       ?is_positional_parameter_reappearance_consistent@?$positional_parameter_base@_WV?$string_output_adapter@_W@__crt_stdio_output@@@__crt_stdio_output@@AAE_NABUparameter_data@12@W4parameter_type@12@_WW4length_modifier@2@@Z 1004c370 f i libucrtd:output.obj
 0001:0004b5a0       ?is_string_backed@__crt_stdio_stream@@QBE_NXZ 1004c5a0 f i libucrtd:output.obj
 0001:0004b5e0       ?narrow_null_string@?$output_processor@DV?$stream_output_adapter@D@__crt_stdio_output@@V?$format_validation_base@DV?$stream_output_adapter@D@__crt_stdio_output@@@2@@__crt_stdio_output@@CAPADXZ 1004c5e0 f i libucrtd:output.obj
 0001:0004b5f0       ?narrow_null_string@?$output_processor@DV?$stream_output_adapter@D@__crt_stdio_output@@V?$positional_parameter_base@DV?$stream_output_adapter@D@__crt_stdio_output@@@2@@__crt_stdio_output@@CAPADXZ 1004c5f0 f i libucrtd:output.obj
 0001:0004b600       ?narrow_null_string@?$output_processor@DV?$stream_output_adapter@D@__crt_stdio_output@@V?$standard_base@DV?$stream_output_adapter@D@__crt_stdio_output@@@2@@__crt_stdio_output@@CAPADXZ 1004c600 f i libucrtd:output.obj
 0001:0004b610       ?narrow_null_string@?$output_processor@DV?$string_output_adapter@D@__crt_stdio_output@@V?$format_validation_base@DV?$string_output_adapter@D@__crt_stdio_output@@@2@@__crt_stdio_output@@CAPADXZ 1004c610 f i libucrtd:output.obj
 0001:0004b620       ?narrow_null_string@?$output_processor@DV?$string_output_adapter@D@__crt_stdio_output@@V?$positional_parameter_base@DV?$string_output_adapter@D@__crt_stdio_output@@@2@@__crt_stdio_output@@CAPADXZ 1004c620 f i libucrtd:output.obj
 0001:0004b630       ?narrow_null_string@?$output_processor@DV?$string_output_adapter@D@__crt_stdio_output@@V?$standard_base@DV?$string_output_adapter@D@__crt_stdio_output@@@2@@__crt_stdio_output@@CAPADXZ 1004c630 f i libucrtd:output.obj
 0001:0004b640       ?narrow_null_string@?$output_processor@_WV?$stream_output_adapter@_W@__crt_stdio_output@@V?$format_validation_base@_WV?$stream_output_adapter@_W@__crt_stdio_output@@@2@@__crt_stdio_output@@CAPADXZ 1004c640 f i libucrtd:output.obj
 0001:0004b650       ?narrow_null_string@?$output_processor@_WV?$stream_output_adapter@_W@__crt_stdio_output@@V?$positional_parameter_base@_WV?$stream_output_adapter@_W@__crt_stdio_output@@@2@@__crt_stdio_output@@CAPADXZ 1004c650 f i libucrtd:output.obj
 0001:0004b660       ?narrow_null_string@?$output_processor@_WV?$stream_output_adapter@_W@__crt_stdio_output@@V?$standard_base@_WV?$stream_output_adapter@_W@__crt_stdio_output@@@2@@__crt_stdio_output@@CAPADXZ 1004c660 f i libucrtd:output.obj
 0001:0004b670       ?narrow_null_string@?$output_processor@_WV?$string_output_adapter@_W@__crt_stdio_output@@V?$format_validation_base@_WV?$string_output_adapter@_W@__crt_stdio_output@@@2@@__crt_stdio_output@@CAPADXZ 1004c670 f i libucrtd:output.obj
 0001:0004b680       ?narrow_null_string@?$output_processor@_WV?$string_output_adapter@_W@__crt_stdio_output@@V?$positional_parameter_base@_WV?$string_output_adapter@_W@__crt_stdio_output@@@2@@__crt_stdio_output@@CAPADXZ 1004c680 f i libucrtd:output.obj
 0001:0004b690       ?narrow_null_string@?$output_processor@_WV?$string_output_adapter@_W@__crt_stdio_output@@V?$standard_base@_WV?$string_output_adapter@_W@__crt_stdio_output@@@2@@__crt_stdio_output@@CAPADXZ 1004c690 f i libucrtd:output.obj
 0001:0004b6a0       ?parse_int_from_format_string@?$output_processor@DV?$stream_output_adapter@D@__crt_stdio_output@@V?$format_validation_base@DV?$stream_output_adapter@D@__crt_stdio_output@@@2@@__crt_stdio_output@@AAE_NQAH@Z 1004c6a0 f i libucrtd:output.obj
 0001:0004b760       ?parse_int_from_format_string@?$output_processor@DV?$stream_output_adapter@D@__crt_stdio_output@@V?$positional_parameter_base@DV?$stream_output_adapter@D@__crt_stdio_output@@@2@@__crt_stdio_output@@AAE_NQAH@Z 1004c760 f i libucrtd:output.obj
 0001:0004b820       ?parse_int_from_format_string@?$output_processor@DV?$stream_output_adapter@D@__crt_stdio_output@@V?$standard_base@DV?$stream_output_adapter@D@__crt_stdio_output@@@2@@__crt_stdio_output@@AAE_NQAH@Z 1004c820 f i libucrtd:output.obj
 0001:0004b8e0       ?parse_int_from_format_string@?$output_processor@DV?$string_output_adapter@D@__crt_stdio_output@@V?$format_validation_base@DV?$string_output_adapter@D@__crt_stdio_output@@@2@@__crt_stdio_output@@AAE_NQAH@Z 1004c8e0 f i libucrtd:output.obj
 0001:0004b9a0       ?parse_int_from_format_string@?$output_processor@DV?$string_output_adapter@D@__crt_stdio_output@@V?$positional_parameter_base@DV?$string_output_adapter@D@__crt_stdio_output@@@2@@__crt_stdio_output@@AAE_NQAH@Z 1004c9a0 f i libucrtd:output.obj
 0001:0004ba60       ?parse_int_from_format_string@?$output_processor@DV?$string_output_adapter@D@__crt_stdio_output@@V?$standard_base@DV?$string_output_adapter@D@__crt_stdio_output@@@2@@__crt_stdio_output@@AAE_NQAH@Z 1004ca60 f i libucrtd:output.obj
 0001:0004bb20       ?parse_int_from_format_string@?$output_processor@_WV?$stream_output_adapter@_W@__crt_stdio_output@@V?$format_validation_base@_WV?$stream_output_adapter@_W@__crt_stdio_output@@@2@@__crt_stdio_output@@AAE_NQAH@Z 1004cb20 f i libucrtd:output.obj
 0001:0004bbe0       ?parse_int_from_format_string@?$output_processor@_WV?$stream_output_adapter@_W@__crt_stdio_output@@V?$positional_parameter_base@_WV?$stream_output_adapter@_W@__crt_stdio_output@@@2@@__crt_stdio_output@@AAE_NQAH@Z 1004cbe0 f i libucrtd:output.obj
 0001:0004bca0       ?parse_int_from_format_string@?$output_processor@_WV?$stream_output_adapter@_W@__crt_stdio_output@@V?$standard_base@_WV?$stream_output_adapter@_W@__crt_stdio_output@@@2@@__crt_stdio_output@@AAE_NQAH@Z 1004cca0 f i libucrtd:output.obj
 0001:0004bd60       ?parse_int_from_format_string@?$output_processor@_WV?$string_output_adapter@_W@__crt_stdio_output@@V?$format_validation_base@_WV?$string_output_adapter@_W@__crt_stdio_output@@@2@@__crt_stdio_output@@AAE_NQAH@Z 1004cd60 f i libucrtd:output.obj
 0001:0004be20       ?parse_int_from_format_string@?$output_processor@_WV?$string_output_adapter@_W@__crt_stdio_output@@V?$positional_parameter_base@_WV?$string_output_adapter@_W@__crt_stdio_output@@@2@@__crt_stdio_output@@AAE_NQAH@Z 1004ce20 f i libucrtd:output.obj
 0001:0004bee0       ?parse_int_from_format_string@?$output_processor@_WV?$string_output_adapter@_W@__crt_stdio_output@@V?$standard_base@_WV?$string_output_adapter@_W@__crt_stdio_output@@@2@@__crt_stdio_output@@AAE_NQAH@Z 1004cee0 f i libucrtd:output.obj
 0001:0004bfa0       ?process@?$output_processor@DV?$stream_output_adapter@D@__crt_stdio_output@@V?$format_validation_base@DV?$stream_output_adapter@D@__crt_stdio_output@@@2@@__crt_stdio_output@@QAEHXZ 1004cfa0 f i libucrtd:output.obj
 0001:0004c250       ?process@?$output_processor@DV?$stream_output_adapter@D@__crt_stdio_output@@V?$positional_parameter_base@DV?$stream_output_adapter@D@__crt_stdio_output@@@2@@__crt_stdio_output@@QAEHXZ 1004d250 f i libucrtd:output.obj
 0001:0004c500       ?process@?$output_processor@DV?$stream_output_adapter@D@__crt_stdio_output@@V?$standard_base@DV?$stream_output_adapter@D@__crt_stdio_output@@@2@@__crt_stdio_output@@QAEHXZ 1004d500 f i libucrtd:output.obj
 0001:0004c7b0       ?process@?$output_processor@DV?$string_output_adapter@D@__crt_stdio_output@@V?$format_validation_base@DV?$string_output_adapter@D@__crt_stdio_output@@@2@@__crt_stdio_output@@QAEHXZ 1004d7b0 f i libucrtd:output.obj
 0001:0004ca60       ?process@?$output_processor@DV?$string_output_adapter@D@__crt_stdio_output@@V?$positional_parameter_base@DV?$string_output_adapter@D@__crt_stdio_output@@@2@@__crt_stdio_output@@QAEHXZ 1004da60 f i libucrtd:output.obj
 0001:0004cd10       ?process@?$output_processor@DV?$string_output_adapter@D@__crt_stdio_output@@V?$standard_base@DV?$string_output_adapter@D@__crt_stdio_output@@@2@@__crt_stdio_output@@QAEHXZ 1004dd10 f i libucrtd:output.obj
 0001:0004cfc0       ?process@?$output_processor@_WV?$stream_output_adapter@_W@__crt_stdio_output@@V?$format_validation_base@_WV?$stream_output_adapter@_W@__crt_stdio_output@@@2@@__crt_stdio_output@@QAEHXZ 1004dfc0 f i libucrtd:output.obj
 0001:0004d270       ?process@?$output_processor@_WV?$stream_output_adapter@_W@__crt_stdio_output@@V?$positional_parameter_base@_WV?$stream_output_adapter@_W@__crt_stdio_output@@@2@@__crt_stdio_output@@QAEHXZ 1004e270 f i libucrtd:output.obj
 0001:0004d520       ?process@?$output_processor@_WV?$stream_output_adapter@_W@__crt_stdio_output@@V?$standard_base@_WV?$stream_output_adapter@_W@__crt_stdio_output@@@2@@__crt_stdio_output@@QAEHXZ 1004e520 f i libucrtd:output.obj
 0001:0004d7d0       ?process@?$output_processor@_WV?$string_output_adapter@_W@__crt_stdio_output@@V?$format_validation_base@_WV?$string_output_adapter@_W@__crt_stdio_output@@@2@@__crt_stdio_output@@QAEHXZ 1004e7d0 f i libucrtd:output.obj
 0001:0004da80       ?process@?$output_processor@_WV?$string_output_adapter@_W@__crt_stdio_output@@V?$positional_parameter_base@_WV?$string_output_adapter@_W@__crt_stdio_output@@@2@@__crt_stdio_output@@QAEHXZ 1004ea80 f i libucrtd:output.obj
 0001:0004dd30       ?process@?$output_processor@_WV?$string_output_adapter@_W@__crt_stdio_output@@V?$standard_base@_WV?$string_output_adapter@_W@__crt_stdio_output@@@2@@__crt_stdio_output@@QAEHXZ 1004ed30 f i libucrtd:output.obj
 0001:0004dfe0       ?public_stream@__crt_stdio_stream@@QBEPAU_iobuf@@XZ 1004efe0 f i libucrtd:output.obj
 0001:0004e000       ?set_flag@?$output_processor@DV?$stream_output_adapter@D@__crt_stdio_output@@V?$format_validation_base@DV?$stream_output_adapter@D@__crt_stdio_output@@@2@@__crt_stdio_output@@AAEXI@Z 1004f000 f i libucrtd:output.obj
 0001:0004e020       ?set_flag@?$output_processor@DV?$stream_output_adapter@D@__crt_stdio_output@@V?$positional_parameter_base@DV?$stream_output_adapter@D@__crt_stdio_output@@@2@@__crt_stdio_output@@AAEXI@Z 1004f020 f i libucrtd:output.obj
 0001:0004e040       ?set_flag@?$output_processor@DV?$stream_output_adapter@D@__crt_stdio_output@@V?$standard_base@DV?$stream_output_adapter@D@__crt_stdio_output@@@2@@__crt_stdio_output@@AAEXI@Z 1004f040 f i libucrtd:output.obj
 0001:0004e060       ?set_flag@?$output_processor@DV?$string_output_adapter@D@__crt_stdio_output@@V?$format_validation_base@DV?$string_output_adapter@D@__crt_stdio_output@@@2@@__crt_stdio_output@@AAEXI@Z 1004f060 f i libucrtd:output.obj
 0001:0004e080       ?set_flag@?$output_processor@DV?$string_output_adapter@D@__crt_stdio_output@@V?$positional_parameter_base@DV?$string_output_adapter@D@__crt_stdio_output@@@2@@__crt_stdio_output@@AAEXI@Z 1004f080 f i libucrtd:output.obj
 0001:0004e0a0       ?set_flag@?$output_processor@DV?$string_output_adapter@D@__crt_stdio_output@@V?$standard_base@DV?$string_output_adapter@D@__crt_stdio_output@@@2@@__crt_stdio_output@@AAEXI@Z 1004f0a0 f i libucrtd:output.obj
 0001:0004e0c0       ?set_flag@?$output_processor@_WV?$stream_output_adapter@_W@__crt_stdio_output@@V?$format_validation_base@_WV?$stream_output_adapter@_W@__crt_stdio_output@@@2@@__crt_stdio_output@@AAEXI@Z 1004f0c0 f i libucrtd:output.obj
 0001:0004e0e0       ?set_flag@?$output_processor@_WV?$stream_output_adapter@_W@__crt_stdio_output@@V?$positional_parameter_base@_WV?$stream_output_adapter@_W@__crt_stdio_output@@@2@@__crt_stdio_output@@AAEXI@Z 1004f0e0 f i libucrtd:output.obj
 0001:0004e100       ?set_flag@?$output_processor@_WV?$stream_output_adapter@_W@__crt_stdio_output@@V?$standard_base@_WV?$stream_output_adapter@_W@__crt_stdio_output@@@2@@__crt_stdio_output@@AAEXI@Z 1004f100 f i libucrtd:output.obj
 0001:0004e120       ?set_flag@?$output_processor@_WV?$string_output_adapter@_W@__crt_stdio_output@@V?$format_validation_base@_WV?$string_output_adapter@_W@__crt_stdio_output@@@2@@__crt_stdio_output@@AAEXI@Z 1004f120 f i libucrtd:output.obj
 0001:0004e140       ?set_flag@?$output_processor@_WV?$string_output_adapter@_W@__crt_stdio_output@@V?$positional_parameter_base@_WV?$string_output_adapter@_W@__crt_stdio_output@@@2@@__crt_stdio_output@@AAEXI@Z 1004f140 f i libucrtd:output.obj
 0001:0004e160       ?set_flag@?$output_processor@_WV?$string_output_adapter@_W@__crt_stdio_output@@V?$standard_base@_WV?$string_output_adapter@_W@__crt_stdio_output@@@2@@__crt_stdio_output@@AAEXI@Z 1004f160 f i libucrtd:output.obj
 0001:0004e180       ?should_format@?$positional_parameter_base@DV?$stream_output_adapter@D@__crt_stdio_output@@@__crt_stdio_output@@IAE_NXZ 1004f180 f i libucrtd:output.obj
 0001:0004e1c0       ?should_format@?$positional_parameter_base@DV?$string_output_adapter@D@__crt_stdio_output@@@__crt_stdio_output@@IAE_NXZ 1004f1c0 f i libucrtd:output.obj
 0001:0004e200       ?should_format@?$positional_parameter_base@_WV?$stream_output_adapter@_W@__crt_stdio_output@@@__crt_stdio_output@@IAE_NXZ 1004f200 f i libucrtd:output.obj
 0001:0004e240       ?should_format@?$positional_parameter_base@_WV?$string_output_adapter@_W@__crt_stdio_output@@@__crt_stdio_output@@IAE_NXZ 1004f240 f i libucrtd:output.obj
 0001:0004e280       ?should_format@?$standard_base@DV?$stream_output_adapter@D@__crt_stdio_output@@@__crt_stdio_output@@IAE_NXZ 1004f280 f i libucrtd:output.obj
 0001:0004e290       ?should_format@?$standard_base@DV?$string_output_adapter@D@__crt_stdio_output@@@__crt_stdio_output@@IAE_NXZ 1004f290 f i libucrtd:output.obj
 0001:0004e2a0       ?should_format@?$standard_base@_WV?$stream_output_adapter@_W@__crt_stdio_output@@@__crt_stdio_output@@IAE_NXZ 1004f2a0 f i libucrtd:output.obj
 0001:0004e2b0       ?should_format@?$standard_base@_WV?$string_output_adapter@_W@__crt_stdio_output@@@__crt_stdio_output@@IAE_NXZ 1004f2b0 f i libucrtd:output.obj
 0001:0004e2c0       ?should_skip_normal_state_processing@?$positional_parameter_base@DV?$stream_output_adapter@D@__crt_stdio_output@@@__crt_stdio_output@@IAE_NXZ 1004f2c0 f i libucrtd:output.obj
 0001:0004e310       ?should_skip_normal_state_processing@?$positional_parameter_base@DV?$string_output_adapter@D@__crt_stdio_output@@@__crt_stdio_output@@IAE_NXZ 1004f310 f i libucrtd:output.obj
 0001:0004e360       ?should_skip_normal_state_processing@?$positional_parameter_base@_WV?$stream_output_adapter@_W@__crt_stdio_output@@@__crt_stdio_output@@IAE_NXZ 1004f360 f i libucrtd:output.obj
 0001:0004e3b0       ?should_skip_normal_state_processing@?$positional_parameter_base@_WV?$string_output_adapter@_W@__crt_stdio_output@@@__crt_stdio_output@@IAE_NXZ 1004f3b0 f i libucrtd:output.obj
 0001:0004e400       ?should_skip_normal_state_processing@?$standard_base@DV?$stream_output_adapter@D@__crt_stdio_output@@@__crt_stdio_output@@IAE_NXZ 1004f400 f i libucrtd:output.obj
 0001:0004e410       ?should_skip_normal_state_processing@?$standard_base@DV?$string_output_adapter@D@__crt_stdio_output@@@__crt_stdio_output@@IAE_NXZ 1004f410 f i libucrtd:output.obj
 0001:0004e420       ?should_skip_normal_state_processing@?$standard_base@_WV?$stream_output_adapter@_W@__crt_stdio_output@@@__crt_stdio_output@@IAE_NXZ 1004f420 f i libucrtd:output.obj
 0001:0004e430       ?should_skip_normal_state_processing@?$standard_base@_WV?$string_output_adapter@_W@__crt_stdio_output@@@__crt_stdio_output@@IAE_NXZ 1004f430 f i libucrtd:output.obj
 0001:0004e440       ?should_skip_type_state_output@?$positional_parameter_base@DV?$stream_output_adapter@D@__crt_stdio_output@@@__crt_stdio_output@@IBE_NXZ 1004f440 f i libucrtd:output.obj
 0001:0004e480       ?should_skip_type_state_output@?$positional_parameter_base@DV?$string_output_adapter@D@__crt_stdio_output@@@__crt_stdio_output@@IBE_NXZ 1004f480 f i libucrtd:output.obj
 0001:0004e4c0       ?should_skip_type_state_output@?$positional_parameter_base@_WV?$stream_output_adapter@_W@__crt_stdio_output@@@__crt_stdio_output@@IBE_NXZ 1004f4c0 f i libucrtd:output.obj
 0001:0004e500       ?should_skip_type_state_output@?$positional_parameter_base@_WV?$string_output_adapter@_W@__crt_stdio_output@@@__crt_stdio_output@@IBE_NXZ 1004f500 f i libucrtd:output.obj
 0001:0004e540       ?should_skip_type_state_output@?$standard_base@DV?$stream_output_adapter@D@__crt_stdio_output@@@__crt_stdio_output@@IBE_NXZ 1004f540 f i libucrtd:output.obj
 0001:0004e550       ?should_skip_type_state_output@?$standard_base@DV?$string_output_adapter@D@__crt_stdio_output@@@__crt_stdio_output@@IBE_NXZ 1004f550 f i libucrtd:output.obj
 0001:0004e560       ?should_skip_type_state_output@?$standard_base@_WV?$stream_output_adapter@_W@__crt_stdio_output@@@__crt_stdio_output@@IBE_NXZ 1004f560 f i libucrtd:output.obj
 0001:0004e570       ?should_skip_type_state_output@?$standard_base@_WV?$string_output_adapter@_W@__crt_stdio_output@@@__crt_stdio_output@@IBE_NXZ 1004f570 f i libucrtd:output.obj
 0001:0004e580       ?state_case_dot@?$output_processor@DV?$stream_output_adapter@D@__crt_stdio_output@@V?$format_validation_base@DV?$stream_output_adapter@D@__crt_stdio_output@@@2@@__crt_stdio_output@@AAE_NXZ 1004f580 f i libucrtd:output.obj
 0001:0004e5a0       ?state_case_dot@?$output_processor@DV?$stream_output_adapter@D@__crt_stdio_output@@V?$positional_parameter_base@DV?$stream_output_adapter@D@__crt_stdio_output@@@2@@__crt_stdio_output@@AAE_NXZ 1004f5a0 f i libucrtd:output.obj
 0001:0004e5c0       ?state_case_dot@?$output_processor@DV?$stream_output_adapter@D@__crt_stdio_output@@V?$standard_base@DV?$stream_output_adapter@D@__crt_stdio_output@@@2@@__crt_stdio_output@@AAE_NXZ 1004f5c0 f i libucrtd:output.obj
 0001:0004e5e0       ?state_case_dot@?$output_processor@DV?$string_output_adapter@D@__crt_stdio_output@@V?$format_validation_base@DV?$string_output_adapter@D@__crt_stdio_output@@@2@@__crt_stdio_output@@AAE_NXZ 1004f5e0 f i libucrtd:output.obj
 0001:0004e600       ?state_case_dot@?$output_processor@DV?$string_output_adapter@D@__crt_stdio_output@@V?$positional_parameter_base@DV?$string_output_adapter@D@__crt_stdio_output@@@2@@__crt_stdio_output@@AAE_NXZ 1004f600 f i libucrtd:output.obj
 0001:0004e620       ?state_case_dot@?$output_processor@DV?$string_output_adapter@D@__crt_stdio_output@@V?$standard_base@DV?$string_output_adapter@D@__crt_stdio_output@@@2@@__crt_stdio_output@@AAE_NXZ 1004f620 f i libucrtd:output.obj
 0001:0004e640       ?state_case_dot@?$output_processor@_WV?$stream_output_adapter@_W@__crt_stdio_output@@V?$format_validation_base@_WV?$stream_output_adapter@_W@__crt_stdio_output@@@2@@__crt_stdio_output@@AAE_NXZ 1004f640 f i libucrtd:output.obj
 0001:0004e660       ?state_case_dot@?$output_processor@_WV?$stream_output_adapter@_W@__crt_stdio_output@@V?$positional_parameter_base@_WV?$stream_output_adapter@_W@__crt_stdio_output@@@2@@__crt_stdio_output@@AAE_NXZ 1004f660 f i libucrtd:output.obj
 0001:0004e680       ?state_case_dot@?$output_processor@_WV?$stream_output_adapter@_W@__crt_stdio_output@@V?$standard_base@_WV?$stream_output_adapter@_W@__crt_stdio_output@@@2@@__crt_stdio_output@@AAE_NXZ 1004f680 f i libucrtd:output.obj
 0001:0004e6a0       ?state_case_dot@?$output_processor@_WV?$string_output_adapter@_W@__crt_stdio_output@@V?$format_validation_base@_WV?$string_output_adapter@_W@__crt_stdio_output@@@2@@__crt_stdio_output@@AAE_NXZ 1004f6a0 f i libucrtd:output.obj
 0001:0004e6c0       ?state_case_dot@?$output_processor@_WV?$string_output_adapter@_W@__crt_stdio_output@@V?$positional_parameter_base@_WV?$string_output_adapter@_W@__crt_stdio_output@@@2@@__crt_stdio_output@@AAE_NXZ 1004f6c0 f i libucrtd:output.obj
 0001:0004e6e0       ?state_case_dot@?$output_processor@_WV?$string_output_adapter@_W@__crt_stdio_output@@V?$standard_base@_WV?$string_output_adapter@_W@__crt_stdio_output@@@2@@__crt_stdio_output@@AAE_NXZ 1004f6e0 f i libucrtd:output.obj
 0001:0004e700       ?state_case_flag@?$output_processor@DV?$stream_output_adapter@D@__crt_stdio_output@@V?$format_validation_base@DV?$stream_output_adapter@D@__crt_stdio_output@@@2@@__crt_stdio_output@@AAE_NXZ 1004f700 f i libucrtd:output.obj
 0001:0004e7b0       ?state_case_flag@?$output_processor@DV?$stream_output_adapter@D@__crt_stdio_output@@V?$positional_parameter_base@DV?$stream_output_adapter@D@__crt_stdio_output@@@2@@__crt_stdio_output@@AAE_NXZ 1004f7b0 f i libucrtd:output.obj
 0001:0004e860       ?state_case_flag@?$output_processor@DV?$stream_output_adapter@D@__crt_stdio_output@@V?$standard_base@DV?$stream_output_adapter@D@__crt_stdio_output@@@2@@__crt_stdio_output@@AAE_NXZ 1004f860 f i libucrtd:output.obj
 0001:0004e910       ?state_case_flag@?$output_processor@DV?$string_output_adapter@D@__crt_stdio_output@@V?$format_validation_base@DV?$string_output_adapter@D@__crt_stdio_output@@@2@@__crt_stdio_output@@AAE_NXZ 1004f910 f i libucrtd:output.obj
 0001:0004e9c0       ?state_case_flag@?$output_processor@DV?$string_output_adapter@D@__crt_stdio_output@@V?$positional_parameter_base@DV?$string_output_adapter@D@__crt_stdio_output@@@2@@__crt_stdio_output@@AAE_NXZ 1004f9c0 f i libucrtd:output.obj
 0001:0004ea70       ?state_case_flag@?$output_processor@DV?$string_output_adapter@D@__crt_stdio_output@@V?$standard_base@DV?$string_output_adapter@D@__crt_stdio_output@@@2@@__crt_stdio_output@@AAE_NXZ 1004fa70 f i libucrtd:output.obj
 0001:0004eb20       ?state_case_flag@?$output_processor@_WV?$stream_output_adapter@_W@__crt_stdio_output@@V?$format_validation_base@_WV?$stream_output_adapter@_W@__crt_stdio_output@@@2@@__crt_stdio_output@@AAE_NXZ 1004fb20 f i libucrtd:output.obj
 0001:0004ebd0       ?state_case_flag@?$output_processor@_WV?$stream_output_adapter@_W@__crt_stdio_output@@V?$positional_parameter_base@_WV?$stream_output_adapter@_W@__crt_stdio_output@@@2@@__crt_stdio_output@@AAE_NXZ 1004fbd0 f i libucrtd:output.obj
 0001:0004ec80       ?state_case_flag@?$output_processor@_WV?$stream_output_adapter@_W@__crt_stdio_output@@V?$standard_base@_WV?$stream_output_adapter@_W@__crt_stdio_output@@@2@@__crt_stdio_output@@AAE_NXZ 1004fc80 f i libucrtd:output.obj
 0001:0004ed30       ?state_case_flag@?$output_processor@_WV?$string_output_adapter@_W@__crt_stdio_output@@V?$format_validation_base@_WV?$string_output_adapter@_W@__crt_stdio_output@@@2@@__crt_stdio_output@@AAE_NXZ 1004fd30 f i libucrtd:output.obj
 0001:0004ede0       ?state_case_flag@?$output_processor@_WV?$string_output_adapter@_W@__crt_stdio_output@@V?$positional_parameter_base@_WV?$string_output_adapter@_W@__crt_stdio_output@@@2@@__crt_stdio_output@@AAE_NXZ 1004fde0 f i libucrtd:output.obj
 0001:0004ee90       ?state_case_flag@?$output_processor@_WV?$string_output_adapter@_W@__crt_stdio_output@@V?$standard_base@_WV?$string_output_adapter@_W@__crt_stdio_output@@@2@@__crt_stdio_output@@AAE_NXZ 1004fe90 f i libucrtd:output.obj
 0001:0004ef40       ?state_case_normal@?$output_processor@DV?$stream_output_adapter@D@__crt_stdio_output@@V?$format_validation_base@DV?$stream_output_adapter@D@__crt_stdio_output@@@2@@__crt_stdio_output@@AAE_NXZ 1004ff40 f i libucrtd:output.obj
 0001:0004eff0       ?state_case_normal@?$output_processor@DV?$stream_output_adapter@D@__crt_stdio_output@@V?$positional_parameter_base@DV?$stream_output_adapter@D@__crt_stdio_output@@@2@@__crt_stdio_output@@AAE_NXZ 1004fff0 f i libucrtd:output.obj
 0001:0004f0a0       ?state_case_normal@?$output_processor@DV?$stream_output_adapter@D@__crt_stdio_output@@V?$standard_base@DV?$stream_output_adapter@D@__crt_stdio_output@@@2@@__crt_stdio_output@@AAE_NXZ 100500a0 f i libucrtd:output.obj
 0001:0004f150       ?state_case_normal@?$output_processor@DV?$string_output_adapter@D@__crt_stdio_output@@V?$format_validation_base@DV?$string_output_adapter@D@__crt_stdio_output@@@2@@__crt_stdio_output@@AAE_NXZ 10050150 f i libucrtd:output.obj
 0001:0004f200       ?state_case_normal@?$output_processor@DV?$string_output_adapter@D@__crt_stdio_output@@V?$positional_parameter_base@DV?$string_output_adapter@D@__crt_stdio_output@@@2@@__crt_stdio_output@@AAE_NXZ 10050200 f i libucrtd:output.obj
 0001:0004f2b0       ?state_case_normal@?$output_processor@DV?$string_output_adapter@D@__crt_stdio_output@@V?$standard_base@DV?$string_output_adapter@D@__crt_stdio_output@@@2@@__crt_stdio_output@@AAE_NXZ 100502b0 f i libucrtd:output.obj
 0001:0004f360       ?state_case_normal@?$output_processor@_WV?$stream_output_adapter@_W@__crt_stdio_output@@V?$format_validation_base@_WV?$stream_output_adapter@_W@__crt_stdio_output@@@2@@__crt_stdio_output@@AAE_NXZ 10050360 f i libucrtd:output.obj
 0001:0004f410       ?state_case_normal@?$output_processor@_WV?$stream_output_adapter@_W@__crt_stdio_output@@V?$positional_parameter_base@_WV?$stream_output_adapter@_W@__crt_stdio_output@@@2@@__crt_stdio_output@@AAE_NXZ 10050410 f i libucrtd:output.obj
 0001:0004f4c0       ?state_case_normal@?$output_processor@_WV?$stream_output_adapter@_W@__crt_stdio_output@@V?$standard_base@_WV?$stream_output_adapter@_W@__crt_stdio_output@@@2@@__crt_stdio_output@@AAE_NXZ 100504c0 f i libucrtd:output.obj
 0001:0004f570       ?state_case_normal@?$output_processor@_WV?$string_output_adapter@_W@__crt_stdio_output@@V?$format_validation_base@_WV?$string_output_adapter@_W@__crt_stdio_output@@@2@@__crt_stdio_output@@AAE_NXZ 10050570 f i libucrtd:output.obj
 0001:0004f620       ?state_case_normal@?$output_processor@_WV?$string_output_adapter@_W@__crt_stdio_output@@V?$positional_parameter_base@_WV?$string_output_adapter@_W@__crt_stdio_output@@@2@@__crt_stdio_output@@AAE_NXZ 10050620 f i libucrtd:output.obj
 0001:0004f6d0       ?state_case_normal@?$output_processor@_WV?$string_output_adapter@_W@__crt_stdio_output@@V?$standard_base@_WV?$string_output_adapter@_W@__crt_stdio_output@@@2@@__crt_stdio_output@@AAE_NXZ 100506d0 f i libucrtd:output.obj
 0001:0004f780       ?state_case_normal_common@?$output_processor@DV?$stream_output_adapter@D@__crt_stdio_output@@V?$format_validation_base@DV?$stream_output_adapter@D@__crt_stdio_output@@@2@@__crt_stdio_output@@AAE_NXZ 10050780 f i libucrtd:output.obj
 0001:0004f7d0       ?state_case_normal_common@?$output_processor@DV?$stream_output_adapter@D@__crt_stdio_output@@V?$positional_parameter_base@DV?$stream_output_adapter@D@__crt_stdio_output@@@2@@__crt_stdio_output@@AAE_NXZ 100507d0 f i libucrtd:output.obj
 0001:0004f820       ?state_case_normal_common@?$output_processor@DV?$stream_output_adapter@D@__crt_stdio_output@@V?$standard_base@DV?$stream_output_adapter@D@__crt_stdio_output@@@2@@__crt_stdio_output@@AAE_NXZ 10050820 f i libucrtd:output.obj
 0001:0004f870       ?state_case_normal_common@?$output_processor@DV?$string_output_adapter@D@__crt_stdio_output@@V?$format_validation_base@DV?$string_output_adapter@D@__crt_stdio_output@@@2@@__crt_stdio_output@@AAE_NXZ 10050870 f i libucrtd:output.obj
 0001:0004f8c0       ?state_case_normal_common@?$output_processor@DV?$string_output_adapter@D@__crt_stdio_output@@V?$positional_parameter_base@DV?$string_output_adapter@D@__crt_stdio_output@@@2@@__crt_stdio_output@@AAE_NXZ 100508c0 f i libucrtd:output.obj
 0001:0004f910       ?state_case_normal_common@?$output_processor@DV?$string_output_adapter@D@__crt_stdio_output@@V?$standard_base@DV?$string_output_adapter@D@__crt_stdio_output@@@2@@__crt_stdio_output@@AAE_NXZ 10050910 f i libucrtd:output.obj
 0001:0004f960       ?state_case_normal_common@?$output_processor@_WV?$stream_output_adapter@_W@__crt_stdio_output@@V?$format_validation_base@_WV?$stream_output_adapter@_W@__crt_stdio_output@@@2@@__crt_stdio_output@@AAE_NXZ 10050960 f i libucrtd:output.obj
 0001:0004f9b0       ?state_case_normal_common@?$output_processor@_WV?$stream_output_adapter@_W@__crt_stdio_output@@V?$positional_parameter_base@_WV?$stream_output_adapter@_W@__crt_stdio_output@@@2@@__crt_stdio_output@@AAE_NXZ 100509b0 f i libucrtd:output.obj
 0001:0004fa00       ?state_case_normal_common@?$output_processor@_WV?$stream_output_adapter@_W@__crt_stdio_output@@V?$standard_base@_WV?$stream_output_adapter@_W@__crt_stdio_output@@@2@@__crt_stdio_output@@AAE_NXZ 10050a00 f i libucrtd:output.obj
 0001:0004fa50       ?state_case_normal_common@?$output_processor@_WV?$string_output_adapter@_W@__crt_stdio_output@@V?$format_validation_base@_WV?$string_output_adapter@_W@__crt_stdio_output@@@2@@__crt_stdio_output@@AAE_NXZ 10050a50 f i libucrtd:output.obj
 0001:0004faa0       ?state_case_normal_common@?$output_processor@_WV?$string_output_adapter@_W@__crt_stdio_output@@V?$positional_parameter_base@_WV?$string_output_adapter@_W@__crt_stdio_output@@@2@@__crt_stdio_output@@AAE_NXZ 10050aa0 f i libucrtd:output.obj
 0001:0004faf0       ?state_case_normal_common@?$output_processor@_WV?$string_output_adapter@_W@__crt_stdio_output@@V?$standard_base@_WV?$string_output_adapter@_W@__crt_stdio_output@@@2@@__crt_stdio_output@@AAE_NXZ 10050af0 f i libucrtd:output.obj
 0001:0004fb40       ?state_case_normal_tchar@?$output_processor@DV?$stream_output_adapter@D@__crt_stdio_output@@V?$format_validation_base@DV?$stream_output_adapter@D@__crt_stdio_output@@@2@@__crt_stdio_output@@AAE_ND@Z 10050b40 f i libucrtd:output.obj
 0001:0004fc40       ?state_case_normal_tchar@?$output_processor@DV?$stream_output_adapter@D@__crt_stdio_output@@V?$positional_parameter_base@DV?$stream_output_adapter@D@__crt_stdio_output@@@2@@__crt_stdio_output@@AAE_ND@Z 10050c40 f i libucrtd:output.obj
 0001:0004fd40       ?state_case_normal_tchar@?$output_processor@DV?$stream_output_adapter@D@__crt_stdio_output@@V?$standard_base@DV?$stream_output_adapter@D@__crt_stdio_output@@@2@@__crt_stdio_output@@AAE_ND@Z 10050d40 f i libucrtd:output.obj
 0001:0004fe40       ?state_case_normal_tchar@?$output_processor@DV?$string_output_adapter@D@__crt_stdio_output@@V?$format_validation_base@DV?$string_output_adapter@D@__crt_stdio_output@@@2@@__crt_stdio_output@@AAE_ND@Z 10050e40 f i libucrtd:output.obj
 0001:0004ff40       ?state_case_normal_tchar@?$output_processor@DV?$string_output_adapter@D@__crt_stdio_output@@V?$positional_parameter_base@DV?$string_output_adapter@D@__crt_stdio_output@@@2@@__crt_stdio_output@@AAE_ND@Z 10050f40 f i libucrtd:output.obj
 0001:00050040       ?state_case_normal_tchar@?$output_processor@DV?$string_output_adapter@D@__crt_stdio_output@@V?$standard_base@DV?$string_output_adapter@D@__crt_stdio_output@@@2@@__crt_stdio_output@@AAE_ND@Z 10051040 f i libucrtd:output.obj
 0001:00050140       ?state_case_normal_tchar@?$output_processor@_WV?$stream_output_adapter@_W@__crt_stdio_output@@V?$format_validation_base@_WV?$stream_output_adapter@_W@__crt_stdio_output@@@2@@__crt_stdio_output@@AAE_N_W@Z 10051140 f i libucrtd:output.obj
 0001:00050160       ?state_case_normal_tchar@?$output_processor@_WV?$stream_output_adapter@_W@__crt_stdio_output@@V?$positional_parameter_base@_WV?$stream_output_adapter@_W@__crt_stdio_output@@@2@@__crt_stdio_output@@AAE_N_W@Z 10051160 f i libucrtd:output.obj
 0001:00050180       ?state_case_normal_tchar@?$output_processor@_WV?$stream_output_adapter@_W@__crt_stdio_output@@V?$standard_base@_WV?$stream_output_adapter@_W@__crt_stdio_output@@@2@@__crt_stdio_output@@AAE_N_W@Z 10051180 f i libucrtd:output.obj
 0001:000501a0       ?state_case_normal_tchar@?$output_processor@_WV?$string_output_adapter@_W@__crt_stdio_output@@V?$format_validation_base@_WV?$string_output_adapter@_W@__crt_stdio_output@@@2@@__crt_stdio_output@@AAE_N_W@Z 100511a0 f i libucrtd:output.obj
 0001:000501c0       ?state_case_normal_tchar@?$output_processor@_WV?$string_output_adapter@_W@__crt_stdio_output@@V?$positional_parameter_base@_WV?$string_output_adapter@_W@__crt_stdio_output@@@2@@__crt_stdio_output@@AAE_N_W@Z 100511c0 f i libucrtd:output.obj
 0001:000501e0       ?state_case_normal_tchar@?$output_processor@_WV?$string_output_adapter@_W@__crt_stdio_output@@V?$standard_base@_WV?$string_output_adapter@_W@__crt_stdio_output@@@2@@__crt_stdio_output@@AAE_N_W@Z 100511e0 f i libucrtd:output.obj
 0001:00050200       ?state_case_percent@?$output_processor@DV?$stream_output_adapter@D@__crt_stdio_output@@V?$format_validation_base@DV?$stream_output_adapter@D@__crt_stdio_output@@@2@@__crt_stdio_output@@AAE_NXZ 10051200 f i libucrtd:output.obj
 0001:00050250       ?state_case_percent@?$output_processor@DV?$stream_output_adapter@D@__crt_stdio_output@@V?$positional_parameter_base@DV?$stream_output_adapter@D@__crt_stdio_output@@@2@@__crt_stdio_output@@AAE_NXZ 10051250 f i libucrtd:output.obj
 0001:000502a0       ?state_case_percent@?$output_processor@DV?$stream_output_adapter@D@__crt_stdio_output@@V?$standard_base@DV?$stream_output_adapter@D@__crt_stdio_output@@@2@@__crt_stdio_output@@AAE_NXZ 100512a0 f i libucrtd:output.obj
 0001:000502f0       ?state_case_percent@?$output_processor@DV?$string_output_adapter@D@__crt_stdio_output@@V?$format_validation_base@DV?$string_output_adapter@D@__crt_stdio_output@@@2@@__crt_stdio_output@@AAE_NXZ 100512f0 f i libucrtd:output.obj
 0001:00050340       ?state_case_percent@?$output_processor@DV?$string_output_adapter@D@__crt_stdio_output@@V?$positional_parameter_base@DV?$string_output_adapter@D@__crt_stdio_output@@@2@@__crt_stdio_output@@AAE_NXZ 10051340 f i libucrtd:output.obj
 0001:00050390       ?state_case_percent@?$output_processor@DV?$string_output_adapter@D@__crt_stdio_output@@V?$standard_base@DV?$string_output_adapter@D@__crt_stdio_output@@@2@@__crt_stdio_output@@AAE_NXZ 10051390 f i libucrtd:output.obj
 0001:000503e0       ?state_case_percent@?$output_processor@_WV?$stream_output_adapter@_W@__crt_stdio_output@@V?$format_validation_base@_WV?$stream_output_adapter@_W@__crt_stdio_output@@@2@@__crt_stdio_output@@AAE_NXZ 100513e0 f i libucrtd:output.obj
 0001:00050430       ?state_case_percent@?$output_processor@_WV?$stream_output_adapter@_W@__crt_stdio_output@@V?$positional_parameter_base@_WV?$stream_output_adapter@_W@__crt_stdio_output@@@2@@__crt_stdio_output@@AAE_NXZ 10051430 f i libucrtd:output.obj
 0001:00050480       ?state_case_percent@?$output_processor@_WV?$stream_output_adapter@_W@__crt_stdio_output@@V?$standard_base@_WV?$stream_output_adapter@_W@__crt_stdio_output@@@2@@__crt_stdio_output@@AAE_NXZ 10051480 f i libucrtd:output.obj
 0001:000504d0       ?state_case_percent@?$output_processor@_WV?$string_output_adapter@_W@__crt_stdio_output@@V?$format_validation_base@_WV?$string_output_adapter@_W@__crt_stdio_output@@@2@@__crt_stdio_output@@AAE_NXZ 100514d0 f i libucrtd:output.obj
 0001:00050520       ?state_case_percent@?$output_processor@_WV?$string_output_adapter@_W@__crt_stdio_output@@V?$positional_parameter_base@_WV?$string_output_adapter@_W@__crt_stdio_output@@@2@@__crt_stdio_output@@AAE_NXZ 10051520 f i libucrtd:output.obj
 0001:00050570       ?state_case_percent@?$output_processor@_WV?$string_output_adapter@_W@__crt_stdio_output@@V?$standard_base@_WV?$string_output_adapter@_W@__crt_stdio_output@@@2@@__crt_stdio_output@@AAE_NXZ 10051570 f i libucrtd:output.obj
 0001:000505c0       ?state_case_precision@?$output_processor@DV?$stream_output_adapter@D@__crt_stdio_output@@V?$format_validation_base@DV?$stream_output_adapter@D@__crt_stdio_output@@@2@@__crt_stdio_output@@AAE_NXZ 100515c0 f i libucrtd:output.obj
 0001:00050630       ?state_case_precision@?$output_processor@DV?$stream_output_adapter@D@__crt_stdio_output@@V?$positional_parameter_base@DV?$stream_output_adapter@D@__crt_stdio_output@@@2@@__crt_stdio_output@@AAE_NXZ 10051630 f i libucrtd:output.obj
 0001:000506a0       ?state_case_precision@?$output_processor@DV?$stream_output_adapter@D@__crt_stdio_output@@V?$standard_base@DV?$stream_output_adapter@D@__crt_stdio_output@@@2@@__crt_stdio_output@@AAE_NXZ 100516a0 f i libucrtd:output.obj
 0001:00050710       ?state_case_precision@?$output_processor@DV?$string_output_adapter@D@__crt_stdio_output@@V?$format_validation_base@DV?$string_output_adapter@D@__crt_stdio_output@@@2@@__crt_stdio_output@@AAE_NXZ 10051710 f i libucrtd:output.obj
 0001:00050780       ?state_case_precision@?$output_processor@DV?$string_output_adapter@D@__crt_stdio_output@@V?$positional_parameter_base@DV?$string_output_adapter@D@__crt_stdio_output@@@2@@__crt_stdio_output@@AAE_NXZ 10051780 f i libucrtd:output.obj
 0001:000507f0       ?state_case_precision@?$output_processor@DV?$string_output_adapter@D@__crt_stdio_output@@V?$standard_base@DV?$string_output_adapter@D@__crt_stdio_output@@@2@@__crt_stdio_output@@AAE_NXZ 100517f0 f i libucrtd:output.obj
 0001:00050860       ?state_case_precision@?$output_processor@_WV?$stream_output_adapter@_W@__crt_stdio_output@@V?$format_validation_base@_WV?$stream_output_adapter@_W@__crt_stdio_output@@@2@@__crt_stdio_output@@AAE_NXZ 10051860 f i libucrtd:output.obj
 0001:000508d0       ?state_case_precision@?$output_processor@_WV?$stream_output_adapter@_W@__crt_stdio_output@@V?$positional_parameter_base@_WV?$stream_output_adapter@_W@__crt_stdio_output@@@2@@__crt_stdio_output@@AAE_NXZ 100518d0 f i libucrtd:output.obj
 0001:00050940       ?state_case_precision@?$output_processor@_WV?$stream_output_adapter@_W@__crt_stdio_output@@V?$standard_base@_WV?$stream_output_adapter@_W@__crt_stdio_output@@@2@@__crt_stdio_output@@AAE_NXZ 10051940 f i libucrtd:output.obj
 0001:000509b0       ?state_case_precision@?$output_processor@_WV?$string_output_adapter@_W@__crt_stdio_output@@V?$format_validation_base@_WV?$string_output_adapter@_W@__crt_stdio_output@@@2@@__crt_stdio_output@@AAE_NXZ 100519b0 f i libucrtd:output.obj
 0001:00050a20       ?state_case_precision@?$output_processor@_WV?$string_output_adapter@_W@__crt_stdio_output@@V?$positional_parameter_base@_WV?$string_output_adapter@_W@__crt_stdio_output@@@2@@__crt_stdio_output@@AAE_NXZ 10051a20 f i libucrtd:output.obj
 0001:00050a90       ?state_case_precision@?$output_processor@_WV?$string_output_adapter@_W@__crt_stdio_output@@V?$standard_base@_WV?$string_output_adapter@_W@__crt_stdio_output@@@2@@__crt_stdio_output@@AAE_NXZ 10051a90 f i libucrtd:output.obj
 0001:00050b00       ?state_case_size@?$output_processor@DV?$stream_output_adapter@D@__crt_stdio_output@@V?$format_validation_base@DV?$stream_output_adapter@D@__crt_stdio_output@@@2@@__crt_stdio_output@@AAE_NXZ 10051b00 f i libucrtd:output.obj
 0001:00050ed0       ?state_case_size@?$output_processor@DV?$stream_output_adapter@D@__crt_stdio_output@@V?$positional_parameter_base@DV?$stream_output_adapter@D@__crt_stdio_output@@@2@@__crt_stdio_output@@AAE_NXZ 10051ed0 f i libucrtd:output.obj
 0001:000512a0       ?state_case_size@?$output_processor@DV?$stream_output_adapter@D@__crt_stdio_output@@V?$standard_base@DV?$stream_output_adapter@D@__crt_stdio_output@@@2@@__crt_stdio_output@@AAE_NXZ 100522a0 f i libucrtd:output.obj
 0001:00051670       ?state_case_size@?$output_processor@DV?$string_output_adapter@D@__crt_stdio_output@@V?$format_validation_base@DV?$string_output_adapter@D@__crt_stdio_output@@@2@@__crt_stdio_output@@AAE_NXZ 10052670 f i libucrtd:output.obj
 0001:00051a40       ?state_case_size@?$output_processor@DV?$string_output_adapter@D@__crt_stdio_output@@V?$positional_parameter_base@DV?$string_output_adapter@D@__crt_stdio_output@@@2@@__crt_stdio_output@@AAE_NXZ 10052a40 f i libucrtd:output.obj
 0001:00051e10       ?state_case_size@?$output_processor@DV?$string_output_adapter@D@__crt_stdio_output@@V?$standard_base@DV?$string_output_adapter@D@__crt_stdio_output@@@2@@__crt_stdio_output@@AAE_NXZ 10052e10 f i libucrtd:output.obj
 0001:000521e0       ?state_case_size@?$output_processor@_WV?$stream_output_adapter@_W@__crt_stdio_output@@V?$format_validation_base@_WV?$stream_output_adapter@_W@__crt_stdio_output@@@2@@__crt_stdio_output@@AAE_NXZ 100531e0 f i libucrtd:output.obj
 0001:000525b0       ?state_case_size@?$output_processor@_WV?$stream_output_adapter@_W@__crt_stdio_output@@V?$positional_parameter_base@_WV?$stream_output_adapter@_W@__crt_stdio_output@@@2@@__crt_stdio_output@@AAE_NXZ 100535b0 f i libucrtd:output.obj
 0001:00052980       ?state_case_size@?$output_processor@_WV?$stream_output_adapter@_W@__crt_stdio_output@@V?$standard_base@_WV?$stream_output_adapter@_W@__crt_stdio_output@@@2@@__crt_stdio_output@@AAE_NXZ 10053980 f i libucrtd:output.obj
 0001:00052d50       ?state_case_size@?$output_processor@_WV?$string_output_adapter@_W@__crt_stdio_output@@V?$format_validation_base@_WV?$string_output_adapter@_W@__crt_stdio_output@@@2@@__crt_stdio_output@@AAE_NXZ 10053d50 f i libucrtd:output.obj
 0001:00053120       ?state_case_size@?$output_processor@_WV?$string_output_adapter@_W@__crt_stdio_output@@V?$positional_parameter_base@_WV?$string_output_adapter@_W@__crt_stdio_output@@@2@@__crt_stdio_output@@AAE_NXZ 10054120 f i libucrtd:output.obj
 0001:000534f0       ?state_case_size@?$output_processor@_WV?$string_output_adapter@_W@__crt_stdio_output@@V?$standard_base@_WV?$string_output_adapter@_W@__crt_stdio_output@@@2@@__crt_stdio_output@@AAE_NXZ 100544f0 f i libucrtd:output.obj
 0001:000538c0       ?state_case_type@?$output_processor@DV?$stream_output_adapter@D@__crt_stdio_output@@V?$format_validation_base@DV?$stream_output_adapter@D@__crt_stdio_output@@@2@@__crt_stdio_output@@AAE_NXZ 100548c0 f i libucrtd:output.obj
 0001:00053c70       ?state_case_type@?$output_processor@DV?$stream_output_adapter@D@__crt_stdio_output@@V?$positional_parameter_base@DV?$stream_output_adapter@D@__crt_stdio_output@@@2@@__crt_stdio_output@@AAE_NXZ 10054c70 f i libucrtd:output.obj
 0001:00054020       ?state_case_type@?$output_processor@DV?$stream_output_adapter@D@__crt_stdio_output@@V?$standard_base@DV?$stream_output_adapter@D@__crt_stdio_output@@@2@@__crt_stdio_output@@AAE_NXZ 10055020 f i libucrtd:output.obj
 0001:000543d0       ?state_case_type@?$output_processor@DV?$string_output_adapter@D@__crt_stdio_output@@V?$format_validation_base@DV?$string_output_adapter@D@__crt_stdio_output@@@2@@__crt_stdio_output@@AAE_NXZ 100553d0 f i libucrtd:output.obj
 0001:00054780       ?state_case_type@?$output_processor@DV?$string_output_adapter@D@__crt_stdio_output@@V?$positional_parameter_base@DV?$string_output_adapter@D@__crt_stdio_output@@@2@@__crt_stdio_output@@AAE_NXZ 10055780 f i libucrtd:output.obj
 0001:00054b30       ?state_case_type@?$output_processor@DV?$string_output_adapter@D@__crt_stdio_output@@V?$standard_base@DV?$string_output_adapter@D@__crt_stdio_output@@@2@@__crt_stdio_output@@AAE_NXZ 10055b30 f i libucrtd:output.obj
 0001:00054ee0       ?state_case_type@?$output_processor@_WV?$stream_output_adapter@_W@__crt_stdio_output@@V?$format_validation_base@_WV?$stream_output_adapter@_W@__crt_stdio_output@@@2@@__crt_stdio_output@@AAE_NXZ 10055ee0 f i libucrtd:output.obj
 0001:000552c0       ?state_case_type@?$output_processor@_WV?$stream_output_adapter@_W@__crt_stdio_output@@V?$positional_parameter_base@_WV?$stream_output_adapter@_W@__crt_stdio_output@@@2@@__crt_stdio_output@@AAE_NXZ 100562c0 f i libucrtd:output.obj
 0001:000556a0       ?state_case_type@?$output_processor@_WV?$stream_output_adapter@_W@__crt_stdio_output@@V?$standard_base@_WV?$stream_output_adapter@_W@__crt_stdio_output@@@2@@__crt_stdio_output@@AAE_NXZ 100566a0 f i libucrtd:output.obj
 0001:00055a80       ?state_case_type@?$output_processor@_WV?$string_output_adapter@_W@__crt_stdio_output@@V?$format_validation_base@_WV?$string_output_adapter@_W@__crt_stdio_output@@@2@@__crt_stdio_output@@AAE_NXZ 10056a80 f i libucrtd:output.obj
 0001:00055e60       ?state_case_type@?$output_processor@_WV?$string_output_adapter@_W@__crt_stdio_output@@V?$positional_parameter_base@_WV?$string_output_adapter@_W@__crt_stdio_output@@@2@@__crt_stdio_output@@AAE_NXZ 10056e60 f i libucrtd:output.obj
 0001:00056240       ?state_case_type@?$output_processor@_WV?$string_output_adapter@_W@__crt_stdio_output@@V?$standard_base@_WV?$string_output_adapter@_W@__crt_stdio_output@@@2@@__crt_stdio_output@@AAE_NXZ 10057240 f i libucrtd:output.obj
 0001:00056620       ?state_case_width@?$output_processor@DV?$stream_output_adapter@D@__crt_stdio_output@@V?$format_validation_base@DV?$stream_output_adapter@D@__crt_stdio_output@@@2@@__crt_stdio_output@@AAE_NXZ 10057620 f i libucrtd:output.obj
 0001:000566a0       ?state_case_width@?$output_processor@DV?$stream_output_adapter@D@__crt_stdio_output@@V?$positional_parameter_base@DV?$stream_output_adapter@D@__crt_stdio_output@@@2@@__crt_stdio_output@@AAE_NXZ 100576a0 f i libucrtd:output.obj
 0001:00056720       ?state_case_width@?$output_processor@DV?$stream_output_adapter@D@__crt_stdio_output@@V?$standard_base@DV?$stream_output_adapter@D@__crt_stdio_output@@@2@@__crt_stdio_output@@AAE_NXZ 10057720 f i libucrtd:output.obj
 0001:000567a0       ?state_case_width@?$output_processor@DV?$string_output_adapter@D@__crt_stdio_output@@V?$format_validation_base@DV?$string_output_adapter@D@__crt_stdio_output@@@2@@__crt_stdio_output@@AAE_NXZ 100577a0 f i libucrtd:output.obj
 0001:00056820       ?state_case_width@?$output_processor@DV?$string_output_adapter@D@__crt_stdio_output@@V?$positional_parameter_base@DV?$string_output_adapter@D@__crt_stdio_output@@@2@@__crt_stdio_output@@AAE_NXZ 10057820 f i libucrtd:output.obj
 0001:000568a0       ?state_case_width@?$output_processor@DV?$string_output_adapter@D@__crt_stdio_output@@V?$standard_base@DV?$string_output_adapter@D@__crt_stdio_output@@@2@@__crt_stdio_output@@AAE_NXZ 100578a0 f i libucrtd:output.obj
 0001:00056920       ?state_case_width@?$output_processor@_WV?$stream_output_adapter@_W@__crt_stdio_output@@V?$format_validation_base@_WV?$stream_output_adapter@_W@__crt_stdio_output@@@2@@__crt_stdio_output@@AAE_NXZ 10057920 f i libucrtd:output.obj
 0001:000569a0       ?state_case_width@?$output_processor@_WV?$stream_output_adapter@_W@__crt_stdio_output@@V?$positional_parameter_base@_WV?$stream_output_adapter@_W@__crt_stdio_output@@@2@@__crt_stdio_output@@AAE_NXZ 100579a0 f i libucrtd:output.obj
 0001:00056a20       ?state_case_width@?$output_processor@_WV?$stream_output_adapter@_W@__crt_stdio_output@@V?$standard_base@_WV?$stream_output_adapter@_W@__crt_stdio_output@@@2@@__crt_stdio_output@@AAE_NXZ 10057a20 f i libucrtd:output.obj
 0001:00056aa0       ?state_case_width@?$output_processor@_WV?$string_output_adapter@_W@__crt_stdio_output@@V?$format_validation_base@_WV?$string_output_adapter@_W@__crt_stdio_output@@@2@@__crt_stdio_output@@AAE_NXZ 10057aa0 f i libucrtd:output.obj
 0001:00056b20       ?state_case_width@?$output_processor@_WV?$string_output_adapter@_W@__crt_stdio_output@@V?$positional_parameter_base@_WV?$string_output_adapter@_W@__crt_stdio_output@@@2@@__crt_stdio_output@@AAE_NXZ 10057b20 f i libucrtd:output.obj
 0001:00056ba0       ?state_case_width@?$output_processor@_WV?$string_output_adapter@_W@__crt_stdio_output@@V?$standard_base@_WV?$string_output_adapter@_W@__crt_stdio_output@@@2@@__crt_stdio_output@@AAE_NXZ 10057ba0 f i libucrtd:output.obj
 0001:00056c20       ?state_count@?$format_validation_base@DV?$stream_output_adapter@D@__crt_stdio_output@@@__crt_stdio_output@@KAIXZ 10057c20 f i libucrtd:output.obj
 0001:00056c30       ?state_count@?$format_validation_base@DV?$string_output_adapter@D@__crt_stdio_output@@@__crt_stdio_output@@KAIXZ 10057c30 f i libucrtd:output.obj
 0001:00056c40       ?state_count@?$format_validation_base@_WV?$stream_output_adapter@_W@__crt_stdio_output@@@__crt_stdio_output@@KAIXZ 10057c40 f i libucrtd:output.obj
 0001:00056c50       ?state_count@?$format_validation_base@_WV?$string_output_adapter@_W@__crt_stdio_output@@@__crt_stdio_output@@KAIXZ 10057c50 f i libucrtd:output.obj
 0001:00056c60       ?state_count@?$standard_base@DV?$stream_output_adapter@D@__crt_stdio_output@@@__crt_stdio_output@@KAIXZ 10057c60 f i libucrtd:output.obj
 0001:00056c70       ?state_count@?$standard_base@DV?$string_output_adapter@D@__crt_stdio_output@@@__crt_stdio_output@@KAIXZ 10057c70 f i libucrtd:output.obj
 0001:00056c80       ?state_count@?$standard_base@_WV?$stream_output_adapter@_W@__crt_stdio_output@@@__crt_stdio_output@@KAIXZ 10057c80 f i libucrtd:output.obj
 0001:00056c90       ?state_count@?$standard_base@_WV?$string_output_adapter@_W@__crt_stdio_output@@@__crt_stdio_output@@KAIXZ 10057c90 f i libucrtd:output.obj
 0001:00056ca0       ?state_transition_table@?$format_validation_base@DV?$stream_output_adapter@D@__crt_stdio_output@@@__crt_stdio_output@@KAPBEXZ 10057ca0 f i libucrtd:output.obj
 0001:00056cb0       ?state_transition_table@?$format_validation_base@DV?$string_output_adapter@D@__crt_stdio_output@@@__crt_stdio_output@@KAPBEXZ 10057cb0 f i libucrtd:output.obj
 0001:00056cc0       ?state_transition_table@?$format_validation_base@_WV?$stream_output_adapter@_W@__crt_stdio_output@@@__crt_stdio_output@@KAPBEXZ 10057cc0 f i libucrtd:output.obj
 0001:00056cd0       ?state_transition_table@?$format_validation_base@_WV?$string_output_adapter@_W@__crt_stdio_output@@@__crt_stdio_output@@KAPBEXZ 10057cd0 f i libucrtd:output.obj
 0001:00056ce0       ?state_transition_table@?$standard_base@DV?$stream_output_adapter@D@__crt_stdio_output@@@__crt_stdio_output@@KAPBEXZ 10057ce0 f i libucrtd:output.obj
 0001:00056cf0       ?state_transition_table@?$standard_base@DV?$string_output_adapter@D@__crt_stdio_output@@@__crt_stdio_output@@KAPBEXZ 10057cf0 f i libucrtd:output.obj
 0001:00056d00       ?state_transition_table@?$standard_base@_WV?$stream_output_adapter@_W@__crt_stdio_output@@@__crt_stdio_output@@KAPBEXZ 10057d00 f i libucrtd:output.obj
 0001:00056d10       ?state_transition_table@?$standard_base@_WV?$string_output_adapter@_W@__crt_stdio_output@@@__crt_stdio_output@@KAPBEXZ 10057d10 f i libucrtd:output.obj
 0001:00056d20       ?tchar_string@?$common_data@D@__crt_stdio_output@@IAEAAPADD@Z 10057d20 f i libucrtd:output.obj
 0001:00056d40       ?tchar_string@?$common_data@D@__crt_stdio_output@@IAEAAPADXZ 10057d40 f i libucrtd:output.obj
 0001:00056d60       ?tchar_string@?$common_data@_W@__crt_stdio_output@@IAEAAPA_WXZ 10057d60 f i libucrtd:output.obj
 0001:00056d80       ?tchar_string@?$common_data@_W@__crt_stdio_output@@IAEAAPA_W_W@Z 10057d80 f i libucrtd:output.obj
 0001:00056da0       ?to_integer_size@__crt_stdio_output@@YAIW4length_modifier@1@@Z 10057da0 f i libucrtd:output.obj
 0001:00056e40       ?type_case_X@?$output_processor@DV?$stream_output_adapter@D@__crt_stdio_output@@V?$format_validation_base@DV?$stream_output_adapter@D@__crt_stdio_output@@@2@@__crt_stdio_output@@AAE_NXZ 10057e40 f i libucrtd:output.obj
 0001:00056e60       ?type_case_X@?$output_processor@DV?$stream_output_adapter@D@__crt_stdio_output@@V?$positional_parameter_base@DV?$stream_output_adapter@D@__crt_stdio_output@@@2@@__crt_stdio_output@@AAE_NXZ 10057e60 f i libucrtd:output.obj
 0001:00056e80       ?type_case_X@?$output_processor@DV?$stream_output_adapter@D@__crt_stdio_output@@V?$standard_base@DV?$stream_output_adapter@D@__crt_stdio_output@@@2@@__crt_stdio_output@@AAE_NXZ 10057e80 f i libucrtd:output.obj
 0001:00056ea0       ?type_case_X@?$output_processor@DV?$string_output_adapter@D@__crt_stdio_output@@V?$format_validation_base@DV?$string_output_adapter@D@__crt_stdio_output@@@2@@__crt_stdio_output@@AAE_NXZ 10057ea0 f i libucrtd:output.obj
 0001:00056ec0       ?type_case_X@?$output_processor@DV?$string_output_adapter@D@__crt_stdio_output@@V?$positional_parameter_base@DV?$string_output_adapter@D@__crt_stdio_output@@@2@@__crt_stdio_output@@AAE_NXZ 10057ec0 f i libucrtd:output.obj
 0001:00056ee0       ?type_case_X@?$output_processor@DV?$string_output_adapter@D@__crt_stdio_output@@V?$standard_base@DV?$string_output_adapter@D@__crt_stdio_output@@@2@@__crt_stdio_output@@AAE_NXZ 10057ee0 f i libucrtd:output.obj
 0001:00056f00       ?type_case_X@?$output_processor@_WV?$stream_output_adapter@_W@__crt_stdio_output@@V?$format_validation_base@_WV?$stream_output_adapter@_W@__crt_stdio_output@@@2@@__crt_stdio_output@@AAE_NXZ 10057f00 f i libucrtd:output.obj
 0001:00056f20       ?type_case_X@?$output_processor@_WV?$stream_output_adapter@_W@__crt_stdio_output@@V?$positional_parameter_base@_WV?$stream_output_adapter@_W@__crt_stdio_output@@@2@@__crt_stdio_output@@AAE_NXZ 10057f20 f i libucrtd:output.obj
 0001:00056f40       ?type_case_X@?$output_processor@_WV?$stream_output_adapter@_W@__crt_stdio_output@@V?$standard_base@_WV?$stream_output_adapter@_W@__crt_stdio_output@@@2@@__crt_stdio_output@@AAE_NXZ 10057f40 f i libucrtd:output.obj
 0001:00056f60       ?type_case_X@?$output_processor@_WV?$string_output_adapter@_W@__crt_stdio_output@@V?$format_validation_base@_WV?$string_output_adapter@_W@__crt_stdio_output@@@2@@__crt_stdio_output@@AAE_NXZ 10057f60 f i libucrtd:output.obj
 0001:00056f80       ?type_case_X@?$output_processor@_WV?$string_output_adapter@_W@__crt_stdio_output@@V?$positional_parameter_base@_WV?$string_output_adapter@_W@__crt_stdio_output@@@2@@__crt_stdio_output@@AAE_NXZ 10057f80 f i libucrtd:output.obj
 0001:00056fa0       ?type_case_X@?$output_processor@_WV?$string_output_adapter@_W@__crt_stdio_output@@V?$standard_base@_WV?$string_output_adapter@_W@__crt_stdio_output@@@2@@__crt_stdio_output@@AAE_NXZ 10057fa0 f i libucrtd:output.obj
 0001:00056fc0       ?type_case_Z@?$output_processor@DV?$stream_output_adapter@D@__crt_stdio_output@@V?$format_validation_base@DV?$stream_output_adapter@D@__crt_stdio_output@@@2@@__crt_stdio_output@@AAE_NXZ 10057fc0 f i libucrtd:output.obj
 0001:000570b0       ?type_case_Z@?$output_processor@DV?$stream_output_adapter@D@__crt_stdio_output@@V?$positional_parameter_base@DV?$stream_output_adapter@D@__crt_stdio_output@@@2@@__crt_stdio_output@@AAE_NXZ 100580b0 f i libucrtd:output.obj
 0001:000571a0       ?type_case_Z@?$output_processor@DV?$stream_output_adapter@D@__crt_stdio_output@@V?$standard_base@DV?$stream_output_adapter@D@__crt_stdio_output@@@2@@__crt_stdio_output@@AAE_NXZ 100581a0 f i libucrtd:output.obj
 0001:00057290       ?type_case_Z@?$output_processor@DV?$string_output_adapter@D@__crt_stdio_output@@V?$format_validation_base@DV?$string_output_adapter@D@__crt_stdio_output@@@2@@__crt_stdio_output@@AAE_NXZ 10058290 f i libucrtd:output.obj
 0001:00057380       ?type_case_Z@?$output_processor@DV?$string_output_adapter@D@__crt_stdio_output@@V?$positional_parameter_base@DV?$string_output_adapter@D@__crt_stdio_output@@@2@@__crt_stdio_output@@AAE_NXZ 10058380 f i libucrtd:output.obj
 0001:00057470       ?type_case_Z@?$output_processor@DV?$string_output_adapter@D@__crt_stdio_output@@V?$standard_base@DV?$string_output_adapter@D@__crt_stdio_output@@@2@@__crt_stdio_output@@AAE_NXZ 10058470 f i libucrtd:output.obj
 0001:00057560       ?type_case_Z@?$output_processor@_WV?$stream_output_adapter@_W@__crt_stdio_output@@V?$format_validation_base@_WV?$stream_output_adapter@_W@__crt_stdio_output@@@2@@__crt_stdio_output@@AAE_NXZ 10058560 f i libucrtd:output.obj
 0001:00057650       ?type_case_Z@?$output_processor@_WV?$stream_output_adapter@_W@__crt_stdio_output@@V?$positional_parameter_base@_WV?$stream_output_adapter@_W@__crt_stdio_output@@@2@@__crt_stdio_output@@AAE_NXZ 10058650 f i libucrtd:output.obj
 0001:00057740       ?type_case_Z@?$output_processor@_WV?$stream_output_adapter@_W@__crt_stdio_output@@V?$standard_base@_WV?$stream_output_adapter@_W@__crt_stdio_output@@@2@@__crt_stdio_output@@AAE_NXZ 10058740 f i libucrtd:output.obj
 0001:00057830       ?type_case_Z@?$output_processor@_WV?$string_output_adapter@_W@__crt_stdio_output@@V?$format_validation_base@_WV?$string_output_adapter@_W@__crt_stdio_output@@@2@@__crt_stdio_output@@AAE_NXZ 10058830 f i libucrtd:output.obj
 0001:00057920       ?type_case_Z@?$output_processor@_WV?$string_output_adapter@_W@__crt_stdio_output@@V?$positional_parameter_base@_WV?$string_output_adapter@_W@__crt_stdio_output@@@2@@__crt_stdio_output@@AAE_NXZ 10058920 f i libucrtd:output.obj
 0001:00057a10       ?type_case_Z@?$output_processor@_WV?$string_output_adapter@_W@__crt_stdio_output@@V?$standard_base@_WV?$string_output_adapter@_W@__crt_stdio_output@@@2@@__crt_stdio_output@@AAE_NXZ 10058a10 f i libucrtd:output.obj
 0001:00057b00       ?type_case_a@?$output_processor@DV?$stream_output_adapter@D@__crt_stdio_output@@V?$format_validation_base@DV?$stream_output_adapter@D@__crt_stdio_output@@@2@@__crt_stdio_output@@AAE_NXZ 10058b00 f i libucrtd:output.obj
 0001:00057d70       ?type_case_a@?$output_processor@DV?$stream_output_adapter@D@__crt_stdio_output@@V?$positional_parameter_base@DV?$stream_output_adapter@D@__crt_stdio_output@@@2@@__crt_stdio_output@@AAE_NXZ 10058d70 f i libucrtd:output.obj
 0001:00057fe0       ?type_case_a@?$output_processor@DV?$stream_output_adapter@D@__crt_stdio_output@@V?$standard_base@DV?$stream_output_adapter@D@__crt_stdio_output@@@2@@__crt_stdio_output@@AAE_NXZ 10058fe0 f i libucrtd:output.obj
 0001:00058250       ?type_case_a@?$output_processor@DV?$string_output_adapter@D@__crt_stdio_output@@V?$format_validation_base@DV?$string_output_adapter@D@__crt_stdio_output@@@2@@__crt_stdio_output@@AAE_NXZ 10059250 f i libucrtd:output.obj
 0001:000584c0       ?type_case_a@?$output_processor@DV?$string_output_adapter@D@__crt_stdio_output@@V?$positional_parameter_base@DV?$string_output_adapter@D@__crt_stdio_output@@@2@@__crt_stdio_output@@AAE_NXZ 100594c0 f i libucrtd:output.obj
 0001:00058730       ?type_case_a@?$output_processor@DV?$string_output_adapter@D@__crt_stdio_output@@V?$standard_base@DV?$string_output_adapter@D@__crt_stdio_output@@@2@@__crt_stdio_output@@AAE_NXZ 10059730 f i libucrtd:output.obj
 0001:000589a0       ?type_case_a@?$output_processor@_WV?$stream_output_adapter@_W@__crt_stdio_output@@V?$format_validation_base@_WV?$stream_output_adapter@_W@__crt_stdio_output@@@2@@__crt_stdio_output@@AAE_NXZ 100599a0 f i libucrtd:output.obj
 0001:00058c10       ?type_case_a@?$output_processor@_WV?$stream_output_adapter@_W@__crt_stdio_output@@V?$positional_parameter_base@_WV?$stream_output_adapter@_W@__crt_stdio_output@@@2@@__crt_stdio_output@@AAE_NXZ 10059c10 f i libucrtd:output.obj
 0001:00058e80       ?type_case_a@?$output_processor@_WV?$stream_output_adapter@_W@__crt_stdio_output@@V?$standard_base@_WV?$stream_output_adapter@_W@__crt_stdio_output@@@2@@__crt_stdio_output@@AAE_NXZ 10059e80 f i libucrtd:output.obj
 0001:000590f0       ?type_case_a@?$output_processor@_WV?$string_output_adapter@_W@__crt_stdio_output@@V?$format_validation_base@_WV?$string_output_adapter@_W@__crt_stdio_output@@@2@@__crt_stdio_output@@AAE_NXZ 1005a0f0 f i libucrtd:output.obj
 0001:00059360       ?type_case_a@?$output_processor@_WV?$string_output_adapter@_W@__crt_stdio_output@@V?$positional_parameter_base@_WV?$string_output_adapter@_W@__crt_stdio_output@@@2@@__crt_stdio_output@@AAE_NXZ 1005a360 f i libucrtd:output.obj
 0001:000595d0       ?type_case_a@?$output_processor@_WV?$string_output_adapter@_W@__crt_stdio_output@@V?$standard_base@_WV?$string_output_adapter@_W@__crt_stdio_output@@@2@@__crt_stdio_output@@AAE_NXZ 1005a5d0 f i libucrtd:output.obj
 0001:00059840       ?type_case_c@?$output_processor@DV?$stream_output_adapter@D@__crt_stdio_output@@V?$format_validation_base@DV?$stream_output_adapter@D@__crt_stdio_output@@@2@@__crt_stdio_output@@AAE_NXZ 1005a840 f i libucrtd:output.obj
 0001:00059860       ?type_case_c@?$output_processor@DV?$stream_output_adapter@D@__crt_stdio_output@@V?$positional_parameter_base@DV?$stream_output_adapter@D@__crt_stdio_output@@@2@@__crt_stdio_output@@AAE_NXZ 1005a860 f i libucrtd:output.obj
 0001:00059880       ?type_case_c@?$output_processor@DV?$stream_output_adapter@D@__crt_stdio_output@@V?$standard_base@DV?$stream_output_adapter@D@__crt_stdio_output@@@2@@__crt_stdio_output@@AAE_NXZ 1005a880 f i libucrtd:output.obj
 0001:000598a0       ?type_case_c@?$output_processor@DV?$string_output_adapter@D@__crt_stdio_output@@V?$format_validation_base@DV?$string_output_adapter@D@__crt_stdio_output@@@2@@__crt_stdio_output@@AAE_NXZ 1005a8a0 f i libucrtd:output.obj
 0001:000598c0       ?type_case_c@?$output_processor@DV?$string_output_adapter@D@__crt_stdio_output@@V?$positional_parameter_base@DV?$string_output_adapter@D@__crt_stdio_output@@@2@@__crt_stdio_output@@AAE_NXZ 1005a8c0 f i libucrtd:output.obj
 0001:000598e0       ?type_case_c@?$output_processor@DV?$string_output_adapter@D@__crt_stdio_output@@V?$standard_base@DV?$string_output_adapter@D@__crt_stdio_output@@@2@@__crt_stdio_output@@AAE_NXZ 1005a8e0 f i libucrtd:output.obj
 0001:00059900       ?type_case_c@?$output_processor@_WV?$stream_output_adapter@_W@__crt_stdio_output@@V?$format_validation_base@_WV?$stream_output_adapter@_W@__crt_stdio_output@@@2@@__crt_stdio_output@@AAE_NXZ 1005a900 f i libucrtd:output.obj
 0001:00059920       ?type_case_c@?$output_processor@_WV?$stream_output_adapter@_W@__crt_stdio_output@@V?$positional_parameter_base@_WV?$stream_output_adapter@_W@__crt_stdio_output@@@2@@__crt_stdio_output@@AAE_NXZ 1005a920 f i libucrtd:output.obj
 0001:00059940       ?type_case_c@?$output_processor@_WV?$stream_output_adapter@_W@__crt_stdio_output@@V?$standard_base@_WV?$stream_output_adapter@_W@__crt_stdio_output@@@2@@__crt_stdio_output@@AAE_NXZ 1005a940 f i libucrtd:output.obj
 0001:00059960       ?type_case_c@?$output_processor@_WV?$string_output_adapter@_W@__crt_stdio_output@@V?$format_validation_base@_WV?$string_output_adapter@_W@__crt_stdio_output@@@2@@__crt_stdio_output@@AAE_NXZ 1005a960 f i libucrtd:output.obj
 0001:00059980       ?type_case_c@?$output_processor@_WV?$string_output_adapter@_W@__crt_stdio_output@@V?$positional_parameter_base@_WV?$string_output_adapter@_W@__crt_stdio_output@@@2@@__crt_stdio_output@@AAE_NXZ 1005a980 f i libucrtd:output.obj
 0001:000599a0       ?type_case_c@?$output_processor@_WV?$string_output_adapter@_W@__crt_stdio_output@@V?$standard_base@_WV?$string_output_adapter@_W@__crt_stdio_output@@@2@@__crt_stdio_output@@AAE_NXZ 1005a9a0 f i libucrtd:output.obj
 0001:000599c0       ?type_case_c_tchar@?$output_processor@DV?$stream_output_adapter@D@__crt_stdio_output@@V?$format_validation_base@DV?$stream_output_adapter@D@__crt_stdio_output@@@2@@__crt_stdio_output@@AAE_ND@Z 1005a9c0 f i libucrtd:output.obj
 0001:00059ad0       ?type_case_c_tchar@?$output_processor@DV?$stream_output_adapter@D@__crt_stdio_output@@V?$positional_parameter_base@DV?$stream_output_adapter@D@__crt_stdio_output@@@2@@__crt_stdio_output@@AAE_ND@Z 1005aad0 f i libucrtd:output.obj
 0001:00059be0       ?type_case_c_tchar@?$output_processor@DV?$stream_output_adapter@D@__crt_stdio_output@@V?$standard_base@DV?$stream_output_adapter@D@__crt_stdio_output@@@2@@__crt_stdio_output@@AAE_ND@Z 1005abe0 f i libucrtd:output.obj
 0001:00059cf0       ?type_case_c_tchar@?$output_processor@DV?$string_output_adapter@D@__crt_stdio_output@@V?$format_validation_base@DV?$string_output_adapter@D@__crt_stdio_output@@@2@@__crt_stdio_output@@AAE_ND@Z 1005acf0 f i libucrtd:output.obj
 0001:00059e00       ?type_case_c_tchar@?$output_processor@DV?$string_output_adapter@D@__crt_stdio_output@@V?$positional_parameter_base@DV?$string_output_adapter@D@__crt_stdio_output@@@2@@__crt_stdio_output@@AAE_ND@Z 1005ae00 f i libucrtd:output.obj
 0001:00059f10       ?type_case_c_tchar@?$output_processor@DV?$string_output_adapter@D@__crt_stdio_output@@V?$standard_base@DV?$string_output_adapter@D@__crt_stdio_output@@@2@@__crt_stdio_output@@AAE_ND@Z 1005af10 f i libucrtd:output.obj
 0001:0005a020       ?type_case_c_tchar@?$output_processor@_WV?$stream_output_adapter@_W@__crt_stdio_output@@V?$format_validation_base@_WV?$stream_output_adapter@_W@__crt_stdio_output@@@2@@__crt_stdio_output@@AAE_N_W@Z 1005b020 f i libucrtd:output.obj
 0001:0005a120       ?type_case_c_tchar@?$output_processor@_WV?$stream_output_adapter@_W@__crt_stdio_output@@V?$positional_parameter_base@_WV?$stream_output_adapter@_W@__crt_stdio_output@@@2@@__crt_stdio_output@@AAE_N_W@Z 1005b120 f i libucrtd:output.obj
 0001:0005a220       ?type_case_c_tchar@?$output_processor@_WV?$stream_output_adapter@_W@__crt_stdio_output@@V?$standard_base@_WV?$stream_output_adapter@_W@__crt_stdio_output@@@2@@__crt_stdio_output@@AAE_N_W@Z 1005b220 f i libucrtd:output.obj
 0001:0005a320       ?type_case_c_tchar@?$output_processor@_WV?$string_output_adapter@_W@__crt_stdio_output@@V?$format_validation_base@_WV?$string_output_adapter@_W@__crt_stdio_output@@@2@@__crt_stdio_output@@AAE_N_W@Z 1005b320 f i libucrtd:output.obj
 0001:0005a420       ?type_case_c_tchar@?$output_processor@_WV?$string_output_adapter@_W@__crt_stdio_output@@V?$positional_parameter_base@_WV?$string_output_adapter@_W@__crt_stdio_output@@@2@@__crt_stdio_output@@AAE_N_W@Z 1005b420 f i libucrtd:output.obj
 0001:0005a520       ?type_case_c_tchar@?$output_processor@_WV?$string_output_adapter@_W@__crt_stdio_output@@V?$standard_base@_WV?$string_output_adapter@_W@__crt_stdio_output@@@2@@__crt_stdio_output@@AAE_N_W@Z 1005b520 f i libucrtd:output.obj
 0001:0005a620       ?type_case_d@?$output_processor@DV?$stream_output_adapter@D@__crt_stdio_output@@V?$format_validation_base@DV?$stream_output_adapter@D@__crt_stdio_output@@@2@@__crt_stdio_output@@AAE_NXZ 1005b620 f i libucrtd:output.obj
 0001:0005a650       ?type_case_d@?$output_processor@DV?$stream_output_adapter@D@__crt_stdio_output@@V?$positional_parameter_base@DV?$stream_output_adapter@D@__crt_stdio_output@@@2@@__crt_stdio_output@@AAE_NXZ 1005b650 f i libucrtd:output.obj
 0001:0005a680       ?type_case_d@?$output_processor@DV?$stream_output_adapter@D@__crt_stdio_output@@V?$standard_base@DV?$stream_output_adapter@D@__crt_stdio_output@@@2@@__crt_stdio_output@@AAE_NXZ 1005b680 f i libucrtd:output.obj
 0001:0005a6b0       ?type_case_d@?$output_processor@DV?$string_output_adapter@D@__crt_stdio_output@@V?$format_validation_base@DV?$string_output_adapter@D@__crt_stdio_output@@@2@@__crt_stdio_output@@AAE_NXZ 1005b6b0 f i libucrtd:output.obj
 0001:0005a6e0       ?type_case_d@?$output_processor@DV?$string_output_adapter@D@__crt_stdio_output@@V?$positional_parameter_base@DV?$string_output_adapter@D@__crt_stdio_output@@@2@@__crt_stdio_output@@AAE_NXZ 1005b6e0 f i libucrtd:output.obj
 0001:0005a710       ?type_case_d@?$output_processor@DV?$string_output_adapter@D@__crt_stdio_output@@V?$standard_base@DV?$string_output_adapter@D@__crt_stdio_output@@@2@@__crt_stdio_output@@AAE_NXZ 1005b710 f i libucrtd:output.obj
 0001:0005a740       ?type_case_d@?$output_processor@_WV?$stream_output_adapter@_W@__crt_stdio_output@@V?$format_validation_base@_WV?$stream_output_adapter@_W@__crt_stdio_output@@@2@@__crt_stdio_output@@AAE_NXZ 1005b740 f i libucrtd:output.obj
 0001:0005a770       ?type_case_d@?$output_processor@_WV?$stream_output_adapter@_W@__crt_stdio_output@@V?$positional_parameter_base@_WV?$stream_output_adapter@_W@__crt_stdio_output@@@2@@__crt_stdio_output@@AAE_NXZ 1005b770 f i libucrtd:output.obj
 0001:0005a7a0       ?type_case_d@?$output_processor@_WV?$stream_output_adapter@_W@__crt_stdio_output@@V?$standard_base@_WV?$stream_output_adapter@_W@__crt_stdio_output@@@2@@__crt_stdio_output@@AAE_NXZ 1005b7a0 f i libucrtd:output.obj
 0001:0005a7d0       ?type_case_d@?$output_processor@_WV?$string_output_adapter@_W@__crt_stdio_output@@V?$format_validation_base@_WV?$string_output_adapter@_W@__crt_stdio_output@@@2@@__crt_stdio_output@@AAE_NXZ 1005b7d0 f i libucrtd:output.obj
 0001:0005a800       ?type_case_d@?$output_processor@_WV?$string_output_adapter@_W@__crt_stdio_output@@V?$positional_parameter_base@_WV?$string_output_adapter@_W@__crt_stdio_output@@@2@@__crt_stdio_output@@AAE_NXZ 1005b800 f i libucrtd:output.obj
 0001:0005a830       ?type_case_d@?$output_processor@_WV?$string_output_adapter@_W@__crt_stdio_output@@V?$standard_base@_WV?$string_output_adapter@_W@__crt_stdio_output@@@2@@__crt_stdio_output@@AAE_NXZ 1005b830 f i libucrtd:output.obj
 0001:0005a860       ?type_case_integer@?$output_processor@DV?$stream_output_adapter@D@__crt_stdio_output@@V?$format_validation_base@DV?$stream_output_adapter@D@__crt_stdio_output@@@2@@__crt_stdio_output@@AAE_NI_N@Z 1005b860 f i libucrtd:output.obj
 0001:0005abb0       ?type_case_integer@?$output_processor@DV?$stream_output_adapter@D@__crt_stdio_output@@V?$positional_parameter_base@DV?$stream_output_adapter@D@__crt_stdio_output@@@2@@__crt_stdio_output@@AAE_NI_N@Z 1005bbb0 f i libucrtd:output.obj
 0001:0005af00       ?type_case_integer@?$output_processor@DV?$stream_output_adapter@D@__crt_stdio_output@@V?$standard_base@DV?$stream_output_adapter@D@__crt_stdio_output@@@2@@__crt_stdio_output@@AAE_NI_N@Z 1005bf00 f i libucrtd:output.obj
 0001:0005b250       ?type_case_integer@?$output_processor@DV?$string_output_adapter@D@__crt_stdio_output@@V?$format_validation_base@DV?$string_output_adapter@D@__crt_stdio_output@@@2@@__crt_stdio_output@@AAE_NI_N@Z 1005c250 f i libucrtd:output.obj
 0001:0005b5a0       ?type_case_integer@?$output_processor@DV?$string_output_adapter@D@__crt_stdio_output@@V?$positional_parameter_base@DV?$string_output_adapter@D@__crt_stdio_output@@@2@@__crt_stdio_output@@AAE_NI_N@Z 1005c5a0 f i libucrtd:output.obj
 0001:0005b8f0       ?type_case_integer@?$output_processor@DV?$string_output_adapter@D@__crt_stdio_output@@V?$standard_base@DV?$string_output_adapter@D@__crt_stdio_output@@@2@@__crt_stdio_output@@AAE_NI_N@Z 1005c8f0 f i libucrtd:output.obj
 0001:0005bc40       ?type_case_integer@?$output_processor@_WV?$stream_output_adapter@_W@__crt_stdio_output@@V?$format_validation_base@_WV?$stream_output_adapter@_W@__crt_stdio_output@@@2@@__crt_stdio_output@@AAE_NI_N@Z 1005cc40 f i libucrtd:output.obj
 0001:0005bf90       ?type_case_integer@?$output_processor@_WV?$stream_output_adapter@_W@__crt_stdio_output@@V?$positional_parameter_base@_WV?$stream_output_adapter@_W@__crt_stdio_output@@@2@@__crt_stdio_output@@AAE_NI_N@Z 1005cf90 f i libucrtd:output.obj
 0001:0005c2e0       ?type_case_integer@?$output_processor@_WV?$stream_output_adapter@_W@__crt_stdio_output@@V?$standard_base@_WV?$stream_output_adapter@_W@__crt_stdio_output@@@2@@__crt_stdio_output@@AAE_NI_N@Z 1005d2e0 f i libucrtd:output.obj
 0001:0005c630       ?type_case_integer@?$output_processor@_WV?$string_output_adapter@_W@__crt_stdio_output@@V?$format_validation_base@_WV?$string_output_adapter@_W@__crt_stdio_output@@@2@@__crt_stdio_output@@AAE_NI_N@Z 1005d630 f i libucrtd:output.obj
 0001:0005c980       ?type_case_integer@?$output_processor@_WV?$string_output_adapter@_W@__crt_stdio_output@@V?$positional_parameter_base@_WV?$string_output_adapter@_W@__crt_stdio_output@@@2@@__crt_stdio_output@@AAE_NI_N@Z 1005d980 f i libucrtd:output.obj
 0001:0005ccd0       ?type_case_integer@?$output_processor@_WV?$string_output_adapter@_W@__crt_stdio_output@@V?$standard_base@_WV?$string_output_adapter@_W@__crt_stdio_output@@@2@@__crt_stdio_output@@AAE_NI_N@Z 1005dcd0 f i libucrtd:output.obj
 0001:0005d020       ?type_case_n@?$output_processor@DV?$stream_output_adapter@D@__crt_stdio_output@@V?$format_validation_base@DV?$stream_output_adapter@D@__crt_stdio_output@@@2@@__crt_stdio_output@@AAE_NXZ 1005e020 f i libucrtd:output.obj
 0001:0005d210       ?type_case_n@?$output_processor@DV?$stream_output_adapter@D@__crt_stdio_output@@V?$positional_parameter_base@DV?$stream_output_adapter@D@__crt_stdio_output@@@2@@__crt_stdio_output@@AAE_NXZ 1005e210 f i libucrtd:output.obj
 0001:0005d400       ?type_case_n@?$output_processor@DV?$stream_output_adapter@D@__crt_stdio_output@@V?$standard_base@DV?$stream_output_adapter@D@__crt_stdio_output@@@2@@__crt_stdio_output@@AAE_NXZ 1005e400 f i libucrtd:output.obj
 0001:0005d5f0       ?type_case_n@?$output_processor@DV?$string_output_adapter@D@__crt_stdio_output@@V?$format_validation_base@DV?$string_output_adapter@D@__crt_stdio_output@@@2@@__crt_stdio_output@@AAE_NXZ 1005e5f0 f i libucrtd:output.obj
 0001:0005d7e0       ?type_case_n@?$output_processor@DV?$string_output_adapter@D@__crt_stdio_output@@V?$positional_parameter_base@DV?$string_output_adapter@D@__crt_stdio_output@@@2@@__crt_stdio_output@@AAE_NXZ 1005e7e0 f i libucrtd:output.obj
 0001:0005d9d0       ?type_case_n@?$output_processor@DV?$string_output_adapter@D@__crt_stdio_output@@V?$standard_base@DV?$string_output_adapter@D@__crt_stdio_output@@@2@@__crt_stdio_output@@AAE_NXZ 1005e9d0 f i libucrtd:output.obj
 0001:0005dbc0       ?type_case_n@?$output_processor@_WV?$stream_output_adapter@_W@__crt_stdio_output@@V?$format_validation_base@_WV?$stream_output_adapter@_W@__crt_stdio_output@@@2@@__crt_stdio_output@@AAE_NXZ 1005ebc0 f i libucrtd:output.obj
 0001:0005ddb0       ?type_case_n@?$output_processor@_WV?$stream_output_adapter@_W@__crt_stdio_output@@V?$positional_parameter_base@_WV?$stream_output_adapter@_W@__crt_stdio_output@@@2@@__crt_stdio_output@@AAE_NXZ 1005edb0 f i libucrtd:output.obj
 0001:0005dfa0       ?type_case_n@?$output_processor@_WV?$stream_output_adapter@_W@__crt_stdio_output@@V?$standard_base@_WV?$stream_output_adapter@_W@__crt_stdio_output@@@2@@__crt_stdio_output@@AAE_NXZ 1005efa0 f i libucrtd:output.obj
 0001:0005e190       ?type_case_n@?$output_processor@_WV?$string_output_adapter@_W@__crt_stdio_output@@V?$format_validation_base@_WV?$string_output_adapter@_W@__crt_stdio_output@@@2@@__crt_stdio_output@@AAE_NXZ 1005f190 f i libucrtd:output.obj
 0001:0005e380       ?type_case_n@?$output_processor@_WV?$string_output_adapter@_W@__crt_stdio_output@@V?$positional_parameter_base@_WV?$string_output_adapter@_W@__crt_stdio_output@@@2@@__crt_stdio_output@@AAE_NXZ 1005f380 f i libucrtd:output.obj
 0001:0005e570       ?type_case_n@?$output_processor@_WV?$string_output_adapter@_W@__crt_stdio_output@@V?$standard_base@_WV?$string_output_adapter@_W@__crt_stdio_output@@@2@@__crt_stdio_output@@AAE_NXZ 1005f570 f i libucrtd:output.obj
 0001:0005e760       ?type_case_o@?$output_processor@DV?$stream_output_adapter@D@__crt_stdio_output@@V?$format_validation_base@DV?$stream_output_adapter@D@__crt_stdio_output@@@2@@__crt_stdio_output@@AAE_NXZ 1005f760 f i libucrtd:output.obj
 0001:0005e7a0       ?type_case_o@?$output_processor@DV?$stream_output_adapter@D@__crt_stdio_output@@V?$positional_parameter_base@DV?$stream_output_adapter@D@__crt_stdio_output@@@2@@__crt_stdio_output@@AAE_NXZ 1005f7a0 f i libucrtd:output.obj
 0001:0005e7e0       ?type_case_o@?$output_processor@DV?$stream_output_adapter@D@__crt_stdio_output@@V?$standard_base@DV?$stream_output_adapter@D@__crt_stdio_output@@@2@@__crt_stdio_output@@AAE_NXZ 1005f7e0 f i libucrtd:output.obj
 0001:0005e820       ?type_case_o@?$output_processor@DV?$string_output_adapter@D@__crt_stdio_output@@V?$format_validation_base@DV?$string_output_adapter@D@__crt_stdio_output@@@2@@__crt_stdio_output@@AAE_NXZ 1005f820 f i libucrtd:output.obj
 0001:0005e860       ?type_case_o@?$output_processor@DV?$string_output_adapter@D@__crt_stdio_output@@V?$positional_parameter_base@DV?$string_output_adapter@D@__crt_stdio_output@@@2@@__crt_stdio_output@@AAE_NXZ 1005f860 f i libucrtd:output.obj
 0001:0005e8a0       ?type_case_o@?$output_processor@DV?$string_output_adapter@D@__crt_stdio_output@@V?$standard_base@DV?$string_output_adapter@D@__crt_stdio_output@@@2@@__crt_stdio_output@@AAE_NXZ 1005f8a0 f i libucrtd:output.obj
 0001:0005e8e0       ?type_case_o@?$output_processor@_WV?$stream_output_adapter@_W@__crt_stdio_output@@V?$format_validation_base@_WV?$stream_output_adapter@_W@__crt_stdio_output@@@2@@__crt_stdio_output@@AAE_NXZ 1005f8e0 f i libucrtd:output.obj
 0001:0005e920       ?type_case_o@?$output_processor@_WV?$stream_output_adapter@_W@__crt_stdio_output@@V?$positional_parameter_base@_WV?$stream_output_adapter@_W@__crt_stdio_output@@@2@@__crt_stdio_output@@AAE_NXZ 1005f920 f i libucrtd:output.obj
 0001:0005e960       ?type_case_o@?$output_processor@_WV?$stream_output_adapter@_W@__crt_stdio_output@@V?$standard_base@_WV?$stream_output_adapter@_W@__crt_stdio_output@@@2@@__crt_stdio_output@@AAE_NXZ 1005f960 f i libucrtd:output.obj
 0001:0005e9a0       ?type_case_o@?$output_processor@_WV?$string_output_adapter@_W@__crt_stdio_output@@V?$format_validation_base@_WV?$string_output_adapter@_W@__crt_stdio_output@@@2@@__crt_stdio_output@@AAE_NXZ 1005f9a0 f i libucrtd:output.obj
 0001:0005e9e0       ?type_case_o@?$output_processor@_WV?$string_output_adapter@_W@__crt_stdio_output@@V?$positional_parameter_base@_WV?$string_output_adapter@_W@__crt_stdio_output@@@2@@__crt_stdio_output@@AAE_NXZ 1005f9e0 f i libucrtd:output.obj
 0001:0005ea20       ?type_case_o@?$output_processor@_WV?$string_output_adapter@_W@__crt_stdio_output@@V?$standard_base@_WV?$string_output_adapter@_W@__crt_stdio_output@@@2@@__crt_stdio_output@@AAE_NXZ 1005fa20 f i libucrtd:output.obj
 0001:0005ea60       ?type_case_p@?$output_processor@DV?$stream_output_adapter@D@__crt_stdio_output@@V?$format_validation_base@DV?$stream_output_adapter@D@__crt_stdio_output@@@2@@__crt_stdio_output@@AAE_NXZ 1005fa60 f i libucrtd:output.obj
 0001:0005ea90       ?type_case_p@?$output_processor@DV?$stream_output_adapter@D@__crt_stdio_output@@V?$positional_parameter_base@DV?$stream_output_adapter@D@__crt_stdio_output@@@2@@__crt_stdio_output@@AAE_NXZ 1005fa90 f i libucrtd:output.obj
 0001:0005eac0       ?type_case_p@?$output_processor@DV?$stream_output_adapter@D@__crt_stdio_output@@V?$standard_base@DV?$stream_output_adapter@D@__crt_stdio_output@@@2@@__crt_stdio_output@@AAE_NXZ 1005fac0 f i libucrtd:output.obj
 0001:0005eaf0       ?type_case_p@?$output_processor@DV?$string_output_adapter@D@__crt_stdio_output@@V?$format_validation_base@DV?$string_output_adapter@D@__crt_stdio_output@@@2@@__crt_stdio_output@@AAE_NXZ 1005faf0 f i libucrtd:output.obj
 0001:0005eb20       ?type_case_p@?$output_processor@DV?$string_output_adapter@D@__crt_stdio_output@@V?$positional_parameter_base@DV?$string_output_adapter@D@__crt_stdio_output@@@2@@__crt_stdio_output@@AAE_NXZ 1005fb20 f i libucrtd:output.obj
 0001:0005eb50       ?type_case_p@?$output_processor@DV?$string_output_adapter@D@__crt_stdio_output@@V?$standard_base@DV?$string_output_adapter@D@__crt_stdio_output@@@2@@__crt_stdio_output@@AAE_NXZ 1005fb50 f i libucrtd:output.obj
 0001:0005eb80       ?type_case_p@?$output_processor@_WV?$stream_output_adapter@_W@__crt_stdio_output@@V?$format_validation_base@_WV?$stream_output_adapter@_W@__crt_stdio_output@@@2@@__crt_stdio_output@@AAE_NXZ 1005fb80 f i libucrtd:output.obj
 0001:0005ebb0       ?type_case_p@?$output_processor@_WV?$stream_output_adapter@_W@__crt_stdio_output@@V?$positional_parameter_base@_WV?$stream_output_adapter@_W@__crt_stdio_output@@@2@@__crt_stdio_output@@AAE_NXZ 1005fbb0 f i libucrtd:output.obj
 0001:0005ebe0       ?type_case_p@?$output_processor@_WV?$stream_output_adapter@_W@__crt_stdio_output@@V?$standard_base@_WV?$stream_output_adapter@_W@__crt_stdio_output@@@2@@__crt_stdio_output@@AAE_NXZ 1005fbe0 f i libucrtd:output.obj
 0001:0005ec10       ?type_case_p@?$output_processor@_WV?$string_output_adapter@_W@__crt_stdio_output@@V?$format_validation_base@_WV?$string_output_adapter@_W@__crt_stdio_output@@@2@@__crt_stdio_output@@AAE_NXZ 1005fc10 f i libucrtd:output.obj
 0001:0005ec40       ?type_case_p@?$output_processor@_WV?$string_output_adapter@_W@__crt_stdio_output@@V?$positional_parameter_base@_WV?$string_output_adapter@_W@__crt_stdio_output@@@2@@__crt_stdio_output@@AAE_NXZ 1005fc40 f i libucrtd:output.obj
 0001:0005ec70       ?type_case_p@?$output_processor@_WV?$string_output_adapter@_W@__crt_stdio_output@@V?$standard_base@_WV?$string_output_adapter@_W@__crt_stdio_output@@@2@@__crt_stdio_output@@AAE_NXZ 1005fc70 f i libucrtd:output.obj
 0001:0005eca0       ?type_case_s@?$output_processor@DV?$stream_output_adapter@D@__crt_stdio_output@@V?$format_validation_base@DV?$stream_output_adapter@D@__crt_stdio_output@@@2@@__crt_stdio_output@@AAE_NXZ 1005fca0 f i libucrtd:output.obj
 0001:0005ed90       ?type_case_s@?$output_processor@DV?$stream_output_adapter@D@__crt_stdio_output@@V?$positional_parameter_base@DV?$stream_output_adapter@D@__crt_stdio_output@@@2@@__crt_stdio_output@@AAE_NXZ 1005fd90 f i libucrtd:output.obj
 0001:0005ee80       ?type_case_s@?$output_processor@DV?$stream_output_adapter@D@__crt_stdio_output@@V?$standard_base@DV?$stream_output_adapter@D@__crt_stdio_output@@@2@@__crt_stdio_output@@AAE_NXZ 1005fe80 f i libucrtd:output.obj
 0001:0005ef70       ?type_case_s@?$output_processor@DV?$string_output_adapter@D@__crt_stdio_output@@V?$format_validation_base@DV?$string_output_adapter@D@__crt_stdio_output@@@2@@__crt_stdio_output@@AAE_NXZ 1005ff70 f i libucrtd:output.obj
 0001:0005f060       ?type_case_s@?$output_processor@DV?$string_output_adapter@D@__crt_stdio_output@@V?$positional_parameter_base@DV?$string_output_adapter@D@__crt_stdio_output@@@2@@__crt_stdio_output@@AAE_NXZ 10060060 f i libucrtd:output.obj
 0001:0005f150       ?type_case_s@?$output_processor@DV?$string_output_adapter@D@__crt_stdio_output@@V?$standard_base@DV?$string_output_adapter@D@__crt_stdio_output@@@2@@__crt_stdio_output@@AAE_NXZ 10060150 f i libucrtd:output.obj
 0001:0005f240       ?type_case_s@?$output_processor@_WV?$stream_output_adapter@_W@__crt_stdio_output@@V?$format_validation_base@_WV?$stream_output_adapter@_W@__crt_stdio_output@@@2@@__crt_stdio_output@@AAE_NXZ 10060240 f i libucrtd:output.obj
 0001:0005f330       ?type_case_s@?$output_processor@_WV?$stream_output_adapter@_W@__crt_stdio_output@@V?$positional_parameter_base@_WV?$stream_output_adapter@_W@__crt_stdio_output@@@2@@__crt_stdio_output@@AAE_NXZ 10060330 f i libucrtd:output.obj
 0001:0005f420       ?type_case_s@?$output_processor@_WV?$stream_output_adapter@_W@__crt_stdio_output@@V?$standard_base@_WV?$stream_output_adapter@_W@__crt_stdio_output@@@2@@__crt_stdio_output@@AAE_NXZ 10060420 f i libucrtd:output.obj
 0001:0005f510       ?type_case_s@?$output_processor@_WV?$string_output_adapter@_W@__crt_stdio_output@@V?$format_validation_base@_WV?$string_output_adapter@_W@__crt_stdio_output@@@2@@__crt_stdio_output@@AAE_NXZ 10060510 f i libucrtd:output.obj
 0001:0005f600       ?type_case_s@?$output_processor@_WV?$string_output_adapter@_W@__crt_stdio_output@@V?$positional_parameter_base@_WV?$string_output_adapter@_W@__crt_stdio_output@@@2@@__crt_stdio_output@@AAE_NXZ 10060600 f i libucrtd:output.obj
 0001:0005f6f0       ?type_case_s@?$output_processor@_WV?$string_output_adapter@_W@__crt_stdio_output@@V?$standard_base@_WV?$string_output_adapter@_W@__crt_stdio_output@@@2@@__crt_stdio_output@@AAE_NXZ 100606f0 f i libucrtd:output.obj
 0001:0005f7e0       ?type_case_s_compute_narrow_string_length@?$output_processor@DV?$stream_output_adapter@D@__crt_stdio_output@@V?$format_validation_base@DV?$stream_output_adapter@D@__crt_stdio_output@@@2@@__crt_stdio_output@@ABEHHD@Z 100607e0 f i libucrtd:output.obj
 0001:0005f810       ?type_case_s_compute_narrow_string_length@?$output_processor@DV?$stream_output_adapter@D@__crt_stdio_output@@V?$positional_parameter_base@DV?$stream_output_adapter@D@__crt_stdio_output@@@2@@__crt_stdio_output@@ABEHHD@Z 10060810 f i libucrtd:output.obj
 0001:0005f840       ?type_case_s_compute_narrow_string_length@?$output_processor@DV?$stream_output_adapter@D@__crt_stdio_output@@V?$standard_base@DV?$stream_output_adapter@D@__crt_stdio_output@@@2@@__crt_stdio_output@@ABEHHD@Z 10060840 f i libucrtd:output.obj
 0001:0005f870       ?type_case_s_compute_narrow_string_length@?$output_processor@DV?$string_output_adapter@D@__crt_stdio_output@@V?$format_validation_base@DV?$string_output_adapter@D@__crt_stdio_output@@@2@@__crt_stdio_output@@ABEHHD@Z 10060870 f i libucrtd:output.obj
 0001:0005f8a0       ?type_case_s_compute_narrow_string_length@?$output_processor@DV?$string_output_adapter@D@__crt_stdio_output@@V?$positional_parameter_base@DV?$string_output_adapter@D@__crt_stdio_output@@@2@@__crt_stdio_output@@ABEHHD@Z 100608a0 f i libucrtd:output.obj
 0001:0005f8d0       ?type_case_s_compute_narrow_string_length@?$output_processor@DV?$string_output_adapter@D@__crt_stdio_output@@V?$standard_base@DV?$string_output_adapter@D@__crt_stdio_output@@@2@@__crt_stdio_output@@ABEHHD@Z 100608d0 f i libucrtd:output.obj
 0001:0005f900       ?type_case_s_compute_narrow_string_length@?$output_processor@_WV?$stream_output_adapter@_W@__crt_stdio_output@@V?$format_validation_base@_WV?$stream_output_adapter@_W@__crt_stdio_output@@@2@@__crt_stdio_output@@ABEHH_W@Z 10060900 f i libucrtd:output.obj
 0001:0005f970       ?type_case_s_compute_narrow_string_length@?$output_processor@_WV?$stream_output_adapter@_W@__crt_stdio_output@@V?$positional_parameter_base@_WV?$stream_output_adapter@_W@__crt_stdio_output@@@2@@__crt_stdio_output@@ABEHH_W@Z 10060970 f i libucrtd:output.obj
 0001:0005f9e0       ?type_case_s_compute_narrow_string_length@?$output_processor@_WV?$stream_output_adapter@_W@__crt_stdio_output@@V?$standard_base@_WV?$stream_output_adapter@_W@__crt_stdio_output@@@2@@__crt_stdio_output@@ABEHH_W@Z 100609e0 f i libucrtd:output.obj
 0001:0005fa50       ?type_case_s_compute_narrow_string_length@?$output_processor@_WV?$string_output_adapter@_W@__crt_stdio_output@@V?$format_validation_base@_WV?$string_output_adapter@_W@__crt_stdio_output@@@2@@__crt_stdio_output@@ABEHH_W@Z 10060a50 f i libucrtd:output.obj
 0001:0005fac0       ?type_case_s_compute_narrow_string_length@?$output_processor@_WV?$string_output_adapter@_W@__crt_stdio_output@@V?$positional_parameter_base@_WV?$string_output_adapter@_W@__crt_stdio_output@@@2@@__crt_stdio_output@@ABEHH_W@Z 10060ac0 f i libucrtd:output.obj
 0001:0005fb30       ?type_case_s_compute_narrow_string_length@?$output_processor@_WV?$string_output_adapter@_W@__crt_stdio_output@@V?$standard_base@_WV?$string_output_adapter@_W@__crt_stdio_output@@@2@@__crt_stdio_output@@ABEHH_W@Z 10060b30 f i libucrtd:output.obj
 0001:0005fba0       ?type_case_u@?$output_processor@DV?$stream_output_adapter@D@__crt_stdio_output@@V?$format_validation_base@DV?$stream_output_adapter@D@__crt_stdio_output@@@2@@__crt_stdio_output@@AAE_NXZ 10060ba0 f i libucrtd:output.obj
 0001:0005fbc0       ?type_case_u@?$output_processor@DV?$stream_output_adapter@D@__crt_stdio_output@@V?$positional_parameter_base@DV?$stream_output_adapter@D@__crt_stdio_output@@@2@@__crt_stdio_output@@AAE_NXZ 10060bc0 f i libucrtd:output.obj
 0001:0005fbe0       ?type_case_u@?$output_processor@DV?$stream_output_adapter@D@__crt_stdio_output@@V?$standard_base@DV?$stream_output_adapter@D@__crt_stdio_output@@@2@@__crt_stdio_output@@AAE_NXZ 10060be0 f i libucrtd:output.obj
 0001:0005fc00       ?type_case_u@?$output_processor@DV?$string_output_adapter@D@__crt_stdio_output@@V?$format_validation_base@DV?$string_output_adapter@D@__crt_stdio_output@@@2@@__crt_stdio_output@@AAE_NXZ 10060c00 f i libucrtd:output.obj
 0001:0005fc20       ?type_case_u@?$output_processor@DV?$string_output_adapter@D@__crt_stdio_output@@V?$positional_parameter_base@DV?$string_output_adapter@D@__crt_stdio_output@@@2@@__crt_stdio_output@@AAE_NXZ 10060c20 f i libucrtd:output.obj
 0001:0005fc40       ?type_case_u@?$output_processor@DV?$string_output_adapter@D@__crt_stdio_output@@V?$standard_base@DV?$string_output_adapter@D@__crt_stdio_output@@@2@@__crt_stdio_output@@AAE_NXZ 10060c40 f i libucrtd:output.obj
 0001:0005fc60       ?type_case_u@?$output_processor@_WV?$stream_output_adapter@_W@__crt_stdio_output@@V?$format_validation_base@_WV?$stream_output_adapter@_W@__crt_stdio_output@@@2@@__crt_stdio_output@@AAE_NXZ 10060c60 f i libucrtd:output.obj
 0001:0005fc80       ?type_case_u@?$output_processor@_WV?$stream_output_adapter@_W@__crt_stdio_output@@V?$positional_parameter_base@_WV?$stream_output_adapter@_W@__crt_stdio_output@@@2@@__crt_stdio_output@@AAE_NXZ 10060c80 f i libucrtd:output.obj
 0001:0005fca0       ?type_case_u@?$output_processor@_WV?$stream_output_adapter@_W@__crt_stdio_output@@V?$standard_base@_WV?$stream_output_adapter@_W@__crt_stdio_output@@@2@@__crt_stdio_output@@AAE_NXZ 10060ca0 f i libucrtd:output.obj
 0001:0005fcc0       ?type_case_u@?$output_processor@_WV?$string_output_adapter@_W@__crt_stdio_output@@V?$format_validation_base@_WV?$string_output_adapter@_W@__crt_stdio_output@@@2@@__crt_stdio_output@@AAE_NXZ 10060cc0 f i libucrtd:output.obj
 0001:0005fce0       ?type_case_u@?$output_processor@_WV?$string_output_adapter@_W@__crt_stdio_output@@V?$positional_parameter_base@_WV?$string_output_adapter@_W@__crt_stdio_output@@@2@@__crt_stdio_output@@AAE_NXZ 10060ce0 f i libucrtd:output.obj
 0001:0005fd00       ?type_case_u@?$output_processor@_WV?$string_output_adapter@_W@__crt_stdio_output@@V?$standard_base@_WV?$string_output_adapter@_W@__crt_stdio_output@@@2@@__crt_stdio_output@@AAE_NXZ 10060d00 f i libucrtd:output.obj
 0001:0005fd20       ?type_case_x@?$output_processor@DV?$stream_output_adapter@D@__crt_stdio_output@@V?$format_validation_base@DV?$stream_output_adapter@D@__crt_stdio_output@@@2@@__crt_stdio_output@@AAE_NXZ 10060d20 f i libucrtd:output.obj
 0001:0005fd40       ?type_case_x@?$output_processor@DV?$stream_output_adapter@D@__crt_stdio_output@@V?$positional_parameter_base@DV?$stream_output_adapter@D@__crt_stdio_output@@@2@@__crt_stdio_output@@AAE_NXZ 10060d40 f i libucrtd:output.obj
 0001:0005fd60       ?type_case_x@?$output_processor@DV?$stream_output_adapter@D@__crt_stdio_output@@V?$standard_base@DV?$stream_output_adapter@D@__crt_stdio_output@@@2@@__crt_stdio_output@@AAE_NXZ 10060d60 f i libucrtd:output.obj
 0001:0005fd80       ?type_case_x@?$output_processor@DV?$string_output_adapter@D@__crt_stdio_output@@V?$format_validation_base@DV?$string_output_adapter@D@__crt_stdio_output@@@2@@__crt_stdio_output@@AAE_NXZ 10060d80 f i libucrtd:output.obj
 0001:0005fda0       ?type_case_x@?$output_processor@DV?$string_output_adapter@D@__crt_stdio_output@@V?$positional_parameter_base@DV?$string_output_adapter@D@__crt_stdio_output@@@2@@__crt_stdio_output@@AAE_NXZ 10060da0 f i libucrtd:output.obj
 0001:0005fdc0       ?type_case_x@?$output_processor@DV?$string_output_adapter@D@__crt_stdio_output@@V?$standard_base@DV?$string_output_adapter@D@__crt_stdio_output@@@2@@__crt_stdio_output@@AAE_NXZ 10060dc0 f i libucrtd:output.obj
 0001:0005fde0       ?type_case_x@?$output_processor@_WV?$stream_output_adapter@_W@__crt_stdio_output@@V?$format_validation_base@_WV?$stream_output_adapter@_W@__crt_stdio_output@@@2@@__crt_stdio_output@@AAE_NXZ 10060de0 f i libucrtd:output.obj
 0001:0005fe00       ?type_case_x@?$output_processor@_WV?$stream_output_adapter@_W@__crt_stdio_output@@V?$positional_parameter_base@_WV?$stream_output_adapter@_W@__crt_stdio_output@@@2@@__crt_stdio_output@@AAE_NXZ 10060e00 f i libucrtd:output.obj
 0001:0005fe20       ?type_case_x@?$output_processor@_WV?$stream_output_adapter@_W@__crt_stdio_output@@V?$standard_base@_WV?$stream_output_adapter@_W@__crt_stdio_output@@@2@@__crt_stdio_output@@AAE_NXZ 10060e20 f i libucrtd:output.obj
 0001:0005fe40       ?type_case_x@?$output_processor@_WV?$string_output_adapter@_W@__crt_stdio_output@@V?$format_validation_base@_WV?$string_output_adapter@_W@__crt_stdio_output@@@2@@__crt_stdio_output@@AAE_NXZ 10060e40 f i libucrtd:output.obj
 0001:0005fe60       ?type_case_x@?$output_processor@_WV?$string_output_adapter@_W@__crt_stdio_output@@V?$positional_parameter_base@_WV?$string_output_adapter@_W@__crt_stdio_output@@@2@@__crt_stdio_output@@AAE_NXZ 10060e60 f i libucrtd:output.obj
 0001:0005fe80       ?type_case_x@?$output_processor@_WV?$string_output_adapter@_W@__crt_stdio_output@@V?$standard_base@_WV?$string_output_adapter@_W@__crt_stdio_output@@@2@@__crt_stdio_output@@AAE_NXZ 10060e80 f i libucrtd:output.obj
 0001:0005fea0       ?unset_flag@?$output_processor@DV?$stream_output_adapter@D@__crt_stdio_output@@V?$format_validation_base@DV?$stream_output_adapter@D@__crt_stdio_output@@@2@@__crt_stdio_output@@AAEXI@Z 10060ea0 f i libucrtd:output.obj
 0001:0005fec0       ?unset_flag@?$output_processor@DV?$stream_output_adapter@D@__crt_stdio_output@@V?$positional_parameter_base@DV?$stream_output_adapter@D@__crt_stdio_output@@@2@@__crt_stdio_output@@AAEXI@Z 10060ec0 f i libucrtd:output.obj
 0001:0005fee0       ?unset_flag@?$output_processor@DV?$stream_output_adapter@D@__crt_stdio_output@@V?$standard_base@DV?$stream_output_adapter@D@__crt_stdio_output@@@2@@__crt_stdio_output@@AAEXI@Z 10060ee0 f i libucrtd:output.obj
 0001:0005ff00       ?unset_flag@?$output_processor@DV?$string_output_adapter@D@__crt_stdio_output@@V?$format_validation_base@DV?$string_output_adapter@D@__crt_stdio_output@@@2@@__crt_stdio_output@@AAEXI@Z 10060f00 f i libucrtd:output.obj
 0001:0005ff20       ?unset_flag@?$output_processor@DV?$string_output_adapter@D@__crt_stdio_output@@V?$positional_parameter_base@DV?$string_output_adapter@D@__crt_stdio_output@@@2@@__crt_stdio_output@@AAEXI@Z 10060f20 f i libucrtd:output.obj
 0001:0005ff40       ?unset_flag@?$output_processor@DV?$string_output_adapter@D@__crt_stdio_output@@V?$standard_base@DV?$string_output_adapter@D@__crt_stdio_output@@@2@@__crt_stdio_output@@AAEXI@Z 10060f40 f i libucrtd:output.obj
 0001:0005ff60       ?unset_flag@?$output_processor@_WV?$stream_output_adapter@_W@__crt_stdio_output@@V?$format_validation_base@_WV?$stream_output_adapter@_W@__crt_stdio_output@@@2@@__crt_stdio_output@@AAEXI@Z 10060f60 f i libucrtd:output.obj
 0001:0005ff80       ?unset_flag@?$output_processor@_WV?$stream_output_adapter@_W@__crt_stdio_output@@V?$positional_parameter_base@_WV?$stream_output_adapter@_W@__crt_stdio_output@@@2@@__crt_stdio_output@@AAEXI@Z 10060f80 f i libucrtd:output.obj
 0001:0005ffa0       ?unset_flag@?$output_processor@_WV?$stream_output_adapter@_W@__crt_stdio_output@@V?$standard_base@_WV?$stream_output_adapter@_W@__crt_stdio_output@@@2@@__crt_stdio_output@@AAEXI@Z 10060fa0 f i libucrtd:output.obj
 0001:0005ffc0       ?unset_flag@?$output_processor@_WV?$string_output_adapter@_W@__crt_stdio_output@@V?$format_validation_base@_WV?$string_output_adapter@_W@__crt_stdio_output@@@2@@__crt_stdio_output@@AAEXI@Z 10060fc0 f i libucrtd:output.obj
 0001:0005ffe0       ?unset_flag@?$output_processor@_WV?$string_output_adapter@_W@__crt_stdio_output@@V?$positional_parameter_base@_WV?$string_output_adapter@_W@__crt_stdio_output@@@2@@__crt_stdio_output@@AAEXI@Z 10060fe0 f i libucrtd:output.obj
 0001:00060000       ?unset_flag@?$output_processor@_WV?$string_output_adapter@_W@__crt_stdio_output@@V?$standard_base@_WV?$string_output_adapter@_W@__crt_stdio_output@@@2@@__crt_stdio_output@@AAEXI@Z 10061000 f i libucrtd:output.obj
 0001:00060020       ?update_field_width@?$positional_parameter_base@DV?$stream_output_adapter@D@__crt_stdio_output@@@__crt_stdio_output@@IAE_NXZ 10061020 f i libucrtd:output.obj
 0001:000601a0       ?update_field_width@?$positional_parameter_base@DV?$string_output_adapter@D@__crt_stdio_output@@@__crt_stdio_output@@IAE_NXZ 100611a0 f i libucrtd:output.obj
 0001:00060320       ?update_field_width@?$positional_parameter_base@_WV?$stream_output_adapter@_W@__crt_stdio_output@@@__crt_stdio_output@@IAE_NXZ 10061320 f i libucrtd:output.obj
 0001:000604a0       ?update_field_width@?$positional_parameter_base@_WV?$string_output_adapter@_W@__crt_stdio_output@@@__crt_stdio_output@@IAE_NXZ 100614a0 f i libucrtd:output.obj
 0001:00060620       ?update_field_width@?$standard_base@DV?$stream_output_adapter@D@__crt_stdio_output@@@__crt_stdio_output@@IAE_NXZ 10061620 f i libucrtd:output.obj
 0001:00060650       ?update_field_width@?$standard_base@DV?$string_output_adapter@D@__crt_stdio_output@@@__crt_stdio_output@@IAE_NXZ 10061650 f i libucrtd:output.obj
 0001:00060680       ?update_field_width@?$standard_base@_WV?$stream_output_adapter@_W@__crt_stdio_output@@@__crt_stdio_output@@IAE_NXZ 10061680 f i libucrtd:output.obj
 0001:000606b0       ?update_field_width@?$standard_base@_WV?$string_output_adapter@_W@__crt_stdio_output@@@__crt_stdio_output@@IAE_NXZ 100616b0 f i libucrtd:output.obj
 0001:000606e0       ?update_precision@?$positional_parameter_base@DV?$stream_output_adapter@D@__crt_stdio_output@@@__crt_stdio_output@@IAE_NXZ 100616e0 f i libucrtd:output.obj
 0001:00060860       ?update_precision@?$positional_parameter_base@DV?$string_output_adapter@D@__crt_stdio_output@@@__crt_stdio_output@@IAE_NXZ 10061860 f i libucrtd:output.obj
 0001:000609e0       ?update_precision@?$positional_parameter_base@_WV?$stream_output_adapter@_W@__crt_stdio_output@@@__crt_stdio_output@@IAE_NXZ 100619e0 f i libucrtd:output.obj
 0001:00060b60       ?update_precision@?$positional_parameter_base@_WV?$string_output_adapter@_W@__crt_stdio_output@@@__crt_stdio_output@@IAE_NXZ 10061b60 f i libucrtd:output.obj
 0001:00060ce0       ?update_precision@?$standard_base@DV?$stream_output_adapter@D@__crt_stdio_output@@@__crt_stdio_output@@IAE_NXZ 10061ce0 f i libucrtd:output.obj
 0001:00060d10       ?update_precision@?$standard_base@DV?$string_output_adapter@D@__crt_stdio_output@@@__crt_stdio_output@@IAE_NXZ 10061d10 f i libucrtd:output.obj
 0001:00060d40       ?update_precision@?$standard_base@_WV?$stream_output_adapter@_W@__crt_stdio_output@@@__crt_stdio_output@@IAE_NXZ 10061d40 f i libucrtd:output.obj
 0001:00060d70       ?update_precision@?$standard_base@_WV?$string_output_adapter@_W@__crt_stdio_output@@@__crt_stdio_output@@IAE_NXZ 10061d70 f i libucrtd:output.obj
 0001:00060da0       ?valid@__crt_stdio_stream@@QBE_NXZ 10061da0 f i libucrtd:output.obj
 0001:00060dd0       ?validate@?$stream_output_adapter@D@__crt_stdio_output@@QBE_NXZ 10061dd0 f i libucrtd:output.obj
 0001:00060e80       ?validate@?$stream_output_adapter@_W@__crt_stdio_output@@QBE_NXZ 10061e80 f i libucrtd:output.obj
 0001:00060f30       ?validate@?$string_output_adapter@D@__crt_stdio_output@@QBE_NXZ 10061f30 f i libucrtd:output.obj
 0001:00060fc0       ?validate@?$string_output_adapter@_W@__crt_stdio_output@@QBE_NXZ 10061fc0 f i libucrtd:output.obj
 0001:00061050       ?validate_and_store_parameter_data@?$positional_parameter_base@DV?$stream_output_adapter@D@__crt_stdio_output@@@__crt_stdio_output@@AAE_NAAUparameter_data@12@W4parameter_type@12@DW4length_modifier@2@@Z 10062050 f i libucrtd:output.obj
 0001:00061120       ?validate_and_store_parameter_data@?$positional_parameter_base@DV?$string_output_adapter@D@__crt_stdio_output@@@__crt_stdio_output@@AAE_NAAUparameter_data@12@W4parameter_type@12@DW4length_modifier@2@@Z 10062120 f i libucrtd:output.obj
 0001:000611f0       ?validate_and_store_parameter_data@?$positional_parameter_base@_WV?$stream_output_adapter@_W@__crt_stdio_output@@@__crt_stdio_output@@AAE_NAAUparameter_data@12@W4parameter_type@12@_WW4length_modifier@2@@Z 100621f0 f i libucrtd:output.obj
 0001:000612d0       ?validate_and_store_parameter_data@?$positional_parameter_base@_WV?$string_output_adapter@_W@__crt_stdio_output@@@__crt_stdio_output@@AAE_NAAUparameter_data@12@W4parameter_type@12@_WW4length_modifier@2@@Z 100622d0 f i libucrtd:output.obj
 0001:000613b0       ?validate_and_update_state_at_beginning_of_format_character@?$positional_parameter_base@DV?$stream_output_adapter@D@__crt_stdio_output@@@__crt_stdio_output@@IAE_NXZ 100623b0 f i libucrtd:output.obj
 0001:000615d0       ?validate_and_update_state_at_beginning_of_format_character@?$positional_parameter_base@DV?$string_output_adapter@D@__crt_stdio_output@@@__crt_stdio_output@@IAE_NXZ 100625d0 f i libucrtd:output.obj
 0001:000617f0       ?validate_and_update_state_at_beginning_of_format_character@?$positional_parameter_base@_WV?$stream_output_adapter@_W@__crt_stdio_output@@@__crt_stdio_output@@IAE_NXZ 100627f0 f i libucrtd:output.obj
 0001:00061a10       ?validate_and_update_state_at_beginning_of_format_character@?$positional_parameter_base@_WV?$string_output_adapter@_W@__crt_stdio_output@@@__crt_stdio_output@@IAE_NXZ 10062a10 f i libucrtd:output.obj
 0001:00061c30       ?validate_and_update_state_at_beginning_of_format_character@?$standard_base@DV?$stream_output_adapter@D@__crt_stdio_output@@@__crt_stdio_output@@IAE_NXZ 10062c30 f i libucrtd:output.obj
 0001:00061c40       ?validate_and_update_state_at_beginning_of_format_character@?$standard_base@DV?$string_output_adapter@D@__crt_stdio_output@@@__crt_stdio_output@@IAE_NXZ 10062c40 f i libucrtd:output.obj
 0001:00061c50       ?validate_and_update_state_at_beginning_of_format_character@?$standard_base@_WV?$stream_output_adapter@_W@__crt_stdio_output@@@__crt_stdio_output@@IAE_NXZ 10062c50 f i libucrtd:output.obj
 0001:00061c60       ?validate_and_update_state_at_beginning_of_format_character@?$standard_base@_WV?$string_output_adapter@_W@__crt_stdio_output@@@__crt_stdio_output@@IAE_NXZ 10062c60 f i libucrtd:output.obj
 0001:00061c70       ?validate_and_update_state_at_end_of_format_string@?$format_validation_base@DV?$stream_output_adapter@D@__crt_stdio_output@@@__crt_stdio_output@@IBE_NXZ 10062c70 f i libucrtd:output.obj
 0001:00061d10       ?validate_and_update_state_at_end_of_format_string@?$format_validation_base@DV?$string_output_adapter@D@__crt_stdio_output@@@__crt_stdio_output@@IBE_NXZ 10062d10 f i libucrtd:output.obj
 0001:00061db0       ?validate_and_update_state_at_end_of_format_string@?$format_validation_base@_WV?$stream_output_adapter@_W@__crt_stdio_output@@@__crt_stdio_output@@IBE_NXZ 10062db0 f i libucrtd:output.obj
 0001:00061e50       ?validate_and_update_state_at_end_of_format_string@?$format_validation_base@_WV?$string_output_adapter@_W@__crt_stdio_output@@@__crt_stdio_output@@IBE_NXZ 10062e50 f i libucrtd:output.obj
 0001:00061ef0       ?validate_and_update_state_at_end_of_format_string@?$positional_parameter_base@DV?$stream_output_adapter@D@__crt_stdio_output@@@__crt_stdio_output@@IAE_NXZ 10062ef0 f i libucrtd:output.obj
 0001:00062090       ?validate_and_update_state_at_end_of_format_string@?$positional_parameter_base@DV?$string_output_adapter@D@__crt_stdio_output@@@__crt_stdio_output@@IAE_NXZ 10063090 f i libucrtd:output.obj
 0001:00062230       ?validate_and_update_state_at_end_of_format_string@?$positional_parameter_base@_WV?$stream_output_adapter@_W@__crt_stdio_output@@@__crt_stdio_output@@IAE_NXZ 10063230 f i libucrtd:output.obj
 0001:000623d0       ?validate_and_update_state_at_end_of_format_string@?$positional_parameter_base@_WV?$string_output_adapter@_W@__crt_stdio_output@@@__crt_stdio_output@@IAE_NXZ 100633d0 f i libucrtd:output.obj
 0001:00062570       ?validate_and_update_state_at_end_of_format_string@?$standard_base@DV?$stream_output_adapter@D@__crt_stdio_output@@@__crt_stdio_output@@IBE_NXZ 10063570 f i libucrtd:output.obj
 0001:00062580       ?validate_and_update_state_at_end_of_format_string@?$standard_base@DV?$string_output_adapter@D@__crt_stdio_output@@@__crt_stdio_output@@IBE_NXZ 10063580 f i libucrtd:output.obj
 0001:00062590       ?validate_and_update_state_at_end_of_format_string@?$standard_base@_WV?$stream_output_adapter@_W@__crt_stdio_output@@@__crt_stdio_output@@IBE_NXZ 10063590 f i libucrtd:output.obj
 0001:000625a0       ?validate_and_update_state_at_end_of_format_string@?$standard_base@_WV?$string_output_adapter@_W@__crt_stdio_output@@@__crt_stdio_output@@IBE_NXZ 100635a0 f i libucrtd:output.obj
 0001:000625b0       ?validate_state_for_type_case_a@?$positional_parameter_base@DV?$stream_output_adapter@D@__crt_stdio_output@@@__crt_stdio_output@@IAE_NXZ 100635b0 f i libucrtd:output.obj
 0001:000626a0       ?validate_state_for_type_case_a@?$positional_parameter_base@DV?$string_output_adapter@D@__crt_stdio_output@@@__crt_stdio_output@@IAE_NXZ 100636a0 f i libucrtd:output.obj
 0001:00062790       ?validate_state_for_type_case_a@?$positional_parameter_base@_WV?$stream_output_adapter@_W@__crt_stdio_output@@@__crt_stdio_output@@IAE_NXZ 10063790 f i libucrtd:output.obj
 0001:00062880       ?validate_state_for_type_case_a@?$positional_parameter_base@_WV?$string_output_adapter@_W@__crt_stdio_output@@@__crt_stdio_output@@IAE_NXZ 10063880 f i libucrtd:output.obj
 0001:00062970       ?validate_state_for_type_case_a@?$standard_base@DV?$stream_output_adapter@D@__crt_stdio_output@@@__crt_stdio_output@@IBE_NXZ 10063970 f i libucrtd:output.obj
 0001:00062980       ?validate_state_for_type_case_a@?$standard_base@DV?$string_output_adapter@D@__crt_stdio_output@@@__crt_stdio_output@@IBE_NXZ 10063980 f i libucrtd:output.obj
 0001:00062990       ?validate_state_for_type_case_a@?$standard_base@_WV?$stream_output_adapter@_W@__crt_stdio_output@@@__crt_stdio_output@@IBE_NXZ 10063990 f i libucrtd:output.obj
 0001:000629a0       ?validate_state_for_type_case_a@?$standard_base@_WV?$string_output_adapter@_W@__crt_stdio_output@@@__crt_stdio_output@@IBE_NXZ 100639a0 f i libucrtd:output.obj
 0001:000629b0       ?validate_stream_is_ansi_if_required@?$__acrt_stdio_char_traits@D@@SA_NQAU_iobuf@@@Z 100639b0 f i libucrtd:output.obj
 0001:00062ae0       ?validate_stream_is_ansi_if_required@?$__acrt_stdio_char_traits@_W@@SA_NQAU_iobuf@@@Z 10063ae0 f i libucrtd:output.obj
 0001:00062af0       ?wide_null_string@?$output_processor@DV?$stream_output_adapter@D@__crt_stdio_output@@V?$format_validation_base@DV?$stream_output_adapter@D@__crt_stdio_output@@@2@@__crt_stdio_output@@CAPA_WXZ 10063af0 f i libucrtd:output.obj
 0001:00062b00       ?wide_null_string@?$output_processor@DV?$stream_output_adapter@D@__crt_stdio_output@@V?$positional_parameter_base@DV?$stream_output_adapter@D@__crt_stdio_output@@@2@@__crt_stdio_output@@CAPA_WXZ 10063b00 f i libucrtd:output.obj
 0001:00062b10       ?wide_null_string@?$output_processor@DV?$stream_output_adapter@D@__crt_stdio_output@@V?$standard_base@DV?$stream_output_adapter@D@__crt_stdio_output@@@2@@__crt_stdio_output@@CAPA_WXZ 10063b10 f i libucrtd:output.obj
 0001:00062b20       ?wide_null_string@?$output_processor@DV?$string_output_adapter@D@__crt_stdio_output@@V?$format_validation_base@DV?$string_output_adapter@D@__crt_stdio_output@@@2@@__crt_stdio_output@@CAPA_WXZ 10063b20 f i libucrtd:output.obj
 0001:00062b30       ?wide_null_string@?$output_processor@DV?$string_output_adapter@D@__crt_stdio_output@@V?$positional_parameter_base@DV?$string_output_adapter@D@__crt_stdio_output@@@2@@__crt_stdio_output@@CAPA_WXZ 10063b30 f i libucrtd:output.obj
 0001:00062b40       ?wide_null_string@?$output_processor@DV?$string_output_adapter@D@__crt_stdio_output@@V?$standard_base@DV?$string_output_adapter@D@__crt_stdio_output@@@2@@__crt_stdio_output@@CAPA_WXZ 10063b40 f i libucrtd:output.obj
 0001:00062b50       ?wide_null_string@?$output_processor@_WV?$stream_output_adapter@_W@__crt_stdio_output@@V?$format_validation_base@_WV?$stream_output_adapter@_W@__crt_stdio_output@@@2@@__crt_stdio_output@@CAPA_WXZ 10063b50 f i libucrtd:output.obj
 0001:00062b60       ?wide_null_string@?$output_processor@_WV?$stream_output_adapter@_W@__crt_stdio_output@@V?$positional_parameter_base@_WV?$stream_output_adapter@_W@__crt_stdio_output@@@2@@__crt_stdio_output@@CAPA_WXZ 10063b60 f i libucrtd:output.obj
 0001:00062b70       ?wide_null_string@?$output_processor@_WV?$stream_output_adapter@_W@__crt_stdio_output@@V?$standard_base@_WV?$stream_output_adapter@_W@__crt_stdio_output@@@2@@__crt_stdio_output@@CAPA_WXZ 10063b70 f i libucrtd:output.obj
 0001:00062b80       ?wide_null_string@?$output_processor@_WV?$string_output_adapter@_W@__crt_stdio_output@@V?$format_validation_base@_WV?$string_output_adapter@_W@__crt_stdio_output@@@2@@__crt_stdio_output@@CAPA_WXZ 10063b80 f i libucrtd:output.obj
 0001:00062b90       ?wide_null_string@?$output_processor@_WV?$string_output_adapter@_W@__crt_stdio_output@@V?$positional_parameter_base@_WV?$string_output_adapter@_W@__crt_stdio_output@@@2@@__crt_stdio_output@@CAPA_WXZ 10063b90 f i libucrtd:output.obj
 0001:00062ba0       ?wide_null_string@?$output_processor@_WV?$string_output_adapter@_W@__crt_stdio_output@@V?$standard_base@_WV?$string_output_adapter@_W@__crt_stdio_output@@@2@@__crt_stdio_output@@CAPA_WXZ 10063ba0 f i libucrtd:output.obj
 0001:00062bb0       ?write_character@?$output_adapter_common@DV?$stream_output_adapter@D@__crt_stdio_output@@@__crt_stdio_output@@QBEXDQAH@Z 10063bb0 f i libucrtd:output.obj
 0001:00062bf0       ?write_character@?$output_adapter_common@_WV?$stream_output_adapter@_W@__crt_stdio_output@@@__crt_stdio_output@@QBEX_WQAH@Z 10063bf0 f i libucrtd:output.obj
 0001:00062c30       ?write_character@?$string_output_adapter@D@__crt_stdio_output@@QBE_NDQAH@Z 10063c30 f i libucrtd:output.obj
 0001:00062cc0       ?write_character@?$string_output_adapter@_W@__crt_stdio_output@@QBE_N_WQAH@Z 10063cc0 f i libucrtd:output.obj
 0001:00062d60       ?write_character_without_count_update@?$stream_output_adapter@D@__crt_stdio_output@@QBE_ND@Z 10063d60 f i libucrtd:output.obj
 0001:00062dd0       ?write_character_without_count_update@?$stream_output_adapter@_W@__crt_stdio_output@@QBE_N_W@Z 10063dd0 f i libucrtd:output.obj
 0001:00062e40       ?write_stored_string_tchar@?$output_processor@DV?$stream_output_adapter@D@__crt_stdio_output@@V?$format_validation_base@DV?$stream_output_adapter@D@__crt_stdio_output@@@2@@__crt_stdio_output@@AAE_ND@Z 10063e40 f i libucrtd:output.obj
 0001:00062f50       ?write_stored_string_tchar@?$output_processor@DV?$stream_output_adapter@D@__crt_stdio_output@@V?$positional_parameter_base@DV?$stream_output_adapter@D@__crt_stdio_output@@@2@@__crt_stdio_output@@AAE_ND@Z 10063f50 f i libucrtd:output.obj
 0001:00063060       ?write_stored_string_tchar@?$output_processor@DV?$stream_output_adapter@D@__crt_stdio_output@@V?$standard_base@DV?$stream_output_adapter@D@__crt_stdio_output@@@2@@__crt_stdio_output@@AAE_ND@Z 10064060 f i libucrtd:output.obj
 0001:00063170       ?write_stored_string_tchar@?$output_processor@DV?$string_output_adapter@D@__crt_stdio_output@@V?$format_validation_base@DV?$string_output_adapter@D@__crt_stdio_output@@@2@@__crt_stdio_output@@AAE_ND@Z 10064170 f i libucrtd:output.obj
 0001:00063280       ?write_stored_string_tchar@?$output_processor@DV?$string_output_adapter@D@__crt_stdio_output@@V?$positional_parameter_base@DV?$string_output_adapter@D@__crt_stdio_output@@@2@@__crt_stdio_output@@AAE_ND@Z 10064280 f i libucrtd:output.obj
 0001:00063390       ?write_stored_string_tchar@?$output_processor@DV?$string_output_adapter@D@__crt_stdio_output@@V?$standard_base@DV?$string_output_adapter@D@__crt_stdio_output@@@2@@__crt_stdio_output@@AAE_ND@Z 10064390 f i libucrtd:output.obj
 0001:000634a0       ?write_stored_string_tchar@?$output_processor@_WV?$stream_output_adapter@_W@__crt_stdio_output@@V?$format_validation_base@_WV?$stream_output_adapter@_W@__crt_stdio_output@@@2@@__crt_stdio_output@@AAE_N_W@Z 100644a0 f i libucrtd:output.obj
 0001:00063590       ?write_stored_string_tchar@?$output_processor@_WV?$stream_output_adapter@_W@__crt_stdio_output@@V?$positional_parameter_base@_WV?$stream_output_adapter@_W@__crt_stdio_output@@@2@@__crt_stdio_output@@AAE_N_W@Z 10064590 f i libucrtd:output.obj
 0001:00063680       ?write_stored_string_tchar@?$output_processor@_WV?$stream_output_adapter@_W@__crt_stdio_output@@V?$standard_base@_WV?$stream_output_adapter@_W@__crt_stdio_output@@@2@@__crt_stdio_output@@AAE_N_W@Z 10064680 f i libucrtd:output.obj
 0001:00063770       ?write_stored_string_tchar@?$output_processor@_WV?$string_output_adapter@_W@__crt_stdio_output@@V?$format_validation_base@_WV?$string_output_adapter@_W@__crt_stdio_output@@@2@@__crt_stdio_output@@AAE_N_W@Z 10064770 f i libucrtd:output.obj
 0001:00063860       ?write_stored_string_tchar@?$output_processor@_WV?$string_output_adapter@_W@__crt_stdio_output@@V?$positional_parameter_base@_WV?$string_output_adapter@_W@__crt_stdio_output@@@2@@__crt_stdio_output@@AAE_N_W@Z 10064860 f i libucrtd:output.obj
 0001:00063950       ?write_stored_string_tchar@?$output_processor@_WV?$string_output_adapter@_W@__crt_stdio_output@@V?$standard_base@_WV?$string_output_adapter@_W@__crt_stdio_output@@@2@@__crt_stdio_output@@AAE_N_W@Z 10064950 f i libucrtd:output.obj
 0001:00063a40       ?write_string@?$stream_output_adapter@D@__crt_stdio_output@@QBEXQBDHQAHAAV__crt_deferred_errno_cache@@@Z 10064a40 f i libucrtd:output.obj
 0001:00063aa0       ?write_string@?$stream_output_adapter@_W@__crt_stdio_output@@QBEXQB_WHQAHAAV__crt_deferred_errno_cache@@@Z 10064aa0 f i libucrtd:output.obj
 0001:00063b00       ?write_string@?$string_output_adapter@D@__crt_stdio_output@@QBEXQBDHQAHAAV__crt_deferred_errno_cache@@@Z 10064b00 f i libucrtd:output.obj
 0001:00063c00       ?write_string@?$string_output_adapter@_W@__crt_stdio_output@@QBEXQB_WHQAHAAV__crt_deferred_errno_cache@@@Z 10064c00 f i libucrtd:output.obj
 0001:00063d10       ?write_string_impl@?$output_adapter_common@DV?$stream_output_adapter@D@__crt_stdio_output@@@__crt_stdio_output@@IBEXQBDHQAHAAV__crt_deferred_errno_cache@@@Z 10064d10 f i libucrtd:output.obj
 0001:00063db0       ?write_string_impl@?$output_adapter_common@_WV?$stream_output_adapter@_W@__crt_stdio_output@@@__crt_stdio_output@@IBEXQB_WHQAHAAV__crt_deferred_errno_cache@@@Z 10064db0 f i libucrtd:output.obj
 0001:00063e50       ___acrt_isleadbyte_l_noupdate 10064e50 f i libucrtd:output.obj
 0001:00063e70       ___acrt_locale_changed     10064e70 f i libucrtd:output.obj
 0001:00063ea0       ___acrt_locale_get_ctype_array_value 10064ea0 f i libucrtd:output.obj
 0001:00063ed0       ___stdio_common_vfprintf   10064ed0 f   libucrtd:output.obj
 0001:00063f00       ___stdio_common_vfprintf_p 10064f00 f   libucrtd:output.obj
 0001:00063f30       ___stdio_common_vfprintf_s 10064f30 f   libucrtd:output.obj
 0001:00063f60       ___stdio_common_vfwprintf  10064f60 f   libucrtd:output.obj
 0001:00063f90       ___stdio_common_vfwprintf_p 10064f90 f   libucrtd:output.obj
 0001:00063fc0       ___stdio_common_vfwprintf_s 10064fc0 f   libucrtd:output.obj
 0001:00063ff0       ___stdio_common_vsnprintf_s 10064ff0 f   libucrtd:output.obj
 0001:00064020       ___stdio_common_vsnwprintf_s 10065020 f   libucrtd:output.obj
 0001:00064050       ___stdio_common_vsprintf   10065050 f   libucrtd:output.obj
 0001:00064080       ___stdio_common_vsprintf_p 10065080 f   libucrtd:output.obj
 0001:000640b0       ___stdio_common_vsprintf_s 100650b0 f   libucrtd:output.obj
 0001:000640e0       ___stdio_common_vswprintf  100650e0 f   libucrtd:output.obj
 0001:00064110       ___stdio_common_vswprintf_p 10065110 f   libucrtd:output.obj
 0001:00064140       ___stdio_common_vswprintf_s 10065140 f   libucrtd:output.obj
 0001:00064170       __ctype_fast_check_internal 10065170 f i libucrtd:output.obj
 0001:00064190       __isdigit_fast_internal    10065190 f i libucrtd:output.obj
 0001:000641b0       __tolower_fast_internal    100651b0 f i libucrtd:output.obj
 0001:000641d0       _free                      100651d0 f   libucrtd:free.obj
 0001:00064200       _malloc                    10065200 f   libucrtd:malloc.obj
 0001:00064220       ??$?RU?$__crt_report_hook_node@D@@@__crt_internal_free_policy@@QBEXQBU?$__crt_report_hook_node@D@@@Z 10065220 f i libucrtd:dbgrpt.obj
 0001:00064240       ??$?RU?$__crt_report_hook_node@_W@@@__crt_internal_free_policy@@QBEXQBU?$__crt_report_hook_node@_W@@@Z 10065240 f i libucrtd:dbgrpt.obj
 0001:00065030       ??$get_module_file_name@AAPAUHINSTANCE__@@AAY0BAF@DK@?$__crt_char_traits@D@@SAKAAPAUHINSTANCE__@@AAY0BAF@D$$QAK@Z 10066030 f i libucrtd:dbgrpt.obj
 0001:00065050       ??$get_module_file_name@AAPAUHINSTANCE__@@AAY0BAF@_WK@?$__crt_char_traits@_W@@SAKAAPAUHINSTANCE__@@AAY0BAF@_W$$QAK@Z 10066050 f i libucrtd:dbgrpt.obj
 0001:00065070       ??$tcscpy_s@AAY0BAF@DIPBD@?$__crt_char_traits@D@@SAHAAY0BAF@D$$QAI$$QAPBD@Z 10066070 f i libucrtd:dbgrpt.obj
 0001:00065090       ??$tcscpy_s@AAY0BAF@_WIPB_W@?$__crt_char_traits@_W@@SAHAAY0BAF@_W$$QAI$$QAPB_W@Z 10066090 f i libucrtd:dbgrpt.obj
 0001:000650b0       ??$tcslen@AAY0BAF@D@?$__crt_char_traits@D@@SAIAAY0BAF@D@Z 100660b0 f i libucrtd:dbgrpt.obj
 0001:000650d0       ??$tcslen@AAY0BAF@_W@?$__crt_char_traits@_W@@SAIAAY0BAF@_W@Z 100660d0 f i libucrtd:dbgrpt.obj
 0001:000650f0       ??$tcslen@ABQBD@?$__crt_char_traits@D@@SAIABQBD@Z 100660f0 f i libucrtd:dbgrpt.obj
 0001:00065110       ??$tcslen@ABQB_W@?$__crt_char_traits@_W@@SAIABQB_W@Z 10066110 f i libucrtd:dbgrpt.obj
 0001:00065210       ??0?$__crt_unique_heap_ptr@U?$__crt_report_hook_node@D@@U__crt_internal_free_policy@@@@QAE@QAU?$__crt_report_hook_node@D@@@Z 10066210 f i libucrtd:dbgrpt.obj
 0001:00065230       ??0?$__crt_unique_heap_ptr@U?$__crt_report_hook_node@_W@@U__crt_internal_free_policy@@@@QAE@QAU?$__crt_report_hook_node@_W@@@Z 10066230 f i libucrtd:dbgrpt.obj
 0001:00065250       ??1?$__crt_unique_heap_ptr@U?$__crt_report_hook_node@D@@U__crt_internal_free_policy@@@@QAE@XZ 10066250 f i libucrtd:dbgrpt.obj
 0001:00065270       ??1?$__crt_unique_heap_ptr@U?$__crt_report_hook_node@_W@@U__crt_internal_free_policy@@@@QAE@XZ 10066270 f i libucrtd:dbgrpt.obj
 0001:00065290       ??B?$__crt_unique_heap_ptr@U?$__crt_report_hook_node@D@@U__crt_internal_free_policy@@@@QBE_NXZ 10066290 f i libucrtd:dbgrpt.obj
 0001:000652b0       ??B?$__crt_unique_heap_ptr@U?$__crt_report_hook_node@_W@@U__crt_internal_free_policy@@@@QBE_NXZ 100662b0 f i libucrtd:dbgrpt.obj
 0001:000657f0       ?detach@?$__crt_unique_heap_ptr@U?$__crt_report_hook_node@D@@U__crt_internal_free_policy@@@@QAEPAU?$__crt_report_hook_node@D@@XZ 100667f0 f i libucrtd:dbgrpt.obj
 0001:00065820       ?detach@?$__crt_unique_heap_ptr@U?$__crt_report_hook_node@_W@@U__crt_internal_free_policy@@@@QAEPAU?$__crt_report_hook_node@_W@@XZ 10066820 f i libucrtd:dbgrpt.obj
 0001:00065850       ?get@?$__crt_unique_heap_ptr@U?$__crt_report_hook_node@D@@U__crt_internal_free_policy@@@@QBEPAU?$__crt_report_hook_node@D@@XZ 10066850 f i libucrtd:dbgrpt.obj
 0001:00065870       ?get@?$__crt_unique_heap_ptr@U?$__crt_report_hook_node@_W@@U__crt_internal_free_policy@@@@QBEPAU?$__crt_report_hook_node@_W@@XZ 10066870 f i libucrtd:dbgrpt.obj
 0001:000658f0       ?is_valid@?$__crt_unique_heap_ptr@U?$__crt_report_hook_node@D@@U__crt_internal_free_policy@@@@QBE_NXZ 100668f0 f i libucrtd:dbgrpt.obj
 0001:00065920       ?is_valid@?$__crt_unique_heap_ptr@U?$__crt_report_hook_node@_W@@U__crt_internal_free_policy@@@@QBE_NXZ 10066920 f i libucrtd:dbgrpt.obj
 0001:00065950       ?release@?$__crt_unique_heap_ptr@U?$__crt_report_hook_node@D@@U__crt_internal_free_policy@@@@QAEXXZ 10066950 f i libucrtd:dbgrpt.obj
 0001:00065980       ?release@?$__crt_unique_heap_ptr@U?$__crt_report_hook_node@_W@@U__crt_internal_free_policy@@@@QAEXXZ 10066980 f i libucrtd:dbgrpt.obj
 0001:000659b0       __CrtDbgReport             100669b0 f   libucrtd:dbgrpt.obj
 0001:00065a00       __CrtDbgReportW            10066a00 f   libucrtd:dbgrpt.obj
 0001:00065a50       __CrtSetReportHook2        10066a50 f   libucrtd:dbgrpt.obj
 0001:00065a70       __CrtSetReportHookW2       10066a70 f   libucrtd:dbgrpt.obj
 0001:00065a90       ___acrt_MessageWindowA     10066a90 f   libucrtd:dbgrpt.obj
 0001:00065ac0       ___acrt_MessageWindowW     10066ac0 f   libucrtd:dbgrpt.obj
 0001:00065af0       __invoke_watson_if_error   10066af0 f i libucrtd:dbgrpt.obj
 0001:00065b20       __invoke_watson_if_oneof   10066b20 f i libucrtd:dbgrpt.obj
 0001:00065b60       __snwprintf_s              10066b60 f i libucrtd:dbgrpt.obj
 0001:00065ba0       __vsnwprintf_s_l           10066ba0 f i libucrtd:dbgrpt.obj
 0001:00065f20       _wcscpy_s                  10066f20 f   libucrtd:wcscpy_s.obj
 0001:00066c40       ??1?$__crt_simd_cleanup_guard@$00@@QAE@XZ 10067c40 f i libucrtd:strnlen.obj
 0001:00066c50       ??1?$__crt_simd_cleanup_guard@$0A@@@QAE@XZ 10067c50 f i libucrtd:strnlen.obj
 0001:00066c60       ?compare_equals@?$__crt_simd_traits@$00E@@SA?AT__m256i@@T2@0@Z 10067c60 f i libucrtd:strnlen.obj
 0001:00066ca0       ?compare_equals@?$__crt_simd_traits@$00G@@SA?AT__m256i@@T2@0@Z 10067ca0 f i libucrtd:strnlen.obj
 0001:00066ce0       ?compare_equals@?$__crt_simd_traits@$0A@E@@SA?AT__m128i@@T2@0@Z 10067ce0 f i libucrtd:strnlen.obj
 0001:00066d20       ?compare_equals@?$__crt_simd_traits@$0A@G@@SA?AT__m128i@@T2@0@Z 10067d20 f i libucrtd:strnlen.obj
 0001:00066d60       ?compute_byte_mask@?$__crt_simd_pack_traits@$00@@SAHT__m256i@@@Z 10067d60 f i libucrtd:strnlen.obj
 0001:00066d90       ?compute_byte_mask@?$__crt_simd_pack_traits@$0A@@@SAHT__m128i@@@Z 10067d90 f i libucrtd:strnlen.obj
 0001:00066dc0       ?get_zero_pack@?$__crt_simd_pack_traits@$00@@SA?AT__m256i@@XZ 10067dc0 f i libucrtd:strnlen.obj
 0001:00066df0       ?get_zero_pack@?$__crt_simd_pack_traits@$0A@@@SA?AT__m128i@@XZ 10067df0 f i libucrtd:strnlen.obj
 0001:00066e20       _strnlen                   10067e20 f   libucrtd:strnlen.obj
 0001:00066e40       _wcslen                    10067e40 f   libucrtd:strnlen.obj
 0001:00066e60       _wcsnlen                   10067e60 f   libucrtd:strnlen.obj
 0001:00066e80       ??$__crt_fast_decode_pointer@P6AXPB_W00II@Z@@YAP6AXPB_W00II@ZQ6AX000II@Z@Z 10067e80 f i libucrtd:invalid_parameter.obj
 0001:00066eb0       ??$__crt_fast_encode_pointer@P6AXPB_W00II@Z@@YAP6AXPB_W00II@ZQ6AX000II@Z@Z 10067eb0 f i libucrtd:invalid_parameter.obj
 0001:00066ee0       ??$initialize_from_array@$$BY00Q6AXPB_W00II@Z@?$dual_state_global@P6AXPB_W00II@Z@__crt_state_management@@QAAXAAY00Q6AXPB_W00II@Z@Z 10067ee0 f i libucrtd:invalid_parameter.obj
 0001:00066f30       ?__crt_rotate_pointer_value@@YAIIH@Z 10067f30 f i libucrtd:invalid_parameter.obj
 0001:00066f40       ?dangerous_get_state_array@?$dual_state_global@P6AXPB_W00II@Z@__crt_state_management@@QAEPAP6AXPB_W00II@ZXZ 10067f40 f i libucrtd:invalid_parameter.obj
 0001:00066f50       ?get_current_state_index@__crt_state_management@@YAIXZ 10067f50 f i libucrtd:invalid_parameter.obj
 0001:00066f60       ?value@?$dual_state_global@P6AXPB_W00II@Z@__crt_state_management@@QAEAAP6AXPB_W00II@ZXZ 10067f60 f i libucrtd:invalid_parameter.obj
 0001:00066f80       ___acrt_call_reportfault   10067f80 f   libucrtd:invalid_parameter.obj
 0001:000670e0       ___acrt_initialize_invalid_parameter_handler 100680e0 f   libucrtd:invalid_parameter.obj
 0001:00067110       __get_invalid_parameter_handler 10068110 f   libucrtd:invalid_parameter.obj
 0001:00067130       __get_thread_local_invalid_parameter_handler 10068130 f   libucrtd:invalid_parameter.obj
 0001:00067160       __invalid_parameter        10068160 f   libucrtd:invalid_parameter.obj
 0001:00067220       __invalid_parameter_noinfo 10068220 f   libucrtd:invalid_parameter.obj
 0001:00067240       __invalid_parameter_noinfo_noreturn 10068240 f   libucrtd:invalid_parameter.obj
 0001:00067270       __invoke_watson            10068270 f   libucrtd:invalid_parameter.obj
 0001:000672b0       __set_invalid_parameter_handler 100682b0 f   libucrtd:invalid_parameter.obj
 0001:00067300       __set_thread_local_invalid_parameter_handler 10068300 f   libucrtd:invalid_parameter.obj
 0001:00067330       ___acrt_errno_from_os_error 10068330 f   libucrtd:errno.obj
 0001:000673b0       ___acrt_errno_map_os_error 100683b0 f   libucrtd:errno.obj
 0001:000673e0       ___doserrno                100683e0 f   libucrtd:errno.obj
 0001:00067410       __errno                    10068410 f   libucrtd:errno.obj
 0001:00067440       __get_doserrno             10068440 f   libucrtd:errno.obj
 0001:000674d0       __get_errno                100684d0 f   libucrtd:errno.obj
 0001:00067560       __set_doserrno             10068560 f   libucrtd:errno.obj
 0001:00067590       __set_errno                10068590 f   libucrtd:errno.obj
 0001:000675c0       _calloc                    100685c0 f   libucrtd:calloc.obj
 0001:000675e0       __recalloc                 100685e0 f   libucrtd:recalloc.obj
 0001:00067610       __recalloc_base            10068610 f   libucrtd:recalloc.obj
 0001:000676aa       __resetstkoflw             100686aa f   libucrtd:resetstk.obj
 0001:00067b90       _wcscat_s                  10068b90 f   libucrtd:wcscat_s.obj
 0001:00067fe0       _wcsncpy_s                 10068fe0 f   libucrtd:wcsncpy_s.obj
 0001:00068020       ___acrt_get_locale_data_prefix 10069020 f i libucrtd:_ctype.obj
 0001:00068040       ___isascii                 10069040 f i libucrtd:_ctype.obj
 0001:00068070       ___iscsym                  10069070 f i libucrtd:_ctype.obj
 0001:000680b0       ___iscsymf                 100690b0 f i libucrtd:_ctype.obj
 0001:000680f0       ___toascii                 100690f0 f i libucrtd:_ctype.obj
 0001:00068100       __chvalidchk_l             10069100 f i libucrtd:_ctype.obj
 0001:00068120       __isalnum_l                10069120 f i libucrtd:_ctype.obj
 0001:00068160       __isalpha_l                10069160 f i libucrtd:_ctype.obj
 0001:000681a0       __isblank_l                100691a0 f i libucrtd:_ctype.obj
 0001:00068200       __ischartype_l             10069200 f i libucrtd:_ctype.obj
 0001:00068280       __iscntrl_l                10069280 f i libucrtd:_ctype.obj
 0001:000682c0       __iscsym_l                 100692c0 f i libucrtd:_ctype.obj
 0001:00068300       __iscsymf_l                10069300 f i libucrtd:_ctype.obj
 0001:00068340       __isdigit_l                10069340 f i libucrtd:_ctype.obj
 0001:00068380       __isgraph_l                10069380 f i libucrtd:_ctype.obj
 0001:000683c0       __islower_l                100693c0 f i libucrtd:_ctype.obj
 0001:00068400       __isprint_l                10069400 f i libucrtd:_ctype.obj
 0001:00068440       __ispunct_l                10069440 f i libucrtd:_ctype.obj
 0001:00068480       __isspace_l                10069480 f i libucrtd:_ctype.obj
 0001:000684c0       __isupper_l                100694c0 f i libucrtd:_ctype.obj
 0001:00068500       __isxdigit_l               10069500 f i libucrtd:_ctype.obj
 0001:00068540       _isalnum                   10069540 f i libucrtd:_ctype.obj
 0001:00068580       _isalpha                   10069580 f i libucrtd:_ctype.obj
 0001:000685c0       _isblank                   100695c0 f i libucrtd:_ctype.obj
 0001:00068620       _iscntrl                   10069620 f i libucrtd:_ctype.obj
 0001:00068660       _isdigit                   10069660 f i libucrtd:_ctype.obj
 0001:000686a0       _isgraph                   100696a0 f i libucrtd:_ctype.obj
 0001:000686e0       _islower                   100696e0 f i libucrtd:_ctype.obj
 0001:00068720       _isprint                   10069720 f i libucrtd:_ctype.obj
 0001:00068760       _ispunct                   10069760 f i libucrtd:_ctype.obj
 0001:000687a0       _isspace                   100697a0 f i libucrtd:_ctype.obj
 0001:000687e0       _isupper                   100697e0 f i libucrtd:_ctype.obj
 0001:00068820       _isxdigit                  10069820 f i libucrtd:_ctype.obj
 0001:00068860       _wcscat                    10069860 f   libucrtd:wcscat.obj
 0001:000688c0       _wcscpy                    100698c0 f   libucrtd:wcscpy.obj
 0001:00068f50       ??$open_file@ABQBDABQBDABHPAU_iobuf@@@?$__crt_char_traits@D@@SAPAU_iobuf@@ABQBD0ABH$$QAPAU1@@Z 10069f50 f i libucrtd:fopen.obj
 0001:00068f80       ??$open_file@ABQB_WABQB_WABHPAU_iobuf@@@?$__crt_char_traits@_W@@SAPAU_iobuf@@ABQB_W0ABH$$QAPAU1@@Z 10069f80 f i libucrtd:fopen.obj
 0001:00068fb0       ?unlock@__crt_stdio_stream@@QBEXXZ 10069fb0 f i libucrtd:fopen.obj
 0001:00068fd0       __fsopen                   10069fd0 f   libucrtd:fopen.obj
 0001:00068ff0       __wfopen                   10069ff0 f   libucrtd:fopen.obj
 0001:00069010       __wfopen_s                 1006a010 f   libucrtd:fopen.obj
 0001:00069030       __wfsopen                  1006a030 f   libucrtd:fopen.obj
 0001:00069050       _fopen                     1006a050 f   libucrtd:fopen.obj
 0001:00069070       _fopen_s                   1006a070 f   libucrtd:fopen.obj
 0001:00069090       ?is_in_use@__crt_stdio_stream@@QBE_NXZ 1006a090 f i libucrtd:fclose.obj
 0001:000690d0       __fclose_nolock            1006a0d0 f   libucrtd:fclose.obj
 0001:00069210       _fclose                    1006a210 f   libucrtd:fclose.obj
 0001:00069360       __fputc_nolock             1006a360 f   libucrtd:fputc.obj
 0001:000693f0       __fputchar                 1006a3f0 f   libucrtd:fputc.obj
 0001:00069410       __putc_nolock              1006a410 f   libucrtd:fputc.obj
 0001:00069430       _fputc                     1006a430 f   libucrtd:fputc.obj
 0001:00069670       _putc                      1006a670 f   libucrtd:fputc.obj
 0001:00069690       _putchar                   1006a690 f   libucrtd:fputc.obj
 0001:00069700       __seh_filter_dll           1006a700 f   libucrtd:exception_filter.obj
 0001:00069730       __seh_filter_exe           1006a730 f   libucrtd:exception_filter.obj
 0001:00069940       ??$?B$$A6GXPAXK0@Z@__crt_fast_encoded_nullptr_t@@QBEP6GXPAXK0@ZXZ 1006a940 f i libucrtd:exit.obj
 0001:00069a20       ??$__crt_fast_decode_pointer@P6GXPAXK0@Z@@YAP6GXPAXK0@ZQ6GX0K0@Z@Z 1006aa20 f i libucrtd:exit.obj
 0001:00069a50       ??$__crt_fast_encode_pointer@P6GXPAXK0@Z@@YAP6GXPAXK0@ZQ6GX0K0@Z@Z 1006aa50 f i libucrtd:exit.obj
 0001:00069a80       ??$__crt_get_proc_address@P6GXI@Z@@YAP6GXI@ZQAUHINSTANCE__@@QBD@Z 1006aa80 f i libucrtd:exit.obj
 0001:00069b10       ??0?$__crt_unique_handle_t@U__crt_hmodule_traits@@@@QAE@QAUHINSTANCE__@@@Z 1006ab10 f i libucrtd:exit.obj
 0001:00069b30       ??1?$__crt_unique_handle_t@U__crt_hmodule_traits@@@@QAE@XZ 1006ab30 f i libucrtd:exit.obj
 0001:00069cf0       ?__acrt_select_exit_lock@@YA?AW4__acrt_lock_id@@XZ 1006acf0 f i libucrtd:exit.obj
 0001:00069d00       ?__crt_fast_encode_pointer@@YA?AU__crt_fast_encoded_nullptr_t@@$$T@Z 1006ad00 f i libucrtd:exit.obj
 0001:00069d30       ?close@?$__crt_unique_handle_t@U__crt_hmodule_traits@@@@QAEXXZ 1006ad30 f i libucrtd:exit.obj
 0001:00069d70       ?close@__crt_hmodule_traits@@SA_NPAUHINSTANCE__@@@Z 1006ad70 f i libucrtd:exit.obj
 0001:00069e60       ?get@?$__crt_unique_handle_t@U__crt_hmodule_traits@@@@QBEPAUHINSTANCE__@@XZ 1006ae60 f i libucrtd:exit.obj
 0001:00069e80       ?get_address_of@?$__crt_unique_handle_t@U__crt_hmodule_traits@@@@QAEPAPAUHINSTANCE__@@XZ 1006ae80 f i libucrtd:exit.obj
 0001:00069e90       ?get_invalid_value@__crt_hmodule_traits@@SAPAUHINSTANCE__@@XZ 1006ae90 f i libucrtd:exit.obj
 0001:0006a010       __Exit                     1006b010 f   libucrtd:exit.obj
 0001:0006a030       ___acrt_initialize_thread_local_exit_callback 1006b030 f   libucrtd:exit.obj
 0001:0006a040       __c_exit                   1006b040 f   libucrtd:exit.obj
 0001:0006a060       __cexit                    1006b060 f   libucrtd:exit.obj
 0001:0006a080       __exit                     1006b080 f   libucrtd:exit.obj
 0001:0006a0a0       __is_c_termination_complete 1006b0a0 f   libucrtd:exit.obj
 0001:0006a0c0       __register_thread_local_exe_atexit_callback 1006b0c0 f   libucrtd:exit.obj
 0001:0006a100       _exit                      1006b100 f   libucrtd:exit.obj
 0001:0006a120       _quick_exit                1006b120 f   libucrtd:exit.obj
 0001:0006a140       ??$?RE@__crt_internal_free_policy@@QBEXQBE@Z 1006b140 f i libucrtd:argv_parsing.obj
 0001:0006a160       ??$?RPAD@__crt_internal_free_policy@@QBEXQBQAD@Z 1006b160 f i libucrtd:argv_parsing.obj
 0001:0006a180       ??$?RPA_W@__crt_internal_free_policy@@QBEXQBQA_W@Z 1006b180 f i libucrtd:argv_parsing.obj
 0001:0006a6e0       ??$get_module_file_name@$$TAAY0BAF@DH@?$__crt_char_traits@D@@SAK$$QA$$TAAY0BAF@D$$QAH@Z 1006b6e0 f i libucrtd:argv_parsing.obj
 0001:0006a700       ??$get_module_file_name@$$TAAY0BAF@_WH@?$__crt_char_traits@_W@@SAK$$QA$$TAAY0BAF@_W$$QAH@Z 1006b700 f i libucrtd:argv_parsing.obj
 0001:0006ae20       ??$set_program_name@PAD@?$__crt_char_traits@D@@SAX$$QAPAD@Z 1006be20 f i libucrtd:argv_parsing.obj
 0001:0006ae40       ??$set_program_name@PA_W@?$__crt_char_traits@_W@@SAX$$QAPA_W@Z 1006be40 f i libucrtd:argv_parsing.obj
 0001:0006aea0       ??0?$__crt_unique_heap_ptr@EU__crt_internal_free_policy@@@@QAE@QAE@Z 1006bea0 f i libucrtd:argv_parsing.obj
 0001:0006aec0       ??0?$__crt_unique_heap_ptr@PADU__crt_internal_free_policy@@@@QAE@QAPAD@Z 1006bec0 f i libucrtd:argv_parsing.obj
 0001:0006aee0       ??0?$__crt_unique_heap_ptr@PA_WU__crt_internal_free_policy@@@@QAE@QAPA_W@Z 1006bee0 f i libucrtd:argv_parsing.obj
 0001:0006af00       ??1?$__crt_unique_heap_ptr@EU__crt_internal_free_policy@@@@QAE@XZ 1006bf00 f i libucrtd:argv_parsing.obj
 0001:0006af20       ??1?$__crt_unique_heap_ptr@PADU__crt_internal_free_policy@@@@QAE@XZ 1006bf20 f i libucrtd:argv_parsing.obj
 0001:0006af40       ??1?$__crt_unique_heap_ptr@PA_WU__crt_internal_free_policy@@@@QAE@XZ 1006bf40 f i libucrtd:argv_parsing.obj
 0001:0006af60       ??B?$__crt_unique_heap_ptr@EU__crt_internal_free_policy@@@@QBE_NXZ 1006bf60 f i libucrtd:argv_parsing.obj
 0001:0006b020       ?detach@?$__crt_unique_heap_ptr@EU__crt_internal_free_policy@@@@QAEPAEXZ 1006c020 f i libucrtd:argv_parsing.obj
 0001:0006b050       ?detach@?$__crt_unique_heap_ptr@PADU__crt_internal_free_policy@@@@QAEPAPADXZ 1006c050 f i libucrtd:argv_parsing.obj
 0001:0006b080       ?detach@?$__crt_unique_heap_ptr@PA_WU__crt_internal_free_policy@@@@QAEPAPA_WXZ 1006c080 f i libucrtd:argv_parsing.obj
 0001:0006b110       ?get@?$__crt_unique_heap_ptr@EU__crt_internal_free_policy@@@@QBEPAEXZ 1006c110 f i libucrtd:argv_parsing.obj
 0001:0006b130       ?get@?$__crt_unique_heap_ptr@PADU__crt_internal_free_policy@@@@QBEPAPADXZ 1006c130 f i libucrtd:argv_parsing.obj
 0001:0006b150       ?get@?$__crt_unique_heap_ptr@PA_WU__crt_internal_free_policy@@@@QBEPAPA_WXZ 1006c150 f i libucrtd:argv_parsing.obj
 0001:0006b170       ?get_address_of@?$__crt_unique_heap_ptr@PADU__crt_internal_free_policy@@@@QAEPAPAPADXZ 1006c170 f i libucrtd:argv_parsing.obj
 0001:0006b180       ?get_address_of@?$__crt_unique_heap_ptr@PA_WU__crt_internal_free_policy@@@@QAEPAPAPA_WXZ 1006c180 f i libucrtd:argv_parsing.obj
 0001:0006b1d0       ?is_valid@?$__crt_unique_heap_ptr@EU__crt_internal_free_policy@@@@QBE_NXZ 1006c1d0 f i libucrtd:argv_parsing.obj
 0001:0006b200       ?release@?$__crt_unique_heap_ptr@EU__crt_internal_free_policy@@@@QAEXXZ 1006c200 f i libucrtd:argv_parsing.obj
 0001:0006b230       ?release@?$__crt_unique_heap_ptr@PADU__crt_internal_free_policy@@@@QAEXXZ 1006c230 f i libucrtd:argv_parsing.obj
 0001:0006b260       ?release@?$__crt_unique_heap_ptr@PA_WU__crt_internal_free_policy@@@@QAEXXZ 1006c260 f i libucrtd:argv_parsing.obj
 0001:0006b2d0       ___acrt_allocate_buffer_for_argv 1006c2d0 f   libucrtd:argv_parsing.obj
 0001:0006b390       __configure_narrow_argv    1006c390 f   libucrtd:argv_parsing.obj
 0001:0006b3b0       __configure_wide_argv      1006c3b0 f   libucrtd:argv_parsing.obj
 0001:0006b3d0       __set_pgmptr               1006c3d0 f i libucrtd:argv_parsing.obj
 0001:0006b3e0       __set_wpgmptr              1006c3e0 f i libucrtd:argv_parsing.obj
 0001:0006b3ef       ??$?R_W@__crt_internal_free_policy@@QBEXQB_W@Z 1006c3ef f i libucrtd:environment_initialization.obj
 0001:0006b858       ??$get_environment_from_os@$$V@?$__crt_char_traits@D@@SAPADXZ 1006c858 f i libucrtd:environment_initialization.obj
 0001:0006b85d       ??$get_environment_from_os@$$V@?$__crt_char_traits@_W@@SAPA_WXZ 1006c85d f i libucrtd:environment_initialization.obj
 0001:0006b986       ??$set_variable_in_environment_nolock@PADH@?$__crt_char_traits@D@@SAH$$QAPAD$$QAH@Z 1006c986 f i libucrtd:environment_initialization.obj
 0001:0006b99e       ??$set_variable_in_environment_nolock@PA_WH@?$__crt_char_traits@_W@@SAH$$QAPA_W$$QAH@Z 1006c99e f i libucrtd:environment_initialization.obj
 0001:0006b9b6       ??$tcscpy_s@PADABIAAPAD@?$__crt_char_traits@D@@SAH$$QAPADABIAAPAD@Z 1006c9b6 f i libucrtd:environment_initialization.obj
 0001:0006b9d4       ??$tcscpy_s@PA_WABIAAPA_W@?$__crt_char_traits@_W@@SAH$$QAPA_WABIAAPA_W@Z 1006c9d4 f i libucrtd:environment_initialization.obj
 0001:0006b9f2       ??$tcslen@AAPAD@?$__crt_char_traits@D@@SAIAAPAD@Z 1006c9f2 f i libucrtd:environment_initialization.obj
 0001:0006ba0a       ??$tcslen@AAPA_W@?$__crt_char_traits@_W@@SAIAAPA_W@Z 1006ca0a f i libucrtd:environment_initialization.obj
 0001:0006ba28       ??$uninitialize@A6AXAAPAPAD@Z@?$dual_state_global@PAPAD@__crt_state_management@@QAEXA6AXAAPAPAD@Z@Z 1006ca28 f i libucrtd:environment_initialization.obj
 0001:0006ba51       ??$uninitialize@A6AXAAPAPA_W@Z@?$dual_state_global@PAPA_W@__crt_state_management@@QAEXA6AXAAPAPA_W@Z@Z 1006ca51 f i libucrtd:environment_initialization.obj
 0001:0006bab0       ??0?$__crt_unique_heap_ptr@_WU__crt_internal_free_policy@@@@QAE@QA_W@Z 1006cab0 f i libucrtd:environment_initialization.obj
 0001:0006bac0       ??1?$__crt_unique_heap_ptr@_WU__crt_internal_free_policy@@@@QAE@XZ 1006cac0 f i libucrtd:environment_initialization.obj
 0001:0006bad5       ??B?$__crt_unique_heap_ptr@PADU__crt_internal_free_policy@@@@QBE_NXZ 1006cad5 f i libucrtd:environment_initialization.obj
 0001:0006badc       ??B?$__crt_unique_heap_ptr@PA_WU__crt_internal_free_policy@@@@QBE_NXZ 1006cadc f i libucrtd:environment_initialization.obj
 0001:0006bae3       ??B?$__crt_unique_heap_ptr@_WU__crt_internal_free_policy@@@@QBE_NXZ 1006cae3 f i libucrtd:environment_initialization.obj
 0001:0006baea       ?__crt_compute_required_transform_buffer_count@@YAIIQBD@Z 1006caea f i libucrtd:environment_initialization.obj
 0001:0006bb06       ?__crt_compute_required_transform_buffer_count@@YAIIQB_W@Z 1006cb06 f i libucrtd:environment_initialization.obj
 0001:0006bb24       ?__crt_transform_string@@YAIIQBDQA_WI@Z 1006cb24 f i libucrtd:environment_initialization.obj
 0001:0006bb43       ?__crt_transform_string@@YAIIQB_WQADI@Z 1006cb43 f i libucrtd:environment_initialization.obj
 0001:0006bb65       ?detach@?$__crt_unique_heap_ptr@DU__crt_internal_free_policy@@@@QAEPADXZ 1006cb65 f i libucrtd:environment_initialization.obj
 0001:0006bb6b       ?detach@?$__crt_unique_heap_ptr@_WU__crt_internal_free_policy@@@@QAEPA_WXZ 1006cb6b f i libucrtd:environment_initialization.obj
 0001:0006bb71       ?get@?$__crt_unique_heap_ptr@_WU__crt_internal_free_policy@@@@QBEPA_WXZ 1006cb71 f i libucrtd:environment_initialization.obj
 0001:0006bb98       ?initialize@?$dual_state_global@PAPAD@__crt_state_management@@QAEXQAPAD@Z 1006cb98 f i libucrtd:environment_initialization.obj
 0001:0006bbbe       ?initialize@?$dual_state_global@PAPA_W@__crt_state_management@@QAEXQAPA_W@Z 1006cbbe f i libucrtd:environment_initialization.obj
 0001:0006bbe4       ?is_valid@?$__crt_unique_heap_ptr@PADU__crt_internal_free_policy@@@@QBE_NXZ 1006cbe4 f i libucrtd:environment_initialization.obj
 0001:0006bbeb       ?is_valid@?$__crt_unique_heap_ptr@PA_WU__crt_internal_free_policy@@@@QBE_NXZ 1006cbeb f i libucrtd:environment_initialization.obj
 0001:0006bbf2       ?is_valid@?$__crt_unique_heap_ptr@_WU__crt_internal_free_policy@@@@QBE_NXZ 1006cbf2 f i libucrtd:environment_initialization.obj
 0001:0006bc01       ?release@?$__crt_unique_heap_ptr@_WU__crt_internal_free_policy@@@@QAEXXZ 1006cc01 f i libucrtd:environment_initialization.obj
 0001:0006bc16       ?value@?$dual_state_global@PAPAD@__crt_state_management@@QAEAAPAPADXZ 1006cc16 f i libucrtd:environment_initialization.obj
 0001:0006bc19       ?value@?$dual_state_global@PAPA_W@__crt_state_management@@QAEAAPAPA_WXZ 1006cc19 f i libucrtd:environment_initialization.obj
 0001:0006bc1c       ___dcrt_get_or_create_narrow_environment_nolock 1006cc1c f   libucrtd:environment_initialization.obj
 0001:0006bc21       ___dcrt_get_or_create_wide_environment_nolock 1006cc21 f   libucrtd:environment_initialization.obj
 0001:0006bc26       ___dcrt_uninitialize_environments_nolock 1006cc26 f   libucrtd:environment_initialization.obj
 0001:0006bc5d       ___p__environ              1006cc5d f   libucrtd:environment_initialization.obj
 0001:0006bc63       ___p__wenviron             1006cc63 f   libucrtd:environment_initialization.obj
 0001:0006bc69       __get_initial_narrow_environment 1006cc69 f   libucrtd:environment_initialization.obj
 0001:0006bc7d       __get_initial_wide_environment 1006cc7d f   libucrtd:environment_initialization.obj
 0001:0006bc91       __initialize_narrow_environment 1006cc91 f   libucrtd:environment_initialization.obj
 0001:0006bc96       __initialize_wide_environment 1006cc96 f   libucrtd:environment_initialization.obj
 0001:0006bca0       ??$?B$$A6AXXZ@__crt_fast_encoded_nullptr_t@@QBEP6AXXZXZ 1006cca0 f i libucrtd:onexit.obj
 0001:0006bcc0       ??$?BP6AXXZ@__crt_fast_encoded_nullptr_t@@QBEPAP6AXXZXZ 1006ccc0 f i libucrtd:onexit.obj
 0001:0006bce0       ??$?RP6AXXZ@__crt_internal_free_policy@@QBEXQBQ6AXXZ@Z 1006cce0 f i libucrtd:onexit.obj
 0001:0006bea0       ??$__crt_fast_decode_pointer@P6AXXZ@@YAP6AXXZQ6AXXZ@Z 1006cea0 f i libucrtd:onexit.obj
 0001:0006bed0       ??$__crt_fast_decode_pointer@PAP6AXXZ@@YAPAP6AXXZQAP6AXXZ@Z 1006ced0 f i libucrtd:onexit.obj
 0001:0006bf00       ??$__crt_fast_encode_pointer@P6AHXZ@@YAP6AHXZQ6AHXZ@Z 1006cf00 f i libucrtd:onexit.obj
 0001:0006bf30       ??$__crt_fast_encode_pointer@P6AXXZ@@YAP6AXXZQ6AXXZ@Z 1006cf30 f i libucrtd:onexit.obj
 0001:0006bf60       ??$__crt_fast_encode_pointer@PAP6AXXZ@@YAPAP6AXXZQAP6AXXZ@Z 1006cf60 f i libucrtd:onexit.obj
 0001:0006c060       ??0?$__crt_unique_heap_ptr@P6AXXZU__crt_internal_free_policy@@@@QAE@QAP6AXXZ@Z 1006d060 f i libucrtd:onexit.obj
 0001:0006c080       ??1?$__crt_unique_heap_ptr@P6AXXZU__crt_internal_free_policy@@@@QAE@XZ 1006d080 f i libucrtd:onexit.obj
 0001:0006c0a0       ??1scoped_global_state_reset@__crt_state_management@@QAE@XZ 1006d0a0 f i libucrtd:onexit.obj
 0001:0006c510       ?detach@?$__crt_unique_heap_ptr@P6AXXZU__crt_internal_free_policy@@@@QAEPAP6AXXZXZ 1006d510 f i libucrtd:onexit.obj
 0001:0006c540       ?release@?$__crt_unique_heap_ptr@P6AXXZU__crt_internal_free_policy@@@@QAEXXZ 1006d540 f i libucrtd:onexit.obj
 0001:0006c570       __crt_at_quick_exit        1006d570 f   libucrtd:onexit.obj
 0001:0006c590       __crt_atexit               1006d590 f   libucrtd:onexit.obj
 0001:0006c5b0       __execute_onexit_table     1006d5b0 f   libucrtd:onexit.obj
 0001:0006c5e0       __initialize_onexit_table  1006d5e0 f   libucrtd:onexit.obj
 0001:0006c640       __register_onexit_function 1006d640 f   libucrtd:onexit.obj
 0001:0006c880       ??$?BX@__crt_fast_encoded_nullptr_t@@QBEPAXXZ 1006d880 f i libucrtd:initialization.obj
 0001:0006c8a0       ??$__crt_fast_encode_pointer@PAX@@YAPAXQAX@Z 1006d8a0 f i libucrtd:initialization.obj
 0001:0006c960       ?initialize@?$dual_state_global@PAU__crt_locale_data@@@__crt_state_management@@QAEXQAU__crt_locale_data@@@Z 1006d960 f i libucrtd:initialization.obj
 0001:0006c9a0       ___acrt_initialize         1006d9a0 f   libucrtd:initialization.obj
 0001:0006c9c0       ___acrt_thread_attach      1006d9c0 f   libucrtd:initialization.obj
 0001:0006c9e0       ___acrt_thread_detach      1006d9e0 f   libucrtd:initialization.obj
 0001:0006c9f0       ___acrt_uninitialize       1006d9f0 f   libucrtd:initialization.obj
 0001:0006ca10       ___acrt_uninitialize_critical 1006da10 f   libucrtd:initialization.obj
 0001:0006e280       __CrtCheckMemory           1006f280 f   libucrtd:debug_heap.obj
 0001:0006e410       __CrtDoForAllClientObjects 1006f410 f   libucrtd:debug_heap.obj
 0001:0006e560       __CrtDumpMemoryLeaks       1006f560 f   libucrtd:debug_heap.obj
 0001:0006e600       __CrtGetAllocHook          1006f600 f   libucrtd:debug_heap.obj
 0001:0006e610       __CrtGetDumpClient         1006f610 f   libucrtd:debug_heap.obj
 0001:0006e620       __CrtIsMemoryBlock         1006f620 f   libucrtd:debug_heap.obj
 0001:0006e770       __CrtIsValidHeapPointer    1006f770 f   libucrtd:debug_heap.obj
 0001:0006e7a0       __CrtIsValidPointer        1006f7a0 f   libucrtd:debug_heap.obj
 0001:0006e7d0       __CrtMemCheckpoint         1006f7d0 f   libucrtd:debug_heap.obj
 0001:0006ea00       __CrtMemDifference         1006fa00 f   libucrtd:debug_heap.obj
 0001:0006ec70       __CrtMemDumpAllObjectsSince 1006fc70 f   libucrtd:debug_heap.obj
 0001:0006ed10       __CrtMemDumpStatistics     1006fd10 f   libucrtd:debug_heap.obj
 0001:0006ee40       __CrtReportBlockType       1006fe40 f   libucrtd:debug_heap.obj
 0001:0006ee70       __CrtSetAllocHook          1006fe70 f   libucrtd:debug_heap.obj
 0001:0006ee90       __CrtSetBreakAlloc         1006fe90 f   libucrtd:debug_heap.obj
 0001:0006eeb0       __CrtSetDbgBlockType       1006feb0 f   libucrtd:debug_heap.obj
 0001:0006ef90       __CrtSetDbgFlag            1006ff90 f   libucrtd:debug_heap.obj
 0001:0006f100       __CrtSetDumpClient         10070100 f   libucrtd:debug_heap.obj
 0001:0006f120       ___p__crtBreakAlloc        10070120 f   libucrtd:debug_heap.obj
 0001:0006f130       ___p__crtDbgFlag           10070130 f   libucrtd:debug_heap.obj
 0001:0006f140       __aligned_free_dbg         10070140 f   libucrtd:debug_heap.obj
 0001:0006f1f0       __aligned_malloc_dbg       100701f0 f   libucrtd:debug_heap.obj
 0001:0006f220       __aligned_msize_dbg        10070220 f   libucrtd:debug_heap.obj
 0001:0006f350       __aligned_offset_malloc_dbg 10070350 f   libucrtd:debug_heap.obj
 0001:0006f530       __aligned_offset_realloc_dbg 10070530 f   libucrtd:debug_heap.obj
 0001:0006f840       __aligned_offset_recalloc_dbg 10070840 f   libucrtd:debug_heap.obj
 0001:0006f900       __aligned_realloc_dbg      10070900 f   libucrtd:debug_heap.obj
 0001:0006f930       __aligned_recalloc_dbg     10070930 f   libucrtd:debug_heap.obj
 0001:0006f960       __calloc_dbg               10070960 f   libucrtd:debug_heap.obj
 0001:0006f9d0       __expand_dbg               100709d0 f   libucrtd:debug_heap.obj
 0001:0006fb00       __free_dbg                 10070b00 f   libucrtd:debug_heap.obj
 0001:0006fbb0       __malloc_dbg               10070bb0 f   libucrtd:debug_heap.obj
 0001:0006fbd0       __msize_dbg                10070bd0 f   libucrtd:debug_heap.obj
 0001:0006fd60       __realloc_dbg              10070d60 f   libucrtd:debug_heap.obj
 0001:0006fe00       __recalloc_dbg             10070e00 f   libucrtd:debug_heap.obj
 0001:0006feb0       __initterm                 10070eb0 f   libucrtd:initterm.obj
 0001:0006ff00       __initterm_e               10070f00 f   libucrtd:initterm.obj
 0001:00070270       _strcpy_s                  10071270 f   libucrtd:strcpy_s.obj
 0001:000706a0       _strcat_s                  100716a0 f   libucrtd:strcat_s.obj
 0001:000706c0       ??$?B$$A6AHI@Z@__crt_fast_encoded_nullptr_t@@QBEP6AHI@ZXZ 100716c0 f i libucrtd:new_handler.obj
 0001:000706e0       ??$__crt_fast_decode_pointer@P6AHI@Z@@YAP6AHI@ZQ6AHI@Z@Z 100716e0 f i libucrtd:new_handler.obj
 0001:00070710       ??$__crt_fast_encode_pointer@P6AHI@Z@@YAP6AHI@ZQ6AHI@Z@Z 10071710 f i libucrtd:new_handler.obj
 0001:00070740       ?_set_new_handler@@YAP6AHI@ZH@Z 10071740 f   libucrtd:new_handler.obj
 0001:000707a0       ?initialize@?$dual_state_global@P6AHI@Z@__crt_state_management@@QAEXQ6AHI@Z@Z 100717a0 f i libucrtd:new_handler.obj
 0001:000707e0       ?value@?$dual_state_global@P6AHI@Z@__crt_state_management@@QAEAAP6AHI@ZXZ 100717e0 f i libucrtd:new_handler.obj
 0001:00070800       ___acrt_initialize_new_handler 10071800 f   libucrtd:new_handler.obj
 0001:00070820       __callnewh                 10071820 f   libucrtd:new_handler.obj
 0001:00070860       __query_new_handler        10071860 f   libucrtd:new_handler.obj
 0001:000708f0       __set_new_handler          100718f0 f   libucrtd:new_handler.obj
 0001:000709d0       __get_terminate            100719d0 f   libucrtd:terminate.obj
 0001:000709f0       _set_terminate             100719f0 f   libucrtd:terminate.obj
 0001:00070a20       _terminate                 10071a20 f   libucrtd:terminate.obj
 0001:000713f0       __makepath                 100723f0 f   libucrtd:makepath.obj
 0001:00071420       __makepath_s               10072420 f   libucrtd:makepath.obj
 0001:00071450       __wmakepath                10072450 f   libucrtd:makepath.obj
 0001:00071480       __wmakepath_s              10072480 f   libucrtd:makepath.obj
 0001:00072dd0       ??$tcsncpy_s@AAPADIAAPBDABI@?$__crt_char_traits@D@@SAHAAPAD$$QAIAAPBDABI@Z 10073dd0 f i libucrtd:splitpath.obj
 0001:00072e00       ??$tcsncpy_s@AAPADIAAPBDH@?$__crt_char_traits@D@@SAHAAPAD$$QAIAAPBD$$QAH@Z 10073e00 f i libucrtd:splitpath.obj
 0001:00072e30       ??$tcsncpy_s@AAPA_WIAAPB_WABI@?$__crt_char_traits@_W@@SAHAAPA_W$$QAIAAPB_WABI@Z 10073e30 f i libucrtd:splitpath.obj
 0001:00072e60       ??$tcsncpy_s@AAPA_WIAAPB_WH@?$__crt_char_traits@_W@@SAHAAPA_W$$QAIAAPB_W$$QAH@Z 10073e60 f i libucrtd:splitpath.obj
 0001:000730a0       __splitpath                100740a0 f   libucrtd:splitpath.obj
 0001:000730d0       __splitpath_s              100740d0 f   libucrtd:splitpath.obj
 0001:00073120       __wsplitpath               10074120 f   libucrtd:splitpath.obj
 0001:00073150       __wsplitpath_s             10074150 f   libucrtd:splitpath.obj
 0001:000731a0       __set_abort_behavior       100741a0 f   libucrtd:abort.obj
 0001:000731d0       _abort                     100741d0 f   libucrtd:abort.obj
 0001:00073240       _strcmp                    10074240 f   libucrtd:strcmp.obj
 0001:000732d0       _strlen                    100742d0 f   libucrtd:strlen.obj
 0001:00073360       ??$is_overflow_condition@K@__crt_strtox@@YA_NIK@Z 10074360 f i libucrtd:atox.obj
 0001:000733c0       ??$is_overflow_condition@_K@__crt_strtox@@YA_NI_K@Z 100743c0 f i libucrtd:atox.obj
 0001:00073450       ??$make_c_string_character_source@D$$T@__crt_strtox@@YA?AV?$c_string_character_source@D@0@QBD$$T@Z 10074450 f i libucrtd:atox.obj
 0001:00073470       ??$make_c_string_character_source@_W$$T@__crt_strtox@@YA?AV?$c_string_character_source@_W@0@QB_W$$T@Z 10074470 f i libucrtd:atox.obj
 0001:00073490       ??$parse_integer@KV?$c_string_character_source@D@__crt_strtox@@@__crt_strtox@@YAKQAU__crt_locale_pointers@@V?$c_string_character_source@D@0@H_N@Z 10074490 f i libucrtd:atox.obj
 0001:00073800       ??$parse_integer@KV?$c_string_character_source@_W@__crt_strtox@@@__crt_strtox@@YAKQAU__crt_locale_pointers@@V?$c_string_character_source@_W@0@H_N@Z 10074800 f i libucrtd:atox.obj
 0001:00073b70       ??$parse_integer@_KV?$c_string_character_source@D@__crt_strtox@@@__crt_strtox@@YA_KQAU__crt_locale_pointers@@V?$c_string_character_source@D@0@H_N@Z 10074b70 f i libucrtd:atox.obj
 0001:00073f90       ??$parse_integer@_KV?$c_string_character_source@_W@__crt_strtox@@@__crt_strtox@@YA_KQAU__crt_locale_pointers@@V?$c_string_character_source@_W@0@H_N@Z 10074f90 f i libucrtd:atox.obj
 0001:000743c0       ??$parse_integer_from_string@JD$$T@__crt_strtox@@YAJQBD$$THQAU__crt_locale_pointers@@@Z 100753c0 f i libucrtd:atox.obj
 0001:00074400       ??$parse_integer_from_string@J_W$$T@__crt_strtox@@YAJQB_W$$THQAU__crt_locale_pointers@@@Z 10075400 f i libucrtd:atox.obj
 0001:00074440       ??$parse_integer_from_string@_JD$$T@__crt_strtox@@YA_JQBD$$THQAU__crt_locale_pointers@@@Z 10075440 f i libucrtd:atox.obj
 0001:00074480       ??$parse_integer_from_string@_J_W$$T@__crt_strtox@@YA_JQB_W$$THQAU__crt_locale_pointers@@@Z 10075480 f i libucrtd:atox.obj
 0001:000744c0       ??0?$c_string_character_source@D@__crt_strtox@@QAE@QBDQAPBD@Z 100754c0 f i libucrtd:atox.obj
 0001:00074500       ??0?$c_string_character_source@_W@__crt_strtox@@QAE@QB_WQAPB_W@Z 10075500 f i libucrtd:atox.obj
 0001:00074540       ??1?$c_string_character_source@D@__crt_strtox@@QAE@XZ 10075540 f i libucrtd:atox.obj
 0001:00074570       ??1?$c_string_character_source@_W@__crt_strtox@@QAE@XZ 10075570 f i libucrtd:atox.obj
 0001:000745a0       ?get@?$c_string_character_source@D@__crt_strtox@@QAEDXZ 100755a0 f i libucrtd:atox.obj
 0001:000745d0       ?get@?$c_string_character_source@_W@__crt_strtox@@QAE_WXZ 100755d0 f i libucrtd:atox.obj
 0001:00074600       ?is_space@__crt_strtox@@YA_NDQAU__crt_locale_pointers@@@Z 10075600 f i libucrtd:atox.obj
 0001:00074640       ?is_space@__crt_strtox@@YA_N_WPAU__crt_locale_pointers@@@Z 10075640 f i libucrtd:atox.obj
 0001:00074670       ?maximum_signed_value@__crt_strtox@@YAJK@Z 10075670 f i libucrtd:atox.obj
 0001:00074680       ?maximum_signed_value@__crt_strtox@@YA_J_K@Z 10075680 f i libucrtd:atox.obj
 0001:00074690       ?minimum_signed_value@__crt_strtox@@YAJK@Z 10075690 f i libucrtd:atox.obj
 0001:000746a0       ?minimum_signed_value@__crt_strtox@@YA_J_K@Z 100756a0 f i libucrtd:atox.obj
 0001:000746b0       ?parse_digit@__crt_strtox@@YAID@Z 100756b0 f i libucrtd:atox.obj
 0001:00074710       ?parse_digit@__crt_strtox@@YAI_W@Z 10075710 f i libucrtd:atox.obj
 0001:00074760       ?restore_state@?$c_string_character_source@D@__crt_strtox@@QAE_NQBD@Z 10075760 f i libucrtd:atox.obj
 0001:00074780       ?restore_state@?$c_string_character_source@_W@__crt_strtox@@QAE_NQB_W@Z 10075780 f i libucrtd:atox.obj
 0001:000747a0       ?save_state@?$c_string_character_source@D@__crt_strtox@@QBEPBDXZ 100757a0 f i libucrtd:atox.obj
 0001:000747c0       ?save_state@?$c_string_character_source@_W@__crt_strtox@@QBEPB_WXZ 100757c0 f i libucrtd:atox.obj
 0001:000747e0       ?unget@?$c_string_character_source@D@__crt_strtox@@QAEXD@Z 100757e0 f i libucrtd:atox.obj
 0001:00074890       ?unget@?$c_string_character_source@_W@__crt_strtox@@QAEX_W@Z 10075890 f i libucrtd:atox.obj
 0001:00074940       ?validate@?$c_string_character_source@D@__crt_strtox@@QBE_NXZ 10075940 f i libucrtd:atox.obj
 0001:000749d0       ?validate@?$c_string_character_source@_W@__crt_strtox@@QBE_NXZ 100759d0 f i libucrtd:atox.obj
 0001:00074a60       ?wide_character_to_digit@__crt_strtox@@YAH_W@Z 10075a60 f i libucrtd:atox.obj
 0001:00074d90       ___ascii_iswalpha          10075d90 f i libucrtd:atox.obj
 0001:00074dd0       ___ascii_toupper           10075dd0 f i libucrtd:atox.obj
 0001:00074df0       ___ascii_towupper          10075df0 f i libucrtd:atox.obj
 0001:00074e10       __atoi64                   10075e10 f   libucrtd:atox.obj
 0001:00074e30       __atoi64_l                 10075e30 f   libucrtd:atox.obj
 0001:00074e50       __atoi_l                   10075e50 f   libucrtd:atox.obj
 0001:00074e70       __atol_l                   10075e70 f   libucrtd:atox.obj
 0001:00074e90       __atoll_l                  10075e90 f   libucrtd:atox.obj
 0001:00074eb0       __wtoi                     10075eb0 f   libucrtd:atox.obj
 0001:00074ed0       __wtoi64                   10075ed0 f   libucrtd:atox.obj
 0001:00074ef0       __wtoi64_l                 10075ef0 f   libucrtd:atox.obj
 0001:00074f10       __wtoi_l                   10075f10 f   libucrtd:atox.obj
 0001:00074f30       __wtol                     10075f30 f   libucrtd:atox.obj
 0001:00074f50       __wtol_l                   10075f50 f   libucrtd:atox.obj
 0001:00074f70       __wtoll                    10075f70 f   libucrtd:atox.obj
 0001:00074f90       __wtoll_l                  10075f90 f   libucrtd:atox.obj
 0001:00074fb0       _atoi                      10075fb0 f   libucrtd:atox.obj
 0001:00074fd0       _atol                      10075fd0 f   libucrtd:atox.obj
 0001:00074ff0       _atoll                     10075ff0 f   libucrtd:atox.obj
 0001:00075010       _strncmp                   10076010 f   libucrtd:strncmp.obj
 0001:00075090       _wcsncmp                   10076090 f   libucrtd:wcsncmp.obj
 0001:000750f0       __CrtGetDebugFillThreshold 100760f0 f   libucrtd:debug_fill_threshold.obj
 0001:00075100       __CrtSetDebugFillThreshold 10076100 f   libucrtd:debug_fill_threshold.obj
 0001:00075120       ??$make_c_string_character_source@DPAPAD@__crt_strtox@@YA?AV?$c_string_character_source@D@0@QBDQAPAD@Z 10076120 f i libucrtd:strtox.obj
 0001:00075140       ??$make_c_string_character_source@_WPAPA_W@__crt_strtox@@YA?AV?$c_string_character_source@_W@0@QB_WQAPA_W@Z 10076140 f i libucrtd:strtox.obj
 0001:00075160       ??$parse_integer_from_string@JDPAPAD@__crt_strtox@@YAJQBDQAPADHQAU__crt_locale_pointers@@@Z 10076160 f i libucrtd:strtox.obj
 0001:000751a0       ??$parse_integer_from_string@J_WPAPA_W@__crt_strtox@@YAJQB_WQAPA_WHQAU__crt_locale_pointers@@@Z 100761a0 f i libucrtd:strtox.obj
 0001:000751e0       ??$parse_integer_from_string@KDPAPAD@__crt_strtox@@YAKQBDQAPADHQAU__crt_locale_pointers@@@Z 100761e0 f i libucrtd:strtox.obj
 0001:00075220       ??$parse_integer_from_string@K_WPAPA_W@__crt_strtox@@YAKQB_WQAPA_WHQAU__crt_locale_pointers@@@Z 10076220 f i libucrtd:strtox.obj
 0001:00075260       ??$parse_integer_from_string@_JDPAPAD@__crt_strtox@@YA_JQBDQAPADHQAU__crt_locale_pointers@@@Z 10076260 f i libucrtd:strtox.obj
 0001:000752a0       ??$parse_integer_from_string@_J_WPAPA_W@__crt_strtox@@YA_JQB_WQAPA_WHQAU__crt_locale_pointers@@@Z 100762a0 f i libucrtd:strtox.obj
 0001:000752e0       ??$parse_integer_from_string@_KDPAPAD@__crt_strtox@@YA_KQBDQAPADHQAU__crt_locale_pointers@@@Z 100762e0 f i libucrtd:strtox.obj
 0001:00075320       ??$parse_integer_from_string@_K_WPAPA_W@__crt_strtox@@YA_KQB_WQAPA_WHQAU__crt_locale_pointers@@@Z 10076320 f i libucrtd:strtox.obj
 0001:00075360       __strtoi64                 10076360 f   libucrtd:strtox.obj
 0001:00075380       __strtoi64_l               10076380 f   libucrtd:strtox.obj
 0001:000753a0       __strtoimax_l              100763a0 f   libucrtd:strtox.obj
 0001:000753c0       __strtol_l                 100763c0 f   libucrtd:strtox.obj
 0001:000753e0       __strtoll_l                100763e0 f   libucrtd:strtox.obj
 0001:00075400       __strtoui64                10076400 f   libucrtd:strtox.obj
 0001:00075420       __strtoui64_l              10076420 f   libucrtd:strtox.obj
 0001:00075440       __strtoul_l                10076440 f   libucrtd:strtox.obj
 0001:00075460       __strtoull_l               10076460 f   libucrtd:strtox.obj
 0001:00075480       __strtoumax_l              10076480 f   libucrtd:strtox.obj
 0001:000754a0       __wcstoi64                 100764a0 f   libucrtd:strtox.obj
 0001:000754c0       __wcstoi64_l               100764c0 f   libucrtd:strtox.obj
 0001:000754e0       __wcstoimax_l              100764e0 f   libucrtd:strtox.obj
 0001:00075500       __wcstol_l                 10076500 f   libucrtd:strtox.obj
 0001:00075520       __wcstoll_l                10076520 f   libucrtd:strtox.obj
 0001:00075540       __wcstoui64                10076540 f   libucrtd:strtox.obj
 0001:00075560       __wcstoui64_l              10076560 f   libucrtd:strtox.obj
 0001:00075580       __wcstoul_l                10076580 f   libucrtd:strtox.obj
 0001:000755a0       __wcstoull_l               100765a0 f   libucrtd:strtox.obj
 0001:000755c0       __wcstoumax_l              100765c0 f   libucrtd:strtox.obj
 0001:000755e0       _strtoimax                 100765e0 f   libucrtd:strtox.obj
 0001:00075600       _strtol                    10076600 f   libucrtd:strtox.obj
 0001:00075620       _strtoll                   10076620 f   libucrtd:strtox.obj
 0001:00075640       _strtoul                   10076640 f   libucrtd:strtox.obj
 0001:00075660       _strtoull                  10076660 f   libucrtd:strtox.obj
 0001:00075680       _strtoumax                 10076680 f   libucrtd:strtox.obj
 0001:000756a0       _wcstoimax                 100766a0 f   libucrtd:strtox.obj
 0001:000756c0       _wcstol                    100766c0 f   libucrtd:strtox.obj
 0001:000756e0       _wcstoll                   100766e0 f   libucrtd:strtox.obj
 0001:00075700       _wcstoul                   10076700 f   libucrtd:strtox.obj
 0001:00075720       _wcstoull                  10076720 f   libucrtd:strtox.obj
 0001:00075740       _wcstoumax                 10076740 f   libucrtd:strtox.obj
 0001:00075760       __mbtowc_l                 10076760 f   libucrtd:mbtowc.obj
 0001:00075a80       _mbtowc                    10076a80 f   libucrtd:mbtowc.obj
 0001:00075aa0       __wctomb_l                 10076aa0 f   libucrtd:wctomb.obj
 0001:00075b20       __wctomb_s_l               10076b20 f   libucrtd:wctomb.obj
 0001:00075ee0       _wctomb                    10076ee0 f   libucrtd:wctomb.obj
 0001:00075f30       _wctomb_s                  10076f30 f   libucrtd:wctomb.obj
 0001:00075f60       ??$?RU__acrt_ptd@@@__crt_internal_free_policy@@QBEXQBU__acrt_ptd@@@Z 10076f60 f i libucrtd:per_thread_data.obj
 0001:00076410       ??0?$__crt_unique_heap_ptr@U__acrt_ptd@@U__crt_internal_free_policy@@@@QAE@QAU__acrt_ptd@@@Z 10077410 f i libucrtd:per_thread_data.obj
 0001:00076430       ??0__crt_scoped_get_last_error_reset@@QAE@XZ 10077430 f i libucrtd:per_thread_data.obj
 0001:00076450       ??1?$__crt_unique_heap_ptr@U__acrt_ptd@@U__crt_internal_free_policy@@@@QAE@XZ 10077450 f i libucrtd:per_thread_data.obj
 0001:00076470       ??1__crt_scoped_get_last_error_reset@@QAE@XZ 10077470 f i libucrtd:per_thread_data.obj
 0001:00076490       ??B?$__crt_unique_heap_ptr@U__acrt_ptd@@U__crt_internal_free_policy@@@@QBE_NXZ 10077490 f i libucrtd:per_thread_data.obj
 0001:00076770       ?dangerous_get_state_array@?$dual_state_global@PAU__crt_locale_data@@@__crt_state_management@@QAEPAPAU__crt_locale_data@@XZ 10077770 f i libucrtd:per_thread_data.obj
 0001:000768f0       ?detach@?$__crt_unique_heap_ptr@U__acrt_ptd@@U__crt_internal_free_policy@@@@QAEPAU__acrt_ptd@@XZ 100778f0 f i libucrtd:per_thread_data.obj
 0001:00076920       ?get@?$__crt_unique_heap_ptr@U__acrt_ptd@@U__crt_internal_free_policy@@@@QBEPAU__acrt_ptd@@XZ 10077920 f i libucrtd:per_thread_data.obj
 0001:00076940       ?get_current_state_index@__crt_state_management@@YAIABV__crt_scoped_get_last_error_reset@@@Z 10077940 f i libucrtd:per_thread_data.obj
 0001:00076ab0       ?is_valid@?$__crt_unique_heap_ptr@U__acrt_ptd@@U__crt_internal_free_policy@@@@QBE_NXZ 10077ab0 f i libucrtd:per_thread_data.obj
 0001:00076ae0       ?release@?$__crt_unique_heap_ptr@U__acrt_ptd@@U__crt_internal_free_policy@@@@QAEXXZ 10077ae0 f i libucrtd:per_thread_data.obj
 0001:00076bd0       ?value@?$dual_state_global@PAU__crt_locale_data@@@__crt_state_management@@QAEAAPAU__crt_locale_data@@XZ 10077bd0 f i libucrtd:per_thread_data.obj
 0001:00076bf0       ___acrt_freeptd            10077bf0 f   libucrtd:per_thread_data.obj
 0001:00076c20       ___acrt_getptd             10077c20 f   libucrtd:per_thread_data.obj
 0001:00076c40       ___acrt_getptd_head        10077c40 f   libucrtd:per_thread_data.obj
 0001:00076c60       ___acrt_getptd_noexit      10077c60 f   libucrtd:per_thread_data.obj
 0001:00076c70       ___acrt_initialize_ptd     10077c70 f   libucrtd:per_thread_data.obj
 0001:00076cb0       ___acrt_uninitialize_ptd   10077cb0 f   libucrtd:per_thread_data.obj
 0001:00076ce0       ___threadhandle            10077ce0 f   libucrtd:per_thread_data.obj
 0001:00076cf0       ___threadid                10077cf0 f   libucrtd:per_thread_data.obj
 0001:00076d00       ?value@?$dual_state_global@PAU__crt_multibyte_data@@@__crt_state_management@@QAEAAPAU__crt_multibyte_data@@XZ 10077d00 f i libucrtd:locale_update.obj
 0001:00076d20       ___acrt_update_locale_info 10077d20 f   libucrtd:locale_update.obj
 0001:00076d60       ___acrt_update_multibyte_info 10077d60 f   libucrtd:locale_update.obj
 0001:00076da0       ?__acrt_fp_classify@@YA?AW4__acrt_fp_class@@ABN@Z 10077da0 f i libucrtd:cvt.obj
 0001:00076ec0       ?__acrt_fp_is_negative@@YA_NABN@Z 10077ec0 f i libucrtd:cvt.obj
 0001:00077f10       ?strrchr@@YAPADQADH@Z      10078f10 f i libucrtd:cvt.obj
 0001:00077f30       ___acrt_fp_format          10078f30 f   libucrtd:cvt.obj
 0001:000783c0       __fputwc_nolock            100793c0 f   libucrtd:fputwc.obj
 0001:000785b0       __fputwchar                100795b0 f   libucrtd:fputwc.obj
 0001:000785d0       __putwc_nolock             100795d0 f   libucrtd:fputwc.obj
 0001:000785f0       _fputwc                    100795f0 f   libucrtd:fputwc.obj
 0001:00078700       _putwc                     10079700 f   libucrtd:fputwc.obj
 0001:00078720       _putwchar                  10079720 f   libucrtd:fputwc.obj
 0001:00078740       ?lowio_handle@__crt_stdio_stream@@QBEHXZ 10079740 f i libucrtd:fileno.obj
 0001:00078760       __fileno                   10079760 f   libucrtd:fileno.obj
 0001:00078800       ??$?RPAU__crt_stdio_stream_data@@@__crt_internal_free_policy@@QBEXQBQAU__crt_stdio_stream_data@@@Z 10079800 f i libucrtd:_file.obj
 0001:00078820       ??0?$__crt_unique_heap_ptr@PAU__crt_stdio_stream_data@@U__crt_internal_free_policy@@@@QAE@QAPAU__crt_stdio_stream_data@@@Z 10079820 f i libucrtd:_file.obj
 0001:00078840       ??1?$__crt_unique_heap_ptr@PAU__crt_stdio_stream_data@@U__crt_internal_free_policy@@@@QAE@XZ 10079840 f i libucrtd:_file.obj
 0001:00078860       ?detach@?$__crt_unique_heap_ptr@PAU__crt_stdio_stream_data@@U__crt_internal_free_policy@@@@QAEPAPAU__crt_stdio_stream_data@@XZ 10079860 f i libucrtd:_file.obj
 0001:00078890       ?release@?$__crt_unique_heap_ptr@PAU__crt_stdio_stream_data@@U__crt_internal_free_policy@@@@QAEXXZ 10079890 f i libucrtd:_file.obj
 0001:000788c0       ___acrt_initialize_stdio   100798c0 f   libucrtd:_file.obj
 0001:00078a30       ___acrt_iob_func           10079a30 f   libucrtd:_file.obj
 0001:00078a40       ___acrt_uninitialize_stdio 10079a40 f   libucrtd:_file.obj
 0001:00078ac0       __get_stream_buffer_pointers 10079ac0 f   libucrtd:_file.obj
 0001:00078ba0       __lock_file                10079ba0 f   libucrtd:_file.obj
 0001:00078bd0       __unlock_file              10079bd0 f   libucrtd:_file.obj
 0001:00078c00       __get_printf_count_output  10079c00 f   libucrtd:printf_count_output.obj
 0001:00078c30       __set_printf_count_output  10079c30 f   libucrtd:printf_count_output.obj
 0001:00078c90       ?has_any_buffer@__crt_stdio_stream@@QBE_NXZ 10079c90 f i libucrtd:_sftbuf.obj
 0001:00078cb0       ?has_any_of@__crt_stdio_stream@@QBE_NJ@Z 10079cb0 f i libucrtd:_sftbuf.obj
 0001:00078cf0       ?has_temporary_buffer@__crt_stdio_stream@@QBE_NXZ 10079cf0 f i libucrtd:_sftbuf.obj
 0001:00078d10       ?set_flags@__crt_stdio_stream@@QBE_NJ@Z 10079d10 f i libucrtd:_sftbuf.obj
 0001:00078d60       ?unset_flags@__crt_stdio_stream@@QBE_NJ@Z 10079d60 f i libucrtd:_sftbuf.obj
 0001:00078db0       ___acrt_stdio_begin_temporary_buffering_nolock 10079db0 f   libucrtd:_sftbuf.obj
 0001:00078f70       ___acrt_stdio_end_temporary_buffering_nolock 10079f70 f   libucrtd:_sftbuf.obj
 0001:00079000       ??$?RU__crt_locale_data@@@__crt_internal_free_policy@@QBEXQBU__crt_locale_data@@@Z 1007a000 f i libucrtd:wsetlocale.obj
 0001:00079020       ??$?RU__crt_locale_pointers@@@__crt_internal_free_policy@@QBEXQBU__crt_locale_pointers@@@Z 1007a020 f i libucrtd:wsetlocale.obj
 0001:00079040       ??$?RU__crt_multibyte_data@@@__crt_internal_free_policy@@QBEXQBU__crt_multibyte_data@@@Z 1007a040 f i libucrtd:wsetlocale.obj
 0001:00079630       ??0?$__crt_unique_heap_ptr@U__crt_locale_data@@U__crt_internal_free_policy@@@@QAE@QAU__crt_locale_data@@@Z 1007a630 f i libucrtd:wsetlocale.obj
 0001:00079650       ??0?$__crt_unique_heap_ptr@U__crt_locale_pointers@@U__crt_internal_free_policy@@@@QAE@QAU__crt_locale_pointers@@@Z 1007a650 f i libucrtd:wsetlocale.obj
 0001:00079670       ??0?$__crt_unique_heap_ptr@U__crt_multibyte_data@@U__crt_internal_free_policy@@@@QAE@QAU__crt_multibyte_data@@@Z 1007a670 f i libucrtd:wsetlocale.obj
 0001:00079690       ??0_expandlocale_locale_name_cache@@QAE@QA_WIQAU__crt_qualified_locale_data@@@Z 1007a690 f i libucrtd:wsetlocale.obj
 0001:00079700       ??1?$__crt_unique_heap_ptr@U__crt_locale_data@@U__crt_internal_free_policy@@@@QAE@XZ 1007a700 f i libucrtd:wsetlocale.obj
 0001:00079720       ??1?$__crt_unique_heap_ptr@U__crt_locale_pointers@@U__crt_internal_free_policy@@@@QAE@XZ 1007a720 f i libucrtd:wsetlocale.obj
 0001:00079740       ??1?$__crt_unique_heap_ptr@U__crt_multibyte_data@@U__crt_internal_free_policy@@@@QAE@XZ 1007a740 f i libucrtd:wsetlocale.obj
 0001:00079760       ??1_expandlocale_locale_name_cache@@QAE@XZ 1007a760 f i libucrtd:wsetlocale.obj
 0001:000797c0       ??B?$__crt_unique_heap_ptr@U__crt_locale_data@@U__crt_internal_free_policy@@@@QBE_NXZ 1007a7c0 f i libucrtd:wsetlocale.obj
 0001:000797e0       ??B?$__crt_unique_heap_ptr@U__crt_locale_pointers@@U__crt_internal_free_policy@@@@QBE_NXZ 1007a7e0 f i libucrtd:wsetlocale.obj
 0001:00079800       ??B?$__crt_unique_heap_ptr@U__crt_multibyte_data@@U__crt_internal_free_policy@@@@QBE_NXZ 1007a800 f i libucrtd:wsetlocale.obj
 0001:00079bf0       ?commit_locale_name@_expandlocale_locale_name_cache@@QAEXQB_WI@Z 1007abf0 f i libucrtd:wsetlocale.obj
 0001:00079c50       ?commit_locale_name_cache_already_updated@_expandlocale_locale_name_cache@@QAEXQB_WI@Z 1007ac50 f i libucrtd:wsetlocale.obj
 0001:00079cb0       ?detach@?$__crt_unique_heap_ptr@U__crt_locale_data@@U__crt_internal_free_policy@@@@QAEPAU__crt_locale_data@@XZ 1007acb0 f i libucrtd:wsetlocale.obj
 0001:00079ce0       ?detach@?$__crt_unique_heap_ptr@U__crt_locale_pointers@@U__crt_internal_free_policy@@@@QAEPAU__crt_locale_pointers@@XZ 1007ace0 f i libucrtd:wsetlocale.obj
 0001:00079d10       ?detach@?$__crt_unique_heap_ptr@U__crt_multibyte_data@@U__crt_internal_free_policy@@@@QAEPAU__crt_multibyte_data@@XZ 1007ad10 f i libucrtd:wsetlocale.obj
 0001:00079d40       ?get@?$__crt_unique_heap_ptr@U__crt_locale_data@@U__crt_internal_free_policy@@@@QBEPAU__crt_locale_data@@XZ 1007ad40 f i libucrtd:wsetlocale.obj
 0001:00079d60       ?get@?$__crt_unique_heap_ptr@U__crt_locale_pointers@@U__crt_internal_free_policy@@@@QBEPAU__crt_locale_pointers@@XZ 1007ad60 f i libucrtd:wsetlocale.obj
 0001:00079d80       ?get@?$__crt_unique_heap_ptr@U__crt_multibyte_data@@U__crt_internal_free_policy@@@@QBEPAU__crt_multibyte_data@@XZ 1007ad80 f i libucrtd:wsetlocale.obj
 0001:00079da0       ?is_valid@?$__crt_unique_heap_ptr@U__crt_locale_data@@U__crt_internal_free_policy@@@@QBE_NXZ 1007ada0 f i libucrtd:wsetlocale.obj
 0001:00079dd0       ?is_valid@?$__crt_unique_heap_ptr@U__crt_locale_pointers@@U__crt_internal_free_policy@@@@QBE_NXZ 1007add0 f i libucrtd:wsetlocale.obj
 0001:00079e00       ?is_valid@?$__crt_unique_heap_ptr@U__crt_multibyte_data@@U__crt_internal_free_policy@@@@QBE_NXZ 1007ae00 f i libucrtd:wsetlocale.obj
 0001:00079e30       ?release@?$__crt_unique_heap_ptr@U__crt_locale_data@@U__crt_internal_free_policy@@@@QAEXXZ 1007ae30 f i libucrtd:wsetlocale.obj
 0001:00079e60       ?release@?$__crt_unique_heap_ptr@U__crt_locale_pointers@@U__crt_internal_free_policy@@@@QAEXXZ 1007ae60 f i libucrtd:wsetlocale.obj
 0001:00079e90       ?release@?$__crt_unique_heap_ptr@U__crt_multibyte_data@@U__crt_internal_free_policy@@@@QAEXXZ 1007ae90 f i libucrtd:wsetlocale.obj
 0001:00079ec0       ___acrt_copy_locale_name   1007aec0 f   libucrtd:wsetlocale.obj
 0001:00079f60       ___acrt_set_locale_changed 1007af60 f   libucrtd:wsetlocale.obj
 0001:00079f80       ___acrt_uninitialize_locale 1007af80 f   libucrtd:wsetlocale.obj
 0001:00079fa0       ___ascii_tolower           1007afa0 f i libucrtd:wsetlocale.obj
 0001:00079fc0       ___ascii_towlower          1007afc0 f i libucrtd:wsetlocale.obj
 0001:00079fe0       ___lc_lctowcs              1007afe0 f   libucrtd:wsetlocale.obj
 0001:0007a090       ___lc_wcstolc              1007b090 f   libucrtd:wsetlocale.obj
 0001:0007a2c0       __configthreadlocale       1007b2c0 f   libucrtd:wsetlocale.obj
 0001:0007a440       __create_locale            1007b440 f   libucrtd:wsetlocale.obj
 0001:0007aa80       __free_locale              1007ba80 f   libucrtd:wsetlocale.obj
 0001:0007abb0       __get_current_locale       1007bbb0 f   libucrtd:wsetlocale.obj
 0001:0007ac80       __wcreate_locale           1007bc80 f   libucrtd:wsetlocale.obj
 0001:0007aec0       __wcscats                  1007bec0 f   libucrtd:wsetlocale.obj
 0001:0007af40       __wsetlocale               1007bf40 f   libucrtd:wsetlocale.obj
 0001:0007c640       ___p___mb_cur_max          1007d640 f   libucrtd:nlsdata.obj
 0001:0007c940       ___acrt_initialize_lowio   1007d940 f   libucrtd:ioinit.obj
 0001:0007c9e0       ___acrt_uninitialize_lowio 1007d9e0 f   libucrtd:ioinit.obj
 0001:0007ca40       __CrtGetReportHook         1007da40 f   libucrtd:dbgrptt.obj
 0001:0007ca50       __CrtSetReportFile         1007da50 f   libucrtd:dbgrptt.obj
 0001:0007cb50       __CrtSetReportHook         1007db50 f   libucrtd:dbgrptt.obj
 0001:0007cb70       __CrtSetReportMode         1007db70 f   libucrtd:dbgrptt.obj
 0001:0007ccb0       __VCrtDbgReportA           1007dcb0 f   libucrtd:dbgrptt.obj
 0001:0007d530       __VCrtDbgReportW           1007e530 f   libucrtd:dbgrptt.obj
 0001:0007dee0       __snprintf_s               1007eee0 f i libucrtd:dbgrptt.obj
 0001:0007df20       __vsnprintf_s              1007ef20 f i libucrtd:dbgrptt.obj
 0001:0007df50       __vsnprintf_s_l            1007ef50 f i libucrtd:dbgrptt.obj
 0001:0007e0e0       ??$__acrt_wcs_to_mbs_cp@U__crt_win32_buffer_no_resizing@@@@YAHQB_WAAV?$__crt_win32_buffer@DU__crt_win32_buffer_no_resizing@@@@I@Z 1007f0e0 f i libucrtd:getmodulefilenamea.obj
 0001:0007e110       ??0?$__crt_win32_buffer@DU__crt_win32_buffer_no_resizing@@@@QAE@QADI@Z 1007f110 f i libucrtd:getmodulefilenamea.obj
 0001:0007e160       ??1?$__crt_win32_buffer@DU__crt_win32_buffer_no_resizing@@@@QAE@XZ 1007f160 f i libucrtd:getmodulefilenamea.obj
 0001:0007e1d0       ?__acrt_get_utf8_acp_compatibility_codepage@@YAIXZ 1007f1d0 f i libucrtd:getmodulefilenamea.obj
 0001:0007e260       ?_deallocate@?$__crt_win32_buffer@DU__crt_win32_buffer_no_resizing@@@@AAEXXZ 1007f260 f i libucrtd:getmodulefilenamea.obj
 0001:0007e2a0       ?allocate@?$__crt_win32_buffer@DU__crt_win32_buffer_no_resizing@@@@QAEHI@Z 1007f2a0 f i libucrtd:getmodulefilenamea.obj
 0001:0007e310       ?allocate@__crt_win32_buffer_no_resizing@@SAHQAPAXIABV__crt_win32_buffer_empty_debug_info@@@Z 1007f310 f i libucrtd:getmodulefilenamea.obj
 0001:0007e330       ?capacity@?$__crt_win32_buffer@DU__crt_win32_buffer_no_resizing@@@@QBEIXZ 1007f330 f i libucrtd:getmodulefilenamea.obj
 0001:0007e350       ?data@?$__crt_win32_buffer@DU__crt_win32_buffer_no_resizing@@@@QAEPADXZ 1007f350 f i libucrtd:getmodulefilenamea.obj
 0001:0007e370       ?deallocate@__crt_win32_buffer_no_resizing@@SAXQAXABV__crt_win32_buffer_empty_debug_info@@@Z 1007f370 f i libucrtd:getmodulefilenamea.obj
 0001:0007e380       ?debug_info@?$__crt_win32_buffer@DU__crt_win32_buffer_no_resizing@@@@QBEABV__crt_win32_buffer_empty_debug_info@@XZ 1007f380 f i libucrtd:getmodulefilenamea.obj
 0001:0007e390       ?set_to_nullptr@?$__crt_win32_buffer@DU__crt_win32_buffer_no_resizing@@@@QAEXXZ 1007f390 f i libucrtd:getmodulefilenamea.obj
 0001:0007e3d0       ?size@?$__crt_win32_buffer@DU__crt_win32_buffer_no_resizing@@@@QAEXI@Z 1007f3d0 f i libucrtd:getmodulefilenamea.obj
 0001:0007e3f0       ?size@?$__crt_win32_buffer@DU__crt_win32_buffer_no_resizing@@@@QBEIXZ 1007f3f0 f i libucrtd:getmodulefilenamea.obj
 0001:0007e410       ___acrt_GetModuleFileNameA 1007f410 f   libucrtd:getmodulefilenamea.obj
 0001:0007e6f0       ??$message_box@$$TABQBDABQBDK@?$__crt_char_traits@D@@SAH$$QA$$TABQBD1$$QAK@Z 1007f6f0 f i libucrtd:crtmbox.obj
 0001:0007e720       ??$message_box@$$TABQB_WABQB_WK@?$__crt_char_traits@_W@@SAH$$QA$$TABQB_W1$$QAK@Z 1007f720 f i libucrtd:crtmbox.obj
 0001:0007e750       ??$message_box@PAUHWND__@@ABQBDABQBDABI@?$__crt_char_traits@D@@SAH$$QAPAUHWND__@@ABQBD1ABI@Z 1007f750 f i libucrtd:crtmbox.obj
 0001:0007e780       ??$message_box@PAUHWND__@@ABQB_WABQB_WABI@?$__crt_char_traits@_W@@SAH$$QAPAUHWND__@@ABQB_W1ABI@Z 1007f780 f i libucrtd:crtmbox.obj
 0001:0007e7b0       ??$output_debug_string@ABQBD@?$__crt_char_traits@D@@SAXABQBD@Z 1007f7b0 f i libucrtd:crtmbox.obj
 0001:0007e7d0       ??$output_debug_string@ABQB_W@?$__crt_char_traits@_W@@SAXABQB_W@Z 1007f7d0 f i libucrtd:crtmbox.obj
 0001:0007e7f0       ___acrt_show_narrow_message_box 1007f7f0 f   libucrtd:crtmbox.obj
 0001:0007e810       ___acrt_show_wide_message_box 1007f810 f   libucrtd:crtmbox.obj
 0001:0007e830       ___acrt_initialize_locks   1007f830 f   libucrtd:locks.obj
 0001:0007e890       ___acrt_lock               1007f890 f   libucrtd:locks.obj
 0001:0007e8b0       ___acrt_uninitialize_locks 1007f8b0 f   libucrtd:locks.obj
 0001:0007e900       ___acrt_unlock             1007f900 f   libucrtd:locks.obj
 0001:0007e920       __lock_locales             1007f920 f   libucrtd:locks.obj
 0001:0007e940       __unlock_locales           1007f940 f   libucrtd:locks.obj
 0001:0007e960       ??$?B$$A6AXH@Z@__crt_fast_encoded_nullptr_t@@QBEP6AXH@ZXZ 1007f960 f i libucrtd:signal.obj
 0001:0007ea50       ??$__crt_fast_decode_pointer@P6AXH@Z@@YAP6AXH@ZQ6AXH@Z@Z 1007fa50 f i libucrtd:signal.obj
 0001:0007ea80       ??$__crt_fast_encode_pointer@P6AXH@Z@@YAP6AXH@ZQ6AXH@Z@Z 1007fa80 f i libucrtd:signal.obj
 0001:0007ed30       ?initialize@?$dual_state_global@P6AXH@Z@__crt_state_management@@QAEXQ6AXH@Z@Z 1007fd30 f i libucrtd:signal.obj
 0001:0007ee70       ?value@?$dual_state_global@P6AXH@Z@__crt_state_management@@QAEAAP6AXH@ZXZ 1007fe70 f i libucrtd:signal.obj
 0001:0007ee90       ___acrt_get_sigabrt_handler 1007fe90 f   libucrtd:signal.obj
 0001:0007eeb0       ___acrt_initialize_signal_handlers 1007feb0 f   libucrtd:signal.obj
 0001:0007eef0       ___fpecode                 1007fef0 f   libucrtd:signal.obj
 0001:0007ef00       ___pxcptinfoptrs           1007ff00 f   libucrtd:signal.obj
 0001:0007ef10       _raise                     1007ff10 f   libucrtd:signal.obj
 0001:0007f2e0       _signal                    100802e0 f   libucrtd:signal.obj
 0001:0007f560       __msize                    10080560 f   libucrtd:msize.obj
 0001:0007f580       __msize_base               10080580 f   libucrtd:msize.obj
 0001:0007f620       __realloc_base             10080620 f   libucrtd:realloc_base.obj
 0001:0007f6e0       ??$?B$$A6GHPA_WKJ@Z@__crt_fast_encoded_nullptr_t@@QBEP6GHPA_WKJ@ZXZ 100806e0 f i libucrtd:winapi_thunks.obj
 0001:0007f7d0       ??$__crt_fast_decode_pointer@P6GHPA_WKJ@Z@@YAP6GHPA_WKJ@ZQ6GH0KJ@Z@Z 100807d0 f i libucrtd:winapi_thunks.obj
 0001:0007f800       ??$__crt_fast_decode_pointer@PAX@@YAPAXQAX@Z 10080800 f i libucrtd:winapi_thunks.obj
 0001:0007f830       ??$__crt_fast_encode_pointer@P6GHPA_WKJ@Z@@YAP6GHPA_WKJ@ZQ6GH0KJ@Z@Z 10080830 f i libucrtd:winapi_thunks.obj
 0001:00080190       _GetCurrentThreadEffectiveToken 10081190 f i libucrtd:winapi_thunks.obj
 0001:000801a0       ___acrt_AppPolicyGetProcessTerminationMethodInternal@4 100811a0 f   libucrtd:winapi_thunks.obj
 0001:000801e0       ___acrt_AppPolicyGetShowDeveloperDiagnosticInternal@4 100811e0 f   libucrtd:winapi_thunks.obj
 0001:00080220       ___acrt_AppPolicyGetThreadInitializationTypeInternal@4 10081220 f   libucrtd:winapi_thunks.obj
 0001:00080260       ___acrt_AppPolicyGetWindowingModelInternal@4 10081260 f   libucrtd:winapi_thunks.obj
 0001:000802a0       ___acrt_AreFileApisANSI@0  100812a0 f   libucrtd:winapi_thunks.obj
 0001:000802e0       ___acrt_CompareStringEx@36 100812e0 f   libucrtd:winapi_thunks.obj
 0001:00080360       ___acrt_EnumSystemLocalesEx@16 10081360 f   libucrtd:winapi_thunks.obj
 0001:000803c0       ___acrt_FlsAlloc@4         100813c0 f   libucrtd:winapi_thunks.obj
 0001:00080400       ___acrt_FlsFree@4          10081400 f   libucrtd:winapi_thunks.obj
 0001:00080440       ___acrt_FlsGetValue@4      10081440 f   libucrtd:winapi_thunks.obj
 0001:00080480       ___acrt_FlsSetValue@8      10081480 f   libucrtd:winapi_thunks.obj
 0001:000804d0       ___acrt_GetDateFormatEx@28 100814d0 f   libucrtd:winapi_thunks.obj
 0001:00080550       ___acrt_GetEnabledXStateFeatures@0 10081550 f   libucrtd:winapi_thunks.obj
 0001:00080590       ___acrt_GetLocaleInfoEx@16 10081590 f   libucrtd:winapi_thunks.obj
 0001:000805f0       ___acrt_GetSystemTimePreciseAsFileTime@4 100815f0 f   libucrtd:winapi_thunks.obj
 0001:00080630       ___acrt_GetTimeFormatEx@24 10081630 f   libucrtd:winapi_thunks.obj
 0001:000806a0       ___acrt_GetUserDefaultLocaleName@8 100816a0 f   libucrtd:winapi_thunks.obj
 0001:000806f0       ___acrt_GetXStateFeaturesMask@8 100816f0 f   libucrtd:winapi_thunks.obj
 0001:00080730       ___acrt_InitializeCriticalSectionEx@12 10081730 f   libucrtd:winapi_thunks.obj
 0001:00080780       ___acrt_IsValidLocaleName@4 10081780 f   libucrtd:winapi_thunks.obj
 0001:000807d0       ___acrt_LCIDToLocaleName@16 100817d0 f   libucrtd:winapi_thunks.obj
 0001:00080830       ___acrt_LCMapStringEx@36   10081830 f   libucrtd:winapi_thunks.obj
 0001:000808b0       ___acrt_LocaleNameToLCID@8 100818b0 f   libucrtd:winapi_thunks.obj
 0001:00080900       ___acrt_LocateXStateFeature@12 10081900 f   libucrtd:winapi_thunks.obj
 0001:00080950       ___acrt_MessageBoxA@16     10081950 f   libucrtd:winapi_thunks.obj
 0001:000809a0       ___acrt_MessageBoxW@16     100819a0 f   libucrtd:winapi_thunks.obj
 0001:000809f0       ___acrt_RoInitialize@4     100819f0 f   libucrtd:winapi_thunks.obj
 0001:00080a30       ___acrt_RoUninitialize@0   10081a30 f   libucrtd:winapi_thunks.obj
 0001:00080a60       ___acrt_RtlGenRandom@8     10081a60 f   libucrtd:winapi_thunks.obj
 0001:00080aa0       ___acrt_SetThreadStackGuarantee@4 10081aa0 f   libucrtd:winapi_thunks.obj
 0001:00080ae0       ___acrt_can_show_message_box 10081ae0 f   libucrtd:winapi_thunks.obj
 0001:00080b20       ___acrt_can_use_vista_locale_apis 10081b20 f   libucrtd:winapi_thunks.obj
 0001:00080b50       ___acrt_can_use_xstate_apis 10081b50 f   libucrtd:winapi_thunks.obj
 0001:00080b80       ___acrt_eagerly_load_locale_apis 10081b80 f   libucrtd:winapi_thunks.obj
 0001:00080bc0       ___acrt_get_parent_window  10081bc0 f   libucrtd:winapi_thunks.obj
 0001:00080c30       ___acrt_initialize_winapi_thunks 10081c30 f   libucrtd:winapi_thunks.obj
 0001:00080ca0       ___acrt_is_interactive     10081ca0 f   libucrtd:winapi_thunks.obj
 0001:00080d50       ___acrt_uninitialize_winapi_thunks 10081d50 f   libucrtd:winapi_thunks.obj
 0001:00080dc0       __chvalidator              10081dc0 f   libucrtd:isctype.obj
 0001:00080e10       __chvalidator_l            10081e10 f   libucrtd:isctype.obj
 0001:00080e90       __isctype                  10081e90 f   libucrtd:isctype.obj
 0001:00080ed0       __isctype_l                10081ed0 f   libucrtd:isctype.obj
 0001:00081050       __isleadbyte_fast_internal 10082050 f i libucrtd:isctype.obj
 0001:00081070       ??$?RU__crt_stdio_stream_data@@@__crt_internal_free_policy@@QBEXQBU__crt_stdio_stream_data@@@Z 10082070 f i libucrtd:stream.obj
 0001:00081090       ??0?$__crt_unique_heap_ptr@U__crt_stdio_stream_data@@U__crt_internal_free_policy@@@@QAE@QAU__crt_stdio_stream_data@@@Z 10082090 f i libucrtd:stream.obj
 0001:000810b0       ??0__crt_stdio_stream@@QAE@QAU__crt_stdio_stream_data@@@Z 100820b0 f i libucrtd:stream.obj
 0001:000810d0       ??0__crt_stdio_stream@@QAE@XZ 100820d0 f i libucrtd:stream.obj
 0001:000810f0       ??1?$__crt_unique_heap_ptr@U__crt_stdio_stream_data@@U__crt_internal_free_policy@@@@QAE@XZ 100820f0 f i libucrtd:stream.obj
 0001:00081110       ?__acrt_stdio_allocate_stream@@YA?AV__crt_stdio_stream@@XZ 10082110 f   libucrtd:stream.obj
 0001:00081200       ?__acrt_stdio_free_stream@@YAXV__crt_stdio_stream@@@Z 10082200 f   libucrtd:stream.obj
 0001:00081280       ?deallocate@__crt_stdio_stream@@QAEXXZ 10082280 f i libucrtd:stream.obj
 0001:000812a0       ?detach@?$__crt_unique_heap_ptr@U__crt_stdio_stream_data@@U__crt_internal_free_policy@@@@QAEPAU__crt_stdio_stream_data@@XZ 100822a0 f i libucrtd:stream.obj
 0001:00081410       ?lock@__crt_stdio_stream@@QBEXXZ 10082410 f i libucrtd:stream.obj
 0001:00081430       ?release@?$__crt_unique_heap_ptr@U__crt_stdio_stream_data@@U__crt_internal_free_policy@@@@QAEXXZ 10082430 f i libucrtd:stream.obj
 0001:00081460       ?try_allocate@__crt_stdio_stream@@QAE_NXZ 10082460 f i libucrtd:stream.obj
 0001:000814b0       ??$__acrt_stdio_parse_mode@D@@YA?AU__acrt_stdio_stream_mode@@QBD@Z 100824b0 f i libucrtd:openfile.obj
 0001:00081d20       ??$__acrt_stdio_parse_mode@_W@@YA?AU__acrt_stdio_stream_mode@@QB_W@Z 10082d20 f i libucrtd:openfile.obj
 0001:000828b0       ??$tcsncmp@AAPBDAAY02$$CBDI@?$__crt_char_traits@D@@SAHAAPBDAAY02$$CBD$$QAI@Z 100838b0 f i libucrtd:openfile.obj
 0001:000828d0       ??$tcsncmp@AAPB_WAAY02$$CB_WI@?$__crt_char_traits@_W@@SAHAAPB_WAAY02$$CB_W$$QAI@Z 100838d0 f i libucrtd:openfile.obj
 0001:000828f0       ??$tcsnicmp@AAPBDAAY04$$CBDI@?$__crt_char_traits@D@@SAHAAPBDAAY04$$CBD$$QAI@Z 100838f0 f i libucrtd:openfile.obj
 0001:00082910       ??$tcsnicmp@AAPBDAAY06$$CBDI@?$__crt_char_traits@D@@SAHAAPBDAAY06$$CBD$$QAI@Z 10083910 f i libucrtd:openfile.obj
 0001:00082930       ??$tcsnicmp@AAPBDAAY07$$CBDI@?$__crt_char_traits@D@@SAHAAPBDAAY07$$CBD$$QAI@Z 10083930 f i libucrtd:openfile.obj
 0001:00082950       ??$tcsnicmp@AAPB_WAAY04$$CB_WI@?$__crt_char_traits@_W@@SAHAAPB_WAAY04$$CB_W$$QAI@Z 10083950 f i libucrtd:openfile.obj
 0001:00082970       ??$tcsnicmp@AAPB_WAAY06$$CB_WI@?$__crt_char_traits@_W@@SAHAAPB_WAAY06$$CB_W$$QAI@Z 10083970 f i libucrtd:openfile.obj
 0001:00082990       ??$tcsnicmp@AAPB_WAAY07$$CB_WI@?$__crt_char_traits@_W@@SAHAAPB_WAAY07$$CB_W$$QAI@Z 10083990 f i libucrtd:openfile.obj
 0001:000829b0       ??$tsopen_s@PAHABQBDABHABHH@?$__crt_char_traits@D@@SAH$$QAPAHABQBDABH2$$QAH@Z 100839b0 f i libucrtd:openfile.obj
 0001:000829e0       ??$tsopen_s@PAHABQB_WABHABHH@?$__crt_char_traits@_W@@SAH$$QAPAHABQB_WABH2$$QAH@Z 100839e0 f i libucrtd:openfile.obj
 0001:00082a10       ?__acrt_stdio_parse_mode_D@@YA_NAAU__acrt_stdio_stream_mode@@@Z 10083a10 f i libucrtd:openfile.obj
 0001:00082a40       ?__acrt_stdio_parse_mode_N@@YA_NAAU__acrt_stdio_stream_mode@@@Z 10083a40 f i libucrtd:openfile.obj
 0001:00082a60       ?__acrt_stdio_parse_mode_R@@YA_NAAU__acrt_stdio_stream_mode@@AA_N@Z 10083a60 f i libucrtd:openfile.obj
 0001:00082a90       ?__acrt_stdio_parse_mode_S@@YA_NAAU__acrt_stdio_stream_mode@@AA_N@Z 10083a90 f i libucrtd:openfile.obj
 0001:00082ac0       ?__acrt_stdio_parse_mode_T@@YA_NAAU__acrt_stdio_stream_mode@@@Z 10083ac0 f i libucrtd:openfile.obj
 0001:00082af0       ?__acrt_stdio_parse_mode_b@@YA_NAAU__acrt_stdio_stream_mode@@@Z 10083af0 f i libucrtd:openfile.obj
 0001:00082b20       ?__acrt_stdio_parse_mode_c@@YA_NAAU__acrt_stdio_stream_mode@@AA_N@Z 10083b20 f i libucrtd:openfile.obj
 0001:00082b50       ?__acrt_stdio_parse_mode_n@@YA_NAAU__acrt_stdio_stream_mode@@AA_N@Z 10083b50 f i libucrtd:openfile.obj
 0001:00082b80       ?__acrt_stdio_parse_mode_plus@@YA_NAAU__acrt_stdio_stream_mode@@AA_N@Z 10083b80 f i libucrtd:openfile.obj
 0001:00082bf0       ?__acrt_stdio_parse_mode_t@@YA_NAAU__acrt_stdio_stream_mode@@@Z 10083bf0 f i libucrtd:openfile.obj
 0001:00082c20       ?__acrt_stdio_parse_mode_x@@YA_NAAU__acrt_stdio_stream_mode@@@Z 10083c20 f i libucrtd:openfile.obj
 0001:00082c50       __openfile                 10083c50 f   libucrtd:openfile.obj
 0001:00082c80       __wopenfile                10083c80 f   libucrtd:openfile.obj
 0001:00082f60       __close                    10083f60 f   libucrtd:close.obj
 0001:000830e0       __close_nolock             100840e0 f   libucrtd:close.obj
 0001:00083140       ?has_crt_buffer@__crt_stdio_stream@@QBE_NXZ 10084140 f i libucrtd:_freebuf.obj
 0001:00083160       ___acrt_stdio_free_buffer_nolock 10084160 f   libucrtd:_freebuf.obj
 0001:000837c0       ?__acrt_stdio_reset_buffer@@YAXV__crt_stdio_stream@@@Z 100847c0 f i libucrtd:fflush.obj
 0001:000838c0       ?has_all_of@__crt_stdio_stream@@QBE_NJ@Z 100848c0 f i libucrtd:fflush.obj
 0001:00083990       ___acrt_stdio_flush_nolock 10084990 f   libucrtd:fflush.obj
 0001:00083a60       __fflush_nolock            10084a60 f   libucrtd:fflush.obj
 0001:00083ae0       __flushall                 10084ae0 f   libucrtd:fflush.obj
 0001:00083b00       _fflush                    10084b00 f   libucrtd:fflush.obj
 0001:000842b0       ?has_big_buffer@__crt_stdio_stream@@QBE_NXZ 100852b0 f i libucrtd:_flsbuf.obj
 0001:000843b0       ___acrt_stdio_flush_and_write_narrow_nolock 100853b0 f   libucrtd:_flsbuf.obj
 0001:000843e0       ___acrt_stdio_flush_and_write_wide_nolock 100853e0 f   libucrtd:_flsbuf.obj
 0001:00084710       ___acrt_get_begin_thread_init_policy 10085710 f   libucrtd:win_policies.obj
 0001:00084730       ___acrt_get_developer_information_policy 10085730 f   libucrtd:win_policies.obj
 0001:00084750       ___acrt_get_process_end_policy 10085750 f   libucrtd:win_policies.obj
 0001:00084770       ___acrt_get_windowing_model_policy 10085770 f   libucrtd:win_policies.obj
 0001:00084a40       ??$__acrt_mbs_to_wcs_cp@U__crt_win32_buffer_internal_dynamic_resizing@@@@YAHQBDAAV?$__crt_win32_buffer@_WU__crt_win32_buffer_internal_dynamic_resizing@@@@I@Z 10085a40 f i libucrtd:argv_wildcards.obj
 0001:00084a70       ??$__acrt_wcs_to_mbs_cp@U__crt_win32_buffer_internal_dynamic_resizing@@@@YAHQB_WAAV?$__crt_win32_buffer@DU__crt_win32_buffer_internal_dynamic_resizing@@@@I@Z 10085a70 f i libucrtd:argv_wildcards.obj
 0001:000859c0       ??$tcsncpy_s@AAPADIAAPADABI@?$__crt_char_traits@D@@SAHAAPAD$$QAI0ABI@Z 100869c0 f i libucrtd:argv_wildcards.obj
 0001:000859f0       ??$tcsncpy_s@AAPA_WIAAPA_WABI@?$__crt_char_traits@_W@@SAHAAPA_W$$QAI0ABI@Z 100869f0 f i libucrtd:argv_wildcards.obj
 0001:00085a20       ??$tcsncpy_s@PADABIABQBDABI@?$__crt_char_traits@D@@SAH$$QAPADABIABQBD1@Z 10086a20 f i libucrtd:argv_wildcards.obj
 0001:00085a50       ??$tcsncpy_s@PADIABQBDABI@?$__crt_char_traits@D@@SAH$$QAPAD$$QAIABQBDABI@Z 10086a50 f i libucrtd:argv_wildcards.obj
 0001:00085a80       ??$tcsncpy_s@PA_WABIABQB_WABI@?$__crt_char_traits@_W@@SAH$$QAPA_WABIABQB_W1@Z 10086a80 f i libucrtd:argv_wildcards.obj
 0001:00085ab0       ??$tcsncpy_s@PA_WIABQB_WABI@?$__crt_char_traits@_W@@SAH$$QAPA_W$$QAIABQB_WABI@Z 10086ab0 f i libucrtd:argv_wildcards.obj
 0001:00085ae0       ??$tcspbrk@AAPADAAY02$$CBD@?$__crt_char_traits@D@@SAPADAAPADAAY02$$CBD@Z 10086ae0 f i libucrtd:argv_wildcards.obj
 0001:00085b00       ??$tcspbrk@AAPA_WAAY02$$CB_W@?$__crt_char_traits@_W@@SAPA_WAAPA_WAAY02$$CB_W@Z 10086b00 f i libucrtd:argv_wildcards.obj
 0001:00085b20       ??0?$__crt_unique_handle_t@U__crt_findfile_traits@@@@QAE@QAX@Z 10086b20 f i libucrtd:argv_wildcards.obj
 0001:00085b40       ??0?$__crt_win32_buffer@DU__crt_win32_buffer_internal_dynamic_resizing@@@@QAE@XZ 10086b40 f i libucrtd:argv_wildcards.obj
 0001:00085b90       ??0?$__crt_win32_buffer@_WU__crt_win32_buffer_internal_dynamic_resizing@@@@QAE@XZ 10086b90 f i libucrtd:argv_wildcards.obj
 0001:00085c40       ??1?$__crt_unique_handle_t@U__crt_findfile_traits@@@@QAE@XZ 10086c40 f i libucrtd:argv_wildcards.obj
 0001:00085c60       ??1?$__crt_win32_buffer@DU__crt_win32_buffer_internal_dynamic_resizing@@@@QAE@XZ 10086c60 f i libucrtd:argv_wildcards.obj
 0001:00085ca0       ??1?$__crt_win32_buffer@_WU__crt_win32_buffer_internal_dynamic_resizing@@@@QAE@XZ 10086ca0 f i libucrtd:argv_wildcards.obj
 0001:00085f00       ?_deallocate@?$__crt_win32_buffer@DU__crt_win32_buffer_internal_dynamic_resizing@@@@AAEXXZ 10086f00 f i libucrtd:argv_wildcards.obj
 0001:00085f40       ?_deallocate@?$__crt_win32_buffer@_WU__crt_win32_buffer_internal_dynamic_resizing@@@@AAEXXZ 10086f40 f i libucrtd:argv_wildcards.obj
 0001:00085f80       ?allocate@?$__crt_win32_buffer@DU__crt_win32_buffer_internal_dynamic_resizing@@@@QAEHI@Z 10086f80 f i libucrtd:argv_wildcards.obj
 0001:00085ff0       ?allocate@?$__crt_win32_buffer@_WU__crt_win32_buffer_internal_dynamic_resizing@@@@QAEHI@Z 10086ff0 f i libucrtd:argv_wildcards.obj
 0001:00086060       ?allocate@__crt_win32_buffer_internal_dynamic_resizing@@SAHQAPAXIABV__crt_win32_buffer_empty_debug_info@@@Z 10087060 f i libucrtd:argv_wildcards.obj
 0001:000861a0       ?capacity@?$__crt_win32_buffer@DU__crt_win32_buffer_internal_dynamic_resizing@@@@QBEIXZ 100871a0 f i libucrtd:argv_wildcards.obj
 0001:000861c0       ?capacity@?$__crt_win32_buffer@_WU__crt_win32_buffer_internal_dynamic_resizing@@@@QBEIXZ 100871c0 f i libucrtd:argv_wildcards.obj
 0001:000861e0       ?close@?$__crt_unique_handle_t@U__crt_findfile_traits@@@@QAEXXZ 100871e0 f i libucrtd:argv_wildcards.obj
 0001:00086220       ?close@__crt_findfile_traits@@SA_NPAX@Z 10087220 f i libucrtd:argv_wildcards.obj
 0001:00086250       ?data@?$__crt_win32_buffer@DU__crt_win32_buffer_internal_dynamic_resizing@@@@QAEPADXZ 10087250 f i libucrtd:argv_wildcards.obj
 0001:00086270       ?data@?$__crt_win32_buffer@_WU__crt_win32_buffer_internal_dynamic_resizing@@@@QAEPA_WXZ 10087270 f i libucrtd:argv_wildcards.obj
 0001:00086290       ?deallocate@__crt_win32_buffer_internal_dynamic_resizing@@SAXQAXABV__crt_win32_buffer_empty_debug_info@@@Z 10087290 f i libucrtd:argv_wildcards.obj
 0001:000862b0       ?debug_info@?$__crt_win32_buffer@DU__crt_win32_buffer_internal_dynamic_resizing@@@@QBEABV__crt_win32_buffer_empty_debug_info@@XZ 100872b0 f i libucrtd:argv_wildcards.obj
 0001:000862c0       ?debug_info@?$__crt_win32_buffer@_WU__crt_win32_buffer_internal_dynamic_resizing@@@@QBEABV__crt_win32_buffer_empty_debug_info@@XZ 100872c0 f i libucrtd:argv_wildcards.obj
 0001:000865d0       ?get@?$__crt_unique_handle_t@U__crt_findfile_traits@@@@QBEPAXXZ 100875d0 f i libucrtd:argv_wildcards.obj
 0001:00086640       ?get_invalid_value@__crt_findfile_traits@@SAPAXXZ 10087640 f i libucrtd:argv_wildcards.obj
 0001:000866d0       ?set_to_nullptr@?$__crt_win32_buffer@DU__crt_win32_buffer_internal_dynamic_resizing@@@@QAEXXZ 100876d0 f i libucrtd:argv_wildcards.obj
 0001:00086710       ?set_to_nullptr@?$__crt_win32_buffer@_WU__crt_win32_buffer_internal_dynamic_resizing@@@@QAEXXZ 10087710 f i libucrtd:argv_wildcards.obj
 0001:00086750       ?size@?$__crt_win32_buffer@DU__crt_win32_buffer_internal_dynamic_resizing@@@@QAEXI@Z 10087750 f i libucrtd:argv_wildcards.obj
 0001:00086770       ?size@?$__crt_win32_buffer@_WU__crt_win32_buffer_internal_dynamic_resizing@@@@QAEXI@Z 10087770 f i libucrtd:argv_wildcards.obj
 0001:000867d0       ?strpbrk@@YAPADQADQBD@Z    100877d0 f i libucrtd:argv_wildcards.obj
 0001:000867f0       ?wcspbrk@@YAPA_WPA_WPB_W@Z 100877f0 f i libucrtd:argv_wildcards.obj
 0001:00086810       ___acrt_expand_narrow_argv_wildcards 10087810 f   libucrtd:argv_wildcards.obj
 0001:00086830       ___acrt_expand_wide_argv_wildcards 10087830 f   libucrtd:argv_wildcards.obj
 0001:00086910       ??$initialize_from_array@$$BY10BAA@E@?$dual_state_global@PAE@__crt_state_management@@QAAXAAY10BAA@E@Z 10087910 f i libucrtd:mbctype.obj
 0001:00086960       ??$initialize_from_array@$$BY10BAB@E@?$dual_state_global@PAE@__crt_state_management@@QAAXAAY10BAB@E@Z 10087960 f i libucrtd:mbctype.obj
 0001:00086bd0       ?dangerous_get_state_array@?$dual_state_global@PAE@__crt_state_management@@QAEPAPAEXZ 10087bd0 f i libucrtd:mbctype.obj
 0001:00086be0       ?dangerous_get_state_array@?$dual_state_global@PAU__crt_multibyte_data@@@__crt_state_management@@QAEPAPAU__crt_multibyte_data@@XZ 10087be0 f i libucrtd:mbctype.obj
 0001:00086cb0       ?initialize@?$dual_state_global@PAU__crt_multibyte_data@@@__crt_state_management@@QAEXQAU__crt_multibyte_data@@@Z 10087cb0 f i libucrtd:mbctype.obj
 0001:00087410       ?value@?$dual_state_global@PAE@__crt_state_management@@QAEAAPAEXZ 10088410 f i libucrtd:mbctype.obj
 0001:00087430       ___acrt_initialize_multibyte 10088430 f   libucrtd:mbctype.obj
 0001:000874e0       ___acrt_update_thread_multibyte_data 100884e0 f   libucrtd:mbctype.obj
 0001:00087500       ___p__mbcasemap            10088500 f   libucrtd:mbctype.obj
 0001:00087520       ___p__mbctype              10088520 f   libucrtd:mbctype.obj
 0001:00087540       __getmbcp                  10088540 f   libucrtd:mbctype.obj
 0001:000875b0       __setmbcp                  100885b0 f   libucrtd:mbctype.obj
 0001:000875e0       __setmbcp_nolock           100885e0 f   libucrtd:mbctype.obj
 0001:00087b51       __ismbbalnum               10088b51 f   libucrtd:ismbbyte.obj
 0001:00087b6c       __ismbbalnum_l             10088b6c f   libucrtd:ismbbyte.obj
 0001:00087b88       __ismbbalpha               10088b88 f   libucrtd:ismbbyte.obj
 0001:00087ba3       __ismbbalpha_l             10088ba3 f   libucrtd:ismbbyte.obj
 0001:00087bbf       __ismbbblank               10088bbf f   libucrtd:ismbbyte.obj
 0001:00087be2       __ismbbblank_l             10088be2 f   libucrtd:ismbbyte.obj
 0001:00087c06       __ismbbgraph               10088c06 f   libucrtd:ismbbyte.obj
 0001:00087c21       __ismbbgraph_l             10088c21 f   libucrtd:ismbbyte.obj
 0001:00087c3d       __ismbbkalnum              10088c3d f   libucrtd:ismbbyte.obj
 0001:00087c55       __ismbbkalnum_l            10088c55 f   libucrtd:ismbbyte.obj
 0001:00087c6e       __ismbbkana                10088c6e f   libucrtd:ismbbyte.obj
 0001:00087c81       __ismbbkana_l              10088c81 f   libucrtd:ismbbyte.obj
 0001:00087cd0       __ismbbkprint              10088cd0 f   libucrtd:ismbbyte.obj
 0001:00087ce8       __ismbbkprint_l            10088ce8 f   libucrtd:ismbbyte.obj
 0001:00087d01       __ismbbkpunct              10088d01 f   libucrtd:ismbbyte.obj
 0001:00087d19       __ismbbkpunct_l            10088d19 f   libucrtd:ismbbyte.obj
 0001:00087d32       __ismbblead                10088d32 f   libucrtd:ismbbyte.obj
 0001:00087d4a       __ismbblead_l              10088d4a f   libucrtd:ismbbyte.obj
 0001:00087d63       __ismbbprint               10088d63 f   libucrtd:ismbbyte.obj
 0001:00087d7e       __ismbbprint_l             10088d7e f   libucrtd:ismbbyte.obj
 0001:00087d9a       __ismbbpunct               10088d9a f   libucrtd:ismbbyte.obj
 0001:00087db2       __ismbbpunct_l             10088db2 f   libucrtd:ismbbyte.obj
 0001:00087dcb       __ismbbtrail               10088dcb f   libucrtd:ismbbyte.obj
 0001:00087de3       __ismbbtrail_l             10088de3 f   libucrtd:ismbbyte.obj
 0001:00087e00       ___acrt_initialize_command_line 10088e00 f   libucrtd:argv_data.obj
 0001:00087e20       ___acrt_uninitialize_command_line 10088e20 f   libucrtd:argv_data.obj
 0001:00087e30       ___p___argc                10088e30 f   libucrtd:argv_data.obj
 0001:00087e40       ___p___argv                10088e40 f   libucrtd:argv_data.obj
 0001:00087e50       ___p___wargv               10088e50 f   libucrtd:argv_data.obj
 0001:00087e60       ___p__acmdln               10088e60 f   libucrtd:argv_data.obj
 0001:00087e70       ___p__pgmptr               10088e70 f   libucrtd:argv_data.obj
 0001:00087e80       ___p__wcmdln               10088e80 f   libucrtd:argv_data.obj
 0001:00087e90       ___p__wpgmptr              10088e90 f   libucrtd:argv_data.obj
 0001:00087ea0       __get_pgmptr               10088ea0 f   libucrtd:argv_data.obj
 0001:00087fb0       __get_wpgmptr              10088fb0 f   libucrtd:argv_data.obj
 0001:00088170       ___acrt_MultiByteToWideChar 10089170 f   libucrtd:multibytetowidechar.obj
 0001:00088270       ___acrt_WideCharToMultiByte 10089270 f   libucrtd:widechartomultibyte.obj
 0001:000883b2       ___dcrt_get_narrow_environment_from_os 100893b2 f   libucrtd:get_environment_from_os.obj
 0001:00088444       ___dcrt_get_wide_environment_from_os 10089444 f   libucrtd:get_environment_from_os.obj
 0001:00088dd9       ??$get_or_create_environment_nolock@$$V@?$__crt_char_traits@D@@SAPAPADXZ 10089dd9 f i libucrtd:setenv.obj
 0001:00088dde       ??$get_or_create_environment_nolock@$$V@?$__crt_char_traits@_W@@SAPAPA_WXZ 10089dde f i libucrtd:setenv.obj
 0001:00088de3       ??$set_environment_variable@ABQADQAD@?$__crt_char_traits@D@@SAHABQAD$$QBQAD@Z 10089de3 f i libucrtd:setenv.obj
 0001:00088dfb       ??$set_environment_variable@ABQA_WQA_W@?$__crt_char_traits@_W@@SAHABQA_W$$QBQA_W@Z 10089dfb f i libucrtd:setenv.obj
 0001:00088e12       ??$tcschr@ABQADD@?$__crt_char_traits@D@@SAPADABQAD$$QAD@Z 10089e12 f i libucrtd:setenv.obj
 0001:00088e2c       ??$tcschr@ABQA_WD@?$__crt_char_traits@_W@@SAPA_WABQA_W$$QAD@Z 10089e2c f i libucrtd:setenv.obj
 0001:00088e4a       ??$tcscpy_s@AAPADABIAAPAD@?$__crt_char_traits@D@@SAHAAPADABI0@Z 10089e4a f i libucrtd:setenv.obj
 0001:00088e68       ??$tcscpy_s@AAPA_WABIAAPA_W@?$__crt_char_traits@_W@@SAHAAPA_WABI0@Z 10089e68 f i libucrtd:setenv.obj
 0001:00088e86       ??$tcscpy_s@ABQADABIABQAD@?$__crt_char_traits@D@@SAHABQADABI0@Z 10089e86 f i libucrtd:setenv.obj
 0001:00088ea4       ??$tcscpy_s@ABQA_WABIABQA_W@?$__crt_char_traits@_W@@SAHABQA_WABI0@Z 10089ea4 f i libucrtd:setenv.obj
 0001:00088ec2       ??$tcslen@ABQAD@?$__crt_char_traits@D@@SAIABQAD@Z 10089ec2 f i libucrtd:setenv.obj
 0001:00088eda       ??$tcslen@ABQA_W@?$__crt_char_traits@_W@@SAIABQA_W@Z 10089eda f i libucrtd:setenv.obj
 0001:00088ef8       ??$tcsnicoll@ABQBDAAPADABI@?$__crt_char_traits@D@@SAHABQBDAAPADABI@Z 10089ef8 f i libucrtd:setenv.obj
 0001:00088f16       ??$tcsnicoll@ABQB_WAAPA_WABI@?$__crt_char_traits@_W@@SAHABQB_WAAPA_WABI@Z 10089f16 f i libucrtd:setenv.obj
 0001:00088f34       ??$tcsnlen@PADH@?$__crt_char_traits@D@@SAI$$QAPAD$$QAH@Z 10089f34 f i libucrtd:setenv.obj
 0001:00088f4c       ??$tcsnlen@PA_WH@?$__crt_char_traits@_W@@SAI$$QAPA_W$$QAH@Z 10089f4c f i libucrtd:setenv.obj
 0001:00088f88       ?strchr@@YAPADQADH@Z       10089f88 f i libucrtd:setenv.obj
 0001:00088f93       ?wcschr@@YAPA_WPA_W_W@Z    10089f93 f i libucrtd:setenv.obj
 0001:00088f9e       ___dcrt_set_variable_in_narrow_environment_nolock 10089f9e f   libucrtd:setenv.obj
 0001:00088fa9       ___dcrt_set_variable_in_wide_environment_nolock 10089fa9 f   libucrtd:setenv.obj
 0001:00088fc0       ___acrt_getheap            10089fc0 f   libucrtd:heap_handle.obj
 0001:00089000       ___acrt_initialize_heap    1008a000 f   libucrtd:heap_handle.obj
 0001:00089030       ___acrt_uninitialize_heap  1008a030 f   libucrtd:heap_handle.obj
 0001:00089050       __get_heap_handle          1008a050 f   libucrtd:heap_handle.obj
 0001:00089090       ___acrt_execute_initializers 1008a090 f   libucrtd:shared_initialization.obj
 0001:00089140       ___acrt_execute_uninitializers 1008a140 f   libucrtd:shared_initialization.obj
 0001:000891a0       ??$__crt_fast_decode_pointer@P6AHPAU_exception@@@Z@@YAP6AHPAU_exception@@@ZQ6AH0@Z@Z 1008a1a0 f i libucrtd:matherr.obj
 0001:000891d0       ??$__crt_fast_encode_pointer@P6AHPAU_exception@@@Z@@YAP6AHPAU_exception@@@ZQ6AH0@Z@Z 1008a1d0 f i libucrtd:matherr.obj
 0001:00089200       ?initialize@?$dual_state_global@P6AHPAU_exception@@@Z@__crt_state_management@@QAEXQ6AHPAU_exception@@@Z@Z 1008a200 f i libucrtd:matherr.obj
 0001:00089240       ?value@?$dual_state_global@P6AHPAU_exception@@@Z@__crt_state_management@@QAEAAP6AHPAU_exception@@@ZXZ 1008a240 f i libucrtd:matherr.obj
 0001:00089260       ___acrt_has_user_matherr   1008a260 f   libucrtd:matherr.obj
 0001:000892a0       ___acrt_initialize_user_matherr 1008a2a0 f   libucrtd:matherr.obj
 0001:000892c0       ___acrt_invoke_user_matherr 1008a2c0 f   libucrtd:matherr.obj
 0001:00089310       ___setusermatherr          1008a310 f   libucrtd:matherr.obj
 0001:00089350       __free_base                1008a350 f   libucrtd:free_base.obj
 0001:00089400       __expand                   1008a400 f   libucrtd:expand.obj
 0001:00089420       __expand_base              1008a420 f   libucrtd:expand.obj
 0001:00089550       ?value@?$dual_state_global@J@__crt_state_management@@QAEAAJXZ 1008a550 f i libucrtd:new_mode.obj
 0001:00089570       __query_new_mode           1008a570 f   libucrtd:new_mode.obj
 0001:00089590       __set_new_mode             1008a590 f   libucrtd:new_mode.obj
 0001:00089630       __CrtDefaultAllocHook      1008a630 f   libucrtd:debug_heap_hook.obj
 0001:0008963c       __mbsdec                   1008a63c f   libucrtd:mbsdec.obj
 0001:00089653       __mbsdec_l                 1008a653 f   libucrtd:mbsdec.obj
 0001:00089b40       _strncpy_s                 1008ab40 f   libucrtd:strncpy_s.obj
 0001:00089d10       ___acrt_report_runtime_error 1008ad10 f   libucrtd:report_runtime_error.obj
 0001:00089f00       __query_app_type           1008af00 f   libucrtd:report_runtime_error.obj
 0001:00089f10       __set_app_type             1008af10 f   libucrtd:report_runtime_error.obj
 0001:00089f20       __iswctype_l               1008af20 f   libucrtd:iswctype.obj
 0001:00089f40       _iswctype                  1008af40 f   libucrtd:iswctype.obj
 0001:00089fb0       ___iswcsym                 1008afb0 f i libucrtd:_wctype.obj
 0001:00089ff0       ___iswcsymf                1008aff0 f i libucrtd:_wctype.obj
 0001:0008a030       __isleadbyte_l             1008b030 f i libucrtd:_wctype.obj
 0001:0008a080       __iswalnum_l               1008b080 f i libucrtd:_wctype.obj
 0001:0008a0a0       __iswalpha_l               1008b0a0 f i libucrtd:_wctype.obj
 0001:0008a0c0       __iswblank_l               1008b0c0 f i libucrtd:_wctype.obj
 0001:0008a100       __iswcntrl_l               1008b100 f i libucrtd:_wctype.obj
 0001:0008a120       __iswcsym_l                1008b120 f i libucrtd:_wctype.obj
 0001:0008a160       __iswcsymf_l               1008b160 f i libucrtd:_wctype.obj
 0001:0008a1a0       __iswdigit_l               1008b1a0 f i libucrtd:_wctype.obj
 0001:0008a1c0       __iswgraph_l               1008b1c0 f i libucrtd:_wctype.obj
 0001:0008a1e0       __iswlower_l               1008b1e0 f i libucrtd:_wctype.obj
 0001:0008a200       __iswprint_l               1008b200 f i libucrtd:_wctype.obj
 0001:0008a220       __iswpunct_l               1008b220 f i libucrtd:_wctype.obj
 0001:0008a240       __iswspace_l               1008b240 f i libucrtd:_wctype.obj
 0001:0008a260       __iswupper_l               1008b260 f i libucrtd:_wctype.obj
 0001:0008a280       __iswxdigit_l              1008b280 f i libucrtd:_wctype.obj
 0001:0008a2a0       _isleadbyte                1008b2a0 f i libucrtd:_wctype.obj
 0001:0008a2c0       _iswalnum                  1008b2c0 f i libucrtd:_wctype.obj
 0001:0008a2e0       _iswalpha                  1008b2e0 f i libucrtd:_wctype.obj
 0001:0008a300       _iswascii                  1008b300 f i libucrtd:_wctype.obj
 0001:0008a330       _iswblank                  1008b330 f i libucrtd:_wctype.obj
 0001:0008a370       _iswcntrl                  1008b370 f i libucrtd:_wctype.obj
 0001:0008a390       _iswdigit                  1008b390 f i libucrtd:_wctype.obj
 0001:0008a3b0       _iswgraph                  1008b3b0 f i libucrtd:_wctype.obj
 0001:0008a3d0       _iswlower                  1008b3d0 f i libucrtd:_wctype.obj
 0001:0008a3f0       _iswprint                  1008b3f0 f i libucrtd:_wctype.obj
 0001:0008a410       _iswpunct                  1008b410 f i libucrtd:_wctype.obj
 0001:0008a430       _iswspace                  1008b430 f i libucrtd:_wctype.obj
 0001:0008a450       _iswupper                  1008b450 f i libucrtd:_wctype.obj
 0001:0008a470       _iswxdigit                 1008b470 f i libucrtd:_wctype.obj
 0001:0008a500       ?__mbrtowc_utf8@__crt_mbstring@@YAIPA_WPBDIPAU_Mbstatet@@@Z 1008b500 f   libucrtd:mbrtowc.obj
 0001:0008a550       ?__mbsrtowcs_utf8@__crt_mbstring@@YAIPA_WPAPBDIPAU_Mbstatet@@@Z 1008b550 f   libucrtd:mbrtowc.obj
 0001:0008adc0       _btowc                     1008bdc0 f   libucrtd:mbrtowc.obj
 0001:0008ae30       _mbrlen                    1008be30 f   libucrtd:mbrtowc.obj
 0001:0008ae80       _mbrtowc                   1008be80 f   libucrtd:mbrtowc.obj
 0001:0008af10       _mbsrtowcs                 1008bf10 f   libucrtd:mbrtowc.obj
 0001:0008af30       _mbsrtowcs_s               1008bf30 f   libucrtd:mbrtowc.obj
 0001:0008b280       ??$?RG@__crt_internal_free_policy@@QBEXQBG@Z 1008c280 f i libucrtd:initctype.obj
 0001:0008b2a0       ??$?RJ@__crt_internal_free_policy@@QBEXQBJ@Z 1008c2a0 f i libucrtd:initctype.obj
 0001:0008b2c0       ??0?$__crt_unique_heap_ptr@GU__crt_internal_free_policy@@@@QAE@QAG@Z 1008c2c0 f i libucrtd:initctype.obj
 0001:0008b2e0       ??0?$__crt_unique_heap_ptr@JU__crt_internal_free_policy@@@@QAE@QAJ@Z 1008c2e0 f i libucrtd:initctype.obj
 0001:0008b300       ??1?$__crt_unique_heap_ptr@GU__crt_internal_free_policy@@@@QAE@XZ 1008c300 f i libucrtd:initctype.obj
 0001:0008b320       ??1?$__crt_unique_heap_ptr@JU__crt_internal_free_policy@@@@QAE@XZ 1008c320 f i libucrtd:initctype.obj
 0001:0008b340       ?detach@?$__crt_unique_heap_ptr@GU__crt_internal_free_policy@@@@QAEPAGXZ 1008c340 f i libucrtd:initctype.obj
 0001:0008b370       ?detach@?$__crt_unique_heap_ptr@JU__crt_internal_free_policy@@@@QAEPAJXZ 1008c370 f i libucrtd:initctype.obj
 0001:0008b3a0       ?release@?$__crt_unique_heap_ptr@GU__crt_internal_free_policy@@@@QAEXXZ 1008c3a0 f i libucrtd:initctype.obj
 0001:0008b3d0       ?release@?$__crt_unique_heap_ptr@JU__crt_internal_free_policy@@@@QAEXXZ 1008c3d0 f i libucrtd:initctype.obj
 0001:0008b400       ____lc_codepage_func       1008c400 f   libucrtd:initctype.obj
 0001:0008b440       ____lc_collate_cp_func     1008c440 f   libucrtd:initctype.obj
 0001:0008b480       ____lc_locale_name_func    1008c480 f   libucrtd:initctype.obj
 0001:0008b4c0       ____mb_cur_max_func        1008c4c0 f   libucrtd:initctype.obj
 0001:0008b500       ____mb_cur_max_l_func      1008c500 f   libucrtd:initctype.obj
 0001:0008b530       ___acrt_locale_initialize_ctype 1008c530 f   libucrtd:initctype.obj
 0001:0008bcb0       ?__c32rtomb_utf8@__crt_mbstring@@YAIPAD_UPAU_Mbstatet@@@Z 1008ccb0 f   libucrtd:c32rtomb.obj
 0001:0008be90       ?reset_and_return@__crt_mbstring@@YAIIPAU_Mbstatet@@@Z 1008ce90 f i libucrtd:c32rtomb.obj
 0001:0008bec0       ?return_illegal_sequence@__crt_mbstring@@YAIPAU_Mbstatet@@@Z 1008cec0 f i libucrtd:c32rtomb.obj
 0001:0008bef0       _c32rtomb                  1008cef0 f   libucrtd:c32rtomb.obj
 0001:0008bf10       ___acrt_add_locale_ref     1008cf10 f   libucrtd:locale_refcounting.obj
 0001:0008c020       ___acrt_free_locale        1008d020 f   libucrtd:locale_refcounting.obj
 0001:0008c2f0       ___acrt_locale_add_lc_time_reference 1008d2f0 f   libucrtd:locale_refcounting.obj
 0001:0008c330       ___acrt_locale_free_lc_time_if_unreferenced 1008d330 f   libucrtd:locale_refcounting.obj
 0001:0008c380       ___acrt_locale_release_lc_time_reference 1008d380 f   libucrtd:locale_refcounting.obj
 0001:0008c3b0       ___acrt_release_locale_ref 1008d3b0 f   libucrtd:locale_refcounting.obj
 0001:0008c4c0       ___acrt_update_thread_locale_data 1008d4c0 f   libucrtd:locale_refcounting.obj
 0001:0008c590       __updatetlocinfoEx_nolock  1008d590 f   libucrtd:locale_refcounting.obj
 0001:0008c610       ___acrt_fp_strflt_to_string 1008d610 f   libucrtd:_fptostr.obj
 0001:0008cf50       ??0big_integer@__crt_strtox@@QAE@ABU01@@Z 1008df50 f i libucrtd:cfout.obj
 0001:0008cf90       ??0big_integer@__crt_strtox@@QAE@XZ 1008df90 f i libucrtd:cfout.obj
 0001:0008d050       ??4big_integer@__crt_strtox@@QAEAAU01@ABU01@@Z 1008e050 f i libucrtd:cfout.obj
 0001:0008d090       ??8__crt_strtox@@YA_NABUbig_integer@0@0@Z 1008e090 f i libucrtd:cfout.obj
 0001:0008d0f0       ??9__crt_strtox@@YA_NABUbig_integer@0@0@Z 1008e0f0 f i libucrtd:cfout.obj
 0001:0008d130       ?add_carry@__crt_strtox@@YAIAAIII@Z 1008e130 f i libucrtd:cfout.obj
 0001:0008d170       ?add_multiply_carry@__crt_strtox@@YAIAAIIII@Z 1008e170 f i libucrtd:cfout.obj
 0001:0008d1b0       ?bit_scan_reverse@__crt_strtox@@YAII@Z 1008e1b0 f i libucrtd:cfout.obj
 0001:0008d1e0       ?count_sequential_high_zeroes@__crt_strtox@@YAII@Z 1008e1e0 f i libucrtd:cfout.obj
 0001:0008d220       ?divide@__crt_strtox@@YA_KAAUbig_integer@1@ABU21@@Z 1008e220 f i libucrtd:cfout.obj
 0001:0008dca0       ?is_zero@__crt_strtox@@YA_NABUbig_integer@1@@Z 1008eca0 f i libucrtd:cfout.obj
 0001:0008dcd0       ?make_big_integer@__crt_strtox@@YA?AUbig_integer@1@_K@Z 1008ecd0 f i libucrtd:cfout.obj
 0001:0008dd80       ?make_big_integer_power_of_two@__crt_strtox@@YA?AUbig_integer@1@I@Z 1008ed80 f i libucrtd:cfout.obj
 0001:0008de30       ?multiply@__crt_strtox@@YA_NAAUbig_integer@1@ABU21@@Z 1008ee30 f i libucrtd:cfout.obj
 0001:0008e1b0       ?multiply@__crt_strtox@@YA_NAAUbig_integer@1@I@Z 1008f1b0 f i libucrtd:cfout.obj
 0001:0008e280       ?multiply_64_32@__crt_strtox@@YA_K_KI@Z 1008f280 f i libucrtd:cfout.obj
 0001:0008e2a0       ?multiply_by_power_of_ten@__crt_strtox@@YA_NAAUbig_integer@1@I@Z 1008f2a0 f i libucrtd:cfout.obj
 0001:0008e440       ?multiply_core@__crt_strtox@@YAIQAIII@Z 1008f440 f i libucrtd:cfout.obj
 0001:0008e4b0       ?shift_left@__crt_strtox@@YA_NAAUbig_integer@1@I@Z 1008f4b0 f i libucrtd:cfout.obj
 0001:0008e800       ___acrt_fltout             1008f800 f   libucrtd:cfout.obj
 0001:0008ebb0       __fcloseall                1008fbb0 f   libucrtd:closeall.obj
 0001:0008ece0       __isatty                   1008fce0 f   libucrtd:isatty.obj
 0001:0008edb0       ??$?RUlconv@@@__crt_internal_free_policy@@QBEXQBUlconv@@@Z 1008fdb0 f i libucrtd:initmon.obj
 0001:0008edd0       ??0?$__crt_unique_heap_ptr@Ulconv@@U__crt_internal_free_policy@@@@QAE@QAUlconv@@@Z 1008fdd0 f i libucrtd:initmon.obj
 0001:0008edf0       ??1?$__crt_unique_heap_ptr@Ulconv@@U__crt_internal_free_policy@@@@QAE@XZ 1008fdf0 f i libucrtd:initmon.obj
 0001:0008ee10       ?detach@?$__crt_unique_heap_ptr@Ulconv@@U__crt_internal_free_policy@@@@QAEPAUlconv@@XZ 1008fe10 f i libucrtd:initmon.obj
 0001:0008ee40       ?release@?$__crt_unique_heap_ptr@Ulconv@@U__crt_internal_free_policy@@@@QAEXXZ 1008fe40 f i libucrtd:initmon.obj
 0001:0008ee70       ___acrt_locale_free_monetary 1008fe70 f   libucrtd:initmon.obj
 0001:0008f020       ___acrt_locale_initialize_monetary 10090020 f   libucrtd:initmon.obj
 0001:0008f6c0       ___acrt_locale_free_numeric 100906c0 f   libucrtd:initnum.obj
 0001:0008f770       ___acrt_locale_initialize_numeric 10090770 f   libucrtd:initnum.obj
 0001:0008fbc0       ??$?RU__crt_lc_time_data@@@__crt_internal_free_policy@@QBEXQBU__crt_lc_time_data@@@Z 10090bc0 f i libucrtd:inittime.obj
 0001:0008fca0       ??0?$__crt_unique_heap_ptr@U__crt_lc_time_data@@U__crt_internal_free_policy@@@@QAE@QAU__crt_lc_time_data@@@Z 10090ca0 f i libucrtd:inittime.obj
 0001:0008fcc0       ??1?$__crt_unique_heap_ptr@U__crt_lc_time_data@@U__crt_internal_free_policy@@@@QAE@XZ 10090cc0 f i libucrtd:inittime.obj
 0001:0008fce0       ??B?$__crt_unique_heap_ptr@U__crt_lc_time_data@@U__crt_internal_free_policy@@@@QBE_NXZ 10090ce0 f i libucrtd:inittime.obj
 0001:0008fd00       ?detach@?$__crt_unique_heap_ptr@U__crt_lc_time_data@@U__crt_internal_free_policy@@@@QAEPAU__crt_lc_time_data@@XZ 10090d00 f i libucrtd:inittime.obj
 0001:0008fd70       ?get@?$__crt_unique_heap_ptr@U__crt_lc_time_data@@U__crt_internal_free_policy@@@@QBEPAU__crt_lc_time_data@@XZ 10090d70 f i libucrtd:inittime.obj
 0001:00090240       ?is_valid@?$__crt_unique_heap_ptr@U__crt_lc_time_data@@U__crt_internal_free_policy@@@@QBE_NXZ 10091240 f i libucrtd:inittime.obj
 0001:00090270       ?release@?$__crt_unique_heap_ptr@U__crt_lc_time_data@@U__crt_internal_free_policy@@@@QAEXXZ 10091270 f i libucrtd:inittime.obj
 0001:000902a0       ___acrt_locale_free_time   100912a0 f   libucrtd:inittime.obj
 0001:000903f0       ___acrt_locale_initialize_time 100913f0 f   libucrtd:inittime.obj
 0001:00090470       ___pctype_func             10091470 f   libucrtd:ctype.obj
 0001:000904b0       ___pwctype_func            100914b0 f   libucrtd:ctype.obj
 0001:00090990       _wcsncat_s                 10091990 f   libucrtd:wcsncat_s.obj
 0001:000909b0       _wcscmp                    100919b0 f   libucrtd:wcscmp.obj
 0001:00090a30       _wcscspn                   10091a30 f   libucrtd:wcscspn.obj
 0001:00090aa0       _wcspbrk                   10091aa0 f   libucrtd:wcspbrk.obj
 0001:00090b00       ??0?$__crt_scoped_stack_ptr@_W@@QAE@U?$__crt_scoped_stack_ptr_tag@_W@@@Z 10091b00 f i libucrtd:getstringtypea.obj
 0001:00090b20       ??0?$__crt_scoped_stack_ptr_tag@_W@@QAE@QA_W@Z 10091b20 f i libucrtd:getstringtypea.obj
 0001:00090b40       ??1?$__crt_scoped_stack_ptr@_W@@QAE@XZ 10091b40 f i libucrtd:getstringtypea.obj
 0001:00090b60       ?get@?$__crt_scoped_stack_ptr@_W@@QBEPA_WXZ 10091b60 f i libucrtd:getstringtypea.obj
 0001:00090b80       __MallocaComputeSize       10091b80 f i libucrtd:getstringtypea.obj
 0001:00090bb0       __MarkAllocaS              10091bb0 f i libucrtd:getstringtypea.obj
 0001:00090be0       ___acrt_GetStringTypeA     10091be0 f   libucrtd:getstringtypea.obj
 0001:00090d90       __freea_crt                10091d90 f i libucrtd:getstringtypea.obj
 0001:00091960       ___acrt_get_qualified_locale 10092960 f   libucrtd:get_qualified_locale.obj
 0001:00092970       ___acrt_get_qualified_locale_downlevel 10093970 f   libucrtd:getqloc_downlevel.obj
 0001:00092c10       _localeconv                10093c10 f   libucrtd:localeconv.obj
 0001:00092c50       ??$?RU__crt_lowio_handle_data@@@__crt_internal_free_policy@@QBEXQBU__crt_lowio_handle_data@@@Z 10093c50 f i libucrtd:osfinfo.obj
 0001:00092c70       ??0?$__crt_unique_heap_ptr@U__crt_lowio_handle_data@@U__crt_internal_free_policy@@@@QAE@QAU__crt_lowio_handle_data@@@Z 10093c70 f i libucrtd:osfinfo.obj
 0001:00092c90       ??1?$__crt_unique_heap_ptr@U__crt_lowio_handle_data@@U__crt_internal_free_policy@@@@QAE@XZ 10093c90 f i libucrtd:osfinfo.obj
 0001:00092cb0       ??B?$__crt_unique_heap_ptr@U__crt_lowio_handle_data@@U__crt_internal_free_policy@@@@QBE_NXZ 10093cb0 f i libucrtd:osfinfo.obj
 0001:00092cd0       ?detach@?$__crt_unique_heap_ptr@U__crt_lowio_handle_data@@U__crt_internal_free_policy@@@@QAEPAU__crt_lowio_handle_data@@XZ 10093cd0 f i libucrtd:osfinfo.obj
 0001:00092d00       ?get@?$__crt_unique_heap_ptr@U__crt_lowio_handle_data@@U__crt_internal_free_policy@@@@QBEPAU__crt_lowio_handle_data@@XZ 10093d00 f i libucrtd:osfinfo.obj
 0001:00092d20       ?is_valid@?$__crt_unique_heap_ptr@U__crt_lowio_handle_data@@U__crt_internal_free_policy@@@@QBE_NXZ 10093d20 f i libucrtd:osfinfo.obj
 0001:00092d50       ?release@?$__crt_unique_heap_ptr@U__crt_lowio_handle_data@@U__crt_internal_free_policy@@@@QAEXXZ 10093d50 f i libucrtd:osfinfo.obj
 0001:00092d80       ___acrt_lowio_create_handle_array 10093d80 f   libucrtd:osfinfo.obj
 0001:00092ee0       ___acrt_lowio_destroy_handle_array 10093ee0 f   libucrtd:osfinfo.obj
 0001:00092f40       ___acrt_lowio_ensure_fh_exists 10093f40 f   libucrtd:osfinfo.obj
 0001:000930a0       ___acrt_lowio_lock_fh      100940a0 f   libucrtd:osfinfo.obj
 0001:000930d0       ___acrt_lowio_set_os_handle 100940d0 f   libucrtd:osfinfo.obj
 0001:000931a0       ___acrt_lowio_unlock_fh    100941a0 f   libucrtd:osfinfo.obj
 0001:000931d0       __alloc_osfhnd             100941d0 f   libucrtd:osfinfo.obj
 0001:000933b0       __free_osfhnd              100943b0 f   libucrtd:osfinfo.obj
 0001:000934a0       __get_osfhandle            100944a0 f   libucrtd:osfinfo.obj
 0001:00093620       __open_osfhandle           10094620 f   libucrtd:osfinfo.obj
 0001:00094930       __i64toa                   10095930 f   libucrtd:xtoa.obj
 0001:00094980       __i64toa_s                 10095980 f   libucrtd:xtoa.obj
 0001:000949d0       __i64tow                   100959d0 f   libucrtd:xtoa.obj
 0001:00094a20       __i64tow_s                 10095a20 f   libucrtd:xtoa.obj
 0001:00094a70       __itoa                     10095a70 f   libucrtd:xtoa.obj
 0001:00094ac0       __itoa_s                   10095ac0 f   libucrtd:xtoa.obj
 0001:00094b10       __itow                     10095b10 f   libucrtd:xtoa.obj
 0001:00094b60       __itow_s                   10095b60 f   libucrtd:xtoa.obj
 0001:00094bb0       __ltoa                     10095bb0 f   libucrtd:xtoa.obj
 0001:00094c00       __ltoa_s                   10095c00 f   libucrtd:xtoa.obj
 0001:00094c50       __ltow                     10095c50 f   libucrtd:xtoa.obj
 0001:00094ca0       __ltow_s                   10095ca0 f   libucrtd:xtoa.obj
 0001:00094cf0       __ui64toa                  10095cf0 f   libucrtd:xtoa.obj
 0001:00094d20       __ui64toa_s                10095d20 f   libucrtd:xtoa.obj
 0001:00094d50       __ui64tow                  10095d50 f   libucrtd:xtoa.obj
 0001:00094d80       __ui64tow_s                10095d80 f   libucrtd:xtoa.obj
 0001:00094db0       __ultoa                    10095db0 f   libucrtd:xtoa.obj
 0001:00094de0       __ultoa_s                  10095de0 f   libucrtd:xtoa.obj
 0001:00094e10       __ultow                    10095e10 f   libucrtd:xtoa.obj
 0001:00094e40       __ultow_s                  10095e40 f   libucrtd:xtoa.obj
 0001:00095250       __mbstowcs_l               10096250 f   libucrtd:mbstowcs.obj
 0001:00095270       __mbstowcs_s_l             10096270 f   libucrtd:mbstowcs.obj
 0001:00095630       _mbstowcs                  10096630 f   libucrtd:mbstowcs.obj
 0001:00095680       _mbstowcs_s                10096680 f   libucrtd:mbstowcs.obj
 0001:00095d70       __wcstombs_l               10096d70 f   libucrtd:wcstombs.obj
 0001:00095d90       __wcstombs_s_l             10096d90 f   libucrtd:wcstombs.obj
 0001:00096100       _wcstombs                  10097100 f   libucrtd:wcstombs.obj
 0001:00096120       _wcstombs_s                10097120 f   libucrtd:wcstombs.obj
 0001:00096150       ___acrt_OutputDebugStringA@4 10097150 f   libucrtd:outputdebugstringa.obj
 0001:000961e0       __malloc_base              100971e0 f   libucrtd:malloc_base.obj
 0001:00096370       ___acrt_DownlevelLCIDToLocaleName 10097370 f   libucrtd:lcidtoname_downlevel.obj
 0001:00096440       ___acrt_DownlevelLocaleNameToLCID 10097440 f   libucrtd:lcidtoname_downlevel.obj
 0001:00096480       ___ascii_wcsnicmp          10097480 f   libucrtd:wcsnicmp.obj
 0001:00096510       __towlower_fast_internal   10097510 f i libucrtd:wcsnicmp.obj
 0001:00096550       __towlower_internal        10097550 f i libucrtd:wcsnicmp.obj
 0001:00096590       __wcsnicmp                 10097590 f   libucrtd:wcsnicmp.obj
 0001:000966d0       __wcsnicmp_l               100976d0 f   libucrtd:wcsnicmp.obj
 0001:000968d0       __strnicmp                 100978d0 f   libucrtd:strnicmp.obj
 0001:00096a90       __strnicmp_l               10097a90 f   libucrtd:strnicmp.obj
 0001:00097690       ??$tsopen_nolock@PAHABQAHABQBDABHABHABHABH@?$__crt_char_traits@D@@SAH$$QAPAHABQAHABQBDABH333@Z 10098690 f i libucrtd:open.obj
 0001:000976d0       ??$tsopen_nolock@PAHABQAHABQB_WABHABHABHABH@?$__crt_char_traits@_W@@SAH$$QAPAHABQAHABQB_WABH333@Z 100986d0 f i libucrtd:open.obj
 0001:00097710       ??$tsopen_nolock@PAHPAHABQBDABHHABHH@?$__crt_char_traits@D@@SAH$$QAPAH0ABQBDABH$$QAH23@Z 10098710 f i libucrtd:open.obj
 0001:00097750       ??$tsopen_nolock@PAHPAHABQB_WABHHABHH@?$__crt_char_traits@_W@@SAH$$QAPAH0ABQB_WABH$$QAH23@Z 10098750 f i libucrtd:open.obj
 0001:000982f0       __open                     100992f0 f   libucrtd:open.obj
 0001:00098330       __sopen                    10099330 f   libucrtd:open.obj
 0001:000983a0       __sopen_dispatch           100993a0 f   libucrtd:open.obj
 0001:000983d0       __sopen_nolock             100993d0 f   libucrtd:open.obj
 0001:00098450       __sopen_s                  10099450 f   libucrtd:open.obj
 0001:00098480       __wopen                    10099480 f   libucrtd:open.obj
 0001:000984c0       __wsopen                   100994c0 f   libucrtd:open.obj
 0001:00098530       __wsopen_dispatch          10099530 f   libucrtd:open.obj
 0001:00098560       __wsopen_nolock            10099560 f   libucrtd:open.obj
 0001:00098af0       __wsopen_s                 10099af0 f   libucrtd:open.obj
 0001:00098b20       ___p__commode              10099b20 f   libucrtd:ncommode.obj
 0001:00098d40       __commit                   10099d40 f   libucrtd:commit.obj
 0001:0009a400       __utf8_no_of_trailbytes    1009b400 f i libucrtd:write.obj
 0001:0009a420       __write                    1009b420 f   libucrtd:write.obj
 0001:0009a670       __write_nolock             1009b670 f   libucrtd:write.obj
 0001:0009b230       __lseek                    1009c230 f   libucrtd:lseek.obj
 0001:0009b250       __lseek_nolock             1009c250 f   libucrtd:lseek.obj
 0001:0009b270       __lseeki64                 1009c270 f   libucrtd:lseek.obj
 0001:0009b290       __lseeki64_nolock          1009c290 f   libucrtd:lseek.obj
 0001:0009b2b0       ___acrt_stdio_allocate_buffer_nolock 1009c2b0 f   libucrtd:_getbuf.obj
 0001:0009b4e0       _qsort                     1009c4e0 f   libucrtd:qsort.obj
 0001:0009bb60       _strpbrk                   1009cb60 f   libucrtd:strpbrk.obj
 0001:0009bba0       ??B?$__crt_scoped_stack_ptr@_W@@QBE_NXZ 1009cba0 f i libucrtd:lcmapstringa.obj
 0001:0009bf90       ___acrt_LCMapStringA       1009cf90 f   libucrtd:lcmapstringa.obj
 0001:0009c020       __wcsnicoll                1009d020 f   libucrtd:wcsnicol.obj
 0001:0009c1e0       __wcsnicoll_l              1009d1e0 f   libucrtd:wcsnicol.obj
 0001:0009c430       __strnicoll                1009d430 f   libucrtd:strnicol.obj
 0001:0009c480       __strnicoll_l              1009d480 f   libucrtd:strnicol.obj
 0001:0009c8a0       ___acrt_SetEnvironmentVariableA 1009d8a0 f   libucrtd:setenvironmentvariablea.obj
 0001:0009c960       __set_error_mode           1009d960 f   libucrtd:set_error_mode.obj
 0001:0009ca20       ___acrt_GetStringTypeW     1009da20 f   libucrtd:getstringtypew.obj
 0001:0009ca40       ?__mbrtoc32_utf8@__crt_mbstring@@YAIPA_UPBDIPAU_Mbstatet@@@Z 1009da40 f   libucrtd:mbrtoc32.obj
 0001:0009cd10       _mbrtoc32                  1009dd10 f   libucrtd:mbrtoc32.obj
 0001:0009ceb0       ___acrt_GetLocaleInfoA     1009deb0 f   libucrtd:getlocaleinfoa.obj
 0001:0009d270       _log10                     1009e270 f   libucrtd:log10.obj
 0001:0009d2c0       _ceil                      1009e2c0 f   libucrtd:ceil_pentium4.obj
 0001:0009d300       __ceil_pentium4            1009e300 f   libucrtd:ceil_pentium4.obj
 0001:0009d3e0       _fegetenv                  1009e3e0 f   libucrtd:fegetenv.obj
 0001:0009d400       _fesetenv                  1009e400 f   libucrtd:fesetenv.obj
 0001:0009d470       _feholdexcept              1009e470 f   libucrtd:feholdexcept.obj
 0001:0009d4e0       ___ascii_wcsicmp           1009e4e0 f   libucrtd:wcsicmp.obj
 0001:0009d550       __wcsicmp                  1009e550 f   libucrtd:wcsicmp.obj
 0001:0009d690       __wcsicmp_l                1009e690 f   libucrtd:wcsicmp.obj
 0001:0009d870       ?__wcsrtombs_utf8@__crt_mbstring@@YAIPADPAPB_WIPAU_Mbstatet@@@Z 1009e870 f   libucrtd:wcrtomb.obj
 0001:0009e050       _wcrtomb                   1009f050 f   libucrtd:wcrtomb.obj
 0001:0009e0a0       _wcrtomb_s                 1009f0a0 f   libucrtd:wcrtomb.obj
 0001:0009e1c0       _wcsrtombs                 1009f1c0 f   libucrtd:wcrtomb.obj
 0001:0009e1e0       _wcsrtombs_s               1009f1e0 f   libucrtd:wcrtomb.obj
 0001:0009e530       _wctob                     1009f530 f   libucrtd:wcrtomb.obj
 0001:0009e5b0       __towlower_l               1009f5b0 f   libucrtd:towlower.obj
 0001:0009e6b0       _towlower                  1009f6b0 f   libucrtd:towlower.obj
 0001:0009e6d0       ___ascii_strnicmp          1009f6d0 f   libucrtd:_strnicm.obj
 0001:0009e740       ??$__crt_interlocked_read@H@@YAHPDH@Z 1009f740 f i libucrtd:setmode.obj
 0001:0009e760       ?value@?$dual_state_global@H@__crt_state_management@@QAEAAHXZ 1009f760 f i libucrtd:setmode.obj
 0001:0009e780       __get_fmode                1009f780 f   libucrtd:setmode.obj
 0001:0009e820       __set_fmode                1009f820 f   libucrtd:setmode.obj
 0001:0009e8d0       __setmode                  1009f8d0 f   libucrtd:setmode.obj
 0001:0009eb90       __setmode_nolock           1009fb90 f   libucrtd:setmode.obj
 0001:0009eef0       ??0__crt_seek_guard@@QAE@H_J@Z 1009fef0 f i libucrtd:chsize.obj
 0001:0009ef60       ??1__crt_seek_guard@@QAE@XZ 1009ff60 f i libucrtd:chsize.obj
 0001:0009f060       __chsize                   100a0060 f   libucrtd:chsize.obj
 0001:0009f0a0       __chsize_nolock            100a00a0 f   libucrtd:chsize.obj
 0001:0009f2f0       __chsize_s                 100a02f0 f   libucrtd:chsize.obj
 0001:0009fef0       __read                     100a0ef0 f   libucrtd:read.obj
 0001:000a01d0       __read_nolock              100a11d0 f   libucrtd:read.obj
 0001:000a0b70       __umask                    100a1b70 f   libucrtd:umask.obj
 0001:000a0bb0       __umask_s                  100a1bb0 f   libucrtd:umask.obj
 0001:000a0daa       __putwch                   100a1daa f   libucrtd:putwch.obj
 0001:000a0dd7       __putwch_nolock            100a1dd7 f   libucrtd:putwch.obj
 0001:000a0e10       ___strncnt                 100a1e10 f   libucrtd:strncnt.obj
 0001:000a0e60       ___acrt_CompareStringW     100a1e60 f   libucrtd:comparestringw.obj
 0001:000a13a0       ___acrt_CompareStringA     100a23a0 f   libucrtd:comparestringa.obj
 0001:000a1400       ___acrt_initialize_sse2    100a2400 f   libucrtd:mathfcns.obj
 0001:000a1420       __set_SSE2_enable          100a2420 f   libucrtd:mathfcns.obj
 0001:000a1470       __CIlog10                  100a2470 f   libucrtd:log10_impl.obj
 0001:000a14ab       __CIlog10_default          100a24ab f   libucrtd:log10_impl.obj
 0001:000a14bf       __log10_default            100a24bf     libucrtd:log10_impl.obj
 0001:000a1580       __CIlog10_pentium4         100a2580 f   libucrtd:log10_pentium4.obj
 0001:000a1598       __log10_pentium4           100a2598     libucrtd:log10_pentium4.obj
 0001:000a1810       ___libm_error_support      100a2810 f   libucrtd:libm_error.obj
 0001:000a1dd0       ___libm_setusermatherr     100a2dd0 f   libucrtd:libm_error.obj
 0001:000a1e10       __ceil_default             100a2e10 f   libucrtd:ceil.obj
 0001:000a1f30       ??$__acrt_fenv_shift_bits@W4__acrt_fenv_abstract_control@@@@YA?AW4__acrt_fenv_abstract_control@@W40@0I@Z 100a2f30 f i libucrtd:_fenvutils.obj
 0001:000a1f50       ??$__acrt_fenv_shift_bits@W4__acrt_fenv_abstract_status@@@@YA?AW4__acrt_fenv_abstract_status@@W40@0I@Z 100a2f50 f i libucrtd:_fenvutils.obj
 0001:000a1f70       ??$__acrt_fenv_translate_bit@W4__acrt_fenv_abstract_control@@W4__acrt_fenv_machine_sse_control@@@@YA?AW4__acrt_fenv_abstract_control@@W4__acrt_fenv_machine_sse_control@@0W40@1@Z 100a2f70 f i libucrtd:_fenvutils.obj
 0001:000a1fb0       ??$__acrt_fenv_translate_bit@W4__acrt_fenv_abstract_control@@W4__acrt_fenv_machine_x87_control@@@@YA?AW4__acrt_fenv_abstract_control@@W4__acrt_fenv_machine_x87_control@@0W40@1@Z 100a2fb0 f i libucrtd:_fenvutils.obj
 0001:000a1ff0       ??$__acrt_fenv_translate_bit@W4__acrt_fenv_abstract_status@@W4__acrt_fenv_machine_sse_status@@@@YA?AW4__acrt_fenv_abstract_status@@W4__acrt_fenv_machine_sse_status@@0W40@1@Z 100a2ff0 f i libucrtd:_fenvutils.obj
 0001:000a2030       ??$__acrt_fenv_translate_bit@W4__acrt_fenv_abstract_status@@W4__acrt_fenv_machine_x87_status@@@@YA?AW4__acrt_fenv_abstract_status@@W4__acrt_fenv_machine_x87_status@@0W40@1@Z 100a3030 f i libucrtd:_fenvutils.obj
 0001:000a2070       ??$__acrt_fenv_translate_bit@W4__acrt_fenv_machine_sse_control@@W4__acrt_fenv_abstract_control@@@@YA?AW4__acrt_fenv_machine_sse_control@@W4__acrt_fenv_abstract_control@@0W40@1@Z 100a3070 f i libucrtd:_fenvutils.obj
 0001:000a20b0       ??$__acrt_fenv_translate_bit@W4__acrt_fenv_machine_sse_status@@W4__acrt_fenv_abstract_status@@@@YA?AW4__acrt_fenv_machine_sse_status@@W4__acrt_fenv_abstract_status@@0W40@1@Z 100a30b0 f i libucrtd:_fenvutils.obj
 0001:000a20f0       ??$__acrt_fenv_translate_bit@W4__acrt_fenv_machine_x87_control@@W4__acrt_fenv_abstract_control@@@@YA?AW4__acrt_fenv_machine_x87_control@@W4__acrt_fenv_abstract_control@@0W40@1@Z 100a30f0 f i libucrtd:_fenvutils.obj
 0001:000a2130       ??$__acrt_fenv_translate_bit@W4__acrt_fenv_machine_x87_status@@W4__acrt_fenv_abstract_status@@@@YA?AW4__acrt_fenv_machine_x87_status@@W4__acrt_fenv_abstract_status@@0W40@1@Z 100a3130 f i libucrtd:_fenvutils.obj
 0001:000a2170       ??$__acrt_fenv_unshift_bits@W4__acrt_fenv_abstract_control@@@@YA?AW4__acrt_fenv_abstract_control@@W40@0I@Z 100a3170 f i libucrtd:_fenvutils.obj
 0001:000a2190       ??$__acrt_fenv_unshift_bits@W4__acrt_fenv_abstract_status@@@@YA?AW4__acrt_fenv_abstract_status@@W40@0I@Z 100a3190 f i libucrtd:_fenvutils.obj
 0001:000a2bc0       ??I@YA?AW4__acrt_fenv_abstract_control@@W40@0@Z 100a3bc0 f i libucrtd:_fenvutils.obj
 0001:000a2bd0       ??I@YA?AW4__acrt_fenv_abstract_status@@W40@0@Z 100a3bd0 f i libucrtd:_fenvutils.obj
 0001:000a2be0       ??I@YA?AW4__acrt_fenv_machine_sse_control@@W40@0@Z 100a3be0 f i libucrtd:_fenvutils.obj
 0001:000a2c00       ??I@YA?AW4__acrt_fenv_machine_sse_status@@W40@0@Z 100a3c00 f i libucrtd:_fenvutils.obj
 0001:000a2c10       ??I@YA?AW4__acrt_fenv_machine_x87_control@@W40@0@Z 100a3c10 f i libucrtd:_fenvutils.obj
 0001:000a2c30       ??I@YA?AW4__acrt_fenv_machine_x87_status@@W40@0@Z 100a3c30 f i libucrtd:_fenvutils.obj
 0001:000a2c40       ??U@YA?AW4__acrt_fenv_abstract_control@@W40@0@Z 100a3c40 f i libucrtd:_fenvutils.obj
 0001:000a2c50       ??U@YA?AW4__acrt_fenv_abstract_status@@W40@0@Z 100a3c50 f i libucrtd:_fenvutils.obj
 0001:000a2c60       ??U@YA?AW4__acrt_fenv_machine_sse_control@@W40@0@Z 100a3c60 f i libucrtd:_fenvutils.obj
 0001:000a2c80       ??U@YA?AW4__acrt_fenv_machine_x87_control@@W40@0@Z 100a3c80 f i libucrtd:_fenvutils.obj
