 OPOSElectronicJournal

 Timestamp is 5d429dd5 (Thu Aug  1 17:07:49 2019)

 Preferred load address is 10000000

 Start         Length     Name                   Class
 0001:00000000 00000d90H .text$di                CODE
 0001:00000d90 000a8b60H .text$mn                CODE
 0001:000a98f0 000001c0H .text$x                 CODE
 0001:000a9ab0 00000120H .text$yd                CODE
 0002:00000000 00000358H .idata$5                DATA
 0002:00000358 00000004H .00cfg                  DATA
 0002:0000035c 00000004H .CRT$XCA                DATA
 0002:00000360 00000004H .CRT$XCL                DATA
 0002:00000364 0000006cH .CRT$XCU                DATA
 0002:000003d0 00000004H .CRT$XCZ                DATA
 0002:000003d4 00000004H .CRT$XIA                DATA
 0002:000003d8 00000010H .CRT$XIC                DATA
 0002:000003e8 00000004H .CRT$XIZ                DATA
 0002:000003ec 00000004H .CRT$XLA                DATA
 0002:000003f0 00000004H .CRT$XLZ                DATA
 0002:000003f4 00000004H .CRT$XPA                DATA
 0002:000003f8 00000008H .CRT$XPX                DATA
 0002:00000400 00000004H .CRT$XPXA               DATA
 0002:00000404 00000004H .CRT$XPZ                DATA
 0002:00000408 00000004H .CRT$XTA                DATA
 0002:0000040c 00000004H .CRT$XTZ                DATA
 0002:00000410 00000000H .gfids$y                DATA
 0002:00000410 0002fb0cH .rdata                  DATA
 0002:0002ff1c 00000018H .rdata$T                DATA
 0002:0002ff34 0000033cH .rdata$r                DATA
 0002:00030270 00000044H .rdata$sxdata           DATA
 0002:000302b4 0000040cH .rdata$zzzdbg           DATA
 0002:000306c0 00000004H .rtc$IAA                DATA
 0002:000306c4 00000018H .rtc$IMZ                DATA
 0002:000306dc 00000004H .rtc$IZZ                DATA
 0002:000306e0 00000004H .rtc$TAA                DATA
 0002:000306e4 00000018H .rtc$TMZ                DATA
 0002:000306fc 00000004H .rtc$TZZ                DATA
 0002:00030700 00000004H .tls                    DATA
 0002:00030704 00000004H .tls$                   DATA
 0002:00030708 00000008H .tls$ZZZ                DATA
 0002:00030710 00000e44H .xdata$x                DATA
 0002:00031554 00000004H ATL$__a                 DATA
 0002:00031558 00000008H ATL$__z                 DATA
 0002:00031560 000000b4H .edata                  DATA
 0002:00031614 00000078H .idata$2                DATA
 0002:0003168c 00000014H .idata$3                DATA
 0002:000316a0 00000358H .idata$4                DATA
 0002:000319f8 00000d50H .idata$6                DATA
 0003:00000000 00000be0H .data                   DATA
 0003:00000be0 00000138H .data$r                 DATA
 0003:00000d18 000035c0H .bss                    DATA
 0004:00000000 00000220H .rsrc$01                DATA
 0004:00000220 00005080H .rsrc$02                DATA

  Address         Publics by Value              Rva+Base       Lib:Object

 0000:00000000       ___guard_fids_count        00000000     <absolute>
 0000:00000000       ___guard_longjmp_table     00000000     <absolute>
 0000:00000000       __except_list              00000000     <absolute>
 0000:00000000       ___guard_iat_table         00000000     <absolute>
 0000:00000000       ___AbsoluteZero            00000000     <absolute>
 0000:00000000       ___guard_longjmp_count     00000000     <absolute>
 0000:00000000       ___enclave_config          00000000     <absolute>
 0000:00000000       ___hybrid_auxiliary_iat    00000000     <absolute>
 0000:00000000       ___hybrid_code_map         00000000     <absolute>
 0000:00000000       ___guard_iat_count         00000000     <absolute>
 0000:00000000       ___guard_fids_table        00000000     <absolute>
 0000:00000000       ___dynamic_value_reloc_table 00000000     <absolute>
 0000:00000000       ___volatile_metadata       00000000     <absolute>
 0000:00000000       ___hybrid_code_map_count   00000000     <absolute>
 0000:00000011       ___safe_se_handler_count   00000011     <absolute>
 0000:0000002c       __tls_array                0000002c     <absolute>
 0000:00000100       ___guard_flags             00000100     <absolute>
 0000:00000000       ___ImageBase               10000000     <linker-defined>
 0001:00000d90       ?_assert@@YAXPB_W0I@Z      10001d90 f   Assert.obj
 0001:00000ec0       ___local_stdio_printf_options 10001ec0 f i Assert.obj
 0001:00000ed0       ___vswprintf_l             10001ed0 f i Assert.obj
 0001:00000f00       __swprintf                 10001f00 f i Assert.obj
 0001:00000f60       __vswprintf_c_l            10001f60 f i Assert.obj
 0001:00000fd0       __vswprintf_l              10001fd0 f i Assert.obj
 0001:00001000       ?cw_memcpy@@YGHPADPB_WH@Z  10002000 f   CWString.obj
 0001:00001060       ?cw_memcpy@@YGHPA_WPBDH@Z  10002060 f   CWString.obj
 0001:000010c0       ?cw_memcpy@@YGHPADPBDH@Z   100020c0 f   CWString.obj
 0001:00001110       ?cw_memcpy@@YGHPA_WPB_WH@Z 10002110 f   CWString.obj
 0001:00001150       ?cw_memset@@YAXPADDH@Z     10002150 f   CWString.obj
 0001:00001170       ?cw_memset@@YAXPA_W_WH@Z   10002170 f   CWString.obj
 0001:00001190       ?cw_strlen@@YAHPBD@Z       10002190 f   CWString.obj
 0001:000011e0       ?cw_strlen@@YAHPB_W@Z      100021e0 f   CWString.obj
 0001:00001230       ?cw_strcpy@@YAHPADPB_W@Z   10002230 f   CWString.obj
 0001:00001250       ?cw_strcpy@@YAHPA_WPBD@Z   10002250 f   CWString.obj
 0001:00001270       ?cw_strcpy@@YAHPADPBD@Z    10002270 f   CWString.obj
 0001:00001290       ?cw_strcpy@@YAHPA_WPB_W@Z  10002290 f   CWString.obj
 0001:000012b0       ?cw_strcat@@YAHPADPB_W@Z   100022b0 f   CWString.obj
 0001:000012e0       ?cw_strcat@@YAHPA_WPBD@Z   100022e0 f   CWString.obj
 0001:00001310       ?cw_strcat@@YAHPADPBD@Z    10002310 f   CWString.obj
 0001:00001340       ?cw_strcat@@YAHPA_WPB_W@Z  10002340 f   CWString.obj
 0001:00001370       ?cw_dup@@YGXPBDAAHAAPA_W1@Z 10002370 f   CWString.obj
 0001:00001430       ?cw_dup@@YGXPB_WAAHAAPAD1@Z 10002430 f   CWString.obj
 0001:000014e0       ?DupChar@_CW@@AAEXXZ       100024e0 f   CWString.obj
 0001:00001530       ?DupWide@_CW@@AAEXXZ       10002530 f   CWString.obj
 0001:00001580       ?GetCharsMbcs@_CW@@QAEHXZ  10002580 f   CWString.obj
 0001:000015e0       ?GetCharsWide@_CW@@QAEHXZ  100025e0 f   CWString.obj
 0001:00001640       ?SetVARIANT_BOOL@OposVariant@@QAEXF@Z 10002640 f   OposVariant.obj
 0001:000016a0       ?SetVARIANT_BOOL_Ptr@OposVariant@@QAEXPAFAAJ@Z 100026a0 f   OposVariant.obj
 0001:000016f0       ?GetLONG@OposVariant@@QAEJXZ 100026f0 f   OposVariant.obj
 0001:00001780       ?ChangeLONG@OposVariant@@QAEXPAJAAJ@Z 10002780 f   OposVariant.obj
 0001:00001840       ?SetLONG@OposVariant@@QAEXJ@Z 10002840 f   OposVariant.obj
 0001:00001880       ?SetLONG_Ptr@OposVariant@@QAEXPAJAAJ@Z 10002880 f   OposVariant.obj
 0001:000018d0       ?ChangeCURRENCY@OposVariant@@QAEXPATtagCY@@AAJ@Z 100028d0 f   OposVariant.obj
 0001:00001990       ?SetCURRENCY@OposVariant@@QAEXTtagCY@@@Z 10002990 f   OposVariant.obj
 0001:000019d0       ?SetCURRENCY_Ptr@OposVariant@@QAEXPATtagCY@@AAJ@Z 100029d0 f   OposVariant.obj
 0001:00001a20       ?ChangeBSTR@OposVariant@@QAEXPAPA_WAAJ@Z 10002a20 f   OposVariant.obj
 0001:00001ae0       ?SetBSTR@OposVariant@@QAEXPA_WAAJ@Z 10002ae0 f   OposVariant.obj
 0001:00001b30       ?SetBSTR_Copy@OposVariant@@QAEXPA_WAAJ@Z 10002b30 f   OposVariant.obj
 0001:00001bd0       ?SetBSTR_OutPtr@OposVariant@@QAE_NPAPA_WAAJ@Z 10002bd0 f   OposVariant.obj
 0001:00001c20       ?SetBSTR_InOutPtr@OposVariant@@QAE_NPAPA_WAAJ@Z 10002c20 f   OposVariant.obj
 0001:00001c70       ?SetVARIANT@OposVariant@@QAEXAAUtagVARIANT@@GAAJ@Z 10002c70 f   OposVariant.obj
 0001:00001cf0       ?SetVARIANT_Ptr@OposVariant@@QAEXAAPAUtagVARIANT@@GAAJ@Z 10002cf0 f   OposVariant.obj
 0001:00001d90       ?SetString@OposVariant@@QAEXPB_WAAJ@Z 10002d90 f   OposVariant.obj
 0001:00001e20       ?SetDispatch_Ptr@OposVariant@@QAEXPAUIDispatch@@AAJ@Z 10002e20 f   OposVariant.obj
 0001:00001e90       ??0OposDispParms@@QAE@PAVOposVariant@@H@Z 10002e90 f   OposVariant.obj
 0001:00001f60       ??1OposDispParms@@QAE@XZ   10002f60 f   OposVariant.obj
 0001:00001fb0       ??$AtlMultiply@I@ATL@@YAJPAIII@Z 10002fb0 f i OposVariant.obj
 0001:00002010       ??0?$CHeapPtr@_WVCCRTAllocator@ATL@@@ATL@@QAE@XZ 10003010 f i OposVariant.obj
 0001:00002040       ??0?$CHeapPtrBase@_WVCCRTAllocator@ATL@@@ATL@@IAE@XZ 10003040 f i OposVariant.obj
 0001:00002060       ??0?$CSimpleArray@GV?$CSimpleArrayEqualHelper@G@ATL@@@ATL@@QAE@XZ 10003060 f i OposVariant.obj
 0001:000020a0       ??0?$CTraceCategoryEx@$00$0A@@ATL@@QAE@PB_W@Z 100030a0 f i OposVariant.obj
 0001:000020d0       ??0?$CTraceCategoryEx@$01$0A@@ATL@@QAE@PB_W@Z 100030d0 f i OposVariant.obj
 0001:00002100       ??0?$CTraceCategoryEx@$03$0A@@ATL@@QAE@PB_W@Z 10003100 f i OposVariant.obj
 0001:00002130       ??0?$CTraceCategoryEx@$07$0A@@ATL@@QAE@PB_W@Z 10003130 f i OposVariant.obj
 0001:00002160       ??0?$CTraceCategoryEx@$0BA@$0A@@ATL@@QAE@PB_W@Z 10003160 f i OposVariant.obj
 0001:00002190       ??0?$CTraceCategoryEx@$0BAA@$0A@@ATL@@QAE@PB_W@Z 10003190 f i OposVariant.obj
 0001:000021d0       ??0?$CTraceCategoryEx@$0BAAA@$0A@@ATL@@QAE@PB_W@Z 100031d0 f i OposVariant.obj
 0001:00002210       ??0?$CTraceCategoryEx@$0BAAAA@$0A@@ATL@@QAE@PB_W@Z 10003210 f i OposVariant.obj
 0001:00002250       ??0?$CTraceCategoryEx@$0BAAAAA@$0A@@ATL@@QAE@PB_W@Z 10003250 f i OposVariant.obj
 0001:00002290       ??0?$CTraceCategoryEx@$0CA@$0A@@ATL@@QAE@PB_W@Z 10003290 f i OposVariant.obj
 0001:000022c0       ??0?$CTraceCategoryEx@$0CAA@$0A@@ATL@@QAE@PB_W@Z 100032c0 f i OposVariant.obj
 0001:00002300       ??0?$CTraceCategoryEx@$0CAAA@$0A@@ATL@@QAE@PB_W@Z 10003300 f i OposVariant.obj
 0001:00002340       ??0?$CTraceCategoryEx@$0CAAAA@$0A@@ATL@@QAE@PB_W@Z 10003340 f i OposVariant.obj
 0001:00002380       ??0?$CTraceCategoryEx@$0CAAAAA@$0A@@ATL@@QAE@PB_W@Z 10003380 f i OposVariant.obj
 0001:000023c0       ??0?$CTraceCategoryEx@$0EA@$0A@@ATL@@QAE@PB_W@Z 100033c0 f i OposVariant.obj
 0001:000023f0       ??0?$CTraceCategoryEx@$0EAA@$0A@@ATL@@QAE@PB_W@Z 100033f0 f i OposVariant.obj
 0001:00002430       ??0?$CTraceCategoryEx@$0EAAA@$0A@@ATL@@QAE@PB_W@Z 10003430 f i OposVariant.obj
 0001:00002470       ??0?$CTraceCategoryEx@$0EAAAA@$0A@@ATL@@QAE@PB_W@Z 10003470 f i OposVariant.obj
 0001:000024b0       ??0?$CTraceCategoryEx@$0EAAAAA@$0A@@ATL@@QAE@PB_W@Z 100034b0 f i OposVariant.obj
 0001:000024f0       ??0?$CTraceCategoryEx@$0IA@$0A@@ATL@@QAE@PB_W@Z 100034f0 f i OposVariant.obj
 0001:00002530       ??0?$CTraceCategoryEx@$0IAA@$0A@@ATL@@QAE@PB_W@Z 10003530 f i OposVariant.obj
 0001:00002570       ??0?$CTraceCategoryEx@$0IAAA@$0A@@ATL@@QAE@PB_W@Z 10003570 f i OposVariant.obj
 0001:000025b0       ??0?$CTraceCategoryEx@$0IAAAA@$0A@@ATL@@QAE@PB_W@Z 100035b0 f i OposVariant.obj
 0001:000025f0       ??0CAtlComModule@ATL@@QAE@XZ 100035f0 f i OposVariant.obj
 0001:000026d0       ??0CAtlWinModule@ATL@@QAE@XZ 100036d0 f i OposVariant.obj
 0001:00002760       ??0CComCriticalSection@ATL@@QAE@XZ 10003760 f i OposVariant.obj
 0001:00002790       ??0CPreserveLastError@ATL@@QAE@XZ 10003790 f i OposVariant.obj
 0001:000027d0       ??0CTraceFileAndLineInfo@ATL@@QAE@PBDH@Z 100037d0 f i OposVariant.obj
 0001:00002800       ??0_ATL_COM_MODULE70@ATL@@QAE@XZ 10003800 f i OposVariant.obj
 0001:00002830       ??0_ATL_WIN_MODULE70@ATL@@QAE@XZ 10003830 f i OposVariant.obj
 0001:00002870       ??1?$CHeapPtr@_WVCCRTAllocator@ATL@@@ATL@@QAE@XZ 10003870 f i OposVariant.obj
 0001:000028a0       ??1?$CHeapPtrBase@_WVCCRTAllocator@ATL@@@ATL@@QAE@XZ 100038a0 f i OposVariant.obj
 0001:000028d0       ??1?$CSimpleArray@GV?$CSimpleArrayEqualHelper@G@ATL@@@ATL@@QAE@XZ 100038d0 f i OposVariant.obj
 0001:00002900       ??1CAtlComModule@ATL@@QAE@XZ 10003900 f i OposVariant.obj
 0001:00002930       ??1CAtlWinModule@ATL@@QAE@XZ 10003930 f i OposVariant.obj
 0001:00002960       ??1CComBSTR@ATL@@QAE@XZ    10003960 f i OposVariant.obj
 0001:000029a0       ??1CComCriticalSection@ATL@@QAE@XZ 100039a0 f i OposVariant.obj
 0001:000029c0       ??1CPreserveLastError@ATL@@QAE@XZ 100039c0 f i OposVariant.obj
 0001:00002a00       ??1_ATL_COM_MODULE70@ATL@@QAE@XZ 10003a00 f i OposVariant.obj
 0001:00002a30       ??1_ATL_WIN_MODULE70@ATL@@QAE@XZ 10003a30 f i OposVariant.obj
 0001:00002a70       ??1stringdispid@CComTypeInfoHolder@ATL@@QAE@XZ 10003a70 f i OposVariant.obj
 0001:00002aa0       ??A?$CSimpleArray@GV?$CSimpleArrayEqualHelper@G@ATL@@@ATL@@QAEAAGH@Z 10003aa0 f i OposVariant.obj
 0001:00002b20       ??B?$CHeapPtrBase@_WVCCRTAllocator@ATL@@@ATL@@QBEPA_WXZ 10003b20 f i OposVariant.obj
 0001:00002b40       ??B?$CTraceCategoryEx@$01$0A@@ATL@@QAEIXZ 10003b40 f i OposVariant.obj
 0001:00002b60       ??B?$CTraceCategoryEx@$0CA@$0A@@ATL@@QAEIXZ 10003b60 f i OposVariant.obj
 0001:00002b80       ??RCTraceFileAndLineInfo@ATL@@QBAXHIPB_WZZ 10003b80 f i OposVariant.obj
 0001:00002c20       ??_Estringdispid@CComTypeInfoHolder@ATL@@QAEPAXI@Z 10003c20 f i OposVariant.obj
 0001:00002cb0       ??_H@YGXPAXIIP6EPAX0@Z@Z   10003cb0 f i OposVariant.obj
 0001:00002d20       ??_I@YGXPAXIIP6EX0@Z@Z     10003d20 f i OposVariant.obj
 0001:00002da0       ?Allocate@?$CHeapPtr@_WVCCRTAllocator@ATL@@@ATL@@QAE_NI@Z 10003da0 f i OposVariant.obj
 0001:00002e30       ?Allocate@CCRTAllocator@ATL@@SAPAXI@Z 10003e30 f i OposVariant.obj
 0001:00002e50       ?AllocateBytes@?$CHeapPtrBase@_WVCCRTAllocator@ATL@@@ATL@@QAE_NI@Z 10003e50 f i OposVariant.obj
 0001:00002ec0       ?AtlWinModuleInit@ATL@@YGJPAU_ATL_WIN_MODULE70@1@@Z 10003ec0 f i OposVariant.obj
 0001:00002f90       ?AtlWinModuleTerm@ATL@@YGJPAU_ATL_WIN_MODULE70@1@PAUHINSTANCE__@@@Z 10003f90 f i OposVariant.obj
 0001:00003050       ?Clear@OposVariant@@QAEJXZ 10004050 f i OposVariant.obj
 0001:00003090       ?Free@?$CHeapPtrBase@_WVCCRTAllocator@ATL@@@ATL@@QAEXXZ 10004090 f i OposVariant.obj
 0001:000030d0       ?Free@CCRTAllocator@ATL@@SAXPAX@Z 100040d0 f i OposVariant.obj
 0001:000030f0       ?GetCategoryName@CTrace@ATL@@CAPA_WI@Z 100040f0 f i OposVariant.obj
 0001:00003140       ?GetModuleInstance@CAtlBaseModule@ATL@@QAEPAUHINSTANCE__@@XZ 10004140 f i OposVariant.obj
 0001:00003160       ?GetSize@?$CSimpleArray@GV?$CSimpleArrayEqualHelper@G@ATL@@@ATL@@QBEHXZ 10004160 f i OposVariant.obj
 0001:00003180       ?Init@CComCriticalSection@ATL@@QAEJXZ 10004180 f i OposVariant.obj
 0001:000031e0       ?RegisterCategory@CTrace@ATL@@SAXPB_WI@Z 100041e0 f i OposVariant.obj
 0001:00003270       ?RemoveAll@?$CSimpleArray@GV?$CSimpleArrayEqualHelper@G@ATL@@@ATL@@QAEXXZ 10004270 f i OposVariant.obj
 0001:000032f0       ?Term@CAtlComModule@ATL@@QAEXXZ 100042f0 f i OposVariant.obj
 0001:000033b0       ?Term@CAtlWinModule@ATL@@QAEXXZ 100043b0 f i OposVariant.obj
 0001:000033e0       ?Term@CComCriticalSection@ATL@@QAEJXZ 100043e0 f i OposVariant.obj
 0001:00003420       ?TraceV@CTrace@ATL@@CAXPBDHIIPB_W@Z 10004420 f i OposVariant.obj
 0001:000036a0       ?TraceV@CTrace@ATL@@SAXPBDHIIPB_WPAD@Z 100046a0 f i OposVariant.obj
 0001:000037e0       ?_AtlInitializeCriticalSectionEx@ATL@@YAHPAU_RTL_CRITICAL_SECTION@@KK@Z 100047e0 f i OposVariant.obj
 0001:00003810       ?_AtlRaiseException@ATL@@YAXKK@Z 10004810 f i OposVariant.obj
 0001:00003840       _HRESULT_FROM_WIN32        10004840 f i OposVariant.obj
 0001:00003880       __vswprintf_s_l            10004880 f i OposVariant.obj
 0001:000038f0       _swprintf_s                100048f0 f i OposVariant.obj
 0001:00003950       ?UpdateRegistry@COPOSElectronicJournal@@SGJH@Z 10004950 f i ElectronicJournal.obj
 0001:00003970       ?ObjectMain@CComObjectRootBase@ATL@@SGX_N@Z 10004970 f i ElectronicJournal.obj
 0001:00003980       ?GetCategoryMap@CComObjectRootBase@ATL@@SAPBU_ATL_CATMAP_ENTRY@2@XZ 10004980 f i ElectronicJournal.obj
 0001:00003990       ?CreateInstance@?$CComCreator@V?$CComObjectCached@VCComClassFactory@ATL@@@ATL@@@ATL@@SGJPAXABU_GUID@@PAPAX@Z 10004990 f i ElectronicJournal.obj
 0001:00003b10       ?CreateInstance@?$CComCreator2@V?$CComCreator@V?$CComObject@VCOPOSElectronicJournal@@@ATL@@@ATL@@V?$CComCreator@V?$CComAggObject@VCOPOSElectronicJournal@@@ATL@@@2@@ATL@@SGJPAXABU_GUID@@PAPAX@Z 10004b10 f i ElectronicJournal.obj
 0001:00003b90       ?GetObjectDescription@?$CComCoClass@VCOPOSElectronicJournal@@$1?CLSID_OPOSElectronicJournal@@3U_GUID@@B@ATL@@SGPB_WXZ 10004b90 f i ElectronicJournal.obj
 0001:00003cd0       _DllGetClassObject@12      10004cd0 f   ElectronicJournal.obj
 0001:00003d00       _DllCanUnloadNow@0         10004d00 f   ElectronicJournal.obj
 0001:00003d40       _DllRegisterServer@0       10004d40 f   ElectronicJournal.obj
 0001:00003d60       _DllUnregisterServer@0     10004d60 f   ElectronicJournal.obj
 0001:00003ef0       _DllMain@12                10004ef0 f   ElectronicJournal.obj
 0001:00003f50       ??$?2G@Wrapper@?$CSimpleArray@GV?$CSimpleArrayEqualHelper@G@ATL@@@ATL@@SAPAXIPAG@Z 10004f50 f i ElectronicJournal.obj
 0001:00003f60       ??$?2PA_W@?$Wrapper@PA_W@?$CSimpleMap@PA_WPA_WVCExpansionVectorEqualHelper@ATL@@@ATL@@SAPAXIPAPA_W@Z 10004f60 f i ElectronicJournal.obj
 0001:00003f70       ??$?4UITypeInfo2@@@?$CComPtr@UITypeInfo@@@ATL@@QAEPAUITypeInfo@@ABV?$CComPtr@UITypeInfo2@@@1@@Z 10004f70 f i ElectronicJournal.obj
 0001:00003fd0       ??$AtlAdd@K@ATL@@YAJPAKKK@Z 10004fd0 f i ElectronicJournal.obj
 0001:00004010       ??$AtlAdd@_K@ATL@@YAJPA_K_K1@Z 10005010 f i ElectronicJournal.obj
 0001:00004080       ??$AtlAddThrow@K@ATL@@YAKKK@Z 10005080 f i ElectronicJournal.obj
 0001:00004100       ??$AtlModuleRegisterWndClassInfoT@VAtlModuleRegisterWndClassInfoParamW@ATL@@@ATL@@YAGPAU_ATL_BASE_MODULE70@0@PAU_ATL_WIN_MODULE70@0@PAU_ATL_WNDCLASSINFOW@0@PAP6GJPAUHWND__@@IIJ@ZVAtlModuleRegisterWndClassInfoParamW@0@@Z 10005100 f i ElectronicJournal.obj
 0001:00004510       ??$AtlMultiply@H@ATL@@YAJPAHHH@Z 10005510 f i ElectronicJournal.obj
 0001:00004590       ??$AtlMultiply@K@ATL@@YAJPAKKK@Z 10005590 f i ElectronicJournal.obj
 0001:000045f0       ??$AtlMultiplyThrow@I@ATL@@YAIII@Z 100055f0 f i ElectronicJournal.obj
 0001:00004670       ??$QueryInterface@UIPersistStream@@@IUnknown@@QAGJPAPAUIPersistStream@@@Z 10005670 f i ElectronicJournal.obj
 0001:000046a0       ??$QueryInterface@UITypeInfo2@@@IUnknown@@QAGJPAPAUITypeInfo2@@@Z 100056a0 f i ElectronicJournal.obj
 0001:000046d0       ??0?$CAtlModuleT@VCComModule@ATL@@@ATL@@QAE@XZ 100056d0 f i ElectronicJournal.obj
 0001:00004700       ??0?$CAtlSafeAllocBufferManager@VCCRTAllocator@ATL@@@_ATL_SAFE_ALLOCA_IMPL@ATL@@QAE@XZ 10005700 f i ElectronicJournal.obj
 0001:00004720       ??0?$CAutoVectorPtr@_W@ATL@@QAE@XZ 10005720 f i ElectronicJournal.obj
 0001:00004740       ??0?$CComAggObject@VCOPOSElectronicJournal@@@ATL@@QAE@PAX@Z 10005740 f i ElectronicJournal.obj
 0001:000047b0       ??0?$CComContainedObject@VCOPOSElectronicJournal@@@ATL@@QAE@PAX@Z 100057b0 f i ElectronicJournal.obj
 0001:000048c0       ??0?$CComCritSecLock@VCComCriticalSection@ATL@@@ATL@@QAE@AAVCComCriticalSection@1@_N@Z 100058c0 f i ElectronicJournal.obj
 0001:00004920       ??0?$CComEnum@UIEnumConnectionPoints@@$1?_GUID_b196b285_bab4_101a_b69c_00aa00341d07@@3U__s_GUID@@BPAUIConnectionPoint@@V?$_CopyInterface@UIConnectionPoint@@@ATL@@VCComSingleThreadModel@6@@ATL@@QAE@XZ 10005920 f i ElectronicJournal.obj
 0001:00004960       ??0?$CComEnum@UIEnumConnections@@$1?_GUID_b196b287_bab4_101a_b69c_00aa00341d07@@3U__s_GUID@@BUtagCONNECTDATA@@V?$_Copy@UtagCONNECTDATA@@@ATL@@VCComSingleThreadModel@6@@ATL@@QAE@XZ 10005960 f i ElectronicJournal.obj
 0001:000049a0       ??0?$CComEnumImpl@UIEnumConnectionPoints@@$1?_GUID_b196b285_bab4_101a_b69c_00aa00341d07@@3U__s_GUID@@BPAUIConnectionPoint@@V?$_CopyInterface@UIConnectionPoint@@@ATL@@@ATL@@QAE@XZ 100059a0 f i ElectronicJournal.obj
 0001:00004a00       ??0?$CComEnumImpl@UIEnumConnections@@$1?_GUID_b196b287_bab4_101a_b69c_00aa00341d07@@3U__s_GUID@@BUtagCONNECTDATA@@V?$_Copy@UtagCONNECTDATA@@@ATL@@@ATL@@QAE@XZ 10005a00 f i ElectronicJournal.obj
 0001:00004a60       ??0?$CComObject@V?$CComEnum@UIEnumConnectionPoints@@$1?_GUID_b196b285_bab4_101a_b69c_00aa00341d07@@3U__s_GUID@@BPAUIConnectionPoint@@V?$_CopyInterface@UIConnectionPoint@@@ATL@@VCComSingleThreadModel@6@@ATL@@@ATL@@QAE@PAX@Z 10005a60 f i ElectronicJournal.obj
 0001:00004ab0       ??0?$CComObject@V?$CComEnum@UIEnumConnections@@$1?_GUID_b196b287_bab4_101a_b69c_00aa00341d07@@3U__s_GUID@@BUtagCONNECTDATA@@V?$_Copy@UtagCONNECTDATA@@@ATL@@VCComSingleThreadModel@6@@ATL@@@ATL@@QAE@PAX@Z 10005ab0 f i ElectronicJournal.obj
 0001:00004b00       ??0?$CComObject@VCOPOSElectronicJournal@@@ATL@@QAE@PAX@Z 10005b00 f i ElectronicJournal.obj
 0001:00004c20       ??0?$CComObjectCached@VCComClassFactory@ATL@@@ATL@@QAE@PAX@Z 10005c20 f i ElectronicJournal.obj
 0001:00004c60       ??0?$CComObjectRootEx@VCComMultiThreadModel@ATL@@@ATL@@QAE@XZ 10005c60 f i ElectronicJournal.obj
 0001:00004ca0       ??0?$CComObjectRootEx@VCComSingleThreadModel@ATL@@@ATL@@QAE@XZ 10005ca0 f i ElectronicJournal.obj
 0001:00004cd0       ??0?$CComPtr@UIAdviseSink@@@ATL@@QAE@PAUIAdviseSink@@@Z 10005cd0 f i ElectronicJournal.obj
 0001:00004d00       ??0?$CComPtr@UICatRegister@@@ATL@@QAE@XZ 10005d00 f i ElectronicJournal.obj
 0001:00004d30       ??0?$CComPtr@UIConnectionPoint@@@ATL@@QAE@XZ 10005d30 f i ElectronicJournal.obj
 0001:00004d60       ??0?$CComPtr@UIConnectionPointContainer@@@ATL@@QAE@XZ 10005d60 f i ElectronicJournal.obj
 0001:00004d90       ??0?$CComPtr@UIDataObject@@@ATL@@QAE@XZ 10005d90 f i ElectronicJournal.obj
 0001:00004dc0       ??0?$CComPtr@UIDispatch@@@ATL@@QAE@XZ 10005dc0 f i ElectronicJournal.obj
 0001:00004df0       ??0?$CComPtr@UIOleClientSite@@@ATL@@QAE@PAUIOleClientSite@@@Z 10005df0 f i ElectronicJournal.obj
 0001:00004e20       ??0?$CComPtr@UIOleControlSite@@@ATL@@QAE@XZ 10005e20 f i ElectronicJournal.obj
 0001:00004e50       ??0?$CComPtr@UIOleInPlaceActiveObject@@@ATL@@QAE@XZ 10005e50 f i ElectronicJournal.obj
 0001:00004e80       ??0?$CComPtr@UIOleInPlaceFrame@@@ATL@@QAE@XZ 10005e80 f i ElectronicJournal.obj
 0001:00004eb0       ??0?$CComPtr@UIOleInPlaceObject@@@ATL@@QAE@XZ 10005eb0 f i ElectronicJournal.obj
 0001:00004ee0       ??0?$CComPtr@UIOleInPlaceUIWindow@@@ATL@@QAE@XZ 10005ee0 f i ElectronicJournal.obj
 0001:00004f10       ??0?$CComPtr@UIOleObject@@@ATL@@QAE@XZ 10005f10 f i ElectronicJournal.obj
 0001:00004f40       ??0?$CComPtr@UIPersistStream@@@ATL@@QAE@XZ 10005f40 f i ElectronicJournal.obj
 0001:00004f70       ??0?$CComPtr@UIPersistStreamInit@@@ATL@@QAE@XZ 10005f70 f i ElectronicJournal.obj
 0001:00004fa0       ??0?$CComPtr@UIPointerInactive@@@ATL@@QAE@XZ 10005fa0 f i ElectronicJournal.obj
 0001:00004fd0       ??0?$CComPtr@UIProvideClassInfo2@@@ATL@@QAE@XZ 10005fd0 f i ElectronicJournal.obj
 0001:00005000       ??0?$CComPtr@UISpecifyPropertyPages@@@ATL@@QAE@XZ 10006000 f i ElectronicJournal.obj
 0001:00005030       ??0?$CComPtr@UIStream@@@ATL@@QAE@XZ 10006030 f i ElectronicJournal.obj
 0001:00005060       ??0?$CComPtr@UITypeInfo2@@@ATL@@QAE@XZ 10006060 f i ElectronicJournal.obj
 0001:00005090       ??0?$CComPtr@UITypeInfo@@@ATL@@QAE@ABV01@@Z 10006090 f i ElectronicJournal.obj
 0001:000050c0       ??0?$CComPtr@UITypeInfo@@@ATL@@QAE@XZ 100060c0 f i ElectronicJournal.obj
 0001:000050f0       ??0?$CComPtr@UITypeLib@@@ATL@@QAE@XZ 100060f0 f i ElectronicJournal.obj
 0001:00005120       ??0?$CComPtr@UIUnknown@@@ATL@@QAE@ABV01@@Z 10006120 f i ElectronicJournal.obj
 0001:00005150       ??0?$CComPtr@UIUnknown@@@ATL@@QAE@PAUIUnknown@@@Z 10006150 f i ElectronicJournal.obj
 0001:00005180       ??0?$CComPtr@UIUnknown@@@ATL@@QAE@XZ 10006180 f i ElectronicJournal.obj
 0001:000051b0       ??0?$CComPtr@UIViewObjectEx@@@ATL@@QAE@XZ 100061b0 f i ElectronicJournal.obj
 0001:000051e0       ??0?$CComPtrBase@UIAdviseSink@@@ATL@@IAE@PAUIAdviseSink@@@Z 100061e0 f i ElectronicJournal.obj
 0001:00005230       ??0?$CComPtrBase@UICatRegister@@@ATL@@IAE@XZ 10006230 f i ElectronicJournal.obj
 0001:00005250       ??0?$CComPtrBase@UIConnectionPoint@@@ATL@@IAE@XZ 10006250 f i ElectronicJournal.obj
 0001:00005270       ??0?$CComPtrBase@UIConnectionPointContainer@@@ATL@@IAE@XZ 10006270 f i ElectronicJournal.obj
 0001:00005290       ??0?$CComPtrBase@UIDataObject@@@ATL@@IAE@XZ 10006290 f i ElectronicJournal.obj
 0001:000052b0       ??0?$CComPtrBase@UIDispatch@@@ATL@@IAE@XZ 100062b0 f i ElectronicJournal.obj
 0001:000052d0       ??0?$CComPtrBase@UIOleClientSite@@@ATL@@IAE@PAUIOleClientSite@@@Z 100062d0 f i ElectronicJournal.obj
 0001:00005320       ??0?$CComPtrBase@UIOleControlSite@@@ATL@@IAE@XZ 10006320 f i ElectronicJournal.obj
 0001:00005340       ??0?$CComPtrBase@UIOleInPlaceActiveObject@@@ATL@@IAE@XZ 10006340 f i ElectronicJournal.obj
 0001:00005360       ??0?$CComPtrBase@UIOleInPlaceFrame@@@ATL@@IAE@XZ 10006360 f i ElectronicJournal.obj
 0001:00005380       ??0?$CComPtrBase@UIOleInPlaceObject@@@ATL@@IAE@XZ 10006380 f i ElectronicJournal.obj
 0001:000053a0       ??0?$CComPtrBase@UIOleInPlaceUIWindow@@@ATL@@IAE@XZ 100063a0 f i ElectronicJournal.obj
 0001:000053c0       ??0?$CComPtrBase@UIOleObject@@@ATL@@IAE@XZ 100063c0 f i ElectronicJournal.obj
 0001:000053e0       ??0?$CComPtrBase@UIPersistStream@@@ATL@@IAE@XZ 100063e0 f i ElectronicJournal.obj
 0001:00005400       ??0?$CComPtrBase@UIPersistStreamInit@@@ATL@@IAE@XZ 10006400 f i ElectronicJournal.obj
 0001:00005420       ??0?$CComPtrBase@UIPointerInactive@@@ATL@@IAE@XZ 10006420 f i ElectronicJournal.obj
 0001:00005440       ??0?$CComPtrBase@UIProvideClassInfo2@@@ATL@@IAE@XZ 10006440 f i ElectronicJournal.obj
 0001:00005460       ??0?$CComPtrBase@UISpecifyPropertyPages@@@ATL@@IAE@XZ 10006460 f i ElectronicJournal.obj
 0001:00005480       ??0?$CComPtrBase@UIStream@@@ATL@@IAE@XZ 10006480 f i ElectronicJournal.obj
 0001:000054a0       ??0?$CComPtrBase@UITypeInfo2@@@ATL@@IAE@XZ 100064a0 f i ElectronicJournal.obj
 0001:000054c0       ??0?$CComPtrBase@UITypeInfo@@@ATL@@IAE@PAUITypeInfo@@@Z 100064c0 f i ElectronicJournal.obj
 0001:00005510       ??0?$CComPtrBase@UITypeInfo@@@ATL@@IAE@XZ 10006510 f i ElectronicJournal.obj
 0001:00005530       ??0?$CComPtrBase@UITypeLib@@@ATL@@IAE@XZ 10006530 f i ElectronicJournal.obj
 0001:00005550       ??0?$CComPtrBase@UIUnknown@@@ATL@@IAE@PAUIUnknown@@@Z 10006550 f i ElectronicJournal.obj
 0001:000055a0       ??0?$CComPtrBase@UIUnknown@@@ATL@@IAE@XZ 100065a0 f i ElectronicJournal.obj
 0001:000055c0       ??0?$CComPtrBase@UIViewObjectEx@@@ATL@@IAE@XZ 100065c0 f i ElectronicJournal.obj
 0001:000055e0       ??0?$CComQIPtr@UIOleControlSite@@$1?_GUID_b196b289_bab4_101a_b69c_00aa00341d07@@3U__s_GUID@@B@ATL@@QAE@PAUIUnknown@@@Z 100065e0 f i ElectronicJournal.obj
 0001:00005640       ??0?$CComQIPtr@UIOleObject@@$1?_GUID_00000112_0000_0000_c000_000000000046@@3U__s_GUID@@B@ATL@@QAE@XZ 10006640 f i ElectronicJournal.obj
 0001:00005670       ??0?$CComQIPtr@UISpecifyPropertyPages@@$1?_GUID_b196b28b_bab4_101a_b69c_00aa00341d07@@3U__s_GUID@@B@ATL@@QAE@XZ 10006670 f i ElectronicJournal.obj
 0001:000056a0       ??0?$CSimpleMap@PA_WPA_WVCExpansionVectorEqualHelper@ATL@@@ATL@@QAE@XZ 100066a0 f i ElectronicJournal.obj
 0001:000056e0       ??0?$CTempBuffer@E$0BAA@VCCRTAllocator@ATL@@@ATL@@QAE@XZ 100066e0 f i ElectronicJournal.obj
 0001:00005700       ??0?$CTempBuffer@_W$0BAA@VCCRTAllocator@ATL@@@ATL@@QAE@XZ 10006700 f i ElectronicJournal.obj
 0001:00005720       ??0?$CTempBuffer@_W$0EAA@VCCRTAllocator@ATL@@@ATL@@QAE@XZ 10006720 f i ElectronicJournal.obj
 0001:00005740       ??0?$Wrapper@PA_W@?$CSimpleMap@PA_WPA_WVCExpansionVectorEqualHelper@ATL@@@ATL@@QAE@ABQA_W@Z 10006740 f i ElectronicJournal.obj
 0001:00005770       ??0CAtlModule@ATL@@QAE@XZ  10006770 f i ElectronicJournal.obj
 0001:00005890       ??0CComAutoDeleteCriticalSection@ATL@@QAE@XZ 10006890 f i ElectronicJournal.obj
 0001:000058c0       ??0CComBSTR@ATL@@QAE@XZ    100068c0 f i ElectronicJournal.obj
 0001:000058e0       ??0CComClassFactory@ATL@@QAE@XZ 100068e0 f i ElectronicJournal.obj
 0001:00005920       ??0CComModule@ATL@@QAE@XZ  10006920 f i ElectronicJournal.obj
 0001:00005990       ??0CComObjectRootBase@ATL@@QAE@XZ 10006990 f i ElectronicJournal.obj
 0001:000059b0       ??0CComSafeDeleteCriticalSection@ATL@@QAE@XZ 100069b0 f i ElectronicJournal.obj
 0001:000059e0       ??0CComVariant@ATL@@QAE@XZ 100069e0 f i ElectronicJournal.obj
 0001:00005a30       ??0CExpansionVector@ATL@@QAE@XZ 10006a30 f i ElectronicJournal.obj
 0001:00005a60       ??0CParseBuffer@CRegParser@ATL@@QAE@H@Z 10006a60 f i ElectronicJournal.obj
 0001:00005ad0       ??0CRegKey@ATL@@QAE@PAUHKEY__@@@Z 10006ad0 f i ElectronicJournal.obj
 0001:00005b10       ??0CRegKey@ATL@@QAE@PAVCAtlTransactionManager@1@@Z 10006b10 f i ElectronicJournal.obj
 0001:00005b50       ??0CRegObject@ATL@@QAE@XZ  10006b50 f i ElectronicJournal.obj
 0001:00005b90       ??0CRegParser@ATL@@QAE@PAVCRegObject@1@@Z 10006b90 f i ElectronicJournal.obj
 0001:00005bc0       ??0IClassFactory@@QAE@XZ   10006bc0 f i ElectronicJournal.obj
 0001:00005bf0       ??0IEnumConnectionPoints@@QAE@XZ 10006bf0 f i ElectronicJournal.obj
 0001:00005c20       ??0IEnumConnections@@QAE@XZ 10006c20 f i ElectronicJournal.obj
 0001:00005c50       ??0IRegistrarBase@@QAE@XZ  10006c50 f i ElectronicJournal.obj
 0001:00005c80       ??0IUnknown@@QAE@XZ        10006c80 f i ElectronicJournal.obj
 0001:00005ca0       ??0ModuleLockHelper@ATL@@QAE@XZ 10006ca0 f i ElectronicJournal.obj
 0001:00005ce0       ??0OposVariant@@QAE@XZ     10006ce0 f i ElectronicJournal.obj
 0001:00005d10       ??0Wrapper@?$CSimpleArray@GV?$CSimpleArrayEqualHelper@G@ATL@@@ATL@@QAE@ABG@Z 10006d10 f i ElectronicJournal.obj
 0001:00005d40       ??0_ATL_MODULE70@ATL@@QAE@XZ 10006d40 f i ElectronicJournal.obj
 0001:00005d70       ??0_ATL_MSG@ATL@@QAE@PAUHWND__@@IIJH@Z 10006d70 f i ElectronicJournal.obj
 0001:00005de0       ??0_U_MENUorID@ATL@@QAE@I@Z 10006de0 f i ElectronicJournal.obj
 0001:00005e00       ??0_U_RECT@ATL@@QAE@AAUtagRECT@@@Z 10006e00 f i ElectronicJournal.obj
 0001:00005e20       ??0stringdispid@CComTypeInfoHolder@ATL@@QAE@XZ 10006e20 f i ElectronicJournal.obj
 0001:00005e60       ??1?$CAtlModuleT@VCComModule@ATL@@@ATL@@UAE@XZ 10006e60 f i ElectronicJournal.obj
 0001:00005e90       ??1?$CAtlSafeAllocBufferManager@VCCRTAllocator@ATL@@@_ATL_SAFE_ALLOCA_IMPL@ATL@@QAE@XZ 10006e90 f i ElectronicJournal.obj
 0001:00005ee0       ??1?$CAutoVectorPtr@_W@ATL@@QAE@XZ 10006ee0 f i ElectronicJournal.obj
 0001:00005f10       ??1?$CComAggObject@VCOPOSElectronicJournal@@@ATL@@UAE@XZ 10006f10 f i ElectronicJournal.obj
 0001:00005f80       ??1?$CComContainedObject@VCOPOSElectronicJournal@@@ATL@@UAE@XZ 10006f80 f i ElectronicJournal.obj
 0001:00005fb0       ??1?$CComCritSecLock@VCComCriticalSection@ATL@@@ATL@@QAE@XZ 10006fb0 f i ElectronicJournal.obj
 0001:00005fe0       ??1?$CComEnum@UIEnumConnectionPoints@@$1?_GUID_b196b285_bab4_101a_b69c_00aa00341d07@@3U__s_GUID@@BPAUIConnectionPoint@@V?$_CopyInterface@UIConnectionPoint@@@ATL@@VCComSingleThreadModel@6@@ATL@@UAE@XZ 10006fe0 f i ElectronicJournal.obj
 0001:00006010       ??1?$CComEnum@UIEnumConnections@@$1?_GUID_b196b287_bab4_101a_b69c_00aa00341d07@@3U__s_GUID@@BUtagCONNECTDATA@@V?$_Copy@UtagCONNECTDATA@@@ATL@@VCComSingleThreadModel@6@@ATL@@UAE@XZ 10007010 f i ElectronicJournal.obj
 0001:00006040       ??1?$CComEnumImpl@UIEnumConnectionPoints@@$1?_GUID_b196b285_bab4_101a_b69c_00aa00341d07@@3U__s_GUID@@BPAUIConnectionPoint@@V?$_CopyInterface@UIConnectionPoint@@@ATL@@@ATL@@UAE@XZ 10007040 f i ElectronicJournal.obj
 0001:000060d0       ??1?$CComEnumImpl@UIEnumConnections@@$1?_GUID_b196b287_bab4_101a_b69c_00aa00341d07@@3U__s_GUID@@BUtagCONNECTDATA@@V?$_Copy@UtagCONNECTDATA@@@ATL@@@ATL@@UAE@XZ 100070d0 f i ElectronicJournal.obj
 0001:00006160       ??1?$CComObject@V?$CComEnum@UIEnumConnectionPoints@@$1?_GUID_b196b285_bab4_101a_b69c_00aa00341d07@@3U__s_GUID@@BPAUIConnectionPoint@@V?$_CopyInterface@UIConnectionPoint@@@ATL@@VCComSingleThreadModel@6@@ATL@@@ATL@@UAE@XZ 10007160 f i ElectronicJournal.obj
 0001:000061c0       ??1?$CComObject@V?$CComEnum@UIEnumConnections@@$1?_GUID_b196b287_bab4_101a_b69c_00aa00341d07@@3U__s_GUID@@BUtagCONNECTDATA@@V?$_Copy@UtagCONNECTDATA@@@ATL@@VCComSingleThreadModel@6@@ATL@@@ATL@@UAE@XZ 100071c0 f i ElectronicJournal.obj
 0001:00006220       ??1?$CComObject@VCOPOSElectronicJournal@@@ATL@@UAE@XZ 10007220 f i ElectronicJournal.obj
 0001:00006360       ??1?$CComObjectCached@VCComClassFactory@ATL@@@ATL@@UAE@XZ 10007360 f i ElectronicJournal.obj
 0001:000063b0       ??1?$CComObjectRootEx@VCComMultiThreadModel@ATL@@@ATL@@QAE@XZ 100073b0 f i ElectronicJournal.obj
 0001:000063e0       ??1?$CComObjectRootEx@VCComSingleThreadModel@ATL@@@ATL@@QAE@XZ 100073e0 f i ElectronicJournal.obj
 0001:00006410       ??1?$CComPtr@UIAdviseSink@@@ATL@@QAE@XZ 10007410 f i ElectronicJournal.obj
 0001:00006440       ??1?$CComPtr@UICatRegister@@@ATL@@QAE@XZ 10007440 f i ElectronicJournal.obj
 0001:00006470       ??1?$CComPtr@UIConnectionPoint@@@ATL@@QAE@XZ 10007470 f i ElectronicJournal.obj
 0001:000064a0       ??1?$CComPtr@UIConnectionPointContainer@@@ATL@@QAE@XZ 100074a0 f i ElectronicJournal.obj
 0001:000064d0       ??1?$CComPtr@UIDataObject@@@ATL@@QAE@XZ 100074d0 f i ElectronicJournal.obj
 0001:00006500       ??1?$CComPtr@UIDispatch@@@ATL@@QAE@XZ 10007500 f i ElectronicJournal.obj
 0001:00006530       ??1?$CComPtr@UIOleClientSite@@@ATL@@QAE@XZ 10007530 f i ElectronicJournal.obj
 0001:00006560       ??1?$CComPtr@UIOleControlSite@@@ATL@@QAE@XZ 10007560 f i ElectronicJournal.obj
 0001:00006590       ??1?$CComPtr@UIOleInPlaceActiveObject@@@ATL@@QAE@XZ 10007590 f i ElectronicJournal.obj
 0001:000065c0       ??1?$CComPtr@UIOleInPlaceFrame@@@ATL@@QAE@XZ 100075c0 f i ElectronicJournal.obj
 0001:000065f0       ??1?$CComPtr@UIOleInPlaceObject@@@ATL@@QAE@XZ 100075f0 f i ElectronicJournal.obj
 0001:00006620       ??1?$CComPtr@UIOleInPlaceUIWindow@@@ATL@@QAE@XZ 10007620 f i ElectronicJournal.obj
 0001:00006650       ??1?$CComPtr@UIOleObject@@@ATL@@QAE@XZ 10007650 f i ElectronicJournal.obj
 0001:00006680       ??1?$CComPtr@UIPersistStream@@@ATL@@QAE@XZ 10007680 f i ElectronicJournal.obj
 0001:000066b0       ??1?$CComPtr@UIPersistStreamInit@@@ATL@@QAE@XZ 100076b0 f i ElectronicJournal.obj
 0001:000066e0       ??1?$CComPtr@UIPointerInactive@@@ATL@@QAE@XZ 100076e0 f i ElectronicJournal.obj
 0001:00006710       ??1?$CComPtr@UIProvideClassInfo2@@@ATL@@QAE@XZ 10007710 f i ElectronicJournal.obj
 0001:00006740       ??1?$CComPtr@UISpecifyPropertyPages@@@ATL@@QAE@XZ 10007740 f i ElectronicJournal.obj
 0001:00006770       ??1?$CComPtr@UIStream@@@ATL@@QAE@XZ 10007770 f i ElectronicJournal.obj
 0001:000067a0       ??1?$CComPtr@UITypeInfo2@@@ATL@@QAE@XZ 100077a0 f i ElectronicJournal.obj
 0001:000067d0       ??1?$CComPtr@UITypeInfo@@@ATL@@QAE@XZ 100077d0 f i ElectronicJournal.obj
 0001:00006800       ??1?$CComPtr@UITypeLib@@@ATL@@QAE@XZ 10007800 f i ElectronicJournal.obj
 0001:00006830       ??1?$CComPtr@UIUnknown@@@ATL@@QAE@XZ 10007830 f i ElectronicJournal.obj
 0001:00006860       ??1?$CComPtr@UIViewObjectEx@@@ATL@@QAE@XZ 10007860 f i ElectronicJournal.obj
 0001:00006890       ??1?$CComPtrBase@UIAdviseSink@@@ATL@@QAE@XZ 10007890 f i ElectronicJournal.obj
 0001:000068e0       ??1?$CComPtrBase@UICatRegister@@@ATL@@QAE@XZ 100078e0 f i ElectronicJournal.obj
 0001:00006930       ??1?$CComPtrBase@UIConnectionPoint@@@ATL@@QAE@XZ 10007930 f i ElectronicJournal.obj
 0001:00006980       ??1?$CComPtrBase@UIConnectionPointContainer@@@ATL@@QAE@XZ 10007980 f i ElectronicJournal.obj
 0001:000069d0       ??1?$CComPtrBase@UIDataObject@@@ATL@@QAE@XZ 100079d0 f i ElectronicJournal.obj
 0001:00006a20       ??1?$CComPtrBase@UIDispatch@@@ATL@@QAE@XZ 10007a20 f i ElectronicJournal.obj
 0001:00006a70       ??1?$CComPtrBase@UIOleClientSite@@@ATL@@QAE@XZ 10007a70 f i ElectronicJournal.obj
 0001:00006ac0       ??1?$CComPtrBase@UIOleControlSite@@@ATL@@QAE@XZ 10007ac0 f i ElectronicJournal.obj
 0001:00006b10       ??1?$CComPtrBase@UIOleInPlaceActiveObject@@@ATL@@QAE@XZ 10007b10 f i ElectronicJournal.obj
 0001:00006b60       ??1?$CComPtrBase@UIOleInPlaceFrame@@@ATL@@QAE@XZ 10007b60 f i ElectronicJournal.obj
 0001:00006bb0       ??1?$CComPtrBase@UIOleInPlaceObject@@@ATL@@QAE@XZ 10007bb0 f i ElectronicJournal.obj
 0001:00006c00       ??1?$CComPtrBase@UIOleInPlaceUIWindow@@@ATL@@QAE@XZ 10007c00 f i ElectronicJournal.obj
 0001:00006c50       ??1?$CComPtrBase@UIOleObject@@@ATL@@QAE@XZ 10007c50 f i ElectronicJournal.obj
 0001:00006ca0       ??1?$CComPtrBase@UIPersistStream@@@ATL@@QAE@XZ 10007ca0 f i ElectronicJournal.obj
 0001:00006cf0       ??1?$CComPtrBase@UIPersistStreamInit@@@ATL@@QAE@XZ 10007cf0 f i ElectronicJournal.obj
 0001:00006d40       ??1?$CComPtrBase@UIPointerInactive@@@ATL@@QAE@XZ 10007d40 f i ElectronicJournal.obj
 0001:00006d90       ??1?$CComPtrBase@UIProvideClassInfo2@@@ATL@@QAE@XZ 10007d90 f i ElectronicJournal.obj
 0001:00006de0       ??1?$CComPtrBase@UISpecifyPropertyPages@@@ATL@@QAE@XZ 10007de0 f i ElectronicJournal.obj
 0001:00006e30       ??1?$CComPtrBase@UIStream@@@ATL@@QAE@XZ 10007e30 f i ElectronicJournal.obj
 0001:00006e80       ??1?$CComPtrBase@UITypeInfo2@@@ATL@@QAE@XZ 10007e80 f i ElectronicJournal.obj
 0001:00006ed0       ??1?$CComPtrBase@UITypeInfo@@@ATL@@QAE@XZ 10007ed0 f i ElectronicJournal.obj
 0001:00006f20       ??1?$CComPtrBase@UITypeLib@@@ATL@@QAE@XZ 10007f20 f i ElectronicJournal.obj
 0001:00006f70       ??1?$CComPtrBase@UIUnknown@@@ATL@@QAE@XZ 10007f70 f i ElectronicJournal.obj
 0001:00006fc0       ??1?$CComPtrBase@UIViewObjectEx@@@ATL@@QAE@XZ 10007fc0 f i ElectronicJournal.obj
 0001:00007010       ??1?$CComQIPtr@UIOleControlSite@@$1?_GUID_b196b289_bab4_101a_b69c_00aa00341d07@@3U__s_GUID@@B@ATL@@QAE@XZ 10008010 f i ElectronicJournal.obj
 0001:00007040       ??1?$CComQIPtr@UIOleObject@@$1?_GUID_00000112_0000_0000_c000_000000000046@@3U__s_GUID@@B@ATL@@QAE@XZ 10008040 f i ElectronicJournal.obj
 0001:00007070       ??1?$CComQIPtr@UISpecifyPropertyPages@@$1?_GUID_b196b28b_bab4_101a_b69c_00aa00341d07@@3U__s_GUID@@B@ATL@@QAE@XZ 10008070 f i ElectronicJournal.obj
 0001:000070a0       ??1?$CSimpleMap@PA_WPA_WVCExpansionVectorEqualHelper@ATL@@@ATL@@QAE@XZ 100080a0 f i ElectronicJournal.obj
 0001:000070d0       ??1?$CTempBuffer@E$0BAA@VCCRTAllocator@ATL@@@ATL@@QAE@XZ 100080d0 f i ElectronicJournal.obj
 0001:00007110       ??1?$CTempBuffer@_W$0BAA@VCCRTAllocator@ATL@@@ATL@@QAE@XZ 10008110 f i ElectronicJournal.obj
 0001:00007150       ??1?$CTempBuffer@_W$0EAA@VCCRTAllocator@ATL@@@ATL@@QAE@XZ 10008150 f i ElectronicJournal.obj
 0001:00007190       ??1CAtlModule@ATL@@UAE@XZ  10008190 f i ElectronicJournal.obj
 0001:000071c0       ??1CComAutoDeleteCriticalSection@ATL@@QAE@XZ 100081c0 f i ElectronicJournal.obj
 0001:000071f0       ??1CComClassFactory@ATL@@UAE@XZ 100081f0 f i ElectronicJournal.obj
 0001:00007220       ??1CComModule@ATL@@UAE@XZ  10008220 f i ElectronicJournal.obj
 0001:00007250       ??1CComObjectRootBase@ATL@@QAE@XZ 10008250 f i ElectronicJournal.obj
 0001:00007270       ??1CComSafeDeleteCriticalSection@ATL@@QAE@XZ 10008270 f i ElectronicJournal.obj
 0001:000072b0       ??1CComVariant@ATL@@QAE@XZ 100082b0 f i ElectronicJournal.obj
 0001:00007310       ??1CExpansionVector@ATL@@QAE@XZ 10008310 f i ElectronicJournal.obj
 0001:00007340       ??1CParseBuffer@CRegParser@ATL@@QAE@XZ 10008340 f i ElectronicJournal.obj
 0001:00007380       ??1CRegKey@ATL@@QAE@XZ     10008380 f i ElectronicJournal.obj
 0001:000073b0       ??1CRegObject@ATL@@UAE@XZ  100083b0 f i ElectronicJournal.obj
 0001:000073f0       ??1ModuleLockHelper@ATL@@QAE@XZ 100083f0 f i ElectronicJournal.obj
 0001:00007430       ??1OposVariant@@QAE@XZ     10008430 f i ElectronicJournal.obj
 0001:00007460       ??1_ATL_MODULE70@ATL@@QAE@XZ 10008460 f i ElectronicJournal.obj
 0001:00007490       ??4?$CComPtr@UIAdviseSink@@@ATL@@QAEPAUIAdviseSink@@PAU2@@Z 10008490 f i ElectronicJournal.obj
 0001:00007500       ??4?$CComPtr@UIOleClientSite@@@ATL@@QAEPAUIOleClientSite@@PAU2@@Z 10008500 f i ElectronicJournal.obj
 0001:00007570       ??4?$CComPtr@UIUnknown@@@ATL@@QAEPAUIUnknown@@PAU2@@Z 10008570 f i ElectronicJournal.obj
 0001:000075e0       ??4?$CComQIPtr@UIOleObject@@$1?_GUID_00000112_0000_0000_c000_000000000046@@3U__s_GUID@@B@ATL@@QAEPAUIOleObject@@PAUIUnknown@@@Z 100085e0 f i ElectronicJournal.obj
 0001:00007630       ??4?$CComQIPtr@UISpecifyPropertyPages@@$1?_GUID_b196b28b_bab4_101a_b69c_00aa00341d07@@3U__s_GUID@@B@ATL@@QAEPAUISpecifyPropertyPages@@PAUIUnknown@@@Z 10008630 f i ElectronicJournal.obj
 0001:00007680       ??7?$CComPtrBase@UIOleClientSite@@@ATL@@QBE_NXZ 10008680 f i ElectronicJournal.obj
 0001:000076c0       ??7?$CComPtrBase@UIOleInPlaceSiteWindowless@@@ATL@@QBE_NXZ 100086c0 f i ElectronicJournal.obj
 0001:00007700       ??7CComBSTR@ATL@@QBE_NXZ   10008700 f i ElectronicJournal.obj
 0001:00007740       ??8?$CComPtrBase@UIAdviseSink@@@ATL@@QBE_NPAUIAdviseSink@@@Z 10008740 f i ElectronicJournal.obj
 0001:00007780       ??8?$CComPtrBase@UIConnectionPointContainer@@@ATL@@QBE_NPAUIConnectionPointContainer@@@Z 10008780 f i ElectronicJournal.obj
 0001:000077c0       ??8?$CComPtrBase@UIDataAdviseHolder@@@ATL@@QBE_NPAUIDataAdviseHolder@@@Z 100087c0 f i ElectronicJournal.obj
 0001:00007800       ??8?$CComPtrBase@UIOleAdviseHolder@@@ATL@@QBE_NPAUIOleAdviseHolder@@@Z 10008800 f i ElectronicJournal.obj
 0001:00007840       ??8?$CComPtrBase@UIOleClientSite@@@ATL@@QBE_NPAUIOleClientSite@@@Z 10008840 f i ElectronicJournal.obj
 0001:00007880       ??8?$CComPtrBase@UIOleControlSite@@@ATL@@QBE_NPAUIOleControlSite@@@Z 10008880 f i ElectronicJournal.obj
 0001:000078c0       ??8?$CComPtrBase@UIOleInPlaceObject@@@ATL@@QBE_NPAUIOleInPlaceObject@@@Z 100088c0 f i ElectronicJournal.obj
 0001:00007900       ??8?$CComPtrBase@UIOleInPlaceSiteWindowless@@@ATL@@QBE_NPAUIOleInPlaceSiteWindowless@@@Z 10008900 f i ElectronicJournal.obj
 0001:00007940       ??8?$CComPtrBase@UIOleObject@@@ATL@@QBE_NPAUIOleObject@@@Z 10008940 f i ElectronicJournal.obj
 0001:00007980       ??8?$CComPtrBase@UIPersistStream@@@ATL@@QBE_NPAUIPersistStream@@@Z 10008980 f i ElectronicJournal.obj
 0001:000079c0       ??8?$CComPtrBase@UIPersistStreamInit@@@ATL@@QBE_NPAUIPersistStreamInit@@@Z 100089c0 f i ElectronicJournal.obj
 0001:00007a00       ??8?$CComPtrBase@UIPointerInactive@@@ATL@@QBE_NPAUIPointerInactive@@@Z 10008a00 f i ElectronicJournal.obj
 0001:00007a40       ??8?$CComPtrBase@UIUnknown@@@ATL@@QBE_NPAUIUnknown@@@Z 10008a40 f i ElectronicJournal.obj
 0001:00007a80       ??8?$CComPtrBase@UIViewObjectEx@@@ATL@@QBE_NPAUIViewObjectEx@@@Z 10008a80 f i ElectronicJournal.obj
 0001:00007ac0       ??8CComBSTR@ATL@@QBE_NH@Z  10008ac0 f i ElectronicJournal.obj
 0001:00007b20       ??9?$CComPtrBase@UIAdviseSink@@@ATL@@QBE_NPAUIAdviseSink@@@Z 10008b20 f i ElectronicJournal.obj
 0001:00007b70       ??9?$CComPtrBase@UIConnectionPointContainer@@@ATL@@QBE_NPAUIConnectionPointContainer@@@Z 10008b70 f i ElectronicJournal.obj
 0001:00007bc0       ??9?$CComPtrBase@UIDataAdviseHolder@@@ATL@@QBE_NPAUIDataAdviseHolder@@@Z 10008bc0 f i ElectronicJournal.obj
 0001:00007c10       ??9?$CComPtrBase@UIOleAdviseHolder@@@ATL@@QBE_NPAUIOleAdviseHolder@@@Z 10008c10 f i ElectronicJournal.obj
 0001:00007c60       ??9?$CComPtrBase@UIOleClientSite@@@ATL@@QBE_NPAUIOleClientSite@@@Z 10008c60 f i ElectronicJournal.obj
 0001:00007cb0       ??9?$CComPtrBase@UIOleControlSite@@@ATL@@QBE_NPAUIOleControlSite@@@Z 10008cb0 f i ElectronicJournal.obj
 0001:00007d00       ??9?$CComPtrBase@UIOleInPlaceObject@@@ATL@@QBE_NPAUIOleInPlaceObject@@@Z 10008d00 f i ElectronicJournal.obj
 0001:00007d50       ??9?$CComPtrBase@UIOleInPlaceSiteWindowless@@@ATL@@QBE_NPAUIOleInPlaceSiteWindowless@@@Z 10008d50 f i ElectronicJournal.obj
 0001:00007da0       ??9?$CComPtrBase@UIOleObject@@@ATL@@QBE_NPAUIOleObject@@@Z 10008da0 f i ElectronicJournal.obj
 0001:00007df0       ??9?$CComPtrBase@UIPersistStream@@@ATL@@QBE_NPAUIPersistStream@@@Z 10008df0 f i ElectronicJournal.obj
 0001:00007e40       ??9?$CComPtrBase@UIPersistStreamInit@@@ATL@@QBE_NPAUIPersistStreamInit@@@Z 10008e40 f i ElectronicJournal.obj
 0001:00007e90       ??9?$CComPtrBase@UIPointerInactive@@@ATL@@QBE_NPAUIPointerInactive@@@Z 10008e90 f i ElectronicJournal.obj
 0001:00007ee0       ??9?$CComPtrBase@UIUnknown@@@ATL@@QBE_NPAUIUnknown@@@Z 10008ee0 f i ElectronicJournal.obj
 0001:00007f30       ??9?$CComPtrBase@UIViewObjectEx@@@ATL@@QBE_NPAUIViewObjectEx@@@Z 10008f30 f i ElectronicJournal.obj
 0001:00007f80       ??9CComBSTR@ATL@@QBE_NH@Z  10008f80 f i ElectronicJournal.obj
 0001:00007fd0       ??B?$CComPtrBase@UIAdviseSink@@@ATL@@QBEPAUIAdviseSink@@XZ 10008fd0 f i ElectronicJournal.obj
 0001:00007ff0       ??B?$CComPtrBase@UIDataAdviseHolder@@@ATL@@QBEPAUIDataAdviseHolder@@XZ 10008ff0 f i ElectronicJournal.obj
 0001:00008010       ??B?$CComPtrBase@UIDataObject@@@ATL@@QBEPAUIDataObject@@XZ 10009010 f i ElectronicJournal.obj
 0001:00008030       ??B?$CComPtrBase@UIOleAdviseHolder@@@ATL@@QBEPAUIOleAdviseHolder@@XZ 10009030 f i ElectronicJournal.obj
 0001:00008050       ??B?$CComPtrBase@UIOleClientSite@@@ATL@@QBEPAUIOleClientSite@@XZ 10009050 f i ElectronicJournal.obj
 0001:00008070       ??B?$CComPtrBase@UIOleControlSite@@@ATL@@QBEPAUIOleControlSite@@XZ 10009070 f i ElectronicJournal.obj
 0001:00008090       ??B?$CComPtrBase@UIOleInPlaceActiveObject@@@ATL@@QBEPAUIOleInPlaceActiveObject@@XZ 10009090 f i ElectronicJournal.obj
 0001:000080b0       ??B?$CComPtrBase@UIOleInPlaceFrame@@@ATL@@QBEPAUIOleInPlaceFrame@@XZ 100090b0 f i ElectronicJournal.obj
 0001:000080d0       ??B?$CComPtrBase@UIOleInPlaceSiteWindowless@@@ATL@@QBEPAUIOleInPlaceSiteWindowless@@XZ 100090d0 f i ElectronicJournal.obj
 0001:000080f0       ??B?$CComPtrBase@UIOleInPlaceUIWindow@@@ATL@@QBEPAUIOleInPlaceUIWindow@@XZ 100090f0 f i ElectronicJournal.obj
 0001:00008110       ??B?$CComPtrBase@UIOleObject@@@ATL@@QBEPAUIOleObject@@XZ 10009110 f i ElectronicJournal.obj
 0001:00008130       ??B?$CComPtrBase@UIPersistStream@@@ATL@@QBEPAUIPersistStream@@XZ 10009130 f i ElectronicJournal.obj
 0001:00008150       ??B?$CComPtrBase@UIProvideClassInfo2@@@ATL@@QBEPAUIProvideClassInfo2@@XZ 10009150 f i ElectronicJournal.obj
 0001:00008170       ??B?$CComPtrBase@UISpecifyPropertyPages@@@ATL@@QBEPAUISpecifyPropertyPages@@XZ 10009170 f i ElectronicJournal.obj
 0001:00008190       ??B?$CComPtrBase@UIStream@@@ATL@@QBEPAUIStream@@XZ 10009190 f i ElectronicJournal.obj
 0001:000081b0       ??B?$CComPtrBase@UITypeInfo2@@@ATL@@QBEPAUITypeInfo2@@XZ 100091b0 f i ElectronicJournal.obj
 0001:000081d0       ??B?$CComPtrBase@UITypeInfo@@@ATL@@QBEPAUITypeInfo@@XZ 100091d0 f i ElectronicJournal.obj
 0001:000081f0       ??B?$CComPtrBase@UITypeLib@@@ATL@@QBEPAUITypeLib@@XZ 100091f0 f i ElectronicJournal.obj
 0001:00008210       ??B?$CComPtrBase@UIUnknown@@@ATL@@QBEPAUIUnknown@@XZ 10009210 f i ElectronicJournal.obj
 0001:00008230       ??B?$CTempBuffer@E$0BAA@VCCRTAllocator@ATL@@@ATL@@QBEPAEXZ 10009230 f i ElectronicJournal.obj
 0001:00008250       ??B?$CTempBuffer@_W$0BAA@VCCRTAllocator@ATL@@@ATL@@QBEPA_WXZ 10009250 f i ElectronicJournal.obj
 0001:00008270       ??B?$CTempBuffer@_W$0EAA@VCCRTAllocator@ATL@@@ATL@@QBEPA_WXZ 10009270 f i ElectronicJournal.obj
 0001:00008290       ??B?$CTraceCategoryEx@$00$0A@@ATL@@QAEIXZ 10009290 f i ElectronicJournal.obj
 0001:000082b0       ??B?$CTraceCategoryEx@$07$0A@@ATL@@QAEIXZ 100092b0 f i ElectronicJournal.obj
 0001:000082d0       ??B?$CTraceCategoryEx@$0CAAA@$0A@@ATL@@QAEIXZ 100092d0 f i ElectronicJournal.obj
 0001:000082f0       ??B?$CTraceCategoryEx@$0EA@$0A@@ATL@@QAEIXZ 100092f0 f i ElectronicJournal.obj
 0001:00008310       ??B?$CTraceCategoryEx@$0IAA@$0A@@ATL@@QAEIXZ 10009310 f i ElectronicJournal.obj
 0001:00008330       ??BCComBSTR@ATL@@QBEPA_WXZ 10009330 f i ElectronicJournal.obj
 0001:00008350       ??BCRegKey@ATL@@QBEPAUHKEY__@@XZ 10009350 f i ElectronicJournal.obj
 0001:00008370       ??C?$CComPtrBase@UIAdviseSink@@@ATL@@QBEPAV?$_NoAddRefReleaseOnCComPtr@UIAdviseSink@@@1@XZ 10009370 f i ElectronicJournal.obj
 0001:000083c0       ??C?$CComPtrBase@UICatRegister@@@ATL@@QBEPAV?$_NoAddRefReleaseOnCComPtr@UICatRegister@@@1@XZ 100093c0 f i ElectronicJournal.obj
 0001:00008410       ??C?$CComPtrBase@UIConnectionPoint@@@ATL@@QBEPAV?$_NoAddRefReleaseOnCComPtr@UIConnectionPoint@@@1@XZ 10009410 f i ElectronicJournal.obj
 0001:00008460       ??C?$CComPtrBase@UIConnectionPointContainer@@@ATL@@QBEPAV?$_NoAddRefReleaseOnCComPtr@UIConnectionPointContainer@@@1@XZ 10009460 f i ElectronicJournal.obj
 0001:000084b0       ??C?$CComPtrBase@UIDataAdviseHolder@@@ATL@@QBEPAV?$_NoAddRefReleaseOnCComPtr@UIDataAdviseHolder@@@1@XZ 100094b0 f i ElectronicJournal.obj
 0001:00008500       ??C?$CComPtrBase@UIOleAdviseHolder@@@ATL@@QBEPAV?$_NoAddRefReleaseOnCComPtr@UIOleAdviseHolder@@@1@XZ 10009500 f i ElectronicJournal.obj
 0001:00008550       ??C?$CComPtrBase@UIOleClientSite@@@ATL@@QBEPAV?$_NoAddRefReleaseOnCComPtr@UIOleClientSite@@@1@XZ 10009550 f i ElectronicJournal.obj
 0001:000085a0       ??C?$CComPtrBase@UIOleControlSite@@@ATL@@QBEPAV?$_NoAddRefReleaseOnCComPtr@UIOleControlSite@@@1@XZ 100095a0 f i ElectronicJournal.obj
 0001:000085f0       ??C?$CComPtrBase@UIOleInPlaceFrame@@@ATL@@QBEPAV?$_NoAddRefReleaseOnCComPtr@UIOleInPlaceFrame@@@1@XZ 100095f0 f i ElectronicJournal.obj
 0001:00008640       ??C?$CComPtrBase@UIOleInPlaceObject@@@ATL@@QBEPAV?$_NoAddRefReleaseOnCComPtr@UIOleInPlaceObject@@@1@XZ 10009640 f i ElectronicJournal.obj
 0001:00008690       ??C?$CComPtrBase@UIOleInPlaceSiteWindowless@@@ATL@@QBEPAV?$_NoAddRefReleaseOnCComPtr@UIOleInPlaceSiteWindowless@@@1@XZ 10009690 f i ElectronicJournal.obj
 0001:000086e0       ??C?$CComPtrBase@UIOleInPlaceUIWindow@@@ATL@@QBEPAV?$_NoAddRefReleaseOnCComPtr@UIOleInPlaceUIWindow@@@1@XZ 100096e0 f i ElectronicJournal.obj
 0001:00008730       ??C?$CComPtrBase@UIOleObject@@@ATL@@QBEPAV?$_NoAddRefReleaseOnCComPtr@UIOleObject@@@1@XZ 10009730 f i ElectronicJournal.obj
 0001:00008780       ??C?$CComPtrBase@UIPersistStream@@@ATL@@QBEPAV?$_NoAddRefReleaseOnCComPtr@UIPersistStream@@@1@XZ 10009780 f i ElectronicJournal.obj
 0001:000087d0       ??C?$CComPtrBase@UIPersistStreamInit@@@ATL@@QBEPAV?$_NoAddRefReleaseOnCComPtr@UIPersistStreamInit@@@1@XZ 100097d0 f i ElectronicJournal.obj
 0001:00008820       ??C?$CComPtrBase@UIPointerInactive@@@ATL@@QBEPAV?$_NoAddRefReleaseOnCComPtr@UIPointerInactive@@@1@XZ 10009820 f i ElectronicJournal.obj
 0001:00008870       ??C?$CComPtrBase@UIProvideClassInfo2@@@ATL@@QBEPAV?$_NoAddRefReleaseOnCComPtr@UIProvideClassInfo2@@@1@XZ 10009870 f i ElectronicJournal.obj
 0001:000088c0       ??C?$CComPtrBase@UISpecifyPropertyPages@@@ATL@@QBEPAV?$_NoAddRefReleaseOnCComPtr@UISpecifyPropertyPages@@@1@XZ 100098c0 f i ElectronicJournal.obj
 0001:00008910       ??C?$CComPtrBase@UITypeInfo@@@ATL@@QBEPAV?$_NoAddRefReleaseOnCComPtr@UITypeInfo@@@1@XZ 10009910 f i ElectronicJournal.obj
 0001:00008960       ??C?$CComPtrBase@UITypeLib@@@ATL@@QBEPAV?$_NoAddRefReleaseOnCComPtr@UITypeLib@@@1@XZ 10009960 f i ElectronicJournal.obj
 0001:000089b0       ??C?$CComPtrBase@UIUnknown@@@ATL@@QBEPAV?$_NoAddRefReleaseOnCComPtr@UIUnknown@@@1@XZ 100099b0 f i ElectronicJournal.obj
 0001:00008a00       ??C?$CComPtrBase@UIViewObjectEx@@@ATL@@QBEPAV?$_NoAddRefReleaseOnCComPtr@UIViewObjectEx@@@1@XZ 10009a00 f i ElectronicJournal.obj
 0001:00008a50       ??I?$CComPtrBase@UICatRegister@@@ATL@@QAEPAPAUICatRegister@@XZ 10009a50 f i ElectronicJournal.obj
 0001:00008aa0       ??I?$CComPtrBase@UIConnectionPoint@@@ATL@@QAEPAPAUIConnectionPoint@@XZ 10009aa0 f i ElectronicJournal.obj
 0001:00008af0       ??I?$CComPtrBase@UIConnectionPointContainer@@@ATL@@QAEPAPAUIConnectionPointContainer@@XZ 10009af0 f i ElectronicJournal.obj
 0001:00008b40       ??I?$CComPtrBase@UIDataAdviseHolder@@@ATL@@QAEPAPAUIDataAdviseHolder@@XZ 10009b40 f i ElectronicJournal.obj
 0001:00008b90       ??I?$CComPtrBase@UIDataObject@@@ATL@@QAEPAPAUIDataObject@@XZ 10009b90 f i ElectronicJournal.obj
 0001:00008be0       ??I?$CComPtrBase@UIDispatch@@@ATL@@QAEPAPAUIDispatch@@XZ 10009be0 f i ElectronicJournal.obj
 0001:00008c30       ??I?$CComPtrBase@UIOleAdviseHolder@@@ATL@@QAEPAPAUIOleAdviseHolder@@XZ 10009c30 f i ElectronicJournal.obj
 0001:00008c80       ??I?$CComPtrBase@UIOleControlSite@@@ATL@@QAEPAPAUIOleControlSite@@XZ 10009c80 f i ElectronicJournal.obj
 0001:00008cd0       ??I?$CComPtrBase@UIOleInPlaceActiveObject@@@ATL@@QAEPAPAUIOleInPlaceActiveObject@@XZ 10009cd0 f i ElectronicJournal.obj
 0001:00008d20       ??I?$CComPtrBase@UIOleInPlaceFrame@@@ATL@@QAEPAPAUIOleInPlaceFrame@@XZ 10009d20 f i ElectronicJournal.obj
 0001:00008d70       ??I?$CComPtrBase@UIOleInPlaceObject@@@ATL@@QAEPAPAUIOleInPlaceObject@@XZ 10009d70 f i ElectronicJournal.obj
 0001:00008dc0       ??I?$CComPtrBase@UIOleInPlaceSiteWindowless@@@ATL@@QAEPAPAUIOleInPlaceSiteWindowless@@XZ 10009dc0 f i ElectronicJournal.obj
 0001:00008e10       ??I?$CComPtrBase@UIOleInPlaceUIWindow@@@ATL@@QAEPAPAUIOleInPlaceUIWindow@@XZ 10009e10 f i ElectronicJournal.obj
 0001:00008e60       ??I?$CComPtrBase@UIOleObject@@@ATL@@QAEPAPAUIOleObject@@XZ 10009e60 f i ElectronicJournal.obj
 0001:00008eb0       ??I?$CComPtrBase@UIPersistStream@@@ATL@@QAEPAPAUIPersistStream@@XZ 10009eb0 f i ElectronicJournal.obj
 0001:00008f00       ??I?$CComPtrBase@UIPointerInactive@@@ATL@@QAEPAPAUIPointerInactive@@XZ 10009f00 f i ElectronicJournal.obj
 0001:00008f50       ??I?$CComPtrBase@UIProvideClassInfo2@@@ATL@@QAEPAPAUIProvideClassInfo2@@XZ 10009f50 f i ElectronicJournal.obj
 0001:00008fa0       ??I?$CComPtrBase@UIStream@@@ATL@@QAEPAPAUIStream@@XZ 10009fa0 f i ElectronicJournal.obj
 0001:00008ff0       ??I?$CComPtrBase@UITypeInfo2@@@ATL@@QAEPAPAUITypeInfo2@@XZ 10009ff0 f i ElectronicJournal.obj
 0001:00009040       ??I?$CComPtrBase@UITypeInfo@@@ATL@@QAEPAPAUITypeInfo@@XZ 1000a040 f i ElectronicJournal.obj
 0001:00009090       ??I?$CComPtrBase@UITypeLib@@@ATL@@QAEPAPAUITypeLib@@XZ 1000a090 f i ElectronicJournal.obj
 0001:000090e0       ??I?$CComPtrBase@UIUnknown@@@ATL@@QAEPAPAUIUnknown@@XZ 1000a0e0 f i ElectronicJournal.obj
 0001:00009130       ??I?$CComPtrBase@UIViewObjectEx@@@ATL@@QAEPAPAUIViewObjectEx@@XZ 1000a130 f i ElectronicJournal.obj
 0001:00009180       ??ICComBSTR@ATL@@QAEPAPA_WXZ 1000a180 f i ElectronicJournal.obj
 0001:00009195       ??_E?$CComContainedObject@VCOPOSElectronicJournal@@@ATL@@W3AEPAXI@Z 1000a195 f i ElectronicJournal.obj
 0001:0000919d       ??_E?$CComContainedObject@VCOPOSElectronicJournal@@@ATL@@WEM@AEPAXI@Z 1000a19d f i ElectronicJournal.obj
 0001:000091a5       ??_E?$CComObject@VCOPOSElectronicJournal@@@ATL@@W3AEPAXI@Z 1000a1a5 f i ElectronicJournal.obj
 0001:000091ad       ??_E?$CComObject@VCOPOSElectronicJournal@@@ATL@@WEM@AEPAXI@Z 1000a1ad f i ElectronicJournal.obj
 0001:000091c0       ??_E?$CComAggObject@VCOPOSElectronicJournal@@@ATL@@UAEPAXI@Z 1000a1c0 f i ElectronicJournal.obj
 0001:000091c0       ??_G?$CComAggObject@VCOPOSElectronicJournal@@@ATL@@UAEPAXI@Z 1000a1c0 f i ElectronicJournal.obj
 0001:00009210       ??_G?$CComContainedObject@VCOPOSElectronicJournal@@@ATL@@UAEPAXI@Z 1000a210 f i ElectronicJournal.obj
 0001:00009210       ??_E?$CComContainedObject@VCOPOSElectronicJournal@@@ATL@@UAEPAXI@Z 1000a210 f i ElectronicJournal.obj
 0001:00009260       ??_E?$CComObject@V?$CComEnum@UIEnumConnectionPoints@@$1?_GUID_b196b285_bab4_101a_b69c_00aa00341d07@@3U__s_GUID@@BPAUIConnectionPoint@@V?$_CopyInterface@UIConnectionPoint@@@ATL@@VCComSingleThreadModel@6@@ATL@@@ATL@@UAEPAXI@Z 1000a260 f i ElectronicJournal.obj
 0001:00009260       ??_G?$CComObject@V?$CComEnum@UIEnumConnectionPoints@@$1?_GUID_b196b285_bab4_101a_b69c_00aa00341d07@@3U__s_GUID@@BPAUIConnectionPoint@@V?$_CopyInterface@UIConnectionPoint@@@ATL@@VCComSingleThreadModel@6@@ATL@@@ATL@@UAEPAXI@Z 1000a260 f i ElectronicJournal.obj
 0001:000092a0       ??_E?$CComObject@V?$CComEnum@UIEnumConnections@@$1?_GUID_b196b287_bab4_101a_b69c_00aa00341d07@@3U__s_GUID@@BUtagCONNECTDATA@@V?$_Copy@UtagCONNECTDATA@@@ATL@@VCComSingleThreadModel@6@@ATL@@@ATL@@UAEPAXI@Z 1000a2a0 f i ElectronicJournal.obj
 0001:000092a0       ??_G?$CComObject@V?$CComEnum@UIEnumConnections@@$1?_GUID_b196b287_bab4_101a_b69c_00aa00341d07@@3U__s_GUID@@BUtagCONNECTDATA@@V?$_Copy@UtagCONNECTDATA@@@ATL@@VCComSingleThreadModel@6@@ATL@@@ATL@@UAEPAXI@Z 1000a2a0 f i ElectronicJournal.obj
 0001:000092e0       ??_G?$CComObject@VCOPOSElectronicJournal@@@ATL@@UAEPAXI@Z 1000a2e0 f i ElectronicJournal.obj
 0001:000092e0       ??_E?$CComObject@VCOPOSElectronicJournal@@@ATL@@UAEPAXI@Z 1000a2e0 f i ElectronicJournal.obj
 0001:00009330       ??_G?$CComObjectCached@VCComClassFactory@ATL@@@ATL@@UAEPAXI@Z 1000a330 f i ElectronicJournal.obj
 0001:00009330       ??_E?$CComObjectCached@VCComClassFactory@ATL@@@ATL@@UAEPAXI@Z 1000a330 f i ElectronicJournal.obj
 0001:00009370       ??_GCComClassFactory@ATL@@UAEPAXI@Z 1000a370 f i ElectronicJournal.obj
 0001:00009370       ??_ECComClassFactory@ATL@@UAEPAXI@Z 1000a370 f i ElectronicJournal.obj
 0001:000093b0       ??_GCComModule@ATL@@UAEPAXI@Z 1000a3b0 f i ElectronicJournal.obj
 0001:000093b0       ??_ECComModule@ATL@@UAEPAXI@Z 1000a3b0 f i ElectronicJournal.obj
 0001:000093f0       ??_GCRegObject@ATL@@UAEPAXI@Z 1000a3f0 f i ElectronicJournal.obj
 0001:000093f0       ??_ECRegObject@ATL@@UAEPAXI@Z 1000a3f0 f i ElectronicJournal.obj
 0001:00009430       ?Add@?$CSimpleArray@GV?$CSimpleArrayEqualHelper@G@ATL@@@ATL@@QAEHABG@Z 1000a430 f i ElectronicJournal.obj
 0001:00009580       ?Add@?$CSimpleMap@PA_WPA_WVCExpansionVectorEqualHelper@ATL@@@ATL@@QAEHABQA_W0@Z 1000a580 f i ElectronicJournal.obj
 0001:00009640       ?Add@CComDynamicUnkArray@ATL@@QAEKPAUIUnknown@@@Z 1000a640 f i ElectronicJournal.obj
 0001:000097e0       ?Add@CExpansionVector@ATL@@QAEHPB_W0@Z 1000a7e0 f i ElectronicJournal.obj
 0001:00009a70       ?AddChar@CParseBuffer@CRegParser@ATL@@QAEHPB_W@Z 1000aa70 f i ElectronicJournal.obj
 0001:00009ab0       ?AddCommonRGSReplacements@?$CAtlModuleT@VCComModule@ATL@@@ATL@@UAEJPAUIRegistrarBase@@@Z 1000aab0 f i ElectronicJournal.obj
 0001:00009b00       ?AddCreateWndData@CAtlWinModule@ATL@@QAEXPAU_AtlCreateWndData@2@PAX@Z 1000ab00 f i ElectronicJournal.obj
 0001:00009b30       ?AddRef@?$CComAggObject@VCOPOSElectronicJournal@@@ATL@@UAGKXZ 1000ab30 f i ElectronicJournal.obj
 0001:00009b50       ?AddRef@?$CComContainedObject@VCOPOSElectronicJournal@@@ATL@@UAGKXZ 1000ab50 f i ElectronicJournal.obj
 0001:00009b6c       ?AddRef@?$CComContainedObject@VCOPOSElectronicJournal@@@ATL@@WHA@AGKXZ 1000ab6c f i ElectronicJournal.obj
 0001:00009b76       ?AddRef@?$CComContainedObject@VCOPOSElectronicJournal@@@ATL@@WHE@AGKXZ 1000ab76 f i ElectronicJournal.obj
 0001:00009b80       ?AddRef@?$CComContainedObject@VCOPOSElectronicJournal@@@ATL@@WHI@AGKXZ 1000ab80 f i ElectronicJournal.obj
 0001:00009b8a       ?AddRef@?$CComContainedObject@VCOPOSElectronicJournal@@@ATL@@WHM@AGKXZ 1000ab8a f i ElectronicJournal.obj
 0001:00009b94       ?AddRef@?$CComContainedObject@VCOPOSElectronicJournal@@@ATL@@WIA@AGKXZ 1000ab94 f i ElectronicJournal.obj
 0001:00009ba1       ?AddRef@?$CComContainedObject@VCOPOSElectronicJournal@@@ATL@@WIE@AGKXZ 1000aba1 f i ElectronicJournal.obj
 0001:00009bae       ?AddRef@?$CComContainedObject@VCOPOSElectronicJournal@@@ATL@@WII@AGKXZ 1000abae f i ElectronicJournal.obj
 0001:00009bbb       ?AddRef@?$CComContainedObject@VCOPOSElectronicJournal@@@ATL@@WIM@AGKXZ 1000abbb f i ElectronicJournal.obj
 0001:00009bc8       ?AddRef@?$CComContainedObject@VCOPOSElectronicJournal@@@ATL@@WJA@AGKXZ 1000abc8 f i ElectronicJournal.obj
 0001:00009bd5       ?AddRef@?$CComContainedObject@VCOPOSElectronicJournal@@@ATL@@WJE@AGKXZ 1000abd5 f i ElectronicJournal.obj
 0001:00009be2       ?AddRef@?$CComContainedObject@VCOPOSElectronicJournal@@@ATL@@WJI@AGKXZ 1000abe2 f i ElectronicJournal.obj
 0001:00009bef       ?AddRef@?$CComContainedObject@VCOPOSElectronicJournal@@@ATL@@WJM@AGKXZ 1000abef f i ElectronicJournal.obj
 0001:00009bfc       ?AddRef@?$CComContainedObject@VCOPOSElectronicJournal@@@ATL@@WKA@AGKXZ 1000abfc f i ElectronicJournal.obj
 0001:00009c09       ?AddRef@?$CComContainedObject@VCOPOSElectronicJournal@@@ATL@@WKI@AGKXZ 1000ac09 f i ElectronicJournal.obj
 0001:00009c16       ?AddRef@?$CComContainedObject@VCOPOSElectronicJournal@@@ATL@@WLE@AGKXZ 1000ac16 f i ElectronicJournal.obj
 0001:00009c30       ?AddRef@?$CComObject@V?$CComEnum@UIEnumConnectionPoints@@$1?_GUID_b196b285_bab4_101a_b69c_00aa00341d07@@3U__s_GUID@@BPAUIConnectionPoint@@V?$_CopyInterface@UIConnectionPoint@@@ATL@@VCComSingleThreadModel@6@@ATL@@@ATL@@UAGKXZ 1000ac30 f i ElectronicJournal.obj
 0001:00009c50       ?AddRef@?$CComObject@V?$CComEnum@UIEnumConnections@@$1?_GUID_b196b287_bab4_101a_b69c_00aa00341d07@@3U__s_GUID@@BUtagCONNECTDATA@@V?$_Copy@UtagCONNECTDATA@@@ATL@@VCComSingleThreadModel@6@@ATL@@@ATL@@UAGKXZ 1000ac50 f i ElectronicJournal.obj
 0001:00009c70       ?AddRef@?$CComObject@VCOPOSElectronicJournal@@@ATL@@UAGKXZ 1000ac70 f i ElectronicJournal.obj
 0001:00009c8c       ?AddRef@?$CComObject@VCOPOSElectronicJournal@@@ATL@@WHA@AGKXZ 1000ac8c f i ElectronicJournal.obj
 0001:00009c96       ?AddRef@?$CComObject@VCOPOSElectronicJournal@@@ATL@@WHE@AGKXZ 1000ac96 f i ElectronicJournal.obj
 0001:00009ca0       ?AddRef@?$CComObject@VCOPOSElectronicJournal@@@ATL@@WHI@AGKXZ 1000aca0 f i ElectronicJournal.obj
 0001:00009caa       ?AddRef@?$CComObject@VCOPOSElectronicJournal@@@ATL@@WHM@AGKXZ 1000acaa f i ElectronicJournal.obj
 0001:00009cb4       ?AddRef@?$CComObject@VCOPOSElectronicJournal@@@ATL@@WIA@AGKXZ 1000acb4 f i ElectronicJournal.obj
 0001:00009cc1       ?AddRef@?$CComObject@VCOPOSElectronicJournal@@@ATL@@WIE@AGKXZ 1000acc1 f i ElectronicJournal.obj
 0001:00009cce       ?AddRef@?$CComObject@VCOPOSElectronicJournal@@@ATL@@WII@AGKXZ 1000acce f i ElectronicJournal.obj
 0001:00009cdb       ?AddRef@?$CComObject@VCOPOSElectronicJournal@@@ATL@@WIM@AGKXZ 1000acdb f i ElectronicJournal.obj
 0001:00009ce8       ?AddRef@?$CComObject@VCOPOSElectronicJournal@@@ATL@@WJA@AGKXZ 1000ace8 f i ElectronicJournal.obj
 0001:00009cf5       ?AddRef@?$CComObject@VCOPOSElectronicJournal@@@ATL@@WJE@AGKXZ 1000acf5 f i ElectronicJournal.obj
 0001:00009d02       ?AddRef@?$CComObject@VCOPOSElectronicJournal@@@ATL@@WJI@AGKXZ 1000ad02 f i ElectronicJournal.obj
 0001:00009d0f       ?AddRef@?$CComObject@VCOPOSElectronicJournal@@@ATL@@WJM@AGKXZ 1000ad0f f i ElectronicJournal.obj
 0001:00009d1c       ?AddRef@?$CComObject@VCOPOSElectronicJournal@@@ATL@@WKA@AGKXZ 1000ad1c f i ElectronicJournal.obj
 0001:00009d29       ?AddRef@?$CComObject@VCOPOSElectronicJournal@@@ATL@@WKI@AGKXZ 1000ad29 f i ElectronicJournal.obj
 0001:00009d36       ?AddRef@?$CComObject@VCOPOSElectronicJournal@@@ATL@@WLE@AGKXZ 1000ad36 f i ElectronicJournal.obj
 0001:00009d50       ?AddRef@?$CComObjectCached@VCComClassFactory@ATL@@@ATL@@UAGKXZ 1000ad50 f i ElectronicJournal.obj
 0001:00009da0       ?AddRef@CRegObject@ATL@@UAGKXZ 1000ada0 f i ElectronicJournal.obj
 0001:00009df0       ?AddReplacement@CRegObject@ATL@@UAGJPB_W0@Z 1000adf0 f i ElectronicJournal.obj
 0001:00009f00       ?AddString@CParseBuffer@CRegParser@ATL@@QAEHPB_W@Z 1000af00 f i ElectronicJournal.obj
 0001:00009ff0       ?AddTermFunc@CAtlModule@ATL@@QAEJP6GXK@ZK@Z 1000aff0 f i ElectronicJournal.obj
 0001:0000a040       ?AddValue@CRegParser@ATL@@IAEJAAVCRegKey@2@PB_WPA_W@Z 1000b040 f i ElectronicJournal.obj
 0001:0000a7d0       ?Advise@?$CProxy_IOPOSEvents@VCOPOSElectronicJournal@@@@UAGJPAUIUnknown@@PAK@Z 1000b7d0 f i ElectronicJournal.obj
 0001:0000a820       ?Advise@?$IConnectionPointImpl@VCOPOSElectronicJournal@@$1?DIID__IOPOSElectronicJournalEvents@@3U_GUID@@BVCComDynamicUnkArray@ATL@@@ATL@@UAGJPAUIUnknown@@PAK@Z 1000b820 f i ElectronicJournal.obj
 0001:0000a9c0       ?Advise@?$IConnectionPointImpl@VCOPOSElectronicJournal@@$1?IID_IPropertyNotifySink@@3U_GUID@@BVCComDynamicUnkArray@ATL@@@ATL@@UAGJPAUIUnknown@@PAK@Z 1000b9c0 f i ElectronicJournal.obj
 0001:0000ab60       ?Advise@?$IOleObjectImpl@VCOPOSElectronicJournal@@@ATL@@UAGJPAUIAdviseSink@@PAK@Z 1000bb60 f i ElectronicJournal.obj
 0001:0000abf0       ?Allocate@?$CAtlSafeAllocBufferManager@VCCRTAllocator@ATL@@@_ATL_SAFE_ALLOCA_IMPL@ATL@@QAEPAXK@Z 1000bbf0 f i ElectronicJournal.obj
 0001:0000ac60       ?Allocate@?$CTempBuffer@E$0BAA@VCCRTAllocator@ATL@@@ATL@@QAEPAEI@Z 1000bc60 f i ElectronicJournal.obj
 0001:0000aca0       ?Allocate@?$CTempBuffer@_W$0BAA@VCCRTAllocator@ATL@@@ATL@@QAEPA_WI@Z 1000bca0 f i ElectronicJournal.obj
 0001:0000ace0       ?Allocate@?$CTempBuffer@_W$0EAA@VCCRTAllocator@ATL@@@ATL@@QAEPA_WI@Z 1000bce0 f i ElectronicJournal.obj
 0001:0000ad20       ?AllocateBytes@?$CTempBuffer@E$0BAA@VCCRTAllocator@ATL@@@ATL@@QAEPAEI@Z 1000bd20 f i ElectronicJournal.obj
 0001:0000ada0       ?AllocateBytes@?$CTempBuffer@_W$0BAA@VCCRTAllocator@ATL@@@ATL@@QAEPA_WI@Z 1000bda0 f i ElectronicJournal.obj
 0001:0000ae20       ?AllocateBytes@?$CTempBuffer@_W$0EAA@VCCRTAllocator@ATL@@@ATL@@QAEPA_WI@Z 1000be20 f i ElectronicJournal.obj
 0001:0000aea0       ?AllocateHeap@?$CTempBuffer@E$0BAA@VCCRTAllocator@ATL@@@ATL@@AAEXI@Z 1000bea0 f i ElectronicJournal.obj
 0001:0000aef0       ?AllocateHeap@?$CTempBuffer@_W$0BAA@VCCRTAllocator@ATL@@@ATL@@AAEXI@Z 1000bef0 f i ElectronicJournal.obj
 0001:0000af40       ?AllocateHeap@?$CTempBuffer@_W$0EAA@VCCRTAllocator@ATL@@@ATL@@AAEXI@Z 1000bf40 f i ElectronicJournal.obj
 0001:0000af90       ?Append@CParseBuffer@CRegParser@ATL@@QAEHPB_WH@Z 1000bf90 f i ElectronicJournal.obj
 0001:0000b130       ?AtlCallTermFunc@ATL@@YGXPAU_ATL_MODULE70@1@@Z 1000c130 f i ElectronicJournal.obj
 0001:0000b1d0       ?AtlCoTaskMemCAlloc@ATL@@YAPAXKK@Z 1000c1d0 f i ElectronicJournal.obj
 0001:0000b260       ?AtlCoTaskMemRecalloc@ATL@@YAPAXPAXKK@Z 1000c260 f i ElectronicJournal.obj
 0001:0000b300       ?AtlComModuleGetClassObject@ATL@@YGJPAU_ATL_COM_MODULE70@1@ABU_GUID@@1PAPAX@Z 1000c300 f i ElectronicJournal.obj
 0001:0000b590       ?AtlComModuleRegisterServer@ATL@@YGJPAU_ATL_COM_MODULE70@1@HPBU_GUID@@@Z 1000c590 f i ElectronicJournal.obj
 0001:0000b720       ?AtlComModuleUnregisterServer@ATL@@YGJPAU_ATL_COM_MODULE70@1@HPBU_GUID@@@Z 1000c720 f i ElectronicJournal.obj
 0001:0000b850       ?AtlComQIPtrAssign2@ATL@@YAXPAPAUIUnknown@@PAU2@ABU_GUID@@@Z 1000c850 f i ElectronicJournal.obj
 0001:0000b8d0       ?AtlCreateTargetDC@ATL@@YGPAUHDC__@@PAU2@PAUtagDVTARGETDEVICE@@@Z 1000c8d0 f i ElectronicJournal.obj
 0001:0000ba70       ?AtlCrtErrorCheck@ATL@@YAHH@Z 1000ca70 f i ElectronicJournal.obj
 0001:0000bb40       ?AtlGetPerUserRegistration@ATL@@YGJPA_N@Z 1000cb40 f i ElectronicJournal.obj
 0001:0000bb70       ?AtlHiMetricToPixel@ATL@@YGXPBUtagSIZE@@PAU2@@Z 1000cb70 f i ElectronicJournal.obj
 0001:0000bd40       ?AtlHresultFromLastError@ATL@@YAJXZ 1000cd40 f i ElectronicJournal.obj
 0001:0000bd80       ?AtlHresultFromWin32@ATL@@YAJK@Z 1000cd80 f i ElectronicJournal.obj
 0001:0000bda0       ?AtlIPersistStreamInit_Load@ATL@@YGJPAUIStream@@PBUATL_PROPMAP_ENTRY@1@PAXPAUIUnknown@@@Z 1000cda0 f i ElectronicJournal.obj
 0001:0000c200       ?AtlIPersistStreamInit_Save@ATL@@YGJPAUIStream@@HPBUATL_PROPMAP_ENTRY@1@PAXPAUIUnknown@@@Z 1000d200 f i ElectronicJournal.obj
 0001:0000c5e0       ?AtlInternalOleLoadFromStream@ATL@@YAJPAUIStream@@ABU_GUID@@PAPAXTClassesAllowedInStream@1@K@Z 1000d5e0 f i ElectronicJournal.obj
 0001:0000c880       ?AtlInternalQueryInterface@ATL@@YGJPAXPBU_ATL_INTMAP_ENTRY@1@ABU_GUID@@PAPAX@Z 1000d880 f i ElectronicJournal.obj
 0001:0000cab0       ?AtlLoadTypeLib@ATL@@YGJPAUHINSTANCE__@@PB_WPAPA_WPAPAUITypeLib@@@Z 1000dab0 f i ElectronicJournal.obj
 0001:0000cf10       ?AtlModuleAddTermFunc@ATL@@YGJPAU_ATL_MODULE70@1@P6GXK@ZK@Z 1000df10 f i ElectronicJournal.obj
 0001:0000d070       ?AtlRegisterClassCategoriesHelper@ATL@@YGJABU_GUID@@PBU_ATL_CATMAP_ENTRY@1@H@Z 1000e070 f i ElectronicJournal.obj
 0001:0000d750       ?AtlRegisterTypeLib@ATL@@YGJPAUHINSTANCE__@@PB_W@Z 1000e750 f i ElectronicJournal.obj
 0001:0000da90       ?AtlThrowImpl@ATL@@YGXJ@Z  1000ea90 f i ElectronicJournal.obj
 0001:0000db40       ?AtlUnRegisterTypeLib@ATL@@YGJPAUHINSTANCE__@@PB_W@Z 1000eb40 f i ElectronicJournal.obj
 0001:0000dd50       ?AtlWinModuleAddCreateWndData@ATL@@YGXPAU_ATL_WIN_MODULE70@1@PAU_AtlCreateWndData@1@PAX@Z 1000ed50 f i ElectronicJournal.obj
 0001:0000dec0       ?AtlWinModuleExtractCreateWndData@ATL@@YGPAXPAU_ATL_WIN_MODULE70@1@@Z 1000eec0 f i ElectronicJournal.obj
 0001:0000e040       ?AtlWinModuleRegisterClassExW@ATL@@YGGPAU_ATL_WIN_MODULE70@1@PBUtagWNDCLASSEXW@@@Z 1000f040 f i ElectronicJournal.obj
 0001:0000e110       ?AtlWinModuleRegisterWndClassInfoW@ATL@@YGGPAU_ATL_WIN_MODULE70@1@PAU_ATL_BASE_MODULE70@1@PAU_ATL_WNDCLASSINFOW@1@PAP6GJPAUHWND__@@IIJ@Z@Z 1000f110 f i ElectronicJournal.obj
 0001:0000e1a0       ?Attach@?$CAutoVectorPtr@_W@ATL@@QAEXPA_W@Z 1000f1a0 f i ElectronicJournal.obj
 0001:0000e200       ?Attach@CComBSTR@ATL@@QAEXPA_W@Z 1000f200 f i ElectronicJournal.obj
 0001:0000e250       ?Attach@CRegKey@ATL@@QAEXPAUHKEY__@@@Z 1000f250 f i ElectronicJournal.obj
 0001:0000e2c0       ?CanForceRemoveKey@CRegParser@ATL@@IAEHPB_W@Z 1000f2c0 f i ElectronicJournal.obj
 0001:0000e330       ?ChToByte@CRegParser@ATL@@KAE_W@Z 1000f330 f i ElectronicJournal.obj
 0001:0000e450       ?ChangeType@CComVariant@ATL@@QAEJGPBUtagVARIANT@@@Z 1000f450 f i ElectronicJournal.obj
 0001:0000e4b0       ?Cleanup@CComTypeInfoHolder@ATL@@SGXK@Z 1000f4b0 f i ElectronicJournal.obj
 0001:0000e580       ?Clear@CComVariant@ATL@@QAEJXZ 1000f580 f i ElectronicJournal.obj
 0001:0000e5c0       ?ClearReplacements@CExpansionVector@ATL@@QAEJXZ 1000f5c0 f i ElectronicJournal.obj
 0001:0000e650       ?ClearReplacements@CRegObject@ATL@@UAGJXZ 1000f650 f i ElectronicJournal.obj
 0001:0000e6a0       ?Clone@?$CComEnumImpl@UIEnumConnectionPoints@@$1?_GUID_b196b285_bab4_101a_b69c_00aa00341d07@@3U__s_GUID@@BPAUIConnectionPoint@@V?$_CopyInterface@UIConnectionPoint@@@ATL@@@ATL@@UAGJPAPAUIEnumConnectionPoints@@@Z 1000f6a0 f i ElectronicJournal.obj
 0001:0000e810       ?Clone@?$CComEnumImpl@UIEnumConnections@@$1?_GUID_b196b287_bab4_101a_b69c_00aa00341d07@@3U__s_GUID@@BUtagCONNECTDATA@@V?$_Copy@UtagCONNECTDATA@@@ATL@@@ATL@@UAGJPAPAUIEnumConnections@@@Z 1000f810 f i ElectronicJournal.obj
 0001:0000e980       ?Close@?$IOleObjectImpl@VCOPOSElectronicJournal@@@ATL@@UAGJK@Z 1000f980 f i ElectronicJournal.obj
 0001:0000ea10       ?Close@CRegKey@ATL@@QAEJXZ 1000fa10 f i ElectronicJournal.obj
 0001:0000ea80       ?ContextSensitiveHelp@?$IOleInPlaceActiveObjectImpl@VCOPOSElectronicJournal@@@ATL@@UAGJH@Z 1000fa80 f i ElectronicJournal.obj
 0001:0000eaf0       ?ContextSensitiveHelp@?$IOleInPlaceObjectWindowlessImpl@VCOPOSElectronicJournal@@@ATL@@UAGJH@Z 1000faf0 f i ElectronicJournal.obj
 0001:0000eb60       ?ControlQueryInterface@?$CComControl@VCOPOSElectronicJournal@@V?$CWindowImpl@VCOPOSElectronicJournal@@VCWindow@ATL@@V?$CWinTraits@$0FGAAAAAA@$0A@@3@@ATL@@@ATL@@UAEJABU_GUID@@PAPAX@Z 1000fb60 f i ElectronicJournal.obj
 0001:0000ebe0       ?CreateControlWindow@?$CComControl@VCOPOSElectronicJournal@@V?$CWindowImpl@VCOPOSElectronicJournal@@VCWindow@ATL@@V?$CWinTraits@$0FGAAAAAA@$0A@@3@@ATL@@@ATL@@UAEPAUHWND__@@PAU3@AAUtagRECT@@@Z 1000fbe0 f i ElectronicJournal.obj
 0001:0000ec60       ?CreateInstance@?$CComCreator@V?$CComAggObject@VCOPOSElectronicJournal@@@ATL@@@ATL@@SGJPAXABU_GUID@@PAPAX@Z 1000fc60 f i ElectronicJournal.obj
 0001:0000ede0       ?CreateInstance@?$CComCreator@V?$CComObject@VCOPOSElectronicJournal@@@ATL@@@ATL@@SGJPAXABU_GUID@@PAPAX@Z 1000fde0 f i ElectronicJournal.obj
 0001:0000ef70       ?CreateInstance@?$CComObject@V?$CComEnum@UIEnumConnectionPoints@@$1?_GUID_b196b285_bab4_101a_b69c_00aa00341d07@@3U__s_GUID@@BPAUIConnectionPoint@@V?$_CopyInterface@UIConnectionPoint@@@ATL@@VCComSingleThreadModel@6@@ATL@@@ATL@@SGJPAPAV12@@Z 1000ff70 f i ElectronicJournal.obj
 0001:0000f0e0       ?CreateInstance@?$CComObject@V?$CComEnum@UIEnumConnections@@$1?_GUID_b196b287_bab4_101a_b69c_00aa00341d07@@3U__s_GUID@@BUtagCONNECTDATA@@V?$_Copy@UtagCONNECTDATA@@@ATL@@VCComSingleThreadModel@6@@ATL@@@ATL@@SGJPAPAV12@@Z 100100e0 f i ElectronicJournal.obj
 0001:0000f250       ?CreateInstance@CComClassFactory@ATL@@UAGJPAUIUnknown@@ABU_GUID@@PAPAX@Z 10010250 f i ElectronicJournal.obj
 0001:0000f340       ?DAdvise@?$IDataObjectImpl@VCOPOSElectronicJournal@@@ATL@@UAGJPAUtagFORMATETC@@KPAUIAdviseSink@@PAK@Z 10010340 f i ElectronicJournal.obj
 0001:0000f440       ?DEVMODEOLE2T_EX@@YAPAU_devicemodeW@@PAU1@@Z 10010440 f i ElectronicJournal.obj
 0001:0000f450       ?DUnadvise@?$IDataObjectImpl@VCOPOSElectronicJournal@@@ATL@@UAGJK@Z 10010450 f i ElectronicJournal.obj
 0001:0000f520       ?Decrement@CComMultiThreadModel@ATL@@SGKPAJ@Z 10010520 f i ElectronicJournal.obj
 0001:0000f540       ?Decrement@CComSingleThreadModel@ATL@@SGKPAJ@Z 10010540 f i ElectronicJournal.obj
 0001:0000f560       ?DefWindowProcW@?$CWindowImplBaseT@VCWindow@ATL@@V?$CWinTraits@$0FGAAAAAA@$0A@@2@@ATL@@QAEJIIJ@Z 10010560 f i ElectronicJournal.obj
 0001:0000f5b0       ?DefaultReflectionHandler@?$CWindowImplRoot@VCWindow@ATL@@@ATL@@SAHPAUHWND__@@IIJAAJ@Z 100105b0 f i ElectronicJournal.obj
 0001:0000f7a0       ?DeleteSubKey@CRegKey@ATL@@QAEJPB_W@Z 100107a0 f i ElectronicJournal.obj
 0001:0000f8b0       ?DeleteValue@CRegKey@ATL@@QAEJPB_W@Z 100108b0 f i ElectronicJournal.obj
 0001:0000f920       ?Detach@?$CAutoVectorPtr@_W@ATL@@QAEPA_WXZ 10010920 f i ElectronicJournal.obj
 0001:0000f950       ?Detach@?$CComPtrBase@UIPersistStream@@@ATL@@QAEPAUIPersistStream@@XZ 10010950 f i ElectronicJournal.obj
 0001:0000f980       ?Detach@?$CComPtrBase@UITypeInfo@@@ATL@@QAEPAUITypeInfo@@XZ 10010980 f i ElectronicJournal.obj
 0001:0000f9b0       ?Detach@?$CComPtrBase@UIUnknown@@@ATL@@QAEPAUIUnknown@@XZ 100109b0 f i ElectronicJournal.obj
 0001:0000f9e0       ?Detach@CComBSTR@ATL@@QAEPA_WXZ 100109e0 f i ElectronicJournal.obj
 0001:0000fa10       ?Detach@CParseBuffer@CRegParser@ATL@@QAEPA_WXZ 10010a10 f i ElectronicJournal.obj
 0001:0000fa60       ?Detach@CRegKey@ATL@@QAEPAUHKEY__@@XZ 10010a60 f i ElectronicJournal.obj
 0001:0000fab0       ?DoEvent@COPOSElectronicJournal@@IAEXIIJ@Z 10010ab0 f i ElectronicJournal.obj
 0001:0000fbf0       ?DoVerb@?$IOleObjectImpl@VCOPOSElectronicJournal@@@ATL@@UAGJJPAUtagMSG@@PAUIOleClientSite@@JPAUHWND__@@PBUtagRECT@@@Z 10010bf0 f i ElectronicJournal.obj
 0001:0000fe00       ?DoVerbDiscardUndo@?$IOleObjectImpl@VCOPOSElectronicJournal@@@ATL@@QAEJPBUtagRECT@@PAUHWND__@@@Z 10010e00 f i ElectronicJournal.obj
 0001:0000fe70       ?DoVerbHide@?$IOleObjectImpl@VCOPOSElectronicJournal@@@ATL@@QAEJPBUtagRECT@@PAUHWND__@@@Z 10010e70 f i ElectronicJournal.obj
 0001:0000ff20       ?DoVerbInPlaceActivate@?$IOleObjectImpl@VCOPOSElectronicJournal@@@ATL@@QAEJPBUtagRECT@@PAUHWND__@@@Z 10010f20 f i ElectronicJournal.obj
 0001:0000ffc0       ?DoVerbOpen@?$IOleObjectImpl@VCOPOSElectronicJournal@@@ATL@@QAEJPBUtagRECT@@PAUHWND__@@@Z 10010fc0 f i ElectronicJournal.obj
 0001:00010030       ?DoVerbPrimary@?$IOleObjectImpl@VCOPOSElectronicJournal@@@ATL@@QAEJPBUtagRECT@@PAUHWND__@@@Z 10011030 f i ElectronicJournal.obj
 0001:00010140       ?DoVerbProperties@CComControlBase@ATL@@QAEJPBUtagRECT@@PAUHWND__@@@Z 10011140 f i ElectronicJournal.obj
 0001:00010460       ?DoVerbShow@?$IOleObjectImpl@VCOPOSElectronicJournal@@@ATL@@QAEJPBUtagRECT@@PAUHWND__@@@Z 10011460 f i ElectronicJournal.obj
 0001:000104f0       ?DoVerbUIActivate@?$IOleObjectImpl@VCOPOSElectronicJournal@@@ATL@@QAEJPBUtagRECT@@PAUHWND__@@@Z 100114f0 f i ElectronicJournal.obj
 0001:00010590       ?DoesVerbActivate@CComControlBase@ATL@@QAEHJ@Z 10011590 f i ElectronicJournal.obj
 0001:00010600       ?DoesVerbUIActivate@CComControlBase@ATL@@QAEHJ@Z 10011600 f i ElectronicJournal.obj
 0001:00010680       ?Draw@?$IViewObjectExImpl@VCOPOSElectronicJournal@@@ATL@@UAGJKJPAXPAUtagDVTARGETDEVICE@@PAUHDC__@@2PBU_RECTL@@3P6GHK@ZK@Z 10011680 f i ElectronicJournal.obj
 0001:00010720       ?Empty@CComBSTR@ATL@@QAEXXZ 10011720 f i ElectronicJournal.obj
 0001:00010760       ?EnableModeless@?$IOleInPlaceActiveObjectImpl@VCOPOSElectronicJournal@@@ATL@@UAGJH@Z 10011760 f i ElectronicJournal.obj
 0001:000107c0       ?EndOfVar@CRegParser@ATL@@IAEHXZ 100117c0 f i ElectronicJournal.obj
 0001:00010830       ?EnsureTI@CComTypeInfoHolder@ATL@@QAEJK@Z 10011830 f i ElectronicJournal.obj
 0001:00010890       ?EnumAdvise@?$IOleObjectImpl@VCOPOSElectronicJournal@@@ATL@@UAGJPAPAUIEnumSTATDATA@@@Z 10011890 f i ElectronicJournal.obj
 0001:000109a0       ?EnumConnectionPoints@?$IConnectionPointContainerImpl@VCOPOSElectronicJournal@@@ATL@@UAGJPAPAUIEnumConnectionPoints@@@Z 100119a0 f i ElectronicJournal.obj
 0001:00010dd0       ?EnumConnections@?$IConnectionPointImpl@VCOPOSElectronicJournal@@$1?DIID__IOPOSElectronicJournalEvents@@3U_GUID@@BVCComDynamicUnkArray@ATL@@@ATL@@UAGJPAPAUIEnumConnections@@@Z 10011dd0 f i ElectronicJournal.obj
 0001:00011020       ?EnumConnections@?$IConnectionPointImpl@VCOPOSElectronicJournal@@$1?IID_IPropertyNotifySink@@3U_GUID@@BVCComDynamicUnkArray@ATL@@@ATL@@UAGJPAPAUIEnumConnections@@@Z 10012020 f i ElectronicJournal.obj
 0001:00011270       ?EnumDAdvise@?$IDataObjectImpl@VCOPOSElectronicJournal@@@ATL@@UAGJPAPAUIEnumSTATDATA@@@Z 10012270 f i ElectronicJournal.obj
 0001:00011370       ?EnumFormatEtc@?$IDataObjectImpl@VCOPOSElectronicJournal@@@ATL@@UAGJKPAPAUIEnumFORMATETC@@@Z 10012370 f i ElectronicJournal.obj
 0001:000113e0       ?EnumVerbs@?$IOleObjectImpl@VCOPOSElectronicJournal@@@ATL@@UAGJPAPAUIEnumOLEVERB@@@Z 100123e0 f i ElectronicJournal.obj
 0001:00011490       ?EscapeSingleQuote@CAtlModule@ATL@@SAXPA_WIPB_W@Z 10012490 f i ElectronicJournal.obj
 0001:00011540       ?ExtractCreateWndData@CAtlWinModule@ATL@@QAEPAXXZ 10012540 f i ElectronicJournal.obj
 0001:00011570       ?FAccessAllowed@?$IObjectSafetyImpl@VCOPOSElectronicJournal@@$02@ATL@@MAEHXZ 10012570 f i ElectronicJournal.obj
 0001:00011590       ?FinalConstruct@?$CComAggObject@VCOPOSElectronicJournal@@@ATL@@QAEJXZ 10012590 f i ElectronicJournal.obj
 0001:000115d0       ?FinalConstruct@CComObjectRootBase@ATL@@QAEJXZ 100125d0 f i ElectronicJournal.obj
 0001:000115f0       ?FinalConstruct@CRegObject@ATL@@QAEJXZ 100125f0 f i ElectronicJournal.obj
 0001:00011620       ?FinalRelease@?$CComAggObject@VCOPOSElectronicJournal@@@ATL@@QAEXXZ 10012620 f i ElectronicJournal.obj
 0001:00011660       ?FinalRelease@CComObjectRootBase@ATL@@QAEXXZ 10012660 f i ElectronicJournal.obj
 0001:00011680       ?FindConnectionPoint@?$IConnectionPointContainerImpl@VCOPOSElectronicJournal@@@ATL@@UAGJABU_GUID@@PAPAUIConnectionPoint@@@Z 10012680 f i ElectronicJournal.obj
 0001:000117d0       ?FindKey@?$CSimpleMap@PA_WPA_WVCExpansionVectorEqualHelper@ATL@@@ATL@@QBEHABQA_W@Z 100127d0 f i ElectronicJournal.obj
 0001:00011840       ?FireTheEvent@?$CProxy_IOPOSEvents@VCOPOSElectronicJournal@@@@IAEXPAUIUnknown@@PAVOposVariant@@IAAJPB_WJ@Z 10012840 f i ElectronicJournal.obj
 0001:000119b0       ?FireViewChange@CComControlBase@ATL@@QAEJXZ 100129b0 f i ElectronicJournal.obj
 0001:00011a70       ?Fire_DataEvent@?$CProxy_IOPOSEvents@VCOPOSElectronicJournal@@@@QAEXJ@Z 10012a70 f i ElectronicJournal.obj
 0001:00011bd0       ?Fire_DirectIOEvent@?$CProxy_IOPOSEvents@VCOPOSElectronicJournal@@@@QAEXJPAJPAPA_W@Z 10012bd0 f i ElectronicJournal.obj
 0001:00011da0       ?Fire_ErrorEvent@?$CProxy_IOPOSEvents@VCOPOSElectronicJournal@@@@QAEXJJJPAJ@Z 10012da0 f i ElectronicJournal.obj
 0001:00011f90       ?Fire_OutputCompleteEvent@?$CProxy_IOPOSEvents@VCOPOSElectronicJournal@@@@QAEXJ@Z 10012f90 f i ElectronicJournal.obj
 0001:000120f0       ?Fire_StatusUpdateEvent@?$CProxy_IOPOSEvents@VCOPOSElectronicJournal@@@@QAEXJ@Z 100130f0 f i ElectronicJournal.obj
 0001:00012250       ?FormatWindowClassName@AtlModuleRegisterWndClassInfoParamW@ATL@@SAXPA_WKPAX@Z 10013250 f i ElectronicJournal.obj
 0001:00012280       ?Free@?$CAutoVectorPtr@_W@ATL@@QAEXXZ 10013280 f i ElectronicJournal.obj
 0001:000122d0       ?FreeHeap@?$CTempBuffer@E$0BAA@VCCRTAllocator@ATL@@@ATL@@AAEXXZ 100132d0 f i ElectronicJournal.obj
 0001:00012300       ?FreeHeap@?$CTempBuffer@_W$0BAA@VCCRTAllocator@ATL@@@ATL@@AAEXXZ 10013300 f i ElectronicJournal.obj
 0001:00012330       ?FreeHeap@?$CTempBuffer@_W$0EAA@VCCRTAllocator@ATL@@@ATL@@AAEXXZ 10013330 f i ElectronicJournal.obj
 0001:00012360       ?Freeze@?$IViewObjectExImpl@VCOPOSElectronicJournal@@@ATL@@UAGJKJPAXPAK@Z 10013360 f i ElectronicJournal.obj
 0001:000123d0       ?GenerateError@CRegParser@ATL@@IAEJI@Z 100133d0 f i ElectronicJournal.obj
 0001:000123f0       ?GetAdvise@?$IViewObjectExImpl@VCOPOSElectronicJournal@@@ATL@@UAGJPAK0PAPAUIAdviseSink@@@Z 100133f0 f i ElectronicJournal.obj
 0001:000124f0       ?GetAmbientLocaleID@CComControlBase@ATL@@QAEJAAK@Z 100134f0 f i ElectronicJournal.obj
 0001:000125d0       ?GetAmbientProperty@CComControlBase@ATL@@QAEJJAAUtagVARIANT@@@Z 100135d0 f i ElectronicJournal.obj
 0001:00012620       ?GetAmbientUserMode@CComControlBase@ATL@@QAEJAAH@Z 10013620 f i ElectronicJournal.obj
 0001:00012720       ?GetAppId@?$CAtlModuleT@VCComModule@ATL@@@ATL@@SAPB_WXZ 10013720 f i ElectronicJournal.obj
 0001:00012730       ?GetAt@CComDynamicUnkArray@ATL@@QAEPAUIUnknown@@H@Z 10013730 f i ElectronicJournal.obj
 0001:000127b0       ?GetCanonicalFormatEtc@?$IDataObjectImpl@VCOPOSElectronicJournal@@@ATL@@UAGJPAUtagFORMATETC@@0@Z 100137b0 f i ElectronicJournal.obj
 0001:00012820       ?GetClassID@?$IPersistStorageImpl@VCOPOSElectronicJournal@@@ATL@@UAGJPAU_GUID@@@Z 10013820 f i ElectronicJournal.obj
 0001:000128a0       ?GetClassID@?$IPersistStreamInitImpl@VCOPOSElectronicJournal@@@ATL@@UAGJPAU_GUID@@@Z 100138a0 f i ElectronicJournal.obj
 0001:00012920       ?GetClassInfoExW@AtlModuleRegisterWndClassInfoParamW@ATL@@SAHPAUHINSTANCE__@@PB_WPAUtagWNDCLASSEXW@@@Z 10013920 f i ElectronicJournal.obj
 0001:00012950       ?GetClassInfoW@?$IProvideClassInfo2Impl@$1?CLSID_OPOSElectronicJournal@@3U_GUID@@B$1?DIID__IOPOSElectronicJournalEvents@@3U2@B$1?LIBID_OposElectronicJournal_CCO@@3U2@B$00$0A@VCComTypeInfoHolder@ATL@@@ATL@@UAGJPAPAUITypeInfo@@@Z 10013950 f i ElectronicJournal.obj
 0001:00012970       ?GetClassObject@CComModule@ATL@@QAEJABU_GUID@@0PAPAX@Z 10013970 f i ElectronicJournal.obj
 0001:00012b70       ?GetClientSite@?$IOleObjectImpl@VCOPOSElectronicJournal@@@ATL@@UAGJPAPAUIOleClientSite@@@Z 10013b70 f i ElectronicJournal.obj
 0001:00012c00       ?GetClipboardData@?$IOleObjectImpl@VCOPOSElectronicJournal@@@ATL@@UAGJKPAPAUIDataObject@@@Z 10013c00 f i ElectronicJournal.obj
 0001:00012c70       ?GetCodeAddress@CDynamicStdCallThunk2@ATL@@QAEPAXXZ 10013c70 f i ElectronicJournal.obj
 0001:00012ca0       ?GetColorSet@?$IViewObjectExImpl@VCOPOSElectronicJournal@@@ATL@@UAGJKJPAXPAUtagDVTARGETDEVICE@@PAUHDC__@@PAPAUtagLOGPALETTE@@@Z 10013ca0 f i ElectronicJournal.obj
 0001:00012d10       ?GetConnMap@COPOSElectronicJournal@@SAPBU_ATL_CONNMAP_ENTRY@ATL@@PAH@Z 10013d10 f i ElectronicJournal.obj
 0001:00012e50       ?GetConnectionInterface@?$IConnectionPointImpl@VCOPOSElectronicJournal@@$1?DIID__IOPOSElectronicJournalEvents@@3U_GUID@@BVCComDynamicUnkArray@ATL@@@ATL@@UAGJPAU_GUID@@@Z 10013e50 f i ElectronicJournal.obj
 0001:00012e90       ?GetConnectionInterface@?$IConnectionPointImpl@VCOPOSElectronicJournal@@$1?IID_IPropertyNotifySink@@3U_GUID@@BVCComDynamicUnkArray@ATL@@@ATL@@UAGJPAU_GUID@@@Z 10013e90 f i ElectronicJournal.obj
 0001:00012ed0       ?GetConnectionPointContainer@?$IConnectionPointImpl@VCOPOSElectronicJournal@@$1?DIID__IOPOSElectronicJournalEvents@@3U_GUID@@BVCComDynamicUnkArray@ATL@@@ATL@@UAGJPAPAUIConnectionPointContainer@@@Z 10013ed0 f i ElectronicJournal.obj
 0001:00012f40       ?GetConnectionPointContainer@?$IConnectionPointImpl@VCOPOSElectronicJournal@@$1?IID_IPropertyNotifySink@@3U_GUID@@BVCComDynamicUnkArray@ATL@@@ATL@@UAGJPAPAUIConnectionPointContainer@@@Z 10013f40 f i ElectronicJournal.obj
 0001:00012fb0       ?GetContentExtent@?$IQuickActivateImpl@VCOPOSElectronicJournal@@@ATL@@UAGJPAUtagSIZE@@@Z 10013fb0 f i ElectronicJournal.obj
 0001:00013040       ?GetControlInfo@?$IOleControlImpl@VCOPOSElectronicJournal@@@ATL@@UAGJPAUtagCONTROLINFO@@@Z 10014040 f i ElectronicJournal.obj
 0001:000130b0       ?GetCookie@CComDynamicUnkArray@ATL@@QAGKPAPAUIUnknown@@@Z 100140b0 f i ElectronicJournal.obj
 0001:00013170       ?GetData@?$IDataObjectImpl@VCOPOSElectronicJournal@@@ATL@@UAGJPAUtagFORMATETC@@PAUtagSTGMEDIUM@@@Z 10014170 f i ElectronicJournal.obj
 0001:00013200       ?GetData@CAtlSafeAllocBufferNode@?$CAtlSafeAllocBufferManager@VCCRTAllocator@ATL@@@_ATL_SAFE_ALLOCA_IMPL@ATL@@QAEPAXXZ 10014200 f i ElectronicJournal.obj
 0001:00013220       ?GetDataHere@?$IDataObjectImpl@VCOPOSElectronicJournal@@@ATL@@UAGJPAUtagFORMATETC@@PAUtagSTGMEDIUM@@@Z 10014220 f i ElectronicJournal.obj
 0001:00013290       ?GetDropTarget@?$IOleInPlaceObjectWindowlessImpl@VCOPOSElectronicJournal@@@ATL@@UAGJPAPAUIDropTarget@@@Z 10014290 f i ElectronicJournal.obj
 0001:00013300       ?GetExtent@?$IOleObjectImpl@VCOPOSElectronicJournal@@@ATL@@UAGJKPAUtagSIZE@@@Z 10014300 f i ElectronicJournal.obj
 0001:000133a0       ?GetExtent@?$IViewObjectExImpl@VCOPOSElectronicJournal@@@ATL@@UAGJKJPAUtagDVTARGETDEVICE@@PAUtagSIZE@@@Z 100143a0 f i ElectronicJournal.obj
 0001:00013470       ?GetGITPtr@CAtlModule@ATL@@UAEJPAPAUIGlobalInterfaceTable@@@Z 10014470 f i ElectronicJournal.obj
 0001:00013570       ?GetGUID@?$IProvideClassInfo2Impl@$1?CLSID_OPOSElectronicJournal@@3U_GUID@@B$1?DIID__IOPOSElectronicJournalEvents@@3U2@B$1?LIBID_OposElectronicJournal_CCO@@3U2@B$00$0A@VCComTypeInfoHolder@ATL@@@ATL@@UAGJKPAU_GUID@@@Z 10014570 f i ElectronicJournal.obj
 0001:000135f0       ?GetIDsOfNames@?$IDispatchImpl@UIOPOSElectronicJournal@@$1?IID_IOPOSElectronicJournal@@3U_GUID@@B$1?LIBID_OposElectronicJournal_CCO@@3U3@B$00$0A@VCComTypeInfoHolder@ATL@@@ATL@@UAGJABU_GUID@@PAPA_WIKPAJ@Z 100145f0 f i ElectronicJournal.obj
 0001:00013620       ?GetIDsOfNames@CComTypeInfoHolder@ATL@@QAEJABU_GUID@@PAPA_WIKPAJ@Z 10014620 f i ElectronicJournal.obj
 0001:000137d0       ?GetInterfaceSafetyOptions@?$IObjectSafetyImpl@VCOPOSElectronicJournal@@$02@ATL@@UAGJABU_GUID@@PAK1@Z 100147d0 f i ElectronicJournal.obj
 0001:00013940       ?GetKeyAt@?$CSimpleMap@PA_WPA_WVCExpansionVectorEqualHelper@ATL@@@ATL@@QBEAAPA_WH@Z 10014940 f i ElectronicJournal.obj
 0001:000139c0       ?GetLockCount@CAtlModule@ATL@@UAEJXZ 100149c0 f i ElectronicJournal.obj
 0001:000139e0       ?GetMiscStatus@?$IOleObjectImpl@VCOPOSElectronicJournal@@@ATL@@UAGJKPAK@Z 100149e0 f i ElectronicJournal.obj
 0001:00013a50       ?GetMoniker@?$IOleObjectImpl@VCOPOSElectronicJournal@@@ATL@@UAGJKKPAPAUIMoniker@@@Z 10014a50 f i ElectronicJournal.obj
 0001:00013ac0       ?GetNaturalExtent@?$IViewObjectExImpl@VCOPOSElectronicJournal@@@ATL@@UAGJKJPAUtagDVTARGETDEVICE@@PAUHDC__@@PAUtagExtentInfo@@PAUtagSIZE@@@Z 10014ac0 f i ElectronicJournal.obj
 0001:00013be0       ?GetObjectCLSID@?$CComCoClass@VCOPOSElectronicJournal@@$1?CLSID_OPOSElectronicJournal@@3U_GUID@@B@ATL@@SGABU_GUID@@XZ 10014be0 f i ElectronicJournal.obj
 0001:00013bf0       ?GetPages@?$ISpecifyPropertyPagesImpl@VCOPOSElectronicJournal@@@ATL@@UAGJPAUtagCAUUID@@@Z 10014bf0 f i ElectronicJournal.obj
 0001:00013c60       ?GetPagesHelper@?$ISpecifyPropertyPagesImpl@VCOPOSElectronicJournal@@@ATL@@IAEJPAUtagCAUUID@@PBUATL_PROPMAP_ENTRY@2@@Z 10014c60 f i ElectronicJournal.obj
 0001:00013e60       ?GetProperty@?$CComPtr@UIDispatch@@@ATL@@QAEJJPAUtagVARIANT@@@Z 10014e60 f i ElectronicJournal.obj
 0001:00013ea0       ?GetProperty@?$CComPtr@UIDispatch@@@ATL@@SAJPAUIDispatch@@JPAUtagVARIANT@@@Z 10014ea0 f i ElectronicJournal.obj
 0001:00014000       ?GetPropertyMap@COPOSElectronicJournal@@SAPBUATL_PROPMAP_ENTRY@ATL@@XZ 10015000 f i ElectronicJournal.obj
 0001:00014010       ?GetRect@?$IViewObjectExImpl@VCOPOSElectronicJournal@@@ATL@@UAGJKPAU_RECTL@@@Z 10015010 f i ElectronicJournal.obj
 0001:00014080       ?GetSize@?$CSimpleMap@PA_WPA_WVCExpansionVectorEqualHelper@ATL@@@ATL@@QBEHXZ 10015080 f i ElectronicJournal.obj
 0001:000140a0       ?GetSize@CComDynamicUnkArray@ATL@@QBEHXZ 100150a0 f i ElectronicJournal.obj
 0001:000140c0       ?GetSizeMax@?$IPersistStreamInitImpl@VCOPOSElectronicJournal@@@ATL@@UAGJPAT_ULARGE_INTEGER@@@Z 100150c0 f i ElectronicJournal.obj
 0001:00014630       ?GetSizeMax@CComVariant@ATL@@QBEJPAT_ULARGE_INTEGER@@@Z 10015630 f i ElectronicJournal.obj
 0001:00014990       ?GetStreamSize@CComBSTR@ATL@@SAKPA_W@Z 10015990 f i ElectronicJournal.obj
 0001:000149e0       ?GetTI@CComTypeInfoHolder@ATL@@QAEJK@Z 100159e0 f i ElectronicJournal.obj
 0001:000151f0       ?GetTI@CComTypeInfoHolder@ATL@@QAEJKPAPAUITypeInfo@@@Z 100161f0 f i ElectronicJournal.obj
 0001:000152b0       ?GetTypeInfo@?$IDispatchImpl@UIOPOSElectronicJournal@@$1?IID_IOPOSElectronicJournal@@3U_GUID@@B$1?LIBID_OposElectronicJournal_CCO@@3U3@B$00$0A@VCComTypeInfoHolder@ATL@@@ATL@@UAGJIKPAPAUITypeInfo@@@Z 100162b0 f i ElectronicJournal.obj
 0001:000152e0       ?GetTypeInfo@CComTypeInfoHolder@ATL@@QAEJIKPAPAUITypeInfo@@@Z 100162e0 f i ElectronicJournal.obj
 0001:00015320       ?GetTypeInfoCount@?$IDispatchImpl@UIOPOSElectronicJournal@@$1?IID_IOPOSElectronicJournal@@3U_GUID@@B$1?LIBID_OposElectronicJournal_CCO@@3U3@B$00$0A@VCComTypeInfoHolder@ATL@@@ATL@@UAGJPAI@Z 10016320 f i ElectronicJournal.obj
 0001:00015340       ?GetUnknown@CComDynamicUnkArray@ATL@@QAGPAUIUnknown@@K@Z 10016340 f i ElectronicJournal.obj
 0001:000153b0       ?GetUnknown@COPOSElectronicJournal@@QAEPAUIUnknown@@XZ 100163b0 f i ElectronicJournal.obj
 0001:000153e0       ?GetUserClassID@?$IOleObjectImpl@VCOPOSElectronicJournal@@@ATL@@UAGJPAU_GUID@@@Z 100163e0 f i ElectronicJournal.obj
 0001:00015490       ?GetUserType@?$IOleObjectImpl@VCOPOSElectronicJournal@@@ATL@@UAGJKPAPA_W@Z 10016490 f i ElectronicJournal.obj
 0001:00015500       ?GetValueAt@?$CSimpleMap@PA_WPA_WVCExpansionVectorEqualHelper@ATL@@@ATL@@QBEAAPA_WH@Z 10016500 f i ElectronicJournal.obj
 0001:00015580       ?GetViewStatus@?$IViewObjectExImpl@VCOPOSElectronicJournal@@@ATL@@UAGJPAK@Z 10016580 f i ElectronicJournal.obj
 0001:00015640       ?GetWNDPROC@CWndProcThunk@ATL@@QAEP6GJPAUHWND__@@IIJ@ZXZ 10016640 f i ElectronicJournal.obj
 0001:00015670       ?GetWindow@?$IOleInPlaceActiveObjectImpl@VCOPOSElectronicJournal@@@ATL@@UAGJPAPAUHWND__@@@Z 10016670 f i ElectronicJournal.obj
 0001:00015740       ?GetWindow@?$IOleInPlaceObjectWindowlessImpl@VCOPOSElectronicJournal@@@ATL@@UAGJPAPAUHWND__@@@Z 10016740 f i ElectronicJournal.obj
 0001:00015810       ?GetWindowLongPtrW@@YAJPAUHWND__@@H@Z 10016810 f i ElectronicJournal.obj
 0001:00015840       ?GetWindowProc@?$CWindowImplBaseT@VCWindow@ATL@@V?$CWinTraits@$0FGAAAAAA@$0A@@2@@ATL@@UAEP6GJPAUHWND__@@IIJ@ZXZ 10016840 f i ElectronicJournal.obj
 0001:00015860       ?GetWndCaption@?$CWindowImpl@VCOPOSElectronicJournal@@VCWindow@ATL@@V?$CWinTraits@$0FGAAAAAA@$0A@@3@@ATL@@SAPB_WXZ 10016860 f i ElectronicJournal.obj
 0001:00015870       ?GetWndClassInfo@?$CWindowImpl@VCOPOSElectronicJournal@@VCWindow@ATL@@V?$CWinTraits@$0FGAAAAAA@$0A@@3@@ATL@@SAAAU_ATL_WNDCLASSINFOW@2@XZ 10016870 f i ElectronicJournal.obj
 0001:00015880       ?GetWndClassName@CWindow@ATL@@SAPB_WXZ 10016880 f i ElectronicJournal.obj
 0001:00015890       ?GetWndExStyle@?$CWinTraits@$0FGAAAAAA@$0A@@ATL@@SAKK@Z 10016890 f i ElectronicJournal.obj
 0001:000158c0       ?GetWndExStyle@?$CWindowImplBaseT@VCWindow@ATL@@V?$CWinTraits@$0FGAAAAAA@$0A@@2@@ATL@@SAKK@Z 100168c0 f i ElectronicJournal.obj
 0001:000158e0       ?GetWndStyle@?$CWinTraits@$0FGAAAAAA@$0A@@ATL@@SAKK@Z 100168e0 f i ElectronicJournal.obj
 0001:00015910       ?GetWndStyle@?$CWindowImplBaseT@VCWindow@ATL@@V?$CWinTraits@$0FGAAAAAA@$0A@@2@@ATL@@SAKK@Z 10016910 f i ElectronicJournal.obj
 0001:00015930       ?GetZoomInfo@CComControlBase@ATL@@QAEXAAUATL_DRAWINFO@@@Z 10016930 f i ElectronicJournal.obj
 0001:00015aa0       ?HKeyFromString@CRegParser@ATL@@KAPAUHKEY__@@PA_W@Z 10016aa0 f i ElectronicJournal.obj
 0001:00015b10       ?HandsOffStorage@?$IPersistStorageImpl@VCOPOSElectronicJournal@@@ATL@@UAGJXZ 10016b10 f i ElectronicJournal.obj
 0001:00015b70       ?HasSubKeys@CRegParser@ATL@@IAEHPAUHKEY__@@@Z 10016b70 f i ElectronicJournal.obj
 0001:00015c80       ?IDataObject_GetData@CComControlBase@ATL@@QAEJPAUtagFORMATETC@@PAUtagSTGMEDIUM@@@Z 10016c80 f i ElectronicJournal.obj
 0001:000160a0       ?IOleInPlaceObject_InPlaceDeactivate@CComControlBase@ATL@@QAEJXZ 100170a0 f i ElectronicJournal.obj
 0001:000162a0       ?IOleInPlaceObject_SetObjectRects@CComControlBase@ATL@@QAEJPBUtagRECT@@0@Z 100172a0 f i ElectronicJournal.obj
 0001:00016460       ?IOleInPlaceObject_UIDeactivate@CComControlBase@ATL@@QAEJXZ 10017460 f i ElectronicJournal.obj
 0001:000166d0       ?IOleObject_Advise@CComControlBase@ATL@@QAEJPAUIAdviseSink@@PAK@Z 100176d0 f i ElectronicJournal.obj
 0001:00016780       ?IOleObject_Close@CComControlBase@ATL@@QAEJK@Z 10017780 f i ElectronicJournal.obj
 0001:00016a30       ?IOleObject_GetClientSite@CComControlBase@ATL@@QAEJPAPAUIOleClientSite@@@Z 10017a30 f i ElectronicJournal.obj
 0001:00016ad0       ?IOleObject_SetClientSite@CComControlBase@ATL@@QAEJPAUIOleClientSite@@@Z 10017ad0 f i ElectronicJournal.obj
 0001:00016ba0       ?IOleObject_SetExtent@CComControlBase@ATL@@QAEJKPAUtagSIZE@@@Z 10017ba0 f i ElectronicJournal.obj
 0001:00016ce0       ?IPSI_GetIPersistStreamInit@?$IPersistStorageImpl@VCOPOSElectronicJournal@@@ATL@@AAEPAUIPersistStreamInit@@XZ 10017ce0 f i ElectronicJournal.obj
 0001:00016db0       ?IPersistStreamInit_Load@?$IPersistStreamInitImpl@VCOPOSElectronicJournal@@@ATL@@QAEJPAUIStream@@PBUATL_PROPMAP_ENTRY@2@@Z 10017db0 f i ElectronicJournal.obj
 0001:00016e30       ?IPersistStreamInit_Save@?$IPersistStreamInitImpl@VCOPOSElectronicJournal@@@ATL@@QAEJPAUIStream@@HPBUATL_PROPMAP_ENTRY@2@@Z 10017e30 f i ElectronicJournal.obj
 0001:00016ec0       ?IQuickActivate_QuickActivate@CComControlBase@ATL@@QAEJPAUtagQACONTAINER@@PAUtagQACONTROL@@@Z 10017ec0 f i ElectronicJournal.obj
 0001:00017510       ?IViewObject_Draw@CComControlBase@ATL@@QAEJKJPAXPAUtagDVTARGETDEVICE@@PAUHDC__@@2PBU_RECTL@@3@Z 10018510 f i ElectronicJournal.obj
 0001:000177b0       ?InPlaceActivate@CComControlBase@ATL@@QAEJJPBUtagRECT@@@Z 100187b0 f i ElectronicJournal.obj
 0001:00018140       ?InPlaceDeactivate@?$IOleInPlaceObjectWindowlessImpl@VCOPOSElectronicJournal@@@ATL@@UAGJXZ 10019140 f i ElectronicJournal.obj
 0001:000181c0       ?Increment@CComMultiThreadModel@ATL@@SGKPAJ@Z 100191c0 f i ElectronicJournal.obj
 0001:000181e0       ?Increment@CComSingleThreadModel@ATL@@SGKPAJ@Z 100191e0 f i ElectronicJournal.obj
 0001:00018200       ?Init@?$CComEnumImpl@UIEnumConnectionPoints@@$1?_GUID_b196b285_bab4_101a_b69c_00aa00341d07@@3U__s_GUID@@BPAUIConnectionPoint@@V?$_CopyInterface@UIConnectionPoint@@@ATL@@@ATL@@QAEJPAPAUIConnectionPoint@@0PAUIUnknown@@W4CComEnumFlags@2@@Z 10019200 f i ElectronicJournal.obj
 0001:000183e0       ?Init@?$CComEnumImpl@UIEnumConnections@@$1?_GUID_b196b287_bab4_101a_b69c_00aa00341d07@@3U__s_GUID@@BUtagCONNECTDATA@@V?$_Copy@UtagCONNECTDATA@@@ATL@@@ATL@@QAEJPAUtagCONNECTDATA@@0PAUIUnknown@@W4CComEnumFlags@2@@Z 100193e0 f i ElectronicJournal.obj
 0001:000185c0       ?Init@CComFakeCriticalSection@ATL@@QAEJXZ 100195c0 f i ElectronicJournal.obj
 0001:000185e0       ?Init@CComModule@ATL@@QAEJPAU_ATL_OBJMAP_ENTRY30@2@PAUHINSTANCE__@@PBU_GUID@@@Z 100195e0 f i ElectronicJournal.obj
 0001:000186d0       ?Init@CComSafeDeleteCriticalSection@ATL@@QAEJXZ 100196d0 f i ElectronicJournal.obj
 0001:00018750       ?Init@CDynamicStdCallThunk2@ATL@@QAEHKPAX@Z 10019750 f i ElectronicJournal.obj
 0001:000187b0       ?Init@CWndProcThunk@ATL@@QAEHP6GJPAUHWND__@@IIJ@ZPAX@Z 100197b0 f i ElectronicJournal.obj
 0001:000187f0       ?InitFromData@?$IOleObjectImpl@VCOPOSElectronicJournal@@@ATL@@UAGJPAUIDataObject@@HK@Z 100197f0 f i ElectronicJournal.obj
 0001:00018860       ?InitLibId@?$CAtlModuleT@VCComModule@ATL@@@ATL@@SAXXZ 10019860 f i ElectronicJournal.obj
 0001:00018870       ?InitNew@?$IPersistStorageImpl@VCOPOSElectronicJournal@@@ATL@@UAGJPAUIStorage@@@Z 10019870 f i ElectronicJournal.obj
 0001:00018960       ?InitNew@?$IPersistStreamInitImpl@VCOPOSElectronicJournal@@@ATL@@UAGJXZ 10019960 f i ElectronicJournal.obj
 0001:000189f0       ?InlineIsEqualUnknown@ATL@@YGHABU_GUID@@@Z 100199f0 f i ElectronicJournal.obj
 0001:00018a60       ?InternalAddRef@?$CComObjectRootEx@VCComMultiThreadModel@ATL@@@ATL@@QAEKXZ 10019a60 f i ElectronicJournal.obj
 0001:00018ac0       ?InternalAddRef@?$CComObjectRootEx@VCComSingleThreadModel@ATL@@@ATL@@QAEKXZ 10019ac0 f i ElectronicJournal.obj
 0001:00018b20       ?InternalFinalConstructAddRef@CComObjectRootBase@ATL@@QAEXXZ 10019b20 f i ElectronicJournal.obj
 0001:00018b40       ?InternalFinalConstructAddRef@COPOSElectronicJournal@@QAEXXZ 10019b40 f i ElectronicJournal.obj
 0001:00018b70       ?InternalFinalConstructRelease@CComObjectRootBase@ATL@@QAEXXZ 10019b70 f i ElectronicJournal.obj
 0001:00018bc0       ?InternalFinalConstructRelease@COPOSElectronicJournal@@QAEXXZ 10019bc0 f i ElectronicJournal.obj
 0001:00018bf0       ?InternalGetSite@CComControlBase@ATL@@QAEJABU_GUID@@PAPAX@Z 10019bf0 f i ElectronicJournal.obj
 0001:00018cb0       ?InternalQueryInterface@CComObjectRootBase@ATL@@SGJPAXPBU_ATL_INTMAP_ENTRY@2@ABU_GUID@@PAPAX@Z 10019cb0 f i ElectronicJournal.obj
 0001:00018d70       ?InternalRelease@?$CComObjectRootEx@VCComMultiThreadModel@ATL@@@ATL@@QAEKXZ 10019d70 f i ElectronicJournal.obj
 0001:00018de0       ?InternalRelease@?$CComObjectRootEx@VCComSingleThreadModel@ATL@@@ATL@@QAEKXZ 10019de0 f i ElectronicJournal.obj
 0001:00018e50       ?InternalSetAtIndex@?$CSimpleArray@GV?$CSimpleArrayEqualHelper@G@ATL@@@ATL@@QAEXHABG@Z 10019e50 f i ElectronicJournal.obj
 0001:00018ec0       ?InternalSetAtIndex@?$CSimpleMap@PA_WPA_WVCExpansionVectorEqualHelper@ATL@@@ATL@@QAEXHABQA_W0@Z 10019ec0 f i ElectronicJournal.obj
 0001:00018f60       ?Invoke@?$IDispatchImpl@UIOPOSElectronicJournal@@$1?IID_IOPOSElectronicJournal@@3U_GUID@@B$1?LIBID_OposElectronicJournal_CCO@@3U3@B$00$0A@VCComTypeInfoHolder@ATL@@@ATL@@UAGJJABU_GUID@@KGPAUtagDISPPARAMS@@PAUtagVARIANT@@PAUtagEXCEPINFO@@PAI@Z 10019f60 f i ElectronicJournal.obj
 0001:00018fa0       ?Invoke@CComTypeInfoHolder@ATL@@QAEJPAUIDispatch@@JABU_GUID@@KGPAUtagDISPPARAMS@@PAUtagVARIANT@@PAUtagEXCEPINFO@@PAI@Z 10019fa0 f i ElectronicJournal.obj
 0001:00019030       ?IsDirty@?$IPersistStorageImpl@VCOPOSElectronicJournal@@@ATL@@UAGJXZ 1001a030 f i ElectronicJournal.obj
 0001:00019120       ?IsDirty@?$IPersistStreamInitImpl@VCOPOSElectronicJournal@@@ATL@@UAGJXZ 1001a120 f i ElectronicJournal.obj
 0001:000191c0       ?IsEqualKey@CExpansionVectorEqualHelper@ATL@@SA_NQA_W0@Z 1001a1c0 f i ElectronicJournal.obj
 0001:000191f0       ?IsEqualObject@?$CComPtrBase@UIOleClientSite@@@ATL@@QAE_NPAUIUnknown@@@Z 1001a1f0 f i ElectronicJournal.obj
 0001:00019320       ?IsEqualObject@?$CComPtrBase@UITypeInfo@@@ATL@@QAE_NPAUIUnknown@@@Z 1001a320 f i ElectronicJournal.obj
 0001:00019450       ?IsSpace@CRegParser@ATL@@IAEH_W@Z 1001a450 f i ElectronicJournal.obj
 0001:000194c0       ?IsUpToDate@?$IOleObjectImpl@VCOPOSElectronicJournal@@@ATL@@UAGJXZ 1001a4c0 f i ElectronicJournal.obj
 0001:00019520       ?Length@CComBSTR@ATL@@QBEIXZ 1001a520 f i ElectronicJournal.obj
 0001:00019560       ?Load@?$IPersistStorageImpl@VCOPOSElectronicJournal@@@ATL@@UAGJPAUIStorage@@@Z 1001a560 f i ElectronicJournal.obj
 0001:000196c0       ?Load@?$IPersistStreamInitImpl@VCOPOSElectronicJournal@@@ATL@@UAGJPAUIStream@@@Z 1001a6c0 f i ElectronicJournal.obj
 0001:00019750       ?LoadCursorW@AtlModuleRegisterWndClassInfoParamW@ATL@@SAPAUHICON__@@PAUHINSTANCE__@@PB_W@Z 1001a750 f i ElectronicJournal.obj
 0001:00019780       ?LoadNameCache@CComTypeInfoHolder@ATL@@QAEJPAUITypeInfo@@@Z 1001a780 f i ElectronicJournal.obj
 0001:00019a10       ?Lock@?$CComCritSecLock@VCComCriticalSection@ATL@@@ATL@@QAEJXZ 1001aa10 f i ElectronicJournal.obj
 0001:00019ac0       ?Lock@?$CComObjectRootEx@VCComSingleThreadModel@ATL@@@ATL@@QAEXXZ 1001aac0 f i ElectronicJournal.obj
 0001:00019ae0       ?Lock@CAtlModule@ATL@@UAEJXZ 1001aae0 f i ElectronicJournal.obj
 0001:00019b10       ?Lock@CComCriticalSection@ATL@@QAEJXZ 1001ab10 f i ElectronicJournal.obj
 0001:00019b50       ?Lock@CComFakeCriticalSection@ATL@@QAEJXZ 1001ab50 f i ElectronicJournal.obj
 0001:00019b70       ?LockServer@CComClassFactory@ATL@@UAGJH@Z 1001ab70 f i ElectronicJournal.obj
 0001:00019bd0       ?Lookup@?$CSimpleMap@PA_WPA_WVCExpansionVectorEqualHelper@ATL@@@ATL@@QBEPA_WABQA_W@Z 1001abd0 f i ElectronicJournal.obj
 0001:00019c20       ?Next@?$CComEnumImpl@UIEnumConnectionPoints@@$1?_GUID_b196b285_bab4_101a_b69c_00aa00341d07@@3U__s_GUID@@BPAUIConnectionPoint@@V?$_CopyInterface@UIConnectionPoint@@@ATL@@@ATL@@UAGJKPAPAUIConnectionPoint@@PAK@Z 1001ac20 f i ElectronicJournal.obj
 0001:00019d90       ?Next@?$CComEnumImpl@UIEnumConnections@@$1?_GUID_b196b287_bab4_101a_b69c_00aa00341d07@@3U__s_GUID@@BUtagCONNECTDATA@@V?$_Copy@UtagCONNECTDATA@@@ATL@@@ATL@@UAGJKPAUtagCONNECTDATA@@PAK@Z 1001ad90 f i ElectronicJournal.obj
 0001:00019f00       ?NextToken@CRegParser@ATL@@IAEJPA_W@Z 1001af00 f i ElectronicJournal.obj
 0001:0001a1a0       ?OLE2CT_EX@@YAPB_WPB_WI@Z  1001b1a0 f i ElectronicJournal.obj
 0001:0001a1b0       ?OLE2CT_EX_DEF@@YAPB_WPB_W@Z 1001b1b0 f i ElectronicJournal.obj
 0001:0001a1c0       ?OLE2T_EX@@YAPA_WPA_WI@Z   1001b1c0 f i ElectronicJournal.obj
 0001:0001a1d0       ?OnAmbientPropertyChange@?$IOleControlImpl@VCOPOSElectronicJournal@@@ATL@@UAGJJ@Z 1001b1d0 f i ElectronicJournal.obj
 0001:0001a260       ?OnDocWindowActivate@?$IOleInPlaceActiveObjectImpl@VCOPOSElectronicJournal@@@ATL@@UAGJH@Z 1001b260 f i ElectronicJournal.obj
 0001:0001a2f0       ?OnDrawAdvanced@CComControlBase@ATL@@UAEJAAUATL_DRAWINFO@@@Z 1001b2f0 f i ElectronicJournal.obj
 0001:0001a510       ?OnFinalMessage@?$CWindowImplBaseT@VCWindow@ATL@@V?$CWinTraits@$0FGAAAAAA@$0A@@2@@ATL@@UAEXPAUHWND__@@@Z 1001b510 f i ElectronicJournal.obj
 0001:0001a530       ?OnFrameWindowActivate@?$IOleInPlaceActiveObjectImpl@VCOPOSElectronicJournal@@@ATL@@UAGJH@Z 1001b530 f i ElectronicJournal.obj
 0001:0001a590       ?OnKillFocus@CComControlBase@ATL@@QAEJIIJAAH@Z 1001b590 f i ElectronicJournal.obj
 0001:0001a690       ?OnMnemonic@?$IOleControlImpl@VCOPOSElectronicJournal@@@ATL@@UAGJPAUtagMSG@@@Z 1001b690 f i ElectronicJournal.obj
 0001:0001a700       ?OnMouseActivate@CComControlBase@ATL@@QAEJIIJAAH@Z 1001b700 f i ElectronicJournal.obj
 0001:0001a850       ?OnPaint@CComControlBase@ATL@@QAEJIIJAAH@Z 1001b850 f i ElectronicJournal.obj
 0001:0001a9d0       ?OnPostVerbDiscardUndo@?$IOleObjectImpl@VCOPOSElectronicJournal@@@ATL@@QAEJXZ 1001b9d0 f i ElectronicJournal.obj
 0001:0001a9f0       ?OnPostVerbHide@?$IOleObjectImpl@VCOPOSElectronicJournal@@@ATL@@QAEJXZ 1001b9f0 f i ElectronicJournal.obj
 0001:0001aa10       ?OnPostVerbInPlaceActivate@?$IOleObjectImpl@VCOPOSElectronicJournal@@@ATL@@QAEJXZ 1001ba10 f i ElectronicJournal.obj
 0001:0001aa30       ?OnPostVerbOpen@?$IOleObjectImpl@VCOPOSElectronicJournal@@@ATL@@QAEJXZ 1001ba30 f i ElectronicJournal.obj
 0001:0001aa50       ?OnPostVerbShow@?$IOleObjectImpl@VCOPOSElectronicJournal@@@ATL@@QAEJXZ 1001ba50 f i ElectronicJournal.obj
 0001:0001aa70       ?OnPostVerbUIActivate@?$IOleObjectImpl@VCOPOSElectronicJournal@@@ATL@@QAEJXZ 1001ba70 f i ElectronicJournal.obj
 0001:0001aa90       ?OnPreVerbDiscardUndo@?$IOleObjectImpl@VCOPOSElectronicJournal@@@ATL@@QAEJXZ 1001ba90 f i ElectronicJournal.obj
 0001:0001aab0       ?OnPreVerbHide@?$IOleObjectImpl@VCOPOSElectronicJournal@@@ATL@@QAEJXZ 1001bab0 f i ElectronicJournal.obj
 0001:0001aad0       ?OnPreVerbInPlaceActivate@?$IOleObjectImpl@VCOPOSElectronicJournal@@@ATL@@QAEJXZ 1001bad0 f i ElectronicJournal.obj
 0001:0001aaf0       ?OnPreVerbOpen@?$IOleObjectImpl@VCOPOSElectronicJournal@@@ATL@@QAEJXZ 1001baf0 f i ElectronicJournal.obj
 0001:0001ab10       ?OnPreVerbShow@?$IOleObjectImpl@VCOPOSElectronicJournal@@@ATL@@QAEJXZ 1001bb10 f i ElectronicJournal.obj
 0001:0001ab30       ?OnPreVerbUIActivate@?$IOleObjectImpl@VCOPOSElectronicJournal@@@ATL@@QAEJXZ 1001bb30 f i ElectronicJournal.obj
 0001:0001ab50       ?OnSetFocus@CComControlBase@ATL@@QAEJIIJAAH@Z 1001bb50 f i ElectronicJournal.obj
 0001:0001ace0       ?OnWindowMessage@?$IOleInPlaceObjectWindowlessImpl@VCOPOSElectronicJournal@@@ATL@@UAGJIIJPAJ@Z 1001bce0 f i ElectronicJournal.obj
 0001:0001ae40       ?Open@CRegKey@ATL@@QAEJPAUHKEY__@@PB_WK@Z 1001be40 f i ElectronicJournal.obj
 0001:0001af90       ?OuterAddRef@CComObjectRootBase@ATL@@QAEKXZ 1001bf90 f i ElectronicJournal.obj
 0001:0001afd0       ?OuterQueryInterface@CComObjectRootBase@ATL@@QAEJABU_GUID@@PAPAX@Z 1001bfd0 f i ElectronicJournal.obj
 0001:0001b020       ?OuterRelease@CComObjectRootBase@ATL@@QAEKXZ 1001c020 f i ElectronicJournal.obj
 0001:0001b060       ?PreProcessBuffer@CRegParser@ATL@@QAEJPA_WPAPA_W@Z 1001c060 f i ElectronicJournal.obj
 0001:0001b5a0       ?PreTranslateAccelerator@CComControlBase@ATL@@QAEHPAUtagMSG@@AAJ@Z 1001c5a0 f i ElectronicJournal.obj
 0001:0001b5c0       ?ProcessWindowMessage@?$CComControl@VCOPOSElectronicJournal@@V?$CWindowImpl@VCOPOSElectronicJournal@@VCWindow@ATL@@V?$CWinTraits@$0FGAAAAAA@$0A@@3@@ATL@@@ATL@@UAEHPAUHWND__@@IIJAAJK@Z 1001c5c0 f i ElectronicJournal.obj
 0001:0001b790       ?ProcessWindowMessage@COPOSElectronicJournal@@UAEHPAUHWND__@@IIJAAJK@Z 1001c790 f i ElectronicJournal.obj
 0001:0001b890       ?PutProperty@?$CComPtr@UIDispatch@@@ATL@@QAEJJPAUtagVARIANT@@@Z 1001c890 f i ElectronicJournal.obj
 0001:0001b8d0       ?PutProperty@?$CComPtr@UIDispatch@@@ATL@@SAJPAUIDispatch@@JPAUtagVARIANT@@@Z 1001c8d0 f i ElectronicJournal.obj
 0001:0001bac0       ?QueryGetData@?$IDataObjectImpl@VCOPOSElectronicJournal@@@ATL@@UAGJPAUtagFORMATETC@@@Z 1001cac0 f i ElectronicJournal.obj
 0001:0001bb30       ?QueryHitPoint@?$IViewObjectExImpl@VCOPOSElectronicJournal@@@ATL@@UAGJKPBUtagRECT@@UtagPOINT@@JPAK@Z 1001cb30 f i ElectronicJournal.obj
 0001:0001bc40       ?QueryHitRect@?$IViewObjectExImpl@VCOPOSElectronicJournal@@@ATL@@UAGJKPBUtagRECT@@0JPAK@Z 1001cc40 f i ElectronicJournal.obj
 0001:0001bd90       ?QueryInterface@?$CComAggObject@VCOPOSElectronicJournal@@@ATL@@UAGJABU_GUID@@PAPAX@Z 1001cd90 f i ElectronicJournal.obj
 0001:0001be40       ?QueryInterface@?$CComContainedObject@VCOPOSElectronicJournal@@@ATL@@UAGJABU_GUID@@PAPAX@Z 1001ce40 f i ElectronicJournal.obj
 0001:0001be64       ?QueryInterface@?$CComContainedObject@VCOPOSElectronicJournal@@@ATL@@WHA@AGJABU_GUID@@PAPAX@Z 1001ce64 f i ElectronicJournal.obj
 0001:0001be6e       ?QueryInterface@?$CComContainedObject@VCOPOSElectronicJournal@@@ATL@@WHE@AGJABU_GUID@@PAPAX@Z 1001ce6e f i ElectronicJournal.obj
 0001:0001be78       ?QueryInterface@?$CComContainedObject@VCOPOSElectronicJournal@@@ATL@@WHI@AGJABU_GUID@@PAPAX@Z 1001ce78 f i ElectronicJournal.obj
 0001:0001be82       ?QueryInterface@?$CComContainedObject@VCOPOSElectronicJournal@@@ATL@@WHM@AGJABU_GUID@@PAPAX@Z 1001ce82 f i ElectronicJournal.obj
 0001:0001be8c       ?QueryInterface@?$CComContainedObject@VCOPOSElectronicJournal@@@ATL@@WIA@AGJABU_GUID@@PAPAX@Z 1001ce8c f i ElectronicJournal.obj
 0001:0001be99       ?QueryInterface@?$CComContainedObject@VCOPOSElectronicJournal@@@ATL@@WIE@AGJABU_GUID@@PAPAX@Z 1001ce99 f i ElectronicJournal.obj
 0001:0001bea6       ?QueryInterface@?$CComContainedObject@VCOPOSElectronicJournal@@@ATL@@WII@AGJABU_GUID@@PAPAX@Z 1001cea6 f i ElectronicJournal.obj
 0001:0001beb3       ?QueryInterface@?$CComContainedObject@VCOPOSElectronicJournal@@@ATL@@WIM@AGJABU_GUID@@PAPAX@Z 1001ceb3 f i ElectronicJournal.obj
 0001:0001bec0       ?QueryInterface@?$CComContainedObject@VCOPOSElectronicJournal@@@ATL@@WJA@AGJABU_GUID@@PAPAX@Z 1001cec0 f i ElectronicJournal.obj
 0001:0001becd       ?QueryInterface@?$CComContainedObject@VCOPOSElectronicJournal@@@ATL@@WJE@AGJABU_GUID@@PAPAX@Z 1001cecd f i ElectronicJournal.obj
 0001:0001beda       ?QueryInterface@?$CComContainedObject@VCOPOSElectronicJournal@@@ATL@@WJI@AGJABU_GUID@@PAPAX@Z 1001ceda f i ElectronicJournal.obj
 0001:0001bee7       ?QueryInterface@?$CComContainedObject@VCOPOSElectronicJournal@@@ATL@@WJM@AGJABU_GUID@@PAPAX@Z 1001cee7 f i ElectronicJournal.obj
 0001:0001bef4       ?QueryInterface@?$CComContainedObject@VCOPOSElectronicJournal@@@ATL@@WKA@AGJABU_GUID@@PAPAX@Z 1001cef4 f i ElectronicJournal.obj
 0001:0001bf10       ?QueryInterface@?$CComObject@V?$CComEnum@UIEnumConnectionPoints@@$1?_GUID_b196b285_bab4_101a_b69c_00aa00341d07@@3U__s_GUID@@BPAUIConnectionPoint@@V?$_CopyInterface@UIConnectionPoint@@@ATL@@VCComSingleThreadModel@6@@ATL@@@ATL@@UAGJABU_GUID@@PAPAX@Z 1001cf10 f i ElectronicJournal.obj
 0001:0001bf30       ?QueryInterface@?$CComObject@V?$CComEnum@UIEnumConnections@@$1?_GUID_b196b287_bab4_101a_b69c_00aa00341d07@@3U__s_GUID@@BUtagCONNECTDATA@@V?$_Copy@UtagCONNECTDATA@@@ATL@@VCComSingleThreadModel@6@@ATL@@@ATL@@UAGJABU_GUID@@PAPAX@Z 1001cf30 f i ElectronicJournal.obj
 0001:0001bf50       ?QueryInterface@?$CComObject@VCOPOSElectronicJournal@@@ATL@@UAGJABU_GUID@@PAPAX@Z 1001cf50 f i ElectronicJournal.obj
 0001:0001bf6e       ?QueryInterface@?$CComObject@VCOPOSElectronicJournal@@@ATL@@WHA@AGJABU_GUID@@PAPAX@Z 1001cf6e f i ElectronicJournal.obj
 0001:0001bf78       ?QueryInterface@?$CComObject@VCOPOSElectronicJournal@@@ATL@@WHE@AGJABU_GUID@@PAPAX@Z 1001cf78 f i ElectronicJournal.obj
 0001:0001bf82       ?QueryInterface@?$CComObject@VCOPOSElectronicJournal@@@ATL@@WHI@AGJABU_GUID@@PAPAX@Z 1001cf82 f i ElectronicJournal.obj
 0001:0001bf8c       ?QueryInterface@?$CComObject@VCOPOSElectronicJournal@@@ATL@@WHM@AGJABU_GUID@@PAPAX@Z 1001cf8c f i ElectronicJournal.obj
 0001:0001bf96       ?QueryInterface@?$CComObject@VCOPOSElectronicJournal@@@ATL@@WIA@AGJABU_GUID@@PAPAX@Z 1001cf96 f i ElectronicJournal.obj
 0001:0001bfa3       ?QueryInterface@?$CComObject@VCOPOSElectronicJournal@@@ATL@@WIE@AGJABU_GUID@@PAPAX@Z 1001cfa3 f i ElectronicJournal.obj
 0001:0001bfb0       ?QueryInterface@?$CComObject@VCOPOSElectronicJournal@@@ATL@@WII@AGJABU_GUID@@PAPAX@Z 1001cfb0 f i ElectronicJournal.obj
 0001:0001bfbd       ?QueryInterface@?$CComObject@VCOPOSElectronicJournal@@@ATL@@WIM@AGJABU_GUID@@PAPAX@Z 1001cfbd f i ElectronicJournal.obj
 0001:0001bfca       ?QueryInterface@?$CComObject@VCOPOSElectronicJournal@@@ATL@@WJA@AGJABU_GUID@@PAPAX@Z 1001cfca f i ElectronicJournal.obj
 0001:0001bfd7       ?QueryInterface@?$CComObject@VCOPOSElectronicJournal@@@ATL@@WJE@AGJABU_GUID@@PAPAX@Z 1001cfd7 f i ElectronicJournal.obj
 0001:0001bfe4       ?QueryInterface@?$CComObject@VCOPOSElectronicJournal@@@ATL@@WJI@AGJABU_GUID@@PAPAX@Z 1001cfe4 f i ElectronicJournal.obj
 0001:0001bff1       ?QueryInterface@?$CComObject@VCOPOSElectronicJournal@@@ATL@@WJM@AGJABU_GUID@@PAPAX@Z 1001cff1 f i ElectronicJournal.obj
 0001:0001bffe       ?QueryInterface@?$CComObject@VCOPOSElectronicJournal@@@ATL@@WKA@AGJABU_GUID@@PAPAX@Z 1001cffe f i ElectronicJournal.obj
 0001:0001c010       ?QueryInterface@?$CComObjectCached@VCComClassFactory@ATL@@@ATL@@UAGJABU_GUID@@PAPAX@Z 1001d010 f i ElectronicJournal.obj
 0001:0001c030       ?QueryInterface@CRegObject@ATL@@UAGJABU_GUID@@PAPAX@Z 1001d030 f i ElectronicJournal.obj
 0001:0001c080       ?QuickActivate@?$IQuickActivateImpl@VCOPOSElectronicJournal@@@ATL@@UAGJPAUtagQACONTAINER@@PAUtagQACONTROL@@@Z 1001d080 f i ElectronicJournal.obj
 0001:0001c110       ?ReactivateAndUndo@?$IOleInPlaceObjectWindowlessImpl@VCOPOSElectronicJournal@@@ATL@@UAGJXZ 1001d110 f i ElectronicJournal.obj
 0001:0001c180       ?ReadFromStream@CComBSTR@ATL@@QAEJPAUIStream@@@Z 1001d180 f i ElectronicJournal.obj
 0001:0001c580       ?ReadFromStream@CComVariant@ATL@@QAEJPAUIStream@@GTClassesAllowedInStream@2@K@Z 1001d580 f i ElectronicJournal.obj
 0001:0001c8e0       ?RecurseDeleteKey@CRegKey@ATL@@QAEJPB_W@Z 1001d8e0 f i ElectronicJournal.obj
 0001:0001cac0       ?RegCreateKeyExW@CAtlTransactionManager@ATL@@QAEJPAUHKEY__@@PB_WKPA_WKKQAU_SECURITY_ATTRIBUTES@@PAPAU3@PAK@Z 1001dac0 f i ElectronicJournal.obj
 0001:0001cbf0       ?RegDeleteKeyW@CAtlTransactionManager@ATL@@QAEJPAUHKEY__@@PB_W@Z 1001dbf0 f i ElectronicJournal.obj
 0001:0001ccf0       ?RegOpenKeyExW@CAtlTransactionManager@ATL@@QAEJPAUHKEY__@@PB_WKKPAPAU3@@Z 1001dcf0 f i ElectronicJournal.obj
 0001:0001ce00       ?Register@_ATL_WNDCLASSINFOW@ATL@@QAEGPAP6GJPAUHWND__@@IIJ@Z@Z 1001de00 f i ElectronicJournal.obj
 0001:0001ce40       ?RegisterBuffer@CRegParser@ATL@@QAEJPA_WH@Z 1001de40 f i ElectronicJournal.obj
 0001:0001d170       ?RegisterClassExW@AtlModuleRegisterWndClassInfoParamW@ATL@@SAGPAU_ATL_WIN_MODULE70@2@PBUtagWNDCLASSEXW@@@Z 1001e170 f i ElectronicJournal.obj
 0001:0001d190       ?RegisterFromResource@CRegObject@ATL@@IAEJPB_W00H@Z 1001e190 f i ElectronicJournal.obj
 0001:0001d520       ?RegisterServer@?$CAtlModuleT@VCComModule@ATL@@@ATL@@QAEJHPBU_GUID@@@Z 1001e520 f i ElectronicJournal.obj
 0001:0001d5a0       ?RegisterServer@CAtlComModule@ATL@@QAEJHPBU_GUID@@@Z 1001e5a0 f i ElectronicJournal.obj
 0001:0001d5d0       ?RegisterServer@CComModule@ATL@@QAEJHPBU_GUID@@@Z 1001e5d0 f i ElectronicJournal.obj
 0001:0001d6b0       ?RegisterSubkeys@CRegParser@ATL@@IAEJPA_WPAUHKEY__@@HH@Z 1001e6b0 f i ElectronicJournal.obj
 0001:0001e1d0       ?Release@?$CComAggObject@VCOPOSElectronicJournal@@@ATL@@UAGKXZ 1001f1d0 f i ElectronicJournal.obj
 0001:0001e290       ?Release@?$CComContainedObject@VCOPOSElectronicJournal@@@ATL@@UAGKXZ 1001f290 f i ElectronicJournal.obj
 0001:0001e2ac       ?Release@?$CComContainedObject@VCOPOSElectronicJournal@@@ATL@@WHA@AGKXZ 1001f2ac f i ElectronicJournal.obj
 0001:0001e2b6       ?Release@?$CComContainedObject@VCOPOSElectronicJournal@@@ATL@@WHE@AGKXZ 1001f2b6 f i ElectronicJournal.obj
 0001:0001e2c0       ?Release@?$CComContainedObject@VCOPOSElectronicJournal@@@ATL@@WHI@AGKXZ 1001f2c0 f i ElectronicJournal.obj
 0001:0001e2ca       ?Release@?$CComContainedObject@VCOPOSElectronicJournal@@@ATL@@WHM@AGKXZ 1001f2ca f i ElectronicJournal.obj
 0001:0001e2d4       ?Release@?$CComContainedObject@VCOPOSElectronicJournal@@@ATL@@WIA@AGKXZ 1001f2d4 f i ElectronicJournal.obj
 0001:0001e2e1       ?Release@?$CComContainedObject@VCOPOSElectronicJournal@@@ATL@@WIE@AGKXZ 1001f2e1 f i ElectronicJournal.obj
 0001:0001e2ee       ?Release@?$CComContainedObject@VCOPOSElectronicJournal@@@ATL@@WII@AGKXZ 1001f2ee f i ElectronicJournal.obj
 0001:0001e2fb       ?Release@?$CComContainedObject@VCOPOSElectronicJournal@@@ATL@@WIM@AGKXZ 1001f2fb f i ElectronicJournal.obj
 0001:0001e308       ?Release@?$CComContainedObject@VCOPOSElectronicJournal@@@ATL@@WJA@AGKXZ 1001f308 f i ElectronicJournal.obj
 0001:0001e315       ?Release@?$CComContainedObject@VCOPOSElectronicJournal@@@ATL@@WJE@AGKXZ 1001f315 f i ElectronicJournal.obj
 0001:0001e322       ?Release@?$CComContainedObject@VCOPOSElectronicJournal@@@ATL@@WJI@AGKXZ 1001f322 f i ElectronicJournal.obj
 0001:0001e32f       ?Release@?$CComContainedObject@VCOPOSElectronicJournal@@@ATL@@WJM@AGKXZ 1001f32f f i ElectronicJournal.obj
 0001:0001e33c       ?Release@?$CComContainedObject@VCOPOSElectronicJournal@@@ATL@@WKA@AGKXZ 1001f33c f i ElectronicJournal.obj
 0001:0001e349       ?Release@?$CComContainedObject@VCOPOSElectronicJournal@@@ATL@@WKI@AGKXZ 1001f349 f i ElectronicJournal.obj
 0001:0001e356       ?Release@?$CComContainedObject@VCOPOSElectronicJournal@@@ATL@@WLE@AGKXZ 1001f356 f i ElectronicJournal.obj
 0001:0001e370       ?Release@?$CComObject@V?$CComEnum@UIEnumConnectionPoints@@$1?_GUID_b196b285_bab4_101a_b69c_00aa00341d07@@3U__s_GUID@@BPAUIConnectionPoint@@V?$_CopyInterface@UIConnectionPoint@@@ATL@@VCComSingleThreadModel@6@@ATL@@@ATL@@UAGKXZ 1001f370 f i ElectronicJournal.obj
 0001:0001e430       ?Release@?$CComObject@V?$CComEnum@UIEnumConnections@@$1?_GUID_b196b287_bab4_101a_b69c_00aa00341d07@@3U__s_GUID@@BUtagCONNECTDATA@@V?$_Copy@UtagCONNECTDATA@@@ATL@@VCComSingleThreadModel@6@@ATL@@@ATL@@UAGKXZ 1001f430 f i ElectronicJournal.obj
 0001:0001e4f0       ?Release@?$CComObject@VCOPOSElectronicJournal@@@ATL@@UAGKXZ 1001f4f0 f i ElectronicJournal.obj
 0001:0001e5a9       ?Release@?$CComObject@VCOPOSElectronicJournal@@@ATL@@WHA@AGKXZ 1001f5a9 f i ElectronicJournal.obj
 0001:0001e5b3       ?Release@?$CComObject@VCOPOSElectronicJournal@@@ATL@@WHE@AGKXZ 1001f5b3 f i ElectronicJournal.obj
 0001:0001e5bd       ?Release@?$CComObject@VCOPOSElectronicJournal@@@ATL@@WHI@AGKXZ 1001f5bd f i ElectronicJournal.obj
 0001:0001e5c7       ?Release@?$CComObject@VCOPOSElectronicJournal@@@ATL@@WHM@AGKXZ 1001f5c7 f i ElectronicJournal.obj
 0001:0001e5d1       ?Release@?$CComObject@VCOPOSElectronicJournal@@@ATL@@WIA@AGKXZ 1001f5d1 f i ElectronicJournal.obj
 0001:0001e5de       ?Release@?$CComObject@VCOPOSElectronicJournal@@@ATL@@WIE@AGKXZ 1001f5de f i ElectronicJournal.obj
 0001:0001e5eb       ?Release@?$CComObject@VCOPOSElectronicJournal@@@ATL@@WII@AGKXZ 1001f5eb f i ElectronicJournal.obj
 0001:0001e5f8       ?Release@?$CComObject@VCOPOSElectronicJournal@@@ATL@@WIM@AGKXZ 1001f5f8 f i ElectronicJournal.obj
 0001:0001e605       ?Release@?$CComObject@VCOPOSElectronicJournal@@@ATL@@WJA@AGKXZ 1001f605 f i ElectronicJournal.obj
 0001:0001e612       ?Release@?$CComObject@VCOPOSElectronicJournal@@@ATL@@WJE@AGKXZ 1001f612 f i ElectronicJournal.obj
 0001:0001e61f       ?Release@?$CComObject@VCOPOSElectronicJournal@@@ATL@@WJI@AGKXZ 1001f61f f i ElectronicJournal.obj
 0001:0001e62c       ?Release@?$CComObject@VCOPOSElectronicJournal@@@ATL@@WJM@AGKXZ 1001f62c f i ElectronicJournal.obj
 0001:0001e639       ?Release@?$CComObject@VCOPOSElectronicJournal@@@ATL@@WKA@AGKXZ 1001f639 f i ElectronicJournal.obj
 0001:0001e646       ?Release@?$CComObject@VCOPOSElectronicJournal@@@ATL@@WKI@AGKXZ 1001f646 f i ElectronicJournal.obj
 0001:0001e653       ?Release@?$CComObject@VCOPOSElectronicJournal@@@ATL@@WLE@AGKXZ 1001f653 f i ElectronicJournal.obj
 0001:0001e660       ?Release@?$CComObjectCached@VCComClassFactory@ATL@@@ATL@@UAGKXZ 1001f660 f i ElectronicJournal.obj
 0001:0001e700       ?Release@?$CComPtrBase@UIAdviseSink@@@ATL@@QAEXXZ 1001f700 f i ElectronicJournal.obj
 0001:0001e760       ?Release@?$CComPtrBase@UIDispatch@@@ATL@@QAEXXZ 1001f760 f i ElectronicJournal.obj
 0001:0001e7c0       ?Release@?$CComPtrBase@UIOleInPlaceSiteWindowless@@@ATL@@QAEXXZ 1001f7c0 f i ElectronicJournal.obj
 0001:0001e820       ?Release@CRegObject@ATL@@UAGKXZ 1001f820 f i ElectronicJournal.obj
 0001:0001e860       ?Remove@CComDynamicUnkArray@ATL@@QAEHK@Z 1001f860 f i ElectronicJournal.obj
 0001:0001e910       ?RemoveAll@?$CSimpleMap@PA_WPA_WVCExpansionVectorEqualHelper@ATL@@@ATL@@QAEXXZ 1001f910 f i ElectronicJournal.obj
 0001:0001e9a0       ?Reset@?$CComEnumImpl@UIEnumConnectionPoints@@$1?_GUID_b196b285_bab4_101a_b69c_00aa00341d07@@3U__s_GUID@@BPAUIConnectionPoint@@V?$_CopyInterface@UIConnectionPoint@@@ATL@@@ATL@@UAGJXZ 1001f9a0 f i ElectronicJournal.obj
 0001:0001e9c0       ?Reset@?$CComEnumImpl@UIEnumConnections@@$1?_GUID_b196b287_bab4_101a_b69c_00aa00341d07@@3U__s_GUID@@BUtagCONNECTDATA@@V?$_Copy@UtagCONNECTDATA@@@ATL@@@ATL@@UAGJXZ 1001f9c0 f i ElectronicJournal.obj
 0001:0001e9e0       ?ResizeBorder@?$IOleInPlaceActiveObjectImpl@VCOPOSElectronicJournal@@@ATL@@UAGJPBUtagRECT@@PAUIOleInPlaceUIWindow@@H@Z 1001f9e0 f i ElectronicJournal.obj
 0001:0001ea40       ?ResourceRegister@CRegObject@ATL@@QAGJPB_WI0@Z 1001fa40 f i ElectronicJournal.obj
 0001:0001eb20       ?ResourceRegisterSz@CRegObject@ATL@@QAGJPB_W00@Z 1001fb20 f i ElectronicJournal.obj
 0001:0001ec20       ?ResourceUnregister@CRegObject@ATL@@QAGJPB_WI0@Z 1001fc20 f i ElectronicJournal.obj
 0001:0001ed00       ?ResourceUnregisterSz@CRegObject@ATL@@QAGJPB_W00@Z 1001fd00 f i ElectronicJournal.obj
 0001:0001ee00       ?SOData@COPOSElectronicJournal@@MAGJJ@Z 1001fe00 f i ElectronicJournal.obj
 0001:0001ee80       ?SODirectIO@COPOSElectronicJournal@@MAGJJPAJPAPA_W@Z 1001fe80 f i ElectronicJournal.obj
 0001:0001f040       ?SOError@COPOSElectronicJournal@@MAGJJJJPAJ@Z 10020040 f i ElectronicJournal.obj
 0001:0001f100       ?SOOutputComplete@COPOSElectronicJournal@@MAGJJ@Z 10020100 f i ElectronicJournal.obj
 0001:0001f180       ?SOStatusUpdate@COPOSElectronicJournal@@MAGJJ@Z 10020180 f i ElectronicJournal.obj
 0001:0001f200       ?Save@?$IPersistStorageImpl@VCOPOSElectronicJournal@@@ATL@@UAGJPAUIStorage@@H@Z 10020200 f i ElectronicJournal.obj
 0001:0001f360       ?Save@?$IPersistStreamInitImpl@VCOPOSElectronicJournal@@@ATL@@UAGJPAUIStream@@H@Z 10020360 f i ElectronicJournal.obj
 0001:0001f3f0       ?SaveCompleted@?$IPersistStorageImpl@VCOPOSElectronicJournal@@@ATL@@UAGJPAUIStorage@@@Z 100203f0 f i ElectronicJournal.obj
 0001:0001f450       ?SendOnDataChange@CComControlBase@ATL@@QAEJK@Z 10020450 f i ElectronicJournal.obj
 0001:0001f540       ?SendOnSave@CComControlBase@ATL@@QAEJXZ 10020540 f i ElectronicJournal.obj
 0001:0001f5b0       ?SendOnViewChange@CComControlBase@ATL@@QAEJKJ@Z 100205b0 f i ElectronicJournal.obj
 0001:0001f620       ?SetAdvise@?$IViewObjectExImpl@VCOPOSElectronicJournal@@@ATL@@UAGJKKPAUIAdviseSink@@@Z 10020620 f i ElectronicJournal.obj
 0001:0001f6b0       ?SetClientSite@?$IOleObjectImpl@VCOPOSElectronicJournal@@@ATL@@UAGJPAUIOleClientSite@@@Z 100206b0 f i ElectronicJournal.obj
 0001:0001f740       ?SetColorScheme@?$IOleObjectImpl@VCOPOSElectronicJournal@@@ATL@@UAGJPAUtagLOGPALETTE@@@Z 10020740 f i ElectronicJournal.obj
 0001:0001f7b0       ?SetContentExtent@?$IQuickActivateImpl@VCOPOSElectronicJournal@@@ATL@@UAGJPAUtagSIZE@@@Z 100207b0 f i ElectronicJournal.obj
 0001:0001f840       ?SetControlFocus@CComControlBase@ATL@@QAEHH@Z 10020840 f i ElectronicJournal.obj
 0001:0001f9c0       ?SetDWORDValue@CRegKey@ATL@@QAEJPB_WK@Z 100209c0 f i ElectronicJournal.obj
 0001:0001fa40       ?SetData@?$IDataObjectImpl@VCOPOSElectronicJournal@@@ATL@@UAGJPAUtagFORMATETC@@PAUtagSTGMEDIUM@@H@Z 10020a40 f i ElectronicJournal.obj
 0001:0001fab0       ?SetExtent@?$IOleObjectImpl@VCOPOSElectronicJournal@@@ATL@@UAGJKPAUtagSIZE@@@Z 10020ab0 f i ElectronicJournal.obj
 0001:0001fb40       ?SetHostNames@?$IOleObjectImpl@VCOPOSElectronicJournal@@@ATL@@UAGJPB_W0@Z 10020b40 f i ElectronicJournal.obj
 0001:0001fba0       ?SetInterfaceSafetyOptions@?$IObjectSafetyImpl@VCOPOSElectronicJournal@@$02@ATL@@UAGJABU_GUID@@KK@Z 10020ba0 f i ElectronicJournal.obj
 0001:0001fd10       ?SetMoniker@?$IOleObjectImpl@VCOPOSElectronicJournal@@@ATL@@UAGJKPAUIMoniker@@@Z 10020d10 f i ElectronicJournal.obj
 0001:0001fd80       ?SetMultiStringValue@CRegKey@ATL@@QAEJPB_W0@Z 10020d80 f i ElectronicJournal.obj
 0001:0001fea0       ?SetObjectRects@?$IOleInPlaceObjectWindowlessImpl@VCOPOSElectronicJournal@@@ATL@@UAGJPBUtagRECT@@0@Z 10020ea0 f i ElectronicJournal.obj
 0001:0001ff30       ?SetStringValue@CRegKey@ATL@@QAEJPB_W0K@Z 10020f30 f i ElectronicJournal.obj
 0001:00020060       ?SetVoid@CComClassFactory@ATL@@QAEXPAX@Z 10021060 f i ElectronicJournal.obj
 0001:00020080       ?SetVoid@CComObjectRootBase@ATL@@QAEXPAX@Z 10021080 f i ElectronicJournal.obj
 0001:000200a0       ?SetWindowLongPtrW@@YAJPAUHWND__@@HJ@Z 100210a0 f i ElectronicJournal.obj
 0001:000200d0       ?ShowWindow@CWindow@ATL@@QAEHH@Z 100210d0 f i ElectronicJournal.obj
 0001:00020150       ?Skip@?$CComEnumImpl@UIEnumConnectionPoints@@$1?_GUID_b196b285_bab4_101a_b69c_00aa00341d07@@3U__s_GUID@@BPAUIConnectionPoint@@V?$_CopyInterface@UIConnectionPoint@@@ATL@@@ATL@@UAGJK@Z 10021150 f i ElectronicJournal.obj
 0001:000201d0       ?Skip@?$CComEnumImpl@UIEnumConnections@@$1?_GUID_b196b287_bab4_101a_b69c_00aa00341d07@@3U__s_GUID@@BUtagCONNECTDATA@@V?$_Copy@UtagCONNECTDATA@@@ATL@@@ATL@@UAGJK@Z 100211d0 f i ElectronicJournal.obj
 0001:00020250       ?SkipAssignment@CRegParser@ATL@@IAEJPA_W@Z 10021250 f i ElectronicJournal.obj
 0001:00020330       ?SkipWhiteSpace@CRegParser@ATL@@IAEXXZ 10021330 f i ElectronicJournal.obj
 0001:00020380       ?StartWindowProc@?$CWindowImplBaseT@VCWindow@ATL@@V?$CWinTraits@$0FGAAAAAA@$0A@@2@@ATL@@SGJPAUHWND__@@IIJ@Z 10021380 f i ElectronicJournal.obj
 0001:000204a0       ?StrChrW@CRegParser@ATL@@KAPA_WPA_W_W@Z 100214a0 f i ElectronicJournal.obj
 0001:00020510       ?StrFromMap@CRegObject@ATL@@QAEPB_WPA_W@Z 10021510 f i ElectronicJournal.obj
 0001:000205a0       ?Swap@?$CComPtrBase@UIAdviseSink@@@ATL@@IAEXAAV12@@Z 100215a0 f i ElectronicJournal.obj
 0001:000205e0       ?Swap@?$CComPtrBase@UIOleClientSite@@@ATL@@IAEXAAV12@@Z 100215e0 f i ElectronicJournal.obj
 0001:00020620       ?Swap@?$CComPtrBase@UIUnknown@@@ATL@@IAEXAAV12@@Z 10021620 f i ElectronicJournal.obj
 0001:00020660       ?T2COLE_EX@@YAPB_WPB_WI@Z  10021660 f i ElectronicJournal.obj
 0001:00020670       ?T2OLE_EX@@YAPA_WPA_WI@Z   10021670 f i ElectronicJournal.obj
 0001:00020680       ?Term@CAtlModule@ATL@@QAEXXZ 10021680 f i ElectronicJournal.obj
 0001:00020730       ?Term@CComModule@ATL@@QAEXXZ 10021730 f i ElectronicJournal.obj
 0001:00020820       ?TranslateAcceleratorW@?$IOleInPlaceActiveObjectImpl@VCOPOSElectronicJournal@@@ATL@@UAGJPAUtagMSG@@@Z 10021820 f i ElectronicJournal.obj
 0001:00020a20       ?UIDeactivate@?$IOleInPlaceObjectWindowlessImpl@VCOPOSElectronicJournal@@@ATL@@UAGJXZ 10021a20 f i ElectronicJournal.obj
 0001:00020aa0       ?Unadvise@?$CProxy_IOPOSEvents@VCOPOSElectronicJournal@@@@UAGJK@Z 10021aa0 f i ElectronicJournal.obj
 0001:00020ae0       ?Unadvise@?$IConnectionPointImpl@VCOPOSElectronicJournal@@$1?DIID__IOPOSElectronicJournalEvents@@3U_GUID@@BVCComDynamicUnkArray@ATL@@@ATL@@UAGJK@Z 10021ae0 f i ElectronicJournal.obj
 0001:00020bb0       ?Unadvise@?$IConnectionPointImpl@VCOPOSElectronicJournal@@$1?IID_IPropertyNotifySink@@3U_GUID@@BVCComDynamicUnkArray@ATL@@@ATL@@UAGJK@Z 10021bb0 f i ElectronicJournal.obj
 0001:00020c80       ?Unadvise@?$IOleObjectImpl@VCOPOSElectronicJournal@@@ATL@@UAGJK@Z 10021c80 f i ElectronicJournal.obj
 0001:00020d50       ?Unfreeze@?$IViewObjectExImpl@VCOPOSElectronicJournal@@@ATL@@UAGJK@Z 10021d50 f i ElectronicJournal.obj
 0001:00020dc0       ?Unlock@?$CComCritSecLock@VCComCriticalSection@ATL@@@ATL@@QAEXXZ 10021dc0 f i ElectronicJournal.obj
 0001:00020e30       ?Unlock@?$CComObjectRootEx@VCComSingleThreadModel@ATL@@@ATL@@QAEXXZ 10021e30 f i ElectronicJournal.obj
 0001:00020e50       ?Unlock@CAtlModule@ATL@@UAEJXZ 10021e50 f i ElectronicJournal.obj
 0001:00020e80       ?Unlock@CComCriticalSection@ATL@@QAEJXZ 10021e80 f i ElectronicJournal.obj
 0001:00020ec0       ?Unlock@CComFakeCriticalSection@ATL@@QAEJXZ 10021ec0 f i ElectronicJournal.obj
 0001:00020ee0       ?UnregisterServer@?$CAtlModuleT@VCComModule@ATL@@@ATL@@QAEJHPBU_GUID@@@Z 10021ee0 f i ElectronicJournal.obj
 0001:00020f50       ?UnregisterServer@CAtlComModule@ATL@@QAEJHPBU_GUID@@@Z 10021f50 f i ElectronicJournal.obj
 0001:00020f80       ?UnregisterServer@CComModule@ATL@@QAEJHPBU_GUID@@@Z 10021f80 f i ElectronicJournal.obj
 0001:00021060       ?Update@?$IOleObjectImpl@VCOPOSElectronicJournal@@@ATL@@UAGJXZ 10022060 f i ElectronicJournal.obj
 0001:000210c0       ?UpdateRegistryFromResource@CAtlModule@ATL@@QAGJIHPAU_ATL_REGMAP_ENTRY@2@@Z 100220c0 f i ElectronicJournal.obj
 0001:00021590       ?UpdateRegistryFromResource@CAtlModule@ATL@@QAGJPB_WHPAU_ATL_REGMAP_ENTRY@2@@Z 10022590 f i ElectronicJournal.obj
 0001:00021a80       ?UpdateRegistryFromResource@CComModule@ATL@@UAGJIHPAU_ATL_REGMAP_ENTRY@2@@Z 10022a80 f i ElectronicJournal.obj
 0001:00021ab0       ?UpdateRegistryFromResource@CComModule@ATL@@UAGJPB_WHPAU_ATL_REGMAP_ENTRY@2@@Z 10022ab0 f i ElectronicJournal.obj
 0001:00021ae0       ?UpdateRegistryFromResourceD@CComModule@ATL@@UAGJIHPAU_ATL_REGMAP_ENTRY@2@@Z 10022ae0 f i ElectronicJournal.obj
 0001:00021af0       ?UpdateRegistryFromResourceD@CComModule@ATL@@UAGJPB_WHPAU_ATL_REGMAP_ENTRY@2@@Z 10022af0 f i ElectronicJournal.obj
 0001:00021b00       ?VTFromRegType@CRegParser@ATL@@KAHPB_WAAG@Z 10022b00 f i ElectronicJournal.obj
 0001:00021be0       ?WindowProc@?$CWindowImplBaseT@VCWindow@ATL@@V?$CWinTraits@$0FGAAAAAA@$0A@@2@@ATL@@SGJPAUHWND__@@IIJ@Z 10022be0 f i ElectronicJournal.obj
 0001:00021df0       ?WriteToStream@CComBSTR@ATL@@QAEJPAUIStream@@@Z 10022df0 f i ElectronicJournal.obj
 0001:00021f50       ?WriteToStream@CComVariant@ATL@@QAEJPAUIStream@@@Z 10022f50 f i ElectronicJournal.obj
 0001:00022290       ?WriteToStream@CComVariant@ATL@@QAEJPAUIStream@@G@Z 10023290 f i ElectronicJournal.obj
 0001:00022360       ?_AtlFinalConstruct@CComObjectRootBase@ATL@@QAEJXZ 10023360 f i ElectronicJournal.obj
 0001:00022380       ?_AtlGetConversionACP@ATL@@YGIXZ 10023380 f i ElectronicJournal.obj
 0001:00022390       ?_AtlInitialConstruct@?$CComAggObject@VCOPOSElectronicJournal@@@ATL@@QAEJXZ 10023390 f i ElectronicJournal.obj
 0001:000223e0       ?_AtlInitialConstruct@?$CComObjectRootEx@VCComMultiThreadModel@ATL@@@ATL@@QAEJXZ 100233e0 f i ElectronicJournal.obj
 0001:00022410       ?_AtlInitialConstruct@?$CComObjectRootEx@VCComSingleThreadModel@ATL@@@ATL@@QAEJXZ 10023410 f i ElectronicJournal.obj
 0001:00022430       ?_AtlVerifyStackAvailable@_ATL_SAFE_ALLOCA_IMPL@ATL@@YA_NK@Z 10023430 f i ElectronicJournal.obj
 0001:000225e0       ?_GetEntries@?$CComEnum@UIEnumConnectionPoints@@$1?_GUID_b196b285_bab4_101a_b69c_00aa00341d07@@3U__s_GUID@@BPAUIConnectionPoint@@V?$_CopyInterface@UIConnectionPoint@@@ATL@@VCComSingleThreadModel@6@@ATL@@SGPBU_ATL_INTMAP_ENTRY@2@XZ 100235e0 f i ElectronicJournal.obj
 0001:00022600       ?_GetEntries@?$CComEnum@UIEnumConnections@@$1?_GUID_b196b287_bab4_101a_b69c_00aa00341d07@@3U__s_GUID@@BUtagCONNECTDATA@@V?$_Copy@UtagCONNECTDATA@@@ATL@@VCComSingleThreadModel@6@@ATL@@SGPBU_ATL_INTMAP_ENTRY@2@XZ 10023600 f i ElectronicJournal.obj
 0001:00022620       ?_GetEntries@CComClassFactory@ATL@@SGPBU_ATL_INTMAP_ENTRY@2@XZ 10023620 f i ElectronicJournal.obj
 0001:00022640       ?_GetEntries@COPOSElectronicJournal@@SGPBU_ATL_INTMAP_ENTRY@ATL@@XZ 10023640 f i ElectronicJournal.obj
 0001:00022660       ?_GetRawUnknown@COPOSElectronicJournal@@QAEPAUIUnknown@@XZ 10023660 f i ElectronicJournal.obj
 0001:000226d0       ?_GetViewStatus@COPOSElectronicJournal@@QAEKXZ 100236d0 f i ElectronicJournal.obj
 0001:000226f0       ?_InternalQueryInterface@?$CComEnum@UIEnumConnectionPoints@@$1?_GUID_b196b285_bab4_101a_b69c_00aa00341d07@@3U__s_GUID@@BPAUIConnectionPoint@@V?$_CopyInterface@UIConnectionPoint@@@ATL@@VCComSingleThreadModel@6@@ATL@@QAEJABU_GUID@@PAPAX@Z 100236f0 f i ElectronicJournal.obj
 0001:00022730       ?_InternalQueryInterface@?$CComEnum@UIEnumConnections@@$1?_GUID_b196b287_bab4_101a_b69c_00aa00341d07@@3U__s_GUID@@BUtagCONNECTDATA@@V?$_Copy@UtagCONNECTDATA@@@ATL@@VCComSingleThreadModel@6@@ATL@@QAEJABU_GUID@@PAPAX@Z 10023730 f i ElectronicJournal.obj
 0001:00022770       ?_InternalQueryInterface@CComClassFactory@ATL@@QAEJABU_GUID@@PAPAX@Z 10023770 f i ElectronicJournal.obj
 0001:000227b0       ?_InternalQueryInterface@COPOSElectronicJournal@@QAEJABU_GUID@@PAPAX@Z 100237b0 f i ElectronicJournal.obj
 0001:000227f0       ?_LocCPQueryInterface@?$IConnectionPointImpl@VCOPOSElectronicJournal@@$1?DIID__IOPOSElectronicJournalEvents@@3U_GUID@@BVCComDynamicUnkArray@ATL@@@ATL@@UAGJABU_GUID@@PAPAX@Z 100237f0 f i ElectronicJournal.obj
 0001:00022890       ?_LocCPQueryInterface@?$IConnectionPointImpl@VCOPOSElectronicJournal@@$1?IID_IPropertyNotifySink@@3U_GUID@@BVCComDynamicUnkArray@ATL@@@ATL@@UAGJABU_GUID@@PAPAX@Z 10023890 f i ElectronicJournal.obj
 0001:00022930       ?atlCreate@?$CWindowImpl@VCOPOSElectronicJournal@@VCWindow@ATL@@V?$CWinTraits@$0FGAAAAAA@$0A@@3@@ATL@@QAEPAUHWND__@@PAU3@V_U_RECT@2@PB_WKKV_U_MENUorID@2@PAX@Z 10023930 f i ElectronicJournal.obj
 0001:000229e0       ?atlCreate@?$CWindowImplBaseT@VCWindow@ATL@@V?$CWinTraits@$0FGAAAAAA@$0A@@2@@ATL@@QAEPAUHWND__@@PAU3@V_U_RECT@2@PB_WKKV_U_MENUorID@2@GPAX@Z 100239e0 f i ElectronicJournal.obj
 0001:00022b60       ?atlCreate@CRegKey@ATL@@QAEJPAUHKEY__@@PB_WPA_WKKPAU_SECURITY_ATTRIBUTES@@PAK@Z 10023b60 f i ElectronicJournal.obj
 0001:00022cc0       ?begin@CComDynamicUnkArray@ATL@@QAEPAPAUIUnknown@@XZ 10023cc0 f i ElectronicJournal.obj
 0001:00022ce0       ?copy@?$_Copy@UtagCONNECTDATA@@@ATL@@SAJPAUtagCONNECTDATA@@PBU3@@Z 10023ce0 f i ElectronicJournal.obj
 0001:00022da0       ?copy@?$_CopyInterface@UIConnectionPoint@@@ATL@@SAJPAPAUIConnectionPoint@@PBQAU3@@Z 10023da0 f i ElectronicJournal.obj
 0001:00022e60       ?destroy@?$_Copy@UtagCONNECTDATA@@@ATL@@SAXPAUtagCONNECTDATA@@@Z 10023e60 f i ElectronicJournal.obj
 0001:00022ea0       ?destroy@?$_CopyInterface@UIConnectionPoint@@@ATL@@SAXPAPAUIConnectionPoint@@@Z 10023ea0 f i ElectronicJournal.obj
 0001:00022ee0       ?end@CComDynamicUnkArray@ATL@@QAEPAPAUIUnknown@@XZ 10023ee0 f i ElectronicJournal.obj
 0001:00022f00       ?init@?$_Copy@UtagCONNECTDATA@@@ATL@@SAXPAUtagCONNECTDATA@@@Z 10023f00 f i ElectronicJournal.obj
 0001:00022f10       ?init@?$_CopyInterface@UIConnectionPoint@@@ATL@@SAXPAPAUIConnectionPoint@@@Z 10023f10 f i ElectronicJournal.obj
 0001:00022f20       ?memcpy_s@Checked@ATL@@YAXPAXIPBXI@Z 10023f20 f i ElectronicJournal.obj
 0001:00022f50       ?ocscpy_s@@YA_NPA_WIPB_W@Z 10023f50 f i ElectronicJournal.obj
 0001:00022fb0       ?ocslen@@YAHPB_W@Z         10023fb0 f i ElectronicJournal.obj
 0001:00022fe0       ?tcsncpy_s@Checked@ATL@@YAHPA_WIPB_WI@Z 10023fe0 f i ElectronicJournal.obj
 0001:00023010       ?wcscat_s@Checked@ATL@@YAXPA_WIPB_W@Z 10024010 f i ElectronicJournal.obj
 0001:00023040       ?wcscpy_s@Checked@ATL@@YAXPA_WIPB_W@Z 10024040 f i ElectronicJournal.obj
 0001:00023070       ?wcsncpy_s@Checked@ATL@@YAHPA_WIPB_WI@Z 10024070 f i ElectronicJournal.obj
 0001:000230a0       ?wcsstr@@YAPA_WPA_WPB_W@Z  100240a0 f i ElectronicJournal.obj
 0001:000230c0       _InlineIsEqualGUID         100240c0 f i ElectronicJournal.obj
 0001:00023160       _IsEqualGUID               10024160 f i ElectronicJournal.obj
 0001:000231b0       ??0COPOSElectronicJournal@@QAE@XZ 100241b0 f   ElectronicJournalImpl.obj
 0001:000232c0       ?FinalConstruct@COPOSElectronicJournal@@QAEJXZ 100242c0 f   ElectronicJournalImpl.obj
 0001:00023390       ??1COPOSElectronicJournal@@UAE@XZ 10024390 f   ElectronicJournalImpl.obj
 0001:00023470       ?WriteTrace@COPOSElectronicJournal@@QAAXPB_WZZ 10024470 f   ElectronicJournalImpl.obj
 0001:00023520       ?WriteTraceString@COPOSElectronicJournal@@QAEXPB_WPA_W@Z 10024520 f   ElectronicJournalImpl.obj
 0001:00023890       ?WriteTraceString@COPOSElectronicJournal@@QAAXPAXHHHPB_WZZ 10024890 f   ElectronicJournalImpl.obj
 0001:00023ac0       ?WriteTraceError@COPOSElectronicJournal@@QAEXPB_WK@Z 10024ac0 f   ElectronicJournalImpl.obj
 0001:00023bb0       ?WriteTraceMethods@COPOSElectronicJournal@@QAEXPAJH@Z 10024bb0 f   ElectronicJournalImpl.obj
 0001:00023c20       ?FormatCurrency@COPOSElectronicJournal@@QAEPB_WTtagCY@@@Z 10024c20 f   ElectronicJournalImpl.obj
 0001:00023d40       ?GetOposProp@COPOSElectronicJournal@@IAEJPBDJPAJJ@Z 10024d40 f   ElectronicJournalImpl.obj
 0001:00023fb0       ?SetOposProp@COPOSElectronicJournal@@IAEJPBDJJJ@Z 10024fb0 f   ElectronicJournalImpl.obj
 0001:00024240       ?GetOposProp@COPOSElectronicJournal@@IAEJPBDJPAFJ@Z 10025240 f   ElectronicJournalImpl.obj
 0001:000242e0       ?SetOposProp@COPOSElectronicJournal@@IAEJPBDJFJ@Z 100252e0 f   ElectronicJournalImpl.obj
 0001:00024340       ?GetOposProp@COPOSElectronicJournal@@IAEJPBDJPAPA_WJ@Z 10025340 f   ElectronicJournalImpl.obj
 0001:000245c0       ?SetOposProp@COPOSElectronicJournal@@IAEJPBDJPA_WJ@Z 100255c0 f   ElectronicJournalImpl.obj
 0001:00024900       ?DoInvoke@COPOSElectronicJournal@@IAEJPBDJPAVOposVariant@@IHPAJ_N@Z 10025900 f   ElectronicJournalImpl.obj
 0001:00025310       ?SetCOFreezeEvents@COPOSElectronicJournal@@IAEXF@Z 10026310 f   ElectronicJournalImpl.obj
 0001:00025450       ?FreezeEvents@COPOSElectronicJournal@@MAGJH@Z 10026450 f   ElectronicJournalImpl.obj
 0001:00025530       ?OnDraw@COPOSElectronicJournal@@MAEJAAUATL_DRAWINFO@@@Z 10026530 f   ElectronicJournalImpl.obj
 0001:000256d0       ?SOProcessID@COPOSElectronicJournal@@UAGJPAJ@Z 100266d0 f   ElectronicJournalImpl.obj
 0001:00025710       ?get_OpenResult@COPOSElectronicJournal@@UAGJPAJ@Z 10026710 f   ElectronicJournalImpl.obj
 0001:00025750       ?get_AutoDisable@COPOSElectronicJournal@@UAGJPAF@Z 10026750 f   ElectronicJournalImpl.obj
 0001:00025780       ?put_AutoDisable@COPOSElectronicJournal@@UAGJF@Z 10026780 f   ElectronicJournalImpl.obj
 0001:000257b0       ?get_BinaryConversion@COPOSElectronicJournal@@UAGJPAJ@Z 100267b0 f   ElectronicJournalImpl.obj
 0001:000257e0       ?put_BinaryConversion@COPOSElectronicJournal@@UAGJJ@Z 100267e0 f   ElectronicJournalImpl.obj
 0001:00025810       ?get_CapPowerReporting@COPOSElectronicJournal@@UAGJPAJ@Z 10026810 f   ElectronicJournalImpl.obj
 0001:00025840       ?get_CheckHealthText@COPOSElectronicJournal@@UAGJPAPA_W@Z 10026840 f   ElectronicJournalImpl.obj
 0001:00025870       ?get_Claimed@COPOSElectronicJournal@@UAGJPAF@Z 10026870 f   ElectronicJournalImpl.obj
 0001:000258a0       ?get_DataCount@COPOSElectronicJournal@@UAGJPAJ@Z 100268a0 f   ElectronicJournalImpl.obj
 0001:000258d0       ?get_DataEventEnabled@COPOSElectronicJournal@@UAGJPAF@Z 100268d0 f   ElectronicJournalImpl.obj
 0001:00025900       ?put_DataEventEnabled@COPOSElectronicJournal@@UAGJF@Z 10026900 f   ElectronicJournalImpl.obj
 0001:00025930       ?get_DeviceEnabled@COPOSElectronicJournal@@UAGJPAF@Z 10026930 f   ElectronicJournalImpl.obj
 0001:00025960       ?put_DeviceEnabled@COPOSElectronicJournal@@UAGJF@Z 10026960 f   ElectronicJournalImpl.obj
 0001:00025990       ?get_FreezeEvents@COPOSElectronicJournal@@UAGJPAF@Z 10026990 f   ElectronicJournalImpl.obj
 0001:000259c0       ?put_FreezeEvents@COPOSElectronicJournal@@UAGJF@Z 100269c0 f   ElectronicJournalImpl.obj
 0001:00025a50       ?get_OutputID@COPOSElectronicJournal@@UAGJPAJ@Z 10026a50 f   ElectronicJournalImpl.obj
 0001:00025a80       ?get_PowerNotify@COPOSElectronicJournal@@UAGJPAJ@Z 10026a80 f   ElectronicJournalImpl.obj
 0001:00025ab0       ?put_PowerNotify@COPOSElectronicJournal@@UAGJJ@Z 10026ab0 f   ElectronicJournalImpl.obj
 0001:00025ae0       ?get_PowerState@COPOSElectronicJournal@@UAGJPAJ@Z 10026ae0 f   ElectronicJournalImpl.obj
 0001:00025b10       ?get_ResultCode@COPOSElectronicJournal@@UAGJPAJ@Z 10026b10 f   ElectronicJournalImpl.obj
 0001:00025ba0       ?get_ResultCodeExtended@COPOSElectronicJournal@@UAGJPAJ@Z 10026ba0 f   ElectronicJournalImpl.obj
 0001:00025bd0       ?get_State@COPOSElectronicJournal@@UAGJPAJ@Z 10026bd0 f   ElectronicJournalImpl.obj
 0001:00025c20       ?get_ControlObjectDescription@COPOSElectronicJournal@@UAGJPAPA_W@Z 10026c20 f   ElectronicJournalImpl.obj
 0001:00025ca0       ?get_ControlObjectVersion@COPOSElectronicJournal@@UAGJPAJ@Z 10026ca0 f   ElectronicJournalImpl.obj
 0001:00025ce0       ?get_ServiceObjectDescription@COPOSElectronicJournal@@UAGJPAPA_W@Z 10026ce0 f   ElectronicJournalImpl.obj
 0001:00025d10       ?get_ServiceObjectVersion@COPOSElectronicJournal@@UAGJPAJ@Z 10026d10 f   ElectronicJournalImpl.obj
 0001:00025d40       ?get_DeviceDescription@COPOSElectronicJournal@@UAGJPAPA_W@Z 10026d40 f   ElectronicJournalImpl.obj
 0001:00025d70       ?get_DeviceName@COPOSElectronicJournal@@UAGJPAPA_W@Z 10026d70 f   ElectronicJournalImpl.obj
 0001:00025da0       ?get_CapStatisticsReporting@COPOSElectronicJournal@@UAGJPAF@Z 10026da0 f   ElectronicJournalImpl.obj
 0001:00025dd0       ?get_CapUpdateStatistics@COPOSElectronicJournal@@UAGJPAF@Z 10026dd0 f   ElectronicJournalImpl.obj
 0001:00025e00       ?get_CapCompareFirmwareVersion@COPOSElectronicJournal@@UAGJPAF@Z 10026e00 f   ElectronicJournalImpl.obj
 0001:00025e30       ?get_CapUpdateFirmware@COPOSElectronicJournal@@UAGJPAF@Z 10026e30 f   ElectronicJournalImpl.obj
 0001:00025e60       ?CheckHealth@COPOSElectronicJournal@@UAGJJPAJ@Z 10026e60 f   ElectronicJournalImpl.obj
 0001:00025f00       ?ClaimDevice@COPOSElectronicJournal@@UAGJJPAJ@Z 10026f00 f   ElectronicJournalImpl.obj
 0001:00025fe0       ?ClearInput@COPOSElectronicJournal@@UAGJPAJ@Z 10026fe0 f   ElectronicJournalImpl.obj
 0001:00026010       ?ClearOutput@COPOSElectronicJournal@@UAGJPAJ@Z 10027010 f   ElectronicJournalImpl.obj
 0001:00026040       ?Close@COPOSElectronicJournal@@UAGJPAJ@Z 10027040 f   ElectronicJournalImpl.obj
 0001:00026110       ?DirectIO@COPOSElectronicJournal@@UAGJJPAJPAPA_W0@Z 10027110 f   ElectronicJournalImpl.obj
 0001:00026220       ?Open@COPOSElectronicJournal@@UAGJPA_WPAJ@Z 10027220 f   ElectronicJournalImpl.obj
 0001:00027410       ?ReleaseDevice@COPOSElectronicJournal@@UAGJPAJ@Z 10028410 f   ElectronicJournalImpl.obj
 0001:00027480       ?ResetStatistics@COPOSElectronicJournal@@UAGJPA_WPAJ@Z 10028480 f   ElectronicJournalImpl.obj
 0001:00027530       ?RetrieveStatistics@COPOSElectronicJournal@@UAGJPAPA_WPAJ@Z 10028530 f   ElectronicJournalImpl.obj
 0001:000275e0       ?UpdateStatistics@COPOSElectronicJournal@@UAGJPA_WPAJ@Z 100285e0 f   ElectronicJournalImpl.obj
 0001:00027690       ?CompareFirmwareVersion@COPOSElectronicJournal@@UAGJPA_WPAJ1@Z 10028690 f   ElectronicJournalImpl.obj
 0001:00027780       ?UpdateFirmware@COPOSElectronicJournal@@UAGJPA_WPAJ@Z 10028780 f   ElectronicJournalImpl.obj
 0001:00027830       ?get_AsyncMode@COPOSElectronicJournal@@UAGJPAF@Z 10028830 f   ElectronicJournalImpl.obj
 0001:00027860       ?put_AsyncMode@COPOSElectronicJournal@@UAGJF@Z 10028860 f   ElectronicJournalImpl.obj
 0001:00027890       ?get_CapAddMarker@COPOSElectronicJournal@@UAGJPAF@Z 10028890 f   ElectronicJournalImpl.obj
 0001:000278c0       ?get_CapErasableMedium@COPOSElectronicJournal@@UAGJPAF@Z 100288c0 f   ElectronicJournalImpl.obj
 0001:000278f0       ?get_CapInitializeMedium@COPOSElectronicJournal@@UAGJPAF@Z 100288f0 f   ElectronicJournalImpl.obj
 0001:00027920       ?get_CapMediumIsAvailable@COPOSElectronicJournal@@UAGJPAF@Z 10028920 f   ElectronicJournalImpl.obj
 0001:00027950       ?get_CapPrintContent@COPOSElectronicJournal@@UAGJPAF@Z 10028950 f   ElectronicJournalImpl.obj
 0001:00027980       ?get_CapPrintContentFile@COPOSElectronicJournal@@UAGJPAF@Z 10028980 f   ElectronicJournalImpl.obj
 0001:000279b0       ?get_CapRetrieveCurrentMarker@COPOSElectronicJournal@@UAGJPAF@Z 100289b0 f   ElectronicJournalImpl.obj
 0001:000279e0       ?get_CapRetrieveMarker@COPOSElectronicJournal@@UAGJPAF@Z 100289e0 f   ElectronicJournalImpl.obj
 0001:00027a10       ?get_CapRetrieveMarkerByDateTime@COPOSElectronicJournal@@UAGJPAF@Z 10028a10 f   ElectronicJournalImpl.obj
 0001:00027a40       ?get_CapRetrieveMarkersDateTime@COPOSElectronicJournal@@UAGJPAF@Z 10028a40 f   ElectronicJournalImpl.obj
 0001:00027a70       ?get_CapStation@COPOSElectronicJournal@@UAGJPAJ@Z 10028a70 f   ElectronicJournalImpl.obj
 0001:00027aa0       ?get_CapStorageEnabled@COPOSElectronicJournal@@UAGJPAF@Z 10028aa0 f   ElectronicJournalImpl.obj
 0001:00027ad0       ?get_CapSuspendPrintContent@COPOSElectronicJournal@@UAGJPAF@Z 10028ad0 f   ElectronicJournalImpl.obj
 0001:00027b00       ?get_CapSuspendQueryContent@COPOSElectronicJournal@@UAGJPAF@Z 10028b00 f   ElectronicJournalImpl.obj
 0001:00027b30       ?get_CapWaterMark@COPOSElectronicJournal@@UAGJPAF@Z 10028b30 f   ElectronicJournalImpl.obj
 0001:00027b60       ?get_FlagWhenIdle@COPOSElectronicJournal@@UAGJPAF@Z 10028b60 f   ElectronicJournalImpl.obj
 0001:00027b90       ?put_FlagWhenIdle@COPOSElectronicJournal@@UAGJF@Z 10028b90 f   ElectronicJournalImpl.obj
 0001:00027bc0       ?get_MediumFreeSpace@COPOSElectronicJournal@@UAGJPATtagCY@@@Z 10028bc0 f   ElectronicJournalImpl.obj
 0001:00027db0       ?get_MediumID@COPOSElectronicJournal@@UAGJPAPA_W@Z 10028db0 f   ElectronicJournalImpl.obj
 0001:00027de0       ?get_MediumIsAvailable@COPOSElectronicJournal@@UAGJPAF@Z 10028de0 f   ElectronicJournalImpl.obj
 0001:00027e10       ?get_MediumSize@COPOSElectronicJournal@@UAGJPATtagCY@@@Z 10028e10 f   ElectronicJournalImpl.obj
 0001:00028000       ?get_Station@COPOSElectronicJournal@@UAGJPAJ@Z 10029000 f   ElectronicJournalImpl.obj
 0001:00028030       ?put_Station@COPOSElectronicJournal@@UAGJJ@Z 10029030 f   ElectronicJournalImpl.obj
 0001:00028060       ?get_StorageEnabled@COPOSElectronicJournal@@UAGJPAF@Z 10029060 f   ElectronicJournalImpl.obj
 0001:00028090       ?put_StorageEnabled@COPOSElectronicJournal@@UAGJF@Z 10029090 f   ElectronicJournalImpl.obj
 0001:000280c0       ?get_Suspended@COPOSElectronicJournal@@UAGJPAF@Z 100290c0 f   ElectronicJournalImpl.obj
 0001:000280f0       ?get_WaterMark@COPOSElectronicJournal@@UAGJPAF@Z 100290f0 f   ElectronicJournalImpl.obj
 0001:00028120       ?put_WaterMark@COPOSElectronicJournal@@UAGJF@Z 10029120 f   ElectronicJournalImpl.obj
 0001:00028150       ?AddMarker@COPOSElectronicJournal@@UAGJPA_WPAJ@Z 10029150 f   ElectronicJournalImpl.obj
 0001:00028200       ?CancelPrintContent@COPOSElectronicJournal@@UAGJPAJ@Z 10029200 f   ElectronicJournalImpl.obj
 0001:00028230       ?CancelQueryContent@COPOSElectronicJournal@@UAGJPAJ@Z 10029230 f   ElectronicJournalImpl.obj
 0001:00028260       ?EraseMedium@COPOSElectronicJournal@@UAGJPAJ@Z 10029260 f   ElectronicJournalImpl.obj
 0001:00028290       ?InitializeMedium@COPOSElectronicJournal@@UAGJPA_WPAJ@Z 10029290 f   ElectronicJournalImpl.obj
 0001:00028340       ?PrintContent@COPOSElectronicJournal@@UAGJPA_W0PAJ@Z 10029340 f   ElectronicJournalImpl.obj
 0001:00028430       ?PrintContentFile@COPOSElectronicJournal@@UAGJPA_WPAJ@Z 10029430 f   ElectronicJournalImpl.obj
 0001:000284e0       ?QueryContent@COPOSElectronicJournal@@UAGJPA_W00PAJ@Z 100294e0 f   ElectronicJournalImpl.obj
 0001:00028600       ?ResumePrintContent@COPOSElectronicJournal@@UAGJPAJ@Z 10029600 f   ElectronicJournalImpl.obj
 0001:00028630       ?ResumeQueryContent@COPOSElectronicJournal@@UAGJPAJ@Z 10029630 f   ElectronicJournalImpl.obj
 0001:00028660       ?RetrieveCurrentMarker@COPOSElectronicJournal@@UAGJJPAPA_WPAJ@Z 10029660 f   ElectronicJournalImpl.obj
 0001:00028750       ?RetrieveMarker@COPOSElectronicJournal@@UAGJJJJPAPA_WPAJ@Z 10029750 f   ElectronicJournalImpl.obj
 0001:00028870       ?RetrieveMarkerByDateTime@COPOSElectronicJournal@@UAGJJPA_W0PAPA_WPAJ@Z 10029870 f   ElectronicJournalImpl.obj
 0001:000289a0       ?RetrieveMarkersDateTime@COPOSElectronicJournal@@UAGJPA_WPAPA_WPAJ@Z 100299a0 f   ElectronicJournalImpl.obj
 0001:00028a90       ?SuspendPrintContent@COPOSElectronicJournal@@UAGJPAJ@Z 10029a90 f   ElectronicJournalImpl.obj
 0001:00028ac0       ?SuspendQueryContent@COPOSElectronicJournal@@UAGJPAJ@Z 10029ac0 f   ElectronicJournalImpl.obj
 0001:00028af0       ??0?$CComControl@VCOPOSElectronicJournal@@V?$CWindowImpl@VCOPOSElectronicJournal@@VCWindow@ATL@@V?$CWinTraits@$0FGAAAAAA@$0A@@3@@ATL@@@ATL@@QAE@XZ 10029af0 f i ElectronicJournalImpl.obj
 0001:00028b30       ??0?$CComPtr@UIAdviseSink@@@ATL@@QAE@XZ 10029b30 f i ElectronicJournalImpl.obj
 0001:00028b60       ??0?$CComPtr@UIDataAdviseHolder@@@ATL@@QAE@XZ 10029b60 f i ElectronicJournalImpl.obj
 0001:00028b90       ??0?$CComPtr@UIOleAdviseHolder@@@ATL@@QAE@XZ 10029b90 f i ElectronicJournalImpl.obj
 0001:00028bc0       ??0?$CComPtr@UIOleClientSite@@@ATL@@QAE@XZ 10029bc0 f i ElectronicJournalImpl.obj
 0001:00028bf0       ??0?$CComPtr@UIOleInPlaceSiteWindowless@@@ATL@@QAE@XZ 10029bf0 f i ElectronicJournalImpl.obj
 0001:00028c20       ??0?$CComPtrBase@UIAdviseSink@@@ATL@@IAE@XZ 10029c20 f i ElectronicJournalImpl.obj
 0001:00028c40       ??0?$CComPtrBase@UIDataAdviseHolder@@@ATL@@IAE@XZ 10029c40 f i ElectronicJournalImpl.obj
 0001:00028c60       ??0?$CComPtrBase@UIOleAdviseHolder@@@ATL@@IAE@XZ 10029c60 f i ElectronicJournalImpl.obj
 0001:00028c80       ??0?$CComPtrBase@UIOleClientSite@@@ATL@@IAE@XZ 10029c80 f i ElectronicJournalImpl.obj
 0001:00028ca0       ??0?$CComPtrBase@UIOleInPlaceSiteWindowless@@@ATL@@IAE@XZ 10029ca0 f i ElectronicJournalImpl.obj
 0001:00028cc0       ??0?$CComQIPtr@UIDispatch@@$1?_GUID_00020400_0000_0000_c000_000000000046@@3U__s_GUID@@B@ATL@@QAE@XZ 10029cc0 f i ElectronicJournalImpl.obj
 0001:00028cf0       ??0?$CProxy_IOPOSEvents@VCOPOSElectronicJournal@@@@QAE@PAVCOPOSElectronicJournal@@@Z 10029cf0 f i ElectronicJournalImpl.obj
 0001:00028d60       ??0?$CWindowImpl@VCOPOSElectronicJournal@@VCWindow@ATL@@V?$CWinTraits@$0FGAAAAAA@$0A@@3@@ATL@@QAE@XZ 10029d60 f i ElectronicJournalImpl.obj
 0001:00028d90       ??0?$CWindowImplBaseT@VCWindow@ATL@@V?$CWinTraits@$0FGAAAAAA@$0A@@2@@ATL@@QAE@XZ 10029d90 f i ElectronicJournalImpl.obj
 0001:00028dd0       ??0?$CWindowImplRoot@VCWindow@ATL@@@ATL@@QAE@XZ 10029dd0 f i ElectronicJournalImpl.obj
 0001:00028e30       ??0?$IConnectionPointContainerImpl@VCOPOSElectronicJournal@@@ATL@@QAE@XZ 10029e30 f i ElectronicJournalImpl.obj
 0001:00028e60       ??0?$IConnectionPointImpl@VCOPOSElectronicJournal@@$1?DIID__IOPOSElectronicJournalEvents@@3U_GUID@@BVCComDynamicUnkArray@ATL@@@ATL@@QAE@XZ 10029e60 f i ElectronicJournalImpl.obj
 0001:00028ea0       ??0?$IConnectionPointImpl@VCOPOSElectronicJournal@@$1?IID_IPropertyNotifySink@@3U_GUID@@BVCComDynamicUnkArray@ATL@@@ATL@@QAE@XZ 10029ea0 f i ElectronicJournalImpl.obj
 0001:00028ee0       ??0?$IDataObjectImpl@VCOPOSElectronicJournal@@@ATL@@QAE@XZ 10029ee0 f i ElectronicJournalImpl.obj
 0001:00028f10       ??0?$IDispatchImpl@UIOPOSElectronicJournal@@$1?IID_IOPOSElectronicJournal@@3U_GUID@@B$1?LIBID_OposElectronicJournal_CCO@@3U3@B$00$0A@VCComTypeInfoHolder@ATL@@@ATL@@QAE@XZ 10029f10 f i ElectronicJournalImpl.obj
 0001:00028f40       ??0?$IObjectSafetyImpl@VCOPOSElectronicJournal@@$02@ATL@@QAE@XZ 10029f40 f i ElectronicJournalImpl.obj
 0001:00028f80       ??0?$IOleControlImpl@VCOPOSElectronicJournal@@@ATL@@QAE@XZ 10029f80 f i ElectronicJournalImpl.obj
 0001:00028fb0       ??0?$IOleInPlaceActiveObjectImpl@VCOPOSElectronicJournal@@@ATL@@QAE@XZ 10029fb0 f i ElectronicJournalImpl.obj
 0001:00028fe0       ??0?$IOleInPlaceObjectWindowlessImpl@VCOPOSElectronicJournal@@@ATL@@QAE@XZ 10029fe0 f i ElectronicJournalImpl.obj
 0001:00029010       ??0?$IOleObjectImpl@VCOPOSElectronicJournal@@@ATL@@QAE@XZ 1002a010 f i ElectronicJournalImpl.obj
 0001:00029040       ??0?$IPersistStorageImpl@VCOPOSElectronicJournal@@@ATL@@QAE@XZ 1002a040 f i ElectronicJournalImpl.obj
 0001:00029070       ??0?$IPersistStreamInitImpl@VCOPOSElectronicJournal@@@ATL@@QAE@XZ 1002a070 f i ElectronicJournalImpl.obj
 0001:000290a0       ??0?$IPropertyNotifySinkCP@VCOPOSElectronicJournal@@VCComDynamicUnkArray@ATL@@@ATL@@QAE@XZ 1002a0a0 f i ElectronicJournalImpl.obj
 0001:000290d0       ??0?$IProvideClassInfo2Impl@$1?CLSID_OPOSElectronicJournal@@3U_GUID@@B$1?DIID__IOPOSElectronicJournalEvents@@3U2@B$1?LIBID_OposElectronicJournal_CCO@@3U2@B$00$0A@VCComTypeInfoHolder@ATL@@@ATL@@QAE@XZ 1002a0d0 f i ElectronicJournalImpl.obj
 0001:00029100       ??0?$IQuickActivateImpl@VCOPOSElectronicJournal@@@ATL@@QAE@XZ 1002a100 f i ElectronicJournalImpl.obj
 0001:00029130       ??0?$ISpecifyPropertyPagesImpl@VCOPOSElectronicJournal@@@ATL@@QAE@XZ 1002a130 f i ElectronicJournalImpl.obj
 0001:00029160       ??0?$IViewObjectExImpl@VCOPOSElectronicJournal@@@ATL@@QAE@XZ 1002a160 f i ElectronicJournalImpl.obj
 0001:00029190       ??0?$_ICPLocator@$1?DIID__IOPOSElectronicJournalEvents@@3U_GUID@@B@ATL@@QAE@XZ 1002a190 f i ElectronicJournalImpl.obj
 0001:000291b0       ??0?$_ICPLocator@$1?IID_IPropertyNotifySink@@3U_GUID@@B@ATL@@QAE@XZ 1002a1b0 f i ElectronicJournalImpl.obj
 0001:000291d0       ??0CComControlBase@ATL@@QAE@AAPAUHWND__@@@Z 1002a1d0 f i ElectronicJournalImpl.obj
 0001:00029380       ??0CComDynamicUnkArray@ATL@@QAE@XZ 1002a380 f i ElectronicJournalImpl.obj
 0001:000293b0       ??0CDynamicStdCallThunk2@ATL@@QAE@XZ 1002a3b0 f i ElectronicJournalImpl.obj
 0001:000293d0       ??0CMessageMap@ATL@@QAE@XZ 1002a3d0 f i ElectronicJournalImpl.obj
 0001:000293f0       ??0CWindow@ATL@@QAE@PAUHWND__@@@Z 1002a3f0 f i ElectronicJournalImpl.obj
 0001:00029410       ??0CWndProcThunk@ATL@@QAE@XZ 1002a410 f i ElectronicJournalImpl.obj
 0001:00029440       ??0IConnectionPointContainer@@QAE@XZ 1002a440 f i ElectronicJournalImpl.obj
 0001:00029470       ??0IDataObject@@QAE@XZ     1002a470 f i ElectronicJournalImpl.obj
 0001:000294a0       ??0IDispatch@@QAE@XZ       1002a4a0 f i ElectronicJournalImpl.obj
 0001:000294d0       ??0IOPOSElectronicJournal@@QAE@XZ 1002a4d0 f i ElectronicJournalImpl.obj
 0001:00029500       ??0IOPOSElectronicJournal_1_10@@QAE@XZ 1002a500 f i ElectronicJournalImpl.obj
 0001:00029530       ??0IObjectSafety@@QAE@XZ   1002a530 f i ElectronicJournalImpl.obj
 0001:00029560       ??0IOleControl@@QAE@XZ     1002a560 f i ElectronicJournalImpl.obj
 0001:00029590       ??0IOleInPlaceActiveObject@@QAE@XZ 1002a590 f i ElectronicJournalImpl.obj
 0001:000295c0       ??0IOleInPlaceObject@@QAE@XZ 1002a5c0 f i ElectronicJournalImpl.obj
 0001:000295f0       ??0IOleInPlaceObjectWindowless@@QAE@XZ 1002a5f0 f i ElectronicJournalImpl.obj
 0001:00029620       ??0IOleObject@@QAE@XZ      1002a620 f i ElectronicJournalImpl.obj
 0001:00029650       ??0IOleWindow@@QAE@XZ      1002a650 f i ElectronicJournalImpl.obj
 0001:00029680       ??0IPersist@@QAE@XZ        1002a680 f i ElectronicJournalImpl.obj
 0001:000296b0       ??0IPersistStorage@@QAE@XZ 1002a6b0 f i ElectronicJournalImpl.obj
 0001:000296e0       ??0IPersistStreamInit@@QAE@XZ 1002a6e0 f i ElectronicJournalImpl.obj
 0001:00029710       ??0IProvideClassInfo2@@QAE@XZ 1002a710 f i ElectronicJournalImpl.obj
 0001:00029740       ??0IProvideClassInfo@@QAE@XZ 1002a740 f i ElectronicJournalImpl.obj
 0001:00029770       ??0IQuickActivate@@QAE@XZ  1002a770 f i ElectronicJournalImpl.obj
 0001:000297a0       ??0ISpecifyPropertyPages@@QAE@XZ 1002a7a0 f i ElectronicJournalImpl.obj
 0001:000297d0       ??0IViewObject2@@QAE@XZ    1002a7d0 f i ElectronicJournalImpl.obj
 0001:00029800       ??0IViewObject@@QAE@XZ     1002a800 f i ElectronicJournalImpl.obj
 0001:00029830       ??0IViewObjectEx@@QAE@XZ   1002a830 f i ElectronicJournalImpl.obj
 0001:00029860       ??0OposVariantResult@@QAE@XZ 1002a860 f i ElectronicJournalImpl.obj
 0001:00029890       ??0_CW@@QAE@PBD@Z          1002a890 f i ElectronicJournalImpl.obj
 0001:000298d0       ??0_CW@@QAE@PB_W@Z         1002a8d0 f i ElectronicJournalImpl.obj
 0001:00029910       ??0_CWNCC@@QAE@PBD@Z       1002a910 f i ElectronicJournalImpl.obj
 0001:00029940       ??1?$CComControl@VCOPOSElectronicJournal@@V?$CWindowImpl@VCOPOSElectronicJournal@@VCWindow@ATL@@V?$CWinTraits@$0FGAAAAAA@$0A@@3@@ATL@@@ATL@@UAE@XZ 1002a940 f i ElectronicJournalImpl.obj
 0001:00029970       ??1?$CComPtr@UIDataAdviseHolder@@@ATL@@QAE@XZ 1002a970 f i ElectronicJournalImpl.obj
 0001:000299a0       ??1?$CComPtr@UIOleAdviseHolder@@@ATL@@QAE@XZ 1002a9a0 f i ElectronicJournalImpl.obj
 0001:000299d0       ??1?$CComPtr@UIOleInPlaceSiteWindowless@@@ATL@@QAE@XZ 1002a9d0 f i ElectronicJournalImpl.obj
 0001:00029a00       ??1?$CComPtrBase@UIDataAdviseHolder@@@ATL@@QAE@XZ 1002aa00 f i ElectronicJournalImpl.obj
 0001:00029a50       ??1?$CComPtrBase@UIOleAdviseHolder@@@ATL@@QAE@XZ 1002aa50 f i ElectronicJournalImpl.obj
 0001:00029aa0       ??1?$CComPtrBase@UIOleInPlaceSiteWindowless@@@ATL@@QAE@XZ 1002aaa0 f i ElectronicJournalImpl.obj
 0001:00029af0       ??1?$CComQIPtr@UIDispatch@@$1?_GUID_00020400_0000_0000_c000_000000000046@@3U__s_GUID@@B@ATL@@QAE@XZ 1002aaf0 f i ElectronicJournalImpl.obj
 0001:00029b20       ??1?$CProxy_IOPOSEvents@VCOPOSElectronicJournal@@@@QAE@XZ 1002ab20 f i ElectronicJournalImpl.obj
 0001:00029b50       ??1?$CWindowImpl@VCOPOSElectronicJournal@@VCWindow@ATL@@V?$CWinTraits@$0FGAAAAAA@$0A@@3@@ATL@@UAE@XZ 1002ab50 f i ElectronicJournalImpl.obj
 0001:00029b80       ??1?$CWindowImplBaseT@VCWindow@ATL@@V?$CWinTraits@$0FGAAAAAA@$0A@@2@@ATL@@UAE@XZ 1002ab80 f i ElectronicJournalImpl.obj
 0001:00029bb0       ??1?$CWindowImplRoot@VCWindow@ATL@@@ATL@@UAE@XZ 1002abb0 f i ElectronicJournalImpl.obj
 0001:00029c50       ??1?$IConnectionPointImpl@VCOPOSElectronicJournal@@$1?DIID__IOPOSElectronicJournalEvents@@3U_GUID@@BVCComDynamicUnkArray@ATL@@@ATL@@QAE@XZ 1002ac50 f i ElectronicJournalImpl.obj
 0001:00029cd0       ??1?$IConnectionPointImpl@VCOPOSElectronicJournal@@$1?IID_IPropertyNotifySink@@3U_GUID@@BVCComDynamicUnkArray@ATL@@@ATL@@QAE@XZ 1002acd0 f i ElectronicJournalImpl.obj
 0001:00029d50       ??1?$IPropertyNotifySinkCP@VCOPOSElectronicJournal@@VCComDynamicUnkArray@ATL@@@ATL@@QAE@XZ 1002ad50 f i ElectronicJournalImpl.obj
 0001:00029d80       ??1CComControlBase@ATL@@UAE@XZ 1002ad80 f i ElectronicJournalImpl.obj
 0001:00029e40       ??1CComDynamicUnkArray@ATL@@QAE@XZ 1002ae40 f i ElectronicJournalImpl.obj
 0001:00029e80       ??1CDynamicStdCallThunk2@ATL@@QAE@XZ 1002ae80 f i ElectronicJournalImpl.obj
 0001:00029eb0       ??1CWndProcThunk@ATL@@QAE@XZ 1002aeb0 f i ElectronicJournalImpl.obj
 0001:00029ee0       ??1OposVariantResult@@QAE@XZ 1002aee0 f i ElectronicJournalImpl.obj
 0001:00029f10       ??1_CW@@QAE@XZ             1002af10 f i ElectronicJournalImpl.obj
 0001:00029f80       ??1_CWNCC@@QAE@XZ          1002af80 f i ElectronicJournalImpl.obj
 0001:00029fb0       ??B_CW@@QAEPB_WXZ          1002afb0 f i ElectronicJournalImpl.obj
 0001:00029ff0       ??B_CWNCC@@QAEPA_WXZ       1002aff0 f i ElectronicJournalImpl.obj
 0001:0002a020       ??_EOposVariant@@QAEPAXI@Z 1002b020 f i ElectronicJournalImpl.obj
 0001:0002a0b0       ?EventClaim@COPOSElectronicJournal@@IAEXXZ 1002b0b0 f i ElectronicJournalImpl.obj
 0001:0002a0f0       ?EventClose@COPOSElectronicJournal@@IAEXXZ 1002b0f0 f i ElectronicJournalImpl.obj
 0001:0002a190       ?EventInit@COPOSElectronicJournal@@IAEJXZ 1002b190 f i ElectronicJournalImpl.obj
 0001:0002a3c0       ?EventOpen@COPOSElectronicJournal@@IAEXXZ 1002b3c0 f i ElectronicJournalImpl.obj
 0001:0002a400       ?EventPreCloseRelease@COPOSElectronicJournal@@IAEXXZ 1002b400 f i ElectronicJournalImpl.obj
 0001:0002a480       ?EventUninit@COPOSElectronicJournal@@IAEXXZ 1002b480 f i ElectronicJournalImpl.obj
 0001:0002a5b0       ?EventWindowProc@COPOSElectronicJournal@@IAGJIIJ@Z 1002b5b0 f i ElectronicJournalImpl.obj
 0001:0002a780       ?FireEventCleanup@COPOSElectronicJournal@@IAEXXZ 1002b780 f i ElectronicJournalImpl.obj
 0001:0002a7d0       ?FireEventSetup@COPOSElectronicJournal@@IAE_NXZ 1002b7d0 f i ElectronicJournalImpl.obj
 0001:0002a840       ?GetModuleInstance@CComModule@ATL@@QAEPAUHINSTANCE__@@XZ 1002b840 f i ElectronicJournalImpl.obj
 0001:0002a860       ?SetRC@COPOSElectronicJournal@@IAEJJ@Z 1002b860 f i ElectronicJournalImpl.obj
 0001:0002a890       ?s_EventWindowProc@COPOSElectronicJournal@@KGJPAUHWND__@@IIJ@Z 1002b890 f i ElectronicJournalImpl.obj
 0001:0002a930       __snwprintf                1002b930 f i ElectronicJournalImpl.obj
 0001:0002a990       __vfwprintf_l              1002b990 f i ElectronicJournalImpl.obj
 0001:0002a9c0       __vsnwprintf               1002b9c0 f i ElectronicJournalImpl.obj
 0001:0002a9f0       __vsnwprintf_l             1002b9f0 f i ElectronicJournalImpl.obj
 0001:0002aa60       _vfwprintf                 1002ba60 f i ElectronicJournalImpl.obj
 0001:0002aa82       _DebugBreak@0              1002ba82 f   kernel32:KERNEL32.dll
 0001:0002aa88       _Sleep@4                   1002ba88 f   kernel32:KERNEL32.dll
 0001:0002aa8e       _GetCurrentProcess@0       1002ba8e f   kernel32:KERNEL32.dll
 0001:0002aa94       _TerminateProcess@8        1002ba94 f   kernel32:KERNEL32.dll
 0001:0002aa9a       _MultiByteToWideChar@24    1002ba9a f   kernel32:KERNEL32.dll
 0001:0002aaa0       _WideCharToMultiByte@32    1002baa0 f   kernel32:KERNEL32.dll
 0001:0002aaa6       _DecodePointer@4           1002baa6 f   kernel32:KERNEL32.dll
 0001:0002aaac       _RaiseException@16         1002baac f   kernel32:KERNEL32.dll
 0001:0002aab2       _GetLastError@0            1002bab2 f   kernel32:KERNEL32.dll
 0001:0002aab8       _SetLastError@4            1002bab8 f   kernel32:KERNEL32.dll
 0001:0002aabe       _InitializeCriticalSectionEx@12 1002babe f   kernel32:KERNEL32.dll
 0001:0002aac4       _DeleteCriticalSection@4   1002bac4 f   kernel32:KERNEL32.dll
 0001:0002aaca       _EncodePointer@4           1002baca f   kernel32:KERNEL32.dll
 0001:0002aad0       _EnterCriticalSection@4    1002bad0 f   kernel32:KERNEL32.dll
 0001:0002aad6       _LeaveCriticalSection@4    1002bad6 f   kernel32:KERNEL32.dll
 0001:0002aadc       _ResetEvent@4              1002badc f   kernel32:KERNEL32.dll
 0001:0002aae2       _ReleaseMutex@4            1002bae2 f   kernel32:KERNEL32.dll
 0001:0002aae8       _WaitForSingleObject@8     1002bae8 f   kernel32:KERNEL32.dll
 0001:0002aaee       _GetCurrentThreadId@0      1002baee f   kernel32:KERNEL32.dll
 0001:0002aaf4       _DisableThreadLibraryCalls@4 1002baf4 f   kernel32:KERNEL32.dll
 0001:0002aafa       _FreeLibrary@4             1002bafa f   kernel32:KERNEL32.dll
 0001:0002ab00       _GetModuleFileNameW@12     1002bb00 f   kernel32:KERNEL32.dll
 0001:0002ab06       _GetModuleHandleW@4        1002bb06 f   kernel32:KERNEL32.dll
 0001:0002ab0c       _GetProcAddress@8          1002bb0c f   kernel32:KERNEL32.dll
 0001:0002ab12       _LoadLibraryExW@12         1002bb12 f   kernel32:KERNEL32.dll
 0001:0002ab18       _LoadResource@8            1002bb18 f   kernel32:KERNEL32.dll
 0001:0002ab1e       _SizeofResource@8          1002bb1e f   kernel32:KERNEL32.dll
 0001:0002ab24       _FindResourceW@12          1002bb24 f   kernel32:KERNEL32.dll
 0001:0002ab2a       _GlobalAlloc@8             1002bb2a f   kernel32:KERNEL32.dll
 0001:0002ab30       _GlobalUnlock@4            1002bb30 f   kernel32:KERNEL32.dll
 0001:0002ab36       _GlobalLock@4              1002bb36 f   kernel32:KERNEL32.dll
 0001:0002ab3c       _MulDiv@12                 1002bb3c f   kernel32:KERNEL32.dll
 0001:0002ab42       _lstrcmpiW@8               1002bb42 f   kernel32:KERNEL32.dll
 0001:0002ab48       _DeleteFileW@4             1002bb48 f   kernel32:KERNEL32.dll
 0001:0002ab4e       _CloseHandle@4             1002bb4e f   kernel32:KERNEL32.dll
 0001:0002ab54       _SetEvent@4                1002bb54 f   kernel32:KERNEL32.dll
 0001:0002ab5a       _CreateMutexW@12           1002bb5a f   kernel32:KERNEL32.dll
 0001:0002ab60       _CreateEventW@16           1002bb60 f   kernel32:KERNEL32.dll
 0001:0002ab66       _GetCurrentProcessId@0     1002bb66 f   kernel32:KERNEL32.dll
 0001:0002ab6c       _LocalFree@4               1002bb6c f   kernel32:KERNEL32.dll
 0001:0002ab72       _FormatMessageW@28         1002bb72 f   kernel32:KERNEL32.dll
 0001:0002ab78       _GetActiveWindow@0         1002bb78 f   user32:USER32.dll
 0001:0002ab7e       _MessageBoxW@16            1002bb7e f   user32:USER32.dll
 0001:0002ab84       _UnregisterClassW@8        1002bb84 f   user32:USER32.dll
 0001:0002ab8a       _PostMessageW@16           1002bb8a f   user32:USER32.dll
 0001:0002ab90       _DefWindowProcW@16         1002bb90 f   user32:USER32.dll
 0001:0002ab96       _CallWindowProcW@20        1002bb96 f   user32:USER32.dll
 0001:0002ab9c       _RegisterClassExW@4        1002bb9c f   user32:USER32.dll
 0001:0002aba2       _GetClassInfoExW@12        1002bba2 f   user32:USER32.dll
 0001:0002aba8       _CreateWindowExW@48        1002bba8 f   user32:USER32.dll
 0001:0002abae       _IsWindow@4                1002bbae f   user32:USER32.dll
 0001:0002abb4       _IsChild@8                 1002bbb4 f   user32:USER32.dll
 0001:0002abba       _DestroyWindow@4           1002bbba f   user32:USER32.dll
 0001:0002abc0       _ShowWindow@8              1002bbc0 f   user32:USER32.dll
 0001:0002abc6       _SetWindowPos@28           1002bbc6 f   user32:USER32.dll
 0001:0002abcc       _CharNextW@4               1002bbcc f   user32:USER32.dll
 0001:0002abd2       _SetFocus@4                1002bbd2 f   user32:USER32.dll
 0001:0002abd8       _GetFocus@0                1002bbd8 f   user32:USER32.dll
 0001:0002abde       _GetKeyState@4             1002bbde f   user32:USER32.dll
 0001:0002abe4       _GetDC@4                   1002bbe4 f   user32:USER32.dll
 0001:0002abea       _ReleaseDC@8               1002bbea f   user32:USER32.dll
 0001:0002abf0       _BeginPaint@8              1002bbf0 f   user32:USER32.dll
 0001:0002abf6       _EndPaint@8                1002bbf6 f   user32:USER32.dll
 0001:0002abfc       _SetWindowRgn@12           1002bbfc f   user32:USER32.dll
 0001:0002ac02       _InvalidateRect@12         1002bc02 f   user32:USER32.dll
 0001:0002ac08       _GetClientRect@8           1002bc08 f   user32:USER32.dll
 0001:0002ac0e       _IntersectRect@12          1002bc0e f   user32:USER32.dll
 0001:0002ac14       _UnionRect@12              1002bc14 f   user32:USER32.dll
 0001:0002ac1a       _OffsetRect@12             1002bc1a f   user32:USER32.dll
 0001:0002ac20       _EqualRect@8               1002bc20 f   user32:USER32.dll
 0001:0002ac26       _PtInRect@12               1002bc26 f   user32:USER32.dll
 0001:0002ac2c       _GetWindowLongW@8          1002bc2c f   user32:USER32.dll
 0001:0002ac32       _SetWindowLongW@12         1002bc32 f   user32:USER32.dll
 0001:0002ac38       _GetParent@4               1002bc38 f   user32:USER32.dll
 0001:0002ac3e       _LoadCursorW@8             1002bc3e f   user32:USER32.dll
 0001:0002ac44       _PeekMessageW@20           1002bc44 f   user32:USER32.dll
 0001:0002ac4a       _RegisterClassW@4          1002bc4a f   user32:USER32.dll
 0001:0002ac50       _LoadBitmapW@8             1002bc50 f   user32:USER32.dll
 0001:0002ac56       _CloseMetaFile@4           1002bc56 f   gdi32:GDI32.dll
 0001:0002ac5c       _CreateDCW@16              1002bc5c f   gdi32:GDI32.dll
 0001:0002ac62       _CreateMetaFileW@4         1002bc62 f   gdi32:GDI32.dll
 0001:0002ac68       _CreateRectRgnIndirect@4   1002bc68 f   gdi32:GDI32.dll
 0001:0002ac6e       _DeleteDC@4                1002bc6e f   gdi32:GDI32.dll
 0001:0002ac74       _DeleteMetaFile@4          1002bc74 f   gdi32:GDI32.dll
 0001:0002ac7a       _GetDeviceCaps@8           1002bc7a f   gdi32:GDI32.dll
 0001:0002ac80       _RestoreDC@8               1002bc80 f   gdi32:GDI32.dll
 0001:0002ac86       _SaveDC@4                  1002bc86 f   gdi32:GDI32.dll
 0001:0002ac8c       _SetMapMode@8              1002bc8c f   gdi32:GDI32.dll
 0001:0002ac92       _LPtoDP@12                 1002bc92 f   gdi32:GDI32.dll
 0001:0002ac98       _SetViewportOrgEx@16       1002bc98 f   gdi32:GDI32.dll
 0001:0002ac9e       _SetWindowExtEx@16         1002bc9e f   gdi32:GDI32.dll
 0001:0002aca4       _SetWindowOrgEx@16         1002bca4 f   gdi32:GDI32.dll
 0001:0002acaa       _BitBlt@36                 1002bcaa f   gdi32:GDI32.dll
 0001:0002acb0       _CreateCompatibleDC@4      1002bcb0 f   gdi32:GDI32.dll
 0001:0002acb6       _DeleteObject@4            1002bcb6 f   gdi32:GDI32.dll
 0001:0002acbc       _SelectObject@8            1002bcbc f   gdi32:GDI32.dll
 0001:0002acc2       _GetObjectW@12             1002bcc2 f   gdi32:GDI32.dll
 0001:0002acc8       _RegCloseKey@4             1002bcc8 f   advapi32:ADVAPI32.dll
 0001:0002acce       _RegCreateKeyExW@36        1002bcce f   advapi32:ADVAPI32.dll
 0001:0002acd4       _RegDeleteKeyW@8           1002bcd4 f   advapi32:ADVAPI32.dll
 0001:0002acda       _RegDeleteValueW@8         1002bcda f   advapi32:ADVAPI32.dll
 0001:0002ace0       _RegEnumKeyExW@32          1002bce0 f   advapi32:ADVAPI32.dll
 0001:0002ace6       _RegOpenKeyExW@20          1002bce6 f   advapi32:ADVAPI32.dll
 0001:0002acec       _RegQueryInfoKeyW@48       1002bcec f   advapi32:ADVAPI32.dll
 0001:0002acf2       _RegSetValueExW@24         1002bcf2 f   advapi32:ADVAPI32.dll
 0001:0002acf8       _RegQueryValueExW@24       1002bcf8 f   advapi32:ADVAPI32.dll
 0001:0002acfe       _CoCreateInstance@20       1002bcfe f   ole32:ole32.dll
 0001:0002ad04       _StringFromGUID2@12        1002bd04 f   ole32:ole32.dll
 0001:0002ad0a       _CoTaskMemAlloc@4          1002bd0a f   ole32:ole32.dll
 0001:0002ad10       _CoTaskMemRealloc@8        1002bd10 f   ole32:ole32.dll
 0001:0002ad16       _CoTaskMemFree@4           1002bd16 f   ole32:ole32.dll
 0001:0002ad1c       _ReadClassStm@8            1002bd1c f   ole32:ole32.dll
 0001:0002ad22       _WriteClassStm@8           1002bd22 f   ole32:ole32.dll
 0001:0002ad28       _CreateDataAdviseHolder@4  1002bd28 f   ole32:ole32.dll
 0001:0002ad2e       _OleSaveToStream@8         1002bd2e f   ole32:ole32.dll
 0001:0002ad34       _CreateOleAdviseHolder@4   1002bd34 f   ole32:ole32.dll
 0001:0002ad3a       _OleRegGetUserType@12      1002bd3a f   ole32:ole32.dll
 0001:0002ad40       _OleRegGetMiscStatus@12    1002bd40 f   ole32:ole32.dll
 0001:0002ad46       _OleRegEnumVerbs@8         1002bd46 f   ole32:ole32.dll
 0001:0002ad4c       _CLSIDFromProgID@8         1002bd4c f   ole32:ole32.dll
 0001:0002ad52       _SysAllocString@4          1002bd52 f   oleaut32:OLEAUT32.dll
 0001:0002ad58       _SysAllocStringLen@8       1002bd58 f   oleaut32:OLEAUT32.dll
 0001:0002ad5e       _SysFreeString@4           1002bd5e f   oleaut32:OLEAUT32.dll
 0001:0002ad64       _SysStringLen@4            1002bd64 f   oleaut32:OLEAUT32.dll
 0001:0002ad6a       _VariantClear@4            1002bd6a f   oleaut32:OLEAUT32.dll
 0001:0002ad70       _VariantCopyInd@8          1002bd70 f   oleaut32:OLEAUT32.dll
 0001:0002ad76       _VariantChangeType@16      1002bd76 f   oleaut32:OLEAUT32.dll
 0001:0002ad7c       _SysStringByteLen@4        1002bd7c f   oleaut32:OLEAUT32.dll
 0001:0002ad82       _SysAllocStringByteLen@8   1002bd82 f   oleaut32:OLEAUT32.dll
 0001:0002ad88       _VariantInit@4             1002bd88 f   oleaut32:OLEAUT32.dll
 0001:0002ad8e       _VarUI4FromStr@16          1002bd8e f   oleaut32:OLEAUT32.dll
 0001:0002ad94       _LoadTypeLib@8             1002bd94 f   oleaut32:OLEAUT32.dll
 0001:0002ad9a       _LoadRegTypeLib@20         1002bd9a f   oleaut32:OLEAUT32.dll
 0001:0002ada0       _RegisterTypeLib@12        1002bda0 f   oleaut32:OLEAUT32.dll
 0001:0002ada6       _UnRegisterTypeLib@20      1002bda6 f   oleaut32:OLEAUT32.dll
 0001:0002adac       _OleCreatePropertyFrame@44 1002bdac f   oleaut32:OLEAUT32.dll
 0001:0002adc0       @_RTC_AllocaHelper@12      1002bdc0 f   LIBCMTD:stack.obj
 0001:0002ae00       @_RTC_CheckStackVars2@12   1002be00 f   LIBCMTD:stack.obj
 0001:0002aee0       @_RTC_CheckStackVars@8     1002bee0 f   LIBCMTD:stack.obj
 0001:0002af50       __RTC_CheckEsp             1002bf50 f   LIBCMTD:stack.obj
 0001:0002af90       @__security_check_cookie@4 1002bf90 f   LIBCMTD:secchk.obj
 0001:0002afb0       __CRT_RTC_INIT             1002bfb0 f   LIBCMTD:init.obj
 0001:0002afc0       __CRT_RTC_INITW            1002bfc0 f   LIBCMTD:init.obj
 0001:0002afd0       __RTC_InitBase             1002bfd0 f   LIBCMTD:init.obj
 0001:0002b000       __RTC_Shutdown             1002c000 f   LIBCMTD:init.obj
 0001:0002b020       ??_U@YAPAXI@Z              1002c020 f   LIBCMTD:new_array.obj
 0001:0002b040       ??3@YAXPAXI@Z              1002c040 f   LIBCMTD:delete_scalar_size.obj
 0001:0002b060       ??_V@YAXPAX@Z              1002c060 f   LIBCMTD:delete_array.obj
 0001:0002b080       ??_V@YAXPAXI@Z             1002c080 f   LIBCMTD:delete_array_size.obj
 0001:0002b0a0       ?configure_argv@__scrt_narrow_argv_policy@@SAHXZ 1002c0a0 f i LIBCMTD:utility.obj
 0001:0002b150       ?initialize_environment@__scrt_narrow_environment_policy@@SAHXZ 1002c150 f i LIBCMTD:utility.obj
 0001:0002b1d0       _NtCurrentTeb              1002c1d0 f i LIBCMTD:utility.obj
 0001:0002b1e0       ___scrt_acquire_startup_lock 1002c1e0 f   LIBCMTD:utility.obj
 0001:0002b230       ___scrt_dllmain_after_initialize_c 1002c230 f   LIBCMTD:utility.obj
 0001:0002b260       ___scrt_dllmain_before_initialize_c 1002c260 f   LIBCMTD:utility.obj
 0001:0002b280       ___scrt_dllmain_crt_thread_attach 1002c280 f   LIBCMTD:utility.obj
 0001:0002b2b0       ___scrt_dllmain_crt_thread_detach 1002c2b0 f   LIBCMTD:utility.obj
 0001:0002b2d0       ___scrt_dllmain_exception_filter 1002c2d0 f   LIBCMTD:utility.obj
 0001:0002b320       ___scrt_dllmain_uninitialize_c 1002c320 f   LIBCMTD:utility.obj
 0001:0002b350       ___scrt_dllmain_uninitialize_critical 1002c350 f   LIBCMTD:utility.obj
 0001:0002b370       ___scrt_initialize_crt     1002c370 f   LIBCMTD:utility.obj
 0001:0002b3c0       ___scrt_initialize_onexit_tables 1002c3c0 f   LIBCMTD:utility.obj
 0001:0002b4a0       ___scrt_is_nonwritable_in_current_image 1002c4a0 f   LIBCMTD:utility.obj
 0001:0002b5d0       ___scrt_release_startup_lock 1002c5d0 f   LIBCMTD:utility.obj
 0001:0002b600       ___scrt_uninitialize_crt   1002c600 f   LIBCMTD:utility.obj
 0001:0002b640       __onexit                   1002c640 f   LIBCMTD:utility.obj
 0001:0002b6b0       _at_quick_exit             1002c6b0 f   LIBCMTD:utility.obj
 0001:0002b6f0       _atexit                    1002c6f0 f   LIBCMTD:utility.obj
 0001:0002b720       ??3@YAXPAX@Z               1002c720 f   LIBCMTD:delete_scalar.obj
 0001:0002b740       ___raise_securityfailure   1002c740 f   LIBCMTD:gs_report.obj
 0001:0002b770       ___report_gsfailure        1002c770 f   LIBCMTD:gs_report.obj
 0001:0002b880       ___report_rangecheckfailure 1002c880 f   LIBCMTD:gs_report.obj
 0001:0002b890       ___report_securityfailure  1002c890 f   LIBCMTD:gs_report.obj
 0001:0002b970       ___report_securityfailureEx 1002c970 f   LIBCMTD:gs_report.obj
 0001:0002bbc0       __Init_thread_abort        1002cbc0 f   LIBCMTD:thread_safe_statics.obj
 0001:0002bbe0       __Init_thread_footer       1002cbe0 f   LIBCMTD:thread_safe_statics.obj
 0001:0002bc30       __Init_thread_header       1002cc30 f   LIBCMTD:thread_safe_statics.obj
 0001:0002bca0       __Init_thread_lock         1002cca0 f   LIBCMTD:thread_safe_statics.obj
 0001:0002bcb0       __Init_thread_notify       1002ccb0 f   LIBCMTD:thread_safe_statics.obj
 0001:0002bd00       __Init_thread_unlock       1002cd00 f   LIBCMTD:thread_safe_statics.obj
 0001:0002bd10       __Init_thread_wait         1002cd10 f   LIBCMTD:thread_safe_statics.obj
 0001:0002bda0       ??2@YAPAXIABUnothrow_t@std@@@Z 1002cda0 f   LIBCMTD:new_scalar_nothrow.obj
 0001:0002be20       ??_U@YAPAXIABUnothrow_t@std@@@Z 1002ce20 f   LIBCMTD:new_array_nothrow.obj
 0001:0002be40       __allmul                   1002ce40 f   LIBCMTD:llmul.obj
 0001:0002be80       __alloca_probe_16          1002ce80 f   LIBCMTD:alloca16.obj
 0001:0002be96       __alloca_probe_8           1002ce96     LIBCMTD:alloca16.obj
 0001:0002beb0       __chkstk                   1002ceb0 f   LIBCMTD:chkstk.obj
 0001:0002beb0       __alloca_probe             1002ceb0 f   LIBCMTD:chkstk.obj
 0001:0002bee0       __alldiv                   1002cee0 f   LIBCMTD:lldiv.obj
 0001:0002bf90       __allrem                   1002cf90 f   LIBCMTD:llrem.obj
 0001:0002c500       __CRT_INIT@12              1002d500 f   LIBCMTD:dll_dllmain.obj
 0001:0002c520       __DllMainCRTStartup@12     1002d520 f   LIBCMTD:dll_dllmain.obj
 0001:0002c5e0       ?_RTC_AllocaFailure@@YAXPAXPAU_RTC_ALLOCA_NODE@@H@Z 1002d5e0 f   LIBCMTD:error.obj
 0001:0002c6d0       ?_RTC_Failure@@YAXPAXH@Z   1002d6d0 f   LIBCMTD:error.obj
 0001:0002c720       ?_RTC_StackFailure@@YAXPAXPBD@Z 1002d720 f   LIBCMTD:error.obj
 0001:0002cae0       __RTC_UninitUse            1002dae0 f   LIBCMTD:error.obj
 0001:0002cb90       __vsprintf_s_l             1002db90 f i LIBCMTD:error.obj
 0001:0002cbc0       _sprintf_s                 1002dbc0 f i LIBCMTD:error.obj
 0001:0002cbe0       ?_RTC_GetErrorFunc@@YAP6AHHPBDH00ZZPBX@Z 1002dbe0 f   LIBCMTD:userapi.obj
 0001:0002cbf0       ?_RTC_GetErrorFuncW@@YAP6AHHPB_WH00ZZPBX@Z 1002dbf0 f   LIBCMTD:userapi.obj
 0001:0002cc00       __RTC_GetErrDesc           1002dc00 f   LIBCMTD:userapi.obj
 0001:0002cc20       __RTC_NumErrors            1002dc20 f   LIBCMTD:userapi.obj
 0001:0002cc30       __RTC_SetErrorFunc         1002dc30 f   LIBCMTD:userapi.obj
 0001:0002cc50       __RTC_SetErrorFuncW        1002dc50 f   LIBCMTD:userapi.obj
 0001:0002cc70       __RTC_SetErrorType         1002dc70 f   LIBCMTD:userapi.obj
 0001:0002cca0       ??2@YAPAXI@Z               1002dca0 f   LIBCMTD:new_scalar.obj
 0001:0002ccf0       ___isa_available_init      1002dcf0 f   LIBCMTD:cpu_disp.obj
 0001:0002cfd0       __get_startup_argv_mode    1002dfd0 f   LIBCMTD:argv_mode.obj
 0001:0002cfe0       ___scrt_is_ucrt_dll_in_use 1002dfe0 f   LIBCMTD:ucrt_detection.obj
 0001:0002d010       ___scrt_fastfail           1002e010 f   LIBCMTD:utility_desktop.obj
 0001:0002d150       ___scrt_get_show_window_mode 1002e150 f   LIBCMTD:utility_desktop.obj
 0001:0002d190       ___scrt_initialize_mta     1002e190 f   LIBCMTD:utility_desktop.obj
 0001:0002d1a0       ___scrt_initialize_winrt   1002e1a0 f   LIBCMTD:utility_desktop.obj
 0001:0002d1b0       ___scrt_is_managed_app     1002e1b0 f   LIBCMTD:utility_desktop.obj
 0001:0002d240       ___scrt_set_unhandled_exception_filter 1002e240 f   LIBCMTD:utility_desktop.obj
 0001:0002d250       ___scrt_exe_initialize_mta 1002e250 f   LIBCMTD:utility_desktop.obj
 0001:0002d250       ___scrt_stub_for_initialize_mta 1002e250 f   LIBCMTD:utility_desktop.obj
 0001:0002d260       ___scrt_unhandled_exception_filter@4 1002e260 f   LIBCMTD:utility_desktop.obj
 0001:0002d2c0       __crt_debugger_hook        1002e2c0 f   LIBCMTD:utility_desktop.obj
 0001:0002d2d0       @_guard_check_icall_nop@4  1002e2d0 f i LIBCMTD:guard_support.obj
 0001:0002d2e0       _ReadNoFence               1002e2e0 f i LIBCMTD:guard_support.obj
 0001:0002d300       _ReadPointerNoFence        1002e300 f i LIBCMTD:guard_support.obj
 0001:0002d320       __guard_icall_checks_enforced 1002e320 f i LIBCMTD:guard_support.obj
 0001:0002d3c0       ___security_init_cookie    1002e3c0 f   LIBCMTD:gs_support.obj
 0001:0002d440       ?__scrt_initialize_type_info@@YAXXZ 1002e440 f   LIBCMTD:tncleanup.obj
 0001:0002d450       ?__scrt_uninitialize_type_info@@YAXXZ 1002e450 f   LIBCMTD:tncleanup.obj
 0001:0002d470       ___local_stdio_scanf_options 1002e470 f i LIBCMTD:default_local_stdio_options.obj
 0001:0002d480       ___scrt_initialize_default_local_stdio_options 1002e480 f   LIBCMTD:default_local_stdio_options.obj
 0001:0002d4c0       ___scrt_get_dyn_tls_init_callback 1002e4c0 f   LIBCMTD:dyn_tls_init.obj
 0001:0002d4d0       __RTC_Initialize           1002e4d0 f   LIBCMTD:initsect.obj
 0001:0002d500       __RTC_Terminate            1002e500 f   LIBCMTD:initsect.obj
 0001:0002d9b0       ?_RTC_GetSrcLine@@YAHPAEPA_WKPAH1K@Z 1002e9b0 f   LIBCMTD:pdblkup.obj
 0001:0002dd40       __except_handler4_noexcept 1002ed40 f   LIBCMTD:chandler4_noexcept.obj
 0001:0002dd90       ??0bad_alloc@std@@AAE@QBD@Z 1002ed90 f i LIBCMTD:throw_bad_alloc.obj
 0001:0002ddc0       ??0bad_alloc@std@@QAE@ABV01@@Z 1002edc0 f i LIBCMTD:throw_bad_alloc.obj
 0001:0002ddf0       ??0bad_alloc@std@@QAE@XZ   1002edf0 f i LIBCMTD:throw_bad_alloc.obj
 0001:0002de20       ??0bad_array_new_length@std@@QAE@ABV01@@Z 1002ee20 f i LIBCMTD:throw_bad_alloc.obj
 0001:0002de50       ??0bad_array_new_length@std@@QAE@XZ 1002ee50 f i LIBCMTD:throw_bad_alloc.obj
 0001:0002de80       ??0exception@std@@QAE@ABV01@@Z 1002ee80 f i LIBCMTD:throw_bad_alloc.obj
 0001:0002dec0       ??0exception@std@@QAE@QBDH@Z 1002eec0 f i LIBCMTD:throw_bad_alloc.obj
 0001:0002def0       ??1bad_alloc@std@@UAE@XZ   1002eef0 f i LIBCMTD:throw_bad_alloc.obj
 0001:0002df10       ??1bad_array_new_length@std@@UAE@XZ 1002ef10 f i LIBCMTD:throw_bad_alloc.obj
 0001:0002df30       ??1exception@std@@UAE@XZ   1002ef30 f i LIBCMTD:throw_bad_alloc.obj
 0001:0002df60       ??_Gbad_alloc@std@@UAEPAXI@Z 1002ef60 f i LIBCMTD:throw_bad_alloc.obj
 0001:0002df60       ??_Ebad_alloc@std@@UAEPAXI@Z 1002ef60 f i LIBCMTD:throw_bad_alloc.obj
 0001:0002df90       ??_Gbad_array_new_length@std@@UAEPAXI@Z 1002ef90 f i LIBCMTD:throw_bad_alloc.obj
 0001:0002df90       ??_Ebad_array_new_length@std@@UAEPAXI@Z 1002ef90 f i LIBCMTD:throw_bad_alloc.obj
 0001:0002dfc0       ??_Eexception@std@@UAEPAXI@Z 1002efc0 f i LIBCMTD:throw_bad_alloc.obj
 0001:0002dfc0       ??_Gexception@std@@UAEPAXI@Z 1002efc0 f i LIBCMTD:throw_bad_alloc.obj
 0001:0002dff0       ?__scrt_throw_std_bad_alloc@@YAXXZ 1002eff0 f   LIBCMTD:throw_bad_alloc.obj
 0001:0002e010       ?__scrt_throw_std_bad_array_new_length@@YAXXZ 1002f010 f   LIBCMTD:throw_bad_alloc.obj
 0001:0002e030       ?what@exception@std@@UBEPBDXZ 1002f030 f i LIBCMTD:throw_bad_alloc.obj
 0001:0002e060       ??1type_info@@UAE@XZ       1002f060 f   LIBCMTD:std_type_info_static.obj
 0001:0002e080       ??_Etype_info@@UAEPAXI@Z   1002f080 f i LIBCMTD:std_type_info_static.obj
 0001:0002e080       ??_Gtype_info@@UAEPAXI@Z   1002f080 f i LIBCMTD:std_type_info_static.obj
 0001:0002e0ae       ??$?2PAUHINSTANCE__@@@Wrapper@?$CSimpleArray@PAUHINSTANCE__@@V?$CSimpleArrayEqualHelper@PAUHINSTANCE__@@@ATL@@@ATL@@SAPAXIPAPAUHINSTANCE__@@@Z 1002f0ae f i atls:atlbase.obj
 0001:0002e0b6       ??0?$CSimpleArray@PAUHINSTANCE__@@V?$CSimpleArrayEqualHelper@PAUHINSTANCE__@@@ATL@@@ATL@@QAE@XZ 1002f0b6 f i atls:atlbase.obj
 0001:0002e0c3       ??0CAtlBaseModule@ATL@@QAE@XZ 1002f0c3 f   atls:atlbase.obj
 0001:0002e116       ??0Wrapper@?$CSimpleArray@PAUHINSTANCE__@@V?$CSimpleArrayEqualHelper@PAUHINSTANCE__@@@ATL@@@ATL@@QAE@ABQAUHINSTANCE__@@@Z 1002f116 f i atls:atlbase.obj
 0001:0002e126       ??0_ATL_BASE_MODULE70@ATL@@QAE@XZ 1002f126 f i atls:atlbase.obj
 0001:0002e149       ??1?$CSimpleArray@PAUHINSTANCE__@@V?$CSimpleArrayEqualHelper@PAUHINSTANCE__@@@ATL@@@ATL@@QAE@XZ 1002f149 f i atls:atlbase.obj
 0001:0002e14e       ??1CAtlBaseModule@ATL@@QAE@XZ 1002f14e f   atls:atlbase.obj
 0001:0002e164       ??1_ATL_BASE_MODULE70@ATL@@QAE@XZ 1002f164 f i atls:atlbase.obj
 0001:0002e16c       ??A?$CSimpleArray@PAUHINSTANCE__@@V?$CSimpleArrayEqualHelper@PAUHINSTANCE__@@@ATL@@@ATL@@QAEAAPAUHINSTANCE__@@H@Z 1002f16c f i atls:atlbase.obj
 0001:0002e191       ?Add@?$CSimpleArray@PAUHINSTANCE__@@V?$CSimpleArrayEqualHelper@PAUHINSTANCE__@@@ATL@@@ATL@@QAEHABQAUHINSTANCE__@@@Z 1002f191 f i atls:atlbase.obj
 0001:0002e213       ?AddResourceInstance@CAtlBaseModule@ATL@@QAE_NPAUHINSTANCE__@@@Z 1002f213 f   atls:atlbase.obj
 0001:0002e246       ?GetHInstanceAt@CAtlBaseModule@ATL@@QAEPAUHINSTANCE__@@H@Z 1002f246 f   atls:atlbase.obj
 0001:0002e28b       ?GetSize@?$CSimpleArray@PAUHINSTANCE__@@V?$CSimpleArrayEqualHelper@PAUHINSTANCE__@@@ATL@@@ATL@@QBEHXZ 1002f28b f i atls:atlbase.obj
 0001:0002e28f       ?InternalSetAtIndex@?$CSimpleArray@PAUHINSTANCE__@@V?$CSimpleArrayEqualHelper@PAUHINSTANCE__@@@ATL@@@ATL@@QAEXHABQAUHINSTANCE__@@@Z 1002f28f f i atls:atlbase.obj
 0001:0002e2a9       ?RemoveAll@?$CSimpleArray@PAUHINSTANCE__@@V?$CSimpleArrayEqualHelper@PAUHINSTANCE__@@@ATL@@@ATL@@QAEXXZ 1002f2a9 f i atls:atlbase.obj
 0001:0002e2c6       ?RemoveAt@?$CSimpleArray@PAUHINSTANCE__@@V?$CSimpleArrayEqualHelper@PAUHINSTANCE__@@@ATL@@@ATL@@QAEHH@Z 1002f2c6 f i atls:atlbase.obj
 0001:0002e314       ?RemoveResourceInstance@CAtlBaseModule@ATL@@QAE_NPAUHINSTANCE__@@@Z 1002f314 f   atls:atlbase.obj
 0001:0002e371       ?memmove_s@Checked@ATL@@YAXPAXIPBXI@Z 1002f371 f i atls:atlbase.obj
 0001:0002e6ce       ?GetCodeAddress@_stdcallthunk@ATL@@QAEPAXXZ 1002f6ce f i atls:atlthunk.obj
 0001:0002e6f8       ?Init@_stdcallthunk@ATL@@QAEHKPAX@Z 1002f6f8 f i atls:atlthunk.obj
 0001:0002e72d       ?__AllocStdCallThunk@@YGPAXXZ 1002f72d f   atls:atlthunk.obj
 0001:0002e732       ?__AllocStdCallThunk@ATL@@YGPAXXZ 1002f732 f   atls:atlthunk.obj
 0001:0002e737       ?__AllocStdCallThunk_cmn@@YAPAXXZ 1002f737 f   atls:atlthunk.obj
 0001:0002e7fd       ?__FreeStdCallThunk@@YGXPAX@Z 1002f7fd f   atls:atlthunk.obj
 0001:0002e80d       ?__FreeStdCallThunk@ATL@@YGXPAX@Z 1002f80d f   atls:atlthunk.obj
 0001:0002e81d       ?__FreeStdCallThunk_cmn@@YAXPAX@Z 1002f81d f   atls:atlthunk.obj
 0001:0002e8b8       _AtlThunk_AllocateData@0   1002f8b8 f   atls:atlthunk.obj
 0001:0002e91d       _AtlThunk_DataToCode@4     1002f91d f   atls:atlthunk.obj
 0001:0002e964       _AtlThunk_FreeData@4       1002f964 f   atls:atlthunk.obj
 0001:0002e9ba       _AtlThunk_InitData@12      1002f9ba f   atls:atlthunk.obj
 0001:0002ea09       _MemoryBarrier             1002fa09 f i atls:atlthunk.obj
 0001:0002ea17       __InlineInterlockedCompareExchangePointer 1002fa17 f i atls:atlthunk.obj
 0001:0002ea30       _memset                    1002fa30 f   libvcruntimed:memset.obj
 0001:0002eb90       ??$__crt_interlocked_exchange_pointer@$$A6AXXZP6AXXZ@@YAP6AXXZPDS6AXXZQ6AXXZ@Z 1002fb90 f i libvcruntimed:purevirt.obj
 0001:0002eba0       ??$__crt_interlocked_read_pointer@$$A6AXXZ@@YAP6AXXZPDS6AXXZ@Z 1002fba0 f i libvcruntimed:purevirt.obj
 0001:0002ebc0       ?__crt_interlocked_read_32@@YAHPDH@Z 1002fbc0 f i libvcruntimed:purevirt.obj
 0001:0002ebe0       __get_purecall_handler     1002fbe0 f   libvcruntimed:purevirt.obj
 0001:0002ec00       __purecall                 1002fc00 f   libvcruntimed:purevirt.obj
 0001:0002ec30       __set_purecall_handler     1002fc30 f   libvcruntimed:purevirt.obj
 0001:0002ee00       _memcmp                    1002fe00 f   libvcruntimed:memcmp.obj
 0001:0002f6d0       _memcpy                    100306d0 f   libvcruntimed:memcpy.obj
 0001:0002fc50       _wcsstr                    10030c50 f   libvcruntimed:wcsstr.obj
 0001:00030180       __except_handler4          10031180 f   libvcruntimed:chandler4.obj
 0001:00030370       ___vcrt_initialize         10031370 f   libvcruntimed:initialization.obj
 0001:000303b0       ___vcrt_thread_attach      100313b0 f   libvcruntimed:initialization.obj
 0001:000303d0       ___vcrt_thread_detach      100313d0 f   libvcruntimed:initialization.obj
 0001:000303f0       ___vcrt_uninitialize       100313f0 f   libvcruntimed:initialization.obj
 0001:00030410       ___vcrt_uninitialize_critical 10031410 f   libvcruntimed:initialization.obj
 0001:00030430       ??$?0AAViterator@TryBlockMap@__FrameHandler3@@AAV012@$0A@@?$pair@Viterator@TryBlockMap@__FrameHandler3@@V123@@std@@QAE@AAViterator@TryBlockMap@__FrameHandler3@@0@Z 10031430 f i libvcruntimed:trnsctrl.obj
 0001:00030480       ??$forward@AAViterator@TryBlockMap@__FrameHandler3@@@std@@YAAAViterator@TryBlockMap@__FrameHandler3@@AAV123@@Z 10031480 f i libvcruntimed:trnsctrl.obj
 0001:00030490       ??0iterator@TryBlockMap@__FrameHandler3@@QAE@AAV12@I@Z 10031490 f i libvcruntimed:trnsctrl.obj
 0001:000304c0       ?GetRangeOfTrysToCheck@__FrameHandler3@@SA?AU?$pair@Viterator@TryBlockMap@__FrameHandler3@@V123@@std@@AAVTryBlockMap@1@HPAXPBU_s_FuncInfo@@H@Z 100314c0 f   libvcruntimed:trnsctrl.obj
 0001:000305a0       ?_CallCatchBlock2@@YAPAXPAUEHRegistrationNode@@PBU_s_FuncInfo@@PAXHK@Z 100315a0 f   libvcruntimed:trnsctrl.obj
 0001:00030610       ?_CallSETranslator@@YAHPAUEHExceptionRecord@@PAUEHRegistrationNode@@PAX2PBU_s_FuncInfo@@H1@Z 10031610 f   libvcruntimed:trnsctrl.obj
 0001:00030710       ?_JumpToContinuation@@YGXPAXPAUEHRegistrationNode@@@Z 10031710 f   libvcruntimed:trnsctrl.obj
 0001:00030750       ?_UnwindNestedFrames@@YGXPAUEHRegistrationNode@@PAUEHExceptionRecord@@@Z 10031750 f   libvcruntimed:trnsctrl.obj
 0001:000307b0       __CatchGuardHandler        100317b0 f   libvcruntimed:trnsctrl.obj
 0001:00030800       __CreateFrameInfo          10031800 f   libvcruntimed:trnsctrl.obj
 0001:00030830       __FindAndUnlinkFrame       10031830 f   libvcruntimed:trnsctrl.obj
 0001:000308b0       __TranslatorGuardHandler   100318b0 f   libvcruntimed:trnsctrl.obj
 0001:00030960       ___CxxFrameHandler         10031960 f   libvcruntimed:trnsctrl.obj
 0001:000309a0       ___CxxFrameHandler2        100319a0 f   libvcruntimed:trnsctrl.obj
 0001:000309e0       ___CxxFrameHandler3        100319e0 f   libvcruntimed:trnsctrl.obj
 0001:00030a20       ___CxxLongjmpUnwind@4      10031a20 f   libvcruntimed:trnsctrl.obj
 0001:00030a60       ?<lambda_invoker_cdecl>@_Closure_wrapper_b3626920_1@@CAPAXI@Z 10031a60 f i libvcruntimed:std_type_info.obj
 0001:00030a70       ?<lambda_invoker_cdecl>@_Closure_wrapper_b3626920_2@@CAXQAX@Z 10031a70 f i libvcruntimed:std_type_info.obj
 0001:00030a80       ??$?RD@__crt_internal_free_policy@@QBEXQBD@Z 10031a80 f i libvcruntimed:std_type_info.obj
 0001:00030aa0       ??$?RX@__crt_internal_free_policy@@QBEXQBX@Z 10031aa0 f i libvcruntimed:std_type_info.obj
 0001:00030ac0       ??$__crt_interlocked_compare_exchange_pointer@$$CBDPAD$$T@@YAPBDPDSBDQAD$$T@Z 10031ac0 f i libvcruntimed:std_type_info.obj
 0001:00030ae0       ??$__crt_interlocked_read_pointer@$$CBD@@YAPBDPDSBD@Z 10031ae0 f i libvcruntimed:std_type_info.obj
 0001:00030b00       ??0?$__crt_unique_heap_ptr@DU__crt_internal_free_policy@@@@QAE@QAD@Z 10031b00 f i libvcruntimed:std_type_info.obj
 0001:00030b20       ??0?$__crt_unique_heap_ptr@XU__crt_internal_free_policy@@@@QAE@QAX@Z 10031b20 f i libvcruntimed:std_type_info.obj
 0001:00030b40       ??1?$__crt_unique_heap_ptr@DU__crt_internal_free_policy@@@@QAE@XZ 10031b40 f i libvcruntimed:std_type_info.obj
 0001:00030b60       ??1?$__crt_unique_heap_ptr@XU__crt_internal_free_policy@@@@QAE@XZ 10031b60 f i libvcruntimed:std_type_info.obj
 0001:00030b80       ??B?$__crt_unique_heap_ptr@DU__crt_internal_free_policy@@@@QBE_NXZ 10031b80 f i libvcruntimed:std_type_info.obj
 0001:00030ba0       ??B?$__crt_unique_heap_ptr@XU__crt_internal_free_policy@@@@QBE_NXZ 10031ba0 f i libvcruntimed:std_type_info.obj
 0001:00030bc0       ??B_Closure_wrapper_b3626920_1@@QBEP6APAXI@ZXZ 10031bc0 f i libvcruntimed:std_type_info.obj
 0001:00030bd0       ??B_Closure_wrapper_b3626920_2@@QBEP6AXQAX@ZXZ 10031bd0 f i libvcruntimed:std_type_info.obj
 0001:00030c30       ?detach@?$__crt_unique_heap_ptr@XU__crt_internal_free_policy@@@@QAEPAXXZ 10031c30 f i libvcruntimed:std_type_info.obj
 0001:00030c60       ?get@?$__crt_unique_heap_ptr@DU__crt_internal_free_policy@@@@QBEPADXZ 10031c60 f i libvcruntimed:std_type_info.obj
 0001:00030c70       ?get@?$__crt_unique_heap_ptr@XU__crt_internal_free_policy@@@@QBEPAXXZ 10031c70 f i libvcruntimed:std_type_info.obj
 0001:00030c80       ?is_valid@?$__crt_unique_heap_ptr@DU__crt_internal_free_policy@@@@QBE_NXZ 10031c80 f i libvcruntimed:std_type_info.obj
 0001:00030cb0       ?is_valid@?$__crt_unique_heap_ptr@XU__crt_internal_free_policy@@@@QBE_NXZ 10031cb0 f i libvcruntimed:std_type_info.obj
 0001:00030ce0       ?release@?$__crt_unique_heap_ptr@DU__crt_internal_free_policy@@@@QAEXXZ 10031ce0 f i libvcruntimed:std_type_info.obj
 0001:00030d10       ?release@?$__crt_unique_heap_ptr@XU__crt_internal_free_policy@@@@QAEXXZ 10031d10 f i libvcruntimed:std_type_info.obj
 0001:00030d40       ___std_type_info_compare   10031d40 f   libvcruntimed:std_type_info.obj
 0001:00030d70       ___std_type_info_destroy_list 10031d70 f   libvcruntimed:std_type_info.obj
 0001:00030db0       ___std_type_info_hash      10031db0 f   libvcruntimed:std_type_info.obj
 0001:00030e10       ___std_type_info_name      10031e10 f   libvcruntimed:std_type_info.obj
 0001:00030ff0       ___vcrt_GetModuleFileNameW 10031ff0 f   libvcruntimed:winapi_thunks.obj
 0001:00031010       ___vcrt_GetModuleHandleW   10032010 f   libvcruntimed:winapi_thunks.obj
 0001:00031020       ___vcrt_LoadLibraryExW     10032020 f   libvcruntimed:winapi_thunks.obj
 0001:00031040       ??$?RD@__crt_public_free_policy@@QBEXQBD@Z 10032040 f i libvcruntimed:std_exception.obj
 0001:00031060       ??0?$__crt_unique_heap_ptr@DU__crt_public_free_policy@@@@QAE@QAD@Z 10032060 f i libvcruntimed:std_exception.obj
 0001:00031080       ??1?$__crt_unique_heap_ptr@DU__crt_public_free_policy@@@@QAE@XZ 10032080 f i libvcruntimed:std_exception.obj
 0001:000310a0       ??B?$__crt_unique_heap_ptr@DU__crt_public_free_policy@@@@QBE_NXZ 100320a0 f i libvcruntimed:std_exception.obj
 0001:000310c0       ?detach@?$__crt_unique_heap_ptr@DU__crt_public_free_policy@@@@QAEPADXZ 100320c0 f i libvcruntimed:std_exception.obj
 0001:000310f0       ?get@?$__crt_unique_heap_ptr@DU__crt_public_free_policy@@@@QBEPADXZ 100320f0 f i libvcruntimed:std_exception.obj
 0001:00031100       ?is_valid@?$__crt_unique_heap_ptr@DU__crt_public_free_policy@@@@QBE_NXZ 10032100 f i libvcruntimed:std_exception.obj
 0001:00031130       ?release@?$__crt_unique_heap_ptr@DU__crt_public_free_policy@@@@QAEXXZ 10032130 f i libvcruntimed:std_exception.obj
 0001:00031160       ___std_exception_copy      10032160 f   libvcruntimed:std_exception.obj
 0001:00031250       ___std_exception_destroy   10032250 f   libvcruntimed:std_exception.obj
 0001:00031280       __CxxThrowException@8      10032280 f   libvcruntimed:throw.obj
 0001:00031340       _memmove                   10032340 f   libvcruntimed:memmove.obj
 0001:000318c0       __local_unwind4            100328c0 f   libvcruntimed:exsup4.obj
 0001:00031998       __seh_longjmp_unwind4@4    10032998 f   libvcruntimed:exsup4.obj
 0001:000319c0       @_EH4_CallFilterFunc@8     100329c0 f   libvcruntimed:exsup4.obj
 0001:000319d8       @_EH4_TransferToHandler@8  100329d8 f   libvcruntimed:exsup4.obj
 0001:000319f4       @_EH4_GlobalUnwind2@8      100329f4 f   libvcruntimed:exsup4.obj
 0001:00031a10       @_EH4_LocalUnwind@16       10032a10 f   libvcruntimed:exsup4.obj
 0001:00031a40       ___except_validate_context_record 10032a40 f   libvcruntimed:jbcxrval.obj
 0001:00031a90       ___except_validate_jump_buffer 10032a90 f   libvcruntimed:jbcxrval.obj
 0001:00031ab0       ___except_validate_jump_buffer_common 10032ab0 f i libvcruntimed:jbcxrval.obj
 0001:00031b10       ??$?RU__vcrt_ptd@@@__crt_internal_free_policy@@QBEXQBU__vcrt_ptd@@@Z 10032b10 f i libvcruntimed:per_thread_data.obj
 0001:00031b30       ??0?$__crt_unique_heap_ptr@U__vcrt_ptd@@U__crt_internal_free_policy@@@@QAE@QAU__vcrt_ptd@@@Z 10032b30 f i libvcruntimed:per_thread_data.obj
 0001:00031b70       ??1?$__crt_unique_heap_ptr@U__vcrt_ptd@@U__crt_internal_free_policy@@@@QAE@XZ 10032b70 f i libvcruntimed:per_thread_data.obj
 0001:00031bb0       ??B?$__crt_unique_heap_ptr@U__vcrt_ptd@@U__crt_internal_free_policy@@@@QBE_NXZ 10032bb0 f i libvcruntimed:per_thread_data.obj
 0001:00031bd0       ?detach@?$__crt_unique_heap_ptr@U__vcrt_ptd@@U__crt_internal_free_policy@@@@QAEPAU__vcrt_ptd@@XZ 10032bd0 f i libvcruntimed:per_thread_data.obj
 0001:00031c00       ?get@?$__crt_unique_heap_ptr@U__vcrt_ptd@@U__crt_internal_free_policy@@@@QBEPAU__vcrt_ptd@@XZ 10032c00 f i libvcruntimed:per_thread_data.obj
 0001:00031c10       ?is_valid@?$__crt_unique_heap_ptr@U__vcrt_ptd@@U__crt_internal_free_policy@@@@QBE_NXZ 10032c10 f i libvcruntimed:per_thread_data.obj
 0001:00031c40       ?release@?$__crt_unique_heap_ptr@U__vcrt_ptd@@U__crt_internal_free_policy@@@@QAEXXZ 10032c40 f i libvcruntimed:per_thread_data.obj
 0001:00031ca0       ___vcrt_freefls@4          10032ca0 f   libvcruntimed:per_thread_data.obj
 0001:00031cd0       ___vcrt_freeptd            10032cd0 f   libvcruntimed:per_thread_data.obj
 0001:00031d30       ___vcrt_getptd             10032d30 f   libvcruntimed:per_thread_data.obj
 0001:00031d50       ___vcrt_getptd_noexit      10032d50 f   libvcruntimed:per_thread_data.obj
 0001:00031eb0       ___vcrt_getptd_noinit      10032eb0 f   libvcruntimed:per_thread_data.obj
 0001:00031f10       ___vcrt_initialize_ptd     10032f10 f   libvcruntimed:per_thread_data.obj
 0001:00031f60       ___vcrt_uninitialize_ptd   10032f60 f   libvcruntimed:per_thread_data.obj
 0001:00031f90       ___vcrt_initialize_locks   10032f90 f   libvcruntimed:locks.obj
 0001:00031ff0       ___vcrt_lock               10032ff0 f   libvcruntimed:locks.obj
 0001:00032010       ___vcrt_uninitialize_locks 10033010 f   libvcruntimed:locks.obj
 0001:00032060       ___vcrt_unlock             10033060 f   libvcruntimed:locks.obj
 0001:00032c90       ??$TypeMatchHelper@V__FrameHandler3@@@@YAHPBU_s_HandlerType@@PBU_s_CatchableType@@PBU_s_ThrowInfo@@@Z 10033c90 f i libvcruntimed:frame.obj
 0001:00032d70       ??$__InternalCxxFrameHandler@V__FrameHandler3@@@@YA?AW4_EXCEPTION_DISPOSITION@@PAUEHExceptionRecord@@PAUEHRegistrationNode@@PAU_CONTEXT@@PAXPBU_s_FuncInfo@@H1E@Z 10033d70 f i libvcruntimed:frame.obj
 0001:00032f50       ??0HandlerMap@__FrameHandler3@@QAE@PBU_s_TryBlockMapEntry@@II@Z 10033f50 f i libvcruntimed:frame.obj
 0001:00032f80       ??0TryBlockMap@__FrameHandler3@@QAE@PBU_s_FuncInfo@@I@Z 10033f80 f i libvcruntimed:frame.obj
 0001:00032fb0       ??0bad_exception@std@@QAE@ABV01@@Z 10033fb0 f i libvcruntimed:frame.obj
 0001:00032fe0       ??0bad_exception@std@@QAE@XZ 10033fe0 f i libvcruntimed:frame.obj
 0001:00033010       ??0iterator@HandlerMap@__FrameHandler3@@QAE@AAV12@I@Z 10034010 f i libvcruntimed:frame.obj
 0001:00033040       ??1bad_exception@std@@UAE@XZ 10034040 f i libvcruntimed:frame.obj
 0001:00033060       ??8iterator@HandlerMap@__FrameHandler3@@QBE_NABV012@@Z 10034060 f i libvcruntimed:frame.obj
 0001:00033090       ??8type_info@@QBE_NABV0@@Z 10034090 f i libvcruntimed:frame.obj
 0001:000330d0       ??9iterator@HandlerMap@__FrameHandler3@@QBE_NABV012@@Z 100340d0 f i libvcruntimed:frame.obj
 0001:00033110       ??Diterator@HandlerMap@__FrameHandler3@@QAE?BU_s_HandlerType@@XZ 10034110 f i libvcruntimed:frame.obj
 0001:00033150       ??Diterator@TryBlockMap@__FrameHandler3@@QAE?BU_s_TryBlockMapEntry@@XZ 10034150 f i libvcruntimed:frame.obj
 0001:000331a0       ??Eiterator@HandlerMap@__FrameHandler3@@QAEAAV012@XZ 100341a0 f i libvcruntimed:frame.obj
 0001:000331c0       ??Eiterator@TryBlockMap@__FrameHandler3@@QAEAAV012@XZ 100341c0 f i libvcruntimed:frame.obj
 0001:000331e0       ??Miterator@TryBlockMap@__FrameHandler3@@QBE_NABV012@@Z 100341e0 f i libvcruntimed:frame.obj
 0001:00033210       ??_Gbad_exception@std@@UAEPAXI@Z 10034210 f i libvcruntimed:frame.obj
 0001:00033210       ??_Ebad_exception@std@@UAEPAXI@Z 10034210 f i libvcruntimed:frame.obj
 0001:00033240       ?BuildCatchObject@__FrameHandler3@@SAXPAUEHExceptionRecord@@PAXPBU_s_HandlerType@@PBU_s_CatchableType@@@Z 10034240 f   libvcruntimed:frame.obj
 0001:00033260       ?BuildCatchObjectHelper@__FrameHandler3@@SAHPAUEHExceptionRecord@@PAXPBU_s_HandlerType@@PBU_s_CatchableType@@@Z 10034260 f   libvcruntimed:frame.obj
 0001:00033600       ?FrameUnwindToEmptyState@__FrameHandler3@@SAXPAUEHRegistrationNode@@PAXPBU_s_FuncInfo@@@Z 10034600 f   libvcruntimed:frame.obj
 0001:00033620       ?FrameUnwindToState@__FrameHandler3@@SAXPAUEHRegistrationNode@@PAXPBU_s_FuncInfo@@H@Z 10034620 f   libvcruntimed:frame.obj
 0001:000337a0       ?GetMaxState@__FrameHandler3@@SAHPAXPBU_s_FuncInfo@@@Z 100347a0 f i libvcruntimed:frame.obj
 0001:000338d0       ?TypeMatch@__FrameHandler3@@SAHPBU_s_HandlerType@@PBU_s_CatchableType@@PBU_s_ThrowInfo@@@Z 100348d0 f   libvcruntimed:frame.obj
 0001:000338f0       ?_CallMemberFunction1@@YGXQAX00@Z 100348f0 f i libvcruntimed:frame.obj
 0001:00033920       ?_CallMemberFunction2@@YGXQAX00H@Z 10034920 f i libvcruntimed:frame.obj
 0001:00033950       ?_ValidateExecute@@YA_NP6GHXZ@Z 10034950 f i libvcruntimed:frame.obj
 0001:00033970       ?_ValidateRead@@YA_NPBXI@Z 10034970 f i libvcruntimed:frame.obj
 0001:00033990       ?_ValidateWrite@@YA_NPAXI@Z 10034990 f i libvcruntimed:frame.obj
 0001:000339b0       ?begin@HandlerMap@__FrameHandler3@@QAE?AViterator@12@XZ 100349b0 f i libvcruntimed:frame.obj
 0001:000339d0       ?end@HandlerMap@__FrameHandler3@@QAE?AViterator@12@XZ 100349d0 f i libvcruntimed:frame.obj
 0001:00033a00       ?getESTypes@__FrameHandler3@@SAPBU_s_ESTypeList@@PBU_s_FuncInfo@@@Z 10034a00 f i libvcruntimed:frame.obj
 0001:00033a10       ?getLastEntry@HandlerMap@__FrameHandler3@@QAEPBU_s_HandlerType@@XZ 10034a10 f i libvcruntimed:frame.obj
 0001:00033a30       ?getMagicNum@__FrameHandler3@@SAIPBU_s_FuncInfo@@@Z 10034a30 f i libvcruntimed:frame.obj
 0001:00033a40       ?getNumTryBlocks@TryBlockMap@__FrameHandler3@@QAEIXZ 10034a40 f i libvcruntimed:frame.obj
 0001:00033a60       ?isEHs@__FrameHandler3@@SA_NPBU_s_FuncInfo@@@Z 10034a60 f i libvcruntimed:frame.obj
 0001:00033a90       ?isNoExcept@__FrameHandler3@@SA_NPBU_s_FuncInfo@@@Z 10034a90 f i libvcruntimed:frame.obj
 0001:00033ac0       ___BuildCatchObject        10034ac0 f   libvcruntimed:frame.obj
 0001:00033ae0       ___BuildCatchObjectHelper  10034ae0 f   libvcruntimed:frame.obj
 0001:00033b00       ___TypeMatch               10034b00 f   libvcruntimed:frame.obj
 0001:00033b20       ___vcrt_EncodePointer      10034b20 f i libvcruntimed:frame.obj
 0001:00033b30       __CallSettingFrame@12      10034b30 f   libvcruntimed:lowhelpr.obj
 0001:00033b57       __NLG_Return               10034b57     libvcruntimed:lowhelpr.obj
 0001:00033b80       ??0Block@_HeapManager@@QAE@XZ 10034b80 f i libvcruntimed:undname.obj
 0001:00033ba0       ??0DName@@QAE@AAPBDD@Z     10034ba0 f   libvcruntimed:undname.obj
 0001:00033dd0       ??0DName@@QAE@ABV0@@Z      10034dd0 f i libvcruntimed:undname.obj
 0001:00033e00       ??0DName@@QAE@D@Z          10034e00 f   libvcruntimed:undname.obj
 0001:00033e40       ??0DName@@QAE@PAV0@@Z      10034e40 f   libvcruntimed:undname.obj
 0001:00033ef0       ??0DName@@QAE@PBD@Z        10034ef0 f   libvcruntimed:undname.obj
 0001:00033f40       ??0DName@@QAE@W4DNameStatus@@@Z 10034f40 f   libvcruntimed:undname.obj
 0001:00033fe0       ??0DName@@QAE@XZ           10034fe0 f i libvcruntimed:undname.obj
 0001:00034010       ??0DName@@QAE@_J@Z         10035010 f   libvcruntimed:undname.obj
 0001:00034100       ??0DName@@QAE@_K@Z         10035100 f   libvcruntimed:undname.obj
 0001:000341b0       ??0DNameNode@@IAE@XZ       100351b0 f i libvcruntimed:undname.obj
 0001:000341d0       ??0Replicator@@QAE@XZ      100351d0 f i libvcruntimed:undname.obj
 0001:00034210       ??0UnDecorator@@QAE@PBDP6APADJ@ZK@Z 10035210 f i libvcruntimed:undname.obj
 0001:00034290       ??0charNode@@QAE@D@Z       10035290 f i libvcruntimed:undname.obj
 0001:000342c0       ??0pDNameNode@@QAE@PAVDName@@@Z 100352c0 f   libvcruntimed:undname.obj
 0001:00034320       ??0pairNode@@QAE@PBVDNameNode@@0@Z 10035320 f i libvcruntimed:undname.obj
 0001:00034360       ??0pcharNode@@QAE@PBDH@Z   10035360 f   libvcruntimed:undname.obj
 0001:00034420       ??2@YAPAXIAAV_HeapManager@@H@Z 10035420 f i libvcruntimed:undname.obj
 0001:00034440       ??4DName@@QAEAAV0@ABV0@@Z  10035440 f   libvcruntimed:undname.obj
 0001:00034470       ??4DName@@QAEAAV0@D@Z      10035470 f i libvcruntimed:undname.obj
 0001:000344b0       ??4DName@@QAEAAV0@PAV0@@Z  100354b0 f   libvcruntimed:undname.obj
 0001:00034550       ??4DName@@QAEAAV0@PBD@Z    10035550 f   libvcruntimed:undname.obj
 0001:00034590       ??4DName@@QAEAAV0@W4DNameStatus@@@Z 10035590 f   libvcruntimed:undname.obj
 0001:00034610       ??AReplicator@@QBE?AVDName@@H@Z 10035610 f   libvcruntimed:undname.obj
 0001:00034680       ??H@YA?AVDName@@DABV0@@Z   10035680 f i libvcruntimed:undname.obj
 0001:000346b0       ??H@YA?AVDName@@PBDABV0@@Z 100356b0 f i libvcruntimed:undname.obj
 0001:000346e0       ??H@YA?AVDName@@W4DNameStatus@@ABV0@@Z 100356e0 f i libvcruntimed:undname.obj
 0001:00034710       ??HDName@@QBE?AV0@ABV0@@Z  10035710 f   libvcruntimed:undname.obj
 0001:00034750       ??HDName@@QBE?AV0@D@Z      10035750 f   libvcruntimed:undname.obj
 0001:00034790       ??HDName@@QBE?AV0@PAV0@@Z  10035790 f   libvcruntimed:undname.obj
 0001:000347d0       ??HDName@@QBE?AV0@PBD@Z    100357d0 f   libvcruntimed:undname.obj
 0001:00034810       ??HDName@@QBE?AV0@W4DNameStatus@@@Z 10035810 f   libvcruntimed:undname.obj
 0001:00034850       ??YDName@@QAEAAV0@ABV0@@Z  10035850 f   libvcruntimed:undname.obj
 0001:000348c0       ??YDName@@QAEAAV0@D@Z      100358c0 f   libvcruntimed:undname.obj
 0001:00034940       ??YDName@@QAEAAV0@PAV0@@Z  10035940 f   libvcruntimed:undname.obj
 0001:000349f0       ??YDName@@QAEAAV0@PBD@Z    100359f0 f   libvcruntimed:undname.obj
 0001:00034a90       ??YDName@@QAEAAV0@W4DNameStatus@@@Z 10035a90 f   libvcruntimed:undname.obj
 0001:00034af0       ??YReplicator@@QAEAAV0@ABVDName@@@Z 10035af0 f   libvcruntimed:undname.obj
 0001:00034b80       ??_5DName@@QAEAAV0@ABV0@@Z 10035b80 f   libvcruntimed:undname.obj
 0001:00034be0       ?Constructor@_HeapManager@@QAEXP6APAXI@ZP6AXPAX@Z@Z 10035be0 f i libvcruntimed:undname.obj
 0001:00034c20       ?Destructor@_HeapManager@@QAEXXZ 10035c20 f i libvcruntimed:undname.obj
 0001:00034c80       ?UScore@UnDecorator@@SAPBDW4Tokens@@@Z 10035c80 f   libvcruntimed:undname.obj
 0001:00034cb0       ?append@DName@@AAEXPBVDNameNode@@@Z 10035cb0 f   libvcruntimed:undname.obj
 0001:00034d40       ?composeDeclaration@UnDecorator@@CA?AVDName@@ABV2@@Z 10035d40 f i libvcruntimed:undname.obj
 0001:00036ac0       ?dbGetString@DName@@QBEPADXZ 10037ac0 f   libvcruntimed:undname.obj
 0001:00036ae0       ?doAccessSpecifiers@UnDecorator@@SAHXZ 10037ae0 f i libvcruntimed:undname.obj
 0001:00036b10       ?doAllocationLanguage@UnDecorator@@SAHXZ 10037b10 f i libvcruntimed:undname.obj
 0001:00036b40       ?doAllocationModel@UnDecorator@@SAHXZ 10037b40 f i libvcruntimed:undname.obj
 0001:00036b70       ?doEcsu@UnDecorator@@SAHXZ 10037b70 f i libvcruntimed:undname.obj
 0001:00036ba0       ?doEllipsis@UnDecorator@@SAHXZ 10037ba0 f i libvcruntimed:undname.obj
 0001:00036bd0       ?doFunctionReturns@UnDecorator@@SAHXZ 10037bd0 f i libvcruntimed:undname.obj
 0001:00036c00       ?doMSKeywords@UnDecorator@@SAHXZ 10037c00 f i libvcruntimed:undname.obj
 0001:00036c30       ?doMemberTypes@UnDecorator@@SAHXZ 10037c30 f i libvcruntimed:undname.obj
 0001:00036c60       ?doNameOnly@UnDecorator@@SAHXZ 10037c60 f i libvcruntimed:undname.obj
 0001:00036c70       ?doNoIdentCharCheck@UnDecorator@@SAHXZ 10037c70 f i libvcruntimed:undname.obj
 0001:00036c80       ?doPchar@DName@@AAEXPBDH@Z 10037c80 f   libvcruntimed:undname.obj
 0001:00036dc0       ?doPtr64@UnDecorator@@SAHXZ 10037dc0 f i libvcruntimed:undname.obj
 0001:00036df0       ?doRestrictionSpec@UnDecorator@@SAHXZ 10037df0 f i libvcruntimed:undname.obj
 0001:00036e20       ?doThisTypes@UnDecorator@@SAHXZ 10037e20 f i libvcruntimed:undname.obj
 0001:00036e50       ?doThrowTypes@UnDecorator@@SAHXZ 10037e50 f i libvcruntimed:undname.obj
 0001:00036e80       ?doTypeOnly@UnDecorator@@SAHXZ 10037e80 f i libvcruntimed:undname.obj
 0001:00036e90       ?doUnderScore@UnDecorator@@SAHXZ 10037e90 f i libvcruntimed:undname.obj
 0001:00036ec0       ?getArgumentList@UnDecorator@@CA?AVDName@@XZ 10037ec0 f   libvcruntimed:undname.obj
 0001:00037010       ?getArgumentTypes@UnDecorator@@CA?AVDName@@XZ 10038010 f   libvcruntimed:undname.obj
 0001:00037160       ?getArrayType@UnDecorator@@CA?AVDName@@ABV2@@Z 10038160 f i libvcruntimed:undname.obj
 0001:000373d0       ?getBasedType@UnDecorator@@CA?AVDName@@XZ 100383d0 f   libvcruntimed:undname.obj
 0001:00037490       ?getBasicDataType@UnDecorator@@CA?AVDName@@ABV2@@Z 10038490 f   libvcruntimed:undname.obj
 0001:00037a90       ?getCHPEName@UnDecorator@@QAEPADPADH@Z 10038a90 f i libvcruntimed:undname.obj
 0001:00037bf0       ?getCallIndex@UnDecorator@@CA?AVDName@@XZ 10038bf0 f i libvcruntimed:undname.obj
 0001:00037c10       ?getCallingConvention@UnDecorator@@CA?AVDName@@XZ 10038c10 f   libvcruntimed:undname.obj
 0001:00037df0       ?getDataIndirectType@UnDecorator@@CA?AVDName@@ABV2@PBD0H@Z 10038df0 f   libvcruntimed:undname.obj
 0001:00038610       ?getDataIndirectType@UnDecorator@@CA?AVDName@@XZ 10039610 f i libvcruntimed:undname.obj
 0001:00038660       ?getDataType@UnDecorator@@CA?AVDName@@PAV2@@Z 10039660 f   libvcruntimed:undname.obj
 0001:00038780       ?getDecoratedName@UnDecorator@@CA?AVDName@@XZ 10039780 f   libvcruntimed:undname.obj
 0001:00038b80       ?getDimension@UnDecorator@@CA?AVDName@@_N@Z 10039b80 f   libvcruntimed:undname.obj
 0001:00038e30       ?getDispatchTarget@UnDecorator@@CA?AVDName@@XZ 10039e30 f   libvcruntimed:undname.obj
 0001:00038ed0       ?getDisplacement@UnDecorator@@CA?AVDName@@XZ 10039ed0 f i libvcruntimed:undname.obj
 0001:00038ef0       ?getECSUDataType@UnDecorator@@CA?AVDName@@XZ 10039ef0 f   libvcruntimed:undname.obj
 0001:000390c0       ?getECSUName@UnDecorator@@CA?AVDName@@XZ 1003a0c0 f i libvcruntimed:undname.obj
 0001:000390e0       ?getEnumType@UnDecorator@@CA?AVDName@@XZ 1003a0e0 f i libvcruntimed:undname.obj
 0001:00039230       ?getExtendedDataIndirectType@UnDecorator@@CA?AVDName@@AAPBDAA_NH@Z 1003a230 f   libvcruntimed:undname.obj
 0001:00039480       ?getExternalDataType@UnDecorator@@CA?AVDName@@ABV2@@Z 1003a480 f i libvcruntimed:undname.obj
 0001:00039520       ?getFunctionIndirectType@UnDecorator@@CA?AVDName@@ABV2@@Z 1003a520 f   libvcruntimed:undname.obj
 0001:000399f0       ?getGuardNumber@UnDecorator@@CA?AVDName@@XZ 1003a9f0 f i libvcruntimed:undname.obj
 0001:00039a10       ?getLastChar@DName@@QBEDXZ 1003aa10 f i libvcruntimed:undname.obj
 0001:00039a50       ?getLastChar@DNameStatusNode@@UBEDXZ 1003aa50 f i libvcruntimed:undname.obj
 0001:00039a80       ?getLastChar@charNode@@UBEDXZ 1003aa80 f i libvcruntimed:undname.obj
 0001:00039aa0       ?getLastChar@pDNameNode@@UBEDXZ 1003aaa0 f i libvcruntimed:undname.obj
 0001:00039ad0       ?getLastChar@pairNode@@UBEDXZ 1003aad0 f i libvcruntimed:undname.obj
 0001:00039b40       ?getLastChar@pcharNode@@UBEDXZ 1003ab40 f i libvcruntimed:undname.obj
 0001:00039b80       ?getLexicalFrame@UnDecorator@@CA?AVDName@@XZ 1003ab80 f i libvcruntimed:undname.obj
 0001:00039bc0       ?getMemory@_HeapManager@@QAEPAXIH@Z 1003abc0 f   libvcruntimed:undname.obj
 0001:00039ce0       ?getNoexcept@UnDecorator@@CA?AVDName@@XZ 1003ace0 f   libvcruntimed:undname.obj
 0001:00039d50       ?getNumberOfDimensions@UnDecorator@@CAHXZ 1003ad50 f   libvcruntimed:undname.obj
 0001:00039e50       ?getOperatorName@UnDecorator@@CA?AVDName@@_NPA_N@Z 1003ae50 f i libvcruntimed:undname.obj
 0001:0003a8c0       ?getPointerType@UnDecorator@@CA?AVDName@@ABV2@0@Z 1003b8c0 f i libvcruntimed:undname.obj
 0001:0003a8f0       ?getPointerTypeArray@UnDecorator@@CA?AVDName@@ABV2@0@Z 1003b8f0 f i libvcruntimed:undname.obj
 0001:0003a920       ?getPrimaryDataType@UnDecorator@@CA?AVDName@@ABV2@@Z 1003b920 f   libvcruntimed:undname.obj
 0001:0003ad20       ?getPtrRefDataType@UnDecorator@@CA?AVDName@@ABV2@H@Z 1003bd20 f   libvcruntimed:undname.obj
 0001:0003af50       ?getPtrRefType@UnDecorator@@CA?AVDName@@ABV2@0PBD@Z 1003bf50 f   libvcruntimed:undname.obj
 0001:0003b0c0       ?getReferenceType@UnDecorator@@CA?AVDName@@ABV2@0PBD@Z 1003c0c0 f i libvcruntimed:undname.obj
 0001:0003b0e0       ?getRestrictionSpec@UnDecorator@@CA?AVDName@@XZ 1003c0e0 f   libvcruntimed:undname.obj
 0001:0003b250       ?getReturnType@UnDecorator@@CA?AVDName@@PAV2@@Z 1003c250 f   libvcruntimed:undname.obj
 0001:0003b2a0       ?getScope@UnDecorator@@CA?AVDName@@XZ 1003c2a0 f   libvcruntimed:undname.obj
 0001:0003b7d0       ?getScopedName@UnDecorator@@CA?AVDName@@XZ 1003c7d0 f   libvcruntimed:undname.obj
 0001:0003b900       ?getSignedDimension@UnDecorator@@CA?AVDName@@XZ 1003c900 f   libvcruntimed:undname.obj
 0001:0003b980       ?getStorageConvention@UnDecorator@@CA?AVDName@@XZ 1003c980 f i libvcruntimed:undname.obj
 0001:0003b9a0       ?getString@DName@@QBEPADPAD0@Z 1003c9a0 f i libvcruntimed:undname.obj
 0001:0003ba00       ?getString@DName@@QBEPADPADH@Z 1003ca00 f i libvcruntimed:undname.obj
 0001:0003ba90       ?getString@DNameStatusNode@@UBEPADPAD0@Z 1003ca90 f i libvcruntimed:undname.obj
 0001:0003bad0       ?getString@charNode@@UBEPADPAD0@Z 1003cad0 f i libvcruntimed:undname.obj
 0001:0003bb00       ?getString@pDNameNode@@UBEPADPAD0@Z 1003cb00 f i libvcruntimed:undname.obj
 0001:0003bb40       ?getString@pairNode@@UBEPADPAD0@Z 1003cb40 f i libvcruntimed:undname.obj
 0001:0003bbd0       ?getString@pcharNode@@UBEPADPAD0@Z 1003cbd0 f i libvcruntimed:undname.obj
 0001:0003bc00       ?getStringEncoding@UnDecorator@@CA?AVDName@@PBDH@Z 1003cc00 f   libvcruntimed:undname.obj
 0001:0003bd10       ?getStringHelper@@YAPADPADPBD1H@Z 1003cd10 f i libvcruntimed:undname.obj
 0001:0003bd50       ?getSymbolName@UnDecorator@@CA?AVDName@@XZ 1003cd50 f i libvcruntimed:undname.obj
 0001:0003bde0       ?getTemplateArgumentList@UnDecorator@@CA?AVDName@@XZ 1003cde0 f   libvcruntimed:undname.obj
 0001:0003c0a0       ?getTemplateName@UnDecorator@@CA?AVDName@@_N@Z 1003d0a0 f   libvcruntimed:undname.obj
 0001:0003c270       ?getTemplateNonTypeArgument@UnDecorator@@CA?AVDName@@XZ 1003d270 f   libvcruntimed:undname.obj
 0001:0003c8a0       ?getTemplateTypeArgument@UnDecorator@@CA?AVDName@@XZ 1003d8a0 f   libvcruntimed:undname.obj
 0001:0003ca00       ?getThisType@UnDecorator@@CA?AVDName@@XZ 1003da00 f i libvcruntimed:undname.obj
 0001:0003ca50       ?getThrowTypes@UnDecorator@@CA?AVDName@@XZ 1003da50 f   libvcruntimed:undname.obj
 0001:0003ca90       ?getTypeEncoding@UnDecorator@@CAHXZ 1003da90 f i libvcruntimed:undname.obj
 0001:0003d520       ?getUndecoratedName@UnDecorator@@QAEPADPADH@Z 1003e520 f i libvcruntimed:undname.obj
 0001:0003d670       ?getVCallThunkType@UnDecorator@@CA?AVDName@@XZ 1003e670 f i libvcruntimed:undname.obj
 0001:0003d6d0       ?getVbTableType@UnDecorator@@CA?AVDName@@ABV2@@Z 1003e6d0 f i libvcruntimed:undname.obj
 0001:0003d6f0       ?getVdispMapType@UnDecorator@@CA?AVDName@@ABV2@@Z 1003e6f0 f i libvcruntimed:undname.obj
 0001:0003d760       ?getVfTableType@UnDecorator@@CA?AVDName@@ABV2@@Z 1003e760 f i libvcruntimed:undname.obj
 0001:0003d930       ?getZName@UnDecorator@@CA?AVDName@@_N0@Z 1003e930 f   libvcruntimed:undname.obj
 0001:0003dc10       ?haveTemplateParameters@UnDecorator@@SAHXZ 1003ec10 f i libvcruntimed:undname.obj
 0001:0003dc20       ?isArray@DName@@QBEHXZ     1003ec20 f i libvcruntimed:undname.obj
 0001:0003dc40       ?isComArray@DName@@QBEHXZ  1003ec40 f i libvcruntimed:undname.obj
 0001:0003dc60       ?isEmpty@DName@@QBEHXZ     1003ec60 f i libvcruntimed:undname.obj
 0001:0003dc90       ?isFull@Replicator@@QBEHXZ 1003ec90 f i libvcruntimed:undname.obj
 0001:0003dcc0       ?isNoTE@DName@@QBEHXZ      1003ecc0 f i libvcruntimed:undname.obj
 0001:0003dce0       ?isPinPtr@DName@@QBEHXZ    1003ece0 f i libvcruntimed:undname.obj
 0001:0003dd00       ?isPtrRef@DName@@QBEHXZ    1003ed00 f i libvcruntimed:undname.obj
 0001:0003dd20       ?isUDC@DName@@QBEHXZ       1003ed20 f i libvcruntimed:undname.obj
 0001:0003dd60       ?isUDTThunk@DName@@QBEHXZ  1003ed60 f i libvcruntimed:undname.obj
 0001:0003dda0       ?isVCallThunk@DName@@QBEHXZ 1003eda0 f i libvcruntimed:undname.obj
 0001:0003ddc0       ?isValid@DName@@QBEHXZ     1003edc0 f i libvcruntimed:undname.obj
 0001:0003de00       ?length@DName@@QBEHXZ      1003ee00 f i libvcruntimed:undname.obj
 0001:0003de40       ?length@DNameStatusNode@@UBEHXZ 1003ee40 f i libvcruntimed:undname.obj
 0001:0003de60       ?length@charNode@@UBEHXZ   1003ee60 f i libvcruntimed:undname.obj
 0001:0003de70       ?length@pDNameNode@@UBEHXZ 1003ee70 f i libvcruntimed:undname.obj
 0001:0003dea0       ?length@pairNode@@UBEHXZ   1003eea0 f i libvcruntimed:undname.obj
 0001:0003df10       ?length@pcharNode@@UBEHXZ  1003ef10 f i libvcruntimed:undname.obj
 0001:0003df30       ?make@DNameStatusNode@@SAPBV1@W4DNameStatus@@@Z 1003ef30 f i libvcruntimed:undname.obj
 0001:0003df60       ?parseDecoratedName@UnDecorator@@CA?AVDName@@XZ 1003ef60 f   libvcruntimed:undname.obj
 0001:0003e0e0       ?setIsArray@DName@@QAEXXZ  1003f0e0 f i libvcruntimed:undname.obj
 0001:0003e100       ?setIsComArray@DName@@QAEXXZ 1003f100 f i libvcruntimed:undname.obj
 0001:0003e120       ?setIsNoTE@DName@@QAEXXZ   1003f120 f i libvcruntimed:undname.obj
 0001:0003e140       ?setIsPinPtr@DName@@QAEXXZ 1003f140 f i libvcruntimed:undname.obj
 0001:0003e160       ?setIsUDC@DName@@QAEXXZ    1003f160 f i libvcruntimed:undname.obj
 0001:0003e190       ?setIsVCallThunk@DName@@QAEXXZ 1003f190 f i libvcruntimed:undname.obj
 0001:0003e1b0       ?setPtrRef@DName@@QAEAAV1@XZ 1003f1b0 f i libvcruntimed:undname.obj
 0001:0003e1d0       ?status@DName@@QBE?AW4DNameStatus@@XZ 1003f1d0 f i libvcruntimed:undname.obj
 0001:0003e2d0       ___unDName                 1003f2d0 f   libvcruntimed:undname.obj
 0001:0003e300       ___unDNameEx               1003f300 f   libvcruntimed:undname.obj
 0001:0003e3d0       _unDNameGenerateCHPE       1003f3d0 f   libvcruntimed:undname.obj
 0001:0003e430       __global_unwind2           1003f430 f   libvcruntimed:exsup.obj
 0001:0003e496       __local_unwind2            1003f496 f   libvcruntimed:exsup.obj
 0001:0003e51a       __abnormal_termination     1003f51a f   libvcruntimed:exsup.obj
 0001:0003e540       __NLG_Notify1              1003f540 f   libvcruntimed:exsup.obj
 0001:0003e54c       __NLG_Notify               1003f54c f   libvcruntimed:exsup.obj
 0001:0003e563       __NLG_Dispatch             1003f563     libvcruntimed:exsup.obj
 0001:0003e563       __NLG_Dispatch2            1003f563     libvcruntimed:exsup.obj
 0001:0003e56b       __NLG_Call                 1003f56b f   libvcruntimed:exsup.obj
 0001:0003e56d       __NLG_Return2              1003f56d     libvcruntimed:exsup.obj
 0001:0003e570       ??$__crt_interlocked_exchange_pointer@UHINSTANCE__@@PAU1@@@YAPAUHINSTANCE__@@PDSAU0@QAU0@@Z 1003f570 f i libvcruntimed:winapi_downlevel.obj
 0001:0003e580       ??$__crt_interlocked_exchange_pointer@UHINSTANCE__@@PAX@@YAPAUHINSTANCE__@@PDSAU0@QAX@Z 1003f580 f i libvcruntimed:winapi_downlevel.obj
 0001:0003e590       ??$__crt_interlocked_exchange_pointer@XPAX@@YAPAXPDSAXQAX@Z 1003f590 f i libvcruntimed:winapi_downlevel.obj
 0001:0003e5a0       ??$__crt_interlocked_read_pointer@UHINSTANCE__@@@@YAPAUHINSTANCE__@@PDSAU0@@Z 1003f5a0 f i libvcruntimed:winapi_downlevel.obj
 0001:0003e5c0       ??$__crt_interlocked_read_pointer@X@@YAPAXPDSAX@Z 1003f5c0 f i libvcruntimed:winapi_downlevel.obj
 0001:0003e990       ___vcrt_FlsAlloc           1003f990 f   libvcruntimed:winapi_downlevel.obj
 0001:0003e9d0       ___vcrt_FlsFree            1003f9d0 f   libvcruntimed:winapi_downlevel.obj
 0001:0003ea10       ___vcrt_FlsGetValue        1003fa10 f   libvcruntimed:winapi_downlevel.obj
 0001:0003ea50       ___vcrt_FlsSetValue        1003fa50 f   libvcruntimed:winapi_downlevel.obj
 0001:0003eaa0       ___vcrt_InitializeCriticalSectionEx 1003faa0 f   libvcruntimed:winapi_downlevel.obj
 0001:0003eb20       __get_unexpected           1003fb20 f   libvcruntimed:unexpected.obj
 0001:0003eb40       _set_unexpected            1003fb40 f   libvcruntimed:unexpected.obj
 0001:0003eb70       _unexpected                1003fb70 f   libvcruntimed:unexpected.obj
 0001:0003ebb0       ?GetCurrentState@__FrameHandler3@@SAHPAUEHRegistrationNode@@PAXPBU_s_FuncInfo@@@Z 1003fbb0 f   libvcruntimed:ehstate.obj
 0001:0003ebe0       ?SetState@__FrameHandler3@@SAXPAUEHRegistrationNode@@PBU_s_FuncInfo@@H@Z 1003fbe0 f   libvcruntimed:ehstate.obj
 0001:0003ebf0       ___DestructExceptionObject 1003fbf0 f   libvcruntimed:ehhelpers.obj
 0001:0003ed20       ?_CallMemberFunction0@@YGXQAX0@Z 1003fd20 f i libvcruntimed:ehhelpers.obj
 0001:0003ed40       ?raw_name@type_info@@QBEPBDXZ 1003fd40 f i libvcruntimed:ehhelpers.obj
 0001:0003ed60       __IsExceptionObjectToBeDestroyed 1003fd60 f   libvcruntimed:ehhelpers.obj
 0001:0003eda0       __SetWinRTOutOfMemoryExceptionCallback 1003fda0 f   libvcruntimed:ehhelpers.obj
 0001:0003edb0       ___AdjustPointer           1003fdb0 f   libvcruntimed:ehhelpers.obj
 0001:0003ee00       ___FrameUnwindFilter       1003fe00 f   libvcruntimed:ehhelpers.obj
 0001:0003ee80       ___GetPlatformExceptionInfo 1003fe80 f   libvcruntimed:ehhelpers.obj
 0001:0003ef00       ___current_exception       1003ff00 f   libvcruntimed:ehhelpers.obj
 0001:0003ef10       ___current_exception_context 1003ff10 f   libvcruntimed:ehhelpers.obj
 0001:0003ef20       ___processing_throw        1003ff20 f   libvcruntimed:ehhelpers.obj
 0001:0003ef30       ___std_terminate           1003ff30 f   libvcruntimed:ehhelpers.obj
 0001:0003ef40       __is_exception_typeof      1003ff40 f   libvcruntimed:ehhelpers.obj
 0001:0003f020       ??$?0ABV?$stream_output_adapter@D@__crt_stdio_output@@AB_KABQBDABQAU__crt_locale_pointers@@ABQAD@?$format_validation_base@DV?$stream_output_adapter@D@__crt_stdio_output@@@__crt_stdio_output@@IAE@ABV?$stream_output_adapter@D@1@AB_KABQBDABQAU__crt_locale_pointers@@ABQAD@Z 10040020 f i libucrtd:output.obj
 0001:0003f050       ??$?0ABV?$stream_output_adapter@D@__crt_stdio_output@@AB_KABQBDABQAU__crt_locale_pointers@@ABQAD@?$positional_parameter_base@DV?$stream_output_adapter@D@__crt_stdio_output@@@__crt_stdio_output@@IAE@ABV?$stream_output_adapter@D@1@AB_KABQBDABQAU__crt_locale_pointers@@ABQAD@Z 10040050 f i libucrtd:output.obj
 0001:0003f0d0       ??$?0ABV?$stream_output_adapter@D@__crt_stdio_output@@AB_KABQBDABQAU__crt_locale_pointers@@ABQAD@?$standard_base@DV?$stream_output_adapter@D@__crt_stdio_output@@@__crt_stdio_output@@IAE@ABV?$stream_output_adapter@D@1@AB_KABQBDABQAU__crt_locale_pointers@@ABQAD@Z 100400d0 f i libucrtd:output.obj
 0001:0003f120       ??$?0ABV?$stream_output_adapter@_W@__crt_stdio_output@@AB_KABQB_WABQAU__crt_locale_pointers@@ABQAD@?$format_validation_base@_WV?$stream_output_adapter@_W@__crt_stdio_output@@@__crt_stdio_output@@IAE@ABV?$stream_output_adapter@_W@1@AB_KABQB_WABQAU__crt_locale_pointers@@ABQAD@Z 10040120 f i libucrtd:output.obj
 0001:0003f150       ??$?0ABV?$stream_output_adapter@_W@__crt_stdio_output@@AB_KABQB_WABQAU__crt_locale_pointers@@ABQAD@?$positional_parameter_base@_WV?$stream_output_adapter@_W@__crt_stdio_output@@@__crt_stdio_output@@IAE@ABV?$stream_output_adapter@_W@1@AB_KABQB_WABQAU__crt_locale_pointers@@ABQAD@Z 10040150 f i libucrtd:output.obj
 0001:0003f1d0       ??$?0ABV?$stream_output_adapter@_W@__crt_stdio_output@@AB_KABQB_WABQAU__crt_locale_pointers@@ABQAD@?$standard_base@_WV?$stream_output_adapter@_W@__crt_stdio_output@@@__crt_stdio_output@@IAE@ABV?$stream_output_adapter@_W@1@AB_KABQB_WABQAU__crt_locale_pointers@@ABQAD@Z 100401d0 f i libucrtd:output.obj
 0001:0003f220       ??$?0ABV?$string_output_adapter@D@__crt_stdio_output@@AB_KABQBDABQAU__crt_locale_pointers@@ABQAD@?$format_validation_base@DV?$string_output_adapter@D@__crt_stdio_output@@@__crt_stdio_output@@IAE@ABV?$string_output_adapter@D@1@AB_KABQBDABQAU__crt_locale_pointers@@ABQAD@Z 10040220 f i libucrtd:output.obj
 0001:0003f250       ??$?0ABV?$string_output_adapter@D@__crt_stdio_output@@AB_KABQBDABQAU__crt_locale_pointers@@ABQAD@?$positional_parameter_base@DV?$string_output_adapter@D@__crt_stdio_output@@@__crt_stdio_output@@IAE@ABV?$string_output_adapter@D@1@AB_KABQBDABQAU__crt_locale_pointers@@ABQAD@Z 10040250 f i libucrtd:output.obj
 0001:0003f2d0       ??$?0ABV?$string_output_adapter@D@__crt_stdio_output@@AB_KABQBDABQAU__crt_locale_pointers@@ABQAD@?$standard_base@DV?$string_output_adapter@D@__crt_stdio_output@@@__crt_stdio_output@@IAE@ABV?$string_output_adapter@D@1@AB_KABQBDABQAU__crt_locale_pointers@@ABQAD@Z 100402d0 f i libucrtd:output.obj
 0001:0003f320       ??$?0ABV?$string_output_adapter@_W@__crt_stdio_output@@AB_KABQB_WABQAU__crt_locale_pointers@@ABQAD@?$format_validation_base@_WV?$string_output_adapter@_W@__crt_stdio_output@@@__crt_stdio_output@@IAE@ABV?$string_output_adapter@_W@1@AB_KABQB_WABQAU__crt_locale_pointers@@ABQAD@Z 10040320 f i libucrtd:output.obj
 0001:0003f350       ??$?0ABV?$string_output_adapter@_W@__crt_stdio_output@@AB_KABQB_WABQAU__crt_locale_pointers@@ABQAD@?$positional_parameter_base@_WV?$string_output_adapter@_W@__crt_stdio_output@@@__crt_stdio_output@@IAE@ABV?$string_output_adapter@_W@1@AB_KABQB_WABQAU__crt_locale_pointers@@ABQAD@Z 10040350 f i libucrtd:output.obj
 0001:0003f3d0       ??$?0ABV?$string_output_adapter@_W@__crt_stdio_output@@AB_KABQB_WABQAU__crt_locale_pointers@@ABQAD@?$standard_base@_WV?$string_output_adapter@_W@__crt_stdio_output@@@__crt_stdio_output@@IAE@ABV?$string_output_adapter@_W@1@AB_KABQB_WABQAU__crt_locale_pointers@@ABQAD@Z 100403d0 f i libucrtd:output.obj
 0001:0003f900       ??$__crt_interlocked_read@J@@YAJPDJ@Z 10040900 f i libucrtd:output.obj
 0001:000426a0       ??$count@D@formatting_buffer@__crt_stdio_output@@QBEIXZ 100436a0 f i libucrtd:output.obj
 0001:000426e0       ??$count@_W@formatting_buffer@__crt_stdio_output@@QBEIXZ 100436e0 f i libucrtd:output.obj
 0001:00042720       ??$data@D@formatting_buffer@__crt_stdio_output@@QAEPADXZ 10043720 f i libucrtd:output.obj
 0001:00042760       ??$data@_W@formatting_buffer@__crt_stdio_output@@QAEPA_WXZ 10043760 f i libucrtd:output.obj
 0001:000427a0       ??$ensure_buffer_is_big_enough@D@formatting_buffer@__crt_stdio_output@@QAE_NI@Z 100437a0 f i libucrtd:output.obj
 0001:00042880       ??$ensure_buffer_is_big_enough@_W@formatting_buffer@__crt_stdio_output@@QAE_NI@Z 10043880 f i libucrtd:output.obj
 0001:00042970       ??$extract_argument_from_va_list@C_J@?$positional_parameter_base@DV?$stream_output_adapter@D@__crt_stdio_output@@@__crt_stdio_output@@IAE_NAA_J@Z 10043970 f i libucrtd:output.obj
 0001:00042ab0       ??$extract_argument_from_va_list@C_J@?$positional_parameter_base@DV?$string_output_adapter@D@__crt_stdio_output@@@__crt_stdio_output@@IAE_NAA_J@Z 10043ab0 f i libucrtd:output.obj
 0001:00042bf0       ??$extract_argument_from_va_list@C_J@?$positional_parameter_base@_WV?$stream_output_adapter@_W@__crt_stdio_output@@@__crt_stdio_output@@IAE_NAA_J@Z 10043bf0 f i libucrtd:output.obj
 0001:00042d30       ??$extract_argument_from_va_list@C_J@?$positional_parameter_base@_WV?$string_output_adapter@_W@__crt_stdio_output@@@__crt_stdio_output@@IAE_NAA_J@Z 10043d30 f i libucrtd:output.obj
 0001:00042e70       ??$extract_argument_from_va_list@C_J@?$standard_base@DV?$stream_output_adapter@D@__crt_stdio_output@@@__crt_stdio_output@@IAE_NAA_J@Z 10043e70 f i libucrtd:output.obj
 0001:00042ea0       ??$extract_argument_from_va_list@C_J@?$standard_base@DV?$string_output_adapter@D@__crt_stdio_output@@@__crt_stdio_output@@IAE_NAA_J@Z 10043ea0 f i libucrtd:output.obj
 0001:00042ed0       ??$extract_argument_from_va_list@C_J@?$standard_base@_WV?$stream_output_adapter@_W@__crt_stdio_output@@@__crt_stdio_output@@IAE_NAA_J@Z 10043ed0 f i libucrtd:output.obj
 0001:00042f00       ??$extract_argument_from_va_list@C_J@?$standard_base@_WV?$string_output_adapter@_W@__crt_stdio_output@@@__crt_stdio_output@@IAE_NAA_J@Z 10043f00 f i libucrtd:output.obj
 0001:00042f30       ??$extract_argument_from_va_list@E_J@?$positional_parameter_base@DV?$stream_output_adapter@D@__crt_stdio_output@@@__crt_stdio_output@@IAE_NAA_J@Z 10043f30 f i libucrtd:output.obj
 0001:00043070       ??$extract_argument_from_va_list@E_J@?$positional_parameter_base@DV?$string_output_adapter@D@__crt_stdio_output@@@__crt_stdio_output@@IAE_NAA_J@Z 10044070 f i libucrtd:output.obj
 0001:000431b0       ??$extract_argument_from_va_list@E_J@?$positional_parameter_base@_WV?$stream_output_adapter@_W@__crt_stdio_output@@@__crt_stdio_output@@IAE_NAA_J@Z 100441b0 f i libucrtd:output.obj
 0001:000432f0       ??$extract_argument_from_va_list@E_J@?$positional_parameter_base@_WV?$string_output_adapter@_W@__crt_stdio_output@@@__crt_stdio_output@@IAE_NAA_J@Z 100442f0 f i libucrtd:output.obj
 0001:00043430       ??$extract_argument_from_va_list@E_J@?$standard_base@DV?$stream_output_adapter@D@__crt_stdio_output@@@__crt_stdio_output@@IAE_NAA_J@Z 10044430 f i libucrtd:output.obj
 0001:00043460       ??$extract_argument_from_va_list@E_J@?$standard_base@DV?$string_output_adapter@D@__crt_stdio_output@@@__crt_stdio_output@@IAE_NAA_J@Z 10044460 f i libucrtd:output.obj
 0001:00043490       ??$extract_argument_from_va_list@E_J@?$standard_base@_WV?$stream_output_adapter@_W@__crt_stdio_output@@@__crt_stdio_output@@IAE_NAA_J@Z 10044490 f i libucrtd:output.obj
 0001:000434c0       ??$extract_argument_from_va_list@E_J@?$standard_base@_WV?$string_output_adapter@_W@__crt_stdio_output@@@__crt_stdio_output@@IAE_NAA_J@Z 100444c0 f i libucrtd:output.obj
 0001:000434f0       ??$extract_argument_from_va_list@F_J@?$positional_parameter_base@DV?$stream_output_adapter@D@__crt_stdio_output@@@__crt_stdio_output@@IAE_NAA_J@Z 100444f0 f i libucrtd:output.obj
 0001:00043620       ??$extract_argument_from_va_list@F_J@?$positional_parameter_base@DV?$string_output_adapter@D@__crt_stdio_output@@@__crt_stdio_output@@IAE_NAA_J@Z 10044620 f i libucrtd:output.obj
 0001:00043750       ??$extract_argument_from_va_list@F_J@?$positional_parameter_base@_WV?$stream_output_adapter@_W@__crt_stdio_output@@@__crt_stdio_output@@IAE_NAA_J@Z 10044750 f i libucrtd:output.obj
 0001:00043880       ??$extract_argument_from_va_list@F_J@?$positional_parameter_base@_WV?$string_output_adapter@_W@__crt_stdio_output@@@__crt_stdio_output@@IAE_NAA_J@Z 10044880 f i libucrtd:output.obj
 0001:000439b0       ??$extract_argument_from_va_list@F_J@?$standard_base@DV?$stream_output_adapter@D@__crt_stdio_output@@@__crt_stdio_output@@IAE_NAA_J@Z 100449b0 f i libucrtd:output.obj
 0001:000439e0       ??$extract_argument_from_va_list@F_J@?$standard_base@DV?$string_output_adapter@D@__crt_stdio_output@@@__crt_stdio_output@@IAE_NAA_J@Z 100449e0 f i libucrtd:output.obj
 0001:00043a10       ??$extract_argument_from_va_list@F_J@?$standard_base@_WV?$stream_output_adapter@_W@__crt_stdio_output@@@__crt_stdio_output@@IAE_NAA_J@Z 10044a10 f i libucrtd:output.obj
 0001:00043a40       ??$extract_argument_from_va_list@F_J@?$standard_base@_WV?$string_output_adapter@_W@__crt_stdio_output@@@__crt_stdio_output@@IAE_NAA_J@Z 10044a40 f i libucrtd:output.obj
 0001:00043a70       ??$extract_argument_from_va_list@GD@?$positional_parameter_base@DV?$stream_output_adapter@D@__crt_stdio_output@@@__crt_stdio_output@@IAE_NAAD@Z 10044a70 f i libucrtd:output.obj
 0001:00043ba0       ??$extract_argument_from_va_list@GD@?$positional_parameter_base@DV?$string_output_adapter@D@__crt_stdio_output@@@__crt_stdio_output@@IAE_NAAD@Z 10044ba0 f i libucrtd:output.obj
 0001:00043cd0       ??$extract_argument_from_va_list@GD@?$standard_base@DV?$stream_output_adapter@D@__crt_stdio_output@@@__crt_stdio_output@@IAE_NAAD@Z 10044cd0 f i libucrtd:output.obj
 0001:00043d00       ??$extract_argument_from_va_list@GD@?$standard_base@DV?$string_output_adapter@D@__crt_stdio_output@@@__crt_stdio_output@@IAE_NAAD@Z 10044d00 f i libucrtd:output.obj
 0001:00043d30       ??$extract_argument_from_va_list@G_J@?$positional_parameter_base@DV?$stream_output_adapter@D@__crt_stdio_output@@@__crt_stdio_output@@IAE_NAA_J@Z 10044d30 f i libucrtd:output.obj
 0001:00043e70       ??$extract_argument_from_va_list@G_J@?$positional_parameter_base@DV?$string_output_adapter@D@__crt_stdio_output@@@__crt_stdio_output@@IAE_NAA_J@Z 10044e70 f i libucrtd:output.obj
 0001:00043fb0       ??$extract_argument_from_va_list@G_J@?$positional_parameter_base@_WV?$stream_output_adapter@_W@__crt_stdio_output@@@__crt_stdio_output@@IAE_NAA_J@Z 10044fb0 f i libucrtd:output.obj
 0001:000440f0       ??$extract_argument_from_va_list@G_J@?$positional_parameter_base@_WV?$string_output_adapter@_W@__crt_stdio_output@@@__crt_stdio_output@@IAE_NAA_J@Z 100450f0 f i libucrtd:output.obj
 0001:00044230       ??$extract_argument_from_va_list@G_J@?$standard_base@DV?$stream_output_adapter@D@__crt_stdio_output@@@__crt_stdio_output@@IAE_NAA_J@Z 10045230 f i libucrtd:output.obj
 0001:00044260       ??$extract_argument_from_va_list@G_J@?$standard_base@DV?$string_output_adapter@D@__crt_stdio_output@@@__crt_stdio_output@@IAE_NAA_J@Z 10045260 f i libucrtd:output.obj
 0001:00044290       ??$extract_argument_from_va_list@G_J@?$standard_base@_WV?$stream_output_adapter@_W@__crt_stdio_output@@@__crt_stdio_output@@IAE_NAA_J@Z 10045290 f i libucrtd:output.obj
 0001:000442c0       ??$extract_argument_from_va_list@G_J@?$standard_base@_WV?$string_output_adapter@_W@__crt_stdio_output@@@__crt_stdio_output@@IAE_NAA_J@Z 100452c0 f i libucrtd:output.obj
 0001:000442f0       ??$extract_argument_from_va_list@H_J@?$positional_parameter_base@DV?$stream_output_adapter@D@__crt_stdio_output@@@__crt_stdio_output@@IAE_NAA_J@Z 100452f0 f i libucrtd:output.obj
 0001:00044420       ??$extract_argument_from_va_list@H_J@?$positional_parameter_base@DV?$string_output_adapter@D@__crt_stdio_output@@@__crt_stdio_output@@IAE_NAA_J@Z 10045420 f i libucrtd:output.obj
 0001:00044550       ??$extract_argument_from_va_list@H_J@?$positional_parameter_base@_WV?$stream_output_adapter@_W@__crt_stdio_output@@@__crt_stdio_output@@IAE_NAA_J@Z 10045550 f i libucrtd:output.obj
 0001:00044680       ??$extract_argument_from_va_list@H_J@?$positional_parameter_base@_WV?$string_output_adapter@_W@__crt_stdio_output@@@__crt_stdio_output@@IAE_NAA_J@Z 10045680 f i libucrtd:output.obj
 0001:000447b0       ??$extract_argument_from_va_list@H_J@?$standard_base@DV?$stream_output_adapter@D@__crt_stdio_output@@@__crt_stdio_output@@IAE_NAA_J@Z 100457b0 f i libucrtd:output.obj
 0001:000447e0       ??$extract_argument_from_va_list@H_J@?$standard_base@DV?$string_output_adapter@D@__crt_stdio_output@@@__crt_stdio_output@@IAE_NAA_J@Z 100457e0 f i libucrtd:output.obj
 0001:00044810       ??$extract_argument_from_va_list@H_J@?$standard_base@_WV?$stream_output_adapter@_W@__crt_stdio_output@@@__crt_stdio_output@@IAE_NAA_J@Z 10045810 f i libucrtd:output.obj
 0001:00044840       ??$extract_argument_from_va_list@H_J@?$standard_base@_WV?$string_output_adapter@_W@__crt_stdio_output@@@__crt_stdio_output@@IAE_NAA_J@Z 10045840 f i libucrtd:output.obj
 0001:00044870       ??$extract_argument_from_va_list@I_J@?$positional_parameter_base@DV?$stream_output_adapter@D@__crt_stdio_output@@@__crt_stdio_output@@IAE_NAA_J@Z 10045870 f i libucrtd:output.obj
 0001:000449a0       ??$extract_argument_from_va_list@I_J@?$positional_parameter_base@DV?$string_output_adapter@D@__crt_stdio_output@@@__crt_stdio_output@@IAE_NAA_J@Z 100459a0 f i libucrtd:output.obj
 0001:00044ad0       ??$extract_argument_from_va_list@I_J@?$positional_parameter_base@_WV?$stream_output_adapter@_W@__crt_stdio_output@@@__crt_stdio_output@@IAE_NAA_J@Z 10045ad0 f i libucrtd:output.obj
 0001:00044c00       ??$extract_argument_from_va_list@I_J@?$positional_parameter_base@_WV?$string_output_adapter@_W@__crt_stdio_output@@@__crt_stdio_output@@IAE_NAA_J@Z 10045c00 f i libucrtd:output.obj
 0001:00044d30       ??$extract_argument_from_va_list@I_J@?$standard_base@DV?$stream_output_adapter@D@__crt_stdio_output@@@__crt_stdio_output@@IAE_NAA_J@Z 10045d30 f i libucrtd:output.obj
 0001:00044d60       ??$extract_argument_from_va_list@I_J@?$standard_base@DV?$string_output_adapter@D@__crt_stdio_output@@@__crt_stdio_output@@IAE_NAA_J@Z 10045d60 f i libucrtd:output.obj
 0001:00044d90       ??$extract_argument_from_va_list@I_J@?$standard_base@_WV?$stream_output_adapter@_W@__crt_stdio_output@@@__crt_stdio_output@@IAE_NAA_J@Z 10045d90 f i libucrtd:output.obj
 0001:00044dc0       ??$extract_argument_from_va_list@I_J@?$standard_base@_WV?$string_output_adapter@_W@__crt_stdio_output@@@__crt_stdio_output@@IAE_NAA_J@Z 10045dc0 f i libucrtd:output.obj
 0001:00044df0       ??$extract_argument_from_va_list@PADPAD@?$positional_parameter_base@DV?$stream_output_adapter@D@__crt_stdio_output@@@__crt_stdio_output@@IAE_NAAPAD@Z 10045df0 f i libucrtd:output.obj
 0001:00044f20       ??$extract_argument_from_va_list@PADPAD@?$positional_parameter_base@DV?$string_output_adapter@D@__crt_stdio_output@@@__crt_stdio_output@@IAE_NAAPAD@Z 10045f20 f i libucrtd:output.obj
 0001:00045050       ??$extract_argument_from_va_list@PADPAD@?$positional_parameter_base@_WV?$stream_output_adapter@_W@__crt_stdio_output@@@__crt_stdio_output@@IAE_NAAPAD@Z 10046050 f i libucrtd:output.obj
 0001:00045180       ??$extract_argument_from_va_list@PADPAD@?$positional_parameter_base@_WV?$string_output_adapter@_W@__crt_stdio_output@@@__crt_stdio_output@@IAE_NAAPAD@Z 10046180 f i libucrtd:output.obj
 0001:000452b0       ??$extract_argument_from_va_list@PADPAD@?$standard_base@DV?$stream_output_adapter@D@__crt_stdio_output@@@__crt_stdio_output@@IAE_NAAPAD@Z 100462b0 f i libucrtd:output.obj
 0001:000452e0       ??$extract_argument_from_va_list@PADPAD@?$standard_base@DV?$string_output_adapter@D@__crt_stdio_output@@@__crt_stdio_output@@IAE_NAAPAD@Z 100462e0 f i libucrtd:output.obj
 0001:00045310       ??$extract_argument_from_va_list@PADPAD@?$standard_base@_WV?$stream_output_adapter@_W@__crt_stdio_output@@@__crt_stdio_output@@IAE_NAAPAD@Z 10046310 f i libucrtd:output.obj
 0001:00045340       ??$extract_argument_from_va_list@PADPAD@?$standard_base@_WV?$string_output_adapter@_W@__crt_stdio_output@@@__crt_stdio_output@@IAE_NAAPAD@Z 10046340 f i libucrtd:output.obj
 0001:00045a70       ??$extract_argument_from_va_list@PAXPAX@?$positional_parameter_base@DV?$stream_output_adapter@D@__crt_stdio_output@@@__crt_stdio_output@@IAE_NAAPAX@Z 10046a70 f i libucrtd:output.obj
 0001:00045ba0       ??$extract_argument_from_va_list@PAXPAX@?$positional_parameter_base@DV?$string_output_adapter@D@__crt_stdio_output@@@__crt_stdio_output@@IAE_NAAPAX@Z 10046ba0 f i libucrtd:output.obj
 0001:00045cd0       ??$extract_argument_from_va_list@PAXPAX@?$positional_parameter_base@_WV?$stream_output_adapter@_W@__crt_stdio_output@@@__crt_stdio_output@@IAE_NAAPAX@Z 10046cd0 f i libucrtd:output.obj
 0001:00045e00       ??$extract_argument_from_va_list@PAXPAX@?$positional_parameter_base@_WV?$string_output_adapter@_W@__crt_stdio_output@@@__crt_stdio_output@@IAE_NAAPAX@Z 10046e00 f i libucrtd:output.obj
 0001:00045f30       ??$extract_argument_from_va_list@PAXPAX@?$standard_base@DV?$stream_output_adapter@D@__crt_stdio_output@@@__crt_stdio_output@@IAE_NAAPAX@Z 10046f30 f i libucrtd:output.obj
 0001:00045f60       ??$extract_argument_from_va_list@PAXPAX@?$standard_base@DV?$string_output_adapter@D@__crt_stdio_output@@@__crt_stdio_output@@IAE_NAAPAX@Z 10046f60 f i libucrtd:output.obj
 0001:00045f90       ??$extract_argument_from_va_list@PAXPAX@?$standard_base@_WV?$stream_output_adapter@_W@__crt_stdio_output@@@__crt_stdio_output@@IAE_NAAPAX@Z 10046f90 f i libucrtd:output.obj
 0001:00045fc0       ??$extract_argument_from_va_list@PAXPAX@?$standard_base@_WV?$string_output_adapter@_W@__crt_stdio_output@@@__crt_stdio_output@@IAE_NAAPAX@Z 10046fc0 f i libucrtd:output.obj
 0001:00045ff0       ??$extract_argument_from_va_list@U_CRT_DOUBLE@@U1@@?$positional_parameter_base@DV?$stream_output_adapter@D@__crt_stdio_output@@@__crt_stdio_output@@IAE_NAAU_CRT_DOUBLE@@@Z 10046ff0 f i libucrtd:output.obj
 0001:00046150       ??$extract_argument_from_va_list@U_CRT_DOUBLE@@U1@@?$positional_parameter_base@DV?$string_output_adapter@D@__crt_stdio_output@@@__crt_stdio_output@@IAE_NAAU_CRT_DOUBLE@@@Z 10047150 f i libucrtd:output.obj
 0001:000462b0       ??$extract_argument_from_va_list@U_CRT_DOUBLE@@U1@@?$positional_parameter_base@_WV?$stream_output_adapter@_W@__crt_stdio_output@@@__crt_stdio_output@@IAE_NAAU_CRT_DOUBLE@@@Z 100472b0 f i libucrtd:output.obj
 0001:00046410       ??$extract_argument_from_va_list@U_CRT_DOUBLE@@U1@@?$positional_parameter_base@_WV?$string_output_adapter@_W@__crt_stdio_output@@@__crt_stdio_output@@IAE_NAAU_CRT_DOUBLE@@@Z 10047410 f i libucrtd:output.obj
 0001:00046570       ??$extract_argument_from_va_list@U_CRT_DOUBLE@@U1@@?$standard_base@DV?$stream_output_adapter@D@__crt_stdio_output@@@__crt_stdio_output@@IAE_NAAU_CRT_DOUBLE@@@Z 10047570 f i libucrtd:output.obj
 0001:000465c0       ??$extract_argument_from_va_list@U_CRT_DOUBLE@@U1@@?$standard_base@DV?$string_output_adapter@D@__crt_stdio_output@@@__crt_stdio_output@@IAE_NAAU_CRT_DOUBLE@@@Z 100475c0 f i libucrtd:output.obj
 0001:00046610       ??$extract_argument_from_va_list@U_CRT_DOUBLE@@U1@@?$standard_base@_WV?$stream_output_adapter@_W@__crt_stdio_output@@@__crt_stdio_output@@IAE_NAAU_CRT_DOUBLE@@@Z 10047610 f i libucrtd:output.obj
 0001:00046660       ??$extract_argument_from_va_list@U_CRT_DOUBLE@@U1@@?$standard_base@_WV?$string_output_adapter@_W@__crt_stdio_output@@@__crt_stdio_output@@IAE_NAAU_CRT_DOUBLE@@@Z 10047660 f i libucrtd:output.obj
 0001:000466b0       ??$extract_argument_from_va_list@_J_J@?$positional_parameter_base@DV?$stream_output_adapter@D@__crt_stdio_output@@@__crt_stdio_output@@IAE_NAA_J@Z 100476b0 f i libucrtd:output.obj
 0001:000467e0       ??$extract_argument_from_va_list@_J_J@?$positional_parameter_base@DV?$string_output_adapter@D@__crt_stdio_output@@@__crt_stdio_output@@IAE_NAA_J@Z 100477e0 f i libucrtd:output.obj
 0001:00046910       ??$extract_argument_from_va_list@_J_J@?$positional_parameter_base@_WV?$stream_output_adapter@_W@__crt_stdio_output@@@__crt_stdio_output@@IAE_NAA_J@Z 10047910 f i libucrtd:output.obj
 0001:00046a40       ??$extract_argument_from_va_list@_J_J@?$positional_parameter_base@_WV?$string_output_adapter@_W@__crt_stdio_output@@@__crt_stdio_output@@IAE_NAA_J@Z 10047a40 f i libucrtd:output.obj
 0001:00046b70       ??$extract_argument_from_va_list@_J_J@?$standard_base@DV?$stream_output_adapter@D@__crt_stdio_output@@@__crt_stdio_output@@IAE_NAA_J@Z 10047b70 f i libucrtd:output.obj
 0001:00046ba0       ??$extract_argument_from_va_list@_J_J@?$standard_base@DV?$string_output_adapter@D@__crt_stdio_output@@@__crt_stdio_output@@IAE_NAA_J@Z 10047ba0 f i libucrtd:output.obj
 0001:00046bd0       ??$extract_argument_from_va_list@_J_J@?$standard_base@_WV?$stream_output_adapter@_W@__crt_stdio_output@@@__crt_stdio_output@@IAE_NAA_J@Z 10047bd0 f i libucrtd:output.obj
 0001:00046c00       ??$extract_argument_from_va_list@_J_J@?$standard_base@_WV?$string_output_adapter@_W@__crt_stdio_output@@@__crt_stdio_output@@IAE_NAA_J@Z 10047c00 f i libucrtd:output.obj
 0001:00046c30       ??$extract_argument_from_va_list@_K_J@?$positional_parameter_base@DV?$stream_output_adapter@D@__crt_stdio_output@@@__crt_stdio_output@@IAE_NAA_J@Z 10047c30 f i libucrtd:output.obj
 0001:00046d60       ??$extract_argument_from_va_list@_K_J@?$positional_parameter_base@DV?$string_output_adapter@D@__crt_stdio_output@@@__crt_stdio_output@@IAE_NAA_J@Z 10047d60 f i libucrtd:output.obj
 0001:00046e90       ??$extract_argument_from_va_list@_K_J@?$positional_parameter_base@_WV?$stream_output_adapter@_W@__crt_stdio_output@@@__crt_stdio_output@@IAE_NAA_J@Z 10047e90 f i libucrtd:output.obj
 0001:00046fc0       ??$extract_argument_from_va_list@_K_J@?$positional_parameter_base@_WV?$string_output_adapter@_W@__crt_stdio_output@@@__crt_stdio_output@@IAE_NAA_J@Z 10047fc0 f i libucrtd:output.obj
 0001:000470f0       ??$extract_argument_from_va_list@_K_J@?$standard_base@DV?$stream_output_adapter@D@__crt_stdio_output@@@__crt_stdio_output@@IAE_NAA_J@Z 100480f0 f i libucrtd:output.obj
 0001:00047120       ??$extract_argument_from_va_list@_K_J@?$standard_base@DV?$string_output_adapter@D@__crt_stdio_output@@@__crt_stdio_output@@IAE_NAA_J@Z 10048120 f i libucrtd:output.obj
 0001:00047150       ??$extract_argument_from_va_list@_K_J@?$standard_base@_WV?$stream_output_adapter@_W@__crt_stdio_output@@@__crt_stdio_output@@IAE_NAA_J@Z 10048150 f i libucrtd:output.obj
 0001:00047180       ??$extract_argument_from_va_list@_K_J@?$standard_base@_WV?$string_output_adapter@_W@__crt_stdio_output@@@__crt_stdio_output@@IAE_NAA_J@Z 10048180 f i libucrtd:output.obj
 0001:000471b0       ??$extract_argument_from_va_list@_W_W@?$positional_parameter_base@DV?$stream_output_adapter@D@__crt_stdio_output@@@__crt_stdio_output@@IAE_NAA_W@Z 100481b0 f i libucrtd:output.obj
 0001:000472e0       ??$extract_argument_from_va_list@_W_W@?$positional_parameter_base@DV?$string_output_adapter@D@__crt_stdio_output@@@__crt_stdio_output@@IAE_NAA_W@Z 100482e0 f i libucrtd:output.obj
 0001:00047410       ??$extract_argument_from_va_list@_W_W@?$positional_parameter_base@_WV?$stream_output_adapter@_W@__crt_stdio_output@@@__crt_stdio_output@@IAE_NAA_W@Z 10048410 f i libucrtd:output.obj
 0001:00047540       ??$extract_argument_from_va_list@_W_W@?$positional_parameter_base@_WV?$string_output_adapter@_W@__crt_stdio_output@@@__crt_stdio_output@@IAE_NAA_W@Z 10048540 f i libucrtd:output.obj
 0001:00047670       ??$extract_argument_from_va_list@_W_W@?$standard_base@DV?$stream_output_adapter@D@__crt_stdio_output@@@__crt_stdio_output@@IAE_NAA_W@Z 10048670 f i libucrtd:output.obj
 0001:000476a0       ??$extract_argument_from_va_list@_W_W@?$standard_base@DV?$string_output_adapter@D@__crt_stdio_output@@@__crt_stdio_output@@IAE_NAA_W@Z 100486a0 f i libucrtd:output.obj
 0001:000476d0       ??$extract_argument_from_va_list@_W_W@?$standard_base@_WV?$stream_output_adapter@_W@__crt_stdio_output@@@__crt_stdio_output@@IAE_NAA_W@Z 100486d0 f i libucrtd:output.obj
 0001:00047700       ??$extract_argument_from_va_list@_W_W@?$standard_base@_WV?$string_output_adapter@_W@__crt_stdio_output@@@__crt_stdio_output@@IAE_NAA_W@Z 10048700 f i libucrtd:output.obj
 0001:00047730       ??$get_parameter_type@D@?$positional_parameter_base@DV?$stream_output_adapter@D@__crt_stdio_output@@@__crt_stdio_output@@CA?AW4parameter_type@01@PAD@Z 10048730 f i libucrtd:output.obj
 0001:00047740       ??$get_parameter_type@D@?$positional_parameter_base@DV?$string_output_adapter@D@__crt_stdio_output@@@__crt_stdio_output@@CA?AW4parameter_type@01@PAD@Z 10048740 f i libucrtd:output.obj
 0001:00047750       ??$get_parameter_type@D@?$positional_parameter_base@_WV?$stream_output_adapter@_W@__crt_stdio_output@@@__crt_stdio_output@@CA?AW4parameter_type@01@PAD@Z 10048750 f i libucrtd:output.obj
 0001:00047760       ??$get_parameter_type@D@?$positional_parameter_base@_WV?$string_output_adapter@_W@__crt_stdio_output@@@__crt_stdio_output@@CA?AW4parameter_type@01@PAD@Z 10048760 f i libucrtd:output.obj
 0001:000477b0       ??$get_parameter_type@X@?$positional_parameter_base@DV?$stream_output_adapter@D@__crt_stdio_output@@@__crt_stdio_output@@CA?AW4parameter_type@01@PAX@Z 100487b0 f i libucrtd:output.obj
 0001:000477c0       ??$get_parameter_type@X@?$positional_parameter_base@DV?$string_output_adapter@D@__crt_stdio_output@@@__crt_stdio_output@@CA?AW4parameter_type@01@PAX@Z 100487c0 f i libucrtd:output.obj
 0001:000477d0       ??$get_parameter_type@X@?$positional_parameter_base@_WV?$stream_output_adapter@_W@__crt_stdio_output@@@__crt_stdio_output@@CA?AW4parameter_type@01@PAX@Z 100487d0 f i libucrtd:output.obj
 0001:000477e0       ??$get_parameter_type@X@?$positional_parameter_base@_WV?$string_output_adapter@_W@__crt_stdio_output@@@__crt_stdio_output@@CA?AW4parameter_type@01@PAX@Z 100487e0 f i libucrtd:output.obj
 0001:000477f0       ??$is_character_specifier@D@?$positional_parameter_base@DV?$stream_output_adapter@D@__crt_stdio_output@@@__crt_stdio_output@@CA_ND@Z 100487f0 f i libucrtd:output.obj
 0001:00047820       ??$is_character_specifier@D@?$positional_parameter_base@DV?$string_output_adapter@D@__crt_stdio_output@@@__crt_stdio_output@@CA_ND@Z 10048820 f i libucrtd:output.obj
 0001:00047850       ??$is_character_specifier@_W@?$positional_parameter_base@_WV?$stream_output_adapter@_W@__crt_stdio_output@@@__crt_stdio_output@@CA_N_W@Z 10048850 f i libucrtd:output.obj
 0001:00047880       ??$is_character_specifier@_W@?$positional_parameter_base@_WV?$string_output_adapter@_W@__crt_stdio_output@@@__crt_stdio_output@@CA_N_W@Z 10048880 f i libucrtd:output.obj
 0001:000478b0       ??$is_integral_specifier@D@?$positional_parameter_base@DV?$stream_output_adapter@D@__crt_stdio_output@@@__crt_stdio_output@@CA_ND@Z 100488b0 f i libucrtd:output.obj
 0001:00047910       ??$is_integral_specifier@D@?$positional_parameter_base@DV?$string_output_adapter@D@__crt_stdio_output@@@__crt_stdio_output@@CA_ND@Z 10048910 f i libucrtd:output.obj
 0001:00047970       ??$is_integral_specifier@_W@?$positional_parameter_base@_WV?$stream_output_adapter@_W@__crt_stdio_output@@@__crt_stdio_output@@CA_N_W@Z 10048970 f i libucrtd:output.obj
 0001:000479d0       ??$is_integral_specifier@_W@?$positional_parameter_base@_WV?$string_output_adapter@_W@__crt_stdio_output@@@__crt_stdio_output@@CA_N_W@Z 100489d0 f i libucrtd:output.obj
 0001:00047a30       ??$is_pointer_specifier@D@?$positional_parameter_base@DV?$stream_output_adapter@D@__crt_stdio_output@@@__crt_stdio_output@@CA_ND@Z 10048a30 f i libucrtd:output.obj
 0001:00047a60       ??$is_pointer_specifier@D@?$positional_parameter_base@DV?$string_output_adapter@D@__crt_stdio_output@@@__crt_stdio_output@@CA_ND@Z 10048a60 f i libucrtd:output.obj
 0001:00047a90       ??$is_pointer_specifier@_W@?$positional_parameter_base@_WV?$stream_output_adapter@_W@__crt_stdio_output@@@__crt_stdio_output@@CA_N_W@Z 10048a90 f i libucrtd:output.obj
 0001:00047ac0       ??$is_pointer_specifier@_W@?$positional_parameter_base@_WV?$string_output_adapter@_W@__crt_stdio_output@@@__crt_stdio_output@@CA_N_W@Z 10048ac0 f i libucrtd:output.obj
 0001:00047af0       ??$is_string_specifier@D@?$positional_parameter_base@DV?$stream_output_adapter@D@__crt_stdio_output@@@__crt_stdio_output@@CA_ND@Z 10048af0 f i libucrtd:output.obj
 0001:00047b20       ??$is_string_specifier@D@?$positional_parameter_base@DV?$string_output_adapter@D@__crt_stdio_output@@@__crt_stdio_output@@CA_ND@Z 10048b20 f i libucrtd:output.obj
 0001:00047b50       ??$is_string_specifier@_W@?$positional_parameter_base@_WV?$stream_output_adapter@_W@__crt_stdio_output@@@__crt_stdio_output@@CA_N_W@Z 10048b50 f i libucrtd:output.obj
 0001:00047b80       ??$is_string_specifier@_W@?$positional_parameter_base@_WV?$string_output_adapter@_W@__crt_stdio_output@@@__crt_stdio_output@@CA_N_W@Z 10048b80 f i libucrtd:output.obj
 0001:00047bb0       ??$is_wide_character_specifier@D@__crt_stdio_output@@YA_N_KDW4length_modifier@0@@Z 10048bb0 f i libucrtd:output.obj
 0001:00047c30       ??$is_wide_character_specifier@_W@__crt_stdio_output@@YA_N_K_WW4length_modifier@0@@Z 10048c30 f i libucrtd:output.obj
 0001:00047cf0       ??$peek_va_arg@C@__crt_stdio_output@@YACPAD@Z 10048cf0 f i libucrtd:output.obj
 0001:00047d10       ??$peek_va_arg@E@__crt_stdio_output@@YAEPAD@Z 10048d10 f i libucrtd:output.obj
 0001:00047d30       ??$peek_va_arg@F@__crt_stdio_output@@YAFPAD@Z 10048d30 f i libucrtd:output.obj
 0001:00047d50       ??$peek_va_arg@G@__crt_stdio_output@@YAGPAD@Z 10048d50 f i libucrtd:output.obj
 0001:00047d70       ??$peek_va_arg@H@__crt_stdio_output@@YAHPAD@Z 10048d70 f i libucrtd:output.obj
 0001:00047d90       ??$peek_va_arg@I@__crt_stdio_output@@YAIPAD@Z 10048d90 f i libucrtd:output.obj
 0001:00047db0       ??$peek_va_arg@PAD@__crt_stdio_output@@YAPADPAD@Z 10048db0 f i libucrtd:output.obj
 0001:00047e50       ??$peek_va_arg@PAX@__crt_stdio_output@@YAPAXPAD@Z 10048e50 f i libucrtd:output.obj
 0001:00047e70       ??$peek_va_arg@U_CRT_DOUBLE@@@__crt_stdio_output@@YA?AU_CRT_DOUBLE@@PAD@Z 10048e70 f i libucrtd:output.obj
 0001:00047e90       ??$peek_va_arg@_J@__crt_stdio_output@@YA_JPAD@Z 10048e90 f i libucrtd:output.obj
 0001:00047eb0       ??$peek_va_arg@_K@__crt_stdio_output@@YA_KPAD@Z 10048eb0 f i libucrtd:output.obj
 0001:00047ed0       ??$peek_va_arg@_W@__crt_stdio_output@@YA_WPAD@Z 10048ed0 f i libucrtd:output.obj
 0001:00047ef0       ??$puttc_nolock@ABDPAU_iobuf@@@?$__crt_char_traits@D@@SAHABD$$QAPAU_iobuf@@@Z 10048ef0 f i libucrtd:output.obj
 0001:00047f10       ??$puttc_nolock@AB_WPAU_iobuf@@@?$__crt_char_traits@_W@@SAGAB_W$$QAPAU_iobuf@@@Z 10048f10 f i libucrtd:output.obj
 0001:00047f30       ??$read_va_arg@C@__crt_stdio_output@@YACAAPAD@Z 10048f30 f i libucrtd:output.obj
 0001:00047f50       ??$read_va_arg@E@__crt_stdio_output@@YAEAAPAD@Z 10048f50 f i libucrtd:output.obj
 0001:00047f70       ??$read_va_arg@F@__crt_stdio_output@@YAFAAPAD@Z 10048f70 f i libucrtd:output.obj
 0001:00047f90       ??$read_va_arg@G@__crt_stdio_output@@YAGAAPAD@Z 10048f90 f i libucrtd:output.obj
 0001:00047fb0       ??$read_va_arg@H@__crt_stdio_output@@YAHAAPAD@Z 10048fb0 f i libucrtd:output.obj
 0001:00047fd0       ??$read_va_arg@I@__crt_stdio_output@@YAIAAPAD@Z 10048fd0 f i libucrtd:output.obj
 0001:00047ff0       ??$read_va_arg@PAD@__crt_stdio_output@@YAPADAAPAD@Z 10048ff0 f i libucrtd:output.obj
 0001:00048190       ??$read_va_arg@PAX@__crt_stdio_output@@YAPAXAAPAD@Z 10049190 f i libucrtd:output.obj
 0001:000481b0       ??$read_va_arg@U_CRT_DOUBLE@@@__crt_stdio_output@@YA?AU_CRT_DOUBLE@@AAPAD@Z 100491b0 f i libucrtd:output.obj
 0001:000481d0       ??$read_va_arg@_J@__crt_stdio_output@@YA_JAAPAD@Z 100491d0 f i libucrtd:output.obj
 0001:000481f0       ??$read_va_arg@_K@__crt_stdio_output@@YA_KAAPAD@Z 100491f0 f i libucrtd:output.obj
 0001:00048210       ??$read_va_arg@_W@__crt_stdio_output@@YA_WAAPAD@Z 10049210 f i libucrtd:output.obj
 0001:00048230       ??$scratch_count@D@formatting_buffer@__crt_stdio_output@@QBEIXZ 10049230 f i libucrtd:output.obj
 0001:00048250       ??$scratch_data@D@formatting_buffer@__crt_stdio_output@@QAEPADXZ 10049250 f i libucrtd:output.obj
 0001:000482a0       ??$tcstol@AAPBDPAPADH@?$__crt_char_traits@D@@SAJAAPBD$$QAPAPAD$$QAH@Z 100492a0 f i libucrtd:output.obj
 0001:000482d0       ??$tcstol@AAPB_WPAPA_WH@?$__crt_char_traits@_W@@SAJAAPB_W$$QAPAPA_W$$QAH@Z 100492d0 f i libucrtd:output.obj
 0001:00048300       ??$tcstol@PBDPAPADH@?$__crt_char_traits@D@@SAJ$$QAPBD$$QAPAPAD$$QAH@Z 10049300 f i libucrtd:output.obj
 0001:00048330       ??$tcstol@PB_WPAPA_WH@?$__crt_char_traits@_W@@SAJ$$QAPB_W$$QAPAPA_W$$QAH@Z 10049330 f i libucrtd:output.obj
 0001:00048360       ??$type_case_integer_parse_into_buffer@I@?$output_processor@DV?$stream_output_adapter@D@__crt_stdio_output@@V?$format_validation_base@DV?$stream_output_adapter@D@__crt_stdio_output@@@2@@__crt_stdio_output@@AAEXII_N@Z 10049360 f i libucrtd:output.obj
 0001:00048430       ??$type_case_integer_parse_into_buffer@I@?$output_processor@DV?$stream_output_adapter@D@__crt_stdio_output@@V?$positional_parameter_base@DV?$stream_output_adapter@D@__crt_stdio_output@@@2@@__crt_stdio_output@@AAEXII_N@Z 10049430 f i libucrtd:output.obj
 0001:00048500       ??$type_case_integer_parse_into_buffer@I@?$output_processor@DV?$stream_output_adapter@D@__crt_stdio_output@@V?$standard_base@DV?$stream_output_adapter@D@__crt_stdio_output@@@2@@__crt_stdio_output@@AAEXII_N@Z 10049500 f i libucrtd:output.obj
 0001:000485d0       ??$type_case_integer_parse_into_buffer@I@?$output_processor@DV?$string_output_adapter@D@__crt_stdio_output@@V?$format_validation_base@DV?$string_output_adapter@D@__crt_stdio_output@@@2@@__crt_stdio_output@@AAEXII_N@Z 100495d0 f i libucrtd:output.obj
 0001:000486a0       ??$type_case_integer_parse_into_buffer@I@?$output_processor@DV?$string_output_adapter@D@__crt_stdio_output@@V?$positional_parameter_base@DV?$string_output_adapter@D@__crt_stdio_output@@@2@@__crt_stdio_output@@AAEXII_N@Z 100496a0 f i libucrtd:output.obj
 0001:00048770       ??$type_case_integer_parse_into_buffer@I@?$output_processor@DV?$string_output_adapter@D@__crt_stdio_output@@V?$standard_base@DV?$string_output_adapter@D@__crt_stdio_output@@@2@@__crt_stdio_output@@AAEXII_N@Z 10049770 f i libucrtd:output.obj
 0001:00048840       ??$type_case_integer_parse_into_buffer@I@?$output_processor@_WV?$stream_output_adapter@_W@__crt_stdio_output@@V?$format_validation_base@_WV?$stream_output_adapter@_W@__crt_stdio_output@@@2@@__crt_stdio_output@@AAEXII_N@Z 10049840 f i libucrtd:output.obj
 0001:00048920       ??$type_case_integer_parse_into_buffer@I@?$output_processor@_WV?$stream_output_adapter@_W@__crt_stdio_output@@V?$positional_parameter_base@_WV?$stream_output_adapter@_W@__crt_stdio_output@@@2@@__crt_stdio_output@@AAEXII_N@Z 10049920 f i libucrtd:output.obj
 0001:00048a00       ??$type_case_integer_parse_into_buffer@I@?$output_processor@_WV?$stream_output_adapter@_W@__crt_stdio_output@@V?$standard_base@_WV?$stream_output_adapter@_W@__crt_stdio_output@@@2@@__crt_stdio_output@@AAEXII_N@Z 10049a00 f i libucrtd:output.obj
 0001:00048ae0       ??$type_case_integer_parse_into_buffer@I@?$output_processor@_WV?$string_output_adapter@_W@__crt_stdio_output@@V?$format_validation_base@_WV?$string_output_adapter@_W@__crt_stdio_output@@@2@@__crt_stdio_output@@AAEXII_N@Z 10049ae0 f i libucrtd:output.obj
 0001:00048bc0       ??$type_case_integer_parse_into_buffer@I@?$output_processor@_WV?$string_output_adapter@_W@__crt_stdio_output@@V?$positional_parameter_base@_WV?$string_output_adapter@_W@__crt_stdio_output@@@2@@__crt_stdio_output@@AAEXII_N@Z 10049bc0 f i libucrtd:output.obj
 0001:00048ca0       ??$type_case_integer_parse_into_buffer@I@?$output_processor@_WV?$string_output_adapter@_W@__crt_stdio_output@@V?$standard_base@_WV?$string_output_adapter@_W@__crt_stdio_output@@@2@@__crt_stdio_output@@AAEXII_N@Z 10049ca0 f i libucrtd:output.obj
 0001:00048d80       ??$type_case_integer_parse_into_buffer@_K@?$output_processor@DV?$stream_output_adapter@D@__crt_stdio_output@@V?$format_validation_base@DV?$stream_output_adapter@D@__crt_stdio_output@@@2@@__crt_stdio_output@@AAEX_KI_N@Z 10049d80 f i libucrtd:output.obj
 0001:00048e70       ??$type_case_integer_parse_into_buffer@_K@?$output_processor@DV?$stream_output_adapter@D@__crt_stdio_output@@V?$positional_parameter_base@DV?$stream_output_adapter@D@__crt_stdio_output@@@2@@__crt_stdio_output@@AAEX_KI_N@Z 10049e70 f i libucrtd:output.obj
 0001:00048f60       ??$type_case_integer_parse_into_buffer@_K@?$output_processor@DV?$stream_output_adapter@D@__crt_stdio_output@@V?$standard_base@DV?$stream_output_adapter@D@__crt_stdio_output@@@2@@__crt_stdio_output@@AAEX_KI_N@Z 10049f60 f i libucrtd:output.obj
 0001:00049050       ??$type_case_integer_parse_into_buffer@_K@?$output_processor@DV?$string_output_adapter@D@__crt_stdio_output@@V?$format_validation_base@DV?$string_output_adapter@D@__crt_stdio_output@@@2@@__crt_stdio_output@@AAEX_KI_N@Z 1004a050 f i libucrtd:output.obj
 0001:00049140       ??$type_case_integer_parse_into_buffer@_K@?$output_processor@DV?$string_output_adapter@D@__crt_stdio_output@@V?$positional_parameter_base@DV?$string_output_adapter@D@__crt_stdio_output@@@2@@__crt_stdio_output@@AAEX_KI_N@Z 1004a140 f i libucrtd:output.obj
 0001:00049230       ??$type_case_integer_parse_into_buffer@_K@?$output_processor@DV?$string_output_adapter@D@__crt_stdio_output@@V?$standard_base@DV?$string_output_adapter@D@__crt_stdio_output@@@2@@__crt_stdio_output@@AAEX_KI_N@Z 1004a230 f i libucrtd:output.obj
 0001:00049320       ??$type_case_integer_parse_into_buffer@_K@?$output_processor@_WV?$stream_output_adapter@_W@__crt_stdio_output@@V?$format_validation_base@_WV?$stream_output_adapter@_W@__crt_stdio_output@@@2@@__crt_stdio_output@@AAEX_KI_N@Z 1004a320 f i libucrtd:output.obj
 0001:00049420       ??$type_case_integer_parse_into_buffer@_K@?$output_processor@_WV?$stream_output_adapter@_W@__crt_stdio_output@@V?$positional_parameter_base@_WV?$stream_output_adapter@_W@__crt_stdio_output@@@2@@__crt_stdio_output@@AAEX_KI_N@Z 1004a420 f i libucrtd:output.obj
 0001:00049520       ??$type_case_integer_parse_into_buffer@_K@?$output_processor@_WV?$stream_output_adapter@_W@__crt_stdio_output@@V?$standard_base@_WV?$stream_output_adapter@_W@__crt_stdio_output@@@2@@__crt_stdio_output@@AAEX_KI_N@Z 1004a520 f i libucrtd:output.obj
 0001:00049620       ??$type_case_integer_parse_into_buffer@_K@?$output_processor@_WV?$string_output_adapter@_W@__crt_stdio_output@@V?$format_validation_base@_WV?$string_output_adapter@_W@__crt_stdio_output@@@2@@__crt_stdio_output@@AAEX_KI_N@Z 1004a620 f i libucrtd:output.obj
 0001:00049720       ??$type_case_integer_parse_into_buffer@_K@?$output_processor@_WV?$string_output_adapter@_W@__crt_stdio_output@@V?$positional_parameter_base@_WV?$string_output_adapter@_W@__crt_stdio_output@@@2@@__crt_stdio_output@@AAEX_KI_N@Z 1004a720 f i libucrtd:output.obj
 0001:00049820       ??$type_case_integer_parse_into_buffer@_K@?$output_processor@_WV?$string_output_adapter@_W@__crt_stdio_output@@V?$standard_base@_WV?$string_output_adapter@_W@__crt_stdio_output@@@2@@__crt_stdio_output@@AAEX_KI_N@Z 1004a820 f i libucrtd:output.obj
 0001:00049920       ??$write_multiple_characters@V?$stream_output_adapter@D@__crt_stdio_output@@D@__crt_stdio_output@@YAXABV?$stream_output_adapter@D@0@DHQAH@Z 1004a920 f i libucrtd:output.obj
 0001:00049970       ??$write_multiple_characters@V?$stream_output_adapter@_W@__crt_stdio_output@@D@__crt_stdio_output@@YAXABV?$stream_output_adapter@_W@0@DHQAH@Z 1004a970 f i libucrtd:output.obj
 0001:000499c0       ??$write_multiple_characters@V?$string_output_adapter@D@__crt_stdio_output@@D@__crt_stdio_output@@YAXABV?$string_output_adapter@D@0@DHQAH@Z 1004a9c0 f i libucrtd:output.obj
 0001:00049a10       ??$write_multiple_characters@V?$string_output_adapter@_W@__crt_stdio_output@@D@__crt_stdio_output@@YAXABV?$string_output_adapter@_W@0@DHQAH@Z 1004aa10 f i libucrtd:output.obj
 0001:00049d60       ??0?$common_data@D@__crt_stdio_output@@IAE@XZ 1004ad60 f i libucrtd:output.obj
 0001:00049e10       ??0?$common_data@_W@__crt_stdio_output@@IAE@XZ 1004ae10 f i libucrtd:output.obj
 0001:00049ec0       ??0?$output_adapter_data@DV?$stream_output_adapter@D@__crt_stdio_output@@@__crt_stdio_output@@IAE@ABV?$stream_output_adapter@D@1@_KQBDQAU__crt_locale_pointers@@QAD@Z 1004aec0 f i libucrtd:output.obj
 0001:00049f20       ??0?$output_adapter_data@DV?$string_output_adapter@D@__crt_stdio_output@@@__crt_stdio_output@@IAE@ABV?$string_output_adapter@D@1@_KQBDQAU__crt_locale_pointers@@QAD@Z 1004af20 f i libucrtd:output.obj
 0001:00049f80       ??0?$output_adapter_data@_WV?$stream_output_adapter@_W@__crt_stdio_output@@@__crt_stdio_output@@IAE@ABV?$stream_output_adapter@_W@1@_KQB_WQAU__crt_locale_pointers@@QAD@Z 1004af80 f i libucrtd:output.obj
 0001:00049fe0       ??0?$output_adapter_data@_WV?$string_output_adapter@_W@__crt_stdio_output@@@__crt_stdio_output@@IAE@ABV?$string_output_adapter@_W@1@_KQB_WQAU__crt_locale_pointers@@QAD@Z 1004afe0 f i libucrtd:output.obj
 0001:0004a040       ??0?$output_processor@DV?$stream_output_adapter@D@__crt_stdio_output@@V?$format_validation_base@DV?$stream_output_adapter@D@__crt_stdio_output@@@2@@__crt_stdio_output@@QAE@ABV?$stream_output_adapter@D@1@_KQBDQAU__crt_locale_pointers@@QAD@Z 1004b040 f i libucrtd:output.obj
 0001:0004a070       ??0?$output_processor@DV?$stream_output_adapter@D@__crt_stdio_output@@V?$positional_parameter_base@DV?$stream_output_adapter@D@__crt_stdio_output@@@2@@__crt_stdio_output@@QAE@ABV?$stream_output_adapter@D@1@_KQBDQAU__crt_locale_pointers@@QAD@Z 1004b070 f i libucrtd:output.obj
 0001:0004a0a0       ??0?$output_processor@DV?$stream_output_adapter@D@__crt_stdio_output@@V?$standard_base@DV?$stream_output_adapter@D@__crt_stdio_output@@@2@@__crt_stdio_output@@QAE@ABV?$stream_output_adapter@D@1@_KQBDQAU__crt_locale_pointers@@QAD@Z 1004b0a0 f i libucrtd:output.obj
 0001:0004a0d0       ??0?$output_processor@DV?$string_output_adapter@D@__crt_stdio_output@@V?$format_validation_base@DV?$string_output_adapter@D@__crt_stdio_output@@@2@@__crt_stdio_output@@QAE@ABV?$string_output_adapter@D@1@_KQBDQAU__crt_locale_pointers@@QAD@Z 1004b0d0 f i libucrtd:output.obj
 0001:0004a100       ??0?$output_processor@DV?$string_output_adapter@D@__crt_stdio_output@@V?$positional_parameter_base@DV?$string_output_adapter@D@__crt_stdio_output@@@2@@__crt_stdio_output@@QAE@ABV?$string_output_adapter@D@1@_KQBDQAU__crt_locale_pointers@@QAD@Z 1004b100 f i libucrtd:output.obj
 0001:0004a130       ??0?$output_processor@DV?$string_output_adapter@D@__crt_stdio_output@@V?$standard_base@DV?$string_output_adapter@D@__crt_stdio_output@@@2@@__crt_stdio_output@@QAE@ABV?$string_output_adapter@D@1@_KQBDQAU__crt_locale_pointers@@QAD@Z 1004b130 f i libucrtd:output.obj
 0001:0004a160       ??0?$output_processor@_WV?$stream_output_adapter@_W@__crt_stdio_output@@V?$format_validation_base@_WV?$stream_output_adapter@_W@__crt_stdio_output@@@2@@__crt_stdio_output@@QAE@ABV?$stream_output_adapter@_W@1@_KQB_WQAU__crt_locale_pointers@@QAD@Z 1004b160 f i libucrtd:output.obj
 0001:0004a190       ??0?$output_processor@_WV?$stream_output_adapter@_W@__crt_stdio_output@@V?$positional_parameter_base@_WV?$stream_output_adapter@_W@__crt_stdio_output@@@2@@__crt_stdio_output@@QAE@ABV?$stream_output_adapter@_W@1@_KQB_WQAU__crt_locale_pointers@@QAD@Z 1004b190 f i libucrtd:output.obj
 0001:0004a1c0       ??0?$output_processor@_WV?$stream_output_adapter@_W@__crt_stdio_output@@V?$standard_base@_WV?$stream_output_adapter@_W@__crt_stdio_output@@@2@@__crt_stdio_output@@QAE@ABV?$stream_output_adapter@_W@1@_KQB_WQAU__crt_locale_pointers@@QAD@Z 1004b1c0 f i libucrtd:output.obj
 0001:0004a1f0       ??0?$output_processor@_WV?$string_output_adapter@_W@__crt_stdio_output@@V?$format_validation_base@_WV?$string_output_adapter@_W@__crt_stdio_output@@@2@@__crt_stdio_output@@QAE@ABV?$string_output_adapter@_W@1@_KQB_WQAU__crt_locale_pointers@@QAD@Z 1004b1f0 f i libucrtd:output.obj
 0001:0004a220       ??0?$output_processor@_WV?$string_output_adapter@_W@__crt_stdio_output@@V?$positional_parameter_base@_WV?$string_output_adapter@_W@__crt_stdio_output@@@2@@__crt_stdio_output@@QAE@ABV?$string_output_adapter@_W@1@_KQB_WQAU__crt_locale_pointers@@QAD@Z 1004b220 f i libucrtd:output.obj
 0001:0004a250       ??0?$output_processor@_WV?$string_output_adapter@_W@__crt_stdio_output@@V?$standard_base@_WV?$string_output_adapter@_W@__crt_stdio_output@@@2@@__crt_stdio_output@@QAE@ABV?$string_output_adapter@_W@1@_KQB_WQAU__crt_locale_pointers@@QAD@Z 1004b250 f i libucrtd:output.obj
 0001:0004a280       ??0?$stream_output_adapter@D@__crt_stdio_output@@QAE@QAU_iobuf@@@Z 1004b280 f i libucrtd:output.obj
 0001:0004a2a0       ??0?$stream_output_adapter@_W@__crt_stdio_output@@QAE@QAU_iobuf@@@Z 1004b2a0 f i libucrtd:output.obj
 0001:0004a2c0       ??0?$string_output_adapter@D@__crt_stdio_output@@QAE@QAU?$string_output_adapter_context@D@1@@Z 1004b2c0 f i libucrtd:output.obj
 0001:0004a2e0       ??0?$string_output_adapter@_W@__crt_stdio_output@@QAE@QAU?$string_output_adapter_context@_W@1@@Z 1004b2e0 f i libucrtd:output.obj
 0001:0004a300       ??0_LocaleUpdate@@QAE@QAU__crt_locale_pointers@@@Z 1004b300 f i libucrtd:output.obj
 0001:0004a3e0       ??0__acrt_stdio_temporary_buffering_guard@@QAE@QAU_iobuf@@@Z 1004b3e0 f i libucrtd:output.obj
 0001:0004a410       ??0__crt_deferred_errno_cache@@QAE@XZ 1004b410 f i libucrtd:output.obj
 0001:0004a430       ??0__crt_errno_guard@@QAE@QAH@Z 1004b430 f i libucrtd:output.obj
 0001:0004a460       ??0__crt_stdio_stream@@QAE@QAU_iobuf@@@Z 1004b460 f i libucrtd:output.obj
 0001:0004a480       ??0formatting_buffer@__crt_stdio_output@@QAE@XZ 1004b480 f i libucrtd:output.obj
 0001:0004a4b0       ??1?$common_data@D@__crt_stdio_output@@QAE@XZ 1004b4b0 f i libucrtd:output.obj
 0001:0004a4d0       ??1?$common_data@_W@__crt_stdio_output@@QAE@XZ 1004b4d0 f i libucrtd:output.obj
 0001:0004a4f0       ??1?$format_validation_base@DV?$stream_output_adapter@D@__crt_stdio_output@@@__crt_stdio_output@@QAE@XZ 1004b4f0 f i libucrtd:output.obj
 0001:0004a510       ??1?$format_validation_base@DV?$string_output_adapter@D@__crt_stdio_output@@@__crt_stdio_output@@QAE@XZ 1004b510 f i libucrtd:output.obj
 0001:0004a530       ??1?$format_validation_base@_WV?$stream_output_adapter@_W@__crt_stdio_output@@@__crt_stdio_output@@QAE@XZ 1004b530 f i libucrtd:output.obj
 0001:0004a550       ??1?$format_validation_base@_WV?$string_output_adapter@_W@__crt_stdio_output@@@__crt_stdio_output@@QAE@XZ 1004b550 f i libucrtd:output.obj
 0001:0004a570       ??1?$output_adapter_data@DV?$stream_output_adapter@D@__crt_stdio_output@@@__crt_stdio_output@@QAE@XZ 1004b570 f i libucrtd:output.obj
 0001:0004a590       ??1?$output_adapter_data@DV?$string_output_adapter@D@__crt_stdio_output@@@__crt_stdio_output@@QAE@XZ 1004b590 f i libucrtd:output.obj
 0001:0004a5b0       ??1?$output_adapter_data@_WV?$stream_output_adapter@_W@__crt_stdio_output@@@__crt_stdio_output@@QAE@XZ 1004b5b0 f i libucrtd:output.obj
 0001:0004a5d0       ??1?$output_adapter_data@_WV?$string_output_adapter@_W@__crt_stdio_output@@@__crt_stdio_output@@QAE@XZ 1004b5d0 f i libucrtd:output.obj
 0001:0004a5f0       ??1?$output_processor@DV?$stream_output_adapter@D@__crt_stdio_output@@V?$format_validation_base@DV?$stream_output_adapter@D@__crt_stdio_output@@@2@@__crt_stdio_output@@QAE@XZ 1004b5f0 f i libucrtd:output.obj
 0001:0004a610       ??1?$output_processor@DV?$stream_output_adapter@D@__crt_stdio_output@@V?$positional_parameter_base@DV?$stream_output_adapter@D@__crt_stdio_output@@@2@@__crt_stdio_output@@QAE@XZ 1004b610 f i libucrtd:output.obj
 0001:0004a630       ??1?$output_processor@DV?$stream_output_adapter@D@__crt_stdio_output@@V?$standard_base@DV?$stream_output_adapter@D@__crt_stdio_output@@@2@@__crt_stdio_output@@QAE@XZ 1004b630 f i libucrtd:output.obj
 0001:0004a650       ??1?$output_processor@DV?$string_output_adapter@D@__crt_stdio_output@@V?$format_validation_base@DV?$string_output_adapter@D@__crt_stdio_output@@@2@@__crt_stdio_output@@QAE@XZ 1004b650 f i libucrtd:output.obj
 0001:0004a670       ??1?$output_processor@DV?$string_output_adapter@D@__crt_stdio_output@@V?$positional_parameter_base@DV?$string_output_adapter@D@__crt_stdio_output@@@2@@__crt_stdio_output@@QAE@XZ 1004b670 f i libucrtd:output.obj
 0001:0004a690       ??1?$output_processor@DV?$string_output_adapter@D@__crt_stdio_output@@V?$standard_base@DV?$string_output_adapter@D@__crt_stdio_output@@@2@@__crt_stdio_output@@QAE@XZ 1004b690 f i libucrtd:output.obj
 0001:0004a6b0       ??1?$output_processor@_WV?$stream_output_adapter@_W@__crt_stdio_output@@V?$format_validation_base@_WV?$stream_output_adapter@_W@__crt_stdio_output@@@2@@__crt_stdio_output@@QAE@XZ 1004b6b0 f i libucrtd:output.obj
 0001:0004a6d0       ??1?$output_processor@_WV?$stream_output_adapter@_W@__crt_stdio_output@@V?$positional_parameter_base@_WV?$stream_output_adapter@_W@__crt_stdio_output@@@2@@__crt_stdio_output@@QAE@XZ 1004b6d0 f i libucrtd:output.obj
 0001:0004a6f0       ??1?$output_processor@_WV?$stream_output_adapter@_W@__crt_stdio_output@@V?$standard_base@_WV?$stream_output_adapter@_W@__crt_stdio_output@@@2@@__crt_stdio_output@@QAE@XZ 1004b6f0 f i libucrtd:output.obj
 0001:0004a710       ??1?$output_processor@_WV?$string_output_adapter@_W@__crt_stdio_output@@V?$format_validation_base@_WV?$string_output_adapter@_W@__crt_stdio_output@@@2@@__crt_stdio_output@@QAE@XZ 1004b710 f i libucrtd:output.obj
 0001:0004a730       ??1?$output_processor@_WV?$string_output_adapter@_W@__crt_stdio_output@@V?$positional_parameter_base@_WV?$string_output_adapter@_W@__crt_stdio_output@@@2@@__crt_stdio_output@@QAE@XZ 1004b730 f i libucrtd:output.obj
 0001:0004a750       ??1?$output_processor@_WV?$string_output_adapter@_W@__crt_stdio_output@@V?$standard_base@_WV?$string_output_adapter@_W@__crt_stdio_output@@@2@@__crt_stdio_output@@QAE@XZ 1004b750 f i libucrtd:output.obj
 0001:0004a770       ??1?$positional_parameter_base@DV?$stream_output_adapter@D@__crt_stdio_output@@@__crt_stdio_output@@QAE@XZ 1004b770 f i libucrtd:output.obj
 0001:0004a790       ??1?$positional_parameter_base@DV?$string_output_adapter@D@__crt_stdio_output@@@__crt_stdio_output@@QAE@XZ 1004b790 f i libucrtd:output.obj
 0001:0004a7b0       ??1?$positional_parameter_base@_WV?$stream_output_adapter@_W@__crt_stdio_output@@@__crt_stdio_output@@QAE@XZ 1004b7b0 f i libucrtd:output.obj
 0001:0004a7d0       ??1?$positional_parameter_base@_WV?$string_output_adapter@_W@__crt_stdio_output@@@__crt_stdio_output@@QAE@XZ 1004b7d0 f i libucrtd:output.obj
 0001:0004a7f0       ??1?$standard_base@DV?$stream_output_adapter@D@__crt_stdio_output@@@__crt_stdio_output@@QAE@XZ 1004b7f0 f i libucrtd:output.obj
 0001:0004a810       ??1?$standard_base@DV?$string_output_adapter@D@__crt_stdio_output@@@__crt_stdio_output@@QAE@XZ 1004b810 f i libucrtd:output.obj
 0001:0004a830       ??1?$standard_base@_WV?$stream_output_adapter@_W@__crt_stdio_output@@@__crt_stdio_output@@QAE@XZ 1004b830 f i libucrtd:output.obj
 0001:0004a850       ??1?$standard_base@_WV?$string_output_adapter@_W@__crt_stdio_output@@@__crt_stdio_output@@QAE@XZ 1004b850 f i libucrtd:output.obj
 0001:0004a870       ??1_LocaleUpdate@@QAE@XZ   1004b870 f i libucrtd:output.obj
 0001:0004a8b0       ??1__acrt_stdio_temporary_buffering_guard@@QAE@XZ 1004b8b0 f i libucrtd:output.obj
 0001:0004a8e0       ??1__crt_errno_guard@@QAE@XZ 1004b8e0 f i libucrtd:output.obj
 0001:0004a910       ??1formatting_buffer@__crt_stdio_output@@QAE@XZ 1004b910 f i libucrtd:output.obj
 0001:0004a930       ??4?$__crt_unique_heap_ptr@DU__crt_internal_free_policy@@@@QAEAAV0@$$QAV0@@Z 1004b930 f i libucrtd:output.obj
 0001:0004a960       ??C__crt_stdio_stream@@QBEPAU__crt_stdio_stream_data@@XZ 1004b960 f i libucrtd:output.obj
 0001:0004b0a0       ?GetLocaleT@_LocaleUpdate@@QAEPAU__crt_locale_pointers@@XZ 1004c0a0 f i libucrtd:output.obj
 0001:0004b0c0       ?adjust_hexit@?$output_processor@DV?$stream_output_adapter@D@__crt_stdio_output@@V?$format_validation_base@DV?$stream_output_adapter@D@__crt_stdio_output@@@2@@__crt_stdio_output@@CADH_N@Z 1004c0c0 f i libucrtd:output.obj
 0001:0004b100       ?adjust_hexit@?$output_processor@DV?$stream_output_adapter@D@__crt_stdio_output@@V?$positional_parameter_base@DV?$stream_output_adapter@D@__crt_stdio_output@@@2@@__crt_stdio_output@@CADH_N@Z 1004c100 f i libucrtd:output.obj
 0001:0004b140       ?adjust_hexit@?$output_processor@DV?$stream_output_adapter@D@__crt_stdio_output@@V?$standard_base@DV?$stream_output_adapter@D@__crt_stdio_output@@@2@@__crt_stdio_output@@CADH_N@Z 1004c140 f i libucrtd:output.obj
 0001:0004b180       ?adjust_hexit@?$output_processor@DV?$string_output_adapter@D@__crt_stdio_output@@V?$format_validation_base@DV?$string_output_adapter@D@__crt_stdio_output@@@2@@__crt_stdio_output@@CADH_N@Z 1004c180 f i libucrtd:output.obj
 0001:0004b1c0       ?adjust_hexit@?$output_processor@DV?$string_output_adapter@D@__crt_stdio_output@@V?$positional_parameter_base@DV?$string_output_adapter@D@__crt_stdio_output@@@2@@__crt_stdio_output@@CADH_N@Z 1004c1c0 f i libucrtd:output.obj
 0001:0004b200       ?adjust_hexit@?$output_processor@DV?$string_output_adapter@D@__crt_stdio_output@@V?$standard_base@DV?$string_output_adapter@D@__crt_stdio_output@@@2@@__crt_stdio_output@@CADH_N@Z 1004c200 f i libucrtd:output.obj
 0001:0004b240       ?adjust_hexit@?$output_processor@_WV?$stream_output_adapter@_W@__crt_stdio_output@@V?$format_validation_base@_WV?$stream_output_adapter@_W@__crt_stdio_output@@@2@@__crt_stdio_output@@CADH_N@Z 1004c240 f i libucrtd:output.obj
 0001:0004b280       ?adjust_hexit@?$output_processor@_WV?$stream_output_adapter@_W@__crt_stdio_output@@V?$positional_parameter_base@_WV?$stream_output_adapter@_W@__crt_stdio_output@@@2@@__crt_stdio_output@@CADH_N@Z 1004c280 f i libucrtd:output.obj
 0001:0004b2c0       ?adjust_hexit@?$output_processor@_WV?$stream_output_adapter@_W@__crt_stdio_output@@V?$standard_base@_WV?$stream_output_adapter@_W@__crt_stdio_output@@@2@@__crt_stdio_output@@CADH_N@Z 1004c2c0 f i libucrtd:output.obj
 0001:0004b300       ?adjust_hexit@?$output_processor@_WV?$string_output_adapter@_W@__crt_stdio_output@@V?$format_validation_base@_WV?$string_output_adapter@_W@__crt_stdio_output@@@2@@__crt_stdio_output@@CADH_N@Z 1004c300 f i libucrtd:output.obj
 0001:0004b340       ?adjust_hexit@?$output_processor@_WV?$string_output_adapter@_W@__crt_stdio_output@@V?$positional_parameter_base@_WV?$string_output_adapter@_W@__crt_stdio_output@@@2@@__crt_stdio_output@@CADH_N@Z 1004c340 f i libucrtd:output.obj
 0001:0004b380       ?adjust_hexit@?$output_processor@_WV?$string_output_adapter@_W@__crt_stdio_output@@V?$standard_base@_WV?$string_output_adapter@_W@__crt_stdio_output@@@2@@__crt_stdio_output@@CADH_N@Z 1004c380 f i libucrtd:output.obj
 0001:0004b3c0       ?advance_to_next_pass@?$positional_parameter_base@DV?$stream_output_adapter@D@__crt_stdio_output@@@__crt_stdio_output@@IAE_NXZ 1004c3c0 f i libucrtd:output.obj
 0001:0004b460       ?advance_to_next_pass@?$positional_parameter_base@DV?$string_output_adapter@D@__crt_stdio_output@@@__crt_stdio_output@@IAE_NXZ 1004c460 f i libucrtd:output.obj
 0001:0004b500       ?advance_to_next_pass@?$positional_parameter_base@_WV?$stream_output_adapter@_W@__crt_stdio_output@@@__crt_stdio_output@@IAE_NXZ 1004c500 f i libucrtd:output.obj
 0001:0004b5a0       ?advance_to_next_pass@?$positional_parameter_base@_WV?$string_output_adapter@_W@__crt_stdio_output@@@__crt_stdio_output@@IAE_NXZ 1004c5a0 f i libucrtd:output.obj
 0001:0004b640       ?advance_to_next_pass@?$standard_base@DV?$stream_output_adapter@D@__crt_stdio_output@@@__crt_stdio_output@@IAE_NXZ 1004c640 f i libucrtd:output.obj
 0001:0004b690       ?advance_to_next_pass@?$standard_base@DV?$string_output_adapter@D@__crt_stdio_output@@@__crt_stdio_output@@IAE_NXZ 1004c690 f i libucrtd:output.obj
 0001:0004b6e0       ?advance_to_next_pass@?$standard_base@_WV?$stream_output_adapter@_W@__crt_stdio_output@@@__crt_stdio_output@@IAE_NXZ 1004c6e0 f i libucrtd:output.obj
 0001:0004b730       ?advance_to_next_pass@?$standard_base@_WV?$string_output_adapter@_W@__crt_stdio_output@@@__crt_stdio_output@@IAE_NXZ 1004c730 f i libucrtd:output.obj
 0001:0004b780       ?crop_zeroes@__crt_stdio_output@@YAXPADQAU__crt_locale_pointers@@@Z 1004c780 f i libucrtd:output.obj
 0001:0004b880       ?find_next_state@?$output_processor@DV?$stream_output_adapter@D@__crt_stdio_output@@V?$format_validation_base@DV?$stream_output_adapter@D@__crt_stdio_output@@@2@@__crt_stdio_output@@ABE?AW4state@2@DW432@@Z 1004c880 f i libucrtd:output.obj
 0001:0004b900       ?find_next_state@?$output_processor@DV?$stream_output_adapter@D@__crt_stdio_output@@V?$positional_parameter_base@DV?$stream_output_adapter@D@__crt_stdio_output@@@2@@__crt_stdio_output@@ABE?AW4state@2@DW432@@Z 1004c900 f i libucrtd:output.obj
 0001:0004b980       ?find_next_state@?$output_processor@DV?$stream_output_adapter@D@__crt_stdio_output@@V?$standard_base@DV?$stream_output_adapter@D@__crt_stdio_output@@@2@@__crt_stdio_output@@ABE?AW4state@2@DW432@@Z 1004c980 f i libucrtd:output.obj
 0001:0004ba00       ?find_next_state@?$output_processor@DV?$string_output_adapter@D@__crt_stdio_output@@V?$format_validation_base@DV?$string_output_adapter@D@__crt_stdio_output@@@2@@__crt_stdio_output@@ABE?AW4state@2@DW432@@Z 1004ca00 f i libucrtd:output.obj
 0001:0004ba80       ?find_next_state@?$output_processor@DV?$string_output_adapter@D@__crt_stdio_output@@V?$positional_parameter_base@DV?$string_output_adapter@D@__crt_stdio_output@@@2@@__crt_stdio_output@@ABE?AW4state@2@DW432@@Z 1004ca80 f i libucrtd:output.obj
 0001:0004bb00       ?find_next_state@?$output_processor@DV?$string_output_adapter@D@__crt_stdio_output@@V?$standard_base@DV?$string_output_adapter@D@__crt_stdio_output@@@2@@__crt_stdio_output@@ABE?AW4state@2@DW432@@Z 1004cb00 f i libucrtd:output.obj
 0001:0004bb80       ?find_next_state@?$output_processor@_WV?$stream_output_adapter@_W@__crt_stdio_output@@V?$format_validation_base@_WV?$stream_output_adapter@_W@__crt_stdio_output@@@2@@__crt_stdio_output@@ABE?AW4state@2@_WW432@@Z 1004cb80 f i libucrtd:output.obj
 0001:0004bc00       ?find_next_state@?$output_processor@_WV?$stream_output_adapter@_W@__crt_stdio_output@@V?$positional_parameter_base@_WV?$stream_output_adapter@_W@__crt_stdio_output@@@2@@__crt_stdio_output@@ABE?AW4state@2@_WW432@@Z 1004cc00 f i libucrtd:output.obj
 0001:0004bc80       ?find_next_state@?$output_processor@_WV?$stream_output_adapter@_W@__crt_stdio_output@@V?$standard_base@_WV?$stream_output_adapter@_W@__crt_stdio_output@@@2@@__crt_stdio_output@@ABE?AW4state@2@_WW432@@Z 1004cc80 f i libucrtd:output.obj
 0001:0004bd00       ?find_next_state@?$output_processor@_WV?$string_output_adapter@_W@__crt_stdio_output@@V?$format_validation_base@_WV?$string_output_adapter@_W@__crt_stdio_output@@@2@@__crt_stdio_output@@ABE?AW4state@2@_WW432@@Z 1004cd00 f i libucrtd:output.obj
 0001:0004bd80       ?find_next_state@?$output_processor@_WV?$string_output_adapter@_W@__crt_stdio_output@@V?$positional_parameter_base@_WV?$string_output_adapter@_W@__crt_stdio_output@@@2@@__crt_stdio_output@@ABE?AW4state@2@_WW432@@Z 1004cd80 f i libucrtd:output.obj
 0001:0004be00       ?find_next_state@?$output_processor@_WV?$string_output_adapter@_W@__crt_stdio_output@@V?$standard_base@_WV?$string_output_adapter@_W@__crt_stdio_output@@@2@@__crt_stdio_output@@ABE?AW4state@2@_WW432@@Z 1004ce00 f i libucrtd:output.obj
 0001:0004be80       ?force_decimal_point@__crt_stdio_output@@YAXPADQAU__crt_locale_pointers@@@Z 1004ce80 f i libucrtd:output.obj
 0001:0004bf50       ?get@__crt_deferred_errno_cache@@QAEAAHXZ 1004cf50 f i libucrtd:output.obj
 0001:0004bf80       ?get_flags@__crt_stdio_stream@@QBEJXZ 1004cf80 f i libucrtd:output.obj
 0001:0004bfa0       ?get_parameter_type@?$positional_parameter_base@DV?$stream_output_adapter@D@__crt_stdio_output@@@__crt_stdio_output@@CA?AW4parameter_type@12@F@Z 1004cfa0 f i libucrtd:output.obj
 0001:0004bfb0       ?get_parameter_type@?$positional_parameter_base@DV?$stream_output_adapter@D@__crt_stdio_output@@@__crt_stdio_output@@CA?AW4parameter_type@12@G@Z 1004cfb0 f i libucrtd:output.obj
 0001:0004bfc0       ?get_parameter_type@?$positional_parameter_base@DV?$stream_output_adapter@D@__crt_stdio_output@@@__crt_stdio_output@@CA?AW4parameter_type@12@H@Z 1004cfc0 f i libucrtd:output.obj
 0001:0004bfd0       ?get_parameter_type@?$positional_parameter_base@DV?$stream_output_adapter@D@__crt_stdio_output@@@__crt_stdio_output@@CA?AW4parameter_type@12@I@Z 1004cfd0 f i libucrtd:output.obj
 0001:0004bfe0       ?get_parameter_type@?$positional_parameter_base@DV?$stream_output_adapter@D@__crt_stdio_output@@@__crt_stdio_output@@CA?AW4parameter_type@12@U_CRT_DOUBLE@@@Z 1004cfe0 f i libucrtd:output.obj
 0001:0004bff0       ?get_parameter_type@?$positional_parameter_base@DV?$stream_output_adapter@D@__crt_stdio_output@@@__crt_stdio_output@@CA?AW4parameter_type@12@_J@Z 1004cff0 f i libucrtd:output.obj
 0001:0004c000       ?get_parameter_type@?$positional_parameter_base@DV?$stream_output_adapter@D@__crt_stdio_output@@@__crt_stdio_output@@CA?AW4parameter_type@12@_K@Z 1004d000 f i libucrtd:output.obj
 0001:0004c010       ?get_parameter_type@?$positional_parameter_base@DV?$stream_output_adapter@D@__crt_stdio_output@@@__crt_stdio_output@@CA?AW4parameter_type@12@_W@Z 1004d010 f i libucrtd:output.obj
 0001:0004c020       ?get_parameter_type@?$positional_parameter_base@DV?$string_output_adapter@D@__crt_stdio_output@@@__crt_stdio_output@@CA?AW4parameter_type@12@F@Z 1004d020 f i libucrtd:output.obj
 0001:0004c030       ?get_parameter_type@?$positional_parameter_base@DV?$string_output_adapter@D@__crt_stdio_output@@@__crt_stdio_output@@CA?AW4parameter_type@12@G@Z 1004d030 f i libucrtd:output.obj
 0001:0004c040       ?get_parameter_type@?$positional_parameter_base@DV?$string_output_adapter@D@__crt_stdio_output@@@__crt_stdio_output@@CA?AW4parameter_type@12@H@Z 1004d040 f i libucrtd:output.obj
 0001:0004c050       ?get_parameter_type@?$positional_parameter_base@DV?$string_output_adapter@D@__crt_stdio_output@@@__crt_stdio_output@@CA?AW4parameter_type@12@I@Z 1004d050 f i libucrtd:output.obj
 0001:0004c060       ?get_parameter_type@?$positional_parameter_base@DV?$string_output_adapter@D@__crt_stdio_output@@@__crt_stdio_output@@CA?AW4parameter_type@12@U_CRT_DOUBLE@@@Z 1004d060 f i libucrtd:output.obj
 0001:0004c070       ?get_parameter_type@?$positional_parameter_base@DV?$string_output_adapter@D@__crt_stdio_output@@@__crt_stdio_output@@CA?AW4parameter_type@12@_J@Z 1004d070 f i libucrtd:output.obj
 0001:0004c080       ?get_parameter_type@?$positional_parameter_base@DV?$string_output_adapter@D@__crt_stdio_output@@@__crt_stdio_output@@CA?AW4parameter_type@12@_K@Z 1004d080 f i libucrtd:output.obj
 0001:0004c090       ?get_parameter_type@?$positional_parameter_base@DV?$string_output_adapter@D@__crt_stdio_output@@@__crt_stdio_output@@CA?AW4parameter_type@12@_W@Z 1004d090 f i libucrtd:output.obj
 0001:0004c0a0       ?get_parameter_type@?$positional_parameter_base@_WV?$stream_output_adapter@_W@__crt_stdio_output@@@__crt_stdio_output@@CA?AW4parameter_type@12@F@Z 1004d0a0 f i libucrtd:output.obj
 0001:0004c0b0       ?get_parameter_type@?$positional_parameter_base@_WV?$stream_output_adapter@_W@__crt_stdio_output@@@__crt_stdio_output@@CA?AW4parameter_type@12@G@Z 1004d0b0 f i libucrtd:output.obj
 0001:0004c0c0       ?get_parameter_type@?$positional_parameter_base@_WV?$stream_output_adapter@_W@__crt_stdio_output@@@__crt_stdio_output@@CA?AW4parameter_type@12@H@Z 1004d0c0 f i libucrtd:output.obj
 0001:0004c0d0       ?get_parameter_type@?$positional_parameter_base@_WV?$stream_output_adapter@_W@__crt_stdio_output@@@__crt_stdio_output@@CA?AW4parameter_type@12@I@Z 1004d0d0 f i libucrtd:output.obj
 0001:0004c0e0       ?get_parameter_type@?$positional_parameter_base@_WV?$stream_output_adapter@_W@__crt_stdio_output@@@__crt_stdio_output@@CA?AW4parameter_type@12@U_CRT_DOUBLE@@@Z 1004d0e0 f i libucrtd:output.obj
 0001:0004c0f0       ?get_parameter_type@?$positional_parameter_base@_WV?$stream_output_adapter@_W@__crt_stdio_output@@@__crt_stdio_output@@CA?AW4parameter_type@12@_J@Z 1004d0f0 f i libucrtd:output.obj
 0001:0004c100       ?get_parameter_type@?$positional_parameter_base@_WV?$stream_output_adapter@_W@__crt_stdio_output@@@__crt_stdio_output@@CA?AW4parameter_type@12@_K@Z 1004d100 f i libucrtd:output.obj
 0001:0004c110       ?get_parameter_type@?$positional_parameter_base@_WV?$stream_output_adapter@_W@__crt_stdio_output@@@__crt_stdio_output@@CA?AW4parameter_type@12@_W@Z 1004d110 f i libucrtd:output.obj
 0001:0004c120       ?get_parameter_type@?$positional_parameter_base@_WV?$string_output_adapter@_W@__crt_stdio_output@@@__crt_stdio_output@@CA?AW4parameter_type@12@F@Z 1004d120 f i libucrtd:output.obj
 0001:0004c130       ?get_parameter_type@?$positional_parameter_base@_WV?$string_output_adapter@_W@__crt_stdio_output@@@__crt_stdio_output@@CA?AW4parameter_type@12@G@Z 1004d130 f i libucrtd:output.obj
 0001:0004c140       ?get_parameter_type@?$positional_parameter_base@_WV?$string_output_adapter@_W@__crt_stdio_output@@@__crt_stdio_output@@CA?AW4parameter_type@12@H@Z 1004d140 f i libucrtd:output.obj
 0001:0004c150       ?get_parameter_type@?$positional_parameter_base@_WV?$string_output_adapter@_W@__crt_stdio_output@@@__crt_stdio_output@@CA?AW4parameter_type@12@I@Z 1004d150 f i libucrtd:output.obj
 0001:0004c160       ?get_parameter_type@?$positional_parameter_base@_WV?$string_output_adapter@_W@__crt_stdio_output@@@__crt_stdio_output@@CA?AW4parameter_type@12@U_CRT_DOUBLE@@@Z 1004d160 f i libucrtd:output.obj
 0001:0004c170       ?get_parameter_type@?$positional_parameter_base@_WV?$string_output_adapter@_W@__crt_stdio_output@@@__crt_stdio_output@@CA?AW4parameter_type@12@_J@Z 1004d170 f i libucrtd:output.obj
 0001:0004c180       ?get_parameter_type@?$positional_parameter_base@_WV?$string_output_adapter@_W@__crt_stdio_output@@@__crt_stdio_output@@CA?AW4parameter_type@12@_K@Z 1004d180 f i libucrtd:output.obj
 0001:0004c190       ?get_parameter_type@?$positional_parameter_base@_WV?$string_output_adapter@_W@__crt_stdio_output@@@__crt_stdio_output@@CA?AW4parameter_type@12@_W@Z 1004d190 f i libucrtd:output.obj
 0001:0004c1a0       ?has_flag@?$output_processor@DV?$stream_output_adapter@D@__crt_stdio_output@@V?$format_validation_base@DV?$stream_output_adapter@D@__crt_stdio_output@@@2@@__crt_stdio_output@@ABE_NI@Z 1004d1a0 f i libucrtd:output.obj
 0001:0004c1d0       ?has_flag@?$output_processor@DV?$stream_output_adapter@D@__crt_stdio_output@@V?$positional_parameter_base@DV?$stream_output_adapter@D@__crt_stdio_output@@@2@@__crt_stdio_output@@ABE_NI@Z 1004d1d0 f i libucrtd:output.obj
 0001:0004c200       ?has_flag@?$output_processor@DV?$stream_output_adapter@D@__crt_stdio_output@@V?$standard_base@DV?$stream_output_adapter@D@__crt_stdio_output@@@2@@__crt_stdio_output@@ABE_NI@Z 1004d200 f i libucrtd:output.obj
 0001:0004c230       ?has_flag@?$output_processor@DV?$string_output_adapter@D@__crt_stdio_output@@V?$format_validation_base@DV?$string_output_adapter@D@__crt_stdio_output@@@2@@__crt_stdio_output@@ABE_NI@Z 1004d230 f i libucrtd:output.obj
 0001:0004c260       ?has_flag@?$output_processor@DV?$string_output_adapter@D@__crt_stdio_output@@V?$positional_parameter_base@DV?$string_output_adapter@D@__crt_stdio_output@@@2@@__crt_stdio_output@@ABE_NI@Z 1004d260 f i libucrtd:output.obj
 0001:0004c290       ?has_flag@?$output_processor@DV?$string_output_adapter@D@__crt_stdio_output@@V?$standard_base@DV?$string_output_adapter@D@__crt_stdio_output@@@2@@__crt_stdio_output@@ABE_NI@Z 1004d290 f i libucrtd:output.obj
 0001:0004c2c0       ?has_flag@?$output_processor@_WV?$stream_output_adapter@_W@__crt_stdio_output@@V?$format_validation_base@_WV?$stream_output_adapter@_W@__crt_stdio_output@@@2@@__crt_stdio_output@@ABE_NI@Z 1004d2c0 f i libucrtd:output.obj
 0001:0004c2f0       ?has_flag@?$output_processor@_WV?$stream_output_adapter@_W@__crt_stdio_output@@V?$positional_parameter_base@_WV?$stream_output_adapter@_W@__crt_stdio_output@@@2@@__crt_stdio_output@@ABE_NI@Z 1004d2f0 f i libucrtd:output.obj
 0001:0004c320       ?has_flag@?$output_processor@_WV?$stream_output_adapter@_W@__crt_stdio_output@@V?$standard_base@_WV?$stream_output_adapter@_W@__crt_stdio_output@@@2@@__crt_stdio_output@@ABE_NI@Z 1004d320 f i libucrtd:output.obj
 0001:0004c350       ?has_flag@?$output_processor@_WV?$string_output_adapter@_W@__crt_stdio_output@@V?$format_validation_base@_WV?$string_output_adapter@_W@__crt_stdio_output@@@2@@__crt_stdio_output@@ABE_NI@Z 1004d350 f i libucrtd:output.obj
 0001:0004c380       ?has_flag@?$output_processor@_WV?$string_output_adapter@_W@__crt_stdio_output@@V?$positional_parameter_base@_WV?$string_output_adapter@_W@__crt_stdio_output@@@2@@__crt_stdio_output@@ABE_NI@Z 1004d380 f i libucrtd:output.obj
 0001:0004c3b0       ?has_flag@?$output_processor@_WV?$string_output_adapter@_W@__crt_stdio_output@@V?$standard_base@_WV?$string_output_adapter@_W@__crt_stdio_output@@@2@@__crt_stdio_output@@ABE_NI@Z 1004d3b0 f i libucrtd:output.obj
 0001:0004c3e0       ?is_positional_parameter_reappearance_consistent@?$positional_parameter_base@DV?$stream_output_adapter@D@__crt_stdio_output@@@__crt_stdio_output@@AAE_NABUparameter_data@12@W4parameter_type@12@DW4length_modifier@2@@Z 1004d3e0 f i libucrtd:output.obj
 0001:0004c610       ?is_positional_parameter_reappearance_consistent@?$positional_parameter_base@DV?$string_output_adapter@D@__crt_stdio_output@@@__crt_stdio_output@@AAE_NABUparameter_data@12@W4parameter_type@12@DW4length_modifier@2@@Z 1004d610 f i libucrtd:output.obj
 0001:0004c840       ?is_positional_parameter_reappearance_consistent@?$positional_parameter_base@_WV?$stream_output_adapter@_W@__crt_stdio_output@@@__crt_stdio_output@@AAE_NABUparameter_data@12@W4parameter_type@12@_WW4length_modifier@2@@Z 1004d840 f i libucrtd:output.obj
 0001:0004ca70       ?is_positional_parameter_reappearance_consistent@?$positional_parameter_base@_WV?$string_output_adapter@_W@__crt_stdio_output@@@__crt_stdio_output@@AAE_NABUparameter_data@12@W4parameter_type@12@_WW4length_modifier@2@@Z 1004da70 f i libucrtd:output.obj
 0001:0004cca0       ?is_string_backed@__crt_stdio_stream@@QBE_NXZ 1004dca0 f i libucrtd:output.obj
 0001:0004cce0       ?narrow_null_string@?$output_processor@DV?$stream_output_adapter@D@__crt_stdio_output@@V?$format_validation_base@DV?$stream_output_adapter@D@__crt_stdio_output@@@2@@__crt_stdio_output@@CAPADXZ 1004dce0 f i libucrtd:output.obj
 0001:0004ccf0       ?narrow_null_string@?$output_processor@DV?$stream_output_adapter@D@__crt_stdio_output@@V?$positional_parameter_base@DV?$stream_output_adapter@D@__crt_stdio_output@@@2@@__crt_stdio_output@@CAPADXZ 1004dcf0 f i libucrtd:output.obj
 0001:0004cd00       ?narrow_null_string@?$output_processor@DV?$stream_output_adapter@D@__crt_stdio_output@@V?$standard_base@DV?$stream_output_adapter@D@__crt_stdio_output@@@2@@__crt_stdio_output@@CAPADXZ 1004dd00 f i libucrtd:output.obj
 0001:0004cd10       ?narrow_null_string@?$output_processor@DV?$string_output_adapter@D@__crt_stdio_output@@V?$format_validation_base@DV?$string_output_adapter@D@__crt_stdio_output@@@2@@__crt_stdio_output@@CAPADXZ 1004dd10 f i libucrtd:output.obj
 0001:0004cd20       ?narrow_null_string@?$output_processor@DV?$string_output_adapter@D@__crt_stdio_output@@V?$positional_parameter_base@DV?$string_output_adapter@D@__crt_stdio_output@@@2@@__crt_stdio_output@@CAPADXZ 1004dd20 f i libucrtd:output.obj
 0001:0004cd30       ?narrow_null_string@?$output_processor@DV?$string_output_adapter@D@__crt_stdio_output@@V?$standard_base@DV?$string_output_adapter@D@__crt_stdio_output@@@2@@__crt_stdio_output@@CAPADXZ 1004dd30 f i libucrtd:output.obj
 0001:0004cd40       ?narrow_null_string@?$output_processor@_WV?$stream_output_adapter@_W@__crt_stdio_output@@V?$format_validation_base@_WV?$stream_output_adapter@_W@__crt_stdio_output@@@2@@__crt_stdio_output@@CAPADXZ 1004dd40 f i libucrtd:output.obj
 0001:0004cd50       ?narrow_null_string@?$output_processor@_WV?$stream_output_adapter@_W@__crt_stdio_output@@V?$positional_parameter_base@_WV?$stream_output_adapter@_W@__crt_stdio_output@@@2@@__crt_stdio_output@@CAPADXZ 1004dd50 f i libucrtd:output.obj
 0001:0004cd60       ?narrow_null_string@?$output_processor@_WV?$stream_output_adapter@_W@__crt_stdio_output@@V?$standard_base@_WV?$stream_output_adapter@_W@__crt_stdio_output@@@2@@__crt_stdio_output@@CAPADXZ 1004dd60 f i libucrtd:output.obj
 0001:0004cd70       ?narrow_null_string@?$output_processor@_WV?$string_output_adapter@_W@__crt_stdio_output@@V?$format_validation_base@_WV?$string_output_adapter@_W@__crt_stdio_output@@@2@@__crt_stdio_output@@CAPADXZ 1004dd70 f i libucrtd:output.obj
 0001:0004cd80       ?narrow_null_string@?$output_processor@_WV?$string_output_adapter@_W@__crt_stdio_output@@V?$positional_parameter_base@_WV?$string_output_adapter@_W@__crt_stdio_output@@@2@@__crt_stdio_output@@CAPADXZ 1004dd80 f i libucrtd:output.obj
 0001:0004cd90       ?narrow_null_string@?$output_processor@_WV?$string_output_adapter@_W@__crt_stdio_output@@V?$standard_base@_WV?$string_output_adapter@_W@__crt_stdio_output@@@2@@__crt_stdio_output@@CAPADXZ 1004dd90 f i libucrtd:output.obj
 0001:0004cda0       ?parse_int_from_format_string@?$output_processor@DV?$stream_output_adapter@D@__crt_stdio_output@@V?$format_validation_base@DV?$stream_output_adapter@D@__crt_stdio_output@@@2@@__crt_stdio_output@@AAE_NQAH@Z 1004dda0 f i libucrtd:output.obj
 0001:0004ce60       ?parse_int_from_format_string@?$output_processor@DV?$stream_output_adapter@D@__crt_stdio_output@@V?$positional_parameter_base@DV?$stream_output_adapter@D@__crt_stdio_output@@@2@@__crt_stdio_output@@AAE_NQAH@Z 1004de60 f i libucrtd:output.obj
 0001:0004cf20       ?parse_int_from_format_string@?$output_processor@DV?$stream_output_adapter@D@__crt_stdio_output@@V?$standard_base@DV?$stream_output_adapter@D@__crt_stdio_output@@@2@@__crt_stdio_output@@AAE_NQAH@Z 1004df20 f i libucrtd:output.obj
 0001:0004cfe0       ?parse_int_from_format_string@?$output_processor@DV?$string_output_adapter@D@__crt_stdio_output@@V?$format_validation_base@DV?$string_output_adapter@D@__crt_stdio_output@@@2@@__crt_stdio_output@@AAE_NQAH@Z 1004dfe0 f i libucrtd:output.obj
 0001:0004d0a0       ?parse_int_from_format_string@?$output_processor@DV?$string_output_adapter@D@__crt_stdio_output@@V?$positional_parameter_base@DV?$string_output_adapter@D@__crt_stdio_output@@@2@@__crt_stdio_output@@AAE_NQAH@Z 1004e0a0 f i libucrtd:output.obj
 0001:0004d160       ?parse_int_from_format_string@?$output_processor@DV?$string_output_adapter@D@__crt_stdio_output@@V?$standard_base@DV?$string_output_adapter@D@__crt_stdio_output@@@2@@__crt_stdio_output@@AAE_NQAH@Z 1004e160 f i libucrtd:output.obj
 0001:0004d220       ?parse_int_from_format_string@?$output_processor@_WV?$stream_output_adapter@_W@__crt_stdio_output@@V?$format_validation_base@_WV?$stream_output_adapter@_W@__crt_stdio_output@@@2@@__crt_stdio_output@@AAE_NQAH@Z 1004e220 f i libucrtd:output.obj
 0001:0004d2e0       ?parse_int_from_format_string@?$output_processor@_WV?$stream_output_adapter@_W@__crt_stdio_output@@V?$positional_parameter_base@_WV?$stream_output_adapter@_W@__crt_stdio_output@@@2@@__crt_stdio_output@@AAE_NQAH@Z 1004e2e0 f i libucrtd:output.obj
 0001:0004d3a0       ?parse_int_from_format_string@?$output_processor@_WV?$stream_output_adapter@_W@__crt_stdio_output@@V?$standard_base@_WV?$stream_output_adapter@_W@__crt_stdio_output@@@2@@__crt_stdio_output@@AAE_NQAH@Z 1004e3a0 f i libucrtd:output.obj
 0001:0004d460       ?parse_int_from_format_string@?$output_processor@_WV?$string_output_adapter@_W@__crt_stdio_output@@V?$format_validation_base@_WV?$string_output_adapter@_W@__crt_stdio_output@@@2@@__crt_stdio_output@@AAE_NQAH@Z 1004e460 f i libucrtd:output.obj
 0001:0004d520       ?parse_int_from_format_string@?$output_processor@_WV?$string_output_adapter@_W@__crt_stdio_output@@V?$positional_parameter_base@_WV?$string_output_adapter@_W@__crt_stdio_output@@@2@@__crt_stdio_output@@AAE_NQAH@Z 1004e520 f i libucrtd:output.obj
 0001:0004d5e0       ?parse_int_from_format_string@?$output_processor@_WV?$string_output_adapter@_W@__crt_stdio_output@@V?$standard_base@_WV?$string_output_adapter@_W@__crt_stdio_output@@@2@@__crt_stdio_output@@AAE_NQAH@Z 1004e5e0 f i libucrtd:output.obj
 0001:0004d6a0       ?process@?$output_processor@DV?$stream_output_adapter@D@__crt_stdio_output@@V?$format_validation_base@DV?$stream_output_adapter@D@__crt_stdio_output@@@2@@__crt_stdio_output@@QAEHXZ 1004e6a0 f i libucrtd:output.obj
 0001:0004d950       ?process@?$output_processor@DV?$stream_output_adapter@D@__crt_stdio_output@@V?$positional_parameter_base@DV?$stream_output_adapter@D@__crt_stdio_output@@@2@@__crt_stdio_output@@QAEHXZ 1004e950 f i libucrtd:output.obj
 0001:0004dc00       ?process@?$output_processor@DV?$stream_output_adapter@D@__crt_stdio_output@@V?$standard_base@DV?$stream_output_adapter@D@__crt_stdio_output@@@2@@__crt_stdio_output@@QAEHXZ 1004ec00 f i libucrtd:output.obj
 0001:0004deb0       ?process@?$output_processor@DV?$string_output_adapter@D@__crt_stdio_output@@V?$format_validation_base@DV?$string_output_adapter@D@__crt_stdio_output@@@2@@__crt_stdio_output@@QAEHXZ 1004eeb0 f i libucrtd:output.obj
 0001:0004e160       ?process@?$output_processor@DV?$string_output_adapter@D@__crt_stdio_output@@V?$positional_parameter_base@DV?$string_output_adapter@D@__crt_stdio_output@@@2@@__crt_stdio_output@@QAEHXZ 1004f160 f i libucrtd:output.obj
 0001:0004e410       ?process@?$output_processor@DV?$string_output_adapter@D@__crt_stdio_output@@V?$standard_base@DV?$string_output_adapter@D@__crt_stdio_output@@@2@@__crt_stdio_output@@QAEHXZ 1004f410 f i libucrtd:output.obj
 0001:0004e6c0       ?process@?$output_processor@_WV?$stream_output_adapter@_W@__crt_stdio_output@@V?$format_validation_base@_WV?$stream_output_adapter@_W@__crt_stdio_output@@@2@@__crt_stdio_output@@QAEHXZ 1004f6c0 f i libucrtd:output.obj
 0001:0004e970       ?process@?$output_processor@_WV?$stream_output_adapter@_W@__crt_stdio_output@@V?$positional_parameter_base@_WV?$stream_output_adapter@_W@__crt_stdio_output@@@2@@__crt_stdio_output@@QAEHXZ 1004f970 f i libucrtd:output.obj
 0001:0004ec20       ?process@?$output_processor@_WV?$stream_output_adapter@_W@__crt_stdio_output@@V?$standard_base@_WV?$stream_output_adapter@_W@__crt_stdio_output@@@2@@__crt_stdio_output@@QAEHXZ 1004fc20 f i libucrtd:output.obj
 0001:0004eed0       ?process@?$output_processor@_WV?$string_output_adapter@_W@__crt_stdio_output@@V?$format_validation_base@_WV?$string_output_adapter@_W@__crt_stdio_output@@@2@@__crt_stdio_output@@QAEHXZ 1004fed0 f i libucrtd:output.obj
 0001:0004f180       ?process@?$output_processor@_WV?$string_output_adapter@_W@__crt_stdio_output@@V?$positional_parameter_base@_WV?$string_output_adapter@_W@__crt_stdio_output@@@2@@__crt_stdio_output@@QAEHXZ 10050180 f i libucrtd:output.obj
 0001:0004f430       ?process@?$output_processor@_WV?$string_output_adapter@_W@__crt_stdio_output@@V?$standard_base@_WV?$string_output_adapter@_W@__crt_stdio_output@@@2@@__crt_stdio_output@@QAEHXZ 10050430 f i libucrtd:output.obj
 0001:0004f6e0       ?public_stream@__crt_stdio_stream@@QBEPAU_iobuf@@XZ 100506e0 f i libucrtd:output.obj
 0001:0004f700       ?set_flag@?$output_processor@DV?$stream_output_adapter@D@__crt_stdio_output@@V?$format_validation_base@DV?$stream_output_adapter@D@__crt_stdio_output@@@2@@__crt_stdio_output@@AAEXI@Z 10050700 f i libucrtd:output.obj
 0001:0004f720       ?set_flag@?$output_processor@DV?$stream_output_adapter@D@__crt_stdio_output@@V?$positional_parameter_base@DV?$stream_output_adapter@D@__crt_stdio_output@@@2@@__crt_stdio_output@@AAEXI@Z 10050720 f i libucrtd:output.obj
 0001:0004f740       ?set_flag@?$output_processor@DV?$stream_output_adapter@D@__crt_stdio_output@@V?$standard_base@DV?$stream_output_adapter@D@__crt_stdio_output@@@2@@__crt_stdio_output@@AAEXI@Z 10050740 f i libucrtd:output.obj
 0001:0004f760       ?set_flag@?$output_processor@DV?$string_output_adapter@D@__crt_stdio_output@@V?$format_validation_base@DV?$string_output_adapter@D@__crt_stdio_output@@@2@@__crt_stdio_output@@AAEXI@Z 10050760 f i libucrtd:output.obj
 0001:0004f780       ?set_flag@?$output_processor@DV?$string_output_adapter@D@__crt_stdio_output@@V?$positional_parameter_base@DV?$string_output_adapter@D@__crt_stdio_output@@@2@@__crt_stdio_output@@AAEXI@Z 10050780 f i libucrtd:output.obj
 0001:0004f7a0       ?set_flag@?$output_processor@DV?$string_output_adapter@D@__crt_stdio_output@@V?$standard_base@DV?$string_output_adapter@D@__crt_stdio_output@@@2@@__crt_stdio_output@@AAEXI@Z 100507a0 f i libucrtd:output.obj
 0001:0004f7c0       ?set_flag@?$output_processor@_WV?$stream_output_adapter@_W@__crt_stdio_output@@V?$format_validation_base@_WV?$stream_output_adapter@_W@__crt_stdio_output@@@2@@__crt_stdio_output@@AAEXI@Z 100507c0 f i libucrtd:output.obj
 0001:0004f7e0       ?set_flag@?$output_processor@_WV?$stream_output_adapter@_W@__crt_stdio_output@@V?$positional_parameter_base@_WV?$stream_output_adapter@_W@__crt_stdio_output@@@2@@__crt_stdio_output@@AAEXI@Z 100507e0 f i libucrtd:output.obj
 0001:0004f800       ?set_flag@?$output_processor@_WV?$stream_output_adapter@_W@__crt_stdio_output@@V?$standard_base@_WV?$stream_output_adapter@_W@__crt_stdio_output@@@2@@__crt_stdio_output@@AAEXI@Z 10050800 f i libucrtd:output.obj
 0001:0004f820       ?set_flag@?$output_processor@_WV?$string_output_adapter@_W@__crt_stdio_output@@V?$format_validation_base@_WV?$string_output_adapter@_W@__crt_stdio_output@@@2@@__crt_stdio_output@@AAEXI@Z 10050820 f i libucrtd:output.obj
 0001:0004f840       ?set_flag@?$output_processor@_WV?$string_output_adapter@_W@__crt_stdio_output@@V?$positional_parameter_base@_WV?$string_output_adapter@_W@__crt_stdio_output@@@2@@__crt_stdio_output@@AAEXI@Z 10050840 f i libucrtd:output.obj
 0001:0004f860       ?set_flag@?$output_processor@_WV?$string_output_adapter@_W@__crt_stdio_output@@V?$standard_base@_WV?$string_output_adapter@_W@__crt_stdio_output@@@2@@__crt_stdio_output@@AAEXI@Z 10050860 f i libucrtd:output.obj
 0001:0004f880       ?should_format@?$positional_parameter_base@DV?$stream_output_adapter@D@__crt_stdio_output@@@__crt_stdio_output@@IAE_NXZ 10050880 f i libucrtd:output.obj
 0001:0004f8c0       ?should_format@?$positional_parameter_base@DV?$string_output_adapter@D@__crt_stdio_output@@@__crt_stdio_output@@IAE_NXZ 100508c0 f i libucrtd:output.obj
 0001:0004f900       ?should_format@?$positional_parameter_base@_WV?$stream_output_adapter@_W@__crt_stdio_output@@@__crt_stdio_output@@IAE_NXZ 10050900 f i libucrtd:output.obj
 0001:0004f940       ?should_format@?$positional_parameter_base@_WV?$string_output_adapter@_W@__crt_stdio_output@@@__crt_stdio_output@@IAE_NXZ 10050940 f i libucrtd:output.obj
 0001:0004f980       ?should_format@?$standard_base@DV?$stream_output_adapter@D@__crt_stdio_output@@@__crt_stdio_output@@IAE_NXZ 10050980 f i libucrtd:output.obj
 0001:0004f990       ?should_format@?$standard_base@DV?$string_output_adapter@D@__crt_stdio_output@@@__crt_stdio_output@@IAE_NXZ 10050990 f i libucrtd:output.obj
 0001:0004f9a0       ?should_format@?$standard_base@_WV?$stream_output_adapter@_W@__crt_stdio_output@@@__crt_stdio_output@@IAE_NXZ 100509a0 f i libucrtd:output.obj
 0001:0004f9b0       ?should_format@?$standard_base@_WV?$string_output_adapter@_W@__crt_stdio_output@@@__crt_stdio_output@@IAE_NXZ 100509b0 f i libucrtd:output.obj
 0001:0004f9c0       ?should_skip_normal_state_processing@?$positional_parameter_base@DV?$stream_output_adapter@D@__crt_stdio_output@@@__crt_stdio_output@@IAE_NXZ 100509c0 f i libucrtd:output.obj
 0001:0004fa10       ?should_skip_normal_state_processing@?$positional_parameter_base@DV?$string_output_adapter@D@__crt_stdio_output@@@__crt_stdio_output@@IAE_NXZ 10050a10 f i libucrtd:output.obj
 0001:0004fa60       ?should_skip_normal_state_processing@?$positional_parameter_base@_WV?$stream_output_adapter@_W@__crt_stdio_output@@@__crt_stdio_output@@IAE_NXZ 10050a60 f i libucrtd:output.obj
 0001:0004fab0       ?should_skip_normal_state_processing@?$positional_parameter_base@_WV?$string_output_adapter@_W@__crt_stdio_output@@@__crt_stdio_output@@IAE_NXZ 10050ab0 f i libucrtd:output.obj
 0001:0004fb00       ?should_skip_normal_state_processing@?$standard_base@DV?$stream_output_adapter@D@__crt_stdio_output@@@__crt_stdio_output@@IAE_NXZ 10050b00 f i libucrtd:output.obj
 0001:0004fb10       ?should_skip_normal_state_processing@?$standard_base@DV?$string_output_adapter@D@__crt_stdio_output@@@__crt_stdio_output@@IAE_NXZ 10050b10 f i libucrtd:output.obj
 0001:0004fb20       ?should_skip_normal_state_processing@?$standard_base@_WV?$stream_output_adapter@_W@__crt_stdio_output@@@__crt_stdio_output@@IAE_NXZ 10050b20 f i libucrtd:output.obj
 0001:0004fb30       ?should_skip_normal_state_processing@?$standard_base@_WV?$string_output_adapter@_W@__crt_stdio_output@@@__crt_stdio_output@@IAE_NXZ 10050b30 f i libucrtd:output.obj
 0001:0004fb40       ?should_skip_type_state_output@?$positional_parameter_base@DV?$stream_output_adapter@D@__crt_stdio_output@@@__crt_stdio_output@@IBE_NXZ 10050b40 f i libucrtd:output.obj
 0001:0004fb80       ?should_skip_type_state_output@?$positional_parameter_base@DV?$string_output_adapter@D@__crt_stdio_output@@@__crt_stdio_output@@IBE_NXZ 10050b80 f i libucrtd:output.obj
 0001:0004fbc0       ?should_skip_type_state_output@?$positional_parameter_base@_WV?$stream_output_adapter@_W@__crt_stdio_output@@@__crt_stdio_output@@IBE_NXZ 10050bc0 f i libucrtd:output.obj
 0001:0004fc00       ?should_skip_type_state_output@?$positional_parameter_base@_WV?$string_output_adapter@_W@__crt_stdio_output@@@__crt_stdio_output@@IBE_NXZ 10050c00 f i libucrtd:output.obj
 0001:0004fc40       ?should_skip_type_state_output@?$standard_base@DV?$stream_output_adapter@D@__crt_stdio_output@@@__crt_stdio_output@@IBE_NXZ 10050c40 f i libucrtd:output.obj
 0001:0004fc50       ?should_skip_type_state_output@?$standard_base@DV?$string_output_adapter@D@__crt_stdio_output@@@__crt_stdio_output@@IBE_NXZ 10050c50 f i libucrtd:output.obj
 0001:0004fc60       ?should_skip_type_state_output@?$standard_base@_WV?$stream_output_adapter@_W@__crt_stdio_output@@@__crt_stdio_output@@IBE_NXZ 10050c60 f i libucrtd:output.obj
 0001:0004fc70       ?should_skip_type_state_output@?$standard_base@_WV?$string_output_adapter@_W@__crt_stdio_output@@@__crt_stdio_output@@IBE_NXZ 10050c70 f i libucrtd:output.obj
 0001:0004fc80       ?state_case_dot@?$output_processor@DV?$stream_output_adapter@D@__crt_stdio_output@@V?$format_validation_base@DV?$stream_output_adapter@D@__crt_stdio_output@@@2@@__crt_stdio_output@@AAE_NXZ 10050c80 f i libucrtd:output.obj
 0001:0004fca0       ?state_case_dot@?$output_processor@DV?$stream_output_adapter@D@__crt_stdio_output@@V?$positional_parameter_base@DV?$stream_output_adapter@D@__crt_stdio_output@@@2@@__crt_stdio_output@@AAE_NXZ 10050ca0 f i libucrtd:output.obj
 0001:0004fcc0       ?state_case_dot@?$output_processor@DV?$stream_output_adapter@D@__crt_stdio_output@@V?$standard_base@DV?$stream_output_adapter@D@__crt_stdio_output@@@2@@__crt_stdio_output@@AAE_NXZ 10050cc0 f i libucrtd:output.obj
 0001:0004fce0       ?state_case_dot@?$output_processor@DV?$string_output_adapter@D@__crt_stdio_output@@V?$format_validation_base@DV?$string_output_adapter@D@__crt_stdio_output@@@2@@__crt_stdio_output@@AAE_NXZ 10050ce0 f i libucrtd:output.obj
 0001:0004fd00       ?state_case_dot@?$output_processor@DV?$string_output_adapter@D@__crt_stdio_output@@V?$positional_parameter_base@DV?$string_output_adapter@D@__crt_stdio_output@@@2@@__crt_stdio_output@@AAE_NXZ 10050d00 f i libucrtd:output.obj
 0001:0004fd20       ?state_case_dot@?$output_processor@DV?$string_output_adapter@D@__crt_stdio_output@@V?$standard_base@DV?$string_output_adapter@D@__crt_stdio_output@@@2@@__crt_stdio_output@@AAE_NXZ 10050d20 f i libucrtd:output.obj
 0001:0004fd40       ?state_case_dot@?$output_processor@_WV?$stream_output_adapter@_W@__crt_stdio_output@@V?$format_validation_base@_WV?$stream_output_adapter@_W@__crt_stdio_output@@@2@@__crt_stdio_output@@AAE_NXZ 10050d40 f i libucrtd:output.obj
 0001:0004fd60       ?state_case_dot@?$output_processor@_WV?$stream_output_adapter@_W@__crt_stdio_output@@V?$positional_parameter_base@_WV?$stream_output_adapter@_W@__crt_stdio_output@@@2@@__crt_stdio_output@@AAE_NXZ 10050d60 f i libucrtd:output.obj
 0001:0004fd80       ?state_case_dot@?$output_processor@_WV?$stream_output_adapter@_W@__crt_stdio_output@@V?$standard_base@_WV?$stream_output_adapter@_W@__crt_stdio_output@@@2@@__crt_stdio_output@@AAE_NXZ 10050d80 f i libucrtd:output.obj
 0001:0004fda0       ?state_case_dot@?$output_processor@_WV?$string_output_adapter@_W@__crt_stdio_output@@V?$format_validation_base@_WV?$string_output_adapter@_W@__crt_stdio_output@@@2@@__crt_stdio_output@@AAE_NXZ 10050da0 f i libucrtd:output.obj
 0001:0004fdc0       ?state_case_dot@?$output_processor@_WV?$string_output_adapter@_W@__crt_stdio_output@@V?$positional_parameter_base@_WV?$string_output_adapter@_W@__crt_stdio_output@@@2@@__crt_stdio_output@@AAE_NXZ 10050dc0 f i libucrtd:output.obj
 0001:0004fde0       ?state_case_dot@?$output_processor@_WV?$string_output_adapter@_W@__crt_stdio_output@@V?$standard_base@_WV?$string_output_adapter@_W@__crt_stdio_output@@@2@@__crt_stdio_output@@AAE_NXZ 10050de0 f i libucrtd:output.obj
 0001:0004fe00       ?state_case_flag@?$output_processor@DV?$stream_output_adapter@D@__crt_stdio_output@@V?$format_validation_base@DV?$stream_output_adapter@D@__crt_stdio_output@@@2@@__crt_stdio_output@@AAE_NXZ 10050e00 f i libucrtd:output.obj
 0001:0004feb0       ?state_case_flag@?$output_processor@DV?$stream_output_adapter@D@__crt_stdio_output@@V?$positional_parameter_base@DV?$stream_output_adapter@D@__crt_stdio_output@@@2@@__crt_stdio_output@@AAE_NXZ 10050eb0 f i libucrtd:output.obj
 0001:0004ff60       ?state_case_flag@?$output_processor@DV?$stream_output_adapter@D@__crt_stdio_output@@V?$standard_base@DV?$stream_output_adapter@D@__crt_stdio_output@@@2@@__crt_stdio_output@@AAE_NXZ 10050f60 f i libucrtd:output.obj
 0001:00050010       ?state_case_flag@?$output_processor@DV?$string_output_adapter@D@__crt_stdio_output@@V?$format_validation_base@DV?$string_output_adapter@D@__crt_stdio_output@@@2@@__crt_stdio_output@@AAE_NXZ 10051010 f i libucrtd:output.obj
 0001:000500c0       ?state_case_flag@?$output_processor@DV?$string_output_adapter@D@__crt_stdio_output@@V?$positional_parameter_base@DV?$string_output_adapter@D@__crt_stdio_output@@@2@@__crt_stdio_output@@AAE_NXZ 100510c0 f i libucrtd:output.obj
 0001:00050170       ?state_case_flag@?$output_processor@DV?$string_output_adapter@D@__crt_stdio_output@@V?$standard_base@DV?$string_output_adapter@D@__crt_stdio_output@@@2@@__crt_stdio_output@@AAE_NXZ 10051170 f i libucrtd:output.obj
 0001:00050220       ?state_case_flag@?$output_processor@_WV?$stream_output_adapter@_W@__crt_stdio_output@@V?$format_validation_base@_WV?$stream_output_adapter@_W@__crt_stdio_output@@@2@@__crt_stdio_output@@AAE_NXZ 10051220 f i libucrtd:output.obj
 0001:000502d0       ?state_case_flag@?$output_processor@_WV?$stream_output_adapter@_W@__crt_stdio_output@@V?$positional_parameter_base@_WV?$stream_output_adapter@_W@__crt_stdio_output@@@2@@__crt_stdio_output@@AAE_NXZ 100512d0 f i libucrtd:output.obj
 0001:00050380       ?state_case_flag@?$output_processor@_WV?$stream_output_adapter@_W@__crt_stdio_output@@V?$standard_base@_WV?$stream_output_adapter@_W@__crt_stdio_output@@@2@@__crt_stdio_output@@AAE_NXZ 10051380 f i libucrtd:output.obj
 0001:00050430       ?state_case_flag@?$output_processor@_WV?$string_output_adapter@_W@__crt_stdio_output@@V?$format_validation_base@_WV?$string_output_adapter@_W@__crt_stdio_output@@@2@@__crt_stdio_output@@AAE_NXZ 10051430 f i libucrtd:output.obj
 0001:000504e0       ?state_case_flag@?$output_processor@_WV?$string_output_adapter@_W@__crt_stdio_output@@V?$positional_parameter_base@_WV?$string_output_adapter@_W@__crt_stdio_output@@@2@@__crt_stdio_output@@AAE_NXZ 100514e0 f i libucrtd:output.obj
 0001:00050590       ?state_case_flag@?$output_processor@_WV?$string_output_adapter@_W@__crt_stdio_output@@V?$standard_base@_WV?$string_output_adapter@_W@__crt_stdio_output@@@2@@__crt_stdio_output@@AAE_NXZ 10051590 f i libucrtd:output.obj
 0001:00050640       ?state_case_normal@?$output_processor@DV?$stream_output_adapter@D@__crt_stdio_output@@V?$format_validation_base@DV?$stream_output_adapter@D@__crt_stdio_output@@@2@@__crt_stdio_output@@AAE_NXZ 10051640 f i libucrtd:output.obj
 0001:000506f0       ?state_case_normal@?$output_processor@DV?$stream_output_adapter@D@__crt_stdio_output@@V?$positional_parameter_base@DV?$stream_output_adapter@D@__crt_stdio_output@@@2@@__crt_stdio_output@@AAE_NXZ 100516f0 f i libucrtd:output.obj
 0001:000507a0       ?state_case_normal@?$output_processor@DV?$stream_output_adapter@D@__crt_stdio_output@@V?$standard_base@DV?$stream_output_adapter@D@__crt_stdio_output@@@2@@__crt_stdio_output@@AAE_NXZ 100517a0 f i libucrtd:output.obj
 0001:00050850       ?state_case_normal@?$output_processor@DV?$string_output_adapter@D@__crt_stdio_output@@V?$format_validation_base@DV?$string_output_adapter@D@__crt_stdio_output@@@2@@__crt_stdio_output@@AAE_NXZ 10051850 f i libucrtd:output.obj
 0001:00050900       ?state_case_normal@?$output_processor@DV?$string_output_adapter@D@__crt_stdio_output@@V?$positional_parameter_base@DV?$string_output_adapter@D@__crt_stdio_output@@@2@@__crt_stdio_output@@AAE_NXZ 10051900 f i libucrtd:output.obj
 0001:000509b0       ?state_case_normal@?$output_processor@DV?$string_output_adapter@D@__crt_stdio_output@@V?$standard_base@DV?$string_output_adapter@D@__crt_stdio_output@@@2@@__crt_stdio_output@@AAE_NXZ 100519b0 f i libucrtd:output.obj
 0001:00050a60       ?state_case_normal@?$output_processor@_WV?$stream_output_adapter@_W@__crt_stdio_output@@V?$format_validation_base@_WV?$stream_output_adapter@_W@__crt_stdio_output@@@2@@__crt_stdio_output@@AAE_NXZ 10051a60 f i libucrtd:output.obj
 0001:00050b10       ?state_case_normal@?$output_processor@_WV?$stream_output_adapter@_W@__crt_stdio_output@@V?$positional_parameter_base@_WV?$stream_output_adapter@_W@__crt_stdio_output@@@2@@__crt_stdio_output@@AAE_NXZ 10051b10 f i libucrtd:output.obj
 0001:00050bc0       ?state_case_normal@?$output_processor@_WV?$stream_output_adapter@_W@__crt_stdio_output@@V?$standard_base@_WV?$stream_output_adapter@_W@__crt_stdio_output@@@2@@__crt_stdio_output@@AAE_NXZ 10051bc0 f i libucrtd:output.obj
 0001:00050c70       ?state_case_normal@?$output_processor@_WV?$string_output_adapter@_W@__crt_stdio_output@@V?$format_validation_base@_WV?$string_output_adapter@_W@__crt_stdio_output@@@2@@__crt_stdio_output@@AAE_NXZ 10051c70 f i libucrtd:output.obj
 0001:00050d20       ?state_case_normal@?$output_processor@_WV?$string_output_adapter@_W@__crt_stdio_output@@V?$positional_parameter_base@_WV?$string_output_adapter@_W@__crt_stdio_output@@@2@@__crt_stdio_output@@AAE_NXZ 10051d20 f i libucrtd:output.obj
 0001:00050dd0       ?state_case_normal@?$output_processor@_WV?$string_output_adapter@_W@__crt_stdio_output@@V?$standard_base@_WV?$string_output_adapter@_W@__crt_stdio_output@@@2@@__crt_stdio_output@@AAE_NXZ 10051dd0 f i libucrtd:output.obj
 0001:00050e80       ?state_case_normal_common@?$output_processor@DV?$stream_output_adapter@D@__crt_stdio_output@@V?$format_validation_base@DV?$stream_output_adapter@D@__crt_stdio_output@@@2@@__crt_stdio_output@@AAE_NXZ 10051e80 f i libucrtd:output.obj
 0001:00050ed0       ?state_case_normal_common@?$output_processor@DV?$stream_output_adapter@D@__crt_stdio_output@@V?$positional_parameter_base@DV?$stream_output_adapter@D@__crt_stdio_output@@@2@@__crt_stdio_output@@AAE_NXZ 10051ed0 f i libucrtd:output.obj
 0001:00050f20       ?state_case_normal_common@?$output_processor@DV?$stream_output_adapter@D@__crt_stdio_output@@V?$standard_base@DV?$stream_output_adapter@D@__crt_stdio_output@@@2@@__crt_stdio_output@@AAE_NXZ 10051f20 f i libucrtd:output.obj
 0001:00050f70       ?state_case_normal_common@?$output_processor@DV?$string_output_adapter@D@__crt_stdio_output@@V?$format_validation_base@DV?$string_output_adapter@D@__crt_stdio_output@@@2@@__crt_stdio_output@@AAE_NXZ 10051f70 f i libucrtd:output.obj
 0001:00050fc0       ?state_case_normal_common@?$output_processor@DV?$string_output_adapter@D@__crt_stdio_output@@V?$positional_parameter_base@DV?$string_output_adapter@D@__crt_stdio_output@@@2@@__crt_stdio_output@@AAE_NXZ 10051fc0 f i libucrtd:output.obj
 0001:00051010       ?state_case_normal_common@?$output_processor@DV?$string_output_adapter@D@__crt_stdio_output@@V?$standard_base@DV?$string_output_adapter@D@__crt_stdio_output@@@2@@__crt_stdio_output@@AAE_NXZ 10052010 f i libucrtd:output.obj
 0001:00051060       ?state_case_normal_common@?$output_processor@_WV?$stream_output_adapter@_W@__crt_stdio_output@@V?$format_validation_base@_WV?$stream_output_adapter@_W@__crt_stdio_output@@@2@@__crt_stdio_output@@AAE_NXZ 10052060 f i libucrtd:output.obj
 0001:000510b0       ?state_case_normal_common@?$output_processor@_WV?$stream_output_adapter@_W@__crt_stdio_output@@V?$positional_parameter_base@_WV?$stream_output_adapter@_W@__crt_stdio_output@@@2@@__crt_stdio_output@@AAE_NXZ 100520b0 f i libucrtd:output.obj
 0001:00051100       ?state_case_normal_common@?$output_processor@_WV?$stream_output_adapter@_W@__crt_stdio_output@@V?$standard_base@_WV?$stream_output_adapter@_W@__crt_stdio_output@@@2@@__crt_stdio_output@@AAE_NXZ 10052100 f i libucrtd:output.obj
 0001:00051150       ?state_case_normal_common@?$output_processor@_WV?$string_output_adapter@_W@__crt_stdio_output@@V?$format_validation_base@_WV?$string_output_adapter@_W@__crt_stdio_output@@@2@@__crt_stdio_output@@AAE_NXZ 10052150 f i libucrtd:output.obj
 0001:000511a0       ?state_case_normal_common@?$output_processor@_WV?$string_output_adapter@_W@__crt_stdio_output@@V?$positional_parameter_base@_WV?$string_output_adapter@_W@__crt_stdio_output@@@2@@__crt_stdio_output@@AAE_NXZ 100521a0 f i libucrtd:output.obj
 0001:000511f0       ?state_case_normal_common@?$output_processor@_WV?$string_output_adapter@_W@__crt_stdio_output@@V?$standard_base@_WV?$string_output_adapter@_W@__crt_stdio_output@@@2@@__crt_stdio_output@@AAE_NXZ 100521f0 f i libucrtd:output.obj
 0001:00051240       ?state_case_normal_tchar@?$output_processor@DV?$stream_output_adapter@D@__crt_stdio_output@@V?$format_validation_base@DV?$stream_output_adapter@D@__crt_stdio_output@@@2@@__crt_stdio_output@@AAE_ND@Z 10052240 f i libucrtd:output.obj
 0001:00051340       ?state_case_normal_tchar@?$output_processor@DV?$stream_output_adapter@D@__crt_stdio_output@@V?$positional_parameter_base@DV?$stream_output_adapter@D@__crt_stdio_output@@@2@@__crt_stdio_output@@AAE_ND@Z 10052340 f i libucrtd:output.obj
 0001:00051440       ?state_case_normal_tchar@?$output_processor@DV?$stream_output_adapter@D@__crt_stdio_output@@V?$standard_base@DV?$stream_output_adapter@D@__crt_stdio_output@@@2@@__crt_stdio_output@@AAE_ND@Z 10052440 f i libucrtd:output.obj
 0001:00051540       ?state_case_normal_tchar@?$output_processor@DV?$string_output_adapter@D@__crt_stdio_output@@V?$format_validation_base@DV?$string_output_adapter@D@__crt_stdio_output@@@2@@__crt_stdio_output@@AAE_ND@Z 10052540 f i libucrtd:output.obj
 0001:00051640       ?state_case_normal_tchar@?$output_processor@DV?$string_output_adapter@D@__crt_stdio_output@@V?$positional_parameter_base@DV?$string_output_adapter@D@__crt_stdio_output@@@2@@__crt_stdio_output@@AAE_ND@Z 10052640 f i libucrtd:output.obj
 0001:00051740       ?state_case_normal_tchar@?$output_processor@DV?$string_output_adapter@D@__crt_stdio_output@@V?$standard_base@DV?$string_output_adapter@D@__crt_stdio_output@@@2@@__crt_stdio_output@@AAE_ND@Z 10052740 f i libucrtd:output.obj
 0001:00051840       ?state_case_normal_tchar@?$output_processor@_WV?$stream_output_adapter@_W@__crt_stdio_output@@V?$format_validation_base@_WV?$stream_output_adapter@_W@__crt_stdio_output@@@2@@__crt_stdio_output@@AAE_N_W@Z 10052840 f i libucrtd:output.obj
 0001:00051860       ?state_case_normal_tchar@?$output_processor@_WV?$stream_output_adapter@_W@__crt_stdio_output@@V?$positional_parameter_base@_WV?$stream_output_adapter@_W@__crt_stdio_output@@@2@@__crt_stdio_output@@AAE_N_W@Z 10052860 f i libucrtd:output.obj
 0001:00051880       ?state_case_normal_tchar@?$output_processor@_WV?$stream_output_adapter@_W@__crt_stdio_output@@V?$standard_base@_WV?$stream_output_adapter@_W@__crt_stdio_output@@@2@@__crt_stdio_output@@AAE_N_W@Z 10052880 f i libucrtd:output.obj
 0001:000518a0       ?state_case_normal_tchar@?$output_processor@_WV?$string_output_adapter@_W@__crt_stdio_output@@V?$format_validation_base@_WV?$string_output_adapter@_W@__crt_stdio_output@@@2@@__crt_stdio_output@@AAE_N_W@Z 100528a0 f i libucrtd:output.obj
 0001:000518c0       ?state_case_normal_tchar@?$output_processor@_WV?$string_output_adapter@_W@__crt_stdio_output@@V?$positional_parameter_base@_WV?$string_output_adapter@_W@__crt_stdio_output@@@2@@__crt_stdio_output@@AAE_N_W@Z 100528c0 f i libucrtd:output.obj
 0001:000518e0       ?state_case_normal_tchar@?$output_processor@_WV?$string_output_adapter@_W@__crt_stdio_output@@V?$standard_base@_WV?$string_output_adapter@_W@__crt_stdio_output@@@2@@__crt_stdio_output@@AAE_N_W@Z 100528e0 f i libucrtd:output.obj
 0001:00051900       ?state_case_percent@?$output_processor@DV?$stream_output_adapter@D@__crt_stdio_output@@V?$format_validation_base@DV?$stream_output_adapter@D@__crt_stdio_output@@@2@@__crt_stdio_output@@AAE_NXZ 10052900 f i libucrtd:output.obj
 0001:00051950       ?state_case_percent@?$output_processor@DV?$stream_output_adapter@D@__crt_stdio_output@@V?$positional_parameter_base@DV?$stream_output_adapter@D@__crt_stdio_output@@@2@@__crt_stdio_output@@AAE_NXZ 10052950 f i libucrtd:output.obj
 0001:000519a0       ?state_case_percent@?$output_processor@DV?$stream_output_adapter@D@__crt_stdio_output@@V?$standard_base@DV?$stream_output_adapter@D@__crt_stdio_output@@@2@@__crt_stdio_output@@AAE_NXZ 100529a0 f i libucrtd:output.obj
 0001:000519f0       ?state_case_percent@?$output_processor@DV?$string_output_adapter@D@__crt_stdio_output@@V?$format_validation_base@DV?$string_output_adapter@D@__crt_stdio_output@@@2@@__crt_stdio_output@@AAE_NXZ 100529f0 f i libucrtd:output.obj
 0001:00051a40       ?state_case_percent@?$output_processor@DV?$string_output_adapter@D@__crt_stdio_output@@V?$positional_parameter_base@DV?$string_output_adapter@D@__crt_stdio_output@@@2@@__crt_stdio_output@@AAE_NXZ 10052a40 f i libucrtd:output.obj
 0001:00051a90       ?state_case_percent@?$output_processor@DV?$string_output_adapter@D@__crt_stdio_output@@V?$standard_base@DV?$string_output_adapter@D@__crt_stdio_output@@@2@@__crt_stdio_output@@AAE_NXZ 10052a90 f i libucrtd:output.obj
 0001:00051ae0       ?state_case_percent@?$output_processor@_WV?$stream_output_adapter@_W@__crt_stdio_output@@V?$format_validation_base@_WV?$stream_output_adapter@_W@__crt_stdio_output@@@2@@__crt_stdio_output@@AAE_NXZ 10052ae0 f i libucrtd:output.obj
 0001:00051b30       ?state_case_percent@?$output_processor@_WV?$stream_output_adapter@_W@__crt_stdio_output@@V?$positional_parameter_base@_WV?$stream_output_adapter@_W@__crt_stdio_output@@@2@@__crt_stdio_output@@AAE_NXZ 10052b30 f i libucrtd:output.obj
 0001:00051b80       ?state_case_percent@?$output_processor@_WV?$stream_output_adapter@_W@__crt_stdio_output@@V?$standard_base@_WV?$stream_output_adapter@_W@__crt_stdio_output@@@2@@__crt_stdio_output@@AAE_NXZ 10052b80 f i libucrtd:output.obj
 0001:00051bd0       ?state_case_percent@?$output_processor@_WV?$string_output_adapter@_W@__crt_stdio_output@@V?$format_validation_base@_WV?$string_output_adapter@_W@__crt_stdio_output@@@2@@__crt_stdio_output@@AAE_NXZ 10052bd0 f i libucrtd:output.obj
 0001:00051c20       ?state_case_percent@?$output_processor@_WV?$string_output_adapter@_W@__crt_stdio_output@@V?$positional_parameter_base@_WV?$string_output_adapter@_W@__crt_stdio_output@@@2@@__crt_stdio_output@@AAE_NXZ 10052c20 f i libucrtd:output.obj
 0001:00051c70       ?state_case_percent@?$output_processor@_WV?$string_output_adapter@_W@__crt_stdio_output@@V?$standard_base@_WV?$string_output_adapter@_W@__crt_stdio_output@@@2@@__crt_stdio_output@@AAE_NXZ 10052c70 f i libucrtd:output.obj
 0001:00051cc0       ?state_case_precision@?$output_processor@DV?$stream_output_adapter@D@__crt_stdio_output@@V?$format_validation_base@DV?$stream_output_adapter@D@__crt_stdio_output@@@2@@__crt_stdio_output@@AAE_NXZ 10052cc0 f i libucrtd:output.obj
 0001:00051d30       ?state_case_precision@?$output_processor@DV?$stream_output_adapter@D@__crt_stdio_output@@V?$positional_parameter_base@DV?$stream_output_adapter@D@__crt_stdio_output@@@2@@__crt_stdio_output@@AAE_NXZ 10052d30 f i libucrtd:output.obj
 0001:00051da0       ?state_case_precision@?$output_processor@DV?$stream_output_adapter@D@__crt_stdio_output@@V?$standard_base@DV?$stream_output_adapter@D@__crt_stdio_output@@@2@@__crt_stdio_output@@AAE_NXZ 10052da0 f i libucrtd:output.obj
 0001:00051e10       ?state_case_precision@?$output_processor@DV?$string_output_adapter@D@__crt_stdio_output@@V?$format_validation_base@DV?$string_output_adapter@D@__crt_stdio_output@@@2@@__crt_stdio_output@@AAE_NXZ 10052e10 f i libucrtd:output.obj
 0001:00051e80       ?state_case_precision@?$output_processor@DV?$string_output_adapter@D@__crt_stdio_output@@V?$positional_parameter_base@DV?$string_output_adapter@D@__crt_stdio_output@@@2@@__crt_stdio_output@@AAE_NXZ 10052e80 f i libucrtd:output.obj
 0001:00051ef0       ?state_case_precision@?$output_processor@DV?$string_output_adapter@D@__crt_stdio_output@@V?$standard_base@DV?$string_output_adapter@D@__crt_stdio_output@@@2@@__crt_stdio_output@@AAE_NXZ 10052ef0 f i libucrtd:output.obj
 0001:00051f60       ?state_case_precision@?$output_processor@_WV?$stream_output_adapter@_W@__crt_stdio_output@@V?$format_validation_base@_WV?$stream_output_adapter@_W@__crt_stdio_output@@@2@@__crt_stdio_output@@AAE_NXZ 10052f60 f i libucrtd:output.obj
 0001:00051fd0       ?state_case_precision@?$output_processor@_WV?$stream_output_adapter@_W@__crt_stdio_output@@V?$positional_parameter_base@_WV?$stream_output_adapter@_W@__crt_stdio_output@@@2@@__crt_stdio_output@@AAE_NXZ 10052fd0 f i libucrtd:output.obj
 0001:00052040       ?state_case_precision@?$output_processor@_WV?$stream_output_adapter@_W@__crt_stdio_output@@V?$standard_base@_WV?$stream_output_adapter@_W@__crt_stdio_output@@@2@@__crt_stdio_output@@AAE_NXZ 10053040 f i libucrtd:output.obj
 0001:000520b0       ?state_case_precision@?$output_processor@_WV?$string_output_adapter@_W@__crt_stdio_output@@V?$format_validation_base@_WV?$string_output_adapter@_W@__crt_stdio_output@@@2@@__crt_stdio_output@@AAE_NXZ 100530b0 f i libucrtd:output.obj
 0001:00052120       ?state_case_precision@?$output_processor@_WV?$string_output_adapter@_W@__crt_stdio_output@@V?$positional_parameter_base@_WV?$string_output_adapter@_W@__crt_stdio_output@@@2@@__crt_stdio_output@@AAE_NXZ 10053120 f i libucrtd:output.obj
 0001:00052190       ?state_case_precision@?$output_processor@_WV?$string_output_adapter@_W@__crt_stdio_output@@V?$standard_base@_WV?$string_output_adapter@_W@__crt_stdio_output@@@2@@__crt_stdio_output@@AAE_NXZ 10053190 f i libucrtd:output.obj
 0001:00052200       ?state_case_size@?$output_processor@DV?$stream_output_adapter@D@__crt_stdio_output@@V?$format_validation_base@DV?$stream_output_adapter@D@__crt_stdio_output@@@2@@__crt_stdio_output@@AAE_NXZ 10053200 f i libucrtd:output.obj
 0001:000525d0       ?state_case_size@?$output_processor@DV?$stream_output_adapter@D@__crt_stdio_output@@V?$positional_parameter_base@DV?$stream_output_adapter@D@__crt_stdio_output@@@2@@__crt_stdio_output@@AAE_NXZ 100535d0 f i libucrtd:output.obj
 0001:000529a0       ?state_case_size@?$output_processor@DV?$stream_output_adapter@D@__crt_stdio_output@@V?$standard_base@DV?$stream_output_adapter@D@__crt_stdio_output@@@2@@__crt_stdio_output@@AAE_NXZ 100539a0 f i libucrtd:output.obj
 0001:00052d70       ?state_case_size@?$output_processor@DV?$string_output_adapter@D@__crt_stdio_output@@V?$format_validation_base@DV?$string_output_adapter@D@__crt_stdio_output@@@2@@__crt_stdio_output@@AAE_NXZ 10053d70 f i libucrtd:output.obj
 0001:00053140       ?state_case_size@?$output_processor@DV?$string_output_adapter@D@__crt_stdio_output@@V?$positional_parameter_base@DV?$string_output_adapter@D@__crt_stdio_output@@@2@@__crt_stdio_output@@AAE_NXZ 10054140 f i libucrtd:output.obj
 0001:00053510       ?state_case_size@?$output_processor@DV?$string_output_adapter@D@__crt_stdio_output@@V?$standard_base@DV?$string_output_adapter@D@__crt_stdio_output@@@2@@__crt_stdio_output@@AAE_NXZ 10054510 f i libucrtd:output.obj
 0001:000538e0       ?state_case_size@?$output_processor@_WV?$stream_output_adapter@_W@__crt_stdio_output@@V?$format_validation_base@_WV?$stream_output_adapter@_W@__crt_stdio_output@@@2@@__crt_stdio_output@@AAE_NXZ 100548e0 f i libucrtd:output.obj
 0001:00053cb0       ?state_case_size@?$output_processor@_WV?$stream_output_adapter@_W@__crt_stdio_output@@V?$positional_parameter_base@_WV?$stream_output_adapter@_W@__crt_stdio_output@@@2@@__crt_stdio_output@@AAE_NXZ 10054cb0 f i libucrtd:output.obj
 0001:00054080       ?state_case_size@?$output_processor@_WV?$stream_output_adapter@_W@__crt_stdio_output@@V?$standard_base@_WV?$stream_output_adapter@_W@__crt_stdio_output@@@2@@__crt_stdio_output@@AAE_NXZ 10055080 f i libucrtd:output.obj
 0001:00054450       ?state_case_size@?$output_processor@_WV?$string_output_adapter@_W@__crt_stdio_output@@V?$format_validation_base@_WV?$string_output_adapter@_W@__crt_stdio_output@@@2@@__crt_stdio_output@@AAE_NXZ 10055450 f i libucrtd:output.obj
 0001:00054820       ?state_case_size@?$output_processor@_WV?$string_output_adapter@_W@__crt_stdio_output@@V?$positional_parameter_base@_WV?$string_output_adapter@_W@__crt_stdio_output@@@2@@__crt_stdio_output@@AAE_NXZ 10055820 f i libucrtd:output.obj
 0001:00054bf0       ?state_case_size@?$output_processor@_WV?$string_output_adapter@_W@__crt_stdio_output@@V?$standard_base@_WV?$string_output_adapter@_W@__crt_stdio_output@@@2@@__crt_stdio_output@@AAE_NXZ 10055bf0 f i libucrtd:output.obj
 0001:00054fc0       ?state_case_type@?$output_processor@DV?$stream_output_adapter@D@__crt_stdio_output@@V?$format_validation_base@DV?$stream_output_adapter@D@__crt_stdio_output@@@2@@__crt_stdio_output@@AAE_NXZ 10055fc0 f i libucrtd:output.obj
 0001:00055370       ?state_case_type@?$output_processor@DV?$stream_output_adapter@D@__crt_stdio_output@@V?$positional_parameter_base@DV?$stream_output_adapter@D@__crt_stdio_output@@@2@@__crt_stdio_output@@AAE_NXZ 10056370 f i libucrtd:output.obj
 0001:00055720       ?state_case_type@?$output_processor@DV?$stream_output_adapter@D@__crt_stdio_output@@V?$standard_base@DV?$stream_output_adapter@D@__crt_stdio_output@@@2@@__crt_stdio_output@@AAE_NXZ 10056720 f i libucrtd:output.obj
 0001:00055ad0       ?state_case_type@?$output_processor@DV?$string_output_adapter@D@__crt_stdio_output@@V?$format_validation_base@DV?$string_output_adapter@D@__crt_stdio_output@@@2@@__crt_stdio_output@@AAE_NXZ 10056ad0 f i libucrtd:output.obj
 0001:00055e80       ?state_case_type@?$output_processor@DV?$string_output_adapter@D@__crt_stdio_output@@V?$positional_parameter_base@DV?$string_output_adapter@D@__crt_stdio_output@@@2@@__crt_stdio_output@@AAE_NXZ 10056e80 f i libucrtd:output.obj
 0001:00056230       ?state_case_type@?$output_processor@DV?$string_output_adapter@D@__crt_stdio_output@@V?$standard_base@DV?$string_output_adapter@D@__crt_stdio_output@@@2@@__crt_stdio_output@@AAE_NXZ 10057230 f i libucrtd:output.obj
 0001:000565e0       ?state_case_type@?$output_processor@_WV?$stream_output_adapter@_W@__crt_stdio_output@@V?$format_validation_base@_WV?$stream_output_adapter@_W@__crt_stdio_output@@@2@@__crt_stdio_output@@AAE_NXZ 100575e0 f i libucrtd:output.obj
 0001:000569c0       ?state_case_type@?$output_processor@_WV?$stream_output_adapter@_W@__crt_stdio_output@@V?$positional_parameter_base@_WV?$stream_output_adapter@_W@__crt_stdio_output@@@2@@__crt_stdio_output@@AAE_NXZ 100579c0 f i libucrtd:output.obj
 0001:00056da0       ?state_case_type@?$output_processor@_WV?$stream_output_adapter@_W@__crt_stdio_output@@V?$standard_base@_WV?$stream_output_adapter@_W@__crt_stdio_output@@@2@@__crt_stdio_output@@AAE_NXZ 10057da0 f i libucrtd:output.obj
 0001:00057180       ?state_case_type@?$output_processor@_WV?$string_output_adapter@_W@__crt_stdio_output@@V?$format_validation_base@_WV?$string_output_adapter@_W@__crt_stdio_output@@@2@@__crt_stdio_output@@AAE_NXZ 10058180 f i libucrtd:output.obj
 0001:00057560       ?state_case_type@?$output_processor@_WV?$string_output_adapter@_W@__crt_stdio_output@@V?$positional_parameter_base@_WV?$string_output_adapter@_W@__crt_stdio_output@@@2@@__crt_stdio_output@@AAE_NXZ 10058560 f i libucrtd:output.obj
 0001:00057940       ?state_case_type@?$output_processor@_WV?$string_output_adapter@_W@__crt_stdio_output@@V?$standard_base@_WV?$string_output_adapter@_W@__crt_stdio_output@@@2@@__crt_stdio_output@@AAE_NXZ 10058940 f i libucrtd:output.obj
 0001:00057d20       ?state_case_width@?$output_processor@DV?$stream_output_adapter@D@__crt_stdio_output@@V?$format_validation_base@DV?$stream_output_adapter@D@__crt_stdio_output@@@2@@__crt_stdio_output@@AAE_NXZ 10058d20 f i libucrtd:output.obj
 0001:00057da0       ?state_case_width@?$output_processor@DV?$stream_output_adapter@D@__crt_stdio_output@@V?$positional_parameter_base@DV?$stream_output_adapter@D@__crt_stdio_output@@@2@@__crt_stdio_output@@AAE_NXZ 10058da0 f i libucrtd:output.obj
 0001:00057e20       ?state_case_width@?$output_processor@DV?$stream_output_adapter@D@__crt_stdio_output@@V?$standard_base@DV?$stream_output_adapter@D@__crt_stdio_output@@@2@@__crt_stdio_output@@AAE_NXZ 10058e20 f i libucrtd:output.obj
 0001:00057ea0       ?state_case_width@?$output_processor@DV?$string_output_adapter@D@__crt_stdio_output@@V?$format_validation_base@DV?$string_output_adapter@D@__crt_stdio_output@@@2@@__crt_stdio_output@@AAE_NXZ 10058ea0 f i libucrtd:output.obj
 0001:00057f20       ?state_case_width@?$output_processor@DV?$string_output_adapter@D@__crt_stdio_output@@V?$positional_parameter_base@DV?$string_output_adapter@D@__crt_stdio_output@@@2@@__crt_stdio_output@@AAE_NXZ 10058f20 f i libucrtd:output.obj
 0001:00057fa0       ?state_case_width@?$output_processor@DV?$string_output_adapter@D@__crt_stdio_output@@V?$standard_base@DV?$string_output_adapter@D@__crt_stdio_output@@@2@@__crt_stdio_output@@AAE_NXZ 10058fa0 f i libucrtd:output.obj
 0001:00058020       ?state_case_width@?$output_processor@_WV?$stream_output_adapter@_W@__crt_stdio_output@@V?$format_validation_base@_WV?$stream_output_adapter@_W@__crt_stdio_output@@@2@@__crt_stdio_output@@AAE_NXZ 10059020 f i libucrtd:output.obj
 0001:000580a0       ?state_case_width@?$output_processor@_WV?$stream_output_adapter@_W@__crt_stdio_output@@V?$positional_parameter_base@_WV?$stream_output_adapter@_W@__crt_stdio_output@@@2@@__crt_stdio_output@@AAE_NXZ 100590a0 f i libucrtd:output.obj
 0001:00058120       ?state_case_width@?$output_processor@_WV?$stream_output_adapter@_W@__crt_stdio_output@@V?$standard_base@_WV?$stream_output_adapter@_W@__crt_stdio_output@@@2@@__crt_stdio_output@@AAE_NXZ 10059120 f i libucrtd:output.obj
 0001:000581a0       ?state_case_width@?$output_processor@_WV?$string_output_adapter@_W@__crt_stdio_output@@V?$format_validation_base@_WV?$string_output_adapter@_W@__crt_stdio_output@@@2@@__crt_stdio_output@@AAE_NXZ 100591a0 f i libucrtd:output.obj
 0001:00058220       ?state_case_width@?$output_processor@_WV?$string_output_adapter@_W@__crt_stdio_output@@V?$positional_parameter_base@_WV?$string_output_adapter@_W@__crt_stdio_output@@@2@@__crt_stdio_output@@AAE_NXZ 10059220 f i libucrtd:output.obj
 0001:000582a0       ?state_case_width@?$output_processor@_WV?$string_output_adapter@_W@__crt_stdio_output@@V?$standard_base@_WV?$string_output_adapter@_W@__crt_stdio_output@@@2@@__crt_stdio_output@@AAE_NXZ 100592a0 f i libucrtd:output.obj
 0001:00058320       ?state_count@?$format_validation_base@DV?$stream_output_adapter@D@__crt_stdio_output@@@__crt_stdio_output@@KAIXZ 10059320 f i libucrtd:output.obj
 0001:00058330       ?state_count@?$format_validation_base@DV?$string_output_adapter@D@__crt_stdio_output@@@__crt_stdio_output@@KAIXZ 10059330 f i libucrtd:output.obj
 0001:00058340       ?state_count@?$format_validation_base@_WV?$stream_output_adapter@_W@__crt_stdio_output@@@__crt_stdio_output@@KAIXZ 10059340 f i libucrtd:output.obj
 0001:00058350       ?state_count@?$format_validation_base@_WV?$string_output_adapter@_W@__crt_stdio_output@@@__crt_stdio_output@@KAIXZ 10059350 f i libucrtd:output.obj
 0001:00058360       ?state_count@?$standard_base@DV?$stream_output_adapter@D@__crt_stdio_output@@@__crt_stdio_output@@KAIXZ 10059360 f i libucrtd:output.obj
 0001:00058370       ?state_count@?$standard_base@DV?$string_output_adapter@D@__crt_stdio_output@@@__crt_stdio_output@@KAIXZ 10059370 f i libucrtd:output.obj
 0001:00058380       ?state_count@?$standard_base@_WV?$stream_output_adapter@_W@__crt_stdio_output@@@__crt_stdio_output@@KAIXZ 10059380 f i libucrtd:output.obj
 0001:00058390       ?state_count@?$standard_base@_WV?$string_output_adapter@_W@__crt_stdio_output@@@__crt_stdio_output@@KAIXZ 10059390 f i libucrtd:output.obj
 0001:000583a0       ?state_transition_table@?$format_validation_base@DV?$stream_output_adapter@D@__crt_stdio_output@@@__crt_stdio_output@@KAPBEXZ 100593a0 f i libucrtd:output.obj
 0001:000583b0       ?state_transition_table@?$format_validation_base@DV?$string_output_adapter@D@__crt_stdio_output@@@__crt_stdio_output@@KAPBEXZ 100593b0 f i libucrtd:output.obj
 0001:000583c0       ?state_transition_table@?$format_validation_base@_WV?$stream_output_adapter@_W@__crt_stdio_output@@@__crt_stdio_output@@KAPBEXZ 100593c0 f i libucrtd:output.obj
 0001:000583d0       ?state_transition_table@?$format_validation_base@_WV?$string_output_adapter@_W@__crt_stdio_output@@@__crt_stdio_output@@KAPBEXZ 100593d0 f i libucrtd:output.obj
 0001:000583e0       ?state_transition_table@?$standard_base@DV?$stream_output_adapter@D@__crt_stdio_output@@@__crt_stdio_output@@KAPBEXZ 100593e0 f i libucrtd:output.obj
 0001:000583f0       ?state_transition_table@?$standard_base@DV?$string_output_adapter@D@__crt_stdio_output@@@__crt_stdio_output@@KAPBEXZ 100593f0 f i libucrtd:output.obj
 0001:00058400       ?state_transition_table@?$standard_base@_WV?$stream_output_adapter@_W@__crt_stdio_output@@@__crt_stdio_output@@KAPBEXZ 10059400 f i libucrtd:output.obj
 0001:00058410       ?state_transition_table@?$standard_base@_WV?$string_output_adapter@_W@__crt_stdio_output@@@__crt_stdio_output@@KAPBEXZ 10059410 f i libucrtd:output.obj
 0001:00058420       ?tchar_string@?$common_data@D@__crt_stdio_output@@IAEAAPADD@Z 10059420 f i libucrtd:output.obj
 0001:00058440       ?tchar_string@?$common_data@D@__crt_stdio_output@@IAEAAPADXZ 10059440 f i libucrtd:output.obj
 0001:00058460       ?tchar_string@?$common_data@_W@__crt_stdio_output@@IAEAAPA_WXZ 10059460 f i libucrtd:output.obj
 0001:00058480       ?tchar_string@?$common_data@_W@__crt_stdio_output@@IAEAAPA_W_W@Z 10059480 f i libucrtd:output.obj
 0001:000584a0       ?to_integer_size@__crt_stdio_output@@YAIW4length_modifier@1@@Z 100594a0 f i libucrtd:output.obj
 0001:00058540       ?type_case_X@?$output_processor@DV?$stream_output_adapter@D@__crt_stdio_output@@V?$format_validation_base@DV?$stream_output_adapter@D@__crt_stdio_output@@@2@@__crt_stdio_output@@AAE_NXZ 10059540 f i libucrtd:output.obj
 0001:00058560       ?type_case_X@?$output_processor@DV?$stream_output_adapter@D@__crt_stdio_output@@V?$positional_parameter_base@DV?$stream_output_adapter@D@__crt_stdio_output@@@2@@__crt_stdio_output@@AAE_NXZ 10059560 f i libucrtd:output.obj
 0001:00058580       ?type_case_X@?$output_processor@DV?$stream_output_adapter@D@__crt_stdio_output@@V?$standard_base@DV?$stream_output_adapter@D@__crt_stdio_output@@@2@@__crt_stdio_output@@AAE_NXZ 10059580 f i libucrtd:output.obj
 0001:000585a0       ?type_case_X@?$output_processor@DV?$string_output_adapter@D@__crt_stdio_output@@V?$format_validation_base@DV?$string_output_adapter@D@__crt_stdio_output@@@2@@__crt_stdio_output@@AAE_NXZ 100595a0 f i libucrtd:output.obj
 0001:000585c0       ?type_case_X@?$output_processor@DV?$string_output_adapter@D@__crt_stdio_output@@V?$positional_parameter_base@DV?$string_output_adapter@D@__crt_stdio_output@@@2@@__crt_stdio_output@@AAE_NXZ 100595c0 f i libucrtd:output.obj
 0001:000585e0       ?type_case_X@?$output_processor@DV?$string_output_adapter@D@__crt_stdio_output@@V?$standard_base@DV?$string_output_adapter@D@__crt_stdio_output@@@2@@__crt_stdio_output@@AAE_NXZ 100595e0 f i libucrtd:output.obj
 0001:00058600       ?type_case_X@?$output_processor@_WV?$stream_output_adapter@_W@__crt_stdio_output@@V?$format_validation_base@_WV?$stream_output_adapter@_W@__crt_stdio_output@@@2@@__crt_stdio_output@@AAE_NXZ 10059600 f i libucrtd:output.obj
 0001:00058620       ?type_case_X@?$output_processor@_WV?$stream_output_adapter@_W@__crt_stdio_output@@V?$positional_parameter_base@_WV?$stream_output_adapter@_W@__crt_stdio_output@@@2@@__crt_stdio_output@@AAE_NXZ 10059620 f i libucrtd:output.obj
 0001:00058640       ?type_case_X@?$output_processor@_WV?$stream_output_adapter@_W@__crt_stdio_output@@V?$standard_base@_WV?$stream_output_adapter@_W@__crt_stdio_output@@@2@@__crt_stdio_output@@AAE_NXZ 10059640 f i libucrtd:output.obj
 0001:00058660       ?type_case_X@?$output_processor@_WV?$string_output_adapter@_W@__crt_stdio_output@@V?$format_validation_base@_WV?$string_output_adapter@_W@__crt_stdio_output@@@2@@__crt_stdio_output@@AAE_NXZ 10059660 f i libucrtd:output.obj
 0001:00058680       ?type_case_X@?$output_processor@_WV?$string_output_adapter@_W@__crt_stdio_output@@V?$positional_parameter_base@_WV?$string_output_adapter@_W@__crt_stdio_output@@@2@@__crt_stdio_output@@AAE_NXZ 10059680 f i libucrtd:output.obj
 0001:000586a0       ?type_case_X@?$output_processor@_WV?$string_output_adapter@_W@__crt_stdio_output@@V?$standard_base@_WV?$string_output_adapter@_W@__crt_stdio_output@@@2@@__crt_stdio_output@@AAE_NXZ 100596a0 f i libucrtd:output.obj
 0001:000586c0       ?type_case_Z@?$output_processor@DV?$stream_output_adapter@D@__crt_stdio_output@@V?$format_validation_base@DV?$stream_output_adapter@D@__crt_stdio_output@@@2@@__crt_stdio_output@@AAE_NXZ 100596c0 f i libucrtd:output.obj
 0001:000587b0       ?type_case_Z@?$output_processor@DV?$stream_output_adapter@D@__crt_stdio_output@@V?$positional_parameter_base@DV?$stream_output_adapter@D@__crt_stdio_output@@@2@@__crt_stdio_output@@AAE_NXZ 100597b0 f i libucrtd:output.obj
 0001:000588a0       ?type_case_Z@?$output_processor@DV?$stream_output_adapter@D@__crt_stdio_output@@V?$standard_base@DV?$stream_output_adapter@D@__crt_stdio_output@@@2@@__crt_stdio_output@@AAE_NXZ 100598a0 f i libucrtd:output.obj
 0001:00058990       ?type_case_Z@?$output_processor@DV?$string_output_adapter@D@__crt_stdio_output@@V?$format_validation_base@DV?$string_output_adapter@D@__crt_stdio_output@@@2@@__crt_stdio_output@@AAE_NXZ 10059990 f i libucrtd:output.obj
 0001:00058a80       ?type_case_Z@?$output_processor@DV?$string_output_adapter@D@__crt_stdio_output@@V?$positional_parameter_base@DV?$string_output_adapter@D@__crt_stdio_output@@@2@@__crt_stdio_output@@AAE_NXZ 10059a80 f i libucrtd:output.obj
 0001:00058b70       ?type_case_Z@?$output_processor@DV?$string_output_adapter@D@__crt_stdio_output@@V?$standard_base@DV?$string_output_adapter@D@__crt_stdio_output@@@2@@__crt_stdio_output@@AAE_NXZ 10059b70 f i libucrtd:output.obj
 0001:00058c60       ?type_case_Z@?$output_processor@_WV?$stream_output_adapter@_W@__crt_stdio_output@@V?$format_validation_base@_WV?$stream_output_adapter@_W@__crt_stdio_output@@@2@@__crt_stdio_output@@AAE_NXZ 10059c60 f i libucrtd:output.obj
 0001:00058d50       ?type_case_Z@?$output_processor@_WV?$stream_output_adapter@_W@__crt_stdio_output@@V?$positional_parameter_base@_WV?$stream_output_adapter@_W@__crt_stdio_output@@@2@@__crt_stdio_output@@AAE_NXZ 10059d50 f i libucrtd:output.obj
 0001:00058e40       ?type_case_Z@?$output_processor@_WV?$stream_output_adapter@_W@__crt_stdio_output@@V?$standard_base@_WV?$stream_output_adapter@_W@__crt_stdio_output@@@2@@__crt_stdio_output@@AAE_NXZ 10059e40 f i libucrtd:output.obj
 0001:00058f30       ?type_case_Z@?$output_processor@_WV?$string_output_adapter@_W@__crt_stdio_output@@V?$format_validation_base@_WV?$string_output_adapter@_W@__crt_stdio_output@@@2@@__crt_stdio_output@@AAE_NXZ 10059f30 f i libucrtd:output.obj
 0001:00059020       ?type_case_Z@?$output_processor@_WV?$string_output_adapter@_W@__crt_stdio_output@@V?$positional_parameter_base@_WV?$string_output_adapter@_W@__crt_stdio_output@@@2@@__crt_stdio_output@@AAE_NXZ 1005a020 f i libucrtd:output.obj
 0001:00059110       ?type_case_Z@?$output_processor@_WV?$string_output_adapter@_W@__crt_stdio_output@@V?$standard_base@_WV?$string_output_adapter@_W@__crt_stdio_output@@@2@@__crt_stdio_output@@AAE_NXZ 1005a110 f i libucrtd:output.obj
 0001:00059200       ?type_case_a@?$output_processor@DV?$stream_output_adapter@D@__crt_stdio_output@@V?$format_validation_base@DV?$stream_output_adapter@D@__crt_stdio_output@@@2@@__crt_stdio_output@@AAE_NXZ 1005a200 f i libucrtd:output.obj
 0001:00059470       ?type_case_a@?$output_processor@DV?$stream_output_adapter@D@__crt_stdio_output@@V?$positional_parameter_base@DV?$stream_output_adapter@D@__crt_stdio_output@@@2@@__crt_stdio_output@@AAE_NXZ 1005a470 f i libucrtd:output.obj
 0001:000596e0       ?type_case_a@?$output_processor@DV?$stream_output_adapter@D@__crt_stdio_output@@V?$standard_base@DV?$stream_output_adapter@D@__crt_stdio_output@@@2@@__crt_stdio_output@@AAE_NXZ 1005a6e0 f i libucrtd:output.obj
 0001:00059950       ?type_case_a@?$output_processor@DV?$string_output_adapter@D@__crt_stdio_output@@V?$format_validation_base@DV?$string_output_adapter@D@__crt_stdio_output@@@2@@__crt_stdio_output@@AAE_NXZ 1005a950 f i libucrtd:output.obj
 0001:00059bc0       ?type_case_a@?$output_processor@DV?$string_output_adapter@D@__crt_stdio_output@@V?$positional_parameter_base@DV?$string_output_adapter@D@__crt_stdio_output@@@2@@__crt_stdio_output@@AAE_NXZ 1005abc0 f i libucrtd:output.obj
 0001:00059e30       ?type_case_a@?$output_processor@DV?$string_output_adapter@D@__crt_stdio_output@@V?$standard_base@DV?$string_output_adapter@D@__crt_stdio_output@@@2@@__crt_stdio_output@@AAE_NXZ 1005ae30 f i libucrtd:output.obj
 0001:0005a0a0       ?type_case_a@?$output_processor@_WV?$stream_output_adapter@_W@__crt_stdio_output@@V?$format_validation_base@_WV?$stream_output_adapter@_W@__crt_stdio_output@@@2@@__crt_stdio_output@@AAE_NXZ 1005b0a0 f i libucrtd:output.obj
 0001:0005a310       ?type_case_a@?$output_processor@_WV?$stream_output_adapter@_W@__crt_stdio_output@@V?$positional_parameter_base@_WV?$stream_output_adapter@_W@__crt_stdio_output@@@2@@__crt_stdio_output@@AAE_NXZ 1005b310 f i libucrtd:output.obj
 0001:0005a580       ?type_case_a@?$output_processor@_WV?$stream_output_adapter@_W@__crt_stdio_output@@V?$standard_base@_WV?$stream_output_adapter@_W@__crt_stdio_output@@@2@@__crt_stdio_output@@AAE_NXZ 1005b580 f i libucrtd:output.obj
 0001:0005a7f0       ?type_case_a@?$output_processor@_WV?$string_output_adapter@_W@__crt_stdio_output@@V?$format_validation_base@_WV?$string_output_adapter@_W@__crt_stdio_output@@@2@@__crt_stdio_output@@AAE_NXZ 1005b7f0 f i libucrtd:output.obj
 0001:0005aa60       ?type_case_a@?$output_processor@_WV?$string_output_adapter@_W@__crt_stdio_output@@V?$positional_parameter_base@_WV?$string_output_adapter@_W@__crt_stdio_output@@@2@@__crt_stdio_output@@AAE_NXZ 1005ba60 f i libucrtd:output.obj
 0001:0005acd0       ?type_case_a@?$output_processor@_WV?$string_output_adapter@_W@__crt_stdio_output@@V?$standard_base@_WV?$string_output_adapter@_W@__crt_stdio_output@@@2@@__crt_stdio_output@@AAE_NXZ 1005bcd0 f i libucrtd:output.obj
 0001:0005af40       ?type_case_c@?$output_processor@DV?$stream_output_adapter@D@__crt_stdio_output@@V?$format_validation_base@DV?$stream_output_adapter@D@__crt_stdio_output@@@2@@__crt_stdio_output@@AAE_NXZ 1005bf40 f i libucrtd:output.obj
 0001:0005af60       ?type_case_c@?$output_processor@DV?$stream_output_adapter@D@__crt_stdio_output@@V?$positional_parameter_base@DV?$stream_output_adapter@D@__crt_stdio_output@@@2@@__crt_stdio_output@@AAE_NXZ 1005bf60 f i libucrtd:output.obj
 0001:0005af80       ?type_case_c@?$output_processor@DV?$stream_output_adapter@D@__crt_stdio_output@@V?$standard_base@DV?$stream_output_adapter@D@__crt_stdio_output@@@2@@__crt_stdio_output@@AAE_NXZ 1005bf80 f i libucrtd:output.obj
 0001:0005afa0       ?type_case_c@?$output_processor@DV?$string_output_adapter@D@__crt_stdio_output@@V?$format_validation_base@DV?$string_output_adapter@D@__crt_stdio_output@@@2@@__crt_stdio_output@@AAE_NXZ 1005bfa0 f i libucrtd:output.obj
 0001:0005afc0       ?type_case_c@?$output_processor@DV?$string_output_adapter@D@__crt_stdio_output@@V?$positional_parameter_base@DV?$string_output_adapter@D@__crt_stdio_output@@@2@@__crt_stdio_output@@AAE_NXZ 1005bfc0 f i libucrtd:output.obj
 0001:0005afe0       ?type_case_c@?$output_processor@DV?$string_output_adapter@D@__crt_stdio_output@@V?$standard_base@DV?$string_output_adapter@D@__crt_stdio_output@@@2@@__crt_stdio_output@@AAE_NXZ 1005bfe0 f i libucrtd:output.obj
 0001:0005b000       ?type_case_c@?$output_processor@_WV?$stream_output_adapter@_W@__crt_stdio_output@@V?$format_validation_base@_WV?$stream_output_adapter@_W@__crt_stdio_output@@@2@@__crt_stdio_output@@AAE_NXZ 1005c000 f i libucrtd:output.obj
 0001:0005b020       ?type_case_c@?$output_processor@_WV?$stream_output_adapter@_W@__crt_stdio_output@@V?$positional_parameter_base@_WV?$stream_output_adapter@_W@__crt_stdio_output@@@2@@__crt_stdio_output@@AAE_NXZ 1005c020 f i libucrtd:output.obj
 0001:0005b040       ?type_case_c@?$output_processor@_WV?$stream_output_adapter@_W@__crt_stdio_output@@V?$standard_base@_WV?$stream_output_adapter@_W@__crt_stdio_output@@@2@@__crt_stdio_output@@AAE_NXZ 1005c040 f i libucrtd:output.obj
 0001:0005b060       ?type_case_c@?$output_processor@_WV?$string_output_adapter@_W@__crt_stdio_output@@V?$format_validation_base@_WV?$string_output_adapter@_W@__crt_stdio_output@@@2@@__crt_stdio_output@@AAE_NXZ 1005c060 f i libucrtd:output.obj
 0001:0005b080       ?type_case_c@?$output_processor@_WV?$string_output_adapter@_W@__crt_stdio_output@@V?$positional_parameter_base@_WV?$string_output_adapter@_W@__crt_stdio_output@@@2@@__crt_stdio_output@@AAE_NXZ 1005c080 f i libucrtd:output.obj
 0001:0005b0a0       ?type_case_c@?$output_processor@_WV?$string_output_adapter@_W@__crt_stdio_output@@V?$standard_base@_WV?$string_output_adapter@_W@__crt_stdio_output@@@2@@__crt_stdio_output@@AAE_NXZ 1005c0a0 f i libucrtd:output.obj
 0001:0005b0c0       ?type_case_c_tchar@?$output_processor@DV?$stream_output_adapter@D@__crt_stdio_output@@V?$format_validation_base@DV?$stream_output_adapter@D@__crt_stdio_output@@@2@@__crt_stdio_output@@AAE_ND@Z 1005c0c0 f i libucrtd:output.obj
 0001:0005b1d0       ?type_case_c_tchar@?$output_processor@DV?$stream_output_adapter@D@__crt_stdio_output@@V?$positional_parameter_base@DV?$stream_output_adapter@D@__crt_stdio_output@@@2@@__crt_stdio_output@@AAE_ND@Z 1005c1d0 f i libucrtd:output.obj
 0001:0005b2e0       ?type_case_c_tchar@?$output_processor@DV?$stream_output_adapter@D@__crt_stdio_output@@V?$standard_base@DV?$stream_output_adapter@D@__crt_stdio_output@@@2@@__crt_stdio_output@@AAE_ND@Z 1005c2e0 f i libucrtd:output.obj
 0001:0005b3f0       ?type_case_c_tchar@?$output_processor@DV?$string_output_adapter@D@__crt_stdio_output@@V?$format_validation_base@DV?$string_output_adapter@D@__crt_stdio_output@@@2@@__crt_stdio_output@@AAE_ND@Z 1005c3f0 f i libucrtd:output.obj
 0001:0005b500       ?type_case_c_tchar@?$output_processor@DV?$string_output_adapter@D@__crt_stdio_output@@V?$positional_parameter_base@DV?$string_output_adapter@D@__crt_stdio_output@@@2@@__crt_stdio_output@@AAE_ND@Z 1005c500 f i libucrtd:output.obj
 0001:0005b610       ?type_case_c_tchar@?$output_processor@DV?$string_output_adapter@D@__crt_stdio_output@@V?$standard_base@DV?$string_output_adapter@D@__crt_stdio_output@@@2@@__crt_stdio_output@@AAE_ND@Z 1005c610 f i libucrtd:output.obj
 0001:0005b720       ?type_case_c_tchar@?$output_processor@_WV?$stream_output_adapter@_W@__crt_stdio_output@@V?$format_validation_base@_WV?$stream_output_adapter@_W@__crt_stdio_output@@@2@@__crt_stdio_output@@AAE_N_W@Z 1005c720 f i libucrtd:output.obj
 0001:0005b820       ?type_case_c_tchar@?$output_processor@_WV?$stream_output_adapter@_W@__crt_stdio_output@@V?$positional_parameter_base@_WV?$stream_output_adapter@_W@__crt_stdio_output@@@2@@__crt_stdio_output@@AAE_N_W@Z 1005c820 f i libucrtd:output.obj
 0001:0005b920       ?type_case_c_tchar@?$output_processor@_WV?$stream_output_adapter@_W@__crt_stdio_output@@V?$standard_base@_WV?$stream_output_adapter@_W@__crt_stdio_output@@@2@@__crt_stdio_output@@AAE_N_W@Z 1005c920 f i libucrtd:output.obj
 0001:0005ba20       ?type_case_c_tchar@?$output_processor@_WV?$string_output_adapter@_W@__crt_stdio_output@@V?$format_validation_base@_WV?$string_output_adapter@_W@__crt_stdio_output@@@2@@__crt_stdio_output@@AAE_N_W@Z 1005ca20 f i libucrtd:output.obj
 0001:0005bb20       ?type_case_c_tchar@?$output_processor@_WV?$string_output_adapter@_W@__crt_stdio_output@@V?$positional_parameter_base@_WV?$string_output_adapter@_W@__crt_stdio_output@@@2@@__crt_stdio_output@@AAE_N_W@Z 1005cb20 f i libucrtd:output.obj
 0001:0005bc20       ?type_case_c_tchar@?$output_processor@_WV?$string_output_adapter@_W@__crt_stdio_output@@V?$standard_base@_WV?$string_output_adapter@_W@__crt_stdio_output@@@2@@__crt_stdio_output@@AAE_N_W@Z 1005cc20 f i libucrtd:output.obj
 0001:0005bd20       ?type_case_d@?$output_processor@DV?$stream_output_adapter@D@__crt_stdio_output@@V?$format_validation_base@DV?$stream_output_adapter@D@__crt_stdio_output@@@2@@__crt_stdio_output@@AAE_NXZ 1005cd20 f i libucrtd:output.obj
 0001:0005bd50       ?type_case_d@?$output_processor@DV?$stream_output_adapter@D@__crt_stdio_output@@V?$positional_parameter_base@DV?$stream_output_adapter@D@__crt_stdio_output@@@2@@__crt_stdio_output@@AAE_NXZ 1005cd50 f i libucrtd:output.obj
 0001:0005bd80       ?type_case_d@?$output_processor@DV?$stream_output_adapter@D@__crt_stdio_output@@V?$standard_base@DV?$stream_output_adapter@D@__crt_stdio_output@@@2@@__crt_stdio_output@@AAE_NXZ 1005cd80 f i libucrtd:output.obj
 0001:0005bdb0       ?type_case_d@?$output_processor@DV?$string_output_adapter@D@__crt_stdio_output@@V?$format_validation_base@DV?$string_output_adapter@D@__crt_stdio_output@@@2@@__crt_stdio_output@@AAE_NXZ 1005cdb0 f i libucrtd:output.obj
 0001:0005bde0       ?type_case_d@?$output_processor@DV?$string_output_adapter@D@__crt_stdio_output@@V?$positional_parameter_base@DV?$string_output_adapter@D@__crt_stdio_output@@@2@@__crt_stdio_output@@AAE_NXZ 1005cde0 f i libucrtd:output.obj
 0001:0005be10       ?type_case_d@?$output_processor@DV?$string_output_adapter@D@__crt_stdio_output@@V?$standard_base@DV?$string_output_adapter@D@__crt_stdio_output@@@2@@__crt_stdio_output@@AAE_NXZ 1005ce10 f i libucrtd:output.obj
 0001:0005be40       ?type_case_d@?$output_processor@_WV?$stream_output_adapter@_W@__crt_stdio_output@@V?$format_validation_base@_WV?$stream_output_adapter@_W@__crt_stdio_output@@@2@@__crt_stdio_output@@AAE_NXZ 1005ce40 f i libucrtd:output.obj
 0001:0005be70       ?type_case_d@?$output_processor@_WV?$stream_output_adapter@_W@__crt_stdio_output@@V?$positional_parameter_base@_WV?$stream_output_adapter@_W@__crt_stdio_output@@@2@@__crt_stdio_output@@AAE_NXZ 1005ce70 f i libucrtd:output.obj
 0001:0005bea0       ?type_case_d@?$output_processor@_WV?$stream_output_adapter@_W@__crt_stdio_output@@V?$standard_base@_WV?$stream_output_adapter@_W@__crt_stdio_output@@@2@@__crt_stdio_output@@AAE_NXZ 1005cea0 f i libucrtd:output.obj
 0001:0005bed0       ?type_case_d@?$output_processor@_WV?$string_output_adapter@_W@__crt_stdio_output@@V?$format_validation_base@_WV?$string_output_adapter@_W@__crt_stdio_output@@@2@@__crt_stdio_output@@AAE_NXZ 1005ced0 f i libucrtd:output.obj
 0001:0005bf00       ?type_case_d@?$output_processor@_WV?$string_output_adapter@_W@__crt_stdio_output@@V?$positional_parameter_base@_WV?$string_output_adapter@_W@__crt_stdio_output@@@2@@__crt_stdio_output@@AAE_NXZ 1005cf00 f i libucrtd:output.obj
 0001:0005bf30       ?type_case_d@?$output_processor@_WV?$string_output_adapter@_W@__crt_stdio_output@@V?$standard_base@_WV?$string_output_adapter@_W@__crt_stdio_output@@@2@@__crt_stdio_output@@AAE_NXZ 1005cf30 f i libucrtd:output.obj
 0001:0005bf60       ?type_case_integer@?$output_processor@DV?$stream_output_adapter@D@__crt_stdio_output@@V?$format_validation_base@DV?$stream_output_adapter@D@__crt_stdio_output@@@2@@__crt_stdio_output@@AAE_NI_N@Z 1005cf60 f i libucrtd:output.obj
 0001:0005c2b0       ?type_case_integer@?$output_processor@DV?$stream_output_adapter@D@__crt_stdio_output@@V?$positional_parameter_base@DV?$stream_output_adapter@D@__crt_stdio_output@@@2@@__crt_stdio_output@@AAE_NI_N@Z 1005d2b0 f i libucrtd:output.obj
 0001:0005c600       ?type_case_integer@?$output_processor@DV?$stream_output_adapter@D@__crt_stdio_output@@V?$standard_base@DV?$stream_output_adapter@D@__crt_stdio_output@@@2@@__crt_stdio_output@@AAE_NI_N@Z 1005d600 f i libucrtd:output.obj
 0001:0005c950       ?type_case_integer@?$output_processor@DV?$string_output_adapter@D@__crt_stdio_output@@V?$format_validation_base@DV?$string_output_adapter@D@__crt_stdio_output@@@2@@__crt_stdio_output@@AAE_NI_N@Z 1005d950 f i libucrtd:output.obj
 0001:0005cca0       ?type_case_integer@?$output_processor@DV?$string_output_adapter@D@__crt_stdio_output@@V?$positional_parameter_base@DV?$string_output_adapter@D@__crt_stdio_output@@@2@@__crt_stdio_output@@AAE_NI_N@Z 1005dca0 f i libucrtd:output.obj
 0001:0005cff0       ?type_case_integer@?$output_processor@DV?$string_output_adapter@D@__crt_stdio_output@@V?$standard_base@DV?$string_output_adapter@D@__crt_stdio_output@@@2@@__crt_stdio_output@@AAE_NI_N@Z 1005dff0 f i libucrtd:output.obj
 0001:0005d340       ?type_case_integer@?$output_processor@_WV?$stream_output_adapter@_W@__crt_stdio_output@@V?$format_validation_base@_WV?$stream_output_adapter@_W@__crt_stdio_output@@@2@@__crt_stdio_output@@AAE_NI_N@Z 1005e340 f i libucrtd:output.obj
 0001:0005d690       ?type_case_integer@?$output_processor@_WV?$stream_output_adapter@_W@__crt_stdio_output@@V?$positional_parameter_base@_WV?$stream_output_adapter@_W@__crt_stdio_output@@@2@@__crt_stdio_output@@AAE_NI_N@Z 1005e690 f i libucrtd:output.obj
 0001:0005d9e0       ?type_case_integer@?$output_processor@_WV?$stream_output_adapter@_W@__crt_stdio_output@@V?$standard_base@_WV?$stream_output_adapter@_W@__crt_stdio_output@@@2@@__crt_stdio_output@@AAE_NI_N@Z 1005e9e0 f i libucrtd:output.obj
 0001:0005dd30       ?type_case_integer@?$output_processor@_WV?$string_output_adapter@_W@__crt_stdio_output@@V?$format_validation_base@_WV?$string_output_adapter@_W@__crt_stdio_output@@@2@@__crt_stdio_output@@AAE_NI_N@Z 1005ed30 f i libucrtd:output.obj
 0001:0005e080       ?type_case_integer@?$output_processor@_WV?$string_output_adapter@_W@__crt_stdio_output@@V?$positional_parameter_base@_WV?$string_output_adapter@_W@__crt_stdio_output@@@2@@__crt_stdio_output@@AAE_NI_N@Z 1005f080 f i libucrtd:output.obj
 0001:0005e3d0       ?type_case_integer@?$output_processor@_WV?$string_output_adapter@_W@__crt_stdio_output@@V?$standard_base@_WV?$string_output_adapter@_W@__crt_stdio_output@@@2@@__crt_stdio_output@@AAE_NI_N@Z 1005f3d0 f i libucrtd:output.obj
 0001:0005e720       ?type_case_n@?$output_processor@DV?$stream_output_adapter@D@__crt_stdio_output@@V?$format_validation_base@DV?$stream_output_adapter@D@__crt_stdio_output@@@2@@__crt_stdio_output@@AAE_NXZ 1005f720 f i libucrtd:output.obj
 0001:0005e910       ?type_case_n@?$output_processor@DV?$stream_output_adapter@D@__crt_stdio_output@@V?$positional_parameter_base@DV?$stream_output_adapter@D@__crt_stdio_output@@@2@@__crt_stdio_output@@AAE_NXZ 1005f910 f i libucrtd:output.obj
 0001:0005eb00       ?type_case_n@?$output_processor@DV?$stream_output_adapter@D@__crt_stdio_output@@V?$standard_base@DV?$stream_output_adapter@D@__crt_stdio_output@@@2@@__crt_stdio_output@@AAE_NXZ 1005fb00 f i libucrtd:output.obj
 0001:0005ecf0       ?type_case_n@?$output_processor@DV?$string_output_adapter@D@__crt_stdio_output@@V?$format_validation_base@DV?$string_output_adapter@D@__crt_stdio_output@@@2@@__crt_stdio_output@@AAE_NXZ 1005fcf0 f i libucrtd:output.obj
 0001:0005eee0       ?type_case_n@?$output_processor@DV?$string_output_adapter@D@__crt_stdio_output@@V?$positional_parameter_base@DV?$string_output_adapter@D@__crt_stdio_output@@@2@@__crt_stdio_output@@AAE_NXZ 1005fee0 f i libucrtd:output.obj
 0001:0005f0d0       ?type_case_n@?$output_processor@DV?$string_output_adapter@D@__crt_stdio_output@@V?$standard_base@DV?$string_output_adapter@D@__crt_stdio_output@@@2@@__crt_stdio_output@@AAE_NXZ 100600d0 f i libucrtd:output.obj
 0001:0005f2c0       ?type_case_n@?$output_processor@_WV?$stream_output_adapter@_W@__crt_stdio_output@@V?$format_validation_base@_WV?$stream_output_adapter@_W@__crt_stdio_output@@@2@@__crt_stdio_output@@AAE_NXZ 100602c0 f i libucrtd:output.obj
 0001:0005f4b0       ?type_case_n@?$output_processor@_WV?$stream_output_adapter@_W@__crt_stdio_output@@V?$positional_parameter_base@_WV?$stream_output_adapter@_W@__crt_stdio_output@@@2@@__crt_stdio_output@@AAE_NXZ 100604b0 f i libucrtd:output.obj
 0001:0005f6a0       ?type_case_n@?$output_processor@_WV?$stream_output_adapter@_W@__crt_stdio_output@@V?$standard_base@_WV?$stream_output_adapter@_W@__crt_stdio_output@@@2@@__crt_stdio_output@@AAE_NXZ 100606a0 f i libucrtd:output.obj
 0001:0005f890       ?type_case_n@?$output_processor@_WV?$string_output_adapter@_W@__crt_stdio_output@@V?$format_validation_base@_WV?$string_output_adapter@_W@__crt_stdio_output@@@2@@__crt_stdio_output@@AAE_NXZ 10060890 f i libucrtd:output.obj
 0001:0005fa80       ?type_case_n@?$output_processor@_WV?$string_output_adapter@_W@__crt_stdio_output@@V?$positional_parameter_base@_WV?$string_output_adapter@_W@__crt_stdio_output@@@2@@__crt_stdio_output@@AAE_NXZ 10060a80 f i libucrtd:output.obj
 0001:0005fc70       ?type_case_n@?$output_processor@_WV?$string_output_adapter@_W@__crt_stdio_output@@V?$standard_base@_WV?$string_output_adapter@_W@__crt_stdio_output@@@2@@__crt_stdio_output@@AAE_NXZ 10060c70 f i libucrtd:output.obj
 0001:0005fe60       ?type_case_o@?$output_processor@DV?$stream_output_adapter@D@__crt_stdio_output@@V?$format_validation_base@DV?$stream_output_adapter@D@__crt_stdio_output@@@2@@__crt_stdio_output@@AAE_NXZ 10060e60 f i libucrtd:output.obj
 0001:0005fea0       ?type_case_o@?$output_processor@DV?$stream_output_adapter@D@__crt_stdio_output@@V?$positional_parameter_base@DV?$stream_output_adapter@D@__crt_stdio_output@@@2@@__crt_stdio_output@@AAE_NXZ 10060ea0 f i libucrtd:output.obj
 0001:0005fee0       ?type_case_o@?$output_processor@DV?$stream_output_adapter@D@__crt_stdio_output@@V?$standard_base@DV?$stream_output_adapter@D@__crt_stdio_output@@@2@@__crt_stdio_output@@AAE_NXZ 10060ee0 f i libucrtd:output.obj
 0001:0005ff20       ?type_case_o@?$output_processor@DV?$string_output_adapter@D@__crt_stdio_output@@V?$format_validation_base@DV?$string_output_adapter@D@__crt_stdio_output@@@2@@__crt_stdio_output@@AAE_NXZ 10060f20 f i libucrtd:output.obj
 0001:0005ff60       ?type_case_o@?$output_processor@DV?$string_output_adapter@D@__crt_stdio_output@@V?$positional_parameter_base@DV?$string_output_adapter@D@__crt_stdio_output@@@2@@__crt_stdio_output@@AAE_NXZ 10060f60 f i libucrtd:output.obj
 0001:0005ffa0       ?type_case_o@?$output_processor@DV?$string_output_adapter@D@__crt_stdio_output@@V?$standard_base@DV?$string_output_adapter@D@__crt_stdio_output@@@2@@__crt_stdio_output@@AAE_NXZ 10060fa0 f i libucrtd:output.obj
 0001:0005ffe0       ?type_case_o@?$output_processor@_WV?$stream_output_adapter@_W@__crt_stdio_output@@V?$format_validation_base@_WV?$stream_output_adapter@_W@__crt_stdio_output@@@2@@__crt_stdio_output@@AAE_NXZ 10060fe0 f i libucrtd:output.obj
 0001:00060020       ?type_case_o@?$output_processor@_WV?$stream_output_adapter@_W@__crt_stdio_output@@V?$positional_parameter_base@_WV?$stream_output_adapter@_W@__crt_stdio_output@@@2@@__crt_stdio_output@@AAE_NXZ 10061020 f i libucrtd:output.obj
 0001:00060060       ?type_case_o@?$output_processor@_WV?$stream_output_adapter@_W@__crt_stdio_output@@V?$standard_base@_WV?$stream_output_adapter@_W@__crt_stdio_output@@@2@@__crt_stdio_output@@AAE_NXZ 10061060 f i libucrtd:output.obj
 0001:000600a0       ?type_case_o@?$output_processor@_WV?$string_output_adapter@_W@__crt_stdio_output@@V?$format_validation_base@_WV?$string_output_adapter@_W@__crt_stdio_output@@@2@@__crt_stdio_output@@AAE_NXZ 100610a0 f i libucrtd:output.obj
 0001:000600e0       ?type_case_o@?$output_processor@_WV?$string_output_adapter@_W@__crt_stdio_output@@V?$positional_parameter_base@_WV?$string_output_adapter@_W@__crt_stdio_output@@@2@@__crt_stdio_output@@AAE_NXZ 100610e0 f i libucrtd:output.obj
 0001:00060120       ?type_case_o@?$output_processor@_WV?$string_output_adapter@_W@__crt_stdio_output@@V?$standard_base@_WV?$string_output_adapter@_W@__crt_stdio_output@@@2@@__crt_stdio_output@@AAE_NXZ 10061120 f i libucrtd:output.obj
 0001:00060160       ?type_case_p@?$output_processor@DV?$stream_output_adapter@D@__crt_stdio_output@@V?$format_validation_base@DV?$stream_output_adapter@D@__crt_stdio_output@@@2@@__crt_stdio_output@@AAE_NXZ 10061160 f i libucrtd:output.obj
 0001:00060190       ?type_case_p@?$output_processor@DV?$stream_output_adapter@D@__crt_stdio_output@@V?$positional_parameter_base@DV?$stream_output_adapter@D@__crt_stdio_output@@@2@@__crt_stdio_output@@AAE_NXZ 10061190 f i libucrtd:output.obj
 0001:000601c0       ?type_case_p@?$output_processor@DV?$stream_output_adapter@D@__crt_stdio_output@@V?$standard_base@DV?$stream_output_adapter@D@__crt_stdio_output@@@2@@__crt_stdio_output@@AAE_NXZ 100611c0 f i libucrtd:output.obj
 0001:000601f0       ?type_case_p@?$output_processor@DV?$string_output_adapter@D@__crt_stdio_output@@V?$format_validation_base@DV?$string_output_adapter@D@__crt_stdio_output@@@2@@__crt_stdio_output@@AAE_NXZ 100611f0 f i libucrtd:output.obj
 0001:00060220       ?type_case_p@?$output_processor@DV?$string_output_adapter@D@__crt_stdio_output@@V?$positional_parameter_base@DV?$string_output_adapter@D@__crt_stdio_output@@@2@@__crt_stdio_output@@AAE_NXZ 10061220 f i libucrtd:output.obj
 0001:00060250       ?type_case_p@?$output_processor@DV?$string_output_adapter@D@__crt_stdio_output@@V?$standard_base@DV?$string_output_adapter@D@__crt_stdio_output@@@2@@__crt_stdio_output@@AAE_NXZ 10061250 f i libucrtd:output.obj
 0001:00060280       ?type_case_p@?$output_processor@_WV?$stream_output_adapter@_W@__crt_stdio_output@@V?$format_validation_base@_WV?$stream_output_adapter@_W@__crt_stdio_output@@@2@@__crt_stdio_output@@AAE_NXZ 10061280 f i libucrtd:output.obj
 0001:000602b0       ?type_case_p@?$output_processor@_WV?$stream_output_adapter@_W@__crt_stdio_output@@V?$positional_parameter_base@_WV?$stream_output_adapter@_W@__crt_stdio_output@@@2@@__crt_stdio_output@@AAE_NXZ 100612b0 f i libucrtd:output.obj
 0001:000602e0       ?type_case_p@?$output_processor@_WV?$stream_output_adapter@_W@__crt_stdio_output@@V?$standard_base@_WV?$stream_output_adapter@_W@__crt_stdio_output@@@2@@__crt_stdio_output@@AAE_NXZ 100612e0 f i libucrtd:output.obj
 0001:00060310       ?type_case_p@?$output_processor@_WV?$string_output_adapter@_W@__crt_stdio_output@@V?$format_validation_base@_WV?$string_output_adapter@_W@__crt_stdio_output@@@2@@__crt_stdio_output@@AAE_NXZ 10061310 f i libucrtd:output.obj
 0001:00060340       ?type_case_p@?$output_processor@_WV?$string_output_adapter@_W@__crt_stdio_output@@V?$positional_parameter_base@_WV?$string_output_adapter@_W@__crt_stdio_output@@@2@@__crt_stdio_output@@AAE_NXZ 10061340 f i libucrtd:output.obj
 0001:00060370       ?type_case_p@?$output_processor@_WV?$string_output_adapter@_W@__crt_stdio_output@@V?$standard_base@_WV?$string_output_adapter@_W@__crt_stdio_output@@@2@@__crt_stdio_output@@AAE_NXZ 10061370 f i libucrtd:output.obj
 0001:000603a0       ?type_case_s@?$output_processor@DV?$stream_output_adapter@D@__crt_stdio_output@@V?$format_validation_base@DV?$stream_output_adapter@D@__crt_stdio_output@@@2@@__crt_stdio_output@@AAE_NXZ 100613a0 f i libucrtd:output.obj
 0001:00060490       ?type_case_s@?$output_processor@DV?$stream_output_adapter@D@__crt_stdio_output@@V?$positional_parameter_base@DV?$stream_output_adapter@D@__crt_stdio_output@@@2@@__crt_stdio_output@@AAE_NXZ 10061490 f i libucrtd:output.obj
 0001:00060580       ?type_case_s@?$output_processor@DV?$stream_output_adapter@D@__crt_stdio_output@@V?$standard_base@DV?$stream_output_adapter@D@__crt_stdio_output@@@2@@__crt_stdio_output@@AAE_NXZ 10061580 f i libucrtd:output.obj
 0001:00060670       ?type_case_s@?$output_processor@DV?$string_output_adapter@D@__crt_stdio_output@@V?$format_validation_base@DV?$string_output_adapter@D@__crt_stdio_output@@@2@@__crt_stdio_output@@AAE_NXZ 10061670 f i libucrtd:output.obj
 0001:00060760       ?type_case_s@?$output_processor@DV?$string_output_adapter@D@__crt_stdio_output@@V?$positional_parameter_base@DV?$string_output_adapter@D@__crt_stdio_output@@@2@@__crt_stdio_output@@AAE_NXZ 10061760 f i libucrtd:output.obj
 0001:00060850       ?type_case_s@?$output_processor@DV?$string_output_adapter@D@__crt_stdio_output@@V?$standard_base@DV?$string_output_adapter@D@__crt_stdio_output@@@2@@__crt_stdio_output@@AAE_NXZ 10061850 f i libucrtd:output.obj
 0001:00060940       ?type_case_s@?$output_processor@_WV?$stream_output_adapter@_W@__crt_stdio_output@@V?$format_validation_base@_WV?$stream_output_adapter@_W@__crt_stdio_output@@@2@@__crt_stdio_output@@AAE_NXZ 10061940 f i libucrtd:output.obj
 0001:00060a30       ?type_case_s@?$output_processor@_WV?$stream_output_adapter@_W@__crt_stdio_output@@V?$positional_parameter_base@_WV?$stream_output_adapter@_W@__crt_stdio_output@@@2@@__crt_stdio_output@@AAE_NXZ 10061a30 f i libucrtd:output.obj
 0001:00060b20       ?type_case_s@?$output_processor@_WV?$stream_output_adapter@_W@__crt_stdio_output@@V?$standard_base@_WV?$stream_output_adapter@_W@__crt_stdio_output@@@2@@__crt_stdio_output@@AAE_NXZ 10061b20 f i libucrtd:output.obj
 0001:00060c10       ?type_case_s@?$output_processor@_WV?$string_output_adapter@_W@__crt_stdio_output@@V?$format_validation_base@_WV?$string_output_adapter@_W@__crt_stdio_output@@@2@@__crt_stdio_output@@AAE_NXZ 10061c10 f i libucrtd:output.obj
 0001:00060d00       ?type_case_s@?$output_processor@_WV?$string_output_adapter@_W@__crt_stdio_output@@V?$positional_parameter_base@_WV?$string_output_adapter@_W@__crt_stdio_output@@@2@@__crt_stdio_output@@AAE_NXZ 10061d00 f i libucrtd:output.obj
 0001:00060df0       ?type_case_s@?$output_processor@_WV?$string_output_adapter@_W@__crt_stdio_output@@V?$standard_base@_WV?$string_output_adapter@_W@__crt_stdio_output@@@2@@__crt_stdio_output@@AAE_NXZ 10061df0 f i libucrtd:output.obj
 0001:00060ee0       ?type_case_s_compute_narrow_string_length@?$output_processor@DV?$stream_output_adapter@D@__crt_stdio_output@@V?$format_validation_base@DV?$stream_output_adapter@D@__crt_stdio_output@@@2@@__crt_stdio_output@@ABEHHD@Z 10061ee0 f i libucrtd:output.obj
 0001:00060f10       ?type_case_s_compute_narrow_string_length@?$output_processor@DV?$stream_output_adapter@D@__crt_stdio_output@@V?$positional_parameter_base@DV?$stream_output_adapter@D@__crt_stdio_output@@@2@@__crt_stdio_output@@ABEHHD@Z 10061f10 f i libucrtd:output.obj
 0001:00060f40       ?type_case_s_compute_narrow_string_length@?$output_processor@DV?$stream_output_adapter@D@__crt_stdio_output@@V?$standard_base@DV?$stream_output_adapter@D@__crt_stdio_output@@@2@@__crt_stdio_output@@ABEHHD@Z 10061f40 f i libucrtd:output.obj
 0001:00060f70       ?type_case_s_compute_narrow_string_length@?$output_processor@DV?$string_output_adapter@D@__crt_stdio_output@@V?$format_validation_base@DV?$string_output_adapter@D@__crt_stdio_output@@@2@@__crt_stdio_output@@ABEHHD@Z 10061f70 f i libucrtd:output.obj
 0001:00060fa0       ?type_case_s_compute_narrow_string_length@?$output_processor@DV?$string_output_adapter@D@__crt_stdio_output@@V?$positional_parameter_base@DV?$string_output_adapter@D@__crt_stdio_output@@@2@@__crt_stdio_output@@ABEHHD@Z 10061fa0 f i libucrtd:output.obj
 0001:00060fd0       ?type_case_s_compute_narrow_string_length@?$output_processor@DV?$string_output_adapter@D@__crt_stdio_output@@V?$standard_base@DV?$string_output_adapter@D@__crt_stdio_output@@@2@@__crt_stdio_output@@ABEHHD@Z 10061fd0 f i libucrtd:output.obj
 0001:00061000       ?type_case_s_compute_narrow_string_length@?$output_processor@_WV?$stream_output_adapter@_W@__crt_stdio_output@@V?$format_validation_base@_WV?$stream_output_adapter@_W@__crt_stdio_output@@@2@@__crt_stdio_output@@ABEHH_W@Z 10062000 f i libucrtd:output.obj
 0001:00061070       ?type_case_s_compute_narrow_string_length@?$output_processor@_WV?$stream_output_adapter@_W@__crt_stdio_output@@V?$positional_parameter_base@_WV?$stream_output_adapter@_W@__crt_stdio_output@@@2@@__crt_stdio_output@@ABEHH_W@Z 10062070 f i libucrtd:output.obj
 0001:000610e0       ?type_case_s_compute_narrow_string_length@?$output_processor@_WV?$stream_output_adapter@_W@__crt_stdio_output@@V?$standard_base@_WV?$stream_output_adapter@_W@__crt_stdio_output@@@2@@__crt_stdio_output@@ABEHH_W@Z 100620e0 f i libucrtd:output.obj
 0001:00061150       ?type_case_s_compute_narrow_string_length@?$output_processor@_WV?$string_output_adapter@_W@__crt_stdio_output@@V?$format_validation_base@_WV?$string_output_adapter@_W@__crt_stdio_output@@@2@@__crt_stdio_output@@ABEHH_W@Z 10062150 f i libucrtd:output.obj
 0001:000611c0       ?type_case_s_compute_narrow_string_length@?$output_processor@_WV?$string_output_adapter@_W@__crt_stdio_output@@V?$positional_parameter_base@_WV?$string_output_adapter@_W@__crt_stdio_output@@@2@@__crt_stdio_output@@ABEHH_W@Z 100621c0 f i libucrtd:output.obj
 0001:00061230       ?type_case_s_compute_narrow_string_length@?$output_processor@_WV?$string_output_adapter@_W@__crt_stdio_output@@V?$standard_base@_WV?$string_output_adapter@_W@__crt_stdio_output@@@2@@__crt_stdio_output@@ABEHH_W@Z 10062230 f i libucrtd:output.obj
 0001:000612a0       ?type_case_u@?$output_processor@DV?$stream_output_adapter@D@__crt_stdio_output@@V?$format_validation_base@DV?$stream_output_adapter@D@__crt_stdio_output@@@2@@__crt_stdio_output@@AAE_NXZ 100622a0 f i libucrtd:output.obj
 0001:000612c0       ?type_case_u@?$output_processor@DV?$stream_output_adapter@D@__crt_stdio_output@@V?$positional_parameter_base@DV?$stream_output_adapter@D@__crt_stdio_output@@@2@@__crt_stdio_output@@AAE_NXZ 100622c0 f i libucrtd:output.obj
 0001:000612e0       ?type_case_u@?$output_processor@DV?$stream_output_adapter@D@__crt_stdio_output@@V?$standard_base@DV?$stream_output_adapter@D@__crt_stdio_output@@@2@@__crt_stdio_output@@AAE_NXZ 100622e0 f i libucrtd:output.obj
 0001:00061300       ?type_case_u@?$output_processor@DV?$string_output_adapter@D@__crt_stdio_output@@V?$format_validation_base@DV?$string_output_adapter@D@__crt_stdio_output@@@2@@__crt_stdio_output@@AAE_NXZ 10062300 f i libucrtd:output.obj
 0001:00061320       ?type_case_u@?$output_processor@DV?$string_output_adapter@D@__crt_stdio_output@@V?$positional_parameter_base@DV?$string_output_adapter@D@__crt_stdio_output@@@2@@__crt_stdio_output@@AAE_NXZ 10062320 f i libucrtd:output.obj
 0001:00061340       ?type_case_u@?$output_processor@DV?$string_output_adapter@D@__crt_stdio_output@@V?$standard_base@DV?$string_output_adapter@D@__crt_stdio_output@@@2@@__crt_stdio_output@@AAE_NXZ 10062340 f i libucrtd:output.obj
 0001:00061360       ?type_case_u@?$output_processor@_WV?$stream_output_adapter@_W@__crt_stdio_output@@V?$format_validation_base@_WV?$stream_output_adapter@_W@__crt_stdio_output@@@2@@__crt_stdio_output@@AAE_NXZ 10062360 f i libucrtd:output.obj
 0001:00061380       ?type_case_u@?$output_processor@_WV?$stream_output_adapter@_W@__crt_stdio_output@@V?$positional_parameter_base@_WV?$stream_output_adapter@_W@__crt_stdio_output@@@2@@__crt_stdio_output@@AAE_NXZ 10062380 f i libucrtd:output.obj
 0001:000613a0       ?type_case_u@?$output_processor@_WV?$stream_output_adapter@_W@__crt_stdio_output@@V?$standard_base@_WV?$stream_output_adapter@_W@__crt_stdio_output@@@2@@__crt_stdio_output@@AAE_NXZ 100623a0 f i libucrtd:output.obj
 0001:000613c0       ?type_case_u@?$output_processor@_WV?$string_output_adapter@_W@__crt_stdio_output@@V?$format_validation_base@_WV?$string_output_adapter@_W@__crt_stdio_output@@@2@@__crt_stdio_output@@AAE_NXZ 100623c0 f i libucrtd:output.obj
 0001:000613e0       ?type_case_u@?$output_processor@_WV?$string_output_adapter@_W@__crt_stdio_output@@V?$positional_parameter_base@_WV?$string_output_adapter@_W@__crt_stdio_output@@@2@@__crt_stdio_output@@AAE_NXZ 100623e0 f i libucrtd:output.obj
 0001:00061400       ?type_case_u@?$output_processor@_WV?$string_output_adapter@_W@__crt_stdio_output@@V?$standard_base@_WV?$string_output_adapter@_W@__crt_stdio_output@@@2@@__crt_stdio_output@@AAE_NXZ 10062400 f i libucrtd:output.obj
 0001:00061420       ?type_case_x@?$output_processor@DV?$stream_output_adapter@D@__crt_stdio_output@@V?$format_validation_base@DV?$stream_output_adapter@D@__crt_stdio_output@@@2@@__crt_stdio_output@@AAE_NXZ 10062420 f i libucrtd:output.obj
 0001:00061440       ?type_case_x@?$output_processor@DV?$stream_output_adapter@D@__crt_stdio_output@@V?$positional_parameter_base@DV?$stream_output_adapter@D@__crt_stdio_output@@@2@@__crt_stdio_output@@AAE_NXZ 10062440 f i libucrtd:output.obj
 0001:00061460       ?type_case_x@?$output_processor@DV?$stream_output_adapter@D@__crt_stdio_output@@V?$standard_base@DV?$stream_output_adapter@D@__crt_stdio_output@@@2@@__crt_stdio_output@@AAE_NXZ 10062460 f i libucrtd:output.obj
 0001:00061480       ?type_case_x@?$output_processor@DV?$string_output_adapter@D@__crt_stdio_output@@V?$format_validation_base@DV?$string_output_adapter@D@__crt_stdio_output@@@2@@__crt_stdio_output@@AAE_NXZ 10062480 f i libucrtd:output.obj
 0001:000614a0       ?type_case_x@?$output_processor@DV?$string_output_adapter@D@__crt_stdio_output@@V?$positional_parameter_base@DV?$string_output_adapter@D@__crt_stdio_output@@@2@@__crt_stdio_output@@AAE_NXZ 100624a0 f i libucrtd:output.obj
 0001:000614c0       ?type_case_x@?$output_processor@DV?$string_output_adapter@D@__crt_stdio_output@@V?$standard_base@DV?$string_output_adapter@D@__crt_stdio_output@@@2@@__crt_stdio_output@@AAE_NXZ 100624c0 f i libucrtd:output.obj
 0001:000614e0       ?type_case_x@?$output_processor@_WV?$stream_output_adapter@_W@__crt_stdio_output@@V?$format_validation_base@_WV?$stream_output_adapter@_W@__crt_stdio_output@@@2@@__crt_stdio_output@@AAE_NXZ 100624e0 f i libucrtd:output.obj
 0001:00061500       ?type_case_x@?$output_processor@_WV?$stream_output_adapter@_W@__crt_stdio_output@@V?$positional_parameter_base@_WV?$stream_output_adapter@_W@__crt_stdio_output@@@2@@__crt_stdio_output@@AAE_NXZ 10062500 f i libucrtd:output.obj
 0001:00061520       ?type_case_x@?$output_processor@_WV?$stream_output_adapter@_W@__crt_stdio_output@@V?$standard_base@_WV?$stream_output_adapter@_W@__crt_stdio_output@@@2@@__crt_stdio_output@@AAE_NXZ 10062520 f i libucrtd:output.obj
 0001:00061540       ?type_case_x@?$output_processor@_WV?$string_output_adapter@_W@__crt_stdio_output@@V?$format_validation_base@_WV?$string_output_adapter@_W@__crt_stdio_output@@@2@@__crt_stdio_output@@AAE_NXZ 10062540 f i libucrtd:output.obj
 0001:00061560       ?type_case_x@?$output_processor@_WV?$string_output_adapter@_W@__crt_stdio_output@@V?$positional_parameter_base@_WV?$string_output_adapter@_W@__crt_stdio_output@@@2@@__crt_stdio_output@@AAE_NXZ 10062560 f i libucrtd:output.obj
 0001:00061580       ?type_case_x@?$output_processor@_WV?$string_output_adapter@_W@__crt_stdio_output@@V?$standard_base@_WV?$string_output_adapter@_W@__crt_stdio_output@@@2@@__crt_stdio_output@@AAE_NXZ 10062580 f i libucrtd:output.obj
 0001:000615a0       ?unset_flag@?$output_processor@DV?$stream_output_adapter@D@__crt_stdio_output@@V?$format_validation_base@DV?$stream_output_adapter@D@__crt_stdio_output@@@2@@__crt_stdio_output@@AAEXI@Z 100625a0 f i libucrtd:output.obj
 0001:000615c0       ?unset_flag@?$output_processor@DV?$stream_output_adapter@D@__crt_stdio_output@@V?$positional_parameter_base@DV?$stream_output_adapter@D@__crt_stdio_output@@@2@@__crt_stdio_output@@AAEXI@Z 100625c0 f i libucrtd:output.obj
 0001:000615e0       ?unset_flag@?$output_processor@DV?$stream_output_adapter@D@__crt_stdio_output@@V?$standard_base@DV?$stream_output_adapter@D@__crt_stdio_output@@@2@@__crt_stdio_output@@AAEXI@Z 100625e0 f i libucrtd:output.obj
 0001:00061600       ?unset_flag@?$output_processor@DV?$string_output_adapter@D@__crt_stdio_output@@V?$format_validation_base@DV?$string_output_adapter@D@__crt_stdio_output@@@2@@__crt_stdio_output@@AAEXI@Z 10062600 f i libucrtd:output.obj
 0001:00061620       ?unset_flag@?$output_processor@DV?$string_output_adapter@D@__crt_stdio_output@@V?$positional_parameter_base@DV?$string_output_adapter@D@__crt_stdio_output@@@2@@__crt_stdio_output@@AAEXI@Z 10062620 f i libucrtd:output.obj
 0001:00061640       ?unset_flag@?$output_processor@DV?$string_output_adapter@D@__crt_stdio_output@@V?$standard_base@DV?$string_output_adapter@D@__crt_stdio_output@@@2@@__crt_stdio_output@@AAEXI@Z 10062640 f i libucrtd:output.obj
 0001:00061660       ?unset_flag@?$output_processor@_WV?$stream_output_adapter@_W@__crt_stdio_output@@V?$format_validation_base@_WV?$stream_output_adapter@_W@__crt_stdio_output@@@2@@__crt_stdio_output@@AAEXI@Z 10062660 f i libucrtd:output.obj
 0001:00061680       ?unset_flag@?$output_processor@_WV?$stream_output_adapter@_W@__crt_stdio_output@@V?$positional_parameter_base@_WV?$stream_output_adapter@_W@__crt_stdio_output@@@2@@__crt_stdio_output@@AAEXI@Z 10062680 f i libucrtd:output.obj
 0001:000616a0       ?unset_flag@?$output_processor@_WV?$stream_output_adapter@_W@__crt_stdio_output@@V?$standard_base@_WV?$stream_output_adapter@_W@__crt_stdio_output@@@2@@__crt_stdio_output@@AAEXI@Z 100626a0 f i libucrtd:output.obj
 0001:000616c0       ?unset_flag@?$output_processor@_WV?$string_output_adapter@_W@__crt_stdio_output@@V?$format_validation_base@_WV?$string_output_adapter@_W@__crt_stdio_output@@@2@@__crt_stdio_output@@AAEXI@Z 100626c0 f i libucrtd:output.obj
 0001:000616e0       ?unset_flag@?$output_processor@_WV?$string_output_adapter@_W@__crt_stdio_output@@V?$positional_parameter_base@_WV?$string_output_adapter@_W@__crt_stdio_output@@@2@@__crt_stdio_output@@AAEXI@Z 100626e0 f i libucrtd:output.obj
 0001:00061700       ?unset_flag@?$output_processor@_WV?$string_output_adapter@_W@__crt_stdio_output@@V?$standard_base@_WV?$string_output_adapter@_W@__crt_stdio_output@@@2@@__crt_stdio_output@@AAEXI@Z 10062700 f i libucrtd:output.obj
 0001:00061720       ?update_field_width@?$positional_parameter_base@DV?$stream_output_adapter@D@__crt_stdio_output@@@__crt_stdio_output@@IAE_NXZ 10062720 f i libucrtd:output.obj
 0001:000618a0       ?update_field_width@?$positional_parameter_base@DV?$string_output_adapter@D@__crt_stdio_output@@@__crt_stdio_output@@IAE_NXZ 100628a0 f i libucrtd:output.obj
 0001:00061a20       ?update_field_width@?$positional_parameter_base@_WV?$stream_output_adapter@_W@__crt_stdio_output@@@__crt_stdio_output@@IAE_NXZ 10062a20 f i libucrtd:output.obj
 0001:00061ba0       ?update_field_width@?$positional_parameter_base@_WV?$string_output_adapter@_W@__crt_stdio_output@@@__crt_stdio_output@@IAE_NXZ 10062ba0 f i libucrtd:output.obj
 0001:00061d20       ?update_field_width@?$standard_base@DV?$stream_output_adapter@D@__crt_stdio_output@@@__crt_stdio_output@@IAE_NXZ 10062d20 f i libucrtd:output.obj
 0001:00061d50       ?update_field_width@?$standard_base@DV?$string_output_adapter@D@__crt_stdio_output@@@__crt_stdio_output@@IAE_NXZ 10062d50 f i libucrtd:output.obj
 0001:00061d80       ?update_field_width@?$standard_base@_WV?$stream_output_adapter@_W@__crt_stdio_output@@@__crt_stdio_output@@IAE_NXZ 10062d80 f i libucrtd:output.obj
 0001:00061db0       ?update_field_width@?$standard_base@_WV?$string_output_adapter@_W@__crt_stdio_output@@@__crt_stdio_output@@IAE_NXZ 10062db0 f i libucrtd:output.obj
 0001:00061de0       ?update_precision@?$positional_parameter_base@DV?$stream_output_adapter@D@__crt_stdio_output@@@__crt_stdio_output@@IAE_NXZ 10062de0 f i libucrtd:output.obj
 0001:00061f60       ?update_precision@?$positional_parameter_base@DV?$string_output_adapter@D@__crt_stdio_output@@@__crt_stdio_output@@IAE_NXZ 10062f60 f i libucrtd:output.obj
 0001:000620e0       ?update_precision@?$positional_parameter_base@_WV?$stream_output_adapter@_W@__crt_stdio_output@@@__crt_stdio_output@@IAE_NXZ 100630e0 f i libucrtd:output.obj
 0001:00062260       ?update_precision@?$positional_parameter_base@_WV?$string_output_adapter@_W@__crt_stdio_output@@@__crt_stdio_output@@IAE_NXZ 10063260 f i libucrtd:output.obj
 0001:000623e0       ?update_precision@?$standard_base@DV?$stream_output_adapter@D@__crt_stdio_output@@@__crt_stdio_output@@IAE_NXZ 100633e0 f i libucrtd:output.obj
 0001:00062410       ?update_precision@?$standard_base@DV?$string_output_adapter@D@__crt_stdio_output@@@__crt_stdio_output@@IAE_NXZ 10063410 f i libucrtd:output.obj
 0001:00062440       ?update_precision@?$standard_base@_WV?$stream_output_adapter@_W@__crt_stdio_output@@@__crt_stdio_output@@IAE_NXZ 10063440 f i libucrtd:output.obj
 0001:00062470       ?update_precision@?$standard_base@_WV?$string_output_adapter@_W@__crt_stdio_output@@@__crt_stdio_output@@IAE_NXZ 10063470 f i libucrtd:output.obj
 0001:000624a0       ?valid@__crt_stdio_stream@@QBE_NXZ 100634a0 f i libucrtd:output.obj
 0001:000624d0       ?validate@?$stream_output_adapter@D@__crt_stdio_output@@QBE_NXZ 100634d0 f i libucrtd:output.obj
 0001:00062580       ?validate@?$stream_output_adapter@_W@__crt_stdio_output@@QBE_NXZ 10063580 f i libucrtd:output.obj
 0001:00062630       ?validate@?$string_output_adapter@D@__crt_stdio_output@@QBE_NXZ 10063630 f i libucrtd:output.obj
 0001:000626c0       ?validate@?$string_output_adapter@_W@__crt_stdio_output@@QBE_NXZ 100636c0 f i libucrtd:output.obj
 0001:00062750       ?validate_and_store_parameter_data@?$positional_parameter_base@DV?$stream_output_adapter@D@__crt_stdio_output@@@__crt_stdio_output@@AAE_NAAUparameter_data@12@W4parameter_type@12@DW4length_modifier@2@@Z 10063750 f i libucrtd:output.obj
 0001:00062820       ?validate_and_store_parameter_data@?$positional_parameter_base@DV?$string_output_adapter@D@__crt_stdio_output@@@__crt_stdio_output@@AAE_NAAUparameter_data@12@W4parameter_type@12@DW4length_modifier@2@@Z 10063820 f i libucrtd:output.obj
 0001:000628f0       ?validate_and_store_parameter_data@?$positional_parameter_base@_WV?$stream_output_adapter@_W@__crt_stdio_output@@@__crt_stdio_output@@AAE_NAAUparameter_data@12@W4parameter_type@12@_WW4length_modifier@2@@Z 100638f0 f i libucrtd:output.obj
 0001:000629d0       ?validate_and_store_parameter_data@?$positional_parameter_base@_WV?$string_output_adapter@_W@__crt_stdio_output@@@__crt_stdio_output@@AAE_NAAUparameter_data@12@W4parameter_type@12@_WW4length_modifier@2@@Z 100639d0 f i libucrtd:output.obj
 0001:00062ab0       ?validate_and_update_state_at_beginning_of_format_character@?$positional_parameter_base@DV?$stream_output_adapter@D@__crt_stdio_output@@@__crt_stdio_output@@IAE_NXZ 10063ab0 f i libucrtd:output.obj
 0001:00062cd0       ?validate_and_update_state_at_beginning_of_format_character@?$positional_parameter_base@DV?$string_output_adapter@D@__crt_stdio_output@@@__crt_stdio_output@@IAE_NXZ 10063cd0 f i libucrtd:output.obj
 0001:00062ef0       ?validate_and_update_state_at_beginning_of_format_character@?$positional_parameter_base@_WV?$stream_output_adapter@_W@__crt_stdio_output@@@__crt_stdio_output@@IAE_NXZ 10063ef0 f i libucrtd:output.obj
 0001:00063110       ?validate_and_update_state_at_beginning_of_format_character@?$positional_parameter_base@_WV?$string_output_adapter@_W@__crt_stdio_output@@@__crt_stdio_output@@IAE_NXZ 10064110 f i libucrtd:output.obj
 0001:00063330       ?validate_and_update_state_at_beginning_of_format_character@?$standard_base@DV?$stream_output_adapter@D@__crt_stdio_output@@@__crt_stdio_output@@IAE_NXZ 10064330 f i libucrtd:output.obj
 0001:00063340       ?validate_and_update_state_at_beginning_of_format_character@?$standard_base@DV?$string_output_adapter@D@__crt_stdio_output@@@__crt_stdio_output@@IAE_NXZ 10064340 f i libucrtd:output.obj
 0001:00063350       ?validate_and_update_state_at_beginning_of_format_character@?$standard_base@_WV?$stream_output_adapter@_W@__crt_stdio_output@@@__crt_stdio_output@@IAE_NXZ 10064350 f i libucrtd:output.obj
 0001:00063360       ?validate_and_update_state_at_beginning_of_format_character@?$standard_base@_WV?$string_output_adapter@_W@__crt_stdio_output@@@__crt_stdio_output@@IAE_NXZ 10064360 f i libucrtd:output.obj
 0001:00063370       ?validate_and_update_state_at_end_of_format_string@?$format_validation_base@DV?$stream_output_adapter@D@__crt_stdio_output@@@__crt_stdio_output@@IBE_NXZ 10064370 f i libucrtd:output.obj
 0001:00063410       ?validate_and_update_state_at_end_of_format_string@?$format_validation_base@DV?$string_output_adapter@D@__crt_stdio_output@@@__crt_stdio_output@@IBE_NXZ 10064410 f i libucrtd:output.obj
 0001:000634b0       ?validate_and_update_state_at_end_of_format_string@?$format_validation_base@_WV?$stream_output_adapter@_W@__crt_stdio_output@@@__crt_stdio_output@@IBE_NXZ 100644b0 f i libucrtd:output.obj
 0001:00063550       ?validate_and_update_state_at_end_of_format_string@?$format_validation_base@_WV?$string_output_adapter@_W@__crt_stdio_output@@@__crt_stdio_output@@IBE_NXZ 10064550 f i libucrtd:output.obj
 0001:000635f0       ?validate_and_update_state_at_end_of_format_string@?$positional_parameter_base@DV?$stream_output_adapter@D@__crt_stdio_output@@@__crt_stdio_output@@IAE_NXZ 100645f0 f i libucrtd:output.obj
 0001:00063790       ?validate_and_update_state_at_end_of_format_string@?$positional_parameter_base@DV?$string_output_adapter@D@__crt_stdio_output@@@__crt_stdio_output@@IAE_NXZ 10064790 f i libucrtd:output.obj
 0001:00063930       ?validate_and_update_state_at_end_of_format_string@?$positional_parameter_base@_WV?$stream_output_adapter@_W@__crt_stdio_output@@@__crt_stdio_output@@IAE_NXZ 10064930 f i libucrtd:output.obj
 0001:00063ad0       ?validate_and_update_state_at_end_of_format_string@?$positional_parameter_base@_WV?$string_output_adapter@_W@__crt_stdio_output@@@__crt_stdio_output@@IAE_NXZ 10064ad0 f i libucrtd:output.obj
 0001:00063c70       ?validate_and_update_state_at_end_of_format_string@?$standard_base@DV?$stream_output_adapter@D@__crt_stdio_output@@@__crt_stdio_output@@IBE_NXZ 10064c70 f i libucrtd:output.obj
 0001:00063c80       ?validate_and_update_state_at_end_of_format_string@?$standard_base@DV?$string_output_adapter@D@__crt_stdio_output@@@__crt_stdio_output@@IBE_NXZ 10064c80 f i libucrtd:output.obj
 0001:00063c90       ?validate_and_update_state_at_end_of_format_string@?$standard_base@_WV?$stream_output_adapter@_W@__crt_stdio_output@@@__crt_stdio_output@@IBE_NXZ 10064c90 f i libucrtd:output.obj
 0001:00063ca0       ?validate_and_update_state_at_end_of_format_string@?$standard_base@_WV?$string_output_adapter@_W@__crt_stdio_output@@@__crt_stdio_output@@IBE_NXZ 10064ca0 f i libucrtd:output.obj
 0001:00063cb0       ?validate_state_for_type_case_a@?$positional_parameter_base@DV?$stream_output_adapter@D@__crt_stdio_output@@@__crt_stdio_output@@IAE_NXZ 10064cb0 f i libucrtd:output.obj
 0001:00063da0       ?validate_state_for_type_case_a@?$positional_parameter_base@DV?$string_output_adapter@D@__crt_stdio_output@@@__crt_stdio_output@@IAE_NXZ 10064da0 f i libucrtd:output.obj
 0001:00063e90       ?validate_state_for_type_case_a@?$positional_parameter_base@_WV?$stream_output_adapter@_W@__crt_stdio_output@@@__crt_stdio_output@@IAE_NXZ 10064e90 f i libucrtd:output.obj
 0001:00063f80       ?validate_state_for_type_case_a@?$positional_parameter_base@_WV?$string_output_adapter@_W@__crt_stdio_output@@@__crt_stdio_output@@IAE_NXZ 10064f80 f i libucrtd:output.obj
 0001:00064070       ?validate_state_for_type_case_a@?$standard_base@DV?$stream_output_adapter@D@__crt_stdio_output@@@__crt_stdio_output@@IBE_NXZ 10065070 f i libucrtd:output.obj
 0001:00064080       ?validate_state_for_type_case_a@?$standard_base@DV?$string_output_adapter@D@__crt_stdio_output@@@__crt_stdio_output@@IBE_NXZ 10065080 f i libucrtd:output.obj
 0001:00064090       ?validate_state_for_type_case_a@?$standard_base@_WV?$stream_output_adapter@_W@__crt_stdio_output@@@__crt_stdio_output@@IBE_NXZ 10065090 f i libucrtd:output.obj
 0001:000640a0       ?validate_state_for_type_case_a@?$standard_base@_WV?$string_output_adapter@_W@__crt_stdio_output@@@__crt_stdio_output@@IBE_NXZ 100650a0 f i libucrtd:output.obj
 0001:000640b0       ?validate_stream_is_ansi_if_required@?$__acrt_stdio_char_traits@D@@SA_NQAU_iobuf@@@Z 100650b0 f i libucrtd:output.obj
 0001:000641e0       ?validate_stream_is_ansi_if_required@?$__acrt_stdio_char_traits@_W@@SA_NQAU_iobuf@@@Z 100651e0 f i libucrtd:output.obj
 0001:000641f0       ?wide_null_string@?$output_processor@DV?$stream_output_adapter@D@__crt_stdio_output@@V?$format_validation_base@DV?$stream_output_adapter@D@__crt_stdio_output@@@2@@__crt_stdio_output@@CAPA_WXZ 100651f0 f i libucrtd:output.obj
 0001:00064200       ?wide_null_string@?$output_processor@DV?$stream_output_adapter@D@__crt_stdio_output@@V?$positional_parameter_base@DV?$stream_output_adapter@D@__crt_stdio_output@@@2@@__crt_stdio_output@@CAPA_WXZ 10065200 f i libucrtd:output.obj
 0001:00064210       ?wide_null_string@?$output_processor@DV?$stream_output_adapter@D@__crt_stdio_output@@V?$standard_base@DV?$stream_output_adapter@D@__crt_stdio_output@@@2@@__crt_stdio_output@@CAPA_WXZ 10065210 f i libucrtd:output.obj
 0001:00064220       ?wide_null_string@?$output_processor@DV?$string_output_adapter@D@__crt_stdio_output@@V?$format_validation_base@DV?$string_output_adapter@D@__crt_stdio_output@@@2@@__crt_stdio_output@@CAPA_WXZ 10065220 f i libucrtd:output.obj
 0001:00064230       ?wide_null_string@?$output_processor@DV?$string_output_adapter@D@__crt_stdio_output@@V?$positional_parameter_base@DV?$string_output_adapter@D@__crt_stdio_output@@@2@@__crt_stdio_output@@CAPA_WXZ 10065230 f i libucrtd:output.obj
 0001:00064240       ?wide_null_string@?$output_processor@DV?$string_output_adapter@D@__crt_stdio_output@@V?$standard_base@DV?$string_output_adapter@D@__crt_stdio_output@@@2@@__crt_stdio_output@@CAPA_WXZ 10065240 f i libucrtd:output.obj
 0001:00064250       ?wide_null_string@?$output_processor@_WV?$stream_output_adapter@_W@__crt_stdio_output@@V?$format_validation_base@_WV?$stream_output_adapter@_W@__crt_stdio_output@@@2@@__crt_stdio_output@@CAPA_WXZ 10065250 f i libucrtd:output.obj
 0001:00064260       ?wide_null_string@?$output_processor@_WV?$stream_output_adapter@_W@__crt_stdio_output@@V?$positional_parameter_base@_WV?$stream_output_adapter@_W@__crt_stdio_output@@@2@@__crt_stdio_output@@CAPA_WXZ 10065260 f i libucrtd:output.obj
 0001:00064270       ?wide_null_string@?$output_processor@_WV?$stream_output_adapter@_W@__crt_stdio_output@@V?$standard_base@_WV?$stream_output_adapter@_W@__crt_stdio_output@@@2@@__crt_stdio_output@@CAPA_WXZ 10065270 f i libucrtd:output.obj
 0001:00064280       ?wide_null_string@?$output_processor@_WV?$string_output_adapter@_W@__crt_stdio_output@@V?$format_validation_base@_WV?$string_output_adapter@_W@__crt_stdio_output@@@2@@__crt_stdio_output@@CAPA_WXZ 10065280 f i libucrtd:output.obj
 0001:00064290       ?wide_null_string@?$output_processor@_WV?$string_output_adapter@_W@__crt_stdio_output@@V?$positional_parameter_base@_WV?$string_output_adapter@_W@__crt_stdio_output@@@2@@__crt_stdio_output@@CAPA_WXZ 10065290 f i libucrtd:output.obj
 0001:000642a0       ?wide_null_string@?$output_processor@_WV?$string_output_adapter@_W@__crt_stdio_output@@V?$standard_base@_WV?$string_output_adapter@_W@__crt_stdio_output@@@2@@__crt_stdio_output@@CAPA_WXZ 100652a0 f i libucrtd:output.obj
 0001:000642b0       ?write_character@?$output_adapter_common@DV?$stream_output_adapter@D@__crt_stdio_output@@@__crt_stdio_output@@QBEXDQAH@Z 100652b0 f i libucrtd:output.obj
 0001:000642f0       ?write_character@?$output_adapter_common@_WV?$stream_output_adapter@_W@__crt_stdio_output@@@__crt_stdio_output@@QBEX_WQAH@Z 100652f0 f i libucrtd:output.obj
 0001:00064330       ?write_character@?$string_output_adapter@D@__crt_stdio_output@@QBE_NDQAH@Z 10065330 f i libucrtd:output.obj
 0001:000643c0       ?write_character@?$string_output_adapter@_W@__crt_stdio_output@@QBE_N_WQAH@Z 100653c0 f i libucrtd:output.obj
 0001:00064460       ?write_character_without_count_update@?$stream_output_adapter@D@__crt_stdio_output@@QBE_ND@Z 10065460 f i libucrtd:output.obj
 0001:000644d0       ?write_character_without_count_update@?$stream_output_adapter@_W@__crt_stdio_output@@QBE_N_W@Z 100654d0 f i libucrtd:output.obj
 0001:00064540       ?write_stored_string_tchar@?$output_processor@DV?$stream_output_adapter@D@__crt_stdio_output@@V?$format_validation_base@DV?$stream_output_adapter@D@__crt_stdio_output@@@2@@__crt_stdio_output@@AAE_ND@Z 10065540 f i libucrtd:output.obj
 0001:00064650       ?write_stored_string_tchar@?$output_processor@DV?$stream_output_adapter@D@__crt_stdio_output@@V?$positional_parameter_base@DV?$stream_output_adapter@D@__crt_stdio_output@@@2@@__crt_stdio_output@@AAE_ND@Z 10065650 f i libucrtd:output.obj
 0001:00064760       ?write_stored_string_tchar@?$output_processor@DV?$stream_output_adapter@D@__crt_stdio_output@@V?$standard_base@DV?$stream_output_adapter@D@__crt_stdio_output@@@2@@__crt_stdio_output@@AAE_ND@Z 10065760 f i libucrtd:output.obj
 0001:00064870       ?write_stored_string_tchar@?$output_processor@DV?$string_output_adapter@D@__crt_stdio_output@@V?$format_validation_base@DV?$string_output_adapter@D@__crt_stdio_output@@@2@@__crt_stdio_output@@AAE_ND@Z 10065870 f i libucrtd:output.obj
 0001:00064980       ?write_stored_string_tchar@?$output_processor@DV?$string_output_adapter@D@__crt_stdio_output@@V?$positional_parameter_base@DV?$string_output_adapter@D@__crt_stdio_output@@@2@@__crt_stdio_output@@AAE_ND@Z 10065980 f i libucrtd:output.obj
 0001:00064a90       ?write_stored_string_tchar@?$output_processor@DV?$string_output_adapter@D@__crt_stdio_output@@V?$standard_base@DV?$string_output_adapter@D@__crt_stdio_output@@@2@@__crt_stdio_output@@AAE_ND@Z 10065a90 f i libucrtd:output.obj
 0001:00064ba0       ?write_stored_string_tchar@?$output_processor@_WV?$stream_output_adapter@_W@__crt_stdio_output@@V?$format_validation_base@_WV?$stream_output_adapter@_W@__crt_stdio_output@@@2@@__crt_stdio_output@@AAE_N_W@Z 10065ba0 f i libucrtd:output.obj
 0001:00064c90       ?write_stored_string_tchar@?$output_processor@_WV?$stream_output_adapter@_W@__crt_stdio_output@@V?$positional_parameter_base@_WV?$stream_output_adapter@_W@__crt_stdio_output@@@2@@__crt_stdio_output@@AAE_N_W@Z 10065c90 f i libucrtd:output.obj
 0001:00064d80       ?write_stored_string_tchar@?$output_processor@_WV?$stream_output_adapter@_W@__crt_stdio_output@@V?$standard_base@_WV?$stream_output_adapter@_W@__crt_stdio_output@@@2@@__crt_stdio_output@@AAE_N_W@Z 10065d80 f i libucrtd:output.obj
 0001:00064e70       ?write_stored_string_tchar@?$output_processor@_WV?$string_output_adapter@_W@__crt_stdio_output@@V?$format_validation_base@_WV?$string_output_adapter@_W@__crt_stdio_output@@@2@@__crt_stdio_output@@AAE_N_W@Z 10065e70 f i libucrtd:output.obj
 0001:00064f60       ?write_stored_string_tchar@?$output_processor@_WV?$string_output_adapter@_W@__crt_stdio_output@@V?$positional_parameter_base@_WV?$string_output_adapter@_W@__crt_stdio_output@@@2@@__crt_stdio_output@@AAE_N_W@Z 10065f60 f i libucrtd:output.obj
 0001:00065050       ?write_stored_string_tchar@?$output_processor@_WV?$string_output_adapter@_W@__crt_stdio_output@@V?$standard_base@_WV?$string_output_adapter@_W@__crt_stdio_output@@@2@@__crt_stdio_output@@AAE_N_W@Z 10066050 f i libucrtd:output.obj
 0001:00065140       ?write_string@?$stream_output_adapter@D@__crt_stdio_output@@QBEXQBDHQAHAAV__crt_deferred_errno_cache@@@Z 10066140 f i libucrtd:output.obj
 0001:000651a0       ?write_string@?$stream_output_adapter@_W@__crt_stdio_output@@QBEXQB_WHQAHAAV__crt_deferred_errno_cache@@@Z 100661a0 f i libucrtd:output.obj
 0001:00065200       ?write_string@?$string_output_adapter@D@__crt_stdio_output@@QBEXQBDHQAHAAV__crt_deferred_errno_cache@@@Z 10066200 f i libucrtd:output.obj
 0001:00065300       ?write_string@?$string_output_adapter@_W@__crt_stdio_output@@QBEXQB_WHQAHAAV__crt_deferred_errno_cache@@@Z 10066300 f i libucrtd:output.obj
 0001:00065410       ?write_string_impl@?$output_adapter_common@DV?$stream_output_adapter@D@__crt_stdio_output@@@__crt_stdio_output@@IBEXQBDHQAHAAV__crt_deferred_errno_cache@@@Z 10066410 f i libucrtd:output.obj
 0001:000654b0       ?write_string_impl@?$output_adapter_common@_WV?$stream_output_adapter@_W@__crt_stdio_output@@@__crt_stdio_output@@IBEXQB_WHQAHAAV__crt_deferred_errno_cache@@@Z 100664b0 f i libucrtd:output.obj
 0001:00065550       ___acrt_isleadbyte_l_noupdate 10066550 f i libucrtd:output.obj
 0001:00065570       ___acrt_locale_changed     10066570 f i libucrtd:output.obj
 0001:000655a0       ___acrt_locale_get_ctype_array_value 100665a0 f i libucrtd:output.obj
 0001:000655d0       ___stdio_common_vfprintf   100665d0 f   libucrtd:output.obj
 0001:00065600       ___stdio_common_vfprintf_p 10066600 f   libucrtd:output.obj
 0001:00065630       ___stdio_common_vfprintf_s 10066630 f   libucrtd:output.obj
 0001:00065660       ___stdio_common_vfwprintf  10066660 f   libucrtd:output.obj
 0001:00065690       ___stdio_common_vfwprintf_p 10066690 f   libucrtd:output.obj
 0001:000656c0       ___stdio_common_vfwprintf_s 100666c0 f   libucrtd:output.obj
 0001:000656f0       ___stdio_common_vsnprintf_s 100666f0 f   libucrtd:output.obj
 0001:00065720       ___stdio_common_vsnwprintf_s 10066720 f   libucrtd:output.obj
 0001:00065750       ___stdio_common_vsprintf   10066750 f   libucrtd:output.obj
 0001:00065780       ___stdio_common_vsprintf_p 10066780 f   libucrtd:output.obj
 0001:000657b0       ___stdio_common_vsprintf_s 100667b0 f   libucrtd:output.obj
 0001:000657e0       ___stdio_common_vswprintf  100667e0 f   libucrtd:output.obj
 0001:00065810       ___stdio_common_vswprintf_p 10066810 f   libucrtd:output.obj
 0001:00065840       ___stdio_common_vswprintf_s 10066840 f   libucrtd:output.obj
 0001:00065870       __ctype_fast_check_internal 10066870 f i libucrtd:output.obj
 0001:00065890       __isdigit_fast_internal    10066890 f i libucrtd:output.obj
 0001:000658b0       __tolower_fast_internal    100668b0 f i libucrtd:output.obj
 0001:000658d0       _free                      100668d0 f   libucrtd:free.obj
 0001:00065900       _malloc                    10066900 f   libucrtd:malloc.obj
 0001:00065920       ??$?RU?$__crt_report_hook_node@D@@@__crt_internal_free_policy@@QBEXQBU?$__crt_report_hook_node@D@@@Z 10066920 f i libucrtd:dbgrpt.obj
 0001:00065940       ??$?RU?$__crt_report_hook_node@_W@@@__crt_internal_free_policy@@QBEXQBU?$__crt_report_hook_node@_W@@@Z 10066940 f i libucrtd:dbgrpt.obj
 0001:00066730       ??$get_module_file_name@AAPAUHINSTANCE__@@AAY0BAF@DK@?$__crt_char_traits@D@@SAKAAPAUHINSTANCE__@@AAY0BAF@D$$QAK@Z 10067730 f i libucrtd:dbgrpt.obj
 0001:00066750       ??$get_module_file_name@AAPAUHINSTANCE__@@AAY0BAF@_WK@?$__crt_char_traits@_W@@SAKAAPAUHINSTANCE__@@AAY0BAF@_W$$QAK@Z 10067750 f i libucrtd:dbgrpt.obj
 0001:00066770       ??$tcscpy_s@AAY0BAF@DIPBD@?$__crt_char_traits@D@@SAHAAY0BAF@D$$QAI$$QAPBD@Z 10067770 f i libucrtd:dbgrpt.obj
 0001:00066790       ??$tcscpy_s@AAY0BAF@_WIPB_W@?$__crt_char_traits@_W@@SAHAAY0BAF@_W$$QAI$$QAPB_W@Z 10067790 f i libucrtd:dbgrpt.obj
 0001:000667b0       ??$tcslen@AAY0BAF@D@?$__crt_char_traits@D@@SAIAAY0BAF@D@Z 100677b0 f i libucrtd:dbgrpt.obj
 0001:000667d0       ??$tcslen@AAY0BAF@_W@?$__crt_char_traits@_W@@SAIAAY0BAF@_W@Z 100677d0 f i libucrtd:dbgrpt.obj
 0001:000667f0       ??$tcslen@ABQBD@?$__crt_char_traits@D@@SAIABQBD@Z 100677f0 f i libucrtd:dbgrpt.obj
 0001:00066810       ??$tcslen@ABQB_W@?$__crt_char_traits@_W@@SAIABQB_W@Z 10067810 f i libucrtd:dbgrpt.obj
 0001:00066910       ??0?$__crt_unique_heap_ptr@U?$__crt_report_hook_node@D@@U__crt_internal_free_policy@@@@QAE@QAU?$__crt_report_hook_node@D@@@Z 10067910 f i libucrtd:dbgrpt.obj
 0001:00066930       ??0?$__crt_unique_heap_ptr@U?$__crt_report_hook_node@_W@@U__crt_internal_free_policy@@@@QAE@QAU?$__crt_report_hook_node@_W@@@Z 10067930 f i libucrtd:dbgrpt.obj
 0001:00066950       ??1?$__crt_unique_heap_ptr@U?$__crt_report_hook_node@D@@U__crt_internal_free_policy@@@@QAE@XZ 10067950 f i libucrtd:dbgrpt.obj
 0001:00066970       ??1?$__crt_unique_heap_ptr@U?$__crt_report_hook_node@_W@@U__crt_internal_free_policy@@@@QAE@XZ 10067970 f i libucrtd:dbgrpt.obj
 0001:00066990       ??B?$__crt_unique_heap_ptr@U?$__crt_report_hook_node@D@@U__crt_internal_free_policy@@@@QBE_NXZ 10067990 f i libucrtd:dbgrpt.obj
 0001:000669b0       ??B?$__crt_unique_heap_ptr@U?$__crt_report_hook_node@_W@@U__crt_internal_free_policy@@@@QBE_NXZ 100679b0 f i libucrtd:dbgrpt.obj
 0001:00066ef0       ?detach@?$__crt_unique_heap_ptr@U?$__crt_report_hook_node@D@@U__crt_internal_free_policy@@@@QAEPAU?$__crt_report_hook_node@D@@XZ 10067ef0 f i libucrtd:dbgrpt.obj
 0001:00066f20       ?detach@?$__crt_unique_heap_ptr@U?$__crt_report_hook_node@_W@@U__crt_internal_free_policy@@@@QAEPAU?$__crt_report_hook_node@_W@@XZ 10067f20 f i libucrtd:dbgrpt.obj
 0001:00066f50       ?get@?$__crt_unique_heap_ptr@U?$__crt_report_hook_node@D@@U__crt_internal_free_policy@@@@QBEPAU?$__crt_report_hook_node@D@@XZ 10067f50 f i libucrtd:dbgrpt.obj
 0001:00066f70       ?get@?$__crt_unique_heap_ptr@U?$__crt_report_hook_node@_W@@U__crt_internal_free_policy@@@@QBEPAU?$__crt_report_hook_node@_W@@XZ 10067f70 f i libucrtd:dbgrpt.obj
 0001:00066ff0       ?is_valid@?$__crt_unique_heap_ptr@U?$__crt_report_hook_node@D@@U__crt_internal_free_policy@@@@QBE_NXZ 10067ff0 f i libucrtd:dbgrpt.obj
 0001:00067020       ?is_valid@?$__crt_unique_heap_ptr@U?$__crt_report_hook_node@_W@@U__crt_internal_free_policy@@@@QBE_NXZ 10068020 f i libucrtd:dbgrpt.obj
 0001:00067050       ?release@?$__crt_unique_heap_ptr@U?$__crt_report_hook_node@D@@U__crt_internal_free_policy@@@@QAEXXZ 10068050 f i libucrtd:dbgrpt.obj
 0001:00067080       ?release@?$__crt_unique_heap_ptr@U?$__crt_report_hook_node@_W@@U__crt_internal_free_policy@@@@QAEXXZ 10068080 f i libucrtd:dbgrpt.obj
 0001:000670b0       __CrtDbgReport             100680b0 f   libucrtd:dbgrpt.obj
 0001:00067100       __CrtDbgReportW            10068100 f   libucrtd:dbgrpt.obj
 0001:00067150       __CrtSetReportHook2        10068150 f   libucrtd:dbgrpt.obj
 0001:00067170       __CrtSetReportHookW2       10068170 f   libucrtd:dbgrpt.obj
 0001:00067190       ___acrt_MessageWindowA     10068190 f   libucrtd:dbgrpt.obj
 0001:000671c0       ___acrt_MessageWindowW     100681c0 f   libucrtd:dbgrpt.obj
 0001:000671f0       __invoke_watson_if_error   100681f0 f i libucrtd:dbgrpt.obj
 0001:00067220       __invoke_watson_if_oneof   10068220 f i libucrtd:dbgrpt.obj
 0001:00067260       __snwprintf_s              10068260 f i libucrtd:dbgrpt.obj
 0001:000672a0       __vsnwprintf_s_l           100682a0 f i libucrtd:dbgrpt.obj
 0001:00067620       _wcscpy_s                  10068620 f   libucrtd:wcscpy_s.obj
 0001:00068340       ??1?$__crt_simd_cleanup_guard@$00@@QAE@XZ 10069340 f i libucrtd:strnlen.obj
 0001:00068350       ??1?$__crt_simd_cleanup_guard@$0A@@@QAE@XZ 10069350 f i libucrtd:strnlen.obj
 0001:00068360       ?compare_equals@?$__crt_simd_traits@$00E@@SA?AT__m256i@@T2@0@Z 10069360 f i libucrtd:strnlen.obj
 0001:000683a0       ?compare_equals@?$__crt_simd_traits@$00G@@SA?AT__m256i@@T2@0@Z 100693a0 f i libucrtd:strnlen.obj
 0001:000683e0       ?compare_equals@?$__crt_simd_traits@$0A@E@@SA?AT__m128i@@T2@0@Z 100693e0 f i libucrtd:strnlen.obj
 0001:00068420       ?compare_equals@?$__crt_simd_traits@$0A@G@@SA?AT__m128i@@T2@0@Z 10069420 f i libucrtd:strnlen.obj
 0001:00068460       ?compute_byte_mask@?$__crt_simd_pack_traits@$00@@SAHT__m256i@@@Z 10069460 f i libucrtd:strnlen.obj
 0001:00068490       ?compute_byte_mask@?$__crt_simd_pack_traits@$0A@@@SAHT__m128i@@@Z 10069490 f i libucrtd:strnlen.obj
 0001:000684c0       ?get_zero_pack@?$__crt_simd_pack_traits@$00@@SA?AT__m256i@@XZ 100694c0 f i libucrtd:strnlen.obj
 0001:000684f0       ?get_zero_pack@?$__crt_simd_pack_traits@$0A@@@SA?AT__m128i@@XZ 100694f0 f i libucrtd:strnlen.obj
 0001:00068520       _strnlen                   10069520 f   libucrtd:strnlen.obj
 0001:00068540       _wcslen                    10069540 f   libucrtd:strnlen.obj
 0001:00068560       _wcsnlen                   10069560 f   libucrtd:strnlen.obj
 0001:00068580       ??$__crt_fast_decode_pointer@P6AXPB_W00II@Z@@YAP6AXPB_W00II@ZQ6AX000II@Z@Z 10069580 f i libucrtd:invalid_parameter.obj
 0001:000685b0       ??$__crt_fast_encode_pointer@P6AXPB_W00II@Z@@YAP6AXPB_W00II@ZQ6AX000II@Z@Z 100695b0 f i libucrtd:invalid_parameter.obj
 0001:000685e0       ??$initialize_from_array@$$BY00Q6AXPB_W00II@Z@?$dual_state_global@P6AXPB_W00II@Z@__crt_state_management@@QAAXAAY00Q6AXPB_W00II@Z@Z 100695e0 f i libucrtd:invalid_parameter.obj
 0001:00068630       ?__crt_rotate_pointer_value@@YAIIH@Z 10069630 f i libucrtd:invalid_parameter.obj
 0001:00068640       ?dangerous_get_state_array@?$dual_state_global@P6AXPB_W00II@Z@__crt_state_management@@QAEPAP6AXPB_W00II@ZXZ 10069640 f i libucrtd:invalid_parameter.obj
 0001:00068650       ?get_current_state_index@__crt_state_management@@YAIXZ 10069650 f i libucrtd:invalid_parameter.obj
 0001:00068660       ?value@?$dual_state_global@P6AXPB_W00II@Z@__crt_state_management@@QAEAAP6AXPB_W00II@ZXZ 10069660 f i libucrtd:invalid_parameter.obj
 0001:00068680       ___acrt_call_reportfault   10069680 f   libucrtd:invalid_parameter.obj
 0001:000687e0       ___acrt_initialize_invalid_parameter_handler 100697e0 f   libucrtd:invalid_parameter.obj
 0001:00068810       __get_invalid_parameter_handler 10069810 f   libucrtd:invalid_parameter.obj
 0001:00068830       __get_thread_local_invalid_parameter_handler 10069830 f   libucrtd:invalid_parameter.obj
 0001:00068860       __invalid_parameter        10069860 f   libucrtd:invalid_parameter.obj
 0001:00068920       __invalid_parameter_noinfo 10069920 f   libucrtd:invalid_parameter.obj
 0001:00068940       __invalid_parameter_noinfo_noreturn 10069940 f   libucrtd:invalid_parameter.obj
 0001:00068970       __invoke_watson            10069970 f   libucrtd:invalid_parameter.obj
 0001:000689b0       __set_invalid_parameter_handler 100699b0 f   libucrtd:invalid_parameter.obj
 0001:00068a00       __set_thread_local_invalid_parameter_handler 10069a00 f   libucrtd:invalid_parameter.obj
 0001:00068a30       ___acrt_errno_from_os_error 10069a30 f   libucrtd:errno.obj
 0001:00068ab0       ___acrt_errno_map_os_error 10069ab0 f   libucrtd:errno.obj
 0001:00068ae0       ___doserrno                10069ae0 f   libucrtd:errno.obj
 0001:00068b10       __errno                    10069b10 f   libucrtd:errno.obj
 0001:00068b40       __get_doserrno             10069b40 f   libucrtd:errno.obj
 0001:00068bd0       __get_errno                10069bd0 f   libucrtd:errno.obj
 0001:00068c60       __set_doserrno             10069c60 f   libucrtd:errno.obj
 0001:00068c90       __set_errno                10069c90 f   libucrtd:errno.obj
 0001:00068cc0       _calloc                    10069cc0 f   libucrtd:calloc.obj
 0001:00068ce0       __recalloc                 10069ce0 f   libucrtd:recalloc.obj
 0001:00068d10       __recalloc_base            10069d10 f   libucrtd:recalloc.obj
 0001:00068daa       __resetstkoflw             10069daa f   libucrtd:resetstk.obj
 0001:00069290       _wcscat_s                  1006a290 f   libucrtd:wcscat_s.obj
 0001:000696e0       _wcsncpy_s                 1006a6e0 f   libucrtd:wcsncpy_s.obj
 0001:00069720       ___acrt_get_locale_data_prefix 1006a720 f i libucrtd:_ctype.obj
 0001:00069740       ___isascii                 1006a740 f i libucrtd:_ctype.obj
 0001:00069770       ___iscsym                  1006a770 f i libucrtd:_ctype.obj
 0001:000697b0       ___iscsymf                 1006a7b0 f i libucrtd:_ctype.obj
 0001:000697f0       ___toascii                 1006a7f0 f i libucrtd:_ctype.obj
 0001:00069800       __chvalidchk_l             1006a800 f i libucrtd:_ctype.obj
 0001:00069820       __isalnum_l                1006a820 f i libucrtd:_ctype.obj
 0001:00069860       __isalpha_l                1006a860 f i libucrtd:_ctype.obj
 0001:000698a0       __isblank_l                1006a8a0 f i libucrtd:_ctype.obj
 0001:00069900       __ischartype_l             1006a900 f i libucrtd:_ctype.obj
 0001:00069980       __iscntrl_l                1006a980 f i libucrtd:_ctype.obj
 0001:000699c0       __iscsym_l                 1006a9c0 f i libucrtd:_ctype.obj
 0001:00069a00       __iscsymf_l                1006aa00 f i libucrtd:_ctype.obj
 0001:00069a40       __isdigit_l                1006aa40 f i libucrtd:_ctype.obj
 0001:00069a80       __isgraph_l                1006aa80 f i libucrtd:_ctype.obj
 0001:00069ac0       __islower_l                1006aac0 f i libucrtd:_ctype.obj
 0001:00069b00       __isprint_l                1006ab00 f i libucrtd:_ctype.obj
 0001:00069b40       __ispunct_l                1006ab40 f i libucrtd:_ctype.obj
 0001:00069b80       __isspace_l                1006ab80 f i libucrtd:_ctype.obj
 0001:00069bc0       __isupper_l                1006abc0 f i libucrtd:_ctype.obj
 0001:00069c00       __isxdigit_l               1006ac00 f i libucrtd:_ctype.obj
 0001:00069c40       _isalnum                   1006ac40 f i libucrtd:_ctype.obj
 0001:00069c80       _isalpha                   1006ac80 f i libucrtd:_ctype.obj
 0001:00069cc0       _isblank                   1006acc0 f i libucrtd:_ctype.obj
 0001:00069d20       _iscntrl                   1006ad20 f i libucrtd:_ctype.obj
 0001:00069d60       _isdigit                   1006ad60 f i libucrtd:_ctype.obj
 0001:00069da0       _isgraph                   1006ada0 f i libucrtd:_ctype.obj
 0001:00069de0       _islower                   1006ade0 f i libucrtd:_ctype.obj
 0001:00069e20       _isprint                   1006ae20 f i libucrtd:_ctype.obj
 0001:00069e60       _ispunct                   1006ae60 f i libucrtd:_ctype.obj
 0001:00069ea0       _isspace                   1006aea0 f i libucrtd:_ctype.obj
 0001:00069ee0       _isupper                   1006aee0 f i libucrtd:_ctype.obj
 0001:00069f20       _isxdigit                  1006af20 f i libucrtd:_ctype.obj
 0001:00069f60       _wcscat                    1006af60 f   libucrtd:wcscat.obj
 0001:00069fc0       _wcscpy                    1006afc0 f   libucrtd:wcscpy.obj
 0001:0006a650       ??$open_file@ABQBDABQBDABHPAU_iobuf@@@?$__crt_char_traits@D@@SAPAU_iobuf@@ABQBD0ABH$$QAPAU1@@Z 1006b650 f i libucrtd:fopen.obj
 0001:0006a680       ??$open_file@ABQB_WABQB_WABHPAU_iobuf@@@?$__crt_char_traits@_W@@SAPAU_iobuf@@ABQB_W0ABH$$QAPAU1@@Z 1006b680 f i libucrtd:fopen.obj
 0001:0006a6b0       ?unlock@__crt_stdio_stream@@QBEXXZ 1006b6b0 f i libucrtd:fopen.obj
 0001:0006a6d0       __fsopen                   1006b6d0 f   libucrtd:fopen.obj
 0001:0006a6f0       __wfopen                   1006b6f0 f   libucrtd:fopen.obj
 0001:0006a710       __wfopen_s                 1006b710 f   libucrtd:fopen.obj
 0001:0006a730       __wfsopen                  1006b730 f   libucrtd:fopen.obj
 0001:0006a750       _fopen                     1006b750 f   libucrtd:fopen.obj
 0001:0006a770       _fopen_s                   1006b770 f   libucrtd:fopen.obj
 0001:0006a790       ?is_in_use@__crt_stdio_stream@@QBE_NXZ 1006b790 f i libucrtd:fclose.obj
 0001:0006a7d0       __fclose_nolock            1006b7d0 f   libucrtd:fclose.obj
 0001:0006a910       _fclose                    1006b910 f   libucrtd:fclose.obj
 0001:0006aa60       __fputc_nolock             1006ba60 f   libucrtd:fputc.obj
 0001:0006aaf0       __fputchar                 1006baf0 f   libucrtd:fputc.obj
 0001:0006ab10       __putc_nolock              1006bb10 f   libucrtd:fputc.obj
 0001:0006ab30       _fputc                     1006bb30 f   libucrtd:fputc.obj
 0001:0006ad70       _putc                      1006bd70 f   libucrtd:fputc.obj
 0001:0006ad90       _putchar                   1006bd90 f   libucrtd:fputc.obj
 0001:0006ae00       __seh_filter_dll           1006be00 f   libucrtd:exception_filter.obj
 0001:0006ae30       __seh_filter_exe           1006be30 f   libucrtd:exception_filter.obj
 0001:0006b040       ??$?B$$A6GXPAXK0@Z@__crt_fast_encoded_nullptr_t@@QBEP6GXPAXK0@ZXZ 1006c040 f i libucrtd:exit.obj
 0001:0006b120       ??$__crt_fast_decode_pointer@P6GXPAXK0@Z@@YAP6GXPAXK0@ZQ6GX0K0@Z@Z 1006c120 f i libucrtd:exit.obj
 0001:0006b150       ??$__crt_fast_encode_pointer@P6GXPAXK0@Z@@YAP6GXPAXK0@ZQ6GX0K0@Z@Z 1006c150 f i libucrtd:exit.obj
 0001:0006b180       ??$__crt_get_proc_address@P6GXI@Z@@YAP6GXI@ZQAUHINSTANCE__@@QBD@Z 1006c180 f i libucrtd:exit.obj
 0001:0006b210       ??0?$__crt_unique_handle_t@U__crt_hmodule_traits@@@@QAE@QAUHINSTANCE__@@@Z 1006c210 f i libucrtd:exit.obj
 0001:0006b230       ??1?$__crt_unique_handle_t@U__crt_hmodule_traits@@@@QAE@XZ 1006c230 f i libucrtd:exit.obj
 0001:0006b3f0       ?__acrt_select_exit_lock@@YA?AW4__acrt_lock_id@@XZ 1006c3f0 f i libucrtd:exit.obj
 0001:0006b400       ?__crt_fast_encode_pointer@@YA?AU__crt_fast_encoded_nullptr_t@@$$T@Z 1006c400 f i libucrtd:exit.obj
 0001:0006b430       ?close@?$__crt_unique_handle_t@U__crt_hmodule_traits@@@@QAEXXZ 1006c430 f i libucrtd:exit.obj
 0001:0006b470       ?close@__crt_hmodule_traits@@SA_NPAUHINSTANCE__@@@Z 1006c470 f i libucrtd:exit.obj
 0001:0006b560       ?get@?$__crt_unique_handle_t@U__crt_hmodule_traits@@@@QBEPAUHINSTANCE__@@XZ 1006c560 f i libucrtd:exit.obj
 0001:0006b580       ?get_address_of@?$__crt_unique_handle_t@U__crt_hmodule_traits@@@@QAEPAPAUHINSTANCE__@@XZ 1006c580 f i libucrtd:exit.obj
 0001:0006b590       ?get_invalid_value@__crt_hmodule_traits@@SAPAUHINSTANCE__@@XZ 1006c590 f i libucrtd:exit.obj
 0001:0006b710       __Exit                     1006c710 f   libucrtd:exit.obj
 0001:0006b730       ___acrt_initialize_thread_local_exit_callback 1006c730 f   libucrtd:exit.obj
 0001:0006b740       __c_exit                   1006c740 f   libucrtd:exit.obj
 0001:0006b760       __cexit                    1006c760 f   libucrtd:exit.obj
 0001:0006b780       __exit                     1006c780 f   libucrtd:exit.obj
 0001:0006b7a0       __is_c_termination_complete 1006c7a0 f   libucrtd:exit.obj
 0001:0006b7c0       __register_thread_local_exe_atexit_callback 1006c7c0 f   libucrtd:exit.obj
 0001:0006b800       _exit                      1006c800 f   libucrtd:exit.obj
 0001:0006b820       _quick_exit                1006c820 f   libucrtd:exit.obj
 0001:0006b840       ??$?RE@__crt_internal_free_policy@@QBEXQBE@Z 1006c840 f i libucrtd:argv_parsing.obj
 0001:0006b860       ??$?RPAD@__crt_internal_free_policy@@QBEXQBQAD@Z 1006c860 f i libucrtd:argv_parsing.obj
 0001:0006b880       ??$?RPA_W@__crt_internal_free_policy@@QBEXQBQA_W@Z 1006c880 f i libucrtd:argv_parsing.obj
 0001:0006bde0       ??$get_module_file_name@$$TAAY0BAF@DH@?$__crt_char_traits@D@@SAK$$QA$$TAAY0BAF@D$$QAH@Z 1006cde0 f i libucrtd:argv_parsing.obj
 0001:0006be00       ??$get_module_file_name@$$TAAY0BAF@_WH@?$__crt_char_traits@_W@@SAK$$QA$$TAAY0BAF@_W$$QAH@Z 1006ce00 f i libucrtd:argv_parsing.obj
 0001:0006c520       ??$set_program_name@PAD@?$__crt_char_traits@D@@SAX$$QAPAD@Z 1006d520 f i libucrtd:argv_parsing.obj
 0001:0006c540       ??$set_program_name@PA_W@?$__crt_char_traits@_W@@SAX$$QAPA_W@Z 1006d540 f i libucrtd:argv_parsing.obj
 0001:0006c5a0       ??0?$__crt_unique_heap_ptr@EU__crt_internal_free_policy@@@@QAE@QAE@Z 1006d5a0 f i libucrtd:argv_parsing.obj
 0001:0006c5c0       ??0?$__crt_unique_heap_ptr@PADU__crt_internal_free_policy@@@@QAE@QAPAD@Z 1006d5c0 f i libucrtd:argv_parsing.obj
 0001:0006c5e0       ??0?$__crt_unique_heap_ptr@PA_WU__crt_internal_free_policy@@@@QAE@QAPA_W@Z 1006d5e0 f i libucrtd:argv_parsing.obj
 0001:0006c600       ??1?$__crt_unique_heap_ptr@EU__crt_internal_free_policy@@@@QAE@XZ 1006d600 f i libucrtd:argv_parsing.obj
 0001:0006c620       ??1?$__crt_unique_heap_ptr@PADU__crt_internal_free_policy@@@@QAE@XZ 1006d620 f i libucrtd:argv_parsing.obj
 0001:0006c640       ??1?$__crt_unique_heap_ptr@PA_WU__crt_internal_free_policy@@@@QAE@XZ 1006d640 f i libucrtd:argv_parsing.obj
 0001:0006c660       ??B?$__crt_unique_heap_ptr@EU__crt_internal_free_policy@@@@QBE_NXZ 1006d660 f i libucrtd:argv_parsing.obj
 0001:0006c720       ?detach@?$__crt_unique_heap_ptr@EU__crt_internal_free_policy@@@@QAEPAEXZ 1006d720 f i libucrtd:argv_parsing.obj
 0001:0006c750       ?detach@?$__crt_unique_heap_ptr@PADU__crt_internal_free_policy@@@@QAEPAPADXZ 1006d750 f i libucrtd:argv_parsing.obj
 0001:0006c780       ?detach@?$__crt_unique_heap_ptr@PA_WU__crt_internal_free_policy@@@@QAEPAPA_WXZ 1006d780 f i libucrtd:argv_parsing.obj
 0001:0006c810       ?get@?$__crt_unique_heap_ptr@EU__crt_internal_free_policy@@@@QBEPAEXZ 1006d810 f i libucrtd:argv_parsing.obj
 0001:0006c830       ?get@?$__crt_unique_heap_ptr@PADU__crt_internal_free_policy@@@@QBEPAPADXZ 1006d830 f i libucrtd:argv_parsing.obj
 0001:0006c850       ?get@?$__crt_unique_heap_ptr@PA_WU__crt_internal_free_policy@@@@QBEPAPA_WXZ 1006d850 f i libucrtd:argv_parsing.obj
 0001:0006c870       ?get_address_of@?$__crt_unique_heap_ptr@PADU__crt_internal_free_policy@@@@QAEPAPAPADXZ 1006d870 f i libucrtd:argv_parsing.obj
 0001:0006c880       ?get_address_of@?$__crt_unique_heap_ptr@PA_WU__crt_internal_free_policy@@@@QAEPAPAPA_WXZ 1006d880 f i libucrtd:argv_parsing.obj
 0001:0006c8d0       ?is_valid@?$__crt_unique_heap_ptr@EU__crt_internal_free_policy@@@@QBE_NXZ 1006d8d0 f i libucrtd:argv_parsing.obj
 0001:0006c900       ?release@?$__crt_unique_heap_ptr@EU__crt_internal_free_policy@@@@QAEXXZ 1006d900 f i libucrtd:argv_parsing.obj
 0001:0006c930       ?release@?$__crt_unique_heap_ptr@PADU__crt_internal_free_policy@@@@QAEXXZ 1006d930 f i libucrtd:argv_parsing.obj
 0001:0006c960       ?release@?$__crt_unique_heap_ptr@PA_WU__crt_internal_free_policy@@@@QAEXXZ 1006d960 f i libucrtd:argv_parsing.obj
 0001:0006c9d0       ___acrt_allocate_buffer_for_argv 1006d9d0 f   libucrtd:argv_parsing.obj
 0001:0006ca90       __configure_narrow_argv    1006da90 f   libucrtd:argv_parsing.obj
 0001:0006cab0       __configure_wide_argv      1006dab0 f   libucrtd:argv_parsing.obj
 0001:0006cad0       __set_pgmptr               1006dad0 f i libucrtd:argv_parsing.obj
 0001:0006cae0       __set_wpgmptr              1006dae0 f i libucrtd:argv_parsing.obj
 0001:0006caef       ??$?R_W@__crt_internal_free_policy@@QBEXQB_W@Z 1006daef f i libucrtd:environment_initialization.obj
 0001:0006cf58       ??$get_environment_from_os@$$V@?$__crt_char_traits@D@@SAPADXZ 1006df58 f i libucrtd:environment_initialization.obj
 0001:0006cf5d       ??$get_environment_from_os@$$V@?$__crt_char_traits@_W@@SAPA_WXZ 1006df5d f i libucrtd:environment_initialization.obj
 0001:0006d086       ??$set_variable_in_environment_nolock@PADH@?$__crt_char_traits@D@@SAH$$QAPAD$$QAH@Z 1006e086 f i libucrtd:environment_initialization.obj
 0001:0006d09e       ??$set_variable_in_environment_nolock@PA_WH@?$__crt_char_traits@_W@@SAH$$QAPA_W$$QAH@Z 1006e09e f i libucrtd:environment_initialization.obj
 0001:0006d0b6       ??$tcscpy_s@PADABIAAPAD@?$__crt_char_traits@D@@SAH$$QAPADABIAAPAD@Z 1006e0b6 f i libucrtd:environment_initialization.obj
 0001:0006d0d4       ??$tcscpy_s@PA_WABIAAPA_W@?$__crt_char_traits@_W@@SAH$$QAPA_WABIAAPA_W@Z 1006e0d4 f i libucrtd:environment_initialization.obj
 0001:0006d0f2       ??$tcslen@AAPAD@?$__crt_char_traits@D@@SAIAAPAD@Z 1006e0f2 f i libucrtd:environment_initialization.obj
 0001:0006d10a       ??$tcslen@AAPA_W@?$__crt_char_traits@_W@@SAIAAPA_W@Z 1006e10a f i libucrtd:environment_initialization.obj
 0001:0006d128       ??$uninitialize@A6AXAAPAPAD@Z@?$dual_state_global@PAPAD@__crt_state_management@@QAEXA6AXAAPAPAD@Z@Z 1006e128 f i libucrtd:environment_initialization.obj
 0001:0006d151       ??$uninitialize@A6AXAAPAPA_W@Z@?$dual_state_global@PAPA_W@__crt_state_management@@QAEXA6AXAAPAPA_W@Z@Z 1006e151 f i libucrtd:environment_initialization.obj
 0001:0006d1b0       ??0?$__crt_unique_heap_ptr@_WU__crt_internal_free_policy@@@@QAE@QA_W@Z 1006e1b0 f i libucrtd:environment_initialization.obj
 0001:0006d1c0       ??1?$__crt_unique_heap_ptr@_WU__crt_internal_free_policy@@@@QAE@XZ 1006e1c0 f i libucrtd:environment_initialization.obj
 0001:0006d1d5       ??B?$__crt_unique_heap_ptr@PADU__crt_internal_free_policy@@@@QBE_NXZ 1006e1d5 f i libucrtd:environment_initialization.obj
 0001:0006d1dc       ??B?$__crt_unique_heap_ptr@PA_WU__crt_internal_free_policy@@@@QBE_NXZ 1006e1dc f i libucrtd:environment_initialization.obj
 0001:0006d1e3       ??B?$__crt_unique_heap_ptr@_WU__crt_internal_free_policy@@@@QBE_NXZ 1006e1e3 f i libucrtd:environment_initialization.obj
 0001:0006d1ea       ?__crt_compute_required_transform_buffer_count@@YAIIQBD@Z 1006e1ea f i libucrtd:environment_initialization.obj
 0001:0006d206       ?__crt_compute_required_transform_buffer_count@@YAIIQB_W@Z 1006e206 f i libucrtd:environment_initialization.obj
 0001:0006d224       ?__crt_transform_string@@YAIIQBDQA_WI@Z 1006e224 f i libucrtd:environment_initialization.obj
 0001:0006d243       ?__crt_transform_string@@YAIIQB_WQADI@Z 1006e243 f i libucrtd:environment_initialization.obj
 0001:0006d265       ?detach@?$__crt_unique_heap_ptr@DU__crt_internal_free_policy@@@@QAEPADXZ 1006e265 f i libucrtd:environment_initialization.obj
 0001:0006d26b       ?detach@?$__crt_unique_heap_ptr@_WU__crt_internal_free_policy@@@@QAEPA_WXZ 1006e26b f i libucrtd:environment_initialization.obj
 0001:0006d271       ?get@?$__crt_unique_heap_ptr@_WU__crt_internal_free_policy@@@@QBEPA_WXZ 1006e271 f i libucrtd:environment_initialization.obj
 0001:0006d298       ?initialize@?$dual_state_global@PAPAD@__crt_state_management@@QAEXQAPAD@Z 1006e298 f i libucrtd:environment_initialization.obj
 0001:0006d2be       ?initialize@?$dual_state_global@PAPA_W@__crt_state_management@@QAEXQAPA_W@Z 1006e2be f i libucrtd:environment_initialization.obj
 0001:0006d2e4       ?is_valid@?$__crt_unique_heap_ptr@PADU__crt_internal_free_policy@@@@QBE_NXZ 1006e2e4 f i libucrtd:environment_initialization.obj
 0001:0006d2eb       ?is_valid@?$__crt_unique_heap_ptr@PA_WU__crt_internal_free_policy@@@@QBE_NXZ 1006e2eb f i libucrtd:environment_initialization.obj
 0001:0006d2f2       ?is_valid@?$__crt_unique_heap_ptr@_WU__crt_internal_free_policy@@@@QBE_NXZ 1006e2f2 f i libucrtd:environment_initialization.obj
 0001:0006d301       ?release@?$__crt_unique_heap_ptr@_WU__crt_internal_free_policy@@@@QAEXXZ 1006e301 f i libucrtd:environment_initialization.obj
 0001:0006d316       ?value@?$dual_state_global@PAPAD@__crt_state_management@@QAEAAPAPADXZ 1006e316 f i libucrtd:environment_initialization.obj
 0001:0006d319       ?value@?$dual_state_global@PAPA_W@__crt_state_management@@QAEAAPAPA_WXZ 1006e319 f i libucrtd:environment_initialization.obj
 0001:0006d31c       ___dcrt_get_or_create_narrow_environment_nolock 1006e31c f   libucrtd:environment_initialization.obj
 0001:0006d321       ___dcrt_get_or_create_wide_environment_nolock 1006e321 f   libucrtd:environment_initialization.obj
 0001:0006d326       ___dcrt_uninitialize_environments_nolock 1006e326 f   libucrtd:environment_initialization.obj
 0001:0006d35d       ___p__environ              1006e35d f   libucrtd:environment_initialization.obj
 0001:0006d363       ___p__wenviron             1006e363 f   libucrtd:environment_initialization.obj
 0001:0006d369       __get_initial_narrow_environment 1006e369 f   libucrtd:environment_initialization.obj
 0001:0006d37d       __get_initial_wide_environment 1006e37d f   libucrtd:environment_initialization.obj
 0001:0006d391       __initialize_narrow_environment 1006e391 f   libucrtd:environment_initialization.obj
 0001:0006d396       __initialize_wide_environment 1006e396 f   libucrtd:environment_initialization.obj
 0001:0006d3a0       ??$?B$$A6AXXZ@__crt_fast_encoded_nullptr_t@@QBEP6AXXZXZ 1006e3a0 f i libucrtd:onexit.obj
 0001:0006d3c0       ??$?BP6AXXZ@__crt_fast_encoded_nullptr_t@@QBEPAP6AXXZXZ 1006e3c0 f i libucrtd:onexit.obj
 0001:0006d3e0       ??$?RP6AXXZ@__crt_internal_free_policy@@QBEXQBQ6AXXZ@Z 1006e3e0 f i libucrtd:onexit.obj
 0001:0006d5a0       ??$__crt_fast_decode_pointer@P6AXXZ@@YAP6AXXZQ6AXXZ@Z 1006e5a0 f i libucrtd:onexit.obj
 0001:0006d5d0       ??$__crt_fast_decode_pointer@PAP6AXXZ@@YAPAP6AXXZQAP6AXXZ@Z 1006e5d0 f i libucrtd:onexit.obj
 0001:0006d600       ??$__crt_fast_encode_pointer@P6AHXZ@@YAP6AHXZQ6AHXZ@Z 1006e600 f i libucrtd:onexit.obj
 0001:0006d630       ??$__crt_fast_encode_pointer@P6AXXZ@@YAP6AXXZQ6AXXZ@Z 1006e630 f i libucrtd:onexit.obj
 0001:0006d660       ??$__crt_fast_encode_pointer@PAP6AXXZ@@YAPAP6AXXZQAP6AXXZ@Z 1006e660 f i libucrtd:onexit.obj
 0001:0006d760       ??0?$__crt_unique_heap_ptr@P6AXXZU__crt_internal_free_policy@@@@QAE@QAP6AXXZ@Z 1006e760 f i libucrtd:onexit.obj
 0001:0006d780       ??1?$__crt_unique_heap_ptr@P6AXXZU__crt_internal_free_policy@@@@QAE@XZ 1006e780 f i libucrtd:onexit.obj
 0001:0006d7a0       ??1scoped_global_state_reset@__crt_state_management@@QAE@XZ 1006e7a0 f i libucrtd:onexit.obj
 0001:0006dc10       ?detach@?$__crt_unique_heap_ptr@P6AXXZU__crt_internal_free_policy@@@@QAEPAP6AXXZXZ 1006ec10 f i libucrtd:onexit.obj
 0001:0006dc40       ?release@?$__crt_unique_heap_ptr@P6AXXZU__crt_internal_free_policy@@@@QAEXXZ 1006ec40 f i libucrtd:onexit.obj
 0001:0006dc70       __crt_at_quick_exit        1006ec70 f   libucrtd:onexit.obj
 0001:0006dc90       __crt_atexit               1006ec90 f   libucrtd:onexit.obj
 0001:0006dcb0       __execute_onexit_table     1006ecb0 f   libucrtd:onexit.obj
 0001:0006dce0       __initialize_onexit_table  1006ece0 f   libucrtd:onexit.obj
 0001:0006dd40       __register_onexit_function 1006ed40 f   libucrtd:onexit.obj
 0001:0006df80       ??$?BX@__crt_fast_encoded_nullptr_t@@QBEPAXXZ 1006ef80 f i libucrtd:initialization.obj
 0001:0006dfa0       ??$__crt_fast_encode_pointer@PAX@@YAPAXQAX@Z 1006efa0 f i libucrtd:initialization.obj
 0001:0006e060       ?initialize@?$dual_state_global@PAU__crt_locale_data@@@__crt_state_management@@QAEXQAU__crt_locale_data@@@Z 1006f060 f i libucrtd:initialization.obj
 0001:0006e0a0       ___acrt_initialize         1006f0a0 f   libucrtd:initialization.obj
 0001:0006e0c0       ___acrt_thread_attach      1006f0c0 f   libucrtd:initialization.obj
 0001:0006e0e0       ___acrt_thread_detach      1006f0e0 f   libucrtd:initialization.obj
 0001:0006e0f0       ___acrt_uninitialize       1006f0f0 f   libucrtd:initialization.obj
 0001:0006e110       ___acrt_uninitialize_critical 1006f110 f   libucrtd:initialization.obj
 0001:0006f980       __CrtCheckMemory           10070980 f   libucrtd:debug_heap.obj
 0001:0006fb10       __CrtDoForAllClientObjects 10070b10 f   libucrtd:debug_heap.obj
 0001:0006fc60       __CrtDumpMemoryLeaks       10070c60 f   libucrtd:debug_heap.obj
 0001:0006fd00       __CrtGetAllocHook          10070d00 f   libucrtd:debug_heap.obj
 0001:0006fd10       __CrtGetDumpClient         10070d10 f   libucrtd:debug_heap.obj
 0001:0006fd20       __CrtIsMemoryBlock         10070d20 f   libucrtd:debug_heap.obj
 0001:0006fe70       __CrtIsValidHeapPointer    10070e70 f   libucrtd:debug_heap.obj
 0001:0006fea0       __CrtIsValidPointer        10070ea0 f   libucrtd:debug_heap.obj
 0001:0006fed0       __CrtMemCheckpoint         10070ed0 f   libucrtd:debug_heap.obj
 0001:00070100       __CrtMemDifference         10071100 f   libucrtd:debug_heap.obj
 0001:00070370       __CrtMemDumpAllObjectsSince 10071370 f   libucrtd:debug_heap.obj
 0001:00070410       __CrtMemDumpStatistics     10071410 f   libucrtd:debug_heap.obj
 0001:00070540       __CrtReportBlockType       10071540 f   libucrtd:debug_heap.obj
 0001:00070570       __CrtSetAllocHook          10071570 f   libucrtd:debug_heap.obj
 0001:00070590       __CrtSetBreakAlloc         10071590 f   libucrtd:debug_heap.obj
 0001:000705b0       __CrtSetDbgBlockType       100715b0 f   libucrtd:debug_heap.obj
 0001:00070690       __CrtSetDbgFlag            10071690 f   libucrtd:debug_heap.obj
 0001:00070800       __CrtSetDumpClient         10071800 f   libucrtd:debug_heap.obj
 0001:00070820       ___p__crtBreakAlloc        10071820 f   libucrtd:debug_heap.obj
 0001:00070830       ___p__crtDbgFlag           10071830 f   libucrtd:debug_heap.obj
 0001:00070840       __aligned_free_dbg         10071840 f   libucrtd:debug_heap.obj
 0001:000708f0       __aligned_malloc_dbg       100718f0 f   libucrtd:debug_heap.obj
 0001:00070920       __aligned_msize_dbg        10071920 f   libucrtd:debug_heap.obj
 0001:00070a50       __aligned_offset_malloc_dbg 10071a50 f   libucrtd:debug_heap.obj
 0001:00070c30       __aligned_offset_realloc_dbg 10071c30 f   libucrtd:debug_heap.obj
 0001:00070f40       __aligned_offset_recalloc_dbg 10071f40 f   libucrtd:debug_heap.obj
 0001:00071000       __aligned_realloc_dbg      10072000 f   libucrtd:debug_heap.obj
 0001:00071030       __aligned_recalloc_dbg     10072030 f   libucrtd:debug_heap.obj
 0001:00071060       __calloc_dbg               10072060 f   libucrtd:debug_heap.obj
 0001:000710d0       __expand_dbg               100720d0 f   libucrtd:debug_heap.obj
 0001:00071200       __free_dbg                 10072200 f   libucrtd:debug_heap.obj
 0001:000712b0       __malloc_dbg               100722b0 f   libucrtd:debug_heap.obj
 0001:000712d0       __msize_dbg                100722d0 f   libucrtd:debug_heap.obj
 0001:00071460       __realloc_dbg              10072460 f   libucrtd:debug_heap.obj
 0001:00071500       __recalloc_dbg             10072500 f   libucrtd:debug_heap.obj
 0001:000715b0       __initterm                 100725b0 f   libucrtd:initterm.obj
 0001:00071600       __initterm_e               10072600 f   libucrtd:initterm.obj
 0001:00071970       _strcpy_s                  10072970 f   libucrtd:strcpy_s.obj
 0001:00071da0       _strcat_s                  10072da0 f   libucrtd:strcat_s.obj
 0001:00071dc0       ??$?B$$A6AHI@Z@__crt_fast_encoded_nullptr_t@@QBEP6AHI@ZXZ 10072dc0 f i libucrtd:new_handler.obj
 0001:00071de0       ??$__crt_fast_decode_pointer@P6AHI@Z@@YAP6AHI@ZQ6AHI@Z@Z 10072de0 f i libucrtd:new_handler.obj
 0001:00071e10       ??$__crt_fast_encode_pointer@P6AHI@Z@@YAP6AHI@ZQ6AHI@Z@Z 10072e10 f i libucrtd:new_handler.obj
 0001:00071e40       ?_set_new_handler@@YAP6AHI@ZH@Z 10072e40 f   libucrtd:new_handler.obj
 0001:00071ea0       ?initialize@?$dual_state_global@P6AHI@Z@__crt_state_management@@QAEXQ6AHI@Z@Z 10072ea0 f i libucrtd:new_handler.obj
 0001:00071ee0       ?value@?$dual_state_global@P6AHI@Z@__crt_state_management@@QAEAAP6AHI@ZXZ 10072ee0 f i libucrtd:new_handler.obj
 0001:00071f00       ___acrt_initialize_new_handler 10072f00 f   libucrtd:new_handler.obj
 0001:00071f20       __callnewh                 10072f20 f   libucrtd:new_handler.obj
 0001:00071f60       __query_new_handler        10072f60 f   libucrtd:new_handler.obj
 0001:00071ff0       __set_new_handler          10072ff0 f   libucrtd:new_handler.obj
 0001:000720d0       __get_terminate            100730d0 f   libucrtd:terminate.obj
 0001:000720f0       _set_terminate             100730f0 f   libucrtd:terminate.obj
 0001:00072120       _terminate                 10073120 f   libucrtd:terminate.obj
 0001:00072af0       __makepath                 10073af0 f   libucrtd:makepath.obj
 0001:00072b20       __makepath_s               10073b20 f   libucrtd:makepath.obj
 0001:00072b50       __wmakepath                10073b50 f   libucrtd:makepath.obj
 0001:00072b80       __wmakepath_s              10073b80 f   libucrtd:makepath.obj
 0001:000744d0       ??$tcsncpy_s@AAPADIAAPBDABI@?$__crt_char_traits@D@@SAHAAPAD$$QAIAAPBDABI@Z 100754d0 f i libucrtd:splitpath.obj
 0001:00074500       ??$tcsncpy_s@AAPADIAAPBDH@?$__crt_char_traits@D@@SAHAAPAD$$QAIAAPBD$$QAH@Z 10075500 f i libucrtd:splitpath.obj
 0001:00074530       ??$tcsncpy_s@AAPA_WIAAPB_WABI@?$__crt_char_traits@_W@@SAHAAPA_W$$QAIAAPB_WABI@Z 10075530 f i libucrtd:splitpath.obj
 0001:00074560       ??$tcsncpy_s@AAPA_WIAAPB_WH@?$__crt_char_traits@_W@@SAHAAPA_W$$QAIAAPB_W$$QAH@Z 10075560 f i libucrtd:splitpath.obj
 0001:000747a0       __splitpath                100757a0 f   libucrtd:splitpath.obj
 0001:000747d0       __splitpath_s              100757d0 f   libucrtd:splitpath.obj
 0001:00074820       __wsplitpath               10075820 f   libucrtd:splitpath.obj
 0001:00074850       __wsplitpath_s             10075850 f   libucrtd:splitpath.obj
 0001:000748a0       __set_abort_behavior       100758a0 f   libucrtd:abort.obj
 0001:000748d0       _abort                     100758d0 f   libucrtd:abort.obj
 0001:00074940       _strcmp                    10075940 f   libucrtd:strcmp.obj
 0001:000749d0       _strlen                    100759d0 f   libucrtd:strlen.obj
 0001:00074a60       ??$is_overflow_condition@K@__crt_strtox@@YA_NIK@Z 10075a60 f i libucrtd:atox.obj
 0001:00074ac0       ??$is_overflow_condition@_K@__crt_strtox@@YA_NI_K@Z 10075ac0 f i libucrtd:atox.obj
 0001:00074b50       ??$make_c_string_character_source@D$$T@__crt_strtox@@YA?AV?$c_string_character_source@D@0@QBD$$T@Z 10075b50 f i libucrtd:atox.obj
 0001:00074b70       ??$make_c_string_character_source@_W$$T@__crt_strtox@@YA?AV?$c_string_character_source@_W@0@QB_W$$T@Z 10075b70 f i libucrtd:atox.obj
 0001:00074b90       ??$parse_integer@KV?$c_string_character_source@D@__crt_strtox@@@__crt_strtox@@YAKQAU__crt_locale_pointers@@V?$c_string_character_source@D@0@H_N@Z 10075b90 f i libucrtd:atox.obj
 0001:00074f00       ??$parse_integer@KV?$c_string_character_source@_W@__crt_strtox@@@__crt_strtox@@YAKQAU__crt_locale_pointers@@V?$c_string_character_source@_W@0@H_N@Z 10075f00 f i libucrtd:atox.obj
 0001:00075270       ??$parse_integer@_KV?$c_string_character_source@D@__crt_strtox@@@__crt_strtox@@YA_KQAU__crt_locale_pointers@@V?$c_string_character_source@D@0@H_N@Z 10076270 f i libucrtd:atox.obj
 0001:00075690       ??$parse_integer@_KV?$c_string_character_source@_W@__crt_strtox@@@__crt_strtox@@YA_KQAU__crt_locale_pointers@@V?$c_string_character_source@_W@0@H_N@Z 10076690 f i libucrtd:atox.obj
 0001:00075ac0       ??$parse_integer_from_string@JD$$T@__crt_strtox@@YAJQBD$$THQAU__crt_locale_pointers@@@Z 10076ac0 f i libucrtd:atox.obj
 0001:00075b00       ??$parse_integer_from_string@J_W$$T@__crt_strtox@@YAJQB_W$$THQAU__crt_locale_pointers@@@Z 10076b00 f i libucrtd:atox.obj
 0001:00075b40       ??$parse_integer_from_string@_JD$$T@__crt_strtox@@YA_JQBD$$THQAU__crt_locale_pointers@@@Z 10076b40 f i libucrtd:atox.obj
 0001:00075b80       ??$parse_integer_from_string@_J_W$$T@__crt_strtox@@YA_JQB_W$$THQAU__crt_locale_pointers@@@Z 10076b80 f i libucrtd:atox.obj
 0001:00075bc0       ??0?$c_string_character_source@D@__crt_strtox@@QAE@QBDQAPBD@Z 10076bc0 f i libucrtd:atox.obj
 0001:00075c00       ??0?$c_string_character_source@_W@__crt_strtox@@QAE@QB_WQAPB_W@Z 10076c00 f i libucrtd:atox.obj
 0001:00075c40       ??1?$c_string_character_source@D@__crt_strtox@@QAE@XZ 10076c40 f i libucrtd:atox.obj
 0001:00075c70       ??1?$c_string_character_source@_W@__crt_strtox@@QAE@XZ 10076c70 f i libucrtd:atox.obj
 0001:00075ca0       ?get@?$c_string_character_source@D@__crt_strtox@@QAEDXZ 10076ca0 f i libucrtd:atox.obj
 0001:00075cd0       ?get@?$c_string_character_source@_W@__crt_strtox@@QAE_WXZ 10076cd0 f i libucrtd:atox.obj
 0001:00075d00       ?is_space@__crt_strtox@@YA_NDQAU__crt_locale_pointers@@@Z 10076d00 f i libucrtd:atox.obj
 0001:00075d40       ?is_space@__crt_strtox@@YA_N_WPAU__crt_locale_pointers@@@Z 10076d40 f i libucrtd:atox.obj
 0001:00075d70       ?maximum_signed_value@__crt_strtox@@YAJK@Z 10076d70 f i libucrtd:atox.obj
 0001:00075d80       ?maximum_signed_value@__crt_strtox@@YA_J_K@Z 10076d80 f i libucrtd:atox.obj
 0001:00075d90       ?minimum_signed_value@__crt_strtox@@YAJK@Z 10076d90 f i libucrtd:atox.obj
 0001:00075da0       ?minimum_signed_value@__crt_strtox@@YA_J_K@Z 10076da0 f i libucrtd:atox.obj
 0001:00075db0       ?parse_digit@__crt_strtox@@YAID@Z 10076db0 f i libucrtd:atox.obj
 0001:00075e10       ?parse_digit@__crt_strtox@@YAI_W@Z 10076e10 f i libucrtd:atox.obj
 0001:00075e60       ?restore_state@?$c_string_character_source@D@__crt_strtox@@QAE_NQBD@Z 10076e60 f i libucrtd:atox.obj
 0001:00075e80       ?restore_state@?$c_string_character_source@_W@__crt_strtox@@QAE_NQB_W@Z 10076e80 f i libucrtd:atox.obj
 0001:00075ea0       ?save_state@?$c_string_character_source@D@__crt_strtox@@QBEPBDXZ 10076ea0 f i libucrtd:atox.obj
 0001:00075ec0       ?save_state@?$c_string_character_source@_W@__crt_strtox@@QBEPB_WXZ 10076ec0 f i libucrtd:atox.obj
 0001:00075ee0       ?unget@?$c_string_character_source@D@__crt_strtox@@QAEXD@Z 10076ee0 f i libucrtd:atox.obj
 0001:00075f90       ?unget@?$c_string_character_source@_W@__crt_strtox@@QAEX_W@Z 10076f90 f i libucrtd:atox.obj
 0001:00076040       ?validate@?$c_string_character_source@D@__crt_strtox@@QBE_NXZ 10077040 f i libucrtd:atox.obj
 0001:000760d0       ?validate@?$c_string_character_source@_W@__crt_strtox@@QBE_NXZ 100770d0 f i libucrtd:atox.obj
 0001:00076160       ?wide_character_to_digit@__crt_strtox@@YAH_W@Z 10077160 f i libucrtd:atox.obj
 0001:00076490       ___ascii_iswalpha          10077490 f i libucrtd:atox.obj
 0001:000764d0       ___ascii_toupper           100774d0 f i libucrtd:atox.obj
 0001:000764f0       ___ascii_towupper          100774f0 f i libucrtd:atox.obj
 0001:00076510       __atoi64                   10077510 f   libucrtd:atox.obj
 0001:00076530       __atoi64_l                 10077530 f   libucrtd:atox.obj
 0001:00076550       __atoi_l                   10077550 f   libucrtd:atox.obj
 0001:00076570       __atol_l                   10077570 f   libucrtd:atox.obj
 0001:00076590       __atoll_l                  10077590 f   libucrtd:atox.obj
 0001:000765b0       __wtoi                     100775b0 f   libucrtd:atox.obj
 0001:000765d0       __wtoi64                   100775d0 f   libucrtd:atox.obj
 0001:000765f0       __wtoi64_l                 100775f0 f   libucrtd:atox.obj
 0001:00076610       __wtoi_l                   10077610 f   libucrtd:atox.obj
 0001:00076630       __wtol                     10077630 f   libucrtd:atox.obj
 0001:00076650       __wtol_l                   10077650 f   libucrtd:atox.obj
 0001:00076670       __wtoll                    10077670 f   libucrtd:atox.obj
 0001:00076690       __wtoll_l                  10077690 f   libucrtd:atox.obj
 0001:000766b0       _atoi                      100776b0 f   libucrtd:atox.obj
 0001:000766d0       _atol                      100776d0 f   libucrtd:atox.obj
 0001:000766f0       _atoll                     100776f0 f   libucrtd:atox.obj
 0001:00076710       _strncmp                   10077710 f   libucrtd:strncmp.obj
 0001:00076790       _wcsncmp                   10077790 f   libucrtd:wcsncmp.obj
 0001:000767f0       __CrtGetDebugFillThreshold 100777f0 f   libucrtd:debug_fill_threshold.obj
 0001:00076800       __CrtSetDebugFillThreshold 10077800 f   libucrtd:debug_fill_threshold.obj
 0001:00076820       ??$make_c_string_character_source@DPAPAD@__crt_strtox@@YA?AV?$c_string_character_source@D@0@QBDQAPAD@Z 10077820 f i libucrtd:strtox.obj
 0001:00076840       ??$make_c_string_character_source@_WPAPA_W@__crt_strtox@@YA?AV?$c_string_character_source@_W@0@QB_WQAPA_W@Z 10077840 f i libucrtd:strtox.obj
 0001:00076860       ??$parse_integer_from_string@JDPAPAD@__crt_strtox@@YAJQBDQAPADHQAU__crt_locale_pointers@@@Z 10077860 f i libucrtd:strtox.obj
 0001:000768a0       ??$parse_integer_from_string@J_WPAPA_W@__crt_strtox@@YAJQB_WQAPA_WHQAU__crt_locale_pointers@@@Z 100778a0 f i libucrtd:strtox.obj
 0001:000768e0       ??$parse_integer_from_string@KDPAPAD@__crt_strtox@@YAKQBDQAPADHQAU__crt_locale_pointers@@@Z 100778e0 f i libucrtd:strtox.obj
 0001:00076920       ??$parse_integer_from_string@K_WPAPA_W@__crt_strtox@@YAKQB_WQAPA_WHQAU__crt_locale_pointers@@@Z 10077920 f i libucrtd:strtox.obj
 0001:00076960       ??$parse_integer_from_string@_JDPAPAD@__crt_strtox@@YA_JQBDQAPADHQAU__crt_locale_pointers@@@Z 10077960 f i libucrtd:strtox.obj
 0001:000769a0       ??$parse_integer_from_string@_J_WPAPA_W@__crt_strtox@@YA_JQB_WQAPA_WHQAU__crt_locale_pointers@@@Z 100779a0 f i libucrtd:strtox.obj
 0001:000769e0       ??$parse_integer_from_string@_KDPAPAD@__crt_strtox@@YA_KQBDQAPADHQAU__crt_locale_pointers@@@Z 100779e0 f i libucrtd:strtox.obj
 0001:00076a20       ??$parse_integer_from_string@_K_WPAPA_W@__crt_strtox@@YA_KQB_WQAPA_WHQAU__crt_locale_pointers@@@Z 10077a20 f i libucrtd:strtox.obj
 0001:00076a60       __strtoi64                 10077a60 f   libucrtd:strtox.obj
 0001:00076a80       __strtoi64_l               10077a80 f   libucrtd:strtox.obj
 0001:00076aa0       __strtoimax_l              10077aa0 f   libucrtd:strtox.obj
 0001:00076ac0       __strtol_l                 10077ac0 f   libucrtd:strtox.obj
 0001:00076ae0       __strtoll_l                10077ae0 f   libucrtd:strtox.obj
 0001:00076b00       __strtoui64                10077b00 f   libucrtd:strtox.obj
 0001:00076b20       __strtoui64_l              10077b20 f   libucrtd:strtox.obj
 0001:00076b40       __strtoul_l                10077b40 f   libucrtd:strtox.obj
 0001:00076b60       __strtoull_l               10077b60 f   libucrtd:strtox.obj
 0001:00076b80       __strtoumax_l              10077b80 f   libucrtd:strtox.obj
 0001:00076ba0       __wcstoi64                 10077ba0 f   libucrtd:strtox.obj
 0001:00076bc0       __wcstoi64_l               10077bc0 f   libucrtd:strtox.obj
 0001:00076be0       __wcstoimax_l              10077be0 f   libucrtd:strtox.obj
 0001:00076c00       __wcstol_l                 10077c00 f   libucrtd:strtox.obj
 0001:00076c20       __wcstoll_l                10077c20 f   libucrtd:strtox.obj
 0001:00076c40       __wcstoui64                10077c40 f   libucrtd:strtox.obj
 0001:00076c60       __wcstoui64_l              10077c60 f   libucrtd:strtox.obj
 0001:00076c80       __wcstoul_l                10077c80 f   libucrtd:strtox.obj
 0001:00076ca0       __wcstoull_l               10077ca0 f   libucrtd:strtox.obj
 0001:00076cc0       __wcstoumax_l              10077cc0 f   libucrtd:strtox.obj
 0001:00076ce0       _strtoimax                 10077ce0 f   libucrtd:strtox.obj
 0001:00076d00       _strtol                    10077d00 f   libucrtd:strtox.obj
 0001:00076d20       _strtoll                   10077d20 f   libucrtd:strtox.obj
 0001:00076d40       _strtoul                   10077d40 f   libucrtd:strtox.obj
 0001:00076d60       _strtoull                  10077d60 f   libucrtd:strtox.obj
 0001:00076d80       _strtoumax                 10077d80 f   libucrtd:strtox.obj
 0001:00076da0       _wcstoimax                 10077da0 f   libucrtd:strtox.obj
 0001:00076dc0       _wcstol                    10077dc0 f   libucrtd:strtox.obj
 0001:00076de0       _wcstoll                   10077de0 f   libucrtd:strtox.obj
 0001:00076e00       _wcstoul                   10077e00 f   libucrtd:strtox.obj
 0001:00076e20       _wcstoull                  10077e20 f   libucrtd:strtox.obj
 0001:00076e40       _wcstoumax                 10077e40 f   libucrtd:strtox.obj
 0001:00076e60       __mbtowc_l                 10077e60 f   libucrtd:mbtowc.obj
 0001:00077180       _mbtowc                    10078180 f   libucrtd:mbtowc.obj
 0001:000771a0       __wctomb_l                 100781a0 f   libucrtd:wctomb.obj
 0001:00077220       __wctomb_s_l               10078220 f   libucrtd:wctomb.obj
 0001:000775e0       _wctomb                    100785e0 f   libucrtd:wctomb.obj
 0001:00077630       _wctomb_s                  10078630 f   libucrtd:wctomb.obj
 0001:00077660       ??$?RU__acrt_ptd@@@__crt_internal_free_policy@@QBEXQBU__acrt_ptd@@@Z 10078660 f i libucrtd:per_thread_data.obj
 0001:00077b10       ??0?$__crt_unique_heap_ptr@U__acrt_ptd@@U__crt_internal_free_policy@@@@QAE@QAU__acrt_ptd@@@Z 10078b10 f i libucrtd:per_thread_data.obj
 0001:00077b30       ??0__crt_scoped_get_last_error_reset@@QAE@XZ 10078b30 f i libucrtd:per_thread_data.obj
 0001:00077b50       ??1?$__crt_unique_heap_ptr@U__acrt_ptd@@U__crt_internal_free_policy@@@@QAE@XZ 10078b50 f i libucrtd:per_thread_data.obj
 0001:00077b70       ??1__crt_scoped_get_last_error_reset@@QAE@XZ 10078b70 f i libucrtd:per_thread_data.obj
 0001:00077b90       ??B?$__crt_unique_heap_ptr@U__acrt_ptd@@U__crt_internal_free_policy@@@@QBE_NXZ 10078b90 f i libucrtd:per_thread_data.obj
 0001:00077e70       ?dangerous_get_state_array@?$dual_state_global@PAU__crt_locale_data@@@__crt_state_management@@QAEPAPAU__crt_locale_data@@XZ 10078e70 f i libucrtd:per_thread_data.obj
 0001:00077ff0       ?detach@?$__crt_unique_heap_ptr@U__acrt_ptd@@U__crt_internal_free_policy@@@@QAEPAU__acrt_ptd@@XZ 10078ff0 f i libucrtd:per_thread_data.obj
 0001:00078020       ?get@?$__crt_unique_heap_ptr@U__acrt_ptd@@U__crt_internal_free_policy@@@@QBEPAU__acrt_ptd@@XZ 10079020 f i libucrtd:per_thread_data.obj
 0001:00078040       ?get_current_state_index@__crt_state_management@@YAIABV__crt_scoped_get_last_error_reset@@@Z 10079040 f i libucrtd:per_thread_data.obj
 0001:000781b0       ?is_valid@?$__crt_unique_heap_ptr@U__acrt_ptd@@U__crt_internal_free_policy@@@@QBE_NXZ 100791b0 f i libucrtd:per_thread_data.obj
 0001:000781e0       ?release@?$__crt_unique_heap_ptr@U__acrt_ptd@@U__crt_internal_free_policy@@@@QAEXXZ 100791e0 f i libucrtd:per_thread_data.obj
 0001:000782d0       ?value@?$dual_state_global@PAU__crt_locale_data@@@__crt_state_management@@QAEAAPAU__crt_locale_data@@XZ 100792d0 f i libucrtd:per_thread_data.obj
 0001:000782f0       ___acrt_freeptd            100792f0 f   libucrtd:per_thread_data.obj
 0001:00078320       ___acrt_getptd             10079320 f   libucrtd:per_thread_data.obj
 0001:00078340       ___acrt_getptd_head        10079340 f   libucrtd:per_thread_data.obj
 0001:00078360       ___acrt_getptd_noexit      10079360 f   libucrtd:per_thread_data.obj
 0001:00078370       ___acrt_initialize_ptd     10079370 f   libucrtd:per_thread_data.obj
 0001:000783b0       ___acrt_uninitialize_ptd   100793b0 f   libucrtd:per_thread_data.obj
 0001:000783e0       ___threadhandle            100793e0 f   libucrtd:per_thread_data.obj
 0001:000783f0       ___threadid                100793f0 f   libucrtd:per_thread_data.obj
 0001:00078400       ?value@?$dual_state_global@PAU__crt_multibyte_data@@@__crt_state_management@@QAEAAPAU__crt_multibyte_data@@XZ 10079400 f i libucrtd:locale_update.obj
 0001:00078420       ___acrt_update_locale_info 10079420 f   libucrtd:locale_update.obj
 0001:00078460       ___acrt_update_multibyte_info 10079460 f   libucrtd:locale_update.obj
 0001:000784a0       ?__acrt_fp_classify@@YA?AW4__acrt_fp_class@@ABN@Z 100794a0 f i libucrtd:cvt.obj
 0001:000785c0       ?__acrt_fp_is_negative@@YA_NABN@Z 100795c0 f i libucrtd:cvt.obj
 0001:00079610       ?strrchr@@YAPADQADH@Z      1007a610 f i libucrtd:cvt.obj
 0001:00079630       ___acrt_fp_format          1007a630 f   libucrtd:cvt.obj
 0001:00079ac0       __fputwc_nolock            1007aac0 f   libucrtd:fputwc.obj
 0001:00079cb0       __fputwchar                1007acb0 f   libucrtd:fputwc.obj
 0001:00079cd0       __putwc_nolock             1007acd0 f   libucrtd:fputwc.obj
 0001:00079cf0       _fputwc                    1007acf0 f   libucrtd:fputwc.obj
 0001:00079e00       _putwc                     1007ae00 f   libucrtd:fputwc.obj
 0001:00079e20       _putwchar                  1007ae20 f   libucrtd:fputwc.obj
 0001:00079e40       ?lowio_handle@__crt_stdio_stream@@QBEHXZ 1007ae40 f i libucrtd:fileno.obj
 0001:00079e60       __fileno                   1007ae60 f   libucrtd:fileno.obj
 0001:00079f00       ??$?RPAU__crt_stdio_stream_data@@@__crt_internal_free_policy@@QBEXQBQAU__crt_stdio_stream_data@@@Z 1007af00 f i libucrtd:_file.obj
 0001:00079f20       ??0?$__crt_unique_heap_ptr@PAU__crt_stdio_stream_data@@U__crt_internal_free_policy@@@@QAE@QAPAU__crt_stdio_stream_data@@@Z 1007af20 f i libucrtd:_file.obj
 0001:00079f40       ??1?$__crt_unique_heap_ptr@PAU__crt_stdio_stream_data@@U__crt_internal_free_policy@@@@QAE@XZ 1007af40 f i libucrtd:_file.obj
 0001:00079f60       ?detach@?$__crt_unique_heap_ptr@PAU__crt_stdio_stream_data@@U__crt_internal_free_policy@@@@QAEPAPAU__crt_stdio_stream_data@@XZ 1007af60 f i libucrtd:_file.obj
 0001:00079f90       ?release@?$__crt_unique_heap_ptr@PAU__crt_stdio_stream_data@@U__crt_internal_free_policy@@@@QAEXXZ 1007af90 f i libucrtd:_file.obj
 0001:00079fc0       ___acrt_initialize_stdio   1007afc0 f   libucrtd:_file.obj
 0001:0007a130       ___acrt_iob_func           1007b130 f   libucrtd:_file.obj
 0001:0007a140       ___acrt_uninitialize_stdio 1007b140 f   libucrtd:_file.obj
 0001:0007a1c0       __get_stream_buffer_pointers 1007b1c0 f   libucrtd:_file.obj
 0001:0007a2a0       __lock_file                1007b2a0 f   libucrtd:_file.obj
 0001:0007a2d0       __unlock_file              1007b2d0 f   libucrtd:_file.obj
 0001:0007a300       __get_printf_count_output  1007b300 f   libucrtd:printf_count_output.obj
 0001:0007a330       __set_printf_count_output  1007b330 f   libucrtd:printf_count_output.obj
 0001:0007a390       ?has_any_buffer@__crt_stdio_stream@@QBE_NXZ 1007b390 f i libucrtd:_sftbuf.obj
 0001:0007a3b0       ?has_any_of@__crt_stdio_stream@@QBE_NJ@Z 1007b3b0 f i libucrtd:_sftbuf.obj
 0001:0007a3f0       ?has_temporary_buffer@__crt_stdio_stream@@QBE_NXZ 1007b3f0 f i libucrtd:_sftbuf.obj
 0001:0007a410       ?set_flags@__crt_stdio_stream@@QBE_NJ@Z 1007b410 f i libucrtd:_sftbuf.obj
 0001:0007a460       ?unset_flags@__crt_stdio_stream@@QBE_NJ@Z 1007b460 f i libucrtd:_sftbuf.obj
 0001:0007a4b0       ___acrt_stdio_begin_temporary_buffering_nolock 1007b4b0 f   libucrtd:_sftbuf.obj
 0001:0007a670       ___acrt_stdio_end_temporary_buffering_nolock 1007b670 f   libucrtd:_sftbuf.obj
 0001:0007a700       ??$?RU__crt_locale_data@@@__crt_internal_free_policy@@QBEXQBU__crt_locale_data@@@Z 1007b700 f i libucrtd:wsetlocale.obj
 0001:0007a720       ??$?RU__crt_locale_pointers@@@__crt_internal_free_policy@@QBEXQBU__crt_locale_pointers@@@Z 1007b720 f i libucrtd:wsetlocale.obj
 0001:0007a740       ??$?RU__crt_multibyte_data@@@__crt_internal_free_policy@@QBEXQBU__crt_multibyte_data@@@Z 1007b740 f i libucrtd:wsetlocale.obj
 0001:0007ad30       ??0?$__crt_unique_heap_ptr@U__crt_locale_data@@U__crt_internal_free_policy@@@@QAE@QAU__crt_locale_data@@@Z 1007bd30 f i libucrtd:wsetlocale.obj
 0001:0007ad50       ??0?$__crt_unique_heap_ptr@U__crt_locale_pointers@@U__crt_internal_free_policy@@@@QAE@QAU__crt_locale_pointers@@@Z 1007bd50 f i libucrtd:wsetlocale.obj
 0001:0007ad70       ??0?$__crt_unique_heap_ptr@U__crt_multibyte_data@@U__crt_internal_free_policy@@@@QAE@QAU__crt_multibyte_data@@@Z 1007bd70 f i libucrtd:wsetlocale.obj
 0001:0007ad90       ??0_expandlocale_locale_name_cache@@QAE@QA_WIQAU__crt_qualified_locale_data@@@Z 1007bd90 f i libucrtd:wsetlocale.obj
 0001:0007ae00       ??1?$__crt_unique_heap_ptr@U__crt_locale_data@@U__crt_internal_free_policy@@@@QAE@XZ 1007be00 f i libucrtd:wsetlocale.obj
 0001:0007ae20       ??1?$__crt_unique_heap_ptr@U__crt_locale_pointers@@U__crt_internal_free_policy@@@@QAE@XZ 1007be20 f i libucrtd:wsetlocale.obj
 0001:0007ae40       ??1?$__crt_unique_heap_ptr@U__crt_multibyte_data@@U__crt_internal_free_policy@@@@QAE@XZ 1007be40 f i libucrtd:wsetlocale.obj
 0001:0007ae60       ??1_expandlocale_locale_name_cache@@QAE@XZ 1007be60 f i libucrtd:wsetlocale.obj
 0001:0007aec0       ??B?$__crt_unique_heap_ptr@U__crt_locale_data@@U__crt_internal_free_policy@@@@QBE_NXZ 1007bec0 f i libucrtd:wsetlocale.obj
 0001:0007aee0       ??B?$__crt_unique_heap_ptr@U__crt_locale_pointers@@U__crt_internal_free_policy@@@@QBE_NXZ 1007bee0 f i libucrtd:wsetlocale.obj
 0001:0007af00       ??B?$__crt_unique_heap_ptr@U__crt_multibyte_data@@U__crt_internal_free_policy@@@@QBE_NXZ 1007bf00 f i libucrtd:wsetlocale.obj
 0001:0007b2f0       ?commit_locale_name@_expandlocale_locale_name_cache@@QAEXQB_WI@Z 1007c2f0 f i libucrtd:wsetlocale.obj
 0001:0007b350       ?commit_locale_name_cache_already_updated@_expandlocale_locale_name_cache@@QAEXQB_WI@Z 1007c350 f i libucrtd:wsetlocale.obj
 0001:0007b3b0       ?detach@?$__crt_unique_heap_ptr@U__crt_locale_data@@U__crt_internal_free_policy@@@@QAEPAU__crt_locale_data@@XZ 1007c3b0 f i libucrtd:wsetlocale.obj
 0001:0007b3e0       ?detach@?$__crt_unique_heap_ptr@U__crt_locale_pointers@@U__crt_internal_free_policy@@@@QAEPAU__crt_locale_pointers@@XZ 1007c3e0 f i libucrtd:wsetlocale.obj
 0001:0007b410       ?detach@?$__crt_unique_heap_ptr@U__crt_multibyte_data@@U__crt_internal_free_policy@@@@QAEPAU__crt_multibyte_data@@XZ 1007c410 f i libucrtd:wsetlocale.obj
 0001:0007b440       ?get@?$__crt_unique_heap_ptr@U__crt_locale_data@@U__crt_internal_free_policy@@@@QBEPAU__crt_locale_data@@XZ 1007c440 f i libucrtd:wsetlocale.obj
 0001:0007b460       ?get@?$__crt_unique_heap_ptr@U__crt_locale_pointers@@U__crt_internal_free_policy@@@@QBEPAU__crt_locale_pointers@@XZ 1007c460 f i libucrtd:wsetlocale.obj
 0001:0007b480       ?get@?$__crt_unique_heap_ptr@U__crt_multibyte_data@@U__crt_internal_free_policy@@@@QBEPAU__crt_multibyte_data@@XZ 1007c480 f i libucrtd:wsetlocale.obj
 0001:0007b4a0       ?is_valid@?$__crt_unique_heap_ptr@U__crt_locale_data@@U__crt_internal_free_policy@@@@QBE_NXZ 1007c4a0 f i libucrtd:wsetlocale.obj
 0001:0007b4d0       ?is_valid@?$__crt_unique_heap_ptr@U__crt_locale_pointers@@U__crt_internal_free_policy@@@@QBE_NXZ 1007c4d0 f i libucrtd:wsetlocale.obj
 0001:0007b500       ?is_valid@?$__crt_unique_heap_ptr@U__crt_multibyte_data@@U__crt_internal_free_policy@@@@QBE_NXZ 1007c500 f i libucrtd:wsetlocale.obj
 0001:0007b530       ?release@?$__crt_unique_heap_ptr@U__crt_locale_data@@U__crt_internal_free_policy@@@@QAEXXZ 1007c530 f i libucrtd:wsetlocale.obj
 0001:0007b560       ?release@?$__crt_unique_heap_ptr@U__crt_locale_pointers@@U__crt_internal_free_policy@@@@QAEXXZ 1007c560 f i libucrtd:wsetlocale.obj
 0001:0007b590       ?release@?$__crt_unique_heap_ptr@U__crt_multibyte_data@@U__crt_internal_free_policy@@@@QAEXXZ 1007c590 f i libucrtd:wsetlocale.obj
 0001:0007b5c0       ___acrt_copy_locale_name   1007c5c0 f   libucrtd:wsetlocale.obj
 0001:0007b660       ___acrt_set_locale_changed 1007c660 f   libucrtd:wsetlocale.obj
 0001:0007b680       ___acrt_uninitialize_locale 1007c680 f   libucrtd:wsetlocale.obj
 0001:0007b6a0       ___ascii_tolower           1007c6a0 f i libucrtd:wsetlocale.obj
 0001:0007b6c0       ___ascii_towlower          1007c6c0 f i libucrtd:wsetlocale.obj
 0001:0007b6e0       ___lc_lctowcs              1007c6e0 f   libucrtd:wsetlocale.obj
 0001:0007b790       ___lc_wcstolc              1007c790 f   libucrtd:wsetlocale.obj
 0001:0007b9c0       __configthreadlocale       1007c9c0 f   libucrtd:wsetlocale.obj
 0001:0007bb40       __create_locale            1007cb40 f   libucrtd:wsetlocale.obj
 0001:0007c180       __free_locale              1007d180 f   libucrtd:wsetlocale.obj
 0001:0007c2b0       __get_current_locale       1007d2b0 f   libucrtd:wsetlocale.obj
 0001:0007c380       __wcreate_locale           1007d380 f   libucrtd:wsetlocale.obj
 0001:0007c5c0       __wcscats                  1007d5c0 f   libucrtd:wsetlocale.obj
 0001:0007c640       __wsetlocale               1007d640 f   libucrtd:wsetlocale.obj
 0001:0007dd40       ___p___mb_cur_max          1007ed40 f   libucrtd:nlsdata.obj
 0001:0007e040       ___acrt_initialize_lowio   1007f040 f   libucrtd:ioinit.obj
 0001:0007e0e0       ___acrt_uninitialize_lowio 1007f0e0 f   libucrtd:ioinit.obj
 0001:0007e140       __CrtGetReportHook         1007f140 f   libucrtd:dbgrptt.obj
 0001:0007e150       __CrtSetReportFile         1007f150 f   libucrtd:dbgrptt.obj
 0001:0007e250       __CrtSetReportHook         1007f250 f   libucrtd:dbgrptt.obj
 0001:0007e270       __CrtSetReportMode         1007f270 f   libucrtd:dbgrptt.obj
 0001:0007e3b0       __VCrtDbgReportA           1007f3b0 f   libucrtd:dbgrptt.obj
 0001:0007ec30       __VCrtDbgReportW           1007fc30 f   libucrtd:dbgrptt.obj
 0001:0007f5e0       __snprintf_s               100805e0 f i libucrtd:dbgrptt.obj
 0001:0007f620       __vsnprintf_s              10080620 f i libucrtd:dbgrptt.obj
 0001:0007f650       __vsnprintf_s_l            10080650 f i libucrtd:dbgrptt.obj
 0001:0007f7e0       ??$__acrt_wcs_to_mbs_cp@U__crt_win32_buffer_no_resizing@@@@YAHQB_WAAV?$__crt_win32_buffer@DU__crt_win32_buffer_no_resizing@@@@I@Z 100807e0 f i libucrtd:getmodulefilenamea.obj
 0001:0007f810       ??0?$__crt_win32_buffer@DU__crt_win32_buffer_no_resizing@@@@QAE@QADI@Z 10080810 f i libucrtd:getmodulefilenamea.obj
 0001:0007f860       ??1?$__crt_win32_buffer@DU__crt_win32_buffer_no_resizing@@@@QAE@XZ 10080860 f i libucrtd:getmodulefilenamea.obj
 0001:0007f8d0       ?__acrt_get_utf8_acp_compatibility_codepage@@YAIXZ 100808d0 f i libucrtd:getmodulefilenamea.obj
 0001:0007f960       ?_deallocate@?$__crt_win32_buffer@DU__crt_win32_buffer_no_resizing@@@@AAEXXZ 10080960 f i libucrtd:getmodulefilenamea.obj
 0001:0007f9a0       ?allocate@?$__crt_win32_buffer@DU__crt_win32_buffer_no_resizing@@@@QAEHI@Z 100809a0 f i libucrtd:getmodulefilenamea.obj
 0001:0007fa10       ?allocate@__crt_win32_buffer_no_resizing@@SAHQAPAXIABV__crt_win32_buffer_empty_debug_info@@@Z 10080a10 f i libucrtd:getmodulefilenamea.obj
 0001:0007fa30       ?capacity@?$__crt_win32_buffer@DU__crt_win32_buffer_no_resizing@@@@QBEIXZ 10080a30 f i libucrtd:getmodulefilenamea.obj
 0001:0007fa50       ?data@?$__crt_win32_buffer@DU__crt_win32_buffer_no_resizing@@@@QAEPADXZ 10080a50 f i libucrtd:getmodulefilenamea.obj
 0001:0007fa70       ?deallocate@__crt_win32_buffer_no_resizing@@SAXQAXABV__crt_win32_buffer_empty_debug_info@@@Z 10080a70 f i libucrtd:getmodulefilenamea.obj
 0001:0007fa80       ?debug_info@?$__crt_win32_buffer@DU__crt_win32_buffer_no_resizing@@@@QBEABV__crt_win32_buffer_empty_debug_info@@XZ 10080a80 f i libucrtd:getmodulefilenamea.obj
 0001:0007fa90       ?set_to_nullptr@?$__crt_win32_buffer@DU__crt_win32_buffer_no_resizing@@@@QAEXXZ 10080a90 f i libucrtd:getmodulefilenamea.obj
 0001:0007fad0       ?size@?$__crt_win32_buffer@DU__crt_win32_buffer_no_resizing@@@@QAEXI@Z 10080ad0 f i libucrtd:getmodulefilenamea.obj
 0001:0007faf0       ?size@?$__crt_win32_buffer@DU__crt_win32_buffer_no_resizing@@@@QBEIXZ 10080af0 f i libucrtd:getmodulefilenamea.obj
 0001:0007fb10       ___acrt_GetModuleFileNameA 10080b10 f   libucrtd:getmodulefilenamea.obj
 0001:0007fdf0       ??$message_box@$$TABQBDABQBDK@?$__crt_char_traits@D@@SAH$$QA$$TABQBD1$$QAK@Z 10080df0 f i libucrtd:crtmbox.obj
 0001:0007fe20       ??$message_box@$$TABQB_WABQB_WK@?$__crt_char_traits@_W@@SAH$$QA$$TABQB_W1$$QAK@Z 10080e20 f i libucrtd:crtmbox.obj
 0001:0007fe50       ??$message_box@PAUHWND__@@ABQBDABQBDABI@?$__crt_char_traits@D@@SAH$$QAPAUHWND__@@ABQBD1ABI@Z 10080e50 f i libucrtd:crtmbox.obj
 0001:0007fe80       ??$message_box@PAUHWND__@@ABQB_WABQB_WABI@?$__crt_char_traits@_W@@SAH$$QAPAUHWND__@@ABQB_W1ABI@Z 10080e80 f i libucrtd:crtmbox.obj
 0001:0007feb0       ??$output_debug_string@ABQBD@?$__crt_char_traits@D@@SAXABQBD@Z 10080eb0 f i libucrtd:crtmbox.obj
 0001:0007fed0       ??$output_debug_string@ABQB_W@?$__crt_char_traits@_W@@SAXABQB_W@Z 10080ed0 f i libucrtd:crtmbox.obj
 0001:0007fef0       ___acrt_show_narrow_message_box 10080ef0 f   libucrtd:crtmbox.obj
 0001:0007ff10       ___acrt_show_wide_message_box 10080f10 f   libucrtd:crtmbox.obj
 0001:0007ff30       ___acrt_initialize_locks   10080f30 f   libucrtd:locks.obj
 0001:0007ff90       ___acrt_lock               10080f90 f   libucrtd:locks.obj
 0001:0007ffb0       ___acrt_uninitialize_locks 10080fb0 f   libucrtd:locks.obj
 0001:00080000       ___acrt_unlock             10081000 f   libucrtd:locks.obj
 0001:00080020       __lock_locales             10081020 f   libucrtd:locks.obj
 0001:00080040       __unlock_locales           10081040 f   libucrtd:locks.obj
 0001:00080060       ??$?B$$A6AXH@Z@__crt_fast_encoded_nullptr_t@@QBEP6AXH@ZXZ 10081060 f i libucrtd:signal.obj
 0001:00080150       ??$__crt_fast_decode_pointer@P6AXH@Z@@YAP6AXH@ZQ6AXH@Z@Z 10081150 f i libucrtd:signal.obj
 0001:00080180       ??$__crt_fast_encode_pointer@P6AXH@Z@@YAP6AXH@ZQ6AXH@Z@Z 10081180 f i libucrtd:signal.obj
 0001:00080430       ?initialize@?$dual_state_global@P6AXH@Z@__crt_state_management@@QAEXQ6AXH@Z@Z 10081430 f i libucrtd:signal.obj
 0001:00080570       ?value@?$dual_state_global@P6AXH@Z@__crt_state_management@@QAEAAP6AXH@ZXZ 10081570 f i libucrtd:signal.obj
 0001:00080590       ___acrt_get_sigabrt_handler 10081590 f   libucrtd:signal.obj
 0001:000805b0       ___acrt_initialize_signal_handlers 100815b0 f   libucrtd:signal.obj
 0001:000805f0       ___fpecode                 100815f0 f   libucrtd:signal.obj
 0001:00080600       ___pxcptinfoptrs           10081600 f   libucrtd:signal.obj
 0001:00080610       _raise                     10081610 f   libucrtd:signal.obj
 0001:000809e0       _signal                    100819e0 f   libucrtd:signal.obj
 0001:00080c60       __msize                    10081c60 f   libucrtd:msize.obj
 0001:00080c80       __msize_base               10081c80 f   libucrtd:msize.obj
 0001:00080d20       __realloc_base             10081d20 f   libucrtd:realloc_base.obj
 0001:00080de0       ??$?B$$A6GHPA_WKJ@Z@__crt_fast_encoded_nullptr_t@@QBEP6GHPA_WKJ@ZXZ 10081de0 f i libucrtd:winapi_thunks.obj
 0001:00080ed0       ??$__crt_fast_decode_pointer@P6GHPA_WKJ@Z@@YAP6GHPA_WKJ@ZQ6GH0KJ@Z@Z 10081ed0 f i libucrtd:winapi_thunks.obj
 0001:00080f00       ??$__crt_fast_decode_pointer@PAX@@YAPAXQAX@Z 10081f00 f i libucrtd:winapi_thunks.obj
 0001:00080f30       ??$__crt_fast_encode_pointer@P6GHPA_WKJ@Z@@YAP6GHPA_WKJ@ZQ6GH0KJ@Z@Z 10081f30 f i libucrtd:winapi_thunks.obj
 0001:00081890       _GetCurrentThreadEffectiveToken 10082890 f i libucrtd:winapi_thunks.obj
 0001:000818a0       ___acrt_AppPolicyGetProcessTerminationMethodInternal@4 100828a0 f   libucrtd:winapi_thunks.obj
 0001:000818e0       ___acrt_AppPolicyGetShowDeveloperDiagnosticInternal@4 100828e0 f   libucrtd:winapi_thunks.obj
 0001:00081920       ___acrt_AppPolicyGetThreadInitializationTypeInternal@4 10082920 f   libucrtd:winapi_thunks.obj
 0001:00081960       ___acrt_AppPolicyGetWindowingModelInternal@4 10082960 f   libucrtd:winapi_thunks.obj
 0001:000819a0       ___acrt_AreFileApisANSI@0  100829a0 f   libucrtd:winapi_thunks.obj
 0001:000819e0       ___acrt_CompareStringEx@36 100829e0 f   libucrtd:winapi_thunks.obj
 0001:00081a60       ___acrt_EnumSystemLocalesEx@16 10082a60 f   libucrtd:winapi_thunks.obj
 0001:00081ac0       ___acrt_FlsAlloc@4         10082ac0 f   libucrtd:winapi_thunks.obj
 0001:00081b00       ___acrt_FlsFree@4          10082b00 f   libucrtd:winapi_thunks.obj
 0001:00081b40       ___acrt_FlsGetValue@4      10082b40 f   libucrtd:winapi_thunks.obj
 0001:00081b80       ___acrt_FlsSetValue@8      10082b80 f   libucrtd:winapi_thunks.obj
 0001:00081bd0       ___acrt_GetDateFormatEx@28 10082bd0 f   libucrtd:winapi_thunks.obj
 0001:00081c50       ___acrt_GetEnabledXStateFeatures@0 10082c50 f   libucrtd:winapi_thunks.obj
 0001:00081c90       ___acrt_GetLocaleInfoEx@16 10082c90 f   libucrtd:winapi_thunks.obj
 0001:00081cf0       ___acrt_GetSystemTimePreciseAsFileTime@4 10082cf0 f   libucrtd:winapi_thunks.obj
 0001:00081d30       ___acrt_GetTimeFormatEx@24 10082d30 f   libucrtd:winapi_thunks.obj
 0001:00081da0       ___acrt_GetUserDefaultLocaleName@8 10082da0 f   libucrtd:winapi_thunks.obj
 0001:00081df0       ___acrt_GetXStateFeaturesMask@8 10082df0 f   libucrtd:winapi_thunks.obj
 0001:00081e30       ___acrt_InitializeCriticalSectionEx@12 10082e30 f   libucrtd:winapi_thunks.obj
 0001:00081e80       ___acrt_IsValidLocaleName@4 10082e80 f   libucrtd:winapi_thunks.obj
 0001:00081ed0       ___acrt_LCIDToLocaleName@16 10082ed0 f   libucrtd:winapi_thunks.obj
 0001:00081f30       ___acrt_LCMapStringEx@36   10082f30 f   libucrtd:winapi_thunks.obj
 0001:00081fb0       ___acrt_LocaleNameToLCID@8 10082fb0 f   libucrtd:winapi_thunks.obj
 0001:00082000       ___acrt_LocateXStateFeature@12 10083000 f   libucrtd:winapi_thunks.obj
 0001:00082050       ___acrt_MessageBoxA@16     10083050 f   libucrtd:winapi_thunks.obj
 0001:000820a0       ___acrt_MessageBoxW@16     100830a0 f   libucrtd:winapi_thunks.obj
 0001:000820f0       ___acrt_RoInitialize@4     100830f0 f   libucrtd:winapi_thunks.obj
 0001:00082130       ___acrt_RoUninitialize@0   10083130 f   libucrtd:winapi_thunks.obj
 0001:00082160       ___acrt_RtlGenRandom@8     10083160 f   libucrtd:winapi_thunks.obj
 0001:000821a0       ___acrt_SetThreadStackGuarantee@4 100831a0 f   libucrtd:winapi_thunks.obj
 0001:000821e0       ___acrt_can_show_message_box 100831e0 f   libucrtd:winapi_thunks.obj
 0001:00082220       ___acrt_can_use_vista_locale_apis 10083220 f   libucrtd:winapi_thunks.obj
 0001:00082250       ___acrt_can_use_xstate_apis 10083250 f   libucrtd:winapi_thunks.obj
 0001:00082280       ___acrt_eagerly_load_locale_apis 10083280 f   libucrtd:winapi_thunks.obj
 0001:000822c0       ___acrt_get_parent_window  100832c0 f   libucrtd:winapi_thunks.obj
 0001:00082330       ___acrt_initialize_winapi_thunks 10083330 f   libucrtd:winapi_thunks.obj
 0001:000823a0       ___acrt_is_interactive     100833a0 f   libucrtd:winapi_thunks.obj
 0001:00082450       ___acrt_uninitialize_winapi_thunks 10083450 f   libucrtd:winapi_thunks.obj
 0001:000824c0       __chvalidator              100834c0 f   libucrtd:isctype.obj
 0001:00082510       __chvalidator_l            10083510 f   libucrtd:isctype.obj
 0001:00082590       __isctype                  10083590 f   libucrtd:isctype.obj
 0001:000825d0       __isctype_l                100835d0 f   libucrtd:isctype.obj
 0001:00082750       __isleadbyte_fast_internal 10083750 f i libucrtd:isctype.obj
 0001:00082770       ??$?RU__crt_stdio_stream_data@@@__crt_internal_free_policy@@QBEXQBU__crt_stdio_stream_data@@@Z 10083770 f i libucrtd:stream.obj
 0001:00082790       ??0?$__crt_unique_heap_ptr@U__crt_stdio_stream_data@@U__crt_internal_free_policy@@@@QAE@QAU__crt_stdio_stream_data@@@Z 10083790 f i libucrtd:stream.obj
 0001:000827b0       ??0__crt_stdio_stream@@QAE@QAU__crt_stdio_stream_data@@@Z 100837b0 f i libucrtd:stream.obj
 0001:000827d0       ??0__crt_stdio_stream@@QAE@XZ 100837d0 f i libucrtd:stream.obj
 0001:000827f0       ??1?$__crt_unique_heap_ptr@U__crt_stdio_stream_data@@U__crt_internal_free_policy@@@@QAE@XZ 100837f0 f i libucrtd:stream.obj
 0001:00082810       ?__acrt_stdio_allocate_stream@@YA?AV__crt_stdio_stream@@XZ 10083810 f   libucrtd:stream.obj
 0001:00082900       ?__acrt_stdio_free_stream@@YAXV__crt_stdio_stream@@@Z 10083900 f   libucrtd:stream.obj
 0001:00082980       ?deallocate@__crt_stdio_stream@@QAEXXZ 10083980 f i libucrtd:stream.obj
 0001:000829a0       ?detach@?$__crt_unique_heap_ptr@U__crt_stdio_stream_data@@U__crt_internal_free_policy@@@@QAEPAU__crt_stdio_stream_data@@XZ 100839a0 f i libucrtd:stream.obj
 0001:00082b10       ?lock@__crt_stdio_stream@@QBEXXZ 10083b10 f i libucrtd:stream.obj
 0001:00082b30       ?release@?$__crt_unique_heap_ptr@U__crt_stdio_stream_data@@U__crt_internal_free_policy@@@@QAEXXZ 10083b30 f i libucrtd:stream.obj
 0001:00082b60       ?try_allocate@__crt_stdio_stream@@QAE_NXZ 10083b60 f i libucrtd:stream.obj
 0001:00082bb0       ??$__acrt_stdio_parse_mode@D@@YA?AU__acrt_stdio_stream_mode@@QBD@Z 10083bb0 f i libucrtd:openfile.obj
 0001:00083420       ??$__acrt_stdio_parse_mode@_W@@YA?AU__acrt_stdio_stream_mode@@QB_W@Z 10084420 f i libucrtd:openfile.obj
 0001:00083fb0       ??$tcsncmp@AAPBDAAY02$$CBDI@?$__crt_char_traits@D@@SAHAAPBDAAY02$$CBD$$QAI@Z 10084fb0 f i libucrtd:openfile.obj
 0001:00083fd0       ??$tcsncmp@AAPB_WAAY02$$CB_WI@?$__crt_char_traits@_W@@SAHAAPB_WAAY02$$CB_W$$QAI@Z 10084fd0 f i libucrtd:openfile.obj
 0001:00083ff0       ??$tcsnicmp@AAPBDAAY04$$CBDI@?$__crt_char_traits@D@@SAHAAPBDAAY04$$CBD$$QAI@Z 10084ff0 f i libucrtd:openfile.obj
 0001:00084010       ??$tcsnicmp@AAPBDAAY06$$CBDI@?$__crt_char_traits@D@@SAHAAPBDAAY06$$CBD$$QAI@Z 10085010 f i libucrtd:openfile.obj
 0001:00084030       ??$tcsnicmp@AAPBDAAY07$$CBDI@?$__crt_char_traits@D@@SAHAAPBDAAY07$$CBD$$QAI@Z 10085030 f i libucrtd:openfile.obj
 0001:00084050       ??$tcsnicmp@AAPB_WAAY04$$CB_WI@?$__crt_char_traits@_W@@SAHAAPB_WAAY04$$CB_W$$QAI@Z 10085050 f i libucrtd:openfile.obj
 0001:00084070       ??$tcsnicmp@AAPB_WAAY06$$CB_WI@?$__crt_char_traits@_W@@SAHAAPB_WAAY06$$CB_W$$QAI@Z 10085070 f i libucrtd:openfile.obj
 0001:00084090       ??$tcsnicmp@AAPB_WAAY07$$CB_WI@?$__crt_char_traits@_W@@SAHAAPB_WAAY07$$CB_W$$QAI@Z 10085090 f i libucrtd:openfile.obj
 0001:000840b0       ??$tsopen_s@PAHABQBDABHABHH@?$__crt_char_traits@D@@SAH$$QAPAHABQBDABH2$$QAH@Z 100850b0 f i libucrtd:openfile.obj
 0001:000840e0       ??$tsopen_s@PAHABQB_WABHABHH@?$__crt_char_traits@_W@@SAH$$QAPAHABQB_WABH2$$QAH@Z 100850e0 f i libucrtd:openfile.obj
 0001:00084110       ?__acrt_stdio_parse_mode_D@@YA_NAAU__acrt_stdio_stream_mode@@@Z 10085110 f i libucrtd:openfile.obj
 0001:00084140       ?__acrt_stdio_parse_mode_N@@YA_NAAU__acrt_stdio_stream_mode@@@Z 10085140 f i libucrtd:openfile.obj
 0001:00084160       ?__acrt_stdio_parse_mode_R@@YA_NAAU__acrt_stdio_stream_mode@@AA_N@Z 10085160 f i libucrtd:openfile.obj
 0001:00084190       ?__acrt_stdio_parse_mode_S@@YA_NAAU__acrt_stdio_stream_mode@@AA_N@Z 10085190 f i libucrtd:openfile.obj
 0001:000841c0       ?__acrt_stdio_parse_mode_T@@YA_NAAU__acrt_stdio_stream_mode@@@Z 100851c0 f i libucrtd:openfile.obj
 0001:000841f0       ?__acrt_stdio_parse_mode_b@@YA_NAAU__acrt_stdio_stream_mode@@@Z 100851f0 f i libucrtd:openfile.obj
 0001:00084220       ?__acrt_stdio_parse_mode_c@@YA_NAAU__acrt_stdio_stream_mode@@AA_N@Z 10085220 f i libucrtd:openfile.obj
 0001:00084250       ?__acrt_stdio_parse_mode_n@@YA_NAAU__acrt_stdio_stream_mode@@AA_N@Z 10085250 f i libucrtd:openfile.obj
 0001:00084280       ?__acrt_stdio_parse_mode_plus@@YA_NAAU__acrt_stdio_stream_mode@@AA_N@Z 10085280 f i libucrtd:openfile.obj
 0001:000842f0       ?__acrt_stdio_parse_mode_t@@YA_NAAU__acrt_stdio_stream_mode@@@Z 100852f0 f i libucrtd:openfile.obj
 0001:00084320       ?__acrt_stdio_parse_mode_x@@YA_NAAU__acrt_stdio_stream_mode@@@Z 10085320 f i libucrtd:openfile.obj
 0001:00084350       __openfile                 10085350 f   libucrtd:openfile.obj
 0001:00084380       __wopenfile                10085380 f   libucrtd:openfile.obj
 0001:00084660       __close                    10085660 f   libucrtd:close.obj
 0001:000847e0       __close_nolock             100857e0 f   libucrtd:close.obj
 0001:00084840       ?has_crt_buffer@__crt_stdio_stream@@QBE_NXZ 10085840 f i libucrtd:_freebuf.obj
 0001:00084860       ___acrt_stdio_free_buffer_nolock 10085860 f   libucrtd:_freebuf.obj
 0001:00084ec0       ?__acrt_stdio_reset_buffer@@YAXV__crt_stdio_stream@@@Z 10085ec0 f i libucrtd:fflush.obj
 0001:00084fc0       ?has_all_of@__crt_stdio_stream@@QBE_NJ@Z 10085fc0 f i libucrtd:fflush.obj
 0001:00085090       ___acrt_stdio_flush_nolock 10086090 f   libucrtd:fflush.obj
 0001:00085160       __fflush_nolock            10086160 f   libucrtd:fflush.obj
 0001:000851e0       __flushall                 100861e0 f   libucrtd:fflush.obj
 0001:00085200       _fflush                    10086200 f   libucrtd:fflush.obj
 0001:000859b0       ?has_big_buffer@__crt_stdio_stream@@QBE_NXZ 100869b0 f i libucrtd:_flsbuf.obj
 0001:00085ab0       ___acrt_stdio_flush_and_write_narrow_nolock 10086ab0 f   libucrtd:_flsbuf.obj
 0001:00085ae0       ___acrt_stdio_flush_and_write_wide_nolock 10086ae0 f   libucrtd:_flsbuf.obj
 0001:00085e10       ___acrt_get_begin_thread_init_policy 10086e10 f   libucrtd:win_policies.obj
 0001:00085e30       ___acrt_get_developer_information_policy 10086e30 f   libucrtd:win_policies.obj
 0001:00085e50       ___acrt_get_process_end_policy 10086e50 f   libucrtd:win_policies.obj
 0001:00085e70       ___acrt_get_windowing_model_policy 10086e70 f   libucrtd:win_policies.obj
 0001:00086140       ??$__acrt_mbs_to_wcs_cp@U__crt_win32_buffer_internal_dynamic_resizing@@@@YAHQBDAAV?$__crt_win32_buffer@_WU__crt_win32_buffer_internal_dynamic_resizing@@@@I@Z 10087140 f i libucrtd:argv_wildcards.obj
 0001:00086170       ??$__acrt_wcs_to_mbs_cp@U__crt_win32_buffer_internal_dynamic_resizing@@@@YAHQB_WAAV?$__crt_win32_buffer@DU__crt_win32_buffer_internal_dynamic_resizing@@@@I@Z 10087170 f i libucrtd:argv_wildcards.obj
 0001:000870c0       ??$tcsncpy_s@AAPADIAAPADABI@?$__crt_char_traits@D@@SAHAAPAD$$QAI0ABI@Z 100880c0 f i libucrtd:argv_wildcards.obj
 0001:000870f0       ??$tcsncpy_s@AAPA_WIAAPA_WABI@?$__crt_char_traits@_W@@SAHAAPA_W$$QAI0ABI@Z 100880f0 f i libucrtd:argv_wildcards.obj
 0001:00087120       ??$tcsncpy_s@PADABIABQBDABI@?$__crt_char_traits@D@@SAH$$QAPADABIABQBD1@Z 10088120 f i libucrtd:argv_wildcards.obj
 0001:00087150       ??$tcsncpy_s@PADIABQBDABI@?$__crt_char_traits@D@@SAH$$QAPAD$$QAIABQBDABI@Z 10088150 f i libucrtd:argv_wildcards.obj
 0001:00087180       ??$tcsncpy_s@PA_WABIABQB_WABI@?$__crt_char_traits@_W@@SAH$$QAPA_WABIABQB_W1@Z 10088180 f i libucrtd:argv_wildcards.obj
 0001:000871b0       ??$tcsncpy_s@PA_WIABQB_WABI@?$__crt_char_traits@_W@@SAH$$QAPA_W$$QAIABQB_WABI@Z 100881b0 f i libucrtd:argv_wildcards.obj
 0001:000871e0       ??$tcspbrk@AAPADAAY02$$CBD@?$__crt_char_traits@D@@SAPADAAPADAAY02$$CBD@Z 100881e0 f i libucrtd:argv_wildcards.obj
 0001:00087200       ??$tcspbrk@AAPA_WAAY02$$CB_W@?$__crt_char_traits@_W@@SAPA_WAAPA_WAAY02$$CB_W@Z 10088200 f i libucrtd:argv_wildcards.obj
 0001:00087220       ??0?$__crt_unique_handle_t@U__crt_findfile_traits@@@@QAE@QAX@Z 10088220 f i libucrtd:argv_wildcards.obj
 0001:00087240       ??0?$__crt_win32_buffer@DU__crt_win32_buffer_internal_dynamic_resizing@@@@QAE@XZ 10088240 f i libucrtd:argv_wildcards.obj
 0001:00087290       ??0?$__crt_win32_buffer@_WU__crt_win32_buffer_internal_dynamic_resizing@@@@QAE@XZ 10088290 f i libucrtd:argv_wildcards.obj
 0001:00087340       ??1?$__crt_unique_handle_t@U__crt_findfile_traits@@@@QAE@XZ 10088340 f i libucrtd:argv_wildcards.obj
 0001:00087360       ??1?$__crt_win32_buffer@DU__crt_win32_buffer_internal_dynamic_resizing@@@@QAE@XZ 10088360 f i libucrtd:argv_wildcards.obj
 0001:000873a0       ??1?$__crt_win32_buffer@_WU__crt_win32_buffer_internal_dynamic_resizing@@@@QAE@XZ 100883a0 f i libucrtd:argv_wildcards.obj
 0001:00087600       ?_deallocate@?$__crt_win32_buffer@DU__crt_win32_buffer_internal_dynamic_resizing@@@@AAEXXZ 10088600 f i libucrtd:argv_wildcards.obj
 0001:00087640       ?_deallocate@?$__crt_win32_buffer@_WU__crt_win32_buffer_internal_dynamic_resizing@@@@AAEXXZ 10088640 f i libucrtd:argv_wildcards.obj
 0001:00087680       ?allocate@?$__crt_win32_buffer@DU__crt_win32_buffer_internal_dynamic_resizing@@@@QAEHI@Z 10088680 f i libucrtd:argv_wildcards.obj
 0001:000876f0       ?allocate@?$__crt_win32_buffer@_WU__crt_win32_buffer_internal_dynamic_resizing@@@@QAEHI@Z 100886f0 f i libucrtd:argv_wildcards.obj
 0001:00087760       ?allocate@__crt_win32_buffer_internal_dynamic_resizing@@SAHQAPAXIABV__crt_win32_buffer_empty_debug_info@@@Z 10088760 f i libucrtd:argv_wildcards.obj
 0001:000878a0       ?capacity@?$__crt_win32_buffer@DU__crt_win32_buffer_internal_dynamic_resizing@@@@QBEIXZ 100888a0 f i libucrtd:argv_wildcards.obj
 0001:000878c0       ?capacity@?$__crt_win32_buffer@_WU__crt_win32_buffer_internal_dynamic_resizing@@@@QBEIXZ 100888c0 f i libucrtd:argv_wildcards.obj
 0001:000878e0       ?close@?$__crt_unique_handle_t@U__crt_findfile_traits@@@@QAEXXZ 100888e0 f i libucrtd:argv_wildcards.obj
 0001:00087920       ?close@__crt_findfile_traits@@SA_NPAX@Z 10088920 f i libucrtd:argv_wildcards.obj
 0001:00087950       ?data@?$__crt_win32_buffer@DU__crt_win32_buffer_internal_dynamic_resizing@@@@QAEPADXZ 10088950 f i libucrtd:argv_wildcards.obj
 0001:00087970       ?data@?$__crt_win32_buffer@_WU__crt_win32_buffer_internal_dynamic_resizing@@@@QAEPA_WXZ 10088970 f i libucrtd:argv_wildcards.obj
 0001:00087990       ?deallocate@__crt_win32_buffer_internal_dynamic_resizing@@SAXQAXABV__crt_win32_buffer_empty_debug_info@@@Z 10088990 f i libucrtd:argv_wildcards.obj
 0001:000879b0       ?debug_info@?$__crt_win32_buffer@DU__crt_win32_buffer_internal_dynamic_resizing@@@@QBEABV__crt_win32_buffer_empty_debug_info@@XZ 100889b0 f i libucrtd:argv_wildcards.obj
 0001:000879c0       ?debug_info@?$__crt_win32_buffer@_WU__crt_win32_buffer_internal_dynamic_resizing@@@@QBEABV__crt_win32_buffer_empty_debug_info@@XZ 100889c0 f i libucrtd:argv_wildcards.obj
 0001:00087cd0       ?get@?$__crt_unique_handle_t@U__crt_findfile_traits@@@@QBEPAXXZ 10088cd0 f i libucrtd:argv_wildcards.obj
 0001:00087d40       ?get_invalid_value@__crt_findfile_traits@@SAPAXXZ 10088d40 f i libucrtd:argv_wildcards.obj
 0001:00087dd0       ?set_to_nullptr@?$__crt_win32_buffer@DU__crt_win32_buffer_internal_dynamic_resizing@@@@QAEXXZ 10088dd0 f i libucrtd:argv_wildcards.obj
 0001:00087e10       ?set_to_nullptr@?$__crt_win32_buffer@_WU__crt_win32_buffer_internal_dynamic_resizing@@@@QAEXXZ 10088e10 f i libucrtd:argv_wildcards.obj
 0001:00087e50       ?size@?$__crt_win32_buffer@DU__crt_win32_buffer_internal_dynamic_resizing@@@@QAEXI@Z 10088e50 f i libucrtd:argv_wildcards.obj
 0001:00087e70       ?size@?$__crt_win32_buffer@_WU__crt_win32_buffer_internal_dynamic_resizing@@@@QAEXI@Z 10088e70 f i libucrtd:argv_wildcards.obj
 0001:00087ed0       ?strpbrk@@YAPADQADQBD@Z    10088ed0 f i libucrtd:argv_wildcards.obj
 0001:00087ef0       ?wcspbrk@@YAPA_WPA_WPB_W@Z 10088ef0 f i libucrtd:argv_wildcards.obj
 0001:00087f10       ___acrt_expand_narrow_argv_wildcards 10088f10 f   libucrtd:argv_wildcards.obj
 0001:00087f30       ___acrt_expand_wide_argv_wildcards 10088f30 f   libucrtd:argv_wildcards.obj
 0001:00088010       ??$initialize_from_array@$$BY10BAA@E@?$dual_state_global@PAE@__crt_state_management@@QAAXAAY10BAA@E@Z 10089010 f i libucrtd:mbctype.obj
 0001:00088060       ??$initialize_from_array@$$BY10BAB@E@?$dual_state_global@PAE@__crt_state_management@@QAAXAAY10BAB@E@Z 10089060 f i libucrtd:mbctype.obj
 0001:000882d0       ?dangerous_get_state_array@?$dual_state_global@PAE@__crt_state_management@@QAEPAPAEXZ 100892d0 f i libucrtd:mbctype.obj
 0001:000882e0       ?dangerous_get_state_array@?$dual_state_global@PAU__crt_multibyte_data@@@__crt_state_management@@QAEPAPAU__crt_multibyte_data@@XZ 100892e0 f i libucrtd:mbctype.obj
 0001:000883b0       ?initialize@?$dual_state_global@PAU__crt_multibyte_data@@@__crt_state_management@@QAEXQAU__crt_multibyte_data@@@Z 100893b0 f i libucrtd:mbctype.obj
 0001:00088b10       ?value@?$dual_state_global@PAE@__crt_state_management@@QAEAAPAEXZ 10089b10 f i libucrtd:mbctype.obj
 0001:00088b30       ___acrt_initialize_multibyte 10089b30 f   libucrtd:mbctype.obj
 0001:00088be0       ___acrt_update_thread_multibyte_data 10089be0 f   libucrtd:mbctype.obj
 0001:00088c00       ___p__mbcasemap            10089c00 f   libucrtd:mbctype.obj
 0001:00088c20       ___p__mbctype              10089c20 f   libucrtd:mbctype.obj
 0001:00088c40       __getmbcp                  10089c40 f   libucrtd:mbctype.obj
 0001:00088cb0       __setmbcp                  10089cb0 f   libucrtd:mbctype.obj
 0001:00088ce0       __setmbcp_nolock           10089ce0 f   libucrtd:mbctype.obj
 0001:00089251       __ismbbalnum               1008a251 f   libucrtd:ismbbyte.obj
 0001:0008926c       __ismbbalnum_l             1008a26c f   libucrtd:ismbbyte.obj
 0001:00089288       __ismbbalpha               1008a288 f   libucrtd:ismbbyte.obj
 0001:000892a3       __ismbbalpha_l             1008a2a3 f   libucrtd:ismbbyte.obj
 0001:000892bf       __ismbbblank               1008a2bf f   libucrtd:ismbbyte.obj
 0001:000892e2       __ismbbblank_l             1008a2e2 f   libucrtd:ismbbyte.obj
 0001:00089306       __ismbbgraph               1008a306 f   libucrtd:ismbbyte.obj
 0001:00089321       __ismbbgraph_l             1008a321 f   libucrtd:ismbbyte.obj
 0001:0008933d       __ismbbkalnum              1008a33d f   libucrtd:ismbbyte.obj
 0001:00089355       __ismbbkalnum_l            1008a355 f   libucrtd:ismbbyte.obj
 0001:0008936e       __ismbbkana                1008a36e f   libucrtd:ismbbyte.obj
 0001:00089381       __ismbbkana_l              1008a381 f   libucrtd:ismbbyte.obj
 0001:000893d0       __ismbbkprint              1008a3d0 f   libucrtd:ismbbyte.obj
 0001:000893e8       __ismbbkprint_l            1008a3e8 f   libucrtd:ismbbyte.obj
 0001:00089401       __ismbbkpunct              1008a401 f   libucrtd:ismbbyte.obj
 0001:00089419       __ismbbkpunct_l            1008a419 f   libucrtd:ismbbyte.obj
 0001:00089432       __ismbblead                1008a432 f   libucrtd:ismbbyte.obj
 0001:0008944a       __ismbblead_l              1008a44a f   libucrtd:ismbbyte.obj
 0001:00089463       __ismbbprint               1008a463 f   libucrtd:ismbbyte.obj
 0001:0008947e       __ismbbprint_l             1008a47e f   libucrtd:ismbbyte.obj
 0001:0008949a       __ismbbpunct               1008a49a f   libucrtd:ismbbyte.obj
 0001:000894b2       __ismbbpunct_l             1008a4b2 f   libucrtd:ismbbyte.obj
 0001:000894cb       __ismbbtrail               1008a4cb f   libucrtd:ismbbyte.obj
 0001:000894e3       __ismbbtrail_l             1008a4e3 f   libucrtd:ismbbyte.obj
 0001:00089500       ___acrt_initialize_command_line 1008a500 f   libucrtd:argv_data.obj
 0001:00089520       ___acrt_uninitialize_command_line 1008a520 f   libucrtd:argv_data.obj
 0001:00089530       ___p___argc                1008a530 f   libucrtd:argv_data.obj
 0001:00089540       ___p___argv                1008a540 f   libucrtd:argv_data.obj
 0001:00089550       ___p___wargv               1008a550 f   libucrtd:argv_data.obj
 0001:00089560       ___p__acmdln               1008a560 f   libucrtd:argv_data.obj
 0001:00089570       ___p__pgmptr               1008a570 f   libucrtd:argv_data.obj
 0001:00089580       ___p__wcmdln               1008a580 f   libucrtd:argv_data.obj
 0001:00089590       ___p__wpgmptr              1008a590 f   libucrtd:argv_data.obj
 0001:000895a0       __get_pgmptr               1008a5a0 f   libucrtd:argv_data.obj
 0001:000896b0       __get_wpgmptr              1008a6b0 f   libucrtd:argv_data.obj
 0001:00089870       ___acrt_MultiByteToWideChar 1008a870 f   libucrtd:multibytetowidechar.obj
 0001:00089970       ___acrt_WideCharToMultiByte 1008a970 f   libucrtd:widechartomultibyte.obj
 0001:00089ab2       ___dcrt_get_narrow_environment_from_os 1008aab2 f   libucrtd:get_environment_from_os.obj
 0001:00089b44       ___dcrt_get_wide_environment_from_os 1008ab44 f   libucrtd:get_environment_from_os.obj
 0001:0008a4d9       ??$get_or_create_environment_nolock@$$V@?$__crt_char_traits@D@@SAPAPADXZ 1008b4d9 f i libucrtd:setenv.obj
 0001:0008a4de       ??$get_or_create_environment_nolock@$$V@?$__crt_char_traits@_W@@SAPAPA_WXZ 1008b4de f i libucrtd:setenv.obj
 0001:0008a4e3       ??$set_environment_variable@ABQADQAD@?$__crt_char_traits@D@@SAHABQAD$$QBQAD@Z 1008b4e3 f i libucrtd:setenv.obj
 0001:0008a4fb       ??$set_environment_variable@ABQA_WQA_W@?$__crt_char_traits@_W@@SAHABQA_W$$QBQA_W@Z 1008b4fb f i libucrtd:setenv.obj
 0001:0008a512       ??$tcschr@ABQADD@?$__crt_char_traits@D@@SAPADABQAD$$QAD@Z 1008b512 f i libucrtd:setenv.obj
 0001:0008a52c       ??$tcschr@ABQA_WD@?$__crt_char_traits@_W@@SAPA_WABQA_W$$QAD@Z 1008b52c f i libucrtd:setenv.obj
 0001:0008a54a       ??$tcscpy_s@AAPADABIAAPAD@?$__crt_char_traits@D@@SAHAAPADABI0@Z 1008b54a f i libucrtd:setenv.obj
 0001:0008a568       ??$tcscpy_s@AAPA_WABIAAPA_W@?$__crt_char_traits@_W@@SAHAAPA_WABI0@Z 1008b568 f i libucrtd:setenv.obj
 0001:0008a586       ??$tcscpy_s@ABQADABIABQAD@?$__crt_char_traits@D@@SAHABQADABI0@Z 1008b586 f i libucrtd:setenv.obj
 0001:0008a5a4       ??$tcscpy_s@ABQA_WABIABQA_W@?$__crt_char_traits@_W@@SAHABQA_WABI0@Z 1008b5a4 f i libucrtd:setenv.obj
 0001:0008a5c2       ??$tcslen@ABQAD@?$__crt_char_traits@D@@SAIABQAD@Z 1008b5c2 f i libucrtd:setenv.obj
 0001:0008a5da       ??$tcslen@ABQA_W@?$__crt_char_traits@_W@@SAIABQA_W@Z 1008b5da f i libucrtd:setenv.obj
 0001:0008a5f8       ??$tcsnicoll@ABQBDAAPADABI@?$__crt_char_traits@D@@SAHABQBDAAPADABI@Z 1008b5f8 f i libucrtd:setenv.obj
 0001:0008a616       ??$tcsnicoll@ABQB_WAAPA_WABI@?$__crt_char_traits@_W@@SAHABQB_WAAPA_WABI@Z 1008b616 f i libucrtd:setenv.obj
 0001:0008a634       ??$tcsnlen@PADH@?$__crt_char_traits@D@@SAI$$QAPAD$$QAH@Z 1008b634 f i libucrtd:setenv.obj
 0001:0008a64c       ??$tcsnlen@PA_WH@?$__crt_char_traits@_W@@SAI$$QAPA_W$$QAH@Z 1008b64c f i libucrtd:setenv.obj
 0001:0008a688       ?strchr@@YAPADQADH@Z       1008b688 f i libucrtd:setenv.obj
 0001:0008a693       ?wcschr@@YAPA_WPA_W_W@Z    1008b693 f i libucrtd:setenv.obj
 0001:0008a69e       ___dcrt_set_variable_in_narrow_environment_nolock 1008b69e f   libucrtd:setenv.obj
 0001:0008a6a9       ___dcrt_set_variable_in_wide_environment_nolock 1008b6a9 f   libucrtd:setenv.obj
 0001:0008a6c0       ___acrt_getheap            1008b6c0 f   libucrtd:heap_handle.obj
 0001:0008a700       ___acrt_initialize_heap    1008b700 f   libucrtd:heap_handle.obj
 0001:0008a730       ___acrt_uninitialize_heap  1008b730 f   libucrtd:heap_handle.obj
 0001:0008a750       __get_heap_handle          1008b750 f   libucrtd:heap_handle.obj
 0001:0008a790       ___acrt_execute_initializers 1008b790 f   libucrtd:shared_initialization.obj
 0001:0008a840       ___acrt_execute_uninitializers 1008b840 f   libucrtd:shared_initialization.obj
 0001:0008a8a0       ??$__crt_fast_decode_pointer@P6AHPAU_exception@@@Z@@YAP6AHPAU_exception@@@ZQ6AH0@Z@Z 1008b8a0 f i libucrtd:matherr.obj
 0001:0008a8d0       ??$__crt_fast_encode_pointer@P6AHPAU_exception@@@Z@@YAP6AHPAU_exception@@@ZQ6AH0@Z@Z 1008b8d0 f i libucrtd:matherr.obj
 0001:0008a900       ?initialize@?$dual_state_global@P6AHPAU_exception@@@Z@__crt_state_management@@QAEXQ6AHPAU_exception@@@Z@Z 1008b900 f i libucrtd:matherr.obj
 0001:0008a940       ?value@?$dual_state_global@P6AHPAU_exception@@@Z@__crt_state_management@@QAEAAP6AHPAU_exception@@@ZXZ 1008b940 f i libucrtd:matherr.obj
 0001:0008a960       ___acrt_has_user_matherr   1008b960 f   libucrtd:matherr.obj
 0001:0008a9a0       ___acrt_initialize_user_matherr 1008b9a0 f   libucrtd:matherr.obj
 0001:0008a9c0       ___acrt_invoke_user_matherr 1008b9c0 f   libucrtd:matherr.obj
 0001:0008aa10       ___setusermatherr          1008ba10 f   libucrtd:matherr.obj
 0001:0008aa50       __free_base                1008ba50 f   libucrtd:free_base.obj
 0001:0008ab00       __expand                   1008bb00 f   libucrtd:expand.obj
 0001:0008ab20       __expand_base              1008bb20 f   libucrtd:expand.obj
 0001:0008ac50       ?value@?$dual_state_global@J@__crt_state_management@@QAEAAJXZ 1008bc50 f i libucrtd:new_mode.obj
 0001:0008ac70       __query_new_mode           1008bc70 f   libucrtd:new_mode.obj
 0001:0008ac90       __set_new_mode             1008bc90 f   libucrtd:new_mode.obj
 0001:0008ad30       __CrtDefaultAllocHook      1008bd30 f   libucrtd:debug_heap_hook.obj
 0001:0008ad3c       __mbsdec                   1008bd3c f   libucrtd:mbsdec.obj
 0001:0008ad53       __mbsdec_l                 1008bd53 f   libucrtd:mbsdec.obj
 0001:0008b240       _strncpy_s                 1008c240 f   libucrtd:strncpy_s.obj
 0001:0008b410       ___acrt_report_runtime_error 1008c410 f   libucrtd:report_runtime_error.obj
 0001:0008b600       __query_app_type           1008c600 f   libucrtd:report_runtime_error.obj
 0001:0008b610       __set_app_type             1008c610 f   libucrtd:report_runtime_error.obj
 0001:0008b620       __iswctype_l               1008c620 f   libucrtd:iswctype.obj
 0001:0008b640       _iswctype                  1008c640 f   libucrtd:iswctype.obj
 0001:0008b6b0       ___iswcsym                 1008c6b0 f i libucrtd:_wctype.obj
 0001:0008b6f0       ___iswcsymf                1008c6f0 f i libucrtd:_wctype.obj
 0001:0008b730       __isleadbyte_l             1008c730 f i libucrtd:_wctype.obj
 0001:0008b780       __iswalnum_l               1008c780 f i libucrtd:_wctype.obj
 0001:0008b7a0       __iswalpha_l               1008c7a0 f i libucrtd:_wctype.obj
 0001:0008b7c0       __iswblank_l               1008c7c0 f i libucrtd:_wctype.obj
 0001:0008b800       __iswcntrl_l               1008c800 f i libucrtd:_wctype.obj
 0001:0008b820       __iswcsym_l                1008c820 f i libucrtd:_wctype.obj
 0001:0008b860       __iswcsymf_l               1008c860 f i libucrtd:_wctype.obj
 0001:0008b8a0       __iswdigit_l               1008c8a0 f i libucrtd:_wctype.obj
 0001:0008b8c0       __iswgraph_l               1008c8c0 f i libucrtd:_wctype.obj
 0001:0008b8e0       __iswlower_l               1008c8e0 f i libucrtd:_wctype.obj
 0001:0008b900       __iswprint_l               1008c900 f i libucrtd:_wctype.obj
 0001:0008b920       __iswpunct_l               1008c920 f i libucrtd:_wctype.obj
 0001:0008b940       __iswspace_l               1008c940 f i libucrtd:_wctype.obj
 0001:0008b960       __iswupper_l               1008c960 f i libucrtd:_wctype.obj
 0001:0008b980       __iswxdigit_l              1008c980 f i libucrtd:_wctype.obj
 0001:0008b9a0       _isleadbyte                1008c9a0 f i libucrtd:_wctype.obj
 0001:0008b9c0       _iswalnum                  1008c9c0 f i libucrtd:_wctype.obj
 0001:0008b9e0       _iswalpha                  1008c9e0 f i libucrtd:_wctype.obj
 0001:0008ba00       _iswascii                  1008ca00 f i libucrtd:_wctype.obj
 0001:0008ba30       _iswblank                  1008ca30 f i libucrtd:_wctype.obj
 0001:0008ba70       _iswcntrl                  1008ca70 f i libucrtd:_wctype.obj
 0001:0008ba90       _iswdigit                  1008ca90 f i libucrtd:_wctype.obj
 0001:0008bab0       _iswgraph                  1008cab0 f i libucrtd:_wctype.obj
 0001:0008bad0       _iswlower                  1008cad0 f i libucrtd:_wctype.obj
 0001:0008baf0       _iswprint                  1008caf0 f i libucrtd:_wctype.obj
 0001:0008bb10       _iswpunct                  1008cb10 f i libucrtd:_wctype.obj
 0001:0008bb30       _iswspace                  1008cb30 f i libucrtd:_wctype.obj
 0001:0008bb50       _iswupper                  1008cb50 f i libucrtd:_wctype.obj
 0001:0008bb70       _iswxdigit                 1008cb70 f i libucrtd:_wctype.obj
 0001:0008bc00       ?__mbrtowc_utf8@__crt_mbstring@@YAIPA_WPBDIPAU_Mbstatet@@@Z 1008cc00 f   libucrtd:mbrtowc.obj
 0001:0008bc50       ?__mbsrtowcs_utf8@__crt_mbstring@@YAIPA_WPAPBDIPAU_Mbstatet@@@Z 1008cc50 f   libucrtd:mbrtowc.obj
 0001:0008c4c0       _btowc                     1008d4c0 f   libucrtd:mbrtowc.obj
 0001:0008c530       _mbrlen                    1008d530 f   libucrtd:mbrtowc.obj
 0001:0008c580       _mbrtowc                   1008d580 f   libucrtd:mbrtowc.obj
 0001:0008c610       _mbsrtowcs                 1008d610 f   libucrtd:mbrtowc.obj
 0001:0008c630       _mbsrtowcs_s               1008d630 f   libucrtd:mbrtowc.obj
 0001:0008c980       ??$?RG@__crt_internal_free_policy@@QBEXQBG@Z 1008d980 f i libucrtd:initctype.obj
 0001:0008c9a0       ??$?RJ@__crt_internal_free_policy@@QBEXQBJ@Z 1008d9a0 f i libucrtd:initctype.obj
 0001:0008c9c0       ??0?$__crt_unique_heap_ptr@GU__crt_internal_free_policy@@@@QAE@QAG@Z 1008d9c0 f i libucrtd:initctype.obj
 0001:0008c9e0       ??0?$__crt_unique_heap_ptr@JU__crt_internal_free_policy@@@@QAE@QAJ@Z 1008d9e0 f i libucrtd:initctype.obj
 0001:0008ca00       ??1?$__crt_unique_heap_ptr@GU__crt_internal_free_policy@@@@QAE@XZ 1008da00 f i libucrtd:initctype.obj
 0001:0008ca20       ??1?$__crt_unique_heap_ptr@JU__crt_internal_free_policy@@@@QAE@XZ 1008da20 f i libucrtd:initctype.obj
 0001:0008ca40       ?detach@?$__crt_unique_heap_ptr@GU__crt_internal_free_policy@@@@QAEPAGXZ 1008da40 f i libucrtd:initctype.obj
 0001:0008ca70       ?detach@?$__crt_unique_heap_ptr@JU__crt_internal_free_policy@@@@QAEPAJXZ 1008da70 f i libucrtd:initctype.obj
 0001:0008caa0       ?release@?$__crt_unique_heap_ptr@GU__crt_internal_free_policy@@@@QAEXXZ 1008daa0 f i libucrtd:initctype.obj
 0001:0008cad0       ?release@?$__crt_unique_heap_ptr@JU__crt_internal_free_policy@@@@QAEXXZ 1008dad0 f i libucrtd:initctype.obj
 0001:0008cb00       ____lc_codepage_func       1008db00 f   libucrtd:initctype.obj
 0001:0008cb40       ____lc_collate_cp_func     1008db40 f   libucrtd:initctype.obj
 0001:0008cb80       ____lc_locale_name_func    1008db80 f   libucrtd:initctype.obj
 0001:0008cbc0       ____mb_cur_max_func        1008dbc0 f   libucrtd:initctype.obj
 0001:0008cc00       ____mb_cur_max_l_func      1008dc00 f   libucrtd:initctype.obj
 0001:0008cc30       ___acrt_locale_initialize_ctype 1008dc30 f   libucrtd:initctype.obj
 0001:0008d3b0       ?__c32rtomb_utf8@__crt_mbstring@@YAIPAD_UPAU_Mbstatet@@@Z 1008e3b0 f   libucrtd:c32rtomb.obj
 0001:0008d590       ?reset_and_return@__crt_mbstring@@YAIIPAU_Mbstatet@@@Z 1008e590 f i libucrtd:c32rtomb.obj
 0001:0008d5c0       ?return_illegal_sequence@__crt_mbstring@@YAIPAU_Mbstatet@@@Z 1008e5c0 f i libucrtd:c32rtomb.obj
 0001:0008d5f0       _c32rtomb                  1008e5f0 f   libucrtd:c32rtomb.obj
 0001:0008d610       ___acrt_add_locale_ref     1008e610 f   libucrtd:locale_refcounting.obj
 0001:0008d720       ___acrt_free_locale        1008e720 f   libucrtd:locale_refcounting.obj
 0001:0008d9f0       ___acrt_locale_add_lc_time_reference 1008e9f0 f   libucrtd:locale_refcounting.obj
 0001:0008da30       ___acrt_locale_free_lc_time_if_unreferenced 1008ea30 f   libucrtd:locale_refcounting.obj
 0001:0008da80       ___acrt_locale_release_lc_time_reference 1008ea80 f   libucrtd:locale_refcounting.obj
 0001:0008dab0       ___acrt_release_locale_ref 1008eab0 f   libucrtd:locale_refcounting.obj
 0001:0008dbc0       ___acrt_update_thread_locale_data 1008ebc0 f   libucrtd:locale_refcounting.obj
 0001:0008dc90       __updatetlocinfoEx_nolock  1008ec90 f   libucrtd:locale_refcounting.obj
 0001:0008dd10       ___acrt_fp_strflt_to_string 1008ed10 f   libucrtd:_fptostr.obj
 0001:0008e650       ??0big_integer@__crt_strtox@@QAE@ABU01@@Z 1008f650 f i libucrtd:cfout.obj
 0001:0008e690       ??0big_integer@__crt_strtox@@QAE@XZ 1008f690 f i libucrtd:cfout.obj
 0001:0008e750       ??4big_integer@__crt_strtox@@QAEAAU01@ABU01@@Z 1008f750 f i libucrtd:cfout.obj
 0001:0008e790       ??8__crt_strtox@@YA_NABUbig_integer@0@0@Z 1008f790 f i libucrtd:cfout.obj
 0001:0008e7f0       ??9__crt_strtox@@YA_NABUbig_integer@0@0@Z 1008f7f0 f i libucrtd:cfout.obj
 0001:0008e830       ?add_carry@__crt_strtox@@YAIAAIII@Z 1008f830 f i libucrtd:cfout.obj
 0001:0008e870       ?add_multiply_carry@__crt_strtox@@YAIAAIIII@Z 1008f870 f i libucrtd:cfout.obj
 0001:0008e8b0       ?bit_scan_reverse@__crt_strtox@@YAII@Z 1008f8b0 f i libucrtd:cfout.obj
 0001:0008e8e0       ?count_sequential_high_zeroes@__crt_strtox@@YAII@Z 1008f8e0 f i libucrtd:cfout.obj
 0001:0008e920       ?divide@__crt_strtox@@YA_KAAUbig_integer@1@ABU21@@Z 1008f920 f i libucrtd:cfout.obj
 0001:0008f3a0       ?is_zero@__crt_strtox@@YA_NABUbig_integer@1@@Z 100903a0 f i libucrtd:cfout.obj
 0001:0008f3d0       ?make_big_integer@__crt_strtox@@YA?AUbig_integer@1@_K@Z 100903d0 f i libucrtd:cfout.obj
 0001:0008f480       ?make_big_integer_power_of_two@__crt_strtox@@YA?AUbig_integer@1@I@Z 10090480 f i libucrtd:cfout.obj
 0001:0008f530       ?multiply@__crt_strtox@@YA_NAAUbig_integer@1@ABU21@@Z 10090530 f i libucrtd:cfout.obj
 0001:0008f8b0       ?multiply@__crt_strtox@@YA_NAAUbig_integer@1@I@Z 100908b0 f i libucrtd:cfout.obj
 0001:0008f980       ?multiply_64_32@__crt_strtox@@YA_K_KI@Z 10090980 f i libucrtd:cfout.obj
 0001:0008f9a0       ?multiply_by_power_of_ten@__crt_strtox@@YA_NAAUbig_integer@1@I@Z 100909a0 f i libucrtd:cfout.obj
 0001:0008fb40       ?multiply_core@__crt_strtox@@YAIQAIII@Z 10090b40 f i libucrtd:cfout.obj
 0001:0008fbb0       ?shift_left@__crt_strtox@@YA_NAAUbig_integer@1@I@Z 10090bb0 f i libucrtd:cfout.obj
 0001:0008ff00       ___acrt_fltout             10090f00 f   libucrtd:cfout.obj
 0001:000902b0       __fcloseall                100912b0 f   libucrtd:closeall.obj
 0001:000903e0       __isatty                   100913e0 f   libucrtd:isatty.obj
 0001:000904b0       ??$?RUlconv@@@__crt_internal_free_policy@@QBEXQBUlconv@@@Z 100914b0 f i libucrtd:initmon.obj
 0001:000904d0       ??0?$__crt_unique_heap_ptr@Ulconv@@U__crt_internal_free_policy@@@@QAE@QAUlconv@@@Z 100914d0 f i libucrtd:initmon.obj
 0001:000904f0       ??1?$__crt_unique_heap_ptr@Ulconv@@U__crt_internal_free_policy@@@@QAE@XZ 100914f0 f i libucrtd:initmon.obj
