 OPOSGestureControl

 Timestamp is 600f7b69 (Tue Jan 26 11:16:09 2021)

 Preferred load address is 10000000

 Start         Length     Name                   Class
 0001:00000000 00000d90H .text$di                CODE
 0001:00000d90 000a9c50H .text$mn                CODE
 0001:000aa9e0 000001c0H .text$x                 CODE
 0001:000aaba0 00000120H .text$yd                CODE
 0002:00000000 00000358H .idata$5                DATA
 0002:00000358 00000008H .00cfg                  DATA
 0002:00000360 00000004H .CRT$XCA                DATA
 0002:00000364 00000004H .CRT$XCL                DATA
 0002:00000368 0000006cH .CRT$XCU                DATA
 0002:000003d4 00000004H .CRT$XCZ                DATA
 0002:000003d8 00000004H .CRT$XIA                DATA
 0002:000003dc 00000014H .CRT$XIC                DATA
 0002:000003f0 00000004H .CRT$XIZ                DATA
 0002:000003f4 00000004H .CRT$XLA                DATA
 0002:000003f8 00000004H .CRT$XLZ                DATA
 0002:000003fc 00000004H .CRT$XPA                DATA
 0002:00000400 00000008H .CRT$XPX                DATA
 0002:00000408 00000004H .CRT$XPXA               DATA
 0002:0000040c 00000004H .CRT$XPZ                DATA
 0002:00000410 00000004H .CRT$XTA                DATA
 0002:00000414 0000000cH .CRT$XTZ                DATA
 0002:00000418 00000000H .gfids$y                DATA
 0002:00000420 0002ff20H .rdata                  DATA
 0002:00030340 00000004H .rdata$CastGuardVftablesA DATA
 0002:00030344 00000004H .rdata$CastGuardVftablesC DATA
 0002:00030348 00000018H .rdata$T                DATA
 0002:00030360 0000033cH .rdata$r                DATA
 0002:0003069c 00000044H .rdata$sxdata           DATA
 0002:000306e0 00000450H .rdata$zzzdbg           DATA
 0002:00030b30 00000004H .rtc$IAA                DATA
 0002:00030b34 00000018H .rtc$IMZ                DATA
 0002:00030b4c 00000004H .rtc$IZZ                DATA
 0002:00030b50 00000004H .rtc$TAA                DATA
 0002:00030b54 00000018H .rtc$TMZ                DATA
 0002:00030b6c 00000004H .rtc$TZZ                DATA
 0002:00030b70 00000004H .tls                    DATA
 0002:00030b74 00000004H .tls$                   DATA
 0002:00030b78 00000008H .tls$ZZZ                DATA
 0002:00030b80 00000e4cH .xdata$x                DATA
 0002:000319cc 00000004H ATL$__a                 DATA
 0002:000319d0 00000010H ATL$__z                 DATA
 0002:000319e0 000000b0H .edata                  DATA
 0002:00031a90 00000078H .idata$2                DATA
 0002:00031b08 00000014H .idata$3                DATA
 0002:00031b1c 00000358H .idata$4                DATA
 0002:00031e74 00000d56H .idata$6                DATA
 0003:00000000 00000ba0H .data                   DATA
 0003:00000ba0 00000138H .data$r                 DATA
 0003:00000cd8 00003588H .bss                    DATA
 0004:00000000 00000220H .rsrc$01                DATA
 0004:00000220 000040b0H .rsrc$02                DATA

  Address         Publics by Value              Rva+Base       Lib:Object

 0000:00000000       ___hybrid_code_map_count   00000000     <absolute>
 0000:00000000       ___hybrid_code_map         00000000     <absolute>
 0000:00000000       ___guard_eh_cont_table     00000000     <absolute>
 0000:00000000       ___guard_iat_table         00000000     <absolute>
 0000:00000000       ___arm64x_native_entrypoint 00000000     <absolute>
 0000:00000000       ___guard_fids_count        00000000     <absolute>
 0000:00000000       ___guard_fids_table        00000000     <absolute>
 0000:00000000       ___enclave_config          00000000     <absolute>
 0000:00000000       ___arm64x_redirection_metadata_count 00000000     <absolute>
 0000:00000000       ___guard_iat_count         00000000     <absolute>
 0000:00000000       ___guard_longjmp_count     00000000     <absolute>
 0000:00000000       ___x64_code_ranges_to_entry_points 00000000     <absolute>
 0000:00000000       ___dynamic_value_reloc_table 00000000     <absolute>
 0000:00000000       ___x64_code_ranges_to_entry_points_count 00000000     <absolute>
 0000:00000000       ___AbsoluteZero            00000000     <absolute>
 0000:00000000       ___arm64x_redirection_metadata 00000000     <absolute>
 0000:00000000       ___guard_longjmp_table     00000000     <absolute>
 0000:00000000       ___guard_eh_cont_count     00000000     <absolute>
 0000:00000000       __except_list              00000000     <absolute>
 0000:00000000       ___volatile_metadata       00000000     <absolute>
 0000:00000000       ___arm64x_extra_rfe_table_size 00000000     <absolute>
 0000:00000000       ___hybrid_auxiliary_iat    00000000     <absolute>
 0000:00000000       ___arm64x_extra_rfe_table  00000000     <absolute>
 0000:00000011       ___safe_se_handler_count   00000011     <absolute>
 0000:0000002c       __tls_array                0000002c     <absolute>
 0000:00000100       ___guard_flags             00000100     <absolute>
 0000:00000000       ___ImageBase               10000000     <linker-defined>
 0001:00000d90       ?_assert@@YAXPB_W0I@Z      10001d90 f   Assert.obj
 0001:00000ec0       ___local_stdio_printf_options 10001ec0 f i Assert.obj
 0001:00000ed0       ___vswprintf_l             10001ed0 f i Assert.obj
 0001:00000f00       __swprintf                 10001f00 f i Assert.obj
 0001:00000f60       __vswprintf_c_l            10001f60 f i Assert.obj
 0001:00000fd0       __vswprintf_l              10001fd0 f i Assert.obj
 0001:00001000       ?cw_memcpy@@YGHPADPB_WH@Z  10002000 f   CWString.obj
 0001:00001060       ?cw_memcpy@@YGHPA_WPBDH@Z  10002060 f   CWString.obj
 0001:000010c0       ?cw_memcpy@@YGHPADPBDH@Z   100020c0 f   CWString.obj
 0001:00001110       ?cw_memcpy@@YGHPA_WPB_WH@Z 10002110 f   CWString.obj
 0001:00001150       ?cw_memset@@YAXPADDH@Z     10002150 f   CWString.obj
 0001:00001170       ?cw_memset@@YAXPA_W_WH@Z   10002170 f   CWString.obj
 0001:00001190       ?cw_strlen@@YAHPBD@Z       10002190 f   CWString.obj
 0001:000011e0       ?cw_strlen@@YAHPB_W@Z      100021e0 f   CWString.obj
 0001:00001230       ?cw_strcpy@@YAHPADPB_W@Z   10002230 f   CWString.obj
 0001:00001250       ?cw_strcpy@@YAHPA_WPBD@Z   10002250 f   CWString.obj
 0001:00001270       ?cw_strcpy@@YAHPADPBD@Z    10002270 f   CWString.obj
 0001:00001290       ?cw_strcpy@@YAHPA_WPB_W@Z  10002290 f   CWString.obj
 0001:000012b0       ?cw_strcat@@YAHPADPB_W@Z   100022b0 f   CWString.obj
 0001:000012e0       ?cw_strcat@@YAHPA_WPBD@Z   100022e0 f   CWString.obj
 0001:00001310       ?cw_strcat@@YAHPADPBD@Z    10002310 f   CWString.obj
 0001:00001340       ?cw_strcat@@YAHPA_WPB_W@Z  10002340 f   CWString.obj
 0001:00001370       ?cw_dup@@YGXPBDAAHAAPA_W1@Z 10002370 f   CWString.obj
 0001:00001430       ?cw_dup@@YGXPB_WAAHAAPAD1@Z 10002430 f   CWString.obj
 0001:000014e0       ?DupChar@_CW@@AAEXXZ       100024e0 f   CWString.obj
 0001:00001530       ?DupWide@_CW@@AAEXXZ       10002530 f   CWString.obj
 0001:00001580       ?GetCharsMbcs@_CW@@QAEHXZ  10002580 f   CWString.obj
 0001:000015e0       ?GetCharsWide@_CW@@QAEHXZ  100025e0 f   CWString.obj
 0001:00001640       ?SetVARIANT_BOOL@OposVariant@@QAEXF@Z 10002640 f   OposVariant.obj
 0001:000016a0       ?SetVARIANT_BOOL_Ptr@OposVariant@@QAEXPAFAAJ@Z 100026a0 f   OposVariant.obj
 0001:000016f0       ?GetLONG@OposVariant@@QAEJXZ 100026f0 f   OposVariant.obj
 0001:00001780       ?ChangeLONG@OposVariant@@QAEXPAJAAJ@Z 10002780 f   OposVariant.obj
 0001:00001840       ?SetLONG@OposVariant@@QAEXJ@Z 10002840 f   OposVariant.obj
 0001:00001880       ?SetLONG_Ptr@OposVariant@@QAEXPAJAAJ@Z 10002880 f   OposVariant.obj
 0001:000018d0       ?ChangeCURRENCY@OposVariant@@QAEXPATtagCY@@AAJ@Z 100028d0 f   OposVariant.obj
 0001:00001990       ?SetCURRENCY@OposVariant@@QAEXTtagCY@@@Z 10002990 f   OposVariant.obj
 0001:000019d0       ?SetCURRENCY_Ptr@OposVariant@@QAEXPATtagCY@@AAJ@Z 100029d0 f   OposVariant.obj
 0001:00001a20       ?ChangeBSTR@OposVariant@@QAEXPAPA_WAAJ@Z 10002a20 f   OposVariant.obj
 0001:00001ae0       ?SetBSTR@OposVariant@@QAEXPA_WAAJ@Z 10002ae0 f   OposVariant.obj
 0001:00001b30       ?SetBSTR_Copy@OposVariant@@QAEXPA_WAAJ@Z 10002b30 f   OposVariant.obj
 0001:00001bd0       ?SetBSTR_OutPtr@OposVariant@@QAE_NPAPA_WAAJ@Z 10002bd0 f   OposVariant.obj
 0001:00001c20       ?SetBSTR_InOutPtr@OposVariant@@QAE_NPAPA_WAAJ@Z 10002c20 f   OposVariant.obj
 0001:00001c70       ?SetVARIANT@OposVariant@@QAEXAAUtagVARIANT@@GAAJ@Z 10002c70 f   OposVariant.obj
 0001:00001cf0       ?SetVARIANT_Ptr@OposVariant@@QAEXAAPAUtagVARIANT@@GAAJ@Z 10002cf0 f   OposVariant.obj
 0001:00001d90       ?SetString@OposVariant@@QAEXPB_WAAJ@Z 10002d90 f   OposVariant.obj
 0001:00001e20       ?SetDispatch_Ptr@OposVariant@@QAEXPAUIDispatch@@AAJ@Z 10002e20 f   OposVariant.obj
 0001:00001e90       ??0OposDispParms@@QAE@PAVOposVariant@@H@Z 10002e90 f   OposVariant.obj
 0001:00001f60       ??1OposDispParms@@QAE@XZ   10002f60 f   OposVariant.obj
 0001:00001fb0       ??$AtlMultiply@I@ATL@@YAJPAIII@Z 10002fb0 f i OposVariant.obj
 0001:00002010       ??0?$CHeapPtr@_WVCCRTAllocator@ATL@@@ATL@@QAE@XZ 10003010 f i OposVariant.obj
 0001:00002040       ??0?$CHeapPtrBase@_WVCCRTAllocator@ATL@@@ATL@@IAE@XZ 10003040 f i OposVariant.obj
 0001:00002060       ??0?$CSimpleArray@GV?$CSimpleArrayEqualHelper@G@ATL@@@ATL@@QAE@XZ 10003060 f i OposVariant.obj
 0001:000020a0       ??0?$CTraceCategoryEx@$00$0A@@ATL@@QAE@PB_W@Z 100030a0 f i OposVariant.obj
 0001:000020d0       ??0?$CTraceCategoryEx@$01$0A@@ATL@@QAE@PB_W@Z 100030d0 f i OposVariant.obj
 0001:00002100       ??0?$CTraceCategoryEx@$03$0A@@ATL@@QAE@PB_W@Z 10003100 f i OposVariant.obj
 0001:00002130       ??0?$CTraceCategoryEx@$07$0A@@ATL@@QAE@PB_W@Z 10003130 f i OposVariant.obj
 0001:00002160       ??0?$CTraceCategoryEx@$0BA@$0A@@ATL@@QAE@PB_W@Z 10003160 f i OposVariant.obj
 0001:00002190       ??0?$CTraceCategoryEx@$0BAA@$0A@@ATL@@QAE@PB_W@Z 10003190 f i OposVariant.obj
 0001:000021d0       ??0?$CTraceCategoryEx@$0BAAA@$0A@@ATL@@QAE@PB_W@Z 100031d0 f i OposVariant.obj
 0001:00002210       ??0?$CTraceCategoryEx@$0BAAAA@$0A@@ATL@@QAE@PB_W@Z 10003210 f i OposVariant.obj
 0001:00002250       ??0?$CTraceCategoryEx@$0BAAAAA@$0A@@ATL@@QAE@PB_W@Z 10003250 f i OposVariant.obj
 0001:00002290       ??0?$CTraceCategoryEx@$0CA@$0A@@ATL@@QAE@PB_W@Z 10003290 f i OposVariant.obj
 0001:000022c0       ??0?$CTraceCategoryEx@$0CAA@$0A@@ATL@@QAE@PB_W@Z 100032c0 f i OposVariant.obj
 0001:00002300       ??0?$CTraceCategoryEx@$0CAAA@$0A@@ATL@@QAE@PB_W@Z 10003300 f i OposVariant.obj
 0001:00002340       ??0?$CTraceCategoryEx@$0CAAAA@$0A@@ATL@@QAE@PB_W@Z 10003340 f i OposVariant.obj
 0001:00002380       ??0?$CTraceCategoryEx@$0CAAAAA@$0A@@ATL@@QAE@PB_W@Z 10003380 f i OposVariant.obj
 0001:000023c0       ??0?$CTraceCategoryEx@$0EA@$0A@@ATL@@QAE@PB_W@Z 100033c0 f i OposVariant.obj
 0001:000023f0       ??0?$CTraceCategoryEx@$0EAA@$0A@@ATL@@QAE@PB_W@Z 100033f0 f i OposVariant.obj
 0001:00002430       ??0?$CTraceCategoryEx@$0EAAA@$0A@@ATL@@QAE@PB_W@Z 10003430 f i OposVariant.obj
 0001:00002470       ??0?$CTraceCategoryEx@$0EAAAA@$0A@@ATL@@QAE@PB_W@Z 10003470 f i OposVariant.obj
 0001:000024b0       ??0?$CTraceCategoryEx@$0EAAAAA@$0A@@ATL@@QAE@PB_W@Z 100034b0 f i OposVariant.obj
 0001:000024f0       ??0?$CTraceCategoryEx@$0IA@$0A@@ATL@@QAE@PB_W@Z 100034f0 f i OposVariant.obj
 0001:00002530       ??0?$CTraceCategoryEx@$0IAA@$0A@@ATL@@QAE@PB_W@Z 10003530 f i OposVariant.obj
 0001:00002570       ??0?$CTraceCategoryEx@$0IAAA@$0A@@ATL@@QAE@PB_W@Z 10003570 f i OposVariant.obj
 0001:000025b0       ??0?$CTraceCategoryEx@$0IAAAA@$0A@@ATL@@QAE@PB_W@Z 100035b0 f i OposVariant.obj
 0001:000025f0       ??0CAtlComModule@ATL@@QAE@XZ 100035f0 f i OposVariant.obj
 0001:000026d0       ??0CAtlWinModule@ATL@@QAE@XZ 100036d0 f i OposVariant.obj
 0001:00002760       ??0CComCriticalSection@ATL@@QAE@XZ 10003760 f i OposVariant.obj
 0001:00002790       ??0CPreserveLastError@ATL@@QAE@XZ 10003790 f i OposVariant.obj
 0001:000027d0       ??0CTraceFileAndLineInfo@ATL@@QAE@PBDH@Z 100037d0 f i OposVariant.obj
 0001:00002800       ??0_ATL_COM_MODULE70@ATL@@QAE@XZ 10003800 f i OposVariant.obj
 0001:00002830       ??0_ATL_WIN_MODULE70@ATL@@QAE@XZ 10003830 f i OposVariant.obj
 0001:00002870       ??1?$CHeapPtr@_WVCCRTAllocator@ATL@@@ATL@@QAE@XZ 10003870 f i OposVariant.obj
 0001:000028a0       ??1?$CHeapPtrBase@_WVCCRTAllocator@ATL@@@ATL@@QAE@XZ 100038a0 f i OposVariant.obj
 0001:000028d0       ??1?$CSimpleArray@GV?$CSimpleArrayEqualHelper@G@ATL@@@ATL@@QAE@XZ 100038d0 f i OposVariant.obj
 0001:00002900       ??1CAtlComModule@ATL@@QAE@XZ 10003900 f i OposVariant.obj
 0001:00002930       ??1CAtlWinModule@ATL@@QAE@XZ 10003930 f i OposVariant.obj
 0001:00002960       ??1CComBSTR@ATL@@QAE@XZ    10003960 f i OposVariant.obj
 0001:000029a0       ??1CComCriticalSection@ATL@@QAE@XZ 100039a0 f i OposVariant.obj
 0001:000029c0       ??1CPreserveLastError@ATL@@QAE@XZ 100039c0 f i OposVariant.obj
 0001:00002a00       ??1_ATL_COM_MODULE70@ATL@@QAE@XZ 10003a00 f i OposVariant.obj
 0001:00002a30       ??1_ATL_WIN_MODULE70@ATL@@QAE@XZ 10003a30 f i OposVariant.obj
 0001:00002a70       ??1stringdispid@CComTypeInfoHolder@ATL@@QAE@XZ 10003a70 f i OposVariant.obj
 0001:00002aa0       ??A?$CSimpleArray@GV?$CSimpleArrayEqualHelper@G@ATL@@@ATL@@QAEAAGH@Z 10003aa0 f i OposVariant.obj
 0001:00002b20       ??B?$CHeapPtrBase@_WVCCRTAllocator@ATL@@@ATL@@QBEPA_WXZ 10003b20 f i OposVariant.obj
 0001:00002b40       ??B?$CTraceCategoryEx@$01$0A@@ATL@@QAEIXZ 10003b40 f i OposVariant.obj
 0001:00002b60       ??B?$CTraceCategoryEx@$0CA@$0A@@ATL@@QAEIXZ 10003b60 f i OposVariant.obj
 0001:00002b80       ??RCTraceFileAndLineInfo@ATL@@QBAXHIPB_WZZ 10003b80 f i OposVariant.obj
 0001:00002c20       ??_Estringdispid@CComTypeInfoHolder@ATL@@QAEPAXI@Z 10003c20 f i OposVariant.obj
 0001:00002cb0       ??_H@YGXPAXIIP6EPAX0@Z@Z   10003cb0 f i OposVariant.obj
 0001:00002d20       ??_I@YGXPAXIIP6EX0@Z@Z     10003d20 f i OposVariant.obj
 0001:00002da0       ?Allocate@?$CHeapPtr@_WVCCRTAllocator@ATL@@@ATL@@QAE_NI@Z 10003da0 f i OposVariant.obj
 0001:00002e30       ?Allocate@CCRTAllocator@ATL@@SAPAXI@Z 10003e30 f i OposVariant.obj
 0001:00002e50       ?AllocateBytes@?$CHeapPtrBase@_WVCCRTAllocator@ATL@@@ATL@@QAE_NI@Z 10003e50 f i OposVariant.obj
 0001:00002ec0       ?AtlWinModuleInit@ATL@@YGJPAU_ATL_WIN_MODULE70@1@@Z 10003ec0 f i OposVariant.obj
 0001:00002f90       ?AtlWinModuleTerm@ATL@@YGJPAU_ATL_WIN_MODULE70@1@PAUHINSTANCE__@@@Z 10003f90 f i OposVariant.obj
 0001:00003050       ?Clear@OposVariant@@QAEJXZ 10004050 f i OposVariant.obj
 0001:00003090       ?Free@?$CHeapPtrBase@_WVCCRTAllocator@ATL@@@ATL@@QAEXXZ 10004090 f i OposVariant.obj
 0001:000030d0       ?Free@CCRTAllocator@ATL@@SAXPAX@Z 100040d0 f i OposVariant.obj
 0001:000030f0       ?GetCategoryName@CTrace@ATL@@CAPA_WI@Z 100040f0 f i OposVariant.obj
 0001:00003140       ?GetModuleInstance@CAtlBaseModule@ATL@@QAEPAUHINSTANCE__@@XZ 10004140 f i OposVariant.obj
 0001:00003160       ?GetSize@?$CSimpleArray@GV?$CSimpleArrayEqualHelper@G@ATL@@@ATL@@QBEHXZ 10004160 f i OposVariant.obj
 0001:00003180       ?Init@CComCriticalSection@ATL@@QAEJXZ 10004180 f i OposVariant.obj
 0001:000031e0       ?RegisterCategory@CTrace@ATL@@SAXPB_WI@Z 100041e0 f i OposVariant.obj
 0001:00003270       ?RemoveAll@?$CSimpleArray@GV?$CSimpleArrayEqualHelper@G@ATL@@@ATL@@QAEXXZ 10004270 f i OposVariant.obj
 0001:000032f0       ?Term@CAtlComModule@ATL@@QAEXXZ 100042f0 f i OposVariant.obj
 0001:000033b0       ?Term@CAtlWinModule@ATL@@QAEXXZ 100043b0 f i OposVariant.obj
 0001:000033e0       ?Term@CComCriticalSection@ATL@@QAEJXZ 100043e0 f i OposVariant.obj
 0001:00003420       ?TraceV@CTrace@ATL@@CAXPBDHIIPB_W@Z 10004420 f i OposVariant.obj
 0001:000036a0       ?TraceV@CTrace@ATL@@SAXPBDHIIPB_WPAD@Z 100046a0 f i OposVariant.obj
 0001:000037e0       ?_AtlInitializeCriticalSectionEx@ATL@@YAHPAU_RTL_CRITICAL_SECTION@@KK@Z 100047e0 f i OposVariant.obj
 0001:00003810       ?_AtlRaiseException@ATL@@YAXKK@Z 10004810 f i OposVariant.obj
 0001:00003840       _HRESULT_FROM_WIN32        10004840 f i OposVariant.obj
 0001:00003880       __vswprintf_s_l            10004880 f i OposVariant.obj
 0001:000038f0       _swprintf_s                100048f0 f i OposVariant.obj
 0001:00003950       ?ObjectMain@CComObjectRootBase@ATL@@SGX_N@Z 10004950 f i GestureControl.obj
 0001:00003960       ?GetCategoryMap@CComObjectRootBase@ATL@@SAPBU_ATL_CATMAP_ENTRY@2@XZ 10004960 f i GestureControl.obj
 0001:00003970       ?GetObjectDescription@?$CComCoClass@VCOPOSGestureControl@@$1?CLSID_OPOSGestureControl@@3U_GUID@@B@ATL@@SGPB_WXZ 10004970 f i GestureControl.obj
 0001:00003980       ?UpdateRegistry@COPOSGestureControl@@SGJH@Z 10004980 f i GestureControl.obj
 0001:000039a0       ?CreateInstance@?$CComCreator@V?$CComObjectCached@VCComClassFactory@ATL@@@ATL@@@ATL@@SGJPAXABU_GUID@@PAPAX@Z 100049a0 f i GestureControl.obj
 0001:00003b20       ?CreateInstance@?$CComCreator2@V?$CComCreator@V?$CComObject@VCOPOSGestureControl@@@ATL@@@ATL@@V?$CComCreator@V?$CComAggObject@VCOPOSGestureControl@@@ATL@@@2@@ATL@@SGJPAXABU_GUID@@PAPAX@Z 10004b20 f i GestureControl.obj
 0001:00003cd0       _DllGetClassObject@12      10004cd0 f   GestureControl.obj
 0001:00003d00       _DllCanUnloadNow@0         10004d00 f   GestureControl.obj
 0001:00003d40       _DllRegisterServer@0       10004d40 f   GestureControl.obj
 0001:00003d60       _DllUnregisterServer@0     10004d60 f   GestureControl.obj
 0001:00003ef0       _DllMain@12                10004ef0 f   GestureControl.obj
 0001:00003f50       ??$?2G@Wrapper@?$CSimpleArray@GV?$CSimpleArrayEqualHelper@G@ATL@@@ATL@@SAPAXIPAG@Z 10004f50 f i GestureControl.obj
 0001:00003f60       ??$?2PA_W@?$Wrapper@PA_W@?$CSimpleMap@PA_WPA_WVCExpansionVectorEqualHelper@ATL@@@ATL@@SAPAXIPAPA_W@Z 10004f60 f i GestureControl.obj
 0001:00003f70       ??$?4UITypeInfo2@@@?$CComPtr@UITypeInfo@@@ATL@@QAEPAUITypeInfo@@ABV?$CComPtr@UITypeInfo2@@@1@@Z 10004f70 f i GestureControl.obj
 0001:00003fd0       ??$AtlAdd@K@ATL@@YAJPAKKK@Z 10004fd0 f i GestureControl.obj
 0001:00004010       ??$AtlAdd@_K@ATL@@YAJPA_K_K1@Z 10005010 f i GestureControl.obj
 0001:00004080       ??$AtlAddThrow@K@ATL@@YAKKK@Z 10005080 f i GestureControl.obj
 0001:00004100       ??$AtlModuleRegisterWndClassInfoT@VAtlModuleRegisterWndClassInfoParamW@ATL@@@ATL@@YAGPAU_ATL_BASE_MODULE70@0@PAU_ATL_WIN_MODULE70@0@PAU_ATL_WNDCLASSINFOW@0@PAP6GJPAUHWND__@@IIJ@ZVAtlModuleRegisterWndClassInfoParamW@0@@Z 10005100 f i GestureControl.obj
 0001:00004510       ??$AtlMultiply@H@ATL@@YAJPAHHH@Z 10005510 f i GestureControl.obj
 0001:00004590       ??$AtlMultiply@K@ATL@@YAJPAKKK@Z 10005590 f i GestureControl.obj
 0001:000045f0       ??$AtlMultiplyThrow@I@ATL@@YAIII@Z 100055f0 f i GestureControl.obj
 0001:00004670       ??$QueryInterface@UIPersistStream@@@IUnknown@@QAGJPAPAUIPersistStream@@@Z 10005670 f i GestureControl.obj
 0001:000046a0       ??$QueryInterface@UITypeInfo2@@@IUnknown@@QAGJPAPAUITypeInfo2@@@Z 100056a0 f i GestureControl.obj
 0001:000046d0       ??0?$CAtlModuleT@VCComModule@ATL@@@ATL@@QAE@XZ 100056d0 f i GestureControl.obj
 0001:00004700       ??0?$CAtlSafeAllocBufferManager@VCCRTAllocator@ATL@@@_ATL_SAFE_ALLOCA_IMPL@ATL@@QAE@XZ 10005700 f i GestureControl.obj
 0001:00004720       ??0?$CAutoVectorPtr@_W@ATL@@QAE@XZ 10005720 f i GestureControl.obj
 0001:00004740       ??0?$CComAggObject@VCOPOSGestureControl@@@ATL@@QAE@PAX@Z 10005740 f i GestureControl.obj
 0001:000047b0       ??0?$CComContainedObject@VCOPOSGestureControl@@@ATL@@QAE@PAX@Z 100057b0 f i GestureControl.obj
 0001:000048c0       ??0?$CComCritSecLock@VCComCriticalSection@ATL@@@ATL@@QAE@AAVCComCriticalSection@1@_N@Z 100058c0 f i GestureControl.obj
 0001:00004920       ??0?$CComEnum@UIEnumConnectionPoints@@$1?_GUID_b196b285_bab4_101a_b69c_00aa00341d07@@3U__s_GUID@@BPAUIConnectionPoint@@V?$_CopyInterface@UIConnectionPoint@@@ATL@@VCComSingleThreadModel@6@@ATL@@QAE@XZ 10005920 f i GestureControl.obj
 0001:00004960       ??0?$CComEnum@UIEnumConnections@@$1?_GUID_b196b287_bab4_101a_b69c_00aa00341d07@@3U__s_GUID@@BUtagCONNECTDATA@@V?$_Copy@UtagCONNECTDATA@@@ATL@@VCComSingleThreadModel@6@@ATL@@QAE@XZ 10005960 f i GestureControl.obj
 0001:000049a0       ??0?$CComEnumImpl@UIEnumConnectionPoints@@$1?_GUID_b196b285_bab4_101a_b69c_00aa00341d07@@3U__s_GUID@@BPAUIConnectionPoint@@V?$_CopyInterface@UIConnectionPoint@@@ATL@@@ATL@@QAE@XZ 100059a0 f i GestureControl.obj
 0001:00004a00       ??0?$CComEnumImpl@UIEnumConnections@@$1?_GUID_b196b287_bab4_101a_b69c_00aa00341d07@@3U__s_GUID@@BUtagCONNECTDATA@@V?$_Copy@UtagCONNECTDATA@@@ATL@@@ATL@@QAE@XZ 10005a00 f i GestureControl.obj
 0001:00004a60       ??0?$CComObject@V?$CComEnum@UIEnumConnectionPoints@@$1?_GUID_b196b285_bab4_101a_b69c_00aa00341d07@@3U__s_GUID@@BPAUIConnectionPoint@@V?$_CopyInterface@UIConnectionPoint@@@ATL@@VCComSingleThreadModel@6@@ATL@@@ATL@@QAE@PAX@Z 10005a60 f i GestureControl.obj
 0001:00004ab0       ??0?$CComObject@V?$CComEnum@UIEnumConnections@@$1?_GUID_b196b287_bab4_101a_b69c_00aa00341d07@@3U__s_GUID@@BUtagCONNECTDATA@@V?$_Copy@UtagCONNECTDATA@@@ATL@@VCComSingleThreadModel@6@@ATL@@@ATL@@QAE@PAX@Z 10005ab0 f i GestureControl.obj
 0001:00004b00       ??0?$CComObject@VCOPOSGestureControl@@@ATL@@QAE@PAX@Z 10005b00 f i GestureControl.obj
 0001:00004c20       ??0?$CComObjectCached@VCComClassFactory@ATL@@@ATL@@QAE@PAX@Z 10005c20 f i GestureControl.obj
 0001:00004c60       ??0?$CComObjectRootEx@VCComMultiThreadModel@ATL@@@ATL@@QAE@XZ 10005c60 f i GestureControl.obj
 0001:00004ca0       ??0?$CComObjectRootEx@VCComSingleThreadModel@ATL@@@ATL@@QAE@XZ 10005ca0 f i GestureControl.obj
 0001:00004cd0       ??0?$CComPtr@UIAdviseSink@@@ATL@@QAE@PAUIAdviseSink@@@Z 10005cd0 f i GestureControl.obj
 0001:00004d00       ??0?$CComPtr@UICatRegister@@@ATL@@QAE@XZ 10005d00 f i GestureControl.obj
 0001:00004d30       ??0?$CComPtr@UIConnectionPoint@@@ATL@@QAE@XZ 10005d30 f i GestureControl.obj
 0001:00004d60       ??0?$CComPtr@UIConnectionPointContainer@@@ATL@@QAE@XZ 10005d60 f i GestureControl.obj
 0001:00004d90       ??0?$CComPtr@UIDataObject@@@ATL@@QAE@XZ 10005d90 f i GestureControl.obj
 0001:00004dc0       ??0?$CComPtr@UIDispatch@@@ATL@@QAE@XZ 10005dc0 f i GestureControl.obj
 0001:00004df0       ??0?$CComPtr@UIOleClientSite@@@ATL@@QAE@PAUIOleClientSite@@@Z 10005df0 f i GestureControl.obj
 0001:00004e20       ??0?$CComPtr@UIOleControlSite@@@ATL@@QAE@XZ 10005e20 f i GestureControl.obj
 0001:00004e50       ??0?$CComPtr@UIOleInPlaceActiveObject@@@ATL@@QAE@XZ 10005e50 f i GestureControl.obj
 0001:00004e80       ??0?$CComPtr@UIOleInPlaceFrame@@@ATL@@QAE@XZ 10005e80 f i GestureControl.obj
 0001:00004eb0       ??0?$CComPtr@UIOleInPlaceObject@@@ATL@@QAE@XZ 10005eb0 f i GestureControl.obj
 0001:00004ee0       ??0?$CComPtr@UIOleInPlaceUIWindow@@@ATL@@QAE@XZ 10005ee0 f i GestureControl.obj
 0001:00004f10       ??0?$CComPtr@UIOleObject@@@ATL@@QAE@XZ 10005f10 f i GestureControl.obj
 0001:00004f40       ??0?$CComPtr@UIPersistStream@@@ATL@@QAE@XZ 10005f40 f i GestureControl.obj
 0001:00004f70       ??0?$CComPtr@UIPersistStreamInit@@@ATL@@QAE@XZ 10005f70 f i GestureControl.obj
 0001:00004fa0       ??0?$CComPtr@UIPointerInactive@@@ATL@@QAE@XZ 10005fa0 f i GestureControl.obj
 0001:00004fd0       ??0?$CComPtr@UIProvideClassInfo2@@@ATL@@QAE@XZ 10005fd0 f i GestureControl.obj
 0001:00005000       ??0?$CComPtr@UISpecifyPropertyPages@@@ATL@@QAE@XZ 10006000 f i GestureControl.obj
 0001:00005030       ??0?$CComPtr@UIStream@@@ATL@@QAE@XZ 10006030 f i GestureControl.obj
 0001:00005060       ??0?$CComPtr@UITypeInfo2@@@ATL@@QAE@XZ 10006060 f i GestureControl.obj
 0001:00005090       ??0?$CComPtr@UITypeInfo@@@ATL@@QAE@ABV01@@Z 10006090 f i GestureControl.obj
 0001:000050c0       ??0?$CComPtr@UITypeInfo@@@ATL@@QAE@XZ 100060c0 f i GestureControl.obj
 0001:000050f0       ??0?$CComPtr@UITypeLib@@@ATL@@QAE@XZ 100060f0 f i GestureControl.obj
 0001:00005120       ??0?$CComPtr@UIUnknown@@@ATL@@QAE@ABV01@@Z 10006120 f i GestureControl.obj
 0001:00005150       ??0?$CComPtr@UIUnknown@@@ATL@@QAE@PAUIUnknown@@@Z 10006150 f i GestureControl.obj
 0001:00005180       ??0?$CComPtr@UIUnknown@@@ATL@@QAE@XZ 10006180 f i GestureControl.obj
 0001:000051b0       ??0?$CComPtr@UIViewObjectEx@@@ATL@@QAE@XZ 100061b0 f i GestureControl.obj
 0001:000051e0       ??0?$CComPtrBase@UIAdviseSink@@@ATL@@IAE@PAUIAdviseSink@@@Z 100061e0 f i GestureControl.obj
 0001:00005230       ??0?$CComPtrBase@UICatRegister@@@ATL@@IAE@XZ 10006230 f i GestureControl.obj
 0001:00005250       ??0?$CComPtrBase@UIConnectionPoint@@@ATL@@IAE@XZ 10006250 f i GestureControl.obj
 0001:00005270       ??0?$CComPtrBase@UIConnectionPointContainer@@@ATL@@IAE@XZ 10006270 f i GestureControl.obj
 0001:00005290       ??0?$CComPtrBase@UIDataObject@@@ATL@@IAE@XZ 10006290 f i GestureControl.obj
 0001:000052b0       ??0?$CComPtrBase@UIDispatch@@@ATL@@IAE@XZ 100062b0 f i GestureControl.obj
 0001:000052d0       ??0?$CComPtrBase@UIOleClientSite@@@ATL@@IAE@PAUIOleClientSite@@@Z 100062d0 f i GestureControl.obj
 0001:00005320       ??0?$CComPtrBase@UIOleControlSite@@@ATL@@IAE@XZ 10006320 f i GestureControl.obj
 0001:00005340       ??0?$CComPtrBase@UIOleInPlaceActiveObject@@@ATL@@IAE@XZ 10006340 f i GestureControl.obj
 0001:00005360       ??0?$CComPtrBase@UIOleInPlaceFrame@@@ATL@@IAE@XZ 10006360 f i GestureControl.obj
 0001:00005380       ??0?$CComPtrBase@UIOleInPlaceObject@@@ATL@@IAE@XZ 10006380 f i GestureControl.obj
 0001:000053a0       ??0?$CComPtrBase@UIOleInPlaceUIWindow@@@ATL@@IAE@XZ 100063a0 f i GestureControl.obj
 0001:000053c0       ??0?$CComPtrBase@UIOleObject@@@ATL@@IAE@XZ 100063c0 f i GestureControl.obj
 0001:000053e0       ??0?$CComPtrBase@UIPersistStream@@@ATL@@IAE@XZ 100063e0 f i GestureControl.obj
 0001:00005400       ??0?$CComPtrBase@UIPersistStreamInit@@@ATL@@IAE@XZ 10006400 f i GestureControl.obj
 0001:00005420       ??0?$CComPtrBase@UIPointerInactive@@@ATL@@IAE@XZ 10006420 f i GestureControl.obj
 0001:00005440       ??0?$CComPtrBase@UIProvideClassInfo2@@@ATL@@IAE@XZ 10006440 f i GestureControl.obj
 0001:00005460       ??0?$CComPtrBase@UISpecifyPropertyPages@@@ATL@@IAE@XZ 10006460 f i GestureControl.obj
 0001:00005480       ??0?$CComPtrBase@UIStream@@@ATL@@IAE@XZ 10006480 f i GestureControl.obj
 0001:000054a0       ??0?$CComPtrBase@UITypeInfo2@@@ATL@@IAE@XZ 100064a0 f i GestureControl.obj
 0001:000054c0       ??0?$CComPtrBase@UITypeInfo@@@ATL@@IAE@PAUITypeInfo@@@Z 100064c0 f i GestureControl.obj
 0001:00005510       ??0?$CComPtrBase@UITypeInfo@@@ATL@@IAE@XZ 10006510 f i GestureControl.obj
 0001:00005530       ??0?$CComPtrBase@UITypeLib@@@ATL@@IAE@XZ 10006530 f i GestureControl.obj
 0001:00005550       ??0?$CComPtrBase@UIUnknown@@@ATL@@IAE@PAUIUnknown@@@Z 10006550 f i GestureControl.obj
 0001:000055a0       ??0?$CComPtrBase@UIUnknown@@@ATL@@IAE@XZ 100065a0 f i GestureControl.obj
 0001:000055c0       ??0?$CComPtrBase@UIViewObjectEx@@@ATL@@IAE@XZ 100065c0 f i GestureControl.obj
 0001:000055e0       ??0?$CComQIPtr@UIOleControlSite@@$1?_GUID_b196b289_bab4_101a_b69c_00aa00341d07@@3U__s_GUID@@B@ATL@@QAE@PAUIUnknown@@@Z 100065e0 f i GestureControl.obj
 0001:00005640       ??0?$CComQIPtr@UIOleObject@@$1?_GUID_00000112_0000_0000_c000_000000000046@@3U__s_GUID@@B@ATL@@QAE@XZ 10006640 f i GestureControl.obj
 0001:00005670       ??0?$CComQIPtr@UISpecifyPropertyPages@@$1?_GUID_b196b28b_bab4_101a_b69c_00aa00341d07@@3U__s_GUID@@B@ATL@@QAE@XZ 10006670 f i GestureControl.obj
 0001:000056a0       ??0?$CSimpleMap@PA_WPA_WVCExpansionVectorEqualHelper@ATL@@@ATL@@QAE@XZ 100066a0 f i GestureControl.obj
 0001:000056e0       ??0?$CTempBuffer@E$0BAA@VCCRTAllocator@ATL@@@ATL@@QAE@XZ 100066e0 f i GestureControl.obj
 0001:00005700       ??0?$CTempBuffer@_W$0BAA@VCCRTAllocator@ATL@@@ATL@@QAE@XZ 10006700 f i GestureControl.obj
 0001:00005720       ??0?$CTempBuffer@_W$0EAA@VCCRTAllocator@ATL@@@ATL@@QAE@XZ 10006720 f i GestureControl.obj
 0001:00005740       ??0?$Wrapper@PA_W@?$CSimpleMap@PA_WPA_WVCExpansionVectorEqualHelper@ATL@@@ATL@@QAE@ABQA_W@Z 10006740 f i GestureControl.obj
 0001:00005770       ??0CAtlModule@ATL@@QAE@XZ  10006770 f i GestureControl.obj
 0001:00005890       ??0CComAutoDeleteCriticalSection@ATL@@QAE@XZ 10006890 f i GestureControl.obj
 0001:000058c0       ??0CComBSTR@ATL@@QAE@XZ    100068c0 f i GestureControl.obj
 0001:000058e0       ??0CComClassFactory@ATL@@QAE@XZ 100068e0 f i GestureControl.obj
 0001:00005920       ??0CComModule@ATL@@QAE@XZ  10006920 f i GestureControl.obj
 0001:00005990       ??0CComObjectRootBase@ATL@@QAE@XZ 10006990 f i GestureControl.obj
 0001:000059b0       ??0CComSafeDeleteCriticalSection@ATL@@QAE@XZ 100069b0 f i GestureControl.obj
 0001:000059e0       ??0CComVariant@ATL@@QAE@XZ 100069e0 f i GestureControl.obj
 0001:00005a30       ??0CExpansionVector@ATL@@QAE@XZ 10006a30 f i GestureControl.obj
 0001:00005a60       ??0CParseBuffer@CRegParser@ATL@@QAE@H@Z 10006a60 f i GestureControl.obj
 0001:00005ad0       ??0CRegKey@ATL@@QAE@PAUHKEY__@@@Z 10006ad0 f i GestureControl.obj
 0001:00005b10       ??0CRegKey@ATL@@QAE@PAVCAtlTransactionManager@1@@Z 10006b10 f i GestureControl.obj
 0001:00005b50       ??0CRegObject@ATL@@QAE@XZ  10006b50 f i GestureControl.obj
 0001:00005b90       ??0CRegParser@ATL@@QAE@PAVCRegObject@1@@Z 10006b90 f i GestureControl.obj
 0001:00005bc0       ??0IClassFactory@@QAE@XZ   10006bc0 f i GestureControl.obj
 0001:00005bf0       ??0IEnumConnectionPoints@@QAE@XZ 10006bf0 f i GestureControl.obj
 0001:00005c20       ??0IEnumConnections@@QAE@XZ 10006c20 f i GestureControl.obj
 0001:00005c50       ??0IRegistrarBase@@QAE@XZ  10006c50 f i GestureControl.obj
 0001:00005c80       ??0IUnknown@@QAE@XZ        10006c80 f i GestureControl.obj
 0001:00005ca0       ??0ModuleLockHelper@ATL@@QAE@XZ 10006ca0 f i GestureControl.obj
 0001:00005ce0       ??0OposVariant@@QAE@XZ     10006ce0 f i GestureControl.obj
 0001:00005d10       ??0Wrapper@?$CSimpleArray@GV?$CSimpleArrayEqualHelper@G@ATL@@@ATL@@QAE@ABG@Z 10006d10 f i GestureControl.obj
 0001:00005d40       ??0_ATL_MODULE70@ATL@@QAE@XZ 10006d40 f i GestureControl.obj
 0001:00005d70       ??0_ATL_MSG@ATL@@QAE@PAUHWND__@@IIJH@Z 10006d70 f i GestureControl.obj
 0001:00005de0       ??0_U_MENUorID@ATL@@QAE@I@Z 10006de0 f i GestureControl.obj
 0001:00005e00       ??0_U_RECT@ATL@@QAE@AAUtagRECT@@@Z 10006e00 f i GestureControl.obj
 0001:00005e20       ??0stringdispid@CComTypeInfoHolder@ATL@@QAE@XZ 10006e20 f i GestureControl.obj
 0001:00005e60       ??1?$CAtlModuleT@VCComModule@ATL@@@ATL@@UAE@XZ 10006e60 f i GestureControl.obj
 0001:00005e90       ??1?$CAtlSafeAllocBufferManager@VCCRTAllocator@ATL@@@_ATL_SAFE_ALLOCA_IMPL@ATL@@QAE@XZ 10006e90 f i GestureControl.obj
 0001:00005ee0       ??1?$CAutoVectorPtr@_W@ATL@@QAE@XZ 10006ee0 f i GestureControl.obj
 0001:00005f10       ??1?$CComAggObject@VCOPOSGestureControl@@@ATL@@UAE@XZ 10006f10 f i GestureControl.obj
 0001:00005f80       ??1?$CComContainedObject@VCOPOSGestureControl@@@ATL@@UAE@XZ 10006f80 f i GestureControl.obj
 0001:00005fb0       ??1?$CComCritSecLock@VCComCriticalSection@ATL@@@ATL@@QAE@XZ 10006fb0 f i GestureControl.obj
 0001:00005fe0       ??1?$CComEnum@UIEnumConnectionPoints@@$1?_GUID_b196b285_bab4_101a_b69c_00aa00341d07@@3U__s_GUID@@BPAUIConnectionPoint@@V?$_CopyInterface@UIConnectionPoint@@@ATL@@VCComSingleThreadModel@6@@ATL@@UAE@XZ 10006fe0 f i GestureControl.obj
 0001:00006010       ??1?$CComEnum@UIEnumConnections@@$1?_GUID_b196b287_bab4_101a_b69c_00aa00341d07@@3U__s_GUID@@BUtagCONNECTDATA@@V?$_Copy@UtagCONNECTDATA@@@ATL@@VCComSingleThreadModel@6@@ATL@@UAE@XZ 10007010 f i GestureControl.obj
 0001:00006040       ??1?$CComEnumImpl@UIEnumConnectionPoints@@$1?_GUID_b196b285_bab4_101a_b69c_00aa00341d07@@3U__s_GUID@@BPAUIConnectionPoint@@V?$_CopyInterface@UIConnectionPoint@@@ATL@@@ATL@@UAE@XZ 10007040 f i GestureControl.obj
 0001:000060d0       ??1?$CComEnumImpl@UIEnumConnections@@$1?_GUID_b196b287_bab4_101a_b69c_00aa00341d07@@3U__s_GUID@@BUtagCONNECTDATA@@V?$_Copy@UtagCONNECTDATA@@@ATL@@@ATL@@UAE@XZ 100070d0 f i GestureControl.obj
 0001:00006160       ??1?$CComObject@V?$CComEnum@UIEnumConnectionPoints@@$1?_GUID_b196b285_bab4_101a_b69c_00aa00341d07@@3U__s_GUID@@BPAUIConnectionPoint@@V?$_CopyInterface@UIConnectionPoint@@@ATL@@VCComSingleThreadModel@6@@ATL@@@ATL@@UAE@XZ 10007160 f i GestureControl.obj
 0001:000061c0       ??1?$CComObject@V?$CComEnum@UIEnumConnections@@$1?_GUID_b196b287_bab4_101a_b69c_00aa00341d07@@3U__s_GUID@@BUtagCONNECTDATA@@V?$_Copy@UtagCONNECTDATA@@@ATL@@VCComSingleThreadModel@6@@ATL@@@ATL@@UAE@XZ 100071c0 f i GestureControl.obj
 0001:00006220       ??1?$CComObject@VCOPOSGestureControl@@@ATL@@UAE@XZ 10007220 f i GestureControl.obj
 0001:00006360       ??1?$CComObjectCached@VCComClassFactory@ATL@@@ATL@@UAE@XZ 10007360 f i GestureControl.obj
 0001:000063b0       ??1?$CComObjectRootEx@VCComMultiThreadModel@ATL@@@ATL@@QAE@XZ 100073b0 f i GestureControl.obj
 0001:000063e0       ??1?$CComObjectRootEx@VCComSingleThreadModel@ATL@@@ATL@@QAE@XZ 100073e0 f i GestureControl.obj
 0001:00006410       ??1?$CComPtr@UIAdviseSink@@@ATL@@QAE@XZ 10007410 f i GestureControl.obj
 0001:00006440       ??1?$CComPtr@UICatRegister@@@ATL@@QAE@XZ 10007440 f i GestureControl.obj
 0001:00006470       ??1?$CComPtr@UIConnectionPoint@@@ATL@@QAE@XZ 10007470 f i GestureControl.obj
 0001:000064a0       ??1?$CComPtr@UIConnectionPointContainer@@@ATL@@QAE@XZ 100074a0 f i GestureControl.obj
 0001:000064d0       ??1?$CComPtr@UIDataObject@@@ATL@@QAE@XZ 100074d0 f i GestureControl.obj
 0001:00006500       ??1?$CComPtr@UIDispatch@@@ATL@@QAE@XZ 10007500 f i GestureControl.obj
 0001:00006530       ??1?$CComPtr@UIOleClientSite@@@ATL@@QAE@XZ 10007530 f i GestureControl.obj
 0001:00006560       ??1?$CComPtr@UIOleControlSite@@@ATL@@QAE@XZ 10007560 f i GestureControl.obj
 0001:00006590       ??1?$CComPtr@UIOleInPlaceActiveObject@@@ATL@@QAE@XZ 10007590 f i GestureControl.obj
 0001:000065c0       ??1?$CComPtr@UIOleInPlaceFrame@@@ATL@@QAE@XZ 100075c0 f i GestureControl.obj
 0001:000065f0       ??1?$CComPtr@UIOleInPlaceObject@@@ATL@@QAE@XZ 100075f0 f i GestureControl.obj
 0001:00006620       ??1?$CComPtr@UIOleInPlaceUIWindow@@@ATL@@QAE@XZ 10007620 f i GestureControl.obj
 0001:00006650       ??1?$CComPtr@UIOleObject@@@ATL@@QAE@XZ 10007650 f i GestureControl.obj
 0001:00006680       ??1?$CComPtr@UIPersistStream@@@ATL@@QAE@XZ 10007680 f i GestureControl.obj
 0001:000066b0       ??1?$CComPtr@UIPersistStreamInit@@@ATL@@QAE@XZ 100076b0 f i GestureControl.obj
 0001:000066e0       ??1?$CComPtr@UIPointerInactive@@@ATL@@QAE@XZ 100076e0 f i GestureControl.obj
 0001:00006710       ??1?$CComPtr@UIProvideClassInfo2@@@ATL@@QAE@XZ 10007710 f i GestureControl.obj
 0001:00006740       ??1?$CComPtr@UISpecifyPropertyPages@@@ATL@@QAE@XZ 10007740 f i GestureControl.obj
 0001:00006770       ??1?$CComPtr@UIStream@@@ATL@@QAE@XZ 10007770 f i GestureControl.obj
 0001:000067a0       ??1?$CComPtr@UITypeInfo2@@@ATL@@QAE@XZ 100077a0 f i GestureControl.obj
 0001:000067d0       ??1?$CComPtr@UITypeInfo@@@ATL@@QAE@XZ 100077d0 f i GestureControl.obj
 0001:00006800       ??1?$CComPtr@UITypeLib@@@ATL@@QAE@XZ 10007800 f i GestureControl.obj
 0001:00006830       ??1?$CComPtr@UIUnknown@@@ATL@@QAE@XZ 10007830 f i GestureControl.obj
 0001:00006860       ??1?$CComPtr@UIViewObjectEx@@@ATL@@QAE@XZ 10007860 f i GestureControl.obj
 0001:00006890       ??1?$CComPtrBase@UIAdviseSink@@@ATL@@QAE@XZ 10007890 f i GestureControl.obj
 0001:000068e0       ??1?$CComPtrBase@UICatRegister@@@ATL@@QAE@XZ 100078e0 f i GestureControl.obj
 0001:00006930       ??1?$CComPtrBase@UIConnectionPoint@@@ATL@@QAE@XZ 10007930 f i GestureControl.obj
 0001:00006980       ??1?$CComPtrBase@UIConnectionPointContainer@@@ATL@@QAE@XZ 10007980 f i GestureControl.obj
 0001:000069d0       ??1?$CComPtrBase@UIDataObject@@@ATL@@QAE@XZ 100079d0 f i GestureControl.obj
 0001:00006a20       ??1?$CComPtrBase@UIDispatch@@@ATL@@QAE@XZ 10007a20 f i GestureControl.obj
 0001:00006a70       ??1?$CComPtrBase@UIOleClientSite@@@ATL@@QAE@XZ 10007a70 f i GestureControl.obj
 0001:00006ac0       ??1?$CComPtrBase@UIOleControlSite@@@ATL@@QAE@XZ 10007ac0 f i GestureControl.obj
 0001:00006b10       ??1?$CComPtrBase@UIOleInPlaceActiveObject@@@ATL@@QAE@XZ 10007b10 f i GestureControl.obj
 0001:00006b60       ??1?$CComPtrBase@UIOleInPlaceFrame@@@ATL@@QAE@XZ 10007b60 f i GestureControl.obj
 0001:00006bb0       ??1?$CComPtrBase@UIOleInPlaceObject@@@ATL@@QAE@XZ 10007bb0 f i GestureControl.obj
 0001:00006c00       ??1?$CComPtrBase@UIOleInPlaceUIWindow@@@ATL@@QAE@XZ 10007c00 f i GestureControl.obj
 0001:00006c50       ??1?$CComPtrBase@UIOleObject@@@ATL@@QAE@XZ 10007c50 f i GestureControl.obj
 0001:00006ca0       ??1?$CComPtrBase@UIPersistStream@@@ATL@@QAE@XZ 10007ca0 f i GestureControl.obj
 0001:00006cf0       ??1?$CComPtrBase@UIPersistStreamInit@@@ATL@@QAE@XZ 10007cf0 f i GestureControl.obj
 0001:00006d40       ??1?$CComPtrBase@UIPointerInactive@@@ATL@@QAE@XZ 10007d40 f i GestureControl.obj
 0001:00006d90       ??1?$CComPtrBase@UIProvideClassInfo2@@@ATL@@QAE@XZ 10007d90 f i GestureControl.obj
 0001:00006de0       ??1?$CComPtrBase@UISpecifyPropertyPages@@@ATL@@QAE@XZ 10007de0 f i GestureControl.obj
 0001:00006e30       ??1?$CComPtrBase@UIStream@@@ATL@@QAE@XZ 10007e30 f i GestureControl.obj
 0001:00006e80       ??1?$CComPtrBase@UITypeInfo2@@@ATL@@QAE@XZ 10007e80 f i GestureControl.obj
 0001:00006ed0       ??1?$CComPtrBase@UITypeInfo@@@ATL@@QAE@XZ 10007ed0 f i GestureControl.obj
 0001:00006f20       ??1?$CComPtrBase@UITypeLib@@@ATL@@QAE@XZ 10007f20 f i GestureControl.obj
 0001:00006f70       ??1?$CComPtrBase@UIUnknown@@@ATL@@QAE@XZ 10007f70 f i GestureControl.obj
 0001:00006fc0       ??1?$CComPtrBase@UIViewObjectEx@@@ATL@@QAE@XZ 10007fc0 f i GestureControl.obj
 0001:00007010       ??1?$CComQIPtr@UIOleControlSite@@$1?_GUID_b196b289_bab4_101a_b69c_00aa00341d07@@3U__s_GUID@@B@ATL@@QAE@XZ 10008010 f i GestureControl.obj
 0001:00007040       ??1?$CComQIPtr@UIOleObject@@$1?_GUID_00000112_0000_0000_c000_000000000046@@3U__s_GUID@@B@ATL@@QAE@XZ 10008040 f i GestureControl.obj
 0001:00007070       ??1?$CComQIPtr@UISpecifyPropertyPages@@$1?_GUID_b196b28b_bab4_101a_b69c_00aa00341d07@@3U__s_GUID@@B@ATL@@QAE@XZ 10008070 f i GestureControl.obj
 0001:000070a0       ??1?$CSimpleMap@PA_WPA_WVCExpansionVectorEqualHelper@ATL@@@ATL@@QAE@XZ 100080a0 f i GestureControl.obj
 0001:000070d0       ??1?$CTempBuffer@E$0BAA@VCCRTAllocator@ATL@@@ATL@@QAE@XZ 100080d0 f i GestureControl.obj
 0001:00007110       ??1?$CTempBuffer@_W$0BAA@VCCRTAllocator@ATL@@@ATL@@QAE@XZ 10008110 f i GestureControl.obj
 0001:00007150       ??1?$CTempBuffer@_W$0EAA@VCCRTAllocator@ATL@@@ATL@@QAE@XZ 10008150 f i GestureControl.obj
 0001:00007190       ??1CAtlModule@ATL@@UAE@XZ  10008190 f i GestureControl.obj
 0001:000071c0       ??1CComAutoDeleteCriticalSection@ATL@@QAE@XZ 100081c0 f i GestureControl.obj
 0001:000071f0       ??1CComClassFactory@ATL@@UAE@XZ 100081f0 f i GestureControl.obj
 0001:00007220       ??1CComModule@ATL@@UAE@XZ  10008220 f i GestureControl.obj
 0001:00007250       ??1CComObjectRootBase@ATL@@QAE@XZ 10008250 f i GestureControl.obj
 0001:00007270       ??1CComSafeDeleteCriticalSection@ATL@@QAE@XZ 10008270 f i GestureControl.obj
 0001:000072b0       ??1CComVariant@ATL@@QAE@XZ 100082b0 f i GestureControl.obj
 0001:00007310       ??1CExpansionVector@ATL@@QAE@XZ 10008310 f i GestureControl.obj
 0001:00007340       ??1CParseBuffer@CRegParser@ATL@@QAE@XZ 10008340 f i GestureControl.obj
 0001:00007380       ??1CRegKey@ATL@@QAE@XZ     10008380 f i GestureControl.obj
 0001:000073b0       ??1CRegObject@ATL@@UAE@XZ  100083b0 f i GestureControl.obj
 0001:000073f0       ??1ModuleLockHelper@ATL@@QAE@XZ 100083f0 f i GestureControl.obj
 0001:00007430       ??1OposVariant@@QAE@XZ     10008430 f i GestureControl.obj
 0001:00007460       ??1_ATL_MODULE70@ATL@@QAE@XZ 10008460 f i GestureControl.obj
 0001:00007490       ??4?$CComPtr@UIAdviseSink@@@ATL@@QAEPAUIAdviseSink@@PAU2@@Z 10008490 f i GestureControl.obj
 0001:000074f0       ??4?$CComPtr@UIOleClientSite@@@ATL@@QAEPAUIOleClientSite@@PAU2@@Z 100084f0 f i GestureControl.obj
 0001:00007550       ??4?$CComPtr@UIUnknown@@@ATL@@QAEPAUIUnknown@@PAU2@@Z 10008550 f i GestureControl.obj
 0001:000075b0       ??4?$CComQIPtr@UIOleObject@@$1?_GUID_00000112_0000_0000_c000_000000000046@@3U__s_GUID@@B@ATL@@QAEPAUIOleObject@@PAUIUnknown@@@Z 100085b0 f i GestureControl.obj
 0001:00007600       ??4?$CComQIPtr@UISpecifyPropertyPages@@$1?_GUID_b196b28b_bab4_101a_b69c_00aa00341d07@@3U__s_GUID@@B@ATL@@QAEPAUISpecifyPropertyPages@@PAUIUnknown@@@Z 10008600 f i GestureControl.obj
 0001:00007650       ??7?$CComPtrBase@UIOleClientSite@@@ATL@@QBE_NXZ 10008650 f i GestureControl.obj
 0001:00007690       ??7?$CComPtrBase@UIOleInPlaceSiteWindowless@@@ATL@@QBE_NXZ 10008690 f i GestureControl.obj
 0001:000076d0       ??7CComBSTR@ATL@@QBE_NXZ   100086d0 f i GestureControl.obj
 0001:00007710       ??8?$CComPtrBase@UIConnectionPointContainer@@@ATL@@QBE_NPAUIConnectionPointContainer@@@Z 10008710 f i GestureControl.obj
 0001:00007750       ??8?$CComPtrBase@UIDataAdviseHolder@@@ATL@@QBE_NPAUIDataAdviseHolder@@@Z 10008750 f i GestureControl.obj
 0001:00007790       ??8?$CComPtrBase@UIOleAdviseHolder@@@ATL@@QBE_NPAUIOleAdviseHolder@@@Z 10008790 f i GestureControl.obj
 0001:000077d0       ??8?$CComPtrBase@UIOleClientSite@@@ATL@@QBE_NPAUIOleClientSite@@@Z 100087d0 f i GestureControl.obj
 0001:00007810       ??8?$CComPtrBase@UIOleControlSite@@@ATL@@QBE_NPAUIOleControlSite@@@Z 10008810 f i GestureControl.obj
 0001:00007850       ??8?$CComPtrBase@UIOleInPlaceObject@@@ATL@@QBE_NPAUIOleInPlaceObject@@@Z 10008850 f i GestureControl.obj
 0001:00007890       ??8?$CComPtrBase@UIOleInPlaceSiteWindowless@@@ATL@@QBE_NPAUIOleInPlaceSiteWindowless@@@Z 10008890 f i GestureControl.obj
 0001:000078d0       ??8?$CComPtrBase@UIOleObject@@@ATL@@QBE_NPAUIOleObject@@@Z 100088d0 f i GestureControl.obj
 0001:00007910       ??8?$CComPtrBase@UIPersistStream@@@ATL@@QBE_NPAUIPersistStream@@@Z 10008910 f i GestureControl.obj
 0001:00007950       ??8?$CComPtrBase@UIPersistStreamInit@@@ATL@@QBE_NPAUIPersistStreamInit@@@Z 10008950 f i GestureControl.obj
 0001:00007990       ??8?$CComPtrBase@UIPointerInactive@@@ATL@@QBE_NPAUIPointerInactive@@@Z 10008990 f i GestureControl.obj
 0001:000079d0       ??8?$CComPtrBase@UIUnknown@@@ATL@@QBE_NPAUIUnknown@@@Z 100089d0 f i GestureControl.obj
 0001:00007a10       ??8?$CComPtrBase@UIViewObjectEx@@@ATL@@QBE_NPAUIViewObjectEx@@@Z 10008a10 f i GestureControl.obj
 0001:00007a50       ??8CComBSTR@ATL@@QBE_NH@Z  10008a50 f i GestureControl.obj
 0001:00007ab0       ??9?$CComPtrBase@UIConnectionPointContainer@@@ATL@@QBE_NPAUIConnectionPointContainer@@@Z 10008ab0 f i GestureControl.obj
 0001:00007b00       ??9?$CComPtrBase@UIDataAdviseHolder@@@ATL@@QBE_NPAUIDataAdviseHolder@@@Z 10008b00 f i GestureControl.obj
 0001:00007b50       ??9?$CComPtrBase@UIOleAdviseHolder@@@ATL@@QBE_NPAUIOleAdviseHolder@@@Z 10008b50 f i GestureControl.obj
 0001:00007ba0       ??9?$CComPtrBase@UIOleClientSite@@@ATL@@QBE_NPAUIOleClientSite@@@Z 10008ba0 f i GestureControl.obj
 0001:00007bf0       ??9?$CComPtrBase@UIOleControlSite@@@ATL@@QBE_NPAUIOleControlSite@@@Z 10008bf0 f i GestureControl.obj
 0001:00007c40       ??9?$CComPtrBase@UIOleInPlaceObject@@@ATL@@QBE_NPAUIOleInPlaceObject@@@Z 10008c40 f i GestureControl.obj
 0001:00007c90       ??9?$CComPtrBase@UIOleInPlaceSiteWindowless@@@ATL@@QBE_NPAUIOleInPlaceSiteWindowless@@@Z 10008c90 f i GestureControl.obj
 0001:00007ce0       ??9?$CComPtrBase@UIOleObject@@@ATL@@QBE_NPAUIOleObject@@@Z 10008ce0 f i GestureControl.obj
 0001:00007d30       ??9?$CComPtrBase@UIPersistStream@@@ATL@@QBE_NPAUIPersistStream@@@Z 10008d30 f i GestureControl.obj
 0001:00007d80       ??9?$CComPtrBase@UIPersistStreamInit@@@ATL@@QBE_NPAUIPersistStreamInit@@@Z 10008d80 f i GestureControl.obj
 0001:00007dd0       ??9?$CComPtrBase@UIPointerInactive@@@ATL@@QBE_NPAUIPointerInactive@@@Z 10008dd0 f i GestureControl.obj
 0001:00007e20       ??9?$CComPtrBase@UIUnknown@@@ATL@@QBE_NPAUIUnknown@@@Z 10008e20 f i GestureControl.obj
 0001:00007e70       ??9?$CComPtrBase@UIViewObjectEx@@@ATL@@QBE_NPAUIViewObjectEx@@@Z 10008e70 f i GestureControl.obj
 0001:00007ec0       ??9CComBSTR@ATL@@QBE_NH@Z  10008ec0 f i GestureControl.obj
 0001:00007f10       ??B?$CComPtrBase@UIAdviseSink@@@ATL@@QBEPAUIAdviseSink@@XZ 10008f10 f i GestureControl.obj
 0001:00007f30       ??B?$CComPtrBase@UIDataAdviseHolder@@@ATL@@QBEPAUIDataAdviseHolder@@XZ 10008f30 f i GestureControl.obj
 0001:00007f50       ??B?$CComPtrBase@UIDataObject@@@ATL@@QBEPAUIDataObject@@XZ 10008f50 f i GestureControl.obj
 0001:00007f70       ??B?$CComPtrBase@UIOleAdviseHolder@@@ATL@@QBEPAUIOleAdviseHolder@@XZ 10008f70 f i GestureControl.obj
 0001:00007f90       ??B?$CComPtrBase@UIOleClientSite@@@ATL@@QBEPAUIOleClientSite@@XZ 10008f90 f i GestureControl.obj
 0001:00007fb0       ??B?$CComPtrBase@UIOleControlSite@@@ATL@@QBEPAUIOleControlSite@@XZ 10008fb0 f i GestureControl.obj
 0001:00007fd0       ??B?$CComPtrBase@UIOleInPlaceActiveObject@@@ATL@@QBEPAUIOleInPlaceActiveObject@@XZ 10008fd0 f i GestureControl.obj
 0001:00007ff0       ??B?$CComPtrBase@UIOleInPlaceFrame@@@ATL@@QBEPAUIOleInPlaceFrame@@XZ 10008ff0 f i GestureControl.obj
 0001:00008010       ??B?$CComPtrBase@UIOleInPlaceSiteWindowless@@@ATL@@QBEPAUIOleInPlaceSiteWindowless@@XZ 10009010 f i GestureControl.obj
 0001:00008030       ??B?$CComPtrBase@UIOleInPlaceUIWindow@@@ATL@@QBEPAUIOleInPlaceUIWindow@@XZ 10009030 f i GestureControl.obj
 0001:00008050       ??B?$CComPtrBase@UIOleObject@@@ATL@@QBEPAUIOleObject@@XZ 10009050 f i GestureControl.obj
 0001:00008070       ??B?$CComPtrBase@UIPersistStream@@@ATL@@QBEPAUIPersistStream@@XZ 10009070 f i GestureControl.obj
 0001:00008090       ??B?$CComPtrBase@UIProvideClassInfo2@@@ATL@@QBEPAUIProvideClassInfo2@@XZ 10009090 f i GestureControl.obj
 0001:000080b0       ??B?$CComPtrBase@UISpecifyPropertyPages@@@ATL@@QBEPAUISpecifyPropertyPages@@XZ 100090b0 f i GestureControl.obj
 0001:000080d0       ??B?$CComPtrBase@UIStream@@@ATL@@QBEPAUIStream@@XZ 100090d0 f i GestureControl.obj
 0001:000080f0       ??B?$CComPtrBase@UITypeInfo2@@@ATL@@QBEPAUITypeInfo2@@XZ 100090f0 f i GestureControl.obj
 0001:00008110       ??B?$CComPtrBase@UITypeInfo@@@ATL@@QBEPAUITypeInfo@@XZ 10009110 f i GestureControl.obj
 0001:00008130       ??B?$CComPtrBase@UITypeLib@@@ATL@@QBEPAUITypeLib@@XZ 10009130 f i GestureControl.obj
 0001:00008150       ??B?$CComPtrBase@UIUnknown@@@ATL@@QBEPAUIUnknown@@XZ 10009150 f i GestureControl.obj
 0001:00008170       ??B?$CTempBuffer@E$0BAA@VCCRTAllocator@ATL@@@ATL@@QBEPAEXZ 10009170 f i GestureControl.obj
 0001:00008190       ??B?$CTempBuffer@_W$0BAA@VCCRTAllocator@ATL@@@ATL@@QBEPA_WXZ 10009190 f i GestureControl.obj
 0001:000081b0       ??B?$CTempBuffer@_W$0EAA@VCCRTAllocator@ATL@@@ATL@@QBEPA_WXZ 100091b0 f i GestureControl.obj
 0001:000081d0       ??B?$CTraceCategoryEx@$00$0A@@ATL@@QAEIXZ 100091d0 f i GestureControl.obj
 0001:000081f0       ??B?$CTraceCategoryEx@$07$0A@@ATL@@QAEIXZ 100091f0 f i GestureControl.obj
 0001:00008210       ??B?$CTraceCategoryEx@$0CAAA@$0A@@ATL@@QAEIXZ 10009210 f i GestureControl.obj
 0001:00008230       ??B?$CTraceCategoryEx@$0EA@$0A@@ATL@@QAEIXZ 10009230 f i GestureControl.obj
 0001:00008250       ??B?$CTraceCategoryEx@$0IAA@$0A@@ATL@@QAEIXZ 10009250 f i GestureControl.obj
 0001:00008270       ??BCComBSTR@ATL@@QBEPA_WXZ 10009270 f i GestureControl.obj
 0001:00008290       ??BCRegKey@ATL@@QBEPAUHKEY__@@XZ 10009290 f i GestureControl.obj
 0001:000082b0       ??C?$CComPtrBase@UIAdviseSink@@@ATL@@QBEPAV?$_NoAddRefReleaseOnCComPtr@UIAdviseSink@@@1@XZ 100092b0 f i GestureControl.obj
 0001:00008300       ??C?$CComPtrBase@UICatRegister@@@ATL@@QBEPAV?$_NoAddRefReleaseOnCComPtr@UICatRegister@@@1@XZ 10009300 f i GestureControl.obj
 0001:00008350       ??C?$CComPtrBase@UIConnectionPoint@@@ATL@@QBEPAV?$_NoAddRefReleaseOnCComPtr@UIConnectionPoint@@@1@XZ 10009350 f i GestureControl.obj
 0001:000083a0       ??C?$CComPtrBase@UIConnectionPointContainer@@@ATL@@QBEPAV?$_NoAddRefReleaseOnCComPtr@UIConnectionPointContainer@@@1@XZ 100093a0 f i GestureControl.obj
 0001:000083f0       ??C?$CComPtrBase@UIDataAdviseHolder@@@ATL@@QBEPAV?$_NoAddRefReleaseOnCComPtr@UIDataAdviseHolder@@@1@XZ 100093f0 f i GestureControl.obj
 0001:00008440       ??C?$CComPtrBase@UIOleAdviseHolder@@@ATL@@QBEPAV?$_NoAddRefReleaseOnCComPtr@UIOleAdviseHolder@@@1@XZ 10009440 f i GestureControl.obj
 0001:00008490       ??C?$CComPtrBase@UIOleClientSite@@@ATL@@QBEPAV?$_NoAddRefReleaseOnCComPtr@UIOleClientSite@@@1@XZ 10009490 f i GestureControl.obj
 0001:000084e0       ??C?$CComPtrBase@UIOleControlSite@@@ATL@@QBEPAV?$_NoAddRefReleaseOnCComPtr@UIOleControlSite@@@1@XZ 100094e0 f i GestureControl.obj
 0001:00008530       ??C?$CComPtrBase@UIOleInPlaceFrame@@@ATL@@QBEPAV?$_NoAddRefReleaseOnCComPtr@UIOleInPlaceFrame@@@1@XZ 10009530 f i GestureControl.obj
 0001:00008580       ??C?$CComPtrBase@UIOleInPlaceObject@@@ATL@@QBEPAV?$_NoAddRefReleaseOnCComPtr@UIOleInPlaceObject@@@1@XZ 10009580 f i GestureControl.obj
 0001:000085d0       ??C?$CComPtrBase@UIOleInPlaceSiteWindowless@@@ATL@@QBEPAV?$_NoAddRefReleaseOnCComPtr@UIOleInPlaceSiteWindowless@@@1@XZ 100095d0 f i GestureControl.obj
 0001:00008620       ??C?$CComPtrBase@UIOleInPlaceUIWindow@@@ATL@@QBEPAV?$_NoAddRefReleaseOnCComPtr@UIOleInPlaceUIWindow@@@1@XZ 10009620 f i GestureControl.obj
 0001:00008670       ??C?$CComPtrBase@UIOleObject@@@ATL@@QBEPAV?$_NoAddRefReleaseOnCComPtr@UIOleObject@@@1@XZ 10009670 f i GestureControl.obj
 0001:000086c0       ??C?$CComPtrBase@UIPersistStream@@@ATL@@QBEPAV?$_NoAddRefReleaseOnCComPtr@UIPersistStream@@@1@XZ 100096c0 f i GestureControl.obj
 0001:00008710       ??C?$CComPtrBase@UIPersistStreamInit@@@ATL@@QBEPAV?$_NoAddRefReleaseOnCComPtr@UIPersistStreamInit@@@1@XZ 10009710 f i GestureControl.obj
 0001:00008760       ??C?$CComPtrBase@UIPointerInactive@@@ATL@@QBEPAV?$_NoAddRefReleaseOnCComPtr@UIPointerInactive@@@1@XZ 10009760 f i GestureControl.obj
 0001:000087b0       ??C?$CComPtrBase@UIProvideClassInfo2@@@ATL@@QBEPAV?$_NoAddRefReleaseOnCComPtr@UIProvideClassInfo2@@@1@XZ 100097b0 f i GestureControl.obj
 0001:00008800       ??C?$CComPtrBase@UISpecifyPropertyPages@@@ATL@@QBEPAV?$_NoAddRefReleaseOnCComPtr@UISpecifyPropertyPages@@@1@XZ 10009800 f i GestureControl.obj
 0001:00008850       ??C?$CComPtrBase@UITypeInfo@@@ATL@@QBEPAV?$_NoAddRefReleaseOnCComPtr@UITypeInfo@@@1@XZ 10009850 f i GestureControl.obj
 0001:000088a0       ??C?$CComPtrBase@UITypeLib@@@ATL@@QBEPAV?$_NoAddRefReleaseOnCComPtr@UITypeLib@@@1@XZ 100098a0 f i GestureControl.obj
 0001:000088f0       ??C?$CComPtrBase@UIUnknown@@@ATL@@QBEPAV?$_NoAddRefReleaseOnCComPtr@UIUnknown@@@1@XZ 100098f0 f i GestureControl.obj
 0001:00008940       ??C?$CComPtrBase@UIViewObjectEx@@@ATL@@QBEPAV?$_NoAddRefReleaseOnCComPtr@UIViewObjectEx@@@1@XZ 10009940 f i GestureControl.obj
 0001:00008990       ??I?$CComPtrBase@UICatRegister@@@ATL@@QAEPAPAUICatRegister@@XZ 10009990 f i GestureControl.obj
 0001:000089e0       ??I?$CComPtrBase@UIConnectionPoint@@@ATL@@QAEPAPAUIConnectionPoint@@XZ 100099e0 f i GestureControl.obj
 0001:00008a30       ??I?$CComPtrBase@UIConnectionPointContainer@@@ATL@@QAEPAPAUIConnectionPointContainer@@XZ 10009a30 f i GestureControl.obj
 0001:00008a80       ??I?$CComPtrBase@UIDataAdviseHolder@@@ATL@@QAEPAPAUIDataAdviseHolder@@XZ 10009a80 f i GestureControl.obj
 0001:00008ad0       ??I?$CComPtrBase@UIDataObject@@@ATL@@QAEPAPAUIDataObject@@XZ 10009ad0 f i GestureControl.obj
 0001:00008b20       ??I?$CComPtrBase@UIDispatch@@@ATL@@QAEPAPAUIDispatch@@XZ 10009b20 f i GestureControl.obj
 0001:00008b70       ??I?$CComPtrBase@UIOleAdviseHolder@@@ATL@@QAEPAPAUIOleAdviseHolder@@XZ 10009b70 f i GestureControl.obj
 0001:00008bc0       ??I?$CComPtrBase@UIOleControlSite@@@ATL@@QAEPAPAUIOleControlSite@@XZ 10009bc0 f i GestureControl.obj
 0001:00008c10       ??I?$CComPtrBase@UIOleInPlaceActiveObject@@@ATL@@QAEPAPAUIOleInPlaceActiveObject@@XZ 10009c10 f i GestureControl.obj
 0001:00008c60       ??I?$CComPtrBase@UIOleInPlaceFrame@@@ATL@@QAEPAPAUIOleInPlaceFrame@@XZ 10009c60 f i GestureControl.obj
 0001:00008cb0       ??I?$CComPtrBase@UIOleInPlaceObject@@@ATL@@QAEPAPAUIOleInPlaceObject@@XZ 10009cb0 f i GestureControl.obj
 0001:00008d00       ??I?$CComPtrBase@UIOleInPlaceSiteWindowless@@@ATL@@QAEPAPAUIOleInPlaceSiteWindowless@@XZ 10009d00 f i GestureControl.obj
 0001:00008d50       ??I?$CComPtrBase@UIOleInPlaceUIWindow@@@ATL@@QAEPAPAUIOleInPlaceUIWindow@@XZ 10009d50 f i GestureControl.obj
 0001:00008da0       ??I?$CComPtrBase@UIOleObject@@@ATL@@QAEPAPAUIOleObject@@XZ 10009da0 f i GestureControl.obj
 0001:00008df0       ??I?$CComPtrBase@UIPersistStream@@@ATL@@QAEPAPAUIPersistStream@@XZ 10009df0 f i GestureControl.obj
 0001:00008e40       ??I?$CComPtrBase@UIPointerInactive@@@ATL@@QAEPAPAUIPointerInactive@@XZ 10009e40 f i GestureControl.obj
 0001:00008e90       ??I?$CComPtrBase@UIProvideClassInfo2@@@ATL@@QAEPAPAUIProvideClassInfo2@@XZ 10009e90 f i GestureControl.obj
 0001:00008ee0       ??I?$CComPtrBase@UIStream@@@ATL@@QAEPAPAUIStream@@XZ 10009ee0 f i GestureControl.obj
 0001:00008f30       ??I?$CComPtrBase@UITypeInfo2@@@ATL@@QAEPAPAUITypeInfo2@@XZ 10009f30 f i GestureControl.obj
 0001:00008f80       ??I?$CComPtrBase@UITypeInfo@@@ATL@@QAEPAPAUITypeInfo@@XZ 10009f80 f i GestureControl.obj
 0001:00008fd0       ??I?$CComPtrBase@UITypeLib@@@ATL@@QAEPAPAUITypeLib@@XZ 10009fd0 f i GestureControl.obj
 0001:00009020       ??I?$CComPtrBase@UIUnknown@@@ATL@@QAEPAPAUIUnknown@@XZ 1000a020 f i GestureControl.obj
 0001:00009070       ??I?$CComPtrBase@UIViewObjectEx@@@ATL@@QAEPAPAUIViewObjectEx@@XZ 1000a070 f i GestureControl.obj
 0001:000090c0       ??ICComBSTR@ATL@@QAEPAPA_WXZ 1000a0c0 f i GestureControl.obj
 0001:000090d5       ??_E?$CComContainedObject@VCOPOSGestureControl@@@ATL@@W3AEPAXI@Z 1000a0d5 f i GestureControl.obj
 0001:000090dd       ??_E?$CComContainedObject@VCOPOSGestureControl@@@ATL@@WEM@AEPAXI@Z 1000a0dd f i GestureControl.obj
 0001:000090e5       ??_E?$CComObject@VCOPOSGestureControl@@@ATL@@W3AEPAXI@Z 1000a0e5 f i GestureControl.obj
 0001:000090ed       ??_E?$CComObject@VCOPOSGestureControl@@@ATL@@WEM@AEPAXI@Z 1000a0ed f i GestureControl.obj
 0001:00009100       ??_E?$CComAggObject@VCOPOSGestureControl@@@ATL@@UAEPAXI@Z 1000a100 f i GestureControl.obj
 0001:00009100       ??_G?$CComAggObject@VCOPOSGestureControl@@@ATL@@UAEPAXI@Z 1000a100 f i GestureControl.obj
 0001:00009150       ??_E?$CComContainedObject@VCOPOSGestureControl@@@ATL@@UAEPAXI@Z 1000a150 f i GestureControl.obj
 0001:00009150       ??_G?$CComContainedObject@VCOPOSGestureControl@@@ATL@@UAEPAXI@Z 1000a150 f i GestureControl.obj
 0001:000091a0       ??_E?$CComObject@V?$CComEnum@UIEnumConnectionPoints@@$1?_GUID_b196b285_bab4_101a_b69c_00aa00341d07@@3U__s_GUID@@BPAUIConnectionPoint@@V?$_CopyInterface@UIConnectionPoint@@@ATL@@VCComSingleThreadModel@6@@ATL@@@ATL@@UAEPAXI@Z 1000a1a0 f i GestureControl.obj
 0001:000091a0       ??_G?$CComObject@V?$CComEnum@UIEnumConnectionPoints@@$1?_GUID_b196b285_bab4_101a_b69c_00aa00341d07@@3U__s_GUID@@BPAUIConnectionPoint@@V?$_CopyInterface@UIConnectionPoint@@@ATL@@VCComSingleThreadModel@6@@ATL@@@ATL@@UAEPAXI@Z 1000a1a0 f i GestureControl.obj
 0001:000091e0       ??_E?$CComObject@V?$CComEnum@UIEnumConnections@@$1?_GUID_b196b287_bab4_101a_b69c_00aa00341d07@@3U__s_GUID@@BUtagCONNECTDATA@@V?$_Copy@UtagCONNECTDATA@@@ATL@@VCComSingleThreadModel@6@@ATL@@@ATL@@UAEPAXI@Z 1000a1e0 f i GestureControl.obj
 0001:000091e0       ??_G?$CComObject@V?$CComEnum@UIEnumConnections@@$1?_GUID_b196b287_bab4_101a_b69c_00aa00341d07@@3U__s_GUID@@BUtagCONNECTDATA@@V?$_Copy@UtagCONNECTDATA@@@ATL@@VCComSingleThreadModel@6@@ATL@@@ATL@@UAEPAXI@Z 1000a1e0 f i GestureControl.obj
 0001:00009220       ??_E?$CComObject@VCOPOSGestureControl@@@ATL@@UAEPAXI@Z 1000a220 f i GestureControl.obj
 0001:00009220       ??_G?$CComObject@VCOPOSGestureControl@@@ATL@@UAEPAXI@Z 1000a220 f i GestureControl.obj
 0001:00009270       ??_G?$CComObjectCached@VCComClassFactory@ATL@@@ATL@@UAEPAXI@Z 1000a270 f i GestureControl.obj
 0001:00009270       ??_E?$CComObjectCached@VCComClassFactory@ATL@@@ATL@@UAEPAXI@Z 1000a270 f i GestureControl.obj
 0001:000092b0       ??_ECComClassFactory@ATL@@UAEPAXI@Z 1000a2b0 f i GestureControl.obj
 0001:000092b0       ??_GCComClassFactory@ATL@@UAEPAXI@Z 1000a2b0 f i GestureControl.obj
 0001:000092f0       ??_ECComModule@ATL@@UAEPAXI@Z 1000a2f0 f i GestureControl.obj
 0001:000092f0       ??_GCComModule@ATL@@UAEPAXI@Z 1000a2f0 f i GestureControl.obj
 0001:00009330       ??_GCRegObject@ATL@@UAEPAXI@Z 1000a330 f i GestureControl.obj
 0001:00009330       ??_ECRegObject@ATL@@UAEPAXI@Z 1000a330 f i GestureControl.obj
 0001:00009370       ?Add@?$CSimpleArray@GV?$CSimpleArrayEqualHelper@G@ATL@@@ATL@@QAEHABG@Z 1000a370 f i GestureControl.obj
 0001:000094c0       ?Add@?$CSimpleMap@PA_WPA_WVCExpansionVectorEqualHelper@ATL@@@ATL@@QAEHABQA_W0@Z 1000a4c0 f i GestureControl.obj
 0001:00009580       ?Add@CComDynamicUnkArray@ATL@@QAEKPAUIUnknown@@@Z 1000a580 f i GestureControl.obj
 0001:00009720       ?Add@CExpansionVector@ATL@@QAEHPB_W0@Z 1000a720 f i GestureControl.obj
 0001:000099b0       ?AddChar@CParseBuffer@CRegParser@ATL@@QAEHPB_W@Z 1000a9b0 f i GestureControl.obj
 0001:000099f0       ?AddCommonRGSReplacements@?$CAtlModuleT@VCComModule@ATL@@@ATL@@UAEJPAUIRegistrarBase@@@Z 1000a9f0 f i GestureControl.obj
 0001:00009a40       ?AddCreateWndData@CAtlWinModule@ATL@@QAEXPAU_AtlCreateWndData@2@PAX@Z 1000aa40 f i GestureControl.obj
 0001:00009a70       ?AddRef@?$CComAggObject@VCOPOSGestureControl@@@ATL@@UAGKXZ 1000aa70 f i GestureControl.obj
 0001:00009a90       ?AddRef@?$CComContainedObject@VCOPOSGestureControl@@@ATL@@UAGKXZ 1000aa90 f i GestureControl.obj
 0001:00009aac       ?AddRef@?$CComContainedObject@VCOPOSGestureControl@@@ATL@@WHA@AGKXZ 1000aaac f i GestureControl.obj
 0001:00009ab6       ?AddRef@?$CComContainedObject@VCOPOSGestureControl@@@ATL@@WHE@AGKXZ 1000aab6 f i GestureControl.obj
 0001:00009ac0       ?AddRef@?$CComContainedObject@VCOPOSGestureControl@@@ATL@@WHI@AGKXZ 1000aac0 f i GestureControl.obj
 0001:00009aca       ?AddRef@?$CComContainedObject@VCOPOSGestureControl@@@ATL@@WHM@AGKXZ 1000aaca f i GestureControl.obj
 0001:00009ad4       ?AddRef@?$CComContainedObject@VCOPOSGestureControl@@@ATL@@WIA@AGKXZ 1000aad4 f i GestureControl.obj
 0001:00009ae1       ?AddRef@?$CComContainedObject@VCOPOSGestureControl@@@ATL@@WIE@AGKXZ 1000aae1 f i GestureControl.obj
 0001:00009aee       ?AddRef@?$CComContainedObject@VCOPOSGestureControl@@@ATL@@WII@AGKXZ 1000aaee f i GestureControl.obj
 0001:00009afb       ?AddRef@?$CComContainedObject@VCOPOSGestureControl@@@ATL@@WIM@AGKXZ 1000aafb f i GestureControl.obj
 0001:00009b08       ?AddRef@?$CComContainedObject@VCOPOSGestureControl@@@ATL@@WJA@AGKXZ 1000ab08 f i GestureControl.obj
 0001:00009b15       ?AddRef@?$CComContainedObject@VCOPOSGestureControl@@@ATL@@WJE@AGKXZ 1000ab15 f i GestureControl.obj
 0001:00009b22       ?AddRef@?$CComContainedObject@VCOPOSGestureControl@@@ATL@@WJI@AGKXZ 1000ab22 f i GestureControl.obj
 0001:00009b2f       ?AddRef@?$CComContainedObject@VCOPOSGestureControl@@@ATL@@WJM@AGKXZ 1000ab2f f i GestureControl.obj
 0001:00009b3c       ?AddRef@?$CComContainedObject@VCOPOSGestureControl@@@ATL@@WKA@AGKXZ 1000ab3c f i GestureControl.obj
 0001:00009b49       ?AddRef@?$CComContainedObject@VCOPOSGestureControl@@@ATL@@WKI@AGKXZ 1000ab49 f i GestureControl.obj
 0001:00009b56       ?AddRef@?$CComContainedObject@VCOPOSGestureControl@@@ATL@@WLE@AGKXZ 1000ab56 f i GestureControl.obj
 0001:00009b70       ?AddRef@?$CComObject@V?$CComEnum@UIEnumConnectionPoints@@$1?_GUID_b196b285_bab4_101a_b69c_00aa00341d07@@3U__s_GUID@@BPAUIConnectionPoint@@V?$_CopyInterface@UIConnectionPoint@@@ATL@@VCComSingleThreadModel@6@@ATL@@@ATL@@UAGKXZ 1000ab70 f i GestureControl.obj
 0001:00009b90       ?AddRef@?$CComObject@V?$CComEnum@UIEnumConnections@@$1?_GUID_b196b287_bab4_101a_b69c_00aa00341d07@@3U__s_GUID@@BUtagCONNECTDATA@@V?$_Copy@UtagCONNECTDATA@@@ATL@@VCComSingleThreadModel@6@@ATL@@@ATL@@UAGKXZ 1000ab90 f i GestureControl.obj
 0001:00009bb0       ?AddRef@?$CComObject@VCOPOSGestureControl@@@ATL@@UAGKXZ 1000abb0 f i GestureControl.obj
 0001:00009bcc       ?AddRef@?$CComObject@VCOPOSGestureControl@@@ATL@@WHA@AGKXZ 1000abcc f i GestureControl.obj
 0001:00009bd6       ?AddRef@?$CComObject@VCOPOSGestureControl@@@ATL@@WHE@AGKXZ 1000abd6 f i GestureControl.obj
 0001:00009be0       ?AddRef@?$CComObject@VCOPOSGestureControl@@@ATL@@WHI@AGKXZ 1000abe0 f i GestureControl.obj
 0001:00009bea       ?AddRef@?$CComObject@VCOPOSGestureControl@@@ATL@@WHM@AGKXZ 1000abea f i GestureControl.obj
 0001:00009bf4       ?AddRef@?$CComObject@VCOPOSGestureControl@@@ATL@@WIA@AGKXZ 1000abf4 f i GestureControl.obj
 0001:00009c01       ?AddRef@?$CComObject@VCOPOSGestureControl@@@ATL@@WIE@AGKXZ 1000ac01 f i GestureControl.obj
 0001:00009c0e       ?AddRef@?$CComObject@VCOPOSGestureControl@@@ATL@@WII@AGKXZ 1000ac0e f i GestureControl.obj
 0001:00009c1b       ?AddRef@?$CComObject@VCOPOSGestureControl@@@ATL@@WIM@AGKXZ 1000ac1b f i GestureControl.obj
 0001:00009c28       ?AddRef@?$CComObject@VCOPOSGestureControl@@@ATL@@WJA@AGKXZ 1000ac28 f i GestureControl.obj
 0001:00009c35       ?AddRef@?$CComObject@VCOPOSGestureControl@@@ATL@@WJE@AGKXZ 1000ac35 f i GestureControl.obj
 0001:00009c42       ?AddRef@?$CComObject@VCOPOSGestureControl@@@ATL@@WJI@AGKXZ 1000ac42 f i GestureControl.obj
 0001:00009c4f       ?AddRef@?$CComObject@VCOPOSGestureControl@@@ATL@@WJM@AGKXZ 1000ac4f f i GestureControl.obj
 0001:00009c5c       ?AddRef@?$CComObject@VCOPOSGestureControl@@@ATL@@WKA@AGKXZ 1000ac5c f i GestureControl.obj
 0001:00009c69       ?AddRef@?$CComObject@VCOPOSGestureControl@@@ATL@@WKI@AGKXZ 1000ac69 f i GestureControl.obj
 0001:00009c76       ?AddRef@?$CComObject@VCOPOSGestureControl@@@ATL@@WLE@AGKXZ 1000ac76 f i GestureControl.obj
 0001:00009c90       ?AddRef@?$CComObjectCached@VCComClassFactory@ATL@@@ATL@@UAGKXZ 1000ac90 f i GestureControl.obj
 0001:00009ce0       ?AddRef@CRegObject@ATL@@UAGKXZ 1000ace0 f i GestureControl.obj
 0001:00009d30       ?AddReplacement@CRegObject@ATL@@UAGJPB_W0@Z 1000ad30 f i GestureControl.obj
 0001:00009e40       ?AddString@CParseBuffer@CRegParser@ATL@@QAEHPB_W@Z 1000ae40 f i GestureControl.obj
 0001:00009f30       ?AddTermFunc@CAtlModule@ATL@@QAEJP6GXK@ZK@Z 1000af30 f i GestureControl.obj
 0001:00009f80       ?AddValue@CRegParser@ATL@@IAEJAAVCRegKey@2@PB_WPA_W@Z 1000af80 f i GestureControl.obj
 0001:0000a710       ?Advise@?$CProxy_IOPOSEvents@VCOPOSGestureControl@@@@UAGJPAUIUnknown@@PAK@Z 1000b710 f i GestureControl.obj
 0001:0000a760       ?Advise@?$IConnectionPointImpl@VCOPOSGestureControl@@$1?DIID__IOPOSGestureControlEvents@@3U_GUID@@BVCComDynamicUnkArray@ATL@@@ATL@@UAGJPAUIUnknown@@PAK@Z 1000b760 f i GestureControl.obj
 0001:0000a900       ?Advise@?$IConnectionPointImpl@VCOPOSGestureControl@@$1?IID_IPropertyNotifySink@@3U_GUID@@BVCComDynamicUnkArray@ATL@@@ATL@@UAGJPAUIUnknown@@PAK@Z 1000b900 f i GestureControl.obj
 0001:0000aaa0       ?Advise@?$IOleObjectImpl@VCOPOSGestureControl@@@ATL@@UAGJPAUIAdviseSink@@PAK@Z 1000baa0 f i GestureControl.obj
 0001:0000ab30       ?Allocate@?$CAtlSafeAllocBufferManager@VCCRTAllocator@ATL@@@_ATL_SAFE_ALLOCA_IMPL@ATL@@QAEPAXK@Z 1000bb30 f i GestureControl.obj
 0001:0000aba0       ?Allocate@?$CTempBuffer@E$0BAA@VCCRTAllocator@ATL@@@ATL@@QAEPAEI@Z 1000bba0 f i GestureControl.obj
 0001:0000abe0       ?Allocate@?$CTempBuffer@_W$0BAA@VCCRTAllocator@ATL@@@ATL@@QAEPA_WI@Z 1000bbe0 f i GestureControl.obj
 0001:0000ac20       ?Allocate@?$CTempBuffer@_W$0EAA@VCCRTAllocator@ATL@@@ATL@@QAEPA_WI@Z 1000bc20 f i GestureControl.obj
 0001:0000ac60       ?AllocateBytes@?$CTempBuffer@E$0BAA@VCCRTAllocator@ATL@@@ATL@@QAEPAEI@Z 1000bc60 f i GestureControl.obj
 0001:0000ace0       ?AllocateBytes@?$CTempBuffer@_W$0BAA@VCCRTAllocator@ATL@@@ATL@@QAEPA_WI@Z 1000bce0 f i GestureControl.obj
 0001:0000ad60       ?AllocateBytes@?$CTempBuffer@_W$0EAA@VCCRTAllocator@ATL@@@ATL@@QAEPA_WI@Z 1000bd60 f i GestureControl.obj
 0001:0000ade0       ?AllocateHeap@?$CTempBuffer@E$0BAA@VCCRTAllocator@ATL@@@ATL@@AAEXI@Z 1000bde0 f i GestureControl.obj
 0001:0000ae30       ?AllocateHeap@?$CTempBuffer@_W$0BAA@VCCRTAllocator@ATL@@@ATL@@AAEXI@Z 1000be30 f i GestureControl.obj
 0001:0000ae80       ?AllocateHeap@?$CTempBuffer@_W$0EAA@VCCRTAllocator@ATL@@@ATL@@AAEXI@Z 1000be80 f i GestureControl.obj
 0001:0000aed0       ?Append@CParseBuffer@CRegParser@ATL@@QAEHPB_WH@Z 1000bed0 f i GestureControl.obj
 0001:0000b070       ?AtlCallTermFunc@ATL@@YGXPAU_ATL_MODULE70@1@@Z 1000c070 f i GestureControl.obj
 0001:0000b110       ?AtlCoTaskMemCAlloc@ATL@@YAPAXKK@Z 1000c110 f i GestureControl.obj
 0001:0000b1a0       ?AtlCoTaskMemRecalloc@ATL@@YAPAXPAXKK@Z 1000c1a0 f i GestureControl.obj
 0001:0000b240       ?AtlComModuleGetClassObject@ATL@@YGJPAU_ATL_COM_MODULE70@1@ABU_GUID@@1PAPAX@Z 1000c240 f i GestureControl.obj
 0001:0000b4d0       ?AtlComModuleRegisterServer@ATL@@YGJPAU_ATL_COM_MODULE70@1@HPBU_GUID@@@Z 1000c4d0 f i GestureControl.obj
 0001:0000b660       ?AtlComModuleUnregisterServer@ATL@@YGJPAU_ATL_COM_MODULE70@1@HPBU_GUID@@@Z 1000c660 f i GestureControl.obj
 0001:0000b790       ?AtlComQIPtrAssign2@ATL@@YAXPAPAUIUnknown@@PAU2@ABU_GUID@@@Z 1000c790 f i GestureControl.obj
 0001:0000b810       ?AtlCreateTargetDC@ATL@@YGPAUHDC__@@PAU2@PAUtagDVTARGETDEVICE@@@Z 1000c810 f i GestureControl.obj
 0001:0000b9b0       ?AtlCrtErrorCheck@ATL@@YAHH@Z 1000c9b0 f i GestureControl.obj
 0001:0000ba80       ?AtlGetPerUserRegistration@ATL@@YGJPA_N@Z 1000ca80 f i GestureControl.obj
 0001:0000bab0       ?AtlHiMetricToPixel@ATL@@YGXPBUtagSIZE@@PAU2@@Z 1000cab0 f i GestureControl.obj
 0001:0000bc80       ?AtlHresultFromLastError@ATL@@YAJXZ 1000cc80 f i GestureControl.obj
 0001:0000bcc0       ?AtlHresultFromWin32@ATL@@YAJK@Z 1000ccc0 f i GestureControl.obj
 0001:0000bce0       ?AtlIPersistStreamInit_Load@ATL@@YGJPAUIStream@@PBUATL_PROPMAP_ENTRY@1@PAXPAUIUnknown@@@Z 1000cce0 f i GestureControl.obj
 0001:0000c140       ?AtlIPersistStreamInit_Save@ATL@@YGJPAUIStream@@HPBUATL_PROPMAP_ENTRY@1@PAXPAUIUnknown@@@Z 1000d140 f i GestureControl.obj
 0001:0000c520       ?AtlInternalOleLoadFromStream@ATL@@YAJPAUIStream@@ABU_GUID@@PAPAXTClassesAllowedInStream@1@K@Z 1000d520 f i GestureControl.obj
 0001:0000c7c0       ?AtlInternalQueryInterface@ATL@@YGJPAXPBU_ATL_INTMAP_ENTRY@1@ABU_GUID@@PAPAX@Z 1000d7c0 f i GestureControl.obj
 0001:0000c9f0       ?AtlLoadTypeLib@ATL@@YGJPAUHINSTANCE__@@PB_WPAPA_WPAPAUITypeLib@@@Z 1000d9f0 f i GestureControl.obj
 0001:0000ce50       ?AtlModuleAddTermFunc@ATL@@YGJPAU_ATL_MODULE70@1@P6GXK@ZK@Z 1000de50 f i GestureControl.obj
 0001:0000cfb0       ?AtlRegisterClassCategoriesHelper@ATL@@YGJABU_GUID@@PBU_ATL_CATMAP_ENTRY@1@H@Z 1000dfb0 f i GestureControl.obj
 0001:0000d690       ?AtlRegisterTypeLib@ATL@@YGJPAUHINSTANCE__@@PB_W@Z 1000e690 f i GestureControl.obj
 0001:0000d9d0       ?AtlThrowImpl@ATL@@YGXJ@Z  1000e9d0 f i GestureControl.obj
 0001:0000da80       ?AtlUnRegisterTypeLib@ATL@@YGJPAUHINSTANCE__@@PB_W@Z 1000ea80 f i GestureControl.obj
 0001:0000dc90       ?AtlWinModuleAddCreateWndData@ATL@@YGXPAU_ATL_WIN_MODULE70@1@PAU_AtlCreateWndData@1@PAX@Z 1000ec90 f i GestureControl.obj
 0001:0000de00       ?AtlWinModuleExtractCreateWndData@ATL@@YGPAXPAU_ATL_WIN_MODULE70@1@@Z 1000ee00 f i GestureControl.obj
 0001:0000df80       ?AtlWinModuleRegisterClassExW@ATL@@YGGPAU_ATL_WIN_MODULE70@1@PBUtagWNDCLASSEXW@@@Z 1000ef80 f i GestureControl.obj
 0001:0000e050       ?AtlWinModuleRegisterWndClassInfoW@ATL@@YGGPAU_ATL_WIN_MODULE70@1@PAU_ATL_BASE_MODULE70@1@PAU_ATL_WNDCLASSINFOW@1@PAP6GJPAUHWND__@@IIJ@Z@Z 1000f050 f i GestureControl.obj
 0001:0000e0e0       ?Attach@?$CAutoVectorPtr@_W@ATL@@QAEXPA_W@Z 1000f0e0 f i GestureControl.obj
 0001:0000e140       ?Attach@CComBSTR@ATL@@QAEXPA_W@Z 1000f140 f i GestureControl.obj
 0001:0000e190       ?Attach@CRegKey@ATL@@QAEXPAUHKEY__@@@Z 1000f190 f i GestureControl.obj
 0001:0000e200       ?CanForceRemoveKey@CRegParser@ATL@@IAEHPB_W@Z 1000f200 f i GestureControl.obj
 0001:0000e270       ?ChToByte@CRegParser@ATL@@KAE_W@Z 1000f270 f i GestureControl.obj
 0001:0000e390       ?ChangeType@CComVariant@ATL@@QAEJGPBUtagVARIANT@@@Z 1000f390 f i GestureControl.obj
 0001:0000e3f0       ?Cleanup@CComTypeInfoHolder@ATL@@SGXK@Z 1000f3f0 f i GestureControl.obj
 0001:0000e4c0       ?Clear@CComVariant@ATL@@QAEJXZ 1000f4c0 f i GestureControl.obj
 0001:0000e500       ?ClearReplacements@CExpansionVector@ATL@@QAEJXZ 1000f500 f i GestureControl.obj
 0001:0000e590       ?ClearReplacements@CRegObject@ATL@@UAGJXZ 1000f590 f i GestureControl.obj
 0001:0000e5e0       ?Clone@?$CComEnumImpl@UIEnumConnectionPoints@@$1?_GUID_b196b285_bab4_101a_b69c_00aa00341d07@@3U__s_GUID@@BPAUIConnectionPoint@@V?$_CopyInterface@UIConnectionPoint@@@ATL@@@ATL@@UAGJPAPAUIEnumConnectionPoints@@@Z 1000f5e0 f i GestureControl.obj
 0001:0000e750       ?Clone@?$CComEnumImpl@UIEnumConnections@@$1?_GUID_b196b287_bab4_101a_b69c_00aa00341d07@@3U__s_GUID@@BUtagCONNECTDATA@@V?$_Copy@UtagCONNECTDATA@@@ATL@@@ATL@@UAGJPAPAUIEnumConnections@@@Z 1000f750 f i GestureControl.obj
 0001:0000e8c0       ?Close@?$IOleObjectImpl@VCOPOSGestureControl@@@ATL@@UAGJK@Z 1000f8c0 f i GestureControl.obj
 0001:0000e950       ?Close@CRegKey@ATL@@QAEJXZ 1000f950 f i GestureControl.obj
 0001:0000e9c0       ?ContextSensitiveHelp@?$IOleInPlaceActiveObjectImpl@VCOPOSGestureControl@@@ATL@@UAGJH@Z 1000f9c0 f i GestureControl.obj
 0001:0000ea30       ?ContextSensitiveHelp@?$IOleInPlaceObjectWindowlessImpl@VCOPOSGestureControl@@@ATL@@UAGJH@Z 1000fa30 f i GestureControl.obj
 0001:0000eaa0       ?ControlQueryInterface@?$CComControl@VCOPOSGestureControl@@V?$CWindowImpl@VCOPOSGestureControl@@VCWindow@ATL@@V?$CWinTraits@$0FGAAAAAA@$0A@@3@@ATL@@@ATL@@UAEJABU_GUID@@PAPAX@Z 1000faa0 f i GestureControl.obj
 0001:0000eb20       ?CreateControlWindow@?$CComControl@VCOPOSGestureControl@@V?$CWindowImpl@VCOPOSGestureControl@@VCWindow@ATL@@V?$CWinTraits@$0FGAAAAAA@$0A@@3@@ATL@@@ATL@@UAEPAUHWND__@@PAU3@AAUtagRECT@@@Z 1000fb20 f i GestureControl.obj
 0001:0000eba0       ?CreateInstance@?$CComCreator@V?$CComAggObject@VCOPOSGestureControl@@@ATL@@@ATL@@SGJPAXABU_GUID@@PAPAX@Z 1000fba0 f i GestureControl.obj
 0001:0000ed20       ?CreateInstance@?$CComCreator@V?$CComObject@VCOPOSGestureControl@@@ATL@@@ATL@@SGJPAXABU_GUID@@PAPAX@Z 1000fd20 f i GestureControl.obj
 0001:0000eeb0       ?CreateInstance@?$CComObject@V?$CComEnum@UIEnumConnectionPoints@@$1?_GUID_b196b285_bab4_101a_b69c_00aa00341d07@@3U__s_GUID@@BPAUIConnectionPoint@@V?$_CopyInterface@UIConnectionPoint@@@ATL@@VCComSingleThreadModel@6@@ATL@@@ATL@@SGJPAPAV12@@Z 1000feb0 f i GestureControl.obj
 0001:0000f020       ?CreateInstance@?$CComObject@V?$CComEnum@UIEnumConnections@@$1?_GUID_b196b287_bab4_101a_b69c_00aa00341d07@@3U__s_GUID@@BUtagCONNECTDATA@@V?$_Copy@UtagCONNECTDATA@@@ATL@@VCComSingleThreadModel@6@@ATL@@@ATL@@SGJPAPAV12@@Z 10010020 f i GestureControl.obj
 0001:0000f190       ?CreateInstance@CComClassFactory@ATL@@UAGJPAUIUnknown@@ABU_GUID@@PAPAX@Z 10010190 f i GestureControl.obj
 0001:0000f280       ?DAdvise@?$IDataObjectImpl@VCOPOSGestureControl@@@ATL@@UAGJPAUtagFORMATETC@@KPAUIAdviseSink@@PAK@Z 10010280 f i GestureControl.obj
 0001:0000f380       ?DEVMODEOLE2T_EX@@YAPAU_devicemodeW@@PAU1@@Z 10010380 f i GestureControl.obj
 0001:0000f390       ?DUnadvise@?$IDataObjectImpl@VCOPOSGestureControl@@@ATL@@UAGJK@Z 10010390 f i GestureControl.obj
 0001:0000f460       ?Decrement@CComMultiThreadModel@ATL@@SGKPAJ@Z 10010460 f i GestureControl.obj
 0001:0000f480       ?Decrement@CComSingleThreadModel@ATL@@SGKPAJ@Z 10010480 f i GestureControl.obj
 0001:0000f4a0       ?DefWindowProcW@?$CWindowImplBaseT@VCWindow@ATL@@V?$CWinTraits@$0FGAAAAAA@$0A@@2@@ATL@@QAEJIIJ@Z 100104a0 f i GestureControl.obj
 0001:0000f4f0       ?DefaultReflectionHandler@?$CWindowImplRoot@VCWindow@ATL@@@ATL@@SAHPAUHWND__@@IIJAAJ@Z 100104f0 f i GestureControl.obj
 0001:0000f6e0       ?DeleteSubKey@CRegKey@ATL@@QAEJPB_W@Z 100106e0 f i GestureControl.obj
 0001:0000f7f0       ?DeleteValue@CRegKey@ATL@@QAEJPB_W@Z 100107f0 f i GestureControl.obj
 0001:0000f860       ?Detach@?$CAutoVectorPtr@_W@ATL@@QAEPA_WXZ 10010860 f i GestureControl.obj
 0001:0000f890       ?Detach@?$CComPtrBase@UIPersistStream@@@ATL@@QAEPAUIPersistStream@@XZ 10010890 f i GestureControl.obj
 0001:0000f8c0       ?Detach@?$CComPtrBase@UITypeInfo@@@ATL@@QAEPAUITypeInfo@@XZ 100108c0 f i GestureControl.obj
 0001:0000f8f0       ?Detach@?$CComPtrBase@UIUnknown@@@ATL@@QAEPAUIUnknown@@XZ 100108f0 f i GestureControl.obj
 0001:0000f920       ?Detach@CComBSTR@ATL@@QAEPA_WXZ 10010920 f i GestureControl.obj
 0001:0000f950       ?Detach@CParseBuffer@CRegParser@ATL@@QAEPA_WXZ 10010950 f i GestureControl.obj
 0001:0000f9a0       ?Detach@CRegKey@ATL@@QAEPAUHKEY__@@XZ 100109a0 f i GestureControl.obj
 0001:0000f9f0       ?DoEvent@COPOSGestureControl@@IAEXIIJ@Z 100109f0 f i GestureControl.obj
 0001:0000fb30       ?DoVerb@?$IOleObjectImpl@VCOPOSGestureControl@@@ATL@@UAGJJPAUtagMSG@@PAUIOleClientSite@@JPAUHWND__@@PBUtagRECT@@@Z 10010b30 f i GestureControl.obj
 0001:0000fd40       ?DoVerbDiscardUndo@?$IOleObjectImpl@VCOPOSGestureControl@@@ATL@@QAEJPBUtagRECT@@PAUHWND__@@@Z 10010d40 f i GestureControl.obj
 0001:0000fdb0       ?DoVerbHide@?$IOleObjectImpl@VCOPOSGestureControl@@@ATL@@QAEJPBUtagRECT@@PAUHWND__@@@Z 10010db0 f i GestureControl.obj
 0001:0000fe60       ?DoVerbInPlaceActivate@?$IOleObjectImpl@VCOPOSGestureControl@@@ATL@@QAEJPBUtagRECT@@PAUHWND__@@@Z 10010e60 f i GestureControl.obj
 0001:0000ff00       ?DoVerbOpen@?$IOleObjectImpl@VCOPOSGestureControl@@@ATL@@QAEJPBUtagRECT@@PAUHWND__@@@Z 10010f00 f i GestureControl.obj
 0001:0000ff70       ?DoVerbPrimary@?$IOleObjectImpl@VCOPOSGestureControl@@@ATL@@QAEJPBUtagRECT@@PAUHWND__@@@Z 10010f70 f i GestureControl.obj
 0001:00010080       ?DoVerbProperties@CComControlBase@ATL@@QAEJPBUtagRECT@@PAUHWND__@@@Z 10011080 f i GestureControl.obj
 0001:000103a0       ?DoVerbShow@?$IOleObjectImpl@VCOPOSGestureControl@@@ATL@@QAEJPBUtagRECT@@PAUHWND__@@@Z 100113a0 f i GestureControl.obj
 0001:00010430       ?DoVerbUIActivate@?$IOleObjectImpl@VCOPOSGestureControl@@@ATL@@QAEJPBUtagRECT@@PAUHWND__@@@Z 10011430 f i GestureControl.obj
 0001:000104d0       ?DoesVerbActivate@CComControlBase@ATL@@QAEHJ@Z 100114d0 f i GestureControl.obj
 0001:00010540       ?DoesVerbUIActivate@CComControlBase@ATL@@QAEHJ@Z 10011540 f i GestureControl.obj
 0001:000105c0       ?Draw@?$IViewObjectExImpl@VCOPOSGestureControl@@@ATL@@UAGJKJPAXPAUtagDVTARGETDEVICE@@PAUHDC__@@2PBU_RECTL@@3P6GHK@ZK@Z 100115c0 f i GestureControl.obj
 0001:00010660       ?Empty@CComBSTR@ATL@@QAEXXZ 10011660 f i GestureControl.obj
 0001:000106a0       ?EnableModeless@?$IOleInPlaceActiveObjectImpl@VCOPOSGestureControl@@@ATL@@UAGJH@Z 100116a0 f i GestureControl.obj
 0001:00010700       ?EndOfVar@CRegParser@ATL@@IAEHXZ 10011700 f i GestureControl.obj
 0001:00010770       ?EnsureTI@CComTypeInfoHolder@ATL@@QAEJK@Z 10011770 f i GestureControl.obj
 0001:000107d0       ?EnumAdvise@?$IOleObjectImpl@VCOPOSGestureControl@@@ATL@@UAGJPAPAUIEnumSTATDATA@@@Z 100117d0 f i GestureControl.obj
 0001:000108e0       ?EnumConnectionPoints@?$IConnectionPointContainerImpl@VCOPOSGestureControl@@@ATL@@UAGJPAPAUIEnumConnectionPoints@@@Z 100118e0 f i GestureControl.obj
 0001:00010d10       ?EnumConnections@?$IConnectionPointImpl@VCOPOSGestureControl@@$1?DIID__IOPOSGestureControlEvents@@3U_GUID@@BVCComDynamicUnkArray@ATL@@@ATL@@UAGJPAPAUIEnumConnections@@@Z 10011d10 f i GestureControl.obj
 0001:00010f60       ?EnumConnections@?$IConnectionPointImpl@VCOPOSGestureControl@@$1?IID_IPropertyNotifySink@@3U_GUID@@BVCComDynamicUnkArray@ATL@@@ATL@@UAGJPAPAUIEnumConnections@@@Z 10011f60 f i GestureControl.obj
 0001:000111b0       ?EnumDAdvise@?$IDataObjectImpl@VCOPOSGestureControl@@@ATL@@UAGJPAPAUIEnumSTATDATA@@@Z 100121b0 f i GestureControl.obj
 0001:000112b0       ?EnumFormatEtc@?$IDataObjectImpl@VCOPOSGestureControl@@@ATL@@UAGJKPAPAUIEnumFORMATETC@@@Z 100122b0 f i GestureControl.obj
 0001:00011320       ?EnumVerbs@?$IOleObjectImpl@VCOPOSGestureControl@@@ATL@@UAGJPAPAUIEnumOLEVERB@@@Z 10012320 f i GestureControl.obj
 0001:000113d0       ?EscapeSingleQuote@CAtlModule@ATL@@SAXPA_WIPB_W@Z 100123d0 f i GestureControl.obj
 0001:00011480       ?ExtractCreateWndData@CAtlWinModule@ATL@@QAEPAXXZ 10012480 f i GestureControl.obj
 0001:000114b0       ?FAccessAllowed@?$IObjectSafetyImpl@VCOPOSGestureControl@@$02@ATL@@MAEHXZ 100124b0 f i GestureControl.obj
 0001:000114d0       ?FinalConstruct@?$CComAggObject@VCOPOSGestureControl@@@ATL@@QAEJXZ 100124d0 f i GestureControl.obj
 0001:00011510       ?FinalConstruct@CComObjectRootBase@ATL@@QAEJXZ 10012510 f i GestureControl.obj
 0001:00011530       ?FinalConstruct@CRegObject@ATL@@QAEJXZ 10012530 f i GestureControl.obj
 0001:00011560       ?FinalRelease@?$CComAggObject@VCOPOSGestureControl@@@ATL@@QAEXXZ 10012560 f i GestureControl.obj
 0001:000115a0       ?FinalRelease@CComObjectRootBase@ATL@@QAEXXZ 100125a0 f i GestureControl.obj
 0001:000115c0       ?FindConnectionPoint@?$IConnectionPointContainerImpl@VCOPOSGestureControl@@@ATL@@UAGJABU_GUID@@PAPAUIConnectionPoint@@@Z 100125c0 f i GestureControl.obj
 0001:00011710       ?FindKey@?$CSimpleMap@PA_WPA_WVCExpansionVectorEqualHelper@ATL@@@ATL@@QBEHABQA_W@Z 10012710 f i GestureControl.obj
 0001:00011780       ?FireTheEvent@?$CProxy_IOPOSEvents@VCOPOSGestureControl@@@@IAEXPAUIUnknown@@PAVOposVariant@@IAAJPB_WJ@Z 10012780 f i GestureControl.obj
 0001:000118f0       ?FireViewChange@CComControlBase@ATL@@QAEJXZ 100128f0 f i GestureControl.obj
 0001:000119b0       ?Fire_DirectIOEvent@?$CProxy_IOPOSEvents@VCOPOSGestureControl@@@@QAEXJPAJPAPA_W@Z 100129b0 f i GestureControl.obj
 0001:00011b80       ?Fire_ErrorEvent@?$CProxy_IOPOSEvents@VCOPOSGestureControl@@@@QAEXJJJPAJ@Z 10012b80 f i GestureControl.obj
 0001:00011d70       ?Fire_OutputCompleteEvent@?$CProxy_IOPOSEvents@VCOPOSGestureControl@@@@QAEXJ@Z 10012d70 f i GestureControl.obj
 0001:00011ed0       ?Fire_StatusUpdateEvent@?$CProxy_IOPOSEvents@VCOPOSGestureControl@@@@QAEXJ@Z 10012ed0 f i GestureControl.obj
 0001:00012030       ?FormatWindowClassName@AtlModuleRegisterWndClassInfoParamW@ATL@@SAXPA_WKPAX@Z 10013030 f i GestureControl.obj
 0001:00012060       ?Free@?$CAutoVectorPtr@_W@ATL@@QAEXXZ 10013060 f i GestureControl.obj
 0001:000120b0       ?FreeHeap@?$CTempBuffer@E$0BAA@VCCRTAllocator@ATL@@@ATL@@AAEXXZ 100130b0 f i GestureControl.obj
 0001:000120e0       ?FreeHeap@?$CTempBuffer@_W$0BAA@VCCRTAllocator@ATL@@@ATL@@AAEXXZ 100130e0 f i GestureControl.obj
 0001:00012110       ?FreeHeap@?$CTempBuffer@_W$0EAA@VCCRTAllocator@ATL@@@ATL@@AAEXXZ 10013110 f i GestureControl.obj
 0001:00012140       ?Freeze@?$IViewObjectExImpl@VCOPOSGestureControl@@@ATL@@UAGJKJPAXPAK@Z 10013140 f i GestureControl.obj
 0001:000121b0       ?GenerateError@CRegParser@ATL@@IAEJI@Z 100131b0 f i GestureControl.obj
 0001:000121d0       ?GetAdvise@?$IViewObjectExImpl@VCOPOSGestureControl@@@ATL@@UAGJPAK0PAPAUIAdviseSink@@@Z 100131d0 f i GestureControl.obj
 0001:000122d0       ?GetAmbientLocaleID@CComControlBase@ATL@@QAEJAAK@Z 100132d0 f i GestureControl.obj
 0001:000123b0       ?GetAmbientProperty@CComControlBase@ATL@@QAEJJAAUtagVARIANT@@@Z 100133b0 f i GestureControl.obj
 0001:00012400       ?GetAmbientUserMode@CComControlBase@ATL@@QAEJAAH@Z 10013400 f i GestureControl.obj
 0001:00012500       ?GetAppId@?$CAtlModuleT@VCComModule@ATL@@@ATL@@SAPB_WXZ 10013500 f i GestureControl.obj
 0001:00012510       ?GetAt@CComDynamicUnkArray@ATL@@QAEPAUIUnknown@@H@Z 10013510 f i GestureControl.obj
 0001:00012590       ?GetCanonicalFormatEtc@?$IDataObjectImpl@VCOPOSGestureControl@@@ATL@@UAGJPAUtagFORMATETC@@0@Z 10013590 f i GestureControl.obj
 0001:00012600       ?GetClassID@?$IPersistStorageImpl@VCOPOSGestureControl@@@ATL@@UAGJPAU_GUID@@@Z 10013600 f i GestureControl.obj
 0001:00012680       ?GetClassID@?$IPersistStreamInitImpl@VCOPOSGestureControl@@@ATL@@UAGJPAU_GUID@@@Z 10013680 f i GestureControl.obj
 0001:00012700       ?GetClassInfoExW@AtlModuleRegisterWndClassInfoParamW@ATL@@SAHPAUHINSTANCE__@@PB_WPAUtagWNDCLASSEXW@@@Z 10013700 f i GestureControl.obj
 0001:00012730       ?GetClassInfoW@?$IProvideClassInfo2Impl@$1?CLSID_OPOSGestureControl@@3U_GUID@@B$1?DIID__IOPOSGestureControlEvents@@3U2@B$1?LIBID_OposGestureControl_CCO@@3U2@B$00$0A@VCComTypeInfoHolder@ATL@@@ATL@@UAGJPAPAUITypeInfo@@@Z 10013730 f i GestureControl.obj
 0001:00012750       ?GetClassObject@CComModule@ATL@@QAEJABU_GUID@@0PAPAX@Z 10013750 f i GestureControl.obj
 0001:00012950       ?GetClientSite@?$IOleObjectImpl@VCOPOSGestureControl@@@ATL@@UAGJPAPAUIOleClientSite@@@Z 10013950 f i GestureControl.obj
 0001:000129e0       ?GetClipboardData@?$IOleObjectImpl@VCOPOSGestureControl@@@ATL@@UAGJKPAPAUIDataObject@@@Z 100139e0 f i GestureControl.obj
 0001:00012a50       ?GetCodeAddress@CDynamicStdCallThunk2@ATL@@QAEPAXXZ 10013a50 f i GestureControl.obj
 0001:00012a80       ?GetColorSet@?$IViewObjectExImpl@VCOPOSGestureControl@@@ATL@@UAGJKJPAXPAUtagDVTARGETDEVICE@@PAUHDC__@@PAPAUtagLOGPALETTE@@@Z 10013a80 f i GestureControl.obj
 0001:00012af0       ?GetConnMap@COPOSGestureControl@@SAPBU_ATL_CONNMAP_ENTRY@ATL@@PAH@Z 10013af0 f i GestureControl.obj
 0001:00012c30       ?GetConnectionInterface@?$IConnectionPointImpl@VCOPOSGestureControl@@$1?DIID__IOPOSGestureControlEvents@@3U_GUID@@BVCComDynamicUnkArray@ATL@@@ATL@@UAGJPAU_GUID@@@Z 10013c30 f i GestureControl.obj
 0001:00012c70       ?GetConnectionInterface@?$IConnectionPointImpl@VCOPOSGestureControl@@$1?IID_IPropertyNotifySink@@3U_GUID@@BVCComDynamicUnkArray@ATL@@@ATL@@UAGJPAU_GUID@@@Z 10013c70 f i GestureControl.obj
 0001:00012cb0       ?GetConnectionPointContainer@?$IConnectionPointImpl@VCOPOSGestureControl@@$1?DIID__IOPOSGestureControlEvents@@3U_GUID@@BVCComDynamicUnkArray@ATL@@@ATL@@UAGJPAPAUIConnectionPointContainer@@@Z 10013cb0 f i GestureControl.obj
 0001:00012d20       ?GetConnectionPointContainer@?$IConnectionPointImpl@VCOPOSGestureControl@@$1?IID_IPropertyNotifySink@@3U_GUID@@BVCComDynamicUnkArray@ATL@@@ATL@@UAGJPAPAUIConnectionPointContainer@@@Z 10013d20 f i GestureControl.obj
 0001:00012d90       ?GetContentExtent@?$IQuickActivateImpl@VCOPOSGestureControl@@@ATL@@UAGJPAUtagSIZE@@@Z 10013d90 f i GestureControl.obj
 0001:00012e20       ?GetControlInfo@?$IOleControlImpl@VCOPOSGestureControl@@@ATL@@UAGJPAUtagCONTROLINFO@@@Z 10013e20 f i GestureControl.obj
 0001:00012e90       ?GetCookie@CComDynamicUnkArray@ATL@@QAGKPAPAUIUnknown@@@Z 10013e90 f i GestureControl.obj
 0001:00012f50       ?GetData@?$IDataObjectImpl@VCOPOSGestureControl@@@ATL@@UAGJPAUtagFORMATETC@@PAUtagSTGMEDIUM@@@Z 10013f50 f i GestureControl.obj
 0001:00012fe0       ?GetData@CAtlSafeAllocBufferNode@?$CAtlSafeAllocBufferManager@VCCRTAllocator@ATL@@@_ATL_SAFE_ALLOCA_IMPL@ATL@@QAEPAXXZ 10013fe0 f i GestureControl.obj
 0001:00013000       ?GetDataHere@?$IDataObjectImpl@VCOPOSGestureControl@@@ATL@@UAGJPAUtagFORMATETC@@PAUtagSTGMEDIUM@@@Z 10014000 f i GestureControl.obj
 0001:00013070       ?GetDropTarget@?$IOleInPlaceObjectWindowlessImpl@VCOPOSGestureControl@@@ATL@@UAGJPAPAUIDropTarget@@@Z 10014070 f i GestureControl.obj
 0001:000130e0       ?GetExtent@?$IOleObjectImpl@VCOPOSGestureControl@@@ATL@@UAGJKPAUtagSIZE@@@Z 100140e0 f i GestureControl.obj
 0001:00013180       ?GetExtent@?$IViewObjectExImpl@VCOPOSGestureControl@@@ATL@@UAGJKJPAUtagDVTARGETDEVICE@@PAUtagSIZE@@@Z 10014180 f i GestureControl.obj
 0001:00013250       ?GetGITPtr@CAtlModule@ATL@@UAEJPAPAUIGlobalInterfaceTable@@@Z 10014250 f i GestureControl.obj
 0001:00013350       ?GetGUID@?$IProvideClassInfo2Impl@$1?CLSID_OPOSGestureControl@@3U_GUID@@B$1?DIID__IOPOSGestureControlEvents@@3U2@B$1?LIBID_OposGestureControl_CCO@@3U2@B$00$0A@VCComTypeInfoHolder@ATL@@@ATL@@UAGJKPAU_GUID@@@Z 10014350 f i GestureControl.obj
 0001:000133d0       ?GetIDsOfNames@?$IDispatchImpl@UIOPOSGestureControl@@$1?IID_IOPOSGestureControl@@3U_GUID@@B$1?LIBID_OposGestureControl_CCO@@3U3@B$00$0A@VCComTypeInfoHolder@ATL@@@ATL@@UAGJABU_GUID@@PAPA_WIKPAJ@Z 100143d0 f i GestureControl.obj
 0001:00013400       ?GetIDsOfNames@CComTypeInfoHolder@ATL@@QAEJABU_GUID@@PAPA_WIKPAJ@Z 10014400 f i GestureControl.obj
 0001:000135b0       ?GetInterfaceSafetyOptions@?$IObjectSafetyImpl@VCOPOSGestureControl@@$02@ATL@@UAGJABU_GUID@@PAK1@Z 100145b0 f i GestureControl.obj
 0001:00013720       ?GetKeyAt@?$CSimpleMap@PA_WPA_WVCExpansionVectorEqualHelper@ATL@@@ATL@@QBEAAPA_WH@Z 10014720 f i GestureControl.obj
 0001:000137a0       ?GetLockCount@CAtlModule@ATL@@UAEJXZ 100147a0 f i GestureControl.obj
 0001:000137c0       ?GetMiscStatus@?$IOleObjectImpl@VCOPOSGestureControl@@@ATL@@UAGJKPAK@Z 100147c0 f i GestureControl.obj
 0001:00013830       ?GetMoniker@?$IOleObjectImpl@VCOPOSGestureControl@@@ATL@@UAGJKKPAPAUIMoniker@@@Z 10014830 f i GestureControl.obj
 0001:000138a0       ?GetNaturalExtent@?$IViewObjectExImpl@VCOPOSGestureControl@@@ATL@@UAGJKJPAUtagDVTARGETDEVICE@@PAUHDC__@@PAUtagExtentInfo@@PAUtagSIZE@@@Z 100148a0 f i GestureControl.obj
 0001:000139c0       ?GetObjectCLSID@?$CComCoClass@VCOPOSGestureControl@@$1?CLSID_OPOSGestureControl@@3U_GUID@@B@ATL@@SGABU_GUID@@XZ 100149c0 f i GestureControl.obj
 0001:000139d0       ?GetPages@?$ISpecifyPropertyPagesImpl@VCOPOSGestureControl@@@ATL@@UAGJPAUtagCAUUID@@@Z 100149d0 f i GestureControl.obj
 0001:00013a40       ?GetPagesHelper@?$ISpecifyPropertyPagesImpl@VCOPOSGestureControl@@@ATL@@IAEJPAUtagCAUUID@@PBUATL_PROPMAP_ENTRY@2@@Z 10014a40 f i GestureControl.obj
 0001:00013c40       ?GetProperty@?$CComPtr@UIDispatch@@@ATL@@QAEJJPAUtagVARIANT@@@Z 10014c40 f i GestureControl.obj
 0001:00013c80       ?GetProperty@?$CComPtr@UIDispatch@@@ATL@@SAJPAUIDispatch@@JPAUtagVARIANT@@@Z 10014c80 f i GestureControl.obj
 0001:00013de0       ?GetPropertyMap@COPOSGestureControl@@SAPBUATL_PROPMAP_ENTRY@ATL@@XZ 10014de0 f i GestureControl.obj
 0001:00013df0       ?GetRect@?$IViewObjectExImpl@VCOPOSGestureControl@@@ATL@@UAGJKPAU_RECTL@@@Z 10014df0 f i GestureControl.obj
 0001:00013e60       ?GetSize@?$CSimpleMap@PA_WPA_WVCExpansionVectorEqualHelper@ATL@@@ATL@@QBEHXZ 10014e60 f i GestureControl.obj
 0001:00013e80       ?GetSize@CComDynamicUnkArray@ATL@@QBEHXZ 10014e80 f i GestureControl.obj
 0001:00013ea0       ?GetSizeMax@?$IPersistStreamInitImpl@VCOPOSGestureControl@@@ATL@@UAGJPAT_ULARGE_INTEGER@@@Z 10014ea0 f i GestureControl.obj
 0001:00014410       ?GetSizeMax@CComVariant@ATL@@QBEJPAT_ULARGE_INTEGER@@@Z 10015410 f i GestureControl.obj
 0001:00014770       ?GetStreamSize@CComBSTR@ATL@@SAKPA_W@Z 10015770 f i GestureControl.obj
 0001:000147c0       ?GetTI@CComTypeInfoHolder@ATL@@QAEJK@Z 100157c0 f i GestureControl.obj
 0001:00014fd0       ?GetTI@CComTypeInfoHolder@ATL@@QAEJKPAPAUITypeInfo@@@Z 10015fd0 f i GestureControl.obj
 0001:00015090       ?GetTypeInfo@?$IDispatchImpl@UIOPOSGestureControl@@$1?IID_IOPOSGestureControl@@3U_GUID@@B$1?LIBID_OposGestureControl_CCO@@3U3@B$00$0A@VCComTypeInfoHolder@ATL@@@ATL@@UAGJIKPAPAUITypeInfo@@@Z 10016090 f i GestureControl.obj
 0001:000150c0       ?GetTypeInfo@CComTypeInfoHolder@ATL@@QAEJIKPAPAUITypeInfo@@@Z 100160c0 f i GestureControl.obj
 0001:00015100       ?GetTypeInfoCount@?$IDispatchImpl@UIOPOSGestureControl@@$1?IID_IOPOSGestureControl@@3U_GUID@@B$1?LIBID_OposGestureControl_CCO@@3U3@B$00$0A@VCComTypeInfoHolder@ATL@@@ATL@@UAGJPAI@Z 10016100 f i GestureControl.obj
 0001:00015120       ?GetUnknown@CComDynamicUnkArray@ATL@@QAGPAUIUnknown@@K@Z 10016120 f i GestureControl.obj
 0001:00015190       ?GetUnknown@COPOSGestureControl@@QAEPAUIUnknown@@XZ 10016190 f i GestureControl.obj
 0001:000151c0       ?GetUserClassID@?$IOleObjectImpl@VCOPOSGestureControl@@@ATL@@UAGJPAU_GUID@@@Z 100161c0 f i GestureControl.obj
 0001:00015270       ?GetUserType@?$IOleObjectImpl@VCOPOSGestureControl@@@ATL@@UAGJKPAPA_W@Z 10016270 f i GestureControl.obj
 0001:000152e0       ?GetValueAt@?$CSimpleMap@PA_WPA_WVCExpansionVectorEqualHelper@ATL@@@ATL@@QBEAAPA_WH@Z 100162e0 f i GestureControl.obj
 0001:00015360       ?GetViewStatus@?$IViewObjectExImpl@VCOPOSGestureControl@@@ATL@@UAGJPAK@Z 10016360 f i GestureControl.obj
 0001:00015420       ?GetWNDPROC@CWndProcThunk@ATL@@QAEP6GJPAUHWND__@@IIJ@ZXZ 10016420 f i GestureControl.obj
 0001:00015450       ?GetWindow@?$IOleInPlaceActiveObjectImpl@VCOPOSGestureControl@@@ATL@@UAGJPAPAUHWND__@@@Z 10016450 f i GestureControl.obj
 0001:00015520       ?GetWindow@?$IOleInPlaceObjectWindowlessImpl@VCOPOSGestureControl@@@ATL@@UAGJPAPAUHWND__@@@Z 10016520 f i GestureControl.obj
 0001:000155f0       ?GetWindowLongPtrW@@YAJPAUHWND__@@H@Z 100165f0 f i GestureControl.obj
 0001:00015620       ?GetWindowProc@?$CWindowImplBaseT@VCWindow@ATL@@V?$CWinTraits@$0FGAAAAAA@$0A@@2@@ATL@@UAEP6GJPAUHWND__@@IIJ@ZXZ 10016620 f i GestureControl.obj
 0001:00015640       ?GetWndCaption@?$CWindowImpl@VCOPOSGestureControl@@VCWindow@ATL@@V?$CWinTraits@$0FGAAAAAA@$0A@@3@@ATL@@SAPB_WXZ 10016640 f i GestureControl.obj
 0001:00015650       ?GetWndClassInfo@?$CWindowImpl@VCOPOSGestureControl@@VCWindow@ATL@@V?$CWinTraits@$0FGAAAAAA@$0A@@3@@ATL@@SAAAU_ATL_WNDCLASSINFOW@2@XZ 10016650 f i GestureControl.obj
 0001:00015660       ?GetWndClassName@CWindow@ATL@@SAPB_WXZ 10016660 f i GestureControl.obj
 0001:00015670       ?GetWndExStyle@?$CWinTraits@$0FGAAAAAA@$0A@@ATL@@SAKK@Z 10016670 f i GestureControl.obj
 0001:000156a0       ?GetWndExStyle@?$CWindowImplBaseT@VCWindow@ATL@@V?$CWinTraits@$0FGAAAAAA@$0A@@2@@ATL@@SAKK@Z 100166a0 f i GestureControl.obj
 0001:000156c0       ?GetWndStyle@?$CWinTraits@$0FGAAAAAA@$0A@@ATL@@SAKK@Z 100166c0 f i GestureControl.obj
 0001:000156f0       ?GetWndStyle@?$CWindowImplBaseT@VCWindow@ATL@@V?$CWinTraits@$0FGAAAAAA@$0A@@2@@ATL@@SAKK@Z 100166f0 f i GestureControl.obj
 0001:00015710       ?GetZoomInfo@CComControlBase@ATL@@QAEXAAUATL_DRAWINFO@@@Z 10016710 f i GestureControl.obj
 0001:00015880       ?HKeyFromString@CRegParser@ATL@@KAPAUHKEY__@@PA_W@Z 10016880 f i GestureControl.obj
 0001:000158f0       ?HandsOffStorage@?$IPersistStorageImpl@VCOPOSGestureControl@@@ATL@@UAGJXZ 100168f0 f i GestureControl.obj
 0001:00015950       ?HasSubKeys@CRegParser@ATL@@IAEHPAUHKEY__@@@Z 10016950 f i GestureControl.obj
 0001:00015a60       ?IDataObject_GetData@CComControlBase@ATL@@QAEJPAUtagFORMATETC@@PAUtagSTGMEDIUM@@@Z 10016a60 f i GestureControl.obj
 0001:00015e80       ?IOleInPlaceObject_InPlaceDeactivate@CComControlBase@ATL@@QAEJXZ 10016e80 f i GestureControl.obj
 0001:00016080       ?IOleInPlaceObject_SetObjectRects@CComControlBase@ATL@@QAEJPBUtagRECT@@0@Z 10017080 f i GestureControl.obj
 0001:00016240       ?IOleInPlaceObject_UIDeactivate@CComControlBase@ATL@@QAEJXZ 10017240 f i GestureControl.obj
 0001:000164b0       ?IOleObject_Advise@CComControlBase@ATL@@QAEJPAUIAdviseSink@@PAK@Z 100174b0 f i GestureControl.obj
 0001:00016560       ?IOleObject_Close@CComControlBase@ATL@@QAEJK@Z 10017560 f i GestureControl.obj
 0001:00016810       ?IOleObject_GetClientSite@CComControlBase@ATL@@QAEJPAPAUIOleClientSite@@@Z 10017810 f i GestureControl.obj
 0001:000168b0       ?IOleObject_SetClientSite@CComControlBase@ATL@@QAEJPAUIOleClientSite@@@Z 100178b0 f i GestureControl.obj
 0001:00016980       ?IOleObject_SetExtent@CComControlBase@ATL@@QAEJKPAUtagSIZE@@@Z 10017980 f i GestureControl.obj
 0001:00016ac0       ?IPSI_GetIPersistStreamInit@?$IPersistStorageImpl@VCOPOSGestureControl@@@ATL@@AAEPAUIPersistStreamInit@@XZ 10017ac0 f i GestureControl.obj
 0001:00016b90       ?IPersistStreamInit_Load@?$IPersistStreamInitImpl@VCOPOSGestureControl@@@ATL@@QAEJPAUIStream@@PBUATL_PROPMAP_ENTRY@2@@Z 10017b90 f i GestureControl.obj
 0001:00016c10       ?IPersistStreamInit_Save@?$IPersistStreamInitImpl@VCOPOSGestureControl@@@ATL@@QAEJPAUIStream@@HPBUATL_PROPMAP_ENTRY@2@@Z 10017c10 f i GestureControl.obj
 0001:00016ca0       ?IQuickActivate_QuickActivate@CComControlBase@ATL@@QAEJPAUtagQACONTAINER@@PAUtagQACONTROL@@@Z 10017ca0 f i GestureControl.obj
 0001:000172f0       ?IViewObject_Draw@CComControlBase@ATL@@QAEJKJPAXPAUtagDVTARGETDEVICE@@PAUHDC__@@2PBU_RECTL@@3@Z 100182f0 f i GestureControl.obj
 0001:00017590       ?InPlaceActivate@CComControlBase@ATL@@QAEJJPBUtagRECT@@@Z 10018590 f i GestureControl.obj
 0001:00017f20       ?InPlaceDeactivate@?$IOleInPlaceObjectWindowlessImpl@VCOPOSGestureControl@@@ATL@@UAGJXZ 10018f20 f i GestureControl.obj
 0001:00017fa0       ?Increment@CComMultiThreadModel@ATL@@SGKPAJ@Z 10018fa0 f i GestureControl.obj
 0001:00017fc0       ?Increment@CComSingleThreadModel@ATL@@SGKPAJ@Z 10018fc0 f i GestureControl.obj
 0001:00017fe0       ?Init@?$CComEnumImpl@UIEnumConnectionPoints@@$1?_GUID_b196b285_bab4_101a_b69c_00aa00341d07@@3U__s_GUID@@BPAUIConnectionPoint@@V?$_CopyInterface@UIConnectionPoint@@@ATL@@@ATL@@QAEJPAPAUIConnectionPoint@@0PAUIUnknown@@W4CComEnumFlags@2@@Z 10018fe0 f i GestureControl.obj
 0001:000181c0       ?Init@?$CComEnumImpl@UIEnumConnections@@$1?_GUID_b196b287_bab4_101a_b69c_00aa00341d07@@3U__s_GUID@@BUtagCONNECTDATA@@V?$_Copy@UtagCONNECTDATA@@@ATL@@@ATL@@QAEJPAUtagCONNECTDATA@@0PAUIUnknown@@W4CComEnumFlags@2@@Z 100191c0 f i GestureControl.obj
 0001:000183a0       ?Init@CComFakeCriticalSection@ATL@@QAEJXZ 100193a0 f i GestureControl.obj
 0001:000183c0       ?Init@CComModule@ATL@@QAEJPAU_ATL_OBJMAP_ENTRY30@2@PAUHINSTANCE__@@PBU_GUID@@@Z 100193c0 f i GestureControl.obj
 0001:000184b0       ?Init@CComSafeDeleteCriticalSection@ATL@@QAEJXZ 100194b0 f i GestureControl.obj
 0001:00018530       ?Init@CDynamicStdCallThunk2@ATL@@QAEHKPAX@Z 10019530 f i GestureControl.obj
 0001:00018590       ?Init@CWndProcThunk@ATL@@QAEHP6GJPAUHWND__@@IIJ@ZPAX@Z 10019590 f i GestureControl.obj
 0001:000185d0       ?InitFromData@?$IOleObjectImpl@VCOPOSGestureControl@@@ATL@@UAGJPAUIDataObject@@HK@Z 100195d0 f i GestureControl.obj
 0001:00018640       ?InitLibId@?$CAtlModuleT@VCComModule@ATL@@@ATL@@SAXXZ 10019640 f i GestureControl.obj
 0001:00018650       ?InitNew@?$IPersistStorageImpl@VCOPOSGestureControl@@@ATL@@UAGJPAUIStorage@@@Z 10019650 f i GestureControl.obj
 0001:00018740       ?InitNew@?$IPersistStreamInitImpl@VCOPOSGestureControl@@@ATL@@UAGJXZ 10019740 f i GestureControl.obj
 0001:000187d0       ?InlineIsEqualUnknown@ATL@@YGHABU_GUID@@@Z 100197d0 f i GestureControl.obj
 0001:00018840       ?InternalAddRef@?$CComObjectRootEx@VCComMultiThreadModel@ATL@@@ATL@@QAEKXZ 10019840 f i GestureControl.obj
 0001:000188a0       ?InternalAddRef@?$CComObjectRootEx@VCComSingleThreadModel@ATL@@@ATL@@QAEKXZ 100198a0 f i GestureControl.obj
 0001:00018900       ?InternalFinalConstructAddRef@CComObjectRootBase@ATL@@QAEXXZ 10019900 f i GestureControl.obj
 0001:00018920       ?InternalFinalConstructAddRef@COPOSGestureControl@@QAEXXZ 10019920 f i GestureControl.obj
 0001:00018950       ?InternalFinalConstructRelease@CComObjectRootBase@ATL@@QAEXXZ 10019950 f i GestureControl.obj
 0001:000189a0       ?InternalFinalConstructRelease@COPOSGestureControl@@QAEXXZ 100199a0 f i GestureControl.obj
 0001:000189d0       ?InternalGetSite@CComControlBase@ATL@@QAEJABU_GUID@@PAPAX@Z 100199d0 f i GestureControl.obj
 0001:00018a90       ?InternalQueryInterface@CComObjectRootBase@ATL@@SGJPAXPBU_ATL_INTMAP_ENTRY@2@ABU_GUID@@PAPAX@Z 10019a90 f i GestureControl.obj
 0001:00018b50       ?InternalRelease@?$CComObjectRootEx@VCComMultiThreadModel@ATL@@@ATL@@QAEKXZ 10019b50 f i GestureControl.obj
 0001:00018bc0       ?InternalRelease@?$CComObjectRootEx@VCComSingleThreadModel@ATL@@@ATL@@QAEKXZ 10019bc0 f i GestureControl.obj
 0001:00018c30       ?InternalSetAtIndex@?$CSimpleArray@GV?$CSimpleArrayEqualHelper@G@ATL@@@ATL@@QAEXHABG@Z 10019c30 f i GestureControl.obj
 0001:00018ca0       ?InternalSetAtIndex@?$CSimpleMap@PA_WPA_WVCExpansionVectorEqualHelper@ATL@@@ATL@@QAEXHABQA_W0@Z 10019ca0 f i GestureControl.obj
 0001:00018d40       ?Invoke@?$IDispatchImpl@UIOPOSGestureControl@@$1?IID_IOPOSGestureControl@@3U_GUID@@B$1?LIBID_OposGestureControl_CCO@@3U3@B$00$0A@VCComTypeInfoHolder@ATL@@@ATL@@UAGJJABU_GUID@@KGPAUtagDISPPARAMS@@PAUtagVARIANT@@PAUtagEXCEPINFO@@PAI@Z 10019d40 f i GestureControl.obj
 0001:00018d80       ?Invoke@CComTypeInfoHolder@ATL@@QAEJPAUIDispatch@@JABU_GUID@@KGPAUtagDISPPARAMS@@PAUtagVARIANT@@PAUtagEXCEPINFO@@PAI@Z 10019d80 f i GestureControl.obj
 0001:00018e10       ?IsDirty@?$IPersistStorageImpl@VCOPOSGestureControl@@@ATL@@UAGJXZ 10019e10 f i GestureControl.obj
 0001:00018f00       ?IsDirty@?$IPersistStreamInitImpl@VCOPOSGestureControl@@@ATL@@UAGJXZ 10019f00 f i GestureControl.obj
 0001:00018fa0       ?IsEqualKey@CExpansionVectorEqualHelper@ATL@@SA_NQA_W0@Z 10019fa0 f i GestureControl.obj
 0001:00018fd0       ?IsEqualObject@?$CComPtrBase@UIOleClientSite@@@ATL@@QAE_NPAUIUnknown@@@Z 10019fd0 f i GestureControl.obj
 0001:00019100       ?IsEqualObject@?$CComPtrBase@UITypeInfo@@@ATL@@QAE_NPAUIUnknown@@@Z 1001a100 f i GestureControl.obj
 0001:00019230       ?IsSpace@CRegParser@ATL@@IAEH_W@Z 1001a230 f i GestureControl.obj
 0001:000192a0       ?IsUpToDate@?$IOleObjectImpl@VCOPOSGestureControl@@@ATL@@UAGJXZ 1001a2a0 f i GestureControl.obj
 0001:00019300       ?Length@CComBSTR@ATL@@QBEIXZ 1001a300 f i GestureControl.obj
 0001:00019340       ?Load@?$IPersistStorageImpl@VCOPOSGestureControl@@@ATL@@UAGJPAUIStorage@@@Z 1001a340 f i GestureControl.obj
 0001:000194a0       ?Load@?$IPersistStreamInitImpl@VCOPOSGestureControl@@@ATL@@UAGJPAUIStream@@@Z 1001a4a0 f i GestureControl.obj
 0001:00019530       ?LoadCursorW@AtlModuleRegisterWndClassInfoParamW@ATL@@SAPAUHICON__@@PAUHINSTANCE__@@PB_W@Z 1001a530 f i GestureControl.obj
 0001:00019560       ?LoadNameCache@CComTypeInfoHolder@ATL@@QAEJPAUITypeInfo@@@Z 1001a560 f i GestureControl.obj
 0001:000197f0       ?Lock@?$CComCritSecLock@VCComCriticalSection@ATL@@@ATL@@QAEJXZ 1001a7f0 f i GestureControl.obj
 0001:000198a0       ?Lock@?$CComObjectRootEx@VCComSingleThreadModel@ATL@@@ATL@@QAEXXZ 1001a8a0 f i GestureControl.obj
 0001:000198c0       ?Lock@CAtlModule@ATL@@UAEJXZ 1001a8c0 f i GestureControl.obj
 0001:000198f0       ?Lock@CComCriticalSection@ATL@@QAEJXZ 1001a8f0 f i GestureControl.obj
 0001:00019930       ?Lock@CComFakeCriticalSection@ATL@@QAEJXZ 1001a930 f i GestureControl.obj
 0001:00019950       ?LockServer@CComClassFactory@ATL@@UAGJH@Z 1001a950 f i GestureControl.obj
 0001:000199b0       ?Lookup@?$CSimpleMap@PA_WPA_WVCExpansionVectorEqualHelper@ATL@@@ATL@@QBEPA_WABQA_W@Z 1001a9b0 f i GestureControl.obj
 0001:00019a00       ?Next@?$CComEnumImpl@UIEnumConnectionPoints@@$1?_GUID_b196b285_bab4_101a_b69c_00aa00341d07@@3U__s_GUID@@BPAUIConnectionPoint@@V?$_CopyInterface@UIConnectionPoint@@@ATL@@@ATL@@UAGJKPAPAUIConnectionPoint@@PAK@Z 1001aa00 f i GestureControl.obj
 0001:00019b70       ?Next@?$CComEnumImpl@UIEnumConnections@@$1?_GUID_b196b287_bab4_101a_b69c_00aa00341d07@@3U__s_GUID@@BUtagCONNECTDATA@@V?$_Copy@UtagCONNECTDATA@@@ATL@@@ATL@@UAGJKPAUtagCONNECTDATA@@PAK@Z 1001ab70 f i GestureControl.obj
 0001:00019ce0       ?NextToken@CRegParser@ATL@@IAEJPA_W@Z 1001ace0 f i GestureControl.obj
 0001:00019f80       ?OLE2CT_EX@@YAPB_WPB_WI@Z  1001af80 f i GestureControl.obj
 0001:00019f90       ?OLE2CT_EX_DEF@@YAPB_WPB_W@Z 1001af90 f i GestureControl.obj
 0001:00019fa0       ?OLE2T_EX@@YAPA_WPA_WI@Z   1001afa0 f i GestureControl.obj
 0001:00019fb0       ?OnAmbientPropertyChange@?$IOleControlImpl@VCOPOSGestureControl@@@ATL@@UAGJJ@Z 1001afb0 f i GestureControl.obj
 0001:0001a040       ?OnDocWindowActivate@?$IOleInPlaceActiveObjectImpl@VCOPOSGestureControl@@@ATL@@UAGJH@Z 1001b040 f i GestureControl.obj
 0001:0001a0d0       ?OnDrawAdvanced@CComControlBase@ATL@@UAEJAAUATL_DRAWINFO@@@Z 1001b0d0 f i GestureControl.obj
 0001:0001a2f0       ?OnFinalMessage@?$CWindowImplBaseT@VCWindow@ATL@@V?$CWinTraits@$0FGAAAAAA@$0A@@2@@ATL@@UAEXPAUHWND__@@@Z 1001b2f0 f i GestureControl.obj
 0001:0001a310       ?OnFrameWindowActivate@?$IOleInPlaceActiveObjectImpl@VCOPOSGestureControl@@@ATL@@UAGJH@Z 1001b310 f i GestureControl.obj
 0001:0001a370       ?OnKillFocus@CComControlBase@ATL@@QAEJIIJAAH@Z 1001b370 f i GestureControl.obj
 0001:0001a470       ?OnMnemonic@?$IOleControlImpl@VCOPOSGestureControl@@@ATL@@UAGJPAUtagMSG@@@Z 1001b470 f i GestureControl.obj
 0001:0001a4e0       ?OnMouseActivate@CComControlBase@ATL@@QAEJIIJAAH@Z 1001b4e0 f i GestureControl.obj
 0001:0001a630       ?OnPaint@CComControlBase@ATL@@QAEJIIJAAH@Z 1001b630 f i GestureControl.obj
 0001:0001a7b0       ?OnPostVerbDiscardUndo@?$IOleObjectImpl@VCOPOSGestureControl@@@ATL@@QAEJXZ 1001b7b0 f i GestureControl.obj
 0001:0001a7d0       ?OnPostVerbHide@?$IOleObjectImpl@VCOPOSGestureControl@@@ATL@@QAEJXZ 1001b7d0 f i GestureControl.obj
 0001:0001a7f0       ?OnPostVerbInPlaceActivate@?$IOleObjectImpl@VCOPOSGestureControl@@@ATL@@QAEJXZ 1001b7f0 f i GestureControl.obj
 0001:0001a810       ?OnPostVerbOpen@?$IOleObjectImpl@VCOPOSGestureControl@@@ATL@@QAEJXZ 1001b810 f i GestureControl.obj
 0001:0001a830       ?OnPostVerbShow@?$IOleObjectImpl@VCOPOSGestureControl@@@ATL@@QAEJXZ 1001b830 f i GestureControl.obj
 0001:0001a850       ?OnPostVerbUIActivate@?$IOleObjectImpl@VCOPOSGestureControl@@@ATL@@QAEJXZ 1001b850 f i GestureControl.obj
 0001:0001a870       ?OnPreVerbDiscardUndo@?$IOleObjectImpl@VCOPOSGestureControl@@@ATL@@QAEJXZ 1001b870 f i GestureControl.obj
 0001:0001a890       ?OnPreVerbHide@?$IOleObjectImpl@VCOPOSGestureControl@@@ATL@@QAEJXZ 1001b890 f i GestureControl.obj
 0001:0001a8b0       ?OnPreVerbInPlaceActivate@?$IOleObjectImpl@VCOPOSGestureControl@@@ATL@@QAEJXZ 1001b8b0 f i GestureControl.obj
 0001:0001a8d0       ?OnPreVerbOpen@?$IOleObjectImpl@VCOPOSGestureControl@@@ATL@@QAEJXZ 1001b8d0 f i GestureControl.obj
 0001:0001a8f0       ?OnPreVerbShow@?$IOleObjectImpl@VCOPOSGestureControl@@@ATL@@QAEJXZ 1001b8f0 f i GestureControl.obj
 0001:0001a910       ?OnPreVerbUIActivate@?$IOleObjectImpl@VCOPOSGestureControl@@@ATL@@QAEJXZ 1001b910 f i GestureControl.obj
 0001:0001a930       ?OnSetFocus@CComControlBase@ATL@@QAEJIIJAAH@Z 1001b930 f i GestureControl.obj
 0001:0001aac0       ?OnWindowMessage@?$IOleInPlaceObjectWindowlessImpl@VCOPOSGestureControl@@@ATL@@UAGJIIJPAJ@Z 1001bac0 f i GestureControl.obj
 0001:0001ac20       ?Open@CRegKey@ATL@@QAEJPAUHKEY__@@PB_WK@Z 1001bc20 f i GestureControl.obj
 0001:0001ad70       ?OuterAddRef@CComObjectRootBase@ATL@@QAEKXZ 1001bd70 f i GestureControl.obj
 0001:0001adb0       ?OuterQueryInterface@CComObjectRootBase@ATL@@QAEJABU_GUID@@PAPAX@Z 1001bdb0 f i GestureControl.obj
 0001:0001ae00       ?OuterRelease@CComObjectRootBase@ATL@@QAEKXZ 1001be00 f i GestureControl.obj
 0001:0001ae40       ?PreProcessBuffer@CRegParser@ATL@@QAEJPA_WPAPA_W@Z 1001be40 f i GestureControl.obj
 0001:0001b380       ?PreTranslateAccelerator@CComControlBase@ATL@@QAEHPAUtagMSG@@AAJ@Z 1001c380 f i GestureControl.obj
 0001:0001b3a0       ?ProcessWindowMessage@?$CComControl@VCOPOSGestureControl@@V?$CWindowImpl@VCOPOSGestureControl@@VCWindow@ATL@@V?$CWinTraits@$0FGAAAAAA@$0A@@3@@ATL@@@ATL@@UAEHPAUHWND__@@IIJAAJK@Z 1001c3a0 f i GestureControl.obj
 0001:0001b570       ?ProcessWindowMessage@COPOSGestureControl@@UAEHPAUHWND__@@IIJAAJK@Z 1001c570 f i GestureControl.obj
 0001:0001b670       ?PutProperty@?$CComPtr@UIDispatch@@@ATL@@QAEJJPAUtagVARIANT@@@Z 1001c670 f i GestureControl.obj
 0001:0001b6b0       ?PutProperty@?$CComPtr@UIDispatch@@@ATL@@SAJPAUIDispatch@@JPAUtagVARIANT@@@Z 1001c6b0 f i GestureControl.obj
 0001:0001b8a0       ?QueryGetData@?$IDataObjectImpl@VCOPOSGestureControl@@@ATL@@UAGJPAUtagFORMATETC@@@Z 1001c8a0 f i GestureControl.obj
 0001:0001b910       ?QueryHitPoint@?$IViewObjectExImpl@VCOPOSGestureControl@@@ATL@@UAGJKPBUtagRECT@@UtagPOINT@@JPAK@Z 1001c910 f i GestureControl.obj
 0001:0001ba20       ?QueryHitRect@?$IViewObjectExImpl@VCOPOSGestureControl@@@ATL@@UAGJKPBUtagRECT@@0JPAK@Z 1001ca20 f i GestureControl.obj
 0001:0001bb70       ?QueryInterface@?$CComAggObject@VCOPOSGestureControl@@@ATL@@UAGJABU_GUID@@PAPAX@Z 1001cb70 f i GestureControl.obj
 0001:0001bc20       ?QueryInterface@?$CComContainedObject@VCOPOSGestureControl@@@ATL@@UAGJABU_GUID@@PAPAX@Z 1001cc20 f i GestureControl.obj
 0001:0001bc44       ?QueryInterface@?$CComContainedObject@VCOPOSGestureControl@@@ATL@@WHA@AGJABU_GUID@@PAPAX@Z 1001cc44 f i GestureControl.obj
 0001:0001bc4e       ?QueryInterface@?$CComContainedObject@VCOPOSGestureControl@@@ATL@@WHE@AGJABU_GUID@@PAPAX@Z 1001cc4e f i GestureControl.obj
 0001:0001bc58       ?QueryInterface@?$CComContainedObject@VCOPOSGestureControl@@@ATL@@WHI@AGJABU_GUID@@PAPAX@Z 1001cc58 f i GestureControl.obj
 0001:0001bc62       ?QueryInterface@?$CComContainedObject@VCOPOSGestureControl@@@ATL@@WHM@AGJABU_GUID@@PAPAX@Z 1001cc62 f i GestureControl.obj
 0001:0001bc6c       ?QueryInterface@?$CComContainedObject@VCOPOSGestureControl@@@ATL@@WIA@AGJABU_GUID@@PAPAX@Z 1001cc6c f i GestureControl.obj
 0001:0001bc79       ?QueryInterface@?$CComContainedObject@VCOPOSGestureControl@@@ATL@@WIE@AGJABU_GUID@@PAPAX@Z 1001cc79 f i GestureControl.obj
 0001:0001bc86       ?QueryInterface@?$CComContainedObject@VCOPOSGestureControl@@@ATL@@WII@AGJABU_GUID@@PAPAX@Z 1001cc86 f i GestureControl.obj
 0001:0001bc93       ?QueryInterface@?$CComContainedObject@VCOPOSGestureControl@@@ATL@@WIM@AGJABU_GUID@@PAPAX@Z 1001cc93 f i GestureControl.obj
 0001:0001bca0       ?QueryInterface@?$CComContainedObject@VCOPOSGestureControl@@@ATL@@WJA@AGJABU_GUID@@PAPAX@Z 1001cca0 f i GestureControl.obj
 0001:0001bcad       ?QueryInterface@?$CComContainedObject@VCOPOSGestureControl@@@ATL@@WJE@AGJABU_GUID@@PAPAX@Z 1001ccad f i GestureControl.obj
 0001:0001bcba       ?QueryInterface@?$CComContainedObject@VCOPOSGestureControl@@@ATL@@WJI@AGJABU_GUID@@PAPAX@Z 1001ccba f i GestureControl.obj
 0001:0001bcc7       ?QueryInterface@?$CComContainedObject@VCOPOSGestureControl@@@ATL@@WJM@AGJABU_GUID@@PAPAX@Z 1001ccc7 f i GestureControl.obj
 0001:0001bcd4       ?QueryInterface@?$CComContainedObject@VCOPOSGestureControl@@@ATL@@WKA@AGJABU_GUID@@PAPAX@Z 1001ccd4 f i GestureControl.obj
 0001:0001bcf0       ?QueryInterface@?$CComObject@V?$CComEnum@UIEnumConnectionPoints@@$1?_GUID_b196b285_bab4_101a_b69c_00aa00341d07@@3U__s_GUID@@BPAUIConnectionPoint@@V?$_CopyInterface@UIConnectionPoint@@@ATL@@VCComSingleThreadModel@6@@ATL@@@ATL@@UAGJABU_GUID@@PAPAX@Z 1001ccf0 f i GestureControl.obj
 0001:0001bd10       ?QueryInterface@?$CComObject@V?$CComEnum@UIEnumConnections@@$1?_GUID_b196b287_bab4_101a_b69c_00aa00341d07@@3U__s_GUID@@BUtagCONNECTDATA@@V?$_Copy@UtagCONNECTDATA@@@ATL@@VCComSingleThreadModel@6@@ATL@@@ATL@@UAGJABU_GUID@@PAPAX@Z 1001cd10 f i GestureControl.obj
 0001:0001bd30       ?QueryInterface@?$CComObject@VCOPOSGestureControl@@@ATL@@UAGJABU_GUID@@PAPAX@Z 1001cd30 f i GestureControl.obj
 0001:0001bd4e       ?QueryInterface@?$CComObject@VCOPOSGestureControl@@@ATL@@WHA@AGJABU_GUID@@PAPAX@Z 1001cd4e f i GestureControl.obj
 0001:0001bd58       ?QueryInterface@?$CComObject@VCOPOSGestureControl@@@ATL@@WHE@AGJABU_GUID@@PAPAX@Z 1001cd58 f i GestureControl.obj
 0001:0001bd62       ?QueryInterface@?$CComObject@VCOPOSGestureControl@@@ATL@@WHI@AGJABU_GUID@@PAPAX@Z 1001cd62 f i GestureControl.obj
 0001:0001bd6c       ?QueryInterface@?$CComObject@VCOPOSGestureControl@@@ATL@@WHM@AGJABU_GUID@@PAPAX@Z 1001cd6c f i GestureControl.obj
 0001:0001bd76       ?QueryInterface@?$CComObject@VCOPOSGestureControl@@@ATL@@WIA@AGJABU_GUID@@PAPAX@Z 1001cd76 f i GestureControl.obj
 0001:0001bd83       ?QueryInterface@?$CComObject@VCOPOSGestureControl@@@ATL@@WIE@AGJABU_GUID@@PAPAX@Z 1001cd83 f i GestureControl.obj
 0001:0001bd90       ?QueryInterface@?$CComObject@VCOPOSGestureControl@@@ATL@@WII@AGJABU_GUID@@PAPAX@Z 1001cd90 f i GestureControl.obj
 0001:0001bd9d       ?QueryInterface@?$CComObject@VCOPOSGestureControl@@@ATL@@WIM@AGJABU_GUID@@PAPAX@Z 1001cd9d f i GestureControl.obj
 0001:0001bdaa       ?QueryInterface@?$CComObject@VCOPOSGestureControl@@@ATL@@WJA@AGJABU_GUID@@PAPAX@Z 1001cdaa f i GestureControl.obj
 0001:0001bdb7       ?QueryInterface@?$CComObject@VCOPOSGestureControl@@@ATL@@WJE@AGJABU_GUID@@PAPAX@Z 1001cdb7 f i GestureControl.obj
 0001:0001bdc4       ?QueryInterface@?$CComObject@VCOPOSGestureControl@@@ATL@@WJI@AGJABU_GUID@@PAPAX@Z 1001cdc4 f i GestureControl.obj
 0001:0001bdd1       ?QueryInterface@?$CComObject@VCOPOSGestureControl@@@ATL@@WJM@AGJABU_GUID@@PAPAX@Z 1001cdd1 f i GestureControl.obj
 0001:0001bdde       ?QueryInterface@?$CComObject@VCOPOSGestureControl@@@ATL@@WKA@AGJABU_GUID@@PAPAX@Z 1001cdde f i GestureControl.obj
 0001:0001bdf0       ?QueryInterface@?$CComObjectCached@VCComClassFactory@ATL@@@ATL@@UAGJABU_GUID@@PAPAX@Z 1001cdf0 f i GestureControl.obj
 0001:0001be10       ?QueryInterface@CRegObject@ATL@@UAGJABU_GUID@@PAPAX@Z 1001ce10 f i GestureControl.obj
 0001:0001be60       ?QuickActivate@?$IQuickActivateImpl@VCOPOSGestureControl@@@ATL@@UAGJPAUtagQACONTAINER@@PAUtagQACONTROL@@@Z 1001ce60 f i GestureControl.obj
 0001:0001bef0       ?ReactivateAndUndo@?$IOleInPlaceObjectWindowlessImpl@VCOPOSGestureControl@@@ATL@@UAGJXZ 1001cef0 f i GestureControl.obj
 0001:0001bf60       ?ReadFromStream@CComBSTR@ATL@@QAEJPAUIStream@@@Z 1001cf60 f i GestureControl.obj
 0001:0001c360       ?ReadFromStream@CComVariant@ATL@@QAEJPAUIStream@@GTClassesAllowedInStream@2@K@Z 1001d360 f i GestureControl.obj
 0001:0001c6c0       ?RecurseDeleteKey@CRegKey@ATL@@QAEJPB_W@Z 1001d6c0 f i GestureControl.obj
 0001:0001c8a0       ?RegCreateKeyExW@CAtlTransactionManager@ATL@@QAEJPAUHKEY__@@PB_WKPA_WKKQAU_SECURITY_ATTRIBUTES@@PAPAU3@PAK@Z 1001d8a0 f i GestureControl.obj
 0001:0001c9d0       ?RegDeleteKeyW@CAtlTransactionManager@ATL@@QAEJPAUHKEY__@@PB_W@Z 1001d9d0 f i GestureControl.obj
 0001:0001cad0       ?RegOpenKeyExW@CAtlTransactionManager@ATL@@QAEJPAUHKEY__@@PB_WKKPAPAU3@@Z 1001dad0 f i GestureControl.obj
 0001:0001cbe0       ?Register@_ATL_WNDCLASSINFOW@ATL@@QAEGPAP6GJPAUHWND__@@IIJ@Z@Z 1001dbe0 f i GestureControl.obj
 0001:0001cc20       ?RegisterBuffer@CRegParser@ATL@@QAEJPA_WH@Z 1001dc20 f i GestureControl.obj
 0001:0001cf50       ?RegisterClassExW@AtlModuleRegisterWndClassInfoParamW@ATL@@SAGPAU_ATL_WIN_MODULE70@2@PBUtagWNDCLASSEXW@@@Z 1001df50 f i GestureControl.obj
 0001:0001cf70       ?RegisterFromResource@CRegObject@ATL@@IAEJPB_W00H@Z 1001df70 f i GestureControl.obj
 0001:0001d300       ?RegisterServer@?$CAtlModuleT@VCComModule@ATL@@@ATL@@QAEJHPBU_GUID@@@Z 1001e300 f i GestureControl.obj
 0001:0001d380       ?RegisterServer@CAtlComModule@ATL@@QAEJHPBU_GUID@@@Z 1001e380 f i GestureControl.obj
 0001:0001d3b0       ?RegisterServer@CComModule@ATL@@QAEJHPBU_GUID@@@Z 1001e3b0 f i GestureControl.obj
 0001:0001d490       ?RegisterSubkeys@CRegParser@ATL@@IAEJPA_WPAUHKEY__@@HH@Z 1001e490 f i GestureControl.obj
 0001:0001dfb0       ?Release@?$CComAggObject@VCOPOSGestureControl@@@ATL@@UAGKXZ 1001efb0 f i GestureControl.obj
 0001:0001e070       ?Release@?$CComContainedObject@VCOPOSGestureControl@@@ATL@@UAGKXZ 1001f070 f i GestureControl.obj
 0001:0001e08c       ?Release@?$CComContainedObject@VCOPOSGestureControl@@@ATL@@WHA@AGKXZ 1001f08c f i GestureControl.obj
 0001:0001e096       ?Release@?$CComContainedObject@VCOPOSGestureControl@@@ATL@@WHE@AGKXZ 1001f096 f i GestureControl.obj
 0001:0001e0a0       ?Release@?$CComContainedObject@VCOPOSGestureControl@@@ATL@@WHI@AGKXZ 1001f0a0 f i GestureControl.obj
 0001:0001e0aa       ?Release@?$CComContainedObject@VCOPOSGestureControl@@@ATL@@WHM@AGKXZ 1001f0aa f i GestureControl.obj
 0001:0001e0b4       ?Release@?$CComContainedObject@VCOPOSGestureControl@@@ATL@@WIA@AGKXZ 1001f0b4 f i GestureControl.obj
 0001:0001e0c1       ?Release@?$CComContainedObject@VCOPOSGestureControl@@@ATL@@WIE@AGKXZ 1001f0c1 f i GestureControl.obj
 0001:0001e0ce       ?Release@?$CComContainedObject@VCOPOSGestureControl@@@ATL@@WII@AGKXZ 1001f0ce f i GestureControl.obj
 0001:0001e0db       ?Release@?$CComContainedObject@VCOPOSGestureControl@@@ATL@@WIM@AGKXZ 1001f0db f i GestureControl.obj
 0001:0001e0e8       ?Release@?$CComContainedObject@VCOPOSGestureControl@@@ATL@@WJA@AGKXZ 1001f0e8 f i GestureControl.obj
 0001:0001e0f5       ?Release@?$CComContainedObject@VCOPOSGestureControl@@@ATL@@WJE@AGKXZ 1001f0f5 f i GestureControl.obj
 0001:0001e102       ?Release@?$CComContainedObject@VCOPOSGestureControl@@@ATL@@WJI@AGKXZ 1001f102 f i GestureControl.obj
 0001:0001e10f       ?Release@?$CComContainedObject@VCOPOSGestureControl@@@ATL@@WJM@AGKXZ 1001f10f f i GestureControl.obj
 0001:0001e11c       ?Release@?$CComContainedObject@VCOPOSGestureControl@@@ATL@@WKA@AGKXZ 1001f11c f i GestureControl.obj
 0001:0001e129       ?Release@?$CComContainedObject@VCOPOSGestureControl@@@ATL@@WKI@AGKXZ 1001f129 f i GestureControl.obj
 0001:0001e136       ?Release@?$CComContainedObject@VCOPOSGestureControl@@@ATL@@WLE@AGKXZ 1001f136 f i GestureControl.obj
 0001:0001e150       ?Release@?$CComObject@V?$CComEnum@UIEnumConnectionPoints@@$1?_GUID_b196b285_bab4_101a_b69c_00aa00341d07@@3U__s_GUID@@BPAUIConnectionPoint@@V?$_CopyInterface@UIConnectionPoint@@@ATL@@VCComSingleThreadModel@6@@ATL@@@ATL@@UAGKXZ 1001f150 f i GestureControl.obj
 0001:0001e210       ?Release@?$CComObject@V?$CComEnum@UIEnumConnections@@$1?_GUID_b196b287_bab4_101a_b69c_00aa00341d07@@3U__s_GUID@@BUtagCONNECTDATA@@V?$_Copy@UtagCONNECTDATA@@@ATL@@VCComSingleThreadModel@6@@ATL@@@ATL@@UAGKXZ 1001f210 f i GestureControl.obj
 0001:0001e2d0       ?Release@?$CComObject@VCOPOSGestureControl@@@ATL@@UAGKXZ 1001f2d0 f i GestureControl.obj
 0001:0001e389       ?Release@?$CComObject@VCOPOSGestureControl@@@ATL@@WHA@AGKXZ 1001f389 f i GestureControl.obj
 0001:0001e393       ?Release@?$CComObject@VCOPOSGestureControl@@@ATL@@WHE@AGKXZ 1001f393 f i GestureControl.obj
 0001:0001e39d       ?Release@?$CComObject@VCOPOSGestureControl@@@ATL@@WHI@AGKXZ 1001f39d f i GestureControl.obj
 0001:0001e3a7       ?Release@?$CComObject@VCOPOSGestureControl@@@ATL@@WHM@AGKXZ 1001f3a7 f i GestureControl.obj
 0001:0001e3b1       ?Release@?$CComObject@VCOPOSGestureControl@@@ATL@@WIA@AGKXZ 1001f3b1 f i GestureControl.obj
 0001:0001e3be       ?Release@?$CComObject@VCOPOSGestureControl@@@ATL@@WIE@AGKXZ 1001f3be f i GestureControl.obj
 0001:0001e3cb       ?Release@?$CComObject@VCOPOSGestureControl@@@ATL@@WII@AGKXZ 1001f3cb f i GestureControl.obj
 0001:0001e3d8       ?Release@?$CComObject@VCOPOSGestureControl@@@ATL@@WIM@AGKXZ 1001f3d8 f i GestureControl.obj
 0001:0001e3e5       ?Release@?$CComObject@VCOPOSGestureControl@@@ATL@@WJA@AGKXZ 1001f3e5 f i GestureControl.obj
 0001:0001e3f2       ?Release@?$CComObject@VCOPOSGestureControl@@@ATL@@WJE@AGKXZ 1001f3f2 f i GestureControl.obj
 0001:0001e3ff       ?Release@?$CComObject@VCOPOSGestureControl@@@ATL@@WJI@AGKXZ 1001f3ff f i GestureControl.obj
 0001:0001e40c       ?Release@?$CComObject@VCOPOSGestureControl@@@ATL@@WJM@AGKXZ 1001f40c f i GestureControl.obj
 0001:0001e419       ?Release@?$CComObject@VCOPOSGestureControl@@@ATL@@WKA@AGKXZ 1001f419 f i GestureControl.obj
 0001:0001e426       ?Release@?$CComObject@VCOPOSGestureControl@@@ATL@@WKI@AGKXZ 1001f426 f i GestureControl.obj
 0001:0001e433       ?Release@?$CComObject@VCOPOSGestureControl@@@ATL@@WLE@AGKXZ 1001f433 f i GestureControl.obj
 0001:0001e440       ?Release@?$CComObjectCached@VCComClassFactory@ATL@@@ATL@@UAGKXZ 1001f440 f i GestureControl.obj
 0001:0001e4e0       ?Release@?$CComPtrBase@UIAdviseSink@@@ATL@@QAEXXZ 1001f4e0 f i GestureControl.obj
 0001:0001e540       ?Release@?$CComPtrBase@UIDispatch@@@ATL@@QAEXXZ 1001f540 f i GestureControl.obj
 0001:0001e5a0       ?Release@?$CComPtrBase@UIOleInPlaceSiteWindowless@@@ATL@@QAEXXZ 1001f5a0 f i GestureControl.obj
 0001:0001e600       ?Release@CRegObject@ATL@@UAGKXZ 1001f600 f i GestureControl.obj
 0001:0001e640       ?Remove@CComDynamicUnkArray@ATL@@QAEHK@Z 1001f640 f i GestureControl.obj
 0001:0001e6f0       ?RemoveAll@?$CSimpleMap@PA_WPA_WVCExpansionVectorEqualHelper@ATL@@@ATL@@QAEXXZ 1001f6f0 f i GestureControl.obj
 0001:0001e780       ?Reset@?$CComEnumImpl@UIEnumConnectionPoints@@$1?_GUID_b196b285_bab4_101a_b69c_00aa00341d07@@3U__s_GUID@@BPAUIConnectionPoint@@V?$_CopyInterface@UIConnectionPoint@@@ATL@@@ATL@@UAGJXZ 1001f780 f i GestureControl.obj
 0001:0001e7a0       ?Reset@?$CComEnumImpl@UIEnumConnections@@$1?_GUID_b196b287_bab4_101a_b69c_00aa00341d07@@3U__s_GUID@@BUtagCONNECTDATA@@V?$_Copy@UtagCONNECTDATA@@@ATL@@@ATL@@UAGJXZ 1001f7a0 f i GestureControl.obj
 0001:0001e7c0       ?ResizeBorder@?$IOleInPlaceActiveObjectImpl@VCOPOSGestureControl@@@ATL@@UAGJPBUtagRECT@@PAUIOleInPlaceUIWindow@@H@Z 1001f7c0 f i GestureControl.obj
 0001:0001e820       ?ResourceRegister@CRegObject@ATL@@QAGJPB_WI0@Z 1001f820 f i GestureControl.obj
 0001:0001e900       ?ResourceRegisterSz@CRegObject@ATL@@QAGJPB_W00@Z 1001f900 f i GestureControl.obj
 0001:0001ea00       ?ResourceUnregister@CRegObject@ATL@@QAGJPB_WI0@Z 1001fa00 f i GestureControl.obj
 0001:0001eae0       ?ResourceUnregisterSz@CRegObject@ATL@@QAGJPB_W00@Z 1001fae0 f i GestureControl.obj
 0001:0001ebe0       ?SODataDummy@COPOSGestureControl@@MAGJJ@Z 1001fbe0 f i GestureControl.obj
 0001:0001ebf0       ?SODirectIO@COPOSGestureControl@@MAGJJPAJPAPA_W@Z 1001fbf0 f i GestureControl.obj
 0001:0001edb0       ?SOError@COPOSGestureControl@@MAGJJJJPAJ@Z 1001fdb0 f i GestureControl.obj
 0001:0001ee70       ?SOOutputComplete@COPOSGestureControl@@MAGJJ@Z 1001fe70 f i GestureControl.obj
 0001:0001eef0       ?SOStatusUpdate@COPOSGestureControl@@MAGJJ@Z 1001fef0 f i GestureControl.obj
 0001:0001ef70       ?Save@?$IPersistStorageImpl@VCOPOSGestureControl@@@ATL@@UAGJPAUIStorage@@H@Z 1001ff70 f i GestureControl.obj
 0001:0001f0d0       ?Save@?$IPersistStreamInitImpl@VCOPOSGestureControl@@@ATL@@UAGJPAUIStream@@H@Z 100200d0 f i GestureControl.obj
 0001:0001f160       ?SaveCompleted@?$IPersistStorageImpl@VCOPOSGestureControl@@@ATL@@UAGJPAUIStorage@@@Z 10020160 f i GestureControl.obj
 0001:0001f1c0       ?SendOnDataChange@CComControlBase@ATL@@QAEJK@Z 100201c0 f i GestureControl.obj
 0001:0001f2b0       ?SendOnSave@CComControlBase@ATL@@QAEJXZ 100202b0 f i GestureControl.obj
 0001:0001f320       ?SendOnViewChange@CComControlBase@ATL@@QAEJKJ@Z 10020320 f i GestureControl.obj
 0001:0001f390       ?SetAdvise@?$IViewObjectExImpl@VCOPOSGestureControl@@@ATL@@UAGJKKPAUIAdviseSink@@@Z 10020390 f i GestureControl.obj
 0001:0001f420       ?SetClientSite@?$IOleObjectImpl@VCOPOSGestureControl@@@ATL@@UAGJPAUIOleClientSite@@@Z 10020420 f i GestureControl.obj
 0001:0001f4b0       ?SetColorScheme@?$IOleObjectImpl@VCOPOSGestureControl@@@ATL@@UAGJPAUtagLOGPALETTE@@@Z 100204b0 f i GestureControl.obj
 0001:0001f520       ?SetContentExtent@?$IQuickActivateImpl@VCOPOSGestureControl@@@ATL@@UAGJPAUtagSIZE@@@Z 10020520 f i GestureControl.obj
 0001:0001f5b0       ?SetControlFocus@CComControlBase@ATL@@QAEHH@Z 100205b0 f i GestureControl.obj
 0001:0001f730       ?SetDWORDValue@CRegKey@ATL@@QAEJPB_WK@Z 10020730 f i GestureControl.obj
 0001:0001f7b0       ?SetData@?$IDataObjectImpl@VCOPOSGestureControl@@@ATL@@UAGJPAUtagFORMATETC@@PAUtagSTGMEDIUM@@H@Z 100207b0 f i GestureControl.obj
 0001:0001f820       ?SetExtent@?$IOleObjectImpl@VCOPOSGestureControl@@@ATL@@UAGJKPAUtagSIZE@@@Z 10020820 f i GestureControl.obj
 0001:0001f8b0       ?SetHostNames@?$IOleObjectImpl@VCOPOSGestureControl@@@ATL@@UAGJPB_W0@Z 100208b0 f i GestureControl.obj
 0001:0001f910       ?SetInterfaceSafetyOptions@?$IObjectSafetyImpl@VCOPOSGestureControl@@$02@ATL@@UAGJABU_GUID@@KK@Z 10020910 f i GestureControl.obj
 0001:0001fa80       ?SetMoniker@?$IOleObjectImpl@VCOPOSGestureControl@@@ATL@@UAGJKPAUIMoniker@@@Z 10020a80 f i GestureControl.obj
 0001:0001faf0       ?SetMultiStringValue@CRegKey@ATL@@QAEJPB_W0@Z 10020af0 f i GestureControl.obj
 0001:0001fc10       ?SetObjectRects@?$IOleInPlaceObjectWindowlessImpl@VCOPOSGestureControl@@@ATL@@UAGJPBUtagRECT@@0@Z 10020c10 f i GestureControl.obj
 0001:0001fca0       ?SetStringValue@CRegKey@ATL@@QAEJPB_W0K@Z 10020ca0 f i GestureControl.obj
 0001:0001fdd0       ?SetVoid@CComClassFactory@ATL@@QAEXPAX@Z 10020dd0 f i GestureControl.obj
 0001:0001fdf0       ?SetVoid@CComObjectRootBase@ATL@@QAEXPAX@Z 10020df0 f i GestureControl.obj
 0001:0001fe10       ?SetWindowLongPtrW@@YAJPAUHWND__@@HJ@Z 10020e10 f i GestureControl.obj
 0001:0001fe40       ?ShowWindow@CWindow@ATL@@QAEHH@Z 10020e40 f i GestureControl.obj
 0001:0001fec0       ?Skip@?$CComEnumImpl@UIEnumConnectionPoints@@$1?_GUID_b196b285_bab4_101a_b69c_00aa00341d07@@3U__s_GUID@@BPAUIConnectionPoint@@V?$_CopyInterface@UIConnectionPoint@@@ATL@@@ATL@@UAGJK@Z 10020ec0 f i GestureControl.obj
 0001:0001ff40       ?Skip@?$CComEnumImpl@UIEnumConnections@@$1?_GUID_b196b287_bab4_101a_b69c_00aa00341d07@@3U__s_GUID@@BUtagCONNECTDATA@@V?$_Copy@UtagCONNECTDATA@@@ATL@@@ATL@@UAGJK@Z 10020f40 f i GestureControl.obj
 0001:0001ffc0       ?SkipAssignment@CRegParser@ATL@@IAEJPA_W@Z 10020fc0 f i GestureControl.obj
 0001:000200a0       ?SkipWhiteSpace@CRegParser@ATL@@IAEXXZ 100210a0 f i GestureControl.obj
 0001:000200f0       ?StartWindowProc@?$CWindowImplBaseT@VCWindow@ATL@@V?$CWinTraits@$0FGAAAAAA@$0A@@2@@ATL@@SGJPAUHWND__@@IIJ@Z 100210f0 f i GestureControl.obj
 0001:00020210       ?StrChrW@CRegParser@ATL@@KAPA_WPA_W_W@Z 10021210 f i GestureControl.obj
 0001:00020280       ?StrFromMap@CRegObject@ATL@@QAEPB_WPA_W@Z 10021280 f i GestureControl.obj
 0001:00020310       ?Swap@?$CComPtrBase@UIAdviseSink@@@ATL@@IAEXAAV12@@Z 10021310 f i GestureControl.obj
 0001:00020350       ?Swap@?$CComPtrBase@UIOleClientSite@@@ATL@@IAEXAAV12@@Z 10021350 f i GestureControl.obj
 0001:00020390       ?Swap@?$CComPtrBase@UIUnknown@@@ATL@@IAEXAAV12@@Z 10021390 f i GestureControl.obj
 0001:000203d0       ?T2COLE_EX@@YAPB_WPB_WI@Z  100213d0 f i GestureControl.obj
 0001:000203e0       ?T2OLE_EX@@YAPA_WPA_WI@Z   100213e0 f i GestureControl.obj
 0001:000203f0       ?Term@CAtlModule@ATL@@QAEXXZ 100213f0 f i GestureControl.obj
 0001:000204a0       ?Term@CComModule@ATL@@QAEXXZ 100214a0 f i GestureControl.obj
 0001:00020590       ?TranslateAcceleratorW@?$IOleInPlaceActiveObjectImpl@VCOPOSGestureControl@@@ATL@@UAGJPAUtagMSG@@@Z 10021590 f i GestureControl.obj
 0001:00020790       ?UIDeactivate@?$IOleInPlaceObjectWindowlessImpl@VCOPOSGestureControl@@@ATL@@UAGJXZ 10021790 f i GestureControl.obj
 0001:00020810       ?Unadvise@?$CProxy_IOPOSEvents@VCOPOSGestureControl@@@@UAGJK@Z 10021810 f i GestureControl.obj
 0001:00020850       ?Unadvise@?$IConnectionPointImpl@VCOPOSGestureControl@@$1?DIID__IOPOSGestureControlEvents@@3U_GUID@@BVCComDynamicUnkArray@ATL@@@ATL@@UAGJK@Z 10021850 f i GestureControl.obj
 0001:00020920       ?Unadvise@?$IConnectionPointImpl@VCOPOSGestureControl@@$1?IID_IPropertyNotifySink@@3U_GUID@@BVCComDynamicUnkArray@ATL@@@ATL@@UAGJK@Z 10021920 f i GestureControl.obj
 0001:000209f0       ?Unadvise@?$IOleObjectImpl@VCOPOSGestureControl@@@ATL@@UAGJK@Z 100219f0 f i GestureControl.obj
 0001:00020ac0       ?Unfreeze@?$IViewObjectExImpl@VCOPOSGestureControl@@@ATL@@UAGJK@Z 10021ac0 f i GestureControl.obj
 0001:00020b30       ?Unlock@?$CComCritSecLock@VCComCriticalSection@ATL@@@ATL@@QAEXXZ 10021b30 f i GestureControl.obj
 0001:00020ba0       ?Unlock@?$CComObjectRootEx@VCComSingleThreadModel@ATL@@@ATL@@QAEXXZ 10021ba0 f i GestureControl.obj
 0001:00020bc0       ?Unlock@CAtlModule@ATL@@UAEJXZ 10021bc0 f i GestureControl.obj
 0001:00020bf0       ?Unlock@CComCriticalSection@ATL@@QAEJXZ 10021bf0 f i GestureControl.obj
 0001:00020c30       ?Unlock@CComFakeCriticalSection@ATL@@QAEJXZ 10021c30 f i GestureControl.obj
 0001:00020c50       ?UnregisterServer@?$CAtlModuleT@VCComModule@ATL@@@ATL@@QAEJHPBU_GUID@@@Z 10021c50 f i GestureControl.obj
 0001:00020cc0       ?UnregisterServer@CAtlComModule@ATL@@QAEJHPBU_GUID@@@Z 10021cc0 f i GestureControl.obj
 0001:00020cf0       ?UnregisterServer@CComModule@ATL@@QAEJHPBU_GUID@@@Z 10021cf0 f i GestureControl.obj
 0001:00020dd0       ?Update@?$IOleObjectImpl@VCOPOSGestureControl@@@ATL@@UAGJXZ 10021dd0 f i GestureControl.obj
 0001:00020e30       ?UpdateRegistryFromResource@CAtlModule@ATL@@QAGJIHPAU_ATL_REGMAP_ENTRY@2@@Z 10021e30 f i GestureControl.obj
 0001:00021300       ?UpdateRegistryFromResource@CAtlModule@ATL@@QAGJPB_WHPAU_ATL_REGMAP_ENTRY@2@@Z 10022300 f i GestureControl.obj
 0001:000217f0       ?UpdateRegistryFromResource@CComModule@ATL@@UAGJIHPAU_ATL_REGMAP_ENTRY@2@@Z 100227f0 f i GestureControl.obj
 0001:00021820       ?UpdateRegistryFromResource@CComModule@ATL@@UAGJPB_WHPAU_ATL_REGMAP_ENTRY@2@@Z 10022820 f i GestureControl.obj
 0001:00021850       ?UpdateRegistryFromResourceD@CComModule@ATL@@UAGJIHPAU_ATL_REGMAP_ENTRY@2@@Z 10022850 f i GestureControl.obj
 0001:00021860       ?UpdateRegistryFromResourceD@CComModule@ATL@@UAGJPB_WHPAU_ATL_REGMAP_ENTRY@2@@Z 10022860 f i GestureControl.obj
 0001:00021870       ?VTFromRegType@CRegParser@ATL@@KAHPB_WAAG@Z 10022870 f i GestureControl.obj
 0001:00021950       ?WindowProc@?$CWindowImplBaseT@VCWindow@ATL@@V?$CWinTraits@$0FGAAAAAA@$0A@@2@@ATL@@SGJPAUHWND__@@IIJ@Z 10022950 f i GestureControl.obj
 0001:00021b60       ?WriteToStream@CComBSTR@ATL@@QAEJPAUIStream@@@Z 10022b60 f i GestureControl.obj
 0001:00021cc0       ?WriteToStream@CComVariant@ATL@@QAEJPAUIStream@@@Z 10022cc0 f i GestureControl.obj
 0001:00022000       ?WriteToStream@CComVariant@ATL@@QAEJPAUIStream@@G@Z 10023000 f i GestureControl.obj
 0001:000220d0       ?_AtlFinalConstruct@CComObjectRootBase@ATL@@QAEJXZ 100230d0 f i GestureControl.obj
 0001:000220f0       ?_AtlGetConversionACP@ATL@@YGIXZ 100230f0 f i GestureControl.obj
 0001:00022100       ?_AtlInitialConstruct@?$CComAggObject@VCOPOSGestureControl@@@ATL@@QAEJXZ 10023100 f i GestureControl.obj
 0001:00022150       ?_AtlInitialConstruct@?$CComObjectRootEx@VCComMultiThreadModel@ATL@@@ATL@@QAEJXZ 10023150 f i GestureControl.obj
 0001:00022180       ?_AtlInitialConstruct@?$CComObjectRootEx@VCComSingleThreadModel@ATL@@@ATL@@QAEJXZ 10023180 f i GestureControl.obj
 0001:000221a0       ?_AtlVerifyStackAvailable@_ATL_SAFE_ALLOCA_IMPL@ATL@@YA_NK@Z 100231a0 f i GestureControl.obj
 0001:00022350       ?_GetEntries@?$CComEnum@UIEnumConnectionPoints@@$1?_GUID_b196b285_bab4_101a_b69c_00aa00341d07@@3U__s_GUID@@BPAUIConnectionPoint@@V?$_CopyInterface@UIConnectionPoint@@@ATL@@VCComSingleThreadModel@6@@ATL@@SGPBU_ATL_INTMAP_ENTRY@2@XZ 10023350 f i GestureControl.obj
 0001:00022370       ?_GetEntries@?$CComEnum@UIEnumConnections@@$1?_GUID_b196b287_bab4_101a_b69c_00aa00341d07@@3U__s_GUID@@BUtagCONNECTDATA@@V?$_Copy@UtagCONNECTDATA@@@ATL@@VCComSingleThreadModel@6@@ATL@@SGPBU_ATL_INTMAP_ENTRY@2@XZ 10023370 f i GestureControl.obj
 0001:00022390       ?_GetEntries@CComClassFactory@ATL@@SGPBU_ATL_INTMAP_ENTRY@2@XZ 10023390 f i GestureControl.obj
 0001:000223b0       ?_GetEntries@COPOSGestureControl@@SGPBU_ATL_INTMAP_ENTRY@ATL@@XZ 100233b0 f i GestureControl.obj
 0001:000223d0       ?_GetRawUnknown@COPOSGestureControl@@QAEPAUIUnknown@@XZ 100233d0 f i GestureControl.obj
 0001:00022440       ?_GetViewStatus@COPOSGestureControl@@QAEKXZ 10023440 f i GestureControl.obj
 0001:00022460       ?_InternalQueryInterface@?$CComEnum@UIEnumConnectionPoints@@$1?_GUID_b196b285_bab4_101a_b69c_00aa00341d07@@3U__s_GUID@@BPAUIConnectionPoint@@V?$_CopyInterface@UIConnectionPoint@@@ATL@@VCComSingleThreadModel@6@@ATL@@QAEJABU_GUID@@PAPAX@Z 10023460 f i GestureControl.obj
 0001:000224a0       ?_InternalQueryInterface@?$CComEnum@UIEnumConnections@@$1?_GUID_b196b287_bab4_101a_b69c_00aa00341d07@@3U__s_GUID@@BUtagCONNECTDATA@@V?$_Copy@UtagCONNECTDATA@@@ATL@@VCComSingleThreadModel@6@@ATL@@QAEJABU_GUID@@PAPAX@Z 100234a0 f i GestureControl.obj
 0001:000224e0       ?_InternalQueryInterface@CComClassFactory@ATL@@QAEJABU_GUID@@PAPAX@Z 100234e0 f i GestureControl.obj
 0001:00022520       ?_InternalQueryInterface@COPOSGestureControl@@QAEJABU_GUID@@PAPAX@Z 10023520 f i GestureControl.obj
 0001:00022560       ?_LocCPQueryInterface@?$IConnectionPointImpl@VCOPOSGestureControl@@$1?DIID__IOPOSGestureControlEvents@@3U_GUID@@BVCComDynamicUnkArray@ATL@@@ATL@@UAGJABU_GUID@@PAPAX@Z 10023560 f i GestureControl.obj
 0001:00022600       ?_LocCPQueryInterface@?$IConnectionPointImpl@VCOPOSGestureControl@@$1?IID_IPropertyNotifySink@@3U_GUID@@BVCComDynamicUnkArray@ATL@@@ATL@@UAGJABU_GUID@@PAPAX@Z 10023600 f i GestureControl.obj
 0001:000226a0       ?atlCreate@?$CWindowImpl@VCOPOSGestureControl@@VCWindow@ATL@@V?$CWinTraits@$0FGAAAAAA@$0A@@3@@ATL@@QAEPAUHWND__@@PAU3@V_U_RECT@2@PB_WKKV_U_MENUorID@2@PAX@Z 100236a0 f i GestureControl.obj
 0001:00022750       ?atlCreate@?$CWindowImplBaseT@VCWindow@ATL@@V?$CWinTraits@$0FGAAAAAA@$0A@@2@@ATL@@QAEPAUHWND__@@PAU3@V_U_RECT@2@PB_WKKV_U_MENUorID@2@GPAX@Z 10023750 f i GestureControl.obj
 0001:000228d0       ?atlCreate@CRegKey@ATL@@QAEJPAUHKEY__@@PB_WPA_WKKPAU_SECURITY_ATTRIBUTES@@PAK@Z 100238d0 f i GestureControl.obj
 0001:00022a30       ?begin@CComDynamicUnkArray@ATL@@QAEPAPAUIUnknown@@XZ 10023a30 f i GestureControl.obj
 0001:00022a50       ?copy@?$_Copy@UtagCONNECTDATA@@@ATL@@SAJPAUtagCONNECTDATA@@PBU3@@Z 10023a50 f i GestureControl.obj
 0001:00022b10       ?copy@?$_CopyInterface@UIConnectionPoint@@@ATL@@SAJPAPAUIConnectionPoint@@PBQAU3@@Z 10023b10 f i GestureControl.obj
 0001:00022bd0       ?destroy@?$_Copy@UtagCONNECTDATA@@@ATL@@SAXPAUtagCONNECTDATA@@@Z 10023bd0 f i GestureControl.obj
 0001:00022c10       ?destroy@?$_CopyInterface@UIConnectionPoint@@@ATL@@SAXPAPAUIConnectionPoint@@@Z 10023c10 f i GestureControl.obj
 0001:00022c50       ?end@CComDynamicUnkArray@ATL@@QAEPAPAUIUnknown@@XZ 10023c50 f i GestureControl.obj
 0001:00022c70       ?init@?$_Copy@UtagCONNECTDATA@@@ATL@@SAXPAUtagCONNECTDATA@@@Z 10023c70 f i GestureControl.obj
 0001:00022c80       ?init@?$_CopyInterface@UIConnectionPoint@@@ATL@@SAXPAPAUIConnectionPoint@@@Z 10023c80 f i GestureControl.obj
 0001:00022c90       ?memcpy_s@Checked@ATL@@YAXPAXIPBXI@Z 10023c90 f i GestureControl.obj
 0001:00022cc0       ?ocscpy_s@@YA_NPA_WIPB_W@Z 10023cc0 f i GestureControl.obj
 0001:00022d20       ?ocslen@@YAHPB_W@Z         10023d20 f i GestureControl.obj
 0001:00022d50       ?tcsncpy_s@Checked@ATL@@YAHPA_WIPB_WI@Z 10023d50 f i GestureControl.obj
 0001:00022d80       ?wcscat_s@Checked@ATL@@YAXPA_WIPB_W@Z 10023d80 f i GestureControl.obj
 0001:00022db0       ?wcscpy_s@Checked@ATL@@YAXPA_WIPB_W@Z 10023db0 f i GestureControl.obj
 0001:00022de0       ?wcsncpy_s@Checked@ATL@@YAHPA_WIPB_WI@Z 10023de0 f i GestureControl.obj
 0001:00022e10       ?wcsstr@@YAPA_WPA_WPB_W@Z  10023e10 f i GestureControl.obj
 0001:00022e30       _InlineIsEqualGUID         10023e30 f i GestureControl.obj
 0001:00022ed0       _IsEqualGUID               10023ed0 f i GestureControl.obj
 0001:00022f20       ??0COPOSGestureControl@@QAE@XZ 10023f20 f   GestureControlImpl.obj
 0001:00023030       ?FinalConstruct@COPOSGestureControl@@QAEJXZ 10024030 f   GestureControlImpl.obj
 0001:00023100       ??1COPOSGestureControl@@UAE@XZ 10024100 f   GestureControlImpl.obj
 0001:000231e0       ?WriteTrace@COPOSGestureControl@@QAAXPB_WZZ 100241e0 f   GestureControlImpl.obj
 0001:00023290       ?WriteTraceString@COPOSGestureControl@@QAEXPB_WPA_W@Z 10024290 f   GestureControlImpl.obj
 0001:00023600       ?WriteTraceString@COPOSGestureControl@@QAAXPAXHHHPB_WZZ 10024600 f   GestureControlImpl.obj
 0001:00023830       ?WriteTraceError@COPOSGestureControl@@QAEXPB_WK@Z 10024830 f   GestureControlImpl.obj
 0001:00023920       ?WriteTraceMethods@COPOSGestureControl@@QAEXPAJH@Z 10024920 f   GestureControlImpl.obj
 0001:00023990       ?GetOposProp@COPOSGestureControl@@IAEJPBDJPAJJ@Z 10024990 f   GestureControlImpl.obj
 0001:00023c00       ?SetOposProp@COPOSGestureControl@@IAEJPBDJJJ@Z 10024c00 f   GestureControlImpl.obj
 0001:00023e90       ?GetOposProp@COPOSGestureControl@@IAEJPBDJPAFJ@Z 10024e90 f   GestureControlImpl.obj
 0001:00023f30       ?SetOposProp@COPOSGestureControl@@IAEJPBDJFJ@Z 10024f30 f   GestureControlImpl.obj
 0001:00023f90       ?GetOposProp@COPOSGestureControl@@IAEJPBDJPAPA_WJ@Z 10024f90 f   GestureControlImpl.obj
 0001:00024210       ?SetOposProp@COPOSGestureControl@@IAEJPBDJPA_WJ@Z 10025210 f   GestureControlImpl.obj
 0001:00024550       ?DoInvoke@COPOSGestureControl@@IAEJPBDJPAVOposVariant@@IHPAJ_N@Z 10025550 f   GestureControlImpl.obj
 0001:00024e80       ?SetCOFreezeEvents@COPOSGestureControl@@IAEXF@Z 10025e80 f   GestureControlImpl.obj
 0001:00024fc0       ?FreezeEvents@COPOSGestureControl@@MAGJH@Z 10025fc0 f   GestureControlImpl.obj
 0001:000250a0       ?OnDraw@COPOSGestureControl@@MAEJAAUATL_DRAWINFO@@@Z 100260a0 f   GestureControlImpl.obj
 0001:00025240       ?SOProcessID@COPOSGestureControl@@UAGJPAJ@Z 10026240 f   GestureControlImpl.obj
 0001:00025280       ?get_OpenResult@COPOSGestureControl@@UAGJPAJ@Z 10026280 f   GestureControlImpl.obj
 0001:000252c0       ?get_BinaryConversion@COPOSGestureControl@@UAGJPAJ@Z 100262c0 f   GestureControlImpl.obj
 0001:000252f0       ?put_BinaryConversion@COPOSGestureControl@@UAGJJ@Z 100262f0 f   GestureControlImpl.obj
 0001:00025320       ?get_CapPowerReporting@COPOSGestureControl@@UAGJPAJ@Z 10026320 f   GestureControlImpl.obj
 0001:00025350       ?get_CheckHealthText@COPOSGestureControl@@UAGJPAPA_W@Z 10026350 f   GestureControlImpl.obj
 0001:00025380       ?get_Claimed@COPOSGestureControl@@UAGJPAF@Z 10026380 f   GestureControlImpl.obj
 0001:000253b0       ?get_DeviceEnabled@COPOSGestureControl@@UAGJPAF@Z 100263b0 f   GestureControlImpl.obj
 0001:000253e0       ?put_DeviceEnabled@COPOSGestureControl@@UAGJF@Z 100263e0 f   GestureControlImpl.obj
 0001:00025410       ?get_FreezeEvents@COPOSGestureControl@@UAGJPAF@Z 10026410 f   GestureControlImpl.obj
 0001:00025440       ?put_FreezeEvents@COPOSGestureControl@@UAGJF@Z 10026440 f   GestureControlImpl.obj
 0001:000254d0       ?get_OutputID@COPOSGestureControl@@UAGJPAJ@Z 100264d0 f   GestureControlImpl.obj
 0001:00025500       ?get_PowerNotify@COPOSGestureControl@@UAGJPAJ@Z 10026500 f   GestureControlImpl.obj
 0001:00025530       ?put_PowerNotify@COPOSGestureControl@@UAGJJ@Z 10026530 f   GestureControlImpl.obj
 0001:00025560       ?get_PowerState@COPOSGestureControl@@UAGJPAJ@Z 10026560 f   GestureControlImpl.obj
 0001:00025590       ?get_ResultCode@COPOSGestureControl@@UAGJPAJ@Z 10026590 f   GestureControlImpl.obj
 0001:00025620       ?get_ResultCodeExtended@COPOSGestureControl@@UAGJPAJ@Z 10026620 f   GestureControlImpl.obj
 0001:00025650       ?get_State@COPOSGestureControl@@UAGJPAJ@Z 10026650 f   GestureControlImpl.obj
 0001:000256a0       ?get_ControlObjectDescription@COPOSGestureControl@@UAGJPAPA_W@Z 100266a0 f   GestureControlImpl.obj
 0001:00025720       ?get_ControlObjectVersion@COPOSGestureControl@@UAGJPAJ@Z 10026720 f   GestureControlImpl.obj
 0001:00025760       ?get_ServiceObjectDescription@COPOSGestureControl@@UAGJPAPA_W@Z 10026760 f   GestureControlImpl.obj
 0001:00025790       ?get_ServiceObjectVersion@COPOSGestureControl@@UAGJPAJ@Z 10026790 f   GestureControlImpl.obj
 0001:000257c0       ?get_DeviceDescription@COPOSGestureControl@@UAGJPAPA_W@Z 100267c0 f   GestureControlImpl.obj
 0001:000257f0       ?get_DeviceName@COPOSGestureControl@@UAGJPAPA_W@Z 100267f0 f   GestureControlImpl.obj
 0001:00025820       ?get_CapStatisticsReporting@COPOSGestureControl@@UAGJPAF@Z 10026820 f   GestureControlImpl.obj
 0001:00025850       ?get_CapUpdateStatistics@COPOSGestureControl@@UAGJPAF@Z 10026850 f   GestureControlImpl.obj
 0001:00025880       ?get_CapCompareFirmwareVersion@COPOSGestureControl@@UAGJPAF@Z 10026880 f   GestureControlImpl.obj
 0001:000258b0       ?get_CapUpdateFirmware@COPOSGestureControl@@UAGJPAF@Z 100268b0 f   GestureControlImpl.obj
 0001:000258e0       ?CheckHealth@COPOSGestureControl@@UAGJJPAJ@Z 100268e0 f   GestureControlImpl.obj
 0001:00025980       ?ClaimDevice@COPOSGestureControl@@UAGJJPAJ@Z 10026980 f   GestureControlImpl.obj
 0001:00025a60       ?ClearOutput@COPOSGestureControl@@UAGJPAJ@Z 10026a60 f   GestureControlImpl.obj
 0001:00025a90       ?Close@COPOSGestureControl@@UAGJPAJ@Z 10026a90 f   GestureControlImpl.obj
 0001:00025b60       ?DirectIO@COPOSGestureControl@@UAGJJPAJPAPA_W0@Z 10026b60 f   GestureControlImpl.obj
 0001:00025c70       ?Open@COPOSGestureControl@@UAGJPA_WPAJ@Z 10026c70 f   GestureControlImpl.obj
 0001:00026e60       ?ReleaseDevice@COPOSGestureControl@@UAGJPAJ@Z 10027e60 f   GestureControlImpl.obj
 0001:00026ed0       ?ResetStatistics@COPOSGestureControl@@UAGJPA_WPAJ@Z 10027ed0 f   GestureControlImpl.obj
 0001:00026f80       ?RetrieveStatistics@COPOSGestureControl@@UAGJPAPA_WPAJ@Z 10027f80 f   GestureControlImpl.obj
 0001:00027030       ?UpdateStatistics@COPOSGestureControl@@UAGJPA_WPAJ@Z 10028030 f   GestureControlImpl.obj
 0001:000270e0       ?CompareFirmwareVersion@COPOSGestureControl@@UAGJPA_WPAJ1@Z 100280e0 f   GestureControlImpl.obj
 0001:000271d0       ?UpdateFirmware@COPOSGestureControl@@UAGJPA_WPAJ@Z 100281d0 f   GestureControlImpl.obj
 0001:00027280       ?get_AutoMode@COPOSGestureControl@@UAGJPAPA_W@Z 10028280 f   GestureControlImpl.obj
 0001:000272b0       ?put_AutoMode@COPOSGestureControl@@UAGJPA_W@Z 100282b0 f   GestureControlImpl.obj
 0001:000272e0       ?get_AutoModeList@COPOSGestureControl@@UAGJPAPA_W@Z 100282e0 f   GestureControlImpl.obj
 0001:00027310       ?get_CapAssociatedHardTotalsDevice@COPOSGestureControl@@UAGJPAPA_W@Z 10028310 f   GestureControlImpl.obj
 0001:00027340       ?get_CapMotion@COPOSGestureControl@@UAGJPAF@Z 10028340 f   GestureControlImpl.obj
 0001:00027370       ?get_CapMotionCreation@COPOSGestureControl@@UAGJPAF@Z 10028370 f   GestureControlImpl.obj
 0001:000273a0       ?get_CapPose@COPOSGestureControl@@UAGJPAF@Z 100283a0 f   GestureControlImpl.obj
 0001:000273d0       ?get_CapPoseCreation@COPOSGestureControl@@UAGJPAF@Z 100283d0 f   GestureControlImpl.obj
 0001:00027400       ?get_CapStorage@COPOSGestureControl@@UAGJPAJ@Z 10028400 f   GestureControlImpl.obj
 0001:00027430       ?get_JointList@COPOSGestureControl@@UAGJPAPA_W@Z 10028430 f   GestureControlImpl.obj
 0001:00027460       ?get_MotionList@COPOSGestureControl@@UAGJPAPA_W@Z 10028460 f   GestureControlImpl.obj
 0001:00027490       ?get_PoseCreationMode@COPOSGestureControl@@UAGJPAF@Z 10028490 f   GestureControlImpl.obj
 0001:000274c0       ?put_PoseCreationMode@COPOSGestureControl@@UAGJF@Z 100284c0 f   GestureControlImpl.obj
 0001:000274f0       ?get_PoseList@COPOSGestureControl@@UAGJPAPA_W@Z 100284f0 f   GestureControlImpl.obj
 0001:00027520       ?get_Storage@COPOSGestureControl@@UAGJPAJ@Z 10028520 f   GestureControlImpl.obj
 0001:00027550       ?put_Storage@COPOSGestureControl@@UAGJJ@Z 10028550 f   GestureControlImpl.obj
 0001:00027580       ?CreateMotion@COPOSGestureControl@@UAGJPA_W0PAJ@Z 10028580 f   GestureControlImpl.obj
 0001:00027670       ?CreatePose@COPOSGestureControl@@UAGJPA_WJPAJ@Z 10028670 f   GestureControlImpl.obj
 0001:00027760       ?GetPosition@COPOSGestureControl@@UAGJPA_WPAJ1@Z 10028760 f   GestureControlImpl.obj
 0001:00027850       ?SetPosition@COPOSGestureControl@@UAGJPA_WJFPAJ@Z 10028850 f   GestureControlImpl.obj
 0001:00027960       ?SetSpeed@COPOSGestureControl@@UAGJPA_WJPAJ@Z 10028960 f   GestureControlImpl.obj
 0001:00027a50       ?StartMotion@COPOSGestureControl@@UAGJPA_WPAJ@Z 10028a50 f   GestureControlImpl.obj
 0001:00027b00       ?StartPose@COPOSGestureControl@@UAGJPA_WPAJ@Z 10028b00 f   GestureControlImpl.obj
 0001:00027bb0       ?StopControl@COPOSGestureControl@@UAGJJPAJ@Z 10028bb0 f   GestureControlImpl.obj
 0001:00027c50       ??0?$CComControl@VCOPOSGestureControl@@V?$CWindowImpl@VCOPOSGestureControl@@VCWindow@ATL@@V?$CWinTraits@$0FGAAAAAA@$0A@@3@@ATL@@@ATL@@QAE@XZ 10028c50 f i GestureControlImpl.obj
 0001:00027c90       ??0?$CComPtr@UIAdviseSink@@@ATL@@QAE@XZ 10028c90 f i GestureControlImpl.obj
 0001:00027cc0       ??0?$CComPtr@UIDataAdviseHolder@@@ATL@@QAE@XZ 10028cc0 f i GestureControlImpl.obj
 0001:00027cf0       ??0?$CComPtr@UIOleAdviseHolder@@@ATL@@QAE@XZ 10028cf0 f i GestureControlImpl.obj
 0001:00027d20       ??0?$CComPtr@UIOleClientSite@@@ATL@@QAE@XZ 10028d20 f i GestureControlImpl.obj
 0001:00027d50       ??0?$CComPtr@UIOleInPlaceSiteWindowless@@@ATL@@QAE@XZ 10028d50 f i GestureControlImpl.obj
 0001:00027d80       ??0?$CComPtrBase@UIAdviseSink@@@ATL@@IAE@XZ 10028d80 f i GestureControlImpl.obj
 0001:00027da0       ??0?$CComPtrBase@UIDataAdviseHolder@@@ATL@@IAE@XZ 10028da0 f i GestureControlImpl.obj
 0001:00027dc0       ??0?$CComPtrBase@UIOleAdviseHolder@@@ATL@@IAE@XZ 10028dc0 f i GestureControlImpl.obj
 0001:00027de0       ??0?$CComPtrBase@UIOleClientSite@@@ATL@@IAE@XZ 10028de0 f i GestureControlImpl.obj
 0001:00027e00       ??0?$CComPtrBase@UIOleInPlaceSiteWindowless@@@ATL@@IAE@XZ 10028e00 f i GestureControlImpl.obj
 0001:00027e20       ??0?$CComQIPtr@UIDispatch@@$1?_GUID_00020400_0000_0000_c000_000000000046@@3U__s_GUID@@B@ATL@@QAE@XZ 10028e20 f i GestureControlImpl.obj
 0001:00027e50       ??0?$CProxy_IOPOSEvents@VCOPOSGestureControl@@@@QAE@PAVCOPOSGestureControl@@@Z 10028e50 f i GestureControlImpl.obj
 0001:00027ec0       ??0?$CWindowImpl@VCOPOSGestureControl@@VCWindow@ATL@@V?$CWinTraits@$0FGAAAAAA@$0A@@3@@ATL@@QAE@XZ 10028ec0 f i GestureControlImpl.obj
 0001:00027ef0       ??0?$CWindowImplBaseT@VCWindow@ATL@@V?$CWinTraits@$0FGAAAAAA@$0A@@2@@ATL@@QAE@XZ 10028ef0 f i GestureControlImpl.obj
 0001:00027f30       ??0?$CWindowImplRoot@VCWindow@ATL@@@ATL@@QAE@XZ 10028f30 f i GestureControlImpl.obj
 0001:00027f90       ??0?$IConnectionPointContainerImpl@VCOPOSGestureControl@@@ATL@@QAE@XZ 10028f90 f i GestureControlImpl.obj
 0001:00027fc0       ??0?$IConnectionPointImpl@VCOPOSGestureControl@@$1?DIID__IOPOSGestureControlEvents@@3U_GUID@@BVCComDynamicUnkArray@ATL@@@ATL@@QAE@XZ 10028fc0 f i GestureControlImpl.obj
 0001:00028000       ??0?$IConnectionPointImpl@VCOPOSGestureControl@@$1?IID_IPropertyNotifySink@@3U_GUID@@BVCComDynamicUnkArray@ATL@@@ATL@@QAE@XZ 10029000 f i GestureControlImpl.obj
 0001:00028040       ??0?$IDataObjectImpl@VCOPOSGestureControl@@@ATL@@QAE@XZ 10029040 f i GestureControlImpl.obj
 0001:00028070       ??0?$IDispatchImpl@UIOPOSGestureControl@@$1?IID_IOPOSGestureControl@@3U_GUID@@B$1?LIBID_OposGestureControl_CCO@@3U3@B$00$0A@VCComTypeInfoHolder@ATL@@@ATL@@QAE@XZ 10029070 f i GestureControlImpl.obj
 0001:000280a0       ??0?$IObjectSafetyImpl@VCOPOSGestureControl@@$02@ATL@@QAE@XZ 100290a0 f i GestureControlImpl.obj
 0001:000280e0       ??0?$IOleControlImpl@VCOPOSGestureControl@@@ATL@@QAE@XZ 100290e0 f i GestureControlImpl.obj
 0001:00028110       ??0?$IOleInPlaceActiveObjectImpl@VCOPOSGestureControl@@@ATL@@QAE@XZ 10029110 f i GestureControlImpl.obj
 0001:00028140       ??0?$IOleInPlaceObjectWindowlessImpl@VCOPOSGestureControl@@@ATL@@QAE@XZ 10029140 f i GestureControlImpl.obj
 0001:00028170       ??0?$IOleObjectImpl@VCOPOSGestureControl@@@ATL@@QAE@XZ 10029170 f i GestureControlImpl.obj
 0001:000281a0       ??0?$IPersistStorageImpl@VCOPOSGestureControl@@@ATL@@QAE@XZ 100291a0 f i GestureControlImpl.obj
 0001:000281d0       ??0?$IPersistStreamInitImpl@VCOPOSGestureControl@@@ATL@@QAE@XZ 100291d0 f i GestureControlImpl.obj
 0001:00028200       ??0?$IPropertyNotifySinkCP@VCOPOSGestureControl@@VCComDynamicUnkArray@ATL@@@ATL@@QAE@XZ 10029200 f i GestureControlImpl.obj
 0001:00028230       ??0?$IProvideClassInfo2Impl@$1?CLSID_OPOSGestureControl@@3U_GUID@@B$1?DIID__IOPOSGestureControlEvents@@3U2@B$1?LIBID_OposGestureControl_CCO@@3U2@B$00$0A@VCComTypeInfoHolder@ATL@@@ATL@@QAE@XZ 10029230 f i GestureControlImpl.obj
 0001:00028260       ??0?$IQuickActivateImpl@VCOPOSGestureControl@@@ATL@@QAE@XZ 10029260 f i GestureControlImpl.obj
 0001:00028290       ??0?$ISpecifyPropertyPagesImpl@VCOPOSGestureControl@@@ATL@@QAE@XZ 10029290 f i GestureControlImpl.obj
 0001:000282c0       ??0?$IViewObjectExImpl@VCOPOSGestureControl@@@ATL@@QAE@XZ 100292c0 f i GestureControlImpl.obj
 0001:000282f0       ??0?$_ICPLocator@$1?DIID__IOPOSGestureControlEvents@@3U_GUID@@B@ATL@@QAE@XZ 100292f0 f i GestureControlImpl.obj
 0001:00028310       ??0?$_ICPLocator@$1?IID_IPropertyNotifySink@@3U_GUID@@B@ATL@@QAE@XZ 10029310 f i GestureControlImpl.obj
 0001:00028330       ??0CComControlBase@ATL@@QAE@AAPAUHWND__@@@Z 10029330 f i GestureControlImpl.obj
 0001:000284e0       ??0CComDynamicUnkArray@ATL@@QAE@XZ 100294e0 f i GestureControlImpl.obj
 0001:00028510       ??0CDynamicStdCallThunk2@ATL@@QAE@XZ 10029510 f i GestureControlImpl.obj
 0001:00028530       ??0CMessageMap@ATL@@QAE@XZ 10029530 f i GestureControlImpl.obj
 0001:00028550       ??0CWindow@ATL@@QAE@PAUHWND__@@@Z 10029550 f i GestureControlImpl.obj
 0001:00028570       ??0CWndProcThunk@ATL@@QAE@XZ 10029570 f i GestureControlImpl.obj
 0001:000285a0       ??0IConnectionPointContainer@@QAE@XZ 100295a0 f i GestureControlImpl.obj
 0001:000285d0       ??0IDataObject@@QAE@XZ     100295d0 f i GestureControlImpl.obj
 0001:00028600       ??0IDispatch@@QAE@XZ       10029600 f i GestureControlImpl.obj
 0001:00028630       ??0IOPOSGestureControl@@QAE@XZ 10029630 f i GestureControlImpl.obj
 0001:00028660       ??0IOPOSGestureControl_1_16@@QAE@XZ 10029660 f i GestureControlImpl.obj
 0001:00028690       ??0IObjectSafety@@QAE@XZ   10029690 f i GestureControlImpl.obj
 0001:000286c0       ??0IOleControl@@QAE@XZ     100296c0 f i GestureControlImpl.obj
 0001:000286f0       ??0IOleInPlaceActiveObject@@QAE@XZ 100296f0 f i GestureControlImpl.obj
 0001:00028720       ??0IOleInPlaceObject@@QAE@XZ 10029720 f i GestureControlImpl.obj
 0001:00028750       ??0IOleInPlaceObjectWindowless@@QAE@XZ 10029750 f i GestureControlImpl.obj
 0001:00028780       ??0IOleObject@@QAE@XZ      10029780 f i GestureControlImpl.obj
 0001:000287b0       ??0IOleWindow@@QAE@XZ      100297b0 f i GestureControlImpl.obj
 0001:000287e0       ??0IPersist@@QAE@XZ        100297e0 f i GestureControlImpl.obj
 0001:00028810       ??0IPersistStorage@@QAE@XZ 10029810 f i GestureControlImpl.obj
 0001:00028840       ??0IPersistStreamInit@@QAE@XZ 10029840 f i GestureControlImpl.obj
 0001:00028870       ??0IProvideClassInfo2@@QAE@XZ 10029870 f i GestureControlImpl.obj
 0001:000288a0       ??0IProvideClassInfo@@QAE@XZ 100298a0 f i GestureControlImpl.obj
 0001:000288d0       ??0IQuickActivate@@QAE@XZ  100298d0 f i GestureControlImpl.obj
 0001:00028900       ??0ISpecifyPropertyPages@@QAE@XZ 10029900 f i GestureControlImpl.obj
 0001:00028930       ??0IViewObject2@@QAE@XZ    10029930 f i GestureControlImpl.obj
 0001:00028960       ??0IViewObject@@QAE@XZ     10029960 f i GestureControlImpl.obj
 0001:00028990       ??0IViewObjectEx@@QAE@XZ   10029990 f i GestureControlImpl.obj
 0001:000289c0       ??0OposVariantResult@@QAE@XZ 100299c0 f i GestureControlImpl.obj
 0001:000289f0       ??0_CW@@QAE@PBD@Z          100299f0 f i GestureControlImpl.obj
 0001:00028a30       ??0_CW@@QAE@PB_W@Z         10029a30 f i GestureControlImpl.obj
 0001:00028a70       ??0_CWNCC@@QAE@PBD@Z       10029a70 f i GestureControlImpl.obj
 0001:00028aa0       ??1?$CComControl@VCOPOSGestureControl@@V?$CWindowImpl@VCOPOSGestureControl@@VCWindow@ATL@@V?$CWinTraits@$0FGAAAAAA@$0A@@3@@ATL@@@ATL@@UAE@XZ 10029aa0 f i GestureControlImpl.obj
 0001:00028ad0       ??1?$CComPtr@UIDataAdviseHolder@@@ATL@@QAE@XZ 10029ad0 f i GestureControlImpl.obj
 0001:00028b00       ??1?$CComPtr@UIOleAdviseHolder@@@ATL@@QAE@XZ 10029b00 f i GestureControlImpl.obj
 0001:00028b30       ??1?$CComPtr@UIOleInPlaceSiteWindowless@@@ATL@@QAE@XZ 10029b30 f i GestureControlImpl.obj
 0001:00028b60       ??1?$CComPtrBase@UIDataAdviseHolder@@@ATL@@QAE@XZ 10029b60 f i GestureControlImpl.obj
 0001:00028bb0       ??1?$CComPtrBase@UIOleAdviseHolder@@@ATL@@QAE@XZ 10029bb0 f i GestureControlImpl.obj
 0001:00028c00       ??1?$CComPtrBase@UIOleInPlaceSiteWindowless@@@ATL@@QAE@XZ 10029c00 f i GestureControlImpl.obj
 0001:00028c50       ??1?$CComQIPtr@UIDispatch@@$1?_GUID_00020400_0000_0000_c000_000000000046@@3U__s_GUID@@B@ATL@@QAE@XZ 10029c50 f i GestureControlImpl.obj
 0001:00028c80       ??1?$CProxy_IOPOSEvents@VCOPOSGestureControl@@@@QAE@XZ 10029c80 f i GestureControlImpl.obj
 0001:00028cb0       ??1?$CWindowImpl@VCOPOSGestureControl@@VCWindow@ATL@@V?$CWinTraits@$0FGAAAAAA@$0A@@3@@ATL@@UAE@XZ 10029cb0 f i GestureControlImpl.obj
 0001:00028ce0       ??1?$CWindowImplBaseT@VCWindow@ATL@@V?$CWinTraits@$0FGAAAAAA@$0A@@2@@ATL@@UAE@XZ 10029ce0 f i GestureControlImpl.obj
 0001:00028d10       ??1?$CWindowImplRoot@VCWindow@ATL@@@ATL@@UAE@XZ 10029d10 f i GestureControlImpl.obj
 0001:00028db0       ??1?$IConnectionPointImpl@VCOPOSGestureControl@@$1?DIID__IOPOSGestureControlEvents@@3U_GUID@@BVCComDynamicUnkArray@ATL@@@ATL@@QAE@XZ 10029db0 f i GestureControlImpl.obj
 0001:00028e30       ??1?$IConnectionPointImpl@VCOPOSGestureControl@@$1?IID_IPropertyNotifySink@@3U_GUID@@BVCComDynamicUnkArray@ATL@@@ATL@@QAE@XZ 10029e30 f i GestureControlImpl.obj
 0001:00028eb0       ??1?$IPropertyNotifySinkCP@VCOPOSGestureControl@@VCComDynamicUnkArray@ATL@@@ATL@@QAE@XZ 10029eb0 f i GestureControlImpl.obj
 0001:00028ee0       ??1CComControlBase@ATL@@UAE@XZ 10029ee0 f i GestureControlImpl.obj
 0001:00028fa0       ??1CComDynamicUnkArray@ATL@@QAE@XZ 10029fa0 f i GestureControlImpl.obj
 0001:00028fe0       ??1CDynamicStdCallThunk2@ATL@@QAE@XZ 10029fe0 f i GestureControlImpl.obj
 0001:00029010       ??1CWndProcThunk@ATL@@QAE@XZ 1002a010 f i GestureControlImpl.obj
 0001:00029040       ??1OposVariantResult@@QAE@XZ 1002a040 f i GestureControlImpl.obj
 0001:00029070       ??1_CW@@QAE@XZ             1002a070 f i GestureControlImpl.obj
 0001:000290e0       ??1_CWNCC@@QAE@XZ          1002a0e0 f i GestureControlImpl.obj
 0001:00029110       ??B_CW@@QAEPB_WXZ          1002a110 f i GestureControlImpl.obj
 0001:00029150       ??B_CWNCC@@QAEPA_WXZ       1002a150 f i GestureControlImpl.obj
 0001:00029180       ??_EOposVariant@@QAEPAXI@Z 1002a180 f i GestureControlImpl.obj
 0001:00029210       ?EventClaim@COPOSGestureControl@@IAEXXZ 1002a210 f i GestureControlImpl.obj
 0001:00029250       ?EventClose@COPOSGestureControl@@IAEXXZ 1002a250 f i GestureControlImpl.obj
 0001:000292f0       ?EventInit@COPOSGestureControl@@IAEJXZ 1002a2f0 f i GestureControlImpl.obj
 0001:00029520       ?EventOpen@COPOSGestureControl@@IAEXXZ 1002a520 f i GestureControlImpl.obj
 0001:00029560       ?EventPreCloseRelease@COPOSGestureControl@@IAEXXZ 1002a560 f i GestureControlImpl.obj
 0001:000295e0       ?EventUninit@COPOSGestureControl@@IAEXXZ 1002a5e0 f i GestureControlImpl.obj
 0001:00029710       ?EventWindowProc@COPOSGestureControl@@IAGJIIJ@Z 1002a710 f i GestureControlImpl.obj
 0001:00029890       ?FireEventCleanup@COPOSGestureControl@@IAEXXZ 1002a890 f i GestureControlImpl.obj
 0001:000298e0       ?FireEventSetup@COPOSGestureControl@@IAE_NXZ 1002a8e0 f i GestureControlImpl.obj
 0001:00029950       ?GetModuleInstance@CComModule@ATL@@QAEPAUHINSTANCE__@@XZ 1002a950 f i GestureControlImpl.obj
 0001:00029970       ?SetRC@COPOSGestureControl@@IAEJJ@Z 1002a970 f i GestureControlImpl.obj
 0001:000299a0       ?s_EventWindowProc@COPOSGestureControl@@KGJPAUHWND__@@IIJ@Z 1002a9a0 f i GestureControlImpl.obj
 0001:00029a40       __snwprintf                1002aa40 f i GestureControlImpl.obj
 0001:00029aa0       __vfwprintf_l              1002aaa0 f i GestureControlImpl.obj
 0001:00029ad0       __vsnwprintf               1002aad0 f i GestureControlImpl.obj
 0001:00029b00       __vsnwprintf_l             1002ab00 f i GestureControlImpl.obj
 0001:00029b70       _vfwprintf                 1002ab70 f i GestureControlImpl.obj
 0001:00029b92       _DebugBreak@0              1002ab92 f   kernel32:KERNEL32.dll
 0001:00029b98       _Sleep@4                   1002ab98 f   kernel32:KERNEL32.dll
 0001:00029b9e       _GetCurrentProcess@0       1002ab9e f   kernel32:KERNEL32.dll
 0001:00029ba4       _TerminateProcess@8        1002aba4 f   kernel32:KERNEL32.dll
 0001:00029baa       _MultiByteToWideChar@24    1002abaa f   kernel32:KERNEL32.dll
 0001:00029bb0       _WideCharToMultiByte@32    1002abb0 f   kernel32:KERNEL32.dll
 0001:00029bb6       _DecodePointer@4           1002abb6 f   kernel32:KERNEL32.dll
 0001:00029bbc       _RaiseException@16         1002abbc f   kernel32:KERNEL32.dll
 0001:00029bc2       _GetLastError@0            1002abc2 f   kernel32:KERNEL32.dll
 0001:00029bc8       _SetLastError@4            1002abc8 f   kernel32:KERNEL32.dll
 0001:00029bce       _InitializeCriticalSectionEx@12 1002abce f   kernel32:KERNEL32.dll
 0001:00029bd4       _DeleteCriticalSection@4   1002abd4 f   kernel32:KERNEL32.dll
 0001:00029bda       _EncodePointer@4           1002abda f   kernel32:KERNEL32.dll
 0001:00029be0       _EnterCriticalSection@4    1002abe0 f   kernel32:KERNEL32.dll
 0001:00029be6       _LeaveCriticalSection@4    1002abe6 f   kernel32:KERNEL32.dll
 0001:00029bec       _ResetEvent@4              1002abec f   kernel32:KERNEL32.dll
 0001:00029bf2       _ReleaseMutex@4            1002abf2 f   kernel32:KERNEL32.dll
 0001:00029bf8       _WaitForSingleObject@8     1002abf8 f   kernel32:KERNEL32.dll
 0001:00029bfe       _GetCurrentThreadId@0      1002abfe f   kernel32:KERNEL32.dll
 0001:00029c04       _DisableThreadLibraryCalls@4 1002ac04 f   kernel32:KERNEL32.dll
 0001:00029c0a       _FreeLibrary@4             1002ac0a f   kernel32:KERNEL32.dll
 0001:00029c10       _GetModuleFileNameW@12     1002ac10 f   kernel32:KERNEL32.dll
 0001:00029c16       _GetModuleHandleW@4        1002ac16 f   kernel32:KERNEL32.dll
 0001:00029c1c       _GetProcAddress@8          1002ac1c f   kernel32:KERNEL32.dll
 0001:00029c22       _LoadLibraryExW@12         1002ac22 f   kernel32:KERNEL32.dll
 0001:00029c28       _LoadResource@8            1002ac28 f   kernel32:KERNEL32.dll
 0001:00029c2e       _SizeofResource@8          1002ac2e f   kernel32:KERNEL32.dll
 0001:00029c34       _FindResourceW@12          1002ac34 f   kernel32:KERNEL32.dll
 0001:00029c3a       _GlobalAlloc@8             1002ac3a f   kernel32:KERNEL32.dll
 0001:00029c40       _GlobalUnlock@4            1002ac40 f   kernel32:KERNEL32.dll
 0001:00029c46       _GlobalLock@4              1002ac46 f   kernel32:KERNEL32.dll
 0001:00029c4c       _MulDiv@12                 1002ac4c f   kernel32:KERNEL32.dll
 0001:00029c52       _lstrcmpiW@8               1002ac52 f   kernel32:KERNEL32.dll
 0001:00029c58       _DeleteFileW@4             1002ac58 f   kernel32:KERNEL32.dll
 0001:00029c5e       _CloseHandle@4             1002ac5e f   kernel32:KERNEL32.dll
 0001:00029c64       _SetEvent@4                1002ac64 f   kernel32:KERNEL32.dll
 0001:00029c6a       _CreateMutexW@12           1002ac6a f   kernel32:KERNEL32.dll
 0001:00029c70       _CreateEventW@16           1002ac70 f   kernel32:KERNEL32.dll
 0001:00029c76       _GetCurrentProcessId@0     1002ac76 f   kernel32:KERNEL32.dll
 0001:00029c7c       _LocalFree@4               1002ac7c f   kernel32:KERNEL32.dll
 0001:00029c82       _FormatMessageW@28         1002ac82 f   kernel32:KERNEL32.dll
 0001:00029c88       _GetActiveWindow@0         1002ac88 f   user32:USER32.dll
 0001:00029c8e       _MessageBoxW@16            1002ac8e f   user32:USER32.dll
 0001:00029c94       _UnregisterClassW@8        1002ac94 f   user32:USER32.dll
 0001:00029c9a       _PostMessageW@16           1002ac9a f   user32:USER32.dll
 0001:00029ca0       _DefWindowProcW@16         1002aca0 f   user32:USER32.dll
 0001:00029ca6       _CallWindowProcW@20        1002aca6 f   user32:USER32.dll
 0001:00029cac       _RegisterClassExW@4        1002acac f   user32:USER32.dll
 0001:00029cb2       _GetClassInfoExW@12        1002acb2 f   user32:USER32.dll
 0001:00029cb8       _CreateWindowExW@48        1002acb8 f   user32:USER32.dll
 0001:00029cbe       _IsWindow@4                1002acbe f   user32:USER32.dll
 0001:00029cc4       _IsChild@8                 1002acc4 f   user32:USER32.dll
 0001:00029cca       _DestroyWindow@4           1002acca f   user32:USER32.dll
 0001:00029cd0       _ShowWindow@8              1002acd0 f   user32:USER32.dll
 0001:00029cd6       _SetWindowPos@28           1002acd6 f   user32:USER32.dll
 0001:00029cdc       _CharNextW@4               1002acdc f   user32:USER32.dll
 0001:00029ce2       _SetFocus@4                1002ace2 f   user32:USER32.dll
 0001:00029ce8       _GetFocus@0                1002ace8 f   user32:USER32.dll
 0001:00029cee       _GetKeyState@4             1002acee f   user32:USER32.dll
 0001:00029cf4       _GetDC@4                   1002acf4 f   user32:USER32.dll
 0001:00029cfa       _ReleaseDC@8               1002acfa f   user32:USER32.dll
 0001:00029d00       _BeginPaint@8              1002ad00 f   user32:USER32.dll
 0001:00029d06       _EndPaint@8                1002ad06 f   user32:USER32.dll
 0001:00029d0c       _SetWindowRgn@12           1002ad0c f   user32:USER32.dll
 0001:00029d12       _InvalidateRect@12         1002ad12 f   user32:USER32.dll
 0001:00029d18       _GetClientRect@8           1002ad18 f   user32:USER32.dll
 0001:00029d1e       _IntersectRect@12          1002ad1e f   user32:USER32.dll
 0001:00029d24       _UnionRect@12              1002ad24 f   user32:USER32.dll
 0001:00029d2a       _OffsetRect@12             1002ad2a f   user32:USER32.dll
 0001:00029d30       _EqualRect@8               1002ad30 f   user32:USER32.dll
 0001:00029d36       _PtInRect@12               1002ad36 f   user32:USER32.dll
 0001:00029d3c       _GetWindowLongW@8          1002ad3c f   user32:USER32.dll
 0001:00029d42       _SetWindowLongW@12         1002ad42 f   user32:USER32.dll
 0001:00029d48       _GetParent@4               1002ad48 f   user32:USER32.dll
 0001:00029d4e       _LoadCursorW@8             1002ad4e f   user32:USER32.dll
 0001:00029d54       _PeekMessageW@20           1002ad54 f   user32:USER32.dll
 0001:00029d5a       _RegisterClassW@4          1002ad5a f   user32:USER32.dll
 0001:00029d60       _LoadBitmapW@8             1002ad60 f   user32:USER32.dll
 0001:00029d66       _CloseMetaFile@4           1002ad66 f   gdi32:GDI32.dll
 0001:00029d6c       _CreateDCW@16              1002ad6c f   gdi32:GDI32.dll
 0001:00029d72       _CreateMetaFileW@4         1002ad72 f   gdi32:GDI32.dll
 0001:00029d78       _CreateRectRgnIndirect@4   1002ad78 f   gdi32:GDI32.dll
 0001:00029d7e       _DeleteDC@4                1002ad7e f   gdi32:GDI32.dll
 0001:00029d84       _DeleteMetaFile@4          1002ad84 f   gdi32:GDI32.dll
 0001:00029d8a       _GetDeviceCaps@8           1002ad8a f   gdi32:GDI32.dll
 0001:00029d90       _RestoreDC@8               1002ad90 f   gdi32:GDI32.dll
 0001:00029d96       _SaveDC@4                  1002ad96 f   gdi32:GDI32.dll
 0001:00029d9c       _SetMapMode@8              1002ad9c f   gdi32:GDI32.dll
 0001:00029da2       _LPtoDP@12                 1002ada2 f   gdi32:GDI32.dll
 0001:00029da8       _SetViewportOrgEx@16       1002ada8 f   gdi32:GDI32.dll
 0001:00029dae       _SetWindowExtEx@16         1002adae f   gdi32:GDI32.dll
 0001:00029db4       _SetWindowOrgEx@16         1002adb4 f   gdi32:GDI32.dll
 0001:00029dba       _BitBlt@36                 1002adba f   gdi32:GDI32.dll
 0001:00029dc0       _CreateCompatibleDC@4      1002adc0 f   gdi32:GDI32.dll
 0001:00029dc6       _DeleteObject@4            1002adc6 f   gdi32:GDI32.dll
 0001:00029dcc       _SelectObject@8            1002adcc f   gdi32:GDI32.dll
 0001:00029dd2       _GetObjectW@12             1002add2 f   gdi32:GDI32.dll
 0001:00029dd8       _RegCloseKey@4             1002add8 f   advapi32:ADVAPI32.dll
 0001:00029dde       _RegCreateKeyExW@36        1002adde f   advapi32:ADVAPI32.dll
 0001:00029de4       _RegDeleteKeyW@8           1002ade4 f   advapi32:ADVAPI32.dll
 0001:00029dea       _RegDeleteValueW@8         1002adea f   advapi32:ADVAPI32.dll
 0001:00029df0       _RegEnumKeyExW@32          1002adf0 f   advapi32:ADVAPI32.dll
 0001:00029df6       _RegOpenKeyExW@20          1002adf6 f   advapi32:ADVAPI32.dll
 0001:00029dfc       _RegQueryInfoKeyW@48       1002adfc f   advapi32:ADVAPI32.dll
 0001:00029e02       _RegSetValueExW@24         1002ae02 f   advapi32:ADVAPI32.dll
 0001:00029e08       _RegQueryValueExW@24       1002ae08 f   advapi32:ADVAPI32.dll
 0001:00029e0e       _CoCreateInstance@20       1002ae0e f   ole32:ole32.dll
 0001:00029e14       _StringFromGUID2@12        1002ae14 f   ole32:ole32.dll
 0001:00029e1a       _CoTaskMemAlloc@4          1002ae1a f   ole32:ole32.dll
 0001:00029e20       _CoTaskMemRealloc@8        1002ae20 f   ole32:ole32.dll
 0001:00029e26       _CoTaskMemFree@4           1002ae26 f   ole32:ole32.dll
 0001:00029e2c       _ReadClassStm@8            1002ae2c f   ole32:ole32.dll
 0001:00029e32       _WriteClassStm@8           1002ae32 f   ole32:ole32.dll
 0001:00029e38       _CreateDataAdviseHolder@4  1002ae38 f   ole32:ole32.dll
 0001:00029e3e       _OleSaveToStream@8         1002ae3e f   ole32:ole32.dll
 0001:00029e44       _CreateOleAdviseHolder@4   1002ae44 f   ole32:ole32.dll
 0001:00029e4a       _OleRegGetUserType@12      1002ae4a f   ole32:ole32.dll
 0001:00029e50       _OleRegGetMiscStatus@12    1002ae50 f   ole32:ole32.dll
 0001:00029e56       _OleRegEnumVerbs@8         1002ae56 f   ole32:ole32.dll
 0001:00029e5c       _CLSIDFromProgID@8         1002ae5c f   ole32:ole32.dll
 0001:00029e62       _SysAllocString@4          1002ae62 f   oleaut32:OLEAUT32.dll
 0001:00029e68       _SysAllocStringLen@8       1002ae68 f   oleaut32:OLEAUT32.dll
 0001:00029e6e       _SysFreeString@4           1002ae6e f   oleaut32:OLEAUT32.dll
 0001:00029e74       _SysStringLen@4            1002ae74 f   oleaut32:OLEAUT32.dll
 0001:00029e7a       _VariantClear@4            1002ae7a f   oleaut32:OLEAUT32.dll
 0001:00029e80       _VariantCopyInd@8          1002ae80 f   oleaut32:OLEAUT32.dll
 0001:00029e86       _VariantChangeType@16      1002ae86 f   oleaut32:OLEAUT32.dll
 0001:00029e8c       _SysStringByteLen@4        1002ae8c f   oleaut32:OLEAUT32.dll
 0001:00029e92       _SysAllocStringByteLen@8   1002ae92 f   oleaut32:OLEAUT32.dll
 0001:00029e98       _VariantInit@4             1002ae98 f   oleaut32:OLEAUT32.dll
 0001:00029e9e       _VarUI4FromStr@16          1002ae9e f   oleaut32:OLEAUT32.dll
 0001:00029ea4       _LoadTypeLib@8             1002aea4 f   oleaut32:OLEAUT32.dll
 0001:00029eaa       _LoadRegTypeLib@20         1002aeaa f   oleaut32:OLEAUT32.dll
 0001:00029eb0       _RegisterTypeLib@12        1002aeb0 f   oleaut32:OLEAUT32.dll
 0001:00029eb6       _UnRegisterTypeLib@20      1002aeb6 f   oleaut32:OLEAUT32.dll
 0001:00029ebc       _OleCreatePropertyFrame@44 1002aebc f   oleaut32:OLEAUT32.dll
 0001:00029ed0       @_RTC_AllocaHelper@12      1002aed0 f   LIBCMTD:stack.obj
 0001:00029f10       @_RTC_CheckStackVars2@12   1002af10 f   LIBCMTD:stack.obj
 0001:00029ff0       @_RTC_CheckStackVars@8     1002aff0 f   LIBCMTD:stack.obj
 0001:0002a050       __RTC_CheckEsp             1002b050 f   LIBCMTD:stack.obj
 0001:0002a090       @__security_check_cookie@4 1002b090 f   LIBCMTD:secchk.obj
 0001:0002a0b0       __CRT_RTC_INIT             1002b0b0 f   LIBCMTD:init.obj
 0001:0002a0c0       __CRT_RTC_INITW            1002b0c0 f   LIBCMTD:init.obj
 0001:0002a0d0       __RTC_InitBase             1002b0d0 f   LIBCMTD:init.obj
 0001:0002a100       __RTC_Shutdown             1002b100 f   LIBCMTD:init.obj
 0001:0002a120       ??_U@YAPAXI@Z              1002b120 f   LIBCMTD:new_array.obj
 0001:0002a140       ??3@YAXPAXI@Z              1002b140 f   LIBCMTD:delete_scalar_size.obj
 0001:0002a160       ??_V@YAXPAX@Z              1002b160 f   LIBCMTD:delete_array.obj
 0001:0002a180       ??_V@YAXPAXI@Z             1002b180 f   LIBCMTD:delete_array_size.obj
 0001:0002a1a0       ?configure_argv@__scrt_narrow_argv_policy@@SAHXZ 1002b1a0 f i LIBCMTD:utility.obj
 0001:0002a250       ?initialize_environment@__scrt_narrow_environment_policy@@SAHXZ 1002b250 f i LIBCMTD:utility.obj
 0001:0002a2d0       _NtCurrentTeb              1002b2d0 f i LIBCMTD:utility.obj
 0001:0002a2e0       ___scrt_acquire_startup_lock 1002b2e0 f   LIBCMTD:utility.obj
 0001:0002a330       ___scrt_dllmain_after_initialize_c 1002b330 f   LIBCMTD:utility.obj
 0001:0002a360       ___scrt_dllmain_before_initialize_c 1002b360 f   LIBCMTD:utility.obj
 0001:0002a380       ___scrt_dllmain_crt_thread_attach 1002b380 f   LIBCMTD:utility.obj
 0001:0002a3b0       ___scrt_dllmain_crt_thread_detach 1002b3b0 f   LIBCMTD:utility.obj
 0001:0002a3d0       ___scrt_dllmain_exception_filter 1002b3d0 f   LIBCMTD:utility.obj
 0001:0002a420       ___scrt_dllmain_uninitialize_c 1002b420 f   LIBCMTD:utility.obj
 0001:0002a450       ___scrt_dllmain_uninitialize_critical 1002b450 f   LIBCMTD:utility.obj
 0001:0002a470       ___scrt_initialize_crt     1002b470 f   LIBCMTD:utility.obj
 0001:0002a4c0       ___scrt_initialize_onexit_tables 1002b4c0 f   LIBCMTD:utility.obj
 0001:0002a5a0       ___scrt_is_nonwritable_in_current_image 1002b5a0 f   LIBCMTD:utility.obj
 0001:0002a6d0       ___scrt_release_startup_lock 1002b6d0 f   LIBCMTD:utility.obj
 0001:0002a700       ___scrt_uninitialize_crt   1002b700 f   LIBCMTD:utility.obj
 0001:0002a740       __onexit                   1002b740 f   LIBCMTD:utility.obj
 0001:0002a7b0       _at_quick_exit             1002b7b0 f   LIBCMTD:utility.obj
 0001:0002a7f0       _atexit                    1002b7f0 f   LIBCMTD:utility.obj
 0001:0002a820       ??3@YAXPAX@Z               1002b820 f   LIBCMTD:delete_scalar.obj
 0001:0002a840       ___raise_securityfailure   1002b840 f   LIBCMTD:gs_report.obj
 0001:0002a870       ___report_gsfailure        1002b870 f   LIBCMTD:gs_report.obj
 0001:0002a980       ___report_rangecheckfailure 1002b980 f   LIBCMTD:gs_report.obj
 0001:0002a990       ___report_securityfailure  1002b990 f   LIBCMTD:gs_report.obj
 0001:0002aa70       ___report_securityfailureEx 1002ba70 f   LIBCMTD:gs_report.obj
 0001:0002acc0       __Init_thread_abort        1002bcc0 f   LIBCMTD:thread_safe_statics.obj
 0001:0002ace0       __Init_thread_footer       1002bce0 f   LIBCMTD:thread_safe_statics.obj
 0001:0002ad30       __Init_thread_header       1002bd30 f   LIBCMTD:thread_safe_statics.obj
 0001:0002ada0       __Init_thread_lock         1002bda0 f   LIBCMTD:thread_safe_statics.obj
 0001:0002adb0       __Init_thread_notify       1002bdb0 f   LIBCMTD:thread_safe_statics.obj
 0001:0002ae00       __Init_thread_unlock       1002be00 f   LIBCMTD:thread_safe_statics.obj
 0001:0002ae10       __Init_thread_wait         1002be10 f   LIBCMTD:thread_safe_statics.obj
 0001:0002aea0       ??2@YAPAXIABUnothrow_t@std@@@Z 1002bea0 f   LIBCMTD:new_scalar_nothrow.obj
 0001:0002af30       ??_U@YAPAXIABUnothrow_t@std@@@Z 1002bf30 f   LIBCMTD:new_array_nothrow.obj
 0001:0002af50       __allmul                   1002bf50 f   LIBCMTD:llmul.obj
 0001:0002af90       __alloca_probe_16          1002bf90 f   LIBCMTD:alloca16.obj
 0001:0002afa6       __alloca_probe_8           1002bfa6     LIBCMTD:alloca16.obj
 0001:0002afc0       __alloca_probe             1002bfc0 f   LIBCMTD:chkstk.obj
 0001:0002afc0       __chkstk                   1002bfc0 f   LIBCMTD:chkstk.obj
 0001:0002b4c0       __CRT_INIT@12              1002c4c0 f   LIBCMTD:dll_dllmain.obj
 0001:0002b4e0       __DllMainCRTStartup@12     1002c4e0 f   LIBCMTD:dll_dllmain.obj
 0001:0002b5a0       ?_RTC_AllocaFailure@@YAXPAXPAU_RTC_ALLOCA_NODE@@H@Z 1002c5a0 f   LIBCMTD:error.obj
 0001:0002b690       ?_RTC_Failure@@YAXPAXH@Z   1002c690 f   LIBCMTD:error.obj
 0001:0002b6e0       ?_RTC_StackFailure@@YAXPAXPBD@Z 1002c6e0 f   LIBCMTD:error.obj
 0001:0002baa0       __RTC_UninitUse            1002caa0 f   LIBCMTD:error.obj
 0001:0002bb50       __vsprintf_s_l             1002cb50 f i LIBCMTD:error.obj
 0001:0002bb80       _sprintf_s                 1002cb80 f i LIBCMTD:error.obj
 0001:0002bba0       ?_RTC_GetErrorFunc@@YAP6AHHPBDH00ZZPBX@Z 1002cba0 f   LIBCMTD:userapi.obj
 0001:0002bbb0       ?_RTC_GetErrorFuncW@@YAP6AHHPB_WH00ZZPBX@Z 1002cbb0 f   LIBCMTD:userapi.obj
 0001:0002bbc0       __RTC_GetErrDesc           1002cbc0 f   LIBCMTD:userapi.obj
 0001:0002bbe0       __RTC_NumErrors            1002cbe0 f   LIBCMTD:userapi.obj
 0001:0002bbf0       __RTC_SetErrorFunc         1002cbf0 f   LIBCMTD:userapi.obj
 0001:0002bc10       __RTC_SetErrorFuncW        1002cc10 f   LIBCMTD:userapi.obj
 0001:0002bc30       __RTC_SetErrorType         1002cc30 f   LIBCMTD:userapi.obj
 0001:0002bc60       ??2@YAPAXI@Z               1002cc60 f   LIBCMTD:new_scalar.obj
 0001:0002bcb0       ___isa_available_init      1002ccb0 f   LIBCMTD:cpu_disp.obj
 0001:0002bff0       __get_startup_argv_mode    1002cff0 f   LIBCMTD:argv_mode.obj
 0001:0002c000       ___scrt_is_ucrt_dll_in_use 1002d000 f   LIBCMTD:ucrt_detection.obj
 0001:0002c030       ___scrt_fastfail           1002d030 f   LIBCMTD:utility_desktop.obj
 0001:0002c170       ___scrt_get_show_window_mode 1002d170 f   LIBCMTD:utility_desktop.obj
 0001:0002c1b0       ___scrt_initialize_mta     1002d1b0 f   LIBCMTD:utility_desktop.obj
 0001:0002c1c0       ___scrt_initialize_winrt   1002d1c0 f   LIBCMTD:utility_desktop.obj
 0001:0002c1d0       ___scrt_is_managed_app     1002d1d0 f   LIBCMTD:utility_desktop.obj
 0001:0002c260       ___scrt_set_unhandled_exception_filter 1002d260 f   LIBCMTD:utility_desktop.obj
 0001:0002c270       ___scrt_stub_for_initialize_mta 1002d270 f   LIBCMTD:utility_desktop.obj
 0001:0002c270       ___scrt_exe_initialize_mta 1002d270 f   LIBCMTD:utility_desktop.obj
 0001:0002c280       ___scrt_unhandled_exception_filter@4 1002d280 f   LIBCMTD:utility_desktop.obj
 0001:0002c300       __crt_debugger_hook        1002d300 f   LIBCMTD:utility_desktop.obj
 0001:0002c310       @_guard_check_icall_nop@4  1002d310 f i LIBCMTD:guard_support.obj
 0001:0002c320       _ReadNoFence               1002d320 f i LIBCMTD:guard_support.obj
 0001:0002c340       _ReadPointerNoFence        1002d340 f i LIBCMTD:guard_support.obj
 0001:0002c360       ___castguard_check_failure_debugbreak 1002d360 f i LIBCMTD:guard_support.obj
 0001:0002c380       ___castguard_check_failure_fastfail 1002d380 f i LIBCMTD:guard_support.obj
 0001:0002c3a0       ___castguard_check_failure_nop 1002d3a0 f i LIBCMTD:guard_support.obj
 0001:0002c3b0       ___castguard_check_failure_os_handled 1002d3b0 f i LIBCMTD:guard_support.obj
 0001:0002c430       ___castguard_slow_path_check_debugbreak 1002d430 f i LIBCMTD:guard_support.obj
 0001:0002c460       ___castguard_slow_path_check_fastfail 1002d460 f i LIBCMTD:guard_support.obj
 0001:0002c4a0       ___castguard_slow_path_check_nop 1002d4a0 f i LIBCMTD:guard_support.obj
 0001:0002c4b0       ___castguard_slow_path_check_os_handled 1002d4b0 f i LIBCMTD:guard_support.obj
 0001:0002c550       __guard_icall_checks_enforced 1002d550 f i LIBCMTD:guard_support.obj
 0001:0002c5f0       ___security_init_cookie    1002d5f0 f   LIBCMTD:gs_support.obj
 0001:0002c670       ?__scrt_initialize_type_info@@YAXXZ 1002d670 f   LIBCMTD:tncleanup.obj
 0001:0002c680       ?__scrt_uninitialize_type_info@@YAXXZ 1002d680 f   LIBCMTD:tncleanup.obj
 0001:0002c6a0       ___local_stdio_scanf_options 1002d6a0 f i LIBCMTD:default_local_stdio_options.obj
 0001:0002c6b0       ___scrt_initialize_default_local_stdio_options 1002d6b0 f   LIBCMTD:default_local_stdio_options.obj
 0001:0002c6f0       ___scrt_get_dyn_tls_init_callback 1002d6f0 f   LIBCMTD:dyn_tls_init.obj
 0001:0002c700       __RTC_Initialize           1002d700 f   LIBCMTD:initsect.obj
 0001:0002c730       __RTC_Terminate            1002d730 f   LIBCMTD:initsect.obj
 0001:0002cbe0       ?_RTC_GetSrcLine@@YAHPAEPA_WKPAH1K@Z 1002dbe0 f   LIBCMTD:pdblkup.obj
 0001:0002cf60       __except_handler4_noexcept 1002df60 f   LIBCMTD:chandler4_noexcept.obj
 0001:0002cfc0       ??0bad_alloc@std@@AAE@QBD@Z 1002dfc0 f i LIBCMTD:throw_bad_alloc.obj
 0001:0002cff0       ??0bad_alloc@std@@QAE@ABV01@@Z 1002dff0 f i LIBCMTD:throw_bad_alloc.obj
 0001:0002d020       ??0bad_alloc@std@@QAE@XZ   1002e020 f i LIBCMTD:throw_bad_alloc.obj
 0001:0002d050       ??0bad_array_new_length@std@@QAE@ABV01@@Z 1002e050 f i LIBCMTD:throw_bad_alloc.obj
 0001:0002d080       ??0bad_array_new_length@std@@QAE@XZ 1002e080 f i LIBCMTD:throw_bad_alloc.obj
 0001:0002d0b0       ??0exception@std@@QAE@ABV01@@Z 1002e0b0 f i LIBCMTD:throw_bad_alloc.obj
 0001:0002d0f0       ??0exception@std@@QAE@QBDH@Z 1002e0f0 f i LIBCMTD:throw_bad_alloc.obj
 0001:0002d120       ??1bad_alloc@std@@UAE@XZ   1002e120 f i LIBCMTD:throw_bad_alloc.obj
 0001:0002d140       ??1bad_array_new_length@std@@UAE@XZ 1002e140 f i LIBCMTD:throw_bad_alloc.obj
 0001:0002d160       ??1exception@std@@UAE@XZ   1002e160 f i LIBCMTD:throw_bad_alloc.obj
 0001:0002d190       ??_Gbad_alloc@std@@UAEPAXI@Z 1002e190 f i LIBCMTD:throw_bad_alloc.obj
 0001:0002d190       ??_Ebad_alloc@std@@UAEPAXI@Z 1002e190 f i LIBCMTD:throw_bad_alloc.obj
 0001:0002d1c0       ??_Gbad_array_new_length@std@@UAEPAXI@Z 1002e1c0 f i LIBCMTD:throw_bad_alloc.obj
 0001:0002d1c0       ??_Ebad_array_new_length@std@@UAEPAXI@Z 1002e1c0 f i LIBCMTD:throw_bad_alloc.obj
 0001:0002d1f0       ??_Gexception@std@@UAEPAXI@Z 1002e1f0 f i LIBCMTD:throw_bad_alloc.obj
 0001:0002d1f0       ??_Eexception@std@@UAEPAXI@Z 1002e1f0 f i LIBCMTD:throw_bad_alloc.obj
 0001:0002d220       ?__scrt_throw_std_bad_alloc@@YAXXZ 1002e220 f   LIBCMTD:throw_bad_alloc.obj
 0001:0002d240       ?__scrt_throw_std_bad_array_new_length@@YAXXZ 1002e240 f   LIBCMTD:throw_bad_alloc.obj
 0001:0002d260       ?what@exception@std@@UBEPBDXZ 1002e260 f i LIBCMTD:throw_bad_alloc.obj
 0001:0002d290       ??1type_info@@UAE@XZ       1002e290 f   LIBCMTD:std_type_info_static.obj
 0001:0002d2b0       ??_Etype_info@@UAEPAXI@Z   1002e2b0 f i LIBCMTD:std_type_info_static.obj
 0001:0002d2b0       ??_Gtype_info@@UAEPAXI@Z   1002e2b0 f i LIBCMTD:std_type_info_static.obj
 0001:0002d2de       ??$?2PAUHINSTANCE__@@@Wrapper@?$CSimpleArray@PAUHINSTANCE__@@V?$CSimpleArrayEqualHelper@PAUHINSTANCE__@@@ATL@@@ATL@@SAPAXIPAPAUHINSTANCE__@@@Z 1002e2de f i atls:atlbase.obj
 0001:0002d2e6       ??0?$CSimpleArray@PAUHINSTANCE__@@V?$CSimpleArrayEqualHelper@PAUHINSTANCE__@@@ATL@@@ATL@@QAE@XZ 1002e2e6 f i atls:atlbase.obj
 0001:0002d2f3       ??0CAtlBaseModule@ATL@@QAE@XZ 1002e2f3 f   atls:atlbase.obj
 0001:0002d346       ??0Wrapper@?$CSimpleArray@PAUHINSTANCE__@@V?$CSimpleArrayEqualHelper@PAUHINSTANCE__@@@ATL@@@ATL@@QAE@ABQAUHINSTANCE__@@@Z 1002e346 f i atls:atlbase.obj
 0001:0002d356       ??0_ATL_BASE_MODULE70@ATL@@QAE@XZ 1002e356 f i atls:atlbase.obj
 0001:0002d379       ??1?$CSimpleArray@PAUHINSTANCE__@@V?$CSimpleArrayEqualHelper@PAUHINSTANCE__@@@ATL@@@ATL@@QAE@XZ 1002e379 f i atls:atlbase.obj
 0001:0002d37e       ??1CAtlBaseModule@ATL@@QAE@XZ 1002e37e f   atls:atlbase.obj
 0001:0002d394       ??1_ATL_BASE_MODULE70@ATL@@QAE@XZ 1002e394 f i atls:atlbase.obj
 0001:0002d39c       ??A?$CSimpleArray@PAUHINSTANCE__@@V?$CSimpleArrayEqualHelper@PAUHINSTANCE__@@@ATL@@@ATL@@QAEAAPAUHINSTANCE__@@H@Z 1002e39c f i atls:atlbase.obj
 0001:0002d3c1       ?Add@?$CSimpleArray@PAUHINSTANCE__@@V?$CSimpleArrayEqualHelper@PAUHINSTANCE__@@@ATL@@@ATL@@QAEHABQAUHINSTANCE__@@@Z 1002e3c1 f i atls:atlbase.obj
 0001:0002d443       ?AddResourceInstance@CAtlBaseModule@ATL@@QAE_NPAUHINSTANCE__@@@Z 1002e443 f   atls:atlbase.obj
 0001:0002d476       ?GetHInstanceAt@CAtlBaseModule@ATL@@QAEPAUHINSTANCE__@@H@Z 1002e476 f   atls:atlbase.obj
 0001:0002d4bb       ?GetSize@?$CSimpleArray@PAUHINSTANCE__@@V?$CSimpleArrayEqualHelper@PAUHINSTANCE__@@@ATL@@@ATL@@QBEHXZ 1002e4bb f i atls:atlbase.obj
 0001:0002d4bf       ?InternalSetAtIndex@?$CSimpleArray@PAUHINSTANCE__@@V?$CSimpleArrayEqualHelper@PAUHINSTANCE__@@@ATL@@@ATL@@QAEXHABQAUHINSTANCE__@@@Z 1002e4bf f i atls:atlbase.obj
 0001:0002d4d9       ?RemoveAll@?$CSimpleArray@PAUHINSTANCE__@@V?$CSimpleArrayEqualHelper@PAUHINSTANCE__@@@ATL@@@ATL@@QAEXXZ 1002e4d9 f i atls:atlbase.obj
 0001:0002d4f6       ?RemoveAt@?$CSimpleArray@PAUHINSTANCE__@@V?$CSimpleArrayEqualHelper@PAUHINSTANCE__@@@ATL@@@ATL@@QAEHH@Z 1002e4f6 f i atls:atlbase.obj
 0001:0002d544       ?RemoveResourceInstance@CAtlBaseModule@ATL@@QAE_NPAUHINSTANCE__@@@Z 1002e544 f   atls:atlbase.obj
 0001:0002d5a1       ?memmove_s@Checked@ATL@@YAXPAXIPBXI@Z 1002e5a1 f i atls:atlbase.obj
 0001:0002d8fe       ?GetCodeAddress@_stdcallthunk@ATL@@QAEPAXXZ 1002e8fe f i atls:atlthunk.obj
 0001:0002d928       ?Init@_stdcallthunk@ATL@@QAEHKPAX@Z 1002e928 f i atls:atlthunk.obj
 0001:0002d95d       ?__AllocStdCallThunk@@YGPAXXZ 1002e95d f   atls:atlthunk.obj
 0001:0002d962       ?__AllocStdCallThunk@ATL@@YGPAXXZ 1002e962 f   atls:atlthunk.obj
 0001:0002d967       ?__AllocStdCallThunk_cmn@@YAPAXXZ 1002e967 f   atls:atlthunk.obj
 0001:0002da2d       ?__FreeStdCallThunk@@YGXPAX@Z 1002ea2d f   atls:atlthunk.obj
 0001:0002da3d       ?__FreeStdCallThunk@ATL@@YGXPAX@Z 1002ea3d f   atls:atlthunk.obj
 0001:0002da4d       ?__FreeStdCallThunk_cmn@@YAXPAX@Z 1002ea4d f   atls:atlthunk.obj
 0001:0002dae8       _AtlThunk_AllocateData@0   1002eae8 f   atls:atlthunk.obj
 0001:0002db4d       _AtlThunk_DataToCode@4     1002eb4d f   atls:atlthunk.obj
 0001:0002db94       _AtlThunk_FreeData@4       1002eb94 f   atls:atlthunk.obj
 0001:0002dbea       _AtlThunk_InitData@12      1002ebea f   atls:atlthunk.obj
 0001:0002dc39       _MemoryBarrier             1002ec39 f i atls:atlthunk.obj
 0001:0002dc47       __InlineInterlockedCompareExchangePointer 1002ec47 f i atls:atlthunk.obj
 0001:0002dc60       _memset                    1002ec60 f   libvcruntimed:memset.obj
 0001:0002ddc0       ??$__crt_interlocked_exchange_pointer@$$A6AXXZP6AXXZ@@YAP6AXXZPDS6AXXZQ6AXXZ@Z 1002edc0 f i libvcruntimed:purevirt.obj
 0001:0002ddd0       ??$__crt_interlocked_read_pointer@$$A6AXXZ@@YAP6AXXZPDS6AXXZ@Z 1002edd0 f i libvcruntimed:purevirt.obj
 0001:0002ddf0       ?__crt_interlocked_read_32@@YAHPDH@Z 1002edf0 f i libvcruntimed:purevirt.obj
 0001:0002de10       __get_purecall_handler     1002ee10 f   libvcruntimed:purevirt.obj
 0001:0002de30       __purecall                 1002ee30 f   libvcruntimed:purevirt.obj
 0001:0002de60       __set_purecall_handler     1002ee60 f   libvcruntimed:purevirt.obj
 0001:0002e030       _memcmp                    1002f030 f   libvcruntimed:memcmp.obj
 0001:0002e900       _memcpy                    1002f900 f   libvcruntimed:memcpy.obj
 0001:0002ee80       _wcsstr                    1002fe80 f   libvcruntimed:wcsstr.obj
 0001:0002f3b0       __except_handler4          100303b0 f   libvcruntimed:chandler4.obj
 0001:0002f5a0       ___vcrt_initialize         100305a0 f   libvcruntimed:initialization.obj
 0001:0002f5e0       ___vcrt_thread_attach      100305e0 f   libvcruntimed:initialization.obj
 0001:0002f600       ___vcrt_thread_detach      10030600 f   libvcruntimed:initialization.obj
 0001:0002f620       ___vcrt_uninitialize       10030620 f   libvcruntimed:initialization.obj
 0001:0002f640       ___vcrt_uninitialize_critical 10030640 f   libvcruntimed:initialization.obj
 0001:0002f660       ??$?0AAViterator@TryBlockMap@__FrameHandler3@@AAV012@$0A@@?$pair@Viterator@TryBlockMap@__FrameHandler3@@V123@@std@@QAE@AAViterator@TryBlockMap@__FrameHandler3@@0@Z 10030660 f i libvcruntimed:trnsctrl.obj
 0001:0002f6b0       ??$forward@AAViterator@TryBlockMap@__FrameHandler3@@@std@@YAAAViterator@TryBlockMap@__FrameHandler3@@AAV123@@Z 100306b0 f i libvcruntimed:trnsctrl.obj
 0001:0002f6c0       ??0iterator@TryBlockMap@__FrameHandler3@@QAE@AAV12@I@Z 100306c0 f i libvcruntimed:trnsctrl.obj
 0001:0002f6f0       ?GetRangeOfTrysToCheck@__FrameHandler3@@SA?AU?$pair@Viterator@TryBlockMap@__FrameHandler3@@V123@@std@@AAVTryBlockMap@1@HPAXPBU_s_FuncInfo@@H@Z 100306f0 f   libvcruntimed:trnsctrl.obj
 0001:0002f7d0       ?_CallCatchBlock2@@YAPAXPAUEHRegistrationNode@@PBU_s_FuncInfo@@PAXHK@Z 100307d0 f   libvcruntimed:trnsctrl.obj
 0001:0002f840       ?_CallSETranslator@@YAHPAUEHExceptionRecord@@PAUEHRegistrationNode@@PAX2PBU_s_FuncInfo@@H1@Z 10030840 f   libvcruntimed:trnsctrl.obj
 0001:0002f940       ?_JumpToContinuation@@YGXPAXPAUEHRegistrationNode@@@Z 10030940 f   libvcruntimed:trnsctrl.obj
 0001:0002f980       ?_UnwindNestedFrames@@YGXPAUEHRegistrationNode@@PAUEHExceptionRecord@@@Z 10030980 f   libvcruntimed:trnsctrl.obj
 0001:0002f9e0       __CatchGuardHandler        100309e0 f   libvcruntimed:trnsctrl.obj
 0001:0002fa30       __CreateFrameInfo          10030a30 f   libvcruntimed:trnsctrl.obj
 0001:0002fa60       __FindAndUnlinkFrame       10030a60 f   libvcruntimed:trnsctrl.obj
 0001:0002fad0       __TranslatorGuardHandler   10030ad0 f   libvcruntimed:trnsctrl.obj
 0001:0002fb80       ___CxxFrameHandler         10030b80 f   libvcruntimed:trnsctrl.obj
 0001:0002fbc0       ___CxxFrameHandler2        10030bc0 f   libvcruntimed:trnsctrl.obj
 0001:0002fc00       ___CxxFrameHandler3        10030c00 f   libvcruntimed:trnsctrl.obj
 0001:0002fc40       ___CxxLongjmpUnwind@4      10030c40 f   libvcruntimed:trnsctrl.obj
 0001:0002fc80       ___DestructExceptionObject 10030c80 f   libvcruntimed:ehhelpers.obj
 0001:0002fda0       ?_CallMemberFunction0@@YGXQAX0@Z 10030da0 f i libvcruntimed:ehhelpers.obj
 0001:0002fe40       ?raw_name@type_info@@QBEPBDXZ 10030e40 f i libvcruntimed:ehhelpers.obj
 0001:0002fe60       __IsExceptionObjectToBeDestroyed 10030e60 f   libvcruntimed:ehhelpers.obj
 0001:0002fea0       __SetWinRTOutOfMemoryExceptionCallback 10030ea0 f   libvcruntimed:ehhelpers.obj
 0001:0002feb0       ___AdjustPointer           10030eb0 f   libvcruntimed:ehhelpers.obj
 0001:0002ff00       ___FrameUnwindFilter       10030f00 f   libvcruntimed:ehhelpers.obj
 0001:0002ff90       ___GetPlatformExceptionInfo 10030f90 f   libvcruntimed:ehhelpers.obj
 0001:00030010       ___current_exception       10031010 f   libvcruntimed:ehhelpers.obj
 0001:00030020       ___current_exception_context 10031020 f   libvcruntimed:ehhelpers.obj
 0001:00030030       ___processing_throw        10031030 f   libvcruntimed:ehhelpers.obj
 0001:00030040       ___std_terminate           10031040 f   libvcruntimed:ehhelpers.obj
 0001:00030050       __is_exception_typeof      10031050 f   libvcruntimed:ehhelpers.obj
 0001:00030150       ??$?RD@__crt_internal_free_policy@@QBEXQBD@Z 10031150 f i libvcruntimed:std_type_info.obj
 0001:00030170       ??$?RX@__crt_internal_free_policy@@QBEXQBX@Z 10031170 f i libvcruntimed:std_type_info.obj
 0001:00030190       ??$__crt_interlocked_compare_exchange_pointer@$$CBDPAD$$T@@YAPBDPDSBDQAD$$T@Z 10031190 f i libvcruntimed:std_type_info.obj
 0001:000301b0       ??$__crt_interlocked_read_pointer@$$CBD@@YAPBDPDSBD@Z 100311b0 f i libvcruntimed:std_type_info.obj
 0001:000301d0       ??0?$__crt_unique_heap_ptr@DU__crt_internal_free_policy@@@@QAE@QAD@Z 100311d0 f i libvcruntimed:std_type_info.obj
 0001:000301f0       ??0?$__crt_unique_heap_ptr@XU__crt_internal_free_policy@@@@QAE@QAX@Z 100311f0 f i libvcruntimed:std_type_info.obj
 0001:00030210       ??1?$__crt_unique_heap_ptr@DU__crt_internal_free_policy@@@@QAE@XZ 10031210 f i libvcruntimed:std_type_info.obj
 0001:00030230       ??1?$__crt_unique_heap_ptr@XU__crt_internal_free_policy@@@@QAE@XZ 10031230 f i libvcruntimed:std_type_info.obj
 0001:00030250       ??B?$__crt_unique_heap_ptr@DU__crt_internal_free_policy@@@@QBE_NXZ 10031250 f i libvcruntimed:std_type_info.obj
 0001:00030270       ??B?$__crt_unique_heap_ptr@XU__crt_internal_free_policy@@@@QBE_NXZ 10031270 f i libvcruntimed:std_type_info.obj
 0001:00030300       ?detach@?$__crt_unique_heap_ptr@XU__crt_internal_free_policy@@@@QAEPAXXZ 10031300 f i libvcruntimed:std_type_info.obj
 0001:00030330       ?get@?$__crt_unique_heap_ptr@DU__crt_internal_free_policy@@@@QBEPADXZ 10031330 f i libvcruntimed:std_type_info.obj
 0001:00030340       ?get@?$__crt_unique_heap_ptr@XU__crt_internal_free_policy@@@@QBEPAXXZ 10031340 f i libvcruntimed:std_type_info.obj
 0001:00030350       ?is_valid@?$__crt_unique_heap_ptr@DU__crt_internal_free_policy@@@@QBE_NXZ 10031350 f i libvcruntimed:std_type_info.obj
 0001:00030380       ?is_valid@?$__crt_unique_heap_ptr@XU__crt_internal_free_policy@@@@QBE_NXZ 10031380 f i libvcruntimed:std_type_info.obj
 0001:000303b0       ?release@?$__crt_unique_heap_ptr@DU__crt_internal_free_policy@@@@QAEXXZ 100313b0 f i libvcruntimed:std_type_info.obj
 0001:000303e0       ?release@?$__crt_unique_heap_ptr@XU__crt_internal_free_policy@@@@QAEXXZ 100313e0 f i libvcruntimed:std_type_info.obj
 0001:00030410       ___std_type_info_compare   10031410 f   libvcruntimed:std_type_info.obj
 0001:00030440       ___std_type_info_destroy_list 10031440 f   libvcruntimed:std_type_info.obj
 0001:00030480       ___std_type_info_hash      10031480 f   libvcruntimed:std_type_info.obj
 0001:000304e0       ___std_type_info_name      100314e0 f   libvcruntimed:std_type_info.obj
 0001:000306c0       ___vcrt_GetModuleFileNameW 100316c0 f   libvcruntimed:winapi_thunks.obj
 0001:000306e0       ___vcrt_GetModuleHandleW   100316e0 f   libvcruntimed:winapi_thunks.obj
 0001:000306f0       ___vcrt_LoadLibraryExW     100316f0 f   libvcruntimed:winapi_thunks.obj
 0001:00030710       ??$?RD@__crt_public_free_policy@@QBEXQBD@Z 10031710 f i libvcruntimed:std_exception.obj
 0001:00030730       ??0?$__crt_unique_heap_ptr@DU__crt_public_free_policy@@@@QAE@QAD@Z 10031730 f i libvcruntimed:std_exception.obj
 0001:00030750       ??1?$__crt_unique_heap_ptr@DU__crt_public_free_policy@@@@QAE@XZ 10031750 f i libvcruntimed:std_exception.obj
 0001:00030770       ??B?$__crt_unique_heap_ptr@DU__crt_public_free_policy@@@@QBE_NXZ 10031770 f i libvcruntimed:std_exception.obj
 0001:00030790       ?detach@?$__crt_unique_heap_ptr@DU__crt_public_free_policy@@@@QAEPADXZ 10031790 f i libvcruntimed:std_exception.obj
 0001:000307c0       ?get@?$__crt_unique_heap_ptr@DU__crt_public_free_policy@@@@QBEPADXZ 100317c0 f i libvcruntimed:std_exception.obj
 0001:000307d0       ?is_valid@?$__crt_unique_heap_ptr@DU__crt_public_free_policy@@@@QBE_NXZ 100317d0 f i libvcruntimed:std_exception.obj
 0001:00030800       ?release@?$__crt_unique_heap_ptr@DU__crt_public_free_policy@@@@QAEXXZ 10031800 f i libvcruntimed:std_exception.obj
 0001:00030830       ___std_exception_copy      10031830 f   libvcruntimed:std_exception.obj
 0001:00030920       ___std_exception_destroy   10031920 f   libvcruntimed:std_exception.obj
 0001:00030950       __CxxThrowException@8      10031950 f   libvcruntimed:throw.obj
 0001:00030a00       _memmove                   10031a00 f   libvcruntimed:memmove.obj
 0001:00030f80       __local_unwind4            10031f80 f   libvcruntimed:exsup4.obj
 0001:00031054       __seh_longjmp_unwind4@4    10032054 f   libvcruntimed:exsup4.obj
 0001:0003107c       @_EH4_CallFilterFunc@8     1003207c f   libvcruntimed:exsup4.obj
 0001:00031094       @_EH4_TransferToHandler@8  10032094 f   libvcruntimed:exsup4.obj
 0001:000310b0       @_EH4_GlobalUnwind2@8      100320b0 f   libvcruntimed:exsup4.obj
 0001:000310cc       @_EH4_LocalUnwind@16       100320cc f   libvcruntimed:exsup4.obj
 0001:00031100       ___except_validate_context_record 10032100 f   libvcruntimed:jbcxrval.obj
 0001:00031150       ___except_validate_jump_buffer 10032150 f   libvcruntimed:jbcxrval.obj
 0001:00031170       ___except_validate_jump_buffer_common 10032170 f i libvcruntimed:jbcxrval.obj
 0001:000311d0       ??$?RU__vcrt_ptd@@@__crt_internal_free_policy@@QBEXQBU__vcrt_ptd@@@Z 100321d0 f i libvcruntimed:per_thread_data.obj
 0001:000311f0       ??0?$__crt_unique_heap_ptr@U__vcrt_ptd@@U__crt_internal_free_policy@@@@QAE@QAU__vcrt_ptd@@@Z 100321f0 f i libvcruntimed:per_thread_data.obj
 0001:00031230       ??1?$__crt_unique_heap_ptr@U__vcrt_ptd@@U__crt_internal_free_policy@@@@QAE@XZ 10032230 f i libvcruntimed:per_thread_data.obj
 0001:00031270       ??B?$__crt_unique_heap_ptr@U__vcrt_ptd@@U__crt_internal_free_policy@@@@QBE_NXZ 10032270 f i libvcruntimed:per_thread_data.obj
 0001:00031290       ?detach@?$__crt_unique_heap_ptr@U__vcrt_ptd@@U__crt_internal_free_policy@@@@QAEPAU__vcrt_ptd@@XZ 10032290 f i libvcruntimed:per_thread_data.obj
 0001:000312c0       ?get@?$__crt_unique_heap_ptr@U__vcrt_ptd@@U__crt_internal_free_policy@@@@QBEPAU__vcrt_ptd@@XZ 100322c0 f i libvcruntimed:per_thread_data.obj
 0001:000312d0       ?is_valid@?$__crt_unique_heap_ptr@U__vcrt_ptd@@U__crt_internal_free_policy@@@@QBE_NXZ 100322d0 f i libvcruntimed:per_thread_data.obj
 0001:00031300       ?release@?$__crt_unique_heap_ptr@U__vcrt_ptd@@U__crt_internal_free_policy@@@@QAEXXZ 10032300 f i libvcruntimed:per_thread_data.obj
 0001:00031360       ___vcrt_freefls@4          10032360 f   libvcruntimed:per_thread_data.obj
 0001:00031390       ___vcrt_freeptd            10032390 f   libvcruntimed:per_thread_data.obj
 0001:000313f0       ___vcrt_getptd             100323f0 f   libvcruntimed:per_thread_data.obj
 0001:00031410       ___vcrt_getptd_noexit      10032410 f   libvcruntimed:per_thread_data.obj
 0001:00031570       ___vcrt_getptd_noinit      10032570 f   libvcruntimed:per_thread_data.obj
 0001:000315d0       ___vcrt_initialize_ptd     100325d0 f   libvcruntimed:per_thread_data.obj
 0001:00031620       ___vcrt_uninitialize_ptd   10032620 f   libvcruntimed:per_thread_data.obj
 0001:00031650       ___vcrt_initialize_locks   10032650 f   libvcruntimed:locks.obj
 0001:000316b0       ___vcrt_lock               100326b0 f   libvcruntimed:locks.obj
 0001:000316d0       ___vcrt_uninitialize_locks 100326d0 f   libvcruntimed:locks.obj
 0001:00031720       ___vcrt_unlock             10032720 f   libvcruntimed:locks.obj
 0001:000322b0       ??$TypeMatchHelper@V__FrameHandler3@@@@YAHPBU_s_HandlerType@@PBU_s_CatchableType@@PBU_s_ThrowInfo@@@Z 100332b0 f i libvcruntimed:frame.obj
 0001:00032390       ??$__InternalCxxFrameHandler@V__FrameHandler3@@@@YA?AW4_EXCEPTION_DISPOSITION@@PAUEHExceptionRecord@@PAUEHRegistrationNode@@PAU_CONTEXT@@PAXPBU_s_FuncInfo@@H1E@Z 10033390 f i libvcruntimed:frame.obj
 0001:00032550       ??0HandlerMap@__FrameHandler3@@QAE@PBU_s_TryBlockMapEntry@@II@Z 10033550 f i libvcruntimed:frame.obj
 0001:00032580       ??0TryBlockMap@__FrameHandler3@@QAE@PBU_s_FuncInfo@@I@Z 10033580 f i libvcruntimed:frame.obj
 0001:000325b0       ??0bad_exception@std@@QAE@ABV01@@Z 100335b0 f i libvcruntimed:frame.obj
 0001:000325e0       ??0bad_exception@std@@QAE@XZ 100335e0 f i libvcruntimed:frame.obj
 0001:00032610       ??0iterator@HandlerMap@__FrameHandler3@@QAE@AAV12@I@Z 10033610 f i libvcruntimed:frame.obj
 0001:00032640       ??1bad_exception@std@@UAE@XZ 10033640 f i libvcruntimed:frame.obj
 0001:00032660       ??8iterator@HandlerMap@__FrameHandler3@@QBE_NABV012@@Z 10033660 f i libvcruntimed:frame.obj
 0001:00032690       ??8type_info@@QBE_NABV0@@Z 10033690 f i libvcruntimed:frame.obj
 0001:000326d0       ??9iterator@HandlerMap@__FrameHandler3@@QBE_NABV012@@Z 100336d0 f i libvcruntimed:frame.obj
 0001:00032710       ??Diterator@HandlerMap@__FrameHandler3@@QAE?BU_s_HandlerType@@XZ 10033710 f i libvcruntimed:frame.obj
 0001:00032750       ??Diterator@TryBlockMap@__FrameHandler3@@QAE?BU_s_TryBlockMapEntry@@XZ 10033750 f i libvcruntimed:frame.obj
 0001:000327a0       ??Eiterator@HandlerMap@__FrameHandler3@@QAEAAV012@XZ 100337a0 f i libvcruntimed:frame.obj
 0001:000327c0       ??Eiterator@TryBlockMap@__FrameHandler3@@QAEAAV012@XZ 100337c0 f i libvcruntimed:frame.obj
 0001:000327e0       ??Miterator@TryBlockMap@__FrameHandler3@@QBE_NABV012@@Z 100337e0 f i libvcruntimed:frame.obj
 0001:00032810       ??_Ebad_exception@std@@UAEPAXI@Z 10033810 f i libvcruntimed:frame.obj
 0001:00032810       ??_Gbad_exception@std@@UAEPAXI@Z 10033810 f i libvcruntimed:frame.obj
 0001:00032840       ?BuildCatchObject@__FrameHandler3@@SAXPAUEHExceptionRecord@@PAXPBU_s_HandlerType@@PBU_s_CatchableType@@@Z 10033840 f   libvcruntimed:frame.obj
 0001:00032860       ?BuildCatchObjectHelper@__FrameHandler3@@SAHPAUEHExceptionRecord@@PAXPBU_s_HandlerType@@PBU_s_CatchableType@@@Z 10033860 f   libvcruntimed:frame.obj
 0001:00032c00       ?FrameUnwindToEmptyState@__FrameHandler3@@SAXPAUEHRegistrationNode@@PAXPBU_s_FuncInfo@@@Z 10033c00 f   libvcruntimed:frame.obj
 0001:00032c20       ?FrameUnwindToState@__FrameHandler3@@SAXPAUEHRegistrationNode@@PAXPBU_s_FuncInfo@@H@Z 10033c20 f   libvcruntimed:frame.obj
 0001:00032da0       ?GetMaxState@__FrameHandler3@@SAHPAXPBU_s_FuncInfo@@@Z 10033da0 f i libvcruntimed:frame.obj
 0001:00032ec0       ?TypeMatch@__FrameHandler3@@SAHPBU_s_HandlerType@@PBU_s_CatchableType@@PBU_s_ThrowInfo@@@Z 10033ec0 f   libvcruntimed:frame.obj
 0001:00032ee0       ?_CallMemberFunction1@@YGXQAX00@Z 10033ee0 f i libvcruntimed:frame.obj
 0001:00032f10       ?_CallMemberFunction2@@YGXQAX00H@Z 10033f10 f i libvcruntimed:frame.obj
 0001:00032f40       ?begin@HandlerMap@__FrameHandler3@@QAE?AViterator@12@XZ 10033f40 f i libvcruntimed:frame.obj
 0001:00032f60       ?end@HandlerMap@__FrameHandler3@@QAE?AViterator@12@XZ 10033f60 f i libvcruntimed:frame.obj
 0001:00032f90       ?getESTypes@__FrameHandler3@@SAPBU_s_ESTypeList@@PBU_s_FuncInfo@@@Z 10033f90 f i libvcruntimed:frame.obj
 0001:00032fa0       ?getLastEntry@HandlerMap@__FrameHandler3@@QAEPBU_s_HandlerType@@XZ 10033fa0 f i libvcruntimed:frame.obj
 0001:00032fc0       ?getMagicNum@__FrameHandler3@@SAIPBU_s_FuncInfo@@@Z 10033fc0 f i libvcruntimed:frame.obj
 0001:00032fd0       ?getNumTryBlocks@TryBlockMap@__FrameHandler3@@QAEIXZ 10033fd0 f i libvcruntimed:frame.obj
 0001:00032ff0       ?isEHs@__FrameHandler3@@SA_NPBU_s_FuncInfo@@@Z 10033ff0 f i libvcruntimed:frame.obj
 0001:00033020       ?isNoExcept@__FrameHandler3@@SA_NPBU_s_FuncInfo@@@Z 10034020 f i libvcruntimed:frame.obj
 0001:00033050       ___BuildCatchObject        10034050 f   libvcruntimed:frame.obj
 0001:00033070       ___BuildCatchObjectHelper  10034070 f   libvcruntimed:frame.obj
 0001:00033090       ___TypeMatch               10034090 f   libvcruntimed:frame.obj
 0001:000330b0       ___vcrt_EncodePointer      100340b0 f i libvcruntimed:frame.obj
 0001:000330c0       __CallSettingFrame@12      100340c0 f   libvcruntimed:lowhelpr.obj
 0001:000330e7       __NLG_Return               100340e7     libvcruntimed:lowhelpr.obj
 0001:00033110       ??$?0$00@DName@@QAE@PBDU?$StringLifeSelector@$00@@@Z 10034110 f i libvcruntimed:undname.obj
 0001:00033160       ??$?0$00@pcharNode@@QAE@PBDHU?$StringLifeSelector@$00@@@Z 10034160 f i libvcruntimed:undname.obj
 0001:000331a0       ??$?0$01@DName@@QAE@PBDU?$StringLifeSelector@$01@@@Z 100341a0 f i libvcruntimed:undname.obj
 0001:000331f0       ??$?0$01@pcharNode@@QAE@PBDHU?$StringLifeSelector@$01@@@Z 100341f0 f i libvcruntimed:undname.obj
 0001:00033270       ??$?0$0A@@DName@@QAE@PBDU?$StringLifeSelector@$0A@@@@Z 10034270 f i libvcruntimed:undname.obj
 0001:000332c0       ??$?0$0A@@pcharNode@@QAE@PBDHU?$StringLifeSelector@$0A@@@@Z 100342c0 f i libvcruntimed:undname.obj
 0001:00033340       ??$?0_K$0A@@?$optional@_K@std@@QAE@$$QA_K@Z 10034340 f i libvcruntimed:undname.obj
 0001:00033380       ??$?0_K@?$_Optional_construct_base@_K@std@@QAE@Uin_place_t@1@$$QA_K@Z 10034380 f i libvcruntimed:undname.obj
 0001:000333b0       ??$?0_K@?$_Optional_destruct_base@_K$00@std@@QAE@Uin_place_t@1@$$QA_K@Z 100343b0 f i libvcruntimed:undname.obj
 0001:000333e0       ??$append@VDNameNode@@@DName@@AAEXPBVDNameNode@@@Z 100343e0 f i libvcruntimed:undname.obj
 0001:00033470       ??$append@VDNameStatusNode@@@DName@@AAEXPBVDNameStatusNode@@@Z 10034470 f i libvcruntimed:undname.obj
 0001:00033500       ??$append@VcharNode@@@DName@@AAEXPBVcharNode@@@Z 10034500 f i libvcruntimed:undname.obj
 0001:00033590       ??$append@VpDNameNode@@@DName@@AAEXPBVpDNameNode@@@Z 10034590 f i libvcruntimed:undname.obj
 0001:00033620       ??$append@VpcharNode@@@DName@@AAEXPBVpcharNode@@@Z 10034620 f i libvcruntimed:undname.obj
 0001:000336b0       ??$doPchar@$00@DName@@AAEXPBDH@Z 100346b0 f i libvcruntimed:undname.obj
 0001:000337c0       ??$doPchar@$01@DName@@AAEXPBDH@Z 100347c0 f i libvcruntimed:undname.obj
 0001:000338d0       ??$doPchar@$0A@@DName@@AAEXPBDH@Z 100348d0 f i libvcruntimed:undname.obj
 0001:000339e0       ??$forward@_K@std@@YA$$QA_KAA_K@Z 100349e0 f i libvcruntimed:undname.obj
 0001:000339f0       ??$size@D$04@std@@YAIAAY04$$CBD@Z 100349f0 f i libvcruntimed:undname.obj
 0001:00033a00       ??$size@D$0EB@@std@@YAIAAY0EB@$$CBD@Z 10034a00 f i libvcruntimed:undname.obj
 0001:00033a10       ??0?$_Optional_construct_base@_K@std@@QAE@XZ 10034a10 f i libvcruntimed:undname.obj
 0001:00033a30       ??0?$_Optional_destruct_base@_K$00@std@@QAE@XZ 10034a30 f i libvcruntimed:undname.obj
 0001:00033a50       ??0?$optional@_K@std@@QAE@XZ 10034a50 f i libvcruntimed:undname.obj
 0001:00033a70       ??0Block@_HeapManager@@QAE@XZ 10034a70 f i libvcruntimed:undname.obj
 0001:00033a90       ??0DName@@QAE@AAPBDD@Z     10034a90 f   libvcruntimed:undname.obj
 0001:00033c00       ??0DName@@QAE@ABUStringLiteral@@@Z 10034c00 f   libvcruntimed:undname.obj
 0001:00033c50       ??0DName@@QAE@ABV0@@Z      10034c50 f i libvcruntimed:undname.obj
 0001:00033c80       ??0DName@@QAE@D@Z          10034c80 f   libvcruntimed:undname.obj
 0001:00033cb0       ??0DName@@QAE@PAV0@@Z      10034cb0 f   libvcruntimed:undname.obj
 0001:00033d60       ??0DName@@QAE@W4DNameStatus@@@Z 10034d60 f   libvcruntimed:undname.obj
 0001:00033e00       ??0DName@@QAE@XZ           10034e00 f i libvcruntimed:undname.obj
 0001:00033e30       ??0DName@@QAE@_J@Z         10034e30 f   libvcruntimed:undname.obj
 0001:00033f20       ??0DName@@QAE@_K@Z         10034f20 f   libvcruntimed:undname.obj
 0001:00033fd0       ??0DNameNode@@IAE@XZ       10034fd0 f i libvcruntimed:undname.obj
 0001:00033ff0       ??0Replicator@@QAE@XZ      10034ff0 f i libvcruntimed:undname.obj
 0001:00034030       ??0UnDecorator@@QAE@PBDP6APADJ@ZK@Z 10035030 f i libvcruntimed:undname.obj
 0001:000340b0       ??0_Nontrivial_dummy_type@std@@QAE@XZ 100350b0 f i libvcruntimed:undname.obj
 0001:000340c0       ??0charNode@@QAE@D@Z       100350c0 f i libvcruntimed:undname.obj
 0001:000340f0       ??0pDNameNode@@QAE@PAVDName@@@Z 100350f0 f   libvcruntimed:undname.obj
 0001:00034150       ??0pairNode@@QAE@PBVDNameNode@@0@Z 10035150 f i libvcruntimed:undname.obj
 0001:000341b0       ??2@YAPAXIAAV_HeapManager@@H@Z 100351b0 f   libvcruntimed:undname.obj
 0001:000341f0       ??4DName@@QAEAAV0@ABUStringLiteral@@@Z 100351f0 f   libvcruntimed:undname.obj
 0001:00034230       ??4DName@@QAEAAV0@ABV0@@Z  10035230 f   libvcruntimed:undname.obj
 0001:00034260       ??4DName@@QAEAAV0@D@Z      10035260 f i libvcruntimed:undname.obj
 0001:00034290       ??4DName@@QAEAAV0@PAV0@@Z  10035290 f   libvcruntimed:undname.obj
 0001:00034330       ??4DName@@QAEAAV0@W4DNameStatus@@@Z 10035330 f   libvcruntimed:undname.obj
 0001:000343b0       ??AReplicator@@QBE?AVDName@@H@Z 100353b0 f   libvcruntimed:undname.obj
 0001:00034420       ??B?$optional@_K@std@@QBE_NXZ 10035420 f i libvcruntimed:undname.obj
 0001:00034440       ??D?$optional@_K@std@@QGAEAA_KXZ 10035440 f i libvcruntimed:undname.obj
 0001:00034450       ??H@YA?AVDName@@ABUStringLiteral@@ABV0@@Z 10035450 f i libvcruntimed:undname.obj
 0001:00034480       ??H@YA?AVDName@@DABV0@@Z   10035480 f i libvcruntimed:undname.obj
 0001:000344b0       ??H@YA?AVDName@@W4DNameStatus@@ABV0@@Z 100354b0 f i libvcruntimed:undname.obj
 0001:000344e0       ??HDName@@QBE?AV0@ABUStringLiteral@@@Z 100354e0 f   libvcruntimed:undname.obj
 0001:00034520       ??HDName@@QBE?AV0@ABV0@@Z  10035520 f   libvcruntimed:undname.obj
 0001:00034560       ??HDName@@QBE?AV0@D@Z      10035560 f   libvcruntimed:undname.obj
 0001:000345a0       ??HDName@@QBE?AV0@PAV0@@Z  100355a0 f   libvcruntimed:undname.obj
 0001:000345e0       ??HDName@@QBE?AV0@W4DNameStatus@@@Z 100355e0 f   libvcruntimed:undname.obj
 0001:00034620       ??HStringLiteral@@QBE?AU0@H@Z 10035620 f i libvcruntimed:undname.obj
 0001:00034650       ??YDName@@QAEAAV0@ABUStringLiteral@@@Z 10035650 f   libvcruntimed:undname.obj
 0001:000346f0       ??YDName@@QAEAAV0@ABV0@@Z  100356f0 f   libvcruntimed:undname.obj
 0001:00034790       ??YDName@@QAEAAV0@D@Z      10035790 f   libvcruntimed:undname.obj
 0001:00034810       ??YDName@@QAEAAV0@PAV0@@Z  10035810 f   libvcruntimed:undname.obj
 0001:000348c0       ??YDName@@QAEAAV0@W4DNameStatus@@@Z 100358c0 f   libvcruntimed:undname.obj
 0001:00034920       ??YReplicator@@QAEAAV0@ABVDName@@@Z 10035920 f   libvcruntimed:undname.obj
 0001:000349b0       ??_5DName@@QAEAAV0@ABV0@@Z 100359b0 f   libvcruntimed:undname.obj
 0001:00034a10       ??__K_l@@YA?AUStringLiteral@@PBDI@Z 10035a10 f i libvcruntimed:undname.obj
 0001:00034a30       ?Constructor@_HeapManager@@QAEXP6APAXI@ZP6AXPAX@Z@Z 10035a30 f i libvcruntimed:undname.obj
 0001:00034a70       ?Destructor@_HeapManager@@QAEXXZ 10035a70 f i libvcruntimed:undname.obj
 0001:00034ae0       ?UScore@UnDecorator@@SA?AUStringLiteral@@W4Tokens@@@Z 10035ae0 f   libvcruntimed:undname.obj
 0001:00034b30       ?composeDeclaration@UnDecorator@@CA?AVDName@@ABV2@@Z 10035b30 f i libvcruntimed:undname.obj
 0001:00036aa0       ?dbGetString@DName@@QBEPADXZ 10037aa0 f   libvcruntimed:undname.obj
 0001:00036ac0       ?doAccessSpecifiers@UnDecorator@@SAHXZ 10037ac0 f i libvcruntimed:undname.obj
 0001:00036af0       ?doAllocationLanguage@UnDecorator@@SAHXZ 10037af0 f i libvcruntimed:undname.obj
 0001:00036b20       ?doAllocationModel@UnDecorator@@SAHXZ 10037b20 f i libvcruntimed:undname.obj
 0001:00036b50       ?doEcsu@UnDecorator@@SAHXZ 10037b50 f i libvcruntimed:undname.obj
 0001:00036b80       ?doEllipsis@UnDecorator@@SAHXZ 10037b80 f i libvcruntimed:undname.obj
 0001:00036bb0       ?doFunctionReturns@UnDecorator@@SAHXZ 10037bb0 f i libvcruntimed:undname.obj
 0001:00036be0       ?doMSKeywords@UnDecorator@@SAHXZ 10037be0 f i libvcruntimed:undname.obj
 0001:00036c10       ?doMemberTypes@UnDecorator@@SAHXZ 10037c10 f i libvcruntimed:undname.obj
 0001:00036c40       ?doNameOnly@UnDecorator@@SAHXZ 10037c40 f i libvcruntimed:undname.obj
 0001:00036c50       ?doNoIdentCharCheck@UnDecorator@@SAHXZ 10037c50 f i libvcruntimed:undname.obj
 0001:00036c60       ?doPchar@DName@@AAEXD@Z    10037c60 f   libvcruntimed:undname.obj
 0001:00036cd0       ?doPtr64@UnDecorator@@SAHXZ 10037cd0 f i libvcruntimed:undname.obj
 0001:00036d00       ?doRestrictionSpec@UnDecorator@@SAHXZ 10037d00 f i libvcruntimed:undname.obj
 0001:00036d30       ?doThisTypes@UnDecorator@@SAHXZ 10037d30 f i libvcruntimed:undname.obj
 0001:00036d60       ?doThrowTypes@UnDecorator@@SAHXZ 10037d60 f i libvcruntimed:undname.obj
 0001:00036d90       ?doTypeOnly@UnDecorator@@SAHXZ 10037d90 f i libvcruntimed:undname.obj
 0001:00036da0       ?doUnderScore@UnDecorator@@SAHXZ 10037da0 f i libvcruntimed:undname.obj
 0001:00036dd0       ?getArgumentList@UnDecorator@@CA?AVDName@@XZ 10037dd0 f   libvcruntimed:undname.obj
 0001:00036f20       ?getArgumentTypes@UnDecorator@@CA?AVDName@@XZ 10037f20 f   libvcruntimed:undname.obj
 0001:00037130       ?getArrayObject@UnDecorator@@CA?AVDName@@XZ 10038130 f   libvcruntimed:undname.obj
 0001:00037210       ?getArrayType@UnDecorator@@CA?AVDName@@ABV2@@Z 10038210 f i libvcruntimed:undname.obj
 0001:000374b0       ?getBasedType@UnDecorator@@CA?AVDName@@XZ 100384b0 f   libvcruntimed:undname.obj
 0001:000375a0       ?getBasicDataType@UnDecorator@@CA?AVDName@@ABV2@@Z 100385a0 f   libvcruntimed:undname.obj
 0001:00037eb0       ?getCHPEName@UnDecorator@@QAEPADPADH@Z 10038eb0 f i libvcruntimed:undname.obj
 0001:00038010       ?getCallIndex@UnDecorator@@CA?AVDName@@XZ 10039010 f i libvcruntimed:undname.obj
 0001:00038030       ?getCallingConvention@UnDecorator@@CA?AVDName@@XZ 10039030 f   libvcruntimed:undname.obj
 0001:00038270       ?getDataIndirectType@UnDecorator@@CA?AVDName@@ABV2@W4IndirectionKind@@0H@Z 10039270 f   libvcruntimed:undname.obj
 0001:00038b90       ?getDataIndirectType@UnDecorator@@CA?AVDName@@XZ 10039b90 f i libvcruntimed:undname.obj
 0001:00038bd0       ?getDataType@UnDecorator@@CA?AVDName@@PAV2@@Z 10039bd0 f   libvcruntimed:undname.obj
 0001:00038d10       ?getDecoratedName@UnDecorator@@CA?AVDName@@XZ 10039d10 f   libvcruntimed:undname.obj
 0001:00039150       ?getDimension@UnDecorator@@CA?AVDName@@_N@Z 1003a150 f   libvcruntimed:undname.obj
 0001:000393b0       ?getDispatchTarget@UnDecorator@@CA?AVDName@@XZ 1003a3b0 f   libvcruntimed:undname.obj
 0001:00039450       ?getDisplacement@UnDecorator@@CA?AVDName@@XZ 1003a450 f i libvcruntimed:undname.obj
 0001:00039470       ?getECSUDataType@UnDecorator@@CA?AVDName@@XZ 1003a470 f   libvcruntimed:undname.obj
 0001:000396d0       ?getECSUName@UnDecorator@@CA?AVDName@@XZ 1003a6d0 f i libvcruntimed:undname.obj
 0001:000396f0       ?getEnumType@UnDecorator@@CA?AVDName@@XZ 1003a6f0 f i libvcruntimed:undname.obj
 0001:000398a0       ?getExtendedDataIndirectType@UnDecorator@@CA?AVDName@@AAW4IndirectionKind@@AA_NH@Z 1003a8a0 f   libvcruntimed:undname.obj
 0001:00039af0       ?getExternalDataType@UnDecorator@@CA?AVDName@@ABV2@@Z 1003aaf0 f i libvcruntimed:undname.obj
 0001:00039b90       ?getFloatingPoint@UnDecorator@@CA?AVDName@@H@Z 1003ab90 f   libvcruntimed:undname.obj
 0001:00039d40       ?getFunctionIndirectType@UnDecorator@@CA?AVDName@@ABV2@@Z 1003ad40 f   libvcruntimed:undname.obj
 0001:0003a220       ?getGuardNumber@UnDecorator@@CA?AVDName@@XZ 1003b220 f i libvcruntimed:undname.obj
 0001:0003a240       ?getLastChar@DName@@QBEDXZ 1003b240 f i libvcruntimed:undname.obj
 0001:0003a280       ?getLastChar@DNameStatusNode@@UBEDXZ 1003b280 f i libvcruntimed:undname.obj
 0001:0003a2b0       ?getLastChar@charNode@@UBEDXZ 1003b2b0 f i libvcruntimed:undname.obj
 0001:0003a2d0       ?getLastChar@pDNameNode@@UBEDXZ 1003b2d0 f i libvcruntimed:undname.obj
 0001:0003a300       ?getLastChar@pairNode@@UBEDXZ 1003b300 f i libvcruntimed:undname.obj
 0001:0003a370       ?getLastChar@pcharNode@@UBEDXZ 1003b370 f i libvcruntimed:undname.obj
 0001:0003a3b0       ?getLexicalFrame@UnDecorator@@CA?AVDName@@XZ 1003b3b0 f i libvcruntimed:undname.obj
 0001:0003a3f0       ?getMemoryWithBuffer@_HeapManager@@QAEPAXI@Z 1003b3f0 f   libvcruntimed:undname.obj
 0001:0003a4e0       ?getMemoryWithoutBuffer@_HeapManager@@QAEPAXI@Z 1003b4e0 f   libvcruntimed:undname.obj
 0001:0003a520       ?getNoexcept@UnDecorator@@CA?AVDName@@XZ 1003b520 f   libvcruntimed:undname.obj
 0001:0003a5a0       ?getNumberOfDimensions@UnDecorator@@CAHXZ 1003b5a0 f   libvcruntimed:undname.obj
 0001:0003a6a0       ?getOperatorName@UnDecorator@@CA?AVDName@@_NPA_N@Z 1003b6a0 f i libvcruntimed:undname.obj
 0001:0003b190       ?getPointerType@UnDecorator@@CA?AVDName@@ABV2@0@Z 1003c190 f i libvcruntimed:undname.obj
 0001:0003b1b0       ?getPointerTypeArray@UnDecorator@@CA?AVDName@@ABV2@0@Z 1003c1b0 f i libvcruntimed:undname.obj
 0001:0003b1d0       ?getPrimaryDataType@UnDecorator@@CA?AVDName@@ABV2@@Z 1003c1d0 f   libvcruntimed:undname.obj
 0001:0003b660       ?getPtrRefDataType@UnDecorator@@CA?AVDName@@ABV2@H@Z 1003c660 f   libvcruntimed:undname.obj
 0001:0003b910       ?getPtrRefType@UnDecorator@@CA?AVDName@@ABV2@0W4IndirectionKind@@@Z 1003c910 f   libvcruntimed:undname.obj
 0001:0003ba90       ?getReferenceType@UnDecorator@@CA?AVDName@@ABV2@0W4IndirectionKind@@@Z 1003ca90 f i libvcruntimed:undname.obj
 0001:0003bab0       ?getRestrictionSpec@UnDecorator@@CA?AVDName@@XZ 1003cab0 f   libvcruntimed:undname.obj
 0001:0003bc70       ?getReturnType@UnDecorator@@CA?AVDName@@PAV2@@Z 1003cc70 f   libvcruntimed:undname.obj
 0001:0003bcc0       ?getScope@UnDecorator@@CA?AVDName@@XZ 1003ccc0 f   libvcruntimed:undname.obj
 0001:0003c250       ?getScopedName@UnDecorator@@CA?AVDName@@XZ 1003d250 f   libvcruntimed:undname.obj
 0001:0003c3a0       ?getSignedDimension@UnDecorator@@CA?AVDName@@XZ 1003d3a0 f   libvcruntimed:undname.obj
 0001:0003c420       ?getStorageConvention@UnDecorator@@CA?AVDName@@XZ 1003d420 f i libvcruntimed:undname.obj
 0001:0003c440       ?getString@DName@@QBEPADPAD0@Z 1003d440 f i libvcruntimed:undname.obj
 0001:0003c4a0       ?getString@DName@@QBEPADPADH@Z 1003d4a0 f i libvcruntimed:undname.obj
 0001:0003c530       ?getString@DNameStatusNode@@UBEPADPAD0@Z 1003d530 f i libvcruntimed:undname.obj
 0001:0003c570       ?getString@charNode@@UBEPADPAD0@Z 1003d570 f i libvcruntimed:undname.obj
 0001:0003c5a0       ?getString@pDNameNode@@UBEPADPAD0@Z 1003d5a0 f i libvcruntimed:undname.obj
 0001:0003c5e0       ?getString@pairNode@@UBEPADPAD0@Z 1003d5e0 f i libvcruntimed:undname.obj
 0001:0003c670       ?getString@pcharNode@@UBEPADPAD0@Z 1003d670 f i libvcruntimed:undname.obj
 0001:0003c6a0       ?getStringEncoding@UnDecorator@@CA?AVDName@@W4PrefixKind@@H@Z 1003d6a0 f   libvcruntimed:undname.obj
 0001:0003c7b0       ?getStringHelper@@YAPADPADPBD1H@Z 1003d7b0 f i libvcruntimed:undname.obj
 0001:0003c7f0       ?getStringObject@UnDecorator@@CA?AVDName@@XZ 1003d7f0 f   libvcruntimed:undname.obj
 0001:0003c8a0       ?getSymbolName@UnDecorator@@CA?AVDName@@XZ 1003d8a0 f i libvcruntimed:undname.obj
 0001:0003c930       ?getTemplateArgumentList@UnDecorator@@CA?AVDName@@XZ 1003d930 f   libvcruntimed:undname.obj
 0001:0003cc20       ?getTemplateName@UnDecorator@@CA?AVDName@@_N@Z 1003dc20 f   libvcruntimed:undname.obj
 0001:0003cde0       ?getTemplateNonTypeArgument@UnDecorator@@CA?AVDName@@XZ 1003dde0 f   libvcruntimed:undname.obj
 0001:0003d320       ?getTemplateTypeArgument@UnDecorator@@CA?AVDName@@XZ 1003e320 f   libvcruntimed:undname.obj
 0001:0003d4c0       ?getThisType@UnDecorator@@CA?AVDName@@XZ 1003e4c0 f i libvcruntimed:undname.obj
 0001:0003d500       ?getThrowTypes@UnDecorator@@CA?AVDName@@XZ 1003e500 f   libvcruntimed:undname.obj
 0001:0003d540       ?getTypeEncoding@UnDecorator@@CAHXZ 1003e540 f i libvcruntimed:undname.obj
 0001:0003e000       ?getUndecoratedName@UnDecorator@@QAEPADPADH@Z 1003f000 f i libvcruntimed:undname.obj
 0001:0003e160       ?getVCallThunkType@UnDecorator@@CA?AVDName@@XZ 1003f160 f i libvcruntimed:undname.obj
 0001:0003e1e0       ?getValue@UnDecorator@@CA?AV?$optional@_K@std@@XZ 1003f1e0 f   libvcruntimed:undname.obj
 0001:0003e2a0       ?getValueObject@UnDecorator@@CA?AVDName@@XZ 1003f2a0 f   libvcruntimed:undname.obj
 0001:0003e460       ?getVbTableType@UnDecorator@@CA?AVDName@@ABV2@@Z 1003f460 f i libvcruntimed:undname.obj
 0001:0003e480       ?getVdispMapType@UnDecorator@@CA?AVDName@@ABV2@@Z 1003f480 f i libvcruntimed:undname.obj
 0001:0003e510       ?getVfTableType@UnDecorator@@CA?AVDName@@ABV2@@Z 1003f510 f i libvcruntimed:undname.obj
 0001:0003e710       ?getZName@UnDecorator@@CA?AVDName@@_N0@Z 1003f710 f   libvcruntimed:undname.obj
 0001:0003ea50       ?haveTemplateParameters@UnDecorator@@SAHXZ 1003fa50 f i libvcruntimed:undname.obj
 0001:0003ea60       ?isArray@DName@@QBEHXZ     1003fa60 f i libvcruntimed:undname.obj
 0001:0003ea80       ?isComArray@DName@@QBEHXZ  1003fa80 f i libvcruntimed:undname.obj
 0001:0003eaa0       ?isEmpty@DName@@QBEHXZ     1003faa0 f i libvcruntimed:undname.obj
 0001:0003ead0       ?isFull@Replicator@@QBEHXZ 1003fad0 f i libvcruntimed:undname.obj
 0001:0003eb00       ?isNoTE@DName@@QBEHXZ      1003fb00 f i libvcruntimed:undname.obj
 0001:0003eb20       ?isPinPtr@DName@@QBEHXZ    1003fb20 f i libvcruntimed:undname.obj
 0001:0003eb40       ?isPtrRef@DName@@QBEHXZ    1003fb40 f i libvcruntimed:undname.obj
 0001:0003eb60       ?isUDC@DName@@QBEHXZ       1003fb60 f i libvcruntimed:undname.obj
 0001:0003eba0       ?isUDTThunk@DName@@QBEHXZ  1003fba0 f i libvcruntimed:undname.obj
 0001:0003ebe0       ?isVCallThunk@DName@@QBEHXZ 1003fbe0 f i libvcruntimed:undname.obj
 0001:0003ec00       ?isValid@DName@@QBEHXZ     1003fc00 f i libvcruntimed:undname.obj
 0001:0003ec40       ?length@DName@@QBEHXZ      1003fc40 f i libvcruntimed:undname.obj
 0001:0003ec80       ?length@DNameStatusNode@@UBEHXZ 1003fc80 f i libvcruntimed:undname.obj
 0001:0003eca0       ?length@charNode@@UBEHXZ   1003fca0 f i libvcruntimed:undname.obj
 0001:0003ecb0       ?length@pDNameNode@@UBEHXZ 1003fcb0 f i libvcruntimed:undname.obj
 0001:0003ece0       ?length@pairNode@@UBEHXZ   1003fce0 f i libvcruntimed:undname.obj
 0001:0003ed50       ?length@pcharNode@@UBEHXZ  1003fd50 f i libvcruntimed:undname.obj
 0001:0003ed70       ?make@DNameStatusNode@@SAPBV1@W4DNameStatus@@@Z 1003fd70 f i libvcruntimed:undname.obj
 0001:0003eda0       ?parseDecoratedName@UnDecorator@@CA?AVDName@@XZ 1003fda0 f   libvcruntimed:undname.obj
 0001:0003ef30       ?raw_length@DNameStatusNode@@UBEHXZ 1003ff30 f i libvcruntimed:undname.obj
 0001:0003ef50       ?raw_length@charNode@@UBEHXZ 1003ff50 f i libvcruntimed:undname.obj
 0001:0003ef70       ?raw_length@pDNameNode@@UBEHXZ 1003ff70 f i libvcruntimed:undname.obj
 0001:0003ef80       ?raw_length@pairNode@@UBEHXZ 1003ff80 f i libvcruntimed:undname.obj
 0001:0003efa0       ?raw_length@pcharNode@@UBEHXZ 1003ffa0 f i libvcruntimed:undname.obj
 0001:0003efc0       ?setIsArray@DName@@QAEXXZ  1003ffc0 f i libvcruntimed:undname.obj
 0001:0003efe0       ?setIsComArray@DName@@QAEXXZ 1003ffe0 f i libvcruntimed:undname.obj
 0001:0003f000       ?setIsNoTE@DName@@QAEXXZ   10040000 f i libvcruntimed:undname.obj
 0001:0003f020       ?setIsPinPtr@DName@@QAEXXZ 10040020 f i libvcruntimed:undname.obj
 0001:0003f040       ?setIsUDC@DName@@QAEXXZ    10040040 f i libvcruntimed:undname.obj
 0001:0003f070       ?setIsVCallThunk@DName@@QAEXXZ 10040070 f i libvcruntimed:undname.obj
 0001:0003f090       ?setPtrRef@DName@@QAEAAV1@XZ 10040090 f i libvcruntimed:undname.obj
 0001:0003f0b0       ?status@DName@@QBE?AW4DNameStatus@@XZ 100400b0 f i libvcruntimed:undname.obj
 0001:0003f1b0       ___unDName                 100401b0 f   libvcruntimed:undname.obj
 0001:0003f1e0       ___unDNameEx               100401e0 f   libvcruntimed:undname.obj
 0001:0003f2b0       _unDNameGenerateCHPE       100402b0 f   libvcruntimed:undname.obj
 0001:0003f310       __global_unwind2           10040310 f   libvcruntimed:exsup.obj
 0001:0003f376       __local_unwind2            10040376 f   libvcruntimed:exsup.obj
 0001:0003f3fa       __abnormal_termination     100403fa f   libvcruntimed:exsup.obj
 0001:0003f420       __NLG_Notify1              10040420 f   libvcruntimed:exsup.obj
 0001:0003f42c       __NLG_Notify               1004042c f   libvcruntimed:exsup.obj
 0001:0003f443       __NLG_Dispatch2            10040443     libvcruntimed:exsup.obj
 0001:0003f443       __NLG_Dispatch             10040443     libvcruntimed:exsup.obj
 0001:0003f44b       __NLG_Call                 1004044b f   libvcruntimed:exsup.obj
 0001:0003f44d       __NLG_Return2              1004044d     libvcruntimed:exsup.obj
 0001:0003f450       ??$__crt_interlocked_exchange_pointer@UHINSTANCE__@@PAU1@@@YAPAUHINSTANCE__@@PDSAU0@QAU0@@Z 10040450 f i libvcruntimed:winapi_downlevel.obj
 0001:0003f460       ??$__crt_interlocked_exchange_pointer@UHINSTANCE__@@PAX@@YAPAUHINSTANCE__@@PDSAU0@QAX@Z 10040460 f i libvcruntimed:winapi_downlevel.obj
 0001:0003f470       ??$__crt_interlocked_exchange_pointer@XPAX@@YAPAXPDSAXQAX@Z 10040470 f i libvcruntimed:winapi_downlevel.obj
 0001:0003f480       ??$__crt_interlocked_read_pointer@UHINSTANCE__@@@@YAPAUHINSTANCE__@@PDSAU0@@Z 10040480 f i libvcruntimed:winapi_downlevel.obj
 0001:0003f4a0       ??$__crt_interlocked_read_pointer@X@@YAPAXPDSAX@Z 100404a0 f i libvcruntimed:winapi_downlevel.obj
 0001:0003f870       ___vcrt_FlsAlloc           10040870 f   libvcruntimed:winapi_downlevel.obj
 0001:0003f8b0       ___vcrt_FlsFree            100408b0 f   libvcruntimed:winapi_downlevel.obj
 0001:0003f8f0       ___vcrt_FlsGetValue        100408f0 f   libvcruntimed:winapi_downlevel.obj
 0001:0003f930       ___vcrt_FlsSetValue        10040930 f   libvcruntimed:winapi_downlevel.obj
 0001:0003f980       ___vcrt_InitializeCriticalSectionEx 10040980 f   libvcruntimed:winapi_downlevel.obj
 0001:0003fa00       __get_unexpected           10040a00 f   libvcruntimed:unexpected.obj
 0001:0003fa20       _set_unexpected            10040a20 f   libvcruntimed:unexpected.obj
 0001:0003fa50       _unexpected                10040a50 f   libvcruntimed:unexpected.obj
 0001:0003fa90       ?GetCurrentState@__FrameHandler3@@SAHPAUEHRegistrationNode@@PAXPBU_s_FuncInfo@@@Z 10040a90 f   libvcruntimed:ehstate.obj
 0001:0003fac0       ?SetState@__FrameHandler3@@SAXPAUEHRegistrationNode@@PBU_s_FuncInfo@@H@Z 10040ac0 f   libvcruntimed:ehstate.obj
 0001:0003fad0       ??$?0ABV?$stream_output_adapter@D@__crt_stdio_output@@AB_KABQBDABQAU__crt_locale_pointers@@ABQAD@?$format_validation_base@DV?$stream_output_adapter@D@__crt_stdio_output@@@__crt_stdio_output@@IAE@ABV?$stream_output_adapter@D@1@AB_KABQBDABQAU__crt_locale_pointers@@ABQAD@Z 10040ad0 f i libucrtd:output.obj
 0001:0003fb00       ??$?0ABV?$stream_output_adapter@D@__crt_stdio_output@@AB_KABQBDABQAU__crt_locale_pointers@@ABQAD@?$positional_parameter_base@DV?$stream_output_adapter@D@__crt_stdio_output@@@__crt_stdio_output@@IAE@ABV?$stream_output_adapter@D@1@AB_KABQBDABQAU__crt_locale_pointers@@ABQAD@Z 10040b00 f i libucrtd:output.obj
 0001:0003fb80       ??$?0ABV?$stream_output_adapter@D@__crt_stdio_output@@AB_KABQBDABQAU__crt_locale_pointers@@ABQAD@?$standard_base@DV?$stream_output_adapter@D@__crt_stdio_output@@@__crt_stdio_output@@IAE@ABV?$stream_output_adapter@D@1@AB_KABQBDABQAU__crt_locale_pointers@@ABQAD@Z 10040b80 f i libucrtd:output.obj
 0001:0003fbd0       ??$?0ABV?$stream_output_adapter@_W@__crt_stdio_output@@AB_KABQB_WABQAU__crt_locale_pointers@@ABQAD@?$format_validation_base@_WV?$stream_output_adapter@_W@__crt_stdio_output@@@__crt_stdio_output@@IAE@ABV?$stream_output_adapter@_W@1@AB_KABQB_WABQAU__crt_locale_pointers@@ABQAD@Z 10040bd0 f i libucrtd:output.obj
 0001:0003fc00       ??$?0ABV?$stream_output_adapter@_W@__crt_stdio_output@@AB_KABQB_WABQAU__crt_locale_pointers@@ABQAD@?$positional_parameter_base@_WV?$stream_output_adapter@_W@__crt_stdio_output@@@__crt_stdio_output@@IAE@ABV?$stream_output_adapter@_W@1@AB_KABQB_WABQAU__crt_locale_pointers@@ABQAD@Z 10040c00 f i libucrtd:output.obj
 0001:0003fc80       ??$?0ABV?$stream_output_adapter@_W@__crt_stdio_output@@AB_KABQB_WABQAU__crt_locale_pointers@@ABQAD@?$standard_base@_WV?$stream_output_adapter@_W@__crt_stdio_output@@@__crt_stdio_output@@IAE@ABV?$stream_output_adapter@_W@1@AB_KABQB_WABQAU__crt_locale_pointers@@ABQAD@Z 10040c80 f i libucrtd:output.obj
 0001:0003fcd0       ??$?0ABV?$string_output_adapter@D@__crt_stdio_output@@AB_KABQBDABQAU__crt_locale_pointers@@ABQAD@?$format_validation_base@DV?$string_output_adapter@D@__crt_stdio_output@@@__crt_stdio_output@@IAE@ABV?$string_output_adapter@D@1@AB_KABQBDABQAU__crt_locale_pointers@@ABQAD@Z 10040cd0 f i libucrtd:output.obj
 0001:0003fd00       ??$?0ABV?$string_output_adapter@D@__crt_stdio_output@@AB_KABQBDABQAU__crt_locale_pointers@@ABQAD@?$positional_parameter_base@DV?$string_output_adapter@D@__crt_stdio_output@@@__crt_stdio_output@@IAE@ABV?$string_output_adapter@D@1@AB_KABQBDABQAU__crt_locale_pointers@@ABQAD@Z 10040d00 f i libucrtd:output.obj
 0001:0003fd80       ??$?0ABV?$string_output_adapter@D@__crt_stdio_output@@AB_KABQBDABQAU__crt_locale_pointers@@ABQAD@?$standard_base@DV?$string_output_adapter@D@__crt_stdio_output@@@__crt_stdio_output@@IAE@ABV?$string_output_adapter@D@1@AB_KABQBDABQAU__crt_locale_pointers@@ABQAD@Z 10040d80 f i libucrtd:output.obj
 0001:0003fdd0       ??$?0ABV?$string_output_adapter@_W@__crt_stdio_output@@AB_KABQB_WABQAU__crt_locale_pointers@@ABQAD@?$format_validation_base@_WV?$string_output_adapter@_W@__crt_stdio_output@@@__crt_stdio_output@@IAE@ABV?$string_output_adapter@_W@1@AB_KABQB_WABQAU__crt_locale_pointers@@ABQAD@Z 10040dd0 f i libucrtd:output.obj
 0001:0003fe00       ??$?0ABV?$string_output_adapter@_W@__crt_stdio_output@@AB_KABQB_WABQAU__crt_locale_pointers@@ABQAD@?$positional_parameter_base@_WV?$string_output_adapter@_W@__crt_stdio_output@@@__crt_stdio_output@@IAE@ABV?$string_output_adapter@_W@1@AB_KABQB_WABQAU__crt_locale_pointers@@ABQAD@Z 10040e00 f i libucrtd:output.obj
 0001:0003fe80       ??$?0ABV?$string_output_adapter@_W@__crt_stdio_output@@AB_KABQB_WABQAU__crt_locale_pointers@@ABQAD@?$standard_base@_WV?$string_output_adapter@_W@__crt_stdio_output@@@__crt_stdio_output@@IAE@ABV?$string_output_adapter@_W@1@AB_KABQB_WABQAU__crt_locale_pointers@@ABQAD@Z 10040e80 f i libucrtd:output.obj
 0001:000403b0       ??$__crt_interlocked_read@J@@YAJPDJ@Z 100413b0 f i libucrtd:output.obj
 0001:00043150       ??$count@D@formatting_buffer@__crt_stdio_output@@QBEIXZ 10044150 f i libucrtd:output.obj
 0001:00043190       ??$count@_W@formatting_buffer@__crt_stdio_output@@QBEIXZ 10044190 f i libucrtd:output.obj
 0001:000431d0       ??$data@D@formatting_buffer@__crt_stdio_output@@QAEPADXZ 100441d0 f i libucrtd:output.obj
 0001:00043210       ??$data@_W@formatting_buffer@__crt_stdio_output@@QAEPA_WXZ 10044210 f i libucrtd:output.obj
 0001:00043250       ??$ensure_buffer_is_big_enough@D@formatting_buffer@__crt_stdio_output@@QAE_NI@Z 10044250 f i libucrtd:output.obj
 0001:00043330       ??$ensure_buffer_is_big_enough@_W@formatting_buffer@__crt_stdio_output@@QAE_NI@Z 10044330 f i libucrtd:output.obj
 0001:00043420       ??$extract_argument_from_va_list@C_J@?$positional_parameter_base@DV?$stream_output_adapter@D@__crt_stdio_output@@@__crt_stdio_output@@IAE_NAA_J@Z 10044420 f i libucrtd:output.obj
 0001:00043560       ??$extract_argument_from_va_list@C_J@?$positional_parameter_base@DV?$string_output_adapter@D@__crt_stdio_output@@@__crt_stdio_output@@IAE_NAA_J@Z 10044560 f i libucrtd:output.obj
 0001:000436a0       ??$extract_argument_from_va_list@C_J@?$positional_parameter_base@_WV?$stream_output_adapter@_W@__crt_stdio_output@@@__crt_stdio_output@@IAE_NAA_J@Z 100446a0 f i libucrtd:output.obj
 0001:000437e0       ??$extract_argument_from_va_list@C_J@?$positional_parameter_base@_WV?$string_output_adapter@_W@__crt_stdio_output@@@__crt_stdio_output@@IAE_NAA_J@Z 100447e0 f i libucrtd:output.obj
 0001:00043920       ??$extract_argument_from_va_list@C_J@?$standard_base@DV?$stream_output_adapter@D@__crt_stdio_output@@@__crt_stdio_output@@IAE_NAA_J@Z 10044920 f i libucrtd:output.obj
 0001:00043950       ??$extract_argument_from_va_list@C_J@?$standard_base@DV?$string_output_adapter@D@__crt_stdio_output@@@__crt_stdio_output@@IAE_NAA_J@Z 10044950 f i libucrtd:output.obj
 0001:00043980       ??$extract_argument_from_va_list@C_J@?$standard_base@_WV?$stream_output_adapter@_W@__crt_stdio_output@@@__crt_stdio_output@@IAE_NAA_J@Z 10044980 f i libucrtd:output.obj
 0001:000439b0       ??$extract_argument_from_va_list@C_J@?$standard_base@_WV?$string_output_adapter@_W@__crt_stdio_output@@@__crt_stdio_output@@IAE_NAA_J@Z 100449b0 f i libucrtd:output.obj
 0001:000439e0       ??$extract_argument_from_va_list@E_J@?$positional_parameter_base@DV?$stream_output_adapter@D@__crt_stdio_output@@@__crt_stdio_output@@IAE_NAA_J@Z 100449e0 f i libucrtd:output.obj
 0001:00043b20       ??$extract_argument_from_va_list@E_J@?$positional_parameter_base@DV?$string_output_adapter@D@__crt_stdio_output@@@__crt_stdio_output@@IAE_NAA_J@Z 10044b20 f i libucrtd:output.obj
 0001:00043c60       ??$extract_argument_from_va_list@E_J@?$positional_parameter_base@_WV?$stream_output_adapter@_W@__crt_stdio_output@@@__crt_stdio_output@@IAE_NAA_J@Z 10044c60 f i libucrtd:output.obj
 0001:00043da0       ??$extract_argument_from_va_list@E_J@?$positional_parameter_base@_WV?$string_output_adapter@_W@__crt_stdio_output@@@__crt_stdio_output@@IAE_NAA_J@Z 10044da0 f i libucrtd:output.obj
 0001:00043ee0       ??$extract_argument_from_va_list@E_J@?$standard_base@DV?$stream_output_adapter@D@__crt_stdio_output@@@__crt_stdio_output@@IAE_NAA_J@Z 10044ee0 f i libucrtd:output.obj
 0001:00043f10       ??$extract_argument_from_va_list@E_J@?$standard_base@DV?$string_output_adapter@D@__crt_stdio_output@@@__crt_stdio_output@@IAE_NAA_J@Z 10044f10 f i libucrtd:output.obj
 0001:00043f40       ??$extract_argument_from_va_list@E_J@?$standard_base@_WV?$stream_output_adapter@_W@__crt_stdio_output@@@__crt_stdio_output@@IAE_NAA_J@Z 10044f40 f i libucrtd:output.obj
 0001:00043f70       ??$extract_argument_from_va_list@E_J@?$standard_base@_WV?$string_output_adapter@_W@__crt_stdio_output@@@__crt_stdio_output@@IAE_NAA_J@Z 10044f70 f i libucrtd:output.obj
 0001:00043fa0       ??$extract_argument_from_va_list@F_J@?$positional_parameter_base@DV?$stream_output_adapter@D@__crt_stdio_output@@@__crt_stdio_output@@IAE_NAA_J@Z 10044fa0 f i libucrtd:output.obj
 0001:000440d0       ??$extract_argument_from_va_list@F_J@?$positional_parameter_base@DV?$string_output_adapter@D@__crt_stdio_output@@@__crt_stdio_output@@IAE_NAA_J@Z 100450d0 f i libucrtd:output.obj
 0001:00044200       ??$extract_argument_from_va_list@F_J@?$positional_parameter_base@_WV?$stream_output_adapter@_W@__crt_stdio_output@@@__crt_stdio_output@@IAE_NAA_J@Z 10045200 f i libucrtd:output.obj
 0001:00044330       ??$extract_argument_from_va_list@F_J@?$positional_parameter_base@_WV?$string_output_adapter@_W@__crt_stdio_output@@@__crt_stdio_output@@IAE_NAA_J@Z 10045330 f i libucrtd:output.obj
 0001:00044460       ??$extract_argument_from_va_list@F_J@?$standard_base@DV?$stream_output_adapter@D@__crt_stdio_output@@@__crt_stdio_output@@IAE_NAA_J@Z 10045460 f i libucrtd:output.obj
 0001:00044490       ??$extract_argument_from_va_list@F_J@?$standard_base@DV?$string_output_adapter@D@__crt_stdio_output@@@__crt_stdio_output@@IAE_NAA_J@Z 10045490 f i libucrtd:output.obj
 0001:000444c0       ??$extract_argument_from_va_list@F_J@?$standard_base@_WV?$stream_output_adapter@_W@__crt_stdio_output@@@__crt_stdio_output@@IAE_NAA_J@Z 100454c0 f i libucrtd:output.obj
 0001:000444f0       ??$extract_argument_from_va_list@F_J@?$standard_base@_WV?$string_output_adapter@_W@__crt_stdio_output@@@__crt_stdio_output@@IAE_NAA_J@Z 100454f0 f i libucrtd:output.obj
 0001:00044520       ??$extract_argument_from_va_list@GD@?$positional_parameter_base@DV?$stream_output_adapter@D@__crt_stdio_output@@@__crt_stdio_output@@IAE_NAAD@Z 10045520 f i libucrtd:output.obj
 0001:00044650       ??$extract_argument_from_va_list@GD@?$positional_parameter_base@DV?$string_output_adapter@D@__crt_stdio_output@@@__crt_stdio_output@@IAE_NAAD@Z 10045650 f i libucrtd:output.obj
 0001:00044780       ??$extract_argument_from_va_list@GD@?$standard_base@DV?$stream_output_adapter@D@__crt_stdio_output@@@__crt_stdio_output@@IAE_NAAD@Z 10045780 f i libucrtd:output.obj
 0001:000447b0       ??$extract_argument_from_va_list@GD@?$standard_base@DV?$string_output_adapter@D@__crt_stdio_output@@@__crt_stdio_output@@IAE_NAAD@Z 100457b0 f i libucrtd:output.obj
 0001:000447e0       ??$extract_argument_from_va_list@G_J@?$positional_parameter_base@DV?$stream_output_adapter@D@__crt_stdio_output@@@__crt_stdio_output@@IAE_NAA_J@Z 100457e0 f i libucrtd:output.obj
 0001:00044920       ??$extract_argument_from_va_list@G_J@?$positional_parameter_base@DV?$string_output_adapter@D@__crt_stdio_output@@@__crt_stdio_output@@IAE_NAA_J@Z 10045920 f i libucrtd:output.obj
 0001:00044a60       ??$extract_argument_from_va_list@G_J@?$positional_parameter_base@_WV?$stream_output_adapter@_W@__crt_stdio_output@@@__crt_stdio_output@@IAE_NAA_J@Z 10045a60 f i libucrtd:output.obj
 0001:00044ba0       ??$extract_argument_from_va_list@G_J@?$positional_parameter_base@_WV?$string_output_adapter@_W@__crt_stdio_output@@@__crt_stdio_output@@IAE_NAA_J@Z 10045ba0 f i libucrtd:output.obj
 0001:00044ce0       ??$extract_argument_from_va_list@G_J@?$standard_base@DV?$stream_output_adapter@D@__crt_stdio_output@@@__crt_stdio_output@@IAE_NAA_J@Z 10045ce0 f i libucrtd:output.obj
 0001:00044d10       ??$extract_argument_from_va_list@G_J@?$standard_base@DV?$string_output_adapter@D@__crt_stdio_output@@@__crt_stdio_output@@IAE_NAA_J@Z 10045d10 f i libucrtd:output.obj
 0001:00044d40       ??$extract_argument_from_va_list@G_J@?$standard_base@_WV?$stream_output_adapter@_W@__crt_stdio_output@@@__crt_stdio_output@@IAE_NAA_J@Z 10045d40 f i libucrtd:output.obj
 0001:00044d70       ??$extract_argument_from_va_list@G_J@?$standard_base@_WV?$string_output_adapter@_W@__crt_stdio_output@@@__crt_stdio_output@@IAE_NAA_J@Z 10045d70 f i libucrtd:output.obj
 0001:00044da0       ??$extract_argument_from_va_list@H_J@?$positional_parameter_base@DV?$stream_output_adapter@D@__crt_stdio_output@@@__crt_stdio_output@@IAE_NAA_J@Z 10045da0 f i libucrtd:output.obj
 0001:00044ed0       ??$extract_argument_from_va_list@H_J@?$positional_parameter_base@DV?$string_output_adapter@D@__crt_stdio_output@@@__crt_stdio_output@@IAE_NAA_J@Z 10045ed0 f i libucrtd:output.obj
 0001:00045000       ??$extract_argument_from_va_list@H_J@?$positional_parameter_base@_WV?$stream_output_adapter@_W@__crt_stdio_output@@@__crt_stdio_output@@IAE_NAA_J@Z 10046000 f i libucrtd:output.obj
 0001:00045130       ??$extract_argument_from_va_list@H_J@?$positional_parameter_base@_WV?$string_output_adapter@_W@__crt_stdio_output@@@__crt_stdio_output@@IAE_NAA_J@Z 10046130 f i libucrtd:output.obj
 0001:00045260       ??$extract_argument_from_va_list@H_J@?$standard_base@DV?$stream_output_adapter@D@__crt_stdio_output@@@__crt_stdio_output@@IAE_NAA_J@Z 10046260 f i libucrtd:output.obj
 0001:00045290       ??$extract_argument_from_va_list@H_J@?$standard_base@DV?$string_output_adapter@D@__crt_stdio_output@@@__crt_stdio_output@@IAE_NAA_J@Z 10046290 f i libucrtd:output.obj
 0001:000452c0       ??$extract_argument_from_va_list@H_J@?$standard_base@_WV?$stream_output_adapter@_W@__crt_stdio_output@@@__crt_stdio_output@@IAE_NAA_J@Z 100462c0 f i libucrtd:output.obj
 0001:000452f0       ??$extract_argument_from_va_list@H_J@?$standard_base@_WV?$string_output_adapter@_W@__crt_stdio_output@@@__crt_stdio_output@@IAE_NAA_J@Z 100462f0 f i libucrtd:output.obj
 0001:00045320       ??$extract_argument_from_va_list@I_J@?$positional_parameter_base@DV?$stream_output_adapter@D@__crt_stdio_output@@@__crt_stdio_output@@IAE_NAA_J@Z 10046320 f i libucrtd:output.obj
 0001:00045450       ??$extract_argument_from_va_list@I_J@?$positional_parameter_base@DV?$string_output_adapter@D@__crt_stdio_output@@@__crt_stdio_output@@IAE_NAA_J@Z 10046450 f i libucrtd:output.obj
 0001:00045580       ??$extract_argument_from_va_list@I_J@?$positional_parameter_base@_WV?$stream_output_adapter@_W@__crt_stdio_output@@@__crt_stdio_output@@IAE_NAA_J@Z 10046580 f i libucrtd:output.obj
 0001:000456b0       ??$extract_argument_from_va_list@I_J@?$positional_parameter_base@_WV?$string_output_adapter@_W@__crt_stdio_output@@@__crt_stdio_output@@IAE_NAA_J@Z 100466b0 f i libucrtd:output.obj
 0001:000457e0       ??$extract_argument_from_va_list@I_J@?$standard_base@DV?$stream_output_adapter@D@__crt_stdio_output@@@__crt_stdio_output@@IAE_NAA_J@Z 100467e0 f i libucrtd:output.obj
 0001:00045810       ??$extract_argument_from_va_list@I_J@?$standard_base@DV?$string_output_adapter@D@__crt_stdio_output@@@__crt_stdio_output@@IAE_NAA_J@Z 10046810 f i libucrtd:output.obj
 0001:00045840       ??$extract_argument_from_va_list@I_J@?$standard_base@_WV?$stream_output_adapter@_W@__crt_stdio_output@@@__crt_stdio_output@@IAE_NAA_J@Z 10046840 f i libucrtd:output.obj
 0001:00045870       ??$extract_argument_from_va_list@I_J@?$standard_base@_WV?$string_output_adapter@_W@__crt_stdio_output@@@__crt_stdio_output@@IAE_NAA_J@Z 10046870 f i libucrtd:output.obj
 0001:000458a0       ??$extract_argument_from_va_list@PADPAD@?$positional_parameter_base@DV?$stream_output_adapter@D@__crt_stdio_output@@@__crt_stdio_output@@IAE_NAAPAD@Z 100468a0 f i libucrtd:output.obj
 0001:000459d0       ??$extract_argument_from_va_list@PADPAD@?$positional_parameter_base@DV?$string_output_adapter@D@__crt_stdio_output@@@__crt_stdio_output@@IAE_NAAPAD@Z 100469d0 f i libucrtd:output.obj
 0001:00045b00       ??$extract_argument_from_va_list@PADPAD@?$positional_parameter_base@_WV?$stream_output_adapter@_W@__crt_stdio_output@@@__crt_stdio_output@@IAE_NAAPAD@Z 10046b00 f i libucrtd:output.obj
 0001:00045c30       ??$extract_argument_from_va_list@PADPAD@?$positional_parameter_base@_WV?$string_output_adapter@_W@__crt_stdio_output@@@__crt_stdio_output@@IAE_NAAPAD@Z 10046c30 f i libucrtd:output.obj
 0001:00045d60       ??$extract_argument_from_va_list@PADPAD@?$standard_base@DV?$stream_output_adapter@D@__crt_stdio_output@@@__crt_stdio_output@@IAE_NAAPAD@Z 10046d60 f i libucrtd:output.obj
 0001:00045d90       ??$extract_argument_from_va_list@PADPAD@?$standard_base@DV?$string_output_adapter@D@__crt_stdio_output@@@__crt_stdio_output@@IAE_NAAPAD@Z 10046d90 f i libucrtd:output.obj
 0001:00045dc0       ??$extract_argument_from_va_list@PADPAD@?$standard_base@_WV?$stream_output_adapter@_W@__crt_stdio_output@@@__crt_stdio_output@@IAE_NAAPAD@Z 10046dc0 f i libucrtd:output.obj
 0001:00045df0       ??$extract_argument_from_va_list@PADPAD@?$standard_base@_WV?$string_output_adapter@_W@__crt_stdio_output@@@__crt_stdio_output@@IAE_NAAPAD@Z 10046df0 f i libucrtd:output.obj
 0001:00045e20       ??$extract_argument_from_va_list@PAUansi_string@?1??type_case_Z@?$output_processor@DV?$stream_output_adapter@D@__crt_stdio_output@@V?$format_validation_base@DV?$stream_output_adapter@D@__crt_stdio_output@@@2@@__crt_stdio_output@@AAE_NXZ@PAU1?1??234@AAE_NXZ@@?$standard_base@DV?$stream_output_adapter@D@__crt_stdio_output@@@__crt_stdio_output@@IAE_NAAPAUansi_string@?1??type_case_Z@?$output_processor@DV?$stream_output_adapter@D@__crt_stdio_output@@V?$format_validation_base@DV?$stream_output_adapter@D@__crt_stdio_output@@@2@@1@AAE_NXZ@@Z 10046e20 f i libucrtd:output.obj
 0001:00045e50       ??$extract_argument_from_va_list@PAUansi_string@?1??type_case_Z@?$output_processor@DV?$stream_output_adapter@D@__crt_stdio_output@@V?$positional_parameter_base@DV?$stream_output_adapter@D@__crt_stdio_output@@@2@@__crt_stdio_output@@AAE_NXZ@PAU1?1??234@AAE_NXZ@@?$positional_parameter_base@DV?$stream_output_adapter@D@__crt_stdio_output@@@__crt_stdio_output@@IAE_NAAPAUansi_string@?1??type_case_Z@?$output_processor@DV?$stream_output_adapter@D@__crt_stdio_output@@V?$positional_parameter_base@DV?$stream_output_adapter@D@__crt_stdio_output@@@2@@1@AAE_NXZ@@Z 10046e50 f i libucrtd:output.obj
 0001:00045f80       ??$extract_argument_from_va_list@PAUansi_string@?1??type_case_Z@?$output_processor@DV?$stream_output_adapter@D@__crt_stdio_output@@V?$positional_parameter_base@DV?$stream_output_adapter@D@__crt_stdio_output@@@2@@__crt_stdio_output@@AAE_NXZ@PAU1?1??234@AAE_NXZ@@?$standard_base@DV?$stream_output_adapter@D@__crt_stdio_output@@@__crt_stdio_output@@IAE_NAAPAUansi_string@?1??type_case_Z@?$output_processor@DV?$stream_output_adapter@D@__crt_stdio_output@@V?$positional_parameter_base@DV?$stream_output_adapter@D@__crt_stdio_output@@@2@@1@AAE_NXZ@@Z 10046f80 f i libucrtd:output.obj
 0001:00045fb0       ??$extract_argument_from_va_list@PAUansi_string@?1??type_case_Z@?$output_processor@DV?$stream_output_adapter@D@__crt_stdio_output@@V?$standard_base@DV?$stream_output_adapter@D@__crt_stdio_output@@@2@@__crt_stdio_output@@AAE_NXZ@PAU1?1??234@AAE_NXZ@@?$standard_base@DV?$stream_output_adapter@D@__crt_stdio_output@@@__crt_stdio_output@@IAE_NAAPAUansi_string@?1??type_case_Z@?$output_processor@DV?$stream_output_adapter@D@__crt_stdio_output@@V?$standard_base@DV?$stream_output_adapter@D@__crt_stdio_output@@@2@@1@AAE_NXZ@@Z 10046fb0 f i libucrtd:output.obj
 0001:00045fe0       ??$extract_argument_from_va_list@PAUansi_string@?1??type_case_Z@?$output_processor@DV?$string_output_adapter@D@__crt_stdio_output@@V?$format_validation_base@DV?$string_output_adapter@D@__crt_stdio_output@@@2@@__crt_stdio_output@@AAE_NXZ@PAU1?1??234@AAE_NXZ@@?$standard_base@DV?$string_output_adapter@D@__crt_stdio_output@@@__crt_stdio_output@@IAE_NAAPAUansi_string@?1??type_case_Z@?$output_processor@DV?$string_output_adapter@D@__crt_stdio_output@@V?$format_validation_base@DV?$string_output_adapter@D@__crt_stdio_output@@@2@@1@AAE_NXZ@@Z 10046fe0 f i libucrtd:output.obj
 0001:00046010       ??$extract_argument_from_va_list@PAUansi_string@?1??type_case_Z@?$output_processor@DV?$string_output_adapter@D@__crt_stdio_output@@V?$positional_parameter_base@DV?$string_output_adapter@D@__crt_stdio_output@@@2@@__crt_stdio_output@@AAE_NXZ@PAU1?1??234@AAE_NXZ@@?$positional_parameter_base@DV?$string_output_adapter@D@__crt_stdio_output@@@__crt_stdio_output@@IAE_NAAPAUansi_string@?1??type_case_Z@?$output_processor@DV?$string_output_adapter@D@__crt_stdio_output@@V?$positional_parameter_base@DV?$string_output_adapter@D@__crt_stdio_output@@@2@@1@AAE_NXZ@@Z 10047010 f i libucrtd:output.obj
 0001:00046140       ??$extract_argument_from_va_list@PAUansi_string@?1??type_case_Z@?$output_processor@DV?$string_output_adapter@D@__crt_stdio_output@@V?$positional_parameter_base@DV?$string_output_adapter@D@__crt_stdio_output@@@2@@__crt_stdio_output@@AAE_NXZ@PAU1?1??234@AAE_NXZ@@?$standard_base@DV?$string_output_adapter@D@__crt_stdio_output@@@__crt_stdio_output@@IAE_NAAPAUansi_string@?1??type_case_Z@?$output_processor@DV?$string_output_adapter@D@__crt_stdio_output@@V?$positional_parameter_base@DV?$string_output_adapter@D@__crt_stdio_output@@@2@@1@AAE_NXZ@@Z 10047140 f i libucrtd:output.obj
 0001:00046170       ??$extract_argument_from_va_list@PAUansi_string@?1??type_case_Z@?$output_processor@DV?$string_output_adapter@D@__crt_stdio_output@@V?$standard_base@DV?$string_output_adapter@D@__crt_stdio_output@@@2@@__crt_stdio_output@@AAE_NXZ@PAU1?1??234@AAE_NXZ@@?$standard_base@DV?$string_output_adapter@D@__crt_stdio_output@@@__crt_stdio_output@@IAE_NAAPAUansi_string@?1??type_case_Z@?$output_processor@DV?$string_output_adapter@D@__crt_stdio_output@@V?$standard_base@DV?$string_output_adapter@D@__crt_stdio_output@@@2@@1@AAE_NXZ@@Z 10047170 f i libucrtd:output.obj
 0001:000461a0       ??$extract_argument_from_va_list@PAUansi_string@?1??type_case_Z@?$output_processor@_WV?$stream_output_adapter@_W@__crt_stdio_output@@V?$format_validation_base@_WV?$stream_output_adapter@_W@__crt_stdio_output@@@2@@__crt_stdio_output@@AAE_NXZ@PAU1?1??234@AAE_NXZ@@?$standard_base@_WV?$stream_output_adapter@_W@__crt_stdio_output@@@__crt_stdio_output@@IAE_NAAPAUansi_string@?1??type_case_Z@?$output_processor@_WV?$stream_output_adapter@_W@__crt_stdio_output@@V?$format_validation_base@_WV?$stream_output_adapter@_W@__crt_stdio_output@@@2@@1@AAE_NXZ@@Z 100471a0 f i libucrtd:output.obj
 0001:000461d0       ??$extract_argument_from_va_list@PAUansi_string@?1??type_case_Z@?$output_processor@_WV?$stream_output_adapter@_W@__crt_stdio_output@@V?$positional_parameter_base@_WV?$stream_output_adapter@_W@__crt_stdio_output@@@2@@__crt_stdio_output@@AAE_NXZ@PAU1?1??234@AAE_NXZ@@?$positional_parameter_base@_WV?$stream_output_adapter@_W@__crt_stdio_output@@@__crt_stdio_output@@IAE_NAAPAUansi_string@?1??type_case_Z@?$output_processor@_WV?$stream_output_adapter@_W@__crt_stdio_output@@V?$positional_parameter_base@_WV?$stream_output_adapter@_W@__crt_stdio_output@@@2@@1@AAE_NXZ@@Z 100471d0 f i libucrtd:output.obj
 0001:00046300       ??$extract_argument_from_va_list@PAUansi_string@?1??type_case_Z@?$output_processor@_WV?$stream_output_adapter@_W@__crt_stdio_output@@V?$positional_parameter_base@_WV?$stream_output_adapter@_W@__crt_stdio_output@@@2@@__crt_stdio_output@@AAE_NXZ@PAU1?1??234@AAE_NXZ@@?$standard_base@_WV?$stream_output_adapter@_W@__crt_stdio_output@@@__crt_stdio_output@@IAE_NAAPAUansi_string@?1??type_case_Z@?$output_processor@_WV?$stream_output_adapter@_W@__crt_stdio_output@@V?$positional_parameter_base@_WV?$stream_output_adapter@_W@__crt_stdio_output@@@2@@1@AAE_NXZ@@Z 10047300 f i libucrtd:output.obj
 0001:00046330       ??$extract_argument_from_va_list@PAUansi_string@?1??type_case_Z@?$output_processor@_WV?$stream_output_adapter@_W@__crt_stdio_output@@V?$standard_base@_WV?$stream_output_adapter@_W@__crt_stdio_output@@@2@@__crt_stdio_output@@AAE_NXZ@PAU1?1??234@AAE_NXZ@@?$standard_base@_WV?$stream_output_adapter@_W@__crt_stdio_output@@@__crt_stdio_output@@IAE_NAAPAUansi_string@?1??type_case_Z@?$output_processor@_WV?$stream_output_adapter@_W@__crt_stdio_output@@V?$standard_base@_WV?$stream_output_adapter@_W@__crt_stdio_output@@@2@@1@AAE_NXZ@@Z 10047330 f i libucrtd:output.obj
 0001:00046360       ??$extract_argument_from_va_list@PAUansi_string@?1??type_case_Z@?$output_processor@_WV?$string_output_adapter@_W@__crt_stdio_output@@V?$format_validation_base@_WV?$string_output_adapter@_W@__crt_stdio_output@@@2@@__crt_stdio_output@@AAE_NXZ@PAU1?1??234@AAE_NXZ@@?$standard_base@_WV?$string_output_adapter@_W@__crt_stdio_output@@@__crt_stdio_output@@IAE_NAAPAUansi_string@?1??type_case_Z@?$output_processor@_WV?$string_output_adapter@_W@__crt_stdio_output@@V?$format_validation_base@_WV?$string_output_adapter@_W@__crt_stdio_output@@@2@@1@AAE_NXZ@@Z 10047360 f i libucrtd:output.obj
 0001:00046390       ??$extract_argument_from_va_list@PAUansi_string@?1??type_case_Z@?$output_processor@_WV?$string_output_adapter@_W@__crt_stdio_output@@V?$positional_parameter_base@_WV?$string_output_adapter@_W@__crt_stdio_output@@@2@@__crt_stdio_output@@AAE_NXZ@PAU1?1??234@AAE_NXZ@@?$positional_parameter_base@_WV?$string_output_adapter@_W@__crt_stdio_output@@@__crt_stdio_output@@IAE_NAAPAUansi_string@?1??type_case_Z@?$output_processor@_WV?$string_output_adapter@_W@__crt_stdio_output@@V?$positional_parameter_base@_WV?$string_output_adapter@_W@__crt_stdio_output@@@2@@1@AAE_NXZ@@Z 10047390 f i libucrtd:output.obj
 0001:000464c0       ??$extract_argument_from_va_list@PAUansi_string@?1??type_case_Z@?$output_processor@_WV?$string_output_adapter@_W@__crt_stdio_output@@V?$positional_parameter_base@_WV?$string_output_adapter@_W@__crt_stdio_output@@@2@@__crt_stdio_output@@AAE_NXZ@PAU1?1??234@AAE_NXZ@@?$standard_base@_WV?$string_output_adapter@_W@__crt_stdio_output@@@__crt_stdio_output@@IAE_NAAPAUansi_string@?1??type_case_Z@?$output_processor@_WV?$string_output_adapter@_W@__crt_stdio_output@@V?$positional_parameter_base@_WV?$string_output_adapter@_W@__crt_stdio_output@@@2@@1@AAE_NXZ@@Z 100474c0 f i libucrtd:output.obj
 0001:000464f0       ??$extract_argument_from_va_list@PAUansi_string@?1??type_case_Z@?$output_processor@_WV?$string_output_adapter@_W@__crt_stdio_output@@V?$standard_base@_WV?$string_output_adapter@_W@__crt_stdio_output@@@2@@__crt_stdio_output@@AAE_NXZ@PAU1?1??234@AAE_NXZ@@?$standard_base@_WV?$string_output_adapter@_W@__crt_stdio_output@@@__crt_stdio_output@@IAE_NAAPAUansi_string@?1??type_case_Z@?$output_processor@_WV?$string_output_adapter@_W@__crt_stdio_output@@V?$standard_base@_WV?$string_output_adapter@_W@__crt_stdio_output@@@2@@1@AAE_NXZ@@Z 100474f0 f i libucrtd:output.obj
 0001:00046520       ??$extract_argument_from_va_list@PAXPAX@?$positional_parameter_base@DV?$stream_output_adapter@D@__crt_stdio_output@@@__crt_stdio_output@@IAE_NAAPAX@Z 10047520 f i libucrtd:output.obj
 0001:00046650       ??$extract_argument_from_va_list@PAXPAX@?$positional_parameter_base@DV?$string_output_adapter@D@__crt_stdio_output@@@__crt_stdio_output@@IAE_NAAPAX@Z 10047650 f i libucrtd:output.obj
 0001:00046780       ??$extract_argument_from_va_list@PAXPAX@?$positional_parameter_base@_WV?$stream_output_adapter@_W@__crt_stdio_output@@@__crt_stdio_output@@IAE_NAAPAX@Z 10047780 f i libucrtd:output.obj
 0001:000468b0       ??$extract_argument_from_va_list@PAXPAX@?$positional_parameter_base@_WV?$string_output_adapter@_W@__crt_stdio_output@@@__crt_stdio_output@@IAE_NAAPAX@Z 100478b0 f i libucrtd:output.obj
 0001:000469e0       ??$extract_argument_from_va_list@PAXPAX@?$standard_base@DV?$stream_output_adapter@D@__crt_stdio_output@@@__crt_stdio_output@@IAE_NAAPAX@Z 100479e0 f i libucrtd:output.obj
 0001:00046a10       ??$extract_argument_from_va_list@PAXPAX@?$standard_base@DV?$string_output_adapter@D@__crt_stdio_output@@@__crt_stdio_output@@IAE_NAAPAX@Z 10047a10 f i libucrtd:output.obj
 0001:00046a40       ??$extract_argument_from_va_list@PAXPAX@?$standard_base@_WV?$stream_output_adapter@_W@__crt_stdio_output@@@__crt_stdio_output@@IAE_NAAPAX@Z 10047a40 f i libucrtd:output.obj
 0001:00046a70       ??$extract_argument_from_va_list@PAXPAX@?$standard_base@_WV?$string_output_adapter@_W@__crt_stdio_output@@@__crt_stdio_output@@IAE_NAAPAX@Z 10047a70 f i libucrtd:output.obj
 0001:00046aa0       ??$extract_argument_from_va_list@U_CRT_DOUBLE@@U1@@?$positional_parameter_base@DV?$stream_output_adapter@D@__crt_stdio_output@@@__crt_stdio_output@@IAE_NAAU_CRT_DOUBLE@@@Z 10047aa0 f i libucrtd:output.obj
 0001:00046c00       ??$extract_argument_from_va_list@U_CRT_DOUBLE@@U1@@?$positional_parameter_base@DV?$string_output_adapter@D@__crt_stdio_output@@@__crt_stdio_output@@IAE_NAAU_CRT_DOUBLE@@@Z 10047c00 f i libucrtd:output.obj
 0001:00046d60       ??$extract_argument_from_va_list@U_CRT_DOUBLE@@U1@@?$positional_parameter_base@_WV?$stream_output_adapter@_W@__crt_stdio_output@@@__crt_stdio_output@@IAE_NAAU_CRT_DOUBLE@@@Z 10047d60 f i libucrtd:output.obj
 0001:00046ec0       ??$extract_argument_from_va_list@U_CRT_DOUBLE@@U1@@?$positional_parameter_base@_WV?$string_output_adapter@_W@__crt_stdio_output@@@__crt_stdio_output@@IAE_NAAU_CRT_DOUBLE@@@Z 10047ec0 f i libucrtd:output.obj
 0001:00047020       ??$extract_argument_from_va_list@U_CRT_DOUBLE@@U1@@?$standard_base@DV?$stream_output_adapter@D@__crt_stdio_output@@@__crt_stdio_output@@IAE_NAAU_CRT_DOUBLE@@@Z 10048020 f i libucrtd:output.obj
 0001:00047070       ??$extract_argument_from_va_list@U_CRT_DOUBLE@@U1@@?$standard_base@DV?$string_output_adapter@D@__crt_stdio_output@@@__crt_stdio_output@@IAE_NAAU_CRT_DOUBLE@@@Z 10048070 f i libucrtd:output.obj
 0001:000470c0       ??$extract_argument_from_va_list@U_CRT_DOUBLE@@U1@@?$standard_base@_WV?$stream_output_adapter@_W@__crt_stdio_output@@@__crt_stdio_output@@IAE_NAAU_CRT_DOUBLE@@@Z 100480c0 f i libucrtd:output.obj
 0001:00047110       ??$extract_argument_from_va_list@U_CRT_DOUBLE@@U1@@?$standard_base@_WV?$string_output_adapter@_W@__crt_stdio_output@@@__crt_stdio_output@@IAE_NAAU_CRT_DOUBLE@@@Z 10048110 f i libucrtd:output.obj
 0001:00047160       ??$extract_argument_from_va_list@_J_J@?$positional_parameter_base@DV?$stream_output_adapter@D@__crt_stdio_output@@@__crt_stdio_output@@IAE_NAA_J@Z 10048160 f i libucrtd:output.obj
 0001:00047290       ??$extract_argument_from_va_list@_J_J@?$positional_parameter_base@DV?$string_output_adapter@D@__crt_stdio_output@@@__crt_stdio_output@@IAE_NAA_J@Z 10048290 f i libucrtd:output.obj
 0001:000473c0       ??$extract_argument_from_va_list@_J_J@?$positional_parameter_base@_WV?$stream_output_adapter@_W@__crt_stdio_output@@@__crt_stdio_output@@IAE_NAA_J@Z 100483c0 f i libucrtd:output.obj
 0001:000474f0       ??$extract_argument_from_va_list@_J_J@?$positional_parameter_base@_WV?$string_output_adapter@_W@__crt_stdio_output@@@__crt_stdio_output@@IAE_NAA_J@Z 100484f0 f i libucrtd:output.obj
 0001:00047620       ??$extract_argument_from_va_list@_J_J@?$standard_base@DV?$stream_output_adapter@D@__crt_stdio_output@@@__crt_stdio_output@@IAE_NAA_J@Z 10048620 f i libucrtd:output.obj
 0001:00047650       ??$extract_argument_from_va_list@_J_J@?$standard_base@DV?$string_output_adapter@D@__crt_stdio_output@@@__crt_stdio_output@@IAE_NAA_J@Z 10048650 f i libucrtd:output.obj
 0001:00047680       ??$extract_argument_from_va_list@_J_J@?$standard_base@_WV?$stream_output_adapter@_W@__crt_stdio_output@@@__crt_stdio_output@@IAE_NAA_J@Z 10048680 f i libucrtd:output.obj
 0001:000476b0       ??$extract_argument_from_va_list@_J_J@?$standard_base@_WV?$string_output_adapter@_W@__crt_stdio_output@@@__crt_stdio_output@@IAE_NAA_J@Z 100486b0 f i libucrtd:output.obj
 0001:000476e0       ??$extract_argument_from_va_list@_K_J@?$positional_parameter_base@DV?$stream_output_adapter@D@__crt_stdio_output@@@__crt_stdio_output@@IAE_NAA_J@Z 100486e0 f i libucrtd:output.obj
 0001:00047810       ??$extract_argument_from_va_list@_K_J@?$positional_parameter_base@DV?$string_output_adapter@D@__crt_stdio_output@@@__crt_stdio_output@@IAE_NAA_J@Z 10048810 f i libucrtd:output.obj
 0001:00047940       ??$extract_argument_from_va_list@_K_J@?$positional_parameter_base@_WV?$stream_output_adapter@_W@__crt_stdio_output@@@__crt_stdio_output@@IAE_NAA_J@Z 10048940 f i libucrtd:output.obj
 0001:00047a70       ??$extract_argument_from_va_list@_K_J@?$positional_parameter_base@_WV?$string_output_adapter@_W@__crt_stdio_output@@@__crt_stdio_output@@IAE_NAA_J@Z 10048a70 f i libucrtd:output.obj
 0001:00047ba0       ??$extract_argument_from_va_list@_K_J@?$standard_base@DV?$stream_output_adapter@D@__crt_stdio_output@@@__crt_stdio_output@@IAE_NAA_J@Z 10048ba0 f i libucrtd:output.obj
 0001:00047bd0       ??$extract_argument_from_va_list@_K_J@?$standard_base@DV?$string_output_adapter@D@__crt_stdio_output@@@__crt_stdio_output@@IAE_NAA_J@Z 10048bd0 f i libucrtd:output.obj
 0001:00047c00       ??$extract_argument_from_va_list@_K_J@?$standard_base@_WV?$stream_output_adapter@_W@__crt_stdio_output@@@__crt_stdio_output@@IAE_NAA_J@Z 10048c00 f i libucrtd:output.obj
 0001:00047c30       ??$extract_argument_from_va_list@_K_J@?$standard_base@_WV?$string_output_adapter@_W@__crt_stdio_output@@@__crt_stdio_output@@IAE_NAA_J@Z 10048c30 f i libucrtd:output.obj
 0001:00047c60       ??$extract_argument_from_va_list@_W_W@?$positional_parameter_base@DV?$stream_output_adapter@D@__crt_stdio_output@@@__crt_stdio_output@@IAE_NAA_W@Z 10048c60 f i libucrtd:output.obj
 0001:00047d90       ??$extract_argument_from_va_list@_W_W@?$positional_parameter_base@DV?$string_output_adapter@D@__crt_stdio_output@@@__crt_stdio_output@@IAE_NAA_W@Z 10048d90 f i libucrtd:output.obj
 0001:00047ec0       ??$extract_argument_from_va_list@_W_W@?$positional_parameter_base@_WV?$stream_output_adapter@_W@__crt_stdio_output@@@__crt_stdio_output@@IAE_NAA_W@Z 10048ec0 f i libucrtd:output.obj
 0001:00047ff0       ??$extract_argument_from_va_list@_W_W@?$positional_parameter_base@_WV?$string_output_adapter@_W@__crt_stdio_output@@@__crt_stdio_output@@IAE_NAA_W@Z 10048ff0 f i libucrtd:output.obj
 0001:00048120       ??$extract_argument_from_va_list@_W_W@?$standard_base@DV?$stream_output_adapter@D@__crt_stdio_output@@@__crt_stdio_output@@IAE_NAA_W@Z 10049120 f i libucrtd:output.obj
 0001:00048150       ??$extract_argument_from_va_list@_W_W@?$standard_base@DV?$string_output_adapter@D@__crt_stdio_output@@@__crt_stdio_output@@IAE_NAA_W@Z 10049150 f i libucrtd:output.obj
 0001:00048180       ??$extract_argument_from_va_list@_W_W@?$standard_base@_WV?$stream_output_adapter@_W@__crt_stdio_output@@@__crt_stdio_output@@IAE_NAA_W@Z 10049180 f i libucrtd:output.obj
 0001:000481b0       ??$extract_argument_from_va_list@_W_W@?$standard_base@_WV?$string_output_adapter@_W@__crt_stdio_output@@@__crt_stdio_output@@IAE_NAA_W@Z 100491b0 f i libucrtd:output.obj
 0001:000481e0       ??$get_parameter_type@D@?$positional_parameter_base@DV?$stream_output_adapter@D@__crt_stdio_output@@@__crt_stdio_output@@CA?AW4parameter_type@01@PAD@Z 100491e0 f i libucrtd:output.obj
 0001:000481f0       ??$get_parameter_type@D@?$positional_parameter_base@DV?$string_output_adapter@D@__crt_stdio_output@@@__crt_stdio_output@@CA?AW4parameter_type@01@PAD@Z 100491f0 f i libucrtd:output.obj
 0001:00048200       ??$get_parameter_type@D@?$positional_parameter_base@_WV?$stream_output_adapter@_W@__crt_stdio_output@@@__crt_stdio_output@@CA?AW4parameter_type@01@PAD@Z 10049200 f i libucrtd:output.obj
 0001:00048210       ??$get_parameter_type@D@?$positional_parameter_base@_WV?$string_output_adapter@_W@__crt_stdio_output@@@__crt_stdio_output@@CA?AW4parameter_type@01@PAD@Z 10049210 f i libucrtd:output.obj
 0001:00048220       ??$get_parameter_type@Uansi_string@?1??type_case_Z@?$output_processor@DV?$stream_output_adapter@D@__crt_stdio_output@@V?$positional_parameter_base@DV?$stream_output_adapter@D@__crt_stdio_output@@@2@@__crt_stdio_output@@AAE_NXZ@@?$positional_parameter_base@DV?$stream_output_adapter@D@__crt_stdio_output@@@__crt_stdio_output@@CA?AW4parameter_type@01@PAUansi_string@?1??type_case_Z@?$output_processor@DV?$stream_output_adapter@D@__crt_stdio_output@@V?$positional_parameter_base@DV?$stream_output_adapter@D@__crt_stdio_output@@@2@@1@AAE_NXZ@@Z 10049220 f i libucrtd:output.obj
 0001:00048230       ??$get_parameter_type@Uansi_string@?1??type_case_Z@?$output_processor@DV?$string_output_adapter@D@__crt_stdio_output@@V?$positional_parameter_base@DV?$string_output_adapter@D@__crt_stdio_output@@@2@@__crt_stdio_output@@AAE_NXZ@@?$positional_parameter_base@DV?$string_output_adapter@D@__crt_stdio_output@@@__crt_stdio_output@@CA?AW4parameter_type@01@PAUansi_string@?1??type_case_Z@?$output_processor@DV?$string_output_adapter@D@__crt_stdio_output@@V?$positional_parameter_base@DV?$string_output_adapter@D@__crt_stdio_output@@@2@@1@AAE_NXZ@@Z 10049230 f i libucrtd:output.obj
 0001:00048240       ??$get_parameter_type@Uansi_string@?1??type_case_Z@?$output_processor@_WV?$stream_output_adapter@_W@__crt_stdio_output@@V?$positional_parameter_base@_WV?$stream_output_adapter@_W@__crt_stdio_output@@@2@@__crt_stdio_output@@AAE_NXZ@@?$positional_parameter_base@_WV?$stream_output_adapter@_W@__crt_stdio_output@@@__crt_stdio_output@@CA?AW4parameter_type@01@PAUansi_string@?1??type_case_Z@?$output_processor@_WV?$stream_output_adapter@_W@__crt_stdio_output@@V?$positional_parameter_base@_WV?$stream_output_adapter@_W@__crt_stdio_output@@@2@@1@AAE_NXZ@@Z 10049240 f i libucrtd:output.obj
 0001:00048250       ??$get_parameter_type@Uansi_string@?1??type_case_Z@?$output_processor@_WV?$string_output_adapter@_W@__crt_stdio_output@@V?$positional_parameter_base@_WV?$string_output_adapter@_W@__crt_stdio_output@@@2@@__crt_stdio_output@@AAE_NXZ@@?$positional_parameter_base@_WV?$string_output_adapter@_W@__crt_stdio_output@@@__crt_stdio_output@@CA?AW4parameter_type@01@PAUansi_string@?1??type_case_Z@?$output_processor@_WV?$string_output_adapter@_W@__crt_stdio_output@@V?$positional_parameter_base@_WV?$string_output_adapter@_W@__crt_stdio_output@@@2@@1@AAE_NXZ@@Z 10049250 f i libucrtd:output.obj
 0001:00048260       ??$get_parameter_type@X@?$positional_parameter_base@DV?$stream_output_adapter@D@__crt_stdio_output@@@__crt_stdio_output@@CA?AW4parameter_type@01@PAX@Z 10049260 f i libucrtd:output.obj
 0001:00048270       ??$get_parameter_type@X@?$positional_parameter_base@DV?$string_output_adapter@D@__crt_stdio_output@@@__crt_stdio_output@@CA?AW4parameter_type@01@PAX@Z 10049270 f i libucrtd:output.obj
 0001:00048280       ??$get_parameter_type@X@?$positional_parameter_base@_WV?$stream_output_adapter@_W@__crt_stdio_output@@@__crt_stdio_output@@CA?AW4parameter_type@01@PAX@Z 10049280 f i libucrtd:output.obj
 0001:00048290       ??$get_parameter_type@X@?$positional_parameter_base@_WV?$string_output_adapter@_W@__crt_stdio_output@@@__crt_stdio_output@@CA?AW4parameter_type@01@PAX@Z 10049290 f i libucrtd:output.obj
 0001:000482a0       ??$is_character_specifier@D@?$positional_parameter_base@DV?$stream_output_adapter@D@__crt_stdio_output@@@__crt_stdio_output@@CA_ND@Z 100492a0 f i libucrtd:output.obj
 0001:000482d0       ??$is_character_specifier@D@?$positional_parameter_base@DV?$string_output_adapter@D@__crt_stdio_output@@@__crt_stdio_output@@CA_ND@Z 100492d0 f i libucrtd:output.obj
 0001:00048300       ??$is_character_specifier@_W@?$positional_parameter_base@_WV?$stream_output_adapter@_W@__crt_stdio_output@@@__crt_stdio_output@@CA_N_W@Z 10049300 f i libucrtd:output.obj
 0001:00048330       ??$is_character_specifier@_W@?$positional_parameter_base@_WV?$string_output_adapter@_W@__crt_stdio_output@@@__crt_stdio_output@@CA_N_W@Z 10049330 f i libucrtd:output.obj
 0001:00048360       ??$is_integral_specifier@D@?$positional_parameter_base@DV?$stream_output_adapter@D@__crt_stdio_output@@@__crt_stdio_output@@CA_ND@Z 10049360 f i libucrtd:output.obj
 0001:000483c0       ??$is_integral_specifier@D@?$positional_parameter_base@DV?$string_output_adapter@D@__crt_stdio_output@@@__crt_stdio_output@@CA_ND@Z 100493c0 f i libucrtd:output.obj
 0001:00048420       ??$is_integral_specifier@_W@?$positional_parameter_base@_WV?$stream_output_adapter@_W@__crt_stdio_output@@@__crt_stdio_output@@CA_N_W@Z 10049420 f i libucrtd:output.obj
 0001:00048480       ??$is_integral_specifier@_W@?$positional_parameter_base@_WV?$string_output_adapter@_W@__crt_stdio_output@@@__crt_stdio_output@@CA_N_W@Z 10049480 f i libucrtd:output.obj
 0001:000484e0       ??$is_pointer_specifier@D@?$positional_parameter_base@DV?$stream_output_adapter@D@__crt_stdio_output@@@__crt_stdio_output@@CA_ND@Z 100494e0 f i libucrtd:output.obj
 0001:00048510       ??$is_pointer_specifier@D@?$positional_parameter_base@DV?$string_output_adapter@D@__crt_stdio_output@@@__crt_stdio_output@@CA_ND@Z 10049510 f i libucrtd:output.obj
 0001:00048540       ??$is_pointer_specifier@_W@?$positional_parameter_base@_WV?$stream_output_adapter@_W@__crt_stdio_output@@@__crt_stdio_output@@CA_N_W@Z 10049540 f i libucrtd:output.obj
 0001:00048570       ??$is_pointer_specifier@_W@?$positional_parameter_base@_WV?$string_output_adapter@_W@__crt_stdio_output@@@__crt_stdio_output@@CA_N_W@Z 10049570 f i libucrtd:output.obj
 0001:000485a0       ??$is_string_specifier@D@?$positional_parameter_base@DV?$stream_output_adapter@D@__crt_stdio_output@@@__crt_stdio_output@@CA_ND@Z 100495a0 f i libucrtd:output.obj
 0001:000485d0       ??$is_string_specifier@D@?$positional_parameter_base@DV?$string_output_adapter@D@__crt_stdio_output@@@__crt_stdio_output@@CA_ND@Z 100495d0 f i libucrtd:output.obj
 0001:00048600       ??$is_string_specifier@_W@?$positional_parameter_base@_WV?$stream_output_adapter@_W@__crt_stdio_output@@@__crt_stdio_output@@CA_N_W@Z 10049600 f i libucrtd:output.obj
 0001:00048630       ??$is_string_specifier@_W@?$positional_parameter_base@_WV?$string_output_adapter@_W@__crt_stdio_output@@@__crt_stdio_output@@CA_N_W@Z 10049630 f i libucrtd:output.obj
 0001:00048660       ??$is_wide_character_specifier@D@__crt_stdio_output@@YA_N_KDW4length_modifier@0@@Z 10049660 f i libucrtd:output.obj
 0001:000486e0       ??$is_wide_character_specifier@_W@__crt_stdio_output@@YA_N_K_WW4length_modifier@0@@Z 100496e0 f i libucrtd:output.obj
 0001:000487a0       ??$peek_va_arg@C@__crt_stdio_output@@YACPAD@Z 100497a0 f i libucrtd:output.obj
 0001:000487c0       ??$peek_va_arg@E@__crt_stdio_output@@YAEPAD@Z 100497c0 f i libucrtd:output.obj
 0001:000487e0       ??$peek_va_arg@F@__crt_stdio_output@@YAFPAD@Z 100497e0 f i libucrtd:output.obj
 0001:00048800       ??$peek_va_arg@G@__crt_stdio_output@@YAGPAD@Z 10049800 f i libucrtd:output.obj
 0001:00048820       ??$peek_va_arg@H@__crt_stdio_output@@YAHPAD@Z 10049820 f i libucrtd:output.obj
 0001:00048840       ??$peek_va_arg@I@__crt_stdio_output@@YAIPAD@Z 10049840 f i libucrtd:output.obj
 0001:00048860       ??$peek_va_arg@PAD@__crt_stdio_output@@YAPADPAD@Z 10049860 f i libucrtd:output.obj
 0001:00048880       ??$peek_va_arg@PAUansi_string@?1??type_case_Z@?$output_processor@DV?$stream_output_adapter@D@__crt_stdio_output@@V?$positional_parameter_base@DV?$stream_output_adapter@D@__crt_stdio_output@@@2@@__crt_stdio_output@@AAE_NXZ@@__crt_stdio_output@@YAPAUansi_string@?1??type_case_Z@?$output_processor@DV?$stream_output_adapter@D@__crt_stdio_output@@V?$positional_parameter_base@DV?$stream_output_adapter@D@__crt_stdio_output@@@2@@0@AAE_NXZ@PAD@Z 10049880 f i libucrtd:output.obj
 0001:000488a0       ??$peek_va_arg@PAUansi_string@?1??type_case_Z@?$output_processor@DV?$string_output_adapter@D@__crt_stdio_output@@V?$positional_parameter_base@DV?$string_output_adapter@D@__crt_stdio_output@@@2@@__crt_stdio_output@@AAE_NXZ@@__crt_stdio_output@@YAPAUansi_string@?1??type_case_Z@?$output_processor@DV?$string_output_adapter@D@__crt_stdio_output@@V?$positional_parameter_base@DV?$string_output_adapter@D@__crt_stdio_output@@@2@@0@AAE_NXZ@PAD@Z 100498a0 f i libucrtd:output.obj
 0001:000488c0       ??$peek_va_arg@PAUansi_string@?1??type_case_Z@?$output_processor@_WV?$stream_output_adapter@_W@__crt_stdio_output@@V?$positional_parameter_base@_WV?$stream_output_adapter@_W@__crt_stdio_output@@@2@@__crt_stdio_output@@AAE_NXZ@@__crt_stdio_output@@YAPAUansi_string@?1??type_case_Z@?$output_processor@_WV?$stream_output_adapter@_W@__crt_stdio_output@@V?$positional_parameter_base@_WV?$stream_output_adapter@_W@__crt_stdio_output@@@2@@0@AAE_NXZ@PAD@Z 100498c0 f i libucrtd:output.obj
 0001:000488e0       ??$peek_va_arg@PAUansi_string@?1??type_case_Z@?$output_processor@_WV?$string_output_adapter@_W@__crt_stdio_output@@V?$positional_parameter_base@_WV?$string_output_adapter@_W@__crt_stdio_output@@@2@@__crt_stdio_output@@AAE_NXZ@@__crt_stdio_output@@YAPAUansi_string@?1??type_case_Z@?$output_processor@_WV?$string_output_adapter@_W@__crt_stdio_output@@V?$positional_parameter_base@_WV?$string_output_adapter@_W@__crt_stdio_output@@@2@@0@AAE_NXZ@PAD@Z 100498e0 f i libucrtd:output.obj
 0001:00048900       ??$peek_va_arg@PAX@__crt_stdio_output@@YAPAXPAD@Z 10049900 f i libucrtd:output.obj
 0001:00048920       ??$peek_va_arg@U_CRT_DOUBLE@@@__crt_stdio_output@@YA?AU_CRT_DOUBLE@@PAD@Z 10049920 f i libucrtd:output.obj
 0001:00048940       ??$peek_va_arg@_J@__crt_stdio_output@@YA_JPAD@Z 10049940 f i libucrtd:output.obj
 0001:00048960       ??$peek_va_arg@_K@__crt_stdio_output@@YA_KPAD@Z 10049960 f i libucrtd:output.obj
 0001:00048980       ??$peek_va_arg@_W@__crt_stdio_output@@YA_WPAD@Z 10049980 f i libucrtd:output.obj
 0001:000489a0       ??$puttc_nolock@ABDPAU_iobuf@@@?$__crt_char_traits@D@@SAHABD$$QAPAU_iobuf@@@Z 100499a0 f i libucrtd:output.obj
 0001:000489c0       ??$puttc_nolock@AB_WPAU_iobuf@@@?$__crt_char_traits@_W@@SAGAB_W$$QAPAU_iobuf@@@Z 100499c0 f i libucrtd:output.obj
 0001:000489e0       ??$read_va_arg@C@__crt_stdio_output@@YACAAPAD@Z 100499e0 f i libucrtd:output.obj
 0001:00048a00       ??$read_va_arg@E@__crt_stdio_output@@YAEAAPAD@Z 10049a00 f i libucrtd:output.obj
 0001:00048a20       ??$read_va_arg@F@__crt_stdio_output@@YAFAAPAD@Z 10049a20 f i libucrtd:output.obj
 0001:00048a40       ??$read_va_arg@G@__crt_stdio_output@@YAGAAPAD@Z 10049a40 f i libucrtd:output.obj
 0001:00048a60       ??$read_va_arg@H@__crt_stdio_output@@YAHAAPAD@Z 10049a60 f i libucrtd:output.obj
 0001:00048a80       ??$read_va_arg@I@__crt_stdio_output@@YAIAAPAD@Z 10049a80 f i libucrtd:output.obj
 0001:00048aa0       ??$read_va_arg@PAD@__crt_stdio_output@@YAPADAAPAD@Z 10049aa0 f i libucrtd:output.obj
 0001:00048ac0       ??$read_va_arg@PAUansi_string@?1??type_case_Z@?$output_processor@DV?$stream_output_adapter@D@__crt_stdio_output@@V?$format_validation_base@DV?$stream_output_adapter@D@__crt_stdio_output@@@2@@__crt_stdio_output@@AAE_NXZ@@__crt_stdio_output@@YAPAUansi_string@?1??type_case_Z@?$output_processor@DV?$stream_output_adapter@D@__crt_stdio_output@@V?$format_validation_base@DV?$stream_output_adapter@D@__crt_stdio_output@@@2@@0@AAE_NXZ@AAPAD@Z 10049ac0 f i libucrtd:output.obj
 0001:00048ae0       ??$read_va_arg@PAUansi_string@?1??type_case_Z@?$output_processor@DV?$stream_output_adapter@D@__crt_stdio_output@@V?$positional_parameter_base@DV?$stream_output_adapter@D@__crt_stdio_output@@@2@@__crt_stdio_output@@AAE_NXZ@@__crt_stdio_output@@YAPAUansi_string@?1??type_case_Z@?$output_processor@DV?$stream_output_adapter@D@__crt_stdio_output@@V?$positional_parameter_base@DV?$stream_output_adapter@D@__crt_stdio_output@@@2@@0@AAE_NXZ@AAPAD@Z 10049ae0 f i libucrtd:output.obj
 0001:00048b00       ??$read_va_arg@PAUansi_string@?1??type_case_Z@?$output_processor@DV?$stream_output_adapter@D@__crt_stdio_output@@V?$standard_base@DV?$stream_output_adapter@D@__crt_stdio_output@@@2@@__crt_stdio_output@@AAE_NXZ@@__crt_stdio_output@@YAPAUansi_string@?1??type_case_Z@?$output_processor@DV?$stream_output_adapter@D@__crt_stdio_output@@V?$standard_base@DV?$stream_output_adapter@D@__crt_stdio_output@@@2@@0@AAE_NXZ@AAPAD@Z 10049b00 f i libucrtd:output.obj
 0001:00048b20       ??$read_va_arg@PAUansi_string@?1??type_case_Z@?$output_processor@DV?$string_output_adapter@D@__crt_stdio_output@@V?$format_validation_base@DV?$string_output_adapter@D@__crt_stdio_output@@@2@@__crt_stdio_output@@AAE_NXZ@@__crt_stdio_output@@YAPAUansi_string@?1??type_case_Z@?$output_processor@DV?$string_output_adapter@D@__crt_stdio_output@@V?$format_validation_base@DV?$string_output_adapter@D@__crt_stdio_output@@@2@@0@AAE_NXZ@AAPAD@Z 10049b20 f i libucrtd:output.obj
 0001:00048b40       ??$read_va_arg@PAUansi_string@?1??type_case_Z@?$output_processor@DV?$string_output_adapter@D@__crt_stdio_output@@V?$positional_parameter_base@DV?$string_output_adapter@D@__crt_stdio_output@@@2@@__crt_stdio_output@@AAE_NXZ@@__crt_stdio_output@@YAPAUansi_string@?1??type_case_Z@?$output_processor@DV?$string_output_adapter@D@__crt_stdio_output@@V?$positional_parameter_base@DV?$string_output_adapter@D@__crt_stdio_output@@@2@@0@AAE_NXZ@AAPAD@Z 10049b40 f i libucrtd:output.obj
 0001:00048b60       ??$read_va_arg@PAUansi_string@?1??type_case_Z@?$output_processor@DV?$string_output_adapter@D@__crt_stdio_output@@V?$standard_base@DV?$string_output_adapter@D@__crt_stdio_output@@@2@@__crt_stdio_output@@AAE_NXZ@@__crt_stdio_output@@YAPAUansi_string@?1??type_case_Z@?$output_processor@DV?$string_output_adapter@D@__crt_stdio_output@@V?$standard_base@DV?$string_output_adapter@D@__crt_stdio_output@@@2@@0@AAE_NXZ@AAPAD@Z 10049b60 f i libucrtd:output.obj
 0001:00048b80       ??$read_va_arg@PAUansi_string@?1??type_case_Z@?$output_processor@_WV?$stream_output_adapter@_W@__crt_stdio_output@@V?$format_validation_base@_WV?$stream_output_adapter@_W@__crt_stdio_output@@@2@@__crt_stdio_output@@AAE_NXZ@@__crt_stdio_output@@YAPAUansi_string@?1??type_case_Z@?$output_processor@_WV?$stream_output_adapter@_W@__crt_stdio_output@@V?$format_validation_base@_WV?$stream_output_adapter@_W@__crt_stdio_output@@@2@@0@AAE_NXZ@AAPAD@Z 10049b80 f i libucrtd:output.obj
 0001:00048ba0       ??$read_va_arg@PAUansi_string@?1??type_case_Z@?$output_processor@_WV?$stream_output_adapter@_W@__crt_stdio_output@@V?$positional_parameter_base@_WV?$stream_output_adapter@_W@__crt_stdio_output@@@2@@__crt_stdio_output@@AAE_NXZ@@__crt_stdio_output@@YAPAUansi_string@?1??type_case_Z@?$output_processor@_WV?$stream_output_adapter@_W@__crt_stdio_output@@V?$positional_parameter_base@_WV?$stream_output_adapter@_W@__crt_stdio_output@@@2@@0@AAE_NXZ@AAPAD@Z 10049ba0 f i libucrtd:output.obj
 0001:00048bc0       ??$read_va_arg@PAUansi_string@?1??type_case_Z@?$output_processor@_WV?$stream_output_adapter@_W@__crt_stdio_output@@V?$standard_base@_WV?$stream_output_adapter@_W@__crt_stdio_output@@@2@@__crt_stdio_output@@AAE_NXZ@@__crt_stdio_output@@YAPAUansi_string@?1??type_case_Z@?$output_processor@_WV?$stream_output_adapter@_W@__crt_stdio_output@@V?$standard_base@_WV?$stream_output_adapter@_W@__crt_stdio_output@@@2@@0@AAE_NXZ@AAPAD@Z 10049bc0 f i libucrtd:output.obj
 0001:00048be0       ??$read_va_arg@PAUansi_string@?1??type_case_Z@?$output_processor@_WV?$string_output_adapter@_W@__crt_stdio_output@@V?$format_validation_base@_WV?$string_output_adapter@_W@__crt_stdio_output@@@2@@__crt_stdio_output@@AAE_NXZ@@__crt_stdio_output@@YAPAUansi_string@?1??type_case_Z@?$output_processor@_WV?$string_output_adapter@_W@__crt_stdio_output@@V?$format_validation_base@_WV?$string_output_adapter@_W@__crt_stdio_output@@@2@@0@AAE_NXZ@AAPAD@Z 10049be0 f i libucrtd:output.obj
 0001:00048c00       ??$read_va_arg@PAUansi_string@?1??type_case_Z@?$output_processor@_WV?$string_output_adapter@_W@__crt_stdio_output@@V?$positional_parameter_base@_WV?$string_output_adapter@_W@__crt_stdio_output@@@2@@__crt_stdio_output@@AAE_NXZ@@__crt_stdio_output@@YAPAUansi_string@?1??type_case_Z@?$output_processor@_WV?$string_output_adapter@_W@__crt_stdio_output@@V?$positional_parameter_base@_WV?$string_output_adapter@_W@__crt_stdio_output@@@2@@0@AAE_NXZ@AAPAD@Z 10049c00 f i libucrtd:output.obj
 0001:00048c20       ??$read_va_arg@PAUansi_string@?1??type_case_Z@?$output_processor@_WV?$string_output_adapter@_W@__crt_stdio_output@@V?$standard_base@_WV?$string_output_adapter@_W@__crt_stdio_output@@@2@@__crt_stdio_output@@AAE_NXZ@@__crt_stdio_output@@YAPAUansi_string@?1??type_case_Z@?$output_processor@_WV?$string_output_adapter@_W@__crt_stdio_output@@V?$standard_base@_WV?$string_output_adapter@_W@__crt_stdio_output@@@2@@0@AAE_NXZ@AAPAD@Z 10049c20 f i libucrtd:output.obj
 0001:00048c40       ??$read_va_arg@PAX@__crt_stdio_output@@YAPAXAAPAD@Z 10049c40 f i libucrtd:output.obj
 0001:00048c60       ??$read_va_arg@U_CRT_DOUBLE@@@__crt_stdio_output@@YA?AU_CRT_DOUBLE@@AAPAD@Z 10049c60 f i libucrtd:output.obj
 0001:00048c80       ??$read_va_arg@_J@__crt_stdio_output@@YA_JAAPAD@Z 10049c80 f i libucrtd:output.obj
 0001:00048ca0       ??$read_va_arg@_K@__crt_stdio_output@@YA_KAAPAD@Z 10049ca0 f i libucrtd:output.obj
 0001:00048cc0       ??$read_va_arg@_W@__crt_stdio_output@@YA_WAAPAD@Z 10049cc0 f i libucrtd:output.obj
 0001:00048ce0       ??$scratch_count@D@formatting_buffer@__crt_stdio_output@@QBEIXZ 10049ce0 f i libucrtd:output.obj
 0001:00048d00       ??$scratch_data@D@formatting_buffer@__crt_stdio_output@@QAEPADXZ 10049d00 f i libucrtd:output.obj
 0001:00048d50       ??$tcstol@AAPBDPAPADH@?$__crt_char_traits@D@@SAJAAPBD$$QAPAPAD$$QAH@Z 10049d50 f i libucrtd:output.obj
 0001:00048d80       ??$tcstol@AAPB_WPAPA_WH@?$__crt_char_traits@_W@@SAJAAPB_W$$QAPAPA_W$$QAH@Z 10049d80 f i libucrtd:output.obj
 0001:00048db0       ??$tcstol@PBDPAPADH@?$__crt_char_traits@D@@SAJ$$QAPBD$$QAPAPAD$$QAH@Z 10049db0 f i libucrtd:output.obj
 0001:00048de0       ??$tcstol@PB_WPAPA_WH@?$__crt_char_traits@_W@@SAJ$$QAPB_W$$QAPAPA_W$$QAH@Z 10049de0 f i libucrtd:output.obj
 0001:00048e10       ??$type_case_integer_parse_into_buffer@I@?$output_processor@DV?$stream_output_adapter@D@__crt_stdio_output@@V?$format_validation_base@DV?$stream_output_adapter@D@__crt_stdio_output@@@2@@__crt_stdio_output@@AAEXII_N@Z 10049e10 f i libucrtd:output.obj
 0001:00048ee0       ??$type_case_integer_parse_into_buffer@I@?$output_processor@DV?$stream_output_adapter@D@__crt_stdio_output@@V?$positional_parameter_base@DV?$stream_output_adapter@D@__crt_stdio_output@@@2@@__crt_stdio_output@@AAEXII_N@Z 10049ee0 f i libucrtd:output.obj
 0001:00048fb0       ??$type_case_integer_parse_into_buffer@I@?$output_processor@DV?$stream_output_adapter@D@__crt_stdio_output@@V?$standard_base@DV?$stream_output_adapter@D@__crt_stdio_output@@@2@@__crt_stdio_output@@AAEXII_N@Z 10049fb0 f i libucrtd:output.obj
 0001:00049080       ??$type_case_integer_parse_into_buffer@I@?$output_processor@DV?$string_output_adapter@D@__crt_stdio_output@@V?$format_validation_base@DV?$string_output_adapter@D@__crt_stdio_output@@@2@@__crt_stdio_output@@AAEXII_N@Z 1004a080 f i libucrtd:output.obj
 0001:00049150       ??$type_case_integer_parse_into_buffer@I@?$output_processor@DV?$string_output_adapter@D@__crt_stdio_output@@V?$positional_parameter_base@DV?$string_output_adapter@D@__crt_stdio_output@@@2@@__crt_stdio_output@@AAEXII_N@Z 1004a150 f i libucrtd:output.obj
 0001:00049220       ??$type_case_integer_parse_into_buffer@I@?$output_processor@DV?$string_output_adapter@D@__crt_stdio_output@@V?$standard_base@DV?$string_output_adapter@D@__crt_stdio_output@@@2@@__crt_stdio_output@@AAEXII_N@Z 1004a220 f i libucrtd:output.obj
 0001:000492f0       ??$type_case_integer_parse_into_buffer@I@?$output_processor@_WV?$stream_output_adapter@_W@__crt_stdio_output@@V?$format_validation_base@_WV?$stream_output_adapter@_W@__crt_stdio_output@@@2@@__crt_stdio_output@@AAEXII_N@Z 1004a2f0 f i libucrtd:output.obj
 0001:000493d0       ??$type_case_integer_parse_into_buffer@I@?$output_processor@_WV?$stream_output_adapter@_W@__crt_stdio_output@@V?$positional_parameter_base@_WV?$stream_output_adapter@_W@__crt_stdio_output@@@2@@__crt_stdio_output@@AAEXII_N@Z 1004a3d0 f i libucrtd:output.obj
 0001:000494b0       ??$type_case_integer_parse_into_buffer@I@?$output_processor@_WV?$stream_output_adapter@_W@__crt_stdio_output@@V?$standard_base@_WV?$stream_output_adapter@_W@__crt_stdio_output@@@2@@__crt_stdio_output@@AAEXII_N@Z 1004a4b0 f i libucrtd:output.obj
 0001:00049590       ??$type_case_integer_parse_into_buffer@I@?$output_processor@_WV?$string_output_adapter@_W@__crt_stdio_output@@V?$format_validation_base@_WV?$string_output_adapter@_W@__crt_stdio_output@@@2@@__crt_stdio_output@@AAEXII_N@Z 1004a590 f i libucrtd:output.obj
 0001:00049670       ??$type_case_integer_parse_into_buffer@I@?$output_processor@_WV?$string_output_adapter@_W@__crt_stdio_output@@V?$positional_parameter_base@_WV?$string_output_adapter@_W@__crt_stdio_output@@@2@@__crt_stdio_output@@AAEXII_N@Z 1004a670 f i libucrtd:output.obj
 0001:00049750       ??$type_case_integer_parse_into_buffer@I@?$output_processor@_WV?$string_output_adapter@_W@__crt_stdio_output@@V?$standard_base@_WV?$string_output_adapter@_W@__crt_stdio_output@@@2@@__crt_stdio_output@@AAEXII_N@Z 1004a750 f i libucrtd:output.obj
 0001:00049830       ??$type_case_integer_parse_into_buffer@_K@?$output_processor@DV?$stream_output_adapter@D@__crt_stdio_output@@V?$format_validation_base@DV?$stream_output_adapter@D@__crt_stdio_output@@@2@@__crt_stdio_output@@AAEX_KI_N@Z 1004a830 f i libucrtd:output.obj
 0001:00049920       ??$type_case_integer_parse_into_buffer@_K@?$output_processor@DV?$stream_output_adapter@D@__crt_stdio_output@@V?$positional_parameter_base@DV?$stream_output_adapter@D@__crt_stdio_output@@@2@@__crt_stdio_output@@AAEX_KI_N@Z 1004a920 f i libucrtd:output.obj
 0001:00049a10       ??$type_case_integer_parse_into_buffer@_K@?$output_processor@DV?$stream_output_adapter@D@__crt_stdio_output@@V?$standard_base@DV?$stream_output_adapter@D@__crt_stdio_output@@@2@@__crt_stdio_output@@AAEX_KI_N@Z 1004aa10 f i libucrtd:output.obj
 0001:00049b00       ??$type_case_integer_parse_into_buffer@_K@?$output_processor@DV?$string_output_adapter@D@__crt_stdio_output@@V?$format_validation_base@DV?$string_output_adapter@D@__crt_stdio_output@@@2@@__crt_stdio_output@@AAEX_KI_N@Z 1004ab00 f i libucrtd:output.obj
 0001:00049bf0       ??$type_case_integer_parse_into_buffer@_K@?$output_processor@DV?$string_output_adapter@D@__crt_stdio_output@@V?$positional_parameter_base@DV?$string_output_adapter@D@__crt_stdio_output@@@2@@__crt_stdio_output@@AAEX_KI_N@Z 1004abf0 f i libucrtd:output.obj
 0001:00049ce0       ??$type_case_integer_parse_into_buffer@_K@?$output_processor@DV?$string_output_adapter@D@__crt_stdio_output@@V?$standard_base@DV?$string_output_adapter@D@__crt_stdio_output@@@2@@__crt_stdio_output@@AAEX_KI_N@Z 1004ace0 f i libucrtd:output.obj
 0001:00049dd0       ??$type_case_integer_parse_into_buffer@_K@?$output_processor@_WV?$stream_output_adapter@_W@__crt_stdio_output@@V?$format_validation_base@_WV?$stream_output_adapter@_W@__crt_stdio_output@@@2@@__crt_stdio_output@@AAEX_KI_N@Z 1004add0 f i libucrtd:output.obj
 0001:00049ed0       ??$type_case_integer_parse_into_buffer@_K@?$output_processor@_WV?$stream_output_adapter@_W@__crt_stdio_output@@V?$positional_parameter_base@_WV?$stream_output_adapter@_W@__crt_stdio_output@@@2@@__crt_stdio_output@@AAEX_KI_N@Z 1004aed0 f i libucrtd:output.obj
 0001:00049fd0       ??$type_case_integer_parse_into_buffer@_K@?$output_processor@_WV?$stream_output_adapter@_W@__crt_stdio_output@@V?$standard_base@_WV?$stream_output_adapter@_W@__crt_stdio_output@@@2@@__crt_stdio_output@@AAEX_KI_N@Z 1004afd0 f i libucrtd:output.obj
 0001:0004a0d0       ??$type_case_integer_parse_into_buffer@_K@?$output_processor@_WV?$string_output_adapter@_W@__crt_stdio_output@@V?$format_validation_base@_WV?$string_output_adapter@_W@__crt_stdio_output@@@2@@__crt_stdio_output@@AAEX_KI_N@Z 1004b0d0 f i libucrtd:output.obj
 0001:0004a1d0       ??$type_case_integer_parse_into_buffer@_K@?$output_processor@_WV?$string_output_adapter@_W@__crt_stdio_output@@V?$positional_parameter_base@_WV?$string_output_adapter@_W@__crt_stdio_output@@@2@@__crt_stdio_output@@AAEX_KI_N@Z 1004b1d0 f i libucrtd:output.obj
 0001:0004a2d0       ??$type_case_integer_parse_into_buffer@_K@?$output_processor@_WV?$string_output_adapter@_W@__crt_stdio_output@@V?$standard_base@_WV?$string_output_adapter@_W@__crt_stdio_output@@@2@@__crt_stdio_output@@AAEX_KI_N@Z 1004b2d0 f i libucrtd:output.obj
 0001:0004a3d0       ??$write_multiple_characters@V?$stream_output_adapter@D@__crt_stdio_output@@D@__crt_stdio_output@@YAXABV?$stream_output_adapter@D@0@DHQAH@Z 1004b3d0 f i libucrtd:output.obj
 0001:0004a420       ??$write_multiple_characters@V?$stream_output_adapter@_W@__crt_stdio_output@@D@__crt_stdio_output@@YAXABV?$stream_output_adapter@_W@0@DHQAH@Z 1004b420 f i libucrtd:output.obj
 0001:0004a470       ??$write_multiple_characters@V?$string_output_adapter@D@__crt_stdio_output@@D@__crt_stdio_output@@YAXABV?$string_output_adapter@D@0@DHQAH@Z 1004b470 f i libucrtd:output.obj
 0001:0004a4c0       ??$write_multiple_characters@V?$string_output_adapter@_W@__crt_stdio_output@@D@__crt_stdio_output@@YAXABV?$string_output_adapter@_W@0@DHQAH@Z 1004b4c0 f i libucrtd:output.obj
 0001:0004a810       ??0?$common_data@D@__crt_stdio_output@@IAE@XZ 1004b810 f i libucrtd:output.obj
 0001:0004a8c0       ??0?$common_data@_W@__crt_stdio_output@@IAE@XZ 1004b8c0 f i libucrtd:output.obj
 0001:0004a970       ??0?$output_adapter_data@DV?$stream_output_adapter@D@__crt_stdio_output@@@__crt_stdio_output@@IAE@ABV?$stream_output_adapter@D@1@_KQBDQAU__crt_locale_pointers@@QAD@Z 1004b970 f i libucrtd:output.obj
 0001:0004a9d0       ??0?$output_adapter_data@DV?$string_output_adapter@D@__crt_stdio_output@@@__crt_stdio_output@@IAE@ABV?$string_output_adapter@D@1@_KQBDQAU__crt_locale_pointers@@QAD@Z 1004b9d0 f i libucrtd:output.obj
 0001:0004aa30       ??0?$output_adapter_data@_WV?$stream_output_adapter@_W@__crt_stdio_output@@@__crt_stdio_output@@IAE@ABV?$stream_output_adapter@_W@1@_KQB_WQAU__crt_locale_pointers@@QAD@Z 1004ba30 f i libucrtd:output.obj
 0001:0004aa90       ??0?$output_adapter_data@_WV?$string_output_adapter@_W@__crt_stdio_output@@@__crt_stdio_output@@IAE@ABV?$string_output_adapter@_W@1@_KQB_WQAU__crt_locale_pointers@@QAD@Z 1004ba90 f i libucrtd:output.obj
 0001:0004aaf0       ??0?$output_processor@DV?$stream_output_adapter@D@__crt_stdio_output@@V?$format_validation_base@DV?$stream_output_adapter@D@__crt_stdio_output@@@2@@__crt_stdio_output@@QAE@ABV?$stream_output_adapter@D@1@_KQBDQAU__crt_locale_pointers@@QAD@Z 1004baf0 f i libucrtd:output.obj
 0001:0004ab20       ??0?$output_processor@DV?$stream_output_adapter@D@__crt_stdio_output@@V?$positional_parameter_base@DV?$stream_output_adapter@D@__crt_stdio_output@@@2@@__crt_stdio_output@@QAE@ABV?$stream_output_adapter@D@1@_KQBDQAU__crt_locale_pointers@@QAD@Z 1004bb20 f i libucrtd:output.obj
 0001:0004ab50       ??0?$output_processor@DV?$stream_output_adapter@D@__crt_stdio_output@@V?$standard_base@DV?$stream_output_adapter@D@__crt_stdio_output@@@2@@__crt_stdio_output@@QAE@ABV?$stream_output_adapter@D@1@_KQBDQAU__crt_locale_pointers@@QAD@Z 1004bb50 f i libucrtd:output.obj
 0001:0004ab80       ??0?$output_processor@DV?$string_output_adapter@D@__crt_stdio_output@@V?$format_validation_base@DV?$string_output_adapter@D@__crt_stdio_output@@@2@@__crt_stdio_output@@QAE@ABV?$string_output_adapter@D@1@_KQBDQAU__crt_locale_pointers@@QAD@Z 1004bb80 f i libucrtd:output.obj
 0001:0004abb0       ??0?$output_processor@DV?$string_output_adapter@D@__crt_stdio_output@@V?$positional_parameter_base@DV?$string_output_adapter@D@__crt_stdio_output@@@2@@__crt_stdio_output@@QAE@ABV?$string_output_adapter@D@1@_KQBDQAU__crt_locale_pointers@@QAD@Z 1004bbb0 f i libucrtd:output.obj
 0001:0004abe0       ??0?$output_processor@DV?$string_output_adapter@D@__crt_stdio_output@@V?$standard_base@DV?$string_output_adapter@D@__crt_stdio_output@@@2@@__crt_stdio_output@@QAE@ABV?$string_output_adapter@D@1@_KQBDQAU__crt_locale_pointers@@QAD@Z 1004bbe0 f i libucrtd:output.obj
 0001:0004ac10       ??0?$output_processor@_WV?$stream_output_adapter@_W@__crt_stdio_output@@V?$format_validation_base@_WV?$stream_output_adapter@_W@__crt_stdio_output@@@2@@__crt_stdio_output@@QAE@ABV?$stream_output_adapter@_W@1@_KQB_WQAU__crt_locale_pointers@@QAD@Z 1004bc10 f i libucrtd:output.obj
 0001:0004ac40       ??0?$output_processor@_WV?$stream_output_adapter@_W@__crt_stdio_output@@V?$positional_parameter_base@_WV?$stream_output_adapter@_W@__crt_stdio_output@@@2@@__crt_stdio_output@@QAE@ABV?$stream_output_adapter@_W@1@_KQB_WQAU__crt_locale_pointers@@QAD@Z 1004bc40 f i libucrtd:output.obj
 0001:0004ac70       ??0?$output_processor@_WV?$stream_output_adapter@_W@__crt_stdio_output@@V?$standard_base@_WV?$stream_output_adapter@_W@__crt_stdio_output@@@2@@__crt_stdio_output@@QAE@ABV?$stream_output_adapter@_W@1@_KQB_WQAU__crt_locale_pointers@@QAD@Z 1004bc70 f i libucrtd:output.obj
 0001:0004aca0       ??0?$output_processor@_WV?$string_output_adapter@_W@__crt_stdio_output@@V?$format_validation_base@_WV?$string_output_adapter@_W@__crt_stdio_output@@@2@@__crt_stdio_output@@QAE@ABV?$string_output_adapter@_W@1@_KQB_WQAU__crt_locale_pointers@@QAD@Z 1004bca0 f i libucrtd:output.obj
 0001:0004acd0       ??0?$output_processor@_WV?$string_output_adapter@_W@__crt_stdio_output@@V?$positional_parameter_base@_WV?$string_output_adapter@_W@__crt_stdio_output@@@2@@__crt_stdio_output@@QAE@ABV?$string_output_adapter@_W@1@_KQB_WQAU__crt_locale_pointers@@QAD@Z 1004bcd0 f i libucrtd:output.obj
 0001:0004ad00       ??0?$output_processor@_WV?$string_output_adapter@_W@__crt_stdio_output@@V?$standard_base@_WV?$string_output_adapter@_W@__crt_stdio_output@@@2@@__crt_stdio_output@@QAE@ABV?$string_output_adapter@_W@1@_KQB_WQAU__crt_locale_pointers@@QAD@Z 1004bd00 f i libucrtd:output.obj
 0001:0004ad30       ??0?$stream_output_adapter@D@__crt_stdio_output@@QAE@QAU_iobuf@@@Z 1004bd30 f i libucrtd:output.obj
 0001:0004ad50       ??0?$stream_output_adapter@_W@__crt_stdio_output@@QAE@QAU_iobuf@@@Z 1004bd50 f i libucrtd:output.obj
 0001:0004ad70       ??0?$string_output_adapter@D@__crt_stdio_output@@QAE@QAU?$string_output_adapter_context@D@1@@Z 1004bd70 f i libucrtd:output.obj
 0001:0004ad90       ??0?$string_output_adapter@_W@__crt_stdio_output@@QAE@QAU?$string_output_adapter_context@_W@1@@Z 1004bd90 f i libucrtd:output.obj
 0001:0004adb0       ??0_LocaleUpdate@@QAE@QAU__crt_locale_pointers@@@Z 1004bdb0 f i libucrtd:output.obj
 0001:0004ae80       ??0__acrt_stdio_temporary_buffering_guard@@QAE@QAU_iobuf@@@Z 1004be80 f i libucrtd:output.obj
 0001:0004aeb0       ??0__crt_deferred_errno_cache@@QAE@XZ 1004beb0 f i libucrtd:output.obj
 0001:0004aed0       ??0__crt_errno_guard@@QAE@QAH@Z 1004bed0 f i libucrtd:output.obj
 0001:0004af00       ??0__crt_stdio_stream@@QAE@QAU_iobuf@@@Z 1004bf00 f i libucrtd:output.obj
 0001:0004af20       ??0formatting_buffer@__crt_stdio_output@@QAE@XZ 1004bf20 f i libucrtd:output.obj
 0001:0004af50       ??1?$common_data@D@__crt_stdio_output@@QAE@XZ 1004bf50 f i libucrtd:output.obj
 0001:0004af70       ??1?$common_data@_W@__crt_stdio_output@@QAE@XZ 1004bf70 f i libucrtd:output.obj
 0001:0004af90       ??1?$format_validation_base@DV?$stream_output_adapter@D@__crt_stdio_output@@@__crt_stdio_output@@QAE@XZ 1004bf90 f i libucrtd:output.obj
 0001:0004afb0       ??1?$format_validation_base@DV?$string_output_adapter@D@__crt_stdio_output@@@__crt_stdio_output@@QAE@XZ 1004bfb0 f i libucrtd:output.obj
 0001:0004afd0       ??1?$format_validation_base@_WV?$stream_output_adapter@_W@__crt_stdio_output@@@__crt_stdio_output@@QAE@XZ 1004bfd0 f i libucrtd:output.obj
 0001:0004aff0       ??1?$format_validation_base@_WV?$string_output_adapter@_W@__crt_stdio_output@@@__crt_stdio_output@@QAE@XZ 1004bff0 f i libucrtd:output.obj
 0001:0004b010       ??1?$output_adapter_data@DV?$stream_output_adapter@D@__crt_stdio_output@@@__crt_stdio_output@@QAE@XZ 1004c010 f i libucrtd:output.obj
 0001:0004b030       ??1?$output_adapter_data@DV?$string_output_adapter@D@__crt_stdio_output@@@__crt_stdio_output@@QAE@XZ 1004c030 f i libucrtd:output.obj
 0001:0004b050       ??1?$output_adapter_data@_WV?$stream_output_adapter@_W@__crt_stdio_output@@@__crt_stdio_output@@QAE@XZ 1004c050 f i libucrtd:output.obj
 0001:0004b070       ??1?$output_adapter_data@_WV?$string_output_adapter@_W@__crt_stdio_output@@@__crt_stdio_output@@QAE@XZ 1004c070 f i libucrtd:output.obj
 0001:0004b090       ??1?$output_processor@DV?$stream_output_adapter@D@__crt_stdio_output@@V?$format_validation_base@DV?$stream_output_adapter@D@__crt_stdio_output@@@2@@__crt_stdio_output@@QAE@XZ 1004c090 f i libucrtd:output.obj
 0001:0004b0b0       ??1?$output_processor@DV?$stream_output_adapter@D@__crt_stdio_output@@V?$positional_parameter_base@DV?$stream_output_adapter@D@__crt_stdio_output@@@2@@__crt_stdio_output@@QAE@XZ 1004c0b0 f i libucrtd:output.obj
 0001:0004b0d0       ??1?$output_processor@DV?$stream_output_adapter@D@__crt_stdio_output@@V?$standard_base@DV?$stream_output_adapter@D@__crt_stdio_output@@@2@@__crt_stdio_output@@QAE@XZ 1004c0d0 f i libucrtd:output.obj
 0001:0004b0f0       ??1?$output_processor@DV?$string_output_adapter@D@__crt_stdio_output@@V?$format_validation_base@DV?$string_output_adapter@D@__crt_stdio_output@@@2@@__crt_stdio_output@@QAE@XZ 1004c0f0 f i libucrtd:output.obj
 0001:0004b110       ??1?$output_processor@DV?$string_output_adapter@D@__crt_stdio_output@@V?$positional_parameter_base@DV?$string_output_adapter@D@__crt_stdio_output@@@2@@__crt_stdio_output@@QAE@XZ 1004c110 f i libucrtd:output.obj
 0001:0004b130       ??1?$output_processor@DV?$string_output_adapter@D@__crt_stdio_output@@V?$standard_base@DV?$string_output_adapter@D@__crt_stdio_output@@@2@@__crt_stdio_output@@QAE@XZ 1004c130 f i libucrtd:output.obj
 0001:0004b150       ??1?$output_processor@_WV?$stream_output_adapter@_W@__crt_stdio_output@@V?$format_validation_base@_WV?$stream_output_adapter@_W@__crt_stdio_output@@@2@@__crt_stdio_output@@QAE@XZ 1004c150 f i libucrtd:output.obj
 0001:0004b170       ??1?$output_processor@_WV?$stream_output_adapter@_W@__crt_stdio_output@@V?$positional_parameter_base@_WV?$stream_output_adapter@_W@__crt_stdio_output@@@2@@__crt_stdio_output@@QAE@XZ 1004c170 f i libucrtd:output.obj
 0001:0004b190       ??1?$output_processor@_WV?$stream_output_adapter@_W@__crt_stdio_output@@V?$standard_base@_WV?$stream_output_adapter@_W@__crt_stdio_output@@@2@@__crt_stdio_output@@QAE@XZ 1004c190 f i libucrtd:output.obj
 0001:0004b1b0       ??1?$output_processor@_WV?$string_output_adapter@_W@__crt_stdio_output@@V?$format_validation_base@_WV?$string_output_adapter@_W@__crt_stdio_output@@@2@@__crt_stdio_output@@QAE@XZ 1004c1b0 f i libucrtd:output.obj
 0001:0004b1d0       ??1?$output_processor@_WV?$string_output_adapter@_W@__crt_stdio_output@@V?$positional_parameter_base@_WV?$string_output_adapter@_W@__crt_stdio_output@@@2@@__crt_stdio_output@@QAE@XZ 1004c1d0 f i libucrtd:output.obj
 0001:0004b1f0       ??1?$output_processor@_WV?$string_output_adapter@_W@__crt_stdio_output@@V?$standard_base@_WV?$string_output_adapter@_W@__crt_stdio_output@@@2@@__crt_stdio_output@@QAE@XZ 1004c1f0 f i libucrtd:output.obj
 0001:0004b210       ??1?$positional_parameter_base@DV?$stream_output_adapter@D@__crt_stdio_output@@@__crt_stdio_output@@QAE@XZ 1004c210 f i libucrtd:output.obj
 0001:0004b230       ??1?$positional_parameter_base@DV?$string_output_adapter@D@__crt_stdio_output@@@__crt_stdio_output@@QAE@XZ 1004c230 f i libucrtd:output.obj
 0001:0004b250       ??1?$positional_parameter_base@_WV?$stream_output_adapter@_W@__crt_stdio_output@@@__crt_stdio_output@@QAE@XZ 1004c250 f i libucrtd:output.obj
 0001:0004b270       ??1?$positional_parameter_base@_WV?$string_output_adapter@_W@__crt_stdio_output@@@__crt_stdio_output@@QAE@XZ 1004c270 f i libucrtd:output.obj
 0001:0004b290       ??1?$standard_base@DV?$stream_output_adapter@D@__crt_stdio_output@@@__crt_stdio_output@@QAE@XZ 1004c290 f i libucrtd:output.obj
 0001:0004b2b0       ??1?$standard_base@DV?$string_output_adapter@D@__crt_stdio_output@@@__crt_stdio_output@@QAE@XZ 1004c2b0 f i libucrtd:output.obj
 0001:0004b2d0       ??1?$standard_base@_WV?$stream_output_adapter@_W@__crt_stdio_output@@@__crt_stdio_output@@QAE@XZ 1004c2d0 f i libucrtd:output.obj
 0001:0004b2f0       ??1?$standard_base@_WV?$string_output_adapter@_W@__crt_stdio_output@@@__crt_stdio_output@@QAE@XZ 1004c2f0 f i libucrtd:output.obj
 0001:0004b310       ??1_LocaleUpdate@@QAE@XZ   1004c310 f i libucrtd:output.obj
 0001:0004b340       ??1__acrt_stdio_temporary_buffering_guard@@QAE@XZ 1004c340 f i libucrtd:output.obj
 0001:0004b370       ??1__crt_errno_guard@@QAE@XZ 1004c370 f i libucrtd:output.obj
 0001:0004b3a0       ??1formatting_buffer@__crt_stdio_output@@QAE@XZ 1004c3a0 f i libucrtd:output.obj
 0001:0004b3c0       ??4?$__crt_unique_heap_ptr@DU__crt_internal_free_policy@@@@QAEAAV0@$$QAV0@@Z 1004c3c0 f i libucrtd:output.obj
 0001:0004b3f0       ??A?$spectre_mitigated_lookup_table@Ustate_transition_pair@__crt_stdio_output@@$0IA@@__crt_stdio_output@@QBEABUstate_transition_pair@1@I@Z 1004c3f0 f i libucrtd:output.obj
 0001:0004b410       ??C__crt_stdio_stream@@QBEPAU__crt_stdio_stream_data@@XZ 1004c410 f i libucrtd:output.obj
 0001:0004bb50       ?GetLocaleT@_LocaleUpdate@@QAEPAU__crt_locale_pointers@@XZ 1004cb50 f i libucrtd:output.obj
 0001:0004bb70       ?adjust_hexit@?$output_processor@DV?$stream_output_adapter@D@__crt_stdio_output@@V?$format_validation_base@DV?$stream_output_adapter@D@__crt_stdio_output@@@2@@__crt_stdio_output@@CADH_N@Z 1004cb70 f i libucrtd:output.obj
 0001:0004bbb0       ?adjust_hexit@?$output_processor@DV?$stream_output_adapter@D@__crt_stdio_output@@V?$positional_parameter_base@DV?$stream_output_adapter@D@__crt_stdio_output@@@2@@__crt_stdio_output@@CADH_N@Z 1004cbb0 f i libucrtd:output.obj
 0001:0004bbf0       ?adjust_hexit@?$output_processor@DV?$stream_output_adapter@D@__crt_stdio_output@@V?$standard_base@DV?$stream_output_adapter@D@__crt_stdio_output@@@2@@__crt_stdio_output@@CADH_N@Z 1004cbf0 f i libucrtd:output.obj
 0001:0004bc30       ?adjust_hexit@?$output_processor@DV?$string_output_adapter@D@__crt_stdio_output@@V?$format_validation_base@DV?$string_output_adapter@D@__crt_stdio_output@@@2@@__crt_stdio_output@@CADH_N@Z 1004cc30 f i libucrtd:output.obj
 0001:0004bc70       ?adjust_hexit@?$output_processor@DV?$string_output_adapter@D@__crt_stdio_output@@V?$positional_parameter_base@DV?$string_output_adapter@D@__crt_stdio_output@@@2@@__crt_stdio_output@@CADH_N@Z 1004cc70 f i libucrtd:output.obj
 0001:0004bcb0       ?adjust_hexit@?$output_processor@DV?$string_output_adapter@D@__crt_stdio_output@@V?$standard_base@DV?$string_output_adapter@D@__crt_stdio_output@@@2@@__crt_stdio_output@@CADH_N@Z 1004ccb0 f i libucrtd:output.obj
 0001:0004bcf0       ?adjust_hexit@?$output_processor@_WV?$stream_output_adapter@_W@__crt_stdio_output@@V?$format_validation_base@_WV?$stream_output_adapter@_W@__crt_stdio_output@@@2@@__crt_stdio_output@@CADH_N@Z 1004ccf0 f i libucrtd:output.obj
 0001:0004bd30       ?adjust_hexit@?$output_processor@_WV?$stream_output_adapter@_W@__crt_stdio_output@@V?$positional_parameter_base@_WV?$stream_output_adapter@_W@__crt_stdio_output@@@2@@__crt_stdio_output@@CADH_N@Z 1004cd30 f i libucrtd:output.obj
 0001:0004bd70       ?adjust_hexit@?$output_processor@_WV?$stream_output_adapter@_W@__crt_stdio_output@@V?$standard_base@_WV?$stream_output_adapter@_W@__crt_stdio_output@@@2@@__crt_stdio_output@@CADH_N@Z 1004cd70 f i libucrtd:output.obj
 0001:0004bdb0       ?adjust_hexit@?$output_processor@_WV?$string_output_adapter@_W@__crt_stdio_output@@V?$format_validation_base@_WV?$string_output_adapter@_W@__crt_stdio_output@@@2@@__crt_stdio_output@@CADH_N@Z 1004cdb0 f i libucrtd:output.obj
 0001:0004bdf0       ?adjust_hexit@?$output_processor@_WV?$string_output_adapter@_W@__crt_stdio_output@@V?$positional_parameter_base@_WV?$string_output_adapter@_W@__crt_stdio_output@@@2@@__crt_stdio_output@@CADH_N@Z 1004cdf0 f i libucrtd:output.obj
 0001:0004be30       ?adjust_hexit@?$output_processor@_WV?$string_output_adapter@_W@__crt_stdio_output@@V?$standard_base@_WV?$string_output_adapter@_W@__crt_stdio_output@@@2@@__crt_stdio_output@@CADH_N@Z 1004ce30 f i libucrtd:output.obj
 0001:0004be70       ?advance_to_next_pass@?$positional_parameter_base@DV?$stream_output_adapter@D@__crt_stdio_output@@@__crt_stdio_output@@IAE_NXZ 1004ce70 f i libucrtd:output.obj
 0001:0004bf10       ?advance_to_next_pass@?$positional_parameter_base@DV?$string_output_adapter@D@__crt_stdio_output@@@__crt_stdio_output@@IAE_NXZ 1004cf10 f i libucrtd:output.obj
 0001:0004bfb0       ?advance_to_next_pass@?$positional_parameter_base@_WV?$stream_output_adapter@_W@__crt_stdio_output@@@__crt_stdio_output@@IAE_NXZ 1004cfb0 f i libucrtd:output.obj
 0001:0004c050       ?advance_to_next_pass@?$positional_parameter_base@_WV?$string_output_adapter@_W@__crt_stdio_output@@@__crt_stdio_output@@IAE_NXZ 1004d050 f i libucrtd:output.obj
 0001:0004c0f0       ?advance_to_next_pass@?$standard_base@DV?$stream_output_adapter@D@__crt_stdio_output@@@__crt_stdio_output@@IAE_NXZ 1004d0f0 f i libucrtd:output.obj
 0001:0004c140       ?advance_to_next_pass@?$standard_base@DV?$string_output_adapter@D@__crt_stdio_output@@@__crt_stdio_output@@IAE_NXZ 1004d140 f i libucrtd:output.obj
 0001:0004c190       ?advance_to_next_pass@?$standard_base@_WV?$stream_output_adapter@_W@__crt_stdio_output@@@__crt_stdio_output@@IAE_NXZ 1004d190 f i libucrtd:output.obj
 0001:0004c1e0       ?advance_to_next_pass@?$standard_base@_WV?$string_output_adapter@_W@__crt_stdio_output@@@__crt_stdio_output@@IAE_NXZ 1004d1e0 f i libucrtd:output.obj
 0001:0004c230       ?crop_zeroes@__crt_stdio_output@@YAXPADQAU__crt_locale_pointers@@@Z 1004d230 f i libucrtd:output.obj
 0001:0004c330       ?find_next_state@?$output_processor@DV?$stream_output_adapter@D@__crt_stdio_output@@V?$format_validation_base@DV?$stream_output_adapter@D@__crt_stdio_output@@@2@@__crt_stdio_output@@ABE?AW4state@2@DW432@@Z 1004d330 f i libucrtd:output.obj
 0001:0004c3a0       ?find_next_state@?$output_processor@DV?$stream_output_adapter@D@__crt_stdio_output@@V?$positional_parameter_base@DV?$stream_output_adapter@D@__crt_stdio_output@@@2@@__crt_stdio_output@@ABE?AW4state@2@DW432@@Z 1004d3a0 f i libucrtd:output.obj
 0001:0004c410       ?find_next_state@?$output_processor@DV?$stream_output_adapter@D@__crt_stdio_output@@V?$standard_base@DV?$stream_output_adapter@D@__crt_stdio_output@@@2@@__crt_stdio_output@@ABE?AW4state@2@DW432@@Z 1004d410 f i libucrtd:output.obj
 0001:0004c480       ?find_next_state@?$output_processor@DV?$string_output_adapter@D@__crt_stdio_output@@V?$format_validation_base@DV?$string_output_adapter@D@__crt_stdio_output@@@2@@__crt_stdio_output@@ABE?AW4state@2@DW432@@Z 1004d480 f i libucrtd:output.obj
 0001:0004c4f0       ?find_next_state@?$output_processor@DV?$string_output_adapter@D@__crt_stdio_output@@V?$positional_parameter_base@DV?$string_output_adapter@D@__crt_stdio_output@@@2@@__crt_stdio_output@@ABE?AW4state@2@DW432@@Z 1004d4f0 f i libucrtd:output.obj
 0001:0004c560       ?find_next_state@?$output_processor@DV?$string_output_adapter@D@__crt_stdio_output@@V?$standard_base@DV?$string_output_adapter@D@__crt_stdio_output@@@2@@__crt_stdio_output@@ABE?AW4state@2@DW432@@Z 1004d560 f i libucrtd:output.obj
 0001:0004c5d0       ?find_next_state@?$output_processor@_WV?$stream_output_adapter@_W@__crt_stdio_output@@V?$format_validation_base@_WV?$stream_output_adapter@_W@__crt_stdio_output@@@2@@__crt_stdio_output@@ABE?AW4state@2@_WW432@@Z 1004d5d0 f i libucrtd:output.obj
 0001:0004c640       ?find_next_state@?$output_processor@_WV?$stream_output_adapter@_W@__crt_stdio_output@@V?$positional_parameter_base@_WV?$stream_output_adapter@_W@__crt_stdio_output@@@2@@__crt_stdio_output@@ABE?AW4state@2@_WW432@@Z 1004d640 f i libucrtd:output.obj
 0001:0004c6b0       ?find_next_state@?$output_processor@_WV?$stream_output_adapter@_W@__crt_stdio_output@@V?$standard_base@_WV?$stream_output_adapter@_W@__crt_stdio_output@@@2@@__crt_stdio_output@@ABE?AW4state@2@_WW432@@Z 1004d6b0 f i libucrtd:output.obj
 0001:0004c720       ?find_next_state@?$output_processor@_WV?$string_output_adapter@_W@__crt_stdio_output@@V?$format_validation_base@_WV?$string_output_adapter@_W@__crt_stdio_output@@@2@@__crt_stdio_output@@ABE?AW4state@2@_WW432@@Z 1004d720 f i libucrtd:output.obj
 0001:0004c790       ?find_next_state@?$output_processor@_WV?$string_output_adapter@_W@__crt_stdio_output@@V?$positional_parameter_base@_WV?$string_output_adapter@_W@__crt_stdio_output@@@2@@__crt_stdio_output@@ABE?AW4state@2@_WW432@@Z 1004d790 f i libucrtd:output.obj
 0001:0004c800       ?find_next_state@?$output_processor@_WV?$string_output_adapter@_W@__crt_stdio_output@@V?$standard_base@_WV?$string_output_adapter@_W@__crt_stdio_output@@@2@@__crt_stdio_output@@ABE?AW4state@2@_WW432@@Z 1004d800 f i libucrtd:output.obj
 0001:0004c870       ?force_decimal_point@__crt_stdio_output@@YAXPADQAU__crt_locale_pointers@@@Z 1004d870 f i libucrtd:output.obj
 0001:0004c940       ?get@__crt_deferred_errno_cache@@QAEAAHXZ 1004d940 f i libucrtd:output.obj
 0001:0004c970       ?get_flags@__crt_stdio_stream@@QBEJXZ 1004d970 f i libucrtd:output.obj
 0001:0004c990       ?get_parameter_type@?$positional_parameter_base@DV?$stream_output_adapter@D@__crt_stdio_output@@@__crt_stdio_output@@CA?AW4parameter_type@12@F@Z 1004d990 f i libucrtd:output.obj
 0001:0004c9a0       ?get_parameter_type@?$positional_parameter_base@DV?$stream_output_adapter@D@__crt_stdio_output@@@__crt_stdio_output@@CA?AW4parameter_type@12@G@Z 1004d9a0 f i libucrtd:output.obj
 0001:0004c9b0       ?get_parameter_type@?$positional_parameter_base@DV?$stream_output_adapter@D@__crt_stdio_output@@@__crt_stdio_output@@CA?AW4parameter_type@12@H@Z 1004d9b0 f i libucrtd:output.obj
 0001:0004c9c0       ?get_parameter_type@?$positional_parameter_base@DV?$stream_output_adapter@D@__crt_stdio_output@@@__crt_stdio_output@@CA?AW4parameter_type@12@I@Z 1004d9c0 f i libucrtd:output.obj
 0001:0004c9d0       ?get_parameter_type@?$positional_parameter_base@DV?$stream_output_adapter@D@__crt_stdio_output@@@__crt_stdio_output@@CA?AW4parameter_type@12@U_CRT_DOUBLE@@@Z 1004d9d0 f i libucrtd:output.obj
 0001:0004c9e0       ?get_parameter_type@?$positional_parameter_base@DV?$stream_output_adapter@D@__crt_stdio_output@@@__crt_stdio_output@@CA?AW4parameter_type@12@_J@Z 1004d9e0 f i libucrtd:output.obj
 0001:0004c9f0       ?get_parameter_type@?$positional_parameter_base@DV?$stream_output_adapter@D@__crt_stdio_output@@@__crt_stdio_output@@CA?AW4parameter_type@12@_K@Z 1004d9f0 f i libucrtd:output.obj
 0001:0004ca00       ?get_parameter_type@?$positional_parameter_base@DV?$stream_output_adapter@D@__crt_stdio_output@@@__crt_stdio_output@@CA?AW4parameter_type@12@_W@Z 1004da00 f i libucrtd:output.obj
 0001:0004ca10       ?get_parameter_type@?$positional_parameter_base@DV?$string_output_adapter@D@__crt_stdio_output@@@__crt_stdio_output@@CA?AW4parameter_type@12@F@Z 1004da10 f i libucrtd:output.obj
 0001:0004ca20       ?get_parameter_type@?$positional_parameter_base@DV?$string_output_adapter@D@__crt_stdio_output@@@__crt_stdio_output@@CA?AW4parameter_type@12@G@Z 1004da20 f i libucrtd:output.obj
 0001:0004ca30       ?get_parameter_type@?$positional_parameter_base@DV?$string_output_adapter@D@__crt_stdio_output@@@__crt_stdio_output@@CA?AW4parameter_type@12@H@Z 1004da30 f i libucrtd:output.obj
 0001:0004ca40       ?get_parameter_type@?$positional_parameter_base@DV?$string_output_adapter@D@__crt_stdio_output@@@__crt_stdio_output@@CA?AW4parameter_type@12@I@Z 1004da40 f i libucrtd:output.obj
 0001:0004ca50       ?get_parameter_type@?$positional_parameter_base@DV?$string_output_adapter@D@__crt_stdio_output@@@__crt_stdio_output@@CA?AW4parameter_type@12@U_CRT_DOUBLE@@@Z 1004da50 f i libucrtd:output.obj
 0001:0004ca60       ?get_parameter_type@?$positional_parameter_base@DV?$string_output_adapter@D@__crt_stdio_output@@@__crt_stdio_output@@CA?AW4parameter_type@12@_J@Z 1004da60 f i libucrtd:output.obj
 0001:0004ca70       ?get_parameter_type@?$positional_parameter_base@DV?$string_output_adapter@D@__crt_stdio_output@@@__crt_stdio_output@@CA?AW4parameter_type@12@_K@Z 1004da70 f i libucrtd:output.obj
 0001:0004ca80       ?get_parameter_type@?$positional_parameter_base@DV?$string_output_adapter@D@__crt_stdio_output@@@__crt_stdio_output@@CA?AW4parameter_type@12@_W@Z 1004da80 f i libucrtd:output.obj
 0001:0004ca90       ?get_parameter_type@?$positional_parameter_base@_WV?$stream_output_adapter@_W@__crt_stdio_output@@@__crt_stdio_output@@CA?AW4parameter_type@12@F@Z 1004da90 f i libucrtd:output.obj
 0001:0004caa0       ?get_parameter_type@?$positional_parameter_base@_WV?$stream_output_adapter@_W@__crt_stdio_output@@@__crt_stdio_output@@CA?AW4parameter_type@12@G@Z 1004daa0 f i libucrtd:output.obj
 0001:0004cab0       ?get_parameter_type@?$positional_parameter_base@_WV?$stream_output_adapter@_W@__crt_stdio_output@@@__crt_stdio_output@@CA?AW4parameter_type@12@H@Z 1004dab0 f i libucrtd:output.obj
 0001:0004cac0       ?get_parameter_type@?$positional_parameter_base@_WV?$stream_output_adapter@_W@__crt_stdio_output@@@__crt_stdio_output@@CA?AW4parameter_type@12@I@Z 1004dac0 f i libucrtd:output.obj
 0001:0004cad0       ?get_parameter_type@?$positional_parameter_base@_WV?$stream_output_adapter@_W@__crt_stdio_output@@@__crt_stdio_output@@CA?AW4parameter_type@12@U_CRT_DOUBLE@@@Z 1004dad0 f i libucrtd:output.obj
 0001:0004cae0       ?get_parameter_type@?$positional_parameter_base@_WV?$stream_output_adapter@_W@__crt_stdio_output@@@__crt_stdio_output@@CA?AW4parameter_type@12@_J@Z 1004dae0 f i libucrtd:output.obj
 0001:0004caf0       ?get_parameter_type@?$positional_parameter_base@_WV?$stream_output_adapter@_W@__crt_stdio_output@@@__crt_stdio_output@@CA?AW4parameter_type@12@_K@Z 1004daf0 f i libucrtd:output.obj
 0001:0004cb00       ?get_parameter_type@?$positional_parameter_base@_WV?$stream_output_adapter@_W@__crt_stdio_output@@@__crt_stdio_output@@CA?AW4parameter_type@12@_W@Z 1004db00 f i libucrtd:output.obj
 0001:0004cb10       ?get_parameter_type@?$positional_parameter_base@_WV?$string_output_adapter@_W@__crt_stdio_output@@@__crt_stdio_output@@CA?AW4parameter_type@12@F@Z 1004db10 f i libucrtd:output.obj
 0001:0004cb20       ?get_parameter_type@?$positional_parameter_base@_WV?$string_output_adapter@_W@__crt_stdio_output@@@__crt_stdio_output@@CA?AW4parameter_type@12@G@Z 1004db20 f i libucrtd:output.obj
 0001:0004cb30       ?get_parameter_type@?$positional_parameter_base@_WV?$string_output_adapter@_W@__crt_stdio_output@@@__crt_stdio_output@@CA?AW4parameter_type@12@H@Z 1004db30 f i libucrtd:output.obj
 0001:0004cb40       ?get_parameter_type@?$positional_parameter_base@_WV?$string_output_adapter@_W@__crt_stdio_output@@@__crt_stdio_output@@CA?AW4parameter_type@12@I@Z 1004db40 f i libucrtd:output.obj
 0001:0004cb50       ?get_parameter_type@?$positional_parameter_base@_WV?$string_output_adapter@_W@__crt_stdio_output@@@__crt_stdio_output@@CA?AW4parameter_type@12@U_CRT_DOUBLE@@@Z 1004db50 f i libucrtd:output.obj
 0001:0004cb60       ?get_parameter_type@?$positional_parameter_base@_WV?$string_output_adapter@_W@__crt_stdio_output@@@__crt_stdio_output@@CA?AW4parameter_type@12@_J@Z 1004db60 f i libucrtd:output.obj
 0001:0004cb70       ?get_parameter_type@?$positional_parameter_base@_WV?$string_output_adapter@_W@__crt_stdio_output@@@__crt_stdio_output@@CA?AW4parameter_type@12@_K@Z 1004db70 f i libucrtd:output.obj
 0001:0004cb80       ?get_parameter_type@?$positional_parameter_base@_WV?$string_output_adapter@_W@__crt_stdio_output@@@__crt_stdio_output@@CA?AW4parameter_type@12@_W@Z 1004db80 f i libucrtd:output.obj
 0001:0004cb90       ?has_flag@?$output_processor@DV?$stream_output_adapter@D@__crt_stdio_output@@V?$format_validation_base@DV?$stream_output_adapter@D@__crt_stdio_output@@@2@@__crt_stdio_output@@ABE_NI@Z 1004db90 f i libucrtd:output.obj
 0001:0004cbc0       ?has_flag@?$output_processor@DV?$stream_output_adapter@D@__crt_stdio_output@@V?$positional_parameter_base@DV?$stream_output_adapter@D@__crt_stdio_output@@@2@@__crt_stdio_output@@ABE_NI@Z 1004dbc0 f i libucrtd:output.obj
 0001:0004cbf0       ?has_flag@?$output_processor@DV?$stream_output_adapter@D@__crt_stdio_output@@V?$standard_base@DV?$stream_output_adapter@D@__crt_stdio_output@@@2@@__crt_stdio_output@@ABE_NI@Z 1004dbf0 f i libucrtd:output.obj
 0001:0004cc20       ?has_flag@?$output_processor@DV?$string_output_adapter@D@__crt_stdio_output@@V?$format_validation_base@DV?$string_output_adapter@D@__crt_stdio_output@@@2@@__crt_stdio_output@@ABE_NI@Z 1004dc20 f i libucrtd:output.obj
 0001:0004cc50       ?has_flag@?$output_processor@DV?$string_output_adapter@D@__crt_stdio_output@@V?$positional_parameter_base@DV?$string_output_adapter@D@__crt_stdio_output@@@2@@__crt_stdio_output@@ABE_NI@Z 1004dc50 f i libucrtd:output.obj
 0001:0004cc80       ?has_flag@?$output_processor@DV?$string_output_adapter@D@__crt_stdio_output@@V?$standard_base@DV?$string_output_adapter@D@__crt_stdio_output@@@2@@__crt_stdio_output@@ABE_NI@Z 1004dc80 f i libucrtd:output.obj
 0001:0004ccb0       ?has_flag@?$output_processor@_WV?$stream_output_adapter@_W@__crt_stdio_output@@V?$format_validation_base@_WV?$stream_output_adapter@_W@__crt_stdio_output@@@2@@__crt_stdio_output@@ABE_NI@Z 1004dcb0 f i libucrtd:output.obj
 0001:0004cce0       ?has_flag@?$output_processor@_WV?$stream_output_adapter@_W@__crt_stdio_output@@V?$positional_parameter_base@_WV?$stream_output_adapter@_W@__crt_stdio_output@@@2@@__crt_stdio_output@@ABE_NI@Z 1004dce0 f i libucrtd:output.obj
 0001:0004cd10       ?has_flag@?$output_processor@_WV?$stream_output_adapter@_W@__crt_stdio_output@@V?$standard_base@_WV?$stream_output_adapter@_W@__crt_stdio_output@@@2@@__crt_stdio_output@@ABE_NI@Z 1004dd10 f i libucrtd:output.obj
 0001:0004cd40       ?has_flag@?$output_processor@_WV?$string_output_adapter@_W@__crt_stdio_output@@V?$format_validation_base@_WV?$string_output_adapter@_W@__crt_stdio_output@@@2@@__crt_stdio_output@@ABE_NI@Z 1004dd40 f i libucrtd:output.obj
 0001:0004cd70       ?has_flag@?$output_processor@_WV?$string_output_adapter@_W@__crt_stdio_output@@V?$positional_parameter_base@_WV?$string_output_adapter@_W@__crt_stdio_output@@@2@@__crt_stdio_output@@ABE_NI@Z 1004dd70 f i libucrtd:output.obj
 0001:0004cda0       ?has_flag@?$output_processor@_WV?$string_output_adapter@_W@__crt_stdio_output@@V?$standard_base@_WV?$string_output_adapter@_W@__crt_stdio_output@@@2@@__crt_stdio_output@@ABE_NI@Z 1004dda0 f i libucrtd:output.obj
 0001:0004cdd0       ?is_positional_parameter_reappearance_consistent@?$positional_parameter_base@DV?$stream_output_adapter@D@__crt_stdio_output@@@__crt_stdio_output@@AAE_NABUparameter_data@12@W4parameter_type@12@DW4length_modifier@2@@Z 1004ddd0 f i libucrtd:output.obj
 0001:0004d000       ?is_positional_parameter_reappearance_consistent@?$positional_parameter_base@DV?$string_output_adapter@D@__crt_stdio_output@@@__crt_stdio_output@@AAE_NABUparameter_data@12@W4parameter_type@12@DW4length_modifier@2@@Z 1004e000 f i libucrtd:output.obj
 0001:0004d230       ?is_positional_parameter_reappearance_consistent@?$positional_parameter_base@_WV?$stream_output_adapter@_W@__crt_stdio_output@@@__crt_stdio_output@@AAE_NABUparameter_data@12@W4parameter_type@12@_WW4length_modifier@2@@Z 1004e230 f i libucrtd:output.obj
 0001:0004d460       ?is_positional_parameter_reappearance_consistent@?$positional_parameter_base@_WV?$string_output_adapter@_W@__crt_stdio_output@@@__crt_stdio_output@@AAE_NABUparameter_data@12@W4parameter_type@12@_WW4length_modifier@2@@Z 1004e460 f i libucrtd:output.obj
 0001:0004d690       ?is_string_backed@__crt_stdio_stream@@QBE_NXZ 1004e690 f i libucrtd:output.obj
 0001:0004d6d0       ?narrow_null_string@?$output_processor@DV?$stream_output_adapter@D@__crt_stdio_output@@V?$format_validation_base@DV?$stream_output_adapter@D@__crt_stdio_output@@@2@@__crt_stdio_output@@CAPADXZ 1004e6d0 f i libucrtd:output.obj
 0001:0004d6e0       ?narrow_null_string@?$output_processor@DV?$stream_output_adapter@D@__crt_stdio_output@@V?$positional_parameter_base@DV?$stream_output_adapter@D@__crt_stdio_output@@@2@@__crt_stdio_output@@CAPADXZ 1004e6e0 f i libucrtd:output.obj
 0001:0004d6f0       ?narrow_null_string@?$output_processor@DV?$stream_output_adapter@D@__crt_stdio_output@@V?$standard_base@DV?$stream_output_adapter@D@__crt_stdio_output@@@2@@__crt_stdio_output@@CAPADXZ 1004e6f0 f i libucrtd:output.obj
 0001:0004d700       ?narrow_null_string@?$output_processor@DV?$string_output_adapter@D@__crt_stdio_output@@V?$format_validation_base@DV?$string_output_adapter@D@__crt_stdio_output@@@2@@__crt_stdio_output@@CAPADXZ 1004e700 f i libucrtd:output.obj
 0001:0004d710       ?narrow_null_string@?$output_processor@DV?$string_output_adapter@D@__crt_stdio_output@@V?$positional_parameter_base@DV?$string_output_adapter@D@__crt_stdio_output@@@2@@__crt_stdio_output@@CAPADXZ 1004e710 f i libucrtd:output.obj
 0001:0004d720       ?narrow_null_string@?$output_processor@DV?$string_output_adapter@D@__crt_stdio_output@@V?$standard_base@DV?$string_output_adapter@D@__crt_stdio_output@@@2@@__crt_stdio_output@@CAPADXZ 1004e720 f i libucrtd:output.obj
 0001:0004d730       ?narrow_null_string@?$output_processor@_WV?$stream_output_adapter@_W@__crt_stdio_output@@V?$format_validation_base@_WV?$stream_output_adapter@_W@__crt_stdio_output@@@2@@__crt_stdio_output@@CAPADXZ 1004e730 f i libucrtd:output.obj
 0001:0004d740       ?narrow_null_string@?$output_processor@_WV?$stream_output_adapter@_W@__crt_stdio_output@@V?$positional_parameter_base@_WV?$stream_output_adapter@_W@__crt_stdio_output@@@2@@__crt_stdio_output@@CAPADXZ 1004e740 f i libucrtd:output.obj
 0001:0004d750       ?narrow_null_string@?$output_processor@_WV?$stream_output_adapter@_W@__crt_stdio_output@@V?$standard_base@_WV?$stream_output_adapter@_W@__crt_stdio_output@@@2@@__crt_stdio_output@@CAPADXZ 1004e750 f i libucrtd:output.obj
 0001:0004d760       ?narrow_null_string@?$output_processor@_WV?$string_output_adapter@_W@__crt_stdio_output@@V?$format_validation_base@_WV?$string_output_adapter@_W@__crt_stdio_output@@@2@@__crt_stdio_output@@CAPADXZ 1004e760 f i libucrtd:output.obj
 0001:0004d770       ?narrow_null_string@?$output_processor@_WV?$string_output_adapter@_W@__crt_stdio_output@@V?$positional_parameter_base@_WV?$string_output_adapter@_W@__crt_stdio_output@@@2@@__crt_stdio_output@@CAPADXZ 1004e770 f i libucrtd:output.obj
 0001:0004d780       ?narrow_null_string@?$output_processor@_WV?$string_output_adapter@_W@__crt_stdio_output@@V?$standard_base@_WV?$string_output_adapter@_W@__crt_stdio_output@@@2@@__crt_stdio_output@@CAPADXZ 1004e780 f i libucrtd:output.obj
 0001:0004d790       ?parse_int_from_format_string@?$output_processor@DV?$stream_output_adapter@D@__crt_stdio_output@@V?$format_validation_base@DV?$stream_output_adapter@D@__crt_stdio_output@@@2@@__crt_stdio_output@@AAE_NQAH@Z 1004e790 f i libucrtd:output.obj
 0001:0004d850       ?parse_int_from_format_string@?$output_processor@DV?$stream_output_adapter@D@__crt_stdio_output@@V?$positional_parameter_base@DV?$stream_output_adapter@D@__crt_stdio_output@@@2@@__crt_stdio_output@@AAE_NQAH@Z 1004e850 f i libucrtd:output.obj
 0001:0004d910       ?parse_int_from_format_string@?$output_processor@DV?$stream_output_adapter@D@__crt_stdio_output@@V?$standard_base@DV?$stream_output_adapter@D@__crt_stdio_output@@@2@@__crt_stdio_output@@AAE_NQAH@Z 1004e910 f i libucrtd:output.obj
 0001:0004d9d0       ?parse_int_from_format_string@?$output_processor@DV?$string_output_adapter@D@__crt_stdio_output@@V?$format_validation_base@DV?$string_output_adapter@D@__crt_stdio_output@@@2@@__crt_stdio_output@@AAE_NQAH@Z 1004e9d0 f i libucrtd:output.obj
 0001:0004da90       ?parse_int_from_format_string@?$output_processor@DV?$string_output_adapter@D@__crt_stdio_output@@V?$positional_parameter_base@DV?$string_output_adapter@D@__crt_stdio_output@@@2@@__crt_stdio_output@@AAE_NQAH@Z 1004ea90 f i libucrtd:output.obj
 0001:0004db50       ?parse_int_from_format_string@?$output_processor@DV?$string_output_adapter@D@__crt_stdio_output@@V?$standard_base@DV?$string_output_adapter@D@__crt_stdio_output@@@2@@__crt_stdio_output@@AAE_NQAH@Z 1004eb50 f i libucrtd:output.obj
 0001:0004dc10       ?parse_int_from_format_string@?$output_processor@_WV?$stream_output_adapter@_W@__crt_stdio_output@@V?$format_validation_base@_WV?$stream_output_adapter@_W@__crt_stdio_output@@@2@@__crt_stdio_output@@AAE_NQAH@Z 1004ec10 f i libucrtd:output.obj
 0001:0004dcd0       ?parse_int_from_format_string@?$output_processor@_WV?$stream_output_adapter@_W@__crt_stdio_output@@V?$positional_parameter_base@_WV?$stream_output_adapter@_W@__crt_stdio_output@@@2@@__crt_stdio_output@@AAE_NQAH@Z 1004ecd0 f i libucrtd:output.obj
 0001:0004dd90       ?parse_int_from_format_string@?$output_processor@_WV?$stream_output_adapter@_W@__crt_stdio_output@@V?$standard_base@_WV?$stream_output_adapter@_W@__crt_stdio_output@@@2@@__crt_stdio_output@@AAE_NQAH@Z 1004ed90 f i libucrtd:output.obj
 0001:0004de50       ?parse_int_from_format_string@?$output_processor@_WV?$string_output_adapter@_W@__crt_stdio_output@@V?$format_validation_base@_WV?$string_output_adapter@_W@__crt_stdio_output@@@2@@__crt_stdio_output@@AAE_NQAH@Z 1004ee50 f i libucrtd:output.obj
 0001:0004df10       ?parse_int_from_format_string@?$output_processor@_WV?$string_output_adapter@_W@__crt_stdio_output@@V?$positional_parameter_base@_WV?$string_output_adapter@_W@__crt_stdio_output@@@2@@__crt_stdio_output@@AAE_NQAH@Z 1004ef10 f i libucrtd:output.obj
 0001:0004dfd0       ?parse_int_from_format_string@?$output_processor@_WV?$string_output_adapter@_W@__crt_stdio_output@@V?$standard_base@_WV?$string_output_adapter@_W@__crt_stdio_output@@@2@@__crt_stdio_output@@AAE_NQAH@Z 1004efd0 f i libucrtd:output.obj
 0001:0004e090       ?process@?$output_processor@DV?$stream_output_adapter@D@__crt_stdio_output@@V?$format_validation_base@DV?$stream_output_adapter@D@__crt_stdio_output@@@2@@__crt_stdio_output@@QAEHXZ 1004f090 f i libucrtd:output.obj
 0001:0004e340       ?process@?$output_processor@DV?$stream_output_adapter@D@__crt_stdio_output@@V?$positional_parameter_base@DV?$stream_output_adapter@D@__crt_stdio_output@@@2@@__crt_stdio_output@@QAEHXZ 1004f340 f i libucrtd:output.obj
 0001:0004e5f0       ?process@?$output_processor@DV?$stream_output_adapter@D@__crt_stdio_output@@V?$standard_base@DV?$stream_output_adapter@D@__crt_stdio_output@@@2@@__crt_stdio_output@@QAEHXZ 1004f5f0 f i libucrtd:output.obj
 0001:0004e8a0       ?process@?$output_processor@DV?$string_output_adapter@D@__crt_stdio_output@@V?$format_validation_base@DV?$string_output_adapter@D@__crt_stdio_output@@@2@@__crt_stdio_output@@QAEHXZ 1004f8a0 f i libucrtd:output.obj
 0001:0004eb50       ?process@?$output_processor@DV?$string_output_adapter@D@__crt_stdio_output@@V?$positional_parameter_base@DV?$string_output_adapter@D@__crt_stdio_output@@@2@@__crt_stdio_output@@QAEHXZ 1004fb50 f i libucrtd:output.obj
 0001:0004ee00       ?process@?$output_processor@DV?$string_output_adapter@D@__crt_stdio_output@@V?$standard_base@DV?$string_output_adapter@D@__crt_stdio_output@@@2@@__crt_stdio_output@@QAEHXZ 1004fe00 f i libucrtd:output.obj
 0001:0004f0b0       ?process@?$output_processor@_WV?$stream_output_adapter@_W@__crt_stdio_output@@V?$format_validation_base@_WV?$stream_output_adapter@_W@__crt_stdio_output@@@2@@__crt_stdio_output@@QAEHXZ 100500b0 f i libucrtd:output.obj
 0001:0004f360       ?process@?$output_processor@_WV?$stream_output_adapter@_W@__crt_stdio_output@@V?$positional_parameter_base@_WV?$stream_output_adapter@_W@__crt_stdio_output@@@2@@__crt_stdio_output@@QAEHXZ 10050360 f i libucrtd:output.obj
 0001:0004f610       ?process@?$output_processor@_WV?$stream_output_adapter@_W@__crt_stdio_output@@V?$standard_base@_WV?$stream_output_adapter@_W@__crt_stdio_output@@@2@@__crt_stdio_output@@QAEHXZ 10050610 f i libucrtd:output.obj
 0001:0004f8c0       ?process@?$output_processor@_WV?$string_output_adapter@_W@__crt_stdio_output@@V?$format_validation_base@_WV?$string_output_adapter@_W@__crt_stdio_output@@@2@@__crt_stdio_output@@QAEHXZ 100508c0 f i libucrtd:output.obj
 0001:0004fb70       ?process@?$output_processor@_WV?$string_output_adapter@_W@__crt_stdio_output@@V?$positional_parameter_base@_WV?$string_output_adapter@_W@__crt_stdio_output@@@2@@__crt_stdio_output@@QAEHXZ 10050b70 f i libucrtd:output.obj
 0001:0004fe20       ?process@?$output_processor@_WV?$string_output_adapter@_W@__crt_stdio_output@@V?$standard_base@_WV?$string_output_adapter@_W@__crt_stdio_output@@@2@@__crt_stdio_output@@QAEHXZ 10050e20 f i libucrtd:output.obj
 0001:000500d0       ?public_stream@__crt_stdio_stream@@QBEPAU_iobuf@@XZ 100510d0 f i libucrtd:output.obj
 0001:000500f0       ?set_flag@?$output_processor@DV?$stream_output_adapter@D@__crt_stdio_output@@V?$format_validation_base@DV?$stream_output_adapter@D@__crt_stdio_output@@@2@@__crt_stdio_output@@AAEXI@Z 100510f0 f i libucrtd:output.obj
 0001:00050110       ?set_flag@?$output_processor@DV?$stream_output_adapter@D@__crt_stdio_output@@V?$positional_parameter_base@DV?$stream_output_adapter@D@__crt_stdio_output@@@2@@__crt_stdio_output@@AAEXI@Z 10051110 f i libucrtd:output.obj
 0001:00050130       ?set_flag@?$output_processor@DV?$stream_output_adapter@D@__crt_stdio_output@@V?$standard_base@DV?$stream_output_adapter@D@__crt_stdio_output@@@2@@__crt_stdio_output@@AAEXI@Z 10051130 f i libucrtd:output.obj
 0001:00050150       ?set_flag@?$output_processor@DV?$string_output_adapter@D@__crt_stdio_output@@V?$format_validation_base@DV?$string_output_adapter@D@__crt_stdio_output@@@2@@__crt_stdio_output@@AAEXI@Z 10051150 f i libucrtd:output.obj
 0001:00050170       ?set_flag@?$output_processor@DV?$string_output_adapter@D@__crt_stdio_output@@V?$positional_parameter_base@DV?$string_output_adapter@D@__crt_stdio_output@@@2@@__crt_stdio_output@@AAEXI@Z 10051170 f i libucrtd:output.obj
 0001:00050190       ?set_flag@?$output_processor@DV?$string_output_adapter@D@__crt_stdio_output@@V?$standard_base@DV?$string_output_adapter@D@__crt_stdio_output@@@2@@__crt_stdio_output@@AAEXI@Z 10051190 f i libucrtd:output.obj
 0001:000501b0       ?set_flag@?$output_processor@_WV?$stream_output_adapter@_W@__crt_stdio_output@@V?$format_validation_base@_WV?$stream_output_adapter@_W@__crt_stdio_output@@@2@@__crt_stdio_output@@AAEXI@Z 100511b0 f i libucrtd:output.obj
 0001:000501d0       ?set_flag@?$output_processor@_WV?$stream_output_adapter@_W@__crt_stdio_output@@V?$positional_parameter_base@_WV?$stream_output_adapter@_W@__crt_stdio_output@@@2@@__crt_stdio_output@@AAEXI@Z 100511d0 f i libucrtd:output.obj
 0001:000501f0       ?set_flag@?$output_processor@_WV?$stream_output_adapter@_W@__crt_stdio_output@@V?$standard_base@_WV?$stream_output_adapter@_W@__crt_stdio_output@@@2@@__crt_stdio_output@@AAEXI@Z 100511f0 f i libucrtd:output.obj
 0001:00050210       ?set_flag@?$output_processor@_WV?$string_output_adapter@_W@__crt_stdio_output@@V?$format_validation_base@_WV?$string_output_adapter@_W@__crt_stdio_output@@@2@@__crt_stdio_output@@AAEXI@Z 10051210 f i libucrtd:output.obj
 0001:00050230       ?set_flag@?$output_processor@_WV?$string_output_adapter@_W@__crt_stdio_output@@V?$positional_parameter_base@_WV?$string_output_adapter@_W@__crt_stdio_output@@@2@@__crt_stdio_output@@AAEXI@Z 10051230 f i libucrtd:output.obj
 0001:00050250       ?set_flag@?$output_processor@_WV?$string_output_adapter@_W@__crt_stdio_output@@V?$standard_base@_WV?$string_output_adapter@_W@__crt_stdio_output@@@2@@__crt_stdio_output@@AAEXI@Z 10051250 f i libucrtd:output.obj
 0001:00050270       ?should_format@?$positional_parameter_base@DV?$stream_output_adapter@D@__crt_stdio_output@@@__crt_stdio_output@@IAE_NXZ 10051270 f i libucrtd:output.obj
 0001:000502b0       ?should_format@?$positional_parameter_base@DV?$string_output_adapter@D@__crt_stdio_output@@@__crt_stdio_output@@IAE_NXZ 100512b0 f i libucrtd:output.obj
 0001:000502f0       ?should_format@?$positional_parameter_base@_WV?$stream_output_adapter@_W@__crt_stdio_output@@@__crt_stdio_output@@IAE_NXZ 100512f0 f i libucrtd:output.obj
 0001:00050330       ?should_format@?$positional_parameter_base@_WV?$string_output_adapter@_W@__crt_stdio_output@@@__crt_stdio_output@@IAE_NXZ 10051330 f i libucrtd:output.obj
 0001:00050370       ?should_format@?$standard_base@DV?$stream_output_adapter@D@__crt_stdio_output@@@__crt_stdio_output@@IAE_NXZ 10051370 f i libucrtd:output.obj
 0001:00050380       ?should_format@?$standard_base@DV?$string_output_adapter@D@__crt_stdio_output@@@__crt_stdio_output@@IAE_NXZ 10051380 f i libucrtd:output.obj
 0001:00050390       ?should_format@?$standard_base@_WV?$stream_output_adapter@_W@__crt_stdio_output@@@__crt_stdio_output@@IAE_NXZ 10051390 f i libucrtd:output.obj
 0001:000503a0       ?should_format@?$standard_base@_WV?$string_output_adapter@_W@__crt_stdio_output@@@__crt_stdio_output@@IAE_NXZ 100513a0 f i libucrtd:output.obj
 0001:000503b0       ?should_skip_normal_state_processing@?$positional_parameter_base@DV?$stream_output_adapter@D@__crt_stdio_output@@@__crt_stdio_output@@IAE_NXZ 100513b0 f i libucrtd:output.obj
 0001:00050400       ?should_skip_normal_state_processing@?$positional_parameter_base@DV?$string_output_adapter@D@__crt_stdio_output@@@__crt_stdio_output@@IAE_NXZ 10051400 f i libucrtd:output.obj
 0001:00050450       ?should_skip_normal_state_processing@?$positional_parameter_base@_WV?$stream_output_adapter@_W@__crt_stdio_output@@@__crt_stdio_output@@IAE_NXZ 10051450 f i libucrtd:output.obj
 0001:000504a0       ?should_skip_normal_state_processing@?$positional_parameter_base@_WV?$string_output_adapter@_W@__crt_stdio_output@@@__crt_stdio_output@@IAE_NXZ 100514a0 f i libucrtd:output.obj
 0001:000504f0       ?should_skip_normal_state_processing@?$standard_base@DV?$stream_output_adapter@D@__crt_stdio_output@@@__crt_stdio_output@@IAE_NXZ 100514f0 f i libucrtd:output.obj
 0001:00050500       ?should_skip_normal_state_processing@?$standard_base@DV?$string_output_adapter@D@__crt_stdio_output@@@__crt_stdio_output@@IAE_NXZ 10051500 f i libucrtd:output.obj
 0001:00050510       ?should_skip_normal_state_processing@?$standard_base@_WV?$stream_output_adapter@_W@__crt_stdio_output@@@__crt_stdio_output@@IAE_NXZ 10051510 f i libucrtd:output.obj
 0001:00050520       ?should_skip_normal_state_processing@?$standard_base@_WV?$string_output_adapter@_W@__crt_stdio_output@@@__crt_stdio_output@@IAE_NXZ 10051520 f i libucrtd:output.obj
 0001:00050530       ?should_skip_type_state_output@?$positional_parameter_base@DV?$stream_output_adapter@D@__crt_stdio_output@@@__crt_stdio_output@@IBE_NXZ 10051530 f i libucrtd:output.obj
 0001:00050570       ?should_skip_type_state_output@?$positional_parameter_base@DV?$string_output_adapter@D@__crt_stdio_output@@@__crt_stdio_output@@IBE_NXZ 10051570 f i libucrtd:output.obj
 0001:000505b0       ?should_skip_type_state_output@?$positional_parameter_base@_WV?$stream_output_adapter@_W@__crt_stdio_output@@@__crt_stdio_output@@IBE_NXZ 100515b0 f i libucrtd:output.obj
 0001:000505f0       ?should_skip_type_state_output@?$positional_parameter_base@_WV?$string_output_adapter@_W@__crt_stdio_output@@@__crt_stdio_output@@IBE_NXZ 100515f0 f i libucrtd:output.obj
 0001:00050630       ?should_skip_type_state_output@?$standard_base@DV?$stream_output_adapter@D@__crt_stdio_output@@@__crt_stdio_output@@IBE_NXZ 10051630 f i libucrtd:output.obj
 0001:00050640       ?should_skip_type_state_output@?$standard_base@DV?$string_output_adapter@D@__crt_stdio_output@@@__crt_stdio_output@@IBE_NXZ 10051640 f i libucrtd:output.obj
 0001:00050650       ?should_skip_type_state_output@?$standard_base@_WV?$stream_output_adapter@_W@__crt_stdio_output@@@__crt_stdio_output@@IBE_NXZ 10051650 f i libucrtd:output.obj
 0001:00050660       ?should_skip_type_state_output@?$standard_base@_WV?$string_output_adapter@_W@__crt_stdio_output@@@__crt_stdio_output@@IBE_NXZ 10051660 f i libucrtd:output.obj
 0001:00050670       ?state_case_dot@?$output_processor@DV?$stream_output_adapter@D@__crt_stdio_output@@V?$format_validation_base@DV?$stream_output_adapter@D@__crt_stdio_output@@@2@@__crt_stdio_output@@AAE_NXZ 10051670 f i libucrtd:output.obj
 0001:00050690       ?state_case_dot@?$output_processor@DV?$stream_output_adapter@D@__crt_stdio_output@@V?$positional_parameter_base@DV?$stream_output_adapter@D@__crt_stdio_output@@@2@@__crt_stdio_output@@AAE_NXZ 10051690 f i libucrtd:output.obj
 0001:000506b0       ?state_case_dot@?$output_processor@DV?$stream_output_adapter@D@__crt_stdio_output@@V?$standard_base@DV?$stream_output_adapter@D@__crt_stdio_output@@@2@@__crt_stdio_output@@AAE_NXZ 100516b0 f i libucrtd:output.obj
 0001:000506d0       ?state_case_dot@?$output_processor@DV?$string_output_adapter@D@__crt_stdio_output@@V?$format_validation_base@DV?$string_output_adapter@D@__crt_stdio_output@@@2@@__crt_stdio_output@@AAE_NXZ 100516d0 f i libucrtd:output.obj
 0001:000506f0       ?state_case_dot@?$output_processor@DV?$string_output_adapter@D@__crt_stdio_output@@V?$positional_parameter_base@DV?$string_output_adapter@D@__crt_stdio_output@@@2@@__crt_stdio_output@@AAE_NXZ 100516f0 f i libucrtd:output.obj
 0001:00050710       ?state_case_dot@?$output_processor@DV?$string_output_adapter@D@__crt_stdio_output@@V?$standard_base@DV?$string_output_adapter@D@__crt_stdio_output@@@2@@__crt_stdio_output@@AAE_NXZ 10051710 f i libucrtd:output.obj
 0001:00050730       ?state_case_dot@?$output_processor@_WV?$stream_output_adapter@_W@__crt_stdio_output@@V?$format_validation_base@_WV?$stream_output_adapter@_W@__crt_stdio_output@@@2@@__crt_stdio_output@@AAE_NXZ 10051730 f i libucrtd:output.obj
 0001:00050750       ?state_case_dot@?$output_processor@_WV?$stream_output_adapter@_W@__crt_stdio_output@@V?$positional_parameter_base@_WV?$stream_output_adapter@_W@__crt_stdio_output@@@2@@__crt_stdio_output@@AAE_NXZ 10051750 f i libucrtd:output.obj
 0001:00050770       ?state_case_dot@?$output_processor@_WV?$stream_output_adapter@_W@__crt_stdio_output@@V?$standard_base@_WV?$stream_output_adapter@_W@__crt_stdio_output@@@2@@__crt_stdio_output@@AAE_NXZ 10051770 f i libucrtd:output.obj
 0001:00050790       ?state_case_dot@?$output_processor@_WV?$string_output_adapter@_W@__crt_stdio_output@@V?$format_validation_base@_WV?$string_output_adapter@_W@__crt_stdio_output@@@2@@__crt_stdio_output@@AAE_NXZ 10051790 f i libucrtd:output.obj
 0001:000507b0       ?state_case_dot@?$output_processor@_WV?$string_output_adapter@_W@__crt_stdio_output@@V?$positional_parameter_base@_WV?$string_output_adapter@_W@__crt_stdio_output@@@2@@__crt_stdio_output@@AAE_NXZ 100517b0 f i libucrtd:output.obj
 0001:000507d0       ?state_case_dot@?$output_processor@_WV?$string_output_adapter@_W@__crt_stdio_output@@V?$standard_base@_WV?$string_output_adapter@_W@__crt_stdio_output@@@2@@__crt_stdio_output@@AAE_NXZ 100517d0 f i libucrtd:output.obj
 0001:000507f0       ?state_case_flag@?$output_processor@DV?$stream_output_adapter@D@__crt_stdio_output@@V?$format_validation_base@DV?$stream_output_adapter@D@__crt_stdio_output@@@2@@__crt_stdio_output@@AAE_NXZ 100517f0 f i libucrtd:output.obj
 0001:000508a0       ?state_case_flag@?$output_processor@DV?$stream_output_adapter@D@__crt_stdio_output@@V?$positional_parameter_base@DV?$stream_output_adapter@D@__crt_stdio_output@@@2@@__crt_stdio_output@@AAE_NXZ 100518a0 f i libucrtd:output.obj
 0001:00050950       ?state_case_flag@?$output_processor@DV?$stream_output_adapter@D@__crt_stdio_output@@V?$standard_base@DV?$stream_output_adapter@D@__crt_stdio_output@@@2@@__crt_stdio_output@@AAE_NXZ 10051950 f i libucrtd:output.obj
 0001:00050a00       ?state_case_flag@?$output_processor@DV?$string_output_adapter@D@__crt_stdio_output@@V?$format_validation_base@DV?$string_output_adapter@D@__crt_stdio_output@@@2@@__crt_stdio_output@@AAE_NXZ 10051a00 f i libucrtd:output.obj
 0001:00050ab0       ?state_case_flag@?$output_processor@DV?$string_output_adapter@D@__crt_stdio_output@@V?$positional_parameter_base@DV?$string_output_adapter@D@__crt_stdio_output@@@2@@__crt_stdio_output@@AAE_NXZ 10051ab0 f i libucrtd:output.obj
 0001:00050b60       ?state_case_flag@?$output_processor@DV?$string_output_adapter@D@__crt_stdio_output@@V?$standard_base@DV?$string_output_adapter@D@__crt_stdio_output@@@2@@__crt_stdio_output@@AAE_NXZ 10051b60 f i libucrtd:output.obj
 0001:00050c10       ?state_case_flag@?$output_processor@_WV?$stream_output_adapter@_W@__crt_stdio_output@@V?$format_validation_base@_WV?$stream_output_adapter@_W@__crt_stdio_output@@@2@@__crt_stdio_output@@AAE_NXZ 10051c10 f i libucrtd:output.obj
 0001:00050cc0       ?state_case_flag@?$output_processor@_WV?$stream_output_adapter@_W@__crt_stdio_output@@V?$positional_parameter_base@_WV?$stream_output_adapter@_W@__crt_stdio_output@@@2@@__crt_stdio_output@@AAE_NXZ 10051cc0 f i libucrtd:output.obj
 0001:00050d70       ?state_case_flag@?$output_processor@_WV?$stream_output_adapter@_W@__crt_stdio_output@@V?$standard_base@_WV?$stream_output_adapter@_W@__crt_stdio_output@@@2@@__crt_stdio_output@@AAE_NXZ 10051d70 f i libucrtd:output.obj
 0001:00050e20       ?state_case_flag@?$output_processor@_WV?$string_output_adapter@_W@__crt_stdio_output@@V?$format_validation_base@_WV?$string_output_adapter@_W@__crt_stdio_output@@@2@@__crt_stdio_output@@AAE_NXZ 10051e20 f i libucrtd:output.obj
 0001:00050ed0       ?state_case_flag@?$output_processor@_WV?$string_output_adapter@_W@__crt_stdio_output@@V?$positional_parameter_base@_WV?$string_output_adapter@_W@__crt_stdio_output@@@2@@__crt_stdio_output@@AAE_NXZ 10051ed0 f i libucrtd:output.obj
 0001:00050f80       ?state_case_flag@?$output_processor@_WV?$string_output_adapter@_W@__crt_stdio_output@@V?$standard_base@_WV?$string_output_adapter@_W@__crt_stdio_output@@@2@@__crt_stdio_output@@AAE_NXZ 10051f80 f i libucrtd:output.obj
 0001:00051030       ?state_case_normal@?$output_processor@DV?$stream_output_adapter@D@__crt_stdio_output@@V?$format_validation_base@DV?$stream_output_adapter@D@__crt_stdio_output@@@2@@__crt_stdio_output@@AAE_NXZ 10052030 f i libucrtd:output.obj
 0001:000510e0       ?state_case_normal@?$output_processor@DV?$stream_output_adapter@D@__crt_stdio_output@@V?$positional_parameter_base@DV?$stream_output_adapter@D@__crt_stdio_output@@@2@@__crt_stdio_output@@AAE_NXZ 100520e0 f i libucrtd:output.obj
 0001:00051190       ?state_case_normal@?$output_processor@DV?$stream_output_adapter@D@__crt_stdio_output@@V?$standard_base@DV?$stream_output_adapter@D@__crt_stdio_output@@@2@@__crt_stdio_output@@AAE_NXZ 10052190 f i libucrtd:output.obj
 0001:00051240       ?state_case_normal@?$output_processor@DV?$string_output_adapter@D@__crt_stdio_output@@V?$format_validation_base@DV?$string_output_adapter@D@__crt_stdio_output@@@2@@__crt_stdio_output@@AAE_NXZ 10052240 f i libucrtd:output.obj
 0001:000512f0       ?state_case_normal@?$output_processor@DV?$string_output_adapter@D@__crt_stdio_output@@V?$positional_parameter_base@DV?$string_output_adapter@D@__crt_stdio_output@@@2@@__crt_stdio_output@@AAE_NXZ 100522f0 f i libucrtd:output.obj
 0001:000513a0       ?state_case_normal@?$output_processor@DV?$string_output_adapter@D@__crt_stdio_output@@V?$standard_base@DV?$string_output_adapter@D@__crt_stdio_output@@@2@@__crt_stdio_output@@AAE_NXZ 100523a0 f i libucrtd:output.obj
 0001:00051450       ?state_case_normal@?$output_processor@_WV?$stream_output_adapter@_W@__crt_stdio_output@@V?$format_validation_base@_WV?$stream_output_adapter@_W@__crt_stdio_output@@@2@@__crt_stdio_output@@AAE_NXZ 10052450 f i libucrtd:output.obj
 0001:00051500       ?state_case_normal@?$output_processor@_WV?$stream_output_adapter@_W@__crt_stdio_output@@V?$positional_parameter_base@_WV?$stream_output_adapter@_W@__crt_stdio_output@@@2@@__crt_stdio_output@@AAE_NXZ 10052500 f i libucrtd:output.obj
 0001:000515b0       ?state_case_normal@?$output_processor@_WV?$stream_output_adapter@_W@__crt_stdio_output@@V?$standard_base@_WV?$stream_output_adapter@_W@__crt_stdio_output@@@2@@__crt_stdio_output@@AAE_NXZ 100525b0 f i libucrtd:output.obj
 0001:00051660       ?state_case_normal@?$output_processor@_WV?$string_output_adapter@_W@__crt_stdio_output@@V?$format_validation_base@_WV?$string_output_adapter@_W@__crt_stdio_output@@@2@@__crt_stdio_output@@AAE_NXZ 10052660 f i libucrtd:output.obj
 0001:00051710       ?state_case_normal@?$output_processor@_WV?$string_output_adapter@_W@__crt_stdio_output@@V?$positional_parameter_base@_WV?$string_output_adapter@_W@__crt_stdio_output@@@2@@__crt_stdio_output@@AAE_NXZ 10052710 f i libucrtd:output.obj
 0001:000517c0       ?state_case_normal@?$output_processor@_WV?$string_output_adapter@_W@__crt_stdio_output@@V?$standard_base@_WV?$string_output_adapter@_W@__crt_stdio_output@@@2@@__crt_stdio_output@@AAE_NXZ 100527c0 f i libucrtd:output.obj
 0001:00051870       ?state_case_normal_common@?$output_processor@DV?$stream_output_adapter@D@__crt_stdio_output@@V?$format_validation_base@DV?$stream_output_adapter@D@__crt_stdio_output@@@2@@__crt_stdio_output@@AAE_NXZ 10052870 f i libucrtd:output.obj
 0001:000518c0       ?state_case_normal_common@?$output_processor@DV?$stream_output_adapter@D@__crt_stdio_output@@V?$positional_parameter_base@DV?$stream_output_adapter@D@__crt_stdio_output@@@2@@__crt_stdio_output@@AAE_NXZ 100528c0 f i libucrtd:output.obj
 0001:00051910       ?state_case_normal_common@?$output_processor@DV?$stream_output_adapter@D@__crt_stdio_output@@V?$standard_base@DV?$stream_output_adapter@D@__crt_stdio_output@@@2@@__crt_stdio_output@@AAE_NXZ 10052910 f i libucrtd:output.obj
 0001:00051960       ?state_case_normal_common@?$output_processor@DV?$string_output_adapter@D@__crt_stdio_output@@V?$format_validation_base@DV?$string_output_adapter@D@__crt_stdio_output@@@2@@__crt_stdio_output@@AAE_NXZ 10052960 f i libucrtd:output.obj
 0001:000519b0       ?state_case_normal_common@?$output_processor@DV?$string_output_adapter@D@__crt_stdio_output@@V?$positional_parameter_base@DV?$string_output_adapter@D@__crt_stdio_output@@@2@@__crt_stdio_output@@AAE_NXZ 100529b0 f i libucrtd:output.obj
 0001:00051a00       ?state_case_normal_common@?$output_processor@DV?$string_output_adapter@D@__crt_stdio_output@@V?$standard_base@DV?$string_output_adapter@D@__crt_stdio_output@@@2@@__crt_stdio_output@@AAE_NXZ 10052a00 f i libucrtd:output.obj
 0001:00051a50       ?state_case_normal_common@?$output_processor@_WV?$stream_output_adapter@_W@__crt_stdio_output@@V?$format_validation_base@_WV?$stream_output_adapter@_W@__crt_stdio_output@@@2@@__crt_stdio_output@@AAE_NXZ 10052a50 f i libucrtd:output.obj
 0001:00051aa0       ?state_case_normal_common@?$output_processor@_WV?$stream_output_adapter@_W@__crt_stdio_output@@V?$positional_parameter_base@_WV?$stream_output_adapter@_W@__crt_stdio_output@@@2@@__crt_stdio_output@@AAE_NXZ 10052aa0 f i libucrtd:output.obj
 0001:00051af0       ?state_case_normal_common@?$output_processor@_WV?$stream_output_adapter@_W@__crt_stdio_output@@V?$standard_base@_WV?$stream_output_adapter@_W@__crt_stdio_output@@@2@@__crt_stdio_output@@AAE_NXZ 10052af0 f i libucrtd:output.obj
 0001:00051b40       ?state_case_normal_common@?$output_processor@_WV?$string_output_adapter@_W@__crt_stdio_output@@V?$format_validation_base@_WV?$string_output_adapter@_W@__crt_stdio_output@@@2@@__crt_stdio_output@@AAE_NXZ 10052b40 f i libucrtd:output.obj
 0001:00051b90       ?state_case_normal_common@?$output_processor@_WV?$string_output_adapter@_W@__crt_stdio_output@@V?$positional_parameter_base@_WV?$string_output_adapter@_W@__crt_stdio_output@@@2@@__crt_stdio_output@@AAE_NXZ 10052b90 f i libucrtd:output.obj
 0001:00051be0       ?state_case_normal_common@?$output_processor@_WV?$string_output_adapter@_W@__crt_stdio_output@@V?$standard_base@_WV?$string_output_adapter@_W@__crt_stdio_output@@@2@@__crt_stdio_output@@AAE_NXZ 10052be0 f i libucrtd:output.obj
 0001:00051c30       ?state_case_normal_tchar@?$output_processor@DV?$stream_output_adapter@D@__crt_stdio_output@@V?$format_validation_base@DV?$stream_output_adapter@D@__crt_stdio_output@@@2@@__crt_stdio_output@@AAE_ND@Z 10052c30 f i libucrtd:output.obj
 0001:00051d30       ?state_case_normal_tchar@?$output_processor@DV?$stream_output_adapter@D@__crt_stdio_output@@V?$positional_parameter_base@DV?$stream_output_adapter@D@__crt_stdio_output@@@2@@__crt_stdio_output@@AAE_ND@Z 10052d30 f i libucrtd:output.obj
 0001:00051e30       ?state_case_normal_tchar@?$output_processor@DV?$stream_output_adapter@D@__crt_stdio_output@@V?$standard_base@DV?$stream_output_adapter@D@__crt_stdio_output@@@2@@__crt_stdio_output@@AAE_ND@Z 10052e30 f i libucrtd:output.obj
 0001:00051f30       ?state_case_normal_tchar@?$output_processor@DV?$string_output_adapter@D@__crt_stdio_output@@V?$format_validation_base@DV?$string_output_adapter@D@__crt_stdio_output@@@2@@__crt_stdio_output@@AAE_ND@Z 10052f30 f i libucrtd:output.obj
 0001:00052030       ?state_case_normal_tchar@?$output_processor@DV?$string_output_adapter@D@__crt_stdio_output@@V?$positional_parameter_base@DV?$string_output_adapter@D@__crt_stdio_output@@@2@@__crt_stdio_output@@AAE_ND@Z 10053030 f i libucrtd:output.obj
 0001:00052130       ?state_case_normal_tchar@?$output_processor@DV?$string_output_adapter@D@__crt_stdio_output@@V?$standard_base@DV?$string_output_adapter@D@__crt_stdio_output@@@2@@__crt_stdio_output@@AAE_ND@Z 10053130 f i libucrtd:output.obj
 0001:00052230       ?state_case_normal_tchar@?$output_processor@_WV?$stream_output_adapter@_W@__crt_stdio_output@@V?$format_validation_base@_WV?$stream_output_adapter@_W@__crt_stdio_output@@@2@@__crt_stdio_output@@AAE_N_W@Z 10053230 f i libucrtd:output.obj
 0001:00052250       ?state_case_normal_tchar@?$output_processor@_WV?$stream_output_adapter@_W@__crt_stdio_output@@V?$positional_parameter_base@_WV?$stream_output_adapter@_W@__crt_stdio_output@@@2@@__crt_stdio_output@@AAE_N_W@Z 10053250 f i libucrtd:output.obj
 0001:00052270       ?state_case_normal_tchar@?$output_processor@_WV?$stream_output_adapter@_W@__crt_stdio_output@@V?$standard_base@_WV?$stream_output_adapter@_W@__crt_stdio_output@@@2@@__crt_stdio_output@@AAE_N_W@Z 10053270 f i libucrtd:output.obj
 0001:00052290       ?state_case_normal_tchar@?$output_processor@_WV?$string_output_adapter@_W@__crt_stdio_output@@V?$format_validation_base@_WV?$string_output_adapter@_W@__crt_stdio_output@@@2@@__crt_stdio_output@@AAE_N_W@Z 10053290 f i libucrtd:output.obj
 0001:000522b0       ?state_case_normal_tchar@?$output_processor@_WV?$string_output_adapter@_W@__crt_stdio_output@@V?$positional_parameter_base@_WV?$string_output_adapter@_W@__crt_stdio_output@@@2@@__crt_stdio_output@@AAE_N_W@Z 100532b0 f i libucrtd:output.obj
 0001:000522d0       ?state_case_normal_tchar@?$output_processor@_WV?$string_output_adapter@_W@__crt_stdio_output@@V?$standard_base@_WV?$string_output_adapter@_W@__crt_stdio_output@@@2@@__crt_stdio_output@@AAE_N_W@Z 100532d0 f i libucrtd:output.obj
 0001:000522f0       ?state_case_percent@?$output_processor@DV?$stream_output_adapter@D@__crt_stdio_output@@V?$format_validation_base@DV?$stream_output_adapter@D@__crt_stdio_output@@@2@@__crt_stdio_output@@AAE_NXZ 100532f0 f i libucrtd:output.obj
 0001:00052340       ?state_case_percent@?$output_processor@DV?$stream_output_adapter@D@__crt_stdio_output@@V?$positional_parameter_base@DV?$stream_output_adapter@D@__crt_stdio_output@@@2@@__crt_stdio_output@@AAE_NXZ 10053340 f i libucrtd:output.obj
 0001:00052390       ?state_case_percent@?$output_processor@DV?$stream_output_adapter@D@__crt_stdio_output@@V?$standard_base@DV?$stream_output_adapter@D@__crt_stdio_output@@@2@@__crt_stdio_output@@AAE_NXZ 10053390 f i libucrtd:output.obj
 0001:000523e0       ?state_case_percent@?$output_processor@DV?$string_output_adapter@D@__crt_stdio_output@@V?$format_validation_base@DV?$string_output_adapter@D@__crt_stdio_output@@@2@@__crt_stdio_output@@AAE_NXZ 100533e0 f i libucrtd:output.obj
 0001:00052430       ?state_case_percent@?$output_processor@DV?$string_output_adapter@D@__crt_stdio_output@@V?$positional_parameter_base@DV?$string_output_adapter@D@__crt_stdio_output@@@2@@__crt_stdio_output@@AAE_NXZ 10053430 f i libucrtd:output.obj
 0001:00052480       ?state_case_percent@?$output_processor@DV?$string_output_adapter@D@__crt_stdio_output@@V?$standard_base@DV?$string_output_adapter@D@__crt_stdio_output@@@2@@__crt_stdio_output@@AAE_NXZ 10053480 f i libucrtd:output.obj
 0001:000524d0       ?state_case_percent@?$output_processor@_WV?$stream_output_adapter@_W@__crt_stdio_output@@V?$format_validation_base@_WV?$stream_output_adapter@_W@__crt_stdio_output@@@2@@__crt_stdio_output@@AAE_NXZ 100534d0 f i libucrtd:output.obj
 0001:00052520       ?state_case_percent@?$output_processor@_WV?$stream_output_adapter@_W@__crt_stdio_output@@V?$positional_parameter_base@_WV?$stream_output_adapter@_W@__crt_stdio_output@@@2@@__crt_stdio_output@@AAE_NXZ 10053520 f i libucrtd:output.obj
 0001:00052570       ?state_case_percent@?$output_processor@_WV?$stream_output_adapter@_W@__crt_stdio_output@@V?$standard_base@_WV?$stream_output_adapter@_W@__crt_stdio_output@@@2@@__crt_stdio_output@@AAE_NXZ 10053570 f i libucrtd:output.obj
 0001:000525c0       ?state_case_percent@?$output_processor@_WV?$string_output_adapter@_W@__crt_stdio_output@@V?$format_validation_base@_WV?$string_output_adapter@_W@__crt_stdio_output@@@2@@__crt_stdio_output@@AAE_NXZ 100535c0 f i libucrtd:output.obj
 0001:00052610       ?state_case_percent@?$output_processor@_WV?$string_output_adapter@_W@__crt_stdio_output@@V?$positional_parameter_base@_WV?$string_output_adapter@_W@__crt_stdio_output@@@2@@__crt_stdio_output@@AAE_NXZ 10053610 f i libucrtd:output.obj
 0001:00052660       ?state_case_percent@?$output_processor@_WV?$string_output_adapter@_W@__crt_stdio_output@@V?$standard_base@_WV?$string_output_adapter@_W@__crt_stdio_output@@@2@@__crt_stdio_output@@AAE_NXZ 10053660 f i libucrtd:output.obj
 0001:000526b0       ?state_case_precision@?$output_processor@DV?$stream_output_adapter@D@__crt_stdio_output@@V?$format_validation_base@DV?$stream_output_adapter@D@__crt_stdio_output@@@2@@__crt_stdio_output@@AAE_NXZ 100536b0 f i libucrtd:output.obj
 0001:00052720       ?state_case_precision@?$output_processor@DV?$stream_output_adapter@D@__crt_stdio_output@@V?$positional_parameter_base@DV?$stream_output_adapter@D@__crt_stdio_output@@@2@@__crt_stdio_output@@AAE_NXZ 10053720 f i libucrtd:output.obj
 0001:00052790       ?state_case_precision@?$output_processor@DV?$stream_output_adapter@D@__crt_stdio_output@@V?$standard_base@DV?$stream_output_adapter@D@__crt_stdio_output@@@2@@__crt_stdio_output@@AAE_NXZ 10053790 f i libucrtd:output.obj
 0001:00052800       ?state_case_precision@?$output_processor@DV?$string_output_adapter@D@__crt_stdio_output@@V?$format_validation_base@DV?$string_output_adapter@D@__crt_stdio_output@@@2@@__crt_stdio_output@@AAE_NXZ 10053800 f i libucrtd:output.obj
 0001:00052870       ?state_case_precision@?$output_processor@DV?$string_output_adapter@D@__crt_stdio_output@@V?$positional_parameter_base@DV?$string_output_adapter@D@__crt_stdio_output@@@2@@__crt_stdio_output@@AAE_NXZ 10053870 f i libucrtd:output.obj
 0001:000528e0       ?state_case_precision@?$output_processor@DV?$string_output_adapter@D@__crt_stdio_output@@V?$standard_base@DV?$string_output_adapter@D@__crt_stdio_output@@@2@@__crt_stdio_output@@AAE_NXZ 100538e0 f i libucrtd:output.obj
 0001:00052950       ?state_case_precision@?$output_processor@_WV?$stream_output_adapter@_W@__crt_stdio_output@@V?$format_validation_base@_WV?$stream_output_adapter@_W@__crt_stdio_output@@@2@@__crt_stdio_output@@AAE_NXZ 10053950 f i libucrtd:output.obj
 0001:000529c0       ?state_case_precision@?$output_processor@_WV?$stream_output_adapter@_W@__crt_stdio_output@@V?$positional_parameter_base@_WV?$stream_output_adapter@_W@__crt_stdio_output@@@2@@__crt_stdio_output@@AAE_NXZ 100539c0 f i libucrtd:output.obj
 0001:00052a30       ?state_case_precision@?$output_processor@_WV?$stream_output_adapter@_W@__crt_stdio_output@@V?$standard_base@_WV?$stream_output_adapter@_W@__crt_stdio_output@@@2@@__crt_stdio_output@@AAE_NXZ 10053a30 f i libucrtd:output.obj
 0001:00052aa0       ?state_case_precision@?$output_processor@_WV?$string_output_adapter@_W@__crt_stdio_output@@V?$format_validation_base@_WV?$string_output_adapter@_W@__crt_stdio_output@@@2@@__crt_stdio_output@@AAE_NXZ 10053aa0 f i libucrtd:output.obj
 0001:00052b10       ?state_case_precision@?$output_processor@_WV?$string_output_adapter@_W@__crt_stdio_output@@V?$positional_parameter_base@_WV?$string_output_adapter@_W@__crt_stdio_output@@@2@@__crt_stdio_output@@AAE_NXZ 10053b10 f i libucrtd:output.obj
 0001:00052b80       ?state_case_precision@?$output_processor@_WV?$string_output_adapter@_W@__crt_stdio_output@@V?$standard_base@_WV?$string_output_adapter@_W@__crt_stdio_output@@@2@@__crt_stdio_output@@AAE_NXZ 10053b80 f i libucrtd:output.obj
 0001:00052bf0       ?state_case_size@?$output_processor@DV?$stream_output_adapter@D@__crt_stdio_output@@V?$format_validation_base@DV?$stream_output_adapter@D@__crt_stdio_output@@@2@@__crt_stdio_output@@AAE_NXZ 10053bf0 f i libucrtd:output.obj
 0001:00052fc0       ?state_case_size@?$output_processor@DV?$stream_output_adapter@D@__crt_stdio_output@@V?$positional_parameter_base@DV?$stream_output_adapter@D@__crt_stdio_output@@@2@@__crt_stdio_output@@AAE_NXZ 10053fc0 f i libucrtd:output.obj
 0001:00053390       ?state_case_size@?$output_processor@DV?$stream_output_adapter@D@__crt_stdio_output@@V?$standard_base@DV?$stream_output_adapter@D@__crt_stdio_output@@@2@@__crt_stdio_output@@AAE_NXZ 10054390 f i libucrtd:output.obj
 0001:00053760       ?state_case_size@?$output_processor@DV?$string_output_adapter@D@__crt_stdio_output@@V?$format_validation_base@DV?$string_output_adapter@D@__crt_stdio_output@@@2@@__crt_stdio_output@@AAE_NXZ 10054760 f i libucrtd:output.obj
 0001:00053b30       ?state_case_size@?$output_processor@DV?$string_output_adapter@D@__crt_stdio_output@@V?$positional_parameter_base@DV?$string_output_adapter@D@__crt_stdio_output@@@2@@__crt_stdio_output@@AAE_NXZ 10054b30 f i libucrtd:output.obj
 0001:00053f00       ?state_case_size@?$output_processor@DV?$string_output_adapter@D@__crt_stdio_output@@V?$standard_base@DV?$string_output_adapter@D@__crt_stdio_output@@@2@@__crt_stdio_output@@AAE_NXZ 10054f00 f i libucrtd:output.obj
 0001:000542d0       ?state_case_size@?$output_processor@_WV?$stream_output_adapter@_W@__crt_stdio_output@@V?$format_validation_base@_WV?$stream_output_adapter@_W@__crt_stdio_output@@@2@@__crt_stdio_output@@AAE_NXZ 100552d0 f i libucrtd:output.obj
 0001:000546a0       ?state_case_size@?$output_processor@_WV?$stream_output_adapter@_W@__crt_stdio_output@@V?$positional_parameter_base@_WV?$stream_output_adapter@_W@__crt_stdio_output@@@2@@__crt_stdio_output@@AAE_NXZ 100556a0 f i libucrtd:output.obj
 0001:00054a70       ?state_case_size@?$output_processor@_WV?$stream_output_adapter@_W@__crt_stdio_output@@V?$standard_base@_WV?$stream_output_adapter@_W@__crt_stdio_output@@@2@@__crt_stdio_output@@AAE_NXZ 10055a70 f i libucrtd:output.obj
 0001:00054e40       ?state_case_size@?$output_processor@_WV?$string_output_adapter@_W@__crt_stdio_output@@V?$format_validation_base@_WV?$string_output_adapter@_W@__crt_stdio_output@@@2@@__crt_stdio_output@@AAE_NXZ 10055e40 f i libucrtd:output.obj
 0001:00055210       ?state_case_size@?$output_processor@_WV?$string_output_adapter@_W@__crt_stdio_output@@V?$positional_parameter_base@_WV?$string_output_adapter@_W@__crt_stdio_output@@@2@@__crt_stdio_output@@AAE_NXZ 10056210 f i libucrtd:output.obj
 0001:000555e0       ?state_case_size@?$output_processor@_WV?$string_output_adapter@_W@__crt_stdio_output@@V?$standard_base@_WV?$string_output_adapter@_W@__crt_stdio_output@@@2@@__crt_stdio_output@@AAE_NXZ 100565e0 f i libucrtd:output.obj
 0001:000559b0       ?state_case_type@?$output_processor@DV?$stream_output_adapter@D@__crt_stdio_output@@V?$format_validation_base@DV?$stream_output_adapter@D@__crt_stdio_output@@@2@@__crt_stdio_output@@AAE_NXZ 100569b0 f i libucrtd:output.obj
 0001:00055d60       ?state_case_type@?$output_processor@DV?$stream_output_adapter@D@__crt_stdio_output@@V?$positional_parameter_base@DV?$stream_output_adapter@D@__crt_stdio_output@@@2@@__crt_stdio_output@@AAE_NXZ 10056d60 f i libucrtd:output.obj
 0001:00056110       ?state_case_type@?$output_processor@DV?$stream_output_adapter@D@__crt_stdio_output@@V?$standard_base@DV?$stream_output_adapter@D@__crt_stdio_output@@@2@@__crt_stdio_output@@AAE_NXZ 10057110 f i libucrtd:output.obj
 0001:000564c0       ?state_case_type@?$output_processor@DV?$string_output_adapter@D@__crt_stdio_output@@V?$format_validation_base@DV?$string_output_adapter@D@__crt_stdio_output@@@2@@__crt_stdio_output@@AAE_NXZ 100574c0 f i libucrtd:output.obj
 0001:00056870       ?state_case_type@?$output_processor@DV?$string_output_adapter@D@__crt_stdio_output@@V?$positional_parameter_base@DV?$string_output_adapter@D@__crt_stdio_output@@@2@@__crt_stdio_output@@AAE_NXZ 10057870 f i libucrtd:output.obj
 0001:00056c20       ?state_case_type@?$output_processor@DV?$string_output_adapter@D@__crt_stdio_output@@V?$standard_base@DV?$string_output_adapter@D@__crt_stdio_output@@@2@@__crt_stdio_output@@AAE_NXZ 10057c20 f i libucrtd:output.obj
 0001:00056fd0       ?state_case_type@?$output_processor@_WV?$stream_output_adapter@_W@__crt_stdio_output@@V?$format_validation_base@_WV?$stream_output_adapter@_W@__crt_stdio_output@@@2@@__crt_stdio_output@@AAE_NXZ 10057fd0 f i libucrtd:output.obj
 0001:000573b0       ?state_case_type@?$output_processor@_WV?$stream_output_adapter@_W@__crt_stdio_output@@V?$positional_parameter_base@_WV?$stream_output_adapter@_W@__crt_stdio_output@@@2@@__crt_stdio_output@@AAE_NXZ 100583b0 f i libucrtd:output.obj
 0001:00057790       ?state_case_type@?$output_processor@_WV?$stream_output_adapter@_W@__crt_stdio_output@@V?$standard_base@_WV?$stream_output_adapter@_W@__crt_stdio_output@@@2@@__crt_stdio_output@@AAE_NXZ 10058790 f i libucrtd:output.obj
 0001:00057b70       ?state_case_type@?$output_processor@_WV?$string_output_adapter@_W@__crt_stdio_output@@V?$format_validation_base@_WV?$string_output_adapter@_W@__crt_stdio_output@@@2@@__crt_stdio_output@@AAE_NXZ 10058b70 f i libucrtd:output.obj
 0001:00057f50       ?state_case_type@?$output_processor@_WV?$string_output_adapter@_W@__crt_stdio_output@@V?$positional_parameter_base@_WV?$string_output_adapter@_W@__crt_stdio_output@@@2@@__crt_stdio_output@@AAE_NXZ 10058f50 f i libucrtd:output.obj
 0001:00058330       ?state_case_type@?$output_processor@_WV?$string_output_adapter@_W@__crt_stdio_output@@V?$standard_base@_WV?$string_output_adapter@_W@__crt_stdio_output@@@2@@__crt_stdio_output@@AAE_NXZ 10059330 f i libucrtd:output.obj
 0001:00058710       ?state_case_width@?$output_processor@DV?$stream_output_adapter@D@__crt_stdio_output@@V?$format_validation_base@DV?$stream_output_adapter@D@__crt_stdio_output@@@2@@__crt_stdio_output@@AAE_NXZ 10059710 f i libucrtd:output.obj
 0001:00058790       ?state_case_width@?$output_processor@DV?$stream_output_adapter@D@__crt_stdio_output@@V?$positional_parameter_base@DV?$stream_output_adapter@D@__crt_stdio_output@@@2@@__crt_stdio_output@@AAE_NXZ 10059790 f i libucrtd:output.obj
 0001:00058810       ?state_case_width@?$output_processor@DV?$stream_output_adapter@D@__crt_stdio_output@@V?$standard_base@DV?$stream_output_adapter@D@__crt_stdio_output@@@2@@__crt_stdio_output@@AAE_NXZ 10059810 f i libucrtd:output.obj
 0001:00058890       ?state_case_width@?$output_processor@DV?$string_output_adapter@D@__crt_stdio_output@@V?$format_validation_base@DV?$string_output_adapter@D@__crt_stdio_output@@@2@@__crt_stdio_output@@AAE_NXZ 10059890 f i libucrtd:output.obj
 0001:00058910       ?state_case_width@?$output_processor@DV?$string_output_adapter@D@__crt_stdio_output@@V?$positional_parameter_base@DV?$string_output_adapter@D@__crt_stdio_output@@@2@@__crt_stdio_output@@AAE_NXZ 10059910 f i libucrtd:output.obj
 0001:00058990       ?state_case_width@?$output_processor@DV?$string_output_adapter@D@__crt_stdio_output@@V?$standard_base@DV?$string_output_adapter@D@__crt_stdio_output@@@2@@__crt_stdio_output@@AAE_NXZ 10059990 f i libucrtd:output.obj
 0001:00058a10       ?state_case_width@?$output_processor@_WV?$stream_output_adapter@_W@__crt_stdio_output@@V?$format_validation_base@_WV?$stream_output_adapter@_W@__crt_stdio_output@@@2@@__crt_stdio_output@@AAE_NXZ 10059a10 f i libucrtd:output.obj
 0001:00058a90       ?state_case_width@?$output_processor@_WV?$stream_output_adapter@_W@__crt_stdio_output@@V?$positional_parameter_base@_WV?$stream_output_adapter@_W@__crt_stdio_output@@@2@@__crt_stdio_output@@AAE_NXZ 10059a90 f i libucrtd:output.obj
 0001:00058b10       ?state_case_width@?$output_processor@_WV?$stream_output_adapter@_W@__crt_stdio_output@@V?$standard_base@_WV?$stream_output_adapter@_W@__crt_stdio_output@@@2@@__crt_stdio_output@@AAE_NXZ 10059b10 f i libucrtd:output.obj
 0001:00058b90       ?state_case_width@?$output_processor@_WV?$string_output_adapter@_W@__crt_stdio_output@@V?$format_validation_base@_WV?$string_output_adapter@_W@__crt_stdio_output@@@2@@__crt_stdio_output@@AAE_NXZ 10059b90 f i libucrtd:output.obj
 0001:00058c10       ?state_case_width@?$output_processor@_WV?$string_output_adapter@_W@__crt_stdio_output@@V?$positional_parameter_base@_WV?$string_output_adapter@_W@__crt_stdio_output@@@2@@__crt_stdio_output@@AAE_NXZ 10059c10 f i libucrtd:output.obj
 0001:00058c90       ?state_case_width@?$output_processor@_WV?$string_output_adapter@_W@__crt_stdio_output@@V?$standard_base@_WV?$string_output_adapter@_W@__crt_stdio_output@@@2@@__crt_stdio_output@@AAE_NXZ 10059c90 f i libucrtd:output.obj
 0001:00058d10       ?state_count@?$format_validation_base@DV?$stream_output_adapter@D@__crt_stdio_output@@@__crt_stdio_output@@KAIXZ 10059d10 f i libucrtd:output.obj
 0001:00058d20       ?state_count@?$format_validation_base@DV?$string_output_adapter@D@__crt_stdio_output@@@__crt_stdio_output@@KAIXZ 10059d20 f i libucrtd:output.obj
 0001:00058d30       ?state_count@?$format_validation_base@_WV?$stream_output_adapter@_W@__crt_stdio_output@@@__crt_stdio_output@@KAIXZ 10059d30 f i libucrtd:output.obj
 0001:00058d40       ?state_count@?$format_validation_base@_WV?$string_output_adapter@_W@__crt_stdio_output@@@__crt_stdio_output@@KAIXZ 10059d40 f i libucrtd:output.obj
 0001:00058d50       ?state_count@?$standard_base@DV?$stream_output_adapter@D@__crt_stdio_output@@@__crt_stdio_output@@KAIXZ 10059d50 f i libucrtd:output.obj
 0001:00058d60       ?state_count@?$standard_base@DV?$string_output_adapter@D@__crt_stdio_output@@@__crt_stdio_output@@KAIXZ 10059d60 f i libucrtd:output.obj
 0001:00058d70       ?state_count@?$standard_base@_WV?$stream_output_adapter@_W@__crt_stdio_output@@@__crt_stdio_output@@KAIXZ 10059d70 f i libucrtd:output.obj
 0001:00058d80       ?state_count@?$standard_base@_WV?$string_output_adapter@_W@__crt_stdio_output@@@__crt_stdio_output@@KAIXZ 10059d80 f i libucrtd:output.obj
 0001:00058d90       ?state_transition_table@?$format_validation_base@DV?$stream_output_adapter@D@__crt_stdio_output@@@__crt_stdio_output@@KAABV?$spectre_mitigated_lookup_table@Ustate_transition_pair@__crt_stdio_output@@$0IA@@2@XZ 10059d90 f i libucrtd:output.obj
 0001:00058da0       ?state_transition_table@?$format_validation_base@DV?$string_output_adapter@D@__crt_stdio_output@@@__crt_stdio_output@@KAABV?$spectre_mitigated_lookup_table@Ustate_transition_pair@__crt_stdio_output@@$0IA@@2@XZ 10059da0 f i libucrtd:output.obj
 0001:00058db0       ?state_transition_table@?$format_validation_base@_WV?$stream_output_adapter@_W@__crt_stdio_output@@@__crt_stdio_output@@KAABV?$spectre_mitigated_lookup_table@Ustate_transition_pair@__crt_stdio_output@@$0IA@@2@XZ 10059db0 f i libucrtd:output.obj
 0001:00058dc0       ?state_transition_table@?$format_validation_base@_WV?$string_output_adapter@_W@__crt_stdio_output@@@__crt_stdio_output@@KAABV?$spectre_mitigated_lookup_table@Ustate_transition_pair@__crt_stdio_output@@$0IA@@2@XZ 10059dc0 f i libucrtd:output.obj
 0001:00058dd0       ?state_transition_table@?$standard_base@DV?$stream_output_adapter@D@__crt_stdio_output@@@__crt_stdio_output@@KAABV?$spectre_mitigated_lookup_table@Ustate_transition_pair@__crt_stdio_output@@$0IA@@2@XZ 10059dd0 f i libucrtd:output.obj
 0001:00058de0       ?state_transition_table@?$standard_base@DV?$string_output_adapter@D@__crt_stdio_output@@@__crt_stdio_output@@KAABV?$spectre_mitigated_lookup_table@Ustate_transition_pair@__crt_stdio_output@@$0IA@@2@XZ 10059de0 f i libucrtd:output.obj
 0001:00058df0       ?state_transition_table@?$standard_base@_WV?$stream_output_adapter@_W@__crt_stdio_output@@@__crt_stdio_output@@KAABV?$spectre_mitigated_lookup_table@Ustate_transition_pair@__crt_stdio_output@@$0IA@@2@XZ 10059df0 f i libucrtd:output.obj
 0001:00058e00       ?state_transition_table@?$standard_base@_WV?$string_output_adapter@_W@__crt_stdio_output@@@__crt_stdio_output@@KAABV?$spectre_mitigated_lookup_table@Ustate_transition_pair@__crt_stdio_output@@$0IA@@2@XZ 10059e00 f i libucrtd:output.obj
 0001:00058e10       ?tchar_string@?$common_data@D@__crt_stdio_output@@IAEAAPADD@Z 10059e10 f i libucrtd:output.obj
 0001:00058e30       ?tchar_string@?$common_data@D@__crt_stdio_output@@IAEAAPADXZ 10059e30 f i libucrtd:output.obj
 0001:00058e50       ?tchar_string@?$common_data@_W@__crt_stdio_output@@IAEAAPA_WXZ 10059e50 f i libucrtd:output.obj
 0001:00058e70       ?tchar_string@?$common_data@_W@__crt_stdio_output@@IAEAAPA_W_W@Z 10059e70 f i libucrtd:output.obj
 0001:00058e90       ?to_integer_size@__crt_stdio_output@@YAIW4length_modifier@1@@Z 10059e90 f i libucrtd:output.obj
 0001:00058f30       ?type_case_X@?$output_processor@DV?$stream_output_adapter@D@__crt_stdio_output@@V?$format_validation_base@DV?$stream_output_adapter@D@__crt_stdio_output@@@2@@__crt_stdio_output@@AAE_NXZ 10059f30 f i libucrtd:output.obj
 0001:00058f50       ?type_case_X@?$output_processor@DV?$stream_output_adapter@D@__crt_stdio_output@@V?$positional_parameter_base@DV?$stream_output_adapter@D@__crt_stdio_output@@@2@@__crt_stdio_output@@AAE_NXZ 10059f50 f i libucrtd:output.obj
 0001:00058f70       ?type_case_X@?$output_processor@DV?$stream_output_adapter@D@__crt_stdio_output@@V?$standard_base@DV?$stream_output_adapter@D@__crt_stdio_output@@@2@@__crt_stdio_output@@AAE_NXZ 10059f70 f i libucrtd:output.obj
 0001:00058f90       ?type_case_X@?$output_processor@DV?$string_output_adapter@D@__crt_stdio_output@@V?$format_validation_base@DV?$string_output_adapter@D@__crt_stdio_output@@@2@@__crt_stdio_output@@AAE_NXZ 10059f90 f i libucrtd:output.obj
 0001:00058fb0       ?type_case_X@?$output_processor@DV?$string_output_adapter@D@__crt_stdio_output@@V?$positional_parameter_base@DV?$string_output_adapter@D@__crt_stdio_output@@@2@@__crt_stdio_output@@AAE_NXZ 10059fb0 f i libucrtd:output.obj
 0001:00058fd0       ?type_case_X@?$output_processor@DV?$string_output_adapter@D@__crt_stdio_output@@V?$standard_base@DV?$string_output_adapter@D@__crt_stdio_output@@@2@@__crt_stdio_output@@AAE_NXZ 10059fd0 f i libucrtd:output.obj
 0001:00058ff0       ?type_case_X@?$output_processor@_WV?$stream_output_adapter@_W@__crt_stdio_output@@V?$format_validation_base@_WV?$stream_output_adapter@_W@__crt_stdio_output@@@2@@__crt_stdio_output@@AAE_NXZ 10059ff0 f i libucrtd:output.obj
 0001:00059010       ?type_case_X@?$output_processor@_WV?$stream_output_adapter@_W@__crt_stdio_output@@V?$positional_parameter_base@_WV?$stream_output_adapter@_W@__crt_stdio_output@@@2@@__crt_stdio_output@@AAE_NXZ 1005a010 f i libucrtd:output.obj
 0001:00059030       ?type_case_X@?$output_processor@_WV?$stream_output_adapter@_W@__crt_stdio_output@@V?$standard_base@_WV?$stream_output_adapter@_W@__crt_stdio_output@@@2@@__crt_stdio_output@@AAE_NXZ 1005a030 f i libucrtd:output.obj
 0001:00059050       ?type_case_X@?$output_processor@_WV?$string_output_adapter@_W@__crt_stdio_output@@V?$format_validation_base@_WV?$string_output_adapter@_W@__crt_stdio_output@@@2@@__crt_stdio_output@@AAE_NXZ 1005a050 f i libucrtd:output.obj
 0001:00059070       ?type_case_X@?$output_processor@_WV?$string_output_adapter@_W@__crt_stdio_output@@V?$positional_parameter_base@_WV?$string_output_adapter@_W@__crt_stdio_output@@@2@@__crt_stdio_output@@AAE_NXZ 1005a070 f i libucrtd:output.obj
 0001:00059090       ?type_case_X@?$output_processor@_WV?$string_output_adapter@_W@__crt_stdio_output@@V?$standard_base@_WV?$string_output_adapter@_W@__crt_stdio_output@@@2@@__crt_stdio_output@@AAE_NXZ 1005a090 f i libucrtd:output.obj
 0001:000590b0       ?type_case_Z@?$output_processor@DV?$stream_output_adapter@D@__crt_stdio_output@@V?$format_validation_base@DV?$stream_output_adapter@D@__crt_stdio_output@@@2@@__crt_stdio_output@@AAE_NXZ 1005a0b0 f i libucrtd:output.obj
 0001:000591a0       ?type_case_Z@?$output_processor@DV?$stream_output_adapter@D@__crt_stdio_output@@V?$positional_parameter_base@DV?$stream_output_adapter@D@__crt_stdio_output@@@2@@__crt_stdio_output@@AAE_NXZ 1005a1a0 f i libucrtd:output.obj
 0001:00059290       ?type_case_Z@?$output_processor@DV?$stream_output_adapter@D@__crt_stdio_output@@V?$standard_base@DV?$stream_output_adapter@D@__crt_stdio_output@@@2@@__crt_stdio_output@@AAE_NXZ 1005a290 f i libucrtd:output.obj
 0001:00059380       ?type_case_Z@?$output_processor@DV?$string_output_adapter@D@__crt_stdio_output@@V?$format_validation_base@DV?$string_output_adapter@D@__crt_stdio_output@@@2@@__crt_stdio_output@@AAE_NXZ 1005a380 f i libucrtd:output.obj
 0001:00059470       ?type_case_Z@?$output_processor@DV?$string_output_adapter@D@__crt_stdio_output@@V?$positional_parameter_base@DV?$string_output_adapter@D@__crt_stdio_output@@@2@@__crt_stdio_output@@AAE_NXZ 1005a470 f i libucrtd:output.obj
 0001:00059560       ?type_case_Z@?$output_processor@DV?$string_output_adapter@D@__crt_stdio_output@@V?$standard_base@DV?$string_output_adapter@D@__crt_stdio_output@@@2@@__crt_stdio_output@@AAE_NXZ 1005a560 f i libucrtd:output.obj
 0001:00059650       ?type_case_Z@?$output_processor@_WV?$stream_output_adapter@_W@__crt_stdio_output@@V?$format_validation_base@_WV?$stream_output_adapter@_W@__crt_stdio_output@@@2@@__crt_stdio_output@@AAE_NXZ 1005a650 f i libucrtd:output.obj
 0001:00059740       ?type_case_Z@?$output_processor@_WV?$stream_output_adapter@_W@__crt_stdio_output@@V?$positional_parameter_base@_WV?$stream_output_adapter@_W@__crt_stdio_output@@@2@@__crt_stdio_output@@AAE_NXZ 1005a740 f i libucrtd:output.obj
 0001:00059830       ?type_case_Z@?$output_processor@_WV?$stream_output_adapter@_W@__crt_stdio_output@@V?$standard_base@_WV?$stream_output_adapter@_W@__crt_stdio_output@@@2@@__crt_stdio_output@@AAE_NXZ 1005a830 f i libucrtd:output.obj
 0001:00059920       ?type_case_Z@?$output_processor@_WV?$string_output_adapter@_W@__crt_stdio_output@@V?$format_validation_base@_WV?$string_output_adapter@_W@__crt_stdio_output@@@2@@__crt_stdio_output@@AAE_NXZ 1005a920 f i libucrtd:output.obj
 0001:00059a10       ?type_case_Z@?$output_processor@_WV?$string_output_adapter@_W@__crt_stdio_output@@V?$positional_parameter_base@_WV?$string_output_adapter@_W@__crt_stdio_output@@@2@@__crt_stdio_output@@AAE_NXZ 1005aa10 f i libucrtd:output.obj
 0001:00059b00       ?type_case_Z@?$output_processor@_WV?$string_output_adapter@_W@__crt_stdio_output@@V?$standard_base@_WV?$string_output_adapter@_W@__crt_stdio_output@@@2@@__crt_stdio_output@@AAE_NXZ 1005ab00 f i libucrtd:output.obj
 0001:00059bf0       ?type_case_a@?$output_processor@DV?$stream_output_adapter@D@__crt_stdio_output@@V?$format_validation_base@DV?$stream_output_adapter@D@__crt_stdio_output@@@2@@__crt_stdio_output@@AAE_NXZ 1005abf0 f i libucrtd:output.obj
 0001:00059e60       ?type_case_a@?$output_processor@DV?$stream_output_adapter@D@__crt_stdio_output@@V?$positional_parameter_base@DV?$stream_output_adapter@D@__crt_stdio_output@@@2@@__crt_stdio_output@@AAE_NXZ 1005ae60 f i libucrtd:output.obj
 0001:0005a0d0       ?type_case_a@?$output_processor@DV?$stream_output_adapter@D@__crt_stdio_output@@V?$standard_base@DV?$stream_output_adapter@D@__crt_stdio_output@@@2@@__crt_stdio_output@@AAE_NXZ 1005b0d0 f i libucrtd:output.obj
 0001:0005a340       ?type_case_a@?$output_processor@DV?$string_output_adapter@D@__crt_stdio_output@@V?$format_validation_base@DV?$string_output_adapter@D@__crt_stdio_output@@@2@@__crt_stdio_output@@AAE_NXZ 1005b340 f i libucrtd:output.obj
 0001:0005a5b0       ?type_case_a@?$output_processor@DV?$string_output_adapter@D@__crt_stdio_output@@V?$positional_parameter_base@DV?$string_output_adapter@D@__crt_stdio_output@@@2@@__crt_stdio_output@@AAE_NXZ 1005b5b0 f i libucrtd:output.obj
 0001:0005a820       ?type_case_a@?$output_processor@DV?$string_output_adapter@D@__crt_stdio_output@@V?$standard_base@DV?$string_output_adapter@D@__crt_stdio_output@@@2@@__crt_stdio_output@@AAE_NXZ 1005b820 f i libucrtd:output.obj
 0001:0005aa90       ?type_case_a@?$output_processor@_WV?$stream_output_adapter@_W@__crt_stdio_output@@V?$format_validation_base@_WV?$stream_output_adapter@_W@__crt_stdio_output@@@2@@__crt_stdio_output@@AAE_NXZ 1005ba90 f i libucrtd:output.obj
 0001:0005ad00       ?type_case_a@?$output_processor@_WV?$stream_output_adapter@_W@__crt_stdio_output@@V?$positional_parameter_base@_WV?$stream_output_adapter@_W@__crt_stdio_output@@@2@@__crt_stdio_output@@AAE_NXZ 1005bd00 f i libucrtd:output.obj
 0001:0005af70       ?type_case_a@?$output_processor@_WV?$stream_output_adapter@_W@__crt_stdio_output@@V?$standard_base@_WV?$stream_output_adapter@_W@__crt_stdio_output@@@2@@__crt_stdio_output@@AAE_NXZ 1005bf70 f i libucrtd:output.obj
 0001:0005b1e0       ?type_case_a@?$output_processor@_WV?$string_output_adapter@_W@__crt_stdio_output@@V?$format_validation_base@_WV?$string_output_adapter@_W@__crt_stdio_output@@@2@@__crt_stdio_output@@AAE_NXZ 1005c1e0 f i libucrtd:output.obj
 0001:0005b450       ?type_case_a@?$output_processor@_WV?$string_output_adapter@_W@__crt_stdio_output@@V?$positional_parameter_base@_WV?$string_output_adapter@_W@__crt_stdio_output@@@2@@__crt_stdio_output@@AAE_NXZ 1005c450 f i libucrtd:output.obj
 0001:0005b6c0       ?type_case_a@?$output_processor@_WV?$string_output_adapter@_W@__crt_stdio_output@@V?$standard_base@_WV?$string_output_adapter@_W@__crt_stdio_output@@@2@@__crt_stdio_output@@AAE_NXZ 1005c6c0 f i libucrtd:output.obj
 0001:0005b930       ?type_case_c@?$output_processor@DV?$stream_output_adapter@D@__crt_stdio_output@@V?$format_validation_base@DV?$stream_output_adapter@D@__crt_stdio_output@@@2@@__crt_stdio_output@@AAE_NXZ 1005c930 f i libucrtd:output.obj
 0001:0005b950       ?type_case_c@?$output_processor@DV?$stream_output_adapter@D@__crt_stdio_output@@V?$positional_parameter_base@DV?$stream_output_adapter@D@__crt_stdio_output@@@2@@__crt_stdio_output@@AAE_NXZ 1005c950 f i libucrtd:output.obj
 0001:0005b970       ?type_case_c@?$output_processor@DV?$stream_output_adapter@D@__crt_stdio_output@@V?$standard_base@DV?$stream_output_adapter@D@__crt_stdio_output@@@2@@__crt_stdio_output@@AAE_NXZ 1005c970 f i libucrtd:output.obj
 0001:0005b990       ?type_case_c@?$output_processor@DV?$string_output_adapter@D@__crt_stdio_output@@V?$format_validation_base@DV?$string_output_adapter@D@__crt_stdio_output@@@2@@__crt_stdio_output@@AAE_NXZ 1005c990 f i libucrtd:output.obj
 0001:0005b9b0       ?type_case_c@?$output_processor@DV?$string_output_adapter@D@__crt_stdio_output@@V?$positional_parameter_base@DV?$string_output_adapter@D@__crt_stdio_output@@@2@@__crt_stdio_output@@AAE_NXZ 1005c9b0 f i libucrtd:output.obj
 0001:0005b9d0       ?type_case_c@?$output_processor@DV?$string_output_adapter@D@__crt_stdio_output@@V?$standard_base@DV?$string_output_adapter@D@__crt_stdio_output@@@2@@__crt_stdio_output@@AAE_NXZ 1005c9d0 f i libucrtd:output.obj
 0001:0005b9f0       ?type_case_c@?$output_processor@_WV?$stream_output_adapter@_W@__crt_stdio_output@@V?$format_validation_base@_WV?$stream_output_adapter@_W@__crt_stdio_output@@@2@@__crt_stdio_output@@AAE_NXZ 1005c9f0 f i libucrtd:output.obj
 0001:0005ba10       ?type_case_c@?$output_processor@_WV?$stream_output_adapter@_W@__crt_stdio_output@@V?$positional_parameter_base@_WV?$stream_output_adapter@_W@__crt_stdio_output@@@2@@__crt_stdio_output@@AAE_NXZ 1005ca10 f i libucrtd:output.obj
 0001:0005ba30       ?type_case_c@?$output_processor@_WV?$stream_output_adapter@_W@__crt_stdio_output@@V?$standard_base@_WV?$stream_output_adapter@_W@__crt_stdio_output@@@2@@__crt_stdio_output@@AAE_NXZ 1005ca30 f i libucrtd:output.obj
 0001:0005ba50       ?type_case_c@?$output_processor@_WV?$string_output_adapter@_W@__crt_stdio_output@@V?$format_validation_base@_WV?$string_output_adapter@_W@__crt_stdio_output@@@2@@__crt_stdio_output@@AAE_NXZ 1005ca50 f i libucrtd:output.obj
 0001:0005ba70       ?type_case_c@?$output_processor@_WV?$string_output_adapter@_W@__crt_stdio_output@@V?$positional_parameter_base@_WV?$string_output_adapter@_W@__crt_stdio_output@@@2@@__crt_stdio_output@@AAE_NXZ 1005ca70 f i libucrtd:output.obj
 0001:0005ba90       ?type_case_c@?$output_processor@_WV?$string_output_adapter@_W@__crt_stdio_output@@V?$standard_base@_WV?$string_output_adapter@_W@__crt_stdio_output@@@2@@__crt_stdio_output@@AAE_NXZ 1005ca90 f i libucrtd:output.obj
 0001:0005bab0       ?type_case_c_tchar@?$output_processor@DV?$stream_output_adapter@D@__crt_stdio_output@@V?$format_validation_base@DV?$stream_output_adapter@D@__crt_stdio_output@@@2@@__crt_stdio_output@@AAE_ND@Z 1005cab0 f i libucrtd:output.obj
 0001:0005bbc0       ?type_case_c_tchar@?$output_processor@DV?$stream_output_adapter@D@__crt_stdio_output@@V?$positional_parameter_base@DV?$stream_output_adapter@D@__crt_stdio_output@@@2@@__crt_stdio_output@@AAE_ND@Z 1005cbc0 f i libucrtd:output.obj
 0001:0005bcd0       ?type_case_c_tchar@?$output_processor@DV?$stream_output_adapter@D@__crt_stdio_output@@V?$standard_base@DV?$stream_output_adapter@D@__crt_stdio_output@@@2@@__crt_stdio_output@@AAE_ND@Z 1005ccd0 f i libucrtd:output.obj
 0001:0005bde0       ?type_case_c_tchar@?$output_processor@DV?$string_output_adapter@D@__crt_stdio_output@@V?$format_validation_base@DV?$string_output_adapter@D@__crt_stdio_output@@@2@@__crt_stdio_output@@AAE_ND@Z 1005cde0 f i libucrtd:output.obj
 0001:0005bef0       ?type_case_c_tchar@?$output_processor@DV?$string_output_adapter@D@__crt_stdio_output@@V?$positional_parameter_base@DV?$string_output_adapter@D@__crt_stdio_output@@@2@@__crt_stdio_output@@AAE_ND@Z 1005cef0 f i libucrtd:output.obj
 0001:0005c000       ?type_case_c_tchar@?$output_processor@DV?$string_output_adapter@D@__crt_stdio_output@@V?$standard_base@DV?$string_output_adapter@D@__crt_stdio_output@@@2@@__crt_stdio_output@@AAE_ND@Z 1005d000 f i libucrtd:output.obj
 0001:0005c110       ?type_case_c_tchar@?$output_processor@_WV?$stream_output_adapter@_W@__crt_stdio_output@@V?$format_validation_base@_WV?$stream_output_adapter@_W@__crt_stdio_output@@@2@@__crt_stdio_output@@AAE_N_W@Z 1005d110 f i libucrtd:output.obj
 0001:0005c210       ?type_case_c_tchar@?$output_processor@_WV?$stream_output_adapter@_W@__crt_stdio_output@@V?$positional_parameter_base@_WV?$stream_output_adapter@_W@__crt_stdio_output@@@2@@__crt_stdio_output@@AAE_N_W@Z 1005d210 f i libucrtd:output.obj
 0001:0005c310       ?type_case_c_tchar@?$output_processor@_WV?$stream_output_adapter@_W@__crt_stdio_output@@V?$standard_base@_WV?$stream_output_adapter@_W@__crt_stdio_output@@@2@@__crt_stdio_output@@AAE_N_W@Z 1005d310 f i libucrtd:output.obj
 0001:0005c410       ?type_case_c_tchar@?$output_processor@_WV?$string_output_adapter@_W@__crt_stdio_output@@V?$format_validation_base@_WV?$string_output_adapter@_W@__crt_stdio_output@@@2@@__crt_stdio_output@@AAE_N_W@Z 1005d410 f i libucrtd:output.obj
 0001:0005c510       ?type_case_c_tchar@?$output_processor@_WV?$string_output_adapter@_W@__crt_stdio_output@@V?$positional_parameter_base@_WV?$string_output_adapter@_W@__crt_stdio_output@@@2@@__crt_stdio_output@@AAE_N_W@Z 1005d510 f i libucrtd:output.obj
 0001:0005c610       ?type_case_c_tchar@?$output_processor@_WV?$string_output_adapter@_W@__crt_stdio_output@@V?$standard_base@_WV?$string_output_adapter@_W@__crt_stdio_output@@@2@@__crt_stdio_output@@AAE_N_W@Z 1005d610 f i libucrtd:output.obj
 0001:0005c710       ?type_case_d@?$output_processor@DV?$stream_output_adapter@D@__crt_stdio_output@@V?$format_validation_base@DV?$stream_output_adapter@D@__crt_stdio_output@@@2@@__crt_stdio_output@@AAE_NXZ 1005d710 f i libucrtd:output.obj
 0001:0005c740       ?type_case_d@?$output_processor@DV?$stream_output_adapter@D@__crt_stdio_output@@V?$positional_parameter_base@DV?$stream_output_adapter@D@__crt_stdio_output@@@2@@__crt_stdio_output@@AAE_NXZ 1005d740 f i libucrtd:output.obj
 0001:0005c770       ?type_case_d@?$output_processor@DV?$stream_output_adapter@D@__crt_stdio_output@@V?$standard_base@DV?$stream_output_adapter@D@__crt_stdio_output@@@2@@__crt_stdio_output@@AAE_NXZ 1005d770 f i libucrtd:output.obj
 0001:0005c7a0       ?type_case_d@?$output_processor@DV?$string_output_adapter@D@__crt_stdio_output@@V?$format_validation_base@DV?$string_output_adapter@D@__crt_stdio_output@@@2@@__crt_stdio_output@@AAE_NXZ 1005d7a0 f i libucrtd:output.obj
 0001:0005c7d0       ?type_case_d@?$output_processor@DV?$string_output_adapter@D@__crt_stdio_output@@V?$positional_parameter_base@DV?$string_output_adapter@D@__crt_stdio_output@@@2@@__crt_stdio_output@@AAE_NXZ 1005d7d0 f i libucrtd:output.obj
 0001:0005c800       ?type_case_d@?$output_processor@DV?$string_output_adapter@D@__crt_stdio_output@@V?$standard_base@DV?$string_output_adapter@D@__crt_stdio_output@@@2@@__crt_stdio_output@@AAE_NXZ 1005d800 f i libucrtd:output.obj
 0001:0005c830       ?type_case_d@?$output_processor@_WV?$stream_output_adapter@_W@__crt_stdio_output@@V?$format_validation_base@_WV?$stream_output_adapter@_W@__crt_stdio_output@@@2@@__crt_stdio_output@@AAE_NXZ 1005d830 f i libucrtd:output.obj
 0001:0005c860       ?type_case_d@?$output_processor@_WV?$stream_output_adapter@_W@__crt_stdio_output@@V?$positional_parameter_base@_WV?$stream_output_adapter@_W@__crt_stdio_output@@@2@@__crt_stdio_output@@AAE_NXZ 1005d860 f i libucrtd:output.obj
 0001:0005c890       ?type_case_d@?$output_processor@_WV?$stream_output_adapter@_W@__crt_stdio_output@@V?$standard_base@_WV?$stream_output_adapter@_W@__crt_stdio_output@@@2@@__crt_stdio_output@@AAE_NXZ 1005d890 f i libucrtd:output.obj
 0001:0005c8c0       ?type_case_d@?$output_processor@_WV?$string_output_adapter@_W@__crt_stdio_output@@V?$format_validation_base@_WV?$string_output_adapter@_W@__crt_stdio_output@@@2@@__crt_stdio_output@@AAE_NXZ 1005d8c0 f i libucrtd:output.obj
 0001:0005c8f0       ?type_case_d@?$output_processor@_WV?$string_output_adapter@_W@__crt_stdio_output@@V?$positional_parameter_base@_WV?$string_output_adapter@_W@__crt_stdio_output@@@2@@__crt_stdio_output@@AAE_NXZ 1005d8f0 f i libucrtd:output.obj
 0001:0005c920       ?type_case_d@?$output_processor@_WV?$string_output_adapter@_W@__crt_stdio_output@@V?$standard_base@_WV?$string_output_adapter@_W@__crt_stdio_output@@@2@@__crt_stdio_output@@AAE_NXZ 1005d920 f i libucrtd:output.obj
 0001:0005c950       ?type_case_integer@?$output_processor@DV?$stream_output_adapter@D@__crt_stdio_output@@V?$format_validation_base@DV?$stream_output_adapter@D@__crt_stdio_output@@@2@@__crt_stdio_output@@AAE_NI_N@Z 1005d950 f i libucrtd:output.obj
 0001:0005cca0       ?type_case_integer@?$output_processor@DV?$stream_output_adapter@D@__crt_stdio_output@@V?$positional_parameter_base@DV?$stream_output_adapter@D@__crt_stdio_output@@@2@@__crt_stdio_output@@AAE_NI_N@Z 1005dca0 f i libucrtd:output.obj
 0001:0005cff0       ?type_case_integer@?$output_processor@DV?$stream_output_adapter@D@__crt_stdio_output@@V?$standard_base@DV?$stream_output_adapter@D@__crt_stdio_output@@@2@@__crt_stdio_output@@AAE_NI_N@Z 1005dff0 f i libucrtd:output.obj
 0001:0005d340       ?type_case_integer@?$output_processor@DV?$string_output_adapter@D@__crt_stdio_output@@V?$format_validation_base@DV?$string_output_adapter@D@__crt_stdio_output@@@2@@__crt_stdio_output@@AAE_NI_N@Z 1005e340 f i libucrtd:output.obj
 0001:0005d690       ?type_case_integer@?$output_processor@DV?$string_output_adapter@D@__crt_stdio_output@@V?$positional_parameter_base@DV?$string_output_adapter@D@__crt_stdio_output@@@2@@__crt_stdio_output@@AAE_NI_N@Z 1005e690 f i libucrtd:output.obj
 0001:0005d9e0       ?type_case_integer@?$output_processor@DV?$string_output_adapter@D@__crt_stdio_output@@V?$standard_base@DV?$string_output_adapter@D@__crt_stdio_output@@@2@@__crt_stdio_output@@AAE_NI_N@Z 1005e9e0 f i libucrtd:output.obj
 0001:0005dd30       ?type_case_integer@?$output_processor@_WV?$stream_output_adapter@_W@__crt_stdio_output@@V?$format_validation_base@_WV?$stream_output_adapter@_W@__crt_stdio_output@@@2@@__crt_stdio_output@@AAE_NI_N@Z 1005ed30 f i libucrtd:output.obj
 0001:0005e080       ?type_case_integer@?$output_processor@_WV?$stream_output_adapter@_W@__crt_stdio_output@@V?$positional_parameter_base@_WV?$stream_output_adapter@_W@__crt_stdio_output@@@2@@__crt_stdio_output@@AAE_NI_N@Z 1005f080 f i libucrtd:output.obj
 0001:0005e3d0       ?type_case_integer@?$output_processor@_WV?$stream_output_adapter@_W@__crt_stdio_output@@V?$standard_base@_WV?$stream_output_adapter@_W@__crt_stdio_output@@@2@@__crt_stdio_output@@AAE_NI_N@Z 1005f3d0 f i libucrtd:output.obj
 0001:0005e720       ?type_case_integer@?$output_processor@_WV?$string_output_adapter@_W@__crt_stdio_output@@V?$format_validation_base@_WV?$string_output_adapter@_W@__crt_stdio_output@@@2@@__crt_stdio_output@@AAE_NI_N@Z 1005f720 f i libucrtd:output.obj
 0001:0005ea70       ?type_case_integer@?$output_processor@_WV?$string_output_adapter@_W@__crt_stdio_output@@V?$positional_parameter_base@_WV?$string_output_adapter@_W@__crt_stdio_output@@@2@@__crt_stdio_output@@AAE_NI_N@Z 1005fa70 f i libucrtd:output.obj
 0001:0005edc0       ?type_case_integer@?$output_processor@_WV?$string_output_adapter@_W@__crt_stdio_output@@V?$standard_base@_WV?$string_output_adapter@_W@__crt_stdio_output@@@2@@__crt_stdio_output@@AAE_NI_N@Z 1005fdc0 f i libucrtd:output.obj
 0001:0005f110       ?type_case_n@?$output_processor@DV?$stream_output_adapter@D@__crt_stdio_output@@V?$format_validation_base@DV?$stream_output_adapter@D@__crt_stdio_output@@@2@@__crt_stdio_output@@AAE_NXZ 10060110 f i libucrtd:output.obj
 0001:0005f300       ?type_case_n@?$output_processor@DV?$stream_output_adapter@D@__crt_stdio_output@@V?$positional_parameter_base@DV?$stream_output_adapter@D@__crt_stdio_output@@@2@@__crt_stdio_output@@AAE_NXZ 10060300 f i libucrtd:output.obj
 0001:0005f4f0       ?type_case_n@?$output_processor@DV?$stream_output_adapter@D@__crt_stdio_output@@V?$standard_base@DV?$stream_output_adapter@D@__crt_stdio_output@@@2@@__crt_stdio_output@@AAE_NXZ 100604f0 f i libucrtd:output.obj
 0001:0005f6e0       ?type_case_n@?$output_processor@DV?$string_output_adapter@D@__crt_stdio_output@@V?$format_validation_base@DV?$string_output_adapter@D@__crt_stdio_output@@@2@@__crt_stdio_output@@AAE_NXZ 100606e0 f i libucrtd:output.obj
 0001:0005f8d0       ?type_case_n@?$output_processor@DV?$string_output_adapter@D@__crt_stdio_output@@V?$positional_parameter_base@DV?$string_output_adapter@D@__crt_stdio_output@@@2@@__crt_stdio_output@@AAE_NXZ 100608d0 f i libucrtd:output.obj
 0001:0005fac0       ?type_case_n@?$output_processor@DV?$string_output_adapter@D@__crt_stdio_output@@V?$standard_base@DV?$string_output_adapter@D@__crt_stdio_output@@@2@@__crt_stdio_output@@AAE_NXZ 10060ac0 f i libucrtd:output.obj
 0001:0005fcb0       ?type_case_n@?$output_processor@_WV?$stream_output_adapter@_W@__crt_stdio_output@@V?$format_validation_base@_WV?$stream_output_adapter@_W@__crt_stdio_output@@@2@@__crt_stdio_output@@AAE_NXZ 10060cb0 f i libucrtd:output.obj
 0001:0005fea0       ?type_case_n@?$output_processor@_WV?$stream_output_adapter@_W@__crt_stdio_output@@V?$positional_parameter_base@_WV?$stream_output_adapter@_W@__crt_stdio_output@@@2@@__crt_stdio_output@@AAE_NXZ 10060ea0 f i libucrtd:output.obj
 0001:00060090       ?type_case_n@?$output_processor@_WV?$stream_output_adapter@_W@__crt_stdio_output@@V?$standard_base@_WV?$stream_output_adapter@_W@__crt_stdio_output@@@2@@__crt_stdio_output@@AAE_NXZ 10061090 f i libucrtd:output.obj
 0001:00060280       ?type_case_n@?$output_processor@_WV?$string_output_adapter@_W@__crt_stdio_output@@V?$format_validation_base@_WV?$string_output_adapter@_W@__crt_stdio_output@@@2@@__crt_stdio_output@@AAE_NXZ 10061280 f i libucrtd:output.obj
 0001:00060470       ?type_case_n@?$output_processor@_WV?$string_output_adapter@_W@__crt_stdio_output@@V?$positional_parameter_base@_WV?$string_output_adapter@_W@__crt_stdio_output@@@2@@__crt_stdio_output@@AAE_NXZ 10061470 f i libucrtd:output.obj
 0001:00060660       ?type_case_n@?$output_processor@_WV?$string_output_adapter@_W@__crt_stdio_output@@V?$standard_base@_WV?$string_output_adapter@_W@__crt_stdio_output@@@2@@__crt_stdio_output@@AAE_NXZ 10061660 f i libucrtd:output.obj
 0001:00060850       ?type_case_o@?$output_processor@DV?$stream_output_adapter@D@__crt_stdio_output@@V?$format_validation_base@DV?$stream_output_adapter@D@__crt_stdio_output@@@2@@__crt_stdio_output@@AAE_NXZ 10061850 f i libucrtd:output.obj
 0001:00060890       ?type_case_o@?$output_processor@DV?$stream_output_adapter@D@__crt_stdio_output@@V?$positional_parameter_base@DV?$stream_output_adapter@D@__crt_stdio_output@@@2@@__crt_stdio_output@@AAE_NXZ 10061890 f i libucrtd:output.obj
 0001:000608d0       ?type_case_o@?$output_processor@DV?$stream_output_adapter@D@__crt_stdio_output@@V?$standard_base@DV?$stream_output_adapter@D@__crt_stdio_output@@@2@@__crt_stdio_output@@AAE_NXZ 100618d0 f i libucrtd:output.obj
 0001:00060910       ?type_case_o@?$output_processor@DV?$string_output_adapter@D@__crt_stdio_output@@V?$format_validation_base@DV?$string_output_adapter@D@__crt_stdio_output@@@2@@__crt_stdio_output@@AAE_NXZ 10061910 f i libucrtd:output.obj
 0001:00060950       ?type_case_o@?$output_processor@DV?$string_output_adapter@D@__crt_stdio_output@@V?$positional_parameter_base@DV?$string_output_adapter@D@__crt_stdio_output@@@2@@__crt_stdio_output@@AAE_NXZ 10061950 f i libucrtd:output.obj
 0001:00060990       ?type_case_o@?$output_processor@DV?$string_output_adapter@D@__crt_stdio_output@@V?$standard_base@DV?$string_output_adapter@D@__crt_stdio_output@@@2@@__crt_stdio_output@@AAE_NXZ 10061990 f i libucrtd:output.obj
 0001:000609d0       ?type_case_o@?$output_processor@_WV?$stream_output_adapter@_W@__crt_stdio_output@@V?$format_validation_base@_WV?$stream_output_adapter@_W@__crt_stdio_output@@@2@@__crt_stdio_output@@AAE_NXZ 100619d0 f i libucrtd:output.obj
 0001:00060a10       ?type_case_o@?$output_processor@_WV?$stream_output_adapter@_W@__crt_stdio_output@@V?$positional_parameter_base@_WV?$stream_output_adapter@_W@__crt_stdio_output@@@2@@__crt_stdio_output@@AAE_NXZ 10061a10 f i libucrtd:output.obj
 0001:00060a50       ?type_case_o@?$output_processor@_WV?$stream_output_adapter@_W@__crt_stdio_output@@V?$standard_base@_WV?$stream_output_adapter@_W@__crt_stdio_output@@@2@@__crt_stdio_output@@AAE_NXZ 10061a50 f i libucrtd:output.obj
 0001:00060a90       ?type_case_o@?$output_processor@_WV?$string_output_adapter@_W@__crt_stdio_output@@V?$format_validation_base@_WV?$string_output_adapter@_W@__crt_stdio_output@@@2@@__crt_stdio_output@@AAE_NXZ 10061a90 f i libucrtd:output.obj
 0001:00060ad0       ?type_case_o@?$output_processor@_WV?$string_output_adapter@_W@__crt_stdio_output@@V?$positional_parameter_base@_WV?$string_output_adapter@_W@__crt_stdio_output@@@2@@__crt_stdio_output@@AAE_NXZ 10061ad0 f i libucrtd:output.obj
 0001:00060b10       ?type_case_o@?$output_processor@_WV?$string_output_adapter@_W@__crt_stdio_output@@V?$standard_base@_WV?$string_output_adapter@_W@__crt_stdio_output@@@2@@__crt_stdio_output@@AAE_NXZ 10061b10 f i libucrtd:output.obj
 0001:00060b50       ?type_case_p@?$output_processor@DV?$stream_output_adapter@D@__crt_stdio_output@@V?$format_validation_base@DV?$stream_output_adapter@D@__crt_stdio_output@@@2@@__crt_stdio_output@@AAE_NXZ 10061b50 f i libucrtd:output.obj
 0001:00060b80       ?type_case_p@?$output_processor@DV?$stream_output_adapter@D@__crt_stdio_output@@V?$positional_parameter_base@DV?$stream_output_adapter@D@__crt_stdio_output@@@2@@__crt_stdio_output@@AAE_NXZ 10061b80 f i libucrtd:output.obj
 0001:00060bb0       ?type_case_p@?$output_processor@DV?$stream_output_adapter@D@__crt_stdio_output@@V?$standard_base@DV?$stream_output_adapter@D@__crt_stdio_output@@@2@@__crt_stdio_output@@AAE_NXZ 10061bb0 f i libucrtd:output.obj
 0001:00060be0       ?type_case_p@?$output_processor@DV?$string_output_adapter@D@__crt_stdio_output@@V?$format_validation_base@DV?$string_output_adapter@D@__crt_stdio_output@@@2@@__crt_stdio_output@@AAE_NXZ 10061be0 f i libucrtd:output.obj
 0001:00060c10       ?type_case_p@?$output_processor@DV?$string_output_adapter@D@__crt_stdio_output@@V?$positional_parameter_base@DV?$string_output_adapter@D@__crt_stdio_output@@@2@@__crt_stdio_output@@AAE_NXZ 10061c10 f i libucrtd:output.obj
 0001:00060c40       ?type_case_p@?$output_processor@DV?$string_output_adapter@D@__crt_stdio_output@@V?$standard_base@DV?$string_output_adapter@D@__crt_stdio_output@@@2@@__crt_stdio_output@@AAE_NXZ 10061c40 f i libucrtd:output.obj
 0001:00060c70       ?type_case_p@?$output_processor@_WV?$stream_output_adapter@_W@__crt_stdio_output@@V?$format_validation_base@_WV?$stream_output_adapter@_W@__crt_stdio_output@@@2@@__crt_stdio_output@@AAE_NXZ 10061c70 f i libucrtd:output.obj
 0001:00060ca0       ?type_case_p@?$output_processor@_WV?$stream_output_adapter@_W@__crt_stdio_output@@V?$positional_parameter_base@_WV?$stream_output_adapter@_W@__crt_stdio_output@@@2@@__crt_stdio_output@@AAE_NXZ 10061ca0 f i libucrtd:output.obj
 0001:00060cd0       ?type_case_p@?$output_processor@_WV?$stream_output_adapter@_W@__crt_stdio_output@@V?$standard_base@_WV?$stream_output_adapter@_W@__crt_stdio_output@@@2@@__crt_stdio_output@@AAE_NXZ 10061cd0 f i libucrtd:output.obj
 0001:00060d00       ?type_case_p@?$output_processor@_WV?$string_output_adapter@_W@__crt_stdio_output@@V?$format_validation_base@_WV?$string_output_adapter@_W@__crt_stdio_output@@@2@@__crt_stdio_output@@AAE_NXZ 10061d00 f i libucrtd:output.obj
 0001:00060d30       ?type_case_p@?$output_processor@_WV?$string_output_adapter@_W@__crt_stdio_output@@V?$positional_parameter_base@_WV?$string_output_adapter@_W@__crt_stdio_output@@@2@@__crt_stdio_output@@AAE_NXZ 10061d30 f i libucrtd:output.obj
 0001:00060d60       ?type_case_p@?$output_processor@_WV?$string_output_adapter@_W@__crt_stdio_output@@V?$standard_base@_WV?$string_output_adapter@_W@__crt_stdio_output@@@2@@__crt_stdio_output@@AAE_NXZ 10061d60 f i libucrtd:output.obj
 0001:00060d90       ?type_case_s@?$output_processor@DV?$stream_output_adapter@D@__crt_stdio_output@@V?$format_validation_base@DV?$stream_output_adapter@D@__crt_stdio_output@@@2@@__crt_stdio_output@@AAE_NXZ 10061d90 f i libucrtd:output.obj
 0001:00060e80       ?type_case_s@?$output_processor@DV?$stream_output_adapter@D@__crt_stdio_output@@V?$positional_parameter_base@DV?$stream_output_adapter@D@__crt_stdio_output@@@2@@__crt_stdio_output@@AAE_NXZ 10061e80 f i libucrtd:output.obj
 0001:00060f70       ?type_case_s@?$output_processor@DV?$stream_output_adapter@D@__crt_stdio_output@@V?$standard_base@DV?$stream_output_adapter@D@__crt_stdio_output@@@2@@__crt_stdio_output@@AAE_NXZ 10061f70 f i libucrtd:output.obj
 0001:00061060       ?type_case_s@?$output_processor@DV?$string_output_adapter@D@__crt_stdio_output@@V?$format_validation_base@DV?$string_output_adapter@D@__crt_stdio_output@@@2@@__crt_stdio_output@@AAE_NXZ 10062060 f i libucrtd:output.obj
 0001:00061150       ?type_case_s@?$output_processor@DV?$string_output_adapter@D@__crt_stdio_output@@V?$positional_parameter_base@DV?$string_output_adapter@D@__crt_stdio_output@@@2@@__crt_stdio_output@@AAE_NXZ 10062150 f i libucrtd:output.obj
 0001:00061240       ?type_case_s@?$output_processor@DV?$string_output_adapter@D@__crt_stdio_output@@V?$standard_base@DV?$string_output_adapter@D@__crt_stdio_output@@@2@@__crt_stdio_output@@AAE_NXZ 10062240 f i libucrtd:output.obj
 0001:00061330       ?type_case_s@?$output_processor@_WV?$stream_output_adapter@_W@__crt_stdio_output@@V?$format_validation_base@_WV?$stream_output_adapter@_W@__crt_stdio_output@@@2@@__crt_stdio_output@@AAE_NXZ 10062330 f i libucrtd:output.obj
 0001:00061420       ?type_case_s@?$output_processor@_WV?$stream_output_adapter@_W@__crt_stdio_output@@V?$positional_parameter_base@_WV?$stream_output_adapter@_W@__crt_stdio_output@@@2@@__crt_stdio_output@@AAE_NXZ 10062420 f i libucrtd:output.obj
 0001:00061510       ?type_case_s@?$output_processor@_WV?$stream_output_adapter@_W@__crt_stdio_output@@V?$standard_base@_WV?$stream_output_adapter@_W@__crt_stdio_output@@@2@@__crt_stdio_output@@AAE_NXZ 10062510 f i libucrtd:output.obj
 0001:00061600       ?type_case_s@?$output_processor@_WV?$string_output_adapter@_W@__crt_stdio_output@@V?$format_validation_base@_WV?$string_output_adapter@_W@__crt_stdio_output@@@2@@__crt_stdio_output@@AAE_NXZ 10062600 f i libucrtd:output.obj
 0001:000616f0       ?type_case_s@?$output_processor@_WV?$string_output_adapter@_W@__crt_stdio_output@@V?$positional_parameter_base@_WV?$string_output_adapter@_W@__crt_stdio_output@@@2@@__crt_stdio_output@@AAE_NXZ 100626f0 f i libucrtd:output.obj
 0001:000617e0       ?type_case_s@?$output_processor@_WV?$string_output_adapter@_W@__crt_stdio_output@@V?$standard_base@_WV?$string_output_adapter@_W@__crt_stdio_output@@@2@@__crt_stdio_output@@AAE_NXZ 100627e0 f i libucrtd:output.obj
 0001:000618d0       ?type_case_s_compute_narrow_string_length@?$output_processor@DV?$stream_output_adapter@D@__crt_stdio_output@@V?$format_validation_base@DV?$stream_output_adapter@D@__crt_stdio_output@@@2@@__crt_stdio_output@@ABEHHD@Z 100628d0 f i libucrtd:output.obj
 0001:00061900       ?type_case_s_compute_narrow_string_length@?$output_processor@DV?$stream_output_adapter@D@__crt_stdio_output@@V?$positional_parameter_base@DV?$stream_output_adapter@D@__crt_stdio_output@@@2@@__crt_stdio_output@@ABEHHD@Z 10062900 f i libucrtd:output.obj
 0001:00061930       ?type_case_s_compute_narrow_string_length@?$output_processor@DV?$stream_output_adapter@D@__crt_stdio_output@@V?$standard_base@DV?$stream_output_adapter@D@__crt_stdio_output@@@2@@__crt_stdio_output@@ABEHHD@Z 10062930 f i libucrtd:output.obj
 0001:00061960       ?type_case_s_compute_narrow_string_length@?$output_processor@DV?$string_output_adapter@D@__crt_stdio_output@@V?$format_validation_base@DV?$string_output_adapter@D@__crt_stdio_output@@@2@@__crt_stdio_output@@ABEHHD@Z 10062960 f i libucrtd:output.obj
 0001:00061990       ?type_case_s_compute_narrow_string_length@?$output_processor@DV?$string_output_adapter@D@__crt_stdio_output@@V?$positional_parameter_base@DV?$string_output_adapter@D@__crt_stdio_output@@@2@@__crt_stdio_output@@ABEHHD@Z 10062990 f i libucrtd:output.obj
 0001:000619c0       ?type_case_s_compute_narrow_string_length@?$output_processor@DV?$string_output_adapter@D@__crt_stdio_output@@V?$standard_base@DV?$string_output_adapter@D@__crt_stdio_output@@@2@@__crt_stdio_output@@ABEHHD@Z 100629c0 f i libucrtd:output.obj
 0001:000619f0       ?type_case_s_compute_narrow_string_length@?$output_processor@_WV?$stream_output_adapter@_W@__crt_stdio_output@@V?$format_validation_base@_WV?$stream_output_adapter@_W@__crt_stdio_output@@@2@@__crt_stdio_output@@ABEHH_W@Z 100629f0 f i libucrtd:output.obj
 0001:00061a60       ?type_case_s_compute_narrow_string_length@?$output_processor@_WV?$stream_output_adapter@_W@__crt_stdio_output@@V?$positional_parameter_base@_WV?$stream_output_adapter@_W@__crt_stdio_output@@@2@@__crt_stdio_output@@ABEHH_W@Z 10062a60 f i libucrtd:output.obj
 0001:00061ad0       ?type_case_s_compute_narrow_string_length@?$output_processor@_WV?$stream_output_adapter@_W@__crt_stdio_output@@V?$standard_base@_WV?$stream_output_adapter@_W@__crt_stdio_output@@@2@@__crt_stdio_output@@ABEHH_W@Z 10062ad0 f i libucrtd:output.obj
 0001:00061b40       ?type_case_s_compute_narrow_string_length@?$output_processor@_WV?$string_output_adapter@_W@__crt_stdio_output@@V?$format_validation_base@_WV?$string_output_adapter@_W@__crt_stdio_output@@@2@@__crt_stdio_output@@ABEHH_W@Z 10062b40 f i libucrtd:output.obj
 0001:00061bb0       ?type_case_s_compute_narrow_string_length@?$output_processor@_WV?$string_output_adapter@_W@__crt_stdio_output@@V?$positional_parameter_base@_WV?$string_output_adapter@_W@__crt_stdio_output@@@2@@__crt_stdio_output@@ABEHH_W@Z 10062bb0 f i libucrtd:output.obj
 0001:00061c20       ?type_case_s_compute_narrow_string_length@?$output_processor@_WV?$string_output_adapter@_W@__crt_stdio_output@@V?$standard_base@_WV?$string_output_adapter@_W@__crt_stdio_output@@@2@@__crt_stdio_output@@ABEHH_W@Z 10062c20 f i libucrtd:output.obj
 0001:00061c90       ?type_case_u@?$output_processor@DV?$stream_output_adapter@D@__crt_stdio_output@@V?$format_validation_base@DV?$stream_output_adapter@D@__crt_stdio_output@@@2@@__crt_stdio_output@@AAE_NXZ 10062c90 f i libucrtd:output.obj
 0001:00061cb0       ?type_case_u@?$output_processor@DV?$stream_output_adapter@D@__crt_stdio_output@@V?$positional_parameter_base@DV?$stream_output_adapter@D@__crt_stdio_output@@@2@@__crt_stdio_output@@AAE_NXZ 10062cb0 f i libucrtd:output.obj
 0001:00061cd0       ?type_case_u@?$output_processor@DV?$stream_output_adapter@D@__crt_stdio_output@@V?$standard_base@DV?$stream_output_adapter@D@__crt_stdio_output@@@2@@__crt_stdio_output@@AAE_NXZ 10062cd0 f i libucrtd:output.obj
 0001:00061cf0       ?type_case_u@?$output_processor@DV?$string_output_adapter@D@__crt_stdio_output@@V?$format_validation_base@DV?$string_output_adapter@D@__crt_stdio_output@@@2@@__crt_stdio_output@@AAE_NXZ 10062cf0 f i libucrtd:output.obj
 0001:00061d10       ?type_case_u@?$output_processor@DV?$string_output_adapter@D@__crt_stdio_output@@V?$positional_parameter_base@DV?$string_output_adapter@D@__crt_stdio_output@@@2@@__crt_stdio_output@@AAE_NXZ 10062d10 f i libucrtd:output.obj
 0001:00061d30       ?type_case_u@?$output_processor@DV?$string_output_adapter@D@__crt_stdio_output@@V?$standard_base@DV?$string_output_adapter@D@__crt_stdio_output@@@2@@__crt_stdio_output@@AAE_NXZ 10062d30 f i libucrtd:output.obj
 0001:00061d50       ?type_case_u@?$output_processor@_WV?$stream_output_adapter@_W@__crt_stdio_output@@V?$format_validation_base@_WV?$stream_output_adapter@_W@__crt_stdio_output@@@2@@__crt_stdio_output@@AAE_NXZ 10062d50 f i libucrtd:output.obj
 0001:00061d70       ?type_case_u@?$output_processor@_WV?$stream_output_adapter@_W@__crt_stdio_output@@V?$positional_parameter_base@_WV?$stream_output_adapter@_W@__crt_stdio_output@@@2@@__crt_stdio_output@@AAE_NXZ 10062d70 f i libucrtd:output.obj
 0001:00061d90       ?type_case_u@?$output_processor@_WV?$stream_output_adapter@_W@__crt_stdio_output@@V?$standard_base@_WV?$stream_output_adapter@_W@__crt_stdio_output@@@2@@__crt_stdio_output@@AAE_NXZ 10062d90 f i libucrtd:output.obj
 0001:00061db0       ?type_case_u@?$output_processor@_WV?$string_output_adapter@_W@__crt_stdio_output@@V?$format_validation_base@_WV?$string_output_adapter@_W@__crt_stdio_output@@@2@@__crt_stdio_output@@AAE_NXZ 10062db0 f i libucrtd:output.obj
 0001:00061dd0       ?type_case_u@?$output_processor@_WV?$string_output_adapter@_W@__crt_stdio_output@@V?$positional_parameter_base@_WV?$string_output_adapter@_W@__crt_stdio_output@@@2@@__crt_stdio_output@@AAE_NXZ 10062dd0 f i libucrtd:output.obj
 0001:00061df0       ?type_case_u@?$output_processor@_WV?$string_output_adapter@_W@__crt_stdio_output@@V?$standard_base@_WV?$string_output_adapter@_W@__crt_stdio_output@@@2@@__crt_stdio_output@@AAE_NXZ 10062df0 f i libucrtd:output.obj
 0001:00061e10       ?type_case_x@?$output_processor@DV?$stream_output_adapter@D@__crt_stdio_output@@V?$format_validation_base@DV?$stream_output_adapter@D@__crt_stdio_output@@@2@@__crt_stdio_output@@AAE_NXZ 10062e10 f i libucrtd:output.obj
 0001:00061e30       ?type_case_x@?$output_processor@DV?$stream_output_adapter@D@__crt_stdio_output@@V?$positional_parameter_base@DV?$stream_output_adapter@D@__crt_stdio_output@@@2@@__crt_stdio_output@@AAE_NXZ 10062e30 f i libucrtd:output.obj
 0001:00061e50       ?type_case_x@?$output_processor@DV?$stream_output_adapter@D@__crt_stdio_output@@V?$standard_base@DV?$stream_output_adapter@D@__crt_stdio_output@@@2@@__crt_stdio_output@@AAE_NXZ 10062e50 f i libucrtd:output.obj
 0001:00061e70       ?type_case_x@?$output_processor@DV?$string_output_adapter@D@__crt_stdio_output@@V?$format_validation_base@DV?$string_output_adapter@D@__crt_stdio_output@@@2@@__crt_stdio_output@@AAE_NXZ 10062e70 f i libucrtd:output.obj
 0001:00061e90       ?type_case_x@?$output_processor@DV?$string_output_adapter@D@__crt_stdio_output@@V?$positional_parameter_base@DV?$string_output_adapter@D@__crt_stdio_output@@@2@@__crt_stdio_output@@AAE_NXZ 10062e90 f i libucrtd:output.obj
 0001:00061eb0       ?type_case_x@?$output_processor@DV?$string_output_adapter@D@__crt_stdio_output@@V?$standard_base@DV?$string_output_adapter@D@__crt_stdio_output@@@2@@__crt_stdio_output@@AAE_NXZ 10062eb0 f i libucrtd:output.obj
 0001:00061ed0       ?type_case_x@?$output_processor@_WV?$stream_output_adapter@_W@__crt_stdio_output@@V?$format_validation_base@_WV?$stream_output_adapter@_W@__crt_stdio_output@@@2@@__crt_stdio_output@@AAE_NXZ 10062ed0 f i libucrtd:output.obj
 0001:00061ef0       ?type_case_x@?$output_processor@_WV?$stream_output_adapter@_W@__crt_stdio_output@@V?$positional_parameter_base@_WV?$stream_output_adapter@_W@__crt_stdio_output@@@2@@__crt_stdio_output@@AAE_NXZ 10062ef0 f i libucrtd:output.obj
 0001:00061f10       ?type_case_x@?$output_processor@_WV?$stream_output_adapter@_W@__crt_stdio_output@@V?$standard_base@_WV?$stream_output_adapter@_W@__crt_stdio_output@@@2@@__crt_stdio_output@@AAE_NXZ 10062f10 f i libucrtd:output.obj
 0001:00061f30       ?type_case_x@?$output_processor@_WV?$string_output_adapter@_W@__crt_stdio_output@@V?$format_validation_base@_WV?$string_output_adapter@_W@__crt_stdio_output@@@2@@__crt_stdio_output@@AAE_NXZ 10062f30 f i libucrtd:output.obj
 0001:00061f50       ?type_case_x@?$output_processor@_WV?$string_output_adapter@_W@__crt_stdio_output@@V?$positional_parameter_base@_WV?$string_output_adapter@_W@__crt_stdio_output@@@2@@__crt_stdio_output@@AAE_NXZ 10062f50 f i libucrtd:output.obj
 0001:00061f70       ?type_case_x@?$output_processor@_WV?$string_output_adapter@_W@__crt_stdio_output@@V?$standard_base@_WV?$string_output_adapter@_W@__crt_stdio_output@@@2@@__crt_stdio_output@@AAE_NXZ 10062f70 f i libucrtd:output.obj
 0001:00061f90       ?unset_flag@?$output_processor@DV?$stream_output_adapter@D@__crt_stdio_output@@V?$format_validation_base@DV?$stream_output_adapter@D@__crt_stdio_output@@@2@@__crt_stdio_output@@AAEXI@Z 10062f90 f i libucrtd:output.obj
 0001:00061fb0       ?unset_flag@?$output_processor@DV?$stream_output_adapter@D@__crt_stdio_output@@V?$positional_parameter_base@DV?$stream_output_adapter@D@__crt_stdio_output@@@2@@__crt_stdio_output@@AAEXI@Z 10062fb0 f i libucrtd:output.obj
 0001:00061fd0       ?unset_flag@?$output_processor@DV?$stream_output_adapter@D@__crt_stdio_output@@V?$standard_base@DV?$stream_output_adapter@D@__crt_stdio_output@@@2@@__crt_stdio_output@@AAEXI@Z 10062fd0 f i libucrtd:output.obj
 0001:00061ff0       ?unset_flag@?$output_processor@DV?$string_output_adapter@D@__crt_stdio_output@@V?$format_validation_base@DV?$string_output_adapter@D@__crt_stdio_output@@@2@@__crt_stdio_output@@AAEXI@Z 10062ff0 f i libucrtd:output.obj
 0001:00062010       ?unset_flag@?$output_processor@DV?$string_output_adapter@D@__crt_stdio_output@@V?$positional_parameter_base@DV?$string_output_adapter@D@__crt_stdio_output@@@2@@__crt_stdio_output@@AAEXI@Z 10063010 f i libucrtd:output.obj
 0001:00062030       ?unset_flag@?$output_processor@DV?$string_output_adapter@D@__crt_stdio_output@@V?$standard_base@DV?$string_output_adapter@D@__crt_stdio_output@@@2@@__crt_stdio_output@@AAEXI@Z 10063030 f i libucrtd:output.obj
 0001:00062050       ?unset_flag@?$output_processor@_WV?$stream_output_adapter@_W@__crt_stdio_output@@V?$format_validation_base@_WV?$stream_output_adapter@_W@__crt_stdio_output@@@2@@__crt_stdio_output@@AAEXI@Z 10063050 f i libucrtd:output.obj
 0001:00062070       ?unset_flag@?$output_processor@_WV?$stream_output_adapter@_W@__crt_stdio_output@@V?$positional_parameter_base@_WV?$stream_output_adapter@_W@__crt_stdio_output@@@2@@__crt_stdio_output@@AAEXI@Z 10063070 f i libucrtd:output.obj
 0001:00062090       ?unset_flag@?$output_processor@_WV?$stream_output_adapter@_W@__crt_stdio_output@@V?$standard_base@_WV?$stream_output_adapter@_W@__crt_stdio_output@@@2@@__crt_stdio_output@@AAEXI@Z 10063090 f i libucrtd:output.obj
 0001:000620b0       ?unset_flag@?$output_processor@_WV?$string_output_adapter@_W@__crt_stdio_output@@V?$format_validation_base@_WV?$string_output_adapter@_W@__crt_stdio_output@@@2@@__crt_stdio_output@@AAEXI@Z 100630b0 f i libucrtd:output.obj
 0001:000620d0       ?unset_flag@?$output_processor@_WV?$string_output_adapter@_W@__crt_stdio_output@@V?$positional_parameter_base@_WV?$string_output_adapter@_W@__crt_stdio_output@@@2@@__crt_stdio_output@@AAEXI@Z 100630d0 f i libucrtd:output.obj
 0001:000620f0       ?unset_flag@?$output_processor@_WV?$string_output_adapter@_W@__crt_stdio_output@@V?$standard_base@_WV?$string_output_adapter@_W@__crt_stdio_output@@@2@@__crt_stdio_output@@AAEXI@Z 100630f0 f i libucrtd:output.obj
 0001:00062110       ?update_field_width@?$positional_parameter_base@DV?$stream_output_adapter@D@__crt_stdio_output@@@__crt_stdio_output@@IAE_NXZ 10063110 f i libucrtd:output.obj
 0001:00062290       ?update_field_width@?$positional_parameter_base@DV?$string_output_adapter@D@__crt_stdio_output@@@__crt_stdio_output@@IAE_NXZ 10063290 f i libucrtd:output.obj
 0001:00062410       ?update_field_width@?$positional_parameter_base@_WV?$stream_output_adapter@_W@__crt_stdio_output@@@__crt_stdio_output@@IAE_NXZ 10063410 f i libucrtd:output.obj
 0001:00062590       ?update_field_width@?$positional_parameter_base@_WV?$string_output_adapter@_W@__crt_stdio_output@@@__crt_stdio_output@@IAE_NXZ 10063590 f i libucrtd:output.obj
 0001:00062710       ?update_field_width@?$standard_base@DV?$stream_output_adapter@D@__crt_stdio_output@@@__crt_stdio_output@@IAE_NXZ 10063710 f i libucrtd:output.obj
 0001:00062740       ?update_field_width@?$standard_base@DV?$string_output_adapter@D@__crt_stdio_output@@@__crt_stdio_output@@IAE_NXZ 10063740 f i libucrtd:output.obj
 0001:00062770       ?update_field_width@?$standard_base@_WV?$stream_output_adapter@_W@__crt_stdio_output@@@__crt_stdio_output@@IAE_NXZ 10063770 f i libucrtd:output.obj
 0001:000627a0       ?update_field_width@?$standard_base@_WV?$string_output_adapter@_W@__crt_stdio_output@@@__crt_stdio_output@@IAE_NXZ 100637a0 f i libucrtd:output.obj
 0001:000627d0       ?update_precision@?$positional_parameter_base@DV?$stream_output_adapter@D@__crt_stdio_output@@@__crt_stdio_output@@IAE_NXZ 100637d0 f i libucrtd:output.obj
 0001:00062950       ?update_precision@?$positional_parameter_base@DV?$string_output_adapter@D@__crt_stdio_output@@@__crt_stdio_output@@IAE_NXZ 10063950 f i libucrtd:output.obj
 0001:00062ad0       ?update_precision@?$positional_parameter_base@_WV?$stream_output_adapter@_W@__crt_stdio_output@@@__crt_stdio_output@@IAE_NXZ 10063ad0 f i libucrtd:output.obj
 0001:00062c50       ?update_precision@?$positional_parameter_base@_WV?$string_output_adapter@_W@__crt_stdio_output@@@__crt_stdio_output@@IAE_NXZ 10063c50 f i libucrtd:output.obj
 0001:00062dd0       ?update_precision@?$standard_base@DV?$stream_output_adapter@D@__crt_stdio_output@@@__crt_stdio_output@@IAE_NXZ 10063dd0 f i libucrtd:output.obj
 0001:00062e00       ?update_precision@?$standard_base@DV?$string_output_adapter@D@__crt_stdio_output@@@__crt_stdio_output@@IAE_NXZ 10063e00 f i libucrtd:output.obj
 0001:00062e30       ?update_precision@?$standard_base@_WV?$stream_output_adapter@_W@__crt_stdio_output@@@__crt_stdio_output@@IAE_NXZ 10063e30 f i libucrtd:output.obj
 0001:00062e60       ?update_precision@?$standard_base@_WV?$string_output_adapter@_W@__crt_stdio_output@@@__crt_stdio_output@@IAE_NXZ 10063e60 f i libucrtd:output.obj
 0001:00062e90       ?valid@__crt_stdio_stream@@QBE_NXZ 10063e90 f i libucrtd:output.obj
 0001:00062ec0       ?validate@?$stream_output_adapter@D@__crt_stdio_output@@QBE_NXZ 10063ec0 f i libucrtd:output.obj
 0001:00062f70       ?validate@?$stream_output_adapter@_W@__crt_stdio_output@@QBE_NXZ 10063f70 f i libucrtd:output.obj
 0001:00063020       ?validate@?$string_output_adapter@D@__crt_stdio_output@@QBE_NXZ 10064020 f i libucrtd:output.obj
 0001:000630b0       ?validate@?$string_output_adapter@_W@__crt_stdio_output@@QBE_NXZ 100640b0 f i libucrtd:output.obj
 0001:00063140       ?validate_and_store_parameter_data@?$positional_parameter_base@DV?$stream_output_adapter@D@__crt_stdio_output@@@__crt_stdio_output@@AAE_NAAUparameter_data@12@W4parameter_type@12@DW4length_modifier@2@@Z 10064140 f i libucrtd:output.obj
 0001:00063210       ?validate_and_store_parameter_data@?$positional_parameter_base@DV?$string_output_adapter@D@__crt_stdio_output@@@__crt_stdio_output@@AAE_NAAUparameter_data@12@W4parameter_type@12@DW4length_modifier@2@@Z 10064210 f i libucrtd:output.obj
 0001:000632e0       ?validate_and_store_parameter_data@?$positional_parameter_base@_WV?$stream_output_adapter@_W@__crt_stdio_output@@@__crt_stdio_output@@AAE_NAAUparameter_data@12@W4parameter_type@12@_WW4length_modifier@2@@Z 100642e0 f i libucrtd:output.obj
 0001:000633c0       ?validate_and_store_parameter_data@?$positional_parameter_base@_WV?$string_output_adapter@_W@__crt_stdio_output@@@__crt_stdio_output@@AAE_NAAUparameter_data@12@W4parameter_type@12@_WW4length_modifier@2@@Z 100643c0 f i libucrtd:output.obj
 0001:000634a0       ?validate_and_update_state_at_beginning_of_format_character@?$positional_parameter_base@DV?$stream_output_adapter@D@__crt_stdio_output@@@__crt_stdio_output@@IAE_NXZ 100644a0 f i libucrtd:output.obj
 0001:000636c0       ?validate_and_update_state_at_beginning_of_format_character@?$positional_parameter_base@DV?$string_output_adapter@D@__crt_stdio_output@@@__crt_stdio_output@@IAE_NXZ 100646c0 f i libucrtd:output.obj
 0001:000638e0       ?validate_and_update_state_at_beginning_of_format_character@?$positional_parameter_base@_WV?$stream_output_adapter@_W@__crt_stdio_output@@@__crt_stdio_output@@IAE_NXZ 100648e0 f i libucrtd:output.obj
 0001:00063b00       ?validate_and_update_state_at_beginning_of_format_character@?$positional_parameter_base@_WV?$string_output_adapter@_W@__crt_stdio_output@@@__crt_stdio_output@@IAE_NXZ 10064b00 f i libucrtd:output.obj
 0001:00063d20       ?validate_and_update_state_at_beginning_of_format_character@?$standard_base@DV?$stream_output_adapter@D@__crt_stdio_output@@@__crt_stdio_output@@IAE_NXZ 10064d20 f i libucrtd:output.obj
 0001:00063d30       ?validate_and_update_state_at_beginning_of_format_character@?$standard_base@DV?$string_output_adapter@D@__crt_stdio_output@@@__crt_stdio_output@@IAE_NXZ 10064d30 f i libucrtd:output.obj
 0001:00063d40       ?validate_and_update_state_at_beginning_of_format_character@?$standard_base@_WV?$stream_output_adapter@_W@__crt_stdio_output@@@__crt_stdio_output@@IAE_NXZ 10064d40 f i libucrtd:output.obj
 0001:00063d50       ?validate_and_update_state_at_beginning_of_format_character@?$standard_base@_WV?$string_output_adapter@_W@__crt_stdio_output@@@__crt_stdio_output@@IAE_NXZ 10064d50 f i libucrtd:output.obj
 0001:00063d60       ?validate_and_update_state_at_end_of_format_string@?$format_validation_base@DV?$stream_output_adapter@D@__crt_stdio_output@@@__crt_stdio_output@@IBE_NXZ 10064d60 f i libucrtd:output.obj
 0001:00063e00       ?validate_and_update_state_at_end_of_format_string@?$format_validation_base@DV?$string_output_adapter@D@__crt_stdio_output@@@__crt_stdio_output@@IBE_NXZ 10064e00 f i libucrtd:output.obj
 0001:00063ea0       ?validate_and_update_state_at_end_of_format_string@?$format_validation_base@_WV?$stream_output_adapter@_W@__crt_stdio_output@@@__crt_stdio_output@@IBE_NXZ 10064ea0 f i libucrtd:output.obj
 0001:00063f40       ?validate_and_update_state_at_end_of_format_string@?$format_validation_base@_WV?$string_output_adapter@_W@__crt_stdio_output@@@__crt_stdio_output@@IBE_NXZ 10064f40 f i libucrtd:output.obj
 0001:00063fe0       ?validate_and_update_state_at_end_of_format_string@?$positional_parameter_base@DV?$stream_output_adapter@D@__crt_stdio_output@@@__crt_stdio_output@@IAE_NXZ 10064fe0 f i libucrtd:output.obj
 0001:00064180       ?validate_and_update_state_at_end_of_format_string@?$positional_parameter_base@DV?$string_output_adapter@D@__crt_stdio_output@@@__crt_stdio_output@@IAE_NXZ 10065180 f i libucrtd:output.obj
 0001:00064320       ?validate_and_update_state_at_end_of_format_string@?$positional_parameter_base@_WV?$stream_output_adapter@_W@__crt_stdio_output@@@__crt_stdio_output@@IAE_NXZ 10065320 f i libucrtd:output.obj
 0001:000644c0       ?validate_and_update_state_at_end_of_format_string@?$positional_parameter_base@_WV?$string_output_adapter@_W@__crt_stdio_output@@@__crt_stdio_output@@IAE_NXZ 100654c0 f i libucrtd:output.obj
 0001:00064660       ?validate_and_update_state_at_end_of_format_string@?$standard_base@DV?$stream_output_adapter@D@__crt_stdio_output@@@__crt_stdio_output@@IBE_NXZ 10065660 f i libucrtd:output.obj
 0001:00064670       ?validate_and_update_state_at_end_of_format_string@?$standard_base@DV?$string_output_adapter@D@__crt_stdio_output@@@__crt_stdio_output@@IBE_NXZ 10065670 f i libucrtd:output.obj
 0001:00064680       ?validate_and_update_state_at_end_of_format_string@?$standard_base@_WV?$stream_output_adapter@_W@__crt_stdio_output@@@__crt_stdio_output@@IBE_NXZ 10065680 f i libucrtd:output.obj
 0001:00064690       ?validate_and_update_state_at_end_of_format_string@?$standard_base@_WV?$string_output_adapter@_W@__crt_stdio_output@@@__crt_stdio_output@@IBE_NXZ 10065690 f i libucrtd:output.obj
 0001:000646a0       ?validate_state_for_type_case_a@?$positional_parameter_base@DV?$stream_output_adapter@D@__crt_stdio_output@@@__crt_stdio_output@@IAE_NXZ 100656a0 f i libucrtd:output.obj
 0001:00064790       ?validate_state_for_type_case_a@?$positional_parameter_base@DV?$string_output_adapter@D@__crt_stdio_output@@@__crt_stdio_output@@IAE_NXZ 10065790 f i libucrtd:output.obj
 0001:00064880       ?validate_state_for_type_case_a@?$positional_parameter_base@_WV?$stream_output_adapter@_W@__crt_stdio_output@@@__crt_stdio_output@@IAE_NXZ 10065880 f i libucrtd:output.obj
 0001:00064970       ?validate_state_for_type_case_a@?$positional_parameter_base@_WV?$string_output_adapter@_W@__crt_stdio_output@@@__crt_stdio_output@@IAE_NXZ 10065970 f i libucrtd:output.obj
 0001:00064a60       ?validate_state_for_type_case_a@?$standard_base@DV?$stream_output_adapter@D@__crt_stdio_output@@@__crt_stdio_output@@IBE_NXZ 10065a60 f i libucrtd:output.obj
 0001:00064a70       ?validate_state_for_type_case_a@?$standard_base@DV?$string_output_adapter@D@__crt_stdio_output@@@__crt_stdio_output@@IBE_NXZ 10065a70 f i libucrtd:output.obj
 0001:00064a80       ?validate_state_for_type_case_a@?$standard_base@_WV?$stream_output_adapter@_W@__crt_stdio_output@@@__crt_stdio_output@@IBE_NXZ 10065a80 f i libucrtd:output.obj
 0001:00064a90       ?validate_state_for_type_case_a@?$standard_base@_WV?$string_output_adapter@_W@__crt_stdio_output@@@__crt_stdio_output@@IBE_NXZ 10065a90 f i libucrtd:output.obj
 0001:00064aa0       ?validate_stream_is_ansi_if_required@?$__acrt_stdio_char_traits@D@@SA_NQAU_iobuf@@@Z 10065aa0 f i libucrtd:output.obj
 0001:00064bd0       ?validate_stream_is_ansi_if_required@?$__acrt_stdio_char_traits@_W@@SA_NQAU_iobuf@@@Z 10065bd0 f i libucrtd:output.obj
 0001:00064be0       ?wide_null_string@?$output_processor@DV?$stream_output_adapter@D@__crt_stdio_output@@V?$format_validation_base@DV?$stream_output_adapter@D@__crt_stdio_output@@@2@@__crt_stdio_output@@CAPA_WXZ 10065be0 f i libucrtd:output.obj
 0001:00064bf0       ?wide_null_string@?$output_processor@DV?$stream_output_adapter@D@__crt_stdio_output@@V?$positional_parameter_base@DV?$stream_output_adapter@D@__crt_stdio_output@@@2@@__crt_stdio_output@@CAPA_WXZ 10065bf0 f i libucrtd:output.obj
 0001:00064c00       ?wide_null_string@?$output_processor@DV?$stream_output_adapter@D@__crt_stdio_output@@V?$standard_base@DV?$stream_output_adapter@D@__crt_stdio_output@@@2@@__crt_stdio_output@@CAPA_WXZ 10065c00 f i libucrtd:output.obj
 0001:00064c10       ?wide_null_string@?$output_processor@DV?$string_output_adapter@D@__crt_stdio_output@@V?$format_validation_base@DV?$string_output_adapter@D@__crt_stdio_output@@@2@@__crt_stdio_output@@CAPA_WXZ 10065c10 f i libucrtd:output.obj
 0001:00064c20       ?wide_null_string@?$output_processor@DV?$string_output_adapter@D@__crt_stdio_output@@V?$positional_parameter_base@DV?$string_output_adapter@D@__crt_stdio_output@@@2@@__crt_stdio_output@@CAPA_WXZ 10065c20 f i libucrtd:output.obj
 0001:00064c30       ?wide_null_string@?$output_processor@DV?$string_output_adapter@D@__crt_stdio_output@@V?$standard_base@DV?$string_output_adapter@D@__crt_stdio_output@@@2@@__crt_stdio_output@@CAPA_WXZ 10065c30 f i libucrtd:output.obj
 0001:00064c40       ?wide_null_string@?$output_processor@_WV?$stream_output_adapter@_W@__crt_stdio_output@@V?$format_validation_base@_WV?$stream_output_adapter@_W@__crt_stdio_output@@@2@@__crt_stdio_output@@CAPA_WXZ 10065c40 f i libucrtd:output.obj
 0001:00064c50       ?wide_null_string@?$output_processor@_WV?$stream_output_adapter@_W@__crt_stdio_output@@V?$positional_parameter_base@_WV?$stream_output_adapter@_W@__crt_stdio_output@@@2@@__crt_stdio_output@@CAPA_WXZ 10065c50 f i libucrtd:output.obj
 0001:00064c60       ?wide_null_string@?$output_processor@_WV?$stream_output_adapter@_W@__crt_stdio_output@@V?$standard_base@_WV?$stream_output_adapter@_W@__crt_stdio_output@@@2@@__crt_stdio_output@@CAPA_WXZ 10065c60 f i libucrtd:output.obj
 0001:00064c70       ?wide_null_string@?$output_processor@_WV?$string_output_adapter@_W@__crt_stdio_output@@V?$format_validation_base@_WV?$string_output_adapter@_W@__crt_stdio_output@@@2@@__crt_stdio_output@@CAPA_WXZ 10065c70 f i libucrtd:output.obj
 0001:00064c80       ?wide_null_string@?$output_processor@_WV?$string_output_adapter@_W@__crt_stdio_output@@V?$positional_parameter_base@_WV?$string_output_adapter@_W@__crt_stdio_output@@@2@@__crt_stdio_output@@CAPA_WXZ 10065c80 f i libucrtd:output.obj
 0001:00064c90       ?wide_null_string@?$output_processor@_WV?$string_output_adapter@_W@__crt_stdio_output@@V?$standard_base@_WV?$string_output_adapter@_W@__crt_stdio_output@@@2@@__crt_stdio_output@@CAPA_WXZ 10065c90 f i libucrtd:output.obj
 0001:00064ca0       ?write_character@?$output_adapter_common@DV?$stream_output_adapter@D@__crt_stdio_output@@@__crt_stdio_output@@QBEXDQAH@Z 10065ca0 f i libucrtd:output.obj
 0001:00064ce0       ?write_character@?$output_adapter_common@_WV?$stream_output_adapter@_W@__crt_stdio_output@@@__crt_stdio_output@@QBEX_WQAH@Z 10065ce0 f i libucrtd:output.obj
 0001:00064d20       ?write_character@?$string_output_adapter@D@__crt_stdio_output@@QBE_NDQAH@Z 10065d20 f i libucrtd:output.obj
 0001:00064db0       ?write_character@?$string_output_adapter@_W@__crt_stdio_output@@QBE_N_WQAH@Z 10065db0 f i libucrtd:output.obj
 0001:00064e50       ?write_character_without_count_update@?$stream_output_adapter@D@__crt_stdio_output@@QBE_ND@Z 10065e50 f i libucrtd:output.obj
 0001:00064ec0       ?write_character_without_count_update@?$stream_output_adapter@_W@__crt_stdio_output@@QBE_N_W@Z 10065ec0 f i libucrtd:output.obj
 0001:00064f30       ?write_stored_string_tchar@?$output_processor@DV?$stream_output_adapter@D@__crt_stdio_output@@V?$format_validation_base@DV?$stream_output_adapter@D@__crt_stdio_output@@@2@@__crt_stdio_output@@AAE_ND@Z 10065f30 f i libucrtd:output.obj
 0001:00065050       ?write_stored_string_tchar@?$output_processor@DV?$stream_output_adapter@D@__crt_stdio_output@@V?$positional_parameter_base@DV?$stream_output_adapter@D@__crt_stdio_output@@@2@@__crt_stdio_output@@AAE_ND@Z 10066050 f i libucrtd:output.obj
 0001:00065170       ?write_stored_string_tchar@?$output_processor@DV?$stream_output_adapter@D@__crt_stdio_output@@V?$standard_base@DV?$stream_output_adapter@D@__crt_stdio_output@@@2@@__crt_stdio_output@@AAE_ND@Z 10066170 f i libucrtd:output.obj
 0001:00065290       ?write_stored_string_tchar@?$output_processor@DV?$string_output_adapter@D@__crt_stdio_output@@V?$format_validation_base@DV?$string_output_adapter@D@__crt_stdio_output@@@2@@__crt_stdio_output@@AAE_ND@Z 10066290 f i libucrtd:output.obj
 0001:000653b0       ?write_stored_string_tchar@?$output_processor@DV?$string_output_adapter@D@__crt_stdio_output@@V?$positional_parameter_base@DV?$string_output_adapter@D@__crt_stdio_output@@@2@@__crt_stdio_output@@AAE_ND@Z 100663b0 f i libucrtd:output.obj
 0001:000654d0       ?write_stored_string_tchar@?$output_processor@DV?$string_output_adapter@D@__crt_stdio_output@@V?$standard_base@DV?$string_output_adapter@D@__crt_stdio_output@@@2@@__crt_stdio_output@@AAE_ND@Z 100664d0 f i libucrtd:output.obj
 0001:000655f0       ?write_stored_string_tchar@?$output_processor@_WV?$stream_output_adapter@_W@__crt_stdio_output@@V?$format_validation_base@_WV?$stream_output_adapter@_W@__crt_stdio_output@@@2@@__crt_stdio_output@@AAE_N_W@Z 100665f0 f i libucrtd:output.obj
 0001:000656e0       ?write_stored_string_tchar@?$output_processor@_WV?$stream_output_adapter@_W@__crt_stdio_output@@V?$positional_parameter_base@_WV?$stream_output_adapter@_W@__crt_stdio_output@@@2@@__crt_stdio_output@@AAE_N_W@Z 100666e0 f i libucrtd:output.obj
 0001:000657d0       ?write_stored_string_tchar@?$output_processor@_WV?$stream_output_adapter@_W@__crt_stdio_output@@V?$standard_base@_WV?$stream_output_adapter@_W@__crt_stdio_output@@@2@@__crt_stdio_output@@AAE_N_W@Z 100667d0 f i libucrtd:output.obj
 0001:000658c0       ?write_stored_string_tchar@?$output_processor@_WV?$string_output_adapter@_W@__crt_stdio_output@@V?$format_validation_base@_WV?$string_output_adapter@_W@__crt_stdio_output@@@2@@__crt_stdio_output@@AAE_N_W@Z 100668c0 f i libucrtd:output.obj
 0001:000659b0       ?write_stored_string_tchar@?$output_processor@_WV?$string_output_adapter@_W@__crt_stdio_output@@V?$positional_parameter_base@_WV?$string_output_adapter@_W@__crt_stdio_output@@@2@@__crt_stdio_output@@AAE_N_W@Z 100669b0 f i libucrtd:output.obj
 0001:00065aa0       ?write_stored_string_tchar@?$output_processor@_WV?$string_output_adapter@_W@__crt_stdio_output@@V?$standard_base@_WV?$string_output_adapter@_W@__crt_stdio_output@@@2@@__crt_stdio_output@@AAE_N_W@Z 10066aa0 f i libucrtd:output.obj
 0001:00065b90       ?write_string@?$stream_output_adapter@D@__crt_stdio_output@@QBEXQBDHQAHAAV__crt_deferred_errno_cache@@@Z 10066b90 f i libucrtd:output.obj
 0001:00065bf0       ?write_string@?$stream_output_adapter@_W@__crt_stdio_output@@QBEXQB_WHQAHAAV__crt_deferred_errno_cache@@@Z 10066bf0 f i libucrtd:output.obj
 0001:00065c50       ?write_string@?$string_output_adapter@D@__crt_stdio_output@@QBEXQBDHQAHAAV__crt_deferred_errno_cache@@@Z 10066c50 f i libucrtd:output.obj
 0001:00065d50       ?write_string@?$string_output_adapter@_W@__crt_stdio_output@@QBEXQB_WHQAHAAV__crt_deferred_errno_cache@@@Z 10066d50 f i libucrtd:output.obj
 0001:00065e60       ?write_string_impl@?$output_adapter_common@DV?$stream_output_adapter@D@__crt_stdio_output@@@__crt_stdio_output@@IBEXQBDHQAHAAV__crt_deferred_errno_cache@@@Z 10066e60 f i libucrtd:output.obj
 0001:00065f00       ?write_string_impl@?$output_adapter_common@_WV?$stream_output_adapter@_W@__crt_stdio_output@@@__crt_stdio_output@@IBEXQB_WHQAHAAV__crt_deferred_errno_cache@@@Z 10066f00 f i libucrtd:output.obj
 0001:00065fa0       ___acrt_disable_global_locale_sync 10066fa0 f i libucrtd:output.obj
 0001:00065fc0       ___acrt_enable_global_locale_sync 10066fc0 f i libucrtd:output.obj
 0001:00065fe0       ___acrt_isleadbyte_l_noupdate 10066fe0 f i libucrtd:output.obj
 0001:00066000       ___acrt_locale_changed     10067000 f i libucrtd:output.obj
 0001:00066030       ___acrt_locale_get_ctype_array_value 10067030 f i libucrtd:output.obj
 0001:00066060       ___stdio_common_vfprintf   10067060 f   libucrtd:output.obj
 0001:00066090       ___stdio_common_vfprintf_p 10067090 f   libucrtd:output.obj
 0001:000660c0       ___stdio_common_vfprintf_s 100670c0 f   libucrtd:output.obj
 0001:000660f0       ___stdio_common_vfwprintf  100670f0 f   libucrtd:output.obj
 0001:00066120       ___stdio_common_vfwprintf_p 10067120 f   libucrtd:output.obj
 0001:00066150       ___stdio_common_vfwprintf_s 10067150 f   libucrtd:output.obj
 0001:00066180       ___stdio_common_vsnprintf_s 10067180 f   libucrtd:output.obj
 0001:000661b0       ___stdio_common_vsnwprintf_s 100671b0 f   libucrtd:output.obj
 0001:000661e0       ___stdio_common_vsprintf   100671e0 f   libucrtd:output.obj
 0001:00066210       ___stdio_common_vsprintf_p 10067210 f   libucrtd:output.obj
 0001:00066240       ___stdio_common_vsprintf_s 10067240 f   libucrtd:output.obj
 0001:00066270       ___stdio_common_vswprintf  10067270 f   libucrtd:output.obj
 0001:000662a0       ___stdio_common_vswprintf_p 100672a0 f   libucrtd:output.obj
 0001:000662d0       ___stdio_common_vswprintf_s 100672d0 f   libucrtd:output.obj
 0001:00066300       __ctype_fast_check_internal 10067300 f i libucrtd:output.obj
 0001:00066320       __isdigit_fast_internal    10067320 f i libucrtd:output.obj
 0001:00066340       __tolower_fast_internal    10067340 f i libucrtd:output.obj
 0001:00066360       _free                      10067360 f   libucrtd:free.obj
 0001:00066390       _malloc                    10067390 f   libucrtd:malloc.obj
 0001:000663b0       ??$?RU?$__crt_report_hook_node@D@@@__crt_internal_free_policy@@QBEXQBU?$__crt_report_hook_node@D@@@Z 100673b0 f i libucrtd:dbgrpt.obj
 0001:000663d0       ??$?RU?$__crt_report_hook_node@_W@@@__crt_internal_free_policy@@QBEXQBU?$__crt_report_hook_node@_W@@@Z 100673d0 f i libucrtd:dbgrpt.obj
 0001:000671c0       ??$get_module_file_name@AAPAUHINSTANCE__@@AAY0BAF@DK@?$__crt_char_traits@D@@SAKAAPAUHINSTANCE__@@AAY0BAF@D$$QAK@Z 100681c0 f i libucrtd:dbgrpt.obj
 0001:000671e0       ??$get_module_file_name@AAPAUHINSTANCE__@@AAY0BAF@_WK@?$__crt_char_traits@_W@@SAKAAPAUHINSTANCE__@@AAY0BAF@_W$$QAK@Z 100681e0 f i libucrtd:dbgrpt.obj
 0001:00067200       ??$tcscpy_s@AAY0BAF@DIPBD@?$__crt_char_traits@D@@SAHAAY0BAF@D$$QAI$$QAPBD@Z 10068200 f i libucrtd:dbgrpt.obj
 0001:00067220       ??$tcscpy_s@AAY0BAF@_WIPB_W@?$__crt_char_traits@_W@@SAHAAY0BAF@_W$$QAI$$QAPB_W@Z 10068220 f i libucrtd:dbgrpt.obj
 0001:00067240       ??$tcslen@AAY0BAF@D@?$__crt_char_traits@D@@SAIAAY0BAF@D@Z 10068240 f i libucrtd:dbgrpt.obj
 0001:00067260       ??$tcslen@AAY0BAF@_W@?$__crt_char_traits@_W@@SAIAAY0BAF@_W@Z 10068260 f i libucrtd:dbgrpt.obj
 0001:00067280       ??$tcslen@ABQBD@?$__crt_char_traits@D@@SAIABQBD@Z 10068280 f i libucrtd:dbgrpt.obj
 0001:000672a0       ??$tcslen@ABQB_W@?$__crt_char_traits@_W@@SAIABQB_W@Z 100682a0 f i libucrtd:dbgrpt.obj
 0001:000673a0       ??0?$__crt_unique_heap_ptr@U?$__crt_report_hook_node@D@@U__crt_internal_free_policy@@@@QAE@QAU?$__crt_report_hook_node@D@@@Z 100683a0 f i libucrtd:dbgrpt.obj
 0001:000673c0       ??0?$__crt_unique_heap_ptr@U?$__crt_report_hook_node@_W@@U__crt_internal_free_policy@@@@QAE@QAU?$__crt_report_hook_node@_W@@@Z 100683c0 f i libucrtd:dbgrpt.obj
 0001:000673e0       ??1?$__crt_unique_heap_ptr@U?$__crt_report_hook_node@D@@U__crt_internal_free_policy@@@@QAE@XZ 100683e0 f i libucrtd:dbgrpt.obj
 0001:00067400       ??1?$__crt_unique_heap_ptr@U?$__crt_report_hook_node@_W@@U__crt_internal_free_policy@@@@QAE@XZ 10068400 f i libucrtd:dbgrpt.obj
 0001:00067420       ??B?$__crt_unique_heap_ptr@U?$__crt_report_hook_node@D@@U__crt_internal_free_policy@@@@QBE_NXZ 10068420 f i libucrtd:dbgrpt.obj
 0001:00067440       ??B?$__crt_unique_heap_ptr@U?$__crt_report_hook_node@_W@@U__crt_internal_free_policy@@@@QBE_NXZ 10068440 f i libucrtd:dbgrpt.obj
 0001:00067980       ?detach@?$__crt_unique_heap_ptr@U?$__crt_report_hook_node@D@@U__crt_internal_free_policy@@@@QAEPAU?$__crt_report_hook_node@D@@XZ 10068980 f i libucrtd:dbgrpt.obj
 0001:000679b0       ?detach@?$__crt_unique_heap_ptr@U?$__crt_report_hook_node@_W@@U__crt_internal_free_policy@@@@QAEPAU?$__crt_report_hook_node@_W@@XZ 100689b0 f i libucrtd:dbgrpt.obj
 0001:000679e0       ?get@?$__crt_unique_heap_ptr@U?$__crt_report_hook_node@D@@U__crt_internal_free_policy@@@@QBEPAU?$__crt_report_hook_node@D@@XZ 100689e0 f i libucrtd:dbgrpt.obj
 0001:00067a00       ?get@?$__crt_unique_heap_ptr@U?$__crt_report_hook_node@_W@@U__crt_internal_free_policy@@@@QBEPAU?$__crt_report_hook_node@_W@@XZ 10068a00 f i libucrtd:dbgrpt.obj
 0001:00067a80       ?is_valid@?$__crt_unique_heap_ptr@U?$__crt_report_hook_node@D@@U__crt_internal_free_policy@@@@QBE_NXZ 10068a80 f i libucrtd:dbgrpt.obj
 0001:00067ab0       ?is_valid@?$__crt_unique_heap_ptr@U?$__crt_report_hook_node@_W@@U__crt_internal_free_policy@@@@QBE_NXZ 10068ab0 f i libucrtd:dbgrpt.obj
 0001:00067ae0       ?release@?$__crt_unique_heap_ptr@U?$__crt_report_hook_node@D@@U__crt_internal_free_policy@@@@QAEXXZ 10068ae0 f i libucrtd:dbgrpt.obj
 0001:00067b10       ?release@?$__crt_unique_heap_ptr@U?$__crt_report_hook_node@_W@@U__crt_internal_free_policy@@@@QAEXXZ 10068b10 f i libucrtd:dbgrpt.obj
 0001:00067b40       __CrtDbgReport             10068b40 f   libucrtd:dbgrpt.obj
 0001:00067b90       __CrtDbgReportW            10068b90 f   libucrtd:dbgrpt.obj
 0001:00067be0       __CrtSetReportHook2        10068be0 f   libucrtd:dbgrpt.obj
 0001:00067c00       __CrtSetReportHookW2       10068c00 f   libucrtd:dbgrpt.obj
 0001:00067c20       ___acrt_MessageWindowA     10068c20 f   libucrtd:dbgrpt.obj
 0001:00067c50       ___acrt_MessageWindowW     10068c50 f   libucrtd:dbgrpt.obj
 0001:00067c80       __invoke_watson_if_error   10068c80 f i libucrtd:dbgrpt.obj
 0001:00067cb0       __invoke_watson_if_oneof   10068cb0 f i libucrtd:dbgrpt.obj
 0001:00067cf0       __snwprintf_s              10068cf0 f i libucrtd:dbgrpt.obj
 0001:00067d30       __vsnwprintf_s_l           10068d30 f i libucrtd:dbgrpt.obj
 0001:000680b0       _wcscpy_s                  100690b0 f   libucrtd:wcscpy_s.obj
 0001:00068dd0       ??1?$__crt_simd_cleanup_guard@$00@@QAE@XZ 10069dd0 f i libucrtd:strnlen.obj
 0001:00068de0       ??1?$__crt_simd_cleanup_guard@$0A@@@QAE@XZ 10069de0 f i libucrtd:strnlen.obj
 0001:00068df0       ?compare_equals@?$__crt_simd_traits@$00E@@SA?AT__m256i@@T2@0@Z 10069df0 f i libucrtd:strnlen.obj
 0001:00068e30       ?compare_equals@?$__crt_simd_traits@$00G@@SA?AT__m256i@@T2@0@Z 10069e30 f i libucrtd:strnlen.obj
 0001:00068e70       ?compare_equals@?$__crt_simd_traits@$0A@E@@SA?AT__m128i@@T2@0@Z 10069e70 f i libucrtd:strnlen.obj
 0001:00068eb0       ?compare_equals@?$__crt_simd_traits@$0A@G@@SA?AT__m128i@@T2@0@Z 10069eb0 f i libucrtd:strnlen.obj
 0001:00068ef0       ?compute_byte_mask@?$__crt_simd_pack_traits@$00@@SAHT__m256i@@@Z 10069ef0 f i libucrtd:strnlen.obj
 0001:00068f20       ?compute_byte_mask@?$__crt_simd_pack_traits@$0A@@@SAHT__m128i@@@Z 10069f20 f i libucrtd:strnlen.obj
 0001:00068f50       ?get_zero_pack@?$__crt_simd_pack_traits@$00@@SA?AT__m256i@@XZ 10069f50 f i libucrtd:strnlen.obj
 0001:00068f80       ?get_zero_pack@?$__crt_simd_pack_traits@$0A@@@SA?AT__m128i@@XZ 10069f80 f i libucrtd:strnlen.obj
 0001:00068fb0       _strnlen                   10069fb0 f   libucrtd:strnlen.obj
 0001:00068fd0       _wcslen                    10069fd0 f   libucrtd:strnlen.obj
 0001:00068ff0       _wcsnlen                   10069ff0 f   libucrtd:strnlen.obj
 0001:00069010       ??$__crt_fast_decode_pointer@P6AXPB_W00II@Z@@YAP6AXPB_W00II@ZQ6AX000II@Z@Z 1006a010 f i libucrtd:invalid_parameter.obj
 0001:00069040       ??$__crt_fast_encode_pointer@P6AXPB_W00II@Z@@YAP6AXPB_W00II@ZQ6AX000II@Z@Z 1006a040 f i libucrtd:invalid_parameter.obj
 0001:00069070       ??$initialize_from_array@$$BY00Q6AXPB_W00II@Z@?$dual_state_global@P6AXPB_W00II@Z@__crt_state_management@@QAAXAAY00Q6AXPB_W00II@Z@Z 1006a070 f i libucrtd:invalid_parameter.obj
 0001:000690c0       ?__crt_rotate_pointer_value@@YAIIH@Z 1006a0c0 f i libucrtd:invalid_parameter.obj
 0001:000690d0       ?dangerous_get_state_array@?$dual_state_global@P6AXPB_W00II@Z@__crt_state_management@@QAEPAP6AXPB_W00II@ZXZ 1006a0d0 f i libucrtd:invalid_parameter.obj
 0001:000690e0       ?get_current_state_index@__crt_state_management@@YAIXZ 1006a0e0 f i libucrtd:invalid_parameter.obj
 0001:000690f0       ?value@?$dual_state_global@P6AXPB_W00II@Z@__crt_state_management@@QAEAAP6AXPB_W00II@ZXZ 1006a0f0 f i libucrtd:invalid_parameter.obj
 0001:00069110       ___acrt_call_reportfault   1006a110 f   libucrtd:invalid_parameter.obj
 0001:00069270       ___acrt_initialize_invalid_parameter_handler 1006a270 f   libucrtd:invalid_parameter.obj
 0001:000692a0       __get_invalid_parameter_handler 1006a2a0 f   libucrtd:invalid_parameter.obj
 0001:000692c0       __get_thread_local_invalid_parameter_handler 1006a2c0 f   libucrtd:invalid_parameter.obj
 0001:000692f0       __invalid_parameter        1006a2f0 f   libucrtd:invalid_parameter.obj
 0001:000693b0       __invalid_parameter_noinfo 1006a3b0 f   libucrtd:invalid_parameter.obj
 0001:000693d0       __invalid_parameter_noinfo_noreturn 1006a3d0 f   libucrtd:invalid_parameter.obj
 0001:00069400       __invoke_watson            1006a400 f   libucrtd:invalid_parameter.obj
 0001:00069440       __set_invalid_parameter_handler 1006a440 f   libucrtd:invalid_parameter.obj
 0001:00069490       __set_thread_local_invalid_parameter_handler 1006a490 f   libucrtd:invalid_parameter.obj
 0001:000694c0       ___acrt_errno_from_os_error 1006a4c0 f   libucrtd:errno.obj
 0001:00069540       ___acrt_errno_map_os_error 1006a540 f   libucrtd:errno.obj
 0001:00069570       ___doserrno                1006a570 f   libucrtd:errno.obj
 0001:000695a0       __errno                    1006a5a0 f   libucrtd:errno.obj
 0001:000695d0       __get_doserrno             1006a5d0 f   libucrtd:errno.obj
 0001:00069660       __get_errno                1006a660 f   libucrtd:errno.obj
 0001:000696f0       __set_doserrno             1006a6f0 f   libucrtd:errno.obj
 0001:00069720       __set_errno                1006a720 f   libucrtd:errno.obj
 0001:00069750       _calloc                    1006a750 f   libucrtd:calloc.obj
 0001:00069770       __recalloc                 1006a770 f   libucrtd:recalloc.obj
 0001:000697a0       __recalloc_base            1006a7a0 f   libucrtd:recalloc.obj
 0001:0006983a       __resetstkoflw             1006a83a f   libucrtd:resetstk.obj
 0001:00069d20       _wcscat_s                  1006ad20 f   libucrtd:wcscat_s.obj
 0001:0006a170       _wcsncpy_s                 1006b170 f   libucrtd:wcsncpy_s.obj
 0001:0006a2b0       ___isascii                 1006b2b0 f   libucrtd:_ctype.obj
 0001:0006a2e0       ___iscsym                  1006b2e0 f   libucrtd:_ctype.obj
 0001:0006a320       ___iscsymf                 1006b320 f   libucrtd:_ctype.obj
 0001:0006a360       ___toascii                 1006b360 f   libucrtd:_ctype.obj
 0001:0006a370       __isalnum_l                1006b370 f   libucrtd:_ctype.obj
 0001:0006a390       __isalpha_l                1006b390 f   libucrtd:_ctype.obj
 0001:0006a3b0       __isblank_l                1006b3b0 f   libucrtd:_ctype.obj
 0001:0006a3d0       __iscntrl_l                1006b3d0 f   libucrtd:_ctype.obj
 0001:0006a3f0       __iscsym_l                 1006b3f0 f   libucrtd:_ctype.obj
 0001:0006a430       __iscsymf_l                1006b430 f   libucrtd:_ctype.obj
 0001:0006a470       __isdigit_l                1006b470 f   libucrtd:_ctype.obj
 0001:0006a490       __isgraph_l                1006b490 f   libucrtd:_ctype.obj
 0001:0006a4b0       __islower_l                1006b4b0 f   libucrtd:_ctype.obj
 0001:0006a4d0       __isprint_l                1006b4d0 f   libucrtd:_ctype.obj
 0001:0006a4f0       __ispunct_l                1006b4f0 f   libucrtd:_ctype.obj
 0001:0006a510       __isspace_l                1006b510 f   libucrtd:_ctype.obj
 0001:0006a530       __isupper_l                1006b530 f   libucrtd:_ctype.obj
 0001:0006a550       __isxdigit_l               1006b550 f   libucrtd:_ctype.obj
 0001:0006a570       _isalnum                   1006b570 f   libucrtd:_ctype.obj
 0001:0006a590       _isalpha                   1006b590 f   libucrtd:_ctype.obj
 0001:0006a5b0       _isblank                   1006b5b0 f   libucrtd:_ctype.obj
 0001:0006a5e0       _iscntrl                   1006b5e0 f   libucrtd:_ctype.obj
 0001:0006a600       _isdigit                   1006b600 f   libucrtd:_ctype.obj
 0001:0006a620       _isgraph                   1006b620 f   libucrtd:_ctype.obj
 0001:0006a640       _islower                   1006b640 f   libucrtd:_ctype.obj
 0001:0006a660       _isprint                   1006b660 f   libucrtd:_ctype.obj
 0001:0006a680       _ispunct                   1006b680 f   libucrtd:_ctype.obj
 0001:0006a6a0       _isspace                   1006b6a0 f   libucrtd:_ctype.obj
 0001:0006a6c0       _isupper                   1006b6c0 f   libucrtd:_ctype.obj
 0001:0006a6e0       _isxdigit                  1006b6e0 f   libucrtd:_ctype.obj
 0001:0006a700       _wcscat                    1006b700 f   libucrtd:wcscat.obj
 0001:0006a760       _wcscpy                    1006b760 f   libucrtd:wcscpy.obj
 0001:0006adf0       ??$open_file@ABQBDABQBDABHPAU_iobuf@@@?$__crt_char_traits@D@@SAPAU_iobuf@@ABQBD0ABH$$QAPAU1@@Z 1006bdf0 f i libucrtd:fopen.obj
 0001:0006ae20       ??$open_file@ABQB_WABQB_WABHPAU_iobuf@@@?$__crt_char_traits@_W@@SAPAU_iobuf@@ABQB_W0ABH$$QAPAU1@@Z 1006be20 f i libucrtd:fopen.obj
 0001:0006ae50       ?unlock@__crt_stdio_stream@@QBEXXZ 1006be50 f i libucrtd:fopen.obj
 0001:0006ae70       __fsopen                   1006be70 f   libucrtd:fopen.obj
 0001:0006ae90       __wfopen                   1006be90 f   libucrtd:fopen.obj
 0001:0006aeb0       __wfopen_s                 1006beb0 f   libucrtd:fopen.obj
 0001:0006aed0       __wfsopen                  1006bed0 f   libucrtd:fopen.obj
 0001:0006aef0       _fopen                     1006bef0 f   libucrtd:fopen.obj
 0001:0006af10       _fopen_s                   1006bf10 f   libucrtd:fopen.obj
 0001:0006af30       ?is_in_use@__crt_stdio_stream@@QBE_NXZ 1006bf30 f i libucrtd:fclose.obj
 0001:0006af70       __fclose_nolock            1006bf70 f   libucrtd:fclose.obj
 0001:0006b0b0       _fclose                    1006c0b0 f   libucrtd:fclose.obj
 0001:0006b200       __fputc_nolock             1006c200 f   libucrtd:fputc.obj
 0001:0006b290       __fputchar                 1006c290 f   libucrtd:fputc.obj
 0001:0006b2b0       __putc_nolock              1006c2b0 f   libucrtd:fputc.obj
 0001:0006b2d0       _fputc                     1006c2d0 f   libucrtd:fputc.obj
 0001:0006b510       _putc                      1006c510 f   libucrtd:fputc.obj
 0001:0006b530       _putchar                   1006c530 f   libucrtd:fputc.obj
 0001:0006b5a0       __seh_filter_dll           1006c5a0 f   libucrtd:exception_filter.obj
 0001:0006b5d0       __seh_filter_exe           1006c5d0 f   libucrtd:exception_filter.obj
 0001:0006b7e0       ??$?B$$A6GXPAXK0@Z@__crt_fast_encoded_nullptr_t@@QBEP6GXPAXK0@ZXZ 1006c7e0 f i libucrtd:exit.obj
 0001:0006b8c0       ??$__crt_fast_decode_pointer@P6GXPAXK0@Z@@YAP6GXPAXK0@ZQ6GX0K0@Z@Z 1006c8c0 f i libucrtd:exit.obj
 0001:0006b8f0       ??$__crt_fast_encode_pointer@P6GXPAXK0@Z@@YAP6GXPAXK0@ZQ6GX0K0@Z@Z 1006c8f0 f i libucrtd:exit.obj
 0001:0006b920       ??$__crt_get_proc_address@P6GXI@Z@@YAP6GXI@ZQAUHINSTANCE__@@QBD@Z 1006c920 f i libucrtd:exit.obj
 0001:0006b9b0       ??0?$__crt_unique_handle_t@U__crt_hmodule_traits@@@@QAE@QAUHINSTANCE__@@@Z 1006c9b0 f i libucrtd:exit.obj
 0001:0006b9d0       ??1?$__crt_unique_handle_t@U__crt_hmodule_traits@@@@QAE@XZ 1006c9d0 f i libucrtd:exit.obj
 0001:0006bb90       ?__acrt_select_exit_lock@@YA?AW4__acrt_lock_id@@XZ 1006cb90 f i libucrtd:exit.obj
 0001:0006bba0       ?__crt_fast_encode_pointer@@YA?AU__crt_fast_encoded_nullptr_t@@$$T@Z 1006cba0 f i libucrtd:exit.obj
 0001:0006bbd0       ?close@?$__crt_unique_handle_t@U__crt_hmodule_traits@@@@QAEXXZ 1006cbd0 f i libucrtd:exit.obj
 0001:0006bc10       ?close@__crt_hmodule_traits@@SA_NPAUHINSTANCE__@@@Z 1006cc10 f i libucrtd:exit.obj
 0001:0006bd00       ?get@?$__crt_unique_handle_t@U__crt_hmodule_traits@@@@QBEPAUHINSTANCE__@@XZ 1006cd00 f i libucrtd:exit.obj
 0001:0006bd20       ?get_address_of@?$__crt_unique_handle_t@U__crt_hmodule_traits@@@@QAEPAPAUHINSTANCE__@@XZ 1006cd20 f i libucrtd:exit.obj
 0001:0006bd30       ?get_invalid_value@__crt_hmodule_traits@@SAPAUHINSTANCE__@@XZ 1006cd30 f i libucrtd:exit.obj
 0001:0006beb0       __Exit                     1006ceb0 f   libucrtd:exit.obj
 0001:0006bed0       ___acrt_initialize_thread_local_exit_callback 1006ced0 f   libucrtd:exit.obj
 0001:0006bee0       __c_exit                   1006cee0 f   libucrtd:exit.obj
 0001:0006bf00       __cexit                    1006cf00 f   libucrtd:exit.obj
 0001:0006bf20       __exit                     1006cf20 f   libucrtd:exit.obj
 0001:0006bf40       __is_c_termination_complete 1006cf40 f   libucrtd:exit.obj
 0001:0006bf60       __register_thread_local_exe_atexit_callback 1006cf60 f   libucrtd:exit.obj
 0001:0006bfa0       _exit                      1006cfa0 f   libucrtd:exit.obj
 0001:0006bfc0       _quick_exit                1006cfc0 f   libucrtd:exit.obj
 0001:0006bfe0       ??$?RE@__crt_internal_free_policy@@QBEXQBE@Z 1006cfe0 f i libucrtd:argv_parsing.obj
 0001:0006c000       ??$?RPAD@__crt_internal_free_policy@@QBEXQBQAD@Z 1006d000 f i libucrtd:argv_parsing.obj
 0001:0006c020       ??$?RPA_W@__crt_internal_free_policy@@QBEXQBQA_W@Z 1006d020 f i libucrtd:argv_parsing.obj
 0001:0006c580       ??$get_module_file_name@$$TAAY0BAF@DH@?$__crt_char_traits@D@@SAK$$QA$$TAAY0BAF@D$$QAH@Z 1006d580 f i libucrtd:argv_parsing.obj
 0001:0006c5a0       ??$get_module_file_name@$$TAAY0BAF@_WH@?$__crt_char_traits@_W@@SAK$$QA$$TAAY0BAF@_W$$QAH@Z 1006d5a0 f i libucrtd:argv_parsing.obj
 0001:0006ccc0       ??$set_program_name@PAD@?$__crt_char_traits@D@@SAX$$QAPAD@Z 1006dcc0 f i libucrtd:argv_parsing.obj
 0001:0006cce0       ??$set_program_name@PA_W@?$__crt_char_traits@_W@@SAX$$QAPA_W@Z 1006dce0 f i libucrtd:argv_parsing.obj
 0001:0006cd40       ??0?$__crt_unique_heap_ptr@EU__crt_internal_free_policy@@@@QAE@QAE@Z 1006dd40 f i libucrtd:argv_parsing.obj
 0001:0006cd60       ??0?$__crt_unique_heap_ptr@PADU__crt_internal_free_policy@@@@QAE@QAPAD@Z 1006dd60 f i libucrtd:argv_parsing.obj
 0001:0006cd80       ??0?$__crt_unique_heap_ptr@PA_WU__crt_internal_free_policy@@@@QAE@QAPA_W@Z 1006dd80 f i libucrtd:argv_parsing.obj
 0001:0006cda0       ??1?$__crt_unique_heap_ptr@EU__crt_internal_free_policy@@@@QAE@XZ 1006dda0 f i libucrtd:argv_parsing.obj
 0001:0006cdc0       ??1?$__crt_unique_heap_ptr@PADU__crt_internal_free_policy@@@@QAE@XZ 1006ddc0 f i libucrtd:argv_parsing.obj
 0001:0006cde0       ??1?$__crt_unique_heap_ptr@PA_WU__crt_internal_free_policy@@@@QAE@XZ 1006dde0 f i libucrtd:argv_parsing.obj
 0001:0006ce00       ??B?$__crt_unique_heap_ptr@EU__crt_internal_free_policy@@@@QBE_NXZ 1006de00 f i libucrtd:argv_parsing.obj
 0001:0006cec0       ?detach@?$__crt_unique_heap_ptr@EU__crt_internal_free_policy@@@@QAEPAEXZ 1006dec0 f i libucrtd:argv_parsing.obj
 0001:0006cef0       ?detach@?$__crt_unique_heap_ptr@PADU__crt_internal_free_policy@@@@QAEPAPADXZ 1006def0 f i libucrtd:argv_parsing.obj
 0001:0006cf20       ?detach@?$__crt_unique_heap_ptr@PA_WU__crt_internal_free_policy@@@@QAEPAPA_WXZ 1006df20 f i libucrtd:argv_parsing.obj
 0001:0006cfb0       ?get@?$__crt_unique_heap_ptr@EU__crt_internal_free_policy@@@@QBEPAEXZ 1006dfb0 f i libucrtd:argv_parsing.obj
 0001:0006cfd0       ?get@?$__crt_unique_heap_ptr@PADU__crt_internal_free_policy@@@@QBEPAPADXZ 1006dfd0 f i libucrtd:argv_parsing.obj
 0001:0006cff0       ?get@?$__crt_unique_heap_ptr@PA_WU__crt_internal_free_policy@@@@QBEPAPA_WXZ 1006dff0 f i libucrtd:argv_parsing.obj
 0001:0006d010       ?get_address_of@?$__crt_unique_heap_ptr@PADU__crt_internal_free_policy@@@@QAEPAPAPADXZ 1006e010 f i libucrtd:argv_parsing.obj
 0001:0006d020       ?get_address_of@?$__crt_unique_heap_ptr@PA_WU__crt_internal_free_policy@@@@QAEPAPAPA_WXZ 1006e020 f i libucrtd:argv_parsing.obj
 0001:0006d070       ?is_valid@?$__crt_unique_heap_ptr@EU__crt_internal_free_policy@@@@QBE_NXZ 1006e070 f i libucrtd:argv_parsing.obj
 0001:0006d0a0       ?release@?$__crt_unique_heap_ptr@EU__crt_internal_free_policy@@@@QAEXXZ 1006e0a0 f i libucrtd:argv_parsing.obj
 0001:0006d0d0       ?release@?$__crt_unique_heap_ptr@PADU__crt_internal_free_policy@@@@QAEXXZ 1006e0d0 f i libucrtd:argv_parsing.obj
 0001:0006d100       ?release@?$__crt_unique_heap_ptr@PA_WU__crt_internal_free_policy@@@@QAEXXZ 1006e100 f i libucrtd:argv_parsing.obj
 0001:0006d170       ___acrt_allocate_buffer_for_argv 1006e170 f   libucrtd:argv_parsing.obj
 0001:0006d230       __configure_narrow_argv    1006e230 f   libucrtd:argv_parsing.obj
 0001:0006d250       __configure_wide_argv      1006e250 f   libucrtd:argv_parsing.obj
 0001:0006d270       __set_pgmptr               1006e270 f i libucrtd:argv_parsing.obj
 0001:0006d280       __set_wpgmptr              1006e280 f i libucrtd:argv_parsing.obj
 0001:0006d28f       ??$?R_W@__crt_internal_free_policy@@QBEXQB_W@Z 1006e28f f i libucrtd:environment_initialization.obj
 0001:0006d6f8       ??$get_environment_from_os@$$V@?$__crt_char_traits@D@@SAPADXZ 1006e6f8 f i libucrtd:environment_initialization.obj
 0001:0006d6fd       ??$get_environment_from_os@$$V@?$__crt_char_traits@_W@@SAPA_WXZ 1006e6fd f i libucrtd:environment_initialization.obj
 0001:0006d826       ??$set_variable_in_environment_nolock@PADH@?$__crt_char_traits@D@@SAH$$QAPAD$$QAH@Z 1006e826 f i libucrtd:environment_initialization.obj
 0001:0006d83e       ??$set_variable_in_environment_nolock@PA_WH@?$__crt_char_traits@_W@@SAH$$QAPA_W$$QAH@Z 1006e83e f i libucrtd:environment_initialization.obj
 0001:0006d856       ??$tcscpy_s@PADABIAAPAD@?$__crt_char_traits@D@@SAH$$QAPADABIAAPAD@Z 1006e856 f i libucrtd:environment_initialization.obj
 0001:0006d874       ??$tcscpy_s@PA_WABIAAPA_W@?$__crt_char_traits@_W@@SAH$$QAPA_WABIAAPA_W@Z 1006e874 f i libucrtd:environment_initialization.obj
 0001:0006d892       ??$tcslen@AAPAD@?$__crt_char_traits@D@@SAIAAPAD@Z 1006e892 f i libucrtd:environment_initialization.obj
 0001:0006d8aa       ??$tcslen@AAPA_W@?$__crt_char_traits@_W@@SAIAAPA_W@Z 1006e8aa f i libucrtd:environment_initialization.obj
 0001:0006d8c8       ??$uninitialize@A6AXAAPAPAD@Z@?$dual_state_global@PAPAD@__crt_state_management@@QAEXA6AXAAPAPAD@Z@Z 1006e8c8 f i libucrtd:environment_initialization.obj
 0001:0006d8f1       ??$uninitialize@A6AXAAPAPA_W@Z@?$dual_state_global@PAPA_W@__crt_state_management@@QAEXA6AXAAPAPA_W@Z@Z 1006e8f1 f i libucrtd:environment_initialization.obj
 0001:0006d950       ??0?$__crt_unique_heap_ptr@_WU__crt_internal_free_policy@@@@QAE@QA_W@Z 1006e950 f i libucrtd:environment_initialization.obj
 0001:0006d960       ??1?$__crt_unique_heap_ptr@_WU__crt_internal_free_policy@@@@QAE@XZ 1006e960 f i libucrtd:environment_initialization.obj
 0001:0006d975       ??B?$__crt_unique_heap_ptr@PADU__crt_internal_free_policy@@@@QBE_NXZ 1006e975 f i libucrtd:environment_initialization.obj
 0001:0006d97c       ??B?$__crt_unique_heap_ptr@PA_WU__crt_internal_free_policy@@@@QBE_NXZ 1006e97c f i libucrtd:environment_initialization.obj
 0001:0006d983       ??B?$__crt_unique_heap_ptr@_WU__crt_internal_free_policy@@@@QBE_NXZ 1006e983 f i libucrtd:environment_initialization.obj
 0001:0006d98a       ?__crt_compute_required_transform_buffer_count@@YAIIQBD@Z 1006e98a f i libucrtd:environment_initialization.obj
 0001:0006d9a6       ?__crt_compute_required_transform_buffer_count@@YAIIQB_W@Z 1006e9a6 f i libucrtd:environment_initialization.obj
 0001:0006d9c4       ?__crt_transform_string@@YAIIQBDQA_WI@Z 1006e9c4 f i libucrtd:environment_initialization.obj
 0001:0006d9e3       ?__crt_transform_string@@YAIIQB_WQADI@Z 1006e9e3 f i libucrtd:environment_initialization.obj
 0001:0006da05       ?detach@?$__crt_unique_heap_ptr@DU__crt_internal_free_policy@@@@QAEPADXZ 1006ea05 f i libucrtd:environment_initialization.obj
 0001:0006da0b       ?detach@?$__crt_unique_heap_ptr@_WU__crt_internal_free_policy@@@@QAEPA_WXZ 1006ea0b f i libucrtd:environment_initialization.obj
 0001:0006da11       ?get@?$__crt_unique_heap_ptr@_WU__crt_internal_free_policy@@@@QBEPA_WXZ 1006ea11 f i libucrtd:environment_initialization.obj
 0001:0006da38       ?initialize@?$dual_state_global@PAPAD@__crt_state_management@@QAEXQAPAD@Z 1006ea38 f i libucrtd:environment_initialization.obj
 0001:0006da5e       ?initialize@?$dual_state_global@PAPA_W@__crt_state_management@@QAEXQAPA_W@Z 1006ea5e f i libucrtd:environment_initialization.obj
 0001:0006da84       ?is_valid@?$__crt_unique_heap_ptr@PADU__crt_internal_free_policy@@@@QBE_NXZ 1006ea84 f i libucrtd:environment_initialization.obj
 0001:0006da8b       ?is_valid@?$__crt_unique_heap_ptr@PA_WU__crt_internal_free_policy@@@@QBE_NXZ 1006ea8b f i libucrtd:environment_initialization.obj
 0001:0006da92       ?is_valid@?$__crt_unique_heap_ptr@_WU__crt_internal_free_policy@@@@QBE_NXZ 1006ea92 f i libucrtd:environment_initialization.obj
 0001:0006daa1       ?release@?$__crt_unique_heap_ptr@_WU__crt_internal_free_policy@@@@QAEXXZ 1006eaa1 f i libucrtd:environment_initialization.obj
 0001:0006dab6       ?value@?$dual_state_global@PAPAD@__crt_state_management@@QAEAAPAPADXZ 1006eab6 f i libucrtd:environment_initialization.obj
 0001:0006dab9       ?value@?$dual_state_global@PAPA_W@__crt_state_management@@QAEAAPAPA_WXZ 1006eab9 f i libucrtd:environment_initialization.obj
 0001:0006dabc       ___dcrt_get_or_create_narrow_environment_nolock 1006eabc f   libucrtd:environment_initialization.obj
 0001:0006dac1       ___dcrt_get_or_create_wide_environment_nolock 1006eac1 f   libucrtd:environment_initialization.obj
 0001:0006dac6       ___dcrt_uninitialize_environments_nolock 1006eac6 f   libucrtd:environment_initialization.obj
 0001:0006dafd       ___p__environ              1006eafd f   libucrtd:environment_initialization.obj
 0001:0006db03       ___p__wenviron             1006eb03 f   libucrtd:environment_initialization.obj
 0001:0006db09       __get_initial_narrow_environment 1006eb09 f   libucrtd:environment_initialization.obj
 0001:0006db1d       __get_initial_wide_environment 1006eb1d f   libucrtd:environment_initialization.obj
 0001:0006db31       __initialize_narrow_environment 1006eb31 f   libucrtd:environment_initialization.obj
 0001:0006db36       __initialize_wide_environment 1006eb36 f   libucrtd:environment_initialization.obj
 0001:0006db40       ??$?B$$A6AXXZ@__crt_fast_encoded_nullptr_t@@QBEP6AXXZXZ 1006eb40 f i libucrtd:onexit.obj
 0001:0006db60       ??$?BP6AXXZ@__crt_fast_encoded_nullptr_t@@QBEPAP6AXXZXZ 1006eb60 f i libucrtd:onexit.obj
 0001:0006db80       ??$?RP6AXXZ@__crt_internal_free_policy@@QBEXQBQ6AXXZ@Z 1006eb80 f i libucrtd:onexit.obj
 0001:0006dd40       ??$__crt_fast_decode_pointer@P6AXXZ@@YAP6AXXZQ6AXXZ@Z 1006ed40 f i libucrtd:onexit.obj
 0001:0006dd70       ??$__crt_fast_decode_pointer@PAP6AXXZ@@YAPAP6AXXZQAP6AXXZ@Z 1006ed70 f i libucrtd:onexit.obj
 0001:0006dda0       ??$__crt_fast_encode_pointer@P6AHXZ@@YAP6AHXZQ6AHXZ@Z 1006eda0 f i libucrtd:onexit.obj
 0001:0006ddd0       ??$__crt_fast_encode_pointer@P6AXXZ@@YAP6AXXZQ6AXXZ@Z 1006edd0 f i libucrtd:onexit.obj
 0001:0006de00       ??$__crt_fast_encode_pointer@PAP6AXXZ@@YAPAP6AXXZQAP6AXXZ@Z 1006ee00 f i libucrtd:onexit.obj
 0001:0006df00       ??0?$__crt_unique_heap_ptr@P6AXXZU__crt_internal_free_policy@@@@QAE@QAP6AXXZ@Z 1006ef00 f i libucrtd:onexit.obj
 0001:0006df20       ??1?$__crt_unique_heap_ptr@P6AXXZU__crt_internal_free_policy@@@@QAE@XZ 1006ef20 f i libucrtd:onexit.obj
 0001:0006df40       ??1scoped_global_state_reset@__crt_state_management@@QAE@XZ 1006ef40 f i libucrtd:onexit.obj
 0001:0006e3b0       ?detach@?$__crt_unique_heap_ptr@P6AXXZU__crt_internal_free_policy@@@@QAEPAP6AXXZXZ 1006f3b0 f i libucrtd:onexit.obj
 0001:0006e3e0       ?release@?$__crt_unique_heap_ptr@P6AXXZU__crt_internal_free_policy@@@@QAEXXZ 1006f3e0 f i libucrtd:onexit.obj
 0001:0006e410       __crt_at_quick_exit        1006f410 f   libucrtd:onexit.obj
 0001:0006e430       __crt_atexit               1006f430 f   libucrtd:onexit.obj
 0001:0006e450       __execute_onexit_table     1006f450 f   libucrtd:onexit.obj
 0001:0006e480       __initialize_onexit_table  1006f480 f   libucrtd:onexit.obj
 0001:0006e4e0       __register_onexit_function 1006f4e0 f   libucrtd:onexit.obj
 0001:0006e720       ??$?BX@__crt_fast_encoded_nullptr_t@@QBEPAXXZ 1006f720 f i libucrtd:initialization.obj
 0001:0006e740       ??$__crt_fast_encode_pointer@PAX@@YAPAXQAX@Z 1006f740 f i libucrtd:initialization.obj
 0001:0006e800       ?initialize@?$dual_state_global@PAU__crt_locale_data@@@__crt_state_management@@QAEXQAU__crt_locale_data@@@Z 1006f800 f i libucrtd:initialization.obj
 0001:0006e840       ___acrt_initialize         1006f840 f   libucrtd:initialization.obj
 0001:0006e860       ___acrt_thread_attach      1006f860 f   libucrtd:initialization.obj
 0001:0006e880       ___acrt_thread_detach      1006f880 f   libucrtd:initialization.obj
 0001:0006e890       ___acrt_uninitialize       1006f890 f   libucrtd:initialization.obj
 0001:0006e8b0       ___acrt_uninitialize_critical 1006f8b0 f   libucrtd:initialization.obj
 0001:00070120       __CrtCheckMemory           10071120 f   libucrtd:debug_heap.obj
 0001:000702b0       __CrtDoForAllClientObjects 100712b0 f   libucrtd:debug_heap.obj
 0001:00070400       __CrtDumpMemoryLeaks       10071400 f   libucrtd:debug_heap.obj
 0001:000704a0       __CrtGetAllocHook          100714a0 f   libucrtd:debug_heap.obj
 0001:000704b0       __CrtGetDumpClient         100714b0 f   libucrtd:debug_heap.obj
 0001:000704c0       __CrtIsMemoryBlock         100714c0 f   libucrtd:debug_heap.obj
 0001:00070610       __CrtIsValidHeapPointer    10071610 f   libucrtd:debug_heap.obj
 0001:00070640       __CrtIsValidPointer        10071640 f   libucrtd:debug_heap.obj
 0001:00070670       __CrtMemCheckpoint         10071670 f   libucrtd:debug_heap.obj
 0001:000708a0       __CrtMemDifference         100718a0 f   libucrtd:debug_heap.obj
 0001:00070b10       __CrtMemDumpAllObjectsSince 10071b10 f   libucrtd:debug_heap.obj
 0001:00070bb0       __CrtMemDumpStatistics     10071bb0 f   libucrtd:debug_heap.obj
 0001:00070ce0       __CrtReportBlockType       10071ce0 f   libucrtd:debug_heap.obj
 0001:00070d10       __CrtSetAllocHook          10071d10 f   libucrtd:debug_heap.obj
 0001:00070d30       __CrtSetBreakAlloc         10071d30 f   libucrtd:debug_heap.obj
 0001:00070d50       __CrtSetDbgBlockType       10071d50 f   libucrtd:debug_heap.obj
 0001:00070e30       __CrtSetDbgFlag            10071e30 f   libucrtd:debug_heap.obj
 0001:00070fa0       __CrtSetDumpClient         10071fa0 f   libucrtd:debug_heap.obj
 0001:00070fc0       ___acrt_get_locale_data_prefix 10071fc0 f i libucrtd:debug_heap.obj
 0001:00070fe0       ___p__crtBreakAlloc        10071fe0 f   libucrtd:debug_heap.obj
 0001:00070ff0       ___p__crtDbgFlag           10071ff0 f   libucrtd:debug_heap.obj
 0001:00071000       __aligned_free_dbg         10072000 f   libucrtd:debug_heap.obj
 0001:000710b0       __aligned_malloc_dbg       100720b0 f   libucrtd:debug_heap.obj
 0001:000710e0       __aligned_msize_dbg        100720e0 f   libucrtd:debug_heap.obj
 0001:00071210       __aligned_offset_malloc_dbg 10072210 f   libucrtd:debug_heap.obj
 0001:000713f0       __aligned_offset_realloc_dbg 100723f0 f   libucrtd:debug_heap.obj
 0001:00071700       __aligned_offset_recalloc_dbg 10072700 f   libucrtd:debug_heap.obj
 0001:000717c0       __aligned_realloc_dbg      100727c0 f   libucrtd:debug_heap.obj
 0001:000717f0       __aligned_recalloc_dbg     100727f0 f   libucrtd:debug_heap.obj
 0001:00071820       __calloc_dbg               10072820 f   libucrtd:debug_heap.obj
 0001:00071890       __chvalidchk_l             10072890 f i libucrtd:debug_heap.obj
 0001:000718b0       __expand_dbg               100728b0 f   libucrtd:debug_heap.obj
 0001:000719e0       __free_dbg                 100729e0 f   libucrtd:debug_heap.obj
 0001:00071a90       __ischartype_l             10072a90 f i libucrtd:debug_heap.obj
 0001:00071b10       __malloc_dbg               10072b10 f   libucrtd:debug_heap.obj
 0001:00071b30       __msize_dbg                10072b30 f   libucrtd:debug_heap.obj
 0001:00071cc0       __realloc_dbg              10072cc0 f   libucrtd:debug_heap.obj
 0001:00071d60       __recalloc_dbg             10072d60 f   libucrtd:debug_heap.obj
 0001:00071e10       __initterm                 10072e10 f   libucrtd:initterm.obj
 0001:00071e60       __initterm_e               10072e60 f   libucrtd:initterm.obj
 0001:000721d0       _strcpy_s                  100731d0 f   libucrtd:strcpy_s.obj
 0001:00072600       _strcat_s                  10073600 f   libucrtd:strcat_s.obj
 0001:00072620       ??$?B$$A6AHI@Z@__crt_fast_encoded_nullptr_t@@QBEP6AHI@ZXZ 10073620 f i libucrtd:new_handler.obj
 0001:00072640       ??$__crt_fast_decode_pointer@P6AHI@Z@@YAP6AHI@ZQ6AHI@Z@Z 10073640 f i libucrtd:new_handler.obj
 0001:00072670       ??$__crt_fast_encode_pointer@P6AHI@Z@@YAP6AHI@ZQ6AHI@Z@Z 10073670 f i libucrtd:new_handler.obj
 0001:000726a0       ?_set_new_handler@@YAP6AHI@ZH@Z 100736a0 f   libucrtd:new_handler.obj
 0001:00072700       ?initialize@?$dual_state_global@P6AHI@Z@__crt_state_management@@QAEXQ6AHI@Z@Z 10073700 f i libucrtd:new_handler.obj
 0001:00072740       ?value@?$dual_state_global@P6AHI@Z@__crt_state_management@@QAEAAP6AHI@ZXZ 10073740 f i libucrtd:new_handler.obj
 0001:00072760       ___acrt_initialize_new_handler 10073760 f   libucrtd:new_handler.obj
 0001:00072780       __callnewh                 10073780 f   libucrtd:new_handler.obj
 0001:000727c0       __query_new_handler        100737c0 f   libucrtd:new_handler.obj
 0001:00072850       __set_new_handler          10073850 f   libucrtd:new_handler.obj
 0001:00072930       __get_terminate            10073930 f   libucrtd:terminate.obj
 0001:00072950       _set_terminate             10073950 f   libucrtd:terminate.obj
 0001:00072980       _terminate                 10073980 f   libucrtd:terminate.obj
 0001:00073350       __makepath                 10074350 f   libucrtd:makepath.obj
 0001:00073380       __makepath_s               10074380 f   libucrtd:makepath.obj
 0001:000733b0       __wmakepath                100743b0 f   libucrtd:makepath.obj
 0001:000733e0       __wmakepath_s              100743e0 f   libucrtd:makepath.obj
 0001:00074d30       ??$tcsncpy_s@AAPADIAAPBDABI@?$__crt_char_traits@D@@SAHAAPAD$$QAIAAPBDABI@Z 10075d30 f i libucrtd:splitpath.obj
 0001:00074d60       ??$tcsncpy_s@AAPADIAAPBDH@?$__crt_char_traits@D@@SAHAAPAD$$QAIAAPBD$$QAH@Z 10075d60 f i libucrtd:splitpath.obj
 0001:00074d90       ??$tcsncpy_s@AAPA_WIAAPB_WABI@?$__crt_char_traits@_W@@SAHAAPA_W$$QAIAAPB_WABI@Z 10075d90 f i libucrtd:splitpath.obj
 0001:00074dc0       ??$tcsncpy_s@AAPA_WIAAPB_WH@?$__crt_char_traits@_W@@SAHAAPA_W$$QAIAAPB_W$$QAH@Z 10075dc0 f i libucrtd:splitpath.obj
 0001:00075000       __splitpath                10076000 f   libucrtd:splitpath.obj
 0001:00075030       __splitpath_s              10076030 f   libucrtd:splitpath.obj
 0001:00075080       __wsplitpath               10076080 f   libucrtd:splitpath.obj
 0001:000750b0       __wsplitpath_s             100760b0 f   libucrtd:splitpath.obj
 0001:00075100       __set_abort_behavior       10076100 f   libucrtd:abort.obj
 0001:00075130       _abort                     10076130 f   libucrtd:abort.obj
 0001:000751a0       _strcmp                    100761a0 f   libucrtd:strcmp.obj
 0001:00075230       _strlen                    10076230 f   libucrtd:strlen.obj
 0001:000752c0       ??$is_overflow_condition@K@__crt_strtox@@YA_NIK@Z 100762c0 f i libucrtd:atox.obj
 0001:00075320       ??$is_overflow_condition@_K@__crt_strtox@@YA_NI_K@Z 10076320 f i libucrtd:atox.obj
 0001:000753b0       ??$make_c_string_character_source@D$$T@__crt_strtox@@YA?AV?$c_string_character_source@D@0@QBD$$T@Z 100763b0 f i libucrtd:atox.obj
 0001:000753d0       ??$make_c_string_character_source@_W$$T@__crt_strtox@@YA?AV?$c_string_character_source@_W@0@QB_W$$T@Z 100763d0 f i libucrtd:atox.obj
 0001:000753f0       ??$parse_integer@KV?$c_string_character_source@D@__crt_strtox@@@__crt_strtox@@YAKQAU__crt_locale_pointers@@V?$c_string_character_source@D@0@H_N@Z 100763f0 f i libucrtd:atox.obj
 0001:00075760       ??$parse_integer@KV?$c_string_character_source@_W@__crt_strtox@@@__crt_strtox@@YAKQAU__crt_locale_pointers@@V?$c_string_character_source@_W@0@H_N@Z 10076760 f i libucrtd:atox.obj
 0001:00075ad0       ??$parse_integer@_KV?$c_string_character_source@D@__crt_strtox@@@__crt_strtox@@YA_KQAU__crt_locale_pointers@@V?$c_string_character_source@D@0@H_N@Z 10076ad0 f i libucrtd:atox.obj
 0001:00075ef0       ??$parse_integer@_KV?$c_string_character_source@_W@__crt_strtox@@@__crt_strtox@@YA_KQAU__crt_locale_pointers@@V?$c_string_character_source@_W@0@H_N@Z 10076ef0 f i libucrtd:atox.obj
 0001:00076320       ??$parse_integer_from_string@JD$$T@__crt_strtox@@YAJQBD$$THQAU__crt_locale_pointers@@@Z 10077320 f i libucrtd:atox.obj
 0001:00076360       ??$parse_integer_from_string@J_W$$T@__crt_strtox@@YAJQB_W$$THQAU__crt_locale_pointers@@@Z 10077360 f i libucrtd:atox.obj
 0001:000763a0       ??$parse_integer_from_string@_JD$$T@__crt_strtox@@YA_JQBD$$THQAU__crt_locale_pointers@@@Z 100773a0 f i libucrtd:atox.obj
 0001:000763e0       ??$parse_integer_from_string@_J_W$$T@__crt_strtox@@YA_JQB_W$$THQAU__crt_locale_pointers@@@Z 100773e0 f i libucrtd:atox.obj
 0001:00076420       ??0?$c_string_character_source@D@__crt_strtox@@QAE@QBDQAPBD@Z 10077420 f i libucrtd:atox.obj
 0001:00076460       ??0?$c_string_character_source@_W@__crt_strtox@@QAE@QB_WQAPB_W@Z 10077460 f i libucrtd:atox.obj
 0001:000764a0       ??1?$c_string_character_source@D@__crt_strtox@@QAE@XZ 100774a0 f i libucrtd:atox.obj
 0001:000764d0       ??1?$c_string_character_source@_W@__crt_strtox@@QAE@XZ 100774d0 f i libucrtd:atox.obj
 0001:00076500       ?get@?$c_string_character_source@D@__crt_strtox@@QAEDXZ 10077500 f i libucrtd:atox.obj
 0001:00076530       ?get@?$c_string_character_source@_W@__crt_strtox@@QAE_WXZ 10077530 f i libucrtd:atox.obj
 0001:00076560       ?is_space@__crt_strtox@@YA_NDQAU__crt_locale_pointers@@@Z 10077560 f i libucrtd:atox.obj
 0001:000765a0       ?is_space@__crt_strtox@@YA_N_WPAU__crt_locale_pointers@@@Z 100775a0 f i libucrtd:atox.obj
 0001:000765d0       ?maximum_signed_value@__crt_strtox@@YAJK@Z 100775d0 f i libucrtd:atox.obj
 0001:000765e0       ?maximum_signed_value@__crt_strtox@@YA_J_K@Z 100775e0 f i libucrtd:atox.obj
 0001:000765f0       ?minimum_signed_value@__crt_strtox@@YAJK@Z 100775f0 f i libucrtd:atox.obj
 0001:00076600       ?minimum_signed_value@__crt_strtox@@YA_J_K@Z 10077600 f i libucrtd:atox.obj
 0001:00076610       ?parse_digit@__crt_strtox@@YAID@Z 10077610 f i libucrtd:atox.obj
 0001:00076670       ?parse_digit@__crt_strtox@@YAI_W@Z 10077670 f i libucrtd:atox.obj
 0001:000766c0       ?restore_state@?$c_string_character_source@D@__crt_strtox@@QAE_NQBD@Z 100776c0 f i libucrtd:atox.obj
 0001:000766e0       ?restore_state@?$c_string_character_source@_W@__crt_strtox@@QAE_NQB_W@Z 100776e0 f i libucrtd:atox.obj
 0001:00076700       ?save_state@?$c_string_character_source@D@__crt_strtox@@QBEPBDXZ 10077700 f i libucrtd:atox.obj
 0001:00076720       ?save_state@?$c_string_character_source@_W@__crt_strtox@@QBEPB_WXZ 10077720 f i libucrtd:atox.obj
 0001:00076740       ?unget@?$c_string_character_source@D@__crt_strtox@@QAEXD@Z 10077740 f i libucrtd:atox.obj
 0001:000767f0       ?unget@?$c_string_character_source@_W@__crt_strtox@@QAEX_W@Z 100777f0 f i libucrtd:atox.obj
 0001:000768a0       ?validate@?$c_string_character_source@D@__crt_strtox@@QBE_NXZ 100778a0 f i libucrtd:atox.obj
 0001:00076930       ?validate@?$c_string_character_source@_W@__crt_strtox@@QBE_NXZ 10077930 f i libucrtd:atox.obj
 0001:000769c0       ?wide_character_to_digit@__crt_strtox@@YAH_W@Z 100779c0 f i libucrtd:atox.obj
 0001:00076cf0       ___ascii_iswalpha          10077cf0 f i libucrtd:atox.obj
 0001:00076d30       ___ascii_toupper           10077d30 f i libucrtd:atox.obj
 0001:00076d50       ___ascii_towupper          10077d50 f i libucrtd:atox.obj
 0001:00076d70       __atoi64                   10077d70 f   libucrtd:atox.obj
 0001:00076d90       __atoi64_l                 10077d90 f   libucrtd:atox.obj
 0001:00076db0       __atoi_l                   10077db0 f   libucrtd:atox.obj
 0001:00076dd0       __atol_l                   10077dd0 f   libucrtd:atox.obj
 0001:00076df0       __atoll_l                  10077df0 f   libucrtd:atox.obj
 0001:00076e10       __wtoi                     10077e10 f   libucrtd:atox.obj
 0001:00076e30       __wtoi64                   10077e30 f   libucrtd:atox.obj
 0001:00076e50       __wtoi64_l                 10077e50 f   libucrtd:atox.obj
 0001:00076e70       __wtoi_l                   10077e70 f   libucrtd:atox.obj
 0001:00076e90       __wtol                     10077e90 f   libucrtd:atox.obj
 0001:00076eb0       __wtol_l                   10077eb0 f   libucrtd:atox.obj
 0001:00076ed0       __wtoll                    10077ed0 f   libucrtd:atox.obj
 0001:00076ef0       __wtoll_l                  10077ef0 f   libucrtd:atox.obj
 0001:00076f10       _atoi                      10077f10 f   libucrtd:atox.obj
 0001:00076f30       _atol                      10077f30 f   libucrtd:atox.obj
 0001:00076f50       _atoll                     10077f50 f   libucrtd:atox.obj
 0001:00076f70       _strncmp                   10077f70 f   libucrtd:strncmp.obj
 0001:00076ff0       _wcsncmp                   10077ff0 f   libucrtd:wcsncmp.obj
 0001:00077050       __CrtGetDebugFillThreshold 10078050 f   libucrtd:debug_fill_threshold.obj
 0001:00077060       __CrtSetDebugFillThreshold 10078060 f   libucrtd:debug_fill_threshold.obj
 0001:00077080       ??$make_c_string_character_source@DPAPAD@__crt_strtox@@YA?AV?$c_string_character_source@D@0@QBDQAPAD@Z 10078080 f i libucrtd:strtox.obj
 0001:000770a0       ??$make_c_string_character_source@_WPAPA_W@__crt_strtox@@YA?AV?$c_string_character_source@_W@0@QB_WQAPA_W@Z 100780a0 f i libucrtd:strtox.obj
 0001:000770c0       ??$parse_integer_from_string@JDPAPAD@__crt_strtox@@YAJQBDQAPADHQAU__crt_locale_pointers@@@Z 100780c0 f i libucrtd:strtox.obj
 0001:00077100       ??$parse_integer_from_string@J_WPAPA_W@__crt_strtox@@YAJQB_WQAPA_WHQAU__crt_locale_pointers@@@Z 10078100 f i libucrtd:strtox.obj
 0001:00077140       ??$parse_integer_from_string@KDPAPAD@__crt_strtox@@YAKQBDQAPADHQAU__crt_locale_pointers@@@Z 10078140 f i libucrtd:strtox.obj
 0001:00077180       ??$parse_integer_from_string@K_WPAPA_W@__crt_strtox@@YAKQB_WQAPA_WHQAU__crt_locale_pointers@@@Z 10078180 f i libucrtd:strtox.obj
 0001:000771c0       ??$parse_integer_from_string@_JDPAPAD@__crt_strtox@@YA_JQBDQAPADHQAU__crt_locale_pointers@@@Z 100781c0 f i libucrtd:strtox.obj
 0001:00077200       ??$parse_integer_from_string@_J_WPAPA_W@__crt_strtox@@YA_JQB_WQAPA_WHQAU__crt_locale_pointers@@@Z 10078200 f i libucrtd:strtox.obj
 0001:00077240       ??$parse_integer_from_string@_KDPAPAD@__crt_strtox@@YA_KQBDQAPADHQAU__crt_locale_pointers@@@Z 10078240 f i libucrtd:strtox.obj
 0001:00077280       ??$parse_integer_from_string@_K_WPAPA_W@__crt_strtox@@YA_KQB_WQAPA_WHQAU__crt_locale_pointers@@@Z 10078280 f i libucrtd:strtox.obj
 0001:000772c0       __strtoi64                 100782c0 f   libucrtd:strtox.obj
 0001:000772e0       __strtoi64_l               100782e0 f   libucrtd:strtox.obj
 0001:00077300       __strtoimax_l              10078300 f   libucrtd:strtox.obj
 0001:00077320       __strtol_l                 10078320 f   libucrtd:strtox.obj
 0001:00077340       __strtoll_l                10078340 f   libucrtd:strtox.obj
 0001:00077360       __strtoui64                10078360 f   libucrtd:strtox.obj
 0001:00077380       __strtoui64_l              10078380 f   libucrtd:strtox.obj
 0001:000773a0       __strtoul_l                100783a0 f   libucrtd:strtox.obj
 0001:000773c0       __strtoull_l               100783c0 f   libucrtd:strtox.obj
 0001:000773e0       __strtoumax_l              100783e0 f   libucrtd:strtox.obj
 0001:00077400       __wcstoi64                 10078400 f   libucrtd:strtox.obj
 0001:00077420       __wcstoi64_l               10078420 f   libucrtd:strtox.obj
 0001:00077440       __wcstoimax_l              10078440 f   libucrtd:strtox.obj
 0001:00077460       __wcstol_l                 10078460 f   libucrtd:strtox.obj
 0001:00077480       __wcstoll_l                10078480 f   libucrtd:strtox.obj
 0001:000774a0       __wcstoui64                100784a0 f   libucrtd:strtox.obj
 0001:000774c0       __wcstoui64_l              100784c0 f   libucrtd:strtox.obj
 0001:000774e0       __wcstoul_l                100784e0 f   libucrtd:strtox.obj
 0001:00077500       __wcstoull_l               10078500 f   libucrtd:strtox.obj
 0001:00077520       __wcstoumax_l              10078520 f   libucrtd:strtox.obj
 0001:00077540       _strtoimax                 10078540 f   libucrtd:strtox.obj
 0001:00077560       _strtol                    10078560 f   libucrtd:strtox.obj
 0001:00077580       _strtoll                   10078580 f   libucrtd:strtox.obj
 0001:000775a0       _strtoul                   100785a0 f   libucrtd:strtox.obj
 0001:000775c0       _strtoull                  100785c0 f   libucrtd:strtox.obj
 0001:000775e0       _strtoumax                 100785e0 f   libucrtd:strtox.obj
 0001:00077600       _wcstoimax                 10078600 f   libucrtd:strtox.obj
 0001:00077620       _wcstol                    10078620 f   libucrtd:strtox.obj
 0001:00077640       _wcstoll                   10078640 f   libucrtd:strtox.obj
 0001:00077660       _wcstoul                   10078660 f   libucrtd:strtox.obj
 0001:00077680       _wcstoull                  10078680 f   libucrtd:strtox.obj
 0001:000776a0       _wcstoumax                 100786a0 f   libucrtd:strtox.obj
 0001:000776c0       __mbtowc_l                 100786c0 f   libucrtd:mbtowc.obj
 0001:000779e0       _mbtowc                    100789e0 f   libucrtd:mbtowc.obj
 0001:00077a00       __wctomb_l                 10078a00 f   libucrtd:wctomb.obj
 0001:00077a80       __wctomb_s_l               10078a80 f   libucrtd:wctomb.obj
 0001:00077e40       _wctomb                    10078e40 f   libucrtd:wctomb.obj
 0001:00077e90       _wctomb_s                  10078e90 f   libucrtd:wctomb.obj
 0001:00077ec0       ??$?RU__acrt_ptd@@@__crt_internal_free_policy@@QBEXQBU__acrt_ptd@@@Z 10078ec0 f i libucrtd:per_thread_data.obj
 0001:00078370       ??0?$__crt_unique_heap_ptr@U__acrt_ptd@@U__crt_internal_free_policy@@@@QAE@QAU__acrt_ptd@@@Z 10079370 f i libucrtd:per_thread_data.obj
 0001:00078390       ??0__crt_scoped_get_last_error_reset@@QAE@XZ 10079390 f i libucrtd:per_thread_data.obj
 0001:000783b0       ??1?$__crt_unique_heap_ptr@U__acrt_ptd@@U__crt_internal_free_policy@@@@QAE@XZ 100793b0 f i libucrtd:per_thread_data.obj
 0001:000783d0       ??1__crt_scoped_get_last_error_reset@@QAE@XZ 100793d0 f i libucrtd:per_thread_data.obj
 0001:000783f0       ??B?$__crt_unique_heap_ptr@U__acrt_ptd@@U__crt_internal_free_policy@@@@QBE_NXZ 100793f0 f i libucrtd:per_thread_data.obj
 0001:000786d0       ?dangerous_get_state_array@?$dual_state_global@PAU__crt_locale_data@@@__crt_state_management@@QAEPAPAU__crt_locale_data@@XZ 100796d0 f i libucrtd:per_thread_data.obj
 0001:00078850       ?detach@?$__crt_unique_heap_ptr@U__acrt_ptd@@U__crt_internal_free_policy@@@@QAEPAU__acrt_ptd@@XZ 10079850 f i libucrtd:per_thread_data.obj
 0001:00078880       ?get@?$__crt_unique_heap_ptr@U__acrt_ptd@@U__crt_internal_free_policy@@@@QBEPAU__acrt_ptd@@XZ 10079880 f i libucrtd:per_thread_data.obj
 0001:000788a0       ?get_current_state_index@__crt_state_management@@YAIABV__crt_scoped_get_last_error_reset@@@Z 100798a0 f i libucrtd:per_thread_data.obj
 0001:00078a10       ?is_valid@?$__crt_unique_heap_ptr@U__acrt_ptd@@U__crt_internal_free_policy@@@@QBE_NXZ 10079a10 f i libucrtd:per_thread_data.obj
 0001:00078a40       ?release@?$__crt_unique_heap_ptr@U__acrt_ptd@@U__crt_internal_free_policy@@@@QAEXXZ 10079a40 f i libucrtd:per_thread_data.obj
 0001:00078b30       ?value@?$dual_state_global@PAU__crt_locale_data@@@__crt_state_management@@QAEAAPAU__crt_locale_data@@XZ 10079b30 f i libucrtd:per_thread_data.obj
 0001:00078b50       ___acrt_freeptd            10079b50 f   libucrtd:per_thread_data.obj
 0001:00078b80       ___acrt_getptd             10079b80 f   libucrtd:per_thread_data.obj
 0001:00078ba0       ___acrt_getptd_head        10079ba0 f   libucrtd:per_thread_data.obj
 0001:00078bc0       ___acrt_getptd_noexit      10079bc0 f   libucrtd:per_thread_data.obj
 0001:00078bd0       ___acrt_initialize_ptd     10079bd0 f   libucrtd:per_thread_data.obj
 0001:00078c10       ___acrt_uninitialize_ptd   10079c10 f   libucrtd:per_thread_data.obj
 0001:00078c40       ___threadhandle            10079c40 f   libucrtd:per_thread_data.obj
 0001:00078c50       ___threadid                10079c50 f   libucrtd:per_thread_data.obj
 0001:00078c60       ?value@?$dual_state_global@PAU__crt_multibyte_data@@@__crt_state_management@@QAEAAPAU__crt_multibyte_data@@XZ 10079c60 f i libucrtd:locale_update.obj
 0001:00078c80       ___acrt_should_sync_with_global_locale 10079c80 f i libucrtd:locale_update.obj
 0001:00078cb0       ___acrt_update_locale_info 10079cb0 f   libucrtd:locale_update.obj
 0001:00078cf0       ___acrt_update_multibyte_info 10079cf0 f   libucrtd:locale_update.obj
 0001:00078d30       ?__acrt_fp_classify@@YA?AW4__acrt_fp_class@@ABN@Z 10079d30 f i libucrtd:cvt.obj
 0001:00078e50       ?__acrt_fp_is_negative@@YA_NABN@Z 10079e50 f i libucrtd:cvt.obj
 0001:0007a140       ?strrchr@@YAPADQADH@Z      1007b140 f i libucrtd:cvt.obj
 0001:0007a160       ___acrt_fp_format          1007b160 f   libucrtd:cvt.obj
 0001:0007a620       __fputwc_nolock            1007b620 f   libucrtd:fputwc.obj
 0001:0007a810       __fputwchar                1007b810 f   libucrtd:fputwc.obj
 0001:0007a830       __putwc_nolock             1007b830 f   libucrtd:fputwc.obj
 0001:0007a850       _fputwc                    1007b850 f   libucrtd:fputwc.obj
 0001:0007a960       _putwc                     1007b960 f   libucrtd:fputwc.obj
 0001:0007a980       _putwchar                  1007b980 f   libucrtd:fputwc.obj
 0001:0007a9a0       ?lowio_handle@__crt_stdio_stream@@QBEHXZ 1007b9a0 f i libucrtd:fileno.obj
 0001:0007a9c0       __fileno                   1007b9c0 f   libucrtd:fileno.obj
 0001:0007aa60       ??$?RPAU__crt_stdio_stream_data@@@__crt_internal_free_policy@@QBEXQBQAU__crt_stdio_stream_data@@@Z 1007ba60 f i libucrtd:_file.obj
 0001:0007aa80       ??0?$__crt_unique_heap_ptr@PAU__crt_stdio_stream_data@@U__crt_internal_free_policy@@@@QAE@QAPAU__crt_stdio_stream_data@@@Z 1007ba80 f i libucrtd:_file.obj
 0001:0007aaa0       ??1?$__crt_unique_heap_ptr@PAU__crt_stdio_stream_data@@U__crt_internal_free_policy@@@@QAE@XZ 1007baa0 f i libucrtd:_file.obj
 0001:0007aac0       ?detach@?$__crt_unique_heap_ptr@PAU__crt_stdio_stream_data@@U__crt_internal_free_policy@@@@QAEPAPAU__crt_stdio_stream_data@@XZ 1007bac0 f i libucrtd:_file.obj
 0001:0007aaf0       ?release@?$__crt_unique_heap_ptr@PAU__crt_stdio_stream_data@@U__crt_internal_free_policy@@@@QAEXXZ 1007baf0 f i libucrtd:_file.obj
 0001:0007ab20       ___acrt_initialize_stdio   1007bb20 f   libucrtd:_file.obj
 0001:0007ac90       ___acrt_iob_func           1007bc90 f   libucrtd:_file.obj
 0001:0007aca0       ___acrt_uninitialize_stdio 1007bca0 f   libucrtd:_file.obj
 0001:0007ad20       __get_stream_buffer_pointers 1007bd20 f   libucrtd:_file.obj
 0001:0007ae00       __lock_file                1007be00 f   libucrtd:_file.obj
 0001:0007ae30       __unlock_file              1007be30 f   libucrtd:_file.obj
 0001:0007ae60       __get_printf_count_output  1007be60 f   libucrtd:printf_count_output.obj
 0001:0007ae90       __set_printf_count_output  1007be90 f   libucrtd:printf_count_output.obj
 0001:0007aef0       ?has_any_buffer@__crt_stdio_stream@@QBE_NXZ 1007bef0 f i libucrtd:_sftbuf.obj
 0001:0007af10       ?has_any_of@__crt_stdio_stream@@QBE_NJ@Z 1007bf10 f i libucrtd:_sftbuf.obj
 0001:0007af50       ?has_temporary_buffer@__crt_stdio_stream@@QBE_NXZ 1007bf50 f i libucrtd:_sftbuf.obj
 0001:0007af70       ?set_flags@__crt_stdio_stream@@QBE_NJ@Z 1007bf70 f i libucrtd:_sftbuf.obj
 0001:0007afc0       ?unset_flags@__crt_stdio_stream@@QBE_NJ@Z 1007bfc0 f i libucrtd:_sftbuf.obj
 0001:0007b010       ___acrt_should_use_temporary_buffer 1007c010 f   libucrtd:_sftbuf.obj
 0001:0007b060       ___acrt_stdio_begin_temporary_buffering_nolock 1007c060 f   libucrtd:_sftbuf.obj
 0001:0007b210       ___acrt_stdio_end_temporary_buffering_nolock 1007c210 f   libucrtd:_sftbuf.obj
 0001:0007b2a0       ??$?RU__crt_locale_data@@@__crt_internal_free_policy@@QBEXQBU__crt_locale_data@@@Z 1007c2a0 f i libucrtd:wsetlocale.obj
 0001:0007b2c0       ??$?RU__crt_locale_pointers@@@__crt_internal_free_policy@@QBEXQBU__crt_locale_pointers@@@Z 1007c2c0 f i libucrtd:wsetlocale.obj
 0001:0007b2e0       ??$?RU__crt_multibyte_data@@@__crt_internal_free_policy@@QBEXQBU__crt_multibyte_data@@@Z 1007c2e0 f i libucrtd:wsetlocale.obj
 0001:0007b8d0       ??0?$__crt_unique_heap_ptr@U__crt_locale_data@@U__crt_internal_free_policy@@@@QAE@QAU__crt_locale_data@@@Z 1007c8d0 f i libucrtd:wsetlocale.obj
 0001:0007b8f0       ??0?$__crt_unique_heap_ptr@U__crt_locale_pointers@@U__crt_internal_free_policy@@@@QAE@QAU__crt_locale_pointers@@@Z 1007c8f0 f i libucrtd:wsetlocale.obj
 0001:0007b910       ??0?$__crt_unique_heap_ptr@U__crt_multibyte_data@@U__crt_internal_free_policy@@@@QAE@QAU__crt_multibyte_data@@@Z 1007c910 f i libucrtd:wsetlocale.obj
 0001:0007b930       ??0_expandlocale_locale_name_cache@@QAE@QA_WIQAU__crt_qualified_locale_data@@@Z 1007c930 f i libucrtd:wsetlocale.obj
 0001:0007b9a0       ??1?$__crt_unique_heap_ptr@U__crt_locale_data@@U__crt_internal_free_policy@@@@QAE@XZ 1007c9a0 f i libucrtd:wsetlocale.obj
 0001:0007b9c0       ??1?$__crt_unique_heap_ptr@U__crt_locale_pointers@@U__crt_internal_free_policy@@@@QAE@XZ 1007c9c0 f i libucrtd:wsetlocale.obj
 0001:0007b9e0       ??1?$__crt_unique_heap_ptr@U__crt_multibyte_data@@U__crt_internal_free_policy@@@@QAE@XZ 1007c9e0 f i libucrtd:wsetlocale.obj
 0001:0007ba00       ??1_expandlocale_locale_name_cache@@QAE@XZ 1007ca00 f i libucrtd:wsetlocale.obj
 0001:0007ba60       ??B?$__crt_unique_heap_ptr@U__crt_locale_data@@U__crt_internal_free_policy@@@@QBE_NXZ 1007ca60 f i libucrtd:wsetlocale.obj
 0001:0007ba80       ??B?$__crt_unique_heap_ptr@U__crt_locale_pointers@@U__crt_internal_free_policy@@@@QBE_NXZ 1007ca80 f i libucrtd:wsetlocale.obj
 0001:0007baa0       ??B?$__crt_unique_heap_ptr@U__crt_multibyte_data@@U__crt_internal_free_policy@@@@QBE_NXZ 1007caa0 f i libucrtd:wsetlocale.obj
 0001:0007be80       ?commit_locale_name@_expandlocale_locale_name_cache@@QAEXQB_WI@Z 1007ce80 f i libucrtd:wsetlocale.obj
 0001:0007bee0       ?commit_locale_name_cache_already_updated@_expandlocale_locale_name_cache@@QAEXQB_WI@Z 1007cee0 f i libucrtd:wsetlocale.obj
 0001:0007bf40       ?detach@?$__crt_unique_heap_ptr@U__crt_locale_data@@U__crt_internal_free_policy@@@@QAEPAU__crt_locale_data@@XZ 1007cf40 f i libucrtd:wsetlocale.obj
 0001:0007bf70       ?detach@?$__crt_unique_heap_ptr@U__crt_locale_pointers@@U__crt_internal_free_policy@@@@QAEPAU__crt_locale_pointers@@XZ 1007cf70 f i libucrtd:wsetlocale.obj
 0001:0007bfa0       ?detach@?$__crt_unique_heap_ptr@U__crt_multibyte_data@@U__crt_internal_free_policy@@@@QAEPAU__crt_multibyte_data@@XZ 1007cfa0 f i libucrtd:wsetlocale.obj
 0001:0007bfd0       ?get@?$__crt_unique_heap_ptr@U__crt_locale_data@@U__crt_internal_free_policy@@@@QBEPAU__crt_locale_data@@XZ 1007cfd0 f i libucrtd:wsetlocale.obj
 0001:0007bff0       ?get@?$__crt_unique_heap_ptr@U__crt_locale_pointers@@U__crt_internal_free_policy@@@@QBEPAU__crt_locale_pointers@@XZ 1007cff0 f i libucrtd:wsetlocale.obj
 0001:0007c010       ?get@?$__crt_unique_heap_ptr@U__crt_multibyte_data@@U__crt_internal_free_policy@@@@QBEPAU__crt_multibyte_data@@XZ 1007d010 f i libucrtd:wsetlocale.obj
 0001:0007c030       ?is_valid@?$__crt_unique_heap_ptr@U__crt_locale_data@@U__crt_internal_free_policy@@@@QBE_NXZ 1007d030 f i libucrtd:wsetlocale.obj
 0001:0007c060       ?is_valid@?$__crt_unique_heap_ptr@U__crt_locale_pointers@@U__crt_internal_free_policy@@@@QBE_NXZ 1007d060 f i libucrtd:wsetlocale.obj
 0001:0007c090       ?is_valid@?$__crt_unique_heap_ptr@U__crt_multibyte_data@@U__crt_internal_free_policy@@@@QBE_NXZ 1007d090 f i libucrtd:wsetlocale.obj
 0001:0007c0c0       ?release@?$__crt_unique_heap_ptr@U__crt_locale_data@@U__crt_internal_free_policy@@@@QAEXXZ 1007d0c0 f i libucrtd:wsetlocale.obj
 0001:0007c0f0       ?release@?$__crt_unique_heap_ptr@U__crt_locale_pointers@@U__crt_internal_free_policy@@@@QAEXXZ 1007d0f0 f i libucrtd:wsetlocale.obj
 0001:0007c120       ?release@?$__crt_unique_heap_ptr@U__crt_multibyte_data@@U__crt_internal_free_policy@@@@QAEXXZ 1007d120 f i libucrtd:wsetlocale.obj
 0001:0007c150       ___acrt_copy_locale_name   1007d150 f   libucrtd:wsetlocale.obj
 0001:0007c1f0       ___acrt_set_locale_changed 1007d1f0 f   libucrtd:wsetlocale.obj
 0001:0007c210       ___acrt_uninitialize_locale 1007d210 f   libucrtd:wsetlocale.obj
 0001:0007c230       ___ascii_tolower           1007d230 f i libucrtd:wsetlocale.obj
 0001:0007c250       ___ascii_towlower          1007d250 f i libucrtd:wsetlocale.obj
 0001:0007c270       ___lc_lctowcs              1007d270 f   libucrtd:wsetlocale.obj
 0001:0007c320       ___lc_wcstolc              1007d320 f   libucrtd:wsetlocale.obj
 0001:0007c550       __configthreadlocale       1007d550 f   libucrtd:wsetlocale.obj
 0001:0007c6d0       __create_locale            1007d6d0 f   libucrtd:wsetlocale.obj
 0001:0007cd10       __free_locale              1007dd10 f   libucrtd:wsetlocale.obj
 0001:0007ce40       __get_current_locale       1007de40 f   libucrtd:wsetlocale.obj
 0001:0007cf10       __wcreate_locale           1007df10 f   libucrtd:wsetlocale.obj
 0001:0007d150       __wcscats                  1007e150 f   libucrtd:wsetlocale.obj
 0001:0007d1d0       __wsetlocale               1007e1d0 f   libucrtd:wsetlocale.obj
 0001:0007e8c0       ___p___mb_cur_max          1007f8c0 f   libucrtd:nlsdata.obj
 0001:0007ebc0       ___acrt_initialize_lowio   1007fbc0 f   libucrtd:ioinit.obj
 0001:0007ec60       ___acrt_uninitialize_lowio 1007fc60 f   libucrtd:ioinit.obj
 0001:0007ecc0       __CrtGetReportHook         1007fcc0 f   libucrtd:dbgrptt.obj
 0001:0007ecd0       __CrtSetReportFile         1007fcd0 f   libucrtd:dbgrptt.obj
 0001:0007edd0       __CrtSetReportHook         1007fdd0 f   libucrtd:dbgrptt.obj
 0001:0007edf0       __CrtSetReportMode         1007fdf0 f   libucrtd:dbgrptt.obj
 0001:0007ef30       __VCrtDbgReportA           1007ff30 f   libucrtd:dbgrptt.obj
 0001:0007f7b0       __VCrtDbgReportW           100807b0 f   libucrtd:dbgrptt.obj
 0001:00080160       __snprintf_s               10081160 f i libucrtd:dbgrptt.obj
 0001:000801a0       __vsnprintf_s              100811a0 f i libucrtd:dbgrptt.obj
 0001:000801d0       __vsnprintf_s_l            100811d0 f i libucrtd:dbgrptt.obj
 0001:00080360       ??$__acrt_wcs_to_mbs_cp@U__crt_win32_buffer_no_resizing@@@@YAHQB_WAAV?$__crt_win32_buffer@DU__crt_win32_buffer_no_resizing@@@@I@Z 10081360 f i libucrtd:getmodulefilenamea.obj
 0001:00080390       ??0?$__crt_win32_buffer@DU__crt_win32_buffer_no_resizing@@@@QAE@QADI@Z 10081390 f i libucrtd:getmodulefilenamea.obj
 0001:000803e0       ??1?$__crt_win32_buffer@DU__crt_win32_buffer_no_resizing@@@@QAE@XZ 100813e0 f i libucrtd:getmodulefilenamea.obj
 0001:00080450       ?__acrt_get_utf8_acp_compatibility_codepage@@YAIXZ 10081450 f i libucrtd:getmodulefilenamea.obj
 0001:000804e0       ?_deallocate@?$__crt_win32_buffer@DU__crt_win32_buffer_no_resizing@@@@AAEXXZ 100814e0 f i libucrtd:getmodulefilenamea.obj
 0001:00080520       ?allocate@?$__crt_win32_buffer@DU__crt_win32_buffer_no_resizing@@@@QAEHI@Z 10081520 f i libucrtd:getmodulefilenamea.obj
 0001:00080590       ?allocate@__crt_win32_buffer_no_resizing@@SAHQAPAXIABV__crt_win32_buffer_empty_debug_info@@@Z 10081590 f i libucrtd:getmodulefilenamea.obj
 0001:000805b0       ?capacity@?$__crt_win32_buffer@DU__crt_win32_buffer_no_resizing@@@@QBEIXZ 100815b0 f i libucrtd:getmodulefilenamea.obj
 0001:000805d0       ?data@?$__crt_win32_buffer@DU__crt_win32_buffer_no_resizing@@@@QAEPADXZ 100815d0 f i libucrtd:getmodulefilenamea.obj
 0001:000805f0       ?deallocate@__crt_win32_buffer_no_resizing@@SAXQAXABV__crt_win32_buffer_empty_debug_info@@@Z 100815f0 f i libucrtd:getmodulefilenamea.obj
 0001:00080600       ?debug_info@?$__crt_win32_buffer@DU__crt_win32_buffer_no_resizing@@@@QBEABV__crt_win32_buffer_empty_debug_info@@XZ 10081600 f i libucrtd:getmodulefilenamea.obj
 0001:00080610       ?set_to_nullptr@?$__crt_win32_buffer@DU__crt_win32_buffer_no_resizing@@@@QAEXXZ 10081610 f i libucrtd:getmodulefilenamea.obj
 0001:00080650       ?size@?$__crt_win32_buffer@DU__crt_win32_buffer_no_resizing@@@@QAEXI@Z 10081650 f i libucrtd:getmodulefilenamea.obj
 0001:00080670       ?size@?$__crt_win32_buffer@DU__crt_win32_buffer_no_resizing@@@@QBEIXZ 10081670 f i libucrtd:getmodulefilenamea.obj
 0001:00080690       ___acrt_GetModuleFileNameA 10081690 f   libucrtd:getmodulefilenamea.obj
 0001:00080970       ??$message_box@$$TABQBDABQBDK@?$__crt_char_traits@D@@SAH$$QA$$TABQBD1$$QAK@Z 10081970 f i libucrtd:crtmbox.obj
 0001:000809a0       ??$message_box@$$TABQB_WABQB_WK@?$__crt_char_traits@_W@@SAH$$QA$$TABQB_W1$$QAK@Z 100819a0 f i libucrtd:crtmbox.obj
 0001:000809d0       ??$message_box@PAUHWND__@@ABQBDABQBDABI@?$__crt_char_traits@D@@SAH$$QAPAUHWND__@@ABQBD1ABI@Z 100819d0 f i libucrtd:crtmbox.obj
 0001:00080a00       ??$message_box@PAUHWND__@@ABQB_WABQB_WABI@?$__crt_char_traits@_W@@SAH$$QAPAUHWND__@@ABQB_W1ABI@Z 10081a00 f i libucrtd:crtmbox.obj
 0001:00080a30       ??$output_debug_string@ABQBD@?$__crt_char_traits@D@@SAXABQBD@Z 10081a30 f i libucrtd:crtmbox.obj
 0001:00080a50       ??$output_debug_string@ABQB_W@?$__crt_char_traits@_W@@SAXABQB_W@Z 10081a50 f i libucrtd:crtmbox.obj
 0001:00080a70       ___acrt_show_narrow_message_box 10081a70 f   libucrtd:crtmbox.obj
 0001:00080a90       ___acrt_show_wide_message_box 10081a90 f   libucrtd:crtmbox.obj
 0001:00080ab0       ___acrt_initialize_locks   10081ab0 f   libucrtd:locks.obj
 0001:00080b10       ___acrt_lock               10081b10 f   libucrtd:locks.obj
 0001:00080b30       ___acrt_uninitialize_locks 10081b30 f   libucrtd:locks.obj
 0001:00080b80       ___acrt_unlock             10081b80 f   libucrtd:locks.obj
 0001:00080ba0       __lock_locales             10081ba0 f   libucrtd:locks.obj
 0001:00080bc0       __unlock_locales           10081bc0 f   libucrtd:locks.obj
 0001:00080be0       ??$?B$$A6AXH@Z@__crt_fast_encoded_nullptr_t@@QBEP6AXH@ZXZ 10081be0 f i libucrtd:signal.obj
 0001:00080cd0       ??$__crt_fast_decode_pointer@P6AXH@Z@@YAP6AXH@ZQ6AXH@Z@Z 10081cd0 f i libucrtd:signal.obj
 0001:00080d00       ??$__crt_fast_encode_pointer@P6AXH@Z@@YAP6AXH@ZQ6AXH@Z@Z 10081d00 f i libucrtd:signal.obj
 0001:00080fb0       ?initialize@?$dual_state_global@P6AXH@Z@__crt_state_management@@QAEXQ6AXH@Z@Z 10081fb0 f i libucrtd:signal.obj
 0001:000810f0       ?value@?$dual_state_global@P6AXH@Z@__crt_state_management@@QAEAAP6AXH@ZXZ 100820f0 f i libucrtd:signal.obj
 0001:00081110       ___acrt_get_sigabrt_handler 10082110 f   libucrtd:signal.obj
 0001:00081130       ___acrt_initialize_signal_handlers 10082130 f   libucrtd:signal.obj
 0001:00081170       ___fpecode                 10082170 f   libucrtd:signal.obj
 0001:00081180       ___pxcptinfoptrs           10082180 f   libucrtd:signal.obj
 0001:00081190       _raise                     10082190 f   libucrtd:signal.obj
 0001:00081560       _signal                    10082560 f   libucrtd:signal.obj
 0001:000817e0       __msize                    100827e0 f   libucrtd:msize.obj
 0001:00081800       __msize_base               10082800 f   libucrtd:msize.obj
 0001:000818a0       __realloc_base             100828a0 f   libucrtd:realloc_base.obj
 0001:00081960       ??$?B$$A6GHPA_WKJ@Z@__crt_fast_encoded_nullptr_t@@QBEP6GHPA_WKJ@ZXZ 10082960 f i libucrtd:winapi_thunks.obj
 0001:00081a50       ??$__crt_fast_decode_pointer@P6GHPA_WKJ@Z@@YAP6GHPA_WKJ@ZQ6GH0KJ@Z@Z 10082a50 f i libucrtd:winapi_thunks.obj
 0001:00081a80       ??$__crt_fast_decode_pointer@PAX@@YAPAXQAX@Z 10082a80 f i libucrtd:winapi_thunks.obj
 0001:00081ab0       ??$__crt_fast_encode_pointer@P6GHPA_WKJ@Z@@YAP6GHPA_WKJ@ZQ6GH0KJ@Z@Z 10082ab0 f i libucrtd:winapi_thunks.obj
 0001:00082410       _GetCurrentThreadEffectiveToken 10083410 f i libucrtd:winapi_thunks.obj
 0001:00082420       ___acrt_AppPolicyGetProcessTerminationMethodInternal@4 10083420 f   libucrtd:winapi_thunks.obj
 0001:00082460       ___acrt_AppPolicyGetShowDeveloperDiagnosticInternal@4 10083460 f   libucrtd:winapi_thunks.obj
 0001:000824a0       ___acrt_AppPolicyGetThreadInitializationTypeInternal@4 100834a0 f   libucrtd:winapi_thunks.obj
 0001:000824e0       ___acrt_AppPolicyGetWindowingModelInternal@4 100834e0 f   libucrtd:winapi_thunks.obj
 0001:00082520       ___acrt_AreFileApisANSI@0  10083520 f   libucrtd:winapi_thunks.obj
 0001:00082560       ___acrt_CompareStringEx@36 10083560 f   libucrtd:winapi_thunks.obj
 0001:000825e0       ___acrt_EnumSystemLocalesEx@16 100835e0 f   libucrtd:winapi_thunks.obj
 0001:00082640       ___acrt_FlsAlloc@4         10083640 f   libucrtd:winapi_thunks.obj
 0001:00082680       ___acrt_FlsFree@4          10083680 f   libucrtd:winapi_thunks.obj
 0001:000826c0       ___acrt_FlsGetValue@4      100836c0 f   libucrtd:winapi_thunks.obj
 0001:00082700       ___acrt_FlsSetValue@8      10083700 f   libucrtd:winapi_thunks.obj
 0001:00082750       ___acrt_GetDateFormatEx@28 10083750 f   libucrtd:winapi_thunks.obj
 0001:000827d0       ___acrt_GetEnabledXStateFeatures@0 100837d0 f   libucrtd:winapi_thunks.obj
 0001:00082810       ___acrt_GetLocaleInfoEx@16 10083810 f   libucrtd:winapi_thunks.obj
 0001:00082870       ___acrt_GetSystemTimePreciseAsFileTime@4 10083870 f   libucrtd:winapi_thunks.obj
 0001:000828b0       ___acrt_GetTimeFormatEx@24 100838b0 f   libucrtd:winapi_thunks.obj
 0001:00082920       ___acrt_GetUserDefaultLocaleName@8 10083920 f   libucrtd:winapi_thunks.obj
 0001:00082970       ___acrt_GetXStateFeaturesMask@8 10083970 f   libucrtd:winapi_thunks.obj
 0001:000829b0       ___acrt_InitializeCriticalSectionEx@12 100839b0 f   libucrtd:winapi_thunks.obj
 0001:00082a00       ___acrt_IsValidLocaleName@4 10083a00 f   libucrtd:winapi_thunks.obj
 0001:00082a50       ___acrt_LCIDToLocaleName@16 10083a50 f   libucrtd:winapi_thunks.obj
 0001:00082ab0       ___acrt_LCMapStringEx@36   10083ab0 f   libucrtd:winapi_thunks.obj
 0001:00082b30       ___acrt_LocaleNameToLCID@8 10083b30 f   libucrtd:winapi_thunks.obj
 0001:00082b80       ___acrt_LocateXStateFeature@12 10083b80 f   libucrtd:winapi_thunks.obj
 0001:00082bd0       ___acrt_MessageBoxA@16     10083bd0 f   libucrtd:winapi_thunks.obj
 0001:00082c20       ___acrt_MessageBoxW@16     10083c20 f   libucrtd:winapi_thunks.obj
 0001:00082c70       ___acrt_RoInitialize@4     10083c70 f   libucrtd:winapi_thunks.obj
 0001:00082cb0       ___acrt_RoUninitialize@0   10083cb0 f   libucrtd:winapi_thunks.obj
 0001:00082ce0       ___acrt_RtlGenRandom@8     10083ce0 f   libucrtd:winapi_thunks.obj
 0001:00082d20       ___acrt_SetThreadStackGuarantee@4 10083d20 f   libucrtd:winapi_thunks.obj
 0001:00082d60       ___acrt_can_show_message_box 10083d60 f   libucrtd:winapi_thunks.obj
 0001:00082da0       ___acrt_can_use_vista_locale_apis 10083da0 f   libucrtd:winapi_thunks.obj
 0001:00082dd0       ___acrt_can_use_xstate_apis 10083dd0 f   libucrtd:winapi_thunks.obj
 0001:00082e00       ___acrt_eagerly_load_locale_apis 10083e00 f   libucrtd:winapi_thunks.obj
 0001:00082e40       ___acrt_get_parent_window  10083e40 f   libucrtd:winapi_thunks.obj
 0001:00082eb0       ___acrt_initialize_winapi_thunks 10083eb0 f   libucrtd:winapi_thunks.obj
 0001:00082f20       ___acrt_is_interactive     10083f20 f   libucrtd:winapi_thunks.obj
 0001:00082fd0       ___acrt_uninitialize_winapi_thunks 10083fd0 f   libucrtd:winapi_thunks.obj
 0001:00083040       __chvalidator              10084040 f   libucrtd:isctype.obj
 0001:00083090       __chvalidator_l            10084090 f   libucrtd:isctype.obj
 0001:00083110       __isctype                  10084110 f   libucrtd:isctype.obj
 0001:00083150       __isctype_l                10084150 f   libucrtd:isctype.obj
 0001:000832d0       __isleadbyte_fast_internal 100842d0 f i libucrtd:isctype.obj
 0001:000832f0       ??$?RU__crt_stdio_stream_data@@@__crt_internal_free_policy@@QBEXQBU__crt_stdio_stream_data@@@Z 100842f0 f i libucrtd:stream.obj
 0001:00083310       ??0?$__crt_unique_heap_ptr@U__crt_stdio_stream_data@@U__crt_internal_free_policy@@@@QAE@QAU__crt_stdio_stream_data@@@Z 10084310 f i libucrtd:stream.obj
 0001:00083330       ??0__crt_stdio_stream@@QAE@QAU__crt_stdio_stream_data@@@Z 10084330 f i libucrtd:stream.obj
 0001:00083350       ??0__crt_stdio_stream@@QAE@XZ 10084350 f i libucrtd:stream.obj
 0001:00083370       ??1?$__crt_unique_heap_ptr@U__crt_stdio_stream_data@@U__crt_internal_free_policy@@@@QAE@XZ 10084370 f i libucrtd:stream.obj
 0001:00083390       ?__acrt_stdio_allocate_stream@@YA?AV__crt_stdio_stream@@XZ 10084390 f   libucrtd:stream.obj
 0001:00083480       ?__acrt_stdio_free_stream@@YAXV__crt_stdio_stream@@@Z 10084480 f   libucrtd:stream.obj
 0001:00083500       ?deallocate@__crt_stdio_stream@@QAEXXZ 10084500 f i libucrtd:stream.obj
 0001:00083520       ?detach@?$__crt_unique_heap_ptr@U__crt_stdio_stream_data@@U__crt_internal_free_policy@@@@QAEPAU__crt_stdio_stream_data@@XZ 10084520 f i libucrtd:stream.obj
 0001:00083690       ?lock@__crt_stdio_stream@@QBEXXZ 10084690 f i libucrtd:stream.obj
 0001:000836b0       ?release@?$__crt_unique_heap_ptr@U__crt_stdio_stream_data@@U__crt_internal_free_policy@@@@QAEXXZ 100846b0 f i libucrtd:stream.obj
 0001:000836e0       ?try_allocate@__crt_stdio_stream@@QAE_NXZ 100846e0 f i libucrtd:stream.obj
 0001:00083730       ??$__acrt_stdio_parse_mode@D@@YA?AU__acrt_stdio_stream_mode@@QBD@Z 10084730 f i libucrtd:openfile.obj
 0001:00083fa0       ??$__acrt_stdio_parse_mode@_W@@YA?AU__acrt_stdio_stream_mode@@QB_W@Z 10084fa0 f i libucrtd:openfile.obj
 0001:00084b30       ??$tcsncmp@AAPBDAAY02$$CBDI@?$__crt_char_traits@D@@SAHAAPBDAAY02$$CBD$$QAI@Z 10085b30 f i libucrtd:openfile.obj
 0001:00084b50       ??$tcsncmp@AAPB_WAAY02$$CB_WI@?$__crt_char_traits@_W@@SAHAAPB_WAAY02$$CB_W$$QAI@Z 10085b50 f i libucrtd:openfile.obj
 0001:00084b70       ??$tcsnicmp@AAPBDAAY04$$CBDI@?$__crt_char_traits@D@@SAHAAPBDAAY04$$CBD$$QAI@Z 10085b70 f i libucrtd:openfile.obj
 0001:00084b90       ??$tcsnicmp@AAPBDAAY06$$CBDI@?$__crt_char_traits@D@@SAHAAPBDAAY06$$CBD$$QAI@Z 10085b90 f i libucrtd:openfile.obj
 0001:00084bb0       ??$tcsnicmp@AAPBDAAY07$$CBDI@?$__crt_char_traits@D@@SAHAAPBDAAY07$$CBD$$QAI@Z 10085bb0 f i libucrtd:openfile.obj
 0001:00084bd0       ??$tcsnicmp@AAPB_WAAY04$$CB_WI@?$__crt_char_traits@_W@@SAHAAPB_WAAY04$$CB_W$$QAI@Z 10085bd0 f i libucrtd:openfile.obj
 0001:00084bf0       ??$tcsnicmp@AAPB_WAAY06$$CB_WI@?$__crt_char_traits@_W@@SAHAAPB_WAAY06$$CB_W$$QAI@Z 10085bf0 f i libucrtd:openfile.obj
 0001:00084c10       ??$tcsnicmp@AAPB_WAAY07$$CB_WI@?$__crt_char_traits@_W@@SAHAAPB_WAAY07$$CB_W$$QAI@Z 10085c10 f i libucrtd:openfile.obj
 0001:00084c30       ??$tsopen_s@PAHABQBDABHABHH@?$__crt_char_traits@D@@SAH$$QAPAHABQBDABH2$$QAH@Z 10085c30 f i libucrtd:openfile.obj
 0001:00084c60       ??$tsopen_s@PAHABQB_WABHABHH@?$__crt_char_traits@_W@@SAH$$QAPAHABQB_WABH2$$QAH@Z 10085c60 f i libucrtd:openfile.obj
 0001:00084c90       ?__acrt_stdio_parse_mode_D@@YA_NAAU__acrt_stdio_stream_mode@@@Z 10085c90 f i libucrtd:openfile.obj
 0001:00084cc0       ?__acrt_stdio_parse_mode_N@@YA_NAAU__acrt_stdio_stream_mode@@@Z 10085cc0 f i libucrtd:openfile.obj
 0001:00084ce0       ?__acrt_stdio_parse_mode_R@@YA_NAAU__acrt_stdio_stream_mode@@AA_N@Z 10085ce0 f i libucrtd:openfile.obj
 0001:00084d10       ?__acrt_stdio_parse_mode_S@@YA_NAAU__acrt_stdio_stream_mode@@AA_N@Z 10085d10 f i libucrtd:openfile.obj
 0001:00084d40       ?__acrt_stdio_parse_mode_T@@YA_NAAU__acrt_stdio_stream_mode@@@Z 10085d40 f i libucrtd:openfile.obj
 0001:00084d70       ?__acrt_stdio_parse_mode_b@@YA_NAAU__acrt_stdio_stream_mode@@@Z 10085d70 f i libucrtd:openfile.obj
 0001:00084da0       ?__acrt_stdio_parse_mode_c@@YA_NAAU__acrt_stdio_stream_mode@@AA_N@Z 10085da0 f i libucrtd:openfile.obj
 0001:00084dd0       ?__acrt_stdio_parse_mode_n@@YA_NAAU__acrt_stdio_stream_mode@@AA_N@Z 10085dd0 f i libucrtd:openfile.obj
 0001:00084e00       ?__acrt_stdio_parse_mode_plus@@YA_NAAU__acrt_stdio_stream_mode@@AA_N@Z 10085e00 f i libucrtd:openfile.obj
 0001:00084e70       ?__acrt_stdio_parse_mode_t@@YA_NAAU__acrt_stdio_stream_mode@@@Z 10085e70 f i libucrtd:openfile.obj
 0001:00084ea0       ?__acrt_stdio_parse_mode_x@@YA_NAAU__acrt_stdio_stream_mode@@@Z 10085ea0 f i libucrtd:openfile.obj
 0001:00084ed0       __openfile                 10085ed0 f   libucrtd:openfile.obj
 0001:00084f00       __wopenfile                10085f00 f   libucrtd:openfile.obj
 0001:000851e0       __close                    100861e0 f   libucrtd:close.obj
 0001:00085360       __close_nolock             10086360 f   libucrtd:close.obj
 0001:000853c0       ?has_crt_buffer@__crt_stdio_stream@@QBE_NXZ 100863c0 f i libucrtd:_freebuf.obj
 0001:000853e0       ___acrt_stdio_free_buffer_nolock 100863e0 f   libucrtd:_freebuf.obj
 0001:00085a40       ?__acrt_stdio_reset_buffer@@YAXV__crt_stdio_stream@@@Z 10086a40 f i libucrtd:fflush.obj
 0001:00085b40       ?has_all_of@__crt_stdio_stream@@QBE_NJ@Z 10086b40 f i libucrtd:fflush.obj
 0001:00085c10       ___acrt_stdio_flush_nolock 10086c10 f   libucrtd:fflush.obj
 0001:00085ce0       __fflush_nolock            10086ce0 f   libucrtd:fflush.obj
 0001:00085d60       __flushall                 10086d60 f   libucrtd:fflush.obj
 0001:00085d80       _fflush                    10086d80 f   libucrtd:fflush.obj
 0001:000864d0       ?has_big_buffer@__crt_stdio_stream@@QBE_NXZ 100874d0 f i libucrtd:_flsbuf.obj
 0001:000865d0       ___acrt_stdio_flush_and_write_narrow_nolock 100875d0 f   libucrtd:_flsbuf.obj
 0001:00086600       ___acrt_stdio_flush_and_write_wide_nolock 10087600 f   libucrtd:_flsbuf.obj
 0001:00086930       ___acrt_get_begin_thread_init_policy 10087930 f   libucrtd:win_policies.obj
 0001:00086950       ___acrt_get_developer_information_policy 10087950 f   libucrtd:win_policies.obj
 0001:00086970       ___acrt_get_process_end_policy 10087970 f   libucrtd:win_policies.obj
 0001:00086990       ___acrt_get_windowing_model_policy 10087990 f   libucrtd:win_policies.obj
 0001:00086c60       ??$__acrt_mbs_to_wcs_cp@U__crt_win32_buffer_internal_dynamic_resizing@@@@YAHQBDAAV?$__crt_win32_buffer@_WU__crt_win32_buffer_internal_dynamic_resizing@@@@I@Z 10087c60 f i libucrtd:argv_wildcards.obj
 0001:00086c90       ??$__acrt_wcs_to_mbs_cp@U__crt_win32_buffer_internal_dynamic_resizing@@@@YAHQB_WAAV?$__crt_win32_buffer@DU__crt_win32_buffer_internal_dynamic_resizing@@@@I@Z 10087c90 f i libucrtd:argv_wildcards.obj
 0001:00087be0       ??$tcsncpy_s@AAPADIAAPADABI@?$__crt_char_traits@D@@SAHAAPAD$$QAI0ABI@Z 10088be0 f i libucrtd:argv_wildcards.obj
 0001:00087c10       ??$tcsncpy_s@AAPA_WIAAPA_WABI@?$__crt_char_traits@_W@@SAHAAPA_W$$QAI0ABI@Z 10088c10 f i libucrtd:argv_wildcards.obj
 0001:00087c40       ??$tcsncpy_s@PADABIABQBDABI@?$__crt_char_traits@D@@SAH$$QAPADABIABQBD1@Z 10088c40 f i libucrtd:argv_wildcards.obj
 0001:00087c70       ??$tcsncpy_s@PADIABQBDABI@?$__crt_char_traits@D@@SAH$$QAPAD$$QAIABQBDABI@Z 10088c70 f i libucrtd:argv_wildcards.obj
 0001:00087ca0       ??$tcsncpy_s@PA_WABIABQB_WABI@?$__crt_char_traits@_W@@SAH$$QAPA_WABIABQB_W1@Z 10088ca0 f i libucrtd:argv_wildcards.obj
 0001:00087cd0       ??$tcsncpy_s@PA_WIABQB_WABI@?$__crt_char_traits@_W@@SAH$$QAPA_W$$QAIABQB_WABI@Z 10088cd0 f i libucrtd:argv_wildcards.obj
 0001:00087d00       ??$tcspbrk@AAPADAAY02$$CBD@?$__crt_char_traits@D@@SAPADAAPADAAY02$$CBD@Z 10088d00 f i libucrtd:argv_wildcards.obj
 0001:00087d20       ??$tcspbrk@AAPA_WAAY02$$CB_W@?$__crt_char_traits@_W@@SAPA_WAAPA_WAAY02$$CB_W@Z 10088d20 f i libucrtd:argv_wildcards.obj
 0001:00087d40       ??0?$__crt_unique_handle_t@U__crt_findfile_traits@@@@QAE@QAX@Z 10088d40 f i libucrtd:argv_wildcards.obj
 0001:00087d60       ??0?$__crt_win32_buffer@DU__crt_win32_buffer_internal_dynamic_resizing@@@@QAE@XZ 10088d60 f i libucrtd:argv_wildcards.obj
 0001:00087db0       ??0?$__crt_win32_buffer@_WU__crt_win32_buffer_internal_dynamic_resizing@@@@QAE@XZ 10088db0 f i libucrtd:argv_wildcards.obj
 0001:00087e60       ??1?$__crt_unique_handle_t@U__crt_findfile_traits@@@@QAE@XZ 10088e60 f i libucrtd:argv_wildcards.obj
 0001:00087e80       ??1?$__crt_win32_buffer@DU__crt_win32_buffer_internal_dynamic_resizing@@@@QAE@XZ 10088e80 f i libucrtd:argv_wildcards.obj
 0001:00087ec0       ??1?$__crt_win32_buffer@_WU__crt_win32_buffer_internal_dynamic_resizing@@@@QAE@XZ 10088ec0 f i libucrtd:argv_wildcards.obj
 0001:00088120       ?_deallocate@?$__crt_win32_buffer@DU__crt_win32_buffer_internal_dynamic_resizing@@@@AAEXXZ 10089120 f i libucrtd:argv_wildcards.obj
 0001:00088160       ?_deallocate@?$__crt_win32_buffer@_WU__crt_win32_buffer_internal_dynamic_resizing@@@@AAEXXZ 10089160 f i libucrtd:argv_wildcards.obj
 0001:000881a0       ?allocate@?$__crt_win32_buffer@DU__crt_win32_buffer_internal_dynamic_resizing@@@@QAEHI@Z 100891a0 f i libucrtd:argv_wildcards.obj
 0001:00088210       ?allocate@?$__crt_win32_buffer@_WU__crt_win32_buffer_internal_dynamic_resizing@@@@QAEHI@Z 10089210 f i libucrtd:argv_wildcards.obj
 0001:00088280       ?allocate@__crt_win32_buffer_internal_dynamic_resizing@@SAHQAPAXIABV__crt_win32_buffer_empty_debug_info@@@Z 10089280 f i libucrtd:argv_wildcards.obj
 0001:000883c0       ?capacity@?$__crt_win32_buffer@DU__crt_win32_buffer_internal_dynamic_resizing@@@@QBEIXZ 100893c0 f i libucrtd:argv_wildcards.obj
 0001:000883e0       ?capacity@?$__crt_win32_buffer@_WU__crt_win32_buffer_internal_dynamic_resizing@@@@QBEIXZ 100893e0 f i libucrtd:argv_wildcards.obj
 0001:00088400       ?close@?$__crt_unique_handle_t@U__crt_findfile_traits@@@@QAEXXZ 10089400 f i libucrtd:argv_wildcards.obj
 0001:00088440       ?close@__crt_findfile_traits@@SA_NPAX@Z 10089440 f i libucrtd:argv_wildcards.obj
 0001:00088470       ?data@?$__crt_win32_buffer@DU__crt_win32_buffer_internal_dynamic_resizing@@@@QAEPADXZ 10089470 f i libucrtd:argv_wildcards.obj
 0001:00088490       ?data@?$__crt_win32_buffer@_WU__crt_win32_buffer_internal_dynamic_resizing@@@@QAEPA_WXZ 10089490 f i libucrtd:argv_wildcards.obj
 0001:000884b0       ?deallocate@__crt_win32_buffer_internal_dynamic_resizing@@SAXQAXABV__crt_win32_buffer_empty_debug_info@@@Z 100894b0 f i libucrtd:argv_wildcards.obj
 0001:000884d0       ?debug_info@?$__crt_win32_buffer@DU__crt_win32_buffer_internal_dynamic_resizing@@@@QBEABV__crt_win32_buffer_empty_debug_info@@XZ 100894d0 f i libucrtd:argv_wildcards.obj
 0001:000884e0       ?debug_info@?$__crt_win32_buffer@_WU__crt_win32_buffer_internal_dynamic_resizing@@@@QBEABV__crt_win32_buffer_empty_debug_info@@XZ 100894e0 f i libucrtd:argv_wildcards.obj
 0001:000887f0       ?get@?$__crt_unique_handle_t@U__crt_findfile_traits@@@@QBEPAXXZ 100897f0 f i libucrtd:argv_wildcards.obj
 0001:00088860       ?get_invalid_value@__crt_findfile_traits@@SAPAXXZ 10089860 f i libucrtd:argv_wildcards.obj
 0001:000888f0       ?set_to_nullptr@?$__crt_win32_buffer@DU__crt_win32_buffer_internal_dynamic_resizing@@@@QAEXXZ 100898f0 f i libucrtd:argv_wildcards.obj
 0001:00088930       ?set_to_nullptr@?$__crt_win32_buffer@_WU__crt_win32_buffer_internal_dynamic_resizing@@@@QAEXXZ 10089930 f i libucrtd:argv_wildcards.obj
 0001:00088970       ?size@?$__crt_win32_buffer@DU__crt_win32_buffer_internal_dynamic_resizing@@@@QAEXI@Z 10089970 f i libucrtd:argv_wildcards.obj
 0001:00088990       ?size@?$__crt_win32_buffer@_WU__crt_win32_buffer_internal_dynamic_resizing@@@@QAEXI@Z 10089990 f i libucrtd:argv_wildcards.obj
 0001:000889f0       ?strpbrk@@YAPADQADQBD@Z    100899f0 f i libucrtd:argv_wildcards.obj
 0001:00088a10       ?wcspbrk@@YAPA_WPA_WPB_W@Z 10089a10 f i libucrtd:argv_wildcards.obj
 0001:00088a30       ___acrt_expand_narrow_argv_wildcards 10089a30 f   libucrtd:argv_wildcards.obj
 0001:00088a50       ___acrt_expand_wide_argv_wildcards 10089a50 f   libucrtd:argv_wildcards.obj
 0001:00088b30       ??$initialize_from_array@$$BY10BAA@E@?$dual_state_global@PAE@__crt_state_management@@QAAXAAY10BAA@E@Z 10089b30 f i libucrtd:mbctype.obj
 0001:00088b80       ??$initialize_from_array@$$BY10BAB@E@?$dual_state_global@PAE@__crt_state_management@@QAAXAAY10BAB@E@Z 10089b80 f i libucrtd:mbctype.obj
 0001:00088df0       ?dangerous_get_state_array@?$dual_state_global@PAE@__crt_state_management@@QAEPAPAEXZ 10089df0 f i libucrtd:mbctype.obj
 0001:00088e00       ?dangerous_get_state_array@?$dual_state_global@PAU__crt_multibyte_data@@@__crt_state_management@@QAEPAPAU__crt_multibyte_data@@XZ 10089e00 f i libucrtd:mbctype.obj
 0001:00088ed0       ?initialize@?$dual_state_global@PAU__crt_multibyte_data@@@__crt_state_management@@QAEXQAU__crt_multibyte_data@@@Z 10089ed0 f i libucrtd:mbctype.obj
 0001:00089620       ?value@?$dual_state_global@PAE@__crt_state_management@@QAEAAPAEXZ 1008a620 f i libucrtd:mbctype.obj
 0001:00089640       ___acrt_initialize_multibyte 1008a640 f   libucrtd:mbctype.obj
 0001:000896f0       ___acrt_update_thread_multibyte_data 1008a6f0 f   libucrtd:mbctype.obj
 0001:00089710       ___p__mbcasemap            1008a710 f   libucrtd:mbctype.obj
