 OPOSGate

 Timestamp is 5ed45835 (Mon Jun  1 10:21:57 2020)

 Preferred load address is 10000000

 Start         Length     Name                   Class
 0001:00000000 00000d90H .text$di                CODE
 0001:00000d90 000a8bc0H .text$mn                CODE
 0001:000a9950 000001c0H .text$x                 CODE
 0001:000a9b10 00000120H .text$yd                CODE
 0002:00000000 00000358H .idata$5                DATA
 0002:00000358 00000008H .00cfg                  DATA
 0002:00000360 00000004H .CRT$XCA                DATA
 0002:00000364 00000004H .CRT$XCL                DATA
 0002:00000368 0000006cH .CRT$XCU                DATA
 0002:000003d4 00000004H .CRT$XCZ                DATA
 0002:000003d8 00000004H .CRT$XIA                DATA
 0002:000003dc 00000014H .CRT$XIC                DATA
 0002:000003f0 00000004H .CRT$XIZ                DATA
 0002:000003f4 00000004H .CRT$XLA                DATA
 0002:000003f8 00000004H .CRT$XLZ                DATA
 0002:000003fc 00000004H .CRT$XPA                DATA
 0002:00000400 00000008H .CRT$XPX                DATA
 0002:00000408 00000004H .CRT$XPXA               DATA
 0002:0000040c 00000004H .CRT$XPZ                DATA
 0002:00000410 00000004H .CRT$XTA                DATA
 0002:00000414 0000000cH .CRT$XTZ                DATA
 0002:00000418 00000000H .gfids$y                DATA
 0002:00000420 0002fa18H .rdata                  DATA
 0002:0002fe38 00000018H .rdata$T                DATA
 0002:0002fe50 0000033cH .rdata$r                DATA
 0002:0003018c 00000044H .rdata$sxdata           DATA
 0002:000301d0 00000400H .rdata$zzzdbg           DATA
 0002:000305d0 00000004H .rtc$IAA                DATA
 0002:000305d4 00000018H .rtc$IMZ                DATA
 0002:000305ec 00000004H .rtc$IZZ                DATA
 0002:000305f0 00000004H .rtc$TAA                DATA
 0002:000305f4 00000018H .rtc$TMZ                DATA
 0002:0003060c 00000004H .rtc$TZZ                DATA
 0002:00030610 00000004H .tls                    DATA
 0002:00030614 00000004H .tls$                   DATA
 0002:00030618 00000008H .tls$ZZZ                DATA
 0002:00030620 00000e4cH .xdata$x                DATA
 0002:0003146c 00000004H ATL$__a                 DATA
 0002:00031470 00000010H ATL$__z                 DATA
 0002:00031480 000000a8H .edata                  DATA
 0002:00031528 00000078H .idata$2                DATA
 0002:000315a0 00000014H .idata$3                DATA
 0002:000315b4 00000358H .idata$4                DATA
 0002:0003190c 00000d56H .idata$6                DATA
 0003:00000000 00000b70H .data                   DATA
 0003:00000b70 00000138H .data$r                 DATA
 0003:00000ca8 00003580H .bss                    DATA
 0004:00000000 00000220H .rsrc$01                DATA
 0004:00000220 00003508H .rsrc$02                DATA

  Address         Publics by Value              Rva+Base       Lib:Object

 0000:00000000       __except_list              00000000     <absolute>
 0000:00000000       ___arm64x_redirection_metadata 00000000     <absolute>
 0000:00000000       ___volatile_metadata       00000000     <absolute>
 0000:00000000       ___dynamic_value_reloc_table 00000000     <absolute>
 0000:00000000       ___hybrid_code_map         00000000     <absolute>
 0000:00000000       ___guard_eh_cont_count     00000000     <absolute>
 0000:00000000       ___x64_code_ranges_to_entry_points 00000000     <absolute>
 0000:00000000       ___guard_fids_table        00000000     <absolute>
 0000:00000000       ___hybrid_auxiliary_iat    00000000     <absolute>
 0000:00000000       ___guard_fids_count        00000000     <absolute>
 0000:00000000       ___AbsoluteZero            00000000     <absolute>
 0000:00000000       ___guard_eh_cont_table     00000000     <absolute>
 0000:00000000       ___arm64x_native_entrypoint 00000000     <absolute>
 0000:00000000       ___guard_longjmp_table     00000000     <absolute>
 0000:00000000       ___enclave_config          00000000     <absolute>
 0000:00000000       ___guard_iat_count         00000000     <absolute>
 0000:00000000       ___guard_longjmp_count     00000000     <absolute>
 0000:00000000       ___guard_iat_table         00000000     <absolute>
 0000:00000000       ___hybrid_code_map_count   00000000     <absolute>
 0000:00000011       ___safe_se_handler_count   00000011     <absolute>
 0000:0000002c       __tls_array                0000002c     <absolute>
 0000:00000100       ___guard_flags             00000100     <absolute>
 0000:00000000       ___ImageBase               10000000     <linker-defined>
 0001:00000d90       ?_assert@@YAXPB_W0I@Z      10001d90 f   Assert.obj
 0001:00000ec0       ___local_stdio_printf_options 10001ec0 f i Assert.obj
 0001:00000ed0       ___vswprintf_l             10001ed0 f i Assert.obj
 0001:00000f00       __swprintf                 10001f00 f i Assert.obj
 0001:00000f60       __vswprintf_c_l            10001f60 f i Assert.obj
 0001:00000fd0       __vswprintf_l              10001fd0 f i Assert.obj
 0001:00001000       ?cw_memcpy@@YGHPADPB_WH@Z  10002000 f   CWString.obj
 0001:00001060       ?cw_memcpy@@YGHPA_WPBDH@Z  10002060 f   CWString.obj
 0001:000010c0       ?cw_memcpy@@YGHPADPBDH@Z   100020c0 f   CWString.obj
 0001:00001110       ?cw_memcpy@@YGHPA_WPB_WH@Z 10002110 f   CWString.obj
 0001:00001150       ?cw_memset@@YAXPADDH@Z     10002150 f   CWString.obj
 0001:00001170       ?cw_memset@@YAXPA_W_WH@Z   10002170 f   CWString.obj
 0001:00001190       ?cw_strlen@@YAHPBD@Z       10002190 f   CWString.obj
 0001:000011e0       ?cw_strlen@@YAHPB_W@Z      100021e0 f   CWString.obj
 0001:00001230       ?cw_strcpy@@YAHPADPB_W@Z   10002230 f   CWString.obj
 0001:00001250       ?cw_strcpy@@YAHPA_WPBD@Z   10002250 f   CWString.obj
 0001:00001270       ?cw_strcpy@@YAHPADPBD@Z    10002270 f   CWString.obj
 0001:00001290       ?cw_strcpy@@YAHPA_WPB_W@Z  10002290 f   CWString.obj
 0001:000012b0       ?cw_strcat@@YAHPADPB_W@Z   100022b0 f   CWString.obj
 0001:000012e0       ?cw_strcat@@YAHPA_WPBD@Z   100022e0 f   CWString.obj
 0001:00001310       ?cw_strcat@@YAHPADPBD@Z    10002310 f   CWString.obj
 0001:00001340       ?cw_strcat@@YAHPA_WPB_W@Z  10002340 f   CWString.obj
 0001:00001370       ?cw_dup@@YGXPBDAAHAAPA_W1@Z 10002370 f   CWString.obj
 0001:00001430       ?cw_dup@@YGXPB_WAAHAAPAD1@Z 10002430 f   CWString.obj
 0001:000014e0       ?DupChar@_CW@@AAEXXZ       100024e0 f   CWString.obj
 0001:00001530       ?DupWide@_CW@@AAEXXZ       10002530 f   CWString.obj
 0001:00001580       ?GetCharsMbcs@_CW@@QAEHXZ  10002580 f   CWString.obj
 0001:000015e0       ?GetCharsWide@_CW@@QAEHXZ  100025e0 f   CWString.obj
 0001:00001640       ?SetVARIANT_BOOL@OposVariant@@QAEXF@Z 10002640 f   OposVariant.obj
 0001:000016a0       ?SetVARIANT_BOOL_Ptr@OposVariant@@QAEXPAFAAJ@Z 100026a0 f   OposVariant.obj
 0001:000016f0       ?GetLONG@OposVariant@@QAEJXZ 100026f0 f   OposVariant.obj
 0001:00001780       ?ChangeLONG@OposVariant@@QAEXPAJAAJ@Z 10002780 f   OposVariant.obj
 0001:00001840       ?SetLONG@OposVariant@@QAEXJ@Z 10002840 f   OposVariant.obj
 0001:00001880       ?SetLONG_Ptr@OposVariant@@QAEXPAJAAJ@Z 10002880 f   OposVariant.obj
 0001:000018d0       ?ChangeCURRENCY@OposVariant@@QAEXPATtagCY@@AAJ@Z 100028d0 f   OposVariant.obj
 0001:00001990       ?SetCURRENCY@OposVariant@@QAEXTtagCY@@@Z 10002990 f   OposVariant.obj
 0001:000019d0       ?SetCURRENCY_Ptr@OposVariant@@QAEXPATtagCY@@AAJ@Z 100029d0 f   OposVariant.obj
 0001:00001a20       ?ChangeBSTR@OposVariant@@QAEXPAPA_WAAJ@Z 10002a20 f   OposVariant.obj
 0001:00001ae0       ?SetBSTR@OposVariant@@QAEXPA_WAAJ@Z 10002ae0 f   OposVariant.obj
 0001:00001b30       ?SetBSTR_Copy@OposVariant@@QAEXPA_WAAJ@Z 10002b30 f   OposVariant.obj
 0001:00001bd0       ?SetBSTR_OutPtr@OposVariant@@QAE_NPAPA_WAAJ@Z 10002bd0 f   OposVariant.obj
 0001:00001c20       ?SetBSTR_InOutPtr@OposVariant@@QAE_NPAPA_WAAJ@Z 10002c20 f   OposVariant.obj
 0001:00001c70       ?SetVARIANT@OposVariant@@QAEXAAUtagVARIANT@@GAAJ@Z 10002c70 f   OposVariant.obj
 0001:00001cf0       ?SetVARIANT_Ptr@OposVariant@@QAEXAAPAUtagVARIANT@@GAAJ@Z 10002cf0 f   OposVariant.obj
 0001:00001d90       ?SetString@OposVariant@@QAEXPB_WAAJ@Z 10002d90 f   OposVariant.obj
 0001:00001e20       ?SetDispatch_Ptr@OposVariant@@QAEXPAUIDispatch@@AAJ@Z 10002e20 f   OposVariant.obj
 0001:00001e90       ??0OposDispParms@@QAE@PAVOposVariant@@H@Z 10002e90 f   OposVariant.obj
 0001:00001f60       ??1OposDispParms@@QAE@XZ   10002f60 f   OposVariant.obj
 0001:00001fb0       ??$AtlMultiply@I@ATL@@YAJPAIII@Z 10002fb0 f i OposVariant.obj
 0001:00002010       ??0?$CHeapPtr@_WVCCRTAllocator@ATL@@@ATL@@QAE@XZ 10003010 f i OposVariant.obj
 0001:00002040       ??0?$CHeapPtrBase@_WVCCRTAllocator@ATL@@@ATL@@IAE@XZ 10003040 f i OposVariant.obj
 0001:00002060       ??0?$CSimpleArray@GV?$CSimpleArrayEqualHelper@G@ATL@@@ATL@@QAE@XZ 10003060 f i OposVariant.obj
 0001:000020a0       ??0?$CTraceCategoryEx@$00$0A@@ATL@@QAE@PB_W@Z 100030a0 f i OposVariant.obj
 0001:000020d0       ??0?$CTraceCategoryEx@$01$0A@@ATL@@QAE@PB_W@Z 100030d0 f i OposVariant.obj
 0001:00002100       ??0?$CTraceCategoryEx@$03$0A@@ATL@@QAE@PB_W@Z 10003100 f i OposVariant.obj
 0001:00002130       ??0?$CTraceCategoryEx@$07$0A@@ATL@@QAE@PB_W@Z 10003130 f i OposVariant.obj
 0001:00002160       ??0?$CTraceCategoryEx@$0BA@$0A@@ATL@@QAE@PB_W@Z 10003160 f i OposVariant.obj
 0001:00002190       ??0?$CTraceCategoryEx@$0BAA@$0A@@ATL@@QAE@PB_W@Z 10003190 f i OposVariant.obj
 0001:000021d0       ??0?$CTraceCategoryEx@$0BAAA@$0A@@ATL@@QAE@PB_W@Z 100031d0 f i OposVariant.obj
 0001:00002210       ??0?$CTraceCategoryEx@$0BAAAA@$0A@@ATL@@QAE@PB_W@Z 10003210 f i OposVariant.obj
 0001:00002250       ??0?$CTraceCategoryEx@$0BAAAAA@$0A@@ATL@@QAE@PB_W@Z 10003250 f i OposVariant.obj
 0001:00002290       ??0?$CTraceCategoryEx@$0CA@$0A@@ATL@@QAE@PB_W@Z 10003290 f i OposVariant.obj
 0001:000022c0       ??0?$CTraceCategoryEx@$0CAA@$0A@@ATL@@QAE@PB_W@Z 100032c0 f i OposVariant.obj
 0001:00002300       ??0?$CTraceCategoryEx@$0CAAA@$0A@@ATL@@QAE@PB_W@Z 10003300 f i OposVariant.obj
 0001:00002340       ??0?$CTraceCategoryEx@$0CAAAA@$0A@@ATL@@QAE@PB_W@Z 10003340 f i OposVariant.obj
 0001:00002380       ??0?$CTraceCategoryEx@$0CAAAAA@$0A@@ATL@@QAE@PB_W@Z 10003380 f i OposVariant.obj
 0001:000023c0       ??0?$CTraceCategoryEx@$0EA@$0A@@ATL@@QAE@PB_W@Z 100033c0 f i OposVariant.obj
 0001:000023f0       ??0?$CTraceCategoryEx@$0EAA@$0A@@ATL@@QAE@PB_W@Z 100033f0 f i OposVariant.obj
 0001:00002430       ??0?$CTraceCategoryEx@$0EAAA@$0A@@ATL@@QAE@PB_W@Z 10003430 f i OposVariant.obj
 0001:00002470       ??0?$CTraceCategoryEx@$0EAAAA@$0A@@ATL@@QAE@PB_W@Z 10003470 f i OposVariant.obj
 0001:000024b0       ??0?$CTraceCategoryEx@$0EAAAAA@$0A@@ATL@@QAE@PB_W@Z 100034b0 f i OposVariant.obj
 0001:000024f0       ??0?$CTraceCategoryEx@$0IA@$0A@@ATL@@QAE@PB_W@Z 100034f0 f i OposVariant.obj
 0001:00002530       ??0?$CTraceCategoryEx@$0IAA@$0A@@ATL@@QAE@PB_W@Z 10003530 f i OposVariant.obj
 0001:00002570       ??0?$CTraceCategoryEx@$0IAAA@$0A@@ATL@@QAE@PB_W@Z 10003570 f i OposVariant.obj
 0001:000025b0       ??0?$CTraceCategoryEx@$0IAAAA@$0A@@ATL@@QAE@PB_W@Z 100035b0 f i OposVariant.obj
 0001:000025f0       ??0CAtlComModule@ATL@@QAE@XZ 100035f0 f i OposVariant.obj
 0001:000026d0       ??0CAtlWinModule@ATL@@QAE@XZ 100036d0 f i OposVariant.obj
 0001:00002760       ??0CComCriticalSection@ATL@@QAE@XZ 10003760 f i OposVariant.obj
 0001:00002790       ??0CPreserveLastError@ATL@@QAE@XZ 10003790 f i OposVariant.obj
 0001:000027d0       ??0CTraceFileAndLineInfo@ATL@@QAE@PBDH@Z 100037d0 f i OposVariant.obj
 0001:00002800       ??0_ATL_COM_MODULE70@ATL@@QAE@XZ 10003800 f i OposVariant.obj
 0001:00002830       ??0_ATL_WIN_MODULE70@ATL@@QAE@XZ 10003830 f i OposVariant.obj
 0001:00002870       ??1?$CHeapPtr@_WVCCRTAllocator@ATL@@@ATL@@QAE@XZ 10003870 f i OposVariant.obj
 0001:000028a0       ??1?$CHeapPtrBase@_WVCCRTAllocator@ATL@@@ATL@@QAE@XZ 100038a0 f i OposVariant.obj
 0001:000028d0       ??1?$CSimpleArray@GV?$CSimpleArrayEqualHelper@G@ATL@@@ATL@@QAE@XZ 100038d0 f i OposVariant.obj
 0001:00002900       ??1CAtlComModule@ATL@@QAE@XZ 10003900 f i OposVariant.obj
 0001:00002930       ??1CAtlWinModule@ATL@@QAE@XZ 10003930 f i OposVariant.obj
 0001:00002960       ??1CComBSTR@ATL@@QAE@XZ    10003960 f i OposVariant.obj
 0001:000029a0       ??1CComCriticalSection@ATL@@QAE@XZ 100039a0 f i OposVariant.obj
 0001:000029c0       ??1CPreserveLastError@ATL@@QAE@XZ 100039c0 f i OposVariant.obj
 0001:00002a00       ??1_ATL_COM_MODULE70@ATL@@QAE@XZ 10003a00 f i OposVariant.obj
 0001:00002a30       ??1_ATL_WIN_MODULE70@ATL@@QAE@XZ 10003a30 f i OposVariant.obj
 0001:00002a70       ??1stringdispid@CComTypeInfoHolder@ATL@@QAE@XZ 10003a70 f i OposVariant.obj
 0001:00002aa0       ??A?$CSimpleArray@GV?$CSimpleArrayEqualHelper@G@ATL@@@ATL@@QAEAAGH@Z 10003aa0 f i OposVariant.obj
 0001:00002b20       ??B?$CHeapPtrBase@_WVCCRTAllocator@ATL@@@ATL@@QBEPA_WXZ 10003b20 f i OposVariant.obj
 0001:00002b40       ??B?$CTraceCategoryEx@$01$0A@@ATL@@QAEIXZ 10003b40 f i OposVariant.obj
 0001:00002b60       ??B?$CTraceCategoryEx@$0CA@$0A@@ATL@@QAEIXZ 10003b60 f i OposVariant.obj
 0001:00002b80       ??RCTraceFileAndLineInfo@ATL@@QBAXHIPB_WZZ 10003b80 f i OposVariant.obj
 0001:00002c20       ??_Estringdispid@CComTypeInfoHolder@ATL@@QAEPAXI@Z 10003c20 f i OposVariant.obj
 0001:00002cb0       ??_H@YGXPAXIIP6EPAX0@Z@Z   10003cb0 f i OposVariant.obj
 0001:00002d20       ??_I@YGXPAXIIP6EX0@Z@Z     10003d20 f i OposVariant.obj
 0001:00002da0       ?Allocate@?$CHeapPtr@_WVCCRTAllocator@ATL@@@ATL@@QAE_NI@Z 10003da0 f i OposVariant.obj
 0001:00002e30       ?Allocate@CCRTAllocator@ATL@@SAPAXI@Z 10003e30 f i OposVariant.obj
 0001:00002e50       ?AllocateBytes@?$CHeapPtrBase@_WVCCRTAllocator@ATL@@@ATL@@QAE_NI@Z 10003e50 f i OposVariant.obj
 0001:00002ec0       ?AtlWinModuleInit@ATL@@YGJPAU_ATL_WIN_MODULE70@1@@Z 10003ec0 f i OposVariant.obj
 0001:00002f90       ?AtlWinModuleTerm@ATL@@YGJPAU_ATL_WIN_MODULE70@1@PAUHINSTANCE__@@@Z 10003f90 f i OposVariant.obj
 0001:00003050       ?Clear@OposVariant@@QAEJXZ 10004050 f i OposVariant.obj
 0001:00003090       ?Free@?$CHeapPtrBase@_WVCCRTAllocator@ATL@@@ATL@@QAEXXZ 10004090 f i OposVariant.obj
 0001:000030d0       ?Free@CCRTAllocator@ATL@@SAXPAX@Z 100040d0 f i OposVariant.obj
 0001:000030f0       ?GetCategoryName@CTrace@ATL@@CAPA_WI@Z 100040f0 f i OposVariant.obj
 0001:00003140       ?GetModuleInstance@CAtlBaseModule@ATL@@QAEPAUHINSTANCE__@@XZ 10004140 f i OposVariant.obj
 0001:00003160       ?GetSize@?$CSimpleArray@GV?$CSimpleArrayEqualHelper@G@ATL@@@ATL@@QBEHXZ 10004160 f i OposVariant.obj
 0001:00003180       ?Init@CComCriticalSection@ATL@@QAEJXZ 10004180 f i OposVariant.obj
 0001:000031e0       ?RegisterCategory@CTrace@ATL@@SAXPB_WI@Z 100041e0 f i OposVariant.obj
 0001:00003270       ?RemoveAll@?$CSimpleArray@GV?$CSimpleArrayEqualHelper@G@ATL@@@ATL@@QAEXXZ 10004270 f i OposVariant.obj
 0001:000032f0       ?Term@CAtlComModule@ATL@@QAEXXZ 100042f0 f i OposVariant.obj
 0001:000033b0       ?Term@CAtlWinModule@ATL@@QAEXXZ 100043b0 f i OposVariant.obj
 0001:000033e0       ?Term@CComCriticalSection@ATL@@QAEJXZ 100043e0 f i OposVariant.obj
 0001:00003420       ?TraceV@CTrace@ATL@@CAXPBDHIIPB_W@Z 10004420 f i OposVariant.obj
 0001:000036a0       ?TraceV@CTrace@ATL@@SAXPBDHIIPB_WPAD@Z 100046a0 f i OposVariant.obj
 0001:000037e0       ?_AtlInitializeCriticalSectionEx@ATL@@YAHPAU_RTL_CRITICAL_SECTION@@KK@Z 100047e0 f i OposVariant.obj
 0001:00003810       ?_AtlRaiseException@ATL@@YAXKK@Z 10004810 f i OposVariant.obj
 0001:00003840       _HRESULT_FROM_WIN32        10004840 f i OposVariant.obj
 0001:00003880       __vswprintf_s_l            10004880 f i OposVariant.obj
 0001:000038f0       _swprintf_s                100048f0 f i OposVariant.obj
 0001:00003950       ?ObjectMain@CComObjectRootBase@ATL@@SGX_N@Z 10004950 f i Gate.obj
 0001:00003960       ?GetCategoryMap@CComObjectRootBase@ATL@@SAPBU_ATL_CATMAP_ENTRY@2@XZ 10004960 f i Gate.obj
 0001:00003970       ?GetObjectDescription@?$CComCoClass@VCOPOSGate@@$1?CLSID_OPOSGate@@3U_GUID@@B@ATL@@SGPB_WXZ 10004970 f i Gate.obj
 0001:00003980       ?UpdateRegistry@COPOSGate@@SGJH@Z 10004980 f i Gate.obj
 0001:000039a0       ?CreateInstance@?$CComCreator@V?$CComObjectCached@VCComClassFactory@ATL@@@ATL@@@ATL@@SGJPAXABU_GUID@@PAPAX@Z 100049a0 f i Gate.obj
 0001:00003b20       ?CreateInstance@?$CComCreator2@V?$CComCreator@V?$CComObject@VCOPOSGate@@@ATL@@@ATL@@V?$CComCreator@V?$CComAggObject@VCOPOSGate@@@ATL@@@2@@ATL@@SGJPAXABU_GUID@@PAPAX@Z 10004b20 f i Gate.obj
 0001:00003cd0       _DllGetClassObject@12      10004cd0 f   Gate.obj
 0001:00003d00       _DllCanUnloadNow@0         10004d00 f   Gate.obj
 0001:00003d40       _DllRegisterServer@0       10004d40 f   Gate.obj
 0001:00003d60       _DllUnregisterServer@0     10004d60 f   Gate.obj
 0001:00003ef0       _DllMain@12                10004ef0 f   Gate.obj
 0001:00003f50       ??$?2G@Wrapper@?$CSimpleArray@GV?$CSimpleArrayEqualHelper@G@ATL@@@ATL@@SAPAXIPAG@Z 10004f50 f i Gate.obj
 0001:00003f60       ??$?2PA_W@?$Wrapper@PA_W@?$CSimpleMap@PA_WPA_WVCExpansionVectorEqualHelper@ATL@@@ATL@@SAPAXIPAPA_W@Z 10004f60 f i Gate.obj
 0001:00003f70       ??$?4UITypeInfo2@@@?$CComPtr@UITypeInfo@@@ATL@@QAEPAUITypeInfo@@ABV?$CComPtr@UITypeInfo2@@@1@@Z 10004f70 f i Gate.obj
 0001:00003fd0       ??$AtlAdd@K@ATL@@YAJPAKKK@Z 10004fd0 f i Gate.obj
 0001:00004010       ??$AtlAdd@_K@ATL@@YAJPA_K_K1@Z 10005010 f i Gate.obj
 0001:00004080       ??$AtlAddThrow@K@ATL@@YAKKK@Z 10005080 f i Gate.obj
 0001:00004100       ??$AtlModuleRegisterWndClassInfoT@VAtlModuleRegisterWndClassInfoParamW@ATL@@@ATL@@YAGPAU_ATL_BASE_MODULE70@0@PAU_ATL_WIN_MODULE70@0@PAU_ATL_WNDCLASSINFOW@0@PAP6GJPAUHWND__@@IIJ@ZVAtlModuleRegisterWndClassInfoParamW@0@@Z 10005100 f i Gate.obj
 0001:00004510       ??$AtlMultiply@H@ATL@@YAJPAHHH@Z 10005510 f i Gate.obj
 0001:00004590       ??$AtlMultiply@K@ATL@@YAJPAKKK@Z 10005590 f i Gate.obj
 0001:000045f0       ??$AtlMultiplyThrow@I@ATL@@YAIII@Z 100055f0 f i Gate.obj
 0001:00004670       ??$QueryInterface@UIPersistStream@@@IUnknown@@QAGJPAPAUIPersistStream@@@Z 10005670 f i Gate.obj
 0001:000046a0       ??$QueryInterface@UITypeInfo2@@@IUnknown@@QAGJPAPAUITypeInfo2@@@Z 100056a0 f i Gate.obj
 0001:000046d0       ??0?$CAtlModuleT@VCComModule@ATL@@@ATL@@QAE@XZ 100056d0 f i Gate.obj
 0001:00004700       ??0?$CAtlSafeAllocBufferManager@VCCRTAllocator@ATL@@@_ATL_SAFE_ALLOCA_IMPL@ATL@@QAE@XZ 10005700 f i Gate.obj
 0001:00004720       ??0?$CAutoVectorPtr@_W@ATL@@QAE@XZ 10005720 f i Gate.obj
 0001:00004740       ??0?$CComAggObject@VCOPOSGate@@@ATL@@QAE@PAX@Z 10005740 f i Gate.obj
 0001:000047b0       ??0?$CComContainedObject@VCOPOSGate@@@ATL@@QAE@PAX@Z 100057b0 f i Gate.obj
 0001:000048c0       ??0?$CComCritSecLock@VCComCriticalSection@ATL@@@ATL@@QAE@AAVCComCriticalSection@1@_N@Z 100058c0 f i Gate.obj
 0001:00004920       ??0?$CComEnum@UIEnumConnectionPoints@@$1?_GUID_b196b285_bab4_101a_b69c_00aa00341d07@@3U__s_GUID@@BPAUIConnectionPoint@@V?$_CopyInterface@UIConnectionPoint@@@ATL@@VCComSingleThreadModel@6@@ATL@@QAE@XZ 10005920 f i Gate.obj
 0001:00004960       ??0?$CComEnum@UIEnumConnections@@$1?_GUID_b196b287_bab4_101a_b69c_00aa00341d07@@3U__s_GUID@@BUtagCONNECTDATA@@V?$_Copy@UtagCONNECTDATA@@@ATL@@VCComSingleThreadModel@6@@ATL@@QAE@XZ 10005960 f i Gate.obj
 0001:000049a0       ??0?$CComEnumImpl@UIEnumConnectionPoints@@$1?_GUID_b196b285_bab4_101a_b69c_00aa00341d07@@3U__s_GUID@@BPAUIConnectionPoint@@V?$_CopyInterface@UIConnectionPoint@@@ATL@@@ATL@@QAE@XZ 100059a0 f i Gate.obj
 0001:00004a00       ??0?$CComEnumImpl@UIEnumConnections@@$1?_GUID_b196b287_bab4_101a_b69c_00aa00341d07@@3U__s_GUID@@BUtagCONNECTDATA@@V?$_Copy@UtagCONNECTDATA@@@ATL@@@ATL@@QAE@XZ 10005a00 f i Gate.obj
 0001:00004a60       ??0?$CComObject@V?$CComEnum@UIEnumConnectionPoints@@$1?_GUID_b196b285_bab4_101a_b69c_00aa00341d07@@3U__s_GUID@@BPAUIConnectionPoint@@V?$_CopyInterface@UIConnectionPoint@@@ATL@@VCComSingleThreadModel@6@@ATL@@@ATL@@QAE@PAX@Z 10005a60 f i Gate.obj
 0001:00004ab0       ??0?$CComObject@V?$CComEnum@UIEnumConnections@@$1?_GUID_b196b287_bab4_101a_b69c_00aa00341d07@@3U__s_GUID@@BUtagCONNECTDATA@@V?$_Copy@UtagCONNECTDATA@@@ATL@@VCComSingleThreadModel@6@@ATL@@@ATL@@QAE@PAX@Z 10005ab0 f i Gate.obj
 0001:00004b00       ??0?$CComObject@VCOPOSGate@@@ATL@@QAE@PAX@Z 10005b00 f i Gate.obj
 0001:00004c20       ??0?$CComObjectCached@VCComClassFactory@ATL@@@ATL@@QAE@PAX@Z 10005c20 f i Gate.obj
 0001:00004c60       ??0?$CComObjectRootEx@VCComMultiThreadModel@ATL@@@ATL@@QAE@XZ 10005c60 f i Gate.obj
 0001:00004ca0       ??0?$CComObjectRootEx@VCComSingleThreadModel@ATL@@@ATL@@QAE@XZ 10005ca0 f i Gate.obj
 0001:00004cd0       ??0?$CComPtr@UIAdviseSink@@@ATL@@QAE@PAUIAdviseSink@@@Z 10005cd0 f i Gate.obj
 0001:00004d00       ??0?$CComPtr@UICatRegister@@@ATL@@QAE@XZ 10005d00 f i Gate.obj
 0001:00004d30       ??0?$CComPtr@UIConnectionPoint@@@ATL@@QAE@XZ 10005d30 f i Gate.obj
 0001:00004d60       ??0?$CComPtr@UIConnectionPointContainer@@@ATL@@QAE@XZ 10005d60 f i Gate.obj
 0001:00004d90       ??0?$CComPtr@UIDataObject@@@ATL@@QAE@XZ 10005d90 f i Gate.obj
 0001:00004dc0       ??0?$CComPtr@UIDispatch@@@ATL@@QAE@XZ 10005dc0 f i Gate.obj
 0001:00004df0       ??0?$CComPtr@UIOleClientSite@@@ATL@@QAE@PAUIOleClientSite@@@Z 10005df0 f i Gate.obj
 0001:00004e20       ??0?$CComPtr@UIOleControlSite@@@ATL@@QAE@XZ 10005e20 f i Gate.obj
 0001:00004e50       ??0?$CComPtr@UIOleInPlaceActiveObject@@@ATL@@QAE@XZ 10005e50 f i Gate.obj
 0001:00004e80       ??0?$CComPtr@UIOleInPlaceFrame@@@ATL@@QAE@XZ 10005e80 f i Gate.obj
 0001:00004eb0       ??0?$CComPtr@UIOleInPlaceObject@@@ATL@@QAE@XZ 10005eb0 f i Gate.obj
 0001:00004ee0       ??0?$CComPtr@UIOleInPlaceUIWindow@@@ATL@@QAE@XZ 10005ee0 f i Gate.obj
 0001:00004f10       ??0?$CComPtr@UIOleObject@@@ATL@@QAE@XZ 10005f10 f i Gate.obj
 0001:00004f40       ??0?$CComPtr@UIPersistStream@@@ATL@@QAE@XZ 10005f40 f i Gate.obj
 0001:00004f70       ??0?$CComPtr@UIPersistStreamInit@@@ATL@@QAE@XZ 10005f70 f i Gate.obj
 0001:00004fa0       ??0?$CComPtr@UIPointerInactive@@@ATL@@QAE@XZ 10005fa0 f i Gate.obj
 0001:00004fd0       ??0?$CComPtr@UIProvideClassInfo2@@@ATL@@QAE@XZ 10005fd0 f i Gate.obj
 0001:00005000       ??0?$CComPtr@UISpecifyPropertyPages@@@ATL@@QAE@XZ 10006000 f i Gate.obj
 0001:00005030       ??0?$CComPtr@UIStream@@@ATL@@QAE@XZ 10006030 f i Gate.obj
 0001:00005060       ??0?$CComPtr@UITypeInfo2@@@ATL@@QAE@XZ 10006060 f i Gate.obj
 0001:00005090       ??0?$CComPtr@UITypeInfo@@@ATL@@QAE@ABV01@@Z 10006090 f i Gate.obj
 0001:000050c0       ??0?$CComPtr@UITypeInfo@@@ATL@@QAE@XZ 100060c0 f i Gate.obj
 0001:000050f0       ??0?$CComPtr@UITypeLib@@@ATL@@QAE@XZ 100060f0 f i Gate.obj
 0001:00005120       ??0?$CComPtr@UIUnknown@@@ATL@@QAE@ABV01@@Z 10006120 f i Gate.obj
 0001:00005150       ??0?$CComPtr@UIUnknown@@@ATL@@QAE@PAUIUnknown@@@Z 10006150 f i Gate.obj
 0001:00005180       ??0?$CComPtr@UIUnknown@@@ATL@@QAE@XZ 10006180 f i Gate.obj
 0001:000051b0       ??0?$CComPtr@UIViewObjectEx@@@ATL@@QAE@XZ 100061b0 f i Gate.obj
 0001:000051e0       ??0?$CComPtrBase@UIAdviseSink@@@ATL@@IAE@PAUIAdviseSink@@@Z 100061e0 f i Gate.obj
 0001:00005230       ??0?$CComPtrBase@UICatRegister@@@ATL@@IAE@XZ 10006230 f i Gate.obj
 0001:00005250       ??0?$CComPtrBase@UIConnectionPoint@@@ATL@@IAE@XZ 10006250 f i Gate.obj
 0001:00005270       ??0?$CComPtrBase@UIConnectionPointContainer@@@ATL@@IAE@XZ 10006270 f i Gate.obj
 0001:00005290       ??0?$CComPtrBase@UIDataObject@@@ATL@@IAE@XZ 10006290 f i Gate.obj
 0001:000052b0       ??0?$CComPtrBase@UIDispatch@@@ATL@@IAE@XZ 100062b0 f i Gate.obj
 0001:000052d0       ??0?$CComPtrBase@UIOleClientSite@@@ATL@@IAE@PAUIOleClientSite@@@Z 100062d0 f i Gate.obj
 0001:00005320       ??0?$CComPtrBase@UIOleControlSite@@@ATL@@IAE@XZ 10006320 f i Gate.obj
 0001:00005340       ??0?$CComPtrBase@UIOleInPlaceActiveObject@@@ATL@@IAE@XZ 10006340 f i Gate.obj
 0001:00005360       ??0?$CComPtrBase@UIOleInPlaceFrame@@@ATL@@IAE@XZ 10006360 f i Gate.obj
 0001:00005380       ??0?$CComPtrBase@UIOleInPlaceObject@@@ATL@@IAE@XZ 10006380 f i Gate.obj
 0001:000053a0       ??0?$CComPtrBase@UIOleInPlaceUIWindow@@@ATL@@IAE@XZ 100063a0 f i Gate.obj
 0001:000053c0       ??0?$CComPtrBase@UIOleObject@@@ATL@@IAE@XZ 100063c0 f i Gate.obj
 0001:000053e0       ??0?$CComPtrBase@UIPersistStream@@@ATL@@IAE@XZ 100063e0 f i Gate.obj
 0001:00005400       ??0?$CComPtrBase@UIPersistStreamInit@@@ATL@@IAE@XZ 10006400 f i Gate.obj
 0001:00005420       ??0?$CComPtrBase@UIPointerInactive@@@ATL@@IAE@XZ 10006420 f i Gate.obj
 0001:00005440       ??0?$CComPtrBase@UIProvideClassInfo2@@@ATL@@IAE@XZ 10006440 f i Gate.obj
 0001:00005460       ??0?$CComPtrBase@UISpecifyPropertyPages@@@ATL@@IAE@XZ 10006460 f i Gate.obj
 0001:00005480       ??0?$CComPtrBase@UIStream@@@ATL@@IAE@XZ 10006480 f i Gate.obj
 0001:000054a0       ??0?$CComPtrBase@UITypeInfo2@@@ATL@@IAE@XZ 100064a0 f i Gate.obj
 0001:000054c0       ??0?$CComPtrBase@UITypeInfo@@@ATL@@IAE@PAUITypeInfo@@@Z 100064c0 f i Gate.obj
 0001:00005510       ??0?$CComPtrBase@UITypeInfo@@@ATL@@IAE@XZ 10006510 f i Gate.obj
 0001:00005530       ??0?$CComPtrBase@UITypeLib@@@ATL@@IAE@XZ 10006530 f i Gate.obj
 0001:00005550       ??0?$CComPtrBase@UIUnknown@@@ATL@@IAE@PAUIUnknown@@@Z 10006550 f i Gate.obj
 0001:000055a0       ??0?$CComPtrBase@UIUnknown@@@ATL@@IAE@XZ 100065a0 f i Gate.obj
 0001:000055c0       ??0?$CComPtrBase@UIViewObjectEx@@@ATL@@IAE@XZ 100065c0 f i Gate.obj
 0001:000055e0       ??0?$CComQIPtr@UIOleControlSite@@$1?_GUID_b196b289_bab4_101a_b69c_00aa00341d07@@3U__s_GUID@@B@ATL@@QAE@PAUIUnknown@@@Z 100065e0 f i Gate.obj
 0001:00005640       ??0?$CComQIPtr@UIOleObject@@$1?_GUID_00000112_0000_0000_c000_000000000046@@3U__s_GUID@@B@ATL@@QAE@XZ 10006640 f i Gate.obj
 0001:00005670       ??0?$CComQIPtr@UISpecifyPropertyPages@@$1?_GUID_b196b28b_bab4_101a_b69c_00aa00341d07@@3U__s_GUID@@B@ATL@@QAE@XZ 10006670 f i Gate.obj
 0001:000056a0       ??0?$CSimpleMap@PA_WPA_WVCExpansionVectorEqualHelper@ATL@@@ATL@@QAE@XZ 100066a0 f i Gate.obj
 0001:000056e0       ??0?$CTempBuffer@E$0BAA@VCCRTAllocator@ATL@@@ATL@@QAE@XZ 100066e0 f i Gate.obj
 0001:00005700       ??0?$CTempBuffer@_W$0BAA@VCCRTAllocator@ATL@@@ATL@@QAE@XZ 10006700 f i Gate.obj
 0001:00005720       ??0?$CTempBuffer@_W$0EAA@VCCRTAllocator@ATL@@@ATL@@QAE@XZ 10006720 f i Gate.obj
 0001:00005740       ??0?$Wrapper@PA_W@?$CSimpleMap@PA_WPA_WVCExpansionVectorEqualHelper@ATL@@@ATL@@QAE@ABQA_W@Z 10006740 f i Gate.obj
 0001:00005770       ??0CAtlModule@ATL@@QAE@XZ  10006770 f i Gate.obj
 0001:00005890       ??0CComAutoDeleteCriticalSection@ATL@@QAE@XZ 10006890 f i Gate.obj
 0001:000058c0       ??0CComBSTR@ATL@@QAE@XZ    100068c0 f i Gate.obj
 0001:000058e0       ??0CComClassFactory@ATL@@QAE@XZ 100068e0 f i Gate.obj
 0001:00005920       ??0CComModule@ATL@@QAE@XZ  10006920 f i Gate.obj
 0001:00005990       ??0CComObjectRootBase@ATL@@QAE@XZ 10006990 f i Gate.obj
 0001:000059b0       ??0CComSafeDeleteCriticalSection@ATL@@QAE@XZ 100069b0 f i Gate.obj
 0001:000059e0       ??0CComVariant@ATL@@QAE@XZ 100069e0 f i Gate.obj
 0001:00005a30       ??0CExpansionVector@ATL@@QAE@XZ 10006a30 f i Gate.obj
 0001:00005a60       ??0CParseBuffer@CRegParser@ATL@@QAE@H@Z 10006a60 f i Gate.obj
 0001:00005ad0       ??0CRegKey@ATL@@QAE@PAUHKEY__@@@Z 10006ad0 f i Gate.obj
 0001:00005b10       ??0CRegKey@ATL@@QAE@PAVCAtlTransactionManager@1@@Z 10006b10 f i Gate.obj
 0001:00005b50       ??0CRegObject@ATL@@QAE@XZ  10006b50 f i Gate.obj
 0001:00005b90       ??0CRegParser@ATL@@QAE@PAVCRegObject@1@@Z 10006b90 f i Gate.obj
 0001:00005bc0       ??0IClassFactory@@QAE@XZ   10006bc0 f i Gate.obj
 0001:00005bf0       ??0IEnumConnectionPoints@@QAE@XZ 10006bf0 f i Gate.obj
 0001:00005c20       ??0IEnumConnections@@QAE@XZ 10006c20 f i Gate.obj
 0001:00005c50       ??0IRegistrarBase@@QAE@XZ  10006c50 f i Gate.obj
 0001:00005c80       ??0IUnknown@@QAE@XZ        10006c80 f i Gate.obj
 0001:00005ca0       ??0ModuleLockHelper@ATL@@QAE@XZ 10006ca0 f i Gate.obj
 0001:00005ce0       ??0OposVariant@@QAE@XZ     10006ce0 f i Gate.obj
 0001:00005d10       ??0Wrapper@?$CSimpleArray@GV?$CSimpleArrayEqualHelper@G@ATL@@@ATL@@QAE@ABG@Z 10006d10 f i Gate.obj
 0001:00005d40       ??0_ATL_MODULE70@ATL@@QAE@XZ 10006d40 f i Gate.obj
 0001:00005d70       ??0_ATL_MSG@ATL@@QAE@PAUHWND__@@IIJH@Z 10006d70 f i Gate.obj
 0001:00005de0       ??0_U_MENUorID@ATL@@QAE@I@Z 10006de0 f i Gate.obj
 0001:00005e00       ??0_U_RECT@ATL@@QAE@AAUtagRECT@@@Z 10006e00 f i Gate.obj
 0001:00005e20       ??0stringdispid@CComTypeInfoHolder@ATL@@QAE@XZ 10006e20 f i Gate.obj
 0001:00005e60       ??1?$CAtlModuleT@VCComModule@ATL@@@ATL@@UAE@XZ 10006e60 f i Gate.obj
 0001:00005e90       ??1?$CAtlSafeAllocBufferManager@VCCRTAllocator@ATL@@@_ATL_SAFE_ALLOCA_IMPL@ATL@@QAE@XZ 10006e90 f i Gate.obj
 0001:00005ee0       ??1?$CAutoVectorPtr@_W@ATL@@QAE@XZ 10006ee0 f i Gate.obj
 0001:00005f10       ??1?$CComAggObject@VCOPOSGate@@@ATL@@UAE@XZ 10006f10 f i Gate.obj
 0001:00005f80       ??1?$CComContainedObject@VCOPOSGate@@@ATL@@UAE@XZ 10006f80 f i Gate.obj
 0001:00005fb0       ??1?$CComCritSecLock@VCComCriticalSection@ATL@@@ATL@@QAE@XZ 10006fb0 f i Gate.obj
 0001:00005fe0       ??1?$CComEnum@UIEnumConnectionPoints@@$1?_GUID_b196b285_bab4_101a_b69c_00aa00341d07@@3U__s_GUID@@BPAUIConnectionPoint@@V?$_CopyInterface@UIConnectionPoint@@@ATL@@VCComSingleThreadModel@6@@ATL@@UAE@XZ 10006fe0 f i Gate.obj
 0001:00006010       ??1?$CComEnum@UIEnumConnections@@$1?_GUID_b196b287_bab4_101a_b69c_00aa00341d07@@3U__s_GUID@@BUtagCONNECTDATA@@V?$_Copy@UtagCONNECTDATA@@@ATL@@VCComSingleThreadModel@6@@ATL@@UAE@XZ 10007010 f i Gate.obj
 0001:00006040       ??1?$CComEnumImpl@UIEnumConnectionPoints@@$1?_GUID_b196b285_bab4_101a_b69c_00aa00341d07@@3U__s_GUID@@BPAUIConnectionPoint@@V?$_CopyInterface@UIConnectionPoint@@@ATL@@@ATL@@UAE@XZ 10007040 f i Gate.obj
 0001:000060d0       ??1?$CComEnumImpl@UIEnumConnections@@$1?_GUID_b196b287_bab4_101a_b69c_00aa00341d07@@3U__s_GUID@@BUtagCONNECTDATA@@V?$_Copy@UtagCONNECTDATA@@@ATL@@@ATL@@UAE@XZ 100070d0 f i Gate.obj
 0001:00006160       ??1?$CComObject@V?$CComEnum@UIEnumConnectionPoints@@$1?_GUID_b196b285_bab4_101a_b69c_00aa00341d07@@3U__s_GUID@@BPAUIConnectionPoint@@V?$_CopyInterface@UIConnectionPoint@@@ATL@@VCComSingleThreadModel@6@@ATL@@@ATL@@UAE@XZ 10007160 f i Gate.obj
 0001:000061c0       ??1?$CComObject@V?$CComEnum@UIEnumConnections@@$1?_GUID_b196b287_bab4_101a_b69c_00aa00341d07@@3U__s_GUID@@BUtagCONNECTDATA@@V?$_Copy@UtagCONNECTDATA@@@ATL@@VCComSingleThreadModel@6@@ATL@@@ATL@@UAE@XZ 100071c0 f i Gate.obj
 0001:00006220       ??1?$CComObject@VCOPOSGate@@@ATL@@UAE@XZ 10007220 f i Gate.obj
 0001:00006360       ??1?$CComObjectCached@VCComClassFactory@ATL@@@ATL@@UAE@XZ 10007360 f i Gate.obj
 0001:000063b0       ??1?$CComObjectRootEx@VCComMultiThreadModel@ATL@@@ATL@@QAE@XZ 100073b0 f i Gate.obj
 0001:000063e0       ??1?$CComObjectRootEx@VCComSingleThreadModel@ATL@@@ATL@@QAE@XZ 100073e0 f i Gate.obj
 0001:00006410       ??1?$CComPtr@UIAdviseSink@@@ATL@@QAE@XZ 10007410 f i Gate.obj
 0001:00006440       ??1?$CComPtr@UICatRegister@@@ATL@@QAE@XZ 10007440 f i Gate.obj
 0001:00006470       ??1?$CComPtr@UIConnectionPoint@@@ATL@@QAE@XZ 10007470 f i Gate.obj
 0001:000064a0       ??1?$CComPtr@UIConnectionPointContainer@@@ATL@@QAE@XZ 100074a0 f i Gate.obj
 0001:000064d0       ??1?$CComPtr@UIDataObject@@@ATL@@QAE@XZ 100074d0 f i Gate.obj
 0001:00006500       ??1?$CComPtr@UIDispatch@@@ATL@@QAE@XZ 10007500 f i Gate.obj
 0001:00006530       ??1?$CComPtr@UIOleClientSite@@@ATL@@QAE@XZ 10007530 f i Gate.obj
 0001:00006560       ??1?$CComPtr@UIOleControlSite@@@ATL@@QAE@XZ 10007560 f i Gate.obj
 0001:00006590       ??1?$CComPtr@UIOleInPlaceActiveObject@@@ATL@@QAE@XZ 10007590 f i Gate.obj
 0001:000065c0       ??1?$CComPtr@UIOleInPlaceFrame@@@ATL@@QAE@XZ 100075c0 f i Gate.obj
 0001:000065f0       ??1?$CComPtr@UIOleInPlaceObject@@@ATL@@QAE@XZ 100075f0 f i Gate.obj
 0001:00006620       ??1?$CComPtr@UIOleInPlaceUIWindow@@@ATL@@QAE@XZ 10007620 f i Gate.obj
 0001:00006650       ??1?$CComPtr@UIOleObject@@@ATL@@QAE@XZ 10007650 f i Gate.obj
 0001:00006680       ??1?$CComPtr@UIPersistStream@@@ATL@@QAE@XZ 10007680 f i Gate.obj
 0001:000066b0       ??1?$CComPtr@UIPersistStreamInit@@@ATL@@QAE@XZ 100076b0 f i Gate.obj
 0001:000066e0       ??1?$CComPtr@UIPointerInactive@@@ATL@@QAE@XZ 100076e0 f i Gate.obj
 0001:00006710       ??1?$CComPtr@UIProvideClassInfo2@@@ATL@@QAE@XZ 10007710 f i Gate.obj
 0001:00006740       ??1?$CComPtr@UISpecifyPropertyPages@@@ATL@@QAE@XZ 10007740 f i Gate.obj
 0001:00006770       ??1?$CComPtr@UIStream@@@ATL@@QAE@XZ 10007770 f i Gate.obj
 0001:000067a0       ??1?$CComPtr@UITypeInfo2@@@ATL@@QAE@XZ 100077a0 f i Gate.obj
 0001:000067d0       ??1?$CComPtr@UITypeInfo@@@ATL@@QAE@XZ 100077d0 f i Gate.obj
 0001:00006800       ??1?$CComPtr@UITypeLib@@@ATL@@QAE@XZ 10007800 f i Gate.obj
 0001:00006830       ??1?$CComPtr@UIUnknown@@@ATL@@QAE@XZ 10007830 f i Gate.obj
 0001:00006860       ??1?$CComPtr@UIViewObjectEx@@@ATL@@QAE@XZ 10007860 f i Gate.obj
 0001:00006890       ??1?$CComPtrBase@UIAdviseSink@@@ATL@@QAE@XZ 10007890 f i Gate.obj
 0001:000068e0       ??1?$CComPtrBase@UICatRegister@@@ATL@@QAE@XZ 100078e0 f i Gate.obj
 0001:00006930       ??1?$CComPtrBase@UIConnectionPoint@@@ATL@@QAE@XZ 10007930 f i Gate.obj
 0001:00006980       ??1?$CComPtrBase@UIConnectionPointContainer@@@ATL@@QAE@XZ 10007980 f i Gate.obj
 0001:000069d0       ??1?$CComPtrBase@UIDataObject@@@ATL@@QAE@XZ 100079d0 f i Gate.obj
 0001:00006a20       ??1?$CComPtrBase@UIDispatch@@@ATL@@QAE@XZ 10007a20 f i Gate.obj
 0001:00006a70       ??1?$CComPtrBase@UIOleClientSite@@@ATL@@QAE@XZ 10007a70 f i Gate.obj
 0001:00006ac0       ??1?$CComPtrBase@UIOleControlSite@@@ATL@@QAE@XZ 10007ac0 f i Gate.obj
 0001:00006b10       ??1?$CComPtrBase@UIOleInPlaceActiveObject@@@ATL@@QAE@XZ 10007b10 f i Gate.obj
 0001:00006b60       ??1?$CComPtrBase@UIOleInPlaceFrame@@@ATL@@QAE@XZ 10007b60 f i Gate.obj
 0001:00006bb0       ??1?$CComPtrBase@UIOleInPlaceObject@@@ATL@@QAE@XZ 10007bb0 f i Gate.obj
 0001:00006c00       ??1?$CComPtrBase@UIOleInPlaceUIWindow@@@ATL@@QAE@XZ 10007c00 f i Gate.obj
 0001:00006c50       ??1?$CComPtrBase@UIOleObject@@@ATL@@QAE@XZ 10007c50 f i Gate.obj
 0001:00006ca0       ??1?$CComPtrBase@UIPersistStream@@@ATL@@QAE@XZ 10007ca0 f i Gate.obj
 0001:00006cf0       ??1?$CComPtrBase@UIPersistStreamInit@@@ATL@@QAE@XZ 10007cf0 f i Gate.obj
 0001:00006d40       ??1?$CComPtrBase@UIPointerInactive@@@ATL@@QAE@XZ 10007d40 f i Gate.obj
 0001:00006d90       ??1?$CComPtrBase@UIProvideClassInfo2@@@ATL@@QAE@XZ 10007d90 f i Gate.obj
 0001:00006de0       ??1?$CComPtrBase@UISpecifyPropertyPages@@@ATL@@QAE@XZ 10007de0 f i Gate.obj
 0001:00006e30       ??1?$CComPtrBase@UIStream@@@ATL@@QAE@XZ 10007e30 f i Gate.obj
 0001:00006e80       ??1?$CComPtrBase@UITypeInfo2@@@ATL@@QAE@XZ 10007e80 f i Gate.obj
 0001:00006ed0       ??1?$CComPtrBase@UITypeInfo@@@ATL@@QAE@XZ 10007ed0 f i Gate.obj
 0001:00006f20       ??1?$CComPtrBase@UITypeLib@@@ATL@@QAE@XZ 10007f20 f i Gate.obj
 0001:00006f70       ??1?$CComPtrBase@UIUnknown@@@ATL@@QAE@XZ 10007f70 f i Gate.obj
 0001:00006fc0       ??1?$CComPtrBase@UIViewObjectEx@@@ATL@@QAE@XZ 10007fc0 f i Gate.obj
 0001:00007010       ??1?$CComQIPtr@UIOleControlSite@@$1?_GUID_b196b289_bab4_101a_b69c_00aa00341d07@@3U__s_GUID@@B@ATL@@QAE@XZ 10008010 f i Gate.obj
 0001:00007040       ??1?$CComQIPtr@UIOleObject@@$1?_GUID_00000112_0000_0000_c000_000000000046@@3U__s_GUID@@B@ATL@@QAE@XZ 10008040 f i Gate.obj
 0001:00007070       ??1?$CComQIPtr@UISpecifyPropertyPages@@$1?_GUID_b196b28b_bab4_101a_b69c_00aa00341d07@@3U__s_GUID@@B@ATL@@QAE@XZ 10008070 f i Gate.obj
 0001:000070a0       ??1?$CSimpleMap@PA_WPA_WVCExpansionVectorEqualHelper@ATL@@@ATL@@QAE@XZ 100080a0 f i Gate.obj
 0001:000070d0       ??1?$CTempBuffer@E$0BAA@VCCRTAllocator@ATL@@@ATL@@QAE@XZ 100080d0 f i Gate.obj
 0001:00007110       ??1?$CTempBuffer@_W$0BAA@VCCRTAllocator@ATL@@@ATL@@QAE@XZ 10008110 f i Gate.obj
 0001:00007150       ??1?$CTempBuffer@_W$0EAA@VCCRTAllocator@ATL@@@ATL@@QAE@XZ 10008150 f i Gate.obj
 0001:00007190       ??1CAtlModule@ATL@@UAE@XZ  10008190 f i Gate.obj
 0001:000071c0       ??1CComAutoDeleteCriticalSection@ATL@@QAE@XZ 100081c0 f i Gate.obj
 0001:000071f0       ??1CComClassFactory@ATL@@UAE@XZ 100081f0 f i Gate.obj
 0001:00007220       ??1CComModule@ATL@@UAE@XZ  10008220 f i Gate.obj
 0001:00007250       ??1CComObjectRootBase@ATL@@QAE@XZ 10008250 f i Gate.obj
 0001:00007270       ??1CComSafeDeleteCriticalSection@ATL@@QAE@XZ 10008270 f i Gate.obj
 0001:000072b0       ??1CComVariant@ATL@@QAE@XZ 100082b0 f i Gate.obj
 0001:00007310       ??1CExpansionVector@ATL@@QAE@XZ 10008310 f i Gate.obj
 0001:00007340       ??1CParseBuffer@CRegParser@ATL@@QAE@XZ 10008340 f i Gate.obj
 0001:00007380       ??1CRegKey@ATL@@QAE@XZ     10008380 f i Gate.obj
 0001:000073b0       ??1CRegObject@ATL@@UAE@XZ  100083b0 f i Gate.obj
 0001:000073f0       ??1ModuleLockHelper@ATL@@QAE@XZ 100083f0 f i Gate.obj
 0001:00007430       ??1OposVariant@@QAE@XZ     10008430 f i Gate.obj
 0001:00007460       ??1_ATL_MODULE70@ATL@@QAE@XZ 10008460 f i Gate.obj
 0001:00007490       ??4?$CComPtr@UIAdviseSink@@@ATL@@QAEPAUIAdviseSink@@PAU2@@Z 10008490 f i Gate.obj
 0001:00007500       ??4?$CComPtr@UIOleClientSite@@@ATL@@QAEPAUIOleClientSite@@PAU2@@Z 10008500 f i Gate.obj
 0001:00007570       ??4?$CComPtr@UIUnknown@@@ATL@@QAEPAUIUnknown@@PAU2@@Z 10008570 f i Gate.obj
 0001:000075e0       ??4?$CComQIPtr@UIOleObject@@$1?_GUID_00000112_0000_0000_c000_000000000046@@3U__s_GUID@@B@ATL@@QAEPAUIOleObject@@PAUIUnknown@@@Z 100085e0 f i Gate.obj
 0001:00007630       ??4?$CComQIPtr@UISpecifyPropertyPages@@$1?_GUID_b196b28b_bab4_101a_b69c_00aa00341d07@@3U__s_GUID@@B@ATL@@QAEPAUISpecifyPropertyPages@@PAUIUnknown@@@Z 10008630 f i Gate.obj
 0001:00007680       ??7?$CComPtrBase@UIOleClientSite@@@ATL@@QBE_NXZ 10008680 f i Gate.obj
 0001:000076c0       ??7?$CComPtrBase@UIOleInPlaceSiteWindowless@@@ATL@@QBE_NXZ 100086c0 f i Gate.obj
 0001:00007700       ??7CComBSTR@ATL@@QBE_NXZ   10008700 f i Gate.obj
 0001:00007740       ??8?$CComPtrBase@UIAdviseSink@@@ATL@@QBE_NPAUIAdviseSink@@@Z 10008740 f i Gate.obj
 0001:00007780       ??8?$CComPtrBase@UIConnectionPointContainer@@@ATL@@QBE_NPAUIConnectionPointContainer@@@Z 10008780 f i Gate.obj
 0001:000077c0       ??8?$CComPtrBase@UIDataAdviseHolder@@@ATL@@QBE_NPAUIDataAdviseHolder@@@Z 100087c0 f i Gate.obj
 0001:00007800       ??8?$CComPtrBase@UIOleAdviseHolder@@@ATL@@QBE_NPAUIOleAdviseHolder@@@Z 10008800 f i Gate.obj
 0001:00007840       ??8?$CComPtrBase@UIOleClientSite@@@ATL@@QBE_NPAUIOleClientSite@@@Z 10008840 f i Gate.obj
 0001:00007880       ??8?$CComPtrBase@UIOleControlSite@@@ATL@@QBE_NPAUIOleControlSite@@@Z 10008880 f i Gate.obj
 0001:000078c0       ??8?$CComPtrBase@UIOleInPlaceObject@@@ATL@@QBE_NPAUIOleInPlaceObject@@@Z 100088c0 f i Gate.obj
 0001:00007900       ??8?$CComPtrBase@UIOleInPlaceSiteWindowless@@@ATL@@QBE_NPAUIOleInPlaceSiteWindowless@@@Z 10008900 f i Gate.obj
 0001:00007940       ??8?$CComPtrBase@UIOleObject@@@ATL@@QBE_NPAUIOleObject@@@Z 10008940 f i Gate.obj
 0001:00007980       ??8?$CComPtrBase@UIPersistStream@@@ATL@@QBE_NPAUIPersistStream@@@Z 10008980 f i Gate.obj
 0001:000079c0       ??8?$CComPtrBase@UIPersistStreamInit@@@ATL@@QBE_NPAUIPersistStreamInit@@@Z 100089c0 f i Gate.obj
 0001:00007a00       ??8?$CComPtrBase@UIPointerInactive@@@ATL@@QBE_NPAUIPointerInactive@@@Z 10008a00 f i Gate.obj
 0001:00007a40       ??8?$CComPtrBase@UIUnknown@@@ATL@@QBE_NPAUIUnknown@@@Z 10008a40 f i Gate.obj
 0001:00007a80       ??8?$CComPtrBase@UIViewObjectEx@@@ATL@@QBE_NPAUIViewObjectEx@@@Z 10008a80 f i Gate.obj
 0001:00007ac0       ??8CComBSTR@ATL@@QBE_NH@Z  10008ac0 f i Gate.obj
 0001:00007b20       ??9?$CComPtrBase@UIAdviseSink@@@ATL@@QBE_NPAUIAdviseSink@@@Z 10008b20 f i Gate.obj
 0001:00007b70       ??9?$CComPtrBase@UIConnectionPointContainer@@@ATL@@QBE_NPAUIConnectionPointContainer@@@Z 10008b70 f i Gate.obj
 0001:00007bc0       ??9?$CComPtrBase@UIDataAdviseHolder@@@ATL@@QBE_NPAUIDataAdviseHolder@@@Z 10008bc0 f i Gate.obj
 0001:00007c10       ??9?$CComPtrBase@UIOleAdviseHolder@@@ATL@@QBE_NPAUIOleAdviseHolder@@@Z 10008c10 f i Gate.obj
 0001:00007c60       ??9?$CComPtrBase@UIOleClientSite@@@ATL@@QBE_NPAUIOleClientSite@@@Z 10008c60 f i Gate.obj
 0001:00007cb0       ??9?$CComPtrBase@UIOleControlSite@@@ATL@@QBE_NPAUIOleControlSite@@@Z 10008cb0 f i Gate.obj
 0001:00007d00       ??9?$CComPtrBase@UIOleInPlaceObject@@@ATL@@QBE_NPAUIOleInPlaceObject@@@Z 10008d00 f i Gate.obj
 0001:00007d50       ??9?$CComPtrBase@UIOleInPlaceSiteWindowless@@@ATL@@QBE_NPAUIOleInPlaceSiteWindowless@@@Z 10008d50 f i Gate.obj
 0001:00007da0       ??9?$CComPtrBase@UIOleObject@@@ATL@@QBE_NPAUIOleObject@@@Z 10008da0 f i Gate.obj
 0001:00007df0       ??9?$CComPtrBase@UIPersistStream@@@ATL@@QBE_NPAUIPersistStream@@@Z 10008df0 f i Gate.obj
 0001:00007e40       ??9?$CComPtrBase@UIPersistStreamInit@@@ATL@@QBE_NPAUIPersistStreamInit@@@Z 10008e40 f i Gate.obj
 0001:00007e90       ??9?$CComPtrBase@UIPointerInactive@@@ATL@@QBE_NPAUIPointerInactive@@@Z 10008e90 f i Gate.obj
 0001:00007ee0       ??9?$CComPtrBase@UIUnknown@@@ATL@@QBE_NPAUIUnknown@@@Z 10008ee0 f i Gate.obj
 0001:00007f30       ??9?$CComPtrBase@UIViewObjectEx@@@ATL@@QBE_NPAUIViewObjectEx@@@Z 10008f30 f i Gate.obj
 0001:00007f80       ??9CComBSTR@ATL@@QBE_NH@Z  10008f80 f i Gate.obj
 0001:00007fd0       ??B?$CComPtrBase@UIAdviseSink@@@ATL@@QBEPAUIAdviseSink@@XZ 10008fd0 f i Gate.obj
 0001:00007ff0       ??B?$CComPtrBase@UIDataAdviseHolder@@@ATL@@QBEPAUIDataAdviseHolder@@XZ 10008ff0 f i Gate.obj
 0001:00008010       ??B?$CComPtrBase@UIDataObject@@@ATL@@QBEPAUIDataObject@@XZ 10009010 f i Gate.obj
 0001:00008030       ??B?$CComPtrBase@UIOleAdviseHolder@@@ATL@@QBEPAUIOleAdviseHolder@@XZ 10009030 f i Gate.obj
 0001:00008050       ??B?$CComPtrBase@UIOleClientSite@@@ATL@@QBEPAUIOleClientSite@@XZ 10009050 f i Gate.obj
 0001:00008070       ??B?$CComPtrBase@UIOleControlSite@@@ATL@@QBEPAUIOleControlSite@@XZ 10009070 f i Gate.obj
 0001:00008090       ??B?$CComPtrBase@UIOleInPlaceActiveObject@@@ATL@@QBEPAUIOleInPlaceActiveObject@@XZ 10009090 f i Gate.obj
 0001:000080b0       ??B?$CComPtrBase@UIOleInPlaceFrame@@@ATL@@QBEPAUIOleInPlaceFrame@@XZ 100090b0 f i Gate.obj
 0001:000080d0       ??B?$CComPtrBase@UIOleInPlaceSiteWindowless@@@ATL@@QBEPAUIOleInPlaceSiteWindowless@@XZ 100090d0 f i Gate.obj
 0001:000080f0       ??B?$CComPtrBase@UIOleInPlaceUIWindow@@@ATL@@QBEPAUIOleInPlaceUIWindow@@XZ 100090f0 f i Gate.obj
 0001:00008110       ??B?$CComPtrBase@UIOleObject@@@ATL@@QBEPAUIOleObject@@XZ 10009110 f i Gate.obj
 0001:00008130       ??B?$CComPtrBase@UIPersistStream@@@ATL@@QBEPAUIPersistStream@@XZ 10009130 f i Gate.obj
 0001:00008150       ??B?$CComPtrBase@UIProvideClassInfo2@@@ATL@@QBEPAUIProvideClassInfo2@@XZ 10009150 f i Gate.obj
 0001:00008170       ??B?$CComPtrBase@UISpecifyPropertyPages@@@ATL@@QBEPAUISpecifyPropertyPages@@XZ 10009170 f i Gate.obj
 0001:00008190       ??B?$CComPtrBase@UIStream@@@ATL@@QBEPAUIStream@@XZ 10009190 f i Gate.obj
 0001:000081b0       ??B?$CComPtrBase@UITypeInfo2@@@ATL@@QBEPAUITypeInfo2@@XZ 100091b0 f i Gate.obj
 0001:000081d0       ??B?$CComPtrBase@UITypeInfo@@@ATL@@QBEPAUITypeInfo@@XZ 100091d0 f i Gate.obj
 0001:000081f0       ??B?$CComPtrBase@UITypeLib@@@ATL@@QBEPAUITypeLib@@XZ 100091f0 f i Gate.obj
 0001:00008210       ??B?$CComPtrBase@UIUnknown@@@ATL@@QBEPAUIUnknown@@XZ 10009210 f i Gate.obj
 0001:00008230       ??B?$CTempBuffer@E$0BAA@VCCRTAllocator@ATL@@@ATL@@QBEPAEXZ 10009230 f i Gate.obj
 0001:00008250       ??B?$CTempBuffer@_W$0BAA@VCCRTAllocator@ATL@@@ATL@@QBEPA_WXZ 10009250 f i Gate.obj
 0001:00008270       ??B?$CTempBuffer@_W$0EAA@VCCRTAllocator@ATL@@@ATL@@QBEPA_WXZ 10009270 f i Gate.obj
 0001:00008290       ??B?$CTraceCategoryEx@$00$0A@@ATL@@QAEIXZ 10009290 f i Gate.obj
 0001:000082b0       ??B?$CTraceCategoryEx@$07$0A@@ATL@@QAEIXZ 100092b0 f i Gate.obj
 0001:000082d0       ??B?$CTraceCategoryEx@$0CAAA@$0A@@ATL@@QAEIXZ 100092d0 f i Gate.obj
 0001:000082f0       ??B?$CTraceCategoryEx@$0EA@$0A@@ATL@@QAEIXZ 100092f0 f i Gate.obj
 0001:00008310       ??B?$CTraceCategoryEx@$0IAA@$0A@@ATL@@QAEIXZ 10009310 f i Gate.obj
 0001:00008330       ??BCComBSTR@ATL@@QBEPA_WXZ 10009330 f i Gate.obj
 0001:00008350       ??BCRegKey@ATL@@QBEPAUHKEY__@@XZ 10009350 f i Gate.obj
 0001:00008370       ??C?$CComPtrBase@UIAdviseSink@@@ATL@@QBEPAV?$_NoAddRefReleaseOnCComPtr@UIAdviseSink@@@1@XZ 10009370 f i Gate.obj
 0001:000083c0       ??C?$CComPtrBase@UICatRegister@@@ATL@@QBEPAV?$_NoAddRefReleaseOnCComPtr@UICatRegister@@@1@XZ 100093c0 f i Gate.obj
 0001:00008410       ??C?$CComPtrBase@UIConnectionPoint@@@ATL@@QBEPAV?$_NoAddRefReleaseOnCComPtr@UIConnectionPoint@@@1@XZ 10009410 f i Gate.obj
 0001:00008460       ??C?$CComPtrBase@UIConnectionPointContainer@@@ATL@@QBEPAV?$_NoAddRefReleaseOnCComPtr@UIConnectionPointContainer@@@1@XZ 10009460 f i Gate.obj
 0001:000084b0       ??C?$CComPtrBase@UIDataAdviseHolder@@@ATL@@QBEPAV?$_NoAddRefReleaseOnCComPtr@UIDataAdviseHolder@@@1@XZ 100094b0 f i Gate.obj
 0001:00008500       ??C?$CComPtrBase@UIOleAdviseHolder@@@ATL@@QBEPAV?$_NoAddRefReleaseOnCComPtr@UIOleAdviseHolder@@@1@XZ 10009500 f i Gate.obj
 0001:00008550       ??C?$CComPtrBase@UIOleClientSite@@@ATL@@QBEPAV?$_NoAddRefReleaseOnCComPtr@UIOleClientSite@@@1@XZ 10009550 f i Gate.obj
 0001:000085a0       ??C?$CComPtrBase@UIOleControlSite@@@ATL@@QBEPAV?$_NoAddRefReleaseOnCComPtr@UIOleControlSite@@@1@XZ 100095a0 f i Gate.obj
 0001:000085f0       ??C?$CComPtrBase@UIOleInPlaceFrame@@@ATL@@QBEPAV?$_NoAddRefReleaseOnCComPtr@UIOleInPlaceFrame@@@1@XZ 100095f0 f i Gate.obj
 0001:00008640       ??C?$CComPtrBase@UIOleInPlaceObject@@@ATL@@QBEPAV?$_NoAddRefReleaseOnCComPtr@UIOleInPlaceObject@@@1@XZ 10009640 f i Gate.obj
 0001:00008690       ??C?$CComPtrBase@UIOleInPlaceSiteWindowless@@@ATL@@QBEPAV?$_NoAddRefReleaseOnCComPtr@UIOleInPlaceSiteWindowless@@@1@XZ 10009690 f i Gate.obj
 0001:000086e0       ??C?$CComPtrBase@UIOleInPlaceUIWindow@@@ATL@@QBEPAV?$_NoAddRefReleaseOnCComPtr@UIOleInPlaceUIWindow@@@1@XZ 100096e0 f i Gate.obj
 0001:00008730       ??C?$CComPtrBase@UIOleObject@@@ATL@@QBEPAV?$_NoAddRefReleaseOnCComPtr@UIOleObject@@@1@XZ 10009730 f i Gate.obj
 0001:00008780       ??C?$CComPtrBase@UIPersistStream@@@ATL@@QBEPAV?$_NoAddRefReleaseOnCComPtr@UIPersistStream@@@1@XZ 10009780 f i Gate.obj
 0001:000087d0       ??C?$CComPtrBase@UIPersistStreamInit@@@ATL@@QBEPAV?$_NoAddRefReleaseOnCComPtr@UIPersistStreamInit@@@1@XZ 100097d0 f i Gate.obj
 0001:00008820       ??C?$CComPtrBase@UIPointerInactive@@@ATL@@QBEPAV?$_NoAddRefReleaseOnCComPtr@UIPointerInactive@@@1@XZ 10009820 f i Gate.obj
 0001:00008870       ??C?$CComPtrBase@UIProvideClassInfo2@@@ATL@@QBEPAV?$_NoAddRefReleaseOnCComPtr@UIProvideClassInfo2@@@1@XZ 10009870 f i Gate.obj
 0001:000088c0       ??C?$CComPtrBase@UISpecifyPropertyPages@@@ATL@@QBEPAV?$_NoAddRefReleaseOnCComPtr@UISpecifyPropertyPages@@@1@XZ 100098c0 f i Gate.obj
 0001:00008910       ??C?$CComPtrBase@UITypeInfo@@@ATL@@QBEPAV?$_NoAddRefReleaseOnCComPtr@UITypeInfo@@@1@XZ 10009910 f i Gate.obj
 0001:00008960       ??C?$CComPtrBase@UITypeLib@@@ATL@@QBEPAV?$_NoAddRefReleaseOnCComPtr@UITypeLib@@@1@XZ 10009960 f i Gate.obj
 0001:000089b0       ??C?$CComPtrBase@UIUnknown@@@ATL@@QBEPAV?$_NoAddRefReleaseOnCComPtr@UIUnknown@@@1@XZ 100099b0 f i Gate.obj
 0001:00008a00       ??C?$CComPtrBase@UIViewObjectEx@@@ATL@@QBEPAV?$_NoAddRefReleaseOnCComPtr@UIViewObjectEx@@@1@XZ 10009a00 f i Gate.obj
 0001:00008a50       ??I?$CComPtrBase@UICatRegister@@@ATL@@QAEPAPAUICatRegister@@XZ 10009a50 f i Gate.obj
 0001:00008aa0       ??I?$CComPtrBase@UIConnectionPoint@@@ATL@@QAEPAPAUIConnectionPoint@@XZ 10009aa0 f i Gate.obj
 0001:00008af0       ??I?$CComPtrBase@UIConnectionPointContainer@@@ATL@@QAEPAPAUIConnectionPointContainer@@XZ 10009af0 f i Gate.obj
 0001:00008b40       ??I?$CComPtrBase@UIDataAdviseHolder@@@ATL@@QAEPAPAUIDataAdviseHolder@@XZ 10009b40 f i Gate.obj
 0001:00008b90       ??I?$CComPtrBase@UIDataObject@@@ATL@@QAEPAPAUIDataObject@@XZ 10009b90 f i Gate.obj
 0001:00008be0       ??I?$CComPtrBase@UIDispatch@@@ATL@@QAEPAPAUIDispatch@@XZ 10009be0 f i Gate.obj
 0001:00008c30       ??I?$CComPtrBase@UIOleAdviseHolder@@@ATL@@QAEPAPAUIOleAdviseHolder@@XZ 10009c30 f i Gate.obj
 0001:00008c80       ??I?$CComPtrBase@UIOleControlSite@@@ATL@@QAEPAPAUIOleControlSite@@XZ 10009c80 f i Gate.obj
 0001:00008cd0       ??I?$CComPtrBase@UIOleInPlaceActiveObject@@@ATL@@QAEPAPAUIOleInPlaceActiveObject@@XZ 10009cd0 f i Gate.obj
 0001:00008d20       ??I?$CComPtrBase@UIOleInPlaceFrame@@@ATL@@QAEPAPAUIOleInPlaceFrame@@XZ 10009d20 f i Gate.obj
 0001:00008d70       ??I?$CComPtrBase@UIOleInPlaceObject@@@ATL@@QAEPAPAUIOleInPlaceObject@@XZ 10009d70 f i Gate.obj
 0001:00008dc0       ??I?$CComPtrBase@UIOleInPlaceSiteWindowless@@@ATL@@QAEPAPAUIOleInPlaceSiteWindowless@@XZ 10009dc0 f i Gate.obj
 0001:00008e10       ??I?$CComPtrBase@UIOleInPlaceUIWindow@@@ATL@@QAEPAPAUIOleInPlaceUIWindow@@XZ 10009e10 f i Gate.obj
 0001:00008e60       ??I?$CComPtrBase@UIOleObject@@@ATL@@QAEPAPAUIOleObject@@XZ 10009e60 f i Gate.obj
 0001:00008eb0       ??I?$CComPtrBase@UIPersistStream@@@ATL@@QAEPAPAUIPersistStream@@XZ 10009eb0 f i Gate.obj
 0001:00008f00       ??I?$CComPtrBase@UIPointerInactive@@@ATL@@QAEPAPAUIPointerInactive@@XZ 10009f00 f i Gate.obj
 0001:00008f50       ??I?$CComPtrBase@UIProvideClassInfo2@@@ATL@@QAEPAPAUIProvideClassInfo2@@XZ 10009f50 f i Gate.obj
 0001:00008fa0       ??I?$CComPtrBase@UIStream@@@ATL@@QAEPAPAUIStream@@XZ 10009fa0 f i Gate.obj
 0001:00008ff0       ??I?$CComPtrBase@UITypeInfo2@@@ATL@@QAEPAPAUITypeInfo2@@XZ 10009ff0 f i Gate.obj
 0001:00009040       ??I?$CComPtrBase@UITypeInfo@@@ATL@@QAEPAPAUITypeInfo@@XZ 1000a040 f i Gate.obj
 0001:00009090       ??I?$CComPtrBase@UITypeLib@@@ATL@@QAEPAPAUITypeLib@@XZ 1000a090 f i Gate.obj
 0001:000090e0       ??I?$CComPtrBase@UIUnknown@@@ATL@@QAEPAPAUIUnknown@@XZ 1000a0e0 f i Gate.obj
 0001:00009130       ??I?$CComPtrBase@UIViewObjectEx@@@ATL@@QAEPAPAUIViewObjectEx@@XZ 1000a130 f i Gate.obj
 0001:00009180       ??ICComBSTR@ATL@@QAEPAPA_WXZ 1000a180 f i Gate.obj
 0001:00009195       ??_E?$CComContainedObject@VCOPOSGate@@@ATL@@W3AEPAXI@Z 1000a195 f i Gate.obj
 0001:0000919d       ??_E?$CComContainedObject@VCOPOSGate@@@ATL@@WEM@AEPAXI@Z 1000a19d f i Gate.obj
 0001:000091a5       ??_E?$CComObject@VCOPOSGate@@@ATL@@W3AEPAXI@Z 1000a1a5 f i Gate.obj
 0001:000091ad       ??_E?$CComObject@VCOPOSGate@@@ATL@@WEM@AEPAXI@Z 1000a1ad f i Gate.obj
 0001:000091c0       ??_G?$CComAggObject@VCOPOSGate@@@ATL@@UAEPAXI@Z 1000a1c0 f i Gate.obj
 0001:000091c0       ??_E?$CComAggObject@VCOPOSGate@@@ATL@@UAEPAXI@Z 1000a1c0 f i Gate.obj
 0001:00009210       ??_G?$CComContainedObject@VCOPOSGate@@@ATL@@UAEPAXI@Z 1000a210 f i Gate.obj
 0001:00009210       ??_E?$CComContainedObject@VCOPOSGate@@@ATL@@UAEPAXI@Z 1000a210 f i Gate.obj
 0001:00009260       ??_G?$CComObject@V?$CComEnum@UIEnumConnectionPoints@@$1?_GUID_b196b285_bab4_101a_b69c_00aa00341d07@@3U__s_GUID@@BPAUIConnectionPoint@@V?$_CopyInterface@UIConnectionPoint@@@ATL@@VCComSingleThreadModel@6@@ATL@@@ATL@@UAEPAXI@Z 1000a260 f i Gate.obj
 0001:00009260       ??_E?$CComObject@V?$CComEnum@UIEnumConnectionPoints@@$1?_GUID_b196b285_bab4_101a_b69c_00aa00341d07@@3U__s_GUID@@BPAUIConnectionPoint@@V?$_CopyInterface@UIConnectionPoint@@@ATL@@VCComSingleThreadModel@6@@ATL@@@ATL@@UAEPAXI@Z 1000a260 f i Gate.obj
 0001:000092a0       ??_G?$CComObject@V?$CComEnum@UIEnumConnections@@$1?_GUID_b196b287_bab4_101a_b69c_00aa00341d07@@3U__s_GUID@@BUtagCONNECTDATA@@V?$_Copy@UtagCONNECTDATA@@@ATL@@VCComSingleThreadModel@6@@ATL@@@ATL@@UAEPAXI@Z 1000a2a0 f i Gate.obj
 0001:000092a0       ??_E?$CComObject@V?$CComEnum@UIEnumConnections@@$1?_GUID_b196b287_bab4_101a_b69c_00aa00341d07@@3U__s_GUID@@BUtagCONNECTDATA@@V?$_Copy@UtagCONNECTDATA@@@ATL@@VCComSingleThreadModel@6@@ATL@@@ATL@@UAEPAXI@Z 1000a2a0 f i Gate.obj
 0001:000092e0       ??_E?$CComObject@VCOPOSGate@@@ATL@@UAEPAXI@Z 1000a2e0 f i Gate.obj
 0001:000092e0       ??_G?$CComObject@VCOPOSGate@@@ATL@@UAEPAXI@Z 1000a2e0 f i Gate.obj
 0001:00009330       ??_G?$CComObjectCached@VCComClassFactory@ATL@@@ATL@@UAEPAXI@Z 1000a330 f i Gate.obj
 0001:00009330       ??_E?$CComObjectCached@VCComClassFactory@ATL@@@ATL@@UAEPAXI@Z 1000a330 f i Gate.obj
 0001:00009370       ??_ECComClassFactory@ATL@@UAEPAXI@Z 1000a370 f i Gate.obj
 0001:00009370       ??_GCComClassFactory@ATL@@UAEPAXI@Z 1000a370 f i Gate.obj
 0001:000093b0       ??_GCComModule@ATL@@UAEPAXI@Z 1000a3b0 f i Gate.obj
 0001:000093b0       ??_ECComModule@ATL@@UAEPAXI@Z 1000a3b0 f i Gate.obj
 0001:000093f0       ??_ECRegObject@ATL@@UAEPAXI@Z 1000a3f0 f i Gate.obj
 0001:000093f0       ??_GCRegObject@ATL@@UAEPAXI@Z 1000a3f0 f i Gate.obj
 0001:00009430       ?Add@?$CSimpleArray@GV?$CSimpleArrayEqualHelper@G@ATL@@@ATL@@QAEHABG@Z 1000a430 f i Gate.obj
 0001:00009580       ?Add@?$CSimpleMap@PA_WPA_WVCExpansionVectorEqualHelper@ATL@@@ATL@@QAEHABQA_W0@Z 1000a580 f i Gate.obj
 0001:00009640       ?Add@CComDynamicUnkArray@ATL@@QAEKPAUIUnknown@@@Z 1000a640 f i Gate.obj
 0001:000097e0       ?Add@CExpansionVector@ATL@@QAEHPB_W0@Z 1000a7e0 f i Gate.obj
 0001:00009a70       ?AddChar@CParseBuffer@CRegParser@ATL@@QAEHPB_W@Z 1000aa70 f i Gate.obj
 0001:00009ab0       ?AddCommonRGSReplacements@?$CAtlModuleT@VCComModule@ATL@@@ATL@@UAEJPAUIRegistrarBase@@@Z 1000aab0 f i Gate.obj
 0001:00009b00       ?AddCreateWndData@CAtlWinModule@ATL@@QAEXPAU_AtlCreateWndData@2@PAX@Z 1000ab00 f i Gate.obj
 0001:00009b30       ?AddRef@?$CComAggObject@VCOPOSGate@@@ATL@@UAGKXZ 1000ab30 f i Gate.obj
 0001:00009b50       ?AddRef@?$CComContainedObject@VCOPOSGate@@@ATL@@UAGKXZ 1000ab50 f i Gate.obj
 0001:00009b6c       ?AddRef@?$CComContainedObject@VCOPOSGate@@@ATL@@WHA@AGKXZ 1000ab6c f i Gate.obj
 0001:00009b76       ?AddRef@?$CComContainedObject@VCOPOSGate@@@ATL@@WHE@AGKXZ 1000ab76 f i Gate.obj
 0001:00009b80       ?AddRef@?$CComContainedObject@VCOPOSGate@@@ATL@@WHI@AGKXZ 1000ab80 f i Gate.obj
 0001:00009b8a       ?AddRef@?$CComContainedObject@VCOPOSGate@@@ATL@@WHM@AGKXZ 1000ab8a f i Gate.obj
 0001:00009b94       ?AddRef@?$CComContainedObject@VCOPOSGate@@@ATL@@WIA@AGKXZ 1000ab94 f i Gate.obj
 0001:00009ba1       ?AddRef@?$CComContainedObject@VCOPOSGate@@@ATL@@WIE@AGKXZ 1000aba1 f i Gate.obj
 0001:00009bae       ?AddRef@?$CComContainedObject@VCOPOSGate@@@ATL@@WII@AGKXZ 1000abae f i Gate.obj
 0001:00009bbb       ?AddRef@?$CComContainedObject@VCOPOSGate@@@ATL@@WIM@AGKXZ 1000abbb f i Gate.obj
 0001:00009bc8       ?AddRef@?$CComContainedObject@VCOPOSGate@@@ATL@@WJA@AGKXZ 1000abc8 f i Gate.obj
 0001:00009bd5       ?AddRef@?$CComContainedObject@VCOPOSGate@@@ATL@@WJE@AGKXZ 1000abd5 f i Gate.obj
 0001:00009be2       ?AddRef@?$CComContainedObject@VCOPOSGate@@@ATL@@WJI@AGKXZ 1000abe2 f i Gate.obj
 0001:00009bef       ?AddRef@?$CComContainedObject@VCOPOSGate@@@ATL@@WJM@AGKXZ 1000abef f i Gate.obj
 0001:00009bfc       ?AddRef@?$CComContainedObject@VCOPOSGate@@@ATL@@WKA@AGKXZ 1000abfc f i Gate.obj
 0001:00009c09       ?AddRef@?$CComContainedObject@VCOPOSGate@@@ATL@@WKI@AGKXZ 1000ac09 f i Gate.obj
 0001:00009c16       ?AddRef@?$CComContainedObject@VCOPOSGate@@@ATL@@WLE@AGKXZ 1000ac16 f i Gate.obj
 0001:00009c30       ?AddRef@?$CComObject@V?$CComEnum@UIEnumConnectionPoints@@$1?_GUID_b196b285_bab4_101a_b69c_00aa00341d07@@3U__s_GUID@@BPAUIConnectionPoint@@V?$_CopyInterface@UIConnectionPoint@@@ATL@@VCComSingleThreadModel@6@@ATL@@@ATL@@UAGKXZ 1000ac30 f i Gate.obj
 0001:00009c50       ?AddRef@?$CComObject@V?$CComEnum@UIEnumConnections@@$1?_GUID_b196b287_bab4_101a_b69c_00aa00341d07@@3U__s_GUID@@BUtagCONNECTDATA@@V?$_Copy@UtagCONNECTDATA@@@ATL@@VCComSingleThreadModel@6@@ATL@@@ATL@@UAGKXZ 1000ac50 f i Gate.obj
 0001:00009c70       ?AddRef@?$CComObject@VCOPOSGate@@@ATL@@UAGKXZ 1000ac70 f i Gate.obj
 0001:00009c8c       ?AddRef@?$CComObject@VCOPOSGate@@@ATL@@WHA@AGKXZ 1000ac8c f i Gate.obj
 0001:00009c96       ?AddRef@?$CComObject@VCOPOSGate@@@ATL@@WHE@AGKXZ 1000ac96 f i Gate.obj
 0001:00009ca0       ?AddRef@?$CComObject@VCOPOSGate@@@ATL@@WHI@AGKXZ 1000aca0 f i Gate.obj
 0001:00009caa       ?AddRef@?$CComObject@VCOPOSGate@@@ATL@@WHM@AGKXZ 1000acaa f i Gate.obj
 0001:00009cb4       ?AddRef@?$CComObject@VCOPOSGate@@@ATL@@WIA@AGKXZ 1000acb4 f i Gate.obj
 0001:00009cc1       ?AddRef@?$CComObject@VCOPOSGate@@@ATL@@WIE@AGKXZ 1000acc1 f i Gate.obj
 0001:00009cce       ?AddRef@?$CComObject@VCOPOSGate@@@ATL@@WII@AGKXZ 1000acce f i Gate.obj
 0001:00009cdb       ?AddRef@?$CComObject@VCOPOSGate@@@ATL@@WIM@AGKXZ 1000acdb f i Gate.obj
 0001:00009ce8       ?AddRef@?$CComObject@VCOPOSGate@@@ATL@@WJA@AGKXZ 1000ace8 f i Gate.obj
 0001:00009cf5       ?AddRef@?$CComObject@VCOPOSGate@@@ATL@@WJE@AGKXZ 1000acf5 f i Gate.obj
 0001:00009d02       ?AddRef@?$CComObject@VCOPOSGate@@@ATL@@WJI@AGKXZ 1000ad02 f i Gate.obj
 0001:00009d0f       ?AddRef@?$CComObject@VCOPOSGate@@@ATL@@WJM@AGKXZ 1000ad0f f i Gate.obj
 0001:00009d1c       ?AddRef@?$CComObject@VCOPOSGate@@@ATL@@WKA@AGKXZ 1000ad1c f i Gate.obj
 0001:00009d29       ?AddRef@?$CComObject@VCOPOSGate@@@ATL@@WKI@AGKXZ 1000ad29 f i Gate.obj
 0001:00009d36       ?AddRef@?$CComObject@VCOPOSGate@@@ATL@@WLE@AGKXZ 1000ad36 f i Gate.obj
 0001:00009d50       ?AddRef@?$CComObjectCached@VCComClassFactory@ATL@@@ATL@@UAGKXZ 1000ad50 f i Gate.obj
 0001:00009da0       ?AddRef@CRegObject@ATL@@UAGKXZ 1000ada0 f i Gate.obj
 0001:00009df0       ?AddReplacement@CRegObject@ATL@@UAGJPB_W0@Z 1000adf0 f i Gate.obj
 0001:00009f00       ?AddString@CParseBuffer@CRegParser@ATL@@QAEHPB_W@Z 1000af00 f i Gate.obj
 0001:00009ff0       ?AddTermFunc@CAtlModule@ATL@@QAEJP6GXK@ZK@Z 1000aff0 f i Gate.obj
 0001:0000a040       ?AddValue@CRegParser@ATL@@IAEJAAVCRegKey@2@PB_WPA_W@Z 1000b040 f i Gate.obj
 0001:0000a7d0       ?Advise@?$CProxy_IOPOSEvents@VCOPOSGate@@@@UAGJPAUIUnknown@@PAK@Z 1000b7d0 f i Gate.obj
 0001:0000a820       ?Advise@?$IConnectionPointImpl@VCOPOSGate@@$1?DIID__IOPOSGateEvents@@3U_GUID@@BVCComDynamicUnkArray@ATL@@@ATL@@UAGJPAUIUnknown@@PAK@Z 1000b820 f i Gate.obj
 0001:0000a9c0       ?Advise@?$IConnectionPointImpl@VCOPOSGate@@$1?IID_IPropertyNotifySink@@3U_GUID@@BVCComDynamicUnkArray@ATL@@@ATL@@UAGJPAUIUnknown@@PAK@Z 1000b9c0 f i Gate.obj
 0001:0000ab60       ?Advise@?$IOleObjectImpl@VCOPOSGate@@@ATL@@UAGJPAUIAdviseSink@@PAK@Z 1000bb60 f i Gate.obj
 0001:0000abf0       ?Allocate@?$CAtlSafeAllocBufferManager@VCCRTAllocator@ATL@@@_ATL_SAFE_ALLOCA_IMPL@ATL@@QAEPAXK@Z 1000bbf0 f i Gate.obj
 0001:0000ac60       ?Allocate@?$CTempBuffer@E$0BAA@VCCRTAllocator@ATL@@@ATL@@QAEPAEI@Z 1000bc60 f i Gate.obj
 0001:0000aca0       ?Allocate@?$CTempBuffer@_W$0BAA@VCCRTAllocator@ATL@@@ATL@@QAEPA_WI@Z 1000bca0 f i Gate.obj
 0001:0000ace0       ?Allocate@?$CTempBuffer@_W$0EAA@VCCRTAllocator@ATL@@@ATL@@QAEPA_WI@Z 1000bce0 f i Gate.obj
 0001:0000ad20       ?AllocateBytes@?$CTempBuffer@E$0BAA@VCCRTAllocator@ATL@@@ATL@@QAEPAEI@Z 1000bd20 f i Gate.obj
 0001:0000ada0       ?AllocateBytes@?$CTempBuffer@_W$0BAA@VCCRTAllocator@ATL@@@ATL@@QAEPA_WI@Z 1000bda0 f i Gate.obj
 0001:0000ae20       ?AllocateBytes@?$CTempBuffer@_W$0EAA@VCCRTAllocator@ATL@@@ATL@@QAEPA_WI@Z 1000be20 f i Gate.obj
 0001:0000aea0       ?AllocateHeap@?$CTempBuffer@E$0BAA@VCCRTAllocator@ATL@@@ATL@@AAEXI@Z 1000bea0 f i Gate.obj
 0001:0000aef0       ?AllocateHeap@?$CTempBuffer@_W$0BAA@VCCRTAllocator@ATL@@@ATL@@AAEXI@Z 1000bef0 f i Gate.obj
 0001:0000af40       ?AllocateHeap@?$CTempBuffer@_W$0EAA@VCCRTAllocator@ATL@@@ATL@@AAEXI@Z 1000bf40 f i Gate.obj
 0001:0000af90       ?Append@CParseBuffer@CRegParser@ATL@@QAEHPB_WH@Z 1000bf90 f i Gate.obj
 0001:0000b130       ?AtlCallTermFunc@ATL@@YGXPAU_ATL_MODULE70@1@@Z 1000c130 f i Gate.obj
 0001:0000b1d0       ?AtlCoTaskMemCAlloc@ATL@@YAPAXKK@Z 1000c1d0 f i Gate.obj
 0001:0000b260       ?AtlCoTaskMemRecalloc@ATL@@YAPAXPAXKK@Z 1000c260 f i Gate.obj
 0001:0000b300       ?AtlComModuleGetClassObject@ATL@@YGJPAU_ATL_COM_MODULE70@1@ABU_GUID@@1PAPAX@Z 1000c300 f i Gate.obj
 0001:0000b590       ?AtlComModuleRegisterServer@ATL@@YGJPAU_ATL_COM_MODULE70@1@HPBU_GUID@@@Z 1000c590 f i Gate.obj
 0001:0000b720       ?AtlComModuleUnregisterServer@ATL@@YGJPAU_ATL_COM_MODULE70@1@HPBU_GUID@@@Z 1000c720 f i Gate.obj
 0001:0000b850       ?AtlComQIPtrAssign2@ATL@@YAXPAPAUIUnknown@@PAU2@ABU_GUID@@@Z 1000c850 f i Gate.obj
 0001:0000b8d0       ?AtlCreateTargetDC@ATL@@YGPAUHDC__@@PAU2@PAUtagDVTARGETDEVICE@@@Z 1000c8d0 f i Gate.obj
 0001:0000ba70       ?AtlCrtErrorCheck@ATL@@YAHH@Z 1000ca70 f i Gate.obj
 0001:0000bb40       ?AtlGetPerUserRegistration@ATL@@YGJPA_N@Z 1000cb40 f i Gate.obj
 0001:0000bb70       ?AtlHiMetricToPixel@ATL@@YGXPBUtagSIZE@@PAU2@@Z 1000cb70 f i Gate.obj
 0001:0000bd40       ?AtlHresultFromLastError@ATL@@YAJXZ 1000cd40 f i Gate.obj
 0001:0000bd80       ?AtlHresultFromWin32@ATL@@YAJK@Z 1000cd80 f i Gate.obj
 0001:0000bda0       ?AtlIPersistStreamInit_Load@ATL@@YGJPAUIStream@@PBUATL_PROPMAP_ENTRY@1@PAXPAUIUnknown@@@Z 1000cda0 f i Gate.obj
 0001:0000c200       ?AtlIPersistStreamInit_Save@ATL@@YGJPAUIStream@@HPBUATL_PROPMAP_ENTRY@1@PAXPAUIUnknown@@@Z 1000d200 f i Gate.obj
 0001:0000c5e0       ?AtlInternalOleLoadFromStream@ATL@@YAJPAUIStream@@ABU_GUID@@PAPAXTClassesAllowedInStream@1@K@Z 1000d5e0 f i Gate.obj
 0001:0000c880       ?AtlInternalQueryInterface@ATL@@YGJPAXPBU_ATL_INTMAP_ENTRY@1@ABU_GUID@@PAPAX@Z 1000d880 f i Gate.obj
 0001:0000cab0       ?AtlLoadTypeLib@ATL@@YGJPAUHINSTANCE__@@PB_WPAPA_WPAPAUITypeLib@@@Z 1000dab0 f i Gate.obj
 0001:0000cf10       ?AtlModuleAddTermFunc@ATL@@YGJPAU_ATL_MODULE70@1@P6GXK@ZK@Z 1000df10 f i Gate.obj
 0001:0000d070       ?AtlRegisterClassCategoriesHelper@ATL@@YGJABU_GUID@@PBU_ATL_CATMAP_ENTRY@1@H@Z 1000e070 f i Gate.obj
 0001:0000d750       ?AtlRegisterTypeLib@ATL@@YGJPAUHINSTANCE__@@PB_W@Z 1000e750 f i Gate.obj
 0001:0000da90       ?AtlThrowImpl@ATL@@YGXJ@Z  1000ea90 f i Gate.obj
 0001:0000db40       ?AtlUnRegisterTypeLib@ATL@@YGJPAUHINSTANCE__@@PB_W@Z 1000eb40 f i Gate.obj
 0001:0000dd50       ?AtlWinModuleAddCreateWndData@ATL@@YGXPAU_ATL_WIN_MODULE70@1@PAU_AtlCreateWndData@1@PAX@Z 1000ed50 f i Gate.obj
 0001:0000dec0       ?AtlWinModuleExtractCreateWndData@ATL@@YGPAXPAU_ATL_WIN_MODULE70@1@@Z 1000eec0 f i Gate.obj
 0001:0000e040       ?AtlWinModuleRegisterClassExW@ATL@@YGGPAU_ATL_WIN_MODULE70@1@PBUtagWNDCLASSEXW@@@Z 1000f040 f i Gate.obj
 0001:0000e110       ?AtlWinModuleRegisterWndClassInfoW@ATL@@YGGPAU_ATL_WIN_MODULE70@1@PAU_ATL_BASE_MODULE70@1@PAU_ATL_WNDCLASSINFOW@1@PAP6GJPAUHWND__@@IIJ@Z@Z 1000f110 f i Gate.obj
 0001:0000e1a0       ?Attach@?$CAutoVectorPtr@_W@ATL@@QAEXPA_W@Z 1000f1a0 f i Gate.obj
 0001:0000e200       ?Attach@CComBSTR@ATL@@QAEXPA_W@Z 1000f200 f i Gate.obj
 0001:0000e250       ?Attach@CRegKey@ATL@@QAEXPAUHKEY__@@@Z 1000f250 f i Gate.obj
 0001:0000e2c0       ?CanForceRemoveKey@CRegParser@ATL@@IAEHPB_W@Z 1000f2c0 f i Gate.obj
 0001:0000e330       ?ChToByte@CRegParser@ATL@@KAE_W@Z 1000f330 f i Gate.obj
 0001:0000e450       ?ChangeType@CComVariant@ATL@@QAEJGPBUtagVARIANT@@@Z 1000f450 f i Gate.obj
 0001:0000e4b0       ?Cleanup@CComTypeInfoHolder@ATL@@SGXK@Z 1000f4b0 f i Gate.obj
 0001:0000e580       ?Clear@CComVariant@ATL@@QAEJXZ 1000f580 f i Gate.obj
 0001:0000e5c0       ?ClearReplacements@CExpansionVector@ATL@@QAEJXZ 1000f5c0 f i Gate.obj
 0001:0000e650       ?ClearReplacements@CRegObject@ATL@@UAGJXZ 1000f650 f i Gate.obj
 0001:0000e6a0       ?Clone@?$CComEnumImpl@UIEnumConnectionPoints@@$1?_GUID_b196b285_bab4_101a_b69c_00aa00341d07@@3U__s_GUID@@BPAUIConnectionPoint@@V?$_CopyInterface@UIConnectionPoint@@@ATL@@@ATL@@UAGJPAPAUIEnumConnectionPoints@@@Z 1000f6a0 f i Gate.obj
 0001:0000e810       ?Clone@?$CComEnumImpl@UIEnumConnections@@$1?_GUID_b196b287_bab4_101a_b69c_00aa00341d07@@3U__s_GUID@@BUtagCONNECTDATA@@V?$_Copy@UtagCONNECTDATA@@@ATL@@@ATL@@UAGJPAPAUIEnumConnections@@@Z 1000f810 f i Gate.obj
 0001:0000e980       ?Close@?$IOleObjectImpl@VCOPOSGate@@@ATL@@UAGJK@Z 1000f980 f i Gate.obj
 0001:0000ea10       ?Close@CRegKey@ATL@@QAEJXZ 1000fa10 f i Gate.obj
 0001:0000ea80       ?ContextSensitiveHelp@?$IOleInPlaceActiveObjectImpl@VCOPOSGate@@@ATL@@UAGJH@Z 1000fa80 f i Gate.obj
 0001:0000eaf0       ?ContextSensitiveHelp@?$IOleInPlaceObjectWindowlessImpl@VCOPOSGate@@@ATL@@UAGJH@Z 1000faf0 f i Gate.obj
 0001:0000eb60       ?ControlQueryInterface@?$CComControl@VCOPOSGate@@V?$CWindowImpl@VCOPOSGate@@VCWindow@ATL@@V?$CWinTraits@$0FGAAAAAA@$0A@@3@@ATL@@@ATL@@UAEJABU_GUID@@PAPAX@Z 1000fb60 f i Gate.obj
 0001:0000ebe0       ?CreateControlWindow@?$CComControl@VCOPOSGate@@V?$CWindowImpl@VCOPOSGate@@VCWindow@ATL@@V?$CWinTraits@$0FGAAAAAA@$0A@@3@@ATL@@@ATL@@UAEPAUHWND__@@PAU3@AAUtagRECT@@@Z 1000fbe0 f i Gate.obj
 0001:0000ec60       ?CreateInstance@?$CComCreator@V?$CComAggObject@VCOPOSGate@@@ATL@@@ATL@@SGJPAXABU_GUID@@PAPAX@Z 1000fc60 f i Gate.obj
 0001:0000ede0       ?CreateInstance@?$CComCreator@V?$CComObject@VCOPOSGate@@@ATL@@@ATL@@SGJPAXABU_GUID@@PAPAX@Z 1000fde0 f i Gate.obj
 0001:0000ef70       ?CreateInstance@?$CComObject@V?$CComEnum@UIEnumConnectionPoints@@$1?_GUID_b196b285_bab4_101a_b69c_00aa00341d07@@3U__s_GUID@@BPAUIConnectionPoint@@V?$_CopyInterface@UIConnectionPoint@@@ATL@@VCComSingleThreadModel@6@@ATL@@@ATL@@SGJPAPAV12@@Z 1000ff70 f i Gate.obj
 0001:0000f0e0       ?CreateInstance@?$CComObject@V?$CComEnum@UIEnumConnections@@$1?_GUID_b196b287_bab4_101a_b69c_00aa00341d07@@3U__s_GUID@@BUtagCONNECTDATA@@V?$_Copy@UtagCONNECTDATA@@@ATL@@VCComSingleThreadModel@6@@ATL@@@ATL@@SGJPAPAV12@@Z 100100e0 f i Gate.obj
 0001:0000f250       ?CreateInstance@CComClassFactory@ATL@@UAGJPAUIUnknown@@ABU_GUID@@PAPAX@Z 10010250 f i Gate.obj
 0001:0000f340       ?DAdvise@?$IDataObjectImpl@VCOPOSGate@@@ATL@@UAGJPAUtagFORMATETC@@KPAUIAdviseSink@@PAK@Z 10010340 f i Gate.obj
 0001:0000f440       ?DEVMODEOLE2T_EX@@YAPAU_devicemodeW@@PAU1@@Z 10010440 f i Gate.obj
 0001:0000f450       ?DUnadvise@?$IDataObjectImpl@VCOPOSGate@@@ATL@@UAGJK@Z 10010450 f i Gate.obj
 0001:0000f520       ?Decrement@CComMultiThreadModel@ATL@@SGKPAJ@Z 10010520 f i Gate.obj
 0001:0000f540       ?Decrement@CComSingleThreadModel@ATL@@SGKPAJ@Z 10010540 f i Gate.obj
 0001:0000f560       ?DefWindowProcW@?$CWindowImplBaseT@VCWindow@ATL@@V?$CWinTraits@$0FGAAAAAA@$0A@@2@@ATL@@QAEJIIJ@Z 10010560 f i Gate.obj
 0001:0000f5b0       ?DefaultReflectionHandler@?$CWindowImplRoot@VCWindow@ATL@@@ATL@@SAHPAUHWND__@@IIJAAJ@Z 100105b0 f i Gate.obj
 0001:0000f7a0       ?DeleteSubKey@CRegKey@ATL@@QAEJPB_W@Z 100107a0 f i Gate.obj
 0001:0000f8b0       ?DeleteValue@CRegKey@ATL@@QAEJPB_W@Z 100108b0 f i Gate.obj
 0001:0000f920       ?Detach@?$CAutoVectorPtr@_W@ATL@@QAEPA_WXZ 10010920 f i Gate.obj
 0001:0000f950       ?Detach@?$CComPtrBase@UIPersistStream@@@ATL@@QAEPAUIPersistStream@@XZ 10010950 f i Gate.obj
 0001:0000f980       ?Detach@?$CComPtrBase@UITypeInfo@@@ATL@@QAEPAUITypeInfo@@XZ 10010980 f i Gate.obj
 0001:0000f9b0       ?Detach@?$CComPtrBase@UIUnknown@@@ATL@@QAEPAUIUnknown@@XZ 100109b0 f i Gate.obj
 0001:0000f9e0       ?Detach@CComBSTR@ATL@@QAEPA_WXZ 100109e0 f i Gate.obj
 0001:0000fa10       ?Detach@CParseBuffer@CRegParser@ATL@@QAEPA_WXZ 10010a10 f i Gate.obj
 0001:0000fa60       ?Detach@CRegKey@ATL@@QAEPAUHKEY__@@XZ 10010a60 f i Gate.obj
 0001:0000fab0       ?DoEvent@COPOSGate@@IAEXIIJ@Z 10010ab0 f i Gate.obj
 0001:0000fbf0       ?DoVerb@?$IOleObjectImpl@VCOPOSGate@@@ATL@@UAGJJPAUtagMSG@@PAUIOleClientSite@@JPAUHWND__@@PBUtagRECT@@@Z 10010bf0 f i Gate.obj
 0001:0000fe00       ?DoVerbDiscardUndo@?$IOleObjectImpl@VCOPOSGate@@@ATL@@QAEJPBUtagRECT@@PAUHWND__@@@Z 10010e00 f i Gate.obj
 0001:0000fe70       ?DoVerbHide@?$IOleObjectImpl@VCOPOSGate@@@ATL@@QAEJPBUtagRECT@@PAUHWND__@@@Z 10010e70 f i Gate.obj
 0001:0000ff20       ?DoVerbInPlaceActivate@?$IOleObjectImpl@VCOPOSGate@@@ATL@@QAEJPBUtagRECT@@PAUHWND__@@@Z 10010f20 f i Gate.obj
 0001:0000ffc0       ?DoVerbOpen@?$IOleObjectImpl@VCOPOSGate@@@ATL@@QAEJPBUtagRECT@@PAUHWND__@@@Z 10010fc0 f i Gate.obj
 0001:00010030       ?DoVerbPrimary@?$IOleObjectImpl@VCOPOSGate@@@ATL@@QAEJPBUtagRECT@@PAUHWND__@@@Z 10011030 f i Gate.obj
 0001:00010140       ?DoVerbProperties@CComControlBase@ATL@@QAEJPBUtagRECT@@PAUHWND__@@@Z 10011140 f i Gate.obj
 0001:00010460       ?DoVerbShow@?$IOleObjectImpl@VCOPOSGate@@@ATL@@QAEJPBUtagRECT@@PAUHWND__@@@Z 10011460 f i Gate.obj
 0001:000104f0       ?DoVerbUIActivate@?$IOleObjectImpl@VCOPOSGate@@@ATL@@QAEJPBUtagRECT@@PAUHWND__@@@Z 100114f0 f i Gate.obj
 0001:00010590       ?DoesVerbActivate@CComControlBase@ATL@@QAEHJ@Z 10011590 f i Gate.obj
 0001:00010600       ?DoesVerbUIActivate@CComControlBase@ATL@@QAEHJ@Z 10011600 f i Gate.obj
 0001:00010680       ?Draw@?$IViewObjectExImpl@VCOPOSGate@@@ATL@@UAGJKJPAXPAUtagDVTARGETDEVICE@@PAUHDC__@@2PBU_RECTL@@3P6GHK@ZK@Z 10011680 f i Gate.obj
 0001:00010720       ?Empty@CComBSTR@ATL@@QAEXXZ 10011720 f i Gate.obj
 0001:00010760       ?EnableModeless@?$IOleInPlaceActiveObjectImpl@VCOPOSGate@@@ATL@@UAGJH@Z 10011760 f i Gate.obj
 0001:000107c0       ?EndOfVar@CRegParser@ATL@@IAEHXZ 100117c0 f i Gate.obj
 0001:00010830       ?EnsureTI@CComTypeInfoHolder@ATL@@QAEJK@Z 10011830 f i Gate.obj
 0001:00010890       ?EnumAdvise@?$IOleObjectImpl@VCOPOSGate@@@ATL@@UAGJPAPAUIEnumSTATDATA@@@Z 10011890 f i Gate.obj
 0001:000109a0       ?EnumConnectionPoints@?$IConnectionPointContainerImpl@VCOPOSGate@@@ATL@@UAGJPAPAUIEnumConnectionPoints@@@Z 100119a0 f i Gate.obj
 0001:00010dd0       ?EnumConnections@?$IConnectionPointImpl@VCOPOSGate@@$1?DIID__IOPOSGateEvents@@3U_GUID@@BVCComDynamicUnkArray@ATL@@@ATL@@UAGJPAPAUIEnumConnections@@@Z 10011dd0 f i Gate.obj
 0001:00011020       ?EnumConnections@?$IConnectionPointImpl@VCOPOSGate@@$1?IID_IPropertyNotifySink@@3U_GUID@@BVCComDynamicUnkArray@ATL@@@ATL@@UAGJPAPAUIEnumConnections@@@Z 10012020 f i Gate.obj
 0001:00011270       ?EnumDAdvise@?$IDataObjectImpl@VCOPOSGate@@@ATL@@UAGJPAPAUIEnumSTATDATA@@@Z 10012270 f i Gate.obj
 0001:00011370       ?EnumFormatEtc@?$IDataObjectImpl@VCOPOSGate@@@ATL@@UAGJKPAPAUIEnumFORMATETC@@@Z 10012370 f i Gate.obj
 0001:000113e0       ?EnumVerbs@?$IOleObjectImpl@VCOPOSGate@@@ATL@@UAGJPAPAUIEnumOLEVERB@@@Z 100123e0 f i Gate.obj
 0001:00011490       ?EscapeSingleQuote@CAtlModule@ATL@@SAXPA_WIPB_W@Z 10012490 f i Gate.obj
 0001:00011540       ?ExtractCreateWndData@CAtlWinModule@ATL@@QAEPAXXZ 10012540 f i Gate.obj
 0001:00011570       ?FAccessAllowed@?$IObjectSafetyImpl@VCOPOSGate@@$02@ATL@@MAEHXZ 10012570 f i Gate.obj
 0001:00011590       ?FinalConstruct@?$CComAggObject@VCOPOSGate@@@ATL@@QAEJXZ 10012590 f i Gate.obj
 0001:000115d0       ?FinalConstruct@CComObjectRootBase@ATL@@QAEJXZ 100125d0 f i Gate.obj
 0001:000115f0       ?FinalConstruct@CRegObject@ATL@@QAEJXZ 100125f0 f i Gate.obj
 0001:00011620       ?FinalRelease@?$CComAggObject@VCOPOSGate@@@ATL@@QAEXXZ 10012620 f i Gate.obj
 0001:00011660       ?FinalRelease@CComObjectRootBase@ATL@@QAEXXZ 10012660 f i Gate.obj
 0001:00011680       ?FindConnectionPoint@?$IConnectionPointContainerImpl@VCOPOSGate@@@ATL@@UAGJABU_GUID@@PAPAUIConnectionPoint@@@Z 10012680 f i Gate.obj
 0001:000117d0       ?FindKey@?$CSimpleMap@PA_WPA_WVCExpansionVectorEqualHelper@ATL@@@ATL@@QBEHABQA_W@Z 100127d0 f i Gate.obj
 0001:00011840       ?FireTheEvent@?$CProxy_IOPOSEvents@VCOPOSGate@@@@IAEXPAUIUnknown@@PAVOposVariant@@IAAJPB_WJ@Z 10012840 f i Gate.obj
 0001:000119b0       ?FireViewChange@CComControlBase@ATL@@QAEJXZ 100129b0 f i Gate.obj
 0001:00011a70       ?Fire_DirectIOEvent@?$CProxy_IOPOSEvents@VCOPOSGate@@@@QAEXJPAJPAPA_W@Z 10012a70 f i Gate.obj
 0001:00011c40       ?Fire_StatusUpdateEvent@?$CProxy_IOPOSEvents@VCOPOSGate@@@@QAEXJ@Z 10012c40 f i Gate.obj
 0001:00011da0       ?FormatWindowClassName@AtlModuleRegisterWndClassInfoParamW@ATL@@SAXPA_WKPAX@Z 10012da0 f i Gate.obj
 0001:00011dd0       ?Free@?$CAutoVectorPtr@_W@ATL@@QAEXXZ 10012dd0 f i Gate.obj
 0001:00011e20       ?FreeHeap@?$CTempBuffer@E$0BAA@VCCRTAllocator@ATL@@@ATL@@AAEXXZ 10012e20 f i Gate.obj
 0001:00011e50       ?FreeHeap@?$CTempBuffer@_W$0BAA@VCCRTAllocator@ATL@@@ATL@@AAEXXZ 10012e50 f i Gate.obj
 0001:00011e80       ?FreeHeap@?$CTempBuffer@_W$0EAA@VCCRTAllocator@ATL@@@ATL@@AAEXXZ 10012e80 f i Gate.obj
 0001:00011eb0       ?Freeze@?$IViewObjectExImpl@VCOPOSGate@@@ATL@@UAGJKJPAXPAK@Z 10012eb0 f i Gate.obj
 0001:00011f20       ?GenerateError@CRegParser@ATL@@IAEJI@Z 10012f20 f i Gate.obj
 0001:00011f40       ?GetAdvise@?$IViewObjectExImpl@VCOPOSGate@@@ATL@@UAGJPAK0PAPAUIAdviseSink@@@Z 10012f40 f i Gate.obj
 0001:00012040       ?GetAmbientLocaleID@CComControlBase@ATL@@QAEJAAK@Z 10013040 f i Gate.obj
 0001:00012120       ?GetAmbientProperty@CComControlBase@ATL@@QAEJJAAUtagVARIANT@@@Z 10013120 f i Gate.obj
 0001:00012170       ?GetAmbientUserMode@CComControlBase@ATL@@QAEJAAH@Z 10013170 f i Gate.obj
 0001:00012270       ?GetAppId@?$CAtlModuleT@VCComModule@ATL@@@ATL@@SAPB_WXZ 10013270 f i Gate.obj
 0001:00012280       ?GetAt@CComDynamicUnkArray@ATL@@QAEPAUIUnknown@@H@Z 10013280 f i Gate.obj
 0001:00012300       ?GetCanonicalFormatEtc@?$IDataObjectImpl@VCOPOSGate@@@ATL@@UAGJPAUtagFORMATETC@@0@Z 10013300 f i Gate.obj
 0001:00012370       ?GetClassID@?$IPersistStorageImpl@VCOPOSGate@@@ATL@@UAGJPAU_GUID@@@Z 10013370 f i Gate.obj
 0001:000123f0       ?GetClassID@?$IPersistStreamInitImpl@VCOPOSGate@@@ATL@@UAGJPAU_GUID@@@Z 100133f0 f i Gate.obj
 0001:00012470       ?GetClassInfoExW@AtlModuleRegisterWndClassInfoParamW@ATL@@SAHPAUHINSTANCE__@@PB_WPAUtagWNDCLASSEXW@@@Z 10013470 f i Gate.obj
 0001:000124a0       ?GetClassInfoW@?$IProvideClassInfo2Impl@$1?CLSID_OPOSGate@@3U_GUID@@B$1?DIID__IOPOSGateEvents@@3U2@B$1?LIBID_OposGate_CCO@@3U2@B$00$0A@VCComTypeInfoHolder@ATL@@@ATL@@UAGJPAPAUITypeInfo@@@Z 100134a0 f i Gate.obj
 0001:000124c0       ?GetClassObject@CComModule@ATL@@QAEJABU_GUID@@0PAPAX@Z 100134c0 f i Gate.obj
 0001:000126c0       ?GetClientSite@?$IOleObjectImpl@VCOPOSGate@@@ATL@@UAGJPAPAUIOleClientSite@@@Z 100136c0 f i Gate.obj
 0001:00012750       ?GetClipboardData@?$IOleObjectImpl@VCOPOSGate@@@ATL@@UAGJKPAPAUIDataObject@@@Z 10013750 f i Gate.obj
 0001:000127c0       ?GetCodeAddress@CDynamicStdCallThunk2@ATL@@QAEPAXXZ 100137c0 f i Gate.obj
 0001:000127f0       ?GetColorSet@?$IViewObjectExImpl@VCOPOSGate@@@ATL@@UAGJKJPAXPAUtagDVTARGETDEVICE@@PAUHDC__@@PAPAUtagLOGPALETTE@@@Z 100137f0 f i Gate.obj
 0001:00012860       ?GetConnMap@COPOSGate@@SAPBU_ATL_CONNMAP_ENTRY@ATL@@PAH@Z 10013860 f i Gate.obj
 0001:000129a0       ?GetConnectionInterface@?$IConnectionPointImpl@VCOPOSGate@@$1?DIID__IOPOSGateEvents@@3U_GUID@@BVCComDynamicUnkArray@ATL@@@ATL@@UAGJPAU_GUID@@@Z 100139a0 f i Gate.obj
 0001:000129e0       ?GetConnectionInterface@?$IConnectionPointImpl@VCOPOSGate@@$1?IID_IPropertyNotifySink@@3U_GUID@@BVCComDynamicUnkArray@ATL@@@ATL@@UAGJPAU_GUID@@@Z 100139e0 f i Gate.obj
 0001:00012a20       ?GetConnectionPointContainer@?$IConnectionPointImpl@VCOPOSGate@@$1?DIID__IOPOSGateEvents@@3U_GUID@@BVCComDynamicUnkArray@ATL@@@ATL@@UAGJPAPAUIConnectionPointContainer@@@Z 10013a20 f i Gate.obj
 0001:00012a90       ?GetConnectionPointContainer@?$IConnectionPointImpl@VCOPOSGate@@$1?IID_IPropertyNotifySink@@3U_GUID@@BVCComDynamicUnkArray@ATL@@@ATL@@UAGJPAPAUIConnectionPointContainer@@@Z 10013a90 f i Gate.obj
 0001:00012b00       ?GetContentExtent@?$IQuickActivateImpl@VCOPOSGate@@@ATL@@UAGJPAUtagSIZE@@@Z 10013b00 f i Gate.obj
 0001:00012b90       ?GetControlInfo@?$IOleControlImpl@VCOPOSGate@@@ATL@@UAGJPAUtagCONTROLINFO@@@Z 10013b90 f i Gate.obj
 0001:00012c00       ?GetCookie@CComDynamicUnkArray@ATL@@QAGKPAPAUIUnknown@@@Z 10013c00 f i Gate.obj
 0001:00012cc0       ?GetData@?$IDataObjectImpl@VCOPOSGate@@@ATL@@UAGJPAUtagFORMATETC@@PAUtagSTGMEDIUM@@@Z 10013cc0 f i Gate.obj
 0001:00012d50       ?GetData@CAtlSafeAllocBufferNode@?$CAtlSafeAllocBufferManager@VCCRTAllocator@ATL@@@_ATL_SAFE_ALLOCA_IMPL@ATL@@QAEPAXXZ 10013d50 f i Gate.obj
 0001:00012d70       ?GetDataHere@?$IDataObjectImpl@VCOPOSGate@@@ATL@@UAGJPAUtagFORMATETC@@PAUtagSTGMEDIUM@@@Z 10013d70 f i Gate.obj
 0001:00012de0       ?GetDropTarget@?$IOleInPlaceObjectWindowlessImpl@VCOPOSGate@@@ATL@@UAGJPAPAUIDropTarget@@@Z 10013de0 f i Gate.obj
 0001:00012e50       ?GetExtent@?$IOleObjectImpl@VCOPOSGate@@@ATL@@UAGJKPAUtagSIZE@@@Z 10013e50 f i Gate.obj
 0001:00012ef0       ?GetExtent@?$IViewObjectExImpl@VCOPOSGate@@@ATL@@UAGJKJPAUtagDVTARGETDEVICE@@PAUtagSIZE@@@Z 10013ef0 f i Gate.obj
 0001:00012fc0       ?GetGITPtr@CAtlModule@ATL@@UAEJPAPAUIGlobalInterfaceTable@@@Z 10013fc0 f i Gate.obj
 0001:000130c0       ?GetGUID@?$IProvideClassInfo2Impl@$1?CLSID_OPOSGate@@3U_GUID@@B$1?DIID__IOPOSGateEvents@@3U2@B$1?LIBID_OposGate_CCO@@3U2@B$00$0A@VCComTypeInfoHolder@ATL@@@ATL@@UAGJKPAU_GUID@@@Z 100140c0 f i Gate.obj
 0001:00013140       ?GetIDsOfNames@?$IDispatchImpl@UIOPOSGate@@$1?IID_IOPOSGate@@3U_GUID@@B$1?LIBID_OposGate_CCO@@3U3@B$00$0A@VCComTypeInfoHolder@ATL@@@ATL@@UAGJABU_GUID@@PAPA_WIKPAJ@Z 10014140 f i Gate.obj
 0001:00013170       ?GetIDsOfNames@CComTypeInfoHolder@ATL@@QAEJABU_GUID@@PAPA_WIKPAJ@Z 10014170 f i Gate.obj
 0001:00013320       ?GetInterfaceSafetyOptions@?$IObjectSafetyImpl@VCOPOSGate@@$02@ATL@@UAGJABU_GUID@@PAK1@Z 10014320 f i Gate.obj
 0001:00013490       ?GetKeyAt@?$CSimpleMap@PA_WPA_WVCExpansionVectorEqualHelper@ATL@@@ATL@@QBEAAPA_WH@Z 10014490 f i Gate.obj
 0001:00013510       ?GetLockCount@CAtlModule@ATL@@UAEJXZ 10014510 f i Gate.obj
 0001:00013530       ?GetMiscStatus@?$IOleObjectImpl@VCOPOSGate@@@ATL@@UAGJKPAK@Z 10014530 f i Gate.obj
 0001:000135a0       ?GetMoniker@?$IOleObjectImpl@VCOPOSGate@@@ATL@@UAGJKKPAPAUIMoniker@@@Z 100145a0 f i Gate.obj
 0001:00013610       ?GetNaturalExtent@?$IViewObjectExImpl@VCOPOSGate@@@ATL@@UAGJKJPAUtagDVTARGETDEVICE@@PAUHDC__@@PAUtagExtentInfo@@PAUtagSIZE@@@Z 10014610 f i Gate.obj
 0001:00013730       ?GetObjectCLSID@?$CComCoClass@VCOPOSGate@@$1?CLSID_OPOSGate@@3U_GUID@@B@ATL@@SGABU_GUID@@XZ 10014730 f i Gate.obj
 0001:00013740       ?GetPages@?$ISpecifyPropertyPagesImpl@VCOPOSGate@@@ATL@@UAGJPAUtagCAUUID@@@Z 10014740 f i Gate.obj
 0001:000137b0       ?GetPagesHelper@?$ISpecifyPropertyPagesImpl@VCOPOSGate@@@ATL@@IAEJPAUtagCAUUID@@PBUATL_PROPMAP_ENTRY@2@@Z 100147b0 f i Gate.obj
 0001:000139b0       ?GetProperty@?$CComPtr@UIDispatch@@@ATL@@QAEJJPAUtagVARIANT@@@Z 100149b0 f i Gate.obj
 0001:000139f0       ?GetProperty@?$CComPtr@UIDispatch@@@ATL@@SAJPAUIDispatch@@JPAUtagVARIANT@@@Z 100149f0 f i Gate.obj
 0001:00013b50       ?GetPropertyMap@COPOSGate@@SAPBUATL_PROPMAP_ENTRY@ATL@@XZ 10014b50 f i Gate.obj
 0001:00013b60       ?GetRect@?$IViewObjectExImpl@VCOPOSGate@@@ATL@@UAGJKPAU_RECTL@@@Z 10014b60 f i Gate.obj
 0001:00013bd0       ?GetSize@?$CSimpleMap@PA_WPA_WVCExpansionVectorEqualHelper@ATL@@@ATL@@QBEHXZ 10014bd0 f i Gate.obj
 0001:00013bf0       ?GetSize@CComDynamicUnkArray@ATL@@QBEHXZ 10014bf0 f i Gate.obj
 0001:00013c10       ?GetSizeMax@?$IPersistStreamInitImpl@VCOPOSGate@@@ATL@@UAGJPAT_ULARGE_INTEGER@@@Z 10014c10 f i Gate.obj
 0001:00014180       ?GetSizeMax@CComVariant@ATL@@QBEJPAT_ULARGE_INTEGER@@@Z 10015180 f i Gate.obj
 0001:000144e0       ?GetStreamSize@CComBSTR@ATL@@SAKPA_W@Z 100154e0 f i Gate.obj
 0001:00014530       ?GetTI@CComTypeInfoHolder@ATL@@QAEJK@Z 10015530 f i Gate.obj
 0001:00014d40       ?GetTI@CComTypeInfoHolder@ATL@@QAEJKPAPAUITypeInfo@@@Z 10015d40 f i Gate.obj
 0001:00014e00       ?GetTypeInfo@?$IDispatchImpl@UIOPOSGate@@$1?IID_IOPOSGate@@3U_GUID@@B$1?LIBID_OposGate_CCO@@3U3@B$00$0A@VCComTypeInfoHolder@ATL@@@ATL@@UAGJIKPAPAUITypeInfo@@@Z 10015e00 f i Gate.obj
 0001:00014e30       ?GetTypeInfo@CComTypeInfoHolder@ATL@@QAEJIKPAPAUITypeInfo@@@Z 10015e30 f i Gate.obj
 0001:00014e70       ?GetTypeInfoCount@?$IDispatchImpl@UIOPOSGate@@$1?IID_IOPOSGate@@3U_GUID@@B$1?LIBID_OposGate_CCO@@3U3@B$00$0A@VCComTypeInfoHolder@ATL@@@ATL@@UAGJPAI@Z 10015e70 f i Gate.obj
 0001:00014e90       ?GetUnknown@CComDynamicUnkArray@ATL@@QAGPAUIUnknown@@K@Z 10015e90 f i Gate.obj
 0001:00014f00       ?GetUnknown@COPOSGate@@QAEPAUIUnknown@@XZ 10015f00 f i Gate.obj
 0001:00014f30       ?GetUserClassID@?$IOleObjectImpl@VCOPOSGate@@@ATL@@UAGJPAU_GUID@@@Z 10015f30 f i Gate.obj
 0001:00014fe0       ?GetUserType@?$IOleObjectImpl@VCOPOSGate@@@ATL@@UAGJKPAPA_W@Z 10015fe0 f i Gate.obj
 0001:00015050       ?GetValueAt@?$CSimpleMap@PA_WPA_WVCExpansionVectorEqualHelper@ATL@@@ATL@@QBEAAPA_WH@Z 10016050 f i Gate.obj
 0001:000150d0       ?GetViewStatus@?$IViewObjectExImpl@VCOPOSGate@@@ATL@@UAGJPAK@Z 100160d0 f i Gate.obj
 0001:00015190       ?GetWNDPROC@CWndProcThunk@ATL@@QAEP6GJPAUHWND__@@IIJ@ZXZ 10016190 f i Gate.obj
 0001:000151c0       ?GetWindow@?$IOleInPlaceActiveObjectImpl@VCOPOSGate@@@ATL@@UAGJPAPAUHWND__@@@Z 100161c0 f i Gate.obj
 0001:00015290       ?GetWindow@?$IOleInPlaceObjectWindowlessImpl@VCOPOSGate@@@ATL@@UAGJPAPAUHWND__@@@Z 10016290 f i Gate.obj
 0001:00015360       ?GetWindowLongPtrW@@YAJPAUHWND__@@H@Z 10016360 f i Gate.obj
 0001:00015390       ?GetWindowProc@?$CWindowImplBaseT@VCWindow@ATL@@V?$CWinTraits@$0FGAAAAAA@$0A@@2@@ATL@@UAEP6GJPAUHWND__@@IIJ@ZXZ 10016390 f i Gate.obj
 0001:000153b0       ?GetWndCaption@?$CWindowImpl@VCOPOSGate@@VCWindow@ATL@@V?$CWinTraits@$0FGAAAAAA@$0A@@3@@ATL@@SAPB_WXZ 100163b0 f i Gate.obj
 0001:000153c0       ?GetWndClassInfo@?$CWindowImpl@VCOPOSGate@@VCWindow@ATL@@V?$CWinTraits@$0FGAAAAAA@$0A@@3@@ATL@@SAAAU_ATL_WNDCLASSINFOW@2@XZ 100163c0 f i Gate.obj
 0001:000153d0       ?GetWndClassName@CWindow@ATL@@SAPB_WXZ 100163d0 f i Gate.obj
 0001:000153e0       ?GetWndExStyle@?$CWinTraits@$0FGAAAAAA@$0A@@ATL@@SAKK@Z 100163e0 f i Gate.obj
 0001:00015410       ?GetWndExStyle@?$CWindowImplBaseT@VCWindow@ATL@@V?$CWinTraits@$0FGAAAAAA@$0A@@2@@ATL@@SAKK@Z 10016410 f i Gate.obj
 0001:00015430       ?GetWndStyle@?$CWinTraits@$0FGAAAAAA@$0A@@ATL@@SAKK@Z 10016430 f i Gate.obj
 0001:00015460       ?GetWndStyle@?$CWindowImplBaseT@VCWindow@ATL@@V?$CWinTraits@$0FGAAAAAA@$0A@@2@@ATL@@SAKK@Z 10016460 f i Gate.obj
 0001:00015480       ?GetZoomInfo@CComControlBase@ATL@@QAEXAAUATL_DRAWINFO@@@Z 10016480 f i Gate.obj
 0001:000155f0       ?HKeyFromString@CRegParser@ATL@@KAPAUHKEY__@@PA_W@Z 100165f0 f i Gate.obj
 0001:00015660       ?HandsOffStorage@?$IPersistStorageImpl@VCOPOSGate@@@ATL@@UAGJXZ 10016660 f i Gate.obj
 0001:000156c0       ?HasSubKeys@CRegParser@ATL@@IAEHPAUHKEY__@@@Z 100166c0 f i Gate.obj
 0001:000157d0       ?IDataObject_GetData@CComControlBase@ATL@@QAEJPAUtagFORMATETC@@PAUtagSTGMEDIUM@@@Z 100167d0 f i Gate.obj
 0001:00015bf0       ?IOleInPlaceObject_InPlaceDeactivate@CComControlBase@ATL@@QAEJXZ 10016bf0 f i Gate.obj
 0001:00015df0       ?IOleInPlaceObject_SetObjectRects@CComControlBase@ATL@@QAEJPBUtagRECT@@0@Z 10016df0 f i Gate.obj
 0001:00015fb0       ?IOleInPlaceObject_UIDeactivate@CComControlBase@ATL@@QAEJXZ 10016fb0 f i Gate.obj
 0001:00016220       ?IOleObject_Advise@CComControlBase@ATL@@QAEJPAUIAdviseSink@@PAK@Z 10017220 f i Gate.obj
 0001:000162d0       ?IOleObject_Close@CComControlBase@ATL@@QAEJK@Z 100172d0 f i Gate.obj
 0001:00016580       ?IOleObject_GetClientSite@CComControlBase@ATL@@QAEJPAPAUIOleClientSite@@@Z 10017580 f i Gate.obj
 0001:00016620       ?IOleObject_SetClientSite@CComControlBase@ATL@@QAEJPAUIOleClientSite@@@Z 10017620 f i Gate.obj
 0001:000166f0       ?IOleObject_SetExtent@CComControlBase@ATL@@QAEJKPAUtagSIZE@@@Z 100176f0 f i Gate.obj
 0001:00016830       ?IPSI_GetIPersistStreamInit@?$IPersistStorageImpl@VCOPOSGate@@@ATL@@AAEPAUIPersistStreamInit@@XZ 10017830 f i Gate.obj
 0001:00016900       ?IPersistStreamInit_Load@?$IPersistStreamInitImpl@VCOPOSGate@@@ATL@@QAEJPAUIStream@@PBUATL_PROPMAP_ENTRY@2@@Z 10017900 f i Gate.obj
 0001:00016980       ?IPersistStreamInit_Save@?$IPersistStreamInitImpl@VCOPOSGate@@@ATL@@QAEJPAUIStream@@HPBUATL_PROPMAP_ENTRY@2@@Z 10017980 f i Gate.obj
 0001:00016a10       ?IQuickActivate_QuickActivate@CComControlBase@ATL@@QAEJPAUtagQACONTAINER@@PAUtagQACONTROL@@@Z 10017a10 f i Gate.obj
 0001:00017060       ?IViewObject_Draw@CComControlBase@ATL@@QAEJKJPAXPAUtagDVTARGETDEVICE@@PAUHDC__@@2PBU_RECTL@@3@Z 10018060 f i Gate.obj
 0001:00017300       ?InPlaceActivate@CComControlBase@ATL@@QAEJJPBUtagRECT@@@Z 10018300 f i Gate.obj
 0001:00017c90       ?InPlaceDeactivate@?$IOleInPlaceObjectWindowlessImpl@VCOPOSGate@@@ATL@@UAGJXZ 10018c90 f i Gate.obj
 0001:00017d10       ?Increment@CComMultiThreadModel@ATL@@SGKPAJ@Z 10018d10 f i Gate.obj
 0001:00017d30       ?Increment@CComSingleThreadModel@ATL@@SGKPAJ@Z 10018d30 f i Gate.obj
 0001:00017d50       ?Init@?$CComEnumImpl@UIEnumConnectionPoints@@$1?_GUID_b196b285_bab4_101a_b69c_00aa00341d07@@3U__s_GUID@@BPAUIConnectionPoint@@V?$_CopyInterface@UIConnectionPoint@@@ATL@@@ATL@@QAEJPAPAUIConnectionPoint@@0PAUIUnknown@@W4CComEnumFlags@2@@Z 10018d50 f i Gate.obj
 0001:00017f30       ?Init@?$CComEnumImpl@UIEnumConnections@@$1?_GUID_b196b287_bab4_101a_b69c_00aa00341d07@@3U__s_GUID@@BUtagCONNECTDATA@@V?$_Copy@UtagCONNECTDATA@@@ATL@@@ATL@@QAEJPAUtagCONNECTDATA@@0PAUIUnknown@@W4CComEnumFlags@2@@Z 10018f30 f i Gate.obj
 0001:00018110       ?Init@CComFakeCriticalSection@ATL@@QAEJXZ 10019110 f i Gate.obj
 0001:00018130       ?Init@CComModule@ATL@@QAEJPAU_ATL_OBJMAP_ENTRY30@2@PAUHINSTANCE__@@PBU_GUID@@@Z 10019130 f i Gate.obj
 0001:00018220       ?Init@CComSafeDeleteCriticalSection@ATL@@QAEJXZ 10019220 f i Gate.obj
 0001:000182a0       ?Init@CDynamicStdCallThunk2@ATL@@QAEHKPAX@Z 100192a0 f i Gate.obj
 0001:00018300       ?Init@CWndProcThunk@ATL@@QAEHP6GJPAUHWND__@@IIJ@ZPAX@Z 10019300 f i Gate.obj
 0001:00018340       ?InitFromData@?$IOleObjectImpl@VCOPOSGate@@@ATL@@UAGJPAUIDataObject@@HK@Z 10019340 f i Gate.obj
 0001:000183b0       ?InitLibId@?$CAtlModuleT@VCComModule@ATL@@@ATL@@SAXXZ 100193b0 f i Gate.obj
 0001:000183c0       ?InitNew@?$IPersistStorageImpl@VCOPOSGate@@@ATL@@UAGJPAUIStorage@@@Z 100193c0 f i Gate.obj
 0001:000184b0       ?InitNew@?$IPersistStreamInitImpl@VCOPOSGate@@@ATL@@UAGJXZ 100194b0 f i Gate.obj
 0001:00018540       ?InlineIsEqualUnknown@ATL@@YGHABU_GUID@@@Z 10019540 f i Gate.obj
 0001:000185b0       ?InternalAddRef@?$CComObjectRootEx@VCComMultiThreadModel@ATL@@@ATL@@QAEKXZ 100195b0 f i Gate.obj
 0001:00018610       ?InternalAddRef@?$CComObjectRootEx@VCComSingleThreadModel@ATL@@@ATL@@QAEKXZ 10019610 f i Gate.obj
 0001:00018670       ?InternalFinalConstructAddRef@CComObjectRootBase@ATL@@QAEXXZ 10019670 f i Gate.obj
 0001:00018690       ?InternalFinalConstructAddRef@COPOSGate@@QAEXXZ 10019690 f i Gate.obj
 0001:000186c0       ?InternalFinalConstructRelease@CComObjectRootBase@ATL@@QAEXXZ 100196c0 f i Gate.obj
 0001:00018710       ?InternalFinalConstructRelease@COPOSGate@@QAEXXZ 10019710 f i Gate.obj
 0001:00018740       ?InternalGetSite@CComControlBase@ATL@@QAEJABU_GUID@@PAPAX@Z 10019740 f i Gate.obj
 0001:00018800       ?InternalQueryInterface@CComObjectRootBase@ATL@@SGJPAXPBU_ATL_INTMAP_ENTRY@2@ABU_GUID@@PAPAX@Z 10019800 f i Gate.obj
 0001:000188c0       ?InternalRelease@?$CComObjectRootEx@VCComMultiThreadModel@ATL@@@ATL@@QAEKXZ 100198c0 f i Gate.obj
 0001:00018930       ?InternalRelease@?$CComObjectRootEx@VCComSingleThreadModel@ATL@@@ATL@@QAEKXZ 10019930 f i Gate.obj
 0001:000189a0       ?InternalSetAtIndex@?$CSimpleArray@GV?$CSimpleArrayEqualHelper@G@ATL@@@ATL@@QAEXHABG@Z 100199a0 f i Gate.obj
 0001:00018a10       ?InternalSetAtIndex@?$CSimpleMap@PA_WPA_WVCExpansionVectorEqualHelper@ATL@@@ATL@@QAEXHABQA_W0@Z 10019a10 f i Gate.obj
 0001:00018ab0       ?Invoke@?$IDispatchImpl@UIOPOSGate@@$1?IID_IOPOSGate@@3U_GUID@@B$1?LIBID_OposGate_CCO@@3U3@B$00$0A@VCComTypeInfoHolder@ATL@@@ATL@@UAGJJABU_GUID@@KGPAUtagDISPPARAMS@@PAUtagVARIANT@@PAUtagEXCEPINFO@@PAI@Z 10019ab0 f i Gate.obj
 0001:00018af0       ?Invoke@CComTypeInfoHolder@ATL@@QAEJPAUIDispatch@@JABU_GUID@@KGPAUtagDISPPARAMS@@PAUtagVARIANT@@PAUtagEXCEPINFO@@PAI@Z 10019af0 f i Gate.obj
 0001:00018b80       ?IsDirty@?$IPersistStorageImpl@VCOPOSGate@@@ATL@@UAGJXZ 10019b80 f i Gate.obj
 0001:00018c70       ?IsDirty@?$IPersistStreamInitImpl@VCOPOSGate@@@ATL@@UAGJXZ 10019c70 f i Gate.obj
 0001:00018d10       ?IsEqualKey@CExpansionVectorEqualHelper@ATL@@SA_NQA_W0@Z 10019d10 f i Gate.obj
 0001:00018d40       ?IsEqualObject@?$CComPtrBase@UIOleClientSite@@@ATL@@QAE_NPAUIUnknown@@@Z 10019d40 f i Gate.obj
 0001:00018e70       ?IsEqualObject@?$CComPtrBase@UITypeInfo@@@ATL@@QAE_NPAUIUnknown@@@Z 10019e70 f i Gate.obj
 0001:00018fa0       ?IsSpace@CRegParser@ATL@@IAEH_W@Z 10019fa0 f i Gate.obj
 0001:00019010       ?IsUpToDate@?$IOleObjectImpl@VCOPOSGate@@@ATL@@UAGJXZ 1001a010 f i Gate.obj
 0001:00019070       ?Length@CComBSTR@ATL@@QBEIXZ 1001a070 f i Gate.obj
 0001:000190b0       ?Load@?$IPersistStorageImpl@VCOPOSGate@@@ATL@@UAGJPAUIStorage@@@Z 1001a0b0 f i Gate.obj
 0001:00019210       ?Load@?$IPersistStreamInitImpl@VCOPOSGate@@@ATL@@UAGJPAUIStream@@@Z 1001a210 f i Gate.obj
 0001:000192a0       ?LoadCursorW@AtlModuleRegisterWndClassInfoParamW@ATL@@SAPAUHICON__@@PAUHINSTANCE__@@PB_W@Z 1001a2a0 f i Gate.obj
 0001:000192d0       ?LoadNameCache@CComTypeInfoHolder@ATL@@QAEJPAUITypeInfo@@@Z 1001a2d0 f i Gate.obj
 0001:00019560       ?Lock@?$CComCritSecLock@VCComCriticalSection@ATL@@@ATL@@QAEJXZ 1001a560 f i Gate.obj
 0001:00019610       ?Lock@?$CComObjectRootEx@VCComSingleThreadModel@ATL@@@ATL@@QAEXXZ 1001a610 f i Gate.obj
 0001:00019630       ?Lock@CAtlModule@ATL@@UAEJXZ 1001a630 f i Gate.obj
 0001:00019660       ?Lock@CComCriticalSection@ATL@@QAEJXZ 1001a660 f i Gate.obj
 0001:000196a0       ?Lock@CComFakeCriticalSection@ATL@@QAEJXZ 1001a6a0 f i Gate.obj
 0001:000196c0       ?LockServer@CComClassFactory@ATL@@UAGJH@Z 1001a6c0 f i Gate.obj
 0001:00019720       ?Lookup@?$CSimpleMap@PA_WPA_WVCExpansionVectorEqualHelper@ATL@@@ATL@@QBEPA_WABQA_W@Z 1001a720 f i Gate.obj
 0001:00019770       ?Next@?$CComEnumImpl@UIEnumConnectionPoints@@$1?_GUID_b196b285_bab4_101a_b69c_00aa00341d07@@3U__s_GUID@@BPAUIConnectionPoint@@V?$_CopyInterface@UIConnectionPoint@@@ATL@@@ATL@@UAGJKPAPAUIConnectionPoint@@PAK@Z 1001a770 f i Gate.obj
 0001:000198e0       ?Next@?$CComEnumImpl@UIEnumConnections@@$1?_GUID_b196b287_bab4_101a_b69c_00aa00341d07@@3U__s_GUID@@BUtagCONNECTDATA@@V?$_Copy@UtagCONNECTDATA@@@ATL@@@ATL@@UAGJKPAUtagCONNECTDATA@@PAK@Z 1001a8e0 f i Gate.obj
 0001:00019a50       ?NextToken@CRegParser@ATL@@IAEJPA_W@Z 1001aa50 f i Gate.obj
 0001:00019cf0       ?OLE2CT_EX@@YAPB_WPB_WI@Z  1001acf0 f i Gate.obj
 0001:00019d00       ?OLE2CT_EX_DEF@@YAPB_WPB_W@Z 1001ad00 f i Gate.obj
 0001:00019d10       ?OLE2T_EX@@YAPA_WPA_WI@Z   1001ad10 f i Gate.obj
 0001:00019d20       ?OnAmbientPropertyChange@?$IOleControlImpl@VCOPOSGate@@@ATL@@UAGJJ@Z 1001ad20 f i Gate.obj
 0001:00019db0       ?OnDocWindowActivate@?$IOleInPlaceActiveObjectImpl@VCOPOSGate@@@ATL@@UAGJH@Z 1001adb0 f i Gate.obj
 0001:00019e40       ?OnDrawAdvanced@CComControlBase@ATL@@UAEJAAUATL_DRAWINFO@@@Z 1001ae40 f i Gate.obj
 0001:0001a060       ?OnFinalMessage@?$CWindowImplBaseT@VCWindow@ATL@@V?$CWinTraits@$0FGAAAAAA@$0A@@2@@ATL@@UAEXPAUHWND__@@@Z 1001b060 f i Gate.obj
 0001:0001a080       ?OnFrameWindowActivate@?$IOleInPlaceActiveObjectImpl@VCOPOSGate@@@ATL@@UAGJH@Z 1001b080 f i Gate.obj
 0001:0001a0e0       ?OnKillFocus@CComControlBase@ATL@@QAEJIIJAAH@Z 1001b0e0 f i Gate.obj
 0001:0001a1e0       ?OnMnemonic@?$IOleControlImpl@VCOPOSGate@@@ATL@@UAGJPAUtagMSG@@@Z 1001b1e0 f i Gate.obj
 0001:0001a250       ?OnMouseActivate@CComControlBase@ATL@@QAEJIIJAAH@Z 1001b250 f i Gate.obj
 0001:0001a3a0       ?OnPaint@CComControlBase@ATL@@QAEJIIJAAH@Z 1001b3a0 f i Gate.obj
 0001:0001a520       ?OnPostVerbDiscardUndo@?$IOleObjectImpl@VCOPOSGate@@@ATL@@QAEJXZ 1001b520 f i Gate.obj
 0001:0001a540       ?OnPostVerbHide@?$IOleObjectImpl@VCOPOSGate@@@ATL@@QAEJXZ 1001b540 f i Gate.obj
 0001:0001a560       ?OnPostVerbInPlaceActivate@?$IOleObjectImpl@VCOPOSGate@@@ATL@@QAEJXZ 1001b560 f i Gate.obj
 0001:0001a580       ?OnPostVerbOpen@?$IOleObjectImpl@VCOPOSGate@@@ATL@@QAEJXZ 1001b580 f i Gate.obj
 0001:0001a5a0       ?OnPostVerbShow@?$IOleObjectImpl@VCOPOSGate@@@ATL@@QAEJXZ 1001b5a0 f i Gate.obj
 0001:0001a5c0       ?OnPostVerbUIActivate@?$IOleObjectImpl@VCOPOSGate@@@ATL@@QAEJXZ 1001b5c0 f i Gate.obj
 0001:0001a5e0       ?OnPreVerbDiscardUndo@?$IOleObjectImpl@VCOPOSGate@@@ATL@@QAEJXZ 1001b5e0 f i Gate.obj
 0001:0001a600       ?OnPreVerbHide@?$IOleObjectImpl@VCOPOSGate@@@ATL@@QAEJXZ 1001b600 f i Gate.obj
 0001:0001a620       ?OnPreVerbInPlaceActivate@?$IOleObjectImpl@VCOPOSGate@@@ATL@@QAEJXZ 1001b620 f i Gate.obj
 0001:0001a640       ?OnPreVerbOpen@?$IOleObjectImpl@VCOPOSGate@@@ATL@@QAEJXZ 1001b640 f i Gate.obj
 0001:0001a660       ?OnPreVerbShow@?$IOleObjectImpl@VCOPOSGate@@@ATL@@QAEJXZ 1001b660 f i Gate.obj
 0001:0001a680       ?OnPreVerbUIActivate@?$IOleObjectImpl@VCOPOSGate@@@ATL@@QAEJXZ 1001b680 f i Gate.obj
 0001:0001a6a0       ?OnSetFocus@CComControlBase@ATL@@QAEJIIJAAH@Z 1001b6a0 f i Gate.obj
 0001:0001a830       ?OnWindowMessage@?$IOleInPlaceObjectWindowlessImpl@VCOPOSGate@@@ATL@@UAGJIIJPAJ@Z 1001b830 f i Gate.obj
 0001:0001a990       ?Open@CRegKey@ATL@@QAEJPAUHKEY__@@PB_WK@Z 1001b990 f i Gate.obj
 0001:0001aae0       ?OuterAddRef@CComObjectRootBase@ATL@@QAEKXZ 1001bae0 f i Gate.obj
 0001:0001ab20       ?OuterQueryInterface@CComObjectRootBase@ATL@@QAEJABU_GUID@@PAPAX@Z 1001bb20 f i Gate.obj
 0001:0001ab70       ?OuterRelease@CComObjectRootBase@ATL@@QAEKXZ 1001bb70 f i Gate.obj
 0001:0001abb0       ?PreProcessBuffer@CRegParser@ATL@@QAEJPA_WPAPA_W@Z 1001bbb0 f i Gate.obj
 0001:0001b0f0       ?PreTranslateAccelerator@CComControlBase@ATL@@QAEHPAUtagMSG@@AAJ@Z 1001c0f0 f i Gate.obj
 0001:0001b110       ?ProcessWindowMessage@?$CComControl@VCOPOSGate@@V?$CWindowImpl@VCOPOSGate@@VCWindow@ATL@@V?$CWinTraits@$0FGAAAAAA@$0A@@3@@ATL@@@ATL@@UAEHPAUHWND__@@IIJAAJK@Z 1001c110 f i Gate.obj
 0001:0001b2e0       ?ProcessWindowMessage@COPOSGate@@UAEHPAUHWND__@@IIJAAJK@Z 1001c2e0 f i Gate.obj
 0001:0001b3e0       ?PutProperty@?$CComPtr@UIDispatch@@@ATL@@QAEJJPAUtagVARIANT@@@Z 1001c3e0 f i Gate.obj
 0001:0001b420       ?PutProperty@?$CComPtr@UIDispatch@@@ATL@@SAJPAUIDispatch@@JPAUtagVARIANT@@@Z 1001c420 f i Gate.obj
 0001:0001b610       ?QueryGetData@?$IDataObjectImpl@VCOPOSGate@@@ATL@@UAGJPAUtagFORMATETC@@@Z 1001c610 f i Gate.obj
 0001:0001b680       ?QueryHitPoint@?$IViewObjectExImpl@VCOPOSGate@@@ATL@@UAGJKPBUtagRECT@@UtagPOINT@@JPAK@Z 1001c680 f i Gate.obj
 0001:0001b790       ?QueryHitRect@?$IViewObjectExImpl@VCOPOSGate@@@ATL@@UAGJKPBUtagRECT@@0JPAK@Z 1001c790 f i Gate.obj
 0001:0001b8e0       ?QueryInterface@?$CComAggObject@VCOPOSGate@@@ATL@@UAGJABU_GUID@@PAPAX@Z 1001c8e0 f i Gate.obj
 0001:0001b990       ?QueryInterface@?$CComContainedObject@VCOPOSGate@@@ATL@@UAGJABU_GUID@@PAPAX@Z 1001c990 f i Gate.obj
 0001:0001b9b4       ?QueryInterface@?$CComContainedObject@VCOPOSGate@@@ATL@@WHA@AGJABU_GUID@@PAPAX@Z 1001c9b4 f i Gate.obj
 0001:0001b9be       ?QueryInterface@?$CComContainedObject@VCOPOSGate@@@ATL@@WHE@AGJABU_GUID@@PAPAX@Z 1001c9be f i Gate.obj
 0001:0001b9c8       ?QueryInterface@?$CComContainedObject@VCOPOSGate@@@ATL@@WHI@AGJABU_GUID@@PAPAX@Z 1001c9c8 f i Gate.obj
 0001:0001b9d2       ?QueryInterface@?$CComContainedObject@VCOPOSGate@@@ATL@@WHM@AGJABU_GUID@@PAPAX@Z 1001c9d2 f i Gate.obj
 0001:0001b9dc       ?QueryInterface@?$CComContainedObject@VCOPOSGate@@@ATL@@WIA@AGJABU_GUID@@PAPAX@Z 1001c9dc f i Gate.obj
 0001:0001b9e9       ?QueryInterface@?$CComContainedObject@VCOPOSGate@@@ATL@@WIE@AGJABU_GUID@@PAPAX@Z 1001c9e9 f i Gate.obj
 0001:0001b9f6       ?QueryInterface@?$CComContainedObject@VCOPOSGate@@@ATL@@WII@AGJABU_GUID@@PAPAX@Z 1001c9f6 f i Gate.obj
 0001:0001ba03       ?QueryInterface@?$CComContainedObject@VCOPOSGate@@@ATL@@WIM@AGJABU_GUID@@PAPAX@Z 1001ca03 f i Gate.obj
 0001:0001ba10       ?QueryInterface@?$CComContainedObject@VCOPOSGate@@@ATL@@WJA@AGJABU_GUID@@PAPAX@Z 1001ca10 f i Gate.obj
 0001:0001ba1d       ?QueryInterface@?$CComContainedObject@VCOPOSGate@@@ATL@@WJE@AGJABU_GUID@@PAPAX@Z 1001ca1d f i Gate.obj
 0001:0001ba2a       ?QueryInterface@?$CComContainedObject@VCOPOSGate@@@ATL@@WJI@AGJABU_GUID@@PAPAX@Z 1001ca2a f i Gate.obj
 0001:0001ba37       ?QueryInterface@?$CComContainedObject@VCOPOSGate@@@ATL@@WJM@AGJABU_GUID@@PAPAX@Z 1001ca37 f i Gate.obj
 0001:0001ba44       ?QueryInterface@?$CComContainedObject@VCOPOSGate@@@ATL@@WKA@AGJABU_GUID@@PAPAX@Z 1001ca44 f i Gate.obj
 0001:0001ba60       ?QueryInterface@?$CComObject@V?$CComEnum@UIEnumConnectionPoints@@$1?_GUID_b196b285_bab4_101a_b69c_00aa00341d07@@3U__s_GUID@@BPAUIConnectionPoint@@V?$_CopyInterface@UIConnectionPoint@@@ATL@@VCComSingleThreadModel@6@@ATL@@@ATL@@UAGJABU_GUID@@PAPAX@Z 1001ca60 f i Gate.obj
 0001:0001ba80       ?QueryInterface@?$CComObject@V?$CComEnum@UIEnumConnections@@$1?_GUID_b196b287_bab4_101a_b69c_00aa00341d07@@3U__s_GUID@@BUtagCONNECTDATA@@V?$_Copy@UtagCONNECTDATA@@@ATL@@VCComSingleThreadModel@6@@ATL@@@ATL@@UAGJABU_GUID@@PAPAX@Z 1001ca80 f i Gate.obj
 0001:0001baa0       ?QueryInterface@?$CComObject@VCOPOSGate@@@ATL@@UAGJABU_GUID@@PAPAX@Z 1001caa0 f i Gate.obj
 0001:0001babe       ?QueryInterface@?$CComObject@VCOPOSGate@@@ATL@@WHA@AGJABU_GUID@@PAPAX@Z 1001cabe f i Gate.obj
 0001:0001bac8       ?QueryInterface@?$CComObject@VCOPOSGate@@@ATL@@WHE@AGJABU_GUID@@PAPAX@Z 1001cac8 f i Gate.obj
 0001:0001bad2       ?QueryInterface@?$CComObject@VCOPOSGate@@@ATL@@WHI@AGJABU_GUID@@PAPAX@Z 1001cad2 f i Gate.obj
 0001:0001badc       ?QueryInterface@?$CComObject@VCOPOSGate@@@ATL@@WHM@AGJABU_GUID@@PAPAX@Z 1001cadc f i Gate.obj
 0001:0001bae6       ?QueryInterface@?$CComObject@VCOPOSGate@@@ATL@@WIA@AGJABU_GUID@@PAPAX@Z 1001cae6 f i Gate.obj
 0001:0001baf3       ?QueryInterface@?$CComObject@VCOPOSGate@@@ATL@@WIE@AGJABU_GUID@@PAPAX@Z 1001caf3 f i Gate.obj
 0001:0001bb00       ?QueryInterface@?$CComObject@VCOPOSGate@@@ATL@@WII@AGJABU_GUID@@PAPAX@Z 1001cb00 f i Gate.obj
 0001:0001bb0d       ?QueryInterface@?$CComObject@VCOPOSGate@@@ATL@@WIM@AGJABU_GUID@@PAPAX@Z 1001cb0d f i Gate.obj
 0001:0001bb1a       ?QueryInterface@?$CComObject@VCOPOSGate@@@ATL@@WJA@AGJABU_GUID@@PAPAX@Z 1001cb1a f i Gate.obj
 0001:0001bb27       ?QueryInterface@?$CComObject@VCOPOSGate@@@ATL@@WJE@AGJABU_GUID@@PAPAX@Z 1001cb27 f i Gate.obj
 0001:0001bb34       ?QueryInterface@?$CComObject@VCOPOSGate@@@ATL@@WJI@AGJABU_GUID@@PAPAX@Z 1001cb34 f i Gate.obj
 0001:0001bb41       ?QueryInterface@?$CComObject@VCOPOSGate@@@ATL@@WJM@AGJABU_GUID@@PAPAX@Z 1001cb41 f i Gate.obj
 0001:0001bb4e       ?QueryInterface@?$CComObject@VCOPOSGate@@@ATL@@WKA@AGJABU_GUID@@PAPAX@Z 1001cb4e f i Gate.obj
 0001:0001bb60       ?QueryInterface@?$CComObjectCached@VCComClassFactory@ATL@@@ATL@@UAGJABU_GUID@@PAPAX@Z 1001cb60 f i Gate.obj
 0001:0001bb80       ?QueryInterface@CRegObject@ATL@@UAGJABU_GUID@@PAPAX@Z 1001cb80 f i Gate.obj
 0001:0001bbd0       ?QuickActivate@?$IQuickActivateImpl@VCOPOSGate@@@ATL@@UAGJPAUtagQACONTAINER@@PAUtagQACONTROL@@@Z 1001cbd0 f i Gate.obj
 0001:0001bc60       ?ReactivateAndUndo@?$IOleInPlaceObjectWindowlessImpl@VCOPOSGate@@@ATL@@UAGJXZ 1001cc60 f i Gate.obj
 0001:0001bcd0       ?ReadFromStream@CComBSTR@ATL@@QAEJPAUIStream@@@Z 1001ccd0 f i Gate.obj
 0001:0001c0d0       ?ReadFromStream@CComVariant@ATL@@QAEJPAUIStream@@GTClassesAllowedInStream@2@K@Z 1001d0d0 f i Gate.obj
 0001:0001c430       ?RecurseDeleteKey@CRegKey@ATL@@QAEJPB_W@Z 1001d430 f i Gate.obj
 0001:0001c610       ?RegCreateKeyExW@CAtlTransactionManager@ATL@@QAEJPAUHKEY__@@PB_WKPA_WKKQAU_SECURITY_ATTRIBUTES@@PAPAU3@PAK@Z 1001d610 f i Gate.obj
 0001:0001c740       ?RegDeleteKeyW@CAtlTransactionManager@ATL@@QAEJPAUHKEY__@@PB_W@Z 1001d740 f i Gate.obj
 0001:0001c840       ?RegOpenKeyExW@CAtlTransactionManager@ATL@@QAEJPAUHKEY__@@PB_WKKPAPAU3@@Z 1001d840 f i Gate.obj
 0001:0001c950       ?Register@_ATL_WNDCLASSINFOW@ATL@@QAEGPAP6GJPAUHWND__@@IIJ@Z@Z 1001d950 f i Gate.obj
 0001:0001c990       ?RegisterBuffer@CRegParser@ATL@@QAEJPA_WH@Z 1001d990 f i Gate.obj
 0001:0001ccc0       ?RegisterClassExW@AtlModuleRegisterWndClassInfoParamW@ATL@@SAGPAU_ATL_WIN_MODULE70@2@PBUtagWNDCLASSEXW@@@Z 1001dcc0 f i Gate.obj
 0001:0001cce0       ?RegisterFromResource@CRegObject@ATL@@IAEJPB_W00H@Z 1001dce0 f i Gate.obj
 0001:0001d070       ?RegisterServer@?$CAtlModuleT@VCComModule@ATL@@@ATL@@QAEJHPBU_GUID@@@Z 1001e070 f i Gate.obj
 0001:0001d0f0       ?RegisterServer@CAtlComModule@ATL@@QAEJHPBU_GUID@@@Z 1001e0f0 f i Gate.obj
 0001:0001d120       ?RegisterServer@CComModule@ATL@@QAEJHPBU_GUID@@@Z 1001e120 f i Gate.obj
 0001:0001d200       ?RegisterSubkeys@CRegParser@ATL@@IAEJPA_WPAUHKEY__@@HH@Z 1001e200 f i Gate.obj
 0001:0001dd20       ?Release@?$CComAggObject@VCOPOSGate@@@ATL@@UAGKXZ 1001ed20 f i Gate.obj
 0001:0001dde0       ?Release@?$CComContainedObject@VCOPOSGate@@@ATL@@UAGKXZ 1001ede0 f i Gate.obj
 0001:0001ddfc       ?Release@?$CComContainedObject@VCOPOSGate@@@ATL@@WHA@AGKXZ 1001edfc f i Gate.obj
 0001:0001de06       ?Release@?$CComContainedObject@VCOPOSGate@@@ATL@@WHE@AGKXZ 1001ee06 f i Gate.obj
 0001:0001de10       ?Release@?$CComContainedObject@VCOPOSGate@@@ATL@@WHI@AGKXZ 1001ee10 f i Gate.obj
 0001:0001de1a       ?Release@?$CComContainedObject@VCOPOSGate@@@ATL@@WHM@AGKXZ 1001ee1a f i Gate.obj
 0001:0001de24       ?Release@?$CComContainedObject@VCOPOSGate@@@ATL@@WIA@AGKXZ 1001ee24 f i Gate.obj
 0001:0001de31       ?Release@?$CComContainedObject@VCOPOSGate@@@ATL@@WIE@AGKXZ 1001ee31 f i Gate.obj
 0001:0001de3e       ?Release@?$CComContainedObject@VCOPOSGate@@@ATL@@WII@AGKXZ 1001ee3e f i Gate.obj
 0001:0001de4b       ?Release@?$CComContainedObject@VCOPOSGate@@@ATL@@WIM@AGKXZ 1001ee4b f i Gate.obj
 0001:0001de58       ?Release@?$CComContainedObject@VCOPOSGate@@@ATL@@WJA@AGKXZ 1001ee58 f i Gate.obj
 0001:0001de65       ?Release@?$CComContainedObject@VCOPOSGate@@@ATL@@WJE@AGKXZ 1001ee65 f i Gate.obj
 0001:0001de72       ?Release@?$CComContainedObject@VCOPOSGate@@@ATL@@WJI@AGKXZ 1001ee72 f i Gate.obj
 0001:0001de7f       ?Release@?$CComContainedObject@VCOPOSGate@@@ATL@@WJM@AGKXZ 1001ee7f f i Gate.obj
 0001:0001de8c       ?Release@?$CComContainedObject@VCOPOSGate@@@ATL@@WKA@AGKXZ 1001ee8c f i Gate.obj
 0001:0001de99       ?Release@?$CComContainedObject@VCOPOSGate@@@ATL@@WKI@AGKXZ 1001ee99 f i Gate.obj
 0001:0001dea6       ?Release@?$CComContainedObject@VCOPOSGate@@@ATL@@WLE@AGKXZ 1001eea6 f i Gate.obj
 0001:0001dec0       ?Release@?$CComObject@V?$CComEnum@UIEnumConnectionPoints@@$1?_GUID_b196b285_bab4_101a_b69c_00aa00341d07@@3U__s_GUID@@BPAUIConnectionPoint@@V?$_CopyInterface@UIConnectionPoint@@@ATL@@VCComSingleThreadModel@6@@ATL@@@ATL@@UAGKXZ 1001eec0 f i Gate.obj
 0001:0001df80       ?Release@?$CComObject@V?$CComEnum@UIEnumConnections@@$1?_GUID_b196b287_bab4_101a_b69c_00aa00341d07@@3U__s_GUID@@BUtagCONNECTDATA@@V?$_Copy@UtagCONNECTDATA@@@ATL@@VCComSingleThreadModel@6@@ATL@@@ATL@@UAGKXZ 1001ef80 f i Gate.obj
 0001:0001e040       ?Release@?$CComObject@VCOPOSGate@@@ATL@@UAGKXZ 1001f040 f i Gate.obj
 0001:0001e0f9       ?Release@?$CComObject@VCOPOSGate@@@ATL@@WHA@AGKXZ 1001f0f9 f i Gate.obj
 0001:0001e103       ?Release@?$CComObject@VCOPOSGate@@@ATL@@WHE@AGKXZ 1001f103 f i Gate.obj
 0001:0001e10d       ?Release@?$CComObject@VCOPOSGate@@@ATL@@WHI@AGKXZ 1001f10d f i Gate.obj
 0001:0001e117       ?Release@?$CComObject@VCOPOSGate@@@ATL@@WHM@AGKXZ 1001f117 f i Gate.obj
 0001:0001e121       ?Release@?$CComObject@VCOPOSGate@@@ATL@@WIA@AGKXZ 1001f121 f i Gate.obj
 0001:0001e12e       ?Release@?$CComObject@VCOPOSGate@@@ATL@@WIE@AGKXZ 1001f12e f i Gate.obj
 0001:0001e13b       ?Release@?$CComObject@VCOPOSGate@@@ATL@@WII@AGKXZ 1001f13b f i Gate.obj
 0001:0001e148       ?Release@?$CComObject@VCOPOSGate@@@ATL@@WIM@AGKXZ 1001f148 f i Gate.obj
 0001:0001e155       ?Release@?$CComObject@VCOPOSGate@@@ATL@@WJA@AGKXZ 1001f155 f i Gate.obj
 0001:0001e162       ?Release@?$CComObject@VCOPOSGate@@@ATL@@WJE@AGKXZ 1001f162 f i Gate.obj
 0001:0001e16f       ?Release@?$CComObject@VCOPOSGate@@@ATL@@WJI@AGKXZ 1001f16f f i Gate.obj
 0001:0001e17c       ?Release@?$CComObject@VCOPOSGate@@@ATL@@WJM@AGKXZ 1001f17c f i Gate.obj
 0001:0001e189       ?Release@?$CComObject@VCOPOSGate@@@ATL@@WKA@AGKXZ 1001f189 f i Gate.obj
 0001:0001e196       ?Release@?$CComObject@VCOPOSGate@@@ATL@@WKI@AGKXZ 1001f196 f i Gate.obj
 0001:0001e1a3       ?Release@?$CComObject@VCOPOSGate@@@ATL@@WLE@AGKXZ 1001f1a3 f i Gate.obj
 0001:0001e1b0       ?Release@?$CComObjectCached@VCComClassFactory@ATL@@@ATL@@UAGKXZ 1001f1b0 f i Gate.obj
 0001:0001e250       ?Release@?$CComPtrBase@UIAdviseSink@@@ATL@@QAEXXZ 1001f250 f i Gate.obj
 0001:0001e2b0       ?Release@?$CComPtrBase@UIDispatch@@@ATL@@QAEXXZ 1001f2b0 f i Gate.obj
 0001:0001e310       ?Release@?$CComPtrBase@UIOleInPlaceSiteWindowless@@@ATL@@QAEXXZ 1001f310 f i Gate.obj
 0001:0001e370       ?Release@CRegObject@ATL@@UAGKXZ 1001f370 f i Gate.obj
 0001:0001e3b0       ?Remove@CComDynamicUnkArray@ATL@@QAEHK@Z 1001f3b0 f i Gate.obj
 0001:0001e460       ?RemoveAll@?$CSimpleMap@PA_WPA_WVCExpansionVectorEqualHelper@ATL@@@ATL@@QAEXXZ 1001f460 f i Gate.obj
 0001:0001e4f0       ?Reset@?$CComEnumImpl@UIEnumConnectionPoints@@$1?_GUID_b196b285_bab4_101a_b69c_00aa00341d07@@3U__s_GUID@@BPAUIConnectionPoint@@V?$_CopyInterface@UIConnectionPoint@@@ATL@@@ATL@@UAGJXZ 1001f4f0 f i Gate.obj
 0001:0001e510       ?Reset@?$CComEnumImpl@UIEnumConnections@@$1?_GUID_b196b287_bab4_101a_b69c_00aa00341d07@@3U__s_GUID@@BUtagCONNECTDATA@@V?$_Copy@UtagCONNECTDATA@@@ATL@@@ATL@@UAGJXZ 1001f510 f i Gate.obj
 0001:0001e530       ?ResizeBorder@?$IOleInPlaceActiveObjectImpl@VCOPOSGate@@@ATL@@UAGJPBUtagRECT@@PAUIOleInPlaceUIWindow@@H@Z 1001f530 f i Gate.obj
 0001:0001e590       ?ResourceRegister@CRegObject@ATL@@QAGJPB_WI0@Z 1001f590 f i Gate.obj
 0001:0001e670       ?ResourceRegisterSz@CRegObject@ATL@@QAGJPB_W00@Z 1001f670 f i Gate.obj
 0001:0001e770       ?ResourceUnregister@CRegObject@ATL@@QAGJPB_WI0@Z 1001f770 f i Gate.obj
 0001:0001e850       ?ResourceUnregisterSz@CRegObject@ATL@@QAGJPB_W00@Z 1001f850 f i Gate.obj
 0001:0001e950       ?SODataDummy@COPOSGate@@MAGJJ@Z 1001f950 f i Gate.obj
 0001:0001e960       ?SODirectIO@COPOSGate@@MAGJJPAJPAPA_W@Z 1001f960 f i Gate.obj
 0001:0001eb20       ?SOErrorDummy@COPOSGate@@MAGJJJJPAJ@Z 1001fb20 f i Gate.obj
 0001:0001eb30       ?SOOutputCompleteDummy@COPOSGate@@MAGJJ@Z 1001fb30 f i Gate.obj
 0001:0001eb40       ?SOStatusUpdate@COPOSGate@@MAGJJ@Z 1001fb40 f i Gate.obj
 0001:0001ebc0       ?Save@?$IPersistStorageImpl@VCOPOSGate@@@ATL@@UAGJPAUIStorage@@H@Z 1001fbc0 f i Gate.obj
 0001:0001ed20       ?Save@?$IPersistStreamInitImpl@VCOPOSGate@@@ATL@@UAGJPAUIStream@@H@Z 1001fd20 f i Gate.obj
 0001:0001edb0       ?SaveCompleted@?$IPersistStorageImpl@VCOPOSGate@@@ATL@@UAGJPAUIStorage@@@Z 1001fdb0 f i Gate.obj
 0001:0001ee10       ?SendOnDataChange@CComControlBase@ATL@@QAEJK@Z 1001fe10 f i Gate.obj
 0001:0001ef00       ?SendOnSave@CComControlBase@ATL@@QAEJXZ 1001ff00 f i Gate.obj
 0001:0001ef70       ?SendOnViewChange@CComControlBase@ATL@@QAEJKJ@Z 1001ff70 f i Gate.obj
 0001:0001efe0       ?SetAdvise@?$IViewObjectExImpl@VCOPOSGate@@@ATL@@UAGJKKPAUIAdviseSink@@@Z 1001ffe0 f i Gate.obj
 0001:0001f070       ?SetClientSite@?$IOleObjectImpl@VCOPOSGate@@@ATL@@UAGJPAUIOleClientSite@@@Z 10020070 f i Gate.obj
 0001:0001f100       ?SetColorScheme@?$IOleObjectImpl@VCOPOSGate@@@ATL@@UAGJPAUtagLOGPALETTE@@@Z 10020100 f i Gate.obj
 0001:0001f170       ?SetContentExtent@?$IQuickActivateImpl@VCOPOSGate@@@ATL@@UAGJPAUtagSIZE@@@Z 10020170 f i Gate.obj
 0001:0001f200       ?SetControlFocus@CComControlBase@ATL@@QAEHH@Z 10020200 f i Gate.obj
 0001:0001f380       ?SetDWORDValue@CRegKey@ATL@@QAEJPB_WK@Z 10020380 f i Gate.obj
 0001:0001f400       ?SetData@?$IDataObjectImpl@VCOPOSGate@@@ATL@@UAGJPAUtagFORMATETC@@PAUtagSTGMEDIUM@@H@Z 10020400 f i Gate.obj
 0001:0001f470       ?SetExtent@?$IOleObjectImpl@VCOPOSGate@@@ATL@@UAGJKPAUtagSIZE@@@Z 10020470 f i Gate.obj
 0001:0001f500       ?SetHostNames@?$IOleObjectImpl@VCOPOSGate@@@ATL@@UAGJPB_W0@Z 10020500 f i Gate.obj
 0001:0001f560       ?SetInterfaceSafetyOptions@?$IObjectSafetyImpl@VCOPOSGate@@$02@ATL@@UAGJABU_GUID@@KK@Z 10020560 f i Gate.obj
 0001:0001f6d0       ?SetMoniker@?$IOleObjectImpl@VCOPOSGate@@@ATL@@UAGJKPAUIMoniker@@@Z 100206d0 f i Gate.obj
 0001:0001f740       ?SetMultiStringValue@CRegKey@ATL@@QAEJPB_W0@Z 10020740 f i Gate.obj
 0001:0001f860       ?SetObjectRects@?$IOleInPlaceObjectWindowlessImpl@VCOPOSGate@@@ATL@@UAGJPBUtagRECT@@0@Z 10020860 f i Gate.obj
 0001:0001f8f0       ?SetStringValue@CRegKey@ATL@@QAEJPB_W0K@Z 100208f0 f i Gate.obj
 0001:0001fa20       ?SetVoid@CComClassFactory@ATL@@QAEXPAX@Z 10020a20 f i Gate.obj
 0001:0001fa40       ?SetVoid@CComObjectRootBase@ATL@@QAEXPAX@Z 10020a40 f i Gate.obj
 0001:0001fa60       ?SetWindowLongPtrW@@YAJPAUHWND__@@HJ@Z 10020a60 f i Gate.obj
 0001:0001fa90       ?ShowWindow@CWindow@ATL@@QAEHH@Z 10020a90 f i Gate.obj
 0001:0001fb10       ?Skip@?$CComEnumImpl@UIEnumConnectionPoints@@$1?_GUID_b196b285_bab4_101a_b69c_00aa00341d07@@3U__s_GUID@@BPAUIConnectionPoint@@V?$_CopyInterface@UIConnectionPoint@@@ATL@@@ATL@@UAGJK@Z 10020b10 f i Gate.obj
 0001:0001fb90       ?Skip@?$CComEnumImpl@UIEnumConnections@@$1?_GUID_b196b287_bab4_101a_b69c_00aa00341d07@@3U__s_GUID@@BUtagCONNECTDATA@@V?$_Copy@UtagCONNECTDATA@@@ATL@@@ATL@@UAGJK@Z 10020b90 f i Gate.obj
 0001:0001fc10       ?SkipAssignment@CRegParser@ATL@@IAEJPA_W@Z 10020c10 f i Gate.obj
 0001:0001fcf0       ?SkipWhiteSpace@CRegParser@ATL@@IAEXXZ 10020cf0 f i Gate.obj
 0001:0001fd40       ?StartWindowProc@?$CWindowImplBaseT@VCWindow@ATL@@V?$CWinTraits@$0FGAAAAAA@$0A@@2@@ATL@@SGJPAUHWND__@@IIJ@Z 10020d40 f i Gate.obj
 0001:0001fe60       ?StrChrW@CRegParser@ATL@@KAPA_WPA_W_W@Z 10020e60 f i Gate.obj
 0001:0001fed0       ?StrFromMap@CRegObject@ATL@@QAEPB_WPA_W@Z 10020ed0 f i Gate.obj
 0001:0001ff60       ?Swap@?$CComPtrBase@UIAdviseSink@@@ATL@@IAEXAAV12@@Z 10020f60 f i Gate.obj
 0001:0001ffa0       ?Swap@?$CComPtrBase@UIOleClientSite@@@ATL@@IAEXAAV12@@Z 10020fa0 f i Gate.obj
 0001:0001ffe0       ?Swap@?$CComPtrBase@UIUnknown@@@ATL@@IAEXAAV12@@Z 10020fe0 f i Gate.obj
 0001:00020020       ?T2COLE_EX@@YAPB_WPB_WI@Z  10021020 f i Gate.obj
 0001:00020030       ?T2OLE_EX@@YAPA_WPA_WI@Z   10021030 f i Gate.obj
 0001:00020040       ?Term@CAtlModule@ATL@@QAEXXZ 10021040 f i Gate.obj
 0001:000200f0       ?Term@CComModule@ATL@@QAEXXZ 100210f0 f i Gate.obj
 0001:000201e0       ?TranslateAcceleratorW@?$IOleInPlaceActiveObjectImpl@VCOPOSGate@@@ATL@@UAGJPAUtagMSG@@@Z 100211e0 f i Gate.obj
 0001:000203e0       ?UIDeactivate@?$IOleInPlaceObjectWindowlessImpl@VCOPOSGate@@@ATL@@UAGJXZ 100213e0 f i Gate.obj
 0001:00020460       ?Unadvise@?$CProxy_IOPOSEvents@VCOPOSGate@@@@UAGJK@Z 10021460 f i Gate.obj
 0001:000204a0       ?Unadvise@?$IConnectionPointImpl@VCOPOSGate@@$1?DIID__IOPOSGateEvents@@3U_GUID@@BVCComDynamicUnkArray@ATL@@@ATL@@UAGJK@Z 100214a0 f i Gate.obj
 0001:00020570       ?Unadvise@?$IConnectionPointImpl@VCOPOSGate@@$1?IID_IPropertyNotifySink@@3U_GUID@@BVCComDynamicUnkArray@ATL@@@ATL@@UAGJK@Z 10021570 f i Gate.obj
 0001:00020640       ?Unadvise@?$IOleObjectImpl@VCOPOSGate@@@ATL@@UAGJK@Z 10021640 f i Gate.obj
 0001:00020710       ?Unfreeze@?$IViewObjectExImpl@VCOPOSGate@@@ATL@@UAGJK@Z 10021710 f i Gate.obj
 0001:00020780       ?Unlock@?$CComCritSecLock@VCComCriticalSection@ATL@@@ATL@@QAEXXZ 10021780 f i Gate.obj
 0001:000207f0       ?Unlock@?$CComObjectRootEx@VCComSingleThreadModel@ATL@@@ATL@@QAEXXZ 100217f0 f i Gate.obj
 0001:00020810       ?Unlock@CAtlModule@ATL@@UAEJXZ 10021810 f i Gate.obj
 0001:00020840       ?Unlock@CComCriticalSection@ATL@@QAEJXZ 10021840 f i Gate.obj
 0001:00020880       ?Unlock@CComFakeCriticalSection@ATL@@QAEJXZ 10021880 f i Gate.obj
 0001:000208a0       ?UnregisterServer@?$CAtlModuleT@VCComModule@ATL@@@ATL@@QAEJHPBU_GUID@@@Z 100218a0 f i Gate.obj
 0001:00020910       ?UnregisterServer@CAtlComModule@ATL@@QAEJHPBU_GUID@@@Z 10021910 f i Gate.obj
 0001:00020940       ?UnregisterServer@CComModule@ATL@@QAEJHPBU_GUID@@@Z 10021940 f i Gate.obj
 0001:00020a20       ?Update@?$IOleObjectImpl@VCOPOSGate@@@ATL@@UAGJXZ 10021a20 f i Gate.obj
 0001:00020a80       ?UpdateRegistryFromResource@CAtlModule@ATL@@QAGJIHPAU_ATL_REGMAP_ENTRY@2@@Z 10021a80 f i Gate.obj
 0001:00020f50       ?UpdateRegistryFromResource@CAtlModule@ATL@@QAGJPB_WHPAU_ATL_REGMAP_ENTRY@2@@Z 10021f50 f i Gate.obj
 0001:00021440       ?UpdateRegistryFromResource@CComModule@ATL@@UAGJIHPAU_ATL_REGMAP_ENTRY@2@@Z 10022440 f i Gate.obj
 0001:00021470       ?UpdateRegistryFromResource@CComModule@ATL@@UAGJPB_WHPAU_ATL_REGMAP_ENTRY@2@@Z 10022470 f i Gate.obj
 0001:000214a0       ?UpdateRegistryFromResourceD@CComModule@ATL@@UAGJIHPAU_ATL_REGMAP_ENTRY@2@@Z 100224a0 f i Gate.obj
 0001:000214b0       ?UpdateRegistryFromResourceD@CComModule@ATL@@UAGJPB_WHPAU_ATL_REGMAP_ENTRY@2@@Z 100224b0 f i Gate.obj
 0001:000214c0       ?VTFromRegType@CRegParser@ATL@@KAHPB_WAAG@Z 100224c0 f i Gate.obj
 0001:000215a0       ?WindowProc@?$CWindowImplBaseT@VCWindow@ATL@@V?$CWinTraits@$0FGAAAAAA@$0A@@2@@ATL@@SGJPAUHWND__@@IIJ@Z 100225a0 f i Gate.obj
 0001:000217b0       ?WriteToStream@CComBSTR@ATL@@QAEJPAUIStream@@@Z 100227b0 f i Gate.obj
 0001:00021910       ?WriteToStream@CComVariant@ATL@@QAEJPAUIStream@@@Z 10022910 f i Gate.obj
 0001:00021c50       ?WriteToStream@CComVariant@ATL@@QAEJPAUIStream@@G@Z 10022c50 f i Gate.obj
 0001:00021d20       ?_AtlFinalConstruct@CComObjectRootBase@ATL@@QAEJXZ 10022d20 f i Gate.obj
 0001:00021d40       ?_AtlGetConversionACP@ATL@@YGIXZ 10022d40 f i Gate.obj
 0001:00021d50       ?_AtlInitialConstruct@?$CComAggObject@VCOPOSGate@@@ATL@@QAEJXZ 10022d50 f i Gate.obj
 0001:00021da0       ?_AtlInitialConstruct@?$CComObjectRootEx@VCComMultiThreadModel@ATL@@@ATL@@QAEJXZ 10022da0 f i Gate.obj
 0001:00021dd0       ?_AtlInitialConstruct@?$CComObjectRootEx@VCComSingleThreadModel@ATL@@@ATL@@QAEJXZ 10022dd0 f i Gate.obj
 0001:00021df0       ?_AtlVerifyStackAvailable@_ATL_SAFE_ALLOCA_IMPL@ATL@@YA_NK@Z 10022df0 f i Gate.obj
 0001:00021fa0       ?_GetEntries@?$CComEnum@UIEnumConnectionPoints@@$1?_GUID_b196b285_bab4_101a_b69c_00aa00341d07@@3U__s_GUID@@BPAUIConnectionPoint@@V?$_CopyInterface@UIConnectionPoint@@@ATL@@VCComSingleThreadModel@6@@ATL@@SGPBU_ATL_INTMAP_ENTRY@2@XZ 10022fa0 f i Gate.obj
 0001:00021fc0       ?_GetEntries@?$CComEnum@UIEnumConnections@@$1?_GUID_b196b287_bab4_101a_b69c_00aa00341d07@@3U__s_GUID@@BUtagCONNECTDATA@@V?$_Copy@UtagCONNECTDATA@@@ATL@@VCComSingleThreadModel@6@@ATL@@SGPBU_ATL_INTMAP_ENTRY@2@XZ 10022fc0 f i Gate.obj
 0001:00021fe0       ?_GetEntries@CComClassFactory@ATL@@SGPBU_ATL_INTMAP_ENTRY@2@XZ 10022fe0 f i Gate.obj
 0001:00022000       ?_GetEntries@COPOSGate@@SGPBU_ATL_INTMAP_ENTRY@ATL@@XZ 10023000 f i Gate.obj
 0001:00022020       ?_GetRawUnknown@COPOSGate@@QAEPAUIUnknown@@XZ 10023020 f i Gate.obj
 0001:00022090       ?_GetViewStatus@COPOSGate@@QAEKXZ 10023090 f i Gate.obj
 0001:000220b0       ?_InternalQueryInterface@?$CComEnum@UIEnumConnectionPoints@@$1?_GUID_b196b285_bab4_101a_b69c_00aa00341d07@@3U__s_GUID@@BPAUIConnectionPoint@@V?$_CopyInterface@UIConnectionPoint@@@ATL@@VCComSingleThreadModel@6@@ATL@@QAEJABU_GUID@@PAPAX@Z 100230b0 f i Gate.obj
 0001:000220f0       ?_InternalQueryInterface@?$CComEnum@UIEnumConnections@@$1?_GUID_b196b287_bab4_101a_b69c_00aa00341d07@@3U__s_GUID@@BUtagCONNECTDATA@@V?$_Copy@UtagCONNECTDATA@@@ATL@@VCComSingleThreadModel@6@@ATL@@QAEJABU_GUID@@PAPAX@Z 100230f0 f i Gate.obj
 0001:00022130       ?_InternalQueryInterface@CComClassFactory@ATL@@QAEJABU_GUID@@PAPAX@Z 10023130 f i Gate.obj
 0001:00022170       ?_InternalQueryInterface@COPOSGate@@QAEJABU_GUID@@PAPAX@Z 10023170 f i Gate.obj
 0001:000221b0       ?_LocCPQueryInterface@?$IConnectionPointImpl@VCOPOSGate@@$1?DIID__IOPOSGateEvents@@3U_GUID@@BVCComDynamicUnkArray@ATL@@@ATL@@UAGJABU_GUID@@PAPAX@Z 100231b0 f i Gate.obj
 0001:00022250       ?_LocCPQueryInterface@?$IConnectionPointImpl@VCOPOSGate@@$1?IID_IPropertyNotifySink@@3U_GUID@@BVCComDynamicUnkArray@ATL@@@ATL@@UAGJABU_GUID@@PAPAX@Z 10023250 f i Gate.obj
 0001:000222f0       ?atlCreate@?$CWindowImpl@VCOPOSGate@@VCWindow@ATL@@V?$CWinTraits@$0FGAAAAAA@$0A@@3@@ATL@@QAEPAUHWND__@@PAU3@V_U_RECT@2@PB_WKKV_U_MENUorID@2@PAX@Z 100232f0 f i Gate.obj
 0001:000223a0       ?atlCreate@?$CWindowImplBaseT@VCWindow@ATL@@V?$CWinTraits@$0FGAAAAAA@$0A@@2@@ATL@@QAEPAUHWND__@@PAU3@V_U_RECT@2@PB_WKKV_U_MENUorID@2@GPAX@Z 100233a0 f i Gate.obj
 0001:00022520       ?atlCreate@CRegKey@ATL@@QAEJPAUHKEY__@@PB_WPA_WKKPAU_SECURITY_ATTRIBUTES@@PAK@Z 10023520 f i Gate.obj
 0001:00022680       ?begin@CComDynamicUnkArray@ATL@@QAEPAPAUIUnknown@@XZ 10023680 f i Gate.obj
 0001:000226a0       ?copy@?$_Copy@UtagCONNECTDATA@@@ATL@@SAJPAUtagCONNECTDATA@@PBU3@@Z 100236a0 f i Gate.obj
 0001:00022760       ?copy@?$_CopyInterface@UIConnectionPoint@@@ATL@@SAJPAPAUIConnectionPoint@@PBQAU3@@Z 10023760 f i Gate.obj
 0001:00022820       ?destroy@?$_Copy@UtagCONNECTDATA@@@ATL@@SAXPAUtagCONNECTDATA@@@Z 10023820 f i Gate.obj
 0001:00022860       ?destroy@?$_CopyInterface@UIConnectionPoint@@@ATL@@SAXPAPAUIConnectionPoint@@@Z 10023860 f i Gate.obj
 0001:000228a0       ?end@CComDynamicUnkArray@ATL@@QAEPAPAUIUnknown@@XZ 100238a0 f i Gate.obj
 0001:000228c0       ?init@?$_Copy@UtagCONNECTDATA@@@ATL@@SAXPAUtagCONNECTDATA@@@Z 100238c0 f i Gate.obj
 0001:000228d0       ?init@?$_CopyInterface@UIConnectionPoint@@@ATL@@SAXPAPAUIConnectionPoint@@@Z 100238d0 f i Gate.obj
 0001:000228e0       ?memcpy_s@Checked@ATL@@YAXPAXIPBXI@Z 100238e0 f i Gate.obj
 0001:00022910       ?ocscpy_s@@YA_NPA_WIPB_W@Z 10023910 f i Gate.obj
 0001:00022970       ?ocslen@@YAHPB_W@Z         10023970 f i Gate.obj
 0001:000229a0       ?tcsncpy_s@Checked@ATL@@YAHPA_WIPB_WI@Z 100239a0 f i Gate.obj
 0001:000229d0       ?wcscat_s@Checked@ATL@@YAXPA_WIPB_W@Z 100239d0 f i Gate.obj
 0001:00022a00       ?wcscpy_s@Checked@ATL@@YAXPA_WIPB_W@Z 10023a00 f i Gate.obj
 0001:00022a30       ?wcsncpy_s@Checked@ATL@@YAHPA_WIPB_WI@Z 10023a30 f i Gate.obj
 0001:00022a60       ?wcsstr@@YAPA_WPA_WPB_W@Z  10023a60 f i Gate.obj
 0001:00022a80       _InlineIsEqualGUID         10023a80 f i Gate.obj
 0001:00022b20       _IsEqualGUID               10023b20 f i Gate.obj
 0001:00022b70       ??0COPOSGate@@QAE@XZ       10023b70 f   GateImpl.obj
 0001:00022c80       ?FinalConstruct@COPOSGate@@QAEJXZ 10023c80 f   GateImpl.obj
 0001:00022d50       ??1COPOSGate@@UAE@XZ       10023d50 f   GateImpl.obj
 0001:00022e30       ?WriteTrace@COPOSGate@@QAAXPB_WZZ 10023e30 f   GateImpl.obj
 0001:00022ee0       ?WriteTraceString@COPOSGate@@QAEXPB_WPA_W@Z 10023ee0 f   GateImpl.obj
 0001:00023250       ?WriteTraceString@COPOSGate@@QAAXPAXHHHPB_WZZ 10024250 f   GateImpl.obj
 0001:00023480       ?WriteTraceError@COPOSGate@@QAEXPB_WK@Z 10024480 f   GateImpl.obj
 0001:00023570       ?WriteTraceMethods@COPOSGate@@QAEXPAJH@Z 10024570 f   GateImpl.obj
 0001:000235e0       ?GetOposProp@COPOSGate@@IAEJPBDJPAJJ@Z 100245e0 f   GateImpl.obj
 0001:00023850       ?SetOposProp@COPOSGate@@IAEJPBDJJJ@Z 10024850 f   GateImpl.obj
 0001:00023ae0       ?GetOposProp@COPOSGate@@IAEJPBDJPAFJ@Z 10024ae0 f   GateImpl.obj
 0001:00023b80       ?SetOposProp@COPOSGate@@IAEJPBDJFJ@Z 10024b80 f   GateImpl.obj
 0001:00023be0       ?GetOposProp@COPOSGate@@IAEJPBDJPAPA_WJ@Z 10024be0 f   GateImpl.obj
 0001:00023e60       ?SetOposProp@COPOSGate@@IAEJPBDJPA_WJ@Z 10024e60 f   GateImpl.obj
 0001:000241a0       ?DoInvoke@COPOSGate@@IAEJPBDJPAVOposVariant@@IHPAJ_N@Z 100251a0 f   GateImpl.obj
 0001:00024ad0       ?SetCOFreezeEvents@COPOSGate@@IAEXF@Z 10025ad0 f   GateImpl.obj
 0001:00024c10       ?FreezeEvents@COPOSGate@@MAGJH@Z 10025c10 f   GateImpl.obj
 0001:00024cd0       ?OnDraw@COPOSGate@@MAEJAAUATL_DRAWINFO@@@Z 10025cd0 f   GateImpl.obj
 0001:00024e70       ?SOProcessID@COPOSGate@@UAGJPAJ@Z 10025e70 f   GateImpl.obj
 0001:00024eb0       ?get_OpenResult@COPOSGate@@UAGJPAJ@Z 10025eb0 f   GateImpl.obj
 0001:00024ef0       ?get_BinaryConversion@COPOSGate@@UAGJPAJ@Z 10025ef0 f   GateImpl.obj
 0001:00024f20       ?put_BinaryConversion@COPOSGate@@UAGJJ@Z 10025f20 f   GateImpl.obj
 0001:00024f50       ?get_CapPowerReporting@COPOSGate@@UAGJPAJ@Z 10025f50 f   GateImpl.obj
 0001:00024f80       ?get_CheckHealthText@COPOSGate@@UAGJPAPA_W@Z 10025f80 f   GateImpl.obj
 0001:00024fb0       ?get_Claimed@COPOSGate@@UAGJPAF@Z 10025fb0 f   GateImpl.obj
 0001:00024fe0       ?get_DeviceEnabled@COPOSGate@@UAGJPAF@Z 10025fe0 f   GateImpl.obj
 0001:00025010       ?put_DeviceEnabled@COPOSGate@@UAGJF@Z 10026010 f   GateImpl.obj
 0001:00025040       ?get_FreezeEvents@COPOSGate@@UAGJPAF@Z 10026040 f   GateImpl.obj
 0001:00025070       ?put_FreezeEvents@COPOSGate@@UAGJF@Z 10026070 f   GateImpl.obj
 0001:00025100       ?get_PowerNotify@COPOSGate@@UAGJPAJ@Z 10026100 f   GateImpl.obj
 0001:00025130       ?put_PowerNotify@COPOSGate@@UAGJJ@Z 10026130 f   GateImpl.obj
 0001:00025160       ?get_PowerState@COPOSGate@@UAGJPAJ@Z 10026160 f   GateImpl.obj
 0001:00025190       ?get_ResultCode@COPOSGate@@UAGJPAJ@Z 10026190 f   GateImpl.obj
 0001:00025220       ?get_ResultCodeExtended@COPOSGate@@UAGJPAJ@Z 10026220 f   GateImpl.obj
 0001:00025250       ?get_State@COPOSGate@@UAGJPAJ@Z 10026250 f   GateImpl.obj
 0001:000252a0       ?get_ControlObjectDescription@COPOSGate@@UAGJPAPA_W@Z 100262a0 f   GateImpl.obj
 0001:00025320       ?get_ControlObjectVersion@COPOSGate@@UAGJPAJ@Z 10026320 f   GateImpl.obj
 0001:00025360       ?get_ServiceObjectDescription@COPOSGate@@UAGJPAPA_W@Z 10026360 f   GateImpl.obj
 0001:00025390       ?get_ServiceObjectVersion@COPOSGate@@UAGJPAJ@Z 10026390 f   GateImpl.obj
 0001:000253c0       ?get_DeviceDescription@COPOSGate@@UAGJPAPA_W@Z 100263c0 f   GateImpl.obj
 0001:000253f0       ?get_DeviceName@COPOSGate@@UAGJPAPA_W@Z 100263f0 f   GateImpl.obj
 0001:00025420       ?get_CapStatisticsReporting@COPOSGate@@UAGJPAF@Z 10026420 f   GateImpl.obj
 0001:00025450       ?get_CapUpdateStatistics@COPOSGate@@UAGJPAF@Z 10026450 f   GateImpl.obj
 0001:00025480       ?get_CapCompareFirmwareVersion@COPOSGate@@UAGJPAF@Z 10026480 f   GateImpl.obj
 0001:000254b0       ?get_CapUpdateFirmware@COPOSGate@@UAGJPAF@Z 100264b0 f   GateImpl.obj
 0001:000254e0       ?CheckHealth@COPOSGate@@UAGJJPAJ@Z 100264e0 f   GateImpl.obj
 0001:00025580       ?ClaimDevice@COPOSGate@@UAGJJPAJ@Z 10026580 f   GateImpl.obj
 0001:00025660       ?Close@COPOSGate@@UAGJPAJ@Z 10026660 f   GateImpl.obj
 0001:00025730       ?DirectIO@COPOSGate@@UAGJJPAJPAPA_W0@Z 10026730 f   GateImpl.obj
 0001:00025840       ?Open@COPOSGate@@UAGJPA_WPAJ@Z 10026840 f   GateImpl.obj
 0001:00026a30       ?ReleaseDevice@COPOSGate@@UAGJPAJ@Z 10027a30 f   GateImpl.obj
 0001:00026a90       ?ResetStatistics@COPOSGate@@UAGJPA_WPAJ@Z 10027a90 f   GateImpl.obj
 0001:00026b40       ?RetrieveStatistics@COPOSGate@@UAGJPAPA_WPAJ@Z 10027b40 f   GateImpl.obj
 0001:00026bf0       ?UpdateStatistics@COPOSGate@@UAGJPA_WPAJ@Z 10027bf0 f   GateImpl.obj
 0001:00026ca0       ?CompareFirmwareVersion@COPOSGate@@UAGJPA_WPAJ1@Z 10027ca0 f   GateImpl.obj
 0001:00026d90       ?UpdateFirmware@COPOSGate@@UAGJPA_WPAJ@Z 10027d90 f   GateImpl.obj
 0001:00026e40       ?get_CapGateStatus@COPOSGate@@UAGJPAF@Z 10027e40 f   GateImpl.obj
 0001:00026e70       ?get_GateStatus@COPOSGate@@UAGJPAJ@Z 10027e70 f   GateImpl.obj
 0001:00026ea0       ?OpenGate@COPOSGate@@UAGJPAJ@Z 10027ea0 f   GateImpl.obj
 0001:00026ed0       ?WaitForGateClose@COPOSGate@@UAGJJPAJ@Z 10027ed0 f   GateImpl.obj
 0001:00026f70       ??0?$CComControl@VCOPOSGate@@V?$CWindowImpl@VCOPOSGate@@VCWindow@ATL@@V?$CWinTraits@$0FGAAAAAA@$0A@@3@@ATL@@@ATL@@QAE@XZ 10027f70 f i GateImpl.obj
 0001:00026fb0       ??0?$CComPtr@UIAdviseSink@@@ATL@@QAE@XZ 10027fb0 f i GateImpl.obj
 0001:00026fe0       ??0?$CComPtr@UIDataAdviseHolder@@@ATL@@QAE@XZ 10027fe0 f i GateImpl.obj
 0001:00027010       ??0?$CComPtr@UIOleAdviseHolder@@@ATL@@QAE@XZ 10028010 f i GateImpl.obj
 0001:00027040       ??0?$CComPtr@UIOleClientSite@@@ATL@@QAE@XZ 10028040 f i GateImpl.obj
 0001:00027070       ??0?$CComPtr@UIOleInPlaceSiteWindowless@@@ATL@@QAE@XZ 10028070 f i GateImpl.obj
 0001:000270a0       ??0?$CComPtrBase@UIAdviseSink@@@ATL@@IAE@XZ 100280a0 f i GateImpl.obj
 0001:000270c0       ??0?$CComPtrBase@UIDataAdviseHolder@@@ATL@@IAE@XZ 100280c0 f i GateImpl.obj
 0001:000270e0       ??0?$CComPtrBase@UIOleAdviseHolder@@@ATL@@IAE@XZ 100280e0 f i GateImpl.obj
 0001:00027100       ??0?$CComPtrBase@UIOleClientSite@@@ATL@@IAE@XZ 10028100 f i GateImpl.obj
 0001:00027120       ??0?$CComPtrBase@UIOleInPlaceSiteWindowless@@@ATL@@IAE@XZ 10028120 f i GateImpl.obj
 0001:00027140       ??0?$CComQIPtr@UIDispatch@@$1?_GUID_00020400_0000_0000_c000_000000000046@@3U__s_GUID@@B@ATL@@QAE@XZ 10028140 f i GateImpl.obj
 0001:00027170       ??0?$CProxy_IOPOSEvents@VCOPOSGate@@@@QAE@PAVCOPOSGate@@@Z 10028170 f i GateImpl.obj
 0001:000271c0       ??0?$CWindowImpl@VCOPOSGate@@VCWindow@ATL@@V?$CWinTraits@$0FGAAAAAA@$0A@@3@@ATL@@QAE@XZ 100281c0 f i GateImpl.obj
 0001:000271f0       ??0?$CWindowImplBaseT@VCWindow@ATL@@V?$CWinTraits@$0FGAAAAAA@$0A@@2@@ATL@@QAE@XZ 100281f0 f i GateImpl.obj
 0001:00027230       ??0?$CWindowImplRoot@VCWindow@ATL@@@ATL@@QAE@XZ 10028230 f i GateImpl.obj
 0001:00027290       ??0?$IConnectionPointContainerImpl@VCOPOSGate@@@ATL@@QAE@XZ 10028290 f i GateImpl.obj
 0001:000272c0       ??0?$IConnectionPointImpl@VCOPOSGate@@$1?DIID__IOPOSGateEvents@@3U_GUID@@BVCComDynamicUnkArray@ATL@@@ATL@@QAE@XZ 100282c0 f i GateImpl.obj
 0001:00027300       ??0?$IConnectionPointImpl@VCOPOSGate@@$1?IID_IPropertyNotifySink@@3U_GUID@@BVCComDynamicUnkArray@ATL@@@ATL@@QAE@XZ 10028300 f i GateImpl.obj
 0001:00027340       ??0?$IDataObjectImpl@VCOPOSGate@@@ATL@@QAE@XZ 10028340 f i GateImpl.obj
 0001:00027370       ??0?$IDispatchImpl@UIOPOSGate@@$1?IID_IOPOSGate@@3U_GUID@@B$1?LIBID_OposGate_CCO@@3U3@B$00$0A@VCComTypeInfoHolder@ATL@@@ATL@@QAE@XZ 10028370 f i GateImpl.obj
 0001:000273a0       ??0?$IObjectSafetyImpl@VCOPOSGate@@$02@ATL@@QAE@XZ 100283a0 f i GateImpl.obj
 0001:000273e0       ??0?$IOleControlImpl@VCOPOSGate@@@ATL@@QAE@XZ 100283e0 f i GateImpl.obj
 0001:00027410       ??0?$IOleInPlaceActiveObjectImpl@VCOPOSGate@@@ATL@@QAE@XZ 10028410 f i GateImpl.obj
 0001:00027440       ??0?$IOleInPlaceObjectWindowlessImpl@VCOPOSGate@@@ATL@@QAE@XZ 10028440 f i GateImpl.obj
 0001:00027470       ??0?$IOleObjectImpl@VCOPOSGate@@@ATL@@QAE@XZ 10028470 f i GateImpl.obj
 0001:000274a0       ??0?$IPersistStorageImpl@VCOPOSGate@@@ATL@@QAE@XZ 100284a0 f i GateImpl.obj
 0001:000274d0       ??0?$IPersistStreamInitImpl@VCOPOSGate@@@ATL@@QAE@XZ 100284d0 f i GateImpl.obj
 0001:00027500       ??0?$IPropertyNotifySinkCP@VCOPOSGate@@VCComDynamicUnkArray@ATL@@@ATL@@QAE@XZ 10028500 f i GateImpl.obj
 0001:00027530       ??0?$IProvideClassInfo2Impl@$1?CLSID_OPOSGate@@3U_GUID@@B$1?DIID__IOPOSGateEvents@@3U2@B$1?LIBID_OposGate_CCO@@3U2@B$00$0A@VCComTypeInfoHolder@ATL@@@ATL@@QAE@XZ 10028530 f i GateImpl.obj
 0001:00027560       ??0?$IQuickActivateImpl@VCOPOSGate@@@ATL@@QAE@XZ 10028560 f i GateImpl.obj
 0001:00027590       ??0?$ISpecifyPropertyPagesImpl@VCOPOSGate@@@ATL@@QAE@XZ 10028590 f i GateImpl.obj
 0001:000275c0       ??0?$IViewObjectExImpl@VCOPOSGate@@@ATL@@QAE@XZ 100285c0 f i GateImpl.obj
 0001:000275f0       ??0?$_ICPLocator@$1?DIID__IOPOSGateEvents@@3U_GUID@@B@ATL@@QAE@XZ 100285f0 f i GateImpl.obj
 0001:00027610       ??0?$_ICPLocator@$1?IID_IPropertyNotifySink@@3U_GUID@@B@ATL@@QAE@XZ 10028610 f i GateImpl.obj
 0001:00027630       ??0CComControlBase@ATL@@QAE@AAPAUHWND__@@@Z 10028630 f i GateImpl.obj
 0001:000277e0       ??0CComDynamicUnkArray@ATL@@QAE@XZ 100287e0 f i GateImpl.obj
 0001:00027810       ??0CDynamicStdCallThunk2@ATL@@QAE@XZ 10028810 f i GateImpl.obj
 0001:00027830       ??0CMessageMap@ATL@@QAE@XZ 10028830 f i GateImpl.obj
 0001:00027850       ??0CWindow@ATL@@QAE@PAUHWND__@@@Z 10028850 f i GateImpl.obj
 0001:00027870       ??0CWndProcThunk@ATL@@QAE@XZ 10028870 f i GateImpl.obj
 0001:000278a0       ??0IConnectionPointContainer@@QAE@XZ 100288a0 f i GateImpl.obj
 0001:000278d0       ??0IDataObject@@QAE@XZ     100288d0 f i GateImpl.obj
 0001:00027900       ??0IDispatch@@QAE@XZ       10028900 f i GateImpl.obj
 0001:00027930       ??0IOPOSGate@@QAE@XZ       10028930 f i GateImpl.obj
 0001:00027960       ??0IOPOSGate_1_12@@QAE@XZ  10028960 f i GateImpl.obj
 0001:00027990       ??0IObjectSafety@@QAE@XZ   10028990 f i GateImpl.obj
 0001:000279c0       ??0IOleControl@@QAE@XZ     100289c0 f i GateImpl.obj
 0001:000279f0       ??0IOleInPlaceActiveObject@@QAE@XZ 100289f0 f i GateImpl.obj
 0001:00027a20       ??0IOleInPlaceObject@@QAE@XZ 10028a20 f i GateImpl.obj
 0001:00027a50       ??0IOleInPlaceObjectWindowless@@QAE@XZ 10028a50 f i GateImpl.obj
 0001:00027a80       ??0IOleObject@@QAE@XZ      10028a80 f i GateImpl.obj
 0001:00027ab0       ??0IOleWindow@@QAE@XZ      10028ab0 f i GateImpl.obj
 0001:00027ae0       ??0IPersist@@QAE@XZ        10028ae0 f i GateImpl.obj
 0001:00027b10       ??0IPersistStorage@@QAE@XZ 10028b10 f i GateImpl.obj
 0001:00027b40       ??0IPersistStreamInit@@QAE@XZ 10028b40 f i GateImpl.obj
 0001:00027b70       ??0IProvideClassInfo2@@QAE@XZ 10028b70 f i GateImpl.obj
 0001:00027ba0       ??0IProvideClassInfo@@QAE@XZ 10028ba0 f i GateImpl.obj
 0001:00027bd0       ??0IQuickActivate@@QAE@XZ  10028bd0 f i GateImpl.obj
 0001:00027c00       ??0ISpecifyPropertyPages@@QAE@XZ 10028c00 f i GateImpl.obj
 0001:00027c30       ??0IViewObject2@@QAE@XZ    10028c30 f i GateImpl.obj
 0001:00027c60       ??0IViewObject@@QAE@XZ     10028c60 f i GateImpl.obj
 0001:00027c90       ??0IViewObjectEx@@QAE@XZ   10028c90 f i GateImpl.obj
 0001:00027cc0       ??0OposVariantResult@@QAE@XZ 10028cc0 f i GateImpl.obj
 0001:00027cf0       ??0_CW@@QAE@PBD@Z          10028cf0 f i GateImpl.obj
 0001:00027d30       ??0_CW@@QAE@PB_W@Z         10028d30 f i GateImpl.obj
 0001:00027d70       ??0_CWNCC@@QAE@PBD@Z       10028d70 f i GateImpl.obj
 0001:00027da0       ??1?$CComControl@VCOPOSGate@@V?$CWindowImpl@VCOPOSGate@@VCWindow@ATL@@V?$CWinTraits@$0FGAAAAAA@$0A@@3@@ATL@@@ATL@@UAE@XZ 10028da0 f i GateImpl.obj
 0001:00027dd0       ??1?$CComPtr@UIDataAdviseHolder@@@ATL@@QAE@XZ 10028dd0 f i GateImpl.obj
 0001:00027e00       ??1?$CComPtr@UIOleAdviseHolder@@@ATL@@QAE@XZ 10028e00 f i GateImpl.obj
 0001:00027e30       ??1?$CComPtr@UIOleInPlaceSiteWindowless@@@ATL@@QAE@XZ 10028e30 f i GateImpl.obj
 0001:00027e60       ??1?$CComPtrBase@UIDataAdviseHolder@@@ATL@@QAE@XZ 10028e60 f i GateImpl.obj
 0001:00027eb0       ??1?$CComPtrBase@UIOleAdviseHolder@@@ATL@@QAE@XZ 10028eb0 f i GateImpl.obj
 0001:00027f00       ??1?$CComPtrBase@UIOleInPlaceSiteWindowless@@@ATL@@QAE@XZ 10028f00 f i GateImpl.obj
 0001:00027f50       ??1?$CComQIPtr@UIDispatch@@$1?_GUID_00020400_0000_0000_c000_000000000046@@3U__s_GUID@@B@ATL@@QAE@XZ 10028f50 f i GateImpl.obj
 0001:00027f80       ??1?$CProxy_IOPOSEvents@VCOPOSGate@@@@QAE@XZ 10028f80 f i GateImpl.obj
 0001:00027fb0       ??1?$CWindowImpl@VCOPOSGate@@VCWindow@ATL@@V?$CWinTraits@$0FGAAAAAA@$0A@@3@@ATL@@UAE@XZ 10028fb0 f i GateImpl.obj
 0001:00027fe0       ??1?$CWindowImplBaseT@VCWindow@ATL@@V?$CWinTraits@$0FGAAAAAA@$0A@@2@@ATL@@UAE@XZ 10028fe0 f i GateImpl.obj
 0001:00028010       ??1?$CWindowImplRoot@VCWindow@ATL@@@ATL@@UAE@XZ 10029010 f i GateImpl.obj
 0001:000280b0       ??1?$IConnectionPointImpl@VCOPOSGate@@$1?DIID__IOPOSGateEvents@@3U_GUID@@BVCComDynamicUnkArray@ATL@@@ATL@@QAE@XZ 100290b0 f i GateImpl.obj
 0001:00028130       ??1?$IConnectionPointImpl@VCOPOSGate@@$1?IID_IPropertyNotifySink@@3U_GUID@@BVCComDynamicUnkArray@ATL@@@ATL@@QAE@XZ 10029130 f i GateImpl.obj
 0001:000281b0       ??1?$IPropertyNotifySinkCP@VCOPOSGate@@VCComDynamicUnkArray@ATL@@@ATL@@QAE@XZ 100291b0 f i GateImpl.obj
 0001:000281e0       ??1CComControlBase@ATL@@UAE@XZ 100291e0 f i GateImpl.obj
 0001:000282a0       ??1CComDynamicUnkArray@ATL@@QAE@XZ 100292a0 f i GateImpl.obj
 0001:000282e0       ??1CDynamicStdCallThunk2@ATL@@QAE@XZ 100292e0 f i GateImpl.obj
 0001:00028310       ??1CWndProcThunk@ATL@@QAE@XZ 10029310 f i GateImpl.obj
 0001:00028340       ??1OposVariantResult@@QAE@XZ 10029340 f i GateImpl.obj
 0001:00028370       ??1_CW@@QAE@XZ             10029370 f i GateImpl.obj
 0001:000283e0       ??1_CWNCC@@QAE@XZ          100293e0 f i GateImpl.obj
 0001:00028410       ??B_CW@@QAEPB_WXZ          10029410 f i GateImpl.obj
 0001:00028450       ??B_CWNCC@@QAEPA_WXZ       10029450 f i GateImpl.obj
 0001:00028480       ??_EOposVariant@@QAEPAXI@Z 10029480 f i GateImpl.obj
 0001:00028510       ?EventClose@COPOSGate@@IAEXXZ 10029510 f i GateImpl.obj
 0001:000285b0       ?EventInit@COPOSGate@@IAEJXZ 100295b0 f i GateImpl.obj
 0001:000287e0       ?EventOpen@COPOSGate@@IAEXXZ 100297e0 f i GateImpl.obj
 0001:00028820       ?EventPreClose@COPOSGate@@IAEXXZ 10029820 f i GateImpl.obj
 0001:000288a0       ?EventUninit@COPOSGate@@IAEXXZ 100298a0 f i GateImpl.obj
 0001:000289d0       ?EventWindowProc@COPOSGate@@IAGJIIJ@Z 100299d0 f i GateImpl.obj
 0001:00028ab0       ?FireEventCleanup@COPOSGate@@IAEXXZ 10029ab0 f i GateImpl.obj
 0001:00028b00       ?FireEventSetup@COPOSGate@@IAE_NXZ 10029b00 f i GateImpl.obj
 0001:00028b70       ?GetModuleInstance@CComModule@ATL@@QAEPAUHINSTANCE__@@XZ 10029b70 f i GateImpl.obj
 0001:00028b90       ?SetRC@COPOSGate@@IAEJJ@Z  10029b90 f i GateImpl.obj
 0001:00028bc0       ?s_EventWindowProc@COPOSGate@@KGJPAUHWND__@@IIJ@Z 10029bc0 f i GateImpl.obj
 0001:00028c60       __snwprintf                10029c60 f i GateImpl.obj
 0001:00028cc0       __vfwprintf_l              10029cc0 f i GateImpl.obj
 0001:00028cf0       __vsnwprintf               10029cf0 f i GateImpl.obj
 0001:00028d20       __vsnwprintf_l             10029d20 f i GateImpl.obj
 0001:00028d90       _vfwprintf                 10029d90 f i GateImpl.obj
 0001:00028db2       _DebugBreak@0              10029db2 f   kernel32:KERNEL32.dll
 0001:00028db8       _Sleep@4                   10029db8 f   kernel32:KERNEL32.dll
 0001:00028dbe       _GetCurrentProcess@0       10029dbe f   kernel32:KERNEL32.dll
 0001:00028dc4       _TerminateProcess@8        10029dc4 f   kernel32:KERNEL32.dll
 0001:00028dca       _MultiByteToWideChar@24    10029dca f   kernel32:KERNEL32.dll
 0001:00028dd0       _WideCharToMultiByte@32    10029dd0 f   kernel32:KERNEL32.dll
 0001:00028dd6       _DecodePointer@4           10029dd6 f   kernel32:KERNEL32.dll
 0001:00028ddc       _RaiseException@16         10029ddc f   kernel32:KERNEL32.dll
 0001:00028de2       _GetLastError@0            10029de2 f   kernel32:KERNEL32.dll
 0001:00028de8       _SetLastError@4            10029de8 f   kernel32:KERNEL32.dll
 0001:00028dee       _InitializeCriticalSectionEx@12 10029dee f   kernel32:KERNEL32.dll
 0001:00028df4       _DeleteCriticalSection@4   10029df4 f   kernel32:KERNEL32.dll
 0001:00028dfa       _EncodePointer@4           10029dfa f   kernel32:KERNEL32.dll
 0001:00028e00       _EnterCriticalSection@4    10029e00 f   kernel32:KERNEL32.dll
 0001:00028e06       _LeaveCriticalSection@4    10029e06 f   kernel32:KERNEL32.dll
 0001:00028e0c       _ResetEvent@4              10029e0c f   kernel32:KERNEL32.dll
 0001:00028e12       _ReleaseMutex@4            10029e12 f   kernel32:KERNEL32.dll
 0001:00028e18       _WaitForSingleObject@8     10029e18 f   kernel32:KERNEL32.dll
 0001:00028e1e       _GetCurrentThreadId@0      10029e1e f   kernel32:KERNEL32.dll
 0001:00028e24       _DisableThreadLibraryCalls@4 10029e24 f   kernel32:KERNEL32.dll
 0001:00028e2a       _FreeLibrary@4             10029e2a f   kernel32:KERNEL32.dll
 0001:00028e30       _GetModuleFileNameW@12     10029e30 f   kernel32:KERNEL32.dll
 0001:00028e36       _GetModuleHandleW@4        10029e36 f   kernel32:KERNEL32.dll
 0001:00028e3c       _GetProcAddress@8          10029e3c f   kernel32:KERNEL32.dll
 0001:00028e42       _LoadLibraryExW@12         10029e42 f   kernel32:KERNEL32.dll
 0001:00028e48       _LoadResource@8            10029e48 f   kernel32:KERNEL32.dll
 0001:00028e4e       _SizeofResource@8          10029e4e f   kernel32:KERNEL32.dll
 0001:00028e54       _FindResourceW@12          10029e54 f   kernel32:KERNEL32.dll
 0001:00028e5a       _GlobalAlloc@8             10029e5a f   kernel32:KERNEL32.dll
 0001:00028e60       _GlobalUnlock@4            10029e60 f   kernel32:KERNEL32.dll
 0001:00028e66       _GlobalLock@4              10029e66 f   kernel32:KERNEL32.dll
 0001:00028e6c       _MulDiv@12                 10029e6c f   kernel32:KERNEL32.dll
 0001:00028e72       _lstrcmpiW@8               10029e72 f   kernel32:KERNEL32.dll
 0001:00028e78       _DeleteFileW@4             10029e78 f   kernel32:KERNEL32.dll
 0001:00028e7e       _CloseHandle@4             10029e7e f   kernel32:KERNEL32.dll
 0001:00028e84       _SetEvent@4                10029e84 f   kernel32:KERNEL32.dll
 0001:00028e8a       _CreateMutexW@12           10029e8a f   kernel32:KERNEL32.dll
 0001:00028e90       _CreateEventW@16           10029e90 f   kernel32:KERNEL32.dll
 0001:00028e96       _GetCurrentProcessId@0     10029e96 f   kernel32:KERNEL32.dll
 0001:00028e9c       _LocalFree@4               10029e9c f   kernel32:KERNEL32.dll
 0001:00028ea2       _FormatMessageW@28         10029ea2 f   kernel32:KERNEL32.dll
 0001:00028ea8       _GetActiveWindow@0         10029ea8 f   user32:USER32.dll
 0001:00028eae       _MessageBoxW@16            10029eae f   user32:USER32.dll
 0001:00028eb4       _UnregisterClassW@8        10029eb4 f   user32:USER32.dll
 0001:00028eba       _PostMessageW@16           10029eba f   user32:USER32.dll
 0001:00028ec0       _DefWindowProcW@16         10029ec0 f   user32:USER32.dll
 0001:00028ec6       _CallWindowProcW@20        10029ec6 f   user32:USER32.dll
 0001:00028ecc       _RegisterClassExW@4        10029ecc f   user32:USER32.dll
 0001:00028ed2       _GetClassInfoExW@12        10029ed2 f   user32:USER32.dll
 0001:00028ed8       _CreateWindowExW@48        10029ed8 f   user32:USER32.dll
 0001:00028ede       _IsWindow@4                10029ede f   user32:USER32.dll
 0001:00028ee4       _IsChild@8                 10029ee4 f   user32:USER32.dll
 0001:00028eea       _DestroyWindow@4           10029eea f   user32:USER32.dll
 0001:00028ef0       _ShowWindow@8              10029ef0 f   user32:USER32.dll
 0001:00028ef6       _SetWindowPos@28           10029ef6 f   user32:USER32.dll
 0001:00028efc       _CharNextW@4               10029efc f   user32:USER32.dll
 0001:00028f02       _SetFocus@4                10029f02 f   user32:USER32.dll
 0001:00028f08       _GetFocus@0                10029f08 f   user32:USER32.dll
 0001:00028f0e       _GetKeyState@4             10029f0e f   user32:USER32.dll
 0001:00028f14       _GetDC@4                   10029f14 f   user32:USER32.dll
 0001:00028f1a       _ReleaseDC@8               10029f1a f   user32:USER32.dll
 0001:00028f20       _BeginPaint@8              10029f20 f   user32:USER32.dll
 0001:00028f26       _EndPaint@8                10029f26 f   user32:USER32.dll
 0001:00028f2c       _SetWindowRgn@12           10029f2c f   user32:USER32.dll
 0001:00028f32       _InvalidateRect@12         10029f32 f   user32:USER32.dll
 0001:00028f38       _GetClientRect@8           10029f38 f   user32:USER32.dll
 0001:00028f3e       _IntersectRect@12          10029f3e f   user32:USER32.dll
 0001:00028f44       _UnionRect@12              10029f44 f   user32:USER32.dll
 0001:00028f4a       _OffsetRect@12             10029f4a f   user32:USER32.dll
 0001:00028f50       _EqualRect@8               10029f50 f   user32:USER32.dll
 0001:00028f56       _PtInRect@12               10029f56 f   user32:USER32.dll
 0001:00028f5c       _GetWindowLongW@8          10029f5c f   user32:USER32.dll
 0001:00028f62       _SetWindowLongW@12         10029f62 f   user32:USER32.dll
 0001:00028f68       _GetParent@4               10029f68 f   user32:USER32.dll
 0001:00028f6e       _LoadCursorW@8             10029f6e f   user32:USER32.dll
 0001:00028f74       _PeekMessageW@20           10029f74 f   user32:USER32.dll
 0001:00028f7a       _RegisterClassW@4          10029f7a f   user32:USER32.dll
 0001:00028f80       _LoadBitmapW@8             10029f80 f   user32:USER32.dll
 0001:00028f86       _CloseMetaFile@4           10029f86 f   gdi32:GDI32.dll
 0001:00028f8c       _CreateDCW@16              10029f8c f   gdi32:GDI32.dll
 0001:00028f92       _CreateMetaFileW@4         10029f92 f   gdi32:GDI32.dll
 0001:00028f98       _CreateRectRgnIndirect@4   10029f98 f   gdi32:GDI32.dll
 0001:00028f9e       _DeleteDC@4                10029f9e f   gdi32:GDI32.dll
 0001:00028fa4       _DeleteMetaFile@4          10029fa4 f   gdi32:GDI32.dll
 0001:00028faa       _GetDeviceCaps@8           10029faa f   gdi32:GDI32.dll
 0001:00028fb0       _RestoreDC@8               10029fb0 f   gdi32:GDI32.dll
 0001:00028fb6       _SaveDC@4                  10029fb6 f   gdi32:GDI32.dll
 0001:00028fbc       _SetMapMode@8              10029fbc f   gdi32:GDI32.dll
 0001:00028fc2       _LPtoDP@12                 10029fc2 f   gdi32:GDI32.dll
 0001:00028fc8       _SetViewportOrgEx@16       10029fc8 f   gdi32:GDI32.dll
 0001:00028fce       _SetWindowExtEx@16         10029fce f   gdi32:GDI32.dll
 0001:00028fd4       _SetWindowOrgEx@16         10029fd4 f   gdi32:GDI32.dll
 0001:00028fda       _BitBlt@36                 10029fda f   gdi32:GDI32.dll
 0001:00028fe0       _CreateCompatibleDC@4      10029fe0 f   gdi32:GDI32.dll
 0001:00028fe6       _DeleteObject@4            10029fe6 f   gdi32:GDI32.dll
 0001:00028fec       _SelectObject@8            10029fec f   gdi32:GDI32.dll
 0001:00028ff2       _GetObjectW@12             10029ff2 f   gdi32:GDI32.dll
 0001:00028ff8       _RegCloseKey@4             10029ff8 f   advapi32:ADVAPI32.dll
 0001:00028ffe       _RegCreateKeyExW@36        10029ffe f   advapi32:ADVAPI32.dll
 0001:00029004       _RegDeleteKeyW@8           1002a004 f   advapi32:ADVAPI32.dll
 0001:0002900a       _RegDeleteValueW@8         1002a00a f   advapi32:ADVAPI32.dll
 0001:00029010       _RegEnumKeyExW@32          1002a010 f   advapi32:ADVAPI32.dll
 0001:00029016       _RegOpenKeyExW@20          1002a016 f   advapi32:ADVAPI32.dll
 0001:0002901c       _RegQueryInfoKeyW@48       1002a01c f   advapi32:ADVAPI32.dll
 0001:00029022       _RegSetValueExW@24         1002a022 f   advapi32:ADVAPI32.dll
 0001:00029028       _RegQueryValueExW@24       1002a028 f   advapi32:ADVAPI32.dll
 0001:0002902e       _CoCreateInstance@20       1002a02e f   ole32:ole32.dll
 0001:00029034       _StringFromGUID2@12        1002a034 f   ole32:ole32.dll
 0001:0002903a       _CoTaskMemAlloc@4          1002a03a f   ole32:ole32.dll
 0001:00029040       _CoTaskMemRealloc@8        1002a040 f   ole32:ole32.dll
 0001:00029046       _CoTaskMemFree@4           1002a046 f   ole32:ole32.dll
 0001:0002904c       _ReadClassStm@8            1002a04c f   ole32:ole32.dll
 0001:00029052       _WriteClassStm@8           1002a052 f   ole32:ole32.dll
 0001:00029058       _CreateDataAdviseHolder@4  1002a058 f   ole32:ole32.dll
 0001:0002905e       _OleSaveToStream@8         1002a05e f   ole32:ole32.dll
 0001:00029064       _CreateOleAdviseHolder@4   1002a064 f   ole32:ole32.dll
 0001:0002906a       _OleRegGetUserType@12      1002a06a f   ole32:ole32.dll
 0001:00029070       _OleRegGetMiscStatus@12    1002a070 f   ole32:ole32.dll
 0001:00029076       _OleRegEnumVerbs@8         1002a076 f   ole32:ole32.dll
 0001:0002907c       _CLSIDFromProgID@8         1002a07c f   ole32:ole32.dll
 0001:00029082       _SysAllocString@4          1002a082 f   oleaut32:OLEAUT32.dll
 0001:00029088       _SysAllocStringLen@8       1002a088 f   oleaut32:OLEAUT32.dll
 0001:0002908e       _SysFreeString@4           1002a08e f   oleaut32:OLEAUT32.dll
 0001:00029094       _SysStringLen@4            1002a094 f   oleaut32:OLEAUT32.dll
 0001:0002909a       _VariantClear@4            1002a09a f   oleaut32:OLEAUT32.dll
 0001:000290a0       _VariantCopyInd@8          1002a0a0 f   oleaut32:OLEAUT32.dll
 0001:000290a6       _VariantChangeType@16      1002a0a6 f   oleaut32:OLEAUT32.dll
 0001:000290ac       _SysStringByteLen@4        1002a0ac f   oleaut32:OLEAUT32.dll
 0001:000290b2       _SysAllocStringByteLen@8   1002a0b2 f   oleaut32:OLEAUT32.dll
 0001:000290b8       _VariantInit@4             1002a0b8 f   oleaut32:OLEAUT32.dll
 0001:000290be       _VarUI4FromStr@16          1002a0be f   oleaut32:OLEAUT32.dll
 0001:000290c4       _LoadTypeLib@8             1002a0c4 f   oleaut32:OLEAUT32.dll
 0001:000290ca       _LoadRegTypeLib@20         1002a0ca f   oleaut32:OLEAUT32.dll
 0001:000290d0       _RegisterTypeLib@12        1002a0d0 f   oleaut32:OLEAUT32.dll
 0001:000290d6       _UnRegisterTypeLib@20      1002a0d6 f   oleaut32:OLEAUT32.dll
 0001:000290dc       _OleCreatePropertyFrame@44 1002a0dc f   oleaut32:OLEAUT32.dll
 0001:000290f0       @_RTC_AllocaHelper@12      1002a0f0 f   LIBCMTD:stack.obj
 0001:00029130       @_RTC_CheckStackVars2@12   1002a130 f   LIBCMTD:stack.obj
 0001:00029210       @_RTC_CheckStackVars@8     1002a210 f   LIBCMTD:stack.obj
 0001:00029270       __RTC_CheckEsp             1002a270 f   LIBCMTD:stack.obj
 0001:000292b0       @__security_check_cookie@4 1002a2b0 f   LIBCMTD:secchk.obj
 0001:000292d0       __CRT_RTC_INIT             1002a2d0 f   LIBCMTD:init.obj
 0001:000292e0       __CRT_RTC_INITW            1002a2e0 f   LIBCMTD:init.obj
 0001:000292f0       __RTC_InitBase             1002a2f0 f   LIBCMTD:init.obj
 0001:00029320       __RTC_Shutdown             1002a320 f   LIBCMTD:init.obj
 0001:00029340       ??_U@YAPAXI@Z              1002a340 f   LIBCMTD:new_array.obj
 0001:00029360       ??3@YAXPAXI@Z              1002a360 f   LIBCMTD:delete_scalar_size.obj
 0001:00029380       ??_V@YAXPAX@Z              1002a380 f   LIBCMTD:delete_array.obj
 0001:000293a0       ??_V@YAXPAXI@Z             1002a3a0 f   LIBCMTD:delete_array_size.obj
 0001:000293c0       ?configure_argv@__scrt_narrow_argv_policy@@SAHXZ 1002a3c0 f i LIBCMTD:utility.obj
 0001:00029470       ?initialize_environment@__scrt_narrow_environment_policy@@SAHXZ 1002a470 f i LIBCMTD:utility.obj
 0001:000294f0       _NtCurrentTeb              1002a4f0 f i LIBCMTD:utility.obj
 0001:00029500       ___scrt_acquire_startup_lock 1002a500 f   LIBCMTD:utility.obj
 0001:00029550       ___scrt_dllmain_after_initialize_c 1002a550 f   LIBCMTD:utility.obj
 0001:00029580       ___scrt_dllmain_before_initialize_c 1002a580 f   LIBCMTD:utility.obj
 0001:000295a0       ___scrt_dllmain_crt_thread_attach 1002a5a0 f   LIBCMTD:utility.obj
 0001:000295d0       ___scrt_dllmain_crt_thread_detach 1002a5d0 f   LIBCMTD:utility.obj
 0001:000295f0       ___scrt_dllmain_exception_filter 1002a5f0 f   LIBCMTD:utility.obj
 0001:00029640       ___scrt_dllmain_uninitialize_c 1002a640 f   LIBCMTD:utility.obj
 0001:00029670       ___scrt_dllmain_uninitialize_critical 1002a670 f   LIBCMTD:utility.obj
 0001:00029690       ___scrt_initialize_crt     1002a690 f   LIBCMTD:utility.obj
 0001:000296e0       ___scrt_initialize_onexit_tables 1002a6e0 f   LIBCMTD:utility.obj
 0001:000297c0       ___scrt_is_nonwritable_in_current_image 1002a7c0 f   LIBCMTD:utility.obj
 0001:000298f0       ___scrt_release_startup_lock 1002a8f0 f   LIBCMTD:utility.obj
 0001:00029920       ___scrt_uninitialize_crt   1002a920 f   LIBCMTD:utility.obj
 0001:00029960       __onexit                   1002a960 f   LIBCMTD:utility.obj
 0001:000299d0       _at_quick_exit             1002a9d0 f   LIBCMTD:utility.obj
 0001:00029a10       _atexit                    1002aa10 f   LIBCMTD:utility.obj
 0001:00029a40       ??3@YAXPAX@Z               1002aa40 f   LIBCMTD:delete_scalar.obj
 0001:00029a60       ___raise_securityfailure   1002aa60 f   LIBCMTD:gs_report.obj
 0001:00029a90       ___report_gsfailure        1002aa90 f   LIBCMTD:gs_report.obj
 0001:00029ba0       ___report_rangecheckfailure 1002aba0 f   LIBCMTD:gs_report.obj
 0001:00029bb0       ___report_securityfailure  1002abb0 f   LIBCMTD:gs_report.obj
 0001:00029c90       ___report_securityfailureEx 1002ac90 f   LIBCMTD:gs_report.obj
 0001:00029ee0       __Init_thread_abort        1002aee0 f   LIBCMTD:thread_safe_statics.obj
 0001:00029f00       __Init_thread_footer       1002af00 f   LIBCMTD:thread_safe_statics.obj
 0001:00029f50       __Init_thread_header       1002af50 f   LIBCMTD:thread_safe_statics.obj
 0001:00029fc0       __Init_thread_lock         1002afc0 f   LIBCMTD:thread_safe_statics.obj
 0001:00029fd0       __Init_thread_notify       1002afd0 f   LIBCMTD:thread_safe_statics.obj
 0001:0002a020       __Init_thread_unlock       1002b020 f   LIBCMTD:thread_safe_statics.obj
 0001:0002a030       __Init_thread_wait         1002b030 f   LIBCMTD:thread_safe_statics.obj
 0001:0002a0c0       ??2@YAPAXIABUnothrow_t@std@@@Z 1002b0c0 f   LIBCMTD:new_scalar_nothrow.obj
 0001:0002a140       ??_U@YAPAXIABUnothrow_t@std@@@Z 1002b140 f   LIBCMTD:new_array_nothrow.obj
 0001:0002a160       __allmul                   1002b160 f   LIBCMTD:llmul.obj
 0001:0002a1a0       __alloca_probe_16          1002b1a0 f   LIBCMTD:alloca16.obj
 0001:0002a1b6       __alloca_probe_8           1002b1b6     LIBCMTD:alloca16.obj
 0001:0002a1d0       __chkstk                   1002b1d0 f   LIBCMTD:chkstk.obj
 0001:0002a1d0       __alloca_probe             1002b1d0 f   LIBCMTD:chkstk.obj
 0001:0002a6d0       __CRT_INIT@12              1002b6d0 f   LIBCMTD:dll_dllmain.obj
 0001:0002a6f0       __DllMainCRTStartup@12     1002b6f0 f   LIBCMTD:dll_dllmain.obj
 0001:0002a7b0       ?_RTC_AllocaFailure@@YAXPAXPAU_RTC_ALLOCA_NODE@@H@Z 1002b7b0 f   LIBCMTD:error.obj
 0001:0002a8a0       ?_RTC_Failure@@YAXPAXH@Z   1002b8a0 f   LIBCMTD:error.obj
 0001:0002a8f0       ?_RTC_StackFailure@@YAXPAXPBD@Z 1002b8f0 f   LIBCMTD:error.obj
 0001:0002acb0       __RTC_UninitUse            1002bcb0 f   LIBCMTD:error.obj
 0001:0002ad60       __vsprintf_s_l             1002bd60 f i LIBCMTD:error.obj
 0001:0002ad90       _sprintf_s                 1002bd90 f i LIBCMTD:error.obj
 0001:0002adb0       ?_RTC_GetErrorFunc@@YAP6AHHPBDH00ZZPBX@Z 1002bdb0 f   LIBCMTD:userapi.obj
 0001:0002adc0       ?_RTC_GetErrorFuncW@@YAP6AHHPB_WH00ZZPBX@Z 1002bdc0 f   LIBCMTD:userapi.obj
 0001:0002add0       __RTC_GetErrDesc           1002bdd0 f   LIBCMTD:userapi.obj
 0001:0002adf0       __RTC_NumErrors            1002bdf0 f   LIBCMTD:userapi.obj
 0001:0002ae00       __RTC_SetErrorFunc         1002be00 f   LIBCMTD:userapi.obj
 0001:0002ae20       __RTC_SetErrorFuncW        1002be20 f   LIBCMTD:userapi.obj
 0001:0002ae40       __RTC_SetErrorType         1002be40 f   LIBCMTD:userapi.obj
 0001:0002ae70       ??2@YAPAXI@Z               1002be70 f   LIBCMTD:new_scalar.obj
 0001:0002aec0       ___isa_available_init      1002bec0 f   LIBCMTD:cpu_disp.obj
 0001:0002b200       __get_startup_argv_mode    1002c200 f   LIBCMTD:argv_mode.obj
 0001:0002b210       ___scrt_is_ucrt_dll_in_use 1002c210 f   LIBCMTD:ucrt_detection.obj
 0001:0002b240       ___scrt_fastfail           1002c240 f   LIBCMTD:utility_desktop.obj
 0001:0002b380       ___scrt_get_show_window_mode 1002c380 f   LIBCMTD:utility_desktop.obj
 0001:0002b3c0       ___scrt_initialize_mta     1002c3c0 f   LIBCMTD:utility_desktop.obj
 0001:0002b3d0       ___scrt_initialize_winrt   1002c3d0 f   LIBCMTD:utility_desktop.obj
 0001:0002b3e0       ___scrt_is_managed_app     1002c3e0 f   LIBCMTD:utility_desktop.obj
 0001:0002b470       ___scrt_set_unhandled_exception_filter 1002c470 f   LIBCMTD:utility_desktop.obj
 0001:0002b480       ___scrt_exe_initialize_mta 1002c480 f   LIBCMTD:utility_desktop.obj
 0001:0002b480       ___scrt_stub_for_initialize_mta 1002c480 f   LIBCMTD:utility_desktop.obj
 0001:0002b490       ___scrt_unhandled_exception_filter@4 1002c490 f   LIBCMTD:utility_desktop.obj
 0001:0002b510       __crt_debugger_hook        1002c510 f   LIBCMTD:utility_desktop.obj
 0001:0002b520       @_guard_check_icall_nop@4  1002c520 f i LIBCMTD:guard_support.obj
 0001:0002b530       _ReadNoFence               1002c530 f i LIBCMTD:guard_support.obj
 0001:0002b550       _ReadPointerNoFence        1002c550 f i LIBCMTD:guard_support.obj
 0001:0002b570       __guard_icall_checks_enforced 1002c570 f i LIBCMTD:guard_support.obj
 0001:0002b610       ___security_init_cookie    1002c610 f   LIBCMTD:gs_support.obj
 0001:0002b690       ?__scrt_initialize_type_info@@YAXXZ 1002c690 f   LIBCMTD:tncleanup.obj
 0001:0002b6a0       ?__scrt_uninitialize_type_info@@YAXXZ 1002c6a0 f   LIBCMTD:tncleanup.obj
 0001:0002b6c0       ___local_stdio_scanf_options 1002c6c0 f i LIBCMTD:default_local_stdio_options.obj
 0001:0002b6d0       ___scrt_initialize_default_local_stdio_options 1002c6d0 f   LIBCMTD:default_local_stdio_options.obj
 0001:0002b710       ___scrt_get_dyn_tls_init_callback 1002c710 f   LIBCMTD:dyn_tls_init.obj
 0001:0002b720       __RTC_Initialize           1002c720 f   LIBCMTD:initsect.obj
 0001:0002b750       __RTC_Terminate            1002c750 f   LIBCMTD:initsect.obj
 0001:0002bc00       ?_RTC_GetSrcLine@@YAHPAEPA_WKPAH1K@Z 1002cc00 f   LIBCMTD:pdblkup.obj
 0001:0002bf80       __except_handler4_noexcept 1002cf80 f   LIBCMTD:chandler4_noexcept.obj
 0001:0002bfe0       ??0bad_alloc@std@@AAE@QBD@Z 1002cfe0 f i LIBCMTD:throw_bad_alloc.obj
 0001:0002c010       ??0bad_alloc@std@@QAE@ABV01@@Z 1002d010 f i LIBCMTD:throw_bad_alloc.obj
 0001:0002c040       ??0bad_alloc@std@@QAE@XZ   1002d040 f i LIBCMTD:throw_bad_alloc.obj
 0001:0002c070       ??0bad_array_new_length@std@@QAE@ABV01@@Z 1002d070 f i LIBCMTD:throw_bad_alloc.obj
 0001:0002c0a0       ??0bad_array_new_length@std@@QAE@XZ 1002d0a0 f i LIBCMTD:throw_bad_alloc.obj
 0001:0002c0d0       ??0exception@std@@QAE@ABV01@@Z 1002d0d0 f i LIBCMTD:throw_bad_alloc.obj
 0001:0002c110       ??0exception@std@@QAE@QBDH@Z 1002d110 f i LIBCMTD:throw_bad_alloc.obj
 0001:0002c140       ??1bad_alloc@std@@UAE@XZ   1002d140 f i LIBCMTD:throw_bad_alloc.obj
 0001:0002c160       ??1bad_array_new_length@std@@UAE@XZ 1002d160 f i LIBCMTD:throw_bad_alloc.obj
 0001:0002c180       ??1exception@std@@UAE@XZ   1002d180 f i LIBCMTD:throw_bad_alloc.obj
 0001:0002c1b0       ??_Ebad_alloc@std@@UAEPAXI@Z 1002d1b0 f i LIBCMTD:throw_bad_alloc.obj
 0001:0002c1b0       ??_Gbad_alloc@std@@UAEPAXI@Z 1002d1b0 f i LIBCMTD:throw_bad_alloc.obj
 0001:0002c1e0       ??_Ebad_array_new_length@std@@UAEPAXI@Z 1002d1e0 f i LIBCMTD:throw_bad_alloc.obj
 0001:0002c1e0       ??_Gbad_array_new_length@std@@UAEPAXI@Z 1002d1e0 f i LIBCMTD:throw_bad_alloc.obj
 0001:0002c210       ??_Eexception@std@@UAEPAXI@Z 1002d210 f i LIBCMTD:throw_bad_alloc.obj
 0001:0002c210       ??_Gexception@std@@UAEPAXI@Z 1002d210 f i LIBCMTD:throw_bad_alloc.obj
 0001:0002c240       ?__scrt_throw_std_bad_alloc@@YAXXZ 1002d240 f   LIBCMTD:throw_bad_alloc.obj
 0001:0002c260       ?__scrt_throw_std_bad_array_new_length@@YAXXZ 1002d260 f   LIBCMTD:throw_bad_alloc.obj
 0001:0002c280       ?what@exception@std@@UBEPBDXZ 1002d280 f i LIBCMTD:throw_bad_alloc.obj
 0001:0002c2b0       ??1type_info@@UAE@XZ       1002d2b0 f   LIBCMTD:std_type_info_static.obj
 0001:0002c2d0       ??_Etype_info@@UAEPAXI@Z   1002d2d0 f i LIBCMTD:std_type_info_static.obj
 0001:0002c2d0       ??_Gtype_info@@UAEPAXI@Z   1002d2d0 f i LIBCMTD:std_type_info_static.obj
 0001:0002c2fe       ??$?2PAUHINSTANCE__@@@Wrapper@?$CSimpleArray@PAUHINSTANCE__@@V?$CSimpleArrayEqualHelper@PAUHINSTANCE__@@@ATL@@@ATL@@SAPAXIPAPAUHINSTANCE__@@@Z 1002d2fe f i atls:atlbase.obj
 0001:0002c306       ??0?$CSimpleArray@PAUHINSTANCE__@@V?$CSimpleArrayEqualHelper@PAUHINSTANCE__@@@ATL@@@ATL@@QAE@XZ 1002d306 f i atls:atlbase.obj
 0001:0002c313       ??0CAtlBaseModule@ATL@@QAE@XZ 1002d313 f   atls:atlbase.obj
 0001:0002c366       ??0Wrapper@?$CSimpleArray@PAUHINSTANCE__@@V?$CSimpleArrayEqualHelper@PAUHINSTANCE__@@@ATL@@@ATL@@QAE@ABQAUHINSTANCE__@@@Z 1002d366 f i atls:atlbase.obj
 0001:0002c376       ??0_ATL_BASE_MODULE70@ATL@@QAE@XZ 1002d376 f i atls:atlbase.obj
 0001:0002c399       ??1?$CSimpleArray@PAUHINSTANCE__@@V?$CSimpleArrayEqualHelper@PAUHINSTANCE__@@@ATL@@@ATL@@QAE@XZ 1002d399 f i atls:atlbase.obj
 0001:0002c39e       ??1CAtlBaseModule@ATL@@QAE@XZ 1002d39e f   atls:atlbase.obj
 0001:0002c3b4       ??1_ATL_BASE_MODULE70@ATL@@QAE@XZ 1002d3b4 f i atls:atlbase.obj
 0001:0002c3bc       ??A?$CSimpleArray@PAUHINSTANCE__@@V?$CSimpleArrayEqualHelper@PAUHINSTANCE__@@@ATL@@@ATL@@QAEAAPAUHINSTANCE__@@H@Z 1002d3bc f i atls:atlbase.obj
 0001:0002c3e1       ?Add@?$CSimpleArray@PAUHINSTANCE__@@V?$CSimpleArrayEqualHelper@PAUHINSTANCE__@@@ATL@@@ATL@@QAEHABQAUHINSTANCE__@@@Z 1002d3e1 f i atls:atlbase.obj
 0001:0002c463       ?AddResourceInstance@CAtlBaseModule@ATL@@QAE_NPAUHINSTANCE__@@@Z 1002d463 f   atls:atlbase.obj
 0001:0002c496       ?GetHInstanceAt@CAtlBaseModule@ATL@@QAEPAUHINSTANCE__@@H@Z 1002d496 f   atls:atlbase.obj
 0001:0002c4db       ?GetSize@?$CSimpleArray@PAUHINSTANCE__@@V?$CSimpleArrayEqualHelper@PAUHINSTANCE__@@@ATL@@@ATL@@QBEHXZ 1002d4db f i atls:atlbase.obj
 0001:0002c4df       ?InternalSetAtIndex@?$CSimpleArray@PAUHINSTANCE__@@V?$CSimpleArrayEqualHelper@PAUHINSTANCE__@@@ATL@@@ATL@@QAEXHABQAUHINSTANCE__@@@Z 1002d4df f i atls:atlbase.obj
 0001:0002c4f9       ?RemoveAll@?$CSimpleArray@PAUHINSTANCE__@@V?$CSimpleArrayEqualHelper@PAUHINSTANCE__@@@ATL@@@ATL@@QAEXXZ 1002d4f9 f i atls:atlbase.obj
 0001:0002c516       ?RemoveAt@?$CSimpleArray@PAUHINSTANCE__@@V?$CSimpleArrayEqualHelper@PAUHINSTANCE__@@@ATL@@@ATL@@QAEHH@Z 1002d516 f i atls:atlbase.obj
 0001:0002c564       ?RemoveResourceInstance@CAtlBaseModule@ATL@@QAE_NPAUHINSTANCE__@@@Z 1002d564 f   atls:atlbase.obj
 0001:0002c5c1       ?memmove_s@Checked@ATL@@YAXPAXIPBXI@Z 1002d5c1 f i atls:atlbase.obj
 0001:0002c91e       ?GetCodeAddress@_stdcallthunk@ATL@@QAEPAXXZ 1002d91e f i atls:atlthunk.obj
 0001:0002c948       ?Init@_stdcallthunk@ATL@@QAEHKPAX@Z 1002d948 f i atls:atlthunk.obj
 0001:0002c97d       ?__AllocStdCallThunk@@YGPAXXZ 1002d97d f   atls:atlthunk.obj
 0001:0002c982       ?__AllocStdCallThunk@ATL@@YGPAXXZ 1002d982 f   atls:atlthunk.obj
 0001:0002c987       ?__AllocStdCallThunk_cmn@@YAPAXXZ 1002d987 f   atls:atlthunk.obj
 0001:0002ca4d       ?__FreeStdCallThunk@@YGXPAX@Z 1002da4d f   atls:atlthunk.obj
 0001:0002ca5d       ?__FreeStdCallThunk@ATL@@YGXPAX@Z 1002da5d f   atls:atlthunk.obj
 0001:0002ca6d       ?__FreeStdCallThunk_cmn@@YAXPAX@Z 1002da6d f   atls:atlthunk.obj
 0001:0002cb08       _AtlThunk_AllocateData@0   1002db08 f   atls:atlthunk.obj
 0001:0002cb6d       _AtlThunk_DataToCode@4     1002db6d f   atls:atlthunk.obj
 0001:0002cbb4       _AtlThunk_FreeData@4       1002dbb4 f   atls:atlthunk.obj
 0001:0002cc0a       _AtlThunk_InitData@12      1002dc0a f   atls:atlthunk.obj
 0001:0002cc59       _MemoryBarrier             1002dc59 f i atls:atlthunk.obj
 0001:0002cc67       __InlineInterlockedCompareExchangePointer 1002dc67 f i atls:atlthunk.obj
 0001:0002cc80       _memset                    1002dc80 f   libvcruntimed:memset.obj
 0001:0002cde0       ??$__crt_interlocked_exchange_pointer@$$A6AXXZP6AXXZ@@YAP6AXXZPDS6AXXZQ6AXXZ@Z 1002dde0 f i libvcruntimed:purevirt.obj
 0001:0002cdf0       ??$__crt_interlocked_read_pointer@$$A6AXXZ@@YAP6AXXZPDS6AXXZ@Z 1002ddf0 f i libvcruntimed:purevirt.obj
 0001:0002ce10       ?__crt_interlocked_read_32@@YAHPDH@Z 1002de10 f i libvcruntimed:purevirt.obj
 0001:0002ce30       __get_purecall_handler     1002de30 f   libvcruntimed:purevirt.obj
 0001:0002ce50       __purecall                 1002de50 f   libvcruntimed:purevirt.obj
 0001:0002ce80       __set_purecall_handler     1002de80 f   libvcruntimed:purevirt.obj
 0001:0002d050       _memcmp                    1002e050 f   libvcruntimed:memcmp.obj
 0001:0002d920       _memcpy                    1002e920 f   libvcruntimed:memcpy.obj
 0001:0002dea0       _wcsstr                    1002eea0 f   libvcruntimed:wcsstr.obj
 0001:0002e3d0       __except_handler4          1002f3d0 f   libvcruntimed:chandler4.obj
 0001:0002e5c0       ___vcrt_initialize         1002f5c0 f   libvcruntimed:initialization.obj
 0001:0002e600       ___vcrt_thread_attach      1002f600 f   libvcruntimed:initialization.obj
 0001:0002e620       ___vcrt_thread_detach      1002f620 f   libvcruntimed:initialization.obj
 0001:0002e640       ___vcrt_uninitialize       1002f640 f   libvcruntimed:initialization.obj
 0001:0002e660       ___vcrt_uninitialize_critical 1002f660 f   libvcruntimed:initialization.obj
 0001:0002e680       ??$?0AAViterator@TryBlockMap@__FrameHandler3@@AAV012@$0A@@?$pair@Viterator@TryBlockMap@__FrameHandler3@@V123@@std@@QAE@AAViterator@TryBlockMap@__FrameHandler3@@0@Z 1002f680 f i libvcruntimed:trnsctrl.obj
 0001:0002e6d0       ??$forward@AAViterator@TryBlockMap@__FrameHandler3@@@std@@YAAAViterator@TryBlockMap@__FrameHandler3@@AAV123@@Z 1002f6d0 f i libvcruntimed:trnsctrl.obj
 0001:0002e6e0       ??0iterator@TryBlockMap@__FrameHandler3@@QAE@AAV12@I@Z 1002f6e0 f i libvcruntimed:trnsctrl.obj
 0001:0002e710       ?GetRangeOfTrysToCheck@__FrameHandler3@@SA?AU?$pair@Viterator@TryBlockMap@__FrameHandler3@@V123@@std@@AAVTryBlockMap@1@HPAXPBU_s_FuncInfo@@H@Z 1002f710 f   libvcruntimed:trnsctrl.obj
 0001:0002e7f0       ?_CallCatchBlock2@@YAPAXPAUEHRegistrationNode@@PBU_s_FuncInfo@@PAXHK@Z 1002f7f0 f   libvcruntimed:trnsctrl.obj
 0001:0002e860       ?_CallSETranslator@@YAHPAUEHExceptionRecord@@PAUEHRegistrationNode@@PAX2PBU_s_FuncInfo@@H1@Z 1002f860 f   libvcruntimed:trnsctrl.obj
 0001:0002e960       ?_JumpToContinuation@@YGXPAXPAUEHRegistrationNode@@@Z 1002f960 f   libvcruntimed:trnsctrl.obj
 0001:0002e9a0       ?_UnwindNestedFrames@@YGXPAUEHRegistrationNode@@PAUEHExceptionRecord@@@Z 1002f9a0 f   libvcruntimed:trnsctrl.obj
 0001:0002ea00       __CatchGuardHandler        1002fa00 f   libvcruntimed:trnsctrl.obj
 0001:0002ea50       __CreateFrameInfo          1002fa50 f   libvcruntimed:trnsctrl.obj
 0001:0002ea80       __FindAndUnlinkFrame       1002fa80 f   libvcruntimed:trnsctrl.obj
 0001:0002eaf0       __TranslatorGuardHandler   1002faf0 f   libvcruntimed:trnsctrl.obj
 0001:0002eba0       ___CxxFrameHandler         1002fba0 f   libvcruntimed:trnsctrl.obj
 0001:0002ebe0       ___CxxFrameHandler2        1002fbe0 f   libvcruntimed:trnsctrl.obj
 0001:0002ec20       ___CxxFrameHandler3        1002fc20 f   libvcruntimed:trnsctrl.obj
 0001:0002ec60       ___CxxLongjmpUnwind@4      1002fc60 f   libvcruntimed:trnsctrl.obj
 0001:0002eca0       ___DestructExceptionObject 1002fca0 f   libvcruntimed:ehhelpers.obj
 0001:0002edc0       ?_CallMemberFunction0@@YGXQAX0@Z 1002fdc0 f i libvcruntimed:ehhelpers.obj
 0001:0002ee60       ?raw_name@type_info@@QBEPBDXZ 1002fe60 f i libvcruntimed:ehhelpers.obj
 0001:0002ee80       __IsExceptionObjectToBeDestroyed 1002fe80 f   libvcruntimed:ehhelpers.obj
 0001:0002eec0       __SetWinRTOutOfMemoryExceptionCallback 1002fec0 f   libvcruntimed:ehhelpers.obj
 0001:0002eed0       ___AdjustPointer           1002fed0 f   libvcruntimed:ehhelpers.obj
 0001:0002ef20       ___FrameUnwindFilter       1002ff20 f   libvcruntimed:ehhelpers.obj
 0001:0002efb0       ___GetPlatformExceptionInfo 1002ffb0 f   libvcruntimed:ehhelpers.obj
 0001:0002f030       ___current_exception       10030030 f   libvcruntimed:ehhelpers.obj
 0001:0002f040       ___current_exception_context 10030040 f   libvcruntimed:ehhelpers.obj
 0001:0002f050       ___processing_throw        10030050 f   libvcruntimed:ehhelpers.obj
 0001:0002f060       ___std_terminate           10030060 f   libvcruntimed:ehhelpers.obj
 0001:0002f070       __is_exception_typeof      10030070 f   libvcruntimed:ehhelpers.obj
 0001:0002f170       ??$?RD@__crt_internal_free_policy@@QBEXQBD@Z 10030170 f i libvcruntimed:std_type_info.obj
 0001:0002f190       ??$?RX@__crt_internal_free_policy@@QBEXQBX@Z 10030190 f i libvcruntimed:std_type_info.obj
 0001:0002f1b0       ??$__crt_interlocked_compare_exchange_pointer@$$CBDPAD$$T@@YAPBDPDSBDQAD$$T@Z 100301b0 f i libvcruntimed:std_type_info.obj
 0001:0002f1d0       ??$__crt_interlocked_read_pointer@$$CBD@@YAPBDPDSBD@Z 100301d0 f i libvcruntimed:std_type_info.obj
 0001:0002f1f0       ??0?$__crt_unique_heap_ptr@DU__crt_internal_free_policy@@@@QAE@QAD@Z 100301f0 f i libvcruntimed:std_type_info.obj
 0001:0002f210       ??0?$__crt_unique_heap_ptr@XU__crt_internal_free_policy@@@@QAE@QAX@Z 10030210 f i libvcruntimed:std_type_info.obj
 0001:0002f230       ??1?$__crt_unique_heap_ptr@DU__crt_internal_free_policy@@@@QAE@XZ 10030230 f i libvcruntimed:std_type_info.obj
 0001:0002f250       ??1?$__crt_unique_heap_ptr@XU__crt_internal_free_policy@@@@QAE@XZ 10030250 f i libvcruntimed:std_type_info.obj
 0001:0002f270       ??B?$__crt_unique_heap_ptr@DU__crt_internal_free_policy@@@@QBE_NXZ 10030270 f i libvcruntimed:std_type_info.obj
 0001:0002f290       ??B?$__crt_unique_heap_ptr@XU__crt_internal_free_policy@@@@QBE_NXZ 10030290 f i libvcruntimed:std_type_info.obj
 0001:0002f320       ?detach@?$__crt_unique_heap_ptr@XU__crt_internal_free_policy@@@@QAEPAXXZ 10030320 f i libvcruntimed:std_type_info.obj
 0001:0002f350       ?get@?$__crt_unique_heap_ptr@DU__crt_internal_free_policy@@@@QBEPADXZ 10030350 f i libvcruntimed:std_type_info.obj
 0001:0002f360       ?get@?$__crt_unique_heap_ptr@XU__crt_internal_free_policy@@@@QBEPAXXZ 10030360 f i libvcruntimed:std_type_info.obj
 0001:0002f370       ?is_valid@?$__crt_unique_heap_ptr@DU__crt_internal_free_policy@@@@QBE_NXZ 10030370 f i libvcruntimed:std_type_info.obj
 0001:0002f3a0       ?is_valid@?$__crt_unique_heap_ptr@XU__crt_internal_free_policy@@@@QBE_NXZ 100303a0 f i libvcruntimed:std_type_info.obj
 0001:0002f3d0       ?release@?$__crt_unique_heap_ptr@DU__crt_internal_free_policy@@@@QAEXXZ 100303d0 f i libvcruntimed:std_type_info.obj
 0001:0002f400       ?release@?$__crt_unique_heap_ptr@XU__crt_internal_free_policy@@@@QAEXXZ 10030400 f i libvcruntimed:std_type_info.obj
 0001:0002f430       ___std_type_info_compare   10030430 f   libvcruntimed:std_type_info.obj
 0001:0002f460       ___std_type_info_destroy_list 10030460 f   libvcruntimed:std_type_info.obj
 0001:0002f4a0       ___std_type_info_hash      100304a0 f   libvcruntimed:std_type_info.obj
 0001:0002f500       ___std_type_info_name      10030500 f   libvcruntimed:std_type_info.obj
 0001:0002f6e0       ___vcrt_GetModuleFileNameW 100306e0 f   libvcruntimed:winapi_thunks.obj
 0001:0002f700       ___vcrt_GetModuleHandleW   10030700 f   libvcruntimed:winapi_thunks.obj
 0001:0002f710       ___vcrt_LoadLibraryExW     10030710 f   libvcruntimed:winapi_thunks.obj
 0001:0002f730       ??$?RD@__crt_public_free_policy@@QBEXQBD@Z 10030730 f i libvcruntimed:std_exception.obj
 0001:0002f750       ??0?$__crt_unique_heap_ptr@DU__crt_public_free_policy@@@@QAE@QAD@Z 10030750 f i libvcruntimed:std_exception.obj
 0001:0002f770       ??1?$__crt_unique_heap_ptr@DU__crt_public_free_policy@@@@QAE@XZ 10030770 f i libvcruntimed:std_exception.obj
 0001:0002f790       ??B?$__crt_unique_heap_ptr@DU__crt_public_free_policy@@@@QBE_NXZ 10030790 f i libvcruntimed:std_exception.obj
 0001:0002f7b0       ?detach@?$__crt_unique_heap_ptr@DU__crt_public_free_policy@@@@QAEPADXZ 100307b0 f i libvcruntimed:std_exception.obj
 0001:0002f7e0       ?get@?$__crt_unique_heap_ptr@DU__crt_public_free_policy@@@@QBEPADXZ 100307e0 f i libvcruntimed:std_exception.obj
 0001:0002f7f0       ?is_valid@?$__crt_unique_heap_ptr@DU__crt_public_free_policy@@@@QBE_NXZ 100307f0 f i libvcruntimed:std_exception.obj
 0001:0002f820       ?release@?$__crt_unique_heap_ptr@DU__crt_public_free_policy@@@@QAEXXZ 10030820 f i libvcruntimed:std_exception.obj
 0001:0002f850       ___std_exception_copy      10030850 f   libvcruntimed:std_exception.obj
 0001:0002f940       ___std_exception_destroy   10030940 f   libvcruntimed:std_exception.obj
 0001:0002f970       __CxxThrowException@8      10030970 f   libvcruntimed:throw.obj
 0001:0002fa20       _memmove                   10030a20 f   libvcruntimed:memmove.obj
 0001:0002ffa0       __local_unwind4            10030fa0 f   libvcruntimed:exsup4.obj
 0001:00030078       __seh_longjmp_unwind4@4    10031078 f   libvcruntimed:exsup4.obj
 0001:000300a0       @_EH4_CallFilterFunc@8     100310a0 f   libvcruntimed:exsup4.obj
 0001:000300b8       @_EH4_TransferToHandler@8  100310b8 f   libvcruntimed:exsup4.obj
 0001:000300d4       @_EH4_GlobalUnwind2@8      100310d4 f   libvcruntimed:exsup4.obj
 0001:000300f0       @_EH4_LocalUnwind@16       100310f0 f   libvcruntimed:exsup4.obj
 0001:00030120       ___except_validate_context_record 10031120 f   libvcruntimed:jbcxrval.obj
 0001:00030170       ___except_validate_jump_buffer 10031170 f   libvcruntimed:jbcxrval.obj
 0001:00030190       ___except_validate_jump_buffer_common 10031190 f i libvcruntimed:jbcxrval.obj
 0001:000301f0       ??$?RU__vcrt_ptd@@@__crt_internal_free_policy@@QBEXQBU__vcrt_ptd@@@Z 100311f0 f i libvcruntimed:per_thread_data.obj
 0001:00030210       ??0?$__crt_unique_heap_ptr@U__vcrt_ptd@@U__crt_internal_free_policy@@@@QAE@QAU__vcrt_ptd@@@Z 10031210 f i libvcruntimed:per_thread_data.obj
 0001:00030250       ??1?$__crt_unique_heap_ptr@U__vcrt_ptd@@U__crt_internal_free_policy@@@@QAE@XZ 10031250 f i libvcruntimed:per_thread_data.obj
 0001:00030290       ??B?$__crt_unique_heap_ptr@U__vcrt_ptd@@U__crt_internal_free_policy@@@@QBE_NXZ 10031290 f i libvcruntimed:per_thread_data.obj
 0001:000302b0       ?detach@?$__crt_unique_heap_ptr@U__vcrt_ptd@@U__crt_internal_free_policy@@@@QAEPAU__vcrt_ptd@@XZ 100312b0 f i libvcruntimed:per_thread_data.obj
 0001:000302e0       ?get@?$__crt_unique_heap_ptr@U__vcrt_ptd@@U__crt_internal_free_policy@@@@QBEPAU__vcrt_ptd@@XZ 100312e0 f i libvcruntimed:per_thread_data.obj
 0001:000302f0       ?is_valid@?$__crt_unique_heap_ptr@U__vcrt_ptd@@U__crt_internal_free_policy@@@@QBE_NXZ 100312f0 f i libvcruntimed:per_thread_data.obj
 0001:00030320       ?release@?$__crt_unique_heap_ptr@U__vcrt_ptd@@U__crt_internal_free_policy@@@@QAEXXZ 10031320 f i libvcruntimed:per_thread_data.obj
 0001:00030380       ___vcrt_freefls@4          10031380 f   libvcruntimed:per_thread_data.obj
 0001:000303b0       ___vcrt_freeptd            100313b0 f   libvcruntimed:per_thread_data.obj
 0001:00030410       ___vcrt_getptd             10031410 f   libvcruntimed:per_thread_data.obj
 0001:00030430       ___vcrt_getptd_noexit      10031430 f   libvcruntimed:per_thread_data.obj
 0001:00030590       ___vcrt_getptd_noinit      10031590 f   libvcruntimed:per_thread_data.obj
 0001:000305f0       ___vcrt_initialize_ptd     100315f0 f   libvcruntimed:per_thread_data.obj
 0001:00030640       ___vcrt_uninitialize_ptd   10031640 f   libvcruntimed:per_thread_data.obj
 0001:00030670       ___vcrt_initialize_locks   10031670 f   libvcruntimed:locks.obj
 0001:000306d0       ___vcrt_lock               100316d0 f   libvcruntimed:locks.obj
 0001:000306f0       ___vcrt_uninitialize_locks 100316f0 f   libvcruntimed:locks.obj
 0001:00030740       ___vcrt_unlock             10031740 f   libvcruntimed:locks.obj
 0001:000312d0       ??$TypeMatchHelper@V__FrameHandler3@@@@YAHPBU_s_HandlerType@@PBU_s_CatchableType@@PBU_s_ThrowInfo@@@Z 100322d0 f i libvcruntimed:frame.obj
 0001:000313b0       ??$__InternalCxxFrameHandler@V__FrameHandler3@@@@YA?AW4_EXCEPTION_DISPOSITION@@PAUEHExceptionRecord@@PAUEHRegistrationNode@@PAU_CONTEXT@@PAXPBU_s_FuncInfo@@H1E@Z 100323b0 f i libvcruntimed:frame.obj
 0001:00031570       ??0HandlerMap@__FrameHandler3@@QAE@PBU_s_TryBlockMapEntry@@II@Z 10032570 f i libvcruntimed:frame.obj
 0001:000315a0       ??0TryBlockMap@__FrameHandler3@@QAE@PBU_s_FuncInfo@@I@Z 100325a0 f i libvcruntimed:frame.obj
 0001:000315d0       ??0bad_exception@std@@QAE@ABV01@@Z 100325d0 f i libvcruntimed:frame.obj
 0001:00031600       ??0bad_exception@std@@QAE@XZ 10032600 f i libvcruntimed:frame.obj
 0001:00031630       ??0iterator@HandlerMap@__FrameHandler3@@QAE@AAV12@I@Z 10032630 f i libvcruntimed:frame.obj
 0001:00031660       ??1bad_exception@std@@UAE@XZ 10032660 f i libvcruntimed:frame.obj
 0001:00031680       ??8iterator@HandlerMap@__FrameHandler3@@QBE_NABV012@@Z 10032680 f i libvcruntimed:frame.obj
 0001:000316b0       ??8type_info@@QBE_NABV0@@Z 100326b0 f i libvcruntimed:frame.obj
 0001:000316f0       ??9iterator@HandlerMap@__FrameHandler3@@QBE_NABV012@@Z 100326f0 f i libvcruntimed:frame.obj
 0001:00031730       ??Diterator@HandlerMap@__FrameHandler3@@QAE?BU_s_HandlerType@@XZ 10032730 f i libvcruntimed:frame.obj
 0001:00031770       ??Diterator@TryBlockMap@__FrameHandler3@@QAE?BU_s_TryBlockMapEntry@@XZ 10032770 f i libvcruntimed:frame.obj
 0001:000317c0       ??Eiterator@HandlerMap@__FrameHandler3@@QAEAAV012@XZ 100327c0 f i libvcruntimed:frame.obj
 0001:000317e0       ??Eiterator@TryBlockMap@__FrameHandler3@@QAEAAV012@XZ 100327e0 f i libvcruntimed:frame.obj
 0001:00031800       ??Miterator@TryBlockMap@__FrameHandler3@@QBE_NABV012@@Z 10032800 f i libvcruntimed:frame.obj
 0001:00031830       ??_Ebad_exception@std@@UAEPAXI@Z 10032830 f i libvcruntimed:frame.obj
 0001:00031830       ??_Gbad_exception@std@@UAEPAXI@Z 10032830 f i libvcruntimed:frame.obj
 0001:00031860       ?BuildCatchObject@__FrameHandler3@@SAXPAUEHExceptionRecord@@PAXPBU_s_HandlerType@@PBU_s_CatchableType@@@Z 10032860 f   libvcruntimed:frame.obj
 0001:00031880       ?BuildCatchObjectHelper@__FrameHandler3@@SAHPAUEHExceptionRecord@@PAXPBU_s_HandlerType@@PBU_s_CatchableType@@@Z 10032880 f   libvcruntimed:frame.obj
 0001:00031c20       ?FrameUnwindToEmptyState@__FrameHandler3@@SAXPAUEHRegistrationNode@@PAXPBU_s_FuncInfo@@@Z 10032c20 f   libvcruntimed:frame.obj
 0001:00031c40       ?FrameUnwindToState@__FrameHandler3@@SAXPAUEHRegistrationNode@@PAXPBU_s_FuncInfo@@H@Z 10032c40 f   libvcruntimed:frame.obj
 0001:00031dc0       ?GetMaxState@__FrameHandler3@@SAHPAXPBU_s_FuncInfo@@@Z 10032dc0 f i libvcruntimed:frame.obj
 0001:00031ee0       ?TypeMatch@__FrameHandler3@@SAHPBU_s_HandlerType@@PBU_s_CatchableType@@PBU_s_ThrowInfo@@@Z 10032ee0 f   libvcruntimed:frame.obj
 0001:00031f00       ?_CallMemberFunction1@@YGXQAX00@Z 10032f00 f i libvcruntimed:frame.obj
 0001:00031f30       ?_CallMemberFunction2@@YGXQAX00H@Z 10032f30 f i libvcruntimed:frame.obj
 0001:00031f60       ?begin@HandlerMap@__FrameHandler3@@QAE?AViterator@12@XZ 10032f60 f i libvcruntimed:frame.obj
 0001:00031f80       ?end@HandlerMap@__FrameHandler3@@QAE?AViterator@12@XZ 10032f80 f i libvcruntimed:frame.obj
 0001:00031fb0       ?getESTypes@__FrameHandler3@@SAPBU_s_ESTypeList@@PBU_s_FuncInfo@@@Z 10032fb0 f i libvcruntimed:frame.obj
 0001:00031fc0       ?getLastEntry@HandlerMap@__FrameHandler3@@QAEPBU_s_HandlerType@@XZ 10032fc0 f i libvcruntimed:frame.obj
 0001:00031fe0       ?getMagicNum@__FrameHandler3@@SAIPBU_s_FuncInfo@@@Z 10032fe0 f i libvcruntimed:frame.obj
 0001:00031ff0       ?getNumTryBlocks@TryBlockMap@__FrameHandler3@@QAEIXZ 10032ff0 f i libvcruntimed:frame.obj
 0001:00032010       ?isEHs@__FrameHandler3@@SA_NPBU_s_FuncInfo@@@Z 10033010 f i libvcruntimed:frame.obj
 0001:00032040       ?isNoExcept@__FrameHandler3@@SA_NPBU_s_FuncInfo@@@Z 10033040 f i libvcruntimed:frame.obj
 0001:00032070       ___BuildCatchObject        10033070 f   libvcruntimed:frame.obj
 0001:00032090       ___BuildCatchObjectHelper  10033090 f   libvcruntimed:frame.obj
 0001:000320b0       ___TypeMatch               100330b0 f   libvcruntimed:frame.obj
 0001:000320d0       ___vcrt_EncodePointer      100330d0 f i libvcruntimed:frame.obj
 0001:000320e0       __CallSettingFrame@12      100330e0 f   libvcruntimed:lowhelpr.obj
 0001:00032107       __NLG_Return               10033107     libvcruntimed:lowhelpr.obj
 0001:00032130       ??$?0$00@DName@@QAE@PBDU?$StringLifeSelector@$00@@@Z 10033130 f i libvcruntimed:undname.obj
 0001:00032180       ??$?0$00@pcharNode@@QAE@PBDHU?$StringLifeSelector@$00@@@Z 10033180 f i libvcruntimed:undname.obj
 0001:000321c0       ??$?0$01@DName@@QAE@PBDU?$StringLifeSelector@$01@@@Z 100331c0 f i libvcruntimed:undname.obj
 0001:00032210       ??$?0$01@pcharNode@@QAE@PBDHU?$StringLifeSelector@$01@@@Z 10033210 f i libvcruntimed:undname.obj
 0001:00032290       ??$?0$0A@@DName@@QAE@PBDU?$StringLifeSelector@$0A@@@@Z 10033290 f i libvcruntimed:undname.obj
 0001:000322e0       ??$?0$0A@@pcharNode@@QAE@PBDHU?$StringLifeSelector@$0A@@@@Z 100332e0 f i libvcruntimed:undname.obj
 0001:00032360       ??$?0_K$0A@@?$optional@_K@std@@QAE@$$QA_K@Z 10033360 f i libvcruntimed:undname.obj
 0001:000323a0       ??$?0_K@?$_Optional_construct_base@_K@std@@QAE@Uin_place_t@1@$$QA_K@Z 100333a0 f i libvcruntimed:undname.obj
 0001:000323d0       ??$?0_K@?$_Optional_destruct_base@_K$00@std@@QAE@Uin_place_t@1@$$QA_K@Z 100333d0 f i libvcruntimed:undname.obj
 0001:00032400       ??$append@VDNameNode@@@DName@@AAEXPBVDNameNode@@@Z 10033400 f i libvcruntimed:undname.obj
 0001:00032490       ??$append@VDNameStatusNode@@@DName@@AAEXPBVDNameStatusNode@@@Z 10033490 f i libvcruntimed:undname.obj
 0001:00032520       ??$append@VcharNode@@@DName@@AAEXPBVcharNode@@@Z 10033520 f i libvcruntimed:undname.obj
 0001:000325b0       ??$append@VpDNameNode@@@DName@@AAEXPBVpDNameNode@@@Z 100335b0 f i libvcruntimed:undname.obj
 0001:00032640       ??$append@VpcharNode@@@DName@@AAEXPBVpcharNode@@@Z 10033640 f i libvcruntimed:undname.obj
 0001:000326d0       ??$doPchar@$00@DName@@AAEXPBDH@Z 100336d0 f i libvcruntimed:undname.obj
 0001:000327e0       ??$doPchar@$01@DName@@AAEXPBDH@Z 100337e0 f i libvcruntimed:undname.obj
 0001:000328f0       ??$doPchar@$0A@@DName@@AAEXPBDH@Z 100338f0 f i libvcruntimed:undname.obj
 0001:00032a00       ??$forward@_K@std@@YA$$QA_KAA_K@Z 10033a00 f i libvcruntimed:undname.obj
 0001:00032a10       ??$size@D$04@std@@YAIAAY04$$CBD@Z 10033a10 f i libvcruntimed:undname.obj
 0001:00032a20       ??$size@D$0EB@@std@@YAIAAY0EB@$$CBD@Z 10033a20 f i libvcruntimed:undname.obj
 0001:00032a30       ??0?$_Optional_construct_base@_K@std@@QAE@XZ 10033a30 f i libvcruntimed:undname.obj
 0001:00032a50       ??0?$_Optional_destruct_base@_K$00@std@@QAE@XZ 10033a50 f i libvcruntimed:undname.obj
 0001:00032a70       ??0?$optional@_K@std@@QAE@XZ 10033a70 f i libvcruntimed:undname.obj
 0001:00032aa0       ??0Block@_HeapManager@@QAE@XZ 10033aa0 f i libvcruntimed:undname.obj
 0001:00032ac0       ??0DName@@QAE@AAPBDD@Z     10033ac0 f   libvcruntimed:undname.obj
 0001:00032c30       ??0DName@@QAE@ABUStringLiteral@@@Z 10033c30 f   libvcruntimed:undname.obj
 0001:00032c80       ??0DName@@QAE@ABV0@@Z      10033c80 f i libvcruntimed:undname.obj
 0001:00032cb0       ??0DName@@QAE@D@Z          10033cb0 f   libvcruntimed:undname.obj
 0001:00032ce0       ??0DName@@QAE@PAV0@@Z      10033ce0 f   libvcruntimed:undname.obj
 0001:00032d90       ??0DName@@QAE@W4DNameStatus@@@Z 10033d90 f   libvcruntimed:undname.obj
 0001:00032e30       ??0DName@@QAE@XZ           10033e30 f i libvcruntimed:undname.obj
 0001:00032e60       ??0DName@@QAE@_J@Z         10033e60 f   libvcruntimed:undname.obj
 0001:00032f50       ??0DName@@QAE@_K@Z         10033f50 f   libvcruntimed:undname.obj
 0001:00033000       ??0DNameNode@@IAE@XZ       10034000 f i libvcruntimed:undname.obj
 0001:00033020       ??0Replicator@@QAE@XZ      10034020 f i libvcruntimed:undname.obj
 0001:00033060       ??0UnDecorator@@QAE@PBDP6APADJ@ZK@Z 10034060 f i libvcruntimed:undname.obj
 0001:000330e0       ??0charNode@@QAE@D@Z       100340e0 f i libvcruntimed:undname.obj
 0001:00033110       ??0pDNameNode@@QAE@PAVDName@@@Z 10034110 f   libvcruntimed:undname.obj
 0001:00033170       ??0pairNode@@QAE@PBVDNameNode@@0@Z 10034170 f i libvcruntimed:undname.obj
 0001:000331d0       ??2@YAPAXIAAV_HeapManager@@H@Z 100341d0 f   libvcruntimed:undname.obj
 0001:00033210       ??4DName@@QAEAAV0@ABUStringLiteral@@@Z 10034210 f   libvcruntimed:undname.obj
 0001:00033250       ??4DName@@QAEAAV0@ABV0@@Z  10034250 f   libvcruntimed:undname.obj
 0001:00033280       ??4DName@@QAEAAV0@D@Z      10034280 f i libvcruntimed:undname.obj
 0001:000332b0       ??4DName@@QAEAAV0@PAV0@@Z  100342b0 f   libvcruntimed:undname.obj
 0001:00033350       ??4DName@@QAEAAV0@W4DNameStatus@@@Z 10034350 f   libvcruntimed:undname.obj
 0001:000333d0       ??AReplicator@@QBE?AVDName@@H@Z 100343d0 f   libvcruntimed:undname.obj
 0001:00033440       ??B?$optional@_K@std@@QBE_NXZ 10034440 f i libvcruntimed:undname.obj
 0001:00033460       ??D?$optional@_K@std@@QGAEAA_KXZ 10034460 f i libvcruntimed:undname.obj
 0001:00033470       ??H@YA?AVDName@@ABUStringLiteral@@ABV0@@Z 10034470 f i libvcruntimed:undname.obj
 0001:000334a0       ??H@YA?AVDName@@DABV0@@Z   100344a0 f i libvcruntimed:undname.obj
 0001:000334d0       ??H@YA?AVDName@@W4DNameStatus@@ABV0@@Z 100344d0 f i libvcruntimed:undname.obj
 0001:00033500       ??HDName@@QBE?AV0@ABUStringLiteral@@@Z 10034500 f   libvcruntimed:undname.obj
 0001:00033540       ??HDName@@QBE?AV0@ABV0@@Z  10034540 f   libvcruntimed:undname.obj
 0001:00033580       ??HDName@@QBE?AV0@D@Z      10034580 f   libvcruntimed:undname.obj
 0001:000335c0       ??HDName@@QBE?AV0@PAV0@@Z  100345c0 f   libvcruntimed:undname.obj
 0001:00033600       ??HDName@@QBE?AV0@W4DNameStatus@@@Z 10034600 f   libvcruntimed:undname.obj
 0001:00033640       ??HStringLiteral@@QBE?AU0@H@Z 10034640 f i libvcruntimed:undname.obj
 0001:00033670       ??YDName@@QAEAAV0@ABUStringLiteral@@@Z 10034670 f   libvcruntimed:undname.obj
 0001:00033710       ??YDName@@QAEAAV0@ABV0@@Z  10034710 f   libvcruntimed:undname.obj
 0001:000337b0       ??YDName@@QAEAAV0@D@Z      100347b0 f   libvcruntimed:undname.obj
 0001:00033830       ??YDName@@QAEAAV0@PAV0@@Z  10034830 f   libvcruntimed:undname.obj
 0001:000338e0       ??YDName@@QAEAAV0@W4DNameStatus@@@Z 100348e0 f   libvcruntimed:undname.obj
 0001:00033940       ??YReplicator@@QAEAAV0@ABVDName@@@Z 10034940 f   libvcruntimed:undname.obj
 0001:000339d0       ??_5DName@@QAEAAV0@ABV0@@Z 100349d0 f   libvcruntimed:undname.obj
 0001:00033a30       ??__K_l@@YA?AUStringLiteral@@PBDI@Z 10034a30 f i libvcruntimed:undname.obj
 0001:00033a50       ?Constructor@_HeapManager@@QAEXP6APAXI@ZP6AXPAX@Z@Z 10034a50 f i libvcruntimed:undname.obj
 0001:00033a90       ?Destructor@_HeapManager@@QAEXXZ 10034a90 f i libvcruntimed:undname.obj
 0001:00033b00       ?UScore@UnDecorator@@SA?AUStringLiteral@@W4Tokens@@@Z 10034b00 f   libvcruntimed:undname.obj
 0001:00033b50       ?composeDeclaration@UnDecorator@@CA?AVDName@@ABV2@@Z 10034b50 f i libvcruntimed:undname.obj
 0001:00035ac0       ?dbGetString@DName@@QBEPADXZ 10036ac0 f   libvcruntimed:undname.obj
 0001:00035ae0       ?doAccessSpecifiers@UnDecorator@@SAHXZ 10036ae0 f i libvcruntimed:undname.obj
 0001:00035b10       ?doAllocationLanguage@UnDecorator@@SAHXZ 10036b10 f i libvcruntimed:undname.obj
 0001:00035b40       ?doAllocationModel@UnDecorator@@SAHXZ 10036b40 f i libvcruntimed:undname.obj
 0001:00035b70       ?doEcsu@UnDecorator@@SAHXZ 10036b70 f i libvcruntimed:undname.obj
 0001:00035ba0       ?doEllipsis@UnDecorator@@SAHXZ 10036ba0 f i libvcruntimed:undname.obj
 0001:00035bd0       ?doFunctionReturns@UnDecorator@@SAHXZ 10036bd0 f i libvcruntimed:undname.obj
 0001:00035c00       ?doMSKeywords@UnDecorator@@SAHXZ 10036c00 f i libvcruntimed:undname.obj
 0001:00035c30       ?doMemberTypes@UnDecorator@@SAHXZ 10036c30 f i libvcruntimed:undname.obj
 0001:00035c60       ?doNameOnly@UnDecorator@@SAHXZ 10036c60 f i libvcruntimed:undname.obj
 0001:00035c70       ?doNoIdentCharCheck@UnDecorator@@SAHXZ 10036c70 f i libvcruntimed:undname.obj
 0001:00035c80       ?doPchar@DName@@AAEXD@Z    10036c80 f   libvcruntimed:undname.obj
 0001:00035cf0       ?doPtr64@UnDecorator@@SAHXZ 10036cf0 f i libvcruntimed:undname.obj
 0001:00035d20       ?doRestrictionSpec@UnDecorator@@SAHXZ 10036d20 f i libvcruntimed:undname.obj
 0001:00035d50       ?doThisTypes@UnDecorator@@SAHXZ 10036d50 f i libvcruntimed:undname.obj
 0001:00035d80       ?doThrowTypes@UnDecorator@@SAHXZ 10036d80 f i libvcruntimed:undname.obj
 0001:00035db0       ?doTypeOnly@UnDecorator@@SAHXZ 10036db0 f i libvcruntimed:undname.obj
 0001:00035dc0       ?doUnderScore@UnDecorator@@SAHXZ 10036dc0 f i libvcruntimed:undname.obj
 0001:00035df0       ?getArgumentList@UnDecorator@@CA?AVDName@@XZ 10036df0 f   libvcruntimed:undname.obj
 0001:00035f40       ?getArgumentTypes@UnDecorator@@CA?AVDName@@XZ 10036f40 f   libvcruntimed:undname.obj
 0001:00036150       ?getArrayObject@UnDecorator@@CA?AVDName@@XZ 10037150 f   libvcruntimed:undname.obj
 0001:00036230       ?getArrayType@UnDecorator@@CA?AVDName@@ABV2@@Z 10037230 f i libvcruntimed:undname.obj
 0001:000364d0       ?getBasedType@UnDecorator@@CA?AVDName@@XZ 100374d0 f   libvcruntimed:undname.obj
 0001:000365c0       ?getBasicDataType@UnDecorator@@CA?AVDName@@ABV2@@Z 100375c0 f   libvcruntimed:undname.obj
 0001:00036ed0       ?getCHPEName@UnDecorator@@QAEPADPADH@Z 10037ed0 f i libvcruntimed:undname.obj
 0001:00037030       ?getCallIndex@UnDecorator@@CA?AVDName@@XZ 10038030 f i libvcruntimed:undname.obj
 0001:00037050       ?getCallingConvention@UnDecorator@@CA?AVDName@@XZ 10038050 f   libvcruntimed:undname.obj
 0001:00037290       ?getDataIndirectType@UnDecorator@@CA?AVDName@@ABV2@W4IndirectionKind@@0H@Z 10038290 f   libvcruntimed:undname.obj
 0001:00037bb0       ?getDataIndirectType@UnDecorator@@CA?AVDName@@XZ 10038bb0 f i libvcruntimed:undname.obj
 0001:00037bf0       ?getDataType@UnDecorator@@CA?AVDName@@PAV2@@Z 10038bf0 f   libvcruntimed:undname.obj
 0001:00037d30       ?getDecoratedName@UnDecorator@@CA?AVDName@@XZ 10038d30 f   libvcruntimed:undname.obj
 0001:00038170       ?getDimension@UnDecorator@@CA?AVDName@@_N@Z 10039170 f   libvcruntimed:undname.obj
 0001:000383d0       ?getDispatchTarget@UnDecorator@@CA?AVDName@@XZ 100393d0 f   libvcruntimed:undname.obj
 0001:00038470       ?getDisplacement@UnDecorator@@CA?AVDName@@XZ 10039470 f i libvcruntimed:undname.obj
 0001:00038490       ?getECSUDataType@UnDecorator@@CA?AVDName@@XZ 10039490 f   libvcruntimed:undname.obj
 0001:000386f0       ?getECSUName@UnDecorator@@CA?AVDName@@XZ 100396f0 f i libvcruntimed:undname.obj
 0001:00038710       ?getEnumType@UnDecorator@@CA?AVDName@@XZ 10039710 f i libvcruntimed:undname.obj
 0001:000388c0       ?getExtendedDataIndirectType@UnDecorator@@CA?AVDName@@AAW4IndirectionKind@@AA_NH@Z 100398c0 f   libvcruntimed:undname.obj
 0001:00038b10       ?getExternalDataType@UnDecorator@@CA?AVDName@@ABV2@@Z 10039b10 f i libvcruntimed:undname.obj
 0001:00038bb0       ?getFloatingPoint@UnDecorator@@CA?AVDName@@H@Z 10039bb0 f   libvcruntimed:undname.obj
 0001:00038d60       ?getFunctionIndirectType@UnDecorator@@CA?AVDName@@ABV2@@Z 10039d60 f   libvcruntimed:undname.obj
 0001:00039240       ?getGuardNumber@UnDecorator@@CA?AVDName@@XZ 1003a240 f i libvcruntimed:undname.obj
 0001:00039260       ?getLastChar@DName@@QBEDXZ 1003a260 f i libvcruntimed:undname.obj
 0001:000392a0       ?getLastChar@DNameStatusNode@@UBEDXZ 1003a2a0 f i libvcruntimed:undname.obj
 0001:000392d0       ?getLastChar@charNode@@UBEDXZ 1003a2d0 f i libvcruntimed:undname.obj
 0001:000392f0       ?getLastChar@pDNameNode@@UBEDXZ 1003a2f0 f i libvcruntimed:undname.obj
 0001:00039320       ?getLastChar@pairNode@@UBEDXZ 1003a320 f i libvcruntimed:undname.obj
 0001:00039390       ?getLastChar@pcharNode@@UBEDXZ 1003a390 f i libvcruntimed:undname.obj
 0001:000393d0       ?getLexicalFrame@UnDecorator@@CA?AVDName@@XZ 1003a3d0 f i libvcruntimed:undname.obj
 0001:00039410       ?getMemoryWithBuffer@_HeapManager@@QAEPAXI@Z 1003a410 f   libvcruntimed:undname.obj
 0001:00039500       ?getMemoryWithoutBuffer@_HeapManager@@QAEPAXI@Z 1003a500 f   libvcruntimed:undname.obj
 0001:00039540       ?getNoexcept@UnDecorator@@CA?AVDName@@XZ 1003a540 f   libvcruntimed:undname.obj
 0001:000395c0       ?getNumberOfDimensions@UnDecorator@@CAHXZ 1003a5c0 f   libvcruntimed:undname.obj
 0001:000396c0       ?getOperatorName@UnDecorator@@CA?AVDName@@_NPA_N@Z 1003a6c0 f i libvcruntimed:undname.obj
 0001:0003a1b0       ?getPointerType@UnDecorator@@CA?AVDName@@ABV2@0@Z 1003b1b0 f i libvcruntimed:undname.obj
 0001:0003a1d0       ?getPointerTypeArray@UnDecorator@@CA?AVDName@@ABV2@0@Z 1003b1d0 f i libvcruntimed:undname.obj
 0001:0003a1f0       ?getPrimaryDataType@UnDecorator@@CA?AVDName@@ABV2@@Z 1003b1f0 f   libvcruntimed:undname.obj
 0001:0003a660       ?getPtrRefDataType@UnDecorator@@CA?AVDName@@ABV2@H@Z 1003b660 f   libvcruntimed:undname.obj
 0001:0003a910       ?getPtrRefType@UnDecorator@@CA?AVDName@@ABV2@0W4IndirectionKind@@@Z 1003b910 f   libvcruntimed:undname.obj
 0001:0003aa90       ?getReferenceType@UnDecorator@@CA?AVDName@@ABV2@0W4IndirectionKind@@@Z 1003ba90 f i libvcruntimed:undname.obj
 0001:0003aab0       ?getRestrictionSpec@UnDecorator@@CA?AVDName@@XZ 1003bab0 f   libvcruntimed:undname.obj
 0001:0003ac70       ?getReturnType@UnDecorator@@CA?AVDName@@PAV2@@Z 1003bc70 f   libvcruntimed:undname.obj
 0001:0003acc0       ?getScope@UnDecorator@@CA?AVDName@@XZ 1003bcc0 f   libvcruntimed:undname.obj
 0001:0003b250       ?getScopedName@UnDecorator@@CA?AVDName@@XZ 1003c250 f   libvcruntimed:undname.obj
 0001:0003b3a0       ?getSignedDimension@UnDecorator@@CA?AVDName@@XZ 1003c3a0 f   libvcruntimed:undname.obj
 0001:0003b420       ?getStorageConvention@UnDecorator@@CA?AVDName@@XZ 1003c420 f i libvcruntimed:undname.obj
 0001:0003b440       ?getString@DName@@QBEPADPAD0@Z 1003c440 f i libvcruntimed:undname.obj
 0001:0003b4a0       ?getString@DName@@QBEPADPADH@Z 1003c4a0 f i libvcruntimed:undname.obj
 0001:0003b530       ?getString@DNameStatusNode@@UBEPADPAD0@Z 1003c530 f i libvcruntimed:undname.obj
 0001:0003b570       ?getString@charNode@@UBEPADPAD0@Z 1003c570 f i libvcruntimed:undname.obj
 0001:0003b5a0       ?getString@pDNameNode@@UBEPADPAD0@Z 1003c5a0 f i libvcruntimed:undname.obj
 0001:0003b5e0       ?getString@pairNode@@UBEPADPAD0@Z 1003c5e0 f i libvcruntimed:undname.obj
 0001:0003b670       ?getString@pcharNode@@UBEPADPAD0@Z 1003c670 f i libvcruntimed:undname.obj
 0001:0003b6a0       ?getStringEncoding@UnDecorator@@CA?AVDName@@W4PrefixKind@@H@Z 1003c6a0 f   libvcruntimed:undname.obj
 0001:0003b7b0       ?getStringHelper@@YAPADPADPBD1H@Z 1003c7b0 f i libvcruntimed:undname.obj
 0001:0003b7f0       ?getStringObject@UnDecorator@@CA?AVDName@@XZ 1003c7f0 f   libvcruntimed:undname.obj
 0001:0003b8a0       ?getSymbolName@UnDecorator@@CA?AVDName@@XZ 1003c8a0 f i libvcruntimed:undname.obj
 0001:0003b930       ?getTemplateArgumentList@UnDecorator@@CA?AVDName@@XZ 1003c930 f   libvcruntimed:undname.obj
 0001:0003bc00       ?getTemplateName@UnDecorator@@CA?AVDName@@_N@Z 1003cc00 f   libvcruntimed:undname.obj
 0001:0003bdc0       ?getTemplateNonTypeArgument@UnDecorator@@CA?AVDName@@XZ 1003cdc0 f   libvcruntimed:undname.obj
 0001:0003c2e0       ?getTemplateTypeArgument@UnDecorator@@CA?AVDName@@XZ 1003d2e0 f   libvcruntimed:undname.obj
 0001:0003c480       ?getThisType@UnDecorator@@CA?AVDName@@XZ 1003d480 f i libvcruntimed:undname.obj
 0001:0003c4c0       ?getThrowTypes@UnDecorator@@CA?AVDName@@XZ 1003d4c0 f   libvcruntimed:undname.obj
 0001:0003c500       ?getTypeEncoding@UnDecorator@@CAHXZ 1003d500 f i libvcruntimed:undname.obj
 0001:0003cfc0       ?getUndecoratedName@UnDecorator@@QAEPADPADH@Z 1003dfc0 f i libvcruntimed:undname.obj
 0001:0003d120       ?getVCallThunkType@UnDecorator@@CA?AVDName@@XZ 1003e120 f i libvcruntimed:undname.obj
 0001:0003d1a0       ?getValue@UnDecorator@@CA?AV?$optional@_K@std@@XZ 1003e1a0 f   libvcruntimed:undname.obj
 0001:0003d260       ?getValueObject@UnDecorator@@CA?AVDName@@XZ 1003e260 f   libvcruntimed:undname.obj
 0001:0003d3d0       ?getVbTableType@UnDecorator@@CA?AVDName@@ABV2@@Z 1003e3d0 f i libvcruntimed:undname.obj
 0001:0003d3f0       ?getVdispMapType@UnDecorator@@CA?AVDName@@ABV2@@Z 1003e3f0 f i libvcruntimed:undname.obj
 0001:0003d480       ?getVfTableType@UnDecorator@@CA?AVDName@@ABV2@@Z 1003e480 f i libvcruntimed:undname.obj
 0001:0003d680       ?getZName@UnDecorator@@CA?AVDName@@_N0@Z 1003e680 f   libvcruntimed:undname.obj
 0001:0003d9c0       ?haveTemplateParameters@UnDecorator@@SAHXZ 1003e9c0 f i libvcruntimed:undname.obj
 0001:0003d9d0       ?isArray@DName@@QBEHXZ     1003e9d0 f i libvcruntimed:undname.obj
 0001:0003d9f0       ?isComArray@DName@@QBEHXZ  1003e9f0 f i libvcruntimed:undname.obj
 0001:0003da10       ?isEmpty@DName@@QBEHXZ     1003ea10 f i libvcruntimed:undname.obj
 0001:0003da40       ?isFull@Replicator@@QBEHXZ 1003ea40 f i libvcruntimed:undname.obj
 0001:0003da70       ?isNoTE@DName@@QBEHXZ      1003ea70 f i libvcruntimed:undname.obj
 0001:0003da90       ?isPinPtr@DName@@QBEHXZ    1003ea90 f i libvcruntimed:undname.obj
 0001:0003dab0       ?isPtrRef@DName@@QBEHXZ    1003eab0 f i libvcruntimed:undname.obj
 0001:0003dad0       ?isUDC@DName@@QBEHXZ       1003ead0 f i libvcruntimed:undname.obj
 0001:0003db10       ?isUDTThunk@DName@@QBEHXZ  1003eb10 f i libvcruntimed:undname.obj
 0001:0003db50       ?isVCallThunk@DName@@QBEHXZ 1003eb50 f i libvcruntimed:undname.obj
 0001:0003db70       ?isValid@DName@@QBEHXZ     1003eb70 f i libvcruntimed:undname.obj
 0001:0003dbb0       ?length@DName@@QBEHXZ      1003ebb0 f i libvcruntimed:undname.obj
 0001:0003dbf0       ?length@DNameStatusNode@@UBEHXZ 1003ebf0 f i libvcruntimed:undname.obj
 0001:0003dc10       ?length@charNode@@UBEHXZ   1003ec10 f i libvcruntimed:undname.obj
 0001:0003dc20       ?length@pDNameNode@@UBEHXZ 1003ec20 f i libvcruntimed:undname.obj
 0001:0003dc50       ?length@pairNode@@UBEHXZ   1003ec50 f i libvcruntimed:undname.obj
 0001:0003dcc0       ?length@pcharNode@@UBEHXZ  1003ecc0 f i libvcruntimed:undname.obj
 0001:0003dce0       ?make@DNameStatusNode@@SAPBV1@W4DNameStatus@@@Z 1003ece0 f i libvcruntimed:undname.obj
 0001:0003dd10       ?parseDecoratedName@UnDecorator@@CA?AVDName@@XZ 1003ed10 f   libvcruntimed:undname.obj
 0001:0003dea0       ?raw_length@DNameStatusNode@@UBEHXZ 1003eea0 f i libvcruntimed:undname.obj
 0001:0003dec0       ?raw_length@charNode@@UBEHXZ 1003eec0 f i libvcruntimed:undname.obj
 0001:0003dee0       ?raw_length@pDNameNode@@UBEHXZ 1003eee0 f i libvcruntimed:undname.obj
 0001:0003def0       ?raw_length@pairNode@@UBEHXZ 1003eef0 f i libvcruntimed:undname.obj
 0001:0003df10       ?raw_length@pcharNode@@UBEHXZ 1003ef10 f i libvcruntimed:undname.obj
 0001:0003df30       ?setIsArray@DName@@QAEXXZ  1003ef30 f i libvcruntimed:undname.obj
 0001:0003df50       ?setIsComArray@DName@@QAEXXZ 1003ef50 f i libvcruntimed:undname.obj
 0001:0003df70       ?setIsNoTE@DName@@QAEXXZ   1003ef70 f i libvcruntimed:undname.obj
 0001:0003df90       ?setIsPinPtr@DName@@QAEXXZ 1003ef90 f i libvcruntimed:undname.obj
 0001:0003dfb0       ?setIsUDC@DName@@QAEXXZ    1003efb0 f i libvcruntimed:undname.obj
 0001:0003dfe0       ?setIsVCallThunk@DName@@QAEXXZ 1003efe0 f i libvcruntimed:undname.obj
 0001:0003e000       ?setPtrRef@DName@@QAEAAV1@XZ 1003f000 f i libvcruntimed:undname.obj
 0001:0003e020       ?status@DName@@QBE?AW4DNameStatus@@XZ 1003f020 f i libvcruntimed:undname.obj
 0001:0003e120       ___unDName                 1003f120 f   libvcruntimed:undname.obj
 0001:0003e150       ___unDNameEx               1003f150 f   libvcruntimed:undname.obj
 0001:0003e220       _unDNameGenerateCHPE       1003f220 f   libvcruntimed:undname.obj
 0001:0003e280       __global_unwind2           1003f280 f   libvcruntimed:exsup.obj
 0001:0003e2e6       __local_unwind2            1003f2e6 f   libvcruntimed:exsup.obj
 0001:0003e36a       __abnormal_termination     1003f36a f   libvcruntimed:exsup.obj
 0001:0003e390       __NLG_Notify1              1003f390 f   libvcruntimed:exsup.obj
 0001:0003e39c       __NLG_Notify               1003f39c f   libvcruntimed:exsup.obj
 0001:0003e3b3       __NLG_Dispatch2            1003f3b3     libvcruntimed:exsup.obj
 0001:0003e3b3       __NLG_Dispatch             1003f3b3     libvcruntimed:exsup.obj
 0001:0003e3bb       __NLG_Call                 1003f3bb f   libvcruntimed:exsup.obj
 0001:0003e3bd       __NLG_Return2              1003f3bd     libvcruntimed:exsup.obj
 0001:0003e3c0       ??$__crt_interlocked_exchange_pointer@UHINSTANCE__@@PAU1@@@YAPAUHINSTANCE__@@PDSAU0@QAU0@@Z 1003f3c0 f i libvcruntimed:winapi_downlevel.obj
 0001:0003e3d0       ??$__crt_interlocked_exchange_pointer@UHINSTANCE__@@PAX@@YAPAUHINSTANCE__@@PDSAU0@QAX@Z 1003f3d0 f i libvcruntimed:winapi_downlevel.obj
 0001:0003e3e0       ??$__crt_interlocked_exchange_pointer@XPAX@@YAPAXPDSAXQAX@Z 1003f3e0 f i libvcruntimed:winapi_downlevel.obj
 0001:0003e3f0       ??$__crt_interlocked_read_pointer@UHINSTANCE__@@@@YAPAUHINSTANCE__@@PDSAU0@@Z 1003f3f0 f i libvcruntimed:winapi_downlevel.obj
 0001:0003e410       ??$__crt_interlocked_read_pointer@X@@YAPAXPDSAX@Z 1003f410 f i libvcruntimed:winapi_downlevel.obj
 0001:0003e7e0       ___vcrt_FlsAlloc           1003f7e0 f   libvcruntimed:winapi_downlevel.obj
 0001:0003e820       ___vcrt_FlsFree            1003f820 f   libvcruntimed:winapi_downlevel.obj
 0001:0003e860       ___vcrt_FlsGetValue        1003f860 f   libvcruntimed:winapi_downlevel.obj
 0001:0003e8a0       ___vcrt_FlsSetValue        1003f8a0 f   libvcruntimed:winapi_downlevel.obj
 0001:0003e8f0       ___vcrt_InitializeCriticalSectionEx 1003f8f0 f   libvcruntimed:winapi_downlevel.obj
 0001:0003e970       __get_unexpected           1003f970 f   libvcruntimed:unexpected.obj
 0001:0003e990       _set_unexpected            1003f990 f   libvcruntimed:unexpected.obj
 0001:0003e9c0       _unexpected                1003f9c0 f   libvcruntimed:unexpected.obj
 0001:0003ea00       ?GetCurrentState@__FrameHandler3@@SAHPAUEHRegistrationNode@@PAXPBU_s_FuncInfo@@@Z 1003fa00 f   libvcruntimed:ehstate.obj
 0001:0003ea30       ?SetState@__FrameHandler3@@SAXPAUEHRegistrationNode@@PBU_s_FuncInfo@@H@Z 1003fa30 f   libvcruntimed:ehstate.obj
 0001:0003ea40       ??$?0ABV?$stream_output_adapter@D@__crt_stdio_output@@AB_KABQBDABQAU__crt_locale_pointers@@ABQAD@?$format_validation_base@DV?$stream_output_adapter@D@__crt_stdio_output@@@__crt_stdio_output@@IAE@ABV?$stream_output_adapter@D@1@AB_KABQBDABQAU__crt_locale_pointers@@ABQAD@Z 1003fa40 f i libucrtd:output.obj
 0001:0003ea70       ??$?0ABV?$stream_output_adapter@D@__crt_stdio_output@@AB_KABQBDABQAU__crt_locale_pointers@@ABQAD@?$positional_parameter_base@DV?$stream_output_adapter@D@__crt_stdio_output@@@__crt_stdio_output@@IAE@ABV?$stream_output_adapter@D@1@AB_KABQBDABQAU__crt_locale_pointers@@ABQAD@Z 1003fa70 f i libucrtd:output.obj
 0001:0003eaf0       ??$?0ABV?$stream_output_adapter@D@__crt_stdio_output@@AB_KABQBDABQAU__crt_locale_pointers@@ABQAD@?$standard_base@DV?$stream_output_adapter@D@__crt_stdio_output@@@__crt_stdio_output@@IAE@ABV?$stream_output_adapter@D@1@AB_KABQBDABQAU__crt_locale_pointers@@ABQAD@Z 1003faf0 f i libucrtd:output.obj
 0001:0003eb40       ??$?0ABV?$stream_output_adapter@_W@__crt_stdio_output@@AB_KABQB_WABQAU__crt_locale_pointers@@ABQAD@?$format_validation_base@_WV?$stream_output_adapter@_W@__crt_stdio_output@@@__crt_stdio_output@@IAE@ABV?$stream_output_adapter@_W@1@AB_KABQB_WABQAU__crt_locale_pointers@@ABQAD@Z 1003fb40 f i libucrtd:output.obj
 0001:0003eb70       ??$?0ABV?$stream_output_adapter@_W@__crt_stdio_output@@AB_KABQB_WABQAU__crt_locale_pointers@@ABQAD@?$positional_parameter_base@_WV?$stream_output_adapter@_W@__crt_stdio_output@@@__crt_stdio_output@@IAE@ABV?$stream_output_adapter@_W@1@AB_KABQB_WABQAU__crt_locale_pointers@@ABQAD@Z 1003fb70 f i libucrtd:output.obj
 0001:0003ebf0       ??$?0ABV?$stream_output_adapter@_W@__crt_stdio_output@@AB_KABQB_WABQAU__crt_locale_pointers@@ABQAD@?$standard_base@_WV?$stream_output_adapter@_W@__crt_stdio_output@@@__crt_stdio_output@@IAE@ABV?$stream_output_adapter@_W@1@AB_KABQB_WABQAU__crt_locale_pointers@@ABQAD@Z 1003fbf0 f i libucrtd:output.obj
 0001:0003ec40       ??$?0ABV?$string_output_adapter@D@__crt_stdio_output@@AB_KABQBDABQAU__crt_locale_pointers@@ABQAD@?$format_validation_base@DV?$string_output_adapter@D@__crt_stdio_output@@@__crt_stdio_output@@IAE@ABV?$string_output_adapter@D@1@AB_KABQBDABQAU__crt_locale_pointers@@ABQAD@Z 1003fc40 f i libucrtd:output.obj
 0001:0003ec70       ??$?0ABV?$string_output_adapter@D@__crt_stdio_output@@AB_KABQBDABQAU__crt_locale_pointers@@ABQAD@?$positional_parameter_base@DV?$string_output_adapter@D@__crt_stdio_output@@@__crt_stdio_output@@IAE@ABV?$string_output_adapter@D@1@AB_KABQBDABQAU__crt_locale_pointers@@ABQAD@Z 1003fc70 f i libucrtd:output.obj
 0001:0003ecf0       ??$?0ABV?$string_output_adapter@D@__crt_stdio_output@@AB_KABQBDABQAU__crt_locale_pointers@@ABQAD@?$standard_base@DV?$string_output_adapter@D@__crt_stdio_output@@@__crt_stdio_output@@IAE@ABV?$string_output_adapter@D@1@AB_KABQBDABQAU__crt_locale_pointers@@ABQAD@Z 1003fcf0 f i libucrtd:output.obj
 0001:0003ed40       ??$?0ABV?$string_output_adapter@_W@__crt_stdio_output@@AB_KABQB_WABQAU__crt_locale_pointers@@ABQAD@?$format_validation_base@_WV?$string_output_adapter@_W@__crt_stdio_output@@@__crt_stdio_output@@IAE@ABV?$string_output_adapter@_W@1@AB_KABQB_WABQAU__crt_locale_pointers@@ABQAD@Z 1003fd40 f i libucrtd:output.obj
 0001:0003ed70       ??$?0ABV?$string_output_adapter@_W@__crt_stdio_output@@AB_KABQB_WABQAU__crt_locale_pointers@@ABQAD@?$positional_parameter_base@_WV?$string_output_adapter@_W@__crt_stdio_output@@@__crt_stdio_output@@IAE@ABV?$string_output_adapter@_W@1@AB_KABQB_WABQAU__crt_locale_pointers@@ABQAD@Z 1003fd70 f i libucrtd:output.obj
 0001:0003edf0       ??$?0ABV?$string_output_adapter@_W@__crt_stdio_output@@AB_KABQB_WABQAU__crt_locale_pointers@@ABQAD@?$standard_base@_WV?$string_output_adapter@_W@__crt_stdio_output@@@__crt_stdio_output@@IAE@ABV?$string_output_adapter@_W@1@AB_KABQB_WABQAU__crt_locale_pointers@@ABQAD@Z 1003fdf0 f i libucrtd:output.obj
 0001:0003f320       ??$__crt_interlocked_read@J@@YAJPDJ@Z 10040320 f i libucrtd:output.obj
 0001:000420c0       ??$count@D@formatting_buffer@__crt_stdio_output@@QBEIXZ 100430c0 f i libucrtd:output.obj
 0001:00042100       ??$count@_W@formatting_buffer@__crt_stdio_output@@QBEIXZ 10043100 f i libucrtd:output.obj
 0001:00042140       ??$data@D@formatting_buffer@__crt_stdio_output@@QAEPADXZ 10043140 f i libucrtd:output.obj
 0001:00042180       ??$data@_W@formatting_buffer@__crt_stdio_output@@QAEPA_WXZ 10043180 f i libucrtd:output.obj
 0001:000421c0       ??$ensure_buffer_is_big_enough@D@formatting_buffer@__crt_stdio_output@@QAE_NI@Z 100431c0 f i libucrtd:output.obj
 0001:000422a0       ??$ensure_buffer_is_big_enough@_W@formatting_buffer@__crt_stdio_output@@QAE_NI@Z 100432a0 f i libucrtd:output.obj
 0001:00042390       ??$extract_argument_from_va_list@C_J@?$positional_parameter_base@DV?$stream_output_adapter@D@__crt_stdio_output@@@__crt_stdio_output@@IAE_NAA_J@Z 10043390 f i libucrtd:output.obj
 0001:000424d0       ??$extract_argument_from_va_list@C_J@?$positional_parameter_base@DV?$string_output_adapter@D@__crt_stdio_output@@@__crt_stdio_output@@IAE_NAA_J@Z 100434d0 f i libucrtd:output.obj
 0001:00042610       ??$extract_argument_from_va_list@C_J@?$positional_parameter_base@_WV?$stream_output_adapter@_W@__crt_stdio_output@@@__crt_stdio_output@@IAE_NAA_J@Z 10043610 f i libucrtd:output.obj
 0001:00042750       ??$extract_argument_from_va_list@C_J@?$positional_parameter_base@_WV?$string_output_adapter@_W@__crt_stdio_output@@@__crt_stdio_output@@IAE_NAA_J@Z 10043750 f i libucrtd:output.obj
 0001:00042890       ??$extract_argument_from_va_list@C_J@?$standard_base@DV?$stream_output_adapter@D@__crt_stdio_output@@@__crt_stdio_output@@IAE_NAA_J@Z 10043890 f i libucrtd:output.obj
 0001:000428c0       ??$extract_argument_from_va_list@C_J@?$standard_base@DV?$string_output_adapter@D@__crt_stdio_output@@@__crt_stdio_output@@IAE_NAA_J@Z 100438c0 f i libucrtd:output.obj
 0001:000428f0       ??$extract_argument_from_va_list@C_J@?$standard_base@_WV?$stream_output_adapter@_W@__crt_stdio_output@@@__crt_stdio_output@@IAE_NAA_J@Z 100438f0 f i libucrtd:output.obj
 0001:00042920       ??$extract_argument_from_va_list@C_J@?$standard_base@_WV?$string_output_adapter@_W@__crt_stdio_output@@@__crt_stdio_output@@IAE_NAA_J@Z 10043920 f i libucrtd:output.obj
 0001:00042950       ??$extract_argument_from_va_list@E_J@?$positional_parameter_base@DV?$stream_output_adapter@D@__crt_stdio_output@@@__crt_stdio_output@@IAE_NAA_J@Z 10043950 f i libucrtd:output.obj
 0001:00042a90       ??$extract_argument_from_va_list@E_J@?$positional_parameter_base@DV?$string_output_adapter@D@__crt_stdio_output@@@__crt_stdio_output@@IAE_NAA_J@Z 10043a90 f i libucrtd:output.obj
 0001:00042bd0       ??$extract_argument_from_va_list@E_J@?$positional_parameter_base@_WV?$stream_output_adapter@_W@__crt_stdio_output@@@__crt_stdio_output@@IAE_NAA_J@Z 10043bd0 f i libucrtd:output.obj
 0001:00042d10       ??$extract_argument_from_va_list@E_J@?$positional_parameter_base@_WV?$string_output_adapter@_W@__crt_stdio_output@@@__crt_stdio_output@@IAE_NAA_J@Z 10043d10 f i libucrtd:output.obj
 0001:00042e50       ??$extract_argument_from_va_list@E_J@?$standard_base@DV?$stream_output_adapter@D@__crt_stdio_output@@@__crt_stdio_output@@IAE_NAA_J@Z 10043e50 f i libucrtd:output.obj
 0001:00042e80       ??$extract_argument_from_va_list@E_J@?$standard_base@DV?$string_output_adapter@D@__crt_stdio_output@@@__crt_stdio_output@@IAE_NAA_J@Z 10043e80 f i libucrtd:output.obj
 0001:00042eb0       ??$extract_argument_from_va_list@E_J@?$standard_base@_WV?$stream_output_adapter@_W@__crt_stdio_output@@@__crt_stdio_output@@IAE_NAA_J@Z 10043eb0 f i libucrtd:output.obj
 0001:00042ee0       ??$extract_argument_from_va_list@E_J@?$standard_base@_WV?$string_output_adapter@_W@__crt_stdio_output@@@__crt_stdio_output@@IAE_NAA_J@Z 10043ee0 f i libucrtd:output.obj
 0001:00042f10       ??$extract_argument_from_va_list@F_J@?$positional_parameter_base@DV?$stream_output_adapter@D@__crt_stdio_output@@@__crt_stdio_output@@IAE_NAA_J@Z 10043f10 f i libucrtd:output.obj
 0001:00043040       ??$extract_argument_from_va_list@F_J@?$positional_parameter_base@DV?$string_output_adapter@D@__crt_stdio_output@@@__crt_stdio_output@@IAE_NAA_J@Z 10044040 f i libucrtd:output.obj
 0001:00043170       ??$extract_argument_from_va_list@F_J@?$positional_parameter_base@_WV?$stream_output_adapter@_W@__crt_stdio_output@@@__crt_stdio_output@@IAE_NAA_J@Z 10044170 f i libucrtd:output.obj
 0001:000432a0       ??$extract_argument_from_va_list@F_J@?$positional_parameter_base@_WV?$string_output_adapter@_W@__crt_stdio_output@@@__crt_stdio_output@@IAE_NAA_J@Z 100442a0 f i libucrtd:output.obj
 0001:000433d0       ??$extract_argument_from_va_list@F_J@?$standard_base@DV?$stream_output_adapter@D@__crt_stdio_output@@@__crt_stdio_output@@IAE_NAA_J@Z 100443d0 f i libucrtd:output.obj
 0001:00043400       ??$extract_argument_from_va_list@F_J@?$standard_base@DV?$string_output_adapter@D@__crt_stdio_output@@@__crt_stdio_output@@IAE_NAA_J@Z 10044400 f i libucrtd:output.obj
 0001:00043430       ??$extract_argument_from_va_list@F_J@?$standard_base@_WV?$stream_output_adapter@_W@__crt_stdio_output@@@__crt_stdio_output@@IAE_NAA_J@Z 10044430 f i libucrtd:output.obj
 0001:00043460       ??$extract_argument_from_va_list@F_J@?$standard_base@_WV?$string_output_adapter@_W@__crt_stdio_output@@@__crt_stdio_output@@IAE_NAA_J@Z 10044460 f i libucrtd:output.obj
 0001:00043490       ??$extract_argument_from_va_list@GD@?$positional_parameter_base@DV?$stream_output_adapter@D@__crt_stdio_output@@@__crt_stdio_output@@IAE_NAAD@Z 10044490 f i libucrtd:output.obj
 0001:000435c0       ??$extract_argument_from_va_list@GD@?$positional_parameter_base@DV?$string_output_adapter@D@__crt_stdio_output@@@__crt_stdio_output@@IAE_NAAD@Z 100445c0 f i libucrtd:output.obj
 0001:000436f0       ??$extract_argument_from_va_list@GD@?$standard_base@DV?$stream_output_adapter@D@__crt_stdio_output@@@__crt_stdio_output@@IAE_NAAD@Z 100446f0 f i libucrtd:output.obj
 0001:00043720       ??$extract_argument_from_va_list@GD@?$standard_base@DV?$string_output_adapter@D@__crt_stdio_output@@@__crt_stdio_output@@IAE_NAAD@Z 10044720 f i libucrtd:output.obj
 0001:00043750       ??$extract_argument_from_va_list@G_J@?$positional_parameter_base@DV?$stream_output_adapter@D@__crt_stdio_output@@@__crt_stdio_output@@IAE_NAA_J@Z 10044750 f i libucrtd:output.obj
 0001:00043890       ??$extract_argument_from_va_list@G_J@?$positional_parameter_base@DV?$string_output_adapter@D@__crt_stdio_output@@@__crt_stdio_output@@IAE_NAA_J@Z 10044890 f i libucrtd:output.obj
 0001:000439d0       ??$extract_argument_from_va_list@G_J@?$positional_parameter_base@_WV?$stream_output_adapter@_W@__crt_stdio_output@@@__crt_stdio_output@@IAE_NAA_J@Z 100449d0 f i libucrtd:output.obj
 0001:00043b10       ??$extract_argument_from_va_list@G_J@?$positional_parameter_base@_WV?$string_output_adapter@_W@__crt_stdio_output@@@__crt_stdio_output@@IAE_NAA_J@Z 10044b10 f i libucrtd:output.obj
 0001:00043c50       ??$extract_argument_from_va_list@G_J@?$standard_base@DV?$stream_output_adapter@D@__crt_stdio_output@@@__crt_stdio_output@@IAE_NAA_J@Z 10044c50 f i libucrtd:output.obj
 0001:00043c80       ??$extract_argument_from_va_list@G_J@?$standard_base@DV?$string_output_adapter@D@__crt_stdio_output@@@__crt_stdio_output@@IAE_NAA_J@Z 10044c80 f i libucrtd:output.obj
 0001:00043cb0       ??$extract_argument_from_va_list@G_J@?$standard_base@_WV?$stream_output_adapter@_W@__crt_stdio_output@@@__crt_stdio_output@@IAE_NAA_J@Z 10044cb0 f i libucrtd:output.obj
 0001:00043ce0       ??$extract_argument_from_va_list@G_J@?$standard_base@_WV?$string_output_adapter@_W@__crt_stdio_output@@@__crt_stdio_output@@IAE_NAA_J@Z 10044ce0 f i libucrtd:output.obj
 0001:00043d10       ??$extract_argument_from_va_list@H_J@?$positional_parameter_base@DV?$stream_output_adapter@D@__crt_stdio_output@@@__crt_stdio_output@@IAE_NAA_J@Z 10044d10 f i libucrtd:output.obj
 0001:00043e40       ??$extract_argument_from_va_list@H_J@?$positional_parameter_base@DV?$string_output_adapter@D@__crt_stdio_output@@@__crt_stdio_output@@IAE_NAA_J@Z 10044e40 f i libucrtd:output.obj
 0001:00043f70       ??$extract_argument_from_va_list@H_J@?$positional_parameter_base@_WV?$stream_output_adapter@_W@__crt_stdio_output@@@__crt_stdio_output@@IAE_NAA_J@Z 10044f70 f i libucrtd:output.obj
 0001:000440a0       ??$extract_argument_from_va_list@H_J@?$positional_parameter_base@_WV?$string_output_adapter@_W@__crt_stdio_output@@@__crt_stdio_output@@IAE_NAA_J@Z 100450a0 f i libucrtd:output.obj
 0001:000441d0       ??$extract_argument_from_va_list@H_J@?$standard_base@DV?$stream_output_adapter@D@__crt_stdio_output@@@__crt_stdio_output@@IAE_NAA_J@Z 100451d0 f i libucrtd:output.obj
 0001:00044200       ??$extract_argument_from_va_list@H_J@?$standard_base@DV?$string_output_adapter@D@__crt_stdio_output@@@__crt_stdio_output@@IAE_NAA_J@Z 10045200 f i libucrtd:output.obj
 0001:00044230       ??$extract_argument_from_va_list@H_J@?$standard_base@_WV?$stream_output_adapter@_W@__crt_stdio_output@@@__crt_stdio_output@@IAE_NAA_J@Z 10045230 f i libucrtd:output.obj
 0001:00044260       ??$extract_argument_from_va_list@H_J@?$standard_base@_WV?$string_output_adapter@_W@__crt_stdio_output@@@__crt_stdio_output@@IAE_NAA_J@Z 10045260 f i libucrtd:output.obj
 0001:00044290       ??$extract_argument_from_va_list@I_J@?$positional_parameter_base@DV?$stream_output_adapter@D@__crt_stdio_output@@@__crt_stdio_output@@IAE_NAA_J@Z 10045290 f i libucrtd:output.obj
 0001:000443c0       ??$extract_argument_from_va_list@I_J@?$positional_parameter_base@DV?$string_output_adapter@D@__crt_stdio_output@@@__crt_stdio_output@@IAE_NAA_J@Z 100453c0 f i libucrtd:output.obj
 0001:000444f0       ??$extract_argument_from_va_list@I_J@?$positional_parameter_base@_WV?$stream_output_adapter@_W@__crt_stdio_output@@@__crt_stdio_output@@IAE_NAA_J@Z 100454f0 f i libucrtd:output.obj
 0001:00044620       ??$extract_argument_from_va_list@I_J@?$positional_parameter_base@_WV?$string_output_adapter@_W@__crt_stdio_output@@@__crt_stdio_output@@IAE_NAA_J@Z 10045620 f i libucrtd:output.obj
 0001:00044750       ??$extract_argument_from_va_list@I_J@?$standard_base@DV?$stream_output_adapter@D@__crt_stdio_output@@@__crt_stdio_output@@IAE_NAA_J@Z 10045750 f i libucrtd:output.obj
 0001:00044780       ??$extract_argument_from_va_list@I_J@?$standard_base@DV?$string_output_adapter@D@__crt_stdio_output@@@__crt_stdio_output@@IAE_NAA_J@Z 10045780 f i libucrtd:output.obj
 0001:000447b0       ??$extract_argument_from_va_list@I_J@?$standard_base@_WV?$stream_output_adapter@_W@__crt_stdio_output@@@__crt_stdio_output@@IAE_NAA_J@Z 100457b0 f i libucrtd:output.obj
 0001:000447e0       ??$extract_argument_from_va_list@I_J@?$standard_base@_WV?$string_output_adapter@_W@__crt_stdio_output@@@__crt_stdio_output@@IAE_NAA_J@Z 100457e0 f i libucrtd:output.obj
 0001:00044810       ??$extract_argument_from_va_list@PADPAD@?$positional_parameter_base@DV?$stream_output_adapter@D@__crt_stdio_output@@@__crt_stdio_output@@IAE_NAAPAD@Z 10045810 f i libucrtd:output.obj
 0001:00044940       ??$extract_argument_from_va_list@PADPAD@?$positional_parameter_base@DV?$string_output_adapter@D@__crt_stdio_output@@@__crt_stdio_output@@IAE_NAAPAD@Z 10045940 f i libucrtd:output.obj
 0001:00044a70       ??$extract_argument_from_va_list@PADPAD@?$positional_parameter_base@_WV?$stream_output_adapter@_W@__crt_stdio_output@@@__crt_stdio_output@@IAE_NAAPAD@Z 10045a70 f i libucrtd:output.obj
 0001:00044ba0       ??$extract_argument_from_va_list@PADPAD@?$positional_parameter_base@_WV?$string_output_adapter@_W@__crt_stdio_output@@@__crt_stdio_output@@IAE_NAAPAD@Z 10045ba0 f i libucrtd:output.obj
 0001:00044cd0       ??$extract_argument_from_va_list@PADPAD@?$standard_base@DV?$stream_output_adapter@D@__crt_stdio_output@@@__crt_stdio_output@@IAE_NAAPAD@Z 10045cd0 f i libucrtd:output.obj
 0001:00044d00       ??$extract_argument_from_va_list@PADPAD@?$standard_base@DV?$string_output_adapter@D@__crt_stdio_output@@@__crt_stdio_output@@IAE_NAAPAD@Z 10045d00 f i libucrtd:output.obj
 0001:00044d30       ??$extract_argument_from_va_list@PADPAD@?$standard_base@_WV?$stream_output_adapter@_W@__crt_stdio_output@@@__crt_stdio_output@@IAE_NAAPAD@Z 10045d30 f i libucrtd:output.obj
 0001:00044d60       ??$extract_argument_from_va_list@PADPAD@?$standard_base@_WV?$string_output_adapter@_W@__crt_stdio_output@@@__crt_stdio_output@@IAE_NAAPAD@Z 10045d60 f i libucrtd:output.obj
 0001:00044d90       ??$extract_argument_from_va_list@PAUansi_string@?1??type_case_Z@?$output_processor@DV?$stream_output_adapter@D@__crt_stdio_output@@V?$format_validation_base@DV?$stream_output_adapter@D@__crt_stdio_output@@@2@@__crt_stdio_output@@AAE_NXZ@PAU1?1??234@AAE_NXZ@@?$standard_base@DV?$stream_output_adapter@D@__crt_stdio_output@@@__crt_stdio_output@@IAE_NAAPAUansi_string@?1??type_case_Z@?$output_processor@DV?$stream_output_adapter@D@__crt_stdio_output@@V?$format_validation_base@DV?$stream_output_adapter@D@__crt_stdio_output@@@2@@1@AAE_NXZ@@Z 10045d90 f i libucrtd:output.obj
 0001:00044dc0       ??$extract_argument_from_va_list@PAUansi_string@?1??type_case_Z@?$output_processor@DV?$stream_output_adapter@D@__crt_stdio_output@@V?$positional_parameter_base@DV?$stream_output_adapter@D@__crt_stdio_output@@@2@@__crt_stdio_output@@AAE_NXZ@PAU1?1??234@AAE_NXZ@@?$positional_parameter_base@DV?$stream_output_adapter@D@__crt_stdio_output@@@__crt_stdio_output@@IAE_NAAPAUansi_string@?1??type_case_Z@?$output_processor@DV?$stream_output_adapter@D@__crt_stdio_output@@V?$positional_parameter_base@DV?$stream_output_adapter@D@__crt_stdio_output@@@2@@1@AAE_NXZ@@Z 10045dc0 f i libucrtd:output.obj
 0001:00044ef0       ??$extract_argument_from_va_list@PAUansi_string@?1??type_case_Z@?$output_processor@DV?$stream_output_adapter@D@__crt_stdio_output@@V?$positional_parameter_base@DV?$stream_output_adapter@D@__crt_stdio_output@@@2@@__crt_stdio_output@@AAE_NXZ@PAU1?1??234@AAE_NXZ@@?$standard_base@DV?$stream_output_adapter@D@__crt_stdio_output@@@__crt_stdio_output@@IAE_NAAPAUansi_string@?1??type_case_Z@?$output_processor@DV?$stream_output_adapter@D@__crt_stdio_output@@V?$positional_parameter_base@DV?$stream_output_adapter@D@__crt_stdio_output@@@2@@1@AAE_NXZ@@Z 10045ef0 f i libucrtd:output.obj
 0001:00044f20       ??$extract_argument_from_va_list@PAUansi_string@?1??type_case_Z@?$output_processor@DV?$stream_output_adapter@D@__crt_stdio_output@@V?$standard_base@DV?$stream_output_adapter@D@__crt_stdio_output@@@2@@__crt_stdio_output@@AAE_NXZ@PAU1?1??234@AAE_NXZ@@?$standard_base@DV?$stream_output_adapter@D@__crt_stdio_output@@@__crt_stdio_output@@IAE_NAAPAUansi_string@?1??type_case_Z@?$output_processor@DV?$stream_output_adapter@D@__crt_stdio_output@@V?$standard_base@DV?$stream_output_adapter@D@__crt_stdio_output@@@2@@1@AAE_NXZ@@Z 10045f20 f i libucrtd:output.obj
 0001:00044f50       ??$extract_argument_from_va_list@PAUansi_string@?1??type_case_Z@?$output_processor@DV?$string_output_adapter@D@__crt_stdio_output@@V?$format_validation_base@DV?$string_output_adapter@D@__crt_stdio_output@@@2@@__crt_stdio_output@@AAE_NXZ@PAU1?1??234@AAE_NXZ@@?$standard_base@DV?$string_output_adapter@D@__crt_stdio_output@@@__crt_stdio_output@@IAE_NAAPAUansi_string@?1??type_case_Z@?$output_processor@DV?$string_output_adapter@D@__crt_stdio_output@@V?$format_validation_base@DV?$string_output_adapter@D@__crt_stdio_output@@@2@@1@AAE_NXZ@@Z 10045f50 f i libucrtd:output.obj
 0001:00044f80       ??$extract_argument_from_va_list@PAUansi_string@?1??type_case_Z@?$output_processor@DV?$string_output_adapter@D@__crt_stdio_output@@V?$positional_parameter_base@DV?$string_output_adapter@D@__crt_stdio_output@@@2@@__crt_stdio_output@@AAE_NXZ@PAU1?1??234@AAE_NXZ@@?$positional_parameter_base@DV?$string_output_adapter@D@__crt_stdio_output@@@__crt_stdio_output@@IAE_NAAPAUansi_string@?1??type_case_Z@?$output_processor@DV?$string_output_adapter@D@__crt_stdio_output@@V?$positional_parameter_base@DV?$string_output_adapter@D@__crt_stdio_output@@@2@@1@AAE_NXZ@@Z 10045f80 f i libucrtd:output.obj
 0001:000450b0       ??$extract_argument_from_va_list@PAUansi_string@?1??type_case_Z@?$output_processor@DV?$string_output_adapter@D@__crt_stdio_output@@V?$positional_parameter_base@DV?$string_output_adapter@D@__crt_stdio_output@@@2@@__crt_stdio_output@@AAE_NXZ@PAU1?1??234@AAE_NXZ@@?$standard_base@DV?$string_output_adapter@D@__crt_stdio_output@@@__crt_stdio_output@@IAE_NAAPAUansi_string@?1??type_case_Z@?$output_processor@DV?$string_output_adapter@D@__crt_stdio_output@@V?$positional_parameter_base@DV?$string_output_adapter@D@__crt_stdio_output@@@2@@1@AAE_NXZ@@Z 100460b0 f i libucrtd:output.obj
 0001:000450e0       ??$extract_argument_from_va_list@PAUansi_string@?1??type_case_Z@?$output_processor@DV?$string_output_adapter@D@__crt_stdio_output@@V?$standard_base@DV?$string_output_adapter@D@__crt_stdio_output@@@2@@__crt_stdio_output@@AAE_NXZ@PAU1?1??234@AAE_NXZ@@?$standard_base@DV?$string_output_adapter@D@__crt_stdio_output@@@__crt_stdio_output@@IAE_NAAPAUansi_string@?1??type_case_Z@?$output_processor@DV?$string_output_adapter@D@__crt_stdio_output@@V?$standard_base@DV?$string_output_adapter@D@__crt_stdio_output@@@2@@1@AAE_NXZ@@Z 100460e0 f i libucrtd:output.obj
 0001:00045110       ??$extract_argument_from_va_list@PAUansi_string@?1??type_case_Z@?$output_processor@_WV?$stream_output_adapter@_W@__crt_stdio_output@@V?$format_validation_base@_WV?$stream_output_adapter@_W@__crt_stdio_output@@@2@@__crt_stdio_output@@AAE_NXZ@PAU1?1??234@AAE_NXZ@@?$standard_base@_WV?$stream_output_adapter@_W@__crt_stdio_output@@@__crt_stdio_output@@IAE_NAAPAUansi_string@?1??type_case_Z@?$output_processor@_WV?$stream_output_adapter@_W@__crt_stdio_output@@V?$format_validation_base@_WV?$stream_output_adapter@_W@__crt_stdio_output@@@2@@1@AAE_NXZ@@Z 10046110 f i libucrtd:output.obj
 0001:00045140       ??$extract_argument_from_va_list@PAUansi_string@?1??type_case_Z@?$output_processor@_WV?$stream_output_adapter@_W@__crt_stdio_output@@V?$positional_parameter_base@_WV?$stream_output_adapter@_W@__crt_stdio_output@@@2@@__crt_stdio_output@@AAE_NXZ@PAU1?1??234@AAE_NXZ@@?$positional_parameter_base@_WV?$stream_output_adapter@_W@__crt_stdio_output@@@__crt_stdio_output@@IAE_NAAPAUansi_string@?1??type_case_Z@?$output_processor@_WV?$stream_output_adapter@_W@__crt_stdio_output@@V?$positional_parameter_base@_WV?$stream_output_adapter@_W@__crt_stdio_output@@@2@@1@AAE_NXZ@@Z 10046140 f i libucrtd:output.obj
 0001:00045270       ??$extract_argument_from_va_list@PAUansi_string@?1??type_case_Z@?$output_processor@_WV?$stream_output_adapter@_W@__crt_stdio_output@@V?$positional_parameter_base@_WV?$stream_output_adapter@_W@__crt_stdio_output@@@2@@__crt_stdio_output@@AAE_NXZ@PAU1?1??234@AAE_NXZ@@?$standard_base@_WV?$stream_output_adapter@_W@__crt_stdio_output@@@__crt_stdio_output@@IAE_NAAPAUansi_string@?1??type_case_Z@?$output_processor@_WV?$stream_output_adapter@_W@__crt_stdio_output@@V?$positional_parameter_base@_WV?$stream_output_adapter@_W@__crt_stdio_output@@@2@@1@AAE_NXZ@@Z 10046270 f i libucrtd:output.obj
 0001:000452a0       ??$extract_argument_from_va_list@PAUansi_string@?1??type_case_Z@?$output_processor@_WV?$stream_output_adapter@_W@__crt_stdio_output@@V?$standard_base@_WV?$stream_output_adapter@_W@__crt_stdio_output@@@2@@__crt_stdio_output@@AAE_NXZ@PAU1?1??234@AAE_NXZ@@?$standard_base@_WV?$stream_output_adapter@_W@__crt_stdio_output@@@__crt_stdio_output@@IAE_NAAPAUansi_string@?1??type_case_Z@?$output_processor@_WV?$stream_output_adapter@_W@__crt_stdio_output@@V?$standard_base@_WV?$stream_output_adapter@_W@__crt_stdio_output@@@2@@1@AAE_NXZ@@Z 100462a0 f i libucrtd:output.obj
 0001:000452d0       ??$extract_argument_from_va_list@PAUansi_string@?1??type_case_Z@?$output_processor@_WV?$string_output_adapter@_W@__crt_stdio_output@@V?$format_validation_base@_WV?$string_output_adapter@_W@__crt_stdio_output@@@2@@__crt_stdio_output@@AAE_NXZ@PAU1?1??234@AAE_NXZ@@?$standard_base@_WV?$string_output_adapter@_W@__crt_stdio_output@@@__crt_stdio_output@@IAE_NAAPAUansi_string@?1??type_case_Z@?$output_processor@_WV?$string_output_adapter@_W@__crt_stdio_output@@V?$format_validation_base@_WV?$string_output_adapter@_W@__crt_stdio_output@@@2@@1@AAE_NXZ@@Z 100462d0 f i libucrtd:output.obj
 0001:00045300       ??$extract_argument_from_va_list@PAUansi_string@?1??type_case_Z@?$output_processor@_WV?$string_output_adapter@_W@__crt_stdio_output@@V?$positional_parameter_base@_WV?$string_output_adapter@_W@__crt_stdio_output@@@2@@__crt_stdio_output@@AAE_NXZ@PAU1?1??234@AAE_NXZ@@?$positional_parameter_base@_WV?$string_output_adapter@_W@__crt_stdio_output@@@__crt_stdio_output@@IAE_NAAPAUansi_string@?1??type_case_Z@?$output_processor@_WV?$string_output_adapter@_W@__crt_stdio_output@@V?$positional_parameter_base@_WV?$string_output_adapter@_W@__crt_stdio_output@@@2@@1@AAE_NXZ@@Z 10046300 f i libucrtd:output.obj
 0001:00045430       ??$extract_argument_from_va_list@PAUansi_string@?1??type_case_Z@?$output_processor@_WV?$string_output_adapter@_W@__crt_stdio_output@@V?$positional_parameter_base@_WV?$string_output_adapter@_W@__crt_stdio_output@@@2@@__crt_stdio_output@@AAE_NXZ@PAU1?1??234@AAE_NXZ@@?$standard_base@_WV?$string_output_adapter@_W@__crt_stdio_output@@@__crt_stdio_output@@IAE_NAAPAUansi_string@?1??type_case_Z@?$output_processor@_WV?$string_output_adapter@_W@__crt_stdio_output@@V?$positional_parameter_base@_WV?$string_output_adapter@_W@__crt_stdio_output@@@2@@1@AAE_NXZ@@Z 10046430 f i libucrtd:output.obj
 0001:00045460       ??$extract_argument_from_va_list@PAUansi_string@?1??type_case_Z@?$output_processor@_WV?$string_output_adapter@_W@__crt_stdio_output@@V?$standard_base@_WV?$string_output_adapter@_W@__crt_stdio_output@@@2@@__crt_stdio_output@@AAE_NXZ@PAU1?1??234@AAE_NXZ@@?$standard_base@_WV?$string_output_adapter@_W@__crt_stdio_output@@@__crt_stdio_output@@IAE_NAAPAUansi_string@?1??type_case_Z@?$output_processor@_WV?$string_output_adapter@_W@__crt_stdio_output@@V?$standard_base@_WV?$string_output_adapter@_W@__crt_stdio_output@@@2@@1@AAE_NXZ@@Z 10046460 f i libucrtd:output.obj
 0001:00045490       ??$extract_argument_from_va_list@PAXPAX@?$positional_parameter_base@DV?$stream_output_adapter@D@__crt_stdio_output@@@__crt_stdio_output@@IAE_NAAPAX@Z 10046490 f i libucrtd:output.obj
 0001:000455c0       ??$extract_argument_from_va_list@PAXPAX@?$positional_parameter_base@DV?$string_output_adapter@D@__crt_stdio_output@@@__crt_stdio_output@@IAE_NAAPAX@Z 100465c0 f i libucrtd:output.obj
 0001:000456f0       ??$extract_argument_from_va_list@PAXPAX@?$positional_parameter_base@_WV?$stream_output_adapter@_W@__crt_stdio_output@@@__crt_stdio_output@@IAE_NAAPAX@Z 100466f0 f i libucrtd:output.obj
 0001:00045820       ??$extract_argument_from_va_list@PAXPAX@?$positional_parameter_base@_WV?$string_output_adapter@_W@__crt_stdio_output@@@__crt_stdio_output@@IAE_NAAPAX@Z 10046820 f i libucrtd:output.obj
 0001:00045950       ??$extract_argument_from_va_list@PAXPAX@?$standard_base@DV?$stream_output_adapter@D@__crt_stdio_output@@@__crt_stdio_output@@IAE_NAAPAX@Z 10046950 f i libucrtd:output.obj
 0001:00045980       ??$extract_argument_from_va_list@PAXPAX@?$standard_base@DV?$string_output_adapter@D@__crt_stdio_output@@@__crt_stdio_output@@IAE_NAAPAX@Z 10046980 f i libucrtd:output.obj
 0001:000459b0       ??$extract_argument_from_va_list@PAXPAX@?$standard_base@_WV?$stream_output_adapter@_W@__crt_stdio_output@@@__crt_stdio_output@@IAE_NAAPAX@Z 100469b0 f i libucrtd:output.obj
 0001:000459e0       ??$extract_argument_from_va_list@PAXPAX@?$standard_base@_WV?$string_output_adapter@_W@__crt_stdio_output@@@__crt_stdio_output@@IAE_NAAPAX@Z 100469e0 f i libucrtd:output.obj
 0001:00045a10       ??$extract_argument_from_va_list@U_CRT_DOUBLE@@U1@@?$positional_parameter_base@DV?$stream_output_adapter@D@__crt_stdio_output@@@__crt_stdio_output@@IAE_NAAU_CRT_DOUBLE@@@Z 10046a10 f i libucrtd:output.obj
 0001:00045b70       ??$extract_argument_from_va_list@U_CRT_DOUBLE@@U1@@?$positional_parameter_base@DV?$string_output_adapter@D@__crt_stdio_output@@@__crt_stdio_output@@IAE_NAAU_CRT_DOUBLE@@@Z 10046b70 f i libucrtd:output.obj
 0001:00045cd0       ??$extract_argument_from_va_list@U_CRT_DOUBLE@@U1@@?$positional_parameter_base@_WV?$stream_output_adapter@_W@__crt_stdio_output@@@__crt_stdio_output@@IAE_NAAU_CRT_DOUBLE@@@Z 10046cd0 f i libucrtd:output.obj
 0001:00045e30       ??$extract_argument_from_va_list@U_CRT_DOUBLE@@U1@@?$positional_parameter_base@_WV?$string_output_adapter@_W@__crt_stdio_output@@@__crt_stdio_output@@IAE_NAAU_CRT_DOUBLE@@@Z 10046e30 f i libucrtd:output.obj
 0001:00045f90       ??$extract_argument_from_va_list@U_CRT_DOUBLE@@U1@@?$standard_base@DV?$stream_output_adapter@D@__crt_stdio_output@@@__crt_stdio_output@@IAE_NAAU_CRT_DOUBLE@@@Z 10046f90 f i libucrtd:output.obj
 0001:00045fe0       ??$extract_argument_from_va_list@U_CRT_DOUBLE@@U1@@?$standard_base@DV?$string_output_adapter@D@__crt_stdio_output@@@__crt_stdio_output@@IAE_NAAU_CRT_DOUBLE@@@Z 10046fe0 f i libucrtd:output.obj
 0001:00046030       ??$extract_argument_from_va_list@U_CRT_DOUBLE@@U1@@?$standard_base@_WV?$stream_output_adapter@_W@__crt_stdio_output@@@__crt_stdio_output@@IAE_NAAU_CRT_DOUBLE@@@Z 10047030 f i libucrtd:output.obj
 0001:00046080       ??$extract_argument_from_va_list@U_CRT_DOUBLE@@U1@@?$standard_base@_WV?$string_output_adapter@_W@__crt_stdio_output@@@__crt_stdio_output@@IAE_NAAU_CRT_DOUBLE@@@Z 10047080 f i libucrtd:output.obj
 0001:000460d0       ??$extract_argument_from_va_list@_J_J@?$positional_parameter_base@DV?$stream_output_adapter@D@__crt_stdio_output@@@__crt_stdio_output@@IAE_NAA_J@Z 100470d0 f i libucrtd:output.obj
 0001:00046200       ??$extract_argument_from_va_list@_J_J@?$positional_parameter_base@DV?$string_output_adapter@D@__crt_stdio_output@@@__crt_stdio_output@@IAE_NAA_J@Z 10047200 f i libucrtd:output.obj
 0001:00046330       ??$extract_argument_from_va_list@_J_J@?$positional_parameter_base@_WV?$stream_output_adapter@_W@__crt_stdio_output@@@__crt_stdio_output@@IAE_NAA_J@Z 10047330 f i libucrtd:output.obj
 0001:00046460       ??$extract_argument_from_va_list@_J_J@?$positional_parameter_base@_WV?$string_output_adapter@_W@__crt_stdio_output@@@__crt_stdio_output@@IAE_NAA_J@Z 10047460 f i libucrtd:output.obj
 0001:00046590       ??$extract_argument_from_va_list@_J_J@?$standard_base@DV?$stream_output_adapter@D@__crt_stdio_output@@@__crt_stdio_output@@IAE_NAA_J@Z 10047590 f i libucrtd:output.obj
 0001:000465c0       ??$extract_argument_from_va_list@_J_J@?$standard_base@DV?$string_output_adapter@D@__crt_stdio_output@@@__crt_stdio_output@@IAE_NAA_J@Z 100475c0 f i libucrtd:output.obj
 0001:000465f0       ??$extract_argument_from_va_list@_J_J@?$standard_base@_WV?$stream_output_adapter@_W@__crt_stdio_output@@@__crt_stdio_output@@IAE_NAA_J@Z 100475f0 f i libucrtd:output.obj
 0001:00046620       ??$extract_argument_from_va_list@_J_J@?$standard_base@_WV?$string_output_adapter@_W@__crt_stdio_output@@@__crt_stdio_output@@IAE_NAA_J@Z 10047620 f i libucrtd:output.obj
 0001:00046650       ??$extract_argument_from_va_list@_K_J@?$positional_parameter_base@DV?$stream_output_adapter@D@__crt_stdio_output@@@__crt_stdio_output@@IAE_NAA_J@Z 10047650 f i libucrtd:output.obj
 0001:00046780       ??$extract_argument_from_va_list@_K_J@?$positional_parameter_base@DV?$string_output_adapter@D@__crt_stdio_output@@@__crt_stdio_output@@IAE_NAA_J@Z 10047780 f i libucrtd:output.obj
 0001:000468b0       ??$extract_argument_from_va_list@_K_J@?$positional_parameter_base@_WV?$stream_output_adapter@_W@__crt_stdio_output@@@__crt_stdio_output@@IAE_NAA_J@Z 100478b0 f i libucrtd:output.obj
 0001:000469e0       ??$extract_argument_from_va_list@_K_J@?$positional_parameter_base@_WV?$string_output_adapter@_W@__crt_stdio_output@@@__crt_stdio_output@@IAE_NAA_J@Z 100479e0 f i libucrtd:output.obj
 0001:00046b10       ??$extract_argument_from_va_list@_K_J@?$standard_base@DV?$stream_output_adapter@D@__crt_stdio_output@@@__crt_stdio_output@@IAE_NAA_J@Z 10047b10 f i libucrtd:output.obj
 0001:00046b40       ??$extract_argument_from_va_list@_K_J@?$standard_base@DV?$string_output_adapter@D@__crt_stdio_output@@@__crt_stdio_output@@IAE_NAA_J@Z 10047b40 f i libucrtd:output.obj
 0001:00046b70       ??$extract_argument_from_va_list@_K_J@?$standard_base@_WV?$stream_output_adapter@_W@__crt_stdio_output@@@__crt_stdio_output@@IAE_NAA_J@Z 10047b70 f i libucrtd:output.obj
 0001:00046ba0       ??$extract_argument_from_va_list@_K_J@?$standard_base@_WV?$string_output_adapter@_W@__crt_stdio_output@@@__crt_stdio_output@@IAE_NAA_J@Z 10047ba0 f i libucrtd:output.obj
 0001:00046bd0       ??$extract_argument_from_va_list@_W_W@?$positional_parameter_base@DV?$stream_output_adapter@D@__crt_stdio_output@@@__crt_stdio_output@@IAE_NAA_W@Z 10047bd0 f i libucrtd:output.obj
 0001:00046d00       ??$extract_argument_from_va_list@_W_W@?$positional_parameter_base@DV?$string_output_adapter@D@__crt_stdio_output@@@__crt_stdio_output@@IAE_NAA_W@Z 10047d00 f i libucrtd:output.obj
 0001:00046e30       ??$extract_argument_from_va_list@_W_W@?$positional_parameter_base@_WV?$stream_output_adapter@_W@__crt_stdio_output@@@__crt_stdio_output@@IAE_NAA_W@Z 10047e30 f i libucrtd:output.obj
 0001:00046f60       ??$extract_argument_from_va_list@_W_W@?$positional_parameter_base@_WV?$string_output_adapter@_W@__crt_stdio_output@@@__crt_stdio_output@@IAE_NAA_W@Z 10047f60 f i libucrtd:output.obj
 0001:00047090       ??$extract_argument_from_va_list@_W_W@?$standard_base@DV?$stream_output_adapter@D@__crt_stdio_output@@@__crt_stdio_output@@IAE_NAA_W@Z 10048090 f i libucrtd:output.obj
 0001:000470c0       ??$extract_argument_from_va_list@_W_W@?$standard_base@DV?$string_output_adapter@D@__crt_stdio_output@@@__crt_stdio_output@@IAE_NAA_W@Z 100480c0 f i libucrtd:output.obj
 0001:000470f0       ??$extract_argument_from_va_list@_W_W@?$standard_base@_WV?$stream_output_adapter@_W@__crt_stdio_output@@@__crt_stdio_output@@IAE_NAA_W@Z 100480f0 f i libucrtd:output.obj
 0001:00047120       ??$extract_argument_from_va_list@_W_W@?$standard_base@_WV?$string_output_adapter@_W@__crt_stdio_output@@@__crt_stdio_output@@IAE_NAA_W@Z 10048120 f i libucrtd:output.obj
 0001:00047150       ??$get_parameter_type@D@?$positional_parameter_base@DV?$stream_output_adapter@D@__crt_stdio_output@@@__crt_stdio_output@@CA?AW4parameter_type@01@PAD@Z 10048150 f i libucrtd:output.obj
 0001:00047160       ??$get_parameter_type@D@?$positional_parameter_base@DV?$string_output_adapter@D@__crt_stdio_output@@@__crt_stdio_output@@CA?AW4parameter_type@01@PAD@Z 10048160 f i libucrtd:output.obj
 0001:00047170       ??$get_parameter_type@D@?$positional_parameter_base@_WV?$stream_output_adapter@_W@__crt_stdio_output@@@__crt_stdio_output@@CA?AW4parameter_type@01@PAD@Z 10048170 f i libucrtd:output.obj
 0001:00047180       ??$get_parameter_type@D@?$positional_parameter_base@_WV?$string_output_adapter@_W@__crt_stdio_output@@@__crt_stdio_output@@CA?AW4parameter_type@01@PAD@Z 10048180 f i libucrtd:output.obj
 0001:00047190       ??$get_parameter_type@Uansi_string@?1??type_case_Z@?$output_processor@DV?$stream_output_adapter@D@__crt_stdio_output@@V?$positional_parameter_base@DV?$stream_output_adapter@D@__crt_stdio_output@@@2@@__crt_stdio_output@@AAE_NXZ@@?$positional_parameter_base@DV?$stream_output_adapter@D@__crt_stdio_output@@@__crt_stdio_output@@CA?AW4parameter_type@01@PAUansi_string@?1??type_case_Z@?$output_processor@DV?$stream_output_adapter@D@__crt_stdio_output@@V?$positional_parameter_base@DV?$stream_output_adapter@D@__crt_stdio_output@@@2@@1@AAE_NXZ@@Z 10048190 f i libucrtd:output.obj
 0001:000471a0       ??$get_parameter_type@Uansi_string@?1??type_case_Z@?$output_processor@DV?$string_output_adapter@D@__crt_stdio_output@@V?$positional_parameter_base@DV?$string_output_adapter@D@__crt_stdio_output@@@2@@__crt_stdio_output@@AAE_NXZ@@?$positional_parameter_base@DV?$string_output_adapter@D@__crt_stdio_output@@@__crt_stdio_output@@CA?AW4parameter_type@01@PAUansi_string@?1??type_case_Z@?$output_processor@DV?$string_output_adapter@D@__crt_stdio_output@@V?$positional_parameter_base@DV?$string_output_adapter@D@__crt_stdio_output@@@2@@1@AAE_NXZ@@Z 100481a0 f i libucrtd:output.obj
 0001:000471b0       ??$get_parameter_type@Uansi_string@?1??type_case_Z@?$output_processor@_WV?$stream_output_adapter@_W@__crt_stdio_output@@V?$positional_parameter_base@_WV?$stream_output_adapter@_W@__crt_stdio_output@@@2@@__crt_stdio_output@@AAE_NXZ@@?$positional_parameter_base@_WV?$stream_output_adapter@_W@__crt_stdio_output@@@__crt_stdio_output@@CA?AW4parameter_type@01@PAUansi_string@?1??type_case_Z@?$output_processor@_WV?$stream_output_adapter@_W@__crt_stdio_output@@V?$positional_parameter_base@_WV?$stream_output_adapter@_W@__crt_stdio_output@@@2@@1@AAE_NXZ@@Z 100481b0 f i libucrtd:output.obj
 0001:000471c0       ??$get_parameter_type@Uansi_string@?1??type_case_Z@?$output_processor@_WV?$string_output_adapter@_W@__crt_stdio_output@@V?$positional_parameter_base@_WV?$string_output_adapter@_W@__crt_stdio_output@@@2@@__crt_stdio_output@@AAE_NXZ@@?$positional_parameter_base@_WV?$string_output_adapter@_W@__crt_stdio_output@@@__crt_stdio_output@@CA?AW4parameter_type@01@PAUansi_string@?1??type_case_Z@?$output_processor@_WV?$string_output_adapter@_W@__crt_stdio_output@@V?$positional_parameter_base@_WV?$string_output_adapter@_W@__crt_stdio_output@@@2@@1@AAE_NXZ@@Z 100481c0 f i libucrtd:output.obj
 0001:000471d0       ??$get_parameter_type@X@?$positional_parameter_base@DV?$stream_output_adapter@D@__crt_stdio_output@@@__crt_stdio_output@@CA?AW4parameter_type@01@PAX@Z 100481d0 f i libucrtd:output.obj
 0001:000471e0       ??$get_parameter_type@X@?$positional_parameter_base@DV?$string_output_adapter@D@__crt_stdio_output@@@__crt_stdio_output@@CA?AW4parameter_type@01@PAX@Z 100481e0 f i libucrtd:output.obj
 0001:000471f0       ??$get_parameter_type@X@?$positional_parameter_base@_WV?$stream_output_adapter@_W@__crt_stdio_output@@@__crt_stdio_output@@CA?AW4parameter_type@01@PAX@Z 100481f0 f i libucrtd:output.obj
 0001:00047200       ??$get_parameter_type@X@?$positional_parameter_base@_WV?$string_output_adapter@_W@__crt_stdio_output@@@__crt_stdio_output@@CA?AW4parameter_type@01@PAX@Z 10048200 f i libucrtd:output.obj
 0001:00047210       ??$is_character_specifier@D@?$positional_parameter_base@DV?$stream_output_adapter@D@__crt_stdio_output@@@__crt_stdio_output@@CA_ND@Z 10048210 f i libucrtd:output.obj
 0001:00047240       ??$is_character_specifier@D@?$positional_parameter_base@DV?$string_output_adapter@D@__crt_stdio_output@@@__crt_stdio_output@@CA_ND@Z 10048240 f i libucrtd:output.obj
 0001:00047270       ??$is_character_specifier@_W@?$positional_parameter_base@_WV?$stream_output_adapter@_W@__crt_stdio_output@@@__crt_stdio_output@@CA_N_W@Z 10048270 f i libucrtd:output.obj
 0001:000472a0       ??$is_character_specifier@_W@?$positional_parameter_base@_WV?$string_output_adapter@_W@__crt_stdio_output@@@__crt_stdio_output@@CA_N_W@Z 100482a0 f i libucrtd:output.obj
 0001:000472d0       ??$is_integral_specifier@D@?$positional_parameter_base@DV?$stream_output_adapter@D@__crt_stdio_output@@@__crt_stdio_output@@CA_ND@Z 100482d0 f i libucrtd:output.obj
 0001:00047330       ??$is_integral_specifier@D@?$positional_parameter_base@DV?$string_output_adapter@D@__crt_stdio_output@@@__crt_stdio_output@@CA_ND@Z 10048330 f i libucrtd:output.obj
 0001:00047390       ??$is_integral_specifier@_W@?$positional_parameter_base@_WV?$stream_output_adapter@_W@__crt_stdio_output@@@__crt_stdio_output@@CA_N_W@Z 10048390 f i libucrtd:output.obj
 0001:000473f0       ??$is_integral_specifier@_W@?$positional_parameter_base@_WV?$string_output_adapter@_W@__crt_stdio_output@@@__crt_stdio_output@@CA_N_W@Z 100483f0 f i libucrtd:output.obj
 0001:00047450       ??$is_pointer_specifier@D@?$positional_parameter_base@DV?$stream_output_adapter@D@__crt_stdio_output@@@__crt_stdio_output@@CA_ND@Z 10048450 f i libucrtd:output.obj
 0001:00047480       ??$is_pointer_specifier@D@?$positional_parameter_base@DV?$string_output_adapter@D@__crt_stdio_output@@@__crt_stdio_output@@CA_ND@Z 10048480 f i libucrtd:output.obj
 0001:000474b0       ??$is_pointer_specifier@_W@?$positional_parameter_base@_WV?$stream_output_adapter@_W@__crt_stdio_output@@@__crt_stdio_output@@CA_N_W@Z 100484b0 f i libucrtd:output.obj
 0001:000474e0       ??$is_pointer_specifier@_W@?$positional_parameter_base@_WV?$string_output_adapter@_W@__crt_stdio_output@@@__crt_stdio_output@@CA_N_W@Z 100484e0 f i libucrtd:output.obj
 0001:00047510       ??$is_string_specifier@D@?$positional_parameter_base@DV?$stream_output_adapter@D@__crt_stdio_output@@@__crt_stdio_output@@CA_ND@Z 10048510 f i libucrtd:output.obj
 0001:00047540       ??$is_string_specifier@D@?$positional_parameter_base@DV?$string_output_adapter@D@__crt_stdio_output@@@__crt_stdio_output@@CA_ND@Z 10048540 f i libucrtd:output.obj
 0001:00047570       ??$is_string_specifier@_W@?$positional_parameter_base@_WV?$stream_output_adapter@_W@__crt_stdio_output@@@__crt_stdio_output@@CA_N_W@Z 10048570 f i libucrtd:output.obj
 0001:000475a0       ??$is_string_specifier@_W@?$positional_parameter_base@_WV?$string_output_adapter@_W@__crt_stdio_output@@@__crt_stdio_output@@CA_N_W@Z 100485a0 f i libucrtd:output.obj
 0001:000475d0       ??$is_wide_character_specifier@D@__crt_stdio_output@@YA_N_KDW4length_modifier@0@@Z 100485d0 f i libucrtd:output.obj
 0001:00047650       ??$is_wide_character_specifier@_W@__crt_stdio_output@@YA_N_K_WW4length_modifier@0@@Z 10048650 f i libucrtd:output.obj
 0001:00047710       ??$peek_va_arg@C@__crt_stdio_output@@YACPAD@Z 10048710 f i libucrtd:output.obj
 0001:00047730       ??$peek_va_arg@E@__crt_stdio_output@@YAEPAD@Z 10048730 f i libucrtd:output.obj
 0001:00047750       ??$peek_va_arg@F@__crt_stdio_output@@YAFPAD@Z 10048750 f i libucrtd:output.obj
 0001:00047770       ??$peek_va_arg@G@__crt_stdio_output@@YAGPAD@Z 10048770 f i libucrtd:output.obj
 0001:00047790       ??$peek_va_arg@H@__crt_stdio_output@@YAHPAD@Z 10048790 f i libucrtd:output.obj
 0001:000477b0       ??$peek_va_arg@I@__crt_stdio_output@@YAIPAD@Z 100487b0 f i libucrtd:output.obj
 0001:000477d0       ??$peek_va_arg@PAD@__crt_stdio_output@@YAPADPAD@Z 100487d0 f i libucrtd:output.obj
 0001:000477f0       ??$peek_va_arg@PAUansi_string@?1??type_case_Z@?$output_processor@DV?$stream_output_adapter@D@__crt_stdio_output@@V?$positional_parameter_base@DV?$stream_output_adapter@D@__crt_stdio_output@@@2@@__crt_stdio_output@@AAE_NXZ@@__crt_stdio_output@@YAPAUansi_string@?1??type_case_Z@?$output_processor@DV?$stream_output_adapter@D@__crt_stdio_output@@V?$positional_parameter_base@DV?$stream_output_adapter@D@__crt_stdio_output@@@2@@0@AAE_NXZ@PAD@Z 100487f0 f i libucrtd:output.obj
 0001:00047810       ??$peek_va_arg@PAUansi_string@?1??type_case_Z@?$output_processor@DV?$string_output_adapter@D@__crt_stdio_output@@V?$positional_parameter_base@DV?$string_output_adapter@D@__crt_stdio_output@@@2@@__crt_stdio_output@@AAE_NXZ@@__crt_stdio_output@@YAPAUansi_string@?1??type_case_Z@?$output_processor@DV?$string_output_adapter@D@__crt_stdio_output@@V?$positional_parameter_base@DV?$string_output_adapter@D@__crt_stdio_output@@@2@@0@AAE_NXZ@PAD@Z 10048810 f i libucrtd:output.obj
 0001:00047830       ??$peek_va_arg@PAUansi_string@?1??type_case_Z@?$output_processor@_WV?$stream_output_adapter@_W@__crt_stdio_output@@V?$positional_parameter_base@_WV?$stream_output_adapter@_W@__crt_stdio_output@@@2@@__crt_stdio_output@@AAE_NXZ@@__crt_stdio_output@@YAPAUansi_string@?1??type_case_Z@?$output_processor@_WV?$stream_output_adapter@_W@__crt_stdio_output@@V?$positional_parameter_base@_WV?$stream_output_adapter@_W@__crt_stdio_output@@@2@@0@AAE_NXZ@PAD@Z 10048830 f i libucrtd:output.obj
 0001:00047850       ??$peek_va_arg@PAUansi_string@?1??type_case_Z@?$output_processor@_WV?$string_output_adapter@_W@__crt_stdio_output@@V?$positional_parameter_base@_WV?$string_output_adapter@_W@__crt_stdio_output@@@2@@__crt_stdio_output@@AAE_NXZ@@__crt_stdio_output@@YAPAUansi_string@?1??type_case_Z@?$output_processor@_WV?$string_output_adapter@_W@__crt_stdio_output@@V?$positional_parameter_base@_WV?$string_output_adapter@_W@__crt_stdio_output@@@2@@0@AAE_NXZ@PAD@Z 10048850 f i libucrtd:output.obj
 0001:00047870       ??$peek_va_arg@PAX@__crt_stdio_output@@YAPAXPAD@Z 10048870 f i libucrtd:output.obj
 0001:00047890       ??$peek_va_arg@U_CRT_DOUBLE@@@__crt_stdio_output@@YA?AU_CRT_DOUBLE@@PAD@Z 10048890 f i libucrtd:output.obj
 0001:000478b0       ??$peek_va_arg@_J@__crt_stdio_output@@YA_JPAD@Z 100488b0 f i libucrtd:output.obj
 0001:000478d0       ??$peek_va_arg@_K@__crt_stdio_output@@YA_KPAD@Z 100488d0 f i libucrtd:output.obj
 0001:000478f0       ??$peek_va_arg@_W@__crt_stdio_output@@YA_WPAD@Z 100488f0 f i libucrtd:output.obj
 0001:00047910       ??$puttc_nolock@ABDPAU_iobuf@@@?$__crt_char_traits@D@@SAHABD$$QAPAU_iobuf@@@Z 10048910 f i libucrtd:output.obj
 0001:00047930       ??$puttc_nolock@AB_WPAU_iobuf@@@?$__crt_char_traits@_W@@SAGAB_W$$QAPAU_iobuf@@@Z 10048930 f i libucrtd:output.obj
 0001:00047950       ??$read_va_arg@C@__crt_stdio_output@@YACAAPAD@Z 10048950 f i libucrtd:output.obj
 0001:00047970       ??$read_va_arg@E@__crt_stdio_output@@YAEAAPAD@Z 10048970 f i libucrtd:output.obj
 0001:00047990       ??$read_va_arg@F@__crt_stdio_output@@YAFAAPAD@Z 10048990 f i libucrtd:output.obj
 0001:000479b0       ??$read_va_arg@G@__crt_stdio_output@@YAGAAPAD@Z 100489b0 f i libucrtd:output.obj
 0001:000479d0       ??$read_va_arg@H@__crt_stdio_output@@YAHAAPAD@Z 100489d0 f i libucrtd:output.obj
 0001:000479f0       ??$read_va_arg@I@__crt_stdio_output@@YAIAAPAD@Z 100489f0 f i libucrtd:output.obj
 0001:00047a10       ??$read_va_arg@PAD@__crt_stdio_output@@YAPADAAPAD@Z 10048a10 f i libucrtd:output.obj
 0001:00047a30       ??$read_va_arg@PAUansi_string@?1??type_case_Z@?$output_processor@DV?$stream_output_adapter@D@__crt_stdio_output@@V?$format_validation_base@DV?$stream_output_adapter@D@__crt_stdio_output@@@2@@__crt_stdio_output@@AAE_NXZ@@__crt_stdio_output@@YAPAUansi_string@?1??type_case_Z@?$output_processor@DV?$stream_output_adapter@D@__crt_stdio_output@@V?$format_validation_base@DV?$stream_output_adapter@D@__crt_stdio_output@@@2@@0@AAE_NXZ@AAPAD@Z 10048a30 f i libucrtd:output.obj
 0001:00047a50       ??$read_va_arg@PAUansi_string@?1??type_case_Z@?$output_processor@DV?$stream_output_adapter@D@__crt_stdio_output@@V?$positional_parameter_base@DV?$stream_output_adapter@D@__crt_stdio_output@@@2@@__crt_stdio_output@@AAE_NXZ@@__crt_stdio_output@@YAPAUansi_string@?1??type_case_Z@?$output_processor@DV?$stream_output_adapter@D@__crt_stdio_output@@V?$positional_parameter_base@DV?$stream_output_adapter@D@__crt_stdio_output@@@2@@0@AAE_NXZ@AAPAD@Z 10048a50 f i libucrtd:output.obj
 0001:00047a70       ??$read_va_arg@PAUansi_string@?1??type_case_Z@?$output_processor@DV?$stream_output_adapter@D@__crt_stdio_output@@V?$standard_base@DV?$stream_output_adapter@D@__crt_stdio_output@@@2@@__crt_stdio_output@@AAE_NXZ@@__crt_stdio_output@@YAPAUansi_string@?1??type_case_Z@?$output_processor@DV?$stream_output_adapter@D@__crt_stdio_output@@V?$standard_base@DV?$stream_output_adapter@D@__crt_stdio_output@@@2@@0@AAE_NXZ@AAPAD@Z 10048a70 f i libucrtd:output.obj
 0001:00047a90       ??$read_va_arg@PAUansi_string@?1??type_case_Z@?$output_processor@DV?$string_output_adapter@D@__crt_stdio_output@@V?$format_validation_base@DV?$string_output_adapter@D@__crt_stdio_output@@@2@@__crt_stdio_output@@AAE_NXZ@@__crt_stdio_output@@YAPAUansi_string@?1??type_case_Z@?$output_processor@DV?$string_output_adapter@D@__crt_stdio_output@@V?$format_validation_base@DV?$string_output_adapter@D@__crt_stdio_output@@@2@@0@AAE_NXZ@AAPAD@Z 10048a90 f i libucrtd:output.obj
 0001:00047ab0       ??$read_va_arg@PAUansi_string@?1??type_case_Z@?$output_processor@DV?$string_output_adapter@D@__crt_stdio_output@@V?$positional_parameter_base@DV?$string_output_adapter@D@__crt_stdio_output@@@2@@__crt_stdio_output@@AAE_NXZ@@__crt_stdio_output@@YAPAUansi_string@?1??type_case_Z@?$output_processor@DV?$string_output_adapter@D@__crt_stdio_output@@V?$positional_parameter_base@DV?$string_output_adapter@D@__crt_stdio_output@@@2@@0@AAE_NXZ@AAPAD@Z 10048ab0 f i libucrtd:output.obj
 0001:00047ad0       ??$read_va_arg@PAUansi_string@?1??type_case_Z@?$output_processor@DV?$string_output_adapter@D@__crt_stdio_output@@V?$standard_base@DV?$string_output_adapter@D@__crt_stdio_output@@@2@@__crt_stdio_output@@AAE_NXZ@@__crt_stdio_output@@YAPAUansi_string@?1??type_case_Z@?$output_processor@DV?$string_output_adapter@D@__crt_stdio_output@@V?$standard_base@DV?$string_output_adapter@D@__crt_stdio_output@@@2@@0@AAE_NXZ@AAPAD@Z 10048ad0 f i libucrtd:output.obj
 0001:00047af0       ??$read_va_arg@PAUansi_string@?1??type_case_Z@?$output_processor@_WV?$stream_output_adapter@_W@__crt_stdio_output@@V?$format_validation_base@_WV?$stream_output_adapter@_W@__crt_stdio_output@@@2@@__crt_stdio_output@@AAE_NXZ@@__crt_stdio_output@@YAPAUansi_string@?1??type_case_Z@?$output_processor@_WV?$stream_output_adapter@_W@__crt_stdio_output@@V?$format_validation_base@_WV?$stream_output_adapter@_W@__crt_stdio_output@@@2@@0@AAE_NXZ@AAPAD@Z 10048af0 f i libucrtd:output.obj
 0001:00047b10       ??$read_va_arg@PAUansi_string@?1??type_case_Z@?$output_processor@_WV?$stream_output_adapter@_W@__crt_stdio_output@@V?$positional_parameter_base@_WV?$stream_output_adapter@_W@__crt_stdio_output@@@2@@__crt_stdio_output@@AAE_NXZ@@__crt_stdio_output@@YAPAUansi_string@?1??type_case_Z@?$output_processor@_WV?$stream_output_adapter@_W@__crt_stdio_output@@V?$positional_parameter_base@_WV?$stream_output_adapter@_W@__crt_stdio_output@@@2@@0@AAE_NXZ@AAPAD@Z 10048b10 f i libucrtd:output.obj
 0001:00047b30       ??$read_va_arg@PAUansi_string@?1??type_case_Z@?$output_processor@_WV?$stream_output_adapter@_W@__crt_stdio_output@@V?$standard_base@_WV?$stream_output_adapter@_W@__crt_stdio_output@@@2@@__crt_stdio_output@@AAE_NXZ@@__crt_stdio_output@@YAPAUansi_string@?1??type_case_Z@?$output_processor@_WV?$stream_output_adapter@_W@__crt_stdio_output@@V?$standard_base@_WV?$stream_output_adapter@_W@__crt_stdio_output@@@2@@0@AAE_NXZ@AAPAD@Z 10048b30 f i libucrtd:output.obj
 0001:00047b50       ??$read_va_arg@PAUansi_string@?1??type_case_Z@?$output_processor@_WV?$string_output_adapter@_W@__crt_stdio_output@@V?$format_validation_base@_WV?$string_output_adapter@_W@__crt_stdio_output@@@2@@__crt_stdio_output@@AAE_NXZ@@__crt_stdio_output@@YAPAUansi_string@?1??type_case_Z@?$output_processor@_WV?$string_output_adapter@_W@__crt_stdio_output@@V?$format_validation_base@_WV?$string_output_adapter@_W@__crt_stdio_output@@@2@@0@AAE_NXZ@AAPAD@Z 10048b50 f i libucrtd:output.obj
 0001:00047b70       ??$read_va_arg@PAUansi_string@?1??type_case_Z@?$output_processor@_WV?$string_output_adapter@_W@__crt_stdio_output@@V?$positional_parameter_base@_WV?$string_output_adapter@_W@__crt_stdio_output@@@2@@__crt_stdio_output@@AAE_NXZ@@__crt_stdio_output@@YAPAUansi_string@?1??type_case_Z@?$output_processor@_WV?$string_output_adapter@_W@__crt_stdio_output@@V?$positional_parameter_base@_WV?$string_output_adapter@_W@__crt_stdio_output@@@2@@0@AAE_NXZ@AAPAD@Z 10048b70 f i libucrtd:output.obj
 0001:00047b90       ??$read_va_arg@PAUansi_string@?1??type_case_Z@?$output_processor@_WV?$string_output_adapter@_W@__crt_stdio_output@@V?$standard_base@_WV?$string_output_adapter@_W@__crt_stdio_output@@@2@@__crt_stdio_output@@AAE_NXZ@@__crt_stdio_output@@YAPAUansi_string@?1??type_case_Z@?$output_processor@_WV?$string_output_adapter@_W@__crt_stdio_output@@V?$standard_base@_WV?$string_output_adapter@_W@__crt_stdio_output@@@2@@0@AAE_NXZ@AAPAD@Z 10048b90 f i libucrtd:output.obj
 0001:00047bb0       ??$read_va_arg@PAX@__crt_stdio_output@@YAPAXAAPAD@Z 10048bb0 f i libucrtd:output.obj
 0001:00047bd0       ??$read_va_arg@U_CRT_DOUBLE@@@__crt_stdio_output@@YA?AU_CRT_DOUBLE@@AAPAD@Z 10048bd0 f i libucrtd:output.obj
 0001:00047bf0       ??$read_va_arg@_J@__crt_stdio_output@@YA_JAAPAD@Z 10048bf0 f i libucrtd:output.obj
 0001:00047c10       ??$read_va_arg@_K@__crt_stdio_output@@YA_KAAPAD@Z 10048c10 f i libucrtd:output.obj
 0001:00047c30       ??$read_va_arg@_W@__crt_stdio_output@@YA_WAAPAD@Z 10048c30 f i libucrtd:output.obj
 0001:00047c50       ??$scratch_count@D@formatting_buffer@__crt_stdio_output@@QBEIXZ 10048c50 f i libucrtd:output.obj
 0001:00047c70       ??$scratch_data@D@formatting_buffer@__crt_stdio_output@@QAEPADXZ 10048c70 f i libucrtd:output.obj
 0001:00047cc0       ??$tcstol@AAPBDPAPADH@?$__crt_char_traits@D@@SAJAAPBD$$QAPAPAD$$QAH@Z 10048cc0 f i libucrtd:output.obj
 0001:00047cf0       ??$tcstol@AAPB_WPAPA_WH@?$__crt_char_traits@_W@@SAJAAPB_W$$QAPAPA_W$$QAH@Z 10048cf0 f i libucrtd:output.obj
 0001:00047d20       ??$tcstol@PBDPAPADH@?$__crt_char_traits@D@@SAJ$$QAPBD$$QAPAPAD$$QAH@Z 10048d20 f i libucrtd:output.obj
 0001:00047d50       ??$tcstol@PB_WPAPA_WH@?$__crt_char_traits@_W@@SAJ$$QAPB_W$$QAPAPA_W$$QAH@Z 10048d50 f i libucrtd:output.obj
 0001:00047d80       ??$type_case_integer_parse_into_buffer@I@?$output_processor@DV?$stream_output_adapter@D@__crt_stdio_output@@V?$format_validation_base@DV?$stream_output_adapter@D@__crt_stdio_output@@@2@@__crt_stdio_output@@AAEXII_N@Z 10048d80 f i libucrtd:output.obj
 0001:00047e50       ??$type_case_integer_parse_into_buffer@I@?$output_processor@DV?$stream_output_adapter@D@__crt_stdio_output@@V?$positional_parameter_base@DV?$stream_output_adapter@D@__crt_stdio_output@@@2@@__crt_stdio_output@@AAEXII_N@Z 10048e50 f i libucrtd:output.obj
 0001:00047f20       ??$type_case_integer_parse_into_buffer@I@?$output_processor@DV?$stream_output_adapter@D@__crt_stdio_output@@V?$standard_base@DV?$stream_output_adapter@D@__crt_stdio_output@@@2@@__crt_stdio_output@@AAEXII_N@Z 10048f20 f i libucrtd:output.obj
 0001:00047ff0       ??$type_case_integer_parse_into_buffer@I@?$output_processor@DV?$string_output_adapter@D@__crt_stdio_output@@V?$format_validation_base@DV?$string_output_adapter@D@__crt_stdio_output@@@2@@__crt_stdio_output@@AAEXII_N@Z 10048ff0 f i libucrtd:output.obj
 0001:000480c0       ??$type_case_integer_parse_into_buffer@I@?$output_processor@DV?$string_output_adapter@D@__crt_stdio_output@@V?$positional_parameter_base@DV?$string_output_adapter@D@__crt_stdio_output@@@2@@__crt_stdio_output@@AAEXII_N@Z 100490c0 f i libucrtd:output.obj
 0001:00048190       ??$type_case_integer_parse_into_buffer@I@?$output_processor@DV?$string_output_adapter@D@__crt_stdio_output@@V?$standard_base@DV?$string_output_adapter@D@__crt_stdio_output@@@2@@__crt_stdio_output@@AAEXII_N@Z 10049190 f i libucrtd:output.obj
 0001:00048260       ??$type_case_integer_parse_into_buffer@I@?$output_processor@_WV?$stream_output_adapter@_W@__crt_stdio_output@@V?$format_validation_base@_WV?$stream_output_adapter@_W@__crt_stdio_output@@@2@@__crt_stdio_output@@AAEXII_N@Z 10049260 f i libucrtd:output.obj
 0001:00048340       ??$type_case_integer_parse_into_buffer@I@?$output_processor@_WV?$stream_output_adapter@_W@__crt_stdio_output@@V?$positional_parameter_base@_WV?$stream_output_adapter@_W@__crt_stdio_output@@@2@@__crt_stdio_output@@AAEXII_N@Z 10049340 f i libucrtd:output.obj
 0001:00048420       ??$type_case_integer_parse_into_buffer@I@?$output_processor@_WV?$stream_output_adapter@_W@__crt_stdio_output@@V?$standard_base@_WV?$stream_output_adapter@_W@__crt_stdio_output@@@2@@__crt_stdio_output@@AAEXII_N@Z 10049420 f i libucrtd:output.obj
 0001:00048500       ??$type_case_integer_parse_into_buffer@I@?$output_processor@_WV?$string_output_adapter@_W@__crt_stdio_output@@V?$format_validation_base@_WV?$string_output_adapter@_W@__crt_stdio_output@@@2@@__crt_stdio_output@@AAEXII_N@Z 10049500 f i libucrtd:output.obj
 0001:000485e0       ??$type_case_integer_parse_into_buffer@I@?$output_processor@_WV?$string_output_adapter@_W@__crt_stdio_output@@V?$positional_parameter_base@_WV?$string_output_adapter@_W@__crt_stdio_output@@@2@@__crt_stdio_output@@AAEXII_N@Z 100495e0 f i libucrtd:output.obj
 0001:000486c0       ??$type_case_integer_parse_into_buffer@I@?$output_processor@_WV?$string_output_adapter@_W@__crt_stdio_output@@V?$standard_base@_WV?$string_output_adapter@_W@__crt_stdio_output@@@2@@__crt_stdio_output@@AAEXII_N@Z 100496c0 f i libucrtd:output.obj
 0001:000487a0       ??$type_case_integer_parse_into_buffer@_K@?$output_processor@DV?$stream_output_adapter@D@__crt_stdio_output@@V?$format_validation_base@DV?$stream_output_adapter@D@__crt_stdio_output@@@2@@__crt_stdio_output@@AAEX_KI_N@Z 100497a0 f i libucrtd:output.obj
 0001:00048890       ??$type_case_integer_parse_into_buffer@_K@?$output_processor@DV?$stream_output_adapter@D@__crt_stdio_output@@V?$positional_parameter_base@DV?$stream_output_adapter@D@__crt_stdio_output@@@2@@__crt_stdio_output@@AAEX_KI_N@Z 10049890 f i libucrtd:output.obj
 0001:00048980       ??$type_case_integer_parse_into_buffer@_K@?$output_processor@DV?$stream_output_adapter@D@__crt_stdio_output@@V?$standard_base@DV?$stream_output_adapter@D@__crt_stdio_output@@@2@@__crt_stdio_output@@AAEX_KI_N@Z 10049980 f i libucrtd:output.obj
 0001:00048a70       ??$type_case_integer_parse_into_buffer@_K@?$output_processor@DV?$string_output_adapter@D@__crt_stdio_output@@V?$format_validation_base@DV?$string_output_adapter@D@__crt_stdio_output@@@2@@__crt_stdio_output@@AAEX_KI_N@Z 10049a70 f i libucrtd:output.obj
 0001:00048b60       ??$type_case_integer_parse_into_buffer@_K@?$output_processor@DV?$string_output_adapter@D@__crt_stdio_output@@V?$positional_parameter_base@DV?$string_output_adapter@D@__crt_stdio_output@@@2@@__crt_stdio_output@@AAEX_KI_N@Z 10049b60 f i libucrtd:output.obj
 0001:00048c50       ??$type_case_integer_parse_into_buffer@_K@?$output_processor@DV?$string_output_adapter@D@__crt_stdio_output@@V?$standard_base@DV?$string_output_adapter@D@__crt_stdio_output@@@2@@__crt_stdio_output@@AAEX_KI_N@Z 10049c50 f i libucrtd:output.obj
 0001:00048d40       ??$type_case_integer_parse_into_buffer@_K@?$output_processor@_WV?$stream_output_adapter@_W@__crt_stdio_output@@V?$format_validation_base@_WV?$stream_output_adapter@_W@__crt_stdio_output@@@2@@__crt_stdio_output@@AAEX_KI_N@Z 10049d40 f i libucrtd:output.obj
 0001:00048e40       ??$type_case_integer_parse_into_buffer@_K@?$output_processor@_WV?$stream_output_adapter@_W@__crt_stdio_output@@V?$positional_parameter_base@_WV?$stream_output_adapter@_W@__crt_stdio_output@@@2@@__crt_stdio_output@@AAEX_KI_N@Z 10049e40 f i libucrtd:output.obj
 0001:00048f40       ??$type_case_integer_parse_into_buffer@_K@?$output_processor@_WV?$stream_output_adapter@_W@__crt_stdio_output@@V?$standard_base@_WV?$stream_output_adapter@_W@__crt_stdio_output@@@2@@__crt_stdio_output@@AAEX_KI_N@Z 10049f40 f i libucrtd:output.obj
 0001:00049040       ??$type_case_integer_parse_into_buffer@_K@?$output_processor@_WV?$string_output_adapter@_W@__crt_stdio_output@@V?$format_validation_base@_WV?$string_output_adapter@_W@__crt_stdio_output@@@2@@__crt_stdio_output@@AAEX_KI_N@Z 1004a040 f i libucrtd:output.obj
 0001:00049140       ??$type_case_integer_parse_into_buffer@_K@?$output_processor@_WV?$string_output_adapter@_W@__crt_stdio_output@@V?$positional_parameter_base@_WV?$string_output_adapter@_W@__crt_stdio_output@@@2@@__crt_stdio_output@@AAEX_KI_N@Z 1004a140 f i libucrtd:output.obj
 0001:00049240       ??$type_case_integer_parse_into_buffer@_K@?$output_processor@_WV?$string_output_adapter@_W@__crt_stdio_output@@V?$standard_base@_WV?$string_output_adapter@_W@__crt_stdio_output@@@2@@__crt_stdio_output@@AAEX_KI_N@Z 1004a240 f i libucrtd:output.obj
 0001:00049340       ??$write_multiple_characters@V?$stream_output_adapter@D@__crt_stdio_output@@D@__crt_stdio_output@@YAXABV?$stream_output_adapter@D@0@DHQAH@Z 1004a340 f i libucrtd:output.obj
 0001:00049390       ??$write_multiple_characters@V?$stream_output_adapter@_W@__crt_stdio_output@@D@__crt_stdio_output@@YAXABV?$stream_output_adapter@_W@0@DHQAH@Z 1004a390 f i libucrtd:output.obj
 0001:000493e0       ??$write_multiple_characters@V?$string_output_adapter@D@__crt_stdio_output@@D@__crt_stdio_output@@YAXABV?$string_output_adapter@D@0@DHQAH@Z 1004a3e0 f i libucrtd:output.obj
 0001:00049430       ??$write_multiple_characters@V?$string_output_adapter@_W@__crt_stdio_output@@D@__crt_stdio_output@@YAXABV?$string_output_adapter@_W@0@DHQAH@Z 1004a430 f i libucrtd:output.obj
 0001:00049780       ??0?$common_data@D@__crt_stdio_output@@IAE@XZ 1004a780 f i libucrtd:output.obj
 0001:00049830       ??0?$common_data@_W@__crt_stdio_output@@IAE@XZ 1004a830 f i libucrtd:output.obj
 0001:000498e0       ??0?$output_adapter_data@DV?$stream_output_adapter@D@__crt_stdio_output@@@__crt_stdio_output@@IAE@ABV?$stream_output_adapter@D@1@_KQBDQAU__crt_locale_pointers@@QAD@Z 1004a8e0 f i libucrtd:output.obj
 0001:00049940       ??0?$output_adapter_data@DV?$string_output_adapter@D@__crt_stdio_output@@@__crt_stdio_output@@IAE@ABV?$string_output_adapter@D@1@_KQBDQAU__crt_locale_pointers@@QAD@Z 1004a940 f i libucrtd:output.obj
 0001:000499a0       ??0?$output_adapter_data@_WV?$stream_output_adapter@_W@__crt_stdio_output@@@__crt_stdio_output@@IAE@ABV?$stream_output_adapter@_W@1@_KQB_WQAU__crt_locale_pointers@@QAD@Z 1004a9a0 f i libucrtd:output.obj
 0001:00049a00       ??0?$output_adapter_data@_WV?$string_output_adapter@_W@__crt_stdio_output@@@__crt_stdio_output@@IAE@ABV?$string_output_adapter@_W@1@_KQB_WQAU__crt_locale_pointers@@QAD@Z 1004aa00 f i libucrtd:output.obj
 0001:00049a60       ??0?$output_processor@DV?$stream_output_adapter@D@__crt_stdio_output@@V?$format_validation_base@DV?$stream_output_adapter@D@__crt_stdio_output@@@2@@__crt_stdio_output@@QAE@ABV?$stream_output_adapter@D@1@_KQBDQAU__crt_locale_pointers@@QAD@Z 1004aa60 f i libucrtd:output.obj
 0001:00049a90       ??0?$output_processor@DV?$stream_output_adapter@D@__crt_stdio_output@@V?$positional_parameter_base@DV?$stream_output_adapter@D@__crt_stdio_output@@@2@@__crt_stdio_output@@QAE@ABV?$stream_output_adapter@D@1@_KQBDQAU__crt_locale_pointers@@QAD@Z 1004aa90 f i libucrtd:output.obj
 0001:00049ac0       ??0?$output_processor@DV?$stream_output_adapter@D@__crt_stdio_output@@V?$standard_base@DV?$stream_output_adapter@D@__crt_stdio_output@@@2@@__crt_stdio_output@@QAE@ABV?$stream_output_adapter@D@1@_KQBDQAU__crt_locale_pointers@@QAD@Z 1004aac0 f i libucrtd:output.obj
 0001:00049af0       ??0?$output_processor@DV?$string_output_adapter@D@__crt_stdio_output@@V?$format_validation_base@DV?$string_output_adapter@D@__crt_stdio_output@@@2@@__crt_stdio_output@@QAE@ABV?$string_output_adapter@D@1@_KQBDQAU__crt_locale_pointers@@QAD@Z 1004aaf0 f i libucrtd:output.obj
 0001:00049b20       ??0?$output_processor@DV?$string_output_adapter@D@__crt_stdio_output@@V?$positional_parameter_base@DV?$string_output_adapter@D@__crt_stdio_output@@@2@@__crt_stdio_output@@QAE@ABV?$string_output_adapter@D@1@_KQBDQAU__crt_locale_pointers@@QAD@Z 1004ab20 f i libucrtd:output.obj
 0001:00049b50       ??0?$output_processor@DV?$string_output_adapter@D@__crt_stdio_output@@V?$standard_base@DV?$string_output_adapter@D@__crt_stdio_output@@@2@@__crt_stdio_output@@QAE@ABV?$string_output_adapter@D@1@_KQBDQAU__crt_locale_pointers@@QAD@Z 1004ab50 f i libucrtd:output.obj
 0001:00049b80       ??0?$output_processor@_WV?$stream_output_adapter@_W@__crt_stdio_output@@V?$format_validation_base@_WV?$stream_output_adapter@_W@__crt_stdio_output@@@2@@__crt_stdio_output@@QAE@ABV?$stream_output_adapter@_W@1@_KQB_WQAU__crt_locale_pointers@@QAD@Z 1004ab80 f i libucrtd:output.obj
 0001:00049bb0       ??0?$output_processor@_WV?$stream_output_adapter@_W@__crt_stdio_output@@V?$positional_parameter_base@_WV?$stream_output_adapter@_W@__crt_stdio_output@@@2@@__crt_stdio_output@@QAE@ABV?$stream_output_adapter@_W@1@_KQB_WQAU__crt_locale_pointers@@QAD@Z 1004abb0 f i libucrtd:output.obj
 0001:00049be0       ??0?$output_processor@_WV?$stream_output_adapter@_W@__crt_stdio_output@@V?$standard_base@_WV?$stream_output_adapter@_W@__crt_stdio_output@@@2@@__crt_stdio_output@@QAE@ABV?$stream_output_adapter@_W@1@_KQB_WQAU__crt_locale_pointers@@QAD@Z 1004abe0 f i libucrtd:output.obj
 0001:00049c10       ??0?$output_processor@_WV?$string_output_adapter@_W@__crt_stdio_output@@V?$format_validation_base@_WV?$string_output_adapter@_W@__crt_stdio_output@@@2@@__crt_stdio_output@@QAE@ABV?$string_output_adapter@_W@1@_KQB_WQAU__crt_locale_pointers@@QAD@Z 1004ac10 f i libucrtd:output.obj
 0001:00049c40       ??0?$output_processor@_WV?$string_output_adapter@_W@__crt_stdio_output@@V?$positional_parameter_base@_WV?$string_output_adapter@_W@__crt_stdio_output@@@2@@__crt_stdio_output@@QAE@ABV?$string_output_adapter@_W@1@_KQB_WQAU__crt_locale_pointers@@QAD@Z 1004ac40 f i libucrtd:output.obj
 0001:00049c70       ??0?$output_processor@_WV?$string_output_adapter@_W@__crt_stdio_output@@V?$standard_base@_WV?$string_output_adapter@_W@__crt_stdio_output@@@2@@__crt_stdio_output@@QAE@ABV?$string_output_adapter@_W@1@_KQB_WQAU__crt_locale_pointers@@QAD@Z 1004ac70 f i libucrtd:output.obj
 0001:00049ca0       ??0?$stream_output_adapter@D@__crt_stdio_output@@QAE@QAU_iobuf@@@Z 1004aca0 f i libucrtd:output.obj
 0001:00049cc0       ??0?$stream_output_adapter@_W@__crt_stdio_output@@QAE@QAU_iobuf@@@Z 1004acc0 f i libucrtd:output.obj
 0001:00049ce0       ??0?$string_output_adapter@D@__crt_stdio_output@@QAE@QAU?$string_output_adapter_context@D@1@@Z 1004ace0 f i libucrtd:output.obj
 0001:00049d00       ??0?$string_output_adapter@_W@__crt_stdio_output@@QAE@QAU?$string_output_adapter_context@_W@1@@Z 1004ad00 f i libucrtd:output.obj
 0001:00049d20       ??0_LocaleUpdate@@QAE@QAU__crt_locale_pointers@@@Z 1004ad20 f i libucrtd:output.obj
 0001:00049df0       ??0__acrt_stdio_temporary_buffering_guard@@QAE@QAU_iobuf@@@Z 1004adf0 f i libucrtd:output.obj
 0001:00049e20       ??0__crt_deferred_errno_cache@@QAE@XZ 1004ae20 f i libucrtd:output.obj
 0001:00049e40       ??0__crt_errno_guard@@QAE@QAH@Z 1004ae40 f i libucrtd:output.obj
 0001:00049e70       ??0__crt_stdio_stream@@QAE@QAU_iobuf@@@Z 1004ae70 f i libucrtd:output.obj
 0001:00049e90       ??0formatting_buffer@__crt_stdio_output@@QAE@XZ 1004ae90 f i libucrtd:output.obj
 0001:00049ec0       ??1?$common_data@D@__crt_stdio_output@@QAE@XZ 1004aec0 f i libucrtd:output.obj
 0001:00049ee0       ??1?$common_data@_W@__crt_stdio_output@@QAE@XZ 1004aee0 f i libucrtd:output.obj
 0001:00049f00       ??1?$format_validation_base@DV?$stream_output_adapter@D@__crt_stdio_output@@@__crt_stdio_output@@QAE@XZ 1004af00 f i libucrtd:output.obj
 0001:00049f20       ??1?$format_validation_base@DV?$string_output_adapter@D@__crt_stdio_output@@@__crt_stdio_output@@QAE@XZ 1004af20 f i libucrtd:output.obj
 0001:00049f40       ??1?$format_validation_base@_WV?$stream_output_adapter@_W@__crt_stdio_output@@@__crt_stdio_output@@QAE@XZ 1004af40 f i libucrtd:output.obj
 0001:00049f60       ??1?$format_validation_base@_WV?$string_output_adapter@_W@__crt_stdio_output@@@__crt_stdio_output@@QAE@XZ 1004af60 f i libucrtd:output.obj
 0001:00049f80       ??1?$output_adapter_data@DV?$stream_output_adapter@D@__crt_stdio_output@@@__crt_stdio_output@@QAE@XZ 1004af80 f i libucrtd:output.obj
 0001:00049fa0       ??1?$output_adapter_data@DV?$string_output_adapter@D@__crt_stdio_output@@@__crt_stdio_output@@QAE@XZ 1004afa0 f i libucrtd:output.obj
 0001:00049fc0       ??1?$output_adapter_data@_WV?$stream_output_adapter@_W@__crt_stdio_output@@@__crt_stdio_output@@QAE@XZ 1004afc0 f i libucrtd:output.obj
 0001:00049fe0       ??1?$output_adapter_data@_WV?$string_output_adapter@_W@__crt_stdio_output@@@__crt_stdio_output@@QAE@XZ 1004afe0 f i libucrtd:output.obj
 0001:0004a000       ??1?$output_processor@DV?$stream_output_adapter@D@__crt_stdio_output@@V?$format_validation_base@DV?$stream_output_adapter@D@__crt_stdio_output@@@2@@__crt_stdio_output@@QAE@XZ 1004b000 f i libucrtd:output.obj
 0001:0004a020       ??1?$output_processor@DV?$stream_output_adapter@D@__crt_stdio_output@@V?$positional_parameter_base@DV?$stream_output_adapter@D@__crt_stdio_output@@@2@@__crt_stdio_output@@QAE@XZ 1004b020 f i libucrtd:output.obj
 0001:0004a040       ??1?$output_processor@DV?$stream_output_adapter@D@__crt_stdio_output@@V?$standard_base@DV?$stream_output_adapter@D@__crt_stdio_output@@@2@@__crt_stdio_output@@QAE@XZ 1004b040 f i libucrtd:output.obj
 0001:0004a060       ??1?$output_processor@DV?$string_output_adapter@D@__crt_stdio_output@@V?$format_validation_base@DV?$string_output_adapter@D@__crt_stdio_output@@@2@@__crt_stdio_output@@QAE@XZ 1004b060 f i libucrtd:output.obj
 0001:0004a080       ??1?$output_processor@DV?$string_output_adapter@D@__crt_stdio_output@@V?$positional_parameter_base@DV?$string_output_adapter@D@__crt_stdio_output@@@2@@__crt_stdio_output@@QAE@XZ 1004b080 f i libucrtd:output.obj
 0001:0004a0a0       ??1?$output_processor@DV?$string_output_adapter@D@__crt_stdio_output@@V?$standard_base@DV?$string_output_adapter@D@__crt_stdio_output@@@2@@__crt_stdio_output@@QAE@XZ 1004b0a0 f i libucrtd:output.obj
 0001:0004a0c0       ??1?$output_processor@_WV?$stream_output_adapter@_W@__crt_stdio_output@@V?$format_validation_base@_WV?$stream_output_adapter@_W@__crt_stdio_output@@@2@@__crt_stdio_output@@QAE@XZ 1004b0c0 f i libucrtd:output.obj
 0001:0004a0e0       ??1?$output_processor@_WV?$stream_output_adapter@_W@__crt_stdio_output@@V?$positional_parameter_base@_WV?$stream_output_adapter@_W@__crt_stdio_output@@@2@@__crt_stdio_output@@QAE@XZ 1004b0e0 f i libucrtd:output.obj
 0001:0004a100       ??1?$output_processor@_WV?$stream_output_adapter@_W@__crt_stdio_output@@V?$standard_base@_WV?$stream_output_adapter@_W@__crt_stdio_output@@@2@@__crt_stdio_output@@QAE@XZ 1004b100 f i libucrtd:output.obj
 0001:0004a120       ??1?$output_processor@_WV?$string_output_adapter@_W@__crt_stdio_output@@V?$format_validation_base@_WV?$string_output_adapter@_W@__crt_stdio_output@@@2@@__crt_stdio_output@@QAE@XZ 1004b120 f i libucrtd:output.obj
 0001:0004a140       ??1?$output_processor@_WV?$string_output_adapter@_W@__crt_stdio_output@@V?$positional_parameter_base@_WV?$string_output_adapter@_W@__crt_stdio_output@@@2@@__crt_stdio_output@@QAE@XZ 1004b140 f i libucrtd:output.obj
 0001:0004a160       ??1?$output_processor@_WV?$string_output_adapter@_W@__crt_stdio_output@@V?$standard_base@_WV?$string_output_adapter@_W@__crt_stdio_output@@@2@@__crt_stdio_output@@QAE@XZ 1004b160 f i libucrtd:output.obj
 0001:0004a180       ??1?$positional_parameter_base@DV?$stream_output_adapter@D@__crt_stdio_output@@@__crt_stdio_output@@QAE@XZ 1004b180 f i libucrtd:output.obj
 0001:0004a1a0       ??1?$positional_parameter_base@DV?$string_output_adapter@D@__crt_stdio_output@@@__crt_stdio_output@@QAE@XZ 1004b1a0 f i libucrtd:output.obj
 0001:0004a1c0       ??1?$positional_parameter_base@_WV?$stream_output_adapter@_W@__crt_stdio_output@@@__crt_stdio_output@@QAE@XZ 1004b1c0 f i libucrtd:output.obj
 0001:0004a1e0       ??1?$positional_parameter_base@_WV?$string_output_adapter@_W@__crt_stdio_output@@@__crt_stdio_output@@QAE@XZ 1004b1e0 f i libucrtd:output.obj
 0001:0004a200       ??1?$standard_base@DV?$stream_output_adapter@D@__crt_stdio_output@@@__crt_stdio_output@@QAE@XZ 1004b200 f i libucrtd:output.obj
 0001:0004a220       ??1?$standard_base@DV?$string_output_adapter@D@__crt_stdio_output@@@__crt_stdio_output@@QAE@XZ 1004b220 f i libucrtd:output.obj
 0001:0004a240       ??1?$standard_base@_WV?$stream_output_adapter@_W@__crt_stdio_output@@@__crt_stdio_output@@QAE@XZ 1004b240 f i libucrtd:output.obj
 0001:0004a260       ??1?$standard_base@_WV?$string_output_adapter@_W@__crt_stdio_output@@@__crt_stdio_output@@QAE@XZ 1004b260 f i libucrtd:output.obj
 0001:0004a280       ??1_LocaleUpdate@@QAE@XZ   1004b280 f i libucrtd:output.obj
 0001:0004a2b0       ??1__acrt_stdio_temporary_buffering_guard@@QAE@XZ 1004b2b0 f i libucrtd:output.obj
 0001:0004a2e0       ??1__crt_errno_guard@@QAE@XZ 1004b2e0 f i libucrtd:output.obj
 0001:0004a310       ??1formatting_buffer@__crt_stdio_output@@QAE@XZ 1004b310 f i libucrtd:output.obj
 0001:0004a330       ??4?$__crt_unique_heap_ptr@DU__crt_internal_free_policy@@@@QAEAAV0@$$QAV0@@Z 1004b330 f i libucrtd:output.obj
 0001:0004a360       ??A?$spectre_mitigated_lookup_table@Ustate_transition_pair@__crt_stdio_output@@$0IA@@__crt_stdio_output@@QBEABUstate_transition_pair@1@I@Z 1004b360 f i libucrtd:output.obj
 0001:0004a380       ??C__crt_stdio_stream@@QBEPAU__crt_stdio_stream_data@@XZ 1004b380 f i libucrtd:output.obj
 0001:0004aac0       ?GetLocaleT@_LocaleUpdate@@QAEPAU__crt_locale_pointers@@XZ 1004bac0 f i libucrtd:output.obj
 0001:0004aae0       ?adjust_hexit@?$output_processor@DV?$stream_output_adapter@D@__crt_stdio_output@@V?$format_validation_base@DV?$stream_output_adapter@D@__crt_stdio_output@@@2@@__crt_stdio_output@@CADH_N@Z 1004bae0 f i libucrtd:output.obj
 0001:0004ab20       ?adjust_hexit@?$output_processor@DV?$stream_output_adapter@D@__crt_stdio_output@@V?$positional_parameter_base@DV?$stream_output_adapter@D@__crt_stdio_output@@@2@@__crt_stdio_output@@CADH_N@Z 1004bb20 f i libucrtd:output.obj
 0001:0004ab60       ?adjust_hexit@?$output_processor@DV?$stream_output_adapter@D@__crt_stdio_output@@V?$standard_base@DV?$stream_output_adapter@D@__crt_stdio_output@@@2@@__crt_stdio_output@@CADH_N@Z 1004bb60 f i libucrtd:output.obj
 0001:0004aba0       ?adjust_hexit@?$output_processor@DV?$string_output_adapter@D@__crt_stdio_output@@V?$format_validation_base@DV?$string_output_adapter@D@__crt_stdio_output@@@2@@__crt_stdio_output@@CADH_N@Z 1004bba0 f i libucrtd:output.obj
 0001:0004abe0       ?adjust_hexit@?$output_processor@DV?$string_output_adapter@D@__crt_stdio_output@@V?$positional_parameter_base@DV?$string_output_adapter@D@__crt_stdio_output@@@2@@__crt_stdio_output@@CADH_N@Z 1004bbe0 f i libucrtd:output.obj
 0001:0004ac20       ?adjust_hexit@?$output_processor@DV?$string_output_adapter@D@__crt_stdio_output@@V?$standard_base@DV?$string_output_adapter@D@__crt_stdio_output@@@2@@__crt_stdio_output@@CADH_N@Z 1004bc20 f i libucrtd:output.obj
 0001:0004ac60       ?adjust_hexit@?$output_processor@_WV?$stream_output_adapter@_W@__crt_stdio_output@@V?$format_validation_base@_WV?$stream_output_adapter@_W@__crt_stdio_output@@@2@@__crt_stdio_output@@CADH_N@Z 1004bc60 f i libucrtd:output.obj
 0001:0004aca0       ?adjust_hexit@?$output_processor@_WV?$stream_output_adapter@_W@__crt_stdio_output@@V?$positional_parameter_base@_WV?$stream_output_adapter@_W@__crt_stdio_output@@@2@@__crt_stdio_output@@CADH_N@Z 1004bca0 f i libucrtd:output.obj
 0001:0004ace0       ?adjust_hexit@?$output_processor@_WV?$stream_output_adapter@_W@__crt_stdio_output@@V?$standard_base@_WV?$stream_output_adapter@_W@__crt_stdio_output@@@2@@__crt_stdio_output@@CADH_N@Z 1004bce0 f i libucrtd:output.obj
 0001:0004ad20       ?adjust_hexit@?$output_processor@_WV?$string_output_adapter@_W@__crt_stdio_output@@V?$format_validation_base@_WV?$string_output_adapter@_W@__crt_stdio_output@@@2@@__crt_stdio_output@@CADH_N@Z 1004bd20 f i libucrtd:output.obj
 0001:0004ad60       ?adjust_hexit@?$output_processor@_WV?$string_output_adapter@_W@__crt_stdio_output@@V?$positional_parameter_base@_WV?$string_output_adapter@_W@__crt_stdio_output@@@2@@__crt_stdio_output@@CADH_N@Z 1004bd60 f i libucrtd:output.obj
 0001:0004ada0       ?adjust_hexit@?$output_processor@_WV?$string_output_adapter@_W@__crt_stdio_output@@V?$standard_base@_WV?$string_output_adapter@_W@__crt_stdio_output@@@2@@__crt_stdio_output@@CADH_N@Z 1004bda0 f i libucrtd:output.obj
 0001:0004ade0       ?advance_to_next_pass@?$positional_parameter_base@DV?$stream_output_adapter@D@__crt_stdio_output@@@__crt_stdio_output@@IAE_NXZ 1004bde0 f i libucrtd:output.obj
 0001:0004ae80       ?advance_to_next_pass@?$positional_parameter_base@DV?$string_output_adapter@D@__crt_stdio_output@@@__crt_stdio_output@@IAE_NXZ 1004be80 f i libucrtd:output.obj
 0001:0004af20       ?advance_to_next_pass@?$positional_parameter_base@_WV?$stream_output_adapter@_W@__crt_stdio_output@@@__crt_stdio_output@@IAE_NXZ 1004bf20 f i libucrtd:output.obj
 0001:0004afc0       ?advance_to_next_pass@?$positional_parameter_base@_WV?$string_output_adapter@_W@__crt_stdio_output@@@__crt_stdio_output@@IAE_NXZ 1004bfc0 f i libucrtd:output.obj
 0001:0004b060       ?advance_to_next_pass@?$standard_base@DV?$stream_output_adapter@D@__crt_stdio_output@@@__crt_stdio_output@@IAE_NXZ 1004c060 f i libucrtd:output.obj
 0001:0004b0b0       ?advance_to_next_pass@?$standard_base@DV?$string_output_adapter@D@__crt_stdio_output@@@__crt_stdio_output@@IAE_NXZ 1004c0b0 f i libucrtd:output.obj
 0001:0004b100       ?advance_to_next_pass@?$standard_base@_WV?$stream_output_adapter@_W@__crt_stdio_output@@@__crt_stdio_output@@IAE_NXZ 1004c100 f i libucrtd:output.obj
 0001:0004b150       ?advance_to_next_pass@?$standard_base@_WV?$string_output_adapter@_W@__crt_stdio_output@@@__crt_stdio_output@@IAE_NXZ 1004c150 f i libucrtd:output.obj
 0001:0004b1a0       ?crop_zeroes@__crt_stdio_output@@YAXPADQAU__crt_locale_pointers@@@Z 1004c1a0 f i libucrtd:output.obj
 0001:0004b2a0       ?find_next_state@?$output_processor@DV?$stream_output_adapter@D@__crt_stdio_output@@V?$format_validation_base@DV?$stream_output_adapter@D@__crt_stdio_output@@@2@@__crt_stdio_output@@ABE?AW4state@2@DW432@@Z 1004c2a0 f i libucrtd:output.obj
 0001:0004b310       ?find_next_state@?$output_processor@DV?$stream_output_adapter@D@__crt_stdio_output@@V?$positional_parameter_base@DV?$stream_output_adapter@D@__crt_stdio_output@@@2@@__crt_stdio_output@@ABE?AW4state@2@DW432@@Z 1004c310 f i libucrtd:output.obj
 0001:0004b380       ?find_next_state@?$output_processor@DV?$stream_output_adapter@D@__crt_stdio_output@@V?$standard_base@DV?$stream_output_adapter@D@__crt_stdio_output@@@2@@__crt_stdio_output@@ABE?AW4state@2@DW432@@Z 1004c380 f i libucrtd:output.obj
 0001:0004b3f0       ?find_next_state@?$output_processor@DV?$string_output_adapter@D@__crt_stdio_output@@V?$format_validation_base@DV?$string_output_adapter@D@__crt_stdio_output@@@2@@__crt_stdio_output@@ABE?AW4state@2@DW432@@Z 1004c3f0 f i libucrtd:output.obj
 0001:0004b460       ?find_next_state@?$output_processor@DV?$string_output_adapter@D@__crt_stdio_output@@V?$positional_parameter_base@DV?$string_output_adapter@D@__crt_stdio_output@@@2@@__crt_stdio_output@@ABE?AW4state@2@DW432@@Z 1004c460 f i libucrtd:output.obj
 0001:0004b4d0       ?find_next_state@?$output_processor@DV?$string_output_adapter@D@__crt_stdio_output@@V?$standard_base@DV?$string_output_adapter@D@__crt_stdio_output@@@2@@__crt_stdio_output@@ABE?AW4state@2@DW432@@Z 1004c4d0 f i libucrtd:output.obj
 0001:0004b540       ?find_next_state@?$output_processor@_WV?$stream_output_adapter@_W@__crt_stdio_output@@V?$format_validation_base@_WV?$stream_output_adapter@_W@__crt_stdio_output@@@2@@__crt_stdio_output@@ABE?AW4state@2@_WW432@@Z 1004c540 f i libucrtd:output.obj
 0001:0004b5b0       ?find_next_state@?$output_processor@_WV?$stream_output_adapter@_W@__crt_stdio_output@@V?$positional_parameter_base@_WV?$stream_output_adapter@_W@__crt_stdio_output@@@2@@__crt_stdio_output@@ABE?AW4state@2@_WW432@@Z 1004c5b0 f i libucrtd:output.obj
 0001:0004b620       ?find_next_state@?$output_processor@_WV?$stream_output_adapter@_W@__crt_stdio_output@@V?$standard_base@_WV?$stream_output_adapter@_W@__crt_stdio_output@@@2@@__crt_stdio_output@@ABE?AW4state@2@_WW432@@Z 1004c620 f i libucrtd:output.obj
 0001:0004b690       ?find_next_state@?$output_processor@_WV?$string_output_adapter@_W@__crt_stdio_output@@V?$format_validation_base@_WV?$string_output_adapter@_W@__crt_stdio_output@@@2@@__crt_stdio_output@@ABE?AW4state@2@_WW432@@Z 1004c690 f i libucrtd:output.obj
 0001:0004b700       ?find_next_state@?$output_processor@_WV?$string_output_adapter@_W@__crt_stdio_output@@V?$positional_parameter_base@_WV?$string_output_adapter@_W@__crt_stdio_output@@@2@@__crt_stdio_output@@ABE?AW4state@2@_WW432@@Z 1004c700 f i libucrtd:output.obj
 0001:0004b770       ?find_next_state@?$output_processor@_WV?$string_output_adapter@_W@__crt_stdio_output@@V?$standard_base@_WV?$string_output_adapter@_W@__crt_stdio_output@@@2@@__crt_stdio_output@@ABE?AW4state@2@_WW432@@Z 1004c770 f i libucrtd:output.obj
 0001:0004b7e0       ?force_decimal_point@__crt_stdio_output@@YAXPADQAU__crt_locale_pointers@@@Z 1004c7e0 f i libucrtd:output.obj
 0001:0004b8b0       ?get@__crt_deferred_errno_cache@@QAEAAHXZ 1004c8b0 f i libucrtd:output.obj
 0001:0004b8e0       ?get_flags@__crt_stdio_stream@@QBEJXZ 1004c8e0 f i libucrtd:output.obj
 0001:0004b900       ?get_parameter_type@?$positional_parameter_base@DV?$stream_output_adapter@D@__crt_stdio_output@@@__crt_stdio_output@@CA?AW4parameter_type@12@F@Z 1004c900 f i libucrtd:output.obj
 0001:0004b910       ?get_parameter_type@?$positional_parameter_base@DV?$stream_output_adapter@D@__crt_stdio_output@@@__crt_stdio_output@@CA?AW4parameter_type@12@G@Z 1004c910 f i libucrtd:output.obj
 0001:0004b920       ?get_parameter_type@?$positional_parameter_base@DV?$stream_output_adapter@D@__crt_stdio_output@@@__crt_stdio_output@@CA?AW4parameter_type@12@H@Z 1004c920 f i libucrtd:output.obj
 0001:0004b930       ?get_parameter_type@?$positional_parameter_base@DV?$stream_output_adapter@D@__crt_stdio_output@@@__crt_stdio_output@@CA?AW4parameter_type@12@I@Z 1004c930 f i libucrtd:output.obj
 0001:0004b940       ?get_parameter_type@?$positional_parameter_base@DV?$stream_output_adapter@D@__crt_stdio_output@@@__crt_stdio_output@@CA?AW4parameter_type@12@U_CRT_DOUBLE@@@Z 1004c940 f i libucrtd:output.obj
 0001:0004b950       ?get_parameter_type@?$positional_parameter_base@DV?$stream_output_adapter@D@__crt_stdio_output@@@__crt_stdio_output@@CA?AW4parameter_type@12@_J@Z 1004c950 f i libucrtd:output.obj
 0001:0004b960       ?get_parameter_type@?$positional_parameter_base@DV?$stream_output_adapter@D@__crt_stdio_output@@@__crt_stdio_output@@CA?AW4parameter_type@12@_K@Z 1004c960 f i libucrtd:output.obj
 0001:0004b970       ?get_parameter_type@?$positional_parameter_base@DV?$stream_output_adapter@D@__crt_stdio_output@@@__crt_stdio_output@@CA?AW4parameter_type@12@_W@Z 1004c970 f i libucrtd:output.obj
 0001:0004b980       ?get_parameter_type@?$positional_parameter_base@DV?$string_output_adapter@D@__crt_stdio_output@@@__crt_stdio_output@@CA?AW4parameter_type@12@F@Z 1004c980 f i libucrtd:output.obj
 0001:0004b990       ?get_parameter_type@?$positional_parameter_base@DV?$string_output_adapter@D@__crt_stdio_output@@@__crt_stdio_output@@CA?AW4parameter_type@12@G@Z 1004c990 f i libucrtd:output.obj
 0001:0004b9a0       ?get_parameter_type@?$positional_parameter_base@DV?$string_output_adapter@D@__crt_stdio_output@@@__crt_stdio_output@@CA?AW4parameter_type@12@H@Z 1004c9a0 f i libucrtd:output.obj
 0001:0004b9b0       ?get_parameter_type@?$positional_parameter_base@DV?$string_output_adapter@D@__crt_stdio_output@@@__crt_stdio_output@@CA?AW4parameter_type@12@I@Z 1004c9b0 f i libucrtd:output.obj
 0001:0004b9c0       ?get_parameter_type@?$positional_parameter_base@DV?$string_output_adapter@D@__crt_stdio_output@@@__crt_stdio_output@@CA?AW4parameter_type@12@U_CRT_DOUBLE@@@Z 1004c9c0 f i libucrtd:output.obj
 0001:0004b9d0       ?get_parameter_type@?$positional_parameter_base@DV?$string_output_adapter@D@__crt_stdio_output@@@__crt_stdio_output@@CA?AW4parameter_type@12@_J@Z 1004c9d0 f i libucrtd:output.obj
 0001:0004b9e0       ?get_parameter_type@?$positional_parameter_base@DV?$string_output_adapter@D@__crt_stdio_output@@@__crt_stdio_output@@CA?AW4parameter_type@12@_K@Z 1004c9e0 f i libucrtd:output.obj
 0001:0004b9f0       ?get_parameter_type@?$positional_parameter_base@DV?$string_output_adapter@D@__crt_stdio_output@@@__crt_stdio_output@@CA?AW4parameter_type@12@_W@Z 1004c9f0 f i libucrtd:output.obj
 0001:0004ba00       ?get_parameter_type@?$positional_parameter_base@_WV?$stream_output_adapter@_W@__crt_stdio_output@@@__crt_stdio_output@@CA?AW4parameter_type@12@F@Z 1004ca00 f i libucrtd:output.obj
 0001:0004ba10       ?get_parameter_type@?$positional_parameter_base@_WV?$stream_output_adapter@_W@__crt_stdio_output@@@__crt_stdio_output@@CA?AW4parameter_type@12@G@Z 1004ca10 f i libucrtd:output.obj
 0001:0004ba20       ?get_parameter_type@?$positional_parameter_base@_WV?$stream_output_adapter@_W@__crt_stdio_output@@@__crt_stdio_output@@CA?AW4parameter_type@12@H@Z 1004ca20 f i libucrtd:output.obj
 0001:0004ba30       ?get_parameter_type@?$positional_parameter_base@_WV?$stream_output_adapter@_W@__crt_stdio_output@@@__crt_stdio_output@@CA?AW4parameter_type@12@I@Z 1004ca30 f i libucrtd:output.obj
 0001:0004ba40       ?get_parameter_type@?$positional_parameter_base@_WV?$stream_output_adapter@_W@__crt_stdio_output@@@__crt_stdio_output@@CA?AW4parameter_type@12@U_CRT_DOUBLE@@@Z 1004ca40 f i libucrtd:output.obj
 0001:0004ba50       ?get_parameter_type@?$positional_parameter_base@_WV?$stream_output_adapter@_W@__crt_stdio_output@@@__crt_stdio_output@@CA?AW4parameter_type@12@_J@Z 1004ca50 f i libucrtd:output.obj
 0001:0004ba60       ?get_parameter_type@?$positional_parameter_base@_WV?$stream_output_adapter@_W@__crt_stdio_output@@@__crt_stdio_output@@CA?AW4parameter_type@12@_K@Z 1004ca60 f i libucrtd:output.obj
 0001:0004ba70       ?get_parameter_type@?$positional_parameter_base@_WV?$stream_output_adapter@_W@__crt_stdio_output@@@__crt_stdio_output@@CA?AW4parameter_type@12@_W@Z 1004ca70 f i libucrtd:output.obj
 0001:0004ba80       ?get_parameter_type@?$positional_parameter_base@_WV?$string_output_adapter@_W@__crt_stdio_output@@@__crt_stdio_output@@CA?AW4parameter_type@12@F@Z 1004ca80 f i libucrtd:output.obj
 0001:0004ba90       ?get_parameter_type@?$positional_parameter_base@_WV?$string_output_adapter@_W@__crt_stdio_output@@@__crt_stdio_output@@CA?AW4parameter_type@12@G@Z 1004ca90 f i libucrtd:output.obj
 0001:0004baa0       ?get_parameter_type@?$positional_parameter_base@_WV?$string_output_adapter@_W@__crt_stdio_output@@@__crt_stdio_output@@CA?AW4parameter_type@12@H@Z 1004caa0 f i libucrtd:output.obj
 0001:0004bab0       ?get_parameter_type@?$positional_parameter_base@_WV?$string_output_adapter@_W@__crt_stdio_output@@@__crt_stdio_output@@CA?AW4parameter_type@12@I@Z 1004cab0 f i libucrtd:output.obj
 0001:0004bac0       ?get_parameter_type@?$positional_parameter_base@_WV?$string_output_adapter@_W@__crt_stdio_output@@@__crt_stdio_output@@CA?AW4parameter_type@12@U_CRT_DOUBLE@@@Z 1004cac0 f i libucrtd:output.obj
 0001:0004bad0       ?get_parameter_type@?$positional_parameter_base@_WV?$string_output_adapter@_W@__crt_stdio_output@@@__crt_stdio_output@@CA?AW4parameter_type@12@_J@Z 1004cad0 f i libucrtd:output.obj
 0001:0004bae0       ?get_parameter_type@?$positional_parameter_base@_WV?$string_output_adapter@_W@__crt_stdio_output@@@__crt_stdio_output@@CA?AW4parameter_type@12@_K@Z 1004cae0 f i libucrtd:output.obj
 0001:0004baf0       ?get_parameter_type@?$positional_parameter_base@_WV?$string_output_adapter@_W@__crt_stdio_output@@@__crt_stdio_output@@CA?AW4parameter_type@12@_W@Z 1004caf0 f i libucrtd:output.obj
 0001:0004bb00       ?has_flag@?$output_processor@DV?$stream_output_adapter@D@__crt_stdio_output@@V?$format_validation_base@DV?$stream_output_adapter@D@__crt_stdio_output@@@2@@__crt_stdio_output@@ABE_NI@Z 1004cb00 f i libucrtd:output.obj
 0001:0004bb30       ?has_flag@?$output_processor@DV?$stream_output_adapter@D@__crt_stdio_output@@V?$positional_parameter_base@DV?$stream_output_adapter@D@__crt_stdio_output@@@2@@__crt_stdio_output@@ABE_NI@Z 1004cb30 f i libucrtd:output.obj
 0001:0004bb60       ?has_flag@?$output_processor@DV?$stream_output_adapter@D@__crt_stdio_output@@V?$standard_base@DV?$stream_output_adapter@D@__crt_stdio_output@@@2@@__crt_stdio_output@@ABE_NI@Z 1004cb60 f i libucrtd:output.obj
 0001:0004bb90       ?has_flag@?$output_processor@DV?$string_output_adapter@D@__crt_stdio_output@@V?$format_validation_base@DV?$string_output_adapter@D@__crt_stdio_output@@@2@@__crt_stdio_output@@ABE_NI@Z 1004cb90 f i libucrtd:output.obj
 0001:0004bbc0       ?has_flag@?$output_processor@DV?$string_output_adapter@D@__crt_stdio_output@@V?$positional_parameter_base@DV?$string_output_adapter@D@__crt_stdio_output@@@2@@__crt_stdio_output@@ABE_NI@Z 1004cbc0 f i libucrtd:output.obj
 0001:0004bbf0       ?has_flag@?$output_processor@DV?$string_output_adapter@D@__crt_stdio_output@@V?$standard_base@DV?$string_output_adapter@D@__crt_stdio_output@@@2@@__crt_stdio_output@@ABE_NI@Z 1004cbf0 f i libucrtd:output.obj
 0001:0004bc20       ?has_flag@?$output_processor@_WV?$stream_output_adapter@_W@__crt_stdio_output@@V?$format_validation_base@_WV?$stream_output_adapter@_W@__crt_stdio_output@@@2@@__crt_stdio_output@@ABE_NI@Z 1004cc20 f i libucrtd:output.obj
 0001:0004bc50       ?has_flag@?$output_processor@_WV?$stream_output_adapter@_W@__crt_stdio_output@@V?$positional_parameter_base@_WV?$stream_output_adapter@_W@__crt_stdio_output@@@2@@__crt_stdio_output@@ABE_NI@Z 1004cc50 f i libucrtd:output.obj
 0001:0004bc80       ?has_flag@?$output_processor@_WV?$stream_output_adapter@_W@__crt_stdio_output@@V?$standard_base@_WV?$stream_output_adapter@_W@__crt_stdio_output@@@2@@__crt_stdio_output@@ABE_NI@Z 1004cc80 f i libucrtd:output.obj
 0001:0004bcb0       ?has_flag@?$output_processor@_WV?$string_output_adapter@_W@__crt_stdio_output@@V?$format_validation_base@_WV?$string_output_adapter@_W@__crt_stdio_output@@@2@@__crt_stdio_output@@ABE_NI@Z 1004ccb0 f i libucrtd:output.obj
 0001:0004bce0       ?has_flag@?$output_processor@_WV?$string_output_adapter@_W@__crt_stdio_output@@V?$positional_parameter_base@_WV?$string_output_adapter@_W@__crt_stdio_output@@@2@@__crt_stdio_output@@ABE_NI@Z 1004cce0 f i libucrtd:output.obj
 0001:0004bd10       ?has_flag@?$output_processor@_WV?$string_output_adapter@_W@__crt_stdio_output@@V?$standard_base@_WV?$string_output_adapter@_W@__crt_stdio_output@@@2@@__crt_stdio_output@@ABE_NI@Z 1004cd10 f i libucrtd:output.obj
 0001:0004bd40       ?is_positional_parameter_reappearance_consistent@?$positional_parameter_base@DV?$stream_output_adapter@D@__crt_stdio_output@@@__crt_stdio_output@@AAE_NABUparameter_data@12@W4parameter_type@12@DW4length_modifier@2@@Z 1004cd40 f i libucrtd:output.obj
 0001:0004bf70       ?is_positional_parameter_reappearance_consistent@?$positional_parameter_base@DV?$string_output_adapter@D@__crt_stdio_output@@@__crt_stdio_output@@AAE_NABUparameter_data@12@W4parameter_type@12@DW4length_modifier@2@@Z 1004cf70 f i libucrtd:output.obj
 0001:0004c1a0       ?is_positional_parameter_reappearance_consistent@?$positional_parameter_base@_WV?$stream_output_adapter@_W@__crt_stdio_output@@@__crt_stdio_output@@AAE_NABUparameter_data@12@W4parameter_type@12@_WW4length_modifier@2@@Z 1004d1a0 f i libucrtd:output.obj
 0001:0004c3d0       ?is_positional_parameter_reappearance_consistent@?$positional_parameter_base@_WV?$string_output_adapter@_W@__crt_stdio_output@@@__crt_stdio_output@@AAE_NABUparameter_data@12@W4parameter_type@12@_WW4length_modifier@2@@Z 1004d3d0 f i libucrtd:output.obj
 0001:0004c600       ?is_string_backed@__crt_stdio_stream@@QBE_NXZ 1004d600 f i libucrtd:output.obj
 0001:0004c640       ?narrow_null_string@?$output_processor@DV?$stream_output_adapter@D@__crt_stdio_output@@V?$format_validation_base@DV?$stream_output_adapter@D@__crt_stdio_output@@@2@@__crt_stdio_output@@CAPADXZ 1004d640 f i libucrtd:output.obj
 0001:0004c650       ?narrow_null_string@?$output_processor@DV?$stream_output_adapter@D@__crt_stdio_output@@V?$positional_parameter_base@DV?$stream_output_adapter@D@__crt_stdio_output@@@2@@__crt_stdio_output@@CAPADXZ 1004d650 f i libucrtd:output.obj
 0001:0004c660       ?narrow_null_string@?$output_processor@DV?$stream_output_adapter@D@__crt_stdio_output@@V?$standard_base@DV?$stream_output_adapter@D@__crt_stdio_output@@@2@@__crt_stdio_output@@CAPADXZ 1004d660 f i libucrtd:output.obj
 0001:0004c670       ?narrow_null_string@?$output_processor@DV?$string_output_adapter@D@__crt_stdio_output@@V?$format_validation_base@DV?$string_output_adapter@D@__crt_stdio_output@@@2@@__crt_stdio_output@@CAPADXZ 1004d670 f i libucrtd:output.obj
 0001:0004c680       ?narrow_null_string@?$output_processor@DV?$string_output_adapter@D@__crt_stdio_output@@V?$positional_parameter_base@DV?$string_output_adapter@D@__crt_stdio_output@@@2@@__crt_stdio_output@@CAPADXZ 1004d680 f i libucrtd:output.obj
 0001:0004c690       ?narrow_null_string@?$output_processor@DV?$string_output_adapter@D@__crt_stdio_output@@V?$standard_base@DV?$string_output_adapter@D@__crt_stdio_output@@@2@@__crt_stdio_output@@CAPADXZ 1004d690 f i libucrtd:output.obj
 0001:0004c6a0       ?narrow_null_string@?$output_processor@_WV?$stream_output_adapter@_W@__crt_stdio_output@@V?$format_validation_base@_WV?$stream_output_adapter@_W@__crt_stdio_output@@@2@@__crt_stdio_output@@CAPADXZ 1004d6a0 f i libucrtd:output.obj
 0001:0004c6b0       ?narrow_null_string@?$output_processor@_WV?$stream_output_adapter@_W@__crt_stdio_output@@V?$positional_parameter_base@_WV?$stream_output_adapter@_W@__crt_stdio_output@@@2@@__crt_stdio_output@@CAPADXZ 1004d6b0 f i libucrtd:output.obj
 0001:0004c6c0       ?narrow_null_string@?$output_processor@_WV?$stream_output_adapter@_W@__crt_stdio_output@@V?$standard_base@_WV?$stream_output_adapter@_W@__crt_stdio_output@@@2@@__crt_stdio_output@@CAPADXZ 1004d6c0 f i libucrtd:output.obj
 0001:0004c6d0       ?narrow_null_string@?$output_processor@_WV?$string_output_adapter@_W@__crt_stdio_output@@V?$format_validation_base@_WV?$string_output_adapter@_W@__crt_stdio_output@@@2@@__crt_stdio_output@@CAPADXZ 1004d6d0 f i libucrtd:output.obj
 0001:0004c6e0       ?narrow_null_string@?$output_processor@_WV?$string_output_adapter@_W@__crt_stdio_output@@V?$positional_parameter_base@_WV?$string_output_adapter@_W@__crt_stdio_output@@@2@@__crt_stdio_output@@CAPADXZ 1004d6e0 f i libucrtd:output.obj
 0001:0004c6f0       ?narrow_null_string@?$output_processor@_WV?$string_output_adapter@_W@__crt_stdio_output@@V?$standard_base@_WV?$string_output_adapter@_W@__crt_stdio_output@@@2@@__crt_stdio_output@@CAPADXZ 1004d6f0 f i libucrtd:output.obj
 0001:0004c700       ?parse_int_from_format_string@?$output_processor@DV?$stream_output_adapter@D@__crt_stdio_output@@V?$format_validation_base@DV?$stream_output_adapter@D@__crt_stdio_output@@@2@@__crt_stdio_output@@AAE_NQAH@Z 1004d700 f i libucrtd:output.obj
 0001:0004c7c0       ?parse_int_from_format_string@?$output_processor@DV?$stream_output_adapter@D@__crt_stdio_output@@V?$positional_parameter_base@DV?$stream_output_adapter@D@__crt_stdio_output@@@2@@__crt_stdio_output@@AAE_NQAH@Z 1004d7c0 f i libucrtd:output.obj
 0001:0004c880       ?parse_int_from_format_string@?$output_processor@DV?$stream_output_adapter@D@__crt_stdio_output@@V?$standard_base@DV?$stream_output_adapter@D@__crt_stdio_output@@@2@@__crt_stdio_output@@AAE_NQAH@Z 1004d880 f i libucrtd:output.obj
 0001:0004c940       ?parse_int_from_format_string@?$output_processor@DV?$string_output_adapter@D@__crt_stdio_output@@V?$format_validation_base@DV?$string_output_adapter@D@__crt_stdio_output@@@2@@__crt_stdio_output@@AAE_NQAH@Z 1004d940 f i libucrtd:output.obj
 0001:0004ca00       ?parse_int_from_format_string@?$output_processor@DV?$string_output_adapter@D@__crt_stdio_output@@V?$positional_parameter_base@DV?$string_output_adapter@D@__crt_stdio_output@@@2@@__crt_stdio_output@@AAE_NQAH@Z 1004da00 f i libucrtd:output.obj
 0001:0004cac0       ?parse_int_from_format_string@?$output_processor@DV?$string_output_adapter@D@__crt_stdio_output@@V?$standard_base@DV?$string_output_adapter@D@__crt_stdio_output@@@2@@__crt_stdio_output@@AAE_NQAH@Z 1004dac0 f i libucrtd:output.obj
 0001:0004cb80       ?parse_int_from_format_string@?$output_processor@_WV?$stream_output_adapter@_W@__crt_stdio_output@@V?$format_validation_base@_WV?$stream_output_adapter@_W@__crt_stdio_output@@@2@@__crt_stdio_output@@AAE_NQAH@Z 1004db80 f i libucrtd:output.obj
 0001:0004cc40       ?parse_int_from_format_string@?$output_processor@_WV?$stream_output_adapter@_W@__crt_stdio_output@@V?$positional_parameter_base@_WV?$stream_output_adapter@_W@__crt_stdio_output@@@2@@__crt_stdio_output@@AAE_NQAH@Z 1004dc40 f i libucrtd:output.obj
 0001:0004cd00       ?parse_int_from_format_string@?$output_processor@_WV?$stream_output_adapter@_W@__crt_stdio_output@@V?$standard_base@_WV?$stream_output_adapter@_W@__crt_stdio_output@@@2@@__crt_stdio_output@@AAE_NQAH@Z 1004dd00 f i libucrtd:output.obj
 0001:0004cdc0       ?parse_int_from_format_string@?$output_processor@_WV?$string_output_adapter@_W@__crt_stdio_output@@V?$format_validation_base@_WV?$string_output_adapter@_W@__crt_stdio_output@@@2@@__crt_stdio_output@@AAE_NQAH@Z 1004ddc0 f i libucrtd:output.obj
 0001:0004ce80       ?parse_int_from_format_string@?$output_processor@_WV?$string_output_adapter@_W@__crt_stdio_output@@V?$positional_parameter_base@_WV?$string_output_adapter@_W@__crt_stdio_output@@@2@@__crt_stdio_output@@AAE_NQAH@Z 1004de80 f i libucrtd:output.obj
 0001:0004cf40       ?parse_int_from_format_string@?$output_processor@_WV?$string_output_adapter@_W@__crt_stdio_output@@V?$standard_base@_WV?$string_output_adapter@_W@__crt_stdio_output@@@2@@__crt_stdio_output@@AAE_NQAH@Z 1004df40 f i libucrtd:output.obj
 0001:0004d000       ?process@?$output_processor@DV?$stream_output_adapter@D@__crt_stdio_output@@V?$format_validation_base@DV?$stream_output_adapter@D@__crt_stdio_output@@@2@@__crt_stdio_output@@QAEHXZ 1004e000 f i libucrtd:output.obj
 0001:0004d2b0       ?process@?$output_processor@DV?$stream_output_adapter@D@__crt_stdio_output@@V?$positional_parameter_base@DV?$stream_output_adapter@D@__crt_stdio_output@@@2@@__crt_stdio_output@@QAEHXZ 1004e2b0 f i libucrtd:output.obj
 0001:0004d560       ?process@?$output_processor@DV?$stream_output_adapter@D@__crt_stdio_output@@V?$standard_base@DV?$stream_output_adapter@D@__crt_stdio_output@@@2@@__crt_stdio_output@@QAEHXZ 1004e560 f i libucrtd:output.obj
 0001:0004d810       ?process@?$output_processor@DV?$string_output_adapter@D@__crt_stdio_output@@V?$format_validation_base@DV?$string_output_adapter@D@__crt_stdio_output@@@2@@__crt_stdio_output@@QAEHXZ 1004e810 f i libucrtd:output.obj
 0001:0004dac0       ?process@?$output_processor@DV?$string_output_adapter@D@__crt_stdio_output@@V?$positional_parameter_base@DV?$string_output_adapter@D@__crt_stdio_output@@@2@@__crt_stdio_output@@QAEHXZ 1004eac0 f i libucrtd:output.obj
 0001:0004dd70       ?process@?$output_processor@DV?$string_output_adapter@D@__crt_stdio_output@@V?$standard_base@DV?$string_output_adapter@D@__crt_stdio_output@@@2@@__crt_stdio_output@@QAEHXZ 1004ed70 f i libucrtd:output.obj
 0001:0004e020       ?process@?$output_processor@_WV?$stream_output_adapter@_W@__crt_stdio_output@@V?$format_validation_base@_WV?$stream_output_adapter@_W@__crt_stdio_output@@@2@@__crt_stdio_output@@QAEHXZ 1004f020 f i libucrtd:output.obj
 0001:0004e2d0       ?process@?$output_processor@_WV?$stream_output_adapter@_W@__crt_stdio_output@@V?$positional_parameter_base@_WV?$stream_output_adapter@_W@__crt_stdio_output@@@2@@__crt_stdio_output@@QAEHXZ 1004f2d0 f i libucrtd:output.obj
 0001:0004e580       ?process@?$output_processor@_WV?$stream_output_adapter@_W@__crt_stdio_output@@V?$standard_base@_WV?$stream_output_adapter@_W@__crt_stdio_output@@@2@@__crt_stdio_output@@QAEHXZ 1004f580 f i libucrtd:output.obj
 0001:0004e830       ?process@?$output_processor@_WV?$string_output_adapter@_W@__crt_stdio_output@@V?$format_validation_base@_WV?$string_output_adapter@_W@__crt_stdio_output@@@2@@__crt_stdio_output@@QAEHXZ 1004f830 f i libucrtd:output.obj
 0001:0004eae0       ?process@?$output_processor@_WV?$string_output_adapter@_W@__crt_stdio_output@@V?$positional_parameter_base@_WV?$string_output_adapter@_W@__crt_stdio_output@@@2@@__crt_stdio_output@@QAEHXZ 1004fae0 f i libucrtd:output.obj
 0001:0004ed90       ?process@?$output_processor@_WV?$string_output_adapter@_W@__crt_stdio_output@@V?$standard_base@_WV?$string_output_adapter@_W@__crt_stdio_output@@@2@@__crt_stdio_output@@QAEHXZ 1004fd90 f i libucrtd:output.obj
 0001:0004f040       ?public_stream@__crt_stdio_stream@@QBEPAU_iobuf@@XZ 10050040 f i libucrtd:output.obj
 0001:0004f060       ?set_flag@?$output_processor@DV?$stream_output_adapter@D@__crt_stdio_output@@V?$format_validation_base@DV?$stream_output_adapter@D@__crt_stdio_output@@@2@@__crt_stdio_output@@AAEXI@Z 10050060 f i libucrtd:output.obj
 0001:0004f080       ?set_flag@?$output_processor@DV?$stream_output_adapter@D@__crt_stdio_output@@V?$positional_parameter_base@DV?$stream_output_adapter@D@__crt_stdio_output@@@2@@__crt_stdio_output@@AAEXI@Z 10050080 f i libucrtd:output.obj
 0001:0004f0a0       ?set_flag@?$output_processor@DV?$stream_output_adapter@D@__crt_stdio_output@@V?$standard_base@DV?$stream_output_adapter@D@__crt_stdio_output@@@2@@__crt_stdio_output@@AAEXI@Z 100500a0 f i libucrtd:output.obj
 0001:0004f0c0       ?set_flag@?$output_processor@DV?$string_output_adapter@D@__crt_stdio_output@@V?$format_validation_base@DV?$string_output_adapter@D@__crt_stdio_output@@@2@@__crt_stdio_output@@AAEXI@Z 100500c0 f i libucrtd:output.obj
 0001:0004f0e0       ?set_flag@?$output_processor@DV?$string_output_adapter@D@__crt_stdio_output@@V?$positional_parameter_base@DV?$string_output_adapter@D@__crt_stdio_output@@@2@@__crt_stdio_output@@AAEXI@Z 100500e0 f i libucrtd:output.obj
 0001:0004f100       ?set_flag@?$output_processor@DV?$string_output_adapter@D@__crt_stdio_output@@V?$standard_base@DV?$string_output_adapter@D@__crt_stdio_output@@@2@@__crt_stdio_output@@AAEXI@Z 10050100 f i libucrtd:output.obj
 0001:0004f120       ?set_flag@?$output_processor@_WV?$stream_output_adapter@_W@__crt_stdio_output@@V?$format_validation_base@_WV?$stream_output_adapter@_W@__crt_stdio_output@@@2@@__crt_stdio_output@@AAEXI@Z 10050120 f i libucrtd:output.obj
 0001:0004f140       ?set_flag@?$output_processor@_WV?$stream_output_adapter@_W@__crt_stdio_output@@V?$positional_parameter_base@_WV?$stream_output_adapter@_W@__crt_stdio_output@@@2@@__crt_stdio_output@@AAEXI@Z 10050140 f i libucrtd:output.obj
 0001:0004f160       ?set_flag@?$output_processor@_WV?$stream_output_adapter@_W@__crt_stdio_output@@V?$standard_base@_WV?$stream_output_adapter@_W@__crt_stdio_output@@@2@@__crt_stdio_output@@AAEXI@Z 10050160 f i libucrtd:output.obj
 0001:0004f180       ?set_flag@?$output_processor@_WV?$string_output_adapter@_W@__crt_stdio_output@@V?$format_validation_base@_WV?$string_output_adapter@_W@__crt_stdio_output@@@2@@__crt_stdio_output@@AAEXI@Z 10050180 f i libucrtd:output.obj
 0001:0004f1a0       ?set_flag@?$output_processor@_WV?$string_output_adapter@_W@__crt_stdio_output@@V?$positional_parameter_base@_WV?$string_output_adapter@_W@__crt_stdio_output@@@2@@__crt_stdio_output@@AAEXI@Z 100501a0 f i libucrtd:output.obj
 0001:0004f1c0       ?set_flag@?$output_processor@_WV?$string_output_adapter@_W@__crt_stdio_output@@V?$standard_base@_WV?$string_output_adapter@_W@__crt_stdio_output@@@2@@__crt_stdio_output@@AAEXI@Z 100501c0 f i libucrtd:output.obj
 0001:0004f1e0       ?should_format@?$positional_parameter_base@DV?$stream_output_adapter@D@__crt_stdio_output@@@__crt_stdio_output@@IAE_NXZ 100501e0 f i libucrtd:output.obj
 0001:0004f220       ?should_format@?$positional_parameter_base@DV?$string_output_adapter@D@__crt_stdio_output@@@__crt_stdio_output@@IAE_NXZ 10050220 f i libucrtd:output.obj
 0001:0004f260       ?should_format@?$positional_parameter_base@_WV?$stream_output_adapter@_W@__crt_stdio_output@@@__crt_stdio_output@@IAE_NXZ 10050260 f i libucrtd:output.obj
 0001:0004f2a0       ?should_format@?$positional_parameter_base@_WV?$string_output_adapter@_W@__crt_stdio_output@@@__crt_stdio_output@@IAE_NXZ 100502a0 f i libucrtd:output.obj
 0001:0004f2e0       ?should_format@?$standard_base@DV?$stream_output_adapter@D@__crt_stdio_output@@@__crt_stdio_output@@IAE_NXZ 100502e0 f i libucrtd:output.obj
 0001:0004f2f0       ?should_format@?$standard_base@DV?$string_output_adapter@D@__crt_stdio_output@@@__crt_stdio_output@@IAE_NXZ 100502f0 f i libucrtd:output.obj
 0001:0004f300       ?should_format@?$standard_base@_WV?$stream_output_adapter@_W@__crt_stdio_output@@@__crt_stdio_output@@IAE_NXZ 10050300 f i libucrtd:output.obj
 0001:0004f310       ?should_format@?$standard_base@_WV?$string_output_adapter@_W@__crt_stdio_output@@@__crt_stdio_output@@IAE_NXZ 10050310 f i libucrtd:output.obj
 0001:0004f320       ?should_skip_normal_state_processing@?$positional_parameter_base@DV?$stream_output_adapter@D@__crt_stdio_output@@@__crt_stdio_output@@IAE_NXZ 10050320 f i libucrtd:output.obj
 0001:0004f370       ?should_skip_normal_state_processing@?$positional_parameter_base@DV?$string_output_adapter@D@__crt_stdio_output@@@__crt_stdio_output@@IAE_NXZ 10050370 f i libucrtd:output.obj
 0001:0004f3c0       ?should_skip_normal_state_processing@?$positional_parameter_base@_WV?$stream_output_adapter@_W@__crt_stdio_output@@@__crt_stdio_output@@IAE_NXZ 100503c0 f i libucrtd:output.obj
 0001:0004f410       ?should_skip_normal_state_processing@?$positional_parameter_base@_WV?$string_output_adapter@_W@__crt_stdio_output@@@__crt_stdio_output@@IAE_NXZ 10050410 f i libucrtd:output.obj
 0001:0004f460       ?should_skip_normal_state_processing@?$standard_base@DV?$stream_output_adapter@D@__crt_stdio_output@@@__crt_stdio_output@@IAE_NXZ 10050460 f i libucrtd:output.obj
 0001:0004f470       ?should_skip_normal_state_processing@?$standard_base@DV?$string_output_adapter@D@__crt_stdio_output@@@__crt_stdio_output@@IAE_NXZ 10050470 f i libucrtd:output.obj
 0001:0004f480       ?should_skip_normal_state_processing@?$standard_base@_WV?$stream_output_adapter@_W@__crt_stdio_output@@@__crt_stdio_output@@IAE_NXZ 10050480 f i libucrtd:output.obj
 0001:0004f490       ?should_skip_normal_state_processing@?$standard_base@_WV?$string_output_adapter@_W@__crt_stdio_output@@@__crt_stdio_output@@IAE_NXZ 10050490 f i libucrtd:output.obj
 0001:0004f4a0       ?should_skip_type_state_output@?$positional_parameter_base@DV?$stream_output_adapter@D@__crt_stdio_output@@@__crt_stdio_output@@IBE_NXZ 100504a0 f i libucrtd:output.obj
 0001:0004f4e0       ?should_skip_type_state_output@?$positional_parameter_base@DV?$string_output_adapter@D@__crt_stdio_output@@@__crt_stdio_output@@IBE_NXZ 100504e0 f i libucrtd:output.obj
 0001:0004f520       ?should_skip_type_state_output@?$positional_parameter_base@_WV?$stream_output_adapter@_W@__crt_stdio_output@@@__crt_stdio_output@@IBE_NXZ 10050520 f i libucrtd:output.obj
 0001:0004f560       ?should_skip_type_state_output@?$positional_parameter_base@_WV?$string_output_adapter@_W@__crt_stdio_output@@@__crt_stdio_output@@IBE_NXZ 10050560 f i libucrtd:output.obj
 0001:0004f5a0       ?should_skip_type_state_output@?$standard_base@DV?$stream_output_adapter@D@__crt_stdio_output@@@__crt_stdio_output@@IBE_NXZ 100505a0 f i libucrtd:output.obj
 0001:0004f5b0       ?should_skip_type_state_output@?$standard_base@DV?$string_output_adapter@D@__crt_stdio_output@@@__crt_stdio_output@@IBE_NXZ 100505b0 f i libucrtd:output.obj
 0001:0004f5c0       ?should_skip_type_state_output@?$standard_base@_WV?$stream_output_adapter@_W@__crt_stdio_output@@@__crt_stdio_output@@IBE_NXZ 100505c0 f i libucrtd:output.obj
 0001:0004f5d0       ?should_skip_type_state_output@?$standard_base@_WV?$string_output_adapter@_W@__crt_stdio_output@@@__crt_stdio_output@@IBE_NXZ 100505d0 f i libucrtd:output.obj
 0001:0004f5e0       ?state_case_dot@?$output_processor@DV?$stream_output_adapter@D@__crt_stdio_output@@V?$format_validation_base@DV?$stream_output_adapter@D@__crt_stdio_output@@@2@@__crt_stdio_output@@AAE_NXZ 100505e0 f i libucrtd:output.obj
 0001:0004f600       ?state_case_dot@?$output_processor@DV?$stream_output_adapter@D@__crt_stdio_output@@V?$positional_parameter_base@DV?$stream_output_adapter@D@__crt_stdio_output@@@2@@__crt_stdio_output@@AAE_NXZ 10050600 f i libucrtd:output.obj
 0001:0004f620       ?state_case_dot@?$output_processor@DV?$stream_output_adapter@D@__crt_stdio_output@@V?$standard_base@DV?$stream_output_adapter@D@__crt_stdio_output@@@2@@__crt_stdio_output@@AAE_NXZ 10050620 f i libucrtd:output.obj
 0001:0004f640       ?state_case_dot@?$output_processor@DV?$string_output_adapter@D@__crt_stdio_output@@V?$format_validation_base@DV?$string_output_adapter@D@__crt_stdio_output@@@2@@__crt_stdio_output@@AAE_NXZ 10050640 f i libucrtd:output.obj
 0001:0004f660       ?state_case_dot@?$output_processor@DV?$string_output_adapter@D@__crt_stdio_output@@V?$positional_parameter_base@DV?$string_output_adapter@D@__crt_stdio_output@@@2@@__crt_stdio_output@@AAE_NXZ 10050660 f i libucrtd:output.obj
 0001:0004f680       ?state_case_dot@?$output_processor@DV?$string_output_adapter@D@__crt_stdio_output@@V?$standard_base@DV?$string_output_adapter@D@__crt_stdio_output@@@2@@__crt_stdio_output@@AAE_NXZ 10050680 f i libucrtd:output.obj
 0001:0004f6a0       ?state_case_dot@?$output_processor@_WV?$stream_output_adapter@_W@__crt_stdio_output@@V?$format_validation_base@_WV?$stream_output_adapter@_W@__crt_stdio_output@@@2@@__crt_stdio_output@@AAE_NXZ 100506a0 f i libucrtd:output.obj
 0001:0004f6c0       ?state_case_dot@?$output_processor@_WV?$stream_output_adapter@_W@__crt_stdio_output@@V?$positional_parameter_base@_WV?$stream_output_adapter@_W@__crt_stdio_output@@@2@@__crt_stdio_output@@AAE_NXZ 100506c0 f i libucrtd:output.obj
 0001:0004f6e0       ?state_case_dot@?$output_processor@_WV?$stream_output_adapter@_W@__crt_stdio_output@@V?$standard_base@_WV?$stream_output_adapter@_W@__crt_stdio_output@@@2@@__crt_stdio_output@@AAE_NXZ 100506e0 f i libucrtd:output.obj
 0001:0004f700       ?state_case_dot@?$output_processor@_WV?$string_output_adapter@_W@__crt_stdio_output@@V?$format_validation_base@_WV?$string_output_adapter@_W@__crt_stdio_output@@@2@@__crt_stdio_output@@AAE_NXZ 10050700 f i libucrtd:output.obj
 0001:0004f720       ?state_case_dot@?$output_processor@_WV?$string_output_adapter@_W@__crt_stdio_output@@V?$positional_parameter_base@_WV?$string_output_adapter@_W@__crt_stdio_output@@@2@@__crt_stdio_output@@AAE_NXZ 10050720 f i libucrtd:output.obj
 0001:0004f740       ?state_case_dot@?$output_processor@_WV?$string_output_adapter@_W@__crt_stdio_output@@V?$standard_base@_WV?$string_output_adapter@_W@__crt_stdio_output@@@2@@__crt_stdio_output@@AAE_NXZ 10050740 f i libucrtd:output.obj
 0001:0004f760       ?state_case_flag@?$output_processor@DV?$stream_output_adapter@D@__crt_stdio_output@@V?$format_validation_base@DV?$stream_output_adapter@D@__crt_stdio_output@@@2@@__crt_stdio_output@@AAE_NXZ 10050760 f i libucrtd:output.obj
 0001:0004f810       ?state_case_flag@?$output_processor@DV?$stream_output_adapter@D@__crt_stdio_output@@V?$positional_parameter_base@DV?$stream_output_adapter@D@__crt_stdio_output@@@2@@__crt_stdio_output@@AAE_NXZ 10050810 f i libucrtd:output.obj
 0001:0004f8c0       ?state_case_flag@?$output_processor@DV?$stream_output_adapter@D@__crt_stdio_output@@V?$standard_base@DV?$stream_output_adapter@D@__crt_stdio_output@@@2@@__crt_stdio_output@@AAE_NXZ 100508c0 f i libucrtd:output.obj
 0001:0004f970       ?state_case_flag@?$output_processor@DV?$string_output_adapter@D@__crt_stdio_output@@V?$format_validation_base@DV?$string_output_adapter@D@__crt_stdio_output@@@2@@__crt_stdio_output@@AAE_NXZ 10050970 f i libucrtd:output.obj
 0001:0004fa20       ?state_case_flag@?$output_processor@DV?$string_output_adapter@D@__crt_stdio_output@@V?$positional_parameter_base@DV?$string_output_adapter@D@__crt_stdio_output@@@2@@__crt_stdio_output@@AAE_NXZ 10050a20 f i libucrtd:output.obj
 0001:0004fad0       ?state_case_flag@?$output_processor@DV?$string_output_adapter@D@__crt_stdio_output@@V?$standard_base@DV?$string_output_adapter@D@__crt_stdio_output@@@2@@__crt_stdio_output@@AAE_NXZ 10050ad0 f i libucrtd:output.obj
 0001:0004fb80       ?state_case_flag@?$output_processor@_WV?$stream_output_adapter@_W@__crt_stdio_output@@V?$format_validation_base@_WV?$stream_output_adapter@_W@__crt_stdio_output@@@2@@__crt_stdio_output@@AAE_NXZ 10050b80 f i libucrtd:output.obj
 0001:0004fc30       ?state_case_flag@?$output_processor@_WV?$stream_output_adapter@_W@__crt_stdio_output@@V?$positional_parameter_base@_WV?$stream_output_adapter@_W@__crt_stdio_output@@@2@@__crt_stdio_output@@AAE_NXZ 10050c30 f i libucrtd:output.obj
 0001:0004fce0       ?state_case_flag@?$output_processor@_WV?$stream_output_adapter@_W@__crt_stdio_output@@V?$standard_base@_WV?$stream_output_adapter@_W@__crt_stdio_output@@@2@@__crt_stdio_output@@AAE_NXZ 10050ce0 f i libucrtd:output.obj
 0001:0004fd90       ?state_case_flag@?$output_processor@_WV?$string_output_adapter@_W@__crt_stdio_output@@V?$format_validation_base@_WV?$string_output_adapter@_W@__crt_stdio_output@@@2@@__crt_stdio_output@@AAE_NXZ 10050d90 f i libucrtd:output.obj
 0001:0004fe40       ?state_case_flag@?$output_processor@_WV?$string_output_adapter@_W@__crt_stdio_output@@V?$positional_parameter_base@_WV?$string_output_adapter@_W@__crt_stdio_output@@@2@@__crt_stdio_output@@AAE_NXZ 10050e40 f i libucrtd:output.obj
 0001:0004fef0       ?state_case_flag@?$output_processor@_WV?$string_output_adapter@_W@__crt_stdio_output@@V?$standard_base@_WV?$string_output_adapter@_W@__crt_stdio_output@@@2@@__crt_stdio_output@@AAE_NXZ 10050ef0 f i libucrtd:output.obj
 0001:0004ffa0       ?state_case_normal@?$output_processor@DV?$stream_output_adapter@D@__crt_stdio_output@@V?$format_validation_base@DV?$stream_output_adapter@D@__crt_stdio_output@@@2@@__crt_stdio_output@@AAE_NXZ 10050fa0 f i libucrtd:output.obj
 0001:00050050       ?state_case_normal@?$output_processor@DV?$stream_output_adapter@D@__crt_stdio_output@@V?$positional_parameter_base@DV?$stream_output_adapter@D@__crt_stdio_output@@@2@@__crt_stdio_output@@AAE_NXZ 10051050 f i libucrtd:output.obj
 0001:00050100       ?state_case_normal@?$output_processor@DV?$stream_output_adapter@D@__crt_stdio_output@@V?$standard_base@DV?$stream_output_adapter@D@__crt_stdio_output@@@2@@__crt_stdio_output@@AAE_NXZ 10051100 f i libucrtd:output.obj
 0001:000501b0       ?state_case_normal@?$output_processor@DV?$string_output_adapter@D@__crt_stdio_output@@V?$format_validation_base@DV?$string_output_adapter@D@__crt_stdio_output@@@2@@__crt_stdio_output@@AAE_NXZ 100511b0 f i libucrtd:output.obj
 0001:00050260       ?state_case_normal@?$output_processor@DV?$string_output_adapter@D@__crt_stdio_output@@V?$positional_parameter_base@DV?$string_output_adapter@D@__crt_stdio_output@@@2@@__crt_stdio_output@@AAE_NXZ 10051260 f i libucrtd:output.obj
 0001:00050310       ?state_case_normal@?$output_processor@DV?$string_output_adapter@D@__crt_stdio_output@@V?$standard_base@DV?$string_output_adapter@D@__crt_stdio_output@@@2@@__crt_stdio_output@@AAE_NXZ 10051310 f i libucrtd:output.obj
 0001:000503c0       ?state_case_normal@?$output_processor@_WV?$stream_output_adapter@_W@__crt_stdio_output@@V?$format_validation_base@_WV?$stream_output_adapter@_W@__crt_stdio_output@@@2@@__crt_stdio_output@@AAE_NXZ 100513c0 f i libucrtd:output.obj
 0001:00050470       ?state_case_normal@?$output_processor@_WV?$stream_output_adapter@_W@__crt_stdio_output@@V?$positional_parameter_base@_WV?$stream_output_adapter@_W@__crt_stdio_output@@@2@@__crt_stdio_output@@AAE_NXZ 10051470 f i libucrtd:output.obj
 0001:00050520       ?state_case_normal@?$output_processor@_WV?$stream_output_adapter@_W@__crt_stdio_output@@V?$standard_base@_WV?$stream_output_adapter@_W@__crt_stdio_output@@@2@@__crt_stdio_output@@AAE_NXZ 10051520 f i libucrtd:output.obj
 0001:000505d0       ?state_case_normal@?$output_processor@_WV?$string_output_adapter@_W@__crt_stdio_output@@V?$format_validation_base@_WV?$string_output_adapter@_W@__crt_stdio_output@@@2@@__crt_stdio_output@@AAE_NXZ 100515d0 f i libucrtd:output.obj
 0001:00050680       ?state_case_normal@?$output_processor@_WV?$string_output_adapter@_W@__crt_stdio_output@@V?$positional_parameter_base@_WV?$string_output_adapter@_W@__crt_stdio_output@@@2@@__crt_stdio_output@@AAE_NXZ 10051680 f i libucrtd:output.obj
 0001:00050730       ?state_case_normal@?$output_processor@_WV?$string_output_adapter@_W@__crt_stdio_output@@V?$standard_base@_WV?$string_output_adapter@_W@__crt_stdio_output@@@2@@__crt_stdio_output@@AAE_NXZ 10051730 f i libucrtd:output.obj
 0001:000507e0       ?state_case_normal_common@?$output_processor@DV?$stream_output_adapter@D@__crt_stdio_output@@V?$format_validation_base@DV?$stream_output_adapter@D@__crt_stdio_output@@@2@@__crt_stdio_output@@AAE_NXZ 100517e0 f i libucrtd:output.obj
 0001:00050830       ?state_case_normal_common@?$output_processor@DV?$stream_output_adapter@D@__crt_stdio_output@@V?$positional_parameter_base@DV?$stream_output_adapter@D@__crt_stdio_output@@@2@@__crt_stdio_output@@AAE_NXZ 10051830 f i libucrtd:output.obj
 0001:00050880       ?state_case_normal_common@?$output_processor@DV?$stream_output_adapter@D@__crt_stdio_output@@V?$standard_base@DV?$stream_output_adapter@D@__crt_stdio_output@@@2@@__crt_stdio_output@@AAE_NXZ 10051880 f i libucrtd:output.obj
 0001:000508d0       ?state_case_normal_common@?$output_processor@DV?$string_output_adapter@D@__crt_stdio_output@@V?$format_validation_base@DV?$string_output_adapter@D@__crt_stdio_output@@@2@@__crt_stdio_output@@AAE_NXZ 100518d0 f i libucrtd:output.obj
 0001:00050920       ?state_case_normal_common@?$output_processor@DV?$string_output_adapter@D@__crt_stdio_output@@V?$positional_parameter_base@DV?$string_output_adapter@D@__crt_stdio_output@@@2@@__crt_stdio_output@@AAE_NXZ 10051920 f i libucrtd:output.obj
 0001:00050970       ?state_case_normal_common@?$output_processor@DV?$string_output_adapter@D@__crt_stdio_output@@V?$standard_base@DV?$string_output_adapter@D@__crt_stdio_output@@@2@@__crt_stdio_output@@AAE_NXZ 10051970 f i libucrtd:output.obj
 0001:000509c0       ?state_case_normal_common@?$output_processor@_WV?$stream_output_adapter@_W@__crt_stdio_output@@V?$format_validation_base@_WV?$stream_output_adapter@_W@__crt_stdio_output@@@2@@__crt_stdio_output@@AAE_NXZ 100519c0 f i libucrtd:output.obj
 0001:00050a10       ?state_case_normal_common@?$output_processor@_WV?$stream_output_adapter@_W@__crt_stdio_output@@V?$positional_parameter_base@_WV?$stream_output_adapter@_W@__crt_stdio_output@@@2@@__crt_stdio_output@@AAE_NXZ 10051a10 f i libucrtd:output.obj
 0001:00050a60       ?state_case_normal_common@?$output_processor@_WV?$stream_output_adapter@_W@__crt_stdio_output@@V?$standard_base@_WV?$stream_output_adapter@_W@__crt_stdio_output@@@2@@__crt_stdio_output@@AAE_NXZ 10051a60 f i libucrtd:output.obj
 0001:00050ab0       ?state_case_normal_common@?$output_processor@_WV?$string_output_adapter@_W@__crt_stdio_output@@V?$format_validation_base@_WV?$string_output_adapter@_W@__crt_stdio_output@@@2@@__crt_stdio_output@@AAE_NXZ 10051ab0 f i libucrtd:output.obj
 0001:00050b00       ?state_case_normal_common@?$output_processor@_WV?$string_output_adapter@_W@__crt_stdio_output@@V?$positional_parameter_base@_WV?$string_output_adapter@_W@__crt_stdio_output@@@2@@__crt_stdio_output@@AAE_NXZ 10051b00 f i libucrtd:output.obj
 0001:00050b50       ?state_case_normal_common@?$output_processor@_WV?$string_output_adapter@_W@__crt_stdio_output@@V?$standard_base@_WV?$string_output_adapter@_W@__crt_stdio_output@@@2@@__crt_stdio_output@@AAE_NXZ 10051b50 f i libucrtd:output.obj
 0001:00050ba0       ?state_case_normal_tchar@?$output_processor@DV?$stream_output_adapter@D@__crt_stdio_output@@V?$format_validation_base@DV?$stream_output_adapter@D@__crt_stdio_output@@@2@@__crt_stdio_output@@AAE_ND@Z 10051ba0 f i libucrtd:output.obj
 0001:00050ca0       ?state_case_normal_tchar@?$output_processor@DV?$stream_output_adapter@D@__crt_stdio_output@@V?$positional_parameter_base@DV?$stream_output_adapter@D@__crt_stdio_output@@@2@@__crt_stdio_output@@AAE_ND@Z 10051ca0 f i libucrtd:output.obj
 0001:00050da0       ?state_case_normal_tchar@?$output_processor@DV?$stream_output_adapter@D@__crt_stdio_output@@V?$standard_base@DV?$stream_output_adapter@D@__crt_stdio_output@@@2@@__crt_stdio_output@@AAE_ND@Z 10051da0 f i libucrtd:output.obj
 0001:00050ea0       ?state_case_normal_tchar@?$output_processor@DV?$string_output_adapter@D@__crt_stdio_output@@V?$format_validation_base@DV?$string_output_adapter@D@__crt_stdio_output@@@2@@__crt_stdio_output@@AAE_ND@Z 10051ea0 f i libucrtd:output.obj
 0001:00050fa0       ?state_case_normal_tchar@?$output_processor@DV?$string_output_adapter@D@__crt_stdio_output@@V?$positional_parameter_base@DV?$string_output_adapter@D@__crt_stdio_output@@@2@@__crt_stdio_output@@AAE_ND@Z 10051fa0 f i libucrtd:output.obj
 0001:000510a0       ?state_case_normal_tchar@?$output_processor@DV?$string_output_adapter@D@__crt_stdio_output@@V?$standard_base@DV?$string_output_adapter@D@__crt_stdio_output@@@2@@__crt_stdio_output@@AAE_ND@Z 100520a0 f i libucrtd:output.obj
 0001:000511a0       ?state_case_normal_tchar@?$output_processor@_WV?$stream_output_adapter@_W@__crt_stdio_output@@V?$format_validation_base@_WV?$stream_output_adapter@_W@__crt_stdio_output@@@2@@__crt_stdio_output@@AAE_N_W@Z 100521a0 f i libucrtd:output.obj
 0001:000511c0       ?state_case_normal_tchar@?$output_processor@_WV?$stream_output_adapter@_W@__crt_stdio_output@@V?$positional_parameter_base@_WV?$stream_output_adapter@_W@__crt_stdio_output@@@2@@__crt_stdio_output@@AAE_N_W@Z 100521c0 f i libucrtd:output.obj
 0001:000511e0       ?state_case_normal_tchar@?$output_processor@_WV?$stream_output_adapter@_W@__crt_stdio_output@@V?$standard_base@_WV?$stream_output_adapter@_W@__crt_stdio_output@@@2@@__crt_stdio_output@@AAE_N_W@Z 100521e0 f i libucrtd:output.obj
 0001:00051200       ?state_case_normal_tchar@?$output_processor@_WV?$string_output_adapter@_W@__crt_stdio_output@@V?$format_validation_base@_WV?$string_output_adapter@_W@__crt_stdio_output@@@2@@__crt_stdio_output@@AAE_N_W@Z 10052200 f i libucrtd:output.obj
 0001:00051220       ?state_case_normal_tchar@?$output_processor@_WV?$string_output_adapter@_W@__crt_stdio_output@@V?$positional_parameter_base@_WV?$string_output_adapter@_W@__crt_stdio_output@@@2@@__crt_stdio_output@@AAE_N_W@Z 10052220 f i libucrtd:output.obj
 0001:00051240       ?state_case_normal_tchar@?$output_processor@_WV?$string_output_adapter@_W@__crt_stdio_output@@V?$standard_base@_WV?$string_output_adapter@_W@__crt_stdio_output@@@2@@__crt_stdio_output@@AAE_N_W@Z 10052240 f i libucrtd:output.obj
 0001:00051260       ?state_case_percent@?$output_processor@DV?$stream_output_adapter@D@__crt_stdio_output@@V?$format_validation_base@DV?$stream_output_adapter@D@__crt_stdio_output@@@2@@__crt_stdio_output@@AAE_NXZ 10052260 f i libucrtd:output.obj
 0001:000512b0       ?state_case_percent@?$output_processor@DV?$stream_output_adapter@D@__crt_stdio_output@@V?$positional_parameter_base@DV?$stream_output_adapter@D@__crt_stdio_output@@@2@@__crt_stdio_output@@AAE_NXZ 100522b0 f i libucrtd:output.obj
 0001:00051300       ?state_case_percent@?$output_processor@DV?$stream_output_adapter@D@__crt_stdio_output@@V?$standard_base@DV?$stream_output_adapter@D@__crt_stdio_output@@@2@@__crt_stdio_output@@AAE_NXZ 10052300 f i libucrtd:output.obj
 0001:00051350       ?state_case_percent@?$output_processor@DV?$string_output_adapter@D@__crt_stdio_output@@V?$format_validation_base@DV?$string_output_adapter@D@__crt_stdio_output@@@2@@__crt_stdio_output@@AAE_NXZ 10052350 f i libucrtd:output.obj
 0001:000513a0       ?state_case_percent@?$output_processor@DV?$string_output_adapter@D@__crt_stdio_output@@V?$positional_parameter_base@DV?$string_output_adapter@D@__crt_stdio_output@@@2@@__crt_stdio_output@@AAE_NXZ 100523a0 f i libucrtd:output.obj
 0001:000513f0       ?state_case_percent@?$output_processor@DV?$string_output_adapter@D@__crt_stdio_output@@V?$standard_base@DV?$string_output_adapter@D@__crt_stdio_output@@@2@@__crt_stdio_output@@AAE_NXZ 100523f0 f i libucrtd:output.obj
 0001:00051440       ?state_case_percent@?$output_processor@_WV?$stream_output_adapter@_W@__crt_stdio_output@@V?$format_validation_base@_WV?$stream_output_adapter@_W@__crt_stdio_output@@@2@@__crt_stdio_output@@AAE_NXZ 10052440 f i libucrtd:output.obj
 0001:00051490       ?state_case_percent@?$output_processor@_WV?$stream_output_adapter@_W@__crt_stdio_output@@V?$positional_parameter_base@_WV?$stream_output_adapter@_W@__crt_stdio_output@@@2@@__crt_stdio_output@@AAE_NXZ 10052490 f i libucrtd:output.obj
 0001:000514e0       ?state_case_percent@?$output_processor@_WV?$stream_output_adapter@_W@__crt_stdio_output@@V?$standard_base@_WV?$stream_output_adapter@_W@__crt_stdio_output@@@2@@__crt_stdio_output@@AAE_NXZ 100524e0 f i libucrtd:output.obj
 0001:00051530       ?state_case_percent@?$output_processor@_WV?$string_output_adapter@_W@__crt_stdio_output@@V?$format_validation_base@_WV?$string_output_adapter@_W@__crt_stdio_output@@@2@@__crt_stdio_output@@AAE_NXZ 10052530 f i libucrtd:output.obj
 0001:00051580       ?state_case_percent@?$output_processor@_WV?$string_output_adapter@_W@__crt_stdio_output@@V?$positional_parameter_base@_WV?$string_output_adapter@_W@__crt_stdio_output@@@2@@__crt_stdio_output@@AAE_NXZ 10052580 f i libucrtd:output.obj
 0001:000515d0       ?state_case_percent@?$output_processor@_WV?$string_output_adapter@_W@__crt_stdio_output@@V?$standard_base@_WV?$string_output_adapter@_W@__crt_stdio_output@@@2@@__crt_stdio_output@@AAE_NXZ 100525d0 f i libucrtd:output.obj
 0001:00051620       ?state_case_precision@?$output_processor@DV?$stream_output_adapter@D@__crt_stdio_output@@V?$format_validation_base@DV?$stream_output_adapter@D@__crt_stdio_output@@@2@@__crt_stdio_output@@AAE_NXZ 10052620 f i libucrtd:output.obj
 0001:00051690       ?state_case_precision@?$output_processor@DV?$stream_output_adapter@D@__crt_stdio_output@@V?$positional_parameter_base@DV?$stream_output_adapter@D@__crt_stdio_output@@@2@@__crt_stdio_output@@AAE_NXZ 10052690 f i libucrtd:output.obj
 0001:00051700       ?state_case_precision@?$output_processor@DV?$stream_output_adapter@D@__crt_stdio_output@@V?$standard_base@DV?$stream_output_adapter@D@__crt_stdio_output@@@2@@__crt_stdio_output@@AAE_NXZ 10052700 f i libucrtd:output.obj
 0001:00051770       ?state_case_precision@?$output_processor@DV?$string_output_adapter@D@__crt_stdio_output@@V?$format_validation_base@DV?$string_output_adapter@D@__crt_stdio_output@@@2@@__crt_stdio_output@@AAE_NXZ 10052770 f i libucrtd:output.obj
 0001:000517e0       ?state_case_precision@?$output_processor@DV?$string_output_adapter@D@__crt_stdio_output@@V?$positional_parameter_base@DV?$string_output_adapter@D@__crt_stdio_output@@@2@@__crt_stdio_output@@AAE_NXZ 100527e0 f i libucrtd:output.obj
 0001:00051850       ?state_case_precision@?$output_processor@DV?$string_output_adapter@D@__crt_stdio_output@@V?$standard_base@DV?$string_output_adapter@D@__crt_stdio_output@@@2@@__crt_stdio_output@@AAE_NXZ 10052850 f i libucrtd:output.obj
 0001:000518c0       ?state_case_precision@?$output_processor@_WV?$stream_output_adapter@_W@__crt_stdio_output@@V?$format_validation_base@_WV?$stream_output_adapter@_W@__crt_stdio_output@@@2@@__crt_stdio_output@@AAE_NXZ 100528c0 f i libucrtd:output.obj
 0001:00051930       ?state_case_precision@?$output_processor@_WV?$stream_output_adapter@_W@__crt_stdio_output@@V?$positional_parameter_base@_WV?$stream_output_adapter@_W@__crt_stdio_output@@@2@@__crt_stdio_output@@AAE_NXZ 10052930 f i libucrtd:output.obj
 0001:000519a0       ?state_case_precision@?$output_processor@_WV?$stream_output_adapter@_W@__crt_stdio_output@@V?$standard_base@_WV?$stream_output_adapter@_W@__crt_stdio_output@@@2@@__crt_stdio_output@@AAE_NXZ 100529a0 f i libucrtd:output.obj
 0001:00051a10       ?state_case_precision@?$output_processor@_WV?$string_output_adapter@_W@__crt_stdio_output@@V?$format_validation_base@_WV?$string_output_adapter@_W@__crt_stdio_output@@@2@@__crt_stdio_output@@AAE_NXZ 10052a10 f i libucrtd:output.obj
 0001:00051a80       ?state_case_precision@?$output_processor@_WV?$string_output_adapter@_W@__crt_stdio_output@@V?$positional_parameter_base@_WV?$string_output_adapter@_W@__crt_stdio_output@@@2@@__crt_stdio_output@@AAE_NXZ 10052a80 f i libucrtd:output.obj
 0001:00051af0       ?state_case_precision@?$output_processor@_WV?$string_output_adapter@_W@__crt_stdio_output@@V?$standard_base@_WV?$string_output_adapter@_W@__crt_stdio_output@@@2@@__crt_stdio_output@@AAE_NXZ 10052af0 f i libucrtd:output.obj
 0001:00051b60       ?state_case_size@?$output_processor@DV?$stream_output_adapter@D@__crt_stdio_output@@V?$format_validation_base@DV?$stream_output_adapter@D@__crt_stdio_output@@@2@@__crt_stdio_output@@AAE_NXZ 10052b60 f i libucrtd:output.obj
 0001:00051f30       ?state_case_size@?$output_processor@DV?$stream_output_adapter@D@__crt_stdio_output@@V?$positional_parameter_base@DV?$stream_output_adapter@D@__crt_stdio_output@@@2@@__crt_stdio_output@@AAE_NXZ 10052f30 f i libucrtd:output.obj
 0001:00052300       ?state_case_size@?$output_processor@DV?$stream_output_adapter@D@__crt_stdio_output@@V?$standard_base@DV?$stream_output_adapter@D@__crt_stdio_output@@@2@@__crt_stdio_output@@AAE_NXZ 10053300 f i libucrtd:output.obj
 0001:000526d0       ?state_case_size@?$output_processor@DV?$string_output_adapter@D@__crt_stdio_output@@V?$format_validation_base@DV?$string_output_adapter@D@__crt_stdio_output@@@2@@__crt_stdio_output@@AAE_NXZ 100536d0 f i libucrtd:output.obj
 0001:00052aa0       ?state_case_size@?$output_processor@DV?$string_output_adapter@D@__crt_stdio_output@@V?$positional_parameter_base@DV?$string_output_adapter@D@__crt_stdio_output@@@2@@__crt_stdio_output@@AAE_NXZ 10053aa0 f i libucrtd:output.obj
 0001:00052e70       ?state_case_size@?$output_processor@DV?$string_output_adapter@D@__crt_stdio_output@@V?$standard_base@DV?$string_output_adapter@D@__crt_stdio_output@@@2@@__crt_stdio_output@@AAE_NXZ 10053e70 f i libucrtd:output.obj
 0001:00053240       ?state_case_size@?$output_processor@_WV?$stream_output_adapter@_W@__crt_stdio_output@@V?$format_validation_base@_WV?$stream_output_adapter@_W@__crt_stdio_output@@@2@@__crt_stdio_output@@AAE_NXZ 10054240 f i libucrtd:output.obj
 0001:00053610       ?state_case_size@?$output_processor@_WV?$stream_output_adapter@_W@__crt_stdio_output@@V?$positional_parameter_base@_WV?$stream_output_adapter@_W@__crt_stdio_output@@@2@@__crt_stdio_output@@AAE_NXZ 10054610 f i libucrtd:output.obj
 0001:000539e0       ?state_case_size@?$output_processor@_WV?$stream_output_adapter@_W@__crt_stdio_output@@V?$standard_base@_WV?$stream_output_adapter@_W@__crt_stdio_output@@@2@@__crt_stdio_output@@AAE_NXZ 100549e0 f i libucrtd:output.obj
 0001:00053db0       ?state_case_size@?$output_processor@_WV?$string_output_adapter@_W@__crt_stdio_output@@V?$format_validation_base@_WV?$string_output_adapter@_W@__crt_stdio_output@@@2@@__crt_stdio_output@@AAE_NXZ 10054db0 f i libucrtd:output.obj
 0001:00054180       ?state_case_size@?$output_processor@_WV?$string_output_adapter@_W@__crt_stdio_output@@V?$positional_parameter_base@_WV?$string_output_adapter@_W@__crt_stdio_output@@@2@@__crt_stdio_output@@AAE_NXZ 10055180 f i libucrtd:output.obj
 0001:00054550       ?state_case_size@?$output_processor@_WV?$string_output_adapter@_W@__crt_stdio_output@@V?$standard_base@_WV?$string_output_adapter@_W@__crt_stdio_output@@@2@@__crt_stdio_output@@AAE_NXZ 10055550 f i libucrtd:output.obj
 0001:00054920       ?state_case_type@?$output_processor@DV?$stream_output_adapter@D@__crt_stdio_output@@V?$format_validation_base@DV?$stream_output_adapter@D@__crt_stdio_output@@@2@@__crt_stdio_output@@AAE_NXZ 10055920 f i libucrtd:output.obj
 0001:00054cd0       ?state_case_type@?$output_processor@DV?$stream_output_adapter@D@__crt_stdio_output@@V?$positional_parameter_base@DV?$stream_output_adapter@D@__crt_stdio_output@@@2@@__crt_stdio_output@@AAE_NXZ 10055cd0 f i libucrtd:output.obj
 0001:00055080       ?state_case_type@?$output_processor@DV?$stream_output_adapter@D@__crt_stdio_output@@V?$standard_base@DV?$stream_output_adapter@D@__crt_stdio_output@@@2@@__crt_stdio_output@@AAE_NXZ 10056080 f i libucrtd:output.obj
 0001:00055430       ?state_case_type@?$output_processor@DV?$string_output_adapter@D@__crt_stdio_output@@V?$format_validation_base@DV?$string_output_adapter@D@__crt_stdio_output@@@2@@__crt_stdio_output@@AAE_NXZ 10056430 f i libucrtd:output.obj
 0001:000557e0       ?state_case_type@?$output_processor@DV?$string_output_adapter@D@__crt_stdio_output@@V?$positional_parameter_base@DV?$string_output_adapter@D@__crt_stdio_output@@@2@@__crt_stdio_output@@AAE_NXZ 100567e0 f i libucrtd:output.obj
 0001:00055b90       ?state_case_type@?$output_processor@DV?$string_output_adapter@D@__crt_stdio_output@@V?$standard_base@DV?$string_output_adapter@D@__crt_stdio_output@@@2@@__crt_stdio_output@@AAE_NXZ 10056b90 f i libucrtd:output.obj
 0001:00055f40       ?state_case_type@?$output_processor@_WV?$stream_output_adapter@_W@__crt_stdio_output@@V?$format_validation_base@_WV?$stream_output_adapter@_W@__crt_stdio_output@@@2@@__crt_stdio_output@@AAE_NXZ 10056f40 f i libucrtd:output.obj
 0001:00056320       ?state_case_type@?$output_processor@_WV?$stream_output_adapter@_W@__crt_stdio_output@@V?$positional_parameter_base@_WV?$stream_output_adapter@_W@__crt_stdio_output@@@2@@__crt_stdio_output@@AAE_NXZ 10057320 f i libucrtd:output.obj
 0001:00056700       ?state_case_type@?$output_processor@_WV?$stream_output_adapter@_W@__crt_stdio_output@@V?$standard_base@_WV?$stream_output_adapter@_W@__crt_stdio_output@@@2@@__crt_stdio_output@@AAE_NXZ 10057700 f i libucrtd:output.obj
 0001:00056ae0       ?state_case_type@?$output_processor@_WV?$string_output_adapter@_W@__crt_stdio_output@@V?$format_validation_base@_WV?$string_output_adapter@_W@__crt_stdio_output@@@2@@__crt_stdio_output@@AAE_NXZ 10057ae0 f i libucrtd:output.obj
 0001:00056ec0       ?state_case_type@?$output_processor@_WV?$string_output_adapter@_W@__crt_stdio_output@@V?$positional_parameter_base@_WV?$string_output_adapter@_W@__crt_stdio_output@@@2@@__crt_stdio_output@@AAE_NXZ 10057ec0 f i libucrtd:output.obj
 0001:000572a0       ?state_case_type@?$output_processor@_WV?$string_output_adapter@_W@__crt_stdio_output@@V?$standard_base@_WV?$string_output_adapter@_W@__crt_stdio_output@@@2@@__crt_stdio_output@@AAE_NXZ 100582a0 f i libucrtd:output.obj
 0001:00057680       ?state_case_width@?$output_processor@DV?$stream_output_adapter@D@__crt_stdio_output@@V?$format_validation_base@DV?$stream_output_adapter@D@__crt_stdio_output@@@2@@__crt_stdio_output@@AAE_NXZ 10058680 f i libucrtd:output.obj
 0001:00057700       ?state_case_width@?$output_processor@DV?$stream_output_adapter@D@__crt_stdio_output@@V?$positional_parameter_base@DV?$stream_output_adapter@D@__crt_stdio_output@@@2@@__crt_stdio_output@@AAE_NXZ 10058700 f i libucrtd:output.obj
 0001:00057780       ?state_case_width@?$output_processor@DV?$stream_output_adapter@D@__crt_stdio_output@@V?$standard_base@DV?$stream_output_adapter@D@__crt_stdio_output@@@2@@__crt_stdio_output@@AAE_NXZ 10058780 f i libucrtd:output.obj
 0001:00057800       ?state_case_width@?$output_processor@DV?$string_output_adapter@D@__crt_stdio_output@@V?$format_validation_base@DV?$string_output_adapter@D@__crt_stdio_output@@@2@@__crt_stdio_output@@AAE_NXZ 10058800 f i libucrtd:output.obj
 0001:00057880       ?state_case_width@?$output_processor@DV?$string_output_adapter@D@__crt_stdio_output@@V?$positional_parameter_base@DV?$string_output_adapter@D@__crt_stdio_output@@@2@@__crt_stdio_output@@AAE_NXZ 10058880 f i libucrtd:output.obj
 0001:00057900       ?state_case_width@?$output_processor@DV?$string_output_adapter@D@__crt_stdio_output@@V?$standard_base@DV?$string_output_adapter@D@__crt_stdio_output@@@2@@__crt_stdio_output@@AAE_NXZ 10058900 f i libucrtd:output.obj
 0001:00057980       ?state_case_width@?$output_processor@_WV?$stream_output_adapter@_W@__crt_stdio_output@@V?$format_validation_base@_WV?$stream_output_adapter@_W@__crt_stdio_output@@@2@@__crt_stdio_output@@AAE_NXZ 10058980 f i libucrtd:output.obj
 0001:00057a00       ?state_case_width@?$output_processor@_WV?$stream_output_adapter@_W@__crt_stdio_output@@V?$positional_parameter_base@_WV?$stream_output_adapter@_W@__crt_stdio_output@@@2@@__crt_stdio_output@@AAE_NXZ 10058a00 f i libucrtd:output.obj
 0001:00057a80       ?state_case_width@?$output_processor@_WV?$stream_output_adapter@_W@__crt_stdio_output@@V?$standard_base@_WV?$stream_output_adapter@_W@__crt_stdio_output@@@2@@__crt_stdio_output@@AAE_NXZ 10058a80 f i libucrtd:output.obj
 0001:00057b00       ?state_case_width@?$output_processor@_WV?$string_output_adapter@_W@__crt_stdio_output@@V?$format_validation_base@_WV?$string_output_adapter@_W@__crt_stdio_output@@@2@@__crt_stdio_output@@AAE_NXZ 10058b00 f i libucrtd:output.obj
 0001:00057b80       ?state_case_width@?$output_processor@_WV?$string_output_adapter@_W@__crt_stdio_output@@V?$positional_parameter_base@_WV?$string_output_adapter@_W@__crt_stdio_output@@@2@@__crt_stdio_output@@AAE_NXZ 10058b80 f i libucrtd:output.obj
 0001:00057c00       ?state_case_width@?$output_processor@_WV?$string_output_adapter@_W@__crt_stdio_output@@V?$standard_base@_WV?$string_output_adapter@_W@__crt_stdio_output@@@2@@__crt_stdio_output@@AAE_NXZ 10058c00 f i libucrtd:output.obj
 0001:00057c80       ?state_count@?$format_validation_base@DV?$stream_output_adapter@D@__crt_stdio_output@@@__crt_stdio_output@@KAIXZ 10058c80 f i libucrtd:output.obj
 0001:00057c90       ?state_count@?$format_validation_base@DV?$string_output_adapter@D@__crt_stdio_output@@@__crt_stdio_output@@KAIXZ 10058c90 f i libucrtd:output.obj
 0001:00057ca0       ?state_count@?$format_validation_base@_WV?$stream_output_adapter@_W@__crt_stdio_output@@@__crt_stdio_output@@KAIXZ 10058ca0 f i libucrtd:output.obj
 0001:00057cb0       ?state_count@?$format_validation_base@_WV?$string_output_adapter@_W@__crt_stdio_output@@@__crt_stdio_output@@KAIXZ 10058cb0 f i libucrtd:output.obj
 0001:00057cc0       ?state_count@?$standard_base@DV?$stream_output_adapter@D@__crt_stdio_output@@@__crt_stdio_output@@KAIXZ 10058cc0 f i libucrtd:output.obj
 0001:00057cd0       ?state_count@?$standard_base@DV?$string_output_adapter@D@__crt_stdio_output@@@__crt_stdio_output@@KAIXZ 10058cd0 f i libucrtd:output.obj
 0001:00057ce0       ?state_count@?$standard_base@_WV?$stream_output_adapter@_W@__crt_stdio_output@@@__crt_stdio_output@@KAIXZ 10058ce0 f i libucrtd:output.obj
 0001:00057cf0       ?state_count@?$standard_base@_WV?$string_output_adapter@_W@__crt_stdio_output@@@__crt_stdio_output@@KAIXZ 10058cf0 f i libucrtd:output.obj
 0001:00057d00       ?state_transition_table@?$format_validation_base@DV?$stream_output_adapter@D@__crt_stdio_output@@@__crt_stdio_output@@KAABV?$spectre_mitigated_lookup_table@Ustate_transition_pair@__crt_stdio_output@@$0IA@@2@XZ 10058d00 f i libucrtd:output.obj
 0001:00057d10       ?state_transition_table@?$format_validation_base@DV?$string_output_adapter@D@__crt_stdio_output@@@__crt_stdio_output@@KAABV?$spectre_mitigated_lookup_table@Ustate_transition_pair@__crt_stdio_output@@$0IA@@2@XZ 10058d10 f i libucrtd:output.obj
 0001:00057d20       ?state_transition_table@?$format_validation_base@_WV?$stream_output_adapter@_W@__crt_stdio_output@@@__crt_stdio_output@@KAABV?$spectre_mitigated_lookup_table@Ustate_transition_pair@__crt_stdio_output@@$0IA@@2@XZ 10058d20 f i libucrtd:output.obj
 0001:00057d30       ?state_transition_table@?$format_validation_base@_WV?$string_output_adapter@_W@__crt_stdio_output@@@__crt_stdio_output@@KAABV?$spectre_mitigated_lookup_table@Ustate_transition_pair@__crt_stdio_output@@$0IA@@2@XZ 10058d30 f i libucrtd:output.obj
 0001:00057d40       ?state_transition_table@?$standard_base@DV?$stream_output_adapter@D@__crt_stdio_output@@@__crt_stdio_output@@KAABV?$spectre_mitigated_lookup_table@Ustate_transition_pair@__crt_stdio_output@@$0IA@@2@XZ 10058d40 f i libucrtd:output.obj
 0001:00057d50       ?state_transition_table@?$standard_base@DV?$string_output_adapter@D@__crt_stdio_output@@@__crt_stdio_output@@KAABV?$spectre_mitigated_lookup_table@Ustate_transition_pair@__crt_stdio_output@@$0IA@@2@XZ 10058d50 f i libucrtd:output.obj
 0001:00057d60       ?state_transition_table@?$standard_base@_WV?$stream_output_adapter@_W@__crt_stdio_output@@@__crt_stdio_output@@KAABV?$spectre_mitigated_lookup_table@Ustate_transition_pair@__crt_stdio_output@@$0IA@@2@XZ 10058d60 f i libucrtd:output.obj
 0001:00057d70       ?state_transition_table@?$standard_base@_WV?$string_output_adapter@_W@__crt_stdio_output@@@__crt_stdio_output@@KAABV?$spectre_mitigated_lookup_table@Ustate_transition_pair@__crt_stdio_output@@$0IA@@2@XZ 10058d70 f i libucrtd:output.obj
 0001:00057d80       ?tchar_string@?$common_data@D@__crt_stdio_output@@IAEAAPADD@Z 10058d80 f i libucrtd:output.obj
 0001:00057da0       ?tchar_string@?$common_data@D@__crt_stdio_output@@IAEAAPADXZ 10058da0 f i libucrtd:output.obj
 0001:00057dc0       ?tchar_string@?$common_data@_W@__crt_stdio_output@@IAEAAPA_WXZ 10058dc0 f i libucrtd:output.obj
 0001:00057de0       ?tchar_string@?$common_data@_W@__crt_stdio_output@@IAEAAPA_W_W@Z 10058de0 f i libucrtd:output.obj
 0001:00057e00       ?to_integer_size@__crt_stdio_output@@YAIW4length_modifier@1@@Z 10058e00 f i libucrtd:output.obj
 0001:00057ea0       ?type_case_X@?$output_processor@DV?$stream_output_adapter@D@__crt_stdio_output@@V?$format_validation_base@DV?$stream_output_adapter@D@__crt_stdio_output@@@2@@__crt_stdio_output@@AAE_NXZ 10058ea0 f i libucrtd:output.obj
 0001:00057ec0       ?type_case_X@?$output_processor@DV?$stream_output_adapter@D@__crt_stdio_output@@V?$positional_parameter_base@DV?$stream_output_adapter@D@__crt_stdio_output@@@2@@__crt_stdio_output@@AAE_NXZ 10058ec0 f i libucrtd:output.obj
 0001:00057ee0       ?type_case_X@?$output_processor@DV?$stream_output_adapter@D@__crt_stdio_output@@V?$standard_base@DV?$stream_output_adapter@D@__crt_stdio_output@@@2@@__crt_stdio_output@@AAE_NXZ 10058ee0 f i libucrtd:output.obj
 0001:00057f00       ?type_case_X@?$output_processor@DV?$string_output_adapter@D@__crt_stdio_output@@V?$format_validation_base@DV?$string_output_adapter@D@__crt_stdio_output@@@2@@__crt_stdio_output@@AAE_NXZ 10058f00 f i libucrtd:output.obj
 0001:00057f20       ?type_case_X@?$output_processor@DV?$string_output_adapter@D@__crt_stdio_output@@V?$positional_parameter_base@DV?$string_output_adapter@D@__crt_stdio_output@@@2@@__crt_stdio_output@@AAE_NXZ 10058f20 f i libucrtd:output.obj
 0001:00057f40       ?type_case_X@?$output_processor@DV?$string_output_adapter@D@__crt_stdio_output@@V?$standard_base@DV?$string_output_adapter@D@__crt_stdio_output@@@2@@__crt_stdio_output@@AAE_NXZ 10058f40 f i libucrtd:output.obj
 0001:00057f60       ?type_case_X@?$output_processor@_WV?$stream_output_adapter@_W@__crt_stdio_output@@V?$format_validation_base@_WV?$stream_output_adapter@_W@__crt_stdio_output@@@2@@__crt_stdio_output@@AAE_NXZ 10058f60 f i libucrtd:output.obj
 0001:00057f80       ?type_case_X@?$output_processor@_WV?$stream_output_adapter@_W@__crt_stdio_output@@V?$positional_parameter_base@_WV?$stream_output_adapter@_W@__crt_stdio_output@@@2@@__crt_stdio_output@@AAE_NXZ 10058f80 f i libucrtd:output.obj
 0001:00057fa0       ?type_case_X@?$output_processor@_WV?$stream_output_adapter@_W@__crt_stdio_output@@V?$standard_base@_WV?$stream_output_adapter@_W@__crt_stdio_output@@@2@@__crt_stdio_output@@AAE_NXZ 10058fa0 f i libucrtd:output.obj
 0001:00057fc0       ?type_case_X@?$output_processor@_WV?$string_output_adapter@_W@__crt_stdio_output@@V?$format_validation_base@_WV?$string_output_adapter@_W@__crt_stdio_output@@@2@@__crt_stdio_output@@AAE_NXZ 10058fc0 f i libucrtd:output.obj
 0001:00057fe0       ?type_case_X@?$output_processor@_WV?$string_output_adapter@_W@__crt_stdio_output@@V?$positional_parameter_base@_WV?$string_output_adapter@_W@__crt_stdio_output@@@2@@__crt_stdio_output@@AAE_NXZ 10058fe0 f i libucrtd:output.obj
 0001:00058000       ?type_case_X@?$output_processor@_WV?$string_output_adapter@_W@__crt_stdio_output@@V?$standard_base@_WV?$string_output_adapter@_W@__crt_stdio_output@@@2@@__crt_stdio_output@@AAE_NXZ 10059000 f i libucrtd:output.obj
 0001:00058020       ?type_case_Z@?$output_processor@DV?$stream_output_adapter@D@__crt_stdio_output@@V?$format_validation_base@DV?$stream_output_adapter@D@__crt_stdio_output@@@2@@__crt_stdio_output@@AAE_NXZ 10059020 f i libucrtd:output.obj
 0001:00058110       ?type_case_Z@?$output_processor@DV?$stream_output_adapter@D@__crt_stdio_output@@V?$positional_parameter_base@DV?$stream_output_adapter@D@__crt_stdio_output@@@2@@__crt_stdio_output@@AAE_NXZ 10059110 f i libucrtd:output.obj
 0001:00058200       ?type_case_Z@?$output_processor@DV?$stream_output_adapter@D@__crt_stdio_output@@V?$standard_base@DV?$stream_output_adapter@D@__crt_stdio_output@@@2@@__crt_stdio_output@@AAE_NXZ 10059200 f i libucrtd:output.obj
 0001:000582f0       ?type_case_Z@?$output_processor@DV?$string_output_adapter@D@__crt_stdio_output@@V?$format_validation_base@DV?$string_output_adapter@D@__crt_stdio_output@@@2@@__crt_stdio_output@@AAE_NXZ 100592f0 f i libucrtd:output.obj
 0001:000583e0       ?type_case_Z@?$output_processor@DV?$string_output_adapter@D@__crt_stdio_output@@V?$positional_parameter_base@DV?$string_output_adapter@D@__crt_stdio_output@@@2@@__crt_stdio_output@@AAE_NXZ 100593e0 f i libucrtd:output.obj
 0001:000584d0       ?type_case_Z@?$output_processor@DV?$string_output_adapter@D@__crt_stdio_output@@V?$standard_base@DV?$string_output_adapter@D@__crt_stdio_output@@@2@@__crt_stdio_output@@AAE_NXZ 100594d0 f i libucrtd:output.obj
 0001:000585c0       ?type_case_Z@?$output_processor@_WV?$stream_output_adapter@_W@__crt_stdio_output@@V?$format_validation_base@_WV?$stream_output_adapter@_W@__crt_stdio_output@@@2@@__crt_stdio_output@@AAE_NXZ 100595c0 f i libucrtd:output.obj
 0001:000586b0       ?type_case_Z@?$output_processor@_WV?$stream_output_adapter@_W@__crt_stdio_output@@V?$positional_parameter_base@_WV?$stream_output_adapter@_W@__crt_stdio_output@@@2@@__crt_stdio_output@@AAE_NXZ 100596b0 f i libucrtd:output.obj
 0001:000587a0       ?type_case_Z@?$output_processor@_WV?$stream_output_adapter@_W@__crt_stdio_output@@V?$standard_base@_WV?$stream_output_adapter@_W@__crt_stdio_output@@@2@@__crt_stdio_output@@AAE_NXZ 100597a0 f i libucrtd:output.obj
 0001:00058890       ?type_case_Z@?$output_processor@_WV?$string_output_adapter@_W@__crt_stdio_output@@V?$format_validation_base@_WV?$string_output_adapter@_W@__crt_stdio_output@@@2@@__crt_stdio_output@@AAE_NXZ 10059890 f i libucrtd:output.obj
 0001:00058980       ?type_case_Z@?$output_processor@_WV?$string_output_adapter@_W@__crt_stdio_output@@V?$positional_parameter_base@_WV?$string_output_adapter@_W@__crt_stdio_output@@@2@@__crt_stdio_output@@AAE_NXZ 10059980 f i libucrtd:output.obj
 0001:00058a70       ?type_case_Z@?$output_processor@_WV?$string_output_adapter@_W@__crt_stdio_output@@V?$standard_base@_WV?$string_output_adapter@_W@__crt_stdio_output@@@2@@__crt_stdio_output@@AAE_NXZ 10059a70 f i libucrtd:output.obj
 0001:00058b60       ?type_case_a@?$output_processor@DV?$stream_output_adapter@D@__crt_stdio_output@@V?$format_validation_base@DV?$stream_output_adapter@D@__crt_stdio_output@@@2@@__crt_stdio_output@@AAE_NXZ 10059b60 f i libucrtd:output.obj
 0001:00058dd0       ?type_case_a@?$output_processor@DV?$stream_output_adapter@D@__crt_stdio_output@@V?$positional_parameter_base@DV?$stream_output_adapter@D@__crt_stdio_output@@@2@@__crt_stdio_output@@AAE_NXZ 10059dd0 f i libucrtd:output.obj
 0001:00059040       ?type_case_a@?$output_processor@DV?$stream_output_adapter@D@__crt_stdio_output@@V?$standard_base@DV?$stream_output_adapter@D@__crt_stdio_output@@@2@@__crt_stdio_output@@AAE_NXZ 1005a040 f i libucrtd:output.obj
 0001:000592b0       ?type_case_a@?$output_processor@DV?$string_output_adapter@D@__crt_stdio_output@@V?$format_validation_base@DV?$string_output_adapter@D@__crt_stdio_output@@@2@@__crt_stdio_output@@AAE_NXZ 1005a2b0 f i libucrtd:output.obj
 0001:00059520       ?type_case_a@?$output_processor@DV?$string_output_adapter@D@__crt_stdio_output@@V?$positional_parameter_base@DV?$string_output_adapter@D@__crt_stdio_output@@@2@@__crt_stdio_output@@AAE_NXZ 1005a520 f i libucrtd:output.obj
 0001:00059790       ?type_case_a@?$output_processor@DV?$string_output_adapter@D@__crt_stdio_output@@V?$standard_base@DV?$string_output_adapter@D@__crt_stdio_output@@@2@@__crt_stdio_output@@AAE_NXZ 1005a790 f i libucrtd:output.obj
 0001:00059a00       ?type_case_a@?$output_processor@_WV?$stream_output_adapter@_W@__crt_stdio_output@@V?$format_validation_base@_WV?$stream_output_adapter@_W@__crt_stdio_output@@@2@@__crt_stdio_output@@AAE_NXZ 1005aa00 f i libucrtd:output.obj
 0001:00059c70       ?type_case_a@?$output_processor@_WV?$stream_output_adapter@_W@__crt_stdio_output@@V?$positional_parameter_base@_WV?$stream_output_adapter@_W@__crt_stdio_output@@@2@@__crt_stdio_output@@AAE_NXZ 1005ac70 f i libucrtd:output.obj
 0001:00059ee0       ?type_case_a@?$output_processor@_WV?$stream_output_adapter@_W@__crt_stdio_output@@V?$standard_base@_WV?$stream_output_adapter@_W@__crt_stdio_output@@@2@@__crt_stdio_output@@AAE_NXZ 1005aee0 f i libucrtd:output.obj
 0001:0005a150       ?type_case_a@?$output_processor@_WV?$string_output_adapter@_W@__crt_stdio_output@@V?$format_validation_base@_WV?$string_output_adapter@_W@__crt_stdio_output@@@2@@__crt_stdio_output@@AAE_NXZ 1005b150 f i libucrtd:output.obj
 0001:0005a3c0       ?type_case_a@?$output_processor@_WV?$string_output_adapter@_W@__crt_stdio_output@@V?$positional_parameter_base@_WV?$string_output_adapter@_W@__crt_stdio_output@@@2@@__crt_stdio_output@@AAE_NXZ 1005b3c0 f i libucrtd:output.obj
 0001:0005a630       ?type_case_a@?$output_processor@_WV?$string_output_adapter@_W@__crt_stdio_output@@V?$standard_base@_WV?$string_output_adapter@_W@__crt_stdio_output@@@2@@__crt_stdio_output@@AAE_NXZ 1005b630 f i libucrtd:output.obj
 0001:0005a8a0       ?type_case_c@?$output_processor@DV?$stream_output_adapter@D@__crt_stdio_output@@V?$format_validation_base@DV?$stream_output_adapter@D@__crt_stdio_output@@@2@@__crt_stdio_output@@AAE_NXZ 1005b8a0 f i libucrtd:output.obj
 0001:0005a8c0       ?type_case_c@?$output_processor@DV?$stream_output_adapter@D@__crt_stdio_output@@V?$positional_parameter_base@DV?$stream_output_adapter@D@__crt_stdio_output@@@2@@__crt_stdio_output@@AAE_NXZ 1005b8c0 f i libucrtd:output.obj
 0001:0005a8e0       ?type_case_c@?$output_processor@DV?$stream_output_adapter@D@__crt_stdio_output@@V?$standard_base@DV?$stream_output_adapter@D@__crt_stdio_output@@@2@@__crt_stdio_output@@AAE_NXZ 1005b8e0 f i libucrtd:output.obj
 0001:0005a900       ?type_case_c@?$output_processor@DV?$string_output_adapter@D@__crt_stdio_output@@V?$format_validation_base@DV?$string_output_adapter@D@__crt_stdio_output@@@2@@__crt_stdio_output@@AAE_NXZ 1005b900 f i libucrtd:output.obj
 0001:0005a920       ?type_case_c@?$output_processor@DV?$string_output_adapter@D@__crt_stdio_output@@V?$positional_parameter_base@DV?$string_output_adapter@D@__crt_stdio_output@@@2@@__crt_stdio_output@@AAE_NXZ 1005b920 f i libucrtd:output.obj
 0001:0005a940       ?type_case_c@?$output_processor@DV?$string_output_adapter@D@__crt_stdio_output@@V?$standard_base@DV?$string_output_adapter@D@__crt_stdio_output@@@2@@__crt_stdio_output@@AAE_NXZ 1005b940 f i libucrtd:output.obj
 0001:0005a960       ?type_case_c@?$output_processor@_WV?$stream_output_adapter@_W@__crt_stdio_output@@V?$format_validation_base@_WV?$stream_output_adapter@_W@__crt_stdio_output@@@2@@__crt_stdio_output@@AAE_NXZ 1005b960 f i libucrtd:output.obj
 0001:0005a980       ?type_case_c@?$output_processor@_WV?$stream_output_adapter@_W@__crt_stdio_output@@V?$positional_parameter_base@_WV?$stream_output_adapter@_W@__crt_stdio_output@@@2@@__crt_stdio_output@@AAE_NXZ 1005b980 f i libucrtd:output.obj
 0001:0005a9a0       ?type_case_c@?$output_processor@_WV?$stream_output_adapter@_W@__crt_stdio_output@@V?$standard_base@_WV?$stream_output_adapter@_W@__crt_stdio_output@@@2@@__crt_stdio_output@@AAE_NXZ 1005b9a0 f i libucrtd:output.obj
 0001:0005a9c0       ?type_case_c@?$output_processor@_WV?$string_output_adapter@_W@__crt_stdio_output@@V?$format_validation_base@_WV?$string_output_adapter@_W@__crt_stdio_output@@@2@@__crt_stdio_output@@AAE_NXZ 1005b9c0 f i libucrtd:output.obj
 0001:0005a9e0       ?type_case_c@?$output_processor@_WV?$string_output_adapter@_W@__crt_stdio_output@@V?$positional_parameter_base@_WV?$string_output_adapter@_W@__crt_stdio_output@@@2@@__crt_stdio_output@@AAE_NXZ 1005b9e0 f i libucrtd:output.obj
 0001:0005aa00       ?type_case_c@?$output_processor@_WV?$string_output_adapter@_W@__crt_stdio_output@@V?$standard_base@_WV?$string_output_adapter@_W@__crt_stdio_output@@@2@@__crt_stdio_output@@AAE_NXZ 1005ba00 f i libucrtd:output.obj
 0001:0005aa20       ?type_case_c_tchar@?$output_processor@DV?$stream_output_adapter@D@__crt_stdio_output@@V?$format_validation_base@DV?$stream_output_adapter@D@__crt_stdio_output@@@2@@__crt_stdio_output@@AAE_ND@Z 1005ba20 f i libucrtd:output.obj
 0001:0005ab30       ?type_case_c_tchar@?$output_processor@DV?$stream_output_adapter@D@__crt_stdio_output@@V?$positional_parameter_base@DV?$stream_output_adapter@D@__crt_stdio_output@@@2@@__crt_stdio_output@@AAE_ND@Z 1005bb30 f i libucrtd:output.obj
 0001:0005ac40       ?type_case_c_tchar@?$output_processor@DV?$stream_output_adapter@D@__crt_stdio_output@@V?$standard_base@DV?$stream_output_adapter@D@__crt_stdio_output@@@2@@__crt_stdio_output@@AAE_ND@Z 1005bc40 f i libucrtd:output.obj
 0001:0005ad50       ?type_case_c_tchar@?$output_processor@DV?$string_output_adapter@D@__crt_stdio_output@@V?$format_validation_base@DV?$string_output_adapter@D@__crt_stdio_output@@@2@@__crt_stdio_output@@AAE_ND@Z 1005bd50 f i libucrtd:output.obj
 0001:0005ae60       ?type_case_c_tchar@?$output_processor@DV?$string_output_adapter@D@__crt_stdio_output@@V?$positional_parameter_base@DV?$string_output_adapter@D@__crt_stdio_output@@@2@@__crt_stdio_output@@AAE_ND@Z 1005be60 f i libucrtd:output.obj
 0001:0005af70       ?type_case_c_tchar@?$output_processor@DV?$string_output_adapter@D@__crt_stdio_output@@V?$standard_base@DV?$string_output_adapter@D@__crt_stdio_output@@@2@@__crt_stdio_output@@AAE_ND@Z 1005bf70 f i libucrtd:output.obj
 0001:0005b080       ?type_case_c_tchar@?$output_processor@_WV?$stream_output_adapter@_W@__crt_stdio_output@@V?$format_validation_base@_WV?$stream_output_adapter@_W@__crt_stdio_output@@@2@@__crt_stdio_output@@AAE_N_W@Z 1005c080 f i libucrtd:output.obj
 0001:0005b180       ?type_case_c_tchar@?$output_processor@_WV?$stream_output_adapter@_W@__crt_stdio_output@@V?$positional_parameter_base@_WV?$stream_output_adapter@_W@__crt_stdio_output@@@2@@__crt_stdio_output@@AAE_N_W@Z 1005c180 f i libucrtd:output.obj
 0001:0005b280       ?type_case_c_tchar@?$output_processor@_WV?$stream_output_adapter@_W@__crt_stdio_output@@V?$standard_base@_WV?$stream_output_adapter@_W@__crt_stdio_output@@@2@@__crt_stdio_output@@AAE_N_W@Z 1005c280 f i libucrtd:output.obj
 0001:0005b380       ?type_case_c_tchar@?$output_processor@_WV?$string_output_adapter@_W@__crt_stdio_output@@V?$format_validation_base@_WV?$string_output_adapter@_W@__crt_stdio_output@@@2@@__crt_stdio_output@@AAE_N_W@Z 1005c380 f i libucrtd:output.obj
 0001:0005b480       ?type_case_c_tchar@?$output_processor@_WV?$string_output_adapter@_W@__crt_stdio_output@@V?$positional_parameter_base@_WV?$string_output_adapter@_W@__crt_stdio_output@@@2@@__crt_stdio_output@@AAE_N_W@Z 1005c480 f i libucrtd:output.obj
 0001:0005b580       ?type_case_c_tchar@?$output_processor@_WV?$string_output_adapter@_W@__crt_stdio_output@@V?$standard_base@_WV?$string_output_adapter@_W@__crt_stdio_output@@@2@@__crt_stdio_output@@AAE_N_W@Z 1005c580 f i libucrtd:output.obj
 0001:0005b680       ?type_case_d@?$output_processor@DV?$stream_output_adapter@D@__crt_stdio_output@@V?$format_validation_base@DV?$stream_output_adapter@D@__crt_stdio_output@@@2@@__crt_stdio_output@@AAE_NXZ 1005c680 f i libucrtd:output.obj
 0001:0005b6b0       ?type_case_d@?$output_processor@DV?$stream_output_adapter@D@__crt_stdio_output@@V?$positional_parameter_base@DV?$stream_output_adapter@D@__crt_stdio_output@@@2@@__crt_stdio_output@@AAE_NXZ 1005c6b0 f i libucrtd:output.obj
 0001:0005b6e0       ?type_case_d@?$output_processor@DV?$stream_output_adapter@D@__crt_stdio_output@@V?$standard_base@DV?$stream_output_adapter@D@__crt_stdio_output@@@2@@__crt_stdio_output@@AAE_NXZ 1005c6e0 f i libucrtd:output.obj
 0001:0005b710       ?type_case_d@?$output_processor@DV?$string_output_adapter@D@__crt_stdio_output@@V?$format_validation_base@DV?$string_output_adapter@D@__crt_stdio_output@@@2@@__crt_stdio_output@@AAE_NXZ 1005c710 f i libucrtd:output.obj
 0001:0005b740       ?type_case_d@?$output_processor@DV?$string_output_adapter@D@__crt_stdio_output@@V?$positional_parameter_base@DV?$string_output_adapter@D@__crt_stdio_output@@@2@@__crt_stdio_output@@AAE_NXZ 1005c740 f i libucrtd:output.obj
 0001:0005b770       ?type_case_d@?$output_processor@DV?$string_output_adapter@D@__crt_stdio_output@@V?$standard_base@DV?$string_output_adapter@D@__crt_stdio_output@@@2@@__crt_stdio_output@@AAE_NXZ 1005c770 f i libucrtd:output.obj
 0001:0005b7a0       ?type_case_d@?$output_processor@_WV?$stream_output_adapter@_W@__crt_stdio_output@@V?$format_validation_base@_WV?$stream_output_adapter@_W@__crt_stdio_output@@@2@@__crt_stdio_output@@AAE_NXZ 1005c7a0 f i libucrtd:output.obj
 0001:0005b7d0       ?type_case_d@?$output_processor@_WV?$stream_output_adapter@_W@__crt_stdio_output@@V?$positional_parameter_base@_WV?$stream_output_adapter@_W@__crt_stdio_output@@@2@@__crt_stdio_output@@AAE_NXZ 1005c7d0 f i libucrtd:output.obj
 0001:0005b800       ?type_case_d@?$output_processor@_WV?$stream_output_adapter@_W@__crt_stdio_output@@V?$standard_base@_WV?$stream_output_adapter@_W@__crt_stdio_output@@@2@@__crt_stdio_output@@AAE_NXZ 1005c800 f i libucrtd:output.obj
 0001:0005b830       ?type_case_d@?$output_processor@_WV?$string_output_adapter@_W@__crt_stdio_output@@V?$format_validation_base@_WV?$string_output_adapter@_W@__crt_stdio_output@@@2@@__crt_stdio_output@@AAE_NXZ 1005c830 f i libucrtd:output.obj
 0001:0005b860       ?type_case_d@?$output_processor@_WV?$string_output_adapter@_W@__crt_stdio_output@@V?$positional_parameter_base@_WV?$string_output_adapter@_W@__crt_stdio_output@@@2@@__crt_stdio_output@@AAE_NXZ 1005c860 f i libucrtd:output.obj
 0001:0005b890       ?type_case_d@?$output_processor@_WV?$string_output_adapter@_W@__crt_stdio_output@@V?$standard_base@_WV?$string_output_adapter@_W@__crt_stdio_output@@@2@@__crt_stdio_output@@AAE_NXZ 1005c890 f i libucrtd:output.obj
 0001:0005b8c0       ?type_case_integer@?$output_processor@DV?$stream_output_adapter@D@__crt_stdio_output@@V?$format_validation_base@DV?$stream_output_adapter@D@__crt_stdio_output@@@2@@__crt_stdio_output@@AAE_NI_N@Z 1005c8c0 f i libucrtd:output.obj
 0001:0005bc10       ?type_case_integer@?$output_processor@DV?$stream_output_adapter@D@__crt_stdio_output@@V?$positional_parameter_base@DV?$stream_output_adapter@D@__crt_stdio_output@@@2@@__crt_stdio_output@@AAE_NI_N@Z 1005cc10 f i libucrtd:output.obj
 0001:0005bf60       ?type_case_integer@?$output_processor@DV?$stream_output_adapter@D@__crt_stdio_output@@V?$standard_base@DV?$stream_output_adapter@D@__crt_stdio_output@@@2@@__crt_stdio_output@@AAE_NI_N@Z 1005cf60 f i libucrtd:output.obj
 0001:0005c2b0       ?type_case_integer@?$output_processor@DV?$string_output_adapter@D@__crt_stdio_output@@V?$format_validation_base@DV?$string_output_adapter@D@__crt_stdio_output@@@2@@__crt_stdio_output@@AAE_NI_N@Z 1005d2b0 f i libucrtd:output.obj
 0001:0005c600       ?type_case_integer@?$output_processor@DV?$string_output_adapter@D@__crt_stdio_output@@V?$positional_parameter_base@DV?$string_output_adapter@D@__crt_stdio_output@@@2@@__crt_stdio_output@@AAE_NI_N@Z 1005d600 f i libucrtd:output.obj
 0001:0005c950       ?type_case_integer@?$output_processor@DV?$string_output_adapter@D@__crt_stdio_output@@V?$standard_base@DV?$string_output_adapter@D@__crt_stdio_output@@@2@@__crt_stdio_output@@AAE_NI_N@Z 1005d950 f i libucrtd:output.obj
 0001:0005cca0       ?type_case_integer@?$output_processor@_WV?$stream_output_adapter@_W@__crt_stdio_output@@V?$format_validation_base@_WV?$stream_output_adapter@_W@__crt_stdio_output@@@2@@__crt_stdio_output@@AAE_NI_N@Z 1005dca0 f i libucrtd:output.obj
 0001:0005cff0       ?type_case_integer@?$output_processor@_WV?$stream_output_adapter@_W@__crt_stdio_output@@V?$positional_parameter_base@_WV?$stream_output_adapter@_W@__crt_stdio_output@@@2@@__crt_stdio_output@@AAE_NI_N@Z 1005dff0 f i libucrtd:output.obj
 0001:0005d340       ?type_case_integer@?$output_processor@_WV?$stream_output_adapter@_W@__crt_stdio_output@@V?$standard_base@_WV?$stream_output_adapter@_W@__crt_stdio_output@@@2@@__crt_stdio_output@@AAE_NI_N@Z 1005e340 f i libucrtd:output.obj
 0001:0005d690       ?type_case_integer@?$output_processor@_WV?$string_output_adapter@_W@__crt_stdio_output@@V?$format_validation_base@_WV?$string_output_adapter@_W@__crt_stdio_output@@@2@@__crt_stdio_output@@AAE_NI_N@Z 1005e690 f i libucrtd:output.obj
 0001:0005d9e0       ?type_case_integer@?$output_processor@_WV?$string_output_adapter@_W@__crt_stdio_output@@V?$positional_parameter_base@_WV?$string_output_adapter@_W@__crt_stdio_output@@@2@@__crt_stdio_output@@AAE_NI_N@Z 1005e9e0 f i libucrtd:output.obj
 0001:0005dd30       ?type_case_integer@?$output_processor@_WV?$string_output_adapter@_W@__crt_stdio_output@@V?$standard_base@_WV?$string_output_adapter@_W@__crt_stdio_output@@@2@@__crt_stdio_output@@AAE_NI_N@Z 1005ed30 f i libucrtd:output.obj
 0001:0005e080       ?type_case_n@?$output_processor@DV?$stream_output_adapter@D@__crt_stdio_output@@V?$format_validation_base@DV?$stream_output_adapter@D@__crt_stdio_output@@@2@@__crt_stdio_output@@AAE_NXZ 1005f080 f i libucrtd:output.obj
 0001:0005e270       ?type_case_n@?$output_processor@DV?$stream_output_adapter@D@__crt_stdio_output@@V?$positional_parameter_base@DV?$stream_output_adapter@D@__crt_stdio_output@@@2@@__crt_stdio_output@@AAE_NXZ 1005f270 f i libucrtd:output.obj
 0001:0005e460       ?type_case_n@?$output_processor@DV?$stream_output_adapter@D@__crt_stdio_output@@V?$standard_base@DV?$stream_output_adapter@D@__crt_stdio_output@@@2@@__crt_stdio_output@@AAE_NXZ 1005f460 f i libucrtd:output.obj
 0001:0005e650       ?type_case_n@?$output_processor@DV?$string_output_adapter@D@__crt_stdio_output@@V?$format_validation_base@DV?$string_output_adapter@D@__crt_stdio_output@@@2@@__crt_stdio_output@@AAE_NXZ 1005f650 f i libucrtd:output.obj
 0001:0005e840       ?type_case_n@?$output_processor@DV?$string_output_adapter@D@__crt_stdio_output@@V?$positional_parameter_base@DV?$string_output_adapter@D@__crt_stdio_output@@@2@@__crt_stdio_output@@AAE_NXZ 1005f840 f i libucrtd:output.obj
 0001:0005ea30       ?type_case_n@?$output_processor@DV?$string_output_adapter@D@__crt_stdio_output@@V?$standard_base@DV?$string_output_adapter@D@__crt_stdio_output@@@2@@__crt_stdio_output@@AAE_NXZ 1005fa30 f i libucrtd:output.obj
 0001:0005ec20       ?type_case_n@?$output_processor@_WV?$stream_output_adapter@_W@__crt_stdio_output@@V?$format_validation_base@_WV?$stream_output_adapter@_W@__crt_stdio_output@@@2@@__crt_stdio_output@@AAE_NXZ 1005fc20 f i libucrtd:output.obj
 0001:0005ee10       ?type_case_n@?$output_processor@_WV?$stream_output_adapter@_W@__crt_stdio_output@@V?$positional_parameter_base@_WV?$stream_output_adapter@_W@__crt_stdio_output@@@2@@__crt_stdio_output@@AAE_NXZ 1005fe10 f i libucrtd:output.obj
 0001:0005f000       ?type_case_n@?$output_processor@_WV?$stream_output_adapter@_W@__crt_stdio_output@@V?$standard_base@_WV?$stream_output_adapter@_W@__crt_stdio_output@@@2@@__crt_stdio_output@@AAE_NXZ 10060000 f i libucrtd:output.obj
 0001:0005f1f0       ?type_case_n@?$output_processor@_WV?$string_output_adapter@_W@__crt_stdio_output@@V?$format_validation_base@_WV?$string_output_adapter@_W@__crt_stdio_output@@@2@@__crt_stdio_output@@AAE_NXZ 100601f0 f i libucrtd:output.obj
 0001:0005f3e0       ?type_case_n@?$output_processor@_WV?$string_output_adapter@_W@__crt_stdio_output@@V?$positional_parameter_base@_WV?$string_output_adapter@_W@__crt_stdio_output@@@2@@__crt_stdio_output@@AAE_NXZ 100603e0 f i libucrtd:output.obj
 0001:0005f5d0       ?type_case_n@?$output_processor@_WV?$string_output_adapter@_W@__crt_stdio_output@@V?$standard_base@_WV?$string_output_adapter@_W@__crt_stdio_output@@@2@@__crt_stdio_output@@AAE_NXZ 100605d0 f i libucrtd:output.obj
 0001:0005f7c0       ?type_case_o@?$output_processor@DV?$stream_output_adapter@D@__crt_stdio_output@@V?$format_validation_base@DV?$stream_output_adapter@D@__crt_stdio_output@@@2@@__crt_stdio_output@@AAE_NXZ 100607c0 f i libucrtd:output.obj
 0001:0005f800       ?type_case_o@?$output_processor@DV?$stream_output_adapter@D@__crt_stdio_output@@V?$positional_parameter_base@DV?$stream_output_adapter@D@__crt_stdio_output@@@2@@__crt_stdio_output@@AAE_NXZ 10060800 f i libucrtd:output.obj
 0001:0005f840       ?type_case_o@?$output_processor@DV?$stream_output_adapter@D@__crt_stdio_output@@V?$standard_base@DV?$stream_output_adapter@D@__crt_stdio_output@@@2@@__crt_stdio_output@@AAE_NXZ 10060840 f i libucrtd:output.obj
 0001:0005f880       ?type_case_o@?$output_processor@DV?$string_output_adapter@D@__crt_stdio_output@@V?$format_validation_base@DV?$string_output_adapter@D@__crt_stdio_output@@@2@@__crt_stdio_output@@AAE_NXZ 10060880 f i libucrtd:output.obj
 0001:0005f8c0       ?type_case_o@?$output_processor@DV?$string_output_adapter@D@__crt_stdio_output@@V?$positional_parameter_base@DV?$string_output_adapter@D@__crt_stdio_output@@@2@@__crt_stdio_output@@AAE_NXZ 100608c0 f i libucrtd:output.obj
 0001:0005f900       ?type_case_o@?$output_processor@DV?$string_output_adapter@D@__crt_stdio_output@@V?$standard_base@DV?$string_output_adapter@D@__crt_stdio_output@@@2@@__crt_stdio_output@@AAE_NXZ 10060900 f i libucrtd:output.obj
 0001:0005f940       ?type_case_o@?$output_processor@_WV?$stream_output_adapter@_W@__crt_stdio_output@@V?$format_validation_base@_WV?$stream_output_adapter@_W@__crt_stdio_output@@@2@@__crt_stdio_output@@AAE_NXZ 10060940 f i libucrtd:output.obj
 0001:0005f980       ?type_case_o@?$output_processor@_WV?$stream_output_adapter@_W@__crt_stdio_output@@V?$positional_parameter_base@_WV?$stream_output_adapter@_W@__crt_stdio_output@@@2@@__crt_stdio_output@@AAE_NXZ 10060980 f i libucrtd:output.obj
 0001:0005f9c0       ?type_case_o@?$output_processor@_WV?$stream_output_adapter@_W@__crt_stdio_output@@V?$standard_base@_WV?$stream_output_adapter@_W@__crt_stdio_output@@@2@@__crt_stdio_output@@AAE_NXZ 100609c0 f i libucrtd:output.obj
 0001:0005fa00       ?type_case_o@?$output_processor@_WV?$string_output_adapter@_W@__crt_stdio_output@@V?$format_validation_base@_WV?$string_output_adapter@_W@__crt_stdio_output@@@2@@__crt_stdio_output@@AAE_NXZ 10060a00 f i libucrtd:output.obj
 0001:0005fa40       ?type_case_o@?$output_processor@_WV?$string_output_adapter@_W@__crt_stdio_output@@V?$positional_parameter_base@_WV?$string_output_adapter@_W@__crt_stdio_output@@@2@@__crt_stdio_output@@AAE_NXZ 10060a40 f i libucrtd:output.obj
 0001:0005fa80       ?type_case_o@?$output_processor@_WV?$string_output_adapter@_W@__crt_stdio_output@@V?$standard_base@_WV?$string_output_adapter@_W@__crt_stdio_output@@@2@@__crt_stdio_output@@AAE_NXZ 10060a80 f i libucrtd:output.obj
 0001:0005fac0       ?type_case_p@?$output_processor@DV?$stream_output_adapter@D@__crt_stdio_output@@V?$format_validation_base@DV?$stream_output_adapter@D@__crt_stdio_output@@@2@@__crt_stdio_output@@AAE_NXZ 10060ac0 f i libucrtd:output.obj
 0001:0005faf0       ?type_case_p@?$output_processor@DV?$stream_output_adapter@D@__crt_stdio_output@@V?$positional_parameter_base@DV?$stream_output_adapter@D@__crt_stdio_output@@@2@@__crt_stdio_output@@AAE_NXZ 10060af0 f i libucrtd:output.obj
 0001:0005fb20       ?type_case_p@?$output_processor@DV?$stream_output_adapter@D@__crt_stdio_output@@V?$standard_base@DV?$stream_output_adapter@D@__crt_stdio_output@@@2@@__crt_stdio_output@@AAE_NXZ 10060b20 f i libucrtd:output.obj
 0001:0005fb50       ?type_case_p@?$output_processor@DV?$string_output_adapter@D@__crt_stdio_output@@V?$format_validation_base@DV?$string_output_adapter@D@__crt_stdio_output@@@2@@__crt_stdio_output@@AAE_NXZ 10060b50 f i libucrtd:output.obj
 0001:0005fb80       ?type_case_p@?$output_processor@DV?$string_output_adapter@D@__crt_stdio_output@@V?$positional_parameter_base@DV?$string_output_adapter@D@__crt_stdio_output@@@2@@__crt_stdio_output@@AAE_NXZ 10060b80 f i libucrtd:output.obj
 0001:0005fbb0       ?type_case_p@?$output_processor@DV?$string_output_adapter@D@__crt_stdio_output@@V?$standard_base@DV?$string_output_adapter@D@__crt_stdio_output@@@2@@__crt_stdio_output@@AAE_NXZ 10060bb0 f i libucrtd:output.obj
 0001:0005fbe0       ?type_case_p@?$output_processor@_WV?$stream_output_adapter@_W@__crt_stdio_output@@V?$format_validation_base@_WV?$stream_output_adapter@_W@__crt_stdio_output@@@2@@__crt_stdio_output@@AAE_NXZ 10060be0 f i libucrtd:output.obj
 0001:0005fc10       ?type_case_p@?$output_processor@_WV?$stream_output_adapter@_W@__crt_stdio_output@@V?$positional_parameter_base@_WV?$stream_output_adapter@_W@__crt_stdio_output@@@2@@__crt_stdio_output@@AAE_NXZ 10060c10 f i libucrtd:output.obj
 0001:0005fc40       ?type_case_p@?$output_processor@_WV?$stream_output_adapter@_W@__crt_stdio_output@@V?$standard_base@_WV?$stream_output_adapter@_W@__crt_stdio_output@@@2@@__crt_stdio_output@@AAE_NXZ 10060c40 f i libucrtd:output.obj
 0001:0005fc70       ?type_case_p@?$output_processor@_WV?$string_output_adapter@_W@__crt_stdio_output@@V?$format_validation_base@_WV?$string_output_adapter@_W@__crt_stdio_output@@@2@@__crt_stdio_output@@AAE_NXZ 10060c70 f i libucrtd:output.obj
 0001:0005fca0       ?type_case_p@?$output_processor@_WV?$string_output_adapter@_W@__crt_stdio_output@@V?$positional_parameter_base@_WV?$string_output_adapter@_W@__crt_stdio_output@@@2@@__crt_stdio_output@@AAE_NXZ 10060ca0 f i libucrtd:output.obj
 0001:0005fcd0       ?type_case_p@?$output_processor@_WV?$string_output_adapter@_W@__crt_stdio_output@@V?$standard_base@_WV?$string_output_adapter@_W@__crt_stdio_output@@@2@@__crt_stdio_output@@AAE_NXZ 10060cd0 f i libucrtd:output.obj
 0001:0005fd00       ?type_case_s@?$output_processor@DV?$stream_output_adapter@D@__crt_stdio_output@@V?$format_validation_base@DV?$stream_output_adapter@D@__crt_stdio_output@@@2@@__crt_stdio_output@@AAE_NXZ 10060d00 f i libucrtd:output.obj
 0001:0005fdf0       ?type_case_s@?$output_processor@DV?$stream_output_adapter@D@__crt_stdio_output@@V?$positional_parameter_base@DV?$stream_output_adapter@D@__crt_stdio_output@@@2@@__crt_stdio_output@@AAE_NXZ 10060df0 f i libucrtd:output.obj
 0001:0005fee0       ?type_case_s@?$output_processor@DV?$stream_output_adapter@D@__crt_stdio_output@@V?$standard_base@DV?$stream_output_adapter@D@__crt_stdio_output@@@2@@__crt_stdio_output@@AAE_NXZ 10060ee0 f i libucrtd:output.obj
 0001:0005ffd0       ?type_case_s@?$output_processor@DV?$string_output_adapter@D@__crt_stdio_output@@V?$format_validation_base@DV?$string_output_adapter@D@__crt_stdio_output@@@2@@__crt_stdio_output@@AAE_NXZ 10060fd0 f i libucrtd:output.obj
 0001:000600c0       ?type_case_s@?$output_processor@DV?$string_output_adapter@D@__crt_stdio_output@@V?$positional_parameter_base@DV?$string_output_adapter@D@__crt_stdio_output@@@2@@__crt_stdio_output@@AAE_NXZ 100610c0 f i libucrtd:output.obj
 0001:000601b0       ?type_case_s@?$output_processor@DV?$string_output_adapter@D@__crt_stdio_output@@V?$standard_base@DV?$string_output_adapter@D@__crt_stdio_output@@@2@@__crt_stdio_output@@AAE_NXZ 100611b0 f i libucrtd:output.obj
 0001:000602a0       ?type_case_s@?$output_processor@_WV?$stream_output_adapter@_W@__crt_stdio_output@@V?$format_validation_base@_WV?$stream_output_adapter@_W@__crt_stdio_output@@@2@@__crt_stdio_output@@AAE_NXZ 100612a0 f i libucrtd:output.obj
 0001:00060390       ?type_case_s@?$output_processor@_WV?$stream_output_adapter@_W@__crt_stdio_output@@V?$positional_parameter_base@_WV?$stream_output_adapter@_W@__crt_stdio_output@@@2@@__crt_stdio_output@@AAE_NXZ 10061390 f i libucrtd:output.obj
 0001:00060480       ?type_case_s@?$output_processor@_WV?$stream_output_adapter@_W@__crt_stdio_output@@V?$standard_base@_WV?$stream_output_adapter@_W@__crt_stdio_output@@@2@@__crt_stdio_output@@AAE_NXZ 10061480 f i libucrtd:output.obj
 0001:00060570       ?type_case_s@?$output_processor@_WV?$string_output_adapter@_W@__crt_stdio_output@@V?$format_validation_base@_WV?$string_output_adapter@_W@__crt_stdio_output@@@2@@__crt_stdio_output@@AAE_NXZ 10061570 f i libucrtd:output.obj
 0001:00060660       ?type_case_s@?$output_processor@_WV?$string_output_adapter@_W@__crt_stdio_output@@V?$positional_parameter_base@_WV?$string_output_adapter@_W@__crt_stdio_output@@@2@@__crt_stdio_output@@AAE_NXZ 10061660 f i libucrtd:output.obj
 0001:00060750       ?type_case_s@?$output_processor@_WV?$string_output_adapter@_W@__crt_stdio_output@@V?$standard_base@_WV?$string_output_adapter@_W@__crt_stdio_output@@@2@@__crt_stdio_output@@AAE_NXZ 10061750 f i libucrtd:output.obj
 0001:00060840       ?type_case_s_compute_narrow_string_length@?$output_processor@DV?$stream_output_adapter@D@__crt_stdio_output@@V?$format_validation_base@DV?$stream_output_adapter@D@__crt_stdio_output@@@2@@__crt_stdio_output@@ABEHHD@Z 10061840 f i libucrtd:output.obj
 0001:00060870       ?type_case_s_compute_narrow_string_length@?$output_processor@DV?$stream_output_adapter@D@__crt_stdio_output@@V?$positional_parameter_base@DV?$stream_output_adapter@D@__crt_stdio_output@@@2@@__crt_stdio_output@@ABEHHD@Z 10061870 f i libucrtd:output.obj
 0001:000608a0       ?type_case_s_compute_narrow_string_length@?$output_processor@DV?$stream_output_adapter@D@__crt_stdio_output@@V?$standard_base@DV?$stream_output_adapter@D@__crt_stdio_output@@@2@@__crt_stdio_output@@ABEHHD@Z 100618a0 f i libucrtd:output.obj
 0001:000608d0       ?type_case_s_compute_narrow_string_length@?$output_processor@DV?$string_output_adapter@D@__crt_stdio_output@@V?$format_validation_base@DV?$string_output_adapter@D@__crt_stdio_output@@@2@@__crt_stdio_output@@ABEHHD@Z 100618d0 f i libucrtd:output.obj
 0001:00060900       ?type_case_s_compute_narrow_string_length@?$output_processor@DV?$string_output_adapter@D@__crt_stdio_output@@V?$positional_parameter_base@DV?$string_output_adapter@D@__crt_stdio_output@@@2@@__crt_stdio_output@@ABEHHD@Z 10061900 f i libucrtd:output.obj
 0001:00060930       ?type_case_s_compute_narrow_string_length@?$output_processor@DV?$string_output_adapter@D@__crt_stdio_output@@V?$standard_base@DV?$string_output_adapter@D@__crt_stdio_output@@@2@@__crt_stdio_output@@ABEHHD@Z 10061930 f i libucrtd:output.obj
 0001:00060960       ?type_case_s_compute_narrow_string_length@?$output_processor@_WV?$stream_output_adapter@_W@__crt_stdio_output@@V?$format_validation_base@_WV?$stream_output_adapter@_W@__crt_stdio_output@@@2@@__crt_stdio_output@@ABEHH_W@Z 10061960 f i libucrtd:output.obj
 0001:000609d0       ?type_case_s_compute_narrow_string_length@?$output_processor@_WV?$stream_output_adapter@_W@__crt_stdio_output@@V?$positional_parameter_base@_WV?$stream_output_adapter@_W@__crt_stdio_output@@@2@@__crt_stdio_output@@ABEHH_W@Z 100619d0 f i libucrtd:output.obj
 0001:00060a40       ?type_case_s_compute_narrow_string_length@?$output_processor@_WV?$stream_output_adapter@_W@__crt_stdio_output@@V?$standard_base@_WV?$stream_output_adapter@_W@__crt_stdio_output@@@2@@__crt_stdio_output@@ABEHH_W@Z 10061a40 f i libucrtd:output.obj
 0001:00060ab0       ?type_case_s_compute_narrow_string_length@?$output_processor@_WV?$string_output_adapter@_W@__crt_stdio_output@@V?$format_validation_base@_WV?$string_output_adapter@_W@__crt_stdio_output@@@2@@__crt_stdio_output@@ABEHH_W@Z 10061ab0 f i libucrtd:output.obj
 0001:00060b20       ?type_case_s_compute_narrow_string_length@?$output_processor@_WV?$string_output_adapter@_W@__crt_stdio_output@@V?$positional_parameter_base@_WV?$string_output_adapter@_W@__crt_stdio_output@@@2@@__crt_stdio_output@@ABEHH_W@Z 10061b20 f i libucrtd:output.obj
 0001:00060b90       ?type_case_s_compute_narrow_string_length@?$output_processor@_WV?$string_output_adapter@_W@__crt_stdio_output@@V?$standard_base@_WV?$string_output_adapter@_W@__crt_stdio_output@@@2@@__crt_stdio_output@@ABEHH_W@Z 10061b90 f i libucrtd:output.obj
 0001:00060c00       ?type_case_u@?$output_processor@DV?$stream_output_adapter@D@__crt_stdio_output@@V?$format_validation_base@DV?$stream_output_adapter@D@__crt_stdio_output@@@2@@__crt_stdio_output@@AAE_NXZ 10061c00 f i libucrtd:output.obj
 0001:00060c20       ?type_case_u@?$output_processor@DV?$stream_output_adapter@D@__crt_stdio_output@@V?$positional_parameter_base@DV?$stream_output_adapter@D@__crt_stdio_output@@@2@@__crt_stdio_output@@AAE_NXZ 10061c20 f i libucrtd:output.obj
 0001:00060c40       ?type_case_u@?$output_processor@DV?$stream_output_adapter@D@__crt_stdio_output@@V?$standard_base@DV?$stream_output_adapter@D@__crt_stdio_output@@@2@@__crt_stdio_output@@AAE_NXZ 10061c40 f i libucrtd:output.obj
 0001:00060c60       ?type_case_u@?$output_processor@DV?$string_output_adapter@D@__crt_stdio_output@@V?$format_validation_base@DV?$string_output_adapter@D@__crt_stdio_output@@@2@@__crt_stdio_output@@AAE_NXZ 10061c60 f i libucrtd:output.obj
 0001:00060c80       ?type_case_u@?$output_processor@DV?$string_output_adapter@D@__crt_stdio_output@@V?$positional_parameter_base@DV?$string_output_adapter@D@__crt_stdio_output@@@2@@__crt_stdio_output@@AAE_NXZ 10061c80 f i libucrtd:output.obj
 0001:00060ca0       ?type_case_u@?$output_processor@DV?$string_output_adapter@D@__crt_stdio_output@@V?$standard_base@DV?$string_output_adapter@D@__crt_stdio_output@@@2@@__crt_stdio_output@@AAE_NXZ 10061ca0 f i libucrtd:output.obj
 0001:00060cc0       ?type_case_u@?$output_processor@_WV?$stream_output_adapter@_W@__crt_stdio_output@@V?$format_validation_base@_WV?$stream_output_adapter@_W@__crt_stdio_output@@@2@@__crt_stdio_output@@AAE_NXZ 10061cc0 f i libucrtd:output.obj
 0001:00060ce0       ?type_case_u@?$output_processor@_WV?$stream_output_adapter@_W@__crt_stdio_output@@V?$positional_parameter_base@_WV?$stream_output_adapter@_W@__crt_stdio_output@@@2@@__crt_stdio_output@@AAE_NXZ 10061ce0 f i libucrtd:output.obj
 0001:00060d00       ?type_case_u@?$output_processor@_WV?$stream_output_adapter@_W@__crt_stdio_output@@V?$standard_base@_WV?$stream_output_adapter@_W@__crt_stdio_output@@@2@@__crt_stdio_output@@AAE_NXZ 10061d00 f i libucrtd:output.obj
 0001:00060d20       ?type_case_u@?$output_processor@_WV?$string_output_adapter@_W@__crt_stdio_output@@V?$format_validation_base@_WV?$string_output_adapter@_W@__crt_stdio_output@@@2@@__crt_stdio_output@@AAE_NXZ 10061d20 f i libucrtd:output.obj
 0001:00060d40       ?type_case_u@?$output_processor@_WV?$string_output_adapter@_W@__crt_stdio_output@@V?$positional_parameter_base@_WV?$string_output_adapter@_W@__crt_stdio_output@@@2@@__crt_stdio_output@@AAE_NXZ 10061d40 f i libucrtd:output.obj
 0001:00060d60       ?type_case_u@?$output_processor@_WV?$string_output_adapter@_W@__crt_stdio_output@@V?$standard_base@_WV?$string_output_adapter@_W@__crt_stdio_output@@@2@@__crt_stdio_output@@AAE_NXZ 10061d60 f i libucrtd:output.obj
 0001:00060d80       ?type_case_x@?$output_processor@DV?$stream_output_adapter@D@__crt_stdio_output@@V?$format_validation_base@DV?$stream_output_adapter@D@__crt_stdio_output@@@2@@__crt_stdio_output@@AAE_NXZ 10061d80 f i libucrtd:output.obj
 0001:00060da0       ?type_case_x@?$output_processor@DV?$stream_output_adapter@D@__crt_stdio_output@@V?$positional_parameter_base@DV?$stream_output_adapter@D@__crt_stdio_output@@@2@@__crt_stdio_output@@AAE_NXZ 10061da0 f i libucrtd:output.obj
 0001:00060dc0       ?type_case_x@?$output_processor@DV?$stream_output_adapter@D@__crt_stdio_output@@V?$standard_base@DV?$stream_output_adapter@D@__crt_stdio_output@@@2@@__crt_stdio_output@@AAE_NXZ 10061dc0 f i libucrtd:output.obj
 0001:00060de0       ?type_case_x@?$output_processor@DV?$string_output_adapter@D@__crt_stdio_output@@V?$format_validation_base@DV?$string_output_adapter@D@__crt_stdio_output@@@2@@__crt_stdio_output@@AAE_NXZ 10061de0 f i libucrtd:output.obj
 0001:00060e00       ?type_case_x@?$output_processor@DV?$string_output_adapter@D@__crt_stdio_output@@V?$positional_parameter_base@DV?$string_output_adapter@D@__crt_stdio_output@@@2@@__crt_stdio_output@@AAE_NXZ 10061e00 f i libucrtd:output.obj
 0001:00060e20       ?type_case_x@?$output_processor@DV?$string_output_adapter@D@__crt_stdio_output@@V?$standard_base@DV?$string_output_adapter@D@__crt_stdio_output@@@2@@__crt_stdio_output@@AAE_NXZ 10061e20 f i libucrtd:output.obj
 0001:00060e40       ?type_case_x@?$output_processor@_WV?$stream_output_adapter@_W@__crt_stdio_output@@V?$format_validation_base@_WV?$stream_output_adapter@_W@__crt_stdio_output@@@2@@__crt_stdio_output@@AAE_NXZ 10061e40 f i libucrtd:output.obj
 0001:00060e60       ?type_case_x@?$output_processor@_WV?$stream_output_adapter@_W@__crt_stdio_output@@V?$positional_parameter_base@_WV?$stream_output_adapter@_W@__crt_stdio_output@@@2@@__crt_stdio_output@@AAE_NXZ 10061e60 f i libucrtd:output.obj
 0001:00060e80       ?type_case_x@?$output_processor@_WV?$stream_output_adapter@_W@__crt_stdio_output@@V?$standard_base@_WV?$stream_output_adapter@_W@__crt_stdio_output@@@2@@__crt_stdio_output@@AAE_NXZ 10061e80 f i libucrtd:output.obj
 0001:00060ea0       ?type_case_x@?$output_processor@_WV?$string_output_adapter@_W@__crt_stdio_output@@V?$format_validation_base@_WV?$string_output_adapter@_W@__crt_stdio_output@@@2@@__crt_stdio_output@@AAE_NXZ 10061ea0 f i libucrtd:output.obj
 0001:00060ec0       ?type_case_x@?$output_processor@_WV?$string_output_adapter@_W@__crt_stdio_output@@V?$positional_parameter_base@_WV?$string_output_adapter@_W@__crt_stdio_output@@@2@@__crt_stdio_output@@AAE_NXZ 10061ec0 f i libucrtd:output.obj
 0001:00060ee0       ?type_case_x@?$output_processor@_WV?$string_output_adapter@_W@__crt_stdio_output@@V?$standard_base@_WV?$string_output_adapter@_W@__crt_stdio_output@@@2@@__crt_stdio_output@@AAE_NXZ 10061ee0 f i libucrtd:output.obj
 0001:00060f00       ?unset_flag@?$output_processor@DV?$stream_output_adapter@D@__crt_stdio_output@@V?$format_validation_base@DV?$stream_output_adapter@D@__crt_stdio_output@@@2@@__crt_stdio_output@@AAEXI@Z 10061f00 f i libucrtd:output.obj
 0001:00060f20       ?unset_flag@?$output_processor@DV?$stream_output_adapter@D@__crt_stdio_output@@V?$positional_parameter_base@DV?$stream_output_adapter@D@__crt_stdio_output@@@2@@__crt_stdio_output@@AAEXI@Z 10061f20 f i libucrtd:output.obj
 0001:00060f40       ?unset_flag@?$output_processor@DV?$stream_output_adapter@D@__crt_stdio_output@@V?$standard_base@DV?$stream_output_adapter@D@__crt_stdio_output@@@2@@__crt_stdio_output@@AAEXI@Z 10061f40 f i libucrtd:output.obj
 0001:00060f60       ?unset_flag@?$output_processor@DV?$string_output_adapter@D@__crt_stdio_output@@V?$format_validation_base@DV?$string_output_adapter@D@__crt_stdio_output@@@2@@__crt_stdio_output@@AAEXI@Z 10061f60 f i libucrtd:output.obj
 0001:00060f80       ?unset_flag@?$output_processor@DV?$string_output_adapter@D@__crt_stdio_output@@V?$positional_parameter_base@DV?$string_output_adapter@D@__crt_stdio_output@@@2@@__crt_stdio_output@@AAEXI@Z 10061f80 f i libucrtd:output.obj
 0001:00060fa0       ?unset_flag@?$output_processor@DV?$string_output_adapter@D@__crt_stdio_output@@V?$standard_base@DV?$string_output_adapter@D@__crt_stdio_output@@@2@@__crt_stdio_output@@AAEXI@Z 10061fa0 f i libucrtd:output.obj
 0001:00060fc0       ?unset_flag@?$output_processor@_WV?$stream_output_adapter@_W@__crt_stdio_output@@V?$format_validation_base@_WV?$stream_output_adapter@_W@__crt_stdio_output@@@2@@__crt_stdio_output@@AAEXI@Z 10061fc0 f i libucrtd:output.obj
 0001:00060fe0       ?unset_flag@?$output_processor@_WV?$stream_output_adapter@_W@__crt_stdio_output@@V?$positional_parameter_base@_WV?$stream_output_adapter@_W@__crt_stdio_output@@@2@@__crt_stdio_output@@AAEXI@Z 10061fe0 f i libucrtd:output.obj
 0001:00061000       ?unset_flag@?$output_processor@_WV?$stream_output_adapter@_W@__crt_stdio_output@@V?$standard_base@_WV?$stream_output_adapter@_W@__crt_stdio_output@@@2@@__crt_stdio_output@@AAEXI@Z 10062000 f i libucrtd:output.obj
 0001:00061020       ?unset_flag@?$output_processor@_WV?$string_output_adapter@_W@__crt_stdio_output@@V?$format_validation_base@_WV?$string_output_adapter@_W@__crt_stdio_output@@@2@@__crt_stdio_output@@AAEXI@Z 10062020 f i libucrtd:output.obj
 0001:00061040       ?unset_flag@?$output_processor@_WV?$string_output_adapter@_W@__crt_stdio_output@@V?$positional_parameter_base@_WV?$string_output_adapter@_W@__crt_stdio_output@@@2@@__crt_stdio_output@@AAEXI@Z 10062040 f i libucrtd:output.obj
 0001:00061060       ?unset_flag@?$output_processor@_WV?$string_output_adapter@_W@__crt_stdio_output@@V?$standard_base@_WV?$string_output_adapter@_W@__crt_stdio_output@@@2@@__crt_stdio_output@@AAEXI@Z 10062060 f i libucrtd:output.obj
 0001:00061080       ?update_field_width@?$positional_parameter_base@DV?$stream_output_adapter@D@__crt_stdio_output@@@__crt_stdio_output@@IAE_NXZ 10062080 f i libucrtd:output.obj
 0001:00061200       ?update_field_width@?$positional_parameter_base@DV?$string_output_adapter@D@__crt_stdio_output@@@__crt_stdio_output@@IAE_NXZ 10062200 f i libucrtd:output.obj
 0001:00061380       ?update_field_width@?$positional_parameter_base@_WV?$stream_output_adapter@_W@__crt_stdio_output@@@__crt_stdio_output@@IAE_NXZ 10062380 f i libucrtd:output.obj
 0001:00061500       ?update_field_width@?$positional_parameter_base@_WV?$string_output_adapter@_W@__crt_stdio_output@@@__crt_stdio_output@@IAE_NXZ 10062500 f i libucrtd:output.obj
 0001:00061680       ?update_field_width@?$standard_base@DV?$stream_output_adapter@D@__crt_stdio_output@@@__crt_stdio_output@@IAE_NXZ 10062680 f i libucrtd:output.obj
 0001:000616b0       ?update_field_width@?$standard_base@DV?$string_output_adapter@D@__crt_stdio_output@@@__crt_stdio_output@@IAE_NXZ 100626b0 f i libucrtd:output.obj
 0001:000616e0       ?update_field_width@?$standard_base@_WV?$stream_output_adapter@_W@__crt_stdio_output@@@__crt_stdio_output@@IAE_NXZ 100626e0 f i libucrtd:output.obj
 0001:00061710       ?update_field_width@?$standard_base@_WV?$string_output_adapter@_W@__crt_stdio_output@@@__crt_stdio_output@@IAE_NXZ 10062710 f i libucrtd:output.obj
 0001:00061740       ?update_precision@?$positional_parameter_base@DV?$stream_output_adapter@D@__crt_stdio_output@@@__crt_stdio_output@@IAE_NXZ 10062740 f i libucrtd:output.obj
 0001:000618c0       ?update_precision@?$positional_parameter_base@DV?$string_output_adapter@D@__crt_stdio_output@@@__crt_stdio_output@@IAE_NXZ 100628c0 f i libucrtd:output.obj
 0001:00061a40       ?update_precision@?$positional_parameter_base@_WV?$stream_output_adapter@_W@__crt_stdio_output@@@__crt_stdio_output@@IAE_NXZ 10062a40 f i libucrtd:output.obj
 0001:00061bc0       ?update_precision@?$positional_parameter_base@_WV?$string_output_adapter@_W@__crt_stdio_output@@@__crt_stdio_output@@IAE_NXZ 10062bc0 f i libucrtd:output.obj
 0001:00061d40       ?update_precision@?$standard_base@DV?$stream_output_adapter@D@__crt_stdio_output@@@__crt_stdio_output@@IAE_NXZ 10062d40 f i libucrtd:output.obj
 0001:00061d70       ?update_precision@?$standard_base@DV?$string_output_adapter@D@__crt_stdio_output@@@__crt_stdio_output@@IAE_NXZ 10062d70 f i libucrtd:output.obj
 0001:00061da0       ?update_precision@?$standard_base@_WV?$stream_output_adapter@_W@__crt_stdio_output@@@__crt_stdio_output@@IAE_NXZ 10062da0 f i libucrtd:output.obj
 0001:00061dd0       ?update_precision@?$standard_base@_WV?$string_output_adapter@_W@__crt_stdio_output@@@__crt_stdio_output@@IAE_NXZ 10062dd0 f i libucrtd:output.obj
 0001:00061e00       ?valid@__crt_stdio_stream@@QBE_NXZ 10062e00 f i libucrtd:output.obj
 0001:00061e30       ?validate@?$stream_output_adapter@D@__crt_stdio_output@@QBE_NXZ 10062e30 f i libucrtd:output.obj
 0001:00061ee0       ?validate@?$stream_output_adapter@_W@__crt_stdio_output@@QBE_NXZ 10062ee0 f i libucrtd:output.obj
 0001:00061f90       ?validate@?$string_output_adapter@D@__crt_stdio_output@@QBE_NXZ 10062f90 f i libucrtd:output.obj
 0001:00062020       ?validate@?$string_output_adapter@_W@__crt_stdio_output@@QBE_NXZ 10063020 f i libucrtd:output.obj
 0001:000620b0       ?validate_and_store_parameter_data@?$positional_parameter_base@DV?$stream_output_adapter@D@__crt_stdio_output@@@__crt_stdio_output@@AAE_NAAUparameter_data@12@W4parameter_type@12@DW4length_modifier@2@@Z 100630b0 f i libucrtd:output.obj
 0001:00062180       ?validate_and_store_parameter_data@?$positional_parameter_base@DV?$string_output_adapter@D@__crt_stdio_output@@@__crt_stdio_output@@AAE_NAAUparameter_data@12@W4parameter_type@12@DW4length_modifier@2@@Z 10063180 f i libucrtd:output.obj
 0001:00062250       ?validate_and_store_parameter_data@?$positional_parameter_base@_WV?$stream_output_adapter@_W@__crt_stdio_output@@@__crt_stdio_output@@AAE_NAAUparameter_data@12@W4parameter_type@12@_WW4length_modifier@2@@Z 10063250 f i libucrtd:output.obj
 0001:00062330       ?validate_and_store_parameter_data@?$positional_parameter_base@_WV?$string_output_adapter@_W@__crt_stdio_output@@@__crt_stdio_output@@AAE_NAAUparameter_data@12@W4parameter_type@12@_WW4length_modifier@2@@Z 10063330 f i libucrtd:output.obj
 0001:00062410       ?validate_and_update_state_at_beginning_of_format_character@?$positional_parameter_base@DV?$stream_output_adapter@D@__crt_stdio_output@@@__crt_stdio_output@@IAE_NXZ 10063410 f i libucrtd:output.obj
 0001:00062630       ?validate_and_update_state_at_beginning_of_format_character@?$positional_parameter_base@DV?$string_output_adapter@D@__crt_stdio_output@@@__crt_stdio_output@@IAE_NXZ 10063630 f i libucrtd:output.obj
 0001:00062850       ?validate_and_update_state_at_beginning_of_format_character@?$positional_parameter_base@_WV?$stream_output_adapter@_W@__crt_stdio_output@@@__crt_stdio_output@@IAE_NXZ 10063850 f i libucrtd:output.obj
 0001:00062a70       ?validate_and_update_state_at_beginning_of_format_character@?$positional_parameter_base@_WV?$string_output_adapter@_W@__crt_stdio_output@@@__crt_stdio_output@@IAE_NXZ 10063a70 f i libucrtd:output.obj
 0001:00062c90       ?validate_and_update_state_at_beginning_of_format_character@?$standard_base@DV?$stream_output_adapter@D@__crt_stdio_output@@@__crt_stdio_output@@IAE_NXZ 10063c90 f i libucrtd:output.obj
 0001:00062ca0       ?validate_and_update_state_at_beginning_of_format_character@?$standard_base@DV?$string_output_adapter@D@__crt_stdio_output@@@__crt_stdio_output@@IAE_NXZ 10063ca0 f i libucrtd:output.obj
 0001:00062cb0       ?validate_and_update_state_at_beginning_of_format_character@?$standard_base@_WV?$stream_output_adapter@_W@__crt_stdio_output@@@__crt_stdio_output@@IAE_NXZ 10063cb0 f i libucrtd:output.obj
 0001:00062cc0       ?validate_and_update_state_at_beginning_of_format_character@?$standard_base@_WV?$string_output_adapter@_W@__crt_stdio_output@@@__crt_stdio_output@@IAE_NXZ 10063cc0 f i libucrtd:output.obj
 0001:00062cd0       ?validate_and_update_state_at_end_of_format_string@?$format_validation_base@DV?$stream_output_adapter@D@__crt_stdio_output@@@__crt_stdio_output@@IBE_NXZ 10063cd0 f i libucrtd:output.obj
 0001:00062d70       ?validate_and_update_state_at_end_of_format_string@?$format_validation_base@DV?$string_output_adapter@D@__crt_stdio_output@@@__crt_stdio_output@@IBE_NXZ 10063d70 f i libucrtd:output.obj
 0001:00062e10       ?validate_and_update_state_at_end_of_format_string@?$format_validation_base@_WV?$stream_output_adapter@_W@__crt_stdio_output@@@__crt_stdio_output@@IBE_NXZ 10063e10 f i libucrtd:output.obj
 0001:00062eb0       ?validate_and_update_state_at_end_of_format_string@?$format_validation_base@_WV?$string_output_adapter@_W@__crt_stdio_output@@@__crt_stdio_output@@IBE_NXZ 10063eb0 f i libucrtd:output.obj
 0001:00062f50       ?validate_and_update_state_at_end_of_format_string@?$positional_parameter_base@DV?$stream_output_adapter@D@__crt_stdio_output@@@__crt_stdio_output@@IAE_NXZ 10063f50 f i libucrtd:output.obj
 0001:000630f0       ?validate_and_update_state_at_end_of_format_string@?$positional_parameter_base@DV?$string_output_adapter@D@__crt_stdio_output@@@__crt_stdio_output@@IAE_NXZ 100640f0 f i libucrtd:output.obj
 0001:00063290       ?validate_and_update_state_at_end_of_format_string@?$positional_parameter_base@_WV?$stream_output_adapter@_W@__crt_stdio_output@@@__crt_stdio_output@@IAE_NXZ 10064290 f i libucrtd:output.obj
 0001:00063430       ?validate_and_update_state_at_end_of_format_string@?$positional_parameter_base@_WV?$string_output_adapter@_W@__crt_stdio_output@@@__crt_stdio_output@@IAE_NXZ 10064430 f i libucrtd:output.obj
 0001:000635d0       ?validate_and_update_state_at_end_of_format_string@?$standard_base@DV?$stream_output_adapter@D@__crt_stdio_output@@@__crt_stdio_output@@IBE_NXZ 100645d0 f i libucrtd:output.obj
 0001:000635e0       ?validate_and_update_state_at_end_of_format_string@?$standard_base@DV?$string_output_adapter@D@__crt_stdio_output@@@__crt_stdio_output@@IBE_NXZ 100645e0 f i libucrtd:output.obj
 0001:000635f0       ?validate_and_update_state_at_end_of_format_string@?$standard_base@_WV?$stream_output_adapter@_W@__crt_stdio_output@@@__crt_stdio_output@@IBE_NXZ 100645f0 f i libucrtd:output.obj
 0001:00063600       ?validate_and_update_state_at_end_of_format_string@?$standard_base@_WV?$string_output_adapter@_W@__crt_stdio_output@@@__crt_stdio_output@@IBE_NXZ 10064600 f i libucrtd:output.obj
 0001:00063610       ?validate_state_for_type_case_a@?$positional_parameter_base@DV?$stream_output_adapter@D@__crt_stdio_output@@@__crt_stdio_output@@IAE_NXZ 10064610 f i libucrtd:output.obj
 0001:00063700       ?validate_state_for_type_case_a@?$positional_parameter_base@DV?$string_output_adapter@D@__crt_stdio_output@@@__crt_stdio_output@@IAE_NXZ 10064700 f i libucrtd:output.obj
 0001:000637f0       ?validate_state_for_type_case_a@?$positional_parameter_base@_WV?$stream_output_adapter@_W@__crt_stdio_output@@@__crt_stdio_output@@IAE_NXZ 100647f0 f i libucrtd:output.obj
 0001:000638e0       ?validate_state_for_type_case_a@?$positional_parameter_base@_WV?$string_output_adapter@_W@__crt_stdio_output@@@__crt_stdio_output@@IAE_NXZ 100648e0 f i libucrtd:output.obj
 0001:000639d0       ?validate_state_for_type_case_a@?$standard_base@DV?$stream_output_adapter@D@__crt_stdio_output@@@__crt_stdio_output@@IBE_NXZ 100649d0 f i libucrtd:output.obj
 0001:000639e0       ?validate_state_for_type_case_a@?$standard_base@DV?$string_output_adapter@D@__crt_stdio_output@@@__crt_stdio_output@@IBE_NXZ 100649e0 f i libucrtd:output.obj
 0001:000639f0       ?validate_state_for_type_case_a@?$standard_base@_WV?$stream_output_adapter@_W@__crt_stdio_output@@@__crt_stdio_output@@IBE_NXZ 100649f0 f i libucrtd:output.obj
 0001:00063a00       ?validate_state_for_type_case_a@?$standard_base@_WV?$string_output_adapter@_W@__crt_stdio_output@@@__crt_stdio_output@@IBE_NXZ 10064a00 f i libucrtd:output.obj
 0001:00063a10       ?validate_stream_is_ansi_if_required@?$__acrt_stdio_char_traits@D@@SA_NQAU_iobuf@@@Z 10064a10 f i libucrtd:output.obj
 0001:00063b40       ?validate_stream_is_ansi_if_required@?$__acrt_stdio_char_traits@_W@@SA_NQAU_iobuf@@@Z 10064b40 f i libucrtd:output.obj
 0001:00063b50       ?wide_null_string@?$output_processor@DV?$stream_output_adapter@D@__crt_stdio_output@@V?$format_validation_base@DV?$stream_output_adapter@D@__crt_stdio_output@@@2@@__crt_stdio_output@@CAPA_WXZ 10064b50 f i libucrtd:output.obj
 0001:00063b60       ?wide_null_string@?$output_processor@DV?$stream_output_adapter@D@__crt_stdio_output@@V?$positional_parameter_base@DV?$stream_output_adapter@D@__crt_stdio_output@@@2@@__crt_stdio_output@@CAPA_WXZ 10064b60 f i libucrtd:output.obj
 0001:00063b70       ?wide_null_string@?$output_processor@DV?$stream_output_adapter@D@__crt_stdio_output@@V?$standard_base@DV?$stream_output_adapter@D@__crt_stdio_output@@@2@@__crt_stdio_output@@CAPA_WXZ 10064b70 f i libucrtd:output.obj
 0001:00063b80       ?wide_null_string@?$output_processor@DV?$string_output_adapter@D@__crt_stdio_output@@V?$format_validation_base@DV?$string_output_adapter@D@__crt_stdio_output@@@2@@__crt_stdio_output@@CAPA_WXZ 10064b80 f i libucrtd:output.obj
 0001:00063b90       ?wide_null_string@?$output_processor@DV?$string_output_adapter@D@__crt_stdio_output@@V?$positional_parameter_base@DV?$string_output_adapter@D@__crt_stdio_output@@@2@@__crt_stdio_output@@CAPA_WXZ 10064b90 f i libucrtd:output.obj
 0001:00063ba0       ?wide_null_string@?$output_processor@DV?$string_output_adapter@D@__crt_stdio_output@@V?$standard_base@DV?$string_output_adapter@D@__crt_stdio_output@@@2@@__crt_stdio_output@@CAPA_WXZ 10064ba0 f i libucrtd:output.obj
 0001:00063bb0       ?wide_null_string@?$output_processor@_WV?$stream_output_adapter@_W@__crt_stdio_output@@V?$format_validation_base@_WV?$stream_output_adapter@_W@__crt_stdio_output@@@2@@__crt_stdio_output@@CAPA_WXZ 10064bb0 f i libucrtd:output.obj
 0001:00063bc0       ?wide_null_string@?$output_processor@_WV?$stream_output_adapter@_W@__crt_stdio_output@@V?$positional_parameter_base@_WV?$stream_output_adapter@_W@__crt_stdio_output@@@2@@__crt_stdio_output@@CAPA_WXZ 10064bc0 f i libucrtd:output.obj
 0001:00063bd0       ?wide_null_string@?$output_processor@_WV?$stream_output_adapter@_W@__crt_stdio_output@@V?$standard_base@_WV?$stream_output_adapter@_W@__crt_stdio_output@@@2@@__crt_stdio_output@@CAPA_WXZ 10064bd0 f i libucrtd:output.obj
 0001:00063be0       ?wide_null_string@?$output_processor@_WV?$string_output_adapter@_W@__crt_stdio_output@@V?$format_validation_base@_WV?$string_output_adapter@_W@__crt_stdio_output@@@2@@__crt_stdio_output@@CAPA_WXZ 10064be0 f i libucrtd:output.obj
 0001:00063bf0       ?wide_null_string@?$output_processor@_WV?$string_output_adapter@_W@__crt_stdio_output@@V?$positional_parameter_base@_WV?$string_output_adapter@_W@__crt_stdio_output@@@2@@__crt_stdio_output@@CAPA_WXZ 10064bf0 f i libucrtd:output.obj
 0001:00063c00       ?wide_null_string@?$output_processor@_WV?$string_output_adapter@_W@__crt_stdio_output@@V?$standard_base@_WV?$string_output_adapter@_W@__crt_stdio_output@@@2@@__crt_stdio_output@@CAPA_WXZ 10064c00 f i libucrtd:output.obj
 0001:00063c10       ?write_character@?$output_adapter_common@DV?$stream_output_adapter@D@__crt_stdio_output@@@__crt_stdio_output@@QBEXDQAH@Z 10064c10 f i libucrtd:output.obj
 0001:00063c50       ?write_character@?$output_adapter_common@_WV?$stream_output_adapter@_W@__crt_stdio_output@@@__crt_stdio_output@@QBEX_WQAH@Z 10064c50 f i libucrtd:output.obj
 0001:00063c90       ?write_character@?$string_output_adapter@D@__crt_stdio_output@@QBE_NDQAH@Z 10064c90 f i libucrtd:output.obj
 0001:00063d20       ?write_character@?$string_output_adapter@_W@__crt_stdio_output@@QBE_N_WQAH@Z 10064d20 f i libucrtd:output.obj
 0001:00063dc0       ?write_character_without_count_update@?$stream_output_adapter@D@__crt_stdio_output@@QBE_ND@Z 10064dc0 f i libucrtd:output.obj
 0001:00063e30       ?write_character_without_count_update@?$stream_output_adapter@_W@__crt_stdio_output@@QBE_N_W@Z 10064e30 f i libucrtd:output.obj
 0001:00063ea0       ?write_stored_string_tchar@?$output_processor@DV?$stream_output_adapter@D@__crt_stdio_output@@V?$format_validation_base@DV?$stream_output_adapter@D@__crt_stdio_output@@@2@@__crt_stdio_output@@AAE_ND@Z 10064ea0 f i libucrtd:output.obj
 0001:00063fc0       ?write_stored_string_tchar@?$output_processor@DV?$stream_output_adapter@D@__crt_stdio_output@@V?$positional_parameter_base@DV?$stream_output_adapter@D@__crt_stdio_output@@@2@@__crt_stdio_output@@AAE_ND@Z 10064fc0 f i libucrtd:output.obj
 0001:000640e0       ?write_stored_string_tchar@?$output_processor@DV?$stream_output_adapter@D@__crt_stdio_output@@V?$standard_base@DV?$stream_output_adapter@D@__crt_stdio_output@@@2@@__crt_stdio_output@@AAE_ND@Z 100650e0 f i libucrtd:output.obj
 0001:00064200       ?write_stored_string_tchar@?$output_processor@DV?$string_output_adapter@D@__crt_stdio_output@@V?$format_validation_base@DV?$string_output_adapter@D@__crt_stdio_output@@@2@@__crt_stdio_output@@AAE_ND@Z 10065200 f i libucrtd:output.obj
 0001:00064320       ?write_stored_string_tchar@?$output_processor@DV?$string_output_adapter@D@__crt_stdio_output@@V?$positional_parameter_base@DV?$string_output_adapter@D@__crt_stdio_output@@@2@@__crt_stdio_output@@AAE_ND@Z 10065320 f i libucrtd:output.obj
 0001:00064440       ?write_stored_string_tchar@?$output_processor@DV?$string_output_adapter@D@__crt_stdio_output@@V?$standard_base@DV?$string_output_adapter@D@__crt_stdio_output@@@2@@__crt_stdio_output@@AAE_ND@Z 10065440 f i libucrtd:output.obj
 0001:00064560       ?write_stored_string_tchar@?$output_processor@_WV?$stream_output_adapter@_W@__crt_stdio_output@@V?$format_validation_base@_WV?$stream_output_adapter@_W@__crt_stdio_output@@@2@@__crt_stdio_output@@AAE_N_W@Z 10065560 f i libucrtd:output.obj
 0001:00064650       ?write_stored_string_tchar@?$output_processor@_WV?$stream_output_adapter@_W@__crt_stdio_output@@V?$positional_parameter_base@_WV?$stream_output_adapter@_W@__crt_stdio_output@@@2@@__crt_stdio_output@@AAE_N_W@Z 10065650 f i libucrtd:output.obj
 0001:00064740       ?write_stored_string_tchar@?$output_processor@_WV?$stream_output_adapter@_W@__crt_stdio_output@@V?$standard_base@_WV?$stream_output_adapter@_W@__crt_stdio_output@@@2@@__crt_stdio_output@@AAE_N_W@Z 10065740 f i libucrtd:output.obj
 0001:00064830       ?write_stored_string_tchar@?$output_processor@_WV?$string_output_adapter@_W@__crt_stdio_output@@V?$format_validation_base@_WV?$string_output_adapter@_W@__crt_stdio_output@@@2@@__crt_stdio_output@@AAE_N_W@Z 10065830 f i libucrtd:output.obj
 0001:00064920       ?write_stored_string_tchar@?$output_processor@_WV?$string_output_adapter@_W@__crt_stdio_output@@V?$positional_parameter_base@_WV?$string_output_adapter@_W@__crt_stdio_output@@@2@@__crt_stdio_output@@AAE_N_W@Z 10065920 f i libucrtd:output.obj
 0001:00064a10       ?write_stored_string_tchar@?$output_processor@_WV?$string_output_adapter@_W@__crt_stdio_output@@V?$standard_base@_WV?$string_output_adapter@_W@__crt_stdio_output@@@2@@__crt_stdio_output@@AAE_N_W@Z 10065a10 f i libucrtd:output.obj
 0001:00064b00       ?write_string@?$stream_output_adapter@D@__crt_stdio_output@@QBEXQBDHQAHAAV__crt_deferred_errno_cache@@@Z 10065b00 f i libucrtd:output.obj
 0001:00064b60       ?write_string@?$stream_output_adapter@_W@__crt_stdio_output@@QBEXQB_WHQAHAAV__crt_deferred_errno_cache@@@Z 10065b60 f i libucrtd:output.obj
 0001:00064bc0       ?write_string@?$string_output_adapter@D@__crt_stdio_output@@QBEXQBDHQAHAAV__crt_deferred_errno_cache@@@Z 10065bc0 f i libucrtd:output.obj
 0001:00064cc0       ?write_string@?$string_output_adapter@_W@__crt_stdio_output@@QBEXQB_WHQAHAAV__crt_deferred_errno_cache@@@Z 10065cc0 f i libucrtd:output.obj
 0001:00064dd0       ?write_string_impl@?$output_adapter_common@DV?$stream_output_adapter@D@__crt_stdio_output@@@__crt_stdio_output@@IBEXQBDHQAHAAV__crt_deferred_errno_cache@@@Z 10065dd0 f i libucrtd:output.obj
 0001:00064e70       ?write_string_impl@?$output_adapter_common@_WV?$stream_output_adapter@_W@__crt_stdio_output@@@__crt_stdio_output@@IBEXQB_WHQAHAAV__crt_deferred_errno_cache@@@Z 10065e70 f i libucrtd:output.obj
 0001:00064f10       ___acrt_disable_global_locale_sync 10065f10 f i libucrtd:output.obj
 0001:00064f30       ___acrt_enable_global_locale_sync 10065f30 f i libucrtd:output.obj
 0001:00064f50       ___acrt_isleadbyte_l_noupdate 10065f50 f i libucrtd:output.obj
 0001:00064f70       ___acrt_locale_changed     10065f70 f i libucrtd:output.obj
 0001:00064fa0       ___acrt_locale_get_ctype_array_value 10065fa0 f i libucrtd:output.obj
 0001:00064fd0       ___stdio_common_vfprintf   10065fd0 f   libucrtd:output.obj
 0001:00065000       ___stdio_common_vfprintf_p 10066000 f   libucrtd:output.obj
 0001:00065030       ___stdio_common_vfprintf_s 10066030 f   libucrtd:output.obj
 0001:00065060       ___stdio_common_vfwprintf  10066060 f   libucrtd:output.obj
 0001:00065090       ___stdio_common_vfwprintf_p 10066090 f   libucrtd:output.obj
 0001:000650c0       ___stdio_common_vfwprintf_s 100660c0 f   libucrtd:output.obj
 0001:000650f0       ___stdio_common_vsnprintf_s 100660f0 f   libucrtd:output.obj
 0001:00065120       ___stdio_common_vsnwprintf_s 10066120 f   libucrtd:output.obj
 0001:00065150       ___stdio_common_vsprintf   10066150 f   libucrtd:output.obj
 0001:00065180       ___stdio_common_vsprintf_p 10066180 f   libucrtd:output.obj
 0001:000651b0       ___stdio_common_vsprintf_s 100661b0 f   libucrtd:output.obj
 0001:000651e0       ___stdio_common_vswprintf  100661e0 f   libucrtd:output.obj
 0001:00065210       ___stdio_common_vswprintf_p 10066210 f   libucrtd:output.obj
 0001:00065240       ___stdio_common_vswprintf_s 10066240 f   libucrtd:output.obj
 0001:00065270       __ctype_fast_check_internal 10066270 f i libucrtd:output.obj
 0001:00065290       __isdigit_fast_internal    10066290 f i libucrtd:output.obj
 0001:000652b0       __tolower_fast_internal    100662b0 f i libucrtd:output.obj
 0001:000652d0       _free                      100662d0 f   libucrtd:free.obj
 0001:00065300       _malloc                    10066300 f   libucrtd:malloc.obj
 0001:00065320       ??$?RU?$__crt_report_hook_node@D@@@__crt_internal_free_policy@@QBEXQBU?$__crt_report_hook_node@D@@@Z 10066320 f i libucrtd:dbgrpt.obj
 0001:00065340       ??$?RU?$__crt_report_hook_node@_W@@@__crt_internal_free_policy@@QBEXQBU?$__crt_report_hook_node@_W@@@Z 10066340 f i libucrtd:dbgrpt.obj
 0001:00066130       ??$get_module_file_name@AAPAUHINSTANCE__@@AAY0BAF@DK@?$__crt_char_traits@D@@SAKAAPAUHINSTANCE__@@AAY0BAF@D$$QAK@Z 10067130 f i libucrtd:dbgrpt.obj
 0001:00066150       ??$get_module_file_name@AAPAUHINSTANCE__@@AAY0BAF@_WK@?$__crt_char_traits@_W@@SAKAAPAUHINSTANCE__@@AAY0BAF@_W$$QAK@Z 10067150 f i libucrtd:dbgrpt.obj
 0001:00066170       ??$tcscpy_s@AAY0BAF@DIPBD@?$__crt_char_traits@D@@SAHAAY0BAF@D$$QAI$$QAPBD@Z 10067170 f i libucrtd:dbgrpt.obj
 0001:00066190       ??$tcscpy_s@AAY0BAF@_WIPB_W@?$__crt_char_traits@_W@@SAHAAY0BAF@_W$$QAI$$QAPB_W@Z 10067190 f i libucrtd:dbgrpt.obj
 0001:000661b0       ??$tcslen@AAY0BAF@D@?$__crt_char_traits@D@@SAIAAY0BAF@D@Z 100671b0 f i libucrtd:dbgrpt.obj
 0001:000661d0       ??$tcslen@AAY0BAF@_W@?$__crt_char_traits@_W@@SAIAAY0BAF@_W@Z 100671d0 f i libucrtd:dbgrpt.obj
 0001:000661f0       ??$tcslen@ABQBD@?$__crt_char_traits@D@@SAIABQBD@Z 100671f0 f i libucrtd:dbgrpt.obj
 0001:00066210       ??$tcslen@ABQB_W@?$__crt_char_traits@_W@@SAIABQB_W@Z 10067210 f i libucrtd:dbgrpt.obj
 0001:00066310       ??0?$__crt_unique_heap_ptr@U?$__crt_report_hook_node@D@@U__crt_internal_free_policy@@@@QAE@QAU?$__crt_report_hook_node@D@@@Z 10067310 f i libucrtd:dbgrpt.obj
 0001:00066330       ??0?$__crt_unique_heap_ptr@U?$__crt_report_hook_node@_W@@U__crt_internal_free_policy@@@@QAE@QAU?$__crt_report_hook_node@_W@@@Z 10067330 f i libucrtd:dbgrpt.obj
 0001:00066350       ??1?$__crt_unique_heap_ptr@U?$__crt_report_hook_node@D@@U__crt_internal_free_policy@@@@QAE@XZ 10067350 f i libucrtd:dbgrpt.obj
 0001:00066370       ??1?$__crt_unique_heap_ptr@U?$__crt_report_hook_node@_W@@U__crt_internal_free_policy@@@@QAE@XZ 10067370 f i libucrtd:dbgrpt.obj
 0001:00066390       ??B?$__crt_unique_heap_ptr@U?$__crt_report_hook_node@D@@U__crt_internal_free_policy@@@@QBE_NXZ 10067390 f i libucrtd:dbgrpt.obj
 0001:000663b0       ??B?$__crt_unique_heap_ptr@U?$__crt_report_hook_node@_W@@U__crt_internal_free_policy@@@@QBE_NXZ 100673b0 f i libucrtd:dbgrpt.obj
 0001:000668f0       ?detach@?$__crt_unique_heap_ptr@U?$__crt_report_hook_node@D@@U__crt_internal_free_policy@@@@QAEPAU?$__crt_report_hook_node@D@@XZ 100678f0 f i libucrtd:dbgrpt.obj
 0001:00066920       ?detach@?$__crt_unique_heap_ptr@U?$__crt_report_hook_node@_W@@U__crt_internal_free_policy@@@@QAEPAU?$__crt_report_hook_node@_W@@XZ 10067920 f i libucrtd:dbgrpt.obj
 0001:00066950       ?get@?$__crt_unique_heap_ptr@U?$__crt_report_hook_node@D@@U__crt_internal_free_policy@@@@QBEPAU?$__crt_report_hook_node@D@@XZ 10067950 f i libucrtd:dbgrpt.obj
 0001:00066970       ?get@?$__crt_unique_heap_ptr@U?$__crt_report_hook_node@_W@@U__crt_internal_free_policy@@@@QBEPAU?$__crt_report_hook_node@_W@@XZ 10067970 f i libucrtd:dbgrpt.obj
 0001:000669f0       ?is_valid@?$__crt_unique_heap_ptr@U?$__crt_report_hook_node@D@@U__crt_internal_free_policy@@@@QBE_NXZ 100679f0 f i libucrtd:dbgrpt.obj
 0001:00066a20       ?is_valid@?$__crt_unique_heap_ptr@U?$__crt_report_hook_node@_W@@U__crt_internal_free_policy@@@@QBE_NXZ 10067a20 f i libucrtd:dbgrpt.obj
 0001:00066a50       ?release@?$__crt_unique_heap_ptr@U?$__crt_report_hook_node@D@@U__crt_internal_free_policy@@@@QAEXXZ 10067a50 f i libucrtd:dbgrpt.obj
 0001:00066a80       ?release@?$__crt_unique_heap_ptr@U?$__crt_report_hook_node@_W@@U__crt_internal_free_policy@@@@QAEXXZ 10067a80 f i libucrtd:dbgrpt.obj
 0001:00066ab0       __CrtDbgReport             10067ab0 f   libucrtd:dbgrpt.obj
 0001:00066b00       __CrtDbgReportW            10067b00 f   libucrtd:dbgrpt.obj
 0001:00066b50       __CrtSetReportHook2        10067b50 f   libucrtd:dbgrpt.obj
 0001:00066b70       __CrtSetReportHookW2       10067b70 f   libucrtd:dbgrpt.obj
 0001:00066b90       ___acrt_MessageWindowA     10067b90 f   libucrtd:dbgrpt.obj
 0001:00066bc0       ___acrt_MessageWindowW     10067bc0 f   libucrtd:dbgrpt.obj
 0001:00066bf0       __invoke_watson_if_error   10067bf0 f i libucrtd:dbgrpt.obj
 0001:00066c20       __invoke_watson_if_oneof   10067c20 f i libucrtd:dbgrpt.obj
 0001:00066c60       __snwprintf_s              10067c60 f i libucrtd:dbgrpt.obj
 0001:00066ca0       __vsnwprintf_s_l           10067ca0 f i libucrtd:dbgrpt.obj
 0001:00067020       _wcscpy_s                  10068020 f   libucrtd:wcscpy_s.obj
 0001:00067d40       ??1?$__crt_simd_cleanup_guard@$00@@QAE@XZ 10068d40 f i libucrtd:strnlen.obj
 0001:00067d50       ??1?$__crt_simd_cleanup_guard@$0A@@@QAE@XZ 10068d50 f i libucrtd:strnlen.obj
 0001:00067d60       ?compare_equals@?$__crt_simd_traits@$00E@@SA?AT__m256i@@T2@0@Z 10068d60 f i libucrtd:strnlen.obj
 0001:00067da0       ?compare_equals@?$__crt_simd_traits@$00G@@SA?AT__m256i@@T2@0@Z 10068da0 f i libucrtd:strnlen.obj
 0001:00067de0       ?compare_equals@?$__crt_simd_traits@$0A@E@@SA?AT__m128i@@T2@0@Z 10068de0 f i libucrtd:strnlen.obj
 0001:00067e20       ?compare_equals@?$__crt_simd_traits@$0A@G@@SA?AT__m128i@@T2@0@Z 10068e20 f i libucrtd:strnlen.obj
 0001:00067e60       ?compute_byte_mask@?$__crt_simd_pack_traits@$00@@SAHT__m256i@@@Z 10068e60 f i libucrtd:strnlen.obj
 0001:00067e90       ?compute_byte_mask@?$__crt_simd_pack_traits@$0A@@@SAHT__m128i@@@Z 10068e90 f i libucrtd:strnlen.obj
 0001:00067ec0       ?get_zero_pack@?$__crt_simd_pack_traits@$00@@SA?AT__m256i@@XZ 10068ec0 f i libucrtd:strnlen.obj
 0001:00067ef0       ?get_zero_pack@?$__crt_simd_pack_traits@$0A@@@SA?AT__m128i@@XZ 10068ef0 f i libucrtd:strnlen.obj
 0001:00067f20       _strnlen                   10068f20 f   libucrtd:strnlen.obj
 0001:00067f40       _wcslen                    10068f40 f   libucrtd:strnlen.obj
 0001:00067f60       _wcsnlen                   10068f60 f   libucrtd:strnlen.obj
 0001:00067f80       ??$__crt_fast_decode_pointer@P6AXPB_W00II@Z@@YAP6AXPB_W00II@ZQ6AX000II@Z@Z 10068f80 f i libucrtd:invalid_parameter.obj
 0001:00067fb0       ??$__crt_fast_encode_pointer@P6AXPB_W00II@Z@@YAP6AXPB_W00II@ZQ6AX000II@Z@Z 10068fb0 f i libucrtd:invalid_parameter.obj
 0001:00067fe0       ??$initialize_from_array@$$BY00Q6AXPB_W00II@Z@?$dual_state_global@P6AXPB_W00II@Z@__crt_state_management@@QAAXAAY00Q6AXPB_W00II@Z@Z 10068fe0 f i libucrtd:invalid_parameter.obj
 0001:00068030       ?__crt_rotate_pointer_value@@YAIIH@Z 10069030 f i libucrtd:invalid_parameter.obj
 0001:00068040       ?dangerous_get_state_array@?$dual_state_global@P6AXPB_W00II@Z@__crt_state_management@@QAEPAP6AXPB_W00II@ZXZ 10069040 f i libucrtd:invalid_parameter.obj
 0001:00068050       ?get_current_state_index@__crt_state_management@@YAIXZ 10069050 f i libucrtd:invalid_parameter.obj
 0001:00068060       ?value@?$dual_state_global@P6AXPB_W00II@Z@__crt_state_management@@QAEAAP6AXPB_W00II@ZXZ 10069060 f i libucrtd:invalid_parameter.obj
 0001:00068080       ___acrt_call_reportfault   10069080 f   libucrtd:invalid_parameter.obj
 0001:000681e0       ___acrt_initialize_invalid_parameter_handler 100691e0 f   libucrtd:invalid_parameter.obj
 0001:00068210       __get_invalid_parameter_handler 10069210 f   libucrtd:invalid_parameter.obj
 0001:00068230       __get_thread_local_invalid_parameter_handler 10069230 f   libucrtd:invalid_parameter.obj
 0001:00068260       __invalid_parameter        10069260 f   libucrtd:invalid_parameter.obj
 0001:00068320       __invalid_parameter_noinfo 10069320 f   libucrtd:invalid_parameter.obj
 0001:00068340       __invalid_parameter_noinfo_noreturn 10069340 f   libucrtd:invalid_parameter.obj
 0001:00068370       __invoke_watson            10069370 f   libucrtd:invalid_parameter.obj
 0001:000683b0       __set_invalid_parameter_handler 100693b0 f   libucrtd:invalid_parameter.obj
 0001:00068400       __set_thread_local_invalid_parameter_handler 10069400 f   libucrtd:invalid_parameter.obj
 0001:00068430       ___acrt_errno_from_os_error 10069430 f   libucrtd:errno.obj
 0001:000684b0       ___acrt_errno_map_os_error 100694b0 f   libucrtd:errno.obj
 0001:000684e0       ___doserrno                100694e0 f   libucrtd:errno.obj
 0001:00068510       __errno                    10069510 f   libucrtd:errno.obj
 0001:00068540       __get_doserrno             10069540 f   libucrtd:errno.obj
 0001:000685d0       __get_errno                100695d0 f   libucrtd:errno.obj
 0001:00068660       __set_doserrno             10069660 f   libucrtd:errno.obj
 0001:00068690       __set_errno                10069690 f   libucrtd:errno.obj
 0001:000686c0       _calloc                    100696c0 f   libucrtd:calloc.obj
 0001:000686e0       __recalloc                 100696e0 f   libucrtd:recalloc.obj
 0001:00068710       __recalloc_base            10069710 f   libucrtd:recalloc.obj
 0001:000687aa       __resetstkoflw             100697aa f   libucrtd:resetstk.obj
 0001:00068c90       _wcscat_s                  10069c90 f   libucrtd:wcscat_s.obj
 0001:000690e0       _wcsncpy_s                 1006a0e0 f   libucrtd:wcsncpy_s.obj
 0001:00069220       ___isascii                 1006a220 f   libucrtd:_ctype.obj
 0001:00069250       ___iscsym                  1006a250 f   libucrtd:_ctype.obj
 0001:00069290       ___iscsymf                 1006a290 f   libucrtd:_ctype.obj
 0001:000692d0       ___toascii                 1006a2d0 f   libucrtd:_ctype.obj
 0001:000692e0       __isalnum_l                1006a2e0 f   libucrtd:_ctype.obj
 0001:00069300       __isalpha_l                1006a300 f   libucrtd:_ctype.obj
 0001:00069320       __isblank_l                1006a320 f   libucrtd:_ctype.obj
 0001:00069340       __iscntrl_l                1006a340 f   libucrtd:_ctype.obj
 0001:00069360       __iscsym_l                 1006a360 f   libucrtd:_ctype.obj
 0001:000693a0       __iscsymf_l                1006a3a0 f   libucrtd:_ctype.obj
 0001:000693e0       __isdigit_l                1006a3e0 f   libucrtd:_ctype.obj
 0001:00069400       __isgraph_l                1006a400 f   libucrtd:_ctype.obj
 0001:00069420       __islower_l                1006a420 f   libucrtd:_ctype.obj
 0001:00069440       __isprint_l                1006a440 f   libucrtd:_ctype.obj
 0001:00069460       __ispunct_l                1006a460 f   libucrtd:_ctype.obj
 0001:00069480       __isspace_l                1006a480 f   libucrtd:_ctype.obj
 0001:000694a0       __isupper_l                1006a4a0 f   libucrtd:_ctype.obj
 0001:000694c0       __isxdigit_l               1006a4c0 f   libucrtd:_ctype.obj
 0001:000694e0       _isalnum                   1006a4e0 f   libucrtd:_ctype.obj
 0001:00069500       _isalpha                   1006a500 f   libucrtd:_ctype.obj
 0001:00069520       _isblank                   1006a520 f   libucrtd:_ctype.obj
 0001:00069550       _iscntrl                   1006a550 f   libucrtd:_ctype.obj
 0001:00069570       _isdigit                   1006a570 f   libucrtd:_ctype.obj
 0001:00069590       _isgraph                   1006a590 f   libucrtd:_ctype.obj
 0001:000695b0       _islower                   1006a5b0 f   libucrtd:_ctype.obj
 0001:000695d0       _isprint                   1006a5d0 f   libucrtd:_ctype.obj
 0001:000695f0       _ispunct                   1006a5f0 f   libucrtd:_ctype.obj
 0001:00069610       _isspace                   1006a610 f   libucrtd:_ctype.obj
 0001:00069630       _isupper                   1006a630 f   libucrtd:_ctype.obj
 0001:00069650       _isxdigit                  1006a650 f   libucrtd:_ctype.obj
 0001:00069670       _wcscat                    1006a670 f   libucrtd:wcscat.obj
 0001:000696d0       _wcscpy                    1006a6d0 f   libucrtd:wcscpy.obj
 0001:00069d60       ??$open_file@ABQBDABQBDABHPAU_iobuf@@@?$__crt_char_traits@D@@SAPAU_iobuf@@ABQBD0ABH$$QAPAU1@@Z 1006ad60 f i libucrtd:fopen.obj
 0001:00069d90       ??$open_file@ABQB_WABQB_WABHPAU_iobuf@@@?$__crt_char_traits@_W@@SAPAU_iobuf@@ABQB_W0ABH$$QAPAU1@@Z 1006ad90 f i libucrtd:fopen.obj
 0001:00069dc0       ?unlock@__crt_stdio_stream@@QBEXXZ 1006adc0 f i libucrtd:fopen.obj
 0001:00069de0       __fsopen                   1006ade0 f   libucrtd:fopen.obj
 0001:00069e00       __wfopen                   1006ae00 f   libucrtd:fopen.obj
 0001:00069e20       __wfopen_s                 1006ae20 f   libucrtd:fopen.obj
 0001:00069e40       __wfsopen                  1006ae40 f   libucrtd:fopen.obj
 0001:00069e60       _fopen                     1006ae60 f   libucrtd:fopen.obj
 0001:00069e80       _fopen_s                   1006ae80 f   libucrtd:fopen.obj
 0001:00069ea0       ?is_in_use@__crt_stdio_stream@@QBE_NXZ 1006aea0 f i libucrtd:fclose.obj
 0001:00069ee0       __fclose_nolock            1006aee0 f   libucrtd:fclose.obj
 0001:0006a020       _fclose                    1006b020 f   libucrtd:fclose.obj
 0001:0006a170       __fputc_nolock             1006b170 f   libucrtd:fputc.obj
 0001:0006a200       __fputchar                 1006b200 f   libucrtd:fputc.obj
 0001:0006a220       __putc_nolock              1006b220 f   libucrtd:fputc.obj
 0001:0006a240       _fputc                     1006b240 f   libucrtd:fputc.obj
 0001:0006a480       _putc                      1006b480 f   libucrtd:fputc.obj
 0001:0006a4a0       _putchar                   1006b4a0 f   libucrtd:fputc.obj
 0001:0006a510       __seh_filter_dll           1006b510 f   libucrtd:exception_filter.obj
 0001:0006a540       __seh_filter_exe           1006b540 f   libucrtd:exception_filter.obj
 0001:0006a750       ??$?B$$A6GXPAXK0@Z@__crt_fast_encoded_nullptr_t@@QBEP6GXPAXK0@ZXZ 1006b750 f i libucrtd:exit.obj
 0001:0006a830       ??$__crt_fast_decode_pointer@P6GXPAXK0@Z@@YAP6GXPAXK0@ZQ6GX0K0@Z@Z 1006b830 f i libucrtd:exit.obj
 0001:0006a860       ??$__crt_fast_encode_pointer@P6GXPAXK0@Z@@YAP6GXPAXK0@ZQ6GX0K0@Z@Z 1006b860 f i libucrtd:exit.obj
 0001:0006a890       ??$__crt_get_proc_address@P6GXI@Z@@YAP6GXI@ZQAUHINSTANCE__@@QBD@Z 1006b890 f i libucrtd:exit.obj
 0001:0006a920       ??0?$__crt_unique_handle_t@U__crt_hmodule_traits@@@@QAE@QAUHINSTANCE__@@@Z 1006b920 f i libucrtd:exit.obj
 0001:0006a940       ??1?$__crt_unique_handle_t@U__crt_hmodule_traits@@@@QAE@XZ 1006b940 f i libucrtd:exit.obj
 0001:0006ab00       ?__acrt_select_exit_lock@@YA?AW4__acrt_lock_id@@XZ 1006bb00 f i libucrtd:exit.obj
 0001:0006ab10       ?__crt_fast_encode_pointer@@YA?AU__crt_fast_encoded_nullptr_t@@$$T@Z 1006bb10 f i libucrtd:exit.obj
 0001:0006ab40       ?close@?$__crt_unique_handle_t@U__crt_hmodule_traits@@@@QAEXXZ 1006bb40 f i libucrtd:exit.obj
 0001:0006ab80       ?close@__crt_hmodule_traits@@SA_NPAUHINSTANCE__@@@Z 1006bb80 f i libucrtd:exit.obj
 0001:0006ac70       ?get@?$__crt_unique_handle_t@U__crt_hmodule_traits@@@@QBEPAUHINSTANCE__@@XZ 1006bc70 f i libucrtd:exit.obj
 0001:0006ac90       ?get_address_of@?$__crt_unique_handle_t@U__crt_hmodule_traits@@@@QAEPAPAUHINSTANCE__@@XZ 1006bc90 f i libucrtd:exit.obj
 0001:0006aca0       ?get_invalid_value@__crt_hmodule_traits@@SAPAUHINSTANCE__@@XZ 1006bca0 f i libucrtd:exit.obj
 0001:0006ae20       __Exit                     1006be20 f   libucrtd:exit.obj
 0001:0006ae40       ___acrt_initialize_thread_local_exit_callback 1006be40 f   libucrtd:exit.obj
 0001:0006ae50       __c_exit                   1006be50 f   libucrtd:exit.obj
 0001:0006ae70       __cexit                    1006be70 f   libucrtd:exit.obj
 0001:0006ae90       __exit                     1006be90 f   libucrtd:exit.obj
 0001:0006aeb0       __is_c_termination_complete 1006beb0 f   libucrtd:exit.obj
 0001:0006aed0       __register_thread_local_exe_atexit_callback 1006bed0 f   libucrtd:exit.obj
 0001:0006af10       _exit                      1006bf10 f   libucrtd:exit.obj
 0001:0006af30       _quick_exit                1006bf30 f   libucrtd:exit.obj
 0001:0006af50       ??$?RE@__crt_internal_free_policy@@QBEXQBE@Z 1006bf50 f i libucrtd:argv_parsing.obj
 0001:0006af70       ??$?RPAD@__crt_internal_free_policy@@QBEXQBQAD@Z 1006bf70 f i libucrtd:argv_parsing.obj
 0001:0006af90       ??$?RPA_W@__crt_internal_free_policy@@QBEXQBQA_W@Z 1006bf90 f i libucrtd:argv_parsing.obj
 0001:0006b4f0       ??$get_module_file_name@$$TAAY0BAF@DH@?$__crt_char_traits@D@@SAK$$QA$$TAAY0BAF@D$$QAH@Z 1006c4f0 f i libucrtd:argv_parsing.obj
 0001:0006b510       ??$get_module_file_name@$$TAAY0BAF@_WH@?$__crt_char_traits@_W@@SAK$$QA$$TAAY0BAF@_W$$QAH@Z 1006c510 f i libucrtd:argv_parsing.obj
 0001:0006bc30       ??$set_program_name@PAD@?$__crt_char_traits@D@@SAX$$QAPAD@Z 1006cc30 f i libucrtd:argv_parsing.obj
 0001:0006bc50       ??$set_program_name@PA_W@?$__crt_char_traits@_W@@SAX$$QAPA_W@Z 1006cc50 f i libucrtd:argv_parsing.obj
 0001:0006bcb0       ??0?$__crt_unique_heap_ptr@EU__crt_internal_free_policy@@@@QAE@QAE@Z 1006ccb0 f i libucrtd:argv_parsing.obj
 0001:0006bcd0       ??0?$__crt_unique_heap_ptr@PADU__crt_internal_free_policy@@@@QAE@QAPAD@Z 1006ccd0 f i libucrtd:argv_parsing.obj
 0001:0006bcf0       ??0?$__crt_unique_heap_ptr@PA_WU__crt_internal_free_policy@@@@QAE@QAPA_W@Z 1006ccf0 f i libucrtd:argv_parsing.obj
 0001:0006bd10       ??1?$__crt_unique_heap_ptr@EU__crt_internal_free_policy@@@@QAE@XZ 1006cd10 f i libucrtd:argv_parsing.obj
 0001:0006bd30       ??1?$__crt_unique_heap_ptr@PADU__crt_internal_free_policy@@@@QAE@XZ 1006cd30 f i libucrtd:argv_parsing.obj
 0001:0006bd50       ??1?$__crt_unique_heap_ptr@PA_WU__crt_internal_free_policy@@@@QAE@XZ 1006cd50 f i libucrtd:argv_parsing.obj
 0001:0006bd70       ??B?$__crt_unique_heap_ptr@EU__crt_internal_free_policy@@@@QBE_NXZ 1006cd70 f i libucrtd:argv_parsing.obj
 0001:0006be30       ?detach@?$__crt_unique_heap_ptr@EU__crt_internal_free_policy@@@@QAEPAEXZ 1006ce30 f i libucrtd:argv_parsing.obj
 0001:0006be60       ?detach@?$__crt_unique_heap_ptr@PADU__crt_internal_free_policy@@@@QAEPAPADXZ 1006ce60 f i libucrtd:argv_parsing.obj
 0001:0006be90       ?detach@?$__crt_unique_heap_ptr@PA_WU__crt_internal_free_policy@@@@QAEPAPA_WXZ 1006ce90 f i libucrtd:argv_parsing.obj
 0001:0006bf20       ?get@?$__crt_unique_heap_ptr@EU__crt_internal_free_policy@@@@QBEPAEXZ 1006cf20 f i libucrtd:argv_parsing.obj
 0001:0006bf40       ?get@?$__crt_unique_heap_ptr@PADU__crt_internal_free_policy@@@@QBEPAPADXZ 1006cf40 f i libucrtd:argv_parsing.obj
 0001:0006bf60       ?get@?$__crt_unique_heap_ptr@PA_WU__crt_internal_free_policy@@@@QBEPAPA_WXZ 1006cf60 f i libucrtd:argv_parsing.obj
 0001:0006bf80       ?get_address_of@?$__crt_unique_heap_ptr@PADU__crt_internal_free_policy@@@@QAEPAPAPADXZ 1006cf80 f i libucrtd:argv_parsing.obj
 0001:0006bf90       ?get_address_of@?$__crt_unique_heap_ptr@PA_WU__crt_internal_free_policy@@@@QAEPAPAPA_WXZ 1006cf90 f i libucrtd:argv_parsing.obj
 0001:0006bfe0       ?is_valid@?$__crt_unique_heap_ptr@EU__crt_internal_free_policy@@@@QBE_NXZ 1006cfe0 f i libucrtd:argv_parsing.obj
 0001:0006c010       ?release@?$__crt_unique_heap_ptr@EU__crt_internal_free_policy@@@@QAEXXZ 1006d010 f i libucrtd:argv_parsing.obj
 0001:0006c040       ?release@?$__crt_unique_heap_ptr@PADU__crt_internal_free_policy@@@@QAEXXZ 1006d040 f i libucrtd:argv_parsing.obj
 0001:0006c070       ?release@?$__crt_unique_heap_ptr@PA_WU__crt_internal_free_policy@@@@QAEXXZ 1006d070 f i libucrtd:argv_parsing.obj
 0001:0006c0e0       ___acrt_allocate_buffer_for_argv 1006d0e0 f   libucrtd:argv_parsing.obj
 0001:0006c1a0       __configure_narrow_argv    1006d1a0 f   libucrtd:argv_parsing.obj
 0001:0006c1c0       __configure_wide_argv      1006d1c0 f   libucrtd:argv_parsing.obj
 0001:0006c1e0       __set_pgmptr               1006d1e0 f i libucrtd:argv_parsing.obj
 0001:0006c1f0       __set_wpgmptr              1006d1f0 f i libucrtd:argv_parsing.obj
 0001:0006c1ff       ??$?R_W@__crt_internal_free_policy@@QBEXQB_W@Z 1006d1ff f i libucrtd:environment_initialization.obj
 0001:0006c668       ??$get_environment_from_os@$$V@?$__crt_char_traits@D@@SAPADXZ 1006d668 f i libucrtd:environment_initialization.obj
 0001:0006c66d       ??$get_environment_from_os@$$V@?$__crt_char_traits@_W@@SAPA_WXZ 1006d66d f i libucrtd:environment_initialization.obj
 0001:0006c796       ??$set_variable_in_environment_nolock@PADH@?$__crt_char_traits@D@@SAH$$QAPAD$$QAH@Z 1006d796 f i libucrtd:environment_initialization.obj
 0001:0006c7ae       ??$set_variable_in_environment_nolock@PA_WH@?$__crt_char_traits@_W@@SAH$$QAPA_W$$QAH@Z 1006d7ae f i libucrtd:environment_initialization.obj
 0001:0006c7c6       ??$tcscpy_s@PADABIAAPAD@?$__crt_char_traits@D@@SAH$$QAPADABIAAPAD@Z 1006d7c6 f i libucrtd:environment_initialization.obj
 0001:0006c7e4       ??$tcscpy_s@PA_WABIAAPA_W@?$__crt_char_traits@_W@@SAH$$QAPA_WABIAAPA_W@Z 1006d7e4 f i libucrtd:environment_initialization.obj
 0001:0006c802       ??$tcslen@AAPAD@?$__crt_char_traits@D@@SAIAAPAD@Z 1006d802 f i libucrtd:environment_initialization.obj
 0001:0006c81a       ??$tcslen@AAPA_W@?$__crt_char_traits@_W@@SAIAAPA_W@Z 1006d81a f i libucrtd:environment_initialization.obj
 0001:0006c838       ??$uninitialize@A6AXAAPAPAD@Z@?$dual_state_global@PAPAD@__crt_state_management@@QAEXA6AXAAPAPAD@Z@Z 1006d838 f i libucrtd:environment_initialization.obj
 0001:0006c861       ??$uninitialize@A6AXAAPAPA_W@Z@?$dual_state_global@PAPA_W@__crt_state_management@@QAEXA6AXAAPAPA_W@Z@Z 1006d861 f i libucrtd:environment_initialization.obj
 0001:0006c8c0       ??0?$__crt_unique_heap_ptr@_WU__crt_internal_free_policy@@@@QAE@QA_W@Z 1006d8c0 f i libucrtd:environment_initialization.obj
 0001:0006c8d0       ??1?$__crt_unique_heap_ptr@_WU__crt_internal_free_policy@@@@QAE@XZ 1006d8d0 f i libucrtd:environment_initialization.obj
 0001:0006c8e5       ??B?$__crt_unique_heap_ptr@PADU__crt_internal_free_policy@@@@QBE_NXZ 1006d8e5 f i libucrtd:environment_initialization.obj
 0001:0006c8ec       ??B?$__crt_unique_heap_ptr@PA_WU__crt_internal_free_policy@@@@QBE_NXZ 1006d8ec f i libucrtd:environment_initialization.obj
 0001:0006c8f3       ??B?$__crt_unique_heap_ptr@_WU__crt_internal_free_policy@@@@QBE_NXZ 1006d8f3 f i libucrtd:environment_initialization.obj
 0001:0006c8fa       ?__crt_compute_required_transform_buffer_count@@YAIIQBD@Z 1006d8fa f i libucrtd:environment_initialization.obj
 0001:0006c916       ?__crt_compute_required_transform_buffer_count@@YAIIQB_W@Z 1006d916 f i libucrtd:environment_initialization.obj
 0001:0006c934       ?__crt_transform_string@@YAIIQBDQA_WI@Z 1006d934 f i libucrtd:environment_initialization.obj
 0001:0006c953       ?__crt_transform_string@@YAIIQB_WQADI@Z 1006d953 f i libucrtd:environment_initialization.obj
 0001:0006c975       ?detach@?$__crt_unique_heap_ptr@DU__crt_internal_free_policy@@@@QAEPADXZ 1006d975 f i libucrtd:environment_initialization.obj
 0001:0006c97b       ?detach@?$__crt_unique_heap_ptr@_WU__crt_internal_free_policy@@@@QAEPA_WXZ 1006d97b f i libucrtd:environment_initialization.obj
 0001:0006c981       ?get@?$__crt_unique_heap_ptr@_WU__crt_internal_free_policy@@@@QBEPA_WXZ 1006d981 f i libucrtd:environment_initialization.obj
 0001:0006c9a8       ?initialize@?$dual_state_global@PAPAD@__crt_state_management@@QAEXQAPAD@Z 1006d9a8 f i libucrtd:environment_initialization.obj
 0001:0006c9ce       ?initialize@?$dual_state_global@PAPA_W@__crt_state_management@@QAEXQAPA_W@Z 1006d9ce f i libucrtd:environment_initialization.obj
 0001:0006c9f4       ?is_valid@?$__crt_unique_heap_ptr@PADU__crt_internal_free_policy@@@@QBE_NXZ 1006d9f4 f i libucrtd:environment_initialization.obj
 0001:0006c9fb       ?is_valid@?$__crt_unique_heap_ptr@PA_WU__crt_internal_free_policy@@@@QBE_NXZ 1006d9fb f i libucrtd:environment_initialization.obj
 0001:0006ca02       ?is_valid@?$__crt_unique_heap_ptr@_WU__crt_internal_free_policy@@@@QBE_NXZ 1006da02 f i libucrtd:environment_initialization.obj
 0001:0006ca11       ?release@?$__crt_unique_heap_ptr@_WU__crt_internal_free_policy@@@@QAEXXZ 1006da11 f i libucrtd:environment_initialization.obj
 0001:0006ca26       ?value@?$dual_state_global@PAPAD@__crt_state_management@@QAEAAPAPADXZ 1006da26 f i libucrtd:environment_initialization.obj
 0001:0006ca29       ?value@?$dual_state_global@PAPA_W@__crt_state_management@@QAEAAPAPA_WXZ 1006da29 f i libucrtd:environment_initialization.obj
 0001:0006ca2c       ___dcrt_get_or_create_narrow_environment_nolock 1006da2c f   libucrtd:environment_initialization.obj
 0001:0006ca31       ___dcrt_get_or_create_wide_environment_nolock 1006da31 f   libucrtd:environment_initialization.obj
 0001:0006ca36       ___dcrt_uninitialize_environments_nolock 1006da36 f   libucrtd:environment_initialization.obj
 0001:0006ca6d       ___p__environ              1006da6d f   libucrtd:environment_initialization.obj
 0001:0006ca73       ___p__wenviron             1006da73 f   libucrtd:environment_initialization.obj
 0001:0006ca79       __get_initial_narrow_environment 1006da79 f   libucrtd:environment_initialization.obj
 0001:0006ca8d       __get_initial_wide_environment 1006da8d f   libucrtd:environment_initialization.obj
 0001:0006caa1       __initialize_narrow_environment 1006daa1 f   libucrtd:environment_initialization.obj
 0001:0006caa6       __initialize_wide_environment 1006daa6 f   libucrtd:environment_initialization.obj
 0001:0006cab0       ??$?B$$A6AXXZ@__crt_fast_encoded_nullptr_t@@QBEP6AXXZXZ 1006dab0 f i libucrtd:onexit.obj
 0001:0006cad0       ??$?BP6AXXZ@__crt_fast_encoded_nullptr_t@@QBEPAP6AXXZXZ 1006dad0 f i libucrtd:onexit.obj
 0001:0006caf0       ??$?RP6AXXZ@__crt_internal_free_policy@@QBEXQBQ6AXXZ@Z 1006daf0 f i libucrtd:onexit.obj
 0001:0006ccb0       ??$__crt_fast_decode_pointer@P6AXXZ@@YAP6AXXZQ6AXXZ@Z 1006dcb0 f i libucrtd:onexit.obj
 0001:0006cce0       ??$__crt_fast_decode_pointer@PAP6AXXZ@@YAPAP6AXXZQAP6AXXZ@Z 1006dce0 f i libucrtd:onexit.obj
 0001:0006cd10       ??$__crt_fast_encode_pointer@P6AHXZ@@YAP6AHXZQ6AHXZ@Z 1006dd10 f i libucrtd:onexit.obj
 0001:0006cd40       ??$__crt_fast_encode_pointer@P6AXXZ@@YAP6AXXZQ6AXXZ@Z 1006dd40 f i libucrtd:onexit.obj
 0001:0006cd70       ??$__crt_fast_encode_pointer@PAP6AXXZ@@YAPAP6AXXZQAP6AXXZ@Z 1006dd70 f i libucrtd:onexit.obj
 0001:0006ce70       ??0?$__crt_unique_heap_ptr@P6AXXZU__crt_internal_free_policy@@@@QAE@QAP6AXXZ@Z 1006de70 f i libucrtd:onexit.obj
 0001:0006ce90       ??1?$__crt_unique_heap_ptr@P6AXXZU__crt_internal_free_policy@@@@QAE@XZ 1006de90 f i libucrtd:onexit.obj
 0001:0006ceb0       ??1scoped_global_state_reset@__crt_state_management@@QAE@XZ 1006deb0 f i libucrtd:onexit.obj
 0001:0006d320       ?detach@?$__crt_unique_heap_ptr@P6AXXZU__crt_internal_free_policy@@@@QAEPAP6AXXZXZ 1006e320 f i libucrtd:onexit.obj
 0001:0006d350       ?release@?$__crt_unique_heap_ptr@P6AXXZU__crt_internal_free_policy@@@@QAEXXZ 1006e350 f i libucrtd:onexit.obj
 0001:0006d380       __crt_at_quick_exit        1006e380 f   libucrtd:onexit.obj
 0001:0006d3a0       __crt_atexit               1006e3a0 f   libucrtd:onexit.obj
 0001:0006d3c0       __execute_onexit_table     1006e3c0 f   libucrtd:onexit.obj
 0001:0006d3f0       __initialize_onexit_table  1006e3f0 f   libucrtd:onexit.obj
 0001:0006d450       __register_onexit_function 1006e450 f   libucrtd:onexit.obj
 0001:0006d690       ??$?BX@__crt_fast_encoded_nullptr_t@@QBEPAXXZ 1006e690 f i libucrtd:initialization.obj
 0001:0006d6b0       ??$__crt_fast_encode_pointer@PAX@@YAPAXQAX@Z 1006e6b0 f i libucrtd:initialization.obj
 0001:0006d770       ?initialize@?$dual_state_global@PAU__crt_locale_data@@@__crt_state_management@@QAEXQAU__crt_locale_data@@@Z 1006e770 f i libucrtd:initialization.obj
 0001:0006d7b0       ___acrt_initialize         1006e7b0 f   libucrtd:initialization.obj
 0001:0006d7d0       ___acrt_thread_attach      1006e7d0 f   libucrtd:initialization.obj
 0001:0006d7f0       ___acrt_thread_detach      1006e7f0 f   libucrtd:initialization.obj
 0001:0006d800       ___acrt_uninitialize       1006e800 f   libucrtd:initialization.obj
 0001:0006d820       ___acrt_uninitialize_critical 1006e820 f   libucrtd:initialization.obj
 0001:0006f090       __CrtCheckMemory           10070090 f   libucrtd:debug_heap.obj
 0001:0006f220       __CrtDoForAllClientObjects 10070220 f   libucrtd:debug_heap.obj
 0001:0006f370       __CrtDumpMemoryLeaks       10070370 f   libucrtd:debug_heap.obj
 0001:0006f410       __CrtGetAllocHook          10070410 f   libucrtd:debug_heap.obj
 0001:0006f420       __CrtGetDumpClient         10070420 f   libucrtd:debug_heap.obj
 0001:0006f430       __CrtIsMemoryBlock         10070430 f   libucrtd:debug_heap.obj
 0001:0006f580       __CrtIsValidHeapPointer    10070580 f   libucrtd:debug_heap.obj
 0001:0006f5b0       __CrtIsValidPointer        100705b0 f   libucrtd:debug_heap.obj
 0001:0006f5e0       __CrtMemCheckpoint         100705e0 f   libucrtd:debug_heap.obj
 0001:0006f810       __CrtMemDifference         10070810 f   libucrtd:debug_heap.obj
 0001:0006fa80       __CrtMemDumpAllObjectsSince 10070a80 f   libucrtd:debug_heap.obj
 0001:0006fb20       __CrtMemDumpStatistics     10070b20 f   libucrtd:debug_heap.obj
 0001:0006fc50       __CrtReportBlockType       10070c50 f   libucrtd:debug_heap.obj
 0001:0006fc80       __CrtSetAllocHook          10070c80 f   libucrtd:debug_heap.obj
 0001:0006fca0       __CrtSetBreakAlloc         10070ca0 f   libucrtd:debug_heap.obj
 0001:0006fcc0       __CrtSetDbgBlockType       10070cc0 f   libucrtd:debug_heap.obj
 0001:0006fda0       __CrtSetDbgFlag            10070da0 f   libucrtd:debug_heap.obj
 0001:0006ff10       __CrtSetDumpClient         10070f10 f   libucrtd:debug_heap.obj
 0001:0006ff30       ___acrt_get_locale_data_prefix 10070f30 f i libucrtd:debug_heap.obj
 0001:0006ff50       ___p__crtBreakAlloc        10070f50 f   libucrtd:debug_heap.obj
 0001:0006ff60       ___p__crtDbgFlag           10070f60 f   libucrtd:debug_heap.obj
 0001:0006ff70       __aligned_free_dbg         10070f70 f   libucrtd:debug_heap.obj
 0001:00070020       __aligned_malloc_dbg       10071020 f   libucrtd:debug_heap.obj
 0001:00070050       __aligned_msize_dbg        10071050 f   libucrtd:debug_heap.obj
 0001:00070180       __aligned_offset_malloc_dbg 10071180 f   libucrtd:debug_heap.obj
 0001:00070360       __aligned_offset_realloc_dbg 10071360 f   libucrtd:debug_heap.obj
 0001:00070670       __aligned_offset_recalloc_dbg 10071670 f   libucrtd:debug_heap.obj
 0001:00070730       __aligned_realloc_dbg      10071730 f   libucrtd:debug_heap.obj
 0001:00070760       __aligned_recalloc_dbg     10071760 f   libucrtd:debug_heap.obj
 0001:00070790       __calloc_dbg               10071790 f   libucrtd:debug_heap.obj
 0001:00070800       __chvalidchk_l             10071800 f i libucrtd:debug_heap.obj
 0001:00070820       __expand_dbg               10071820 f   libucrtd:debug_heap.obj
 0001:00070950       __free_dbg                 10071950 f   libucrtd:debug_heap.obj
 0001:00070a00       __ischartype_l             10071a00 f i libucrtd:debug_heap.obj
 0001:00070a80       __malloc_dbg               10071a80 f   libucrtd:debug_heap.obj
 0001:00070aa0       __msize_dbg                10071aa0 f   libucrtd:debug_heap.obj
 0001:00070c30       __realloc_dbg              10071c30 f   libucrtd:debug_heap.obj
 0001:00070cd0       __recalloc_dbg             10071cd0 f   libucrtd:debug_heap.obj
 0001:00070d80       __initterm                 10071d80 f   libucrtd:initterm.obj
 0001:00070dd0       __initterm_e               10071dd0 f   libucrtd:initterm.obj
 0001:00071140       _strcpy_s                  10072140 f   libucrtd:strcpy_s.obj
 0001:00071570       _strcat_s                  10072570 f   libucrtd:strcat_s.obj
 0001:00071590       ??$?B$$A6AHI@Z@__crt_fast_encoded_nullptr_t@@QBEP6AHI@ZXZ 10072590 f i libucrtd:new_handler.obj
 0001:000715b0       ??$__crt_fast_decode_pointer@P6AHI@Z@@YAP6AHI@ZQ6AHI@Z@Z 100725b0 f i libucrtd:new_handler.obj
 0001:000715e0       ??$__crt_fast_encode_pointer@P6AHI@Z@@YAP6AHI@ZQ6AHI@Z@Z 100725e0 f i libucrtd:new_handler.obj
 0001:00071610       ?_set_new_handler@@YAP6AHI@ZH@Z 10072610 f   libucrtd:new_handler.obj
 0001:00071670       ?initialize@?$dual_state_global@P6AHI@Z@__crt_state_management@@QAEXQ6AHI@Z@Z 10072670 f i libucrtd:new_handler.obj
 0001:000716b0       ?value@?$dual_state_global@P6AHI@Z@__crt_state_management@@QAEAAP6AHI@ZXZ 100726b0 f i libucrtd:new_handler.obj
 0001:000716d0       ___acrt_initialize_new_handler 100726d0 f   libucrtd:new_handler.obj
 0001:000716f0       __callnewh                 100726f0 f   libucrtd:new_handler.obj
 0001:00071730       __query_new_handler        10072730 f   libucrtd:new_handler.obj
 0001:000717c0       __set_new_handler          100727c0 f   libucrtd:new_handler.obj
 0001:000718a0       __get_terminate            100728a0 f   libucrtd:terminate.obj
 0001:000718c0       _set_terminate             100728c0 f   libucrtd:terminate.obj
 0001:000718f0       _terminate                 100728f0 f   libucrtd:terminate.obj
 0001:000722c0       __makepath                 100732c0 f   libucrtd:makepath.obj
 0001:000722f0       __makepath_s               100732f0 f   libucrtd:makepath.obj
 0001:00072320       __wmakepath                10073320 f   libucrtd:makepath.obj
 0001:00072350       __wmakepath_s              10073350 f   libucrtd:makepath.obj
 0001:00073ca0       ??$tcsncpy_s@AAPADIAAPBDABI@?$__crt_char_traits@D@@SAHAAPAD$$QAIAAPBDABI@Z 10074ca0 f i libucrtd:splitpath.obj
 0001:00073cd0       ??$tcsncpy_s@AAPADIAAPBDH@?$__crt_char_traits@D@@SAHAAPAD$$QAIAAPBD$$QAH@Z 10074cd0 f i libucrtd:splitpath.obj
 0001:00073d00       ??$tcsncpy_s@AAPA_WIAAPB_WABI@?$__crt_char_traits@_W@@SAHAAPA_W$$QAIAAPB_WABI@Z 10074d00 f i libucrtd:splitpath.obj
 0001:00073d30       ??$tcsncpy_s@AAPA_WIAAPB_WH@?$__crt_char_traits@_W@@SAHAAPA_W$$QAIAAPB_W$$QAH@Z 10074d30 f i libucrtd:splitpath.obj
 0001:00073f70       __splitpath                10074f70 f   libucrtd:splitpath.obj
 0001:00073fa0       __splitpath_s              10074fa0 f   libucrtd:splitpath.obj
 0001:00073ff0       __wsplitpath               10074ff0 f   libucrtd:splitpath.obj
 0001:00074020       __wsplitpath_s             10075020 f   libucrtd:splitpath.obj
 0001:00074070       __set_abort_behavior       10075070 f   libucrtd:abort.obj
 0001:000740a0       _abort                     100750a0 f   libucrtd:abort.obj
 0001:00074110       _strcmp                    10075110 f   libucrtd:strcmp.obj
 0001:000741a0       _strlen                    100751a0 f   libucrtd:strlen.obj
 0001:00074230       ??$is_overflow_condition@K@__crt_strtox@@YA_NIK@Z 10075230 f i libucrtd:atox.obj
 0001:00074290       ??$is_overflow_condition@_K@__crt_strtox@@YA_NI_K@Z 10075290 f i libucrtd:atox.obj
 0001:00074320       ??$make_c_string_character_source@D$$T@__crt_strtox@@YA?AV?$c_string_character_source@D@0@QBD$$T@Z 10075320 f i libucrtd:atox.obj
 0001:00074340       ??$make_c_string_character_source@_W$$T@__crt_strtox@@YA?AV?$c_string_character_source@_W@0@QB_W$$T@Z 10075340 f i libucrtd:atox.obj
 0001:00074360       ??$parse_integer@KV?$c_string_character_source@D@__crt_strtox@@@__crt_strtox@@YAKQAU__crt_locale_pointers@@V?$c_string_character_source@D@0@H_N@Z 10075360 f i libucrtd:atox.obj
 0001:000746d0       ??$parse_integer@KV?$c_string_character_source@_W@__crt_strtox@@@__crt_strtox@@YAKQAU__crt_locale_pointers@@V?$c_string_character_source@_W@0@H_N@Z 100756d0 f i libucrtd:atox.obj
 0001:00074a40       ??$parse_integer@_KV?$c_string_character_source@D@__crt_strtox@@@__crt_strtox@@YA_KQAU__crt_locale_pointers@@V?$c_string_character_source@D@0@H_N@Z 10075a40 f i libucrtd:atox.obj
 0001:00074e60       ??$parse_integer@_KV?$c_string_character_source@_W@__crt_strtox@@@__crt_strtox@@YA_KQAU__crt_locale_pointers@@V?$c_string_character_source@_W@0@H_N@Z 10075e60 f i libucrtd:atox.obj
 0001:00075290       ??$parse_integer_from_string@JD$$T@__crt_strtox@@YAJQBD$$THQAU__crt_locale_pointers@@@Z 10076290 f i libucrtd:atox.obj
 0001:000752d0       ??$parse_integer_from_string@J_W$$T@__crt_strtox@@YAJQB_W$$THQAU__crt_locale_pointers@@@Z 100762d0 f i libucrtd:atox.obj
 0001:00075310       ??$parse_integer_from_string@_JD$$T@__crt_strtox@@YA_JQBD$$THQAU__crt_locale_pointers@@@Z 10076310 f i libucrtd:atox.obj
 0001:00075350       ??$parse_integer_from_string@_J_W$$T@__crt_strtox@@YA_JQB_W$$THQAU__crt_locale_pointers@@@Z 10076350 f i libucrtd:atox.obj
 0001:00075390       ??0?$c_string_character_source@D@__crt_strtox@@QAE@QBDQAPBD@Z 10076390 f i libucrtd:atox.obj
 0001:000753d0       ??0?$c_string_character_source@_W@__crt_strtox@@QAE@QB_WQAPB_W@Z 100763d0 f i libucrtd:atox.obj
 0001:00075410       ??1?$c_string_character_source@D@__crt_strtox@@QAE@XZ 10076410 f i libucrtd:atox.obj
 0001:00075440       ??1?$c_string_character_source@_W@__crt_strtox@@QAE@XZ 10076440 f i libucrtd:atox.obj
 0001:00075470       ?get@?$c_string_character_source@D@__crt_strtox@@QAEDXZ 10076470 f i libucrtd:atox.obj
 0001:000754a0       ?get@?$c_string_character_source@_W@__crt_strtox@@QAE_WXZ 100764a0 f i libucrtd:atox.obj
 0001:000754d0       ?is_space@__crt_strtox@@YA_NDQAU__crt_locale_pointers@@@Z 100764d0 f i libucrtd:atox.obj
 0001:00075510       ?is_space@__crt_strtox@@YA_N_WPAU__crt_locale_pointers@@@Z 10076510 f i libucrtd:atox.obj
 0001:00075540       ?maximum_signed_value@__crt_strtox@@YAJK@Z 10076540 f i libucrtd:atox.obj
 0001:00075550       ?maximum_signed_value@__crt_strtox@@YA_J_K@Z 10076550 f i libucrtd:atox.obj
 0001:00075560       ?minimum_signed_value@__crt_strtox@@YAJK@Z 10076560 f i libucrtd:atox.obj
 0001:00075570       ?minimum_signed_value@__crt_strtox@@YA_J_K@Z 10076570 f i libucrtd:atox.obj
 0001:00075580       ?parse_digit@__crt_strtox@@YAID@Z 10076580 f i libucrtd:atox.obj
 0001:000755e0       ?parse_digit@__crt_strtox@@YAI_W@Z 100765e0 f i libucrtd:atox.obj
 0001:00075630       ?restore_state@?$c_string_character_source@D@__crt_strtox@@QAE_NQBD@Z 10076630 f i libucrtd:atox.obj
 0001:00075650       ?restore_state@?$c_string_character_source@_W@__crt_strtox@@QAE_NQB_W@Z 10076650 f i libucrtd:atox.obj
 0001:00075670       ?save_state@?$c_string_character_source@D@__crt_strtox@@QBEPBDXZ 10076670 f i libucrtd:atox.obj
 0001:00075690       ?save_state@?$c_string_character_source@_W@__crt_strtox@@QBEPB_WXZ 10076690 f i libucrtd:atox.obj
 0001:000756b0       ?unget@?$c_string_character_source@D@__crt_strtox@@QAEXD@Z 100766b0 f i libucrtd:atox.obj
 0001:00075760       ?unget@?$c_string_character_source@_W@__crt_strtox@@QAEX_W@Z 10076760 f i libucrtd:atox.obj
 0001:00075810       ?validate@?$c_string_character_source@D@__crt_strtox@@QBE_NXZ 10076810 f i libucrtd:atox.obj
 0001:000758a0       ?validate@?$c_string_character_source@_W@__crt_strtox@@QBE_NXZ 100768a0 f i libucrtd:atox.obj
 0001:00075930       ?wide_character_to_digit@__crt_strtox@@YAH_W@Z 10076930 f i libucrtd:atox.obj
 0001:00075c60       ___ascii_iswalpha          10076c60 f i libucrtd:atox.obj
 0001:00075ca0       ___ascii_toupper           10076ca0 f i libucrtd:atox.obj
 0001:00075cc0       ___ascii_towupper          10076cc0 f i libucrtd:atox.obj
 0001:00075ce0       __atoi64                   10076ce0 f   libucrtd:atox.obj
 0001:00075d00       __atoi64_l                 10076d00 f   libucrtd:atox.obj
 0001:00075d20       __atoi_l                   10076d20 f   libucrtd:atox.obj
 0001:00075d40       __atol_l                   10076d40 f   libucrtd:atox.obj
 0001:00075d60       __atoll_l                  10076d60 f   libucrtd:atox.obj
 0001:00075d80       __wtoi                     10076d80 f   libucrtd:atox.obj
 0001:00075da0       __wtoi64                   10076da0 f   libucrtd:atox.obj
 0001:00075dc0       __wtoi64_l                 10076dc0 f   libucrtd:atox.obj
 0001:00075de0       __wtoi_l                   10076de0 f   libucrtd:atox.obj
 0001:00075e00       __wtol                     10076e00 f   libucrtd:atox.obj
 0001:00075e20       __wtol_l                   10076e20 f   libucrtd:atox.obj
 0001:00075e40       __wtoll                    10076e40 f   libucrtd:atox.obj
 0001:00075e60       __wtoll_l                  10076e60 f   libucrtd:atox.obj
 0001:00075e80       _atoi                      10076e80 f   libucrtd:atox.obj
 0001:00075ea0       _atol                      10076ea0 f   libucrtd:atox.obj
 0001:00075ec0       _atoll                     10076ec0 f   libucrtd:atox.obj
 0001:00075ee0       _strncmp                   10076ee0 f   libucrtd:strncmp.obj
 0001:00075f60       _wcsncmp                   10076f60 f   libucrtd:wcsncmp.obj
 0001:00075fc0       __CrtGetDebugFillThreshold 10076fc0 f   libucrtd:debug_fill_threshold.obj
 0001:00075fd0       __CrtSetDebugFillThreshold 10076fd0 f   libucrtd:debug_fill_threshold.obj
 0001:00075ff0       ??$make_c_string_character_source@DPAPAD@__crt_strtox@@YA?AV?$c_string_character_source@D@0@QBDQAPAD@Z 10076ff0 f i libucrtd:strtox.obj
 0001:00076010       ??$make_c_string_character_source@_WPAPA_W@__crt_strtox@@YA?AV?$c_string_character_source@_W@0@QB_WQAPA_W@Z 10077010 f i libucrtd:strtox.obj
 0001:00076030       ??$parse_integer_from_string@JDPAPAD@__crt_strtox@@YAJQBDQAPADHQAU__crt_locale_pointers@@@Z 10077030 f i libucrtd:strtox.obj
 0001:00076070       ??$parse_integer_from_string@J_WPAPA_W@__crt_strtox@@YAJQB_WQAPA_WHQAU__crt_locale_pointers@@@Z 10077070 f i libucrtd:strtox.obj
 0001:000760b0       ??$parse_integer_from_string@KDPAPAD@__crt_strtox@@YAKQBDQAPADHQAU__crt_locale_pointers@@@Z 100770b0 f i libucrtd:strtox.obj
 0001:000760f0       ??$parse_integer_from_string@K_WPAPA_W@__crt_strtox@@YAKQB_WQAPA_WHQAU__crt_locale_pointers@@@Z 100770f0 f i libucrtd:strtox.obj
 0001:00076130       ??$parse_integer_from_string@_JDPAPAD@__crt_strtox@@YA_JQBDQAPADHQAU__crt_locale_pointers@@@Z 10077130 f i libucrtd:strtox.obj
 0001:00076170       ??$parse_integer_from_string@_J_WPAPA_W@__crt_strtox@@YA_JQB_WQAPA_WHQAU__crt_locale_pointers@@@Z 10077170 f i libucrtd:strtox.obj
 0001:000761b0       ??$parse_integer_from_string@_KDPAPAD@__crt_strtox@@YA_KQBDQAPADHQAU__crt_locale_pointers@@@Z 100771b0 f i libucrtd:strtox.obj
 0001:000761f0       ??$parse_integer_from_string@_K_WPAPA_W@__crt_strtox@@YA_KQB_WQAPA_WHQAU__crt_locale_pointers@@@Z 100771f0 f i libucrtd:strtox.obj
 0001:00076230       __strtoi64                 10077230 f   libucrtd:strtox.obj
 0001:00076250       __strtoi64_l               10077250 f   libucrtd:strtox.obj
 0001:00076270       __strtoimax_l              10077270 f   libucrtd:strtox.obj
 0001:00076290       __strtol_l                 10077290 f   libucrtd:strtox.obj
 0001:000762b0       __strtoll_l                100772b0 f   libucrtd:strtox.obj
 0001:000762d0       __strtoui64                100772d0 f   libucrtd:strtox.obj
 0001:000762f0       __strtoui64_l              100772f0 f   libucrtd:strtox.obj
 0001:00076310       __strtoul_l                10077310 f   libucrtd:strtox.obj
 0001:00076330       __strtoull_l               10077330 f   libucrtd:strtox.obj
 0001:00076350       __strtoumax_l              10077350 f   libucrtd:strtox.obj
 0001:00076370       __wcstoi64                 10077370 f   libucrtd:strtox.obj
 0001:00076390       __wcstoi64_l               10077390 f   libucrtd:strtox.obj
 0001:000763b0       __wcstoimax_l              100773b0 f   libucrtd:strtox.obj
 0001:000763d0       __wcstol_l                 100773d0 f   libucrtd:strtox.obj
 0001:000763f0       __wcstoll_l                100773f0 f   libucrtd:strtox.obj
 0001:00076410       __wcstoui64                10077410 f   libucrtd:strtox.obj
 0001:00076430       __wcstoui64_l              10077430 f   libucrtd:strtox.obj
 0001:00076450       __wcstoul_l                10077450 f   libucrtd:strtox.obj
 0001:00076470       __wcstoull_l               10077470 f   libucrtd:strtox.obj
 0001:00076490       __wcstoumax_l              10077490 f   libucrtd:strtox.obj
 0001:000764b0       _strtoimax                 100774b0 f   libucrtd:strtox.obj
 0001:000764d0       _strtol                    100774d0 f   libucrtd:strtox.obj
 0001:000764f0       _strtoll                   100774f0 f   libucrtd:strtox.obj
 0001:00076510       _strtoul                   10077510 f   libucrtd:strtox.obj
 0001:00076530       _strtoull                  10077530 f   libucrtd:strtox.obj
 0001:00076550       _strtoumax                 10077550 f   libucrtd:strtox.obj
 0001:00076570       _wcstoimax                 10077570 f   libucrtd:strtox.obj
 0001:00076590       _wcstol                    10077590 f   libucrtd:strtox.obj
 0001:000765b0       _wcstoll                   100775b0 f   libucrtd:strtox.obj
 0001:000765d0       _wcstoul                   100775d0 f   libucrtd:strtox.obj
 0001:000765f0       _wcstoull                  100775f0 f   libucrtd:strtox.obj
 0001:00076610       _wcstoumax                 10077610 f   libucrtd:strtox.obj
 0001:00076630       __mbtowc_l                 10077630 f   libucrtd:mbtowc.obj
 0001:00076950       _mbtowc                    10077950 f   libucrtd:mbtowc.obj
 0001:00076970       __wctomb_l                 10077970 f   libucrtd:wctomb.obj
 0001:000769f0       __wctomb_s_l               100779f0 f   libucrtd:wctomb.obj
 0001:00076db0       _wctomb                    10077db0 f   libucrtd:wctomb.obj
 0001:00076e00       _wctomb_s                  10077e00 f   libucrtd:wctomb.obj
 0001:00076e30       ??$?RU__acrt_ptd@@@__crt_internal_free_policy@@QBEXQBU__acrt_ptd@@@Z 10077e30 f i libucrtd:per_thread_data.obj
 0001:000772e0       ??0?$__crt_unique_heap_ptr@U__acrt_ptd@@U__crt_internal_free_policy@@@@QAE@QAU__acrt_ptd@@@Z 100782e0 f i libucrtd:per_thread_data.obj
 0001:00077300       ??0__crt_scoped_get_last_error_reset@@QAE@XZ 10078300 f i libucrtd:per_thread_data.obj
 0001:00077320       ??1?$__crt_unique_heap_ptr@U__acrt_ptd@@U__crt_internal_free_policy@@@@QAE@XZ 10078320 f i libucrtd:per_thread_data.obj
 0001:00077340       ??1__crt_scoped_get_last_error_reset@@QAE@XZ 10078340 f i libucrtd:per_thread_data.obj
 0001:00077360       ??B?$__crt_unique_heap_ptr@U__acrt_ptd@@U__crt_internal_free_policy@@@@QBE_NXZ 10078360 f i libucrtd:per_thread_data.obj
 0001:00077640       ?dangerous_get_state_array@?$dual_state_global@PAU__crt_locale_data@@@__crt_state_management@@QAEPAPAU__crt_locale_data@@XZ 10078640 f i libucrtd:per_thread_data.obj
 0001:000777c0       ?detach@?$__crt_unique_heap_ptr@U__acrt_ptd@@U__crt_internal_free_policy@@@@QAEPAU__acrt_ptd@@XZ 100787c0 f i libucrtd:per_thread_data.obj
 0001:000777f0       ?get@?$__crt_unique_heap_ptr@U__acrt_ptd@@U__crt_internal_free_policy@@@@QBEPAU__acrt_ptd@@XZ 100787f0 f i libucrtd:per_thread_data.obj
 0001:00077810       ?get_current_state_index@__crt_state_management@@YAIABV__crt_scoped_get_last_error_reset@@@Z 10078810 f i libucrtd:per_thread_data.obj
 0001:00077980       ?is_valid@?$__crt_unique_heap_ptr@U__acrt_ptd@@U__crt_internal_free_policy@@@@QBE_NXZ 10078980 f i libucrtd:per_thread_data.obj
 0001:000779b0       ?release@?$__crt_unique_heap_ptr@U__acrt_ptd@@U__crt_internal_free_policy@@@@QAEXXZ 100789b0 f i libucrtd:per_thread_data.obj
 0001:00077aa0       ?value@?$dual_state_global@PAU__crt_locale_data@@@__crt_state_management@@QAEAAPAU__crt_locale_data@@XZ 10078aa0 f i libucrtd:per_thread_data.obj
 0001:00077ac0       ___acrt_freeptd            10078ac0 f   libucrtd:per_thread_data.obj
 0001:00077af0       ___acrt_getptd             10078af0 f   libucrtd:per_thread_data.obj
 0001:00077b10       ___acrt_getptd_head        10078b10 f   libucrtd:per_thread_data.obj
 0001:00077b30       ___acrt_getptd_noexit      10078b30 f   libucrtd:per_thread_data.obj
 0001:00077b40       ___acrt_initialize_ptd     10078b40 f   libucrtd:per_thread_data.obj
 0001:00077b80       ___acrt_uninitialize_ptd   10078b80 f   libucrtd:per_thread_data.obj
 0001:00077bb0       ___threadhandle            10078bb0 f   libucrtd:per_thread_data.obj
 0001:00077bc0       ___threadid                10078bc0 f   libucrtd:per_thread_data.obj
 0001:00077bd0       ?value@?$dual_state_global@PAU__crt_multibyte_data@@@__crt_state_management@@QAEAAPAU__crt_multibyte_data@@XZ 10078bd0 f i libucrtd:locale_update.obj
 0001:00077bf0       ___acrt_should_sync_with_global_locale 10078bf0 f i libucrtd:locale_update.obj
 0001:00077c20       ___acrt_update_locale_info 10078c20 f   libucrtd:locale_update.obj
 0001:00077c60       ___acrt_update_multibyte_info 10078c60 f   libucrtd:locale_update.obj
 0001:00077ca0       ?__acrt_fp_classify@@YA?AW4__acrt_fp_class@@ABN@Z 10078ca0 f i libucrtd:cvt.obj
 0001:00077dc0       ?__acrt_fp_is_negative@@YA_NABN@Z 10078dc0 f i libucrtd:cvt.obj
 0001:000790b0       ?strrchr@@YAPADQADH@Z      1007a0b0 f i libucrtd:cvt.obj
 0001:000790d0       ___acrt_fp_format          1007a0d0 f   libucrtd:cvt.obj
 0001:00079590       __fputwc_nolock            1007a590 f   libucrtd:fputwc.obj
 0001:00079780       __fputwchar                1007a780 f   libucrtd:fputwc.obj
 0001:000797a0       __putwc_nolock             1007a7a0 f   libucrtd:fputwc.obj
 0001:000797c0       _fputwc                    1007a7c0 f   libucrtd:fputwc.obj
 0001:000798d0       _putwc                     1007a8d0 f   libucrtd:fputwc.obj
 0001:000798f0       _putwchar                  1007a8f0 f   libucrtd:fputwc.obj
 0001:00079910       ?lowio_handle@__crt_stdio_stream@@QBEHXZ 1007a910 f i libucrtd:fileno.obj
 0001:00079930       __fileno                   1007a930 f   libucrtd:fileno.obj
 0001:000799d0       ??$?RPAU__crt_stdio_stream_data@@@__crt_internal_free_policy@@QBEXQBQAU__crt_stdio_stream_data@@@Z 1007a9d0 f i libucrtd:_file.obj
 0001:000799f0       ??0?$__crt_unique_heap_ptr@PAU__crt_stdio_stream_data@@U__crt_internal_free_policy@@@@QAE@QAPAU__crt_stdio_stream_data@@@Z 1007a9f0 f i libucrtd:_file.obj
 0001:00079a10       ??1?$__crt_unique_heap_ptr@PAU__crt_stdio_stream_data@@U__crt_internal_free_policy@@@@QAE@XZ 1007aa10 f i libucrtd:_file.obj
 0001:00079a30       ?detach@?$__crt_unique_heap_ptr@PAU__crt_stdio_stream_data@@U__crt_internal_free_policy@@@@QAEPAPAU__crt_stdio_stream_data@@XZ 1007aa30 f i libucrtd:_file.obj
 0001:00079a60       ?release@?$__crt_unique_heap_ptr@PAU__crt_stdio_stream_data@@U__crt_internal_free_policy@@@@QAEXXZ 1007aa60 f i libucrtd:_file.obj
 0001:00079a90       ___acrt_initialize_stdio   1007aa90 f   libucrtd:_file.obj
 0001:00079c00       ___acrt_iob_func           1007ac00 f   libucrtd:_file.obj
 0001:00079c10       ___acrt_uninitialize_stdio 1007ac10 f   libucrtd:_file.obj
 0001:00079c90       __get_stream_buffer_pointers 1007ac90 f   libucrtd:_file.obj
 0001:00079d70       __lock_file                1007ad70 f   libucrtd:_file.obj
 0001:00079da0       __unlock_file              1007ada0 f   libucrtd:_file.obj
 0001:00079dd0       __get_printf_count_output  1007add0 f   libucrtd:printf_count_output.obj
 0001:00079e00       __set_printf_count_output  1007ae00 f   libucrtd:printf_count_output.obj
 0001:00079e60       ?has_any_buffer@__crt_stdio_stream@@QBE_NXZ 1007ae60 f i libucrtd:_sftbuf.obj
 0001:00079e80       ?has_any_of@__crt_stdio_stream@@QBE_NJ@Z 1007ae80 f i libucrtd:_sftbuf.obj
 0001:00079ec0       ?has_temporary_buffer@__crt_stdio_stream@@QBE_NXZ 1007aec0 f i libucrtd:_sftbuf.obj
 0001:00079ee0       ?set_flags@__crt_stdio_stream@@QBE_NJ@Z 1007aee0 f i libucrtd:_sftbuf.obj
 0001:00079f30       ?unset_flags@__crt_stdio_stream@@QBE_NJ@Z 1007af30 f i libucrtd:_sftbuf.obj
 0001:00079f80       ___acrt_should_use_temporary_buffer 1007af80 f   libucrtd:_sftbuf.obj
 0001:00079fd0       ___acrt_stdio_begin_temporary_buffering_nolock 1007afd0 f   libucrtd:_sftbuf.obj
 0001:0007a180       ___acrt_stdio_end_temporary_buffering_nolock 1007b180 f   libucrtd:_sftbuf.obj
 0001:0007a210       ??$?RU__crt_locale_data@@@__crt_internal_free_policy@@QBEXQBU__crt_locale_data@@@Z 1007b210 f i libucrtd:wsetlocale.obj
 0001:0007a230       ??$?RU__crt_locale_pointers@@@__crt_internal_free_policy@@QBEXQBU__crt_locale_pointers@@@Z 1007b230 f i libucrtd:wsetlocale.obj
 0001:0007a250       ??$?RU__crt_multibyte_data@@@__crt_internal_free_policy@@QBEXQBU__crt_multibyte_data@@@Z 1007b250 f i libucrtd:wsetlocale.obj
 0001:0007a840       ??0?$__crt_unique_heap_ptr@U__crt_locale_data@@U__crt_internal_free_policy@@@@QAE@QAU__crt_locale_data@@@Z 1007b840 f i libucrtd:wsetlocale.obj
 0001:0007a860       ??0?$__crt_unique_heap_ptr@U__crt_locale_pointers@@U__crt_internal_free_policy@@@@QAE@QAU__crt_locale_pointers@@@Z 1007b860 f i libucrtd:wsetlocale.obj
 0001:0007a880       ??0?$__crt_unique_heap_ptr@U__crt_multibyte_data@@U__crt_internal_free_policy@@@@QAE@QAU__crt_multibyte_data@@@Z 1007b880 f i libucrtd:wsetlocale.obj
 0001:0007a8a0       ??0_expandlocale_locale_name_cache@@QAE@QA_WIQAU__crt_qualified_locale_data@@@Z 1007b8a0 f i libucrtd:wsetlocale.obj
 0001:0007a910       ??1?$__crt_unique_heap_ptr@U__crt_locale_data@@U__crt_internal_free_policy@@@@QAE@XZ 1007b910 f i libucrtd:wsetlocale.obj
 0001:0007a930       ??1?$__crt_unique_heap_ptr@U__crt_locale_pointers@@U__crt_internal_free_policy@@@@QAE@XZ 1007b930 f i libucrtd:wsetlocale.obj
 0001:0007a950       ??1?$__crt_unique_heap_ptr@U__crt_multibyte_data@@U__crt_internal_free_policy@@@@QAE@XZ 1007b950 f i libucrtd:wsetlocale.obj
 0001:0007a970       ??1_expandlocale_locale_name_cache@@QAE@XZ 1007b970 f i libucrtd:wsetlocale.obj
 0001:0007a9d0       ??B?$__crt_unique_heap_ptr@U__crt_locale_data@@U__crt_internal_free_policy@@@@QBE_NXZ 1007b9d0 f i libucrtd:wsetlocale.obj
 0001:0007a9f0       ??B?$__crt_unique_heap_ptr@U__crt_locale_pointers@@U__crt_internal_free_policy@@@@QBE_NXZ 1007b9f0 f i libucrtd:wsetlocale.obj
 0001:0007aa10       ??B?$__crt_unique_heap_ptr@U__crt_multibyte_data@@U__crt_internal_free_policy@@@@QBE_NXZ 1007ba10 f i libucrtd:wsetlocale.obj
 0001:0007adf0       ?commit_locale_name@_expandlocale_locale_name_cache@@QAEXQB_WI@Z 1007bdf0 f i libucrtd:wsetlocale.obj
 0001:0007ae50       ?commit_locale_name_cache_already_updated@_expandlocale_locale_name_cache@@QAEXQB_WI@Z 1007be50 f i libucrtd:wsetlocale.obj
 0001:0007aeb0       ?detach@?$__crt_unique_heap_ptr@U__crt_locale_data@@U__crt_internal_free_policy@@@@QAEPAU__crt_locale_data@@XZ 1007beb0 f i libucrtd:wsetlocale.obj
 0001:0007aee0       ?detach@?$__crt_unique_heap_ptr@U__crt_locale_pointers@@U__crt_internal_free_policy@@@@QAEPAU__crt_locale_pointers@@XZ 1007bee0 f i libucrtd:wsetlocale.obj
 0001:0007af10       ?detach@?$__crt_unique_heap_ptr@U__crt_multibyte_data@@U__crt_internal_free_policy@@@@QAEPAU__crt_multibyte_data@@XZ 1007bf10 f i libucrtd:wsetlocale.obj
 0001:0007af40       ?get@?$__crt_unique_heap_ptr@U__crt_locale_data@@U__crt_internal_free_policy@@@@QBEPAU__crt_locale_data@@XZ 1007bf40 f i libucrtd:wsetlocale.obj
 0001:0007af60       ?get@?$__crt_unique_heap_ptr@U__crt_locale_pointers@@U__crt_internal_free_policy@@@@QBEPAU__crt_locale_pointers@@XZ 1007bf60 f i libucrtd:wsetlocale.obj
 0001:0007af80       ?get@?$__crt_unique_heap_ptr@U__crt_multibyte_data@@U__crt_internal_free_policy@@@@QBEPAU__crt_multibyte_data@@XZ 1007bf80 f i libucrtd:wsetlocale.obj
 0001:0007afa0       ?is_valid@?$__crt_unique_heap_ptr@U__crt_locale_data@@U__crt_internal_free_policy@@@@QBE_NXZ 1007bfa0 f i libucrtd:wsetlocale.obj
 0001:0007afd0       ?is_valid@?$__crt_unique_heap_ptr@U__crt_locale_pointers@@U__crt_internal_free_policy@@@@QBE_NXZ 1007bfd0 f i libucrtd:wsetlocale.obj
 0001:0007b000       ?is_valid@?$__crt_unique_heap_ptr@U__crt_multibyte_data@@U__crt_internal_free_policy@@@@QBE_NXZ 1007c000 f i libucrtd:wsetlocale.obj
 0001:0007b030       ?release@?$__crt_unique_heap_ptr@U__crt_locale_data@@U__crt_internal_free_policy@@@@QAEXXZ 1007c030 f i libucrtd:wsetlocale.obj
 0001:0007b060       ?release@?$__crt_unique_heap_ptr@U__crt_locale_pointers@@U__crt_internal_free_policy@@@@QAEXXZ 1007c060 f i libucrtd:wsetlocale.obj
 0001:0007b090       ?release@?$__crt_unique_heap_ptr@U__crt_multibyte_data@@U__crt_internal_free_policy@@@@QAEXXZ 1007c090 f i libucrtd:wsetlocale.obj
 0001:0007b0c0       ___acrt_copy_locale_name   1007c0c0 f   libucrtd:wsetlocale.obj
 0001:0007b160       ___acrt_set_locale_changed 1007c160 f   libucrtd:wsetlocale.obj
 0001:0007b180       ___acrt_uninitialize_locale 1007c180 f   libucrtd:wsetlocale.obj
 0001:0007b1a0       ___ascii_tolower           1007c1a0 f i libucrtd:wsetlocale.obj
 0001:0007b1c0       ___ascii_towlower          1007c1c0 f i libucrtd:wsetlocale.obj
 0001:0007b1e0       ___lc_lctowcs              1007c1e0 f   libucrtd:wsetlocale.obj
 0001:0007b290       ___lc_wcstolc              1007c290 f   libucrtd:wsetlocale.obj
 0001:0007b4c0       __configthreadlocale       1007c4c0 f   libucrtd:wsetlocale.obj
 0001:0007b640       __create_locale            1007c640 f   libucrtd:wsetlocale.obj
 0001:0007bc80       __free_locale              1007cc80 f   libucrtd:wsetlocale.obj
 0001:0007bdb0       __get_current_locale       1007cdb0 f   libucrtd:wsetlocale.obj
 0001:0007be80       __wcreate_locale           1007ce80 f   libucrtd:wsetlocale.obj
 0001:0007c0c0       __wcscats                  1007d0c0 f   libucrtd:wsetlocale.obj
 0001:0007c140       __wsetlocale               1007d140 f   libucrtd:wsetlocale.obj
 0001:0007d830       ___p___mb_cur_max          1007e830 f   libucrtd:nlsdata.obj
 0001:0007db30       ___acrt_initialize_lowio   1007eb30 f   libucrtd:ioinit.obj
 0001:0007dbd0       ___acrt_uninitialize_lowio 1007ebd0 f   libucrtd:ioinit.obj
 0001:0007dc30       __CrtGetReportHook         1007ec30 f   libucrtd:dbgrptt.obj
 0001:0007dc40       __CrtSetReportFile         1007ec40 f   libucrtd:dbgrptt.obj
 0001:0007dd40       __CrtSetReportHook         1007ed40 f   libucrtd:dbgrptt.obj
 0001:0007dd60       __CrtSetReportMode         1007ed60 f   libucrtd:dbgrptt.obj
 0001:0007dea0       __VCrtDbgReportA           1007eea0 f   libucrtd:dbgrptt.obj
 0001:0007e720       __VCrtDbgReportW           1007f720 f   libucrtd:dbgrptt.obj
 0001:0007f0d0       __snprintf_s               100800d0 f i libucrtd:dbgrptt.obj
 0001:0007f110       __vsnprintf_s              10080110 f i libucrtd:dbgrptt.obj
 0001:0007f140       __vsnprintf_s_l            10080140 f i libucrtd:dbgrptt.obj
 0001:0007f2d0       ??$__acrt_wcs_to_mbs_cp@U__crt_win32_buffer_no_resizing@@@@YAHQB_WAAV?$__crt_win32_buffer@DU__crt_win32_buffer_no_resizing@@@@I@Z 100802d0 f i libucrtd:getmodulefilenamea.obj
 0001:0007f300       ??0?$__crt_win32_buffer@DU__crt_win32_buffer_no_resizing@@@@QAE@QADI@Z 10080300 f i libucrtd:getmodulefilenamea.obj
 0001:0007f350       ??1?$__crt_win32_buffer@DU__crt_win32_buffer_no_resizing@@@@QAE@XZ 10080350 f i libucrtd:getmodulefilenamea.obj
 0001:0007f3c0       ?__acrt_get_utf8_acp_compatibility_codepage@@YAIXZ 100803c0 f i libucrtd:getmodulefilenamea.obj
 0001:0007f450       ?_deallocate@?$__crt_win32_buffer@DU__crt_win32_buffer_no_resizing@@@@AAEXXZ 10080450 f i libucrtd:getmodulefilenamea.obj
 0001:0007f490       ?allocate@?$__crt_win32_buffer@DU__crt_win32_buffer_no_resizing@@@@QAEHI@Z 10080490 f i libucrtd:getmodulefilenamea.obj
 0001:0007f500       ?allocate@__crt_win32_buffer_no_resizing@@SAHQAPAXIABV__crt_win32_buffer_empty_debug_info@@@Z 10080500 f i libucrtd:getmodulefilenamea.obj
 0001:0007f520       ?capacity@?$__crt_win32_buffer@DU__crt_win32_buffer_no_resizing@@@@QBEIXZ 10080520 f i libucrtd:getmodulefilenamea.obj
 0001:0007f540       ?data@?$__crt_win32_buffer@DU__crt_win32_buffer_no_resizing@@@@QAEPADXZ 10080540 f i libucrtd:getmodulefilenamea.obj
 0001:0007f560       ?deallocate@__crt_win32_buffer_no_resizing@@SAXQAXABV__crt_win32_buffer_empty_debug_info@@@Z 10080560 f i libucrtd:getmodulefilenamea.obj
 0001:0007f570       ?debug_info@?$__crt_win32_buffer@DU__crt_win32_buffer_no_resizing@@@@QBEABV__crt_win32_buffer_empty_debug_info@@XZ 10080570 f i libucrtd:getmodulefilenamea.obj
 0001:0007f580       ?set_to_nullptr@?$__crt_win32_buffer@DU__crt_win32_buffer_no_resizing@@@@QAEXXZ 10080580 f i libucrtd:getmodulefilenamea.obj
 0001:0007f5c0       ?size@?$__crt_win32_buffer@DU__crt_win32_buffer_no_resizing@@@@QAEXI@Z 100805c0 f i libucrtd:getmodulefilenamea.obj
 0001:0007f5e0       ?size@?$__crt_win32_buffer@DU__crt_win32_buffer_no_resizing@@@@QBEIXZ 100805e0 f i libucrtd:getmodulefilenamea.obj
 0001:0007f600       ___acrt_GetModuleFileNameA 10080600 f   libucrtd:getmodulefilenamea.obj
 0001:0007f8e0       ??$message_box@$$TABQBDABQBDK@?$__crt_char_traits@D@@SAH$$QA$$TABQBD1$$QAK@Z 100808e0 f i libucrtd:crtmbox.obj
 0001:0007f910       ??$message_box@$$TABQB_WABQB_WK@?$__crt_char_traits@_W@@SAH$$QA$$TABQB_W1$$QAK@Z 10080910 f i libucrtd:crtmbox.obj
 0001:0007f940       ??$message_box@PAUHWND__@@ABQBDABQBDABI@?$__crt_char_traits@D@@SAH$$QAPAUHWND__@@ABQBD1ABI@Z 10080940 f i libucrtd:crtmbox.obj
 0001:0007f970       ??$message_box@PAUHWND__@@ABQB_WABQB_WABI@?$__crt_char_traits@_W@@SAH$$QAPAUHWND__@@ABQB_W1ABI@Z 10080970 f i libucrtd:crtmbox.obj
 0001:0007f9a0       ??$output_debug_string@ABQBD@?$__crt_char_traits@D@@SAXABQBD@Z 100809a0 f i libucrtd:crtmbox.obj
 0001:0007f9c0       ??$output_debug_string@ABQB_W@?$__crt_char_traits@_W@@SAXABQB_W@Z 100809c0 f i libucrtd:crtmbox.obj
 0001:0007f9e0       ___acrt_show_narrow_message_box 100809e0 f   libucrtd:crtmbox.obj
 0001:0007fa00       ___acrt_show_wide_message_box 10080a00 f   libucrtd:crtmbox.obj
 0001:0007fa20       ___acrt_initialize_locks   10080a20 f   libucrtd:locks.obj
 0001:0007fa80       ___acrt_lock               10080a80 f   libucrtd:locks.obj
 0001:0007faa0       ___acrt_uninitialize_locks 10080aa0 f   libucrtd:locks.obj
 0001:0007faf0       ___acrt_unlock             10080af0 f   libucrtd:locks.obj
 0001:0007fb10       __lock_locales             10080b10 f   libucrtd:locks.obj
 0001:0007fb30       __unlock_locales           10080b30 f   libucrtd:locks.obj
 0001:0007fb50       ??$?B$$A6AXH@Z@__crt_fast_encoded_nullptr_t@@QBEP6AXH@ZXZ 10080b50 f i libucrtd:signal.obj
 0001:0007fc40       ??$__crt_fast_decode_pointer@P6AXH@Z@@YAP6AXH@ZQ6AXH@Z@Z 10080c40 f i libucrtd:signal.obj
 0001:0007fc70       ??$__crt_fast_encode_pointer@P6AXH@Z@@YAP6AXH@ZQ6AXH@Z@Z 10080c70 f i libucrtd:signal.obj
 0001:0007ff20       ?initialize@?$dual_state_global@P6AXH@Z@__crt_state_management@@QAEXQ6AXH@Z@Z 10080f20 f i libucrtd:signal.obj
 0001:00080060       ?value@?$dual_state_global@P6AXH@Z@__crt_state_management@@QAEAAP6AXH@ZXZ 10081060 f i libucrtd:signal.obj
 0001:00080080       ___acrt_get_sigabrt_handler 10081080 f   libucrtd:signal.obj
 0001:000800a0       ___acrt_initialize_signal_handlers 100810a0 f   libucrtd:signal.obj
 0001:000800e0       ___fpecode                 100810e0 f   libucrtd:signal.obj
 0001:000800f0       ___pxcptinfoptrs           100810f0 f   libucrtd:signal.obj
 0001:00080100       _raise                     10081100 f   libucrtd:signal.obj
 0001:000804d0       _signal                    100814d0 f   libucrtd:signal.obj
 0001:00080750       __msize                    10081750 f   libucrtd:msize.obj
 0001:00080770       __msize_base               10081770 f   libucrtd:msize.obj
 0001:00080810       __realloc_base             10081810 f   libucrtd:realloc_base.obj
 0001:000808d0       ??$?B$$A6GHPA_WKJ@Z@__crt_fast_encoded_nullptr_t@@QBEP6GHPA_WKJ@ZXZ 100818d0 f i libucrtd:winapi_thunks.obj
 0001:000809c0       ??$__crt_fast_decode_pointer@P6GHPA_WKJ@Z@@YAP6GHPA_WKJ@ZQ6GH0KJ@Z@Z 100819c0 f i libucrtd:winapi_thunks.obj
 0001:000809f0       ??$__crt_fast_decode_pointer@PAX@@YAPAXQAX@Z 100819f0 f i libucrtd:winapi_thunks.obj
 0001:00080a20       ??$__crt_fast_encode_pointer@P6GHPA_WKJ@Z@@YAP6GHPA_WKJ@ZQ6GH0KJ@Z@Z 10081a20 f i libucrtd:winapi_thunks.obj
 0001:00081380       _GetCurrentThreadEffectiveToken 10082380 f i libucrtd:winapi_thunks.obj
 0001:00081390       ___acrt_AppPolicyGetProcessTerminationMethodInternal@4 10082390 f   libucrtd:winapi_thunks.obj
 0001:000813d0       ___acrt_AppPolicyGetShowDeveloperDiagnosticInternal@4 100823d0 f   libucrtd:winapi_thunks.obj
 0001:00081410       ___acrt_AppPolicyGetThreadInitializationTypeInternal@4 10082410 f   libucrtd:winapi_thunks.obj
 0001:00081450       ___acrt_AppPolicyGetWindowingModelInternal@4 10082450 f   libucrtd:winapi_thunks.obj
 0001:00081490       ___acrt_AreFileApisANSI@0  10082490 f   libucrtd:winapi_thunks.obj
 0001:000814d0       ___acrt_CompareStringEx@36 100824d0 f   libucrtd:winapi_thunks.obj
 0001:00081550       ___acrt_EnumSystemLocalesEx@16 10082550 f   libucrtd:winapi_thunks.obj
 0001:000815b0       ___acrt_FlsAlloc@4         100825b0 f   libucrtd:winapi_thunks.obj
 0001:000815f0       ___acrt_FlsFree@4          100825f0 f   libucrtd:winapi_thunks.obj
 0001:00081630       ___acrt_FlsGetValue@4      10082630 f   libucrtd:winapi_thunks.obj
 0001:00081670       ___acrt_FlsSetValue@8      10082670 f   libucrtd:winapi_thunks.obj
 0001:000816c0       ___acrt_GetDateFormatEx@28 100826c0 f   libucrtd:winapi_thunks.obj
 0001:00081740       ___acrt_GetEnabledXStateFeatures@0 10082740 f   libucrtd:winapi_thunks.obj
 0001:00081780       ___acrt_GetLocaleInfoEx@16 10082780 f   libucrtd:winapi_thunks.obj
 0001:000817e0       ___acrt_GetSystemTimePreciseAsFileTime@4 100827e0 f   libucrtd:winapi_thunks.obj
 0001:00081820       ___acrt_GetTimeFormatEx@24 10082820 f   libucrtd:winapi_thunks.obj
 0001:00081890       ___acrt_GetUserDefaultLocaleName@8 10082890 f   libucrtd:winapi_thunks.obj
 0001:000818e0       ___acrt_GetXStateFeaturesMask@8 100828e0 f   libucrtd:winapi_thunks.obj
 0001:00081920       ___acrt_InitializeCriticalSectionEx@12 10082920 f   libucrtd:winapi_thunks.obj
 0001:00081970       ___acrt_IsValidLocaleName@4 10082970 f   libucrtd:winapi_thunks.obj
 0001:000819c0       ___acrt_LCIDToLocaleName@16 100829c0 f   libucrtd:winapi_thunks.obj
 0001:00081a20       ___acrt_LCMapStringEx@36   10082a20 f   libucrtd:winapi_thunks.obj
 0001:00081aa0       ___acrt_LocaleNameToLCID@8 10082aa0 f   libucrtd:winapi_thunks.obj
 0001:00081af0       ___acrt_LocateXStateFeature@12 10082af0 f   libucrtd:winapi_thunks.obj
 0001:00081b40       ___acrt_MessageBoxA@16     10082b40 f   libucrtd:winapi_thunks.obj
 0001:00081b90       ___acrt_MessageBoxW@16     10082b90 f   libucrtd:winapi_thunks.obj
 0001:00081be0       ___acrt_RoInitialize@4     10082be0 f   libucrtd:winapi_thunks.obj
 0001:00081c20       ___acrt_RoUninitialize@0   10082c20 f   libucrtd:winapi_thunks.obj
 0001:00081c50       ___acrt_RtlGenRandom@8     10082c50 f   libucrtd:winapi_thunks.obj
 0001:00081c90       ___acrt_SetThreadStackGuarantee@4 10082c90 f   libucrtd:winapi_thunks.obj
 0001:00081cd0       ___acrt_can_show_message_box 10082cd0 f   libucrtd:winapi_thunks.obj
 0001:00081d10       ___acrt_can_use_vista_locale_apis 10082d10 f   libucrtd:winapi_thunks.obj
 0001:00081d40       ___acrt_can_use_xstate_apis 10082d40 f   libucrtd:winapi_thunks.obj
 0001:00081d70       ___acrt_eagerly_load_locale_apis 10082d70 f   libucrtd:winapi_thunks.obj
 0001:00081db0       ___acrt_get_parent_window  10082db0 f   libucrtd:winapi_thunks.obj
 0001:00081e20       ___acrt_initialize_winapi_thunks 10082e20 f   libucrtd:winapi_thunks.obj
 0001:00081e90       ___acrt_is_interactive     10082e90 f   libucrtd:winapi_thunks.obj
 0001:00081f40       ___acrt_uninitialize_winapi_thunks 10082f40 f   libucrtd:winapi_thunks.obj
 0001:00081fb0       __chvalidator              10082fb0 f   libucrtd:isctype.obj
 0001:00082000       __chvalidator_l            10083000 f   libucrtd:isctype.obj
 0001:00082080       __isctype                  10083080 f   libucrtd:isctype.obj
 0001:000820c0       __isctype_l                100830c0 f   libucrtd:isctype.obj
 0001:00082240       __isleadbyte_fast_internal 10083240 f i libucrtd:isctype.obj
 0001:00082260       ??$?RU__crt_stdio_stream_data@@@__crt_internal_free_policy@@QBEXQBU__crt_stdio_stream_data@@@Z 10083260 f i libucrtd:stream.obj
 0001:00082280       ??0?$__crt_unique_heap_ptr@U__crt_stdio_stream_data@@U__crt_internal_free_policy@@@@QAE@QAU__crt_stdio_stream_data@@@Z 10083280 f i libucrtd:stream.obj
 0001:000822a0       ??0__crt_stdio_stream@@QAE@QAU__crt_stdio_stream_data@@@Z 100832a0 f i libucrtd:stream.obj
 0001:000822c0       ??0__crt_stdio_stream@@QAE@XZ 100832c0 f i libucrtd:stream.obj
 0001:000822e0       ??1?$__crt_unique_heap_ptr@U__crt_stdio_stream_data@@U__crt_internal_free_policy@@@@QAE@XZ 100832e0 f i libucrtd:stream.obj
 0001:00082300       ?__acrt_stdio_allocate_stream@@YA?AV__crt_stdio_stream@@XZ 10083300 f   libucrtd:stream.obj
 0001:000823f0       ?__acrt_stdio_free_stream@@YAXV__crt_stdio_stream@@@Z 100833f0 f   libucrtd:stream.obj
 0001:00082470       ?deallocate@__crt_stdio_stream@@QAEXXZ 10083470 f i libucrtd:stream.obj
 0001:00082490       ?detach@?$__crt_unique_heap_ptr@U__crt_stdio_stream_data@@U__crt_internal_free_policy@@@@QAEPAU__crt_stdio_stream_data@@XZ 10083490 f i libucrtd:stream.obj
 0001:00082600       ?lock@__crt_stdio_stream@@QBEXXZ 10083600 f i libucrtd:stream.obj
 0001:00082620       ?release@?$__crt_unique_heap_ptr@U__crt_stdio_stream_data@@U__crt_internal_free_policy@@@@QAEXXZ 10083620 f i libucrtd:stream.obj
 0001:00082650       ?try_allocate@__crt_stdio_stream@@QAE_NXZ 10083650 f i libucrtd:stream.obj
 0001:000826a0       ??$__acrt_stdio_parse_mode@D@@YA?AU__acrt_stdio_stream_mode@@QBD@Z 100836a0 f i libucrtd:openfile.obj
 0001:00082f10       ??$__acrt_stdio_parse_mode@_W@@YA?AU__acrt_stdio_stream_mode@@QB_W@Z 10083f10 f i libucrtd:openfile.obj
 0001:00083aa0       ??$tcsncmp@AAPBDAAY02$$CBDI@?$__crt_char_traits@D@@SAHAAPBDAAY02$$CBD$$QAI@Z 10084aa0 f i libucrtd:openfile.obj
 0001:00083ac0       ??$tcsncmp@AAPB_WAAY02$$CB_WI@?$__crt_char_traits@_W@@SAHAAPB_WAAY02$$CB_W$$QAI@Z 10084ac0 f i libucrtd:openfile.obj
 0001:00083ae0       ??$tcsnicmp@AAPBDAAY04$$CBDI@?$__crt_char_traits@D@@SAHAAPBDAAY04$$CBD$$QAI@Z 10084ae0 f i libucrtd:openfile.obj
 0001:00083b00       ??$tcsnicmp@AAPBDAAY06$$CBDI@?$__crt_char_traits@D@@SAHAAPBDAAY06$$CBD$$QAI@Z 10084b00 f i libucrtd:openfile.obj
 0001:00083b20       ??$tcsnicmp@AAPBDAAY07$$CBDI@?$__crt_char_traits@D@@SAHAAPBDAAY07$$CBD$$QAI@Z 10084b20 f i libucrtd:openfile.obj
 0001:00083b40       ??$tcsnicmp@AAPB_WAAY04$$CB_WI@?$__crt_char_traits@_W@@SAHAAPB_WAAY04$$CB_W$$QAI@Z 10084b40 f i libucrtd:openfile.obj
 0001:00083b60       ??$tcsnicmp@AAPB_WAAY06$$CB_WI@?$__crt_char_traits@_W@@SAHAAPB_WAAY06$$CB_W$$QAI@Z 10084b60 f i libucrtd:openfile.obj
 0001:00083b80       ??$tcsnicmp@AAPB_WAAY07$$CB_WI@?$__crt_char_traits@_W@@SAHAAPB_WAAY07$$CB_W$$QAI@Z 10084b80 f i libucrtd:openfile.obj
 0001:00083ba0       ??$tsopen_s@PAHABQBDABHABHH@?$__crt_char_traits@D@@SAH$$QAPAHABQBDABH2$$QAH@Z 10084ba0 f i libucrtd:openfile.obj
 0001:00083bd0       ??$tsopen_s@PAHABQB_WABHABHH@?$__crt_char_traits@_W@@SAH$$QAPAHABQB_WABH2$$QAH@Z 10084bd0 f i libucrtd:openfile.obj
 0001:00083c00       ?__acrt_stdio_parse_mode_D@@YA_NAAU__acrt_stdio_stream_mode@@@Z 10084c00 f i libucrtd:openfile.obj
 0001:00083c30       ?__acrt_stdio_parse_mode_N@@YA_NAAU__acrt_stdio_stream_mode@@@Z 10084c30 f i libucrtd:openfile.obj
 0001:00083c50       ?__acrt_stdio_parse_mode_R@@YA_NAAU__acrt_stdio_stream_mode@@AA_N@Z 10084c50 f i libucrtd:openfile.obj
 0001:00083c80       ?__acrt_stdio_parse_mode_S@@YA_NAAU__acrt_stdio_stream_mode@@AA_N@Z 10084c80 f i libucrtd:openfile.obj
 0001:00083cb0       ?__acrt_stdio_parse_mode_T@@YA_NAAU__acrt_stdio_stream_mode@@@Z 10084cb0 f i libucrtd:openfile.obj
 0001:00083ce0       ?__acrt_stdio_parse_mode_b@@YA_NAAU__acrt_stdio_stream_mode@@@Z 10084ce0 f i libucrtd:openfile.obj
 0001:00083d10       ?__acrt_stdio_parse_mode_c@@YA_NAAU__acrt_stdio_stream_mode@@AA_N@Z 10084d10 f i libucrtd:openfile.obj
 0001:00083d40       ?__acrt_stdio_parse_mode_n@@YA_NAAU__acrt_stdio_stream_mode@@AA_N@Z 10084d40 f i libucrtd:openfile.obj
 0001:00083d70       ?__acrt_stdio_parse_mode_plus@@YA_NAAU__acrt_stdio_stream_mode@@AA_N@Z 10084d70 f i libucrtd:openfile.obj
 0001:00083de0       ?__acrt_stdio_parse_mode_t@@YA_NAAU__acrt_stdio_stream_mode@@@Z 10084de0 f i libucrtd:openfile.obj
 0001:00083e10       ?__acrt_stdio_parse_mode_x@@YA_NAAU__acrt_stdio_stream_mode@@@Z 10084e10 f i libucrtd:openfile.obj
 0001:00083e40       __openfile                 10084e40 f   libucrtd:openfile.obj
 0001:00083e70       __wopenfile                10084e70 f   libucrtd:openfile.obj
 0001:00084150       __close                    10085150 f   libucrtd:close.obj
 0001:000842d0       __close_nolock             100852d0 f   libucrtd:close.obj
 0001:00084330       ?has_crt_buffer@__crt_stdio_stream@@QBE_NXZ 10085330 f i libucrtd:_freebuf.obj
 0001:00084350       ___acrt_stdio_free_buffer_nolock 10085350 f   libucrtd:_freebuf.obj
 0001:000849b0       ?__acrt_stdio_reset_buffer@@YAXV__crt_stdio_stream@@@Z 100859b0 f i libucrtd:fflush.obj
 0001:00084ab0       ?has_all_of@__crt_stdio_stream@@QBE_NJ@Z 10085ab0 f i libucrtd:fflush.obj
 0001:00084b80       ___acrt_stdio_flush_nolock 10085b80 f   libucrtd:fflush.obj
 0001:00084c50       __fflush_nolock            10085c50 f   libucrtd:fflush.obj
 0001:00084cd0       __flushall                 10085cd0 f   libucrtd:fflush.obj
 0001:00084cf0       _fflush                    10085cf0 f   libucrtd:fflush.obj
 0001:00085440       ?has_big_buffer@__crt_stdio_stream@@QBE_NXZ 10086440 f i libucrtd:_flsbuf.obj
 0001:00085540       ___acrt_stdio_flush_and_write_narrow_nolock 10086540 f   libucrtd:_flsbuf.obj
 0001:00085570       ___acrt_stdio_flush_and_write_wide_nolock 10086570 f   libucrtd:_flsbuf.obj
 0001:000858a0       ___acrt_get_begin_thread_init_policy 100868a0 f   libucrtd:win_policies.obj
 0001:000858c0       ___acrt_get_developer_information_policy 100868c0 f   libucrtd:win_policies.obj
 0001:000858e0       ___acrt_get_process_end_policy 100868e0 f   libucrtd:win_policies.obj
 0001:00085900       ___acrt_get_windowing_model_policy 10086900 f   libucrtd:win_policies.obj
 0001:00085bd0       ??$__acrt_mbs_to_wcs_cp@U__crt_win32_buffer_internal_dynamic_resizing@@@@YAHQBDAAV?$__crt_win32_buffer@_WU__crt_win32_buffer_internal_dynamic_resizing@@@@I@Z 10086bd0 f i libucrtd:argv_wildcards.obj
 0001:00085c00       ??$__acrt_wcs_to_mbs_cp@U__crt_win32_buffer_internal_dynamic_resizing@@@@YAHQB_WAAV?$__crt_win32_buffer@DU__crt_win32_buffer_internal_dynamic_resizing@@@@I@Z 10086c00 f i libucrtd:argv_wildcards.obj
 0001:00086b50       ??$tcsncpy_s@AAPADIAAPADABI@?$__crt_char_traits@D@@SAHAAPAD$$QAI0ABI@Z 10087b50 f i libucrtd:argv_wildcards.obj
 0001:00086b80       ??$tcsncpy_s@AAPA_WIAAPA_WABI@?$__crt_char_traits@_W@@SAHAAPA_W$$QAI0ABI@Z 10087b80 f i libucrtd:argv_wildcards.obj
 0001:00086bb0       ??$tcsncpy_s@PADABIABQBDABI@?$__crt_char_traits@D@@SAH$$QAPADABIABQBD1@Z 10087bb0 f i libucrtd:argv_wildcards.obj
 0001:00086be0       ??$tcsncpy_s@PADIABQBDABI@?$__crt_char_traits@D@@SAH$$QAPAD$$QAIABQBDABI@Z 10087be0 f i libucrtd:argv_wildcards.obj
 0001:00086c10       ??$tcsncpy_s@PA_WABIABQB_WABI@?$__crt_char_traits@_W@@SAH$$QAPA_WABIABQB_W1@Z 10087c10 f i libucrtd:argv_wildcards.obj
 0001:00086c40       ??$tcsncpy_s@PA_WIABQB_WABI@?$__crt_char_traits@_W@@SAH$$QAPA_W$$QAIABQB_WABI@Z 10087c40 f i libucrtd:argv_wildcards.obj
 0001:00086c70       ??$tcspbrk@AAPADAAY02$$CBD@?$__crt_char_traits@D@@SAPADAAPADAAY02$$CBD@Z 10087c70 f i libucrtd:argv_wildcards.obj
 0001:00086c90       ??$tcspbrk@AAPA_WAAY02$$CB_W@?$__crt_char_traits@_W@@SAPA_WAAPA_WAAY02$$CB_W@Z 10087c90 f i libucrtd:argv_wildcards.obj
 0001:00086cb0       ??0?$__crt_unique_handle_t@U__crt_findfile_traits@@@@QAE@QAX@Z 10087cb0 f i libucrtd:argv_wildcards.obj
 0001:00086cd0       ??0?$__crt_win32_buffer@DU__crt_win32_buffer_internal_dynamic_resizing@@@@QAE@XZ 10087cd0 f i libucrtd:argv_wildcards.obj
 0001:00086d20       ??0?$__crt_win32_buffer@_WU__crt_win32_buffer_internal_dynamic_resizing@@@@QAE@XZ 10087d20 f i libucrtd:argv_wildcards.obj
 0001:00086dd0       ??1?$__crt_unique_handle_t@U__crt_findfile_traits@@@@QAE@XZ 10087dd0 f i libucrtd:argv_wildcards.obj
 0001:00086df0       ??1?$__crt_win32_buffer@DU__crt_win32_buffer_internal_dynamic_resizing@@@@QAE@XZ 10087df0 f i libucrtd:argv_wildcards.obj
 0001:00086e30       ??1?$__crt_win32_buffer@_WU__crt_win32_buffer_internal_dynamic_resizing@@@@QAE@XZ 10087e30 f i libucrtd:argv_wildcards.obj
 0001:00087090       ?_deallocate@?$__crt_win32_buffer@DU__crt_win32_buffer_internal_dynamic_resizing@@@@AAEXXZ 10088090 f i libucrtd:argv_wildcards.obj
 0001:000870d0       ?_deallocate@?$__crt_win32_buffer@_WU__crt_win32_buffer_internal_dynamic_resizing@@@@AAEXXZ 100880d0 f i libucrtd:argv_wildcards.obj
 0001:00087110       ?allocate@?$__crt_win32_buffer@DU__crt_win32_buffer_internal_dynamic_resizing@@@@QAEHI@Z 10088110 f i libucrtd:argv_wildcards.obj
 0001:00087180       ?allocate@?$__crt_win32_buffer@_WU__crt_win32_buffer_internal_dynamic_resizing@@@@QAEHI@Z 10088180 f i libucrtd:argv_wildcards.obj
 0001:000871f0       ?allocate@__crt_win32_buffer_internal_dynamic_resizing@@SAHQAPAXIABV__crt_win32_buffer_empty_debug_info@@@Z 100881f0 f i libucrtd:argv_wildcards.obj
 0001:00087330       ?capacity@?$__crt_win32_buffer@DU__crt_win32_buffer_internal_dynamic_resizing@@@@QBEIXZ 10088330 f i libucrtd:argv_wildcards.obj
 0001:00087350       ?capacity@?$__crt_win32_buffer@_WU__crt_win32_buffer_internal_dynamic_resizing@@@@QBEIXZ 10088350 f i libucrtd:argv_wildcards.obj
 0001:00087370       ?close@?$__crt_unique_handle_t@U__crt_findfile_traits@@@@QAEXXZ 10088370 f i libucrtd:argv_wildcards.obj
 0001:000873b0       ?close@__crt_findfile_traits@@SA_NPAX@Z 100883b0 f i libucrtd:argv_wildcards.obj
 0001:000873e0       ?data@?$__crt_win32_buffer@DU__crt_win32_buffer_internal_dynamic_resizing@@@@QAEPADXZ 100883e0 f i libucrtd:argv_wildcards.obj
 0001:00087400       ?data@?$__crt_win32_buffer@_WU__crt_win32_buffer_internal_dynamic_resizing@@@@QAEPA_WXZ 10088400 f i libucrtd:argv_wildcards.obj
 0001:00087420       ?deallocate@__crt_win32_buffer_internal_dynamic_resizing@@SAXQAXABV__crt_win32_buffer_empty_debug_info@@@Z 10088420 f i libucrtd:argv_wildcards.obj
 0001:00087440       ?debug_info@?$__crt_win32_buffer@DU__crt_win32_buffer_internal_dynamic_resizing@@@@QBEABV__crt_win32_buffer_empty_debug_info@@XZ 10088440 f i libucrtd:argv_wildcards.obj
 0001:00087450       ?debug_info@?$__crt_win32_buffer@_WU__crt_win32_buffer_internal_dynamic_resizing@@@@QBEABV__crt_win32_buffer_empty_debug_info@@XZ 10088450 f i libucrtd:argv_wildcards.obj
 0001:00087760       ?get@?$__crt_unique_handle_t@U__crt_findfile_traits@@@@QBEPAXXZ 10088760 f i libucrtd:argv_wildcards.obj
 0001:000877d0       ?get_invalid_value@__crt_findfile_traits@@SAPAXXZ 100887d0 f i libucrtd:argv_wildcards.obj
 0001:00087860       ?set_to_nullptr@?$__crt_win32_buffer@DU__crt_win32_buffer_internal_dynamic_resizing@@@@QAEXXZ 10088860 f i libucrtd:argv_wildcards.obj
 0001:000878a0       ?set_to_nullptr@?$__crt_win32_buffer@_WU__crt_win32_buffer_internal_dynamic_resizing@@@@QAEXXZ 100888a0 f i libucrtd:argv_wildcards.obj
 0001:000878e0       ?size@?$__crt_win32_buffer@DU__crt_win32_buffer_internal_dynamic_resizing@@@@QAEXI@Z 100888e0 f i libucrtd:argv_wildcards.obj
 0001:00087900       ?size@?$__crt_win32_buffer@_WU__crt_win32_buffer_internal_dynamic_resizing@@@@QAEXI@Z 10088900 f i libucrtd:argv_wildcards.obj
 0001:00087960       ?strpbrk@@YAPADQADQBD@Z    10088960 f i libucrtd:argv_wildcards.obj
 0001:00087980       ?wcspbrk@@YAPA_WPA_WPB_W@Z 10088980 f i libucrtd:argv_wildcards.obj
 0001:000879a0       ___acrt_expand_narrow_argv_wildcards 100889a0 f   libucrtd:argv_wildcards.obj
 0001:000879c0       ___acrt_expand_wide_argv_wildcards 100889c0 f   libucrtd:argv_wildcards.obj
 0001:00087aa0       ??$initialize_from_array@$$BY10BAA@E@?$dual_state_global@PAE@__crt_state_management@@QAAXAAY10BAA@E@Z 10088aa0 f i libucrtd:mbctype.obj
 0001:00087af0       ??$initialize_from_array@$$BY10BAB@E@?$dual_state_global@PAE@__crt_state_management@@QAAXAAY10BAB@E@Z 10088af0 f i libucrtd:mbctype.obj
 0001:00087d60       ?dangerous_get_state_array@?$dual_state_global@PAE@__crt_state_management@@QAEPAPAEXZ 10088d60 f i libucrtd:mbctype.obj
 0001:00087d70       ?dangerous_get_state_array@?$dual_state_global@PAU__crt_multibyte_data@@@__crt_state_management@@QAEPAPAU__crt_multibyte_data@@XZ 10088d70 f i libucrtd:mbctype.obj
 0001:00087e40       ?initialize@?$dual_state_global@PAU__crt_multibyte_data@@@__crt_state_management@@QAEXQAU__crt_multibyte_data@@@Z 10088e40 f i libucrtd:mbctype.obj
 0001:00088590       ?value@?$dual_state_global@PAE@__crt_state_management@@QAEAAPAEXZ 10089590 f i libucrtd:mbctype.obj
 0001:000885b0       ___acrt_initialize_multibyte 100895b0 f   libucrtd:mbctype.obj
 0001:00088660       ___acrt_update_thread_multibyte_data 10089660 f   libucrtd:mbctype.obj
 0001:00088680       ___p__mbcasemap            10089680 f   libucrtd:mbctype.obj
 0001:000886a0       ___p__mbctype              100896a0 f   libucrtd:mbctype.obj
 0001:000886c0       __getmbcp                  100896c0 f   libucrtd:mbctype.obj
 0001:00088730       __setmbcp                  10089730 f   libucrtd:mbctype.obj
 0001:00088760       __setmbcp_nolock           10089760 f   libucrtd:mbctype.obj
 0001:00088cd1       __ismbbalnum               10089cd1 f   libucrtd:ismbbyte.obj
 0001:00088cec       __ismbbalnum_l             10089cec f   libucrtd:ismbbyte.obj
 0001:00088d08       __ismbbalpha               10089d08 f   libucrtd:ismbbyte.obj
 0001:00088d23       __ismbbalpha_l             10089d23 f   libucrtd:ismbbyte.obj
 0001:00088d3f       __ismbbblank               10089d3f f   libucrtd:ismbbyte.obj
 0001:00088d62       __ismbbblank_l             10089d62 f   libucrtd:ismbbyte.obj
 0001:00088d86       __ismbbgraph               10089d86 f   libucrtd:ismbbyte.obj
 0001:00088da1       __ismbbgraph_l             10089da1 f   libucrtd:ismbbyte.obj
 0001:00088dbd       __ismbbkalnum              10089dbd f   libucrtd:ismbbyte.obj
 0001:00088dd5       __ismbbkalnum_l            10089dd5 f   libucrtd:ismbbyte.obj
 0001:00088dee       __ismbbkana                10089dee f   libucrtd:ismbbyte.obj
 0001:00088e01       __ismbbkana_l              10089e01 f   libucrtd:ismbbyte.obj
 0001:00088e50       __ismbbkprint              10089e50 f   libucrtd:ismbbyte.obj
 0001:00088e68       __ismbbkprint_l            10089e68 f   libucrtd:ismbbyte.obj
 0001:00088e81       __ismbbkpunct              10089e81 f   libucrtd:ismbbyte.obj
 0001:00088e99       __ismbbkpunct_l            10089e99 f   libucrtd:ismbbyte.obj
 0001:00088eb2       __ismbblead                10089eb2 f   libucrtd:ismbbyte.obj
 0001:00088eca       __ismbblead_l              10089eca f   libucrtd:ismbbyte.obj
 0001:00088ee3       __ismbbprint               10089ee3 f   libucrtd:ismbbyte.obj
 0001:00088efe       __ismbbprint_l             10089efe f   libucrtd:ismbbyte.obj
 0001:00088f1a       __ismbbpunct               10089f1a f   libucrtd:ismbbyte.obj
 0001:00088f32       __ismbbpunct_l             10089f32 f   libucrtd:ismbbyte.obj
 0001:00088f4b       __ismbbtrail               10089f4b f   libucrtd:ismbbyte.obj
 0001:00088f63       __ismbbtrail_l             10089f63 f   libucrtd:ismbbyte.obj
 0001:00088f80       ___acrt_initialize_command_line 10089f80 f   libucrtd:argv_data.obj
 0001:00088fa0       ___acrt_uninitialize_command_line 10089fa0 f   libucrtd:argv_data.obj
 0001:00088fb0       ___p___argc                10089fb0 f   libucrtd:argv_data.obj
 0001:00088fc0       ___p___argv                10089fc0 f   libucrtd:argv_data.obj
 0001:00088fd0       ___p___wargv               10089fd0 f   libucrtd:argv_data.obj
 0001:00088fe0       ___p__acmdln               10089fe0 f   libucrtd:argv_data.obj
 0001:00088ff0       ___p__pgmptr               10089ff0 f   libucrtd:argv_data.obj
 0001:00089000       ___p__wcmdln               1008a000 f   libucrtd:argv_data.obj
 0001:00089010       ___p__wpgmptr              1008a010 f   libucrtd:argv_data.obj
 0001:00089020       __get_pgmptr               1008a020 f   libucrtd:argv_data.obj
 0001:00089130       __get_wpgmptr              1008a130 f   libucrtd:argv_data.obj
 0001:000892f0       ___acrt_MultiByteToWideChar 1008a2f0 f   libucrtd:multibytetowidechar.obj
 0001:000893f0       ___acrt_WideCharToMultiByte 1008a3f0 f   libucrtd:widechartomultibyte.obj
 0001:00089549       ___dcrt_get_narrow_environment_from_os 1008a549 f   libucrtd:get_environment_from_os.obj
 0001:000895db       ___dcrt_get_wide_environment_from_os 1008a5db f   libucrtd:get_environment_from_os.obj
 0001:00089f70       ??$get_or_create_environment_nolock@$$V@?$__crt_char_traits@D@@SAPAPADXZ 1008af70 f i libucrtd:setenv.obj
 0001:00089f75       ??$get_or_create_environment_nolock@$$V@?$__crt_char_traits@_W@@SAPAPA_WXZ 1008af75 f i libucrtd:setenv.obj
 0001:00089f7a       ??$set_environment_variable@ABQADQAD@?$__crt_char_traits@D@@SAHABQAD$$QBQAD@Z 1008af7a f i libucrtd:setenv.obj
 0001:00089f92       ??$set_environment_variable@ABQA_WQA_W@?$__crt_char_traits@_W@@SAHABQA_W$$QBQA_W@Z 1008af92 f i libucrtd:setenv.obj
 0001:00089fa9       ??$tcschr@ABQADD@?$__crt_char_traits@D@@SAPADABQAD$$QAD@Z 1008afa9 f i libucrtd:setenv.obj
 0001:00089fc3       ??$tcschr@ABQA_WD@?$__crt_char_traits@_W@@SAPA_WABQA_W$$QAD@Z 1008afc3 f i libucrtd:setenv.obj
 0001:00089fe1       ??$tcscpy_s@AAPADABIAAPAD@?$__crt_char_traits@D@@SAHAAPADABI0@Z 1008afe1 f i libucrtd:setenv.obj
 0001:00089fff       ??$tcscpy_s@AAPA_WABIAAPA_W@?$__crt_char_traits@_W@@SAHAAPA_WABI0@Z 1008afff f i libucrtd:setenv.obj
 0001:0008a01d       ??$tcscpy_s@ABQADABIABQAD@?$__crt_char_traits@D@@SAHABQADABI0@Z 1008b01d f i libucrtd:setenv.obj
 0001:0008a03b       ??$tcscpy_s@ABQA_WABIABQA_W@?$__crt_char_traits@_W@@SAHABQA_WABI0@Z 1008b03b f i libucrtd:setenv.obj
 0001:0008a059       ??$tcslen@ABQAD@?$__crt_char_traits@D@@SAIABQAD@Z 1008b059 f i libucrtd:setenv.obj
 0001:0008a071       ??$tcslen@ABQA_W@?$__crt_char_traits@_W@@SAIABQA_W@Z 1008b071 f i libucrtd:setenv.obj
 0001:0008a08f       ??$tcsnicoll@ABQBDAAPADABI@?$__crt_char_traits@D@@SAHABQBDAAPADABI@Z 1008b08f f i libucrtd:setenv.obj
 0001:0008a0ad       ??$tcsnicoll@ABQB_WAAPA_WABI@?$__crt_char_traits@_W@@SAHABQB_WAAPA_WABI@Z 1008b0ad f i libucrtd:setenv.obj
 0001:0008a0cb       ??$tcsnlen@PADH@?$__crt_char_traits@D@@SAI$$QAPAD$$QAH@Z 1008b0cb f i libucrtd:setenv.obj
 0001:0008a0e3       ??$tcsnlen@PA_WH@?$__crt_char_traits@_W@@SAI$$QAPA_W$$QAH@Z 1008b0e3 f i libucrtd:setenv.obj
 0001:0008a11f       ?strchr@@YAPADQADH@Z       1008b11f f i libucrtd:setenv.obj
 0001:0008a12a       ?wcschr@@YAPA_WPA_W_W@Z    1008b12a f i libucrtd:setenv.obj
 0001:0008a135       ___dcrt_set_variable_in_narrow_environment_nolock 1008b135 f   libucrtd:setenv.obj
 0001:0008a140       ___dcrt_set_variable_in_wide_environment_nolock 1008b140 f   libucrtd:setenv.obj
 0001:0008a150       ___acrt_getheap            1008b150 f   libucrtd:heap_handle.obj
 0001:0008a190       ___acrt_initialize_heap    1008b190 f   libucrtd:heap_handle.obj
 0001:0008a1c0       ___acrt_uninitialize_heap  1008b1c0 f   libucrtd:heap_handle.obj
 0001:0008a1e0       __get_heap_handle          1008b1e0 f   libucrtd:heap_handle.obj
 0001:0008a220       ___acrt_execute_initializers 1008b220 f   libucrtd:shared_initialization.obj
 0001:0008a2d0       ___acrt_execute_uninitializers 1008b2d0 f   libucrtd:shared_initialization.obj
 0001:0008a330       ??$__crt_fast_decode_pointer@P6AHPAU_exception@@@Z@@YAP6AHPAU_exception@@@ZQ6AH0@Z@Z 1008b330 f i libucrtd:matherr.obj
 0001:0008a360       ??$__crt_fast_encode_pointer@P6AHPAU_exception@@@Z@@YAP6AHPAU_exception@@@ZQ6AH0@Z@Z 1008b360 f i libucrtd:matherr.obj
 0001:0008a390       ?initialize@?$dual_state_global@P6AHPAU_exception@@@Z@__crt_state_management@@QAEXQ6AHPAU_exception@@@Z@Z 1008b390 f i libucrtd:matherr.obj
 0001:0008a3d0       ?value@?$dual_state_global@P6AHPAU_exception@@@Z@__crt_state_management@@QAEAAP6AHPAU_exception@@@ZXZ 1008b3d0 f i libucrtd:matherr.obj
 0001:0008a3f0       ___acrt_has_user_matherr   1008b3f0 f   libucrtd:matherr.obj
 0001:0008a430       ___acrt_initialize_user_matherr 1008b430 f   libucrtd:matherr.obj
 0001:0008a450       ___acrt_invoke_user_matherr 1008b450 f   libucrtd:matherr.obj
 0001:0008a4a0       ___setusermatherr          1008b4a0 f   libucrtd:matherr.obj
 0001:0008a4e0       __free_base                1008b4e0 f   libucrtd:free_base.obj
 0001:0008a590       __expand                   1008b590 f   libucrtd:expand.obj
 0001:0008a5b0       __expand_base              1008b5b0 f   libucrtd:expand.obj
 0001:0008a6e0       ?value@?$dual_state_global@J@__crt_state_management@@QAEAAJXZ 1008b6e0 f i libucrtd:new_mode.obj
 0001:0008a700       __query_new_mode           1008b700 f   libucrtd:new_mode.obj
 0001:0008a720       __set_new_mode             1008b720 f   libucrtd:new_mode.obj
 0001:0008a7c0       __CrtDefaultAllocHook      1008b7c0 f   libucrtd:debug_heap_hook.obj
 0001:0008a7cc       __mbsdec                   1008b7cc f   libucrtd:mbsdec.obj
 0001:0008a7e3       __mbsdec_l                 1008b7e3 f   libucrtd:mbsdec.obj
 0001:0008acd0       _strncpy_s                 1008bcd0 f   libucrtd:strncpy_s.obj
 0001:0008aea0       ___acrt_report_runtime_error 1008bea0 f   libucrtd:report_runtime_error.obj
 0001:0008b090       __query_app_type           1008c090 f   libucrtd:report_runtime_error.obj
 0001:0008b0a0       __set_app_type             1008c0a0 f   libucrtd:report_runtime_error.obj
 0001:0008b0b0       __iswctype_l               1008c0b0 f   libucrtd:iswctype.obj
 0001:0008b0d0       _iswctype                  1008c0d0 f   libucrtd:iswctype.obj
 0001:0008b140       ___iswcsym                 1008c140 f i libucrtd:_wctype.obj
 0001:0008b180       ___iswcsymf                1008c180 f i libucrtd:_wctype.obj
 0001:0008b1c0       __isleadbyte_l             1008c1c0 f i libucrtd:_wctype.obj
 0001:0008b210       __iswalnum_l               1008c210 f i libucrtd:_wctype.obj
 0001:0008b230       __iswalpha_l               1008c230 f i libucrtd:_wctype.obj
 0001:0008b250       __iswblank_l               1008c250 f i libucrtd:_wctype.obj
 0001:0008b290       __iswcntrl_l               1008c290 f i libucrtd:_wctype.obj
 0001:0008b2b0       __iswcsym_l                1008c2b0 f i libucrtd:_wctype.obj
 0001:0008b2f0       __iswcsymf_l               1008c2f0 f i libucrtd:_wctype.obj
 0001:0008b330       __iswdigit_l               1008c330 f i libucrtd:_wctype.obj
 0001:0008b350       __iswgraph_l               1008c350 f i libucrtd:_wctype.obj
 0001:0008b370       __iswlower_l               1008c370 f i libucrtd:_wctype.obj
 0001:0008b390       __iswprint_l               1008c390 f i libucrtd:_wctype.obj
 0001:0008b3b0       __iswpunct_l               1008c3b0 f i libucrtd:_wctype.obj
 0001:0008b3d0       __iswspace_l               1008c3d0 f i libucrtd:_wctype.obj
 0001:0008b3f0       __iswupper_l               1008c3f0 f i libucrtd:_wctype.obj
 0001:0008b410       __iswxdigit_l              1008c410 f i libucrtd:_wctype.obj
 0001:0008b430       _isleadbyte                1008c430 f i libucrtd:_wctype.obj
 0001:0008b450       _iswalnum                  1008c450 f i libucrtd:_wctype.obj
 0001:0008b470       _iswalpha                  1008c470 f i libucrtd:_wctype.obj
 0001:0008b490       _iswascii                  1008c490 f i libucrtd:_wctype.obj
 0001:0008b4c0       _iswblank                  1008c4c0 f i libucrtd:_wctype.obj
 0001:0008b500       _iswcntrl                  1008c500 f i libucrtd:_wctype.obj
 0001:0008b520       _iswdigit                  1008c520 f i libucrtd:_wctype.obj
 0001:0008b540       _iswgraph                  1008c540 f i libucrtd:_wctype.obj
 0001:0008b560       _iswlower                  1008c560 f i libucrtd:_wctype.obj
 0001:0008b580       _iswprint                  1008c580 f i libucrtd:_wctype.obj
 0001:0008b5a0       _iswpunct                  1008c5a0 f i libucrtd:_wctype.obj
 0001:0008b5c0       _iswspace                  1008c5c0 f i libucrtd:_wctype.obj
 0001:0008b5e0       _iswupper                  1008c5e0 f i libucrtd:_wctype.obj
 0001:0008b600       _iswxdigit                 1008c600 f i libucrtd:_wctype.obj
 0001:0008b690       ?__mbrtowc_utf8@__crt_mbstring@@YAIPA_WPBDIPAU_Mbstatet@@@Z 1008c690 f   libucrtd:mbrtowc.obj
 0001:0008b6e0       ?__mbsrtowcs_utf8@__crt_mbstring@@YAIPA_WPAPBDIPAU_Mbstatet@@@Z 1008c6e0 f   libucrtd:mbrtowc.obj
 0001:0008bf50       _btowc                     1008cf50 f   libucrtd:mbrtowc.obj
 0001:0008bfc0       _mbrlen                    1008cfc0 f   libucrtd:mbrtowc.obj
 0001:0008c010       _mbrtowc                   1008d010 f   libucrtd:mbrtowc.obj
 0001:0008c0a0       _mbsrtowcs                 1008d0a0 f   libucrtd:mbrtowc.obj
 0001:0008c0c0       _mbsrtowcs_s               1008d0c0 f   libucrtd:mbrtowc.obj
 0001:0008c410       ??$?RG@__crt_internal_free_policy@@QBEXQBG@Z 1008d410 f i libucrtd:initctype.obj
 0001:0008c430       ??$?RJ@__crt_internal_free_policy@@QBEXQBJ@Z 1008d430 f i libucrtd:initctype.obj
 0001:0008c450       ??0?$__crt_unique_heap_ptr@GU__crt_internal_free_policy@@@@QAE@QAG@Z 1008d450 f i libucrtd:initctype.obj
 0001:0008c470       ??0?$__crt_unique_heap_ptr@JU__crt_internal_free_policy@@@@QAE@QAJ@Z 1008d470 f i libucrtd:initctype.obj
 0001:0008c490       ??1?$__crt_unique_heap_ptr@GU__crt_internal_free_policy@@@@QAE@XZ 1008d490 f i libucrtd:initctype.obj
 0001:0008c4b0       ??1?$__crt_unique_heap_ptr@JU__crt_internal_free_policy@@@@QAE@XZ 1008d4b0 f i libucrtd:initctype.obj
 0001:0008c4d0       ?detach@?$__crt_unique_heap_ptr@GU__crt_internal_free_policy@@@@QAEPAGXZ 1008d4d0 f i libucrtd:initctype.obj
 0001:0008c500       ?detach@?$__crt_unique_heap_ptr@JU__crt_internal_free_policy@@@@QAEPAJXZ 1008d500 f i libucrtd:initctype.obj
 0001:0008c530       ?release@?$__crt_unique_heap_ptr@GU__crt_internal_free_policy@@@@QAEXXZ 1008d530 f i libucrtd:initctype.obj
 0001:0008c560       ?release@?$__crt_unique_heap_ptr@JU__crt_internal_free_policy@@@@QAEXXZ 1008d560 f i libucrtd:initctype.obj
 0001:0008c590       ____lc_codepage_func       1008d590 f   libucrtd:initctype.obj
 0001:0008c5d0       ____lc_collate_cp_func     1008d5d0 f   libucrtd:initctype.obj
 0001:0008c610       ____lc_locale_name_func    1008d610 f   libucrtd:initctype.obj
 0001:0008c650       ____mb_cur_max_func        1008d650 f   libucrtd:initctype.obj
 0001:0008c690       ____mb_cur_max_l_func      1008d690 f   libucrtd:initctype.obj
 0001:0008c6c0       ___acrt_locale_initialize_ctype 1008d6c0 f   libucrtd:initctype.obj
 0001:0008ce40       ?__c32rtomb_utf8@__crt_mbstring@@YAIPAD_UPAU_Mbstatet@@@Z 1008de40 f   libucrtd:c32rtomb.obj
 0001:0008d020       ?reset_and_return@__crt_mbstring@@YAIIPAU_Mbstatet@@@Z 1008e020 f i libucrtd:c32rtomb.obj
 0001:0008d050       ?return_illegal_sequence@__crt_mbstring@@YAIPAU_Mbstatet@@@Z 1008e050 f i libucrtd:c32rtomb.obj
 0001:0008d080       _c32rtomb                  1008e080 f   libucrtd:c32rtomb.obj
 0001:0008d0a0       ___acrt_add_locale_ref     1008e0a0 f   libucrtd:locale_refcounting.obj
 0001:0008d1b0       ___acrt_free_locale        1008e1b0 f   libucrtd:locale_refcounting.obj
 0001:0008d480       ___acrt_locale_add_lc_time_reference 1008e480 f   libucrtd:locale_refcounting.obj
 0001:0008d4c0       ___acrt_locale_free_lc_time_if_unreferenced 1008e4c0 f   libucrtd:locale_refcounting.obj
 0001:0008d510       ___acrt_locale_release_lc_time_reference 1008e510 f   libucrtd:locale_refcounting.obj
 0001:0008d540       ___acrt_release_locale_ref 1008e540 f   libucrtd:locale_refcounting.obj
 0001:0008d650       ___acrt_update_thread_locale_data 1008e650 f   libucrtd:locale_refcounting.obj
 0001:0008d730       __updatetlocinfoEx_nolock  1008e730 f   libucrtd:locale_refcounting.obj
 0001:0008d8b0       ___acrt_fp_strflt_to_string 1008e8b0 f   libucrtd:_fptostr.obj
 0001:0008e270       ??0big_integer@__crt_strtox@@QAE@ABU01@@Z 1008f270 f i libucrtd:cfout.obj
 0001:0008e2b0       ??0big_integer@__crt_strtox@@QAE@XZ 1008f2b0 f i libucrtd:cfout.obj
 0001:0008e370       ??4big_integer@__crt_strtox@@QAEAAU01@ABU01@@Z 1008f370 f i libucrtd:cfout.obj
 0001:0008e3b0       ??8__crt_strtox@@YA_NABUbig_integer@0@0@Z 1008f3b0 f i libucrtd:cfout.obj
 0001:0008e410       ??9__crt_strtox@@YA_NABUbig_integer@0@0@Z 1008f410 f i libucrtd:cfout.obj
 0001:0008e450       ?add_carry@__crt_strtox@@YAIAAIII@Z 1008f450 f i libucrtd:cfout.obj
 0001:0008e490       ?add_multiply_carry@__crt_strtox@@YAIAAIIII@Z 1008f490 f i libucrtd:cfout.obj
 0001:0008e4d0       ?bit_scan_reverse@__crt_strtox@@YAII@Z 1008f4d0 f i libucrtd:cfout.obj
 0001:0008e500       ?count_sequential_high_zeroes@__crt_strtox@@YAII@Z 1008f500 f i libucrtd:cfout.obj
 0001:0008e540       ?divide@__crt_strtox@@YA_KAAUbig_integer@1@ABU21@@Z 1008f540 f i libucrtd:cfout.obj
 0001:0008efc0       ?is_zero@__crt_strtox@@YA_NABUbig_integer@1@@Z 1008ffc0 f i libucrtd:cfout.obj
 0001:0008eff0       ?make_big_integer@__crt_strtox@@YA?AUbig_integer@1@_K@Z 1008fff0 f i libucrtd:cfout.obj
 0001:0008f0a0       ?make_big_integer_power_of_two@__crt_strtox@@YA?AUbig_integer@1@I@Z 100900a0 f i libucrtd:cfout.obj
 0001:0008f150       ?multiply@__crt_strtox@@YA_NAAUbig_integer@1@ABU21@@Z 10090150 f i libucrtd:cfout.obj
 0001:0008f4d0       ?multiply@__crt_strtox@@YA_NAAUbig_integer@1@I@Z 100904d0 f i libucrtd:cfout.obj
 0001:0008f5a0       ?multiply_64_32@__crt_strtox@@YA_K_KI@Z 100905a0 f i libucrtd:cfout.obj
 0001:0008f5c0       ?multiply_by_power_of_ten@__crt_strtox@@YA_NAAUbig_integer@1@I@Z 100905c0 f i libucrtd:cfout.obj
 0001:0008f760       ?multiply_core@__crt_strtox@@YAIQAIII@Z 10090760 f i libucrtd:cfout.obj
 0001:0008f7d0       ?shift_left@__crt_strtox@@YA_NAAUbig_integer@1@I@Z 100907d0 f i libucrtd:cfout.obj
 0001:0008fab0       ___acrt_fltout             10090ab0 f   libucrtd:cfout.obj
 0001:0008feb0       ___fpe_flt_rounds          10090eb0 f   libucrtd:fegetround.obj
 0001:0008ff10       _fegetround                10090f10 f   libucrtd:fegetround.obj
 0001:0008ff30       __fcloseall                10090f30 f   libucrtd:closeall.obj
 0001:00090060       __isatty                   10091060 f   libucrtd:isatty.obj
 0001:00090130       ??$?RUlconv@@@__crt_internal_free_policy@@QBEXQBUlconv@@@Z 10091130 f i libucrtd:initmon.obj
 0001:00090150       ??0?$__crt_unique_heap_ptr@Ulconv@@U__crt_internal_free_policy@@@@QAE@QAUlconv@@@Z 10091150 f i libucrtd:initmon.obj
 0001:00090170       ??1?$__crt_unique_heap_ptr@Ulconv@@U__crt_internal_free_policy@@@@QAE@XZ 10091170 f i libucrtd:initmon.obj
 0001:00090190       ?detach@?$__crt_unique_heap_ptr@Ulconv@@U__crt_internal_free_policy@@@@QAEPAUlconv@@XZ 10091190 f i libucrtd:initmon.obj
 0001:000901c0       ?release@?$__crt_unique_heap_ptr@Ulconv@@U__crt_internal_free_policy@@@@QAEXXZ 100911c0 f i libucrtd:initmon.obj
 0001:000901f0       ___acrt_locale_free_monetary 100911f0 f   libucrtd:initmon.obj
 0001:000903a0       ___acrt_locale_initialize_monetary 100913a0 f   libucrtd:initmon.obj
 0001:00090a40       ___acrt_locale_free_numeric 10091a40 f   libucrtd:initnum.obj
 0001:00090af0       ___acrt_locale_initialize_numeric 10091af0 f   libucrtd:initnum.obj
 0001:00090f40       ??$?RU__crt_lc_time_data@@@__crt_internal_free_policy@@QBEXQBU__crt_lc_time_data@@@Z 10091f40 f i libucrtd:inittime.obj
 0001:00091020       ??0?$__crt_unique_heap_ptr@U__crt_lc_time_data@@U__crt_internal_free_policy@@@@QAE@QAU__crt_lc_time_data@@@Z 10092020 f i libucrtd:inittime.obj
