 OPOSVideoCapture

 Timestamp is 61a75bb1 (Wed Dec  1 20:25:37 2021)

 Preferred load address is 10000000

 Start         Length     Name                   Class
 0001:00000000 00000d90H .text$di                CODE
 0001:00000d90 000b7760H .text$mn                CODE
 0001:000b84f0 00000cb0H .text$x                 CODE
 0001:000b91a0 00000120H .text$yd                CODE
 0002:00000000 00000358H .idata$5                DATA
 0002:00000358 0000000cH .00cfg                  DATA
 0002:00000364 00000004H .CRT$XCA                DATA
 0002:00000368 00000004H .CRT$XCL                DATA
 0002:0000036c 0000006cH .CRT$XCU                DATA
 0002:000003d8 00000004H .CRT$XCZ                DATA
 0002:000003dc 00000004H .CRT$XIA                DATA
 0002:000003e0 00000014H .CRT$XIC                DATA
 0002:000003f4 00000004H .CRT$XIZ                DATA
 0002:000003f8 00000004H .CRT$XLA                DATA
 0002:000003fc 00000004H .CRT$XLZ                DATA
 0002:00000400 00000004H .CRT$XPA                DATA
 0002:00000404 00000008H .CRT$XPX                DATA
 0002:0000040c 00000004H .CRT$XPXA               DATA
 0002:00000410 00000004H .CRT$XPZ                DATA
 0002:00000414 00000004H .CRT$XTA                DATA
 0002:00000418 00000008H .CRT$XTZ                DATA
 0002:0000041c 00000000H .gfids$y                DATA
 0002:00000420 0002f9e0H .rdata                  DATA
 0002:0002fe00 00000040H .rdata$CastGuardVftablesA DATA
 0002:0002fe40 00000040H .rdata$CastGuardVftablesC DATA
 0002:0002fe80 00000018H .rdata$T                DATA
 0002:0002fe98 0000033cH .rdata$r                DATA
 0002:000301d4 000001a0H .rdata$sxdata           DATA
 0002:00030374 00000178H .rdata$voltmd           DATA
 0002:000304ec 0000047cH .rdata$zzzdbg           DATA
 0002:00030968 00000004H .rtc$IAA                DATA
 0002:0003096c 00000018H .rtc$IMZ                DATA
 0002:00030984 00000004H .rtc$IZZ                DATA
 0002:00030988 00000004H .rtc$TAA                DATA
 0002:0003098c 00000018H .rtc$TMZ                DATA
 0002:000309a4 00000004H .rtc$TZZ                DATA
 0002:000309a8 00000004H .tls                    DATA
 0002:000309ac 00000004H .tls$                   DATA
 0002:000309b0 00000008H .tls$ZZZ                DATA
 0002:000309b8 00001a4cH .xdata$x                DATA
 0002:00032404 00000004H ATL$__a                 DATA
 0002:00032408 00000008H ATL$__z                 DATA
 0002:00032410 000000b0H .edata                  DATA
 0002:000324c0 00000078H .idata$2                DATA
 0002:00032538 00000014H .idata$3                DATA
 0002:0003254c 00000358H .idata$4                DATA
 0002:000328a4 00000d56H .idata$6                DATA
 0003:00000000 00000b90H .data                   DATA
 0003:00000b90 00000080H .data$r                 DATA
 0003:00000c10 000000b8H .data$rs                DATA
 0003:00000cc8 00003580H .bss                    DATA
 0004:00000000 00000220H .rsrc$01                DATA
 0004:00000220 000057f8H .rsrc$02                DATA

  Address         Publics by Value              Rva+Base       Lib:Object

 0000:00000000       ___guard_iat_count         00000000     <absolute>
 0000:00000000       ___arm64x_native_entrypoint 00000000     <absolute>
 0000:00000000       ___arm64x_extra_rfe_table  00000000     <absolute>
 0000:00000000       ___dynamic_value_reloc_table 00000000     <absolute>
 0000:00000000       ___guard_longjmp_table     00000000     <absolute>
 0000:00000000       ___hybrid_code_map_count   00000000     <absolute>
 0000:00000000       ___guard_iat_table         00000000     <absolute>
 0000:00000000       __except_list              00000000     <absolute>
 0000:00000000       ___hybrid_auxiliary_iat_copy 00000000     <absolute>
 0000:00000000       ___hybrid_auxiliary_iat    00000000     <absolute>
 0000:00000000       ___x64_code_ranges_to_entry_points_count 00000000     <absolute>
 0000:00000000       ___arm64x_redirection_metadata_count 00000000     <absolute>
 0000:00000000       ___guard_check_icall_a64n_fptr 00000000     <absolute>
 0000:00000000       ___guard_eh_cont_table     00000000     <absolute>
 0000:00000000       ___enclave_config          00000000     <absolute>
 0000:00000000       ___guard_longjmp_count     00000000     <absolute>
 0000:00000000       ___AbsoluteZero            00000000     <absolute>
 0000:00000000       ___arm64x_extra_rfe_table_size 00000000     <absolute>
 0000:00000000       ___guard_fids_count        00000000     <absolute>
 0000:00000000       ___guard_eh_cont_count     00000000     <absolute>
 0000:00000000       ___hybrid_code_map         00000000     <absolute>
 0000:00000000       ___guard_fids_table        00000000     <absolute>
 0000:00000000       ___arm64x_redirection_metadata 00000000     <absolute>
 0000:00000000       ___x64_code_ranges_to_entry_points 00000000     <absolute>
 0000:0000002c       __tls_array                0000002c     <absolute>
 0000:00000068       ___safe_se_handler_count   00000068     <absolute>
 0000:00000100       ___guard_flags             00000100     <absolute>
 0000:00000000       ___ImageBase               10000000     <linker-defined>
 0001:00000d90       ?_assert@@YAXPB_W0I@Z      10001d90 f   Assert.obj
 0001:00000ec0       ___local_stdio_printf_options 10001ec0 f i Assert.obj
 0001:00000ed0       ___vswprintf_l             10001ed0 f i Assert.obj
 0001:00000f00       __swprintf                 10001f00 f i Assert.obj
 0001:00000f60       __vswprintf_c_l            10001f60 f i Assert.obj
 0001:00000fd0       __vswprintf_l              10001fd0 f i Assert.obj
 0001:00001000       ?cw_memcpy@@YGHPADPB_WH@Z  10002000 f   CWString.obj
 0001:00001060       ?cw_memcpy@@YGHPA_WPBDH@Z  10002060 f   CWString.obj
 0001:000010c0       ?cw_memcpy@@YGHPADPBDH@Z   100020c0 f   CWString.obj
 0001:00001110       ?cw_memcpy@@YGHPA_WPB_WH@Z 10002110 f   CWString.obj
 0001:00001150       ?cw_memset@@YAXPADDH@Z     10002150 f   CWString.obj
 0001:00001170       ?cw_memset@@YAXPA_W_WH@Z   10002170 f   CWString.obj
 0001:00001190       ?cw_strlen@@YAHPBD@Z       10002190 f   CWString.obj
 0001:000011d0       ?cw_strlen@@YAHPB_W@Z      100021d0 f   CWString.obj
 0001:00001210       ?cw_strcpy@@YAHPADPB_W@Z   10002210 f   CWString.obj
 0001:00001230       ?cw_strcpy@@YAHPA_WPBD@Z   10002230 f   CWString.obj
 0001:00001250       ?cw_strcpy@@YAHPADPBD@Z    10002250 f   CWString.obj
 0001:00001270       ?cw_strcpy@@YAHPA_WPB_W@Z  10002270 f   CWString.obj
 0001:00001290       ?cw_strcat@@YAHPADPB_W@Z   10002290 f   CWString.obj
 0001:000012c0       ?cw_strcat@@YAHPA_WPBD@Z   100022c0 f   CWString.obj
 0001:000012f0       ?cw_strcat@@YAHPADPBD@Z    100022f0 f   CWString.obj
 0001:00001320       ?cw_strcat@@YAHPA_WPB_W@Z  10002320 f   CWString.obj
 0001:00001350       ?cw_dup@@YGXPBDAAHAAPA_W1@Z 10002350 f   CWString.obj
 0001:00001410       ?cw_dup@@YGXPB_WAAHAAPAD1@Z 10002410 f   CWString.obj
 0001:000014c0       ?DupChar@_CW@@AAEXXZ       100024c0 f   CWString.obj
 0001:00001510       ?DupWide@_CW@@AAEXXZ       10002510 f   CWString.obj
 0001:00001560       ?GetCharsMbcs@_CW@@QAEHXZ  10002560 f   CWString.obj
 0001:000015c0       ?GetCharsWide@_CW@@QAEHXZ  100025c0 f   CWString.obj
 0001:00001620       ?SetVARIANT_BOOL@OposVariant@@QAEXF@Z 10002620 f   OposVariant.obj
 0001:00001680       ?SetVARIANT_BOOL_Ptr@OposVariant@@QAEXPAFAAJ@Z 10002680 f   OposVariant.obj
 0001:000016d0       ?GetLONG@OposVariant@@QAEJXZ 100026d0 f   OposVariant.obj
 0001:00001760       ?ChangeLONG@OposVariant@@QAEXPAJAAJ@Z 10002760 f   OposVariant.obj
 0001:00001820       ?SetLONG@OposVariant@@QAEXJ@Z 10002820 f   OposVariant.obj
 0001:00001860       ?SetLONG_Ptr@OposVariant@@QAEXPAJAAJ@Z 10002860 f   OposVariant.obj
 0001:000018b0       ?ChangeCURRENCY@OposVariant@@QAEXPATtagCY@@AAJ@Z 100028b0 f   OposVariant.obj
 0001:00001970       ?SetCURRENCY@OposVariant@@QAEXTtagCY@@@Z 10002970 f   OposVariant.obj
 0001:000019b0       ?SetCURRENCY_Ptr@OposVariant@@QAEXPATtagCY@@AAJ@Z 100029b0 f   OposVariant.obj
 0001:00001a00       ?ChangeBSTR@OposVariant@@QAEXPAPA_WAAJ@Z 10002a00 f   OposVariant.obj
 0001:00001ac0       ?SetBSTR@OposVariant@@QAEXPA_WAAJ@Z 10002ac0 f   OposVariant.obj
 0001:00001b10       ?SetBSTR_Copy@OposVariant@@QAEXPA_WAAJ@Z 10002b10 f   OposVariant.obj
 0001:00001bb0       ?SetBSTR_OutPtr@OposVariant@@QAE_NPAPA_WAAJ@Z 10002bb0 f   OposVariant.obj
 0001:00001c00       ?SetBSTR_InOutPtr@OposVariant@@QAE_NPAPA_WAAJ@Z 10002c00 f   OposVariant.obj
 0001:00001c50       ?SetVARIANT@OposVariant@@QAEXAAUtagVARIANT@@GAAJ@Z 10002c50 f   OposVariant.obj
 0001:00001cd0       ?SetVARIANT_Ptr@OposVariant@@QAEXAAPAUtagVARIANT@@GAAJ@Z 10002cd0 f   OposVariant.obj
 0001:00001d70       ?SetString@OposVariant@@QAEXPB_WAAJ@Z 10002d70 f   OposVariant.obj
 0001:00001e00       ?SetDispatch_Ptr@OposVariant@@QAEXPAUIDispatch@@AAJ@Z 10002e00 f   OposVariant.obj
 0001:00001e70       ??0OposDispParms@@QAE@PAVOposVariant@@H@Z 10002e70 f   OposVariant.obj
 0001:00001f40       ??1OposDispParms@@QAE@XZ   10002f40 f   OposVariant.obj
 0001:00001f90       ??$AtlMultiply@I@ATL@@YAJPAIII@Z 10002f90 f i OposVariant.obj
 0001:00001ff0       ??0?$CHeapPtr@_WVCCRTAllocator@ATL@@@ATL@@QAE@XZ 10002ff0 f i OposVariant.obj
 0001:00002020       ??0?$CHeapPtrBase@_WVCCRTAllocator@ATL@@@ATL@@IAE@XZ 10003020 f i OposVariant.obj
 0001:00002040       ??0?$CSimpleArray@GV?$CSimpleArrayEqualHelper@G@ATL@@@ATL@@QAE@XZ 10003040 f i OposVariant.obj
 0001:00002070       ??0?$CTraceCategoryEx@$00$0A@@ATL@@QAE@PB_W@Z 10003070 f i OposVariant.obj
 0001:000020a0       ??0?$CTraceCategoryEx@$01$0A@@ATL@@QAE@PB_W@Z 100030a0 f i OposVariant.obj
 0001:000020d0       ??0?$CTraceCategoryEx@$03$0A@@ATL@@QAE@PB_W@Z 100030d0 f i OposVariant.obj
 0001:00002100       ??0?$CTraceCategoryEx@$07$0A@@ATL@@QAE@PB_W@Z 10003100 f i OposVariant.obj
 0001:00002130       ??0?$CTraceCategoryEx@$0BA@$0A@@ATL@@QAE@PB_W@Z 10003130 f i OposVariant.obj
 0001:00002160       ??0?$CTraceCategoryEx@$0BAA@$0A@@ATL@@QAE@PB_W@Z 10003160 f i OposVariant.obj
 0001:000021a0       ??0?$CTraceCategoryEx@$0BAAA@$0A@@ATL@@QAE@PB_W@Z 100031a0 f i OposVariant.obj
 0001:000021e0       ??0?$CTraceCategoryEx@$0BAAAA@$0A@@ATL@@QAE@PB_W@Z 100031e0 f i OposVariant.obj
 0001:00002220       ??0?$CTraceCategoryEx@$0BAAAAA@$0A@@ATL@@QAE@PB_W@Z 10003220 f i OposVariant.obj
 0001:00002260       ??0?$CTraceCategoryEx@$0CA@$0A@@ATL@@QAE@PB_W@Z 10003260 f i OposVariant.obj
 0001:00002290       ??0?$CTraceCategoryEx@$0CAA@$0A@@ATL@@QAE@PB_W@Z 10003290 f i OposVariant.obj
 0001:000022d0       ??0?$CTraceCategoryEx@$0CAAA@$0A@@ATL@@QAE@PB_W@Z 100032d0 f i OposVariant.obj
 0001:00002310       ??0?$CTraceCategoryEx@$0CAAAA@$0A@@ATL@@QAE@PB_W@Z 10003310 f i OposVariant.obj
 0001:00002350       ??0?$CTraceCategoryEx@$0CAAAAA@$0A@@ATL@@QAE@PB_W@Z 10003350 f i OposVariant.obj
 0001:00002390       ??0?$CTraceCategoryEx@$0EA@$0A@@ATL@@QAE@PB_W@Z 10003390 f i OposVariant.obj
 0001:000023c0       ??0?$CTraceCategoryEx@$0EAA@$0A@@ATL@@QAE@PB_W@Z 100033c0 f i OposVariant.obj
 0001:00002400       ??0?$CTraceCategoryEx@$0EAAA@$0A@@ATL@@QAE@PB_W@Z 10003400 f i OposVariant.obj
 0001:00002440       ??0?$CTraceCategoryEx@$0EAAAA@$0A@@ATL@@QAE@PB_W@Z 10003440 f i OposVariant.obj
 0001:00002480       ??0?$CTraceCategoryEx@$0EAAAAA@$0A@@ATL@@QAE@PB_W@Z 10003480 f i OposVariant.obj
 0001:000024c0       ??0?$CTraceCategoryEx@$0IA@$0A@@ATL@@QAE@PB_W@Z 100034c0 f i OposVariant.obj
 0001:00002500       ??0?$CTraceCategoryEx@$0IAA@$0A@@ATL@@QAE@PB_W@Z 10003500 f i OposVariant.obj
 0001:00002540       ??0?$CTraceCategoryEx@$0IAAA@$0A@@ATL@@QAE@PB_W@Z 10003540 f i OposVariant.obj
 0001:00002580       ??0?$CTraceCategoryEx@$0IAAAA@$0A@@ATL@@QAE@PB_W@Z 10003580 f i OposVariant.obj
 0001:000025c0       ??0CAtlComModule@ATL@@QAE@XZ 100035c0 f i OposVariant.obj
 0001:000026a0       ??0CAtlWinModule@ATL@@QAE@XZ 100036a0 f i OposVariant.obj
 0001:00002730       ??0CComCriticalSection@ATL@@QAE@XZ 10003730 f i OposVariant.obj
 0001:00002760       ??0CPreserveLastError@ATL@@QAE@XZ 10003760 f i OposVariant.obj
 0001:000027a0       ??0CTraceFileAndLineInfo@ATL@@QAE@PBDH@Z 100037a0 f i OposVariant.obj
 0001:000027d0       ??0_ATL_COM_MODULE70@ATL@@QAE@XZ 100037d0 f i OposVariant.obj
 0001:00002800       ??0_ATL_WIN_MODULE70@ATL@@QAE@XZ 10003800 f i OposVariant.obj
 0001:00002840       ??1?$CHeapPtr@_WVCCRTAllocator@ATL@@@ATL@@QAE@XZ 10003840 f i OposVariant.obj
 0001:00002870       ??1?$CHeapPtrBase@_WVCCRTAllocator@ATL@@@ATL@@QAE@XZ 10003870 f i OposVariant.obj
 0001:000028a0       ??1?$CSimpleArray@GV?$CSimpleArrayEqualHelper@G@ATL@@@ATL@@QAE@XZ 100038a0 f i OposVariant.obj
 0001:000028d0       ??1CAtlComModule@ATL@@QAE@XZ 100038d0 f i OposVariant.obj
 0001:00002900       ??1CAtlWinModule@ATL@@QAE@XZ 10003900 f i OposVariant.obj
 0001:00002930       ??1CComBSTR@ATL@@QAE@XZ    10003930 f i OposVariant.obj
 0001:00002970       ??1CComCriticalSection@ATL@@QAE@XZ 10003970 f i OposVariant.obj
 0001:00002980       ??1CPreserveLastError@ATL@@QAE@XZ 10003980 f i OposVariant.obj
 0001:000029c0       ??1_ATL_COM_MODULE70@ATL@@QAE@XZ 100039c0 f i OposVariant.obj
 0001:000029f0       ??1_ATL_WIN_MODULE70@ATL@@QAE@XZ 100039f0 f i OposVariant.obj
 0001:00002a30       ??1stringdispid@CComTypeInfoHolder@ATL@@QAE@XZ 10003a30 f i OposVariant.obj
 0001:00002a60       ??A?$CSimpleArray@GV?$CSimpleArrayEqualHelper@G@ATL@@@ATL@@QAEAAGH@Z 10003a60 f i OposVariant.obj
 0001:00002ae0       ??B?$CHeapPtrBase@_WVCCRTAllocator@ATL@@@ATL@@QBEPA_WXZ 10003ae0 f i OposVariant.obj
 0001:00002af0       ??B?$CTraceCategoryEx@$01$0A@@ATL@@QAEIXZ 10003af0 f i OposVariant.obj
 0001:00002b00       ??B?$CTraceCategoryEx@$0CA@$0A@@ATL@@QAEIXZ 10003b00 f i OposVariant.obj
 0001:00002b10       ??RCTraceFileAndLineInfo@ATL@@QBAXHIPB_WZZ 10003b10 f i OposVariant.obj
 0001:00002bb0       ??_Estringdispid@CComTypeInfoHolder@ATL@@QAEPAXI@Z 10003bb0 f i OposVariant.obj
 0001:00002c40       ??_H@YGXPAXIIP6EPAX0@Z@Z   10003c40 f i OposVariant.obj
 0001:00002cb0       ??_I@YGXPAXIIP6EX0@Z@Z     10003cb0 f i OposVariant.obj
 0001:00002d30       ?Allocate@?$CHeapPtr@_WVCCRTAllocator@ATL@@@ATL@@QAE_NI@Z 10003d30 f i OposVariant.obj
 0001:00002dc0       ?Allocate@CCRTAllocator@ATL@@SAPAXI@Z 10003dc0 f i OposVariant.obj
 0001:00002de0       ?AllocateBytes@?$CHeapPtrBase@_WVCCRTAllocator@ATL@@@ATL@@QAE_NI@Z 10003de0 f i OposVariant.obj
 0001:00002e50       ?AtlWinModuleInit@ATL@@YGJPAU_ATL_WIN_MODULE70@1@@Z 10003e50 f i OposVariant.obj
 0001:00002f20       ?AtlWinModuleTerm@ATL@@YGJPAU_ATL_WIN_MODULE70@1@PAUHINSTANCE__@@@Z 10003f20 f i OposVariant.obj
 0001:00002fe0       ?Clear@OposVariant@@QAEJXZ 10003fe0 f i OposVariant.obj
 0001:00003020       ?Free@?$CHeapPtrBase@_WVCCRTAllocator@ATL@@@ATL@@QAEXXZ 10004020 f i OposVariant.obj
 0001:00003060       ?Free@CCRTAllocator@ATL@@SAXPAX@Z 10004060 f i OposVariant.obj
 0001:00003080       ?GetCategoryName@CTrace@ATL@@CAPA_WI@Z 10004080 f i OposVariant.obj
 0001:000030d0       ?GetModuleInstance@CAtlBaseModule@ATL@@QAEPAUHINSTANCE__@@XZ 100040d0 f i OposVariant.obj
 0001:000030f0       ?GetSize@?$CSimpleArray@GV?$CSimpleArrayEqualHelper@G@ATL@@@ATL@@QBEHXZ 100040f0 f i OposVariant.obj
 0001:00003110       ?Init@CComCriticalSection@ATL@@QAEJXZ 10004110 f i OposVariant.obj
 0001:00003170       ?RegisterCategory@CTrace@ATL@@SAXPB_WI@Z 10004170 f i OposVariant.obj
 0001:00003200       ?RemoveAll@?$CSimpleArray@GV?$CSimpleArrayEqualHelper@G@ATL@@@ATL@@QAEXXZ 10004200 f i OposVariant.obj
 0001:00003280       ?Term@CAtlComModule@ATL@@QAEXXZ 10004280 f i OposVariant.obj
 0001:00003340       ?Term@CAtlWinModule@ATL@@QAEXXZ 10004340 f i OposVariant.obj
 0001:00003370       ?Term@CComCriticalSection@ATL@@QAEJXZ 10004370 f i OposVariant.obj
 0001:000033b0       ?TraceV@CTrace@ATL@@CAXPBDHIIPB_W@Z 100043b0 f i OposVariant.obj
 0001:00003630       ?TraceV@CTrace@ATL@@SAXPBDHIIPB_WPAD@Z 10004630 f i OposVariant.obj
 0001:00003770       ?_AtlInitializeCriticalSectionEx@ATL@@YAHPAU_RTL_CRITICAL_SECTION@@KK@Z 10004770 f i OposVariant.obj
 0001:000037a0       ?_AtlRaiseException@ATL@@YAXKK@Z 100047a0 f i OposVariant.obj
 0001:000037d0       _HRESULT_FROM_WIN32        100047d0 f i OposVariant.obj
 0001:00003810       __vswprintf_s_l            10004810 f i OposVariant.obj
 0001:00003880       _swprintf_s                10004880 f i OposVariant.obj
 0001:000038e0       ?ObjectMain@CComObjectRootBase@ATL@@SGX_N@Z 100048e0 f i VideoCapture.obj
 0001:000038f0       ?GetCategoryMap@CComObjectRootBase@ATL@@SAPBU_ATL_CATMAP_ENTRY@2@XZ 100048f0 f i VideoCapture.obj
 0001:00003900       ?GetObjectDescription@?$CComCoClass@VCOPOSVideoCapture@@$1?CLSID_OPOSVideoCapture@@3U_GUID@@B@ATL@@SGPB_WXZ 10004900 f i VideoCapture.obj
 0001:00003910       ?UpdateRegistry@COPOSVideoCapture@@SGJH@Z 10004910 f i VideoCapture.obj
 0001:00003930       ?CreateInstance@?$CComCreator@V?$CComObjectCached@VCComClassFactory@ATL@@@ATL@@@ATL@@SGJPAXABU_GUID@@PAPAX@Z 10004930 f i VideoCapture.obj
 0001:00003ab0       ?CreateInstance@?$CComCreator2@V?$CComCreator@V?$CComObject@VCOPOSVideoCapture@@@ATL@@@ATL@@V?$CComCreator@V?$CComAggObject@VCOPOSVideoCapture@@@ATL@@@2@@ATL@@SGJPAXABU_GUID@@PAPAX@Z 10004ab0 f i VideoCapture.obj
 0001:00003c60       _DllGetClassObject@12      10004c60 f   VideoCapture.obj
 0001:00003c90       _DllCanUnloadNow@0         10004c90 f   VideoCapture.obj
 0001:00003cd0       _DllRegisterServer@0       10004cd0 f   VideoCapture.obj
 0001:00003cf0       _DllUnregisterServer@0     10004cf0 f   VideoCapture.obj
 0001:00003e80       _DllMain@12                10004e80 f   VideoCapture.obj
 0001:00003ee0       ??$?2G@Wrapper@?$CSimpleArray@GV?$CSimpleArrayEqualHelper@G@ATL@@@ATL@@SAPAXIPAG@Z 10004ee0 f i VideoCapture.obj
 0001:00003ef0       ??$?2PA_W@?$Wrapper@PA_W@?$CSimpleMap@PA_WPA_WVCExpansionVectorEqualHelper@ATL@@@ATL@@SAPAXIPAPA_W@Z 10004ef0 f i VideoCapture.obj
 0001:00003f00       ??$?4UITypeInfo2@@@?$CComPtr@UITypeInfo@@@ATL@@QAEPAUITypeInfo@@ABV?$CComPtr@UITypeInfo2@@@1@@Z 10004f00 f i VideoCapture.obj
 0001:00003f60       ??$AtlAdd@K@ATL@@YAJPAKKK@Z 10004f60 f i VideoCapture.obj
 0001:00003fa0       ??$AtlAdd@_K@ATL@@YAJPA_K_K1@Z 10004fa0 f i VideoCapture.obj
 0001:00004010       ??$AtlAddThrow@K@ATL@@YAKKK@Z 10005010 f i VideoCapture.obj
 0001:00004090       ??$AtlModuleRegisterWndClassInfoT@VAtlModuleRegisterWndClassInfoParamW@ATL@@@ATL@@YAGPAU_ATL_BASE_MODULE70@0@PAU_ATL_WIN_MODULE70@0@PAU_ATL_WNDCLASSINFOW@0@PAP6GJPAUHWND__@@IIJ@ZVAtlModuleRegisterWndClassInfoParamW@0@@Z 10005090 f i VideoCapture.obj
 0001:000044a0       ??$AtlMultiply@H@ATL@@YAJPAHHH@Z 100054a0 f i VideoCapture.obj
 0001:00004520       ??$AtlMultiply@K@ATL@@YAJPAKKK@Z 10005520 f i VideoCapture.obj
 0001:00004580       ??$AtlMultiplyThrow@I@ATL@@YAIII@Z 10005580 f i VideoCapture.obj
 0001:00004600       ??$QueryInterface@UIPersistStream@@@IUnknown@@QAGJPAPAUIPersistStream@@@Z 10005600 f i VideoCapture.obj
 0001:00004630       ??$QueryInterface@UITypeInfo2@@@IUnknown@@QAGJPAPAUITypeInfo2@@@Z 10005630 f i VideoCapture.obj
 0001:00004660       ??0?$CAtlModuleT@VCComModule@ATL@@@ATL@@QAE@XZ 10005660 f i VideoCapture.obj
 0001:00004690       ??0?$CAtlSafeAllocBufferManager@VCCRTAllocator@ATL@@@_ATL_SAFE_ALLOCA_IMPL@ATL@@QAE@XZ 10005690 f i VideoCapture.obj
 0001:000046b0       ??0?$CAutoVectorPtr@_W@ATL@@QAE@XZ 100056b0 f i VideoCapture.obj
 0001:000046d0       ??0?$CComAggObject@VCOPOSVideoCapture@@@ATL@@QAE@PAX@Z 100056d0 f i VideoCapture.obj
 0001:00004740       ??0?$CComContainedObject@VCOPOSVideoCapture@@@ATL@@QAE@PAX@Z 10005740 f i VideoCapture.obj
 0001:00004850       ??0?$CComCritSecLock@VCComCriticalSection@ATL@@@ATL@@QAE@AAVCComCriticalSection@1@_N@Z 10005850 f i VideoCapture.obj
 0001:000048b0       ??0?$CComEnum@UIEnumConnectionPoints@@$1?_GUID_b196b285_bab4_101a_b69c_00aa00341d07@@3U__s_GUID@@BPAUIConnectionPoint@@V?$_CopyInterface@UIConnectionPoint@@@ATL@@VCComSingleThreadModel@6@@ATL@@QAE@XZ 100058b0 f i VideoCapture.obj
 0001:000048f0       ??0?$CComEnum@UIEnumConnections@@$1?_GUID_b196b287_bab4_101a_b69c_00aa00341d07@@3U__s_GUID@@BUtagCONNECTDATA@@V?$_Copy@UtagCONNECTDATA@@@ATL@@VCComSingleThreadModel@6@@ATL@@QAE@XZ 100058f0 f i VideoCapture.obj
 0001:00004930       ??0?$CComEnumImpl@UIEnumConnectionPoints@@$1?_GUID_b196b285_bab4_101a_b69c_00aa00341d07@@3U__s_GUID@@BPAUIConnectionPoint@@V?$_CopyInterface@UIConnectionPoint@@@ATL@@@ATL@@QAE@XZ 10005930 f i VideoCapture.obj
 0001:00004990       ??0?$CComEnumImpl@UIEnumConnections@@$1?_GUID_b196b287_bab4_101a_b69c_00aa00341d07@@3U__s_GUID@@BUtagCONNECTDATA@@V?$_Copy@UtagCONNECTDATA@@@ATL@@@ATL@@QAE@XZ 10005990 f i VideoCapture.obj
 0001:000049f0       ??0?$CComObject@V?$CComEnum@UIEnumConnectionPoints@@$1?_GUID_b196b285_bab4_101a_b69c_00aa00341d07@@3U__s_GUID@@BPAUIConnectionPoint@@V?$_CopyInterface@UIConnectionPoint@@@ATL@@VCComSingleThreadModel@6@@ATL@@@ATL@@QAE@PAX@Z 100059f0 f i VideoCapture.obj
 0001:00004a40       ??0?$CComObject@V?$CComEnum@UIEnumConnections@@$1?_GUID_b196b287_bab4_101a_b69c_00aa00341d07@@3U__s_GUID@@BUtagCONNECTDATA@@V?$_Copy@UtagCONNECTDATA@@@ATL@@VCComSingleThreadModel@6@@ATL@@@ATL@@QAE@PAX@Z 10005a40 f i VideoCapture.obj
 0001:00004a90       ??0?$CComObject@VCOPOSVideoCapture@@@ATL@@QAE@PAX@Z 10005a90 f i VideoCapture.obj
 0001:00004bb0       ??0?$CComObjectCached@VCComClassFactory@ATL@@@ATL@@QAE@PAX@Z 10005bb0 f i VideoCapture.obj
 0001:00004bf0       ??0?$CComObjectRootEx@VCComMultiThreadModel@ATL@@@ATL@@QAE@XZ 10005bf0 f i VideoCapture.obj
 0001:00004c30       ??0?$CComObjectRootEx@VCComSingleThreadModel@ATL@@@ATL@@QAE@XZ 10005c30 f i VideoCapture.obj
 0001:00004c60       ??0?$CComPtr@UIAdviseSink@@@ATL@@QAE@PAUIAdviseSink@@@Z 10005c60 f i VideoCapture.obj
 0001:00004c90       ??0?$CComPtr@UICatRegister@@@ATL@@QAE@XZ 10005c90 f i VideoCapture.obj
 0001:00004cc0       ??0?$CComPtr@UIConnectionPoint@@@ATL@@QAE@XZ 10005cc0 f i VideoCapture.obj
 0001:00004cf0       ??0?$CComPtr@UIConnectionPointContainer@@@ATL@@QAE@XZ 10005cf0 f i VideoCapture.obj
 0001:00004d20       ??0?$CComPtr@UIDataObject@@@ATL@@QAE@XZ 10005d20 f i VideoCapture.obj
 0001:00004d50       ??0?$CComPtr@UIDispatch@@@ATL@@QAE@XZ 10005d50 f i VideoCapture.obj
 0001:00004d80       ??0?$CComPtr@UIOleClientSite@@@ATL@@QAE@PAUIOleClientSite@@@Z 10005d80 f i VideoCapture.obj
 0001:00004db0       ??0?$CComPtr@UIOleControlSite@@@ATL@@QAE@XZ 10005db0 f i VideoCapture.obj
 0001:00004de0       ??0?$CComPtr@UIOleInPlaceActiveObject@@@ATL@@QAE@XZ 10005de0 f i VideoCapture.obj
 0001:00004e10       ??0?$CComPtr@UIOleInPlaceFrame@@@ATL@@QAE@XZ 10005e10 f i VideoCapture.obj
 0001:00004e40       ??0?$CComPtr@UIOleInPlaceObject@@@ATL@@QAE@XZ 10005e40 f i VideoCapture.obj
 0001:00004e70       ??0?$CComPtr@UIOleInPlaceUIWindow@@@ATL@@QAE@XZ 10005e70 f i VideoCapture.obj
 0001:00004ea0       ??0?$CComPtr@UIOleObject@@@ATL@@QAE@XZ 10005ea0 f i VideoCapture.obj
 0001:00004ed0       ??0?$CComPtr@UIPersistStream@@@ATL@@QAE@XZ 10005ed0 f i VideoCapture.obj
 0001:00004f00       ??0?$CComPtr@UIPersistStreamInit@@@ATL@@QAE@XZ 10005f00 f i VideoCapture.obj
 0001:00004f30       ??0?$CComPtr@UIPointerInactive@@@ATL@@QAE@XZ 10005f30 f i VideoCapture.obj
 0001:00004f60       ??0?$CComPtr@UIProvideClassInfo2@@@ATL@@QAE@XZ 10005f60 f i VideoCapture.obj
 0001:00004f90       ??0?$CComPtr@UISpecifyPropertyPages@@@ATL@@QAE@XZ 10005f90 f i VideoCapture.obj
 0001:00004fc0       ??0?$CComPtr@UIStream@@@ATL@@QAE@XZ 10005fc0 f i VideoCapture.obj
 0001:00004ff0       ??0?$CComPtr@UITypeInfo2@@@ATL@@QAE@XZ 10005ff0 f i VideoCapture.obj
 0001:00005020       ??0?$CComPtr@UITypeInfo@@@ATL@@QAE@ABV01@@Z 10006020 f i VideoCapture.obj
 0001:00005050       ??0?$CComPtr@UITypeInfo@@@ATL@@QAE@XZ 10006050 f i VideoCapture.obj
 0001:00005080       ??0?$CComPtr@UITypeLib@@@ATL@@QAE@XZ 10006080 f i VideoCapture.obj
 0001:000050b0       ??0?$CComPtr@UIUnknown@@@ATL@@QAE@ABV01@@Z 100060b0 f i VideoCapture.obj
 0001:000050e0       ??0?$CComPtr@UIUnknown@@@ATL@@QAE@PAUIUnknown@@@Z 100060e0 f i VideoCapture.obj
 0001:00005110       ??0?$CComPtr@UIUnknown@@@ATL@@QAE@XZ 10006110 f i VideoCapture.obj
 0001:00005140       ??0?$CComPtr@UIViewObjectEx@@@ATL@@QAE@XZ 10006140 f i VideoCapture.obj
 0001:00005170       ??0?$CComPtrBase@UIAdviseSink@@@ATL@@IAE@PAUIAdviseSink@@@Z 10006170 f i VideoCapture.obj
 0001:000051c0       ??0?$CComPtrBase@UICatRegister@@@ATL@@IAE@XZ 100061c0 f i VideoCapture.obj
 0001:000051e0       ??0?$CComPtrBase@UIConnectionPoint@@@ATL@@IAE@XZ 100061e0 f i VideoCapture.obj
 0001:00005200       ??0?$CComPtrBase@UIConnectionPointContainer@@@ATL@@IAE@XZ 10006200 f i VideoCapture.obj
 0001:00005220       ??0?$CComPtrBase@UIDataObject@@@ATL@@IAE@XZ 10006220 f i VideoCapture.obj
 0001:00005240       ??0?$CComPtrBase@UIDispatch@@@ATL@@IAE@XZ 10006240 f i VideoCapture.obj
 0001:00005260       ??0?$CComPtrBase@UIOleClientSite@@@ATL@@IAE@PAUIOleClientSite@@@Z 10006260 f i VideoCapture.obj
 0001:000052b0       ??0?$CComPtrBase@UIOleControlSite@@@ATL@@IAE@XZ 100062b0 f i VideoCapture.obj
 0001:000052d0       ??0?$CComPtrBase@UIOleInPlaceActiveObject@@@ATL@@IAE@XZ 100062d0 f i VideoCapture.obj
 0001:000052f0       ??0?$CComPtrBase@UIOleInPlaceFrame@@@ATL@@IAE@XZ 100062f0 f i VideoCapture.obj
 0001:00005310       ??0?$CComPtrBase@UIOleInPlaceObject@@@ATL@@IAE@XZ 10006310 f i VideoCapture.obj
 0001:00005330       ??0?$CComPtrBase@UIOleInPlaceUIWindow@@@ATL@@IAE@XZ 10006330 f i VideoCapture.obj
 0001:00005350       ??0?$CComPtrBase@UIOleObject@@@ATL@@IAE@XZ 10006350 f i VideoCapture.obj
 0001:00005370       ??0?$CComPtrBase@UIPersistStream@@@ATL@@IAE@XZ 10006370 f i VideoCapture.obj
 0001:00005390       ??0?$CComPtrBase@UIPersistStreamInit@@@ATL@@IAE@XZ 10006390 f i VideoCapture.obj
 0001:000053b0       ??0?$CComPtrBase@UIPointerInactive@@@ATL@@IAE@XZ 100063b0 f i VideoCapture.obj
 0001:000053d0       ??0?$CComPtrBase@UIProvideClassInfo2@@@ATL@@IAE@XZ 100063d0 f i VideoCapture.obj
 0001:000053f0       ??0?$CComPtrBase@UISpecifyPropertyPages@@@ATL@@IAE@XZ 100063f0 f i VideoCapture.obj
 0001:00005410       ??0?$CComPtrBase@UIStream@@@ATL@@IAE@XZ 10006410 f i VideoCapture.obj
 0001:00005430       ??0?$CComPtrBase@UITypeInfo2@@@ATL@@IAE@XZ 10006430 f i VideoCapture.obj
 0001:00005450       ??0?$CComPtrBase@UITypeInfo@@@ATL@@IAE@PAUITypeInfo@@@Z 10006450 f i VideoCapture.obj
 0001:000054a0       ??0?$CComPtrBase@UITypeInfo@@@ATL@@IAE@XZ 100064a0 f i VideoCapture.obj
 0001:000054c0       ??0?$CComPtrBase@UITypeLib@@@ATL@@IAE@XZ 100064c0 f i VideoCapture.obj
 0001:000054e0       ??0?$CComPtrBase@UIUnknown@@@ATL@@IAE@PAUIUnknown@@@Z 100064e0 f i VideoCapture.obj
 0001:00005530       ??0?$CComPtrBase@UIUnknown@@@ATL@@IAE@XZ 10006530 f i VideoCapture.obj
 0001:00005550       ??0?$CComPtrBase@UIViewObjectEx@@@ATL@@IAE@XZ 10006550 f i VideoCapture.obj
 0001:00005570       ??0?$CComQIPtr@UIOleControlSite@@$1?_GUID_b196b289_bab4_101a_b69c_00aa00341d07@@3U__s_GUID@@B@ATL@@QAE@PAUIUnknown@@@Z 10006570 f i VideoCapture.obj
 0001:000055d0       ??0?$CComQIPtr@UIOleObject@@$1?_GUID_00000112_0000_0000_c000_000000000046@@3U__s_GUID@@B@ATL@@QAE@XZ 100065d0 f i VideoCapture.obj
 0001:00005600       ??0?$CComQIPtr@UISpecifyPropertyPages@@$1?_GUID_b196b28b_bab4_101a_b69c_00aa00341d07@@3U__s_GUID@@B@ATL@@QAE@XZ 10006600 f i VideoCapture.obj
 0001:00005630       ??0?$CSimpleMap@PA_WPA_WVCExpansionVectorEqualHelper@ATL@@@ATL@@QAE@XZ 10006630 f i VideoCapture.obj
 0001:00005660       ??0?$CTempBuffer@E$0BAA@VCCRTAllocator@ATL@@@ATL@@QAE@XZ 10006660 f i VideoCapture.obj
 0001:00005680       ??0?$CTempBuffer@_W$0BAA@VCCRTAllocator@ATL@@@ATL@@QAE@XZ 10006680 f i VideoCapture.obj
 0001:000056a0       ??0?$CTempBuffer@_W$0EAA@VCCRTAllocator@ATL@@@ATL@@QAE@XZ 100066a0 f i VideoCapture.obj
 0001:000056c0       ??0?$Wrapper@PA_W@?$CSimpleMap@PA_WPA_WVCExpansionVectorEqualHelper@ATL@@@ATL@@QAE@ABQA_W@Z 100066c0 f i VideoCapture.obj
 0001:000056e0       ??0CAtlModule@ATL@@QAE@XZ  100066e0 f i VideoCapture.obj
 0001:00005800       ??0CComAutoDeleteCriticalSection@ATL@@QAE@XZ 10006800 f i VideoCapture.obj
 0001:00005830       ??0CComBSTR@ATL@@QAE@XZ    10006830 f i VideoCapture.obj
 0001:00005850       ??0CComClassFactory@ATL@@QAE@XZ 10006850 f i VideoCapture.obj
 0001:00005890       ??0CComModule@ATL@@QAE@XZ  10006890 f i VideoCapture.obj
 0001:00005900       ??0CComObjectRootBase@ATL@@QAE@XZ 10006900 f i VideoCapture.obj
 0001:00005920       ??0CComSafeDeleteCriticalSection@ATL@@QAE@XZ 10006920 f i VideoCapture.obj
 0001:00005950       ??0CComVariant@ATL@@QAE@XZ 10006950 f i VideoCapture.obj
 0001:000059a0       ??0CExpansionVector@ATL@@QAE@XZ 100069a0 f i VideoCapture.obj
 0001:000059d0       ??0CParseBuffer@CRegParser@ATL@@QAE@H@Z 100069d0 f i VideoCapture.obj
 0001:00005a40       ??0CRegKey@ATL@@QAE@PAUHKEY__@@@Z 10006a40 f i VideoCapture.obj
 0001:00005a70       ??0CRegKey@ATL@@QAE@PAVCAtlTransactionManager@1@@Z 10006a70 f i VideoCapture.obj
 0001:00005aa0       ??0CRegObject@ATL@@QAE@XZ  10006aa0 f i VideoCapture.obj
 0001:00005ae0       ??0CRegParser@ATL@@QAE@PAVCRegObject@1@@Z 10006ae0 f i VideoCapture.obj
 0001:00005b10       ??0IClassFactory@@QAE@XZ   10006b10 f i VideoCapture.obj
 0001:00005b40       ??0IEnumConnectionPoints@@QAE@XZ 10006b40 f i VideoCapture.obj
 0001:00005b70       ??0IEnumConnections@@QAE@XZ 10006b70 f i VideoCapture.obj
 0001:00005ba0       ??0IRegistrarBase@@QAE@XZ  10006ba0 f i VideoCapture.obj
 0001:00005bd0       ??0IUnknown@@QAE@XZ        10006bd0 f i VideoCapture.obj
 0001:00005be0       ??0ModuleLockHelper@ATL@@QAE@XZ 10006be0 f i VideoCapture.obj
 0001:00005c20       ??0OposVariant@@QAE@XZ     10006c20 f i VideoCapture.obj
 0001:00005c40       ??0Wrapper@?$CSimpleArray@GV?$CSimpleArrayEqualHelper@G@ATL@@@ATL@@QAE@ABG@Z 10006c40 f i VideoCapture.obj
 0001:00005c60       ??0_ATL_MODULE70@ATL@@QAE@XZ 10006c60 f i VideoCapture.obj
 0001:00005c90       ??0_ATL_MSG@ATL@@QAE@PAUHWND__@@IIJH@Z 10006c90 f i VideoCapture.obj
 0001:00005d00       ??0_U_MENUorID@ATL@@QAE@I@Z 10006d00 f i VideoCapture.obj
 0001:00005d20       ??0_U_RECT@ATL@@QAE@AAUtagRECT@@@Z 10006d20 f i VideoCapture.obj
 0001:00005d40       ??0stringdispid@CComTypeInfoHolder@ATL@@QAE@XZ 10006d40 f i VideoCapture.obj
 0001:00005d80       ??1?$CAtlModuleT@VCComModule@ATL@@@ATL@@UAE@XZ 10006d80 f i VideoCapture.obj
 0001:00005db0       ??1?$CAtlSafeAllocBufferManager@VCCRTAllocator@ATL@@@_ATL_SAFE_ALLOCA_IMPL@ATL@@QAE@XZ 10006db0 f i VideoCapture.obj
 0001:00005e00       ??1?$CAutoVectorPtr@_W@ATL@@QAE@XZ 10006e00 f i VideoCapture.obj
 0001:00005e30       ??1?$CComAggObject@VCOPOSVideoCapture@@@ATL@@UAE@XZ 10006e30 f i VideoCapture.obj
 0001:00005ea0       ??1?$CComContainedObject@VCOPOSVideoCapture@@@ATL@@UAE@XZ 10006ea0 f i VideoCapture.obj
 0001:00005ed0       ??1?$CComCritSecLock@VCComCriticalSection@ATL@@@ATL@@QAE@XZ 10006ed0 f i VideoCapture.obj
 0001:00005f00       ??1?$CComEnum@UIEnumConnectionPoints@@$1?_GUID_b196b285_bab4_101a_b69c_00aa00341d07@@3U__s_GUID@@BPAUIConnectionPoint@@V?$_CopyInterface@UIConnectionPoint@@@ATL@@VCComSingleThreadModel@6@@ATL@@UAE@XZ 10006f00 f i VideoCapture.obj
 0001:00005f30       ??1?$CComEnum@UIEnumConnections@@$1?_GUID_b196b287_bab4_101a_b69c_00aa00341d07@@3U__s_GUID@@BUtagCONNECTDATA@@V?$_Copy@UtagCONNECTDATA@@@ATL@@VCComSingleThreadModel@6@@ATL@@UAE@XZ 10006f30 f i VideoCapture.obj
 0001:00005f60       ??1?$CComEnumImpl@UIEnumConnectionPoints@@$1?_GUID_b196b285_bab4_101a_b69c_00aa00341d07@@3U__s_GUID@@BPAUIConnectionPoint@@V?$_CopyInterface@UIConnectionPoint@@@ATL@@@ATL@@UAE@XZ 10006f60 f i VideoCapture.obj
 0001:00005ff0       ??1?$CComEnumImpl@UIEnumConnections@@$1?_GUID_b196b287_bab4_101a_b69c_00aa00341d07@@3U__s_GUID@@BUtagCONNECTDATA@@V?$_Copy@UtagCONNECTDATA@@@ATL@@@ATL@@UAE@XZ 10006ff0 f i VideoCapture.obj
 0001:00006080       ??1?$CComObject@V?$CComEnum@UIEnumConnectionPoints@@$1?_GUID_b196b285_bab4_101a_b69c_00aa00341d07@@3U__s_GUID@@BPAUIConnectionPoint@@V?$_CopyInterface@UIConnectionPoint@@@ATL@@VCComSingleThreadModel@6@@ATL@@@ATL@@UAE@XZ 10007080 f i VideoCapture.obj
 0001:000060e0       ??1?$CComObject@V?$CComEnum@UIEnumConnections@@$1?_GUID_b196b287_bab4_101a_b69c_00aa00341d07@@3U__s_GUID@@BUtagCONNECTDATA@@V?$_Copy@UtagCONNECTDATA@@@ATL@@VCComSingleThreadModel@6@@ATL@@@ATL@@UAE@XZ 100070e0 f i VideoCapture.obj
 0001:00006140       ??1?$CComObject@VCOPOSVideoCapture@@@ATL@@UAE@XZ 10007140 f i VideoCapture.obj
 0001:00006280       ??1?$CComObjectCached@VCComClassFactory@ATL@@@ATL@@UAE@XZ 10007280 f i VideoCapture.obj
 0001:000062d0       ??1?$CComObjectRootEx@VCComMultiThreadModel@ATL@@@ATL@@QAE@XZ 100072d0 f i VideoCapture.obj
 0001:00006300       ??1?$CComObjectRootEx@VCComSingleThreadModel@ATL@@@ATL@@QAE@XZ 10007300 f i VideoCapture.obj
 0001:00006330       ??1?$CComPtr@UIAdviseSink@@@ATL@@QAE@XZ 10007330 f i VideoCapture.obj
 0001:00006360       ??1?$CComPtr@UICatRegister@@@ATL@@QAE@XZ 10007360 f i VideoCapture.obj
 0001:00006390       ??1?$CComPtr@UIConnectionPoint@@@ATL@@QAE@XZ 10007390 f i VideoCapture.obj
 0001:000063c0       ??1?$CComPtr@UIConnectionPointContainer@@@ATL@@QAE@XZ 100073c0 f i VideoCapture.obj
 0001:000063f0       ??1?$CComPtr@UIDataObject@@@ATL@@QAE@XZ 100073f0 f i VideoCapture.obj
 0001:00006420       ??1?$CComPtr@UIDispatch@@@ATL@@QAE@XZ 10007420 f i VideoCapture.obj
 0001:00006450       ??1?$CComPtr@UIOleClientSite@@@ATL@@QAE@XZ 10007450 f i VideoCapture.obj
 0001:00006480       ??1?$CComPtr@UIOleControlSite@@@ATL@@QAE@XZ 10007480 f i VideoCapture.obj
 0001:000064b0       ??1?$CComPtr@UIOleInPlaceActiveObject@@@ATL@@QAE@XZ 100074b0 f i VideoCapture.obj
 0001:000064e0       ??1?$CComPtr@UIOleInPlaceFrame@@@ATL@@QAE@XZ 100074e0 f i VideoCapture.obj
 0001:00006510       ??1?$CComPtr@UIOleInPlaceObject@@@ATL@@QAE@XZ 10007510 f i VideoCapture.obj
 0001:00006540       ??1?$CComPtr@UIOleInPlaceUIWindow@@@ATL@@QAE@XZ 10007540 f i VideoCapture.obj
 0001:00006570       ??1?$CComPtr@UIOleObject@@@ATL@@QAE@XZ 10007570 f i VideoCapture.obj
 0001:000065a0       ??1?$CComPtr@UIPersistStream@@@ATL@@QAE@XZ 100075a0 f i VideoCapture.obj
 0001:000065d0       ??1?$CComPtr@UIPersistStreamInit@@@ATL@@QAE@XZ 100075d0 f i VideoCapture.obj
 0001:00006600       ??1?$CComPtr@UIPointerInactive@@@ATL@@QAE@XZ 10007600 f i VideoCapture.obj
 0001:00006630       ??1?$CComPtr@UIProvideClassInfo2@@@ATL@@QAE@XZ 10007630 f i VideoCapture.obj
 0001:00006660       ??1?$CComPtr@UISpecifyPropertyPages@@@ATL@@QAE@XZ 10007660 f i VideoCapture.obj
 0001:00006690       ??1?$CComPtr@UIStream@@@ATL@@QAE@XZ 10007690 f i VideoCapture.obj
 0001:000066c0       ??1?$CComPtr@UITypeInfo2@@@ATL@@QAE@XZ 100076c0 f i VideoCapture.obj
 0001:000066f0       ??1?$CComPtr@UITypeInfo@@@ATL@@QAE@XZ 100076f0 f i VideoCapture.obj
 0001:00006720       ??1?$CComPtr@UITypeLib@@@ATL@@QAE@XZ 10007720 f i VideoCapture.obj
 0001:00006750       ??1?$CComPtr@UIUnknown@@@ATL@@QAE@XZ 10007750 f i VideoCapture.obj
 0001:00006780       ??1?$CComPtr@UIViewObjectEx@@@ATL@@QAE@XZ 10007780 f i VideoCapture.obj
 0001:000067b0       ??1?$CComPtrBase@UIAdviseSink@@@ATL@@QAE@XZ 100077b0 f i VideoCapture.obj
 0001:00006800       ??1?$CComPtrBase@UICatRegister@@@ATL@@QAE@XZ 10007800 f i VideoCapture.obj
 0001:00006850       ??1?$CComPtrBase@UIConnectionPoint@@@ATL@@QAE@XZ 10007850 f i VideoCapture.obj
 0001:000068a0       ??1?$CComPtrBase@UIConnectionPointContainer@@@ATL@@QAE@XZ 100078a0 f i VideoCapture.obj
 0001:000068f0       ??1?$CComPtrBase@UIDataObject@@@ATL@@QAE@XZ 100078f0 f i VideoCapture.obj
 0001:00006940       ??1?$CComPtrBase@UIDispatch@@@ATL@@QAE@XZ 10007940 f i VideoCapture.obj
 0001:00006990       ??1?$CComPtrBase@UIOleClientSite@@@ATL@@QAE@XZ 10007990 f i VideoCapture.obj
 0001:000069e0       ??1?$CComPtrBase@UIOleControlSite@@@ATL@@QAE@XZ 100079e0 f i VideoCapture.obj
 0001:00006a30       ??1?$CComPtrBase@UIOleInPlaceActiveObject@@@ATL@@QAE@XZ 10007a30 f i VideoCapture.obj
 0001:00006a80       ??1?$CComPtrBase@UIOleInPlaceFrame@@@ATL@@QAE@XZ 10007a80 f i VideoCapture.obj
 0001:00006ad0       ??1?$CComPtrBase@UIOleInPlaceObject@@@ATL@@QAE@XZ 10007ad0 f i VideoCapture.obj
 0001:00006b20       ??1?$CComPtrBase@UIOleInPlaceUIWindow@@@ATL@@QAE@XZ 10007b20 f i VideoCapture.obj
 0001:00006b70       ??1?$CComPtrBase@UIOleObject@@@ATL@@QAE@XZ 10007b70 f i VideoCapture.obj
 0001:00006bc0       ??1?$CComPtrBase@UIPersistStream@@@ATL@@QAE@XZ 10007bc0 f i VideoCapture.obj
 0001:00006c10       ??1?$CComPtrBase@UIPersistStreamInit@@@ATL@@QAE@XZ 10007c10 f i VideoCapture.obj
 0001:00006c60       ??1?$CComPtrBase@UIPointerInactive@@@ATL@@QAE@XZ 10007c60 f i VideoCapture.obj
 0001:00006cb0       ??1?$CComPtrBase@UIProvideClassInfo2@@@ATL@@QAE@XZ 10007cb0 f i VideoCapture.obj
 0001:00006d00       ??1?$CComPtrBase@UISpecifyPropertyPages@@@ATL@@QAE@XZ 10007d00 f i VideoCapture.obj
 0001:00006d50       ??1?$CComPtrBase@UIStream@@@ATL@@QAE@XZ 10007d50 f i VideoCapture.obj
 0001:00006da0       ??1?$CComPtrBase@UITypeInfo2@@@ATL@@QAE@XZ 10007da0 f i VideoCapture.obj
 0001:00006df0       ??1?$CComPtrBase@UITypeInfo@@@ATL@@QAE@XZ 10007df0 f i VideoCapture.obj
 0001:00006e40       ??1?$CComPtrBase@UITypeLib@@@ATL@@QAE@XZ 10007e40 f i VideoCapture.obj
 0001:00006e90       ??1?$CComPtrBase@UIUnknown@@@ATL@@QAE@XZ 10007e90 f i VideoCapture.obj
 0001:00006ee0       ??1?$CComPtrBase@UIViewObjectEx@@@ATL@@QAE@XZ 10007ee0 f i VideoCapture.obj
 0001:00006f30       ??1?$CComQIPtr@UIOleControlSite@@$1?_GUID_b196b289_bab4_101a_b69c_00aa00341d07@@3U__s_GUID@@B@ATL@@QAE@XZ 10007f30 f i VideoCapture.obj
 0001:00006f60       ??1?$CComQIPtr@UIOleObject@@$1?_GUID_00000112_0000_0000_c000_000000000046@@3U__s_GUID@@B@ATL@@QAE@XZ 10007f60 f i VideoCapture.obj
 0001:00006f90       ??1?$CComQIPtr@UISpecifyPropertyPages@@$1?_GUID_b196b28b_bab4_101a_b69c_00aa00341d07@@3U__s_GUID@@B@ATL@@QAE@XZ 10007f90 f i VideoCapture.obj
 0001:00006fc0       ??1?$CSimpleMap@PA_WPA_WVCExpansionVectorEqualHelper@ATL@@@ATL@@QAE@XZ 10007fc0 f i VideoCapture.obj
 0001:00006ff0       ??1?$CTempBuffer@E$0BAA@VCCRTAllocator@ATL@@@ATL@@QAE@XZ 10007ff0 f i VideoCapture.obj
 0001:00007030       ??1?$CTempBuffer@_W$0BAA@VCCRTAllocator@ATL@@@ATL@@QAE@XZ 10008030 f i VideoCapture.obj
 0001:00007070       ??1?$CTempBuffer@_W$0EAA@VCCRTAllocator@ATL@@@ATL@@QAE@XZ 10008070 f i VideoCapture.obj
 0001:000070b0       ??1CAtlModule@ATL@@UAE@XZ  100080b0 f i VideoCapture.obj
 0001:000070e0       ??1CComAutoDeleteCriticalSection@ATL@@QAE@XZ 100080e0 f i VideoCapture.obj
 0001:00007110       ??1CComClassFactory@ATL@@UAE@XZ 10008110 f i VideoCapture.obj
 0001:00007140       ??1CComModule@ATL@@UAE@XZ  10008140 f i VideoCapture.obj
 0001:00007170       ??1CComObjectRootBase@ATL@@QAE@XZ 10008170 f i VideoCapture.obj
 0001:00007180       ??1CComSafeDeleteCriticalSection@ATL@@QAE@XZ 10008180 f i VideoCapture.obj
 0001:000071c0       ??1CComVariant@ATL@@QAE@XZ 100081c0 f i VideoCapture.obj
 0001:00007220       ??1CExpansionVector@ATL@@QAE@XZ 10008220 f i VideoCapture.obj
 0001:00007250       ??1CParseBuffer@CRegParser@ATL@@QAE@XZ 10008250 f i VideoCapture.obj
 0001:00007290       ??1CRegKey@ATL@@QAE@XZ     10008290 f i VideoCapture.obj
 0001:000072c0       ??1CRegObject@ATL@@UAE@XZ  100082c0 f i VideoCapture.obj
 0001:00007300       ??1ModuleLockHelper@ATL@@QAE@XZ 10008300 f i VideoCapture.obj
 0001:00007340       ??1OposVariant@@QAE@XZ     10008340 f i VideoCapture.obj
 0001:00007370       ??1_ATL_MODULE70@ATL@@QAE@XZ 10008370 f i VideoCapture.obj
 0001:000073a0       ??4?$CComPtr@UIAdviseSink@@@ATL@@QAEPAUIAdviseSink@@PAU2@@Z 100083a0 f i VideoCapture.obj
 0001:00007400       ??4?$CComPtr@UIOleClientSite@@@ATL@@QAEPAUIOleClientSite@@PAU2@@Z 10008400 f i VideoCapture.obj
 0001:00007460       ??4?$CComPtr@UIUnknown@@@ATL@@QAEPAUIUnknown@@PAU2@@Z 10008460 f i VideoCapture.obj
 0001:000074c0       ??4?$CComQIPtr@UIOleObject@@$1?_GUID_00000112_0000_0000_c000_000000000046@@3U__s_GUID@@B@ATL@@QAEPAUIOleObject@@PAUIUnknown@@@Z 100084c0 f i VideoCapture.obj
 0001:00007510       ??4?$CComQIPtr@UISpecifyPropertyPages@@$1?_GUID_b196b28b_bab4_101a_b69c_00aa00341d07@@3U__s_GUID@@B@ATL@@QAEPAUISpecifyPropertyPages@@PAUIUnknown@@@Z 10008510 f i VideoCapture.obj
 0001:00007560       ??7?$CComPtrBase@UIOleClientSite@@@ATL@@QBE_NXZ 10008560 f i VideoCapture.obj
 0001:00007590       ??7?$CComPtrBase@UIOleInPlaceSiteWindowless@@@ATL@@QBE_NXZ 10008590 f i VideoCapture.obj
 0001:000075c0       ??7CComBSTR@ATL@@QBE_NXZ   100085c0 f i VideoCapture.obj
 0001:000075f0       ??8?$CComPtrBase@UIConnectionPointContainer@@@ATL@@QBE_NPAUIConnectionPointContainer@@@Z 100085f0 f i VideoCapture.obj
 0001:00007620       ??8?$CComPtrBase@UIDataAdviseHolder@@@ATL@@QBE_NPAUIDataAdviseHolder@@@Z 10008620 f i VideoCapture.obj
 0001:00007650       ??8?$CComPtrBase@UIOleAdviseHolder@@@ATL@@QBE_NPAUIOleAdviseHolder@@@Z 10008650 f i VideoCapture.obj
 0001:00007680       ??8?$CComPtrBase@UIOleClientSite@@@ATL@@QBE_NPAUIOleClientSite@@@Z 10008680 f i VideoCapture.obj
 0001:000076b0       ??8?$CComPtrBase@UIOleControlSite@@@ATL@@QBE_NPAUIOleControlSite@@@Z 100086b0 f i VideoCapture.obj
 0001:000076e0       ??8?$CComPtrBase@UIOleInPlaceObject@@@ATL@@QBE_NPAUIOleInPlaceObject@@@Z 100086e0 f i VideoCapture.obj
 0001:00007710       ??8?$CComPtrBase@UIOleInPlaceSiteWindowless@@@ATL@@QBE_NPAUIOleInPlaceSiteWindowless@@@Z 10008710 f i VideoCapture.obj
 0001:00007740       ??8?$CComPtrBase@UIOleObject@@@ATL@@QBE_NPAUIOleObject@@@Z 10008740 f i VideoCapture.obj
 0001:00007770       ??8?$CComPtrBase@UIPersistStream@@@ATL@@QBE_NPAUIPersistStream@@@Z 10008770 f i VideoCapture.obj
 0001:000077a0       ??8?$CComPtrBase@UIPersistStreamInit@@@ATL@@QBE_NPAUIPersistStreamInit@@@Z 100087a0 f i VideoCapture.obj
 0001:000077d0       ??8?$CComPtrBase@UIPointerInactive@@@ATL@@QBE_NPAUIPointerInactive@@@Z 100087d0 f i VideoCapture.obj
 0001:00007800       ??8?$CComPtrBase@UIUnknown@@@ATL@@QBE_NPAUIUnknown@@@Z 10008800 f i VideoCapture.obj
 0001:00007830       ??8?$CComPtrBase@UIViewObjectEx@@@ATL@@QBE_NPAUIViewObjectEx@@@Z 10008830 f i VideoCapture.obj
 0001:00007860       ??8CComBSTR@ATL@@QBE_NH@Z  10008860 f i VideoCapture.obj
 0001:000078c0       ??9?$CComPtrBase@UIConnectionPointContainer@@@ATL@@QBE_NPAUIConnectionPointContainer@@@Z 100088c0 f i VideoCapture.obj
 0001:00007910       ??9?$CComPtrBase@UIDataAdviseHolder@@@ATL@@QBE_NPAUIDataAdviseHolder@@@Z 10008910 f i VideoCapture.obj
 0001:00007960       ??9?$CComPtrBase@UIOleAdviseHolder@@@ATL@@QBE_NPAUIOleAdviseHolder@@@Z 10008960 f i VideoCapture.obj
 0001:000079b0       ??9?$CComPtrBase@UIOleClientSite@@@ATL@@QBE_NPAUIOleClientSite@@@Z 100089b0 f i VideoCapture.obj
 0001:00007a00       ??9?$CComPtrBase@UIOleControlSite@@@ATL@@QBE_NPAUIOleControlSite@@@Z 10008a00 f i VideoCapture.obj
 0001:00007a50       ??9?$CComPtrBase@UIOleInPlaceObject@@@ATL@@QBE_NPAUIOleInPlaceObject@@@Z 10008a50 f i VideoCapture.obj
 0001:00007aa0       ??9?$CComPtrBase@UIOleInPlaceSiteWindowless@@@ATL@@QBE_NPAUIOleInPlaceSiteWindowless@@@Z 10008aa0 f i VideoCapture.obj
 0001:00007af0       ??9?$CComPtrBase@UIOleObject@@@ATL@@QBE_NPAUIOleObject@@@Z 10008af0 f i VideoCapture.obj
 0001:00007b40       ??9?$CComPtrBase@UIPersistStream@@@ATL@@QBE_NPAUIPersistStream@@@Z 10008b40 f i VideoCapture.obj
 0001:00007b90       ??9?$CComPtrBase@UIPersistStreamInit@@@ATL@@QBE_NPAUIPersistStreamInit@@@Z 10008b90 f i VideoCapture.obj
 0001:00007be0       ??9?$CComPtrBase@UIPointerInactive@@@ATL@@QBE_NPAUIPointerInactive@@@Z 10008be0 f i VideoCapture.obj
 0001:00007c30       ??9?$CComPtrBase@UIUnknown@@@ATL@@QBE_NPAUIUnknown@@@Z 10008c30 f i VideoCapture.obj
 0001:00007c80       ??9?$CComPtrBase@UIViewObjectEx@@@ATL@@QBE_NPAUIViewObjectEx@@@Z 10008c80 f i VideoCapture.obj
 0001:00007cd0       ??9CComBSTR@ATL@@QBE_NH@Z  10008cd0 f i VideoCapture.obj
 0001:00007d20       ??B?$CComPtrBase@UIAdviseSink@@@ATL@@QBEPAUIAdviseSink@@XZ 10008d20 f i VideoCapture.obj
 0001:00007d30       ??B?$CComPtrBase@UIDataAdviseHolder@@@ATL@@QBEPAUIDataAdviseHolder@@XZ 10008d30 f i VideoCapture.obj
 0001:00007d40       ??B?$CComPtrBase@UIDataObject@@@ATL@@QBEPAUIDataObject@@XZ 10008d40 f i VideoCapture.obj
 0001:00007d50       ??B?$CComPtrBase@UIOleAdviseHolder@@@ATL@@QBEPAUIOleAdviseHolder@@XZ 10008d50 f i VideoCapture.obj
 0001:00007d60       ??B?$CComPtrBase@UIOleClientSite@@@ATL@@QBEPAUIOleClientSite@@XZ 10008d60 f i VideoCapture.obj
 0001:00007d70       ??B?$CComPtrBase@UIOleControlSite@@@ATL@@QBEPAUIOleControlSite@@XZ 10008d70 f i VideoCapture.obj
 0001:00007d80       ??B?$CComPtrBase@UIOleInPlaceActiveObject@@@ATL@@QBEPAUIOleInPlaceActiveObject@@XZ 10008d80 f i VideoCapture.obj
 0001:00007d90       ??B?$CComPtrBase@UIOleInPlaceFrame@@@ATL@@QBEPAUIOleInPlaceFrame@@XZ 10008d90 f i VideoCapture.obj
 0001:00007da0       ??B?$CComPtrBase@UIOleInPlaceSiteWindowless@@@ATL@@QBEPAUIOleInPlaceSiteWindowless@@XZ 10008da0 f i VideoCapture.obj
 0001:00007db0       ??B?$CComPtrBase@UIOleInPlaceUIWindow@@@ATL@@QBEPAUIOleInPlaceUIWindow@@XZ 10008db0 f i VideoCapture.obj
 0001:00007dc0       ??B?$CComPtrBase@UIOleObject@@@ATL@@QBEPAUIOleObject@@XZ 10008dc0 f i VideoCapture.obj
 0001:00007dd0       ??B?$CComPtrBase@UIPersistStream@@@ATL@@QBEPAUIPersistStream@@XZ 10008dd0 f i VideoCapture.obj
 0001:00007de0       ??B?$CComPtrBase@UIProvideClassInfo2@@@ATL@@QBEPAUIProvideClassInfo2@@XZ 10008de0 f i VideoCapture.obj
 0001:00007df0       ??B?$CComPtrBase@UISpecifyPropertyPages@@@ATL@@QBEPAUISpecifyPropertyPages@@XZ 10008df0 f i VideoCapture.obj
 0001:00007e00       ??B?$CComPtrBase@UIStream@@@ATL@@QBEPAUIStream@@XZ 10008e00 f i VideoCapture.obj
 0001:00007e10       ??B?$CComPtrBase@UITypeInfo2@@@ATL@@QBEPAUITypeInfo2@@XZ 10008e10 f i VideoCapture.obj
 0001:00007e20       ??B?$CComPtrBase@UITypeInfo@@@ATL@@QBEPAUITypeInfo@@XZ 10008e20 f i VideoCapture.obj
 0001:00007e30       ??B?$CComPtrBase@UITypeLib@@@ATL@@QBEPAUITypeLib@@XZ 10008e30 f i VideoCapture.obj
 0001:00007e40       ??B?$CComPtrBase@UIUnknown@@@ATL@@QBEPAUIUnknown@@XZ 10008e40 f i VideoCapture.obj
 0001:00007e50       ??B?$CTempBuffer@E$0BAA@VCCRTAllocator@ATL@@@ATL@@QBEPAEXZ 10008e50 f i VideoCapture.obj
 0001:00007e60       ??B?$CTempBuffer@_W$0BAA@VCCRTAllocator@ATL@@@ATL@@QBEPA_WXZ 10008e60 f i VideoCapture.obj
 0001:00007e70       ??B?$CTempBuffer@_W$0EAA@VCCRTAllocator@ATL@@@ATL@@QBEPA_WXZ 10008e70 f i VideoCapture.obj
 0001:00007e80       ??B?$CTraceCategoryEx@$00$0A@@ATL@@QAEIXZ 10008e80 f i VideoCapture.obj
 0001:00007e90       ??B?$CTraceCategoryEx@$07$0A@@ATL@@QAEIXZ 10008e90 f i VideoCapture.obj
 0001:00007ea0       ??B?$CTraceCategoryEx@$0CAAA@$0A@@ATL@@QAEIXZ 10008ea0 f i VideoCapture.obj
 0001:00007eb0       ??B?$CTraceCategoryEx@$0EA@$0A@@ATL@@QAEIXZ 10008eb0 f i VideoCapture.obj
 0001:00007ec0       ??B?$CTraceCategoryEx@$0IAA@$0A@@ATL@@QAEIXZ 10008ec0 f i VideoCapture.obj
 0001:00007ed0       ??BCComBSTR@ATL@@QBEPA_WXZ 10008ed0 f i VideoCapture.obj
 0001:00007ee0       ??BCRegKey@ATL@@QBEPAUHKEY__@@XZ 10008ee0 f i VideoCapture.obj
 0001:00007ef0       ??C?$CComPtrBase@UIAdviseSink@@@ATL@@QBEPAV?$_NoAddRefReleaseOnCComPtr@UIAdviseSink@@@1@XZ 10008ef0 f i VideoCapture.obj
 0001:00007f40       ??C?$CComPtrBase@UICatRegister@@@ATL@@QBEPAV?$_NoAddRefReleaseOnCComPtr@UICatRegister@@@1@XZ 10008f40 f i VideoCapture.obj
 0001:00007f90       ??C?$CComPtrBase@UIConnectionPoint@@@ATL@@QBEPAV?$_NoAddRefReleaseOnCComPtr@UIConnectionPoint@@@1@XZ 10008f90 f i VideoCapture.obj
 0001:00007fe0       ??C?$CComPtrBase@UIConnectionPointContainer@@@ATL@@QBEPAV?$_NoAddRefReleaseOnCComPtr@UIConnectionPointContainer@@@1@XZ 10008fe0 f i VideoCapture.obj
 0001:00008030       ??C?$CComPtrBase@UIDataAdviseHolder@@@ATL@@QBEPAV?$_NoAddRefReleaseOnCComPtr@UIDataAdviseHolder@@@1@XZ 10009030 f i VideoCapture.obj
 0001:00008080       ??C?$CComPtrBase@UIOleAdviseHolder@@@ATL@@QBEPAV?$_NoAddRefReleaseOnCComPtr@UIOleAdviseHolder@@@1@XZ 10009080 f i VideoCapture.obj
 0001:000080d0       ??C?$CComPtrBase@UIOleClientSite@@@ATL@@QBEPAV?$_NoAddRefReleaseOnCComPtr@UIOleClientSite@@@1@XZ 100090d0 f i VideoCapture.obj
 0001:00008120       ??C?$CComPtrBase@UIOleControlSite@@@ATL@@QBEPAV?$_NoAddRefReleaseOnCComPtr@UIOleControlSite@@@1@XZ 10009120 f i VideoCapture.obj
 0001:00008170       ??C?$CComPtrBase@UIOleInPlaceFrame@@@ATL@@QBEPAV?$_NoAddRefReleaseOnCComPtr@UIOleInPlaceFrame@@@1@XZ 10009170 f i VideoCapture.obj
 0001:000081c0       ??C?$CComPtrBase@UIOleInPlaceObject@@@ATL@@QBEPAV?$_NoAddRefReleaseOnCComPtr@UIOleInPlaceObject@@@1@XZ 100091c0 f i VideoCapture.obj
 0001:00008210       ??C?$CComPtrBase@UIOleInPlaceSiteWindowless@@@ATL@@QBEPAV?$_NoAddRefReleaseOnCComPtr@UIOleInPlaceSiteWindowless@@@1@XZ 10009210 f i VideoCapture.obj
 0001:00008260       ??C?$CComPtrBase@UIOleInPlaceUIWindow@@@ATL@@QBEPAV?$_NoAddRefReleaseOnCComPtr@UIOleInPlaceUIWindow@@@1@XZ 10009260 f i VideoCapture.obj
 0001:000082b0       ??C?$CComPtrBase@UIOleObject@@@ATL@@QBEPAV?$_NoAddRefReleaseOnCComPtr@UIOleObject@@@1@XZ 100092b0 f i VideoCapture.obj
 0001:00008300       ??C?$CComPtrBase@UIPersistStream@@@ATL@@QBEPAV?$_NoAddRefReleaseOnCComPtr@UIPersistStream@@@1@XZ 10009300 f i VideoCapture.obj
 0001:00008350       ??C?$CComPtrBase@UIPersistStreamInit@@@ATL@@QBEPAV?$_NoAddRefReleaseOnCComPtr@UIPersistStreamInit@@@1@XZ 10009350 f i VideoCapture.obj
 0001:000083a0       ??C?$CComPtrBase@UIPointerInactive@@@ATL@@QBEPAV?$_NoAddRefReleaseOnCComPtr@UIPointerInactive@@@1@XZ 100093a0 f i VideoCapture.obj
 0001:000083f0       ??C?$CComPtrBase@UIProvideClassInfo2@@@ATL@@QBEPAV?$_NoAddRefReleaseOnCComPtr@UIProvideClassInfo2@@@1@XZ 100093f0 f i VideoCapture.obj
 0001:00008440       ??C?$CComPtrBase@UISpecifyPropertyPages@@@ATL@@QBEPAV?$_NoAddRefReleaseOnCComPtr@UISpecifyPropertyPages@@@1@XZ 10009440 f i VideoCapture.obj
 0001:00008490       ??C?$CComPtrBase@UITypeInfo@@@ATL@@QBEPAV?$_NoAddRefReleaseOnCComPtr@UITypeInfo@@@1@XZ 10009490 f i VideoCapture.obj
 0001:000084e0       ??C?$CComPtrBase@UITypeLib@@@ATL@@QBEPAV?$_NoAddRefReleaseOnCComPtr@UITypeLib@@@1@XZ 100094e0 f i VideoCapture.obj
 0001:00008530       ??C?$CComPtrBase@UIUnknown@@@ATL@@QBEPAV?$_NoAddRefReleaseOnCComPtr@UIUnknown@@@1@XZ 10009530 f i VideoCapture.obj
 0001:00008580       ??C?$CComPtrBase@UIViewObjectEx@@@ATL@@QBEPAV?$_NoAddRefReleaseOnCComPtr@UIViewObjectEx@@@1@XZ 10009580 f i VideoCapture.obj
 0001:000085d0       ??I?$CComPtrBase@UICatRegister@@@ATL@@QAEPAPAUICatRegister@@XZ 100095d0 f i VideoCapture.obj
 0001:00008620       ??I?$CComPtrBase@UIConnectionPoint@@@ATL@@QAEPAPAUIConnectionPoint@@XZ 10009620 f i VideoCapture.obj
 0001:00008670       ??I?$CComPtrBase@UIConnectionPointContainer@@@ATL@@QAEPAPAUIConnectionPointContainer@@XZ 10009670 f i VideoCapture.obj
 0001:000086c0       ??I?$CComPtrBase@UIDataAdviseHolder@@@ATL@@QAEPAPAUIDataAdviseHolder@@XZ 100096c0 f i VideoCapture.obj
 0001:00008710       ??I?$CComPtrBase@UIDataObject@@@ATL@@QAEPAPAUIDataObject@@XZ 10009710 f i VideoCapture.obj
 0001:00008760       ??I?$CComPtrBase@UIDispatch@@@ATL@@QAEPAPAUIDispatch@@XZ 10009760 f i VideoCapture.obj
 0001:000087b0       ??I?$CComPtrBase@UIOleAdviseHolder@@@ATL@@QAEPAPAUIOleAdviseHolder@@XZ 100097b0 f i VideoCapture.obj
 0001:00008800       ??I?$CComPtrBase@UIOleControlSite@@@ATL@@QAEPAPAUIOleControlSite@@XZ 10009800 f i VideoCapture.obj
 0001:00008850       ??I?$CComPtrBase@UIOleInPlaceActiveObject@@@ATL@@QAEPAPAUIOleInPlaceActiveObject@@XZ 10009850 f i VideoCapture.obj
 0001:000088a0       ??I?$CComPtrBase@UIOleInPlaceFrame@@@ATL@@QAEPAPAUIOleInPlaceFrame@@XZ 100098a0 f i VideoCapture.obj
 0001:000088f0       ??I?$CComPtrBase@UIOleInPlaceObject@@@ATL@@QAEPAPAUIOleInPlaceObject@@XZ 100098f0 f i VideoCapture.obj
 0001:00008940       ??I?$CComPtrBase@UIOleInPlaceSiteWindowless@@@ATL@@QAEPAPAUIOleInPlaceSiteWindowless@@XZ 10009940 f i VideoCapture.obj
 0001:00008990       ??I?$CComPtrBase@UIOleInPlaceUIWindow@@@ATL@@QAEPAPAUIOleInPlaceUIWindow@@XZ 10009990 f i VideoCapture.obj
 0001:000089e0       ??I?$CComPtrBase@UIOleObject@@@ATL@@QAEPAPAUIOleObject@@XZ 100099e0 f i VideoCapture.obj
 0001:00008a30       ??I?$CComPtrBase@UIPersistStream@@@ATL@@QAEPAPAUIPersistStream@@XZ 10009a30 f i VideoCapture.obj
 0001:00008a80       ??I?$CComPtrBase@UIPointerInactive@@@ATL@@QAEPAPAUIPointerInactive@@XZ 10009a80 f i VideoCapture.obj
 0001:00008ad0       ??I?$CComPtrBase@UIProvideClassInfo2@@@ATL@@QAEPAPAUIProvideClassInfo2@@XZ 10009ad0 f i VideoCapture.obj
 0001:00008b20       ??I?$CComPtrBase@UIStream@@@ATL@@QAEPAPAUIStream@@XZ 10009b20 f i VideoCapture.obj
 0001:00008b70       ??I?$CComPtrBase@UITypeInfo2@@@ATL@@QAEPAPAUITypeInfo2@@XZ 10009b70 f i VideoCapture.obj
 0001:00008bc0       ??I?$CComPtrBase@UITypeInfo@@@ATL@@QAEPAPAUITypeInfo@@XZ 10009bc0 f i VideoCapture.obj
 0001:00008c10       ??I?$CComPtrBase@UITypeLib@@@ATL@@QAEPAPAUITypeLib@@XZ 10009c10 f i VideoCapture.obj
 0001:00008c60       ??I?$CComPtrBase@UIUnknown@@@ATL@@QAEPAPAUIUnknown@@XZ 10009c60 f i VideoCapture.obj
 0001:00008cb0       ??I?$CComPtrBase@UIViewObjectEx@@@ATL@@QAEPAPAUIViewObjectEx@@XZ 10009cb0 f i VideoCapture.obj
 0001:00008d00       ??ICComBSTR@ATL@@QAEPAPA_WXZ 10009d00 f i VideoCapture.obj
 0001:00008d0e       ??_E?$CComContainedObject@VCOPOSVideoCapture@@@ATL@@W3AEPAXI@Z 10009d0e f i VideoCapture.obj
 0001:00008d16       ??_E?$CComContainedObject@VCOPOSVideoCapture@@@ATL@@WEM@AEPAXI@Z 10009d16 f i VideoCapture.obj
 0001:00008d1e       ??_E?$CComObject@VCOPOSVideoCapture@@@ATL@@W3AEPAXI@Z 10009d1e f i VideoCapture.obj
 0001:00008d26       ??_E?$CComObject@VCOPOSVideoCapture@@@ATL@@WEM@AEPAXI@Z 10009d26 f i VideoCapture.obj
 0001:00008d30       ??_E?$CComAggObject@VCOPOSVideoCapture@@@ATL@@UAEPAXI@Z 10009d30 f i VideoCapture.obj
 0001:00008d30       ??_G?$CComAggObject@VCOPOSVideoCapture@@@ATL@@UAEPAXI@Z 10009d30 f i VideoCapture.obj
 0001:00008d80       ??_E?$CComContainedObject@VCOPOSVideoCapture@@@ATL@@UAEPAXI@Z 10009d80 f i VideoCapture.obj
 0001:00008d80       ??_G?$CComContainedObject@VCOPOSVideoCapture@@@ATL@@UAEPAXI@Z 10009d80 f i VideoCapture.obj
 0001:00008dd0       ??_E?$CComObject@V?$CComEnum@UIEnumConnectionPoints@@$1?_GUID_b196b285_bab4_101a_b69c_00aa00341d07@@3U__s_GUID@@BPAUIConnectionPoint@@V?$_CopyInterface@UIConnectionPoint@@@ATL@@VCComSingleThreadModel@6@@ATL@@@ATL@@UAEPAXI@Z 10009dd0 f i VideoCapture.obj
 0001:00008dd0       ??_G?$CComObject@V?$CComEnum@UIEnumConnectionPoints@@$1?_GUID_b196b285_bab4_101a_b69c_00aa00341d07@@3U__s_GUID@@BPAUIConnectionPoint@@V?$_CopyInterface@UIConnectionPoint@@@ATL@@VCComSingleThreadModel@6@@ATL@@@ATL@@UAEPAXI@Z 10009dd0 f i VideoCapture.obj
 0001:00008e10       ??_G?$CComObject@V?$CComEnum@UIEnumConnections@@$1?_GUID_b196b287_bab4_101a_b69c_00aa00341d07@@3U__s_GUID@@BUtagCONNECTDATA@@V?$_Copy@UtagCONNECTDATA@@@ATL@@VCComSingleThreadModel@6@@ATL@@@ATL@@UAEPAXI@Z 10009e10 f i VideoCapture.obj
 0001:00008e10       ??_E?$CComObject@V?$CComEnum@UIEnumConnections@@$1?_GUID_b196b287_bab4_101a_b69c_00aa00341d07@@3U__s_GUID@@BUtagCONNECTDATA@@V?$_Copy@UtagCONNECTDATA@@@ATL@@VCComSingleThreadModel@6@@ATL@@@ATL@@UAEPAXI@Z 10009e10 f i VideoCapture.obj
 0001:00008e50       ??_E?$CComObject@VCOPOSVideoCapture@@@ATL@@UAEPAXI@Z 10009e50 f i VideoCapture.obj
 0001:00008e50       ??_G?$CComObject@VCOPOSVideoCapture@@@ATL@@UAEPAXI@Z 10009e50 f i VideoCapture.obj
 0001:00008ea0       ??_E?$CComObjectCached@VCComClassFactory@ATL@@@ATL@@UAEPAXI@Z 10009ea0 f i VideoCapture.obj
 0001:00008ea0       ??_G?$CComObjectCached@VCComClassFactory@ATL@@@ATL@@UAEPAXI@Z 10009ea0 f i VideoCapture.obj
 0001:00008ee0       ??_ECComClassFactory@ATL@@UAEPAXI@Z 10009ee0 f i VideoCapture.obj
 0001:00008ee0       ??_GCComClassFactory@ATL@@UAEPAXI@Z 10009ee0 f i VideoCapture.obj
 0001:00008f20       ??_ECComModule@ATL@@UAEPAXI@Z 10009f20 f i VideoCapture.obj
 0001:00008f20       ??_GCComModule@ATL@@UAEPAXI@Z 10009f20 f i VideoCapture.obj
 0001:00008f60       ??_ECRegObject@ATL@@UAEPAXI@Z 10009f60 f i VideoCapture.obj
 0001:00008f60       ??_GCRegObject@ATL@@UAEPAXI@Z 10009f60 f i VideoCapture.obj
 0001:00008fa0       ?Add@?$CSimpleArray@GV?$CSimpleArrayEqualHelper@G@ATL@@@ATL@@QAEHABG@Z 10009fa0 f i VideoCapture.obj
 0001:000090f0       ?Add@?$CSimpleMap@PA_WPA_WVCExpansionVectorEqualHelper@ATL@@@ATL@@QAEHABQA_W0@Z 1000a0f0 f i VideoCapture.obj
 0001:000091b0       ?Add@CComDynamicUnkArray@ATL@@QAEKPAUIUnknown@@@Z 1000a1b0 f i VideoCapture.obj
 0001:00009350       ?Add@CExpansionVector@ATL@@QAEHPB_W0@Z 1000a350 f i VideoCapture.obj
 0001:000095e0       ?AddChar@CParseBuffer@CRegParser@ATL@@QAEHPB_W@Z 1000a5e0 f i VideoCapture.obj
 0001:00009620       ?AddCommonRGSReplacements@?$CAtlModuleT@VCComModule@ATL@@@ATL@@UAEJPAUIRegistrarBase@@@Z 1000a620 f i VideoCapture.obj
 0001:00009670       ?AddCreateWndData@CAtlWinModule@ATL@@QAEXPAU_AtlCreateWndData@2@PAX@Z 1000a670 f i VideoCapture.obj
 0001:000096a0       ?AddRef@?$CComAggObject@VCOPOSVideoCapture@@@ATL@@UAGKXZ 1000a6a0 f i VideoCapture.obj
 0001:000096c0       ?AddRef@?$CComContainedObject@VCOPOSVideoCapture@@@ATL@@UAGKXZ 1000a6c0 f i VideoCapture.obj
 0001:000096dc       ?AddRef@?$CComContainedObject@VCOPOSVideoCapture@@@ATL@@WHA@AGKXZ 1000a6dc f i VideoCapture.obj
 0001:000096e6       ?AddRef@?$CComContainedObject@VCOPOSVideoCapture@@@ATL@@WHE@AGKXZ 1000a6e6 f i VideoCapture.obj
 0001:000096f0       ?AddRef@?$CComContainedObject@VCOPOSVideoCapture@@@ATL@@WHI@AGKXZ 1000a6f0 f i VideoCapture.obj
 0001:000096fa       ?AddRef@?$CComContainedObject@VCOPOSVideoCapture@@@ATL@@WHM@AGKXZ 1000a6fa f i VideoCapture.obj
 0001:00009704       ?AddRef@?$CComContainedObject@VCOPOSVideoCapture@@@ATL@@WIA@AGKXZ 1000a704 f i VideoCapture.obj
 0001:00009711       ?AddRef@?$CComContainedObject@VCOPOSVideoCapture@@@ATL@@WIE@AGKXZ 1000a711 f i VideoCapture.obj
 0001:0000971e       ?AddRef@?$CComContainedObject@VCOPOSVideoCapture@@@ATL@@WII@AGKXZ 1000a71e f i VideoCapture.obj
 0001:0000972b       ?AddRef@?$CComContainedObject@VCOPOSVideoCapture@@@ATL@@WIM@AGKXZ 1000a72b f i VideoCapture.obj
 0001:00009738       ?AddRef@?$CComContainedObject@VCOPOSVideoCapture@@@ATL@@WJA@AGKXZ 1000a738 f i VideoCapture.obj
 0001:00009745       ?AddRef@?$CComContainedObject@VCOPOSVideoCapture@@@ATL@@WJE@AGKXZ 1000a745 f i VideoCapture.obj
 0001:00009752       ?AddRef@?$CComContainedObject@VCOPOSVideoCapture@@@ATL@@WJI@AGKXZ 1000a752 f i VideoCapture.obj
 0001:0000975f       ?AddRef@?$CComContainedObject@VCOPOSVideoCapture@@@ATL@@WJM@AGKXZ 1000a75f f i VideoCapture.obj
 0001:0000976c       ?AddRef@?$CComContainedObject@VCOPOSVideoCapture@@@ATL@@WKA@AGKXZ 1000a76c f i VideoCapture.obj
 0001:00009779       ?AddRef@?$CComContainedObject@VCOPOSVideoCapture@@@ATL@@WKI@AGKXZ 1000a779 f i VideoCapture.obj
 0001:00009786       ?AddRef@?$CComContainedObject@VCOPOSVideoCapture@@@ATL@@WLE@AGKXZ 1000a786 f i VideoCapture.obj
 0001:000097a0       ?AddRef@?$CComObject@V?$CComEnum@UIEnumConnectionPoints@@$1?_GUID_b196b285_bab4_101a_b69c_00aa00341d07@@3U__s_GUID@@BPAUIConnectionPoint@@V?$_CopyInterface@UIConnectionPoint@@@ATL@@VCComSingleThreadModel@6@@ATL@@@ATL@@UAGKXZ 1000a7a0 f i VideoCapture.obj
 0001:000097c0       ?AddRef@?$CComObject@V?$CComEnum@UIEnumConnections@@$1?_GUID_b196b287_bab4_101a_b69c_00aa00341d07@@3U__s_GUID@@BUtagCONNECTDATA@@V?$_Copy@UtagCONNECTDATA@@@ATL@@VCComSingleThreadModel@6@@ATL@@@ATL@@UAGKXZ 1000a7c0 f i VideoCapture.obj
 0001:000097e0       ?AddRef@?$CComObject@VCOPOSVideoCapture@@@ATL@@UAGKXZ 1000a7e0 f i VideoCapture.obj
 0001:000097fc       ?AddRef@?$CComObject@VCOPOSVideoCapture@@@ATL@@WHA@AGKXZ 1000a7fc f i VideoCapture.obj
 0001:00009806       ?AddRef@?$CComObject@VCOPOSVideoCapture@@@ATL@@WHE@AGKXZ 1000a806 f i VideoCapture.obj
 0001:00009810       ?AddRef@?$CComObject@VCOPOSVideoCapture@@@ATL@@WHI@AGKXZ 1000a810 f i VideoCapture.obj
 0001:0000981a       ?AddRef@?$CComObject@VCOPOSVideoCapture@@@ATL@@WHM@AGKXZ 1000a81a f i VideoCapture.obj
 0001:00009824       ?AddRef@?$CComObject@VCOPOSVideoCapture@@@ATL@@WIA@AGKXZ 1000a824 f i VideoCapture.obj
 0001:00009831       ?AddRef@?$CComObject@VCOPOSVideoCapture@@@ATL@@WIE@AGKXZ 1000a831 f i VideoCapture.obj
 0001:0000983e       ?AddRef@?$CComObject@VCOPOSVideoCapture@@@ATL@@WII@AGKXZ 1000a83e f i VideoCapture.obj
 0001:0000984b       ?AddRef@?$CComObject@VCOPOSVideoCapture@@@ATL@@WIM@AGKXZ 1000a84b f i VideoCapture.obj
 0001:00009858       ?AddRef@?$CComObject@VCOPOSVideoCapture@@@ATL@@WJA@AGKXZ 1000a858 f i VideoCapture.obj
 0001:00009865       ?AddRef@?$CComObject@VCOPOSVideoCapture@@@ATL@@WJE@AGKXZ 1000a865 f i VideoCapture.obj
 0001:00009872       ?AddRef@?$CComObject@VCOPOSVideoCapture@@@ATL@@WJI@AGKXZ 1000a872 f i VideoCapture.obj
 0001:0000987f       ?AddRef@?$CComObject@VCOPOSVideoCapture@@@ATL@@WJM@AGKXZ 1000a87f f i VideoCapture.obj
 0001:0000988c       ?AddRef@?$CComObject@VCOPOSVideoCapture@@@ATL@@WKA@AGKXZ 1000a88c f i VideoCapture.obj
 0001:00009899       ?AddRef@?$CComObject@VCOPOSVideoCapture@@@ATL@@WKI@AGKXZ 1000a899 f i VideoCapture.obj
 0001:000098a6       ?AddRef@?$CComObject@VCOPOSVideoCapture@@@ATL@@WLE@AGKXZ 1000a8a6 f i VideoCapture.obj
 0001:000098c0       ?AddRef@?$CComObjectCached@VCComClassFactory@ATL@@@ATL@@UAGKXZ 1000a8c0 f i VideoCapture.obj
 0001:00009910       ?AddRef@CRegObject@ATL@@UAGKXZ 1000a910 f i VideoCapture.obj
 0001:00009960       ?AddReplacement@CRegObject@ATL@@UAGJPB_W0@Z 1000a960 f i VideoCapture.obj
 0001:00009a70       ?AddString@CParseBuffer@CRegParser@ATL@@QAEHPB_W@Z 1000aa70 f i VideoCapture.obj
 0001:00009b60       ?AddTermFunc@CAtlModule@ATL@@QAEJP6GXK@ZK@Z 1000ab60 f i VideoCapture.obj
 0001:00009bb0       ?AddValue@CRegParser@ATL@@IAEJAAVCRegKey@2@PB_WPA_W@Z 1000abb0 f i VideoCapture.obj
 0001:0000a340       ?Advise@?$CProxy_IOPOSEvents@VCOPOSVideoCapture@@@@UAGJPAUIUnknown@@PAK@Z 1000b340 f i VideoCapture.obj
 0001:0000a390       ?Advise@?$IConnectionPointImpl@VCOPOSVideoCapture@@$1?DIID__IOPOSVideoCaptureEvents@@3U_GUID@@BVCComDynamicUnkArray@ATL@@@ATL@@UAGJPAUIUnknown@@PAK@Z 1000b390 f i VideoCapture.obj
 0001:0000a530       ?Advise@?$IConnectionPointImpl@VCOPOSVideoCapture@@$1?IID_IPropertyNotifySink@@3U_GUID@@BVCComDynamicUnkArray@ATL@@@ATL@@UAGJPAUIUnknown@@PAK@Z 1000b530 f i VideoCapture.obj
 0001:0000a6d0       ?Advise@?$IOleObjectImpl@VCOPOSVideoCapture@@@ATL@@UAGJPAUIAdviseSink@@PAK@Z 1000b6d0 f i VideoCapture.obj
 0001:0000a760       ?Allocate@?$CAtlSafeAllocBufferManager@VCCRTAllocator@ATL@@@_ATL_SAFE_ALLOCA_IMPL@ATL@@QAEPAXK@Z 1000b760 f i VideoCapture.obj
 0001:0000a7d0       ?Allocate@?$CTempBuffer@E$0BAA@VCCRTAllocator@ATL@@@ATL@@QAEPAEI@Z 1000b7d0 f i VideoCapture.obj
 0001:0000a810       ?Allocate@?$CTempBuffer@_W$0BAA@VCCRTAllocator@ATL@@@ATL@@QAEPA_WI@Z 1000b810 f i VideoCapture.obj
 0001:0000a850       ?Allocate@?$CTempBuffer@_W$0EAA@VCCRTAllocator@ATL@@@ATL@@QAEPA_WI@Z 1000b850 f i VideoCapture.obj
 0001:0000a890       ?AllocateBytes@?$CTempBuffer@E$0BAA@VCCRTAllocator@ATL@@@ATL@@QAEPAEI@Z 1000b890 f i VideoCapture.obj
 0001:0000a910       ?AllocateBytes@?$CTempBuffer@_W$0BAA@VCCRTAllocator@ATL@@@ATL@@QAEPA_WI@Z 1000b910 f i VideoCapture.obj
 0001:0000a990       ?AllocateBytes@?$CTempBuffer@_W$0EAA@VCCRTAllocator@ATL@@@ATL@@QAEPA_WI@Z 1000b990 f i VideoCapture.obj
 0001:0000aa10       ?AllocateHeap@?$CTempBuffer@E$0BAA@VCCRTAllocator@ATL@@@ATL@@AAEXI@Z 1000ba10 f i VideoCapture.obj
 0001:0000aa60       ?AllocateHeap@?$CTempBuffer@_W$0BAA@VCCRTAllocator@ATL@@@ATL@@AAEXI@Z 1000ba60 f i VideoCapture.obj
 0001:0000aab0       ?AllocateHeap@?$CTempBuffer@_W$0EAA@VCCRTAllocator@ATL@@@ATL@@AAEXI@Z 1000bab0 f i VideoCapture.obj
 0001:0000ab00       ?Append@CParseBuffer@CRegParser@ATL@@QAEHPB_WH@Z 1000bb00 f i VideoCapture.obj
 0001:0000aca0       ?AtlCallTermFunc@ATL@@YGXPAU_ATL_MODULE70@1@@Z 1000bca0 f i VideoCapture.obj
 0001:0000ad40       ?AtlCoTaskMemCAlloc@ATL@@YAPAXKK@Z 1000bd40 f i VideoCapture.obj
 0001:0000add0       ?AtlCoTaskMemRecalloc@ATL@@YAPAXPAXKK@Z 1000bdd0 f i VideoCapture.obj
 0001:0000ae70       ?AtlComModuleGetClassObject@ATL@@YGJPAU_ATL_COM_MODULE70@1@ABU_GUID@@1PAPAX@Z 1000be70 f i VideoCapture.obj
 0001:0000b100       ?AtlComModuleRegisterServer@ATL@@YGJPAU_ATL_COM_MODULE70@1@HPBU_GUID@@@Z 1000c100 f i VideoCapture.obj
 0001:0000b290       ?AtlComModuleUnregisterServer@ATL@@YGJPAU_ATL_COM_MODULE70@1@HPBU_GUID@@@Z 1000c290 f i VideoCapture.obj
 0001:0000b3c0       ?AtlComQIPtrAssign2@ATL@@YAXPAPAUIUnknown@@PAU2@ABU_GUID@@@Z 1000c3c0 f i VideoCapture.obj
 0001:0000b440       ?AtlCreateTargetDC@ATL@@YGPAUHDC__@@PAU2@PAUtagDVTARGETDEVICE@@@Z 1000c440 f i VideoCapture.obj
 0001:0000b5e0       ?AtlCrtErrorCheck@ATL@@YAHH@Z 1000c5e0 f i VideoCapture.obj
 0001:0000b6b0       ?AtlGetPerUserRegistration@ATL@@YGJPA_N@Z 1000c6b0 f i VideoCapture.obj
 0001:0000b6e0       ?AtlHiMetricToPixel@ATL@@YGXPBUtagSIZE@@PAU2@@Z 1000c6e0 f i VideoCapture.obj
 0001:0000b8b0       ?AtlHresultFromLastError@ATL@@YAJXZ 1000c8b0 f i VideoCapture.obj
 0001:0000b8f0       ?AtlHresultFromWin32@ATL@@YAJK@Z 1000c8f0 f i VideoCapture.obj
 0001:0000b910       ?AtlIPersistStreamInit_Load@ATL@@YGJPAUIStream@@PBUATL_PROPMAP_ENTRY@1@PAXPAUIUnknown@@@Z 1000c910 f i VideoCapture.obj
 0001:0000bd70       ?AtlIPersistStreamInit_Save@ATL@@YGJPAUIStream@@HPBUATL_PROPMAP_ENTRY@1@PAXPAUIUnknown@@@Z 1000cd70 f i VideoCapture.obj
 0001:0000c150       ?AtlInternalOleLoadFromStream@ATL@@YAJPAUIStream@@ABU_GUID@@PAPAXTClassesAllowedInStream@1@K@Z 1000d150 f i VideoCapture.obj
 0001:0000c3f0       ?AtlInternalQueryInterface@ATL@@YGJPAXPBU_ATL_INTMAP_ENTRY@1@ABU_GUID@@PAPAX@Z 1000d3f0 f i VideoCapture.obj
 0001:0000c620       ?AtlLoadTypeLib@ATL@@YGJPAUHINSTANCE__@@PB_WPAPA_WPAPAUITypeLib@@@Z 1000d620 f i VideoCapture.obj
 0001:0000ca80       ?AtlModuleAddTermFunc@ATL@@YGJPAU_ATL_MODULE70@1@P6GXK@ZK@Z 1000da80 f i VideoCapture.obj
 0001:0000cbe0       ?AtlRegisterClassCategoriesHelper@ATL@@YGJABU_GUID@@PBU_ATL_CATMAP_ENTRY@1@H@Z 1000dbe0 f i VideoCapture.obj
 0001:0000d2c0       ?AtlRegisterTypeLib@ATL@@YGJPAUHINSTANCE__@@PB_W@Z 1000e2c0 f i VideoCapture.obj
 0001:0000d600       ?AtlThrowImpl@ATL@@YGXJ@Z  1000e600 f i VideoCapture.obj
 0001:0000d6b0       ?AtlUnRegisterTypeLib@ATL@@YGJPAUHINSTANCE__@@PB_W@Z 1000e6b0 f i VideoCapture.obj
 0001:0000d8c0       ?AtlWinModuleAddCreateWndData@ATL@@YGXPAU_ATL_WIN_MODULE70@1@PAU_AtlCreateWndData@1@PAX@Z 1000e8c0 f i VideoCapture.obj
 0001:0000da30       ?AtlWinModuleExtractCreateWndData@ATL@@YGPAXPAU_ATL_WIN_MODULE70@1@@Z 1000ea30 f i VideoCapture.obj
 0001:0000dbb0       ?AtlWinModuleRegisterClassExW@ATL@@YGGPAU_ATL_WIN_MODULE70@1@PBUtagWNDCLASSEXW@@@Z 1000ebb0 f i VideoCapture.obj
 0001:0000dc80       ?AtlWinModuleRegisterWndClassInfoW@ATL@@YGGPAU_ATL_WIN_MODULE70@1@PAU_ATL_BASE_MODULE70@1@PAU_ATL_WNDCLASSINFOW@1@PAP6GJPAUHWND__@@IIJ@Z@Z 1000ec80 f i VideoCapture.obj
 0001:0000dd10       ?Attach@?$CAutoVectorPtr@_W@ATL@@QAEXPA_W@Z 1000ed10 f i VideoCapture.obj
 0001:0000dd70       ?Attach@CComBSTR@ATL@@QAEXPA_W@Z 1000ed70 f i VideoCapture.obj
 0001:0000ddc0       ?Attach@CRegKey@ATL@@QAEXPAUHKEY__@@@Z 1000edc0 f i VideoCapture.obj
 0001:0000de30       ?CanForceRemoveKey@CRegParser@ATL@@IAEHPB_W@Z 1000ee30 f i VideoCapture.obj
 0001:0000dea0       ?ChToByte@CRegParser@ATL@@KAE_W@Z 1000eea0 f i VideoCapture.obj
 0001:0000dfc0       ?ChangeType@CComVariant@ATL@@QAEJGPBUtagVARIANT@@@Z 1000efc0 f i VideoCapture.obj
 0001:0000e020       ?Cleanup@CComTypeInfoHolder@ATL@@SGXK@Z 1000f020 f i VideoCapture.obj
 0001:0000e0f0       ?Clear@CComVariant@ATL@@QAEJXZ 1000f0f0 f i VideoCapture.obj
 0001:0000e130       ?ClearReplacements@CExpansionVector@ATL@@QAEJXZ 1000f130 f i VideoCapture.obj
 0001:0000e1c0       ?ClearReplacements@CRegObject@ATL@@UAGJXZ 1000f1c0 f i VideoCapture.obj
 0001:0000e210       ?Clone@?$CComEnumImpl@UIEnumConnectionPoints@@$1?_GUID_b196b285_bab4_101a_b69c_00aa00341d07@@3U__s_GUID@@BPAUIConnectionPoint@@V?$_CopyInterface@UIConnectionPoint@@@ATL@@@ATL@@UAGJPAPAUIEnumConnectionPoints@@@Z 1000f210 f i VideoCapture.obj
 0001:0000e380       ?Clone@?$CComEnumImpl@UIEnumConnections@@$1?_GUID_b196b287_bab4_101a_b69c_00aa00341d07@@3U__s_GUID@@BUtagCONNECTDATA@@V?$_Copy@UtagCONNECTDATA@@@ATL@@@ATL@@UAGJPAPAUIEnumConnections@@@Z 1000f380 f i VideoCapture.obj
 0001:0000e4f0       ?Close@?$IOleObjectImpl@VCOPOSVideoCapture@@@ATL@@UAGJK@Z 1000f4f0 f i VideoCapture.obj
 0001:0000e580       ?Close@CRegKey@ATL@@QAEJXZ 1000f580 f i VideoCapture.obj
 0001:0000e5f0       ?ContextSensitiveHelp@?$IOleInPlaceActiveObjectImpl@VCOPOSVideoCapture@@@ATL@@UAGJH@Z 1000f5f0 f i VideoCapture.obj
 0001:0000e660       ?ContextSensitiveHelp@?$IOleInPlaceObjectWindowlessImpl@VCOPOSVideoCapture@@@ATL@@UAGJH@Z 1000f660 f i VideoCapture.obj
 0001:0000e6d0       ?ControlQueryInterface@?$CComControl@VCOPOSVideoCapture@@V?$CWindowImpl@VCOPOSVideoCapture@@VCWindow@ATL@@V?$CWinTraits@$0FGAAAAAA@$0A@@3@@ATL@@@ATL@@UAEJABU_GUID@@PAPAX@Z 1000f6d0 f i VideoCapture.obj
 0001:0000e750       ?CreateControlWindow@?$CComControl@VCOPOSVideoCapture@@V?$CWindowImpl@VCOPOSVideoCapture@@VCWindow@ATL@@V?$CWinTraits@$0FGAAAAAA@$0A@@3@@ATL@@@ATL@@UAEPAUHWND__@@PAU3@AAUtagRECT@@@Z 1000f750 f i VideoCapture.obj
 0001:0000e7d0       ?CreateInstance@?$CComCreator@V?$CComAggObject@VCOPOSVideoCapture@@@ATL@@@ATL@@SGJPAXABU_GUID@@PAPAX@Z 1000f7d0 f i VideoCapture.obj
 0001:0000e950       ?CreateInstance@?$CComCreator@V?$CComObject@VCOPOSVideoCapture@@@ATL@@@ATL@@SGJPAXABU_GUID@@PAPAX@Z 1000f950 f i VideoCapture.obj
 0001:0000eae0       ?CreateInstance@?$CComObject@V?$CComEnum@UIEnumConnectionPoints@@$1?_GUID_b196b285_bab4_101a_b69c_00aa00341d07@@3U__s_GUID@@BPAUIConnectionPoint@@V?$_CopyInterface@UIConnectionPoint@@@ATL@@VCComSingleThreadModel@6@@ATL@@@ATL@@SGJPAPAV12@@Z 1000fae0 f i VideoCapture.obj
 0001:0000ec50       ?CreateInstance@?$CComObject@V?$CComEnum@UIEnumConnections@@$1?_GUID_b196b287_bab4_101a_b69c_00aa00341d07@@3U__s_GUID@@BUtagCONNECTDATA@@V?$_Copy@UtagCONNECTDATA@@@ATL@@VCComSingleThreadModel@6@@ATL@@@ATL@@SGJPAPAV12@@Z 1000fc50 f i VideoCapture.obj
 0001:0000edc0       ?CreateInstance@CComClassFactory@ATL@@UAGJPAUIUnknown@@ABU_GUID@@PAPAX@Z 1000fdc0 f i VideoCapture.obj
 0001:0000eeb0       ?DAdvise@?$IDataObjectImpl@VCOPOSVideoCapture@@@ATL@@UAGJPAUtagFORMATETC@@KPAUIAdviseSink@@PAK@Z 1000feb0 f i VideoCapture.obj
 0001:0000efb0       ?DEVMODEOLE2T_EX@@YAPAU_devicemodeW@@PAU1@@Z 1000ffb0 f i VideoCapture.obj
 0001:0000efc0       ?DUnadvise@?$IDataObjectImpl@VCOPOSVideoCapture@@@ATL@@UAGJK@Z 1000ffc0 f i VideoCapture.obj
 0001:0000f090       ?Decrement@CComMultiThreadModel@ATL@@SGKPAJ@Z 10010090 f i VideoCapture.obj
 0001:0000f0b0       ?Decrement@CComSingleThreadModel@ATL@@SGKPAJ@Z 100100b0 f i VideoCapture.obj
 0001:0000f0d0       ?DefWindowProcW@?$CWindowImplBaseT@VCWindow@ATL@@V?$CWinTraits@$0FGAAAAAA@$0A@@2@@ATL@@QAEJIIJ@Z 100100d0 f i VideoCapture.obj
 0001:0000f120       ?DefaultReflectionHandler@?$CWindowImplRoot@VCWindow@ATL@@@ATL@@SAHPAUHWND__@@IIJAAJ@Z 10010120 f i VideoCapture.obj
 0001:0000f3b0       ?DeleteSubKey@CRegKey@ATL@@QAEJPB_W@Z 100103b0 f i VideoCapture.obj
 0001:0000f4c0       ?DeleteValue@CRegKey@ATL@@QAEJPB_W@Z 100104c0 f i VideoCapture.obj
 0001:0000f530       ?Detach@?$CAutoVectorPtr@_W@ATL@@QAEPA_WXZ 10010530 f i VideoCapture.obj
 0001:0000f560       ?Detach@?$CComPtrBase@UIPersistStream@@@ATL@@QAEPAUIPersistStream@@XZ 10010560 f i VideoCapture.obj
 0001:0000f590       ?Detach@?$CComPtrBase@UITypeInfo@@@ATL@@QAEPAUITypeInfo@@XZ 10010590 f i VideoCapture.obj
 0001:0000f5c0       ?Detach@?$CComPtrBase@UIUnknown@@@ATL@@QAEPAUIUnknown@@XZ 100105c0 f i VideoCapture.obj
 0001:0000f5f0       ?Detach@CComBSTR@ATL@@QAEPA_WXZ 100105f0 f i VideoCapture.obj
 0001:0000f620       ?Detach@CParseBuffer@CRegParser@ATL@@QAEPA_WXZ 10010620 f i VideoCapture.obj
 0001:0000f660       ?Detach@CRegKey@ATL@@QAEPAUHKEY__@@XZ 10010660 f i VideoCapture.obj
 0001:0000f6a0       ?DoEvent@COPOSVideoCapture@@IAEXIIJ@Z 100106a0 f i VideoCapture.obj
 0001:0000f7e0       ?DoVerb@?$IOleObjectImpl@VCOPOSVideoCapture@@@ATL@@UAGJJPAUtagMSG@@PAUIOleClientSite@@JPAUHWND__@@PBUtagRECT@@@Z 100107e0 f i VideoCapture.obj
 0001:0000f9f0       ?DoVerbDiscardUndo@?$IOleObjectImpl@VCOPOSVideoCapture@@@ATL@@QAEJPBUtagRECT@@PAUHWND__@@@Z 100109f0 f i VideoCapture.obj
 0001:0000fa60       ?DoVerbHide@?$IOleObjectImpl@VCOPOSVideoCapture@@@ATL@@QAEJPBUtagRECT@@PAUHWND__@@@Z 10010a60 f i VideoCapture.obj
 0001:0000fb10       ?DoVerbInPlaceActivate@?$IOleObjectImpl@VCOPOSVideoCapture@@@ATL@@QAEJPBUtagRECT@@PAUHWND__@@@Z 10010b10 f i VideoCapture.obj
 0001:0000fbb0       ?DoVerbOpen@?$IOleObjectImpl@VCOPOSVideoCapture@@@ATL@@QAEJPBUtagRECT@@PAUHWND__@@@Z 10010bb0 f i VideoCapture.obj
 0001:0000fc20       ?DoVerbPrimary@?$IOleObjectImpl@VCOPOSVideoCapture@@@ATL@@QAEJPBUtagRECT@@PAUHWND__@@@Z 10010c20 f i VideoCapture.obj
 0001:0000fd30       ?DoVerbProperties@CComControlBase@ATL@@QAEJPBUtagRECT@@PAUHWND__@@@Z 10010d30 f i VideoCapture.obj
 0001:00010050       ?DoVerbShow@?$IOleObjectImpl@VCOPOSVideoCapture@@@ATL@@QAEJPBUtagRECT@@PAUHWND__@@@Z 10011050 f i VideoCapture.obj
 0001:000100e0       ?DoVerbUIActivate@?$IOleObjectImpl@VCOPOSVideoCapture@@@ATL@@QAEJPBUtagRECT@@PAUHWND__@@@Z 100110e0 f i VideoCapture.obj
 0001:00010180       ?DoesVerbActivate@CComControlBase@ATL@@QAEHJ@Z 10011180 f i VideoCapture.obj
 0001:000101e0       ?DoesVerbUIActivate@CComControlBase@ATL@@QAEHJ@Z 100111e0 f i VideoCapture.obj
 0001:00010260       ?Draw@?$IViewObjectExImpl@VCOPOSVideoCapture@@@ATL@@UAGJKJPAXPAUtagDVTARGETDEVICE@@PAUHDC__@@2PBU_RECTL@@3P6GHK@ZK@Z 10011260 f i VideoCapture.obj
 0001:00010300       ?Empty@CComBSTR@ATL@@QAEXXZ 10011300 f i VideoCapture.obj
 0001:00010340       ?EnableModeless@?$IOleInPlaceActiveObjectImpl@VCOPOSVideoCapture@@@ATL@@UAGJH@Z 10011340 f i VideoCapture.obj
 0001:000103a0       ?EndOfVar@CRegParser@ATL@@IAEHXZ 100113a0 f i VideoCapture.obj
 0001:00010410       ?EnsureTI@CComTypeInfoHolder@ATL@@QAEJK@Z 10011410 f i VideoCapture.obj
 0001:00010470       ?EnumAdvise@?$IOleObjectImpl@VCOPOSVideoCapture@@@ATL@@UAGJPAPAUIEnumSTATDATA@@@Z 10011470 f i VideoCapture.obj
 0001:00010580       ?EnumConnectionPoints@?$IConnectionPointContainerImpl@VCOPOSVideoCapture@@@ATL@@UAGJPAPAUIEnumConnectionPoints@@@Z 10011580 f i VideoCapture.obj
 0001:000109b0       ?EnumConnections@?$IConnectionPointImpl@VCOPOSVideoCapture@@$1?DIID__IOPOSVideoCaptureEvents@@3U_GUID@@BVCComDynamicUnkArray@ATL@@@ATL@@UAGJPAPAUIEnumConnections@@@Z 100119b0 f i VideoCapture.obj
 0001:00010c00       ?EnumConnections@?$IConnectionPointImpl@VCOPOSVideoCapture@@$1?IID_IPropertyNotifySink@@3U_GUID@@BVCComDynamicUnkArray@ATL@@@ATL@@UAGJPAPAUIEnumConnections@@@Z 10011c00 f i VideoCapture.obj
 0001:00010e50       ?EnumDAdvise@?$IDataObjectImpl@VCOPOSVideoCapture@@@ATL@@UAGJPAPAUIEnumSTATDATA@@@Z 10011e50 f i VideoCapture.obj
 0001:00010f50       ?EnumFormatEtc@?$IDataObjectImpl@VCOPOSVideoCapture@@@ATL@@UAGJKPAPAUIEnumFORMATETC@@@Z 10011f50 f i VideoCapture.obj
 0001:00010fc0       ?EnumVerbs@?$IOleObjectImpl@VCOPOSVideoCapture@@@ATL@@UAGJPAPAUIEnumOLEVERB@@@Z 10011fc0 f i VideoCapture.obj
 0001:00011070       ?EscapeSingleQuote@CAtlModule@ATL@@SAXPA_WIPB_W@Z 10012070 f i VideoCapture.obj
 0001:00011110       ?ExtractCreateWndData@CAtlWinModule@ATL@@QAEPAXXZ 10012110 f i VideoCapture.obj
 0001:00011140       ?FAccessAllowed@?$IObjectSafetyImpl@VCOPOSVideoCapture@@$02@ATL@@MAEHXZ 10012140 f i VideoCapture.obj
 0001:00011150       ?FinalConstruct@?$CComAggObject@VCOPOSVideoCapture@@@ATL@@QAEJXZ 10012150 f i VideoCapture.obj
 0001:00011190       ?FinalConstruct@CComObjectRootBase@ATL@@QAEJXZ 10012190 f i VideoCapture.obj
 0001:000111a0       ?FinalConstruct@CRegObject@ATL@@QAEJXZ 100121a0 f i VideoCapture.obj
 0001:000111d0       ?FinalRelease@?$CComAggObject@VCOPOSVideoCapture@@@ATL@@QAEXXZ 100121d0 f i VideoCapture.obj
 0001:00011210       ?FinalRelease@CComObjectRootBase@ATL@@QAEXXZ 10012210 f i VideoCapture.obj
 0001:00011220       ?FindConnectionPoint@?$IConnectionPointContainerImpl@VCOPOSVideoCapture@@@ATL@@UAGJABU_GUID@@PAPAUIConnectionPoint@@@Z 10012220 f i VideoCapture.obj
 0001:00011370       ?FindKey@?$CSimpleMap@PA_WPA_WVCExpansionVectorEqualHelper@ATL@@@ATL@@QBEHABQA_W@Z 10012370 f i VideoCapture.obj
 0001:000113e0       ?FireTheEvent@?$CProxy_IOPOSEvents@VCOPOSVideoCapture@@@@IAEXPAUIUnknown@@PAVOposVariant@@IAAJPB_WJ@Z 100123e0 f i VideoCapture.obj
 0001:00011550       ?FireViewChange@CComControlBase@ATL@@QAEJXZ 10012550 f i VideoCapture.obj
 0001:00011610       ?Fire_DirectIOEvent@?$CProxy_IOPOSEvents@VCOPOSVideoCapture@@@@QAEXJPAJPAPA_W@Z 10012610 f i VideoCapture.obj
 0001:000117e0       ?Fire_ErrorEvent@?$CProxy_IOPOSEvents@VCOPOSVideoCapture@@@@QAEXJJJPAJ@Z 100127e0 f i VideoCapture.obj
 0001:000119d0       ?Fire_StatusUpdateEvent@?$CProxy_IOPOSEvents@VCOPOSVideoCapture@@@@QAEXJ@Z 100129d0 f i VideoCapture.obj
 0001:00011b30       ?FormatWindowClassName@AtlModuleRegisterWndClassInfoParamW@ATL@@SAXPA_WKPAX@Z 10012b30 f i VideoCapture.obj
 0001:00011b60       ?Free@?$CAutoVectorPtr@_W@ATL@@QAEXXZ 10012b60 f i VideoCapture.obj
 0001:00011bb0       ?FreeHeap@?$CTempBuffer@E$0BAA@VCCRTAllocator@ATL@@@ATL@@AAEXXZ 10012bb0 f i VideoCapture.obj
 0001:00011be0       ?FreeHeap@?$CTempBuffer@_W$0BAA@VCCRTAllocator@ATL@@@ATL@@AAEXXZ 10012be0 f i VideoCapture.obj
 0001:00011c10       ?FreeHeap@?$CTempBuffer@_W$0EAA@VCCRTAllocator@ATL@@@ATL@@AAEXXZ 10012c10 f i VideoCapture.obj
 0001:00011c40       ?Freeze@?$IViewObjectExImpl@VCOPOSVideoCapture@@@ATL@@UAGJKJPAXPAK@Z 10012c40 f i VideoCapture.obj
 0001:00011cb0       ?GenerateError@CRegParser@ATL@@IAEJI@Z 10012cb0 f i VideoCapture.obj
 0001:00011cd0       ?GetAdvise@?$IViewObjectExImpl@VCOPOSVideoCapture@@@ATL@@UAGJPAK0PAPAUIAdviseSink@@@Z 10012cd0 f i VideoCapture.obj
 0001:00011dd0       ?GetAmbientLocaleID@CComControlBase@ATL@@QAEJAAK@Z 10012dd0 f i VideoCapture.obj
 0001:00011eb0       ?GetAmbientProperty@CComControlBase@ATL@@QAEJJAAUtagVARIANT@@@Z 10012eb0 f i VideoCapture.obj
 0001:00011f00       ?GetAmbientUserMode@CComControlBase@ATL@@QAEJAAH@Z 10012f00 f i VideoCapture.obj
 0001:00012000       ?GetAppId@?$CAtlModuleT@VCComModule@ATL@@@ATL@@SAPB_WXZ 10013000 f i VideoCapture.obj
 0001:00012010       ?GetAt@CComDynamicUnkArray@ATL@@QAEPAUIUnknown@@H@Z 10013010 f i VideoCapture.obj
 0001:00012090       ?GetCanonicalFormatEtc@?$IDataObjectImpl@VCOPOSVideoCapture@@@ATL@@UAGJPAUtagFORMATETC@@0@Z 10013090 f i VideoCapture.obj
 0001:00012100       ?GetClassID@?$IPersistStorageImpl@VCOPOSVideoCapture@@@ATL@@UAGJPAU_GUID@@@Z 10013100 f i VideoCapture.obj
 0001:00012180       ?GetClassID@?$IPersistStreamInitImpl@VCOPOSVideoCapture@@@ATL@@UAGJPAU_GUID@@@Z 10013180 f i VideoCapture.obj
 0001:00012200       ?GetClassInfoExW@AtlModuleRegisterWndClassInfoParamW@ATL@@SAHPAUHINSTANCE__@@PB_WPAUtagWNDCLASSEXW@@@Z 10013200 f i VideoCapture.obj
 0001:00012230       ?GetClassInfoW@?$IProvideClassInfo2Impl@$1?CLSID_OPOSVideoCapture@@3U_GUID@@B$1?DIID__IOPOSVideoCaptureEvents@@3U2@B$1?LIBID_OposVideoCapture_CCO@@3U2@B$00$0A@VCComTypeInfoHolder@ATL@@@ATL@@UAGJPAPAUITypeInfo@@@Z 10013230 f i VideoCapture.obj
 0001:00012250       ?GetClassObject@CComModule@ATL@@QAEJABU_GUID@@0PAPAX@Z 10013250 f i VideoCapture.obj
 0001:00012450       ?GetClientSite@?$IOleObjectImpl@VCOPOSVideoCapture@@@ATL@@UAGJPAPAUIOleClientSite@@@Z 10013450 f i VideoCapture.obj
 0001:000124e0       ?GetClipboardData@?$IOleObjectImpl@VCOPOSVideoCapture@@@ATL@@UAGJKPAPAUIDataObject@@@Z 100134e0 f i VideoCapture.obj
 0001:00012550       ?GetCodeAddress@CDynamicStdCallThunk2@ATL@@QAEPAXXZ 10013550 f i VideoCapture.obj
 0001:00012580       ?GetColorSet@?$IViewObjectExImpl@VCOPOSVideoCapture@@@ATL@@UAGJKJPAXPAUtagDVTARGETDEVICE@@PAUHDC__@@PAPAUtagLOGPALETTE@@@Z 10013580 f i VideoCapture.obj
 0001:000125f0       ?GetConnMap@COPOSVideoCapture@@SAPBU_ATL_CONNMAP_ENTRY@ATL@@PAH@Z 100135f0 f i VideoCapture.obj
 0001:00012730       ?GetConnectionInterface@?$IConnectionPointImpl@VCOPOSVideoCapture@@$1?DIID__IOPOSVideoCaptureEvents@@3U_GUID@@BVCComDynamicUnkArray@ATL@@@ATL@@UAGJPAU_GUID@@@Z 10013730 f i VideoCapture.obj
 0001:00012770       ?GetConnectionInterface@?$IConnectionPointImpl@VCOPOSVideoCapture@@$1?IID_IPropertyNotifySink@@3U_GUID@@BVCComDynamicUnkArray@ATL@@@ATL@@UAGJPAU_GUID@@@Z 10013770 f i VideoCapture.obj
 0001:000127b0       ?GetConnectionPointContainer@?$IConnectionPointImpl@VCOPOSVideoCapture@@$1?DIID__IOPOSVideoCaptureEvents@@3U_GUID@@BVCComDynamicUnkArray@ATL@@@ATL@@UAGJPAPAUIConnectionPointContainer@@@Z 100137b0 f i VideoCapture.obj
 0001:00012820       ?GetConnectionPointContainer@?$IConnectionPointImpl@VCOPOSVideoCapture@@$1?IID_IPropertyNotifySink@@3U_GUID@@BVCComDynamicUnkArray@ATL@@@ATL@@UAGJPAPAUIConnectionPointContainer@@@Z 10013820 f i VideoCapture.obj
 0001:00012890       ?GetContentExtent@?$IQuickActivateImpl@VCOPOSVideoCapture@@@ATL@@UAGJPAUtagSIZE@@@Z 10013890 f i VideoCapture.obj
 0001:00012920       ?GetControlInfo@?$IOleControlImpl@VCOPOSVideoCapture@@@ATL@@UAGJPAUtagCONTROLINFO@@@Z 10013920 f i VideoCapture.obj
 0001:00012990       ?GetCookie@CComDynamicUnkArray@ATL@@QAGKPAPAUIUnknown@@@Z 10013990 f i VideoCapture.obj
 0001:00012a50       ?GetData@?$IDataObjectImpl@VCOPOSVideoCapture@@@ATL@@UAGJPAUtagFORMATETC@@PAUtagSTGMEDIUM@@@Z 10013a50 f i VideoCapture.obj
 0001:00012ae0       ?GetData@CAtlSafeAllocBufferNode@?$CAtlSafeAllocBufferManager@VCCRTAllocator@ATL@@@_ATL_SAFE_ALLOCA_IMPL@ATL@@QAEPAXXZ 10013ae0 f i VideoCapture.obj
 0001:00012b00       ?GetDataHere@?$IDataObjectImpl@VCOPOSVideoCapture@@@ATL@@UAGJPAUtagFORMATETC@@PAUtagSTGMEDIUM@@@Z 10013b00 f i VideoCapture.obj
 0001:00012b70       ?GetDropTarget@?$IOleInPlaceObjectWindowlessImpl@VCOPOSVideoCapture@@@ATL@@UAGJPAPAUIDropTarget@@@Z 10013b70 f i VideoCapture.obj
 0001:00012be0       ?GetExtent@?$IOleObjectImpl@VCOPOSVideoCapture@@@ATL@@UAGJKPAUtagSIZE@@@Z 10013be0 f i VideoCapture.obj
 0001:00012c80       ?GetExtent@?$IViewObjectExImpl@VCOPOSVideoCapture@@@ATL@@UAGJKJPAUtagDVTARGETDEVICE@@PAUtagSIZE@@@Z 10013c80 f i VideoCapture.obj
 0001:00012d50       ?GetGITPtr@CAtlModule@ATL@@UAEJPAPAUIGlobalInterfaceTable@@@Z 10013d50 f i VideoCapture.obj
 0001:00012e50       ?GetGUID@?$IProvideClassInfo2Impl@$1?CLSID_OPOSVideoCapture@@3U_GUID@@B$1?DIID__IOPOSVideoCaptureEvents@@3U2@B$1?LIBID_OposVideoCapture_CCO@@3U2@B$00$0A@VCComTypeInfoHolder@ATL@@@ATL@@UAGJKPAU_GUID@@@Z 10013e50 f i VideoCapture.obj
 0001:00012ed0       ?GetIDsOfNames@?$IDispatchImpl@UIOPOSVideoCapture@@$1?IID_IOPOSVideoCapture@@3U_GUID@@B$1?LIBID_OposVideoCapture_CCO@@3U3@B$00$0A@VCComTypeInfoHolder@ATL@@@ATL@@UAGJABU_GUID@@PAPA_WIKPAJ@Z 10013ed0 f i VideoCapture.obj
 0001:00012f00       ?GetIDsOfNames@CComTypeInfoHolder@ATL@@QAEJABU_GUID@@PAPA_WIKPAJ@Z 10013f00 f i VideoCapture.obj
 0001:000130b0       ?GetInterfaceSafetyOptions@?$IObjectSafetyImpl@VCOPOSVideoCapture@@$02@ATL@@UAGJABU_GUID@@PAK1@Z 100140b0 f i VideoCapture.obj
 0001:00013220       ?GetKeyAt@?$CSimpleMap@PA_WPA_WVCExpansionVectorEqualHelper@ATL@@@ATL@@QBEAAPA_WH@Z 10014220 f i VideoCapture.obj
 0001:000132a0       ?GetLockCount@CAtlModule@ATL@@UAEJXZ 100142a0 f i VideoCapture.obj
 0001:000132c0       ?GetMiscStatus@?$IOleObjectImpl@VCOPOSVideoCapture@@@ATL@@UAGJKPAK@Z 100142c0 f i VideoCapture.obj
 0001:00013330       ?GetMoniker@?$IOleObjectImpl@VCOPOSVideoCapture@@@ATL@@UAGJKKPAPAUIMoniker@@@Z 10014330 f i VideoCapture.obj
 0001:000133a0       ?GetNaturalExtent@?$IViewObjectExImpl@VCOPOSVideoCapture@@@ATL@@UAGJKJPAUtagDVTARGETDEVICE@@PAUHDC__@@PAUtagExtentInfo@@PAUtagSIZE@@@Z 100143a0 f i VideoCapture.obj
 0001:000134c0       ?GetObjectCLSID@?$CComCoClass@VCOPOSVideoCapture@@$1?CLSID_OPOSVideoCapture@@3U_GUID@@B@ATL@@SGABU_GUID@@XZ 100144c0 f i VideoCapture.obj
 0001:000134d0       ?GetPages@?$ISpecifyPropertyPagesImpl@VCOPOSVideoCapture@@@ATL@@UAGJPAUtagCAUUID@@@Z 100144d0 f i VideoCapture.obj
 0001:00013540       ?GetPagesHelper@?$ISpecifyPropertyPagesImpl@VCOPOSVideoCapture@@@ATL@@IAEJPAUtagCAUUID@@PBUATL_PROPMAP_ENTRY@2@@Z 10014540 f i VideoCapture.obj
 0001:00013740       ?GetProperty@?$CComPtr@UIDispatch@@@ATL@@QAEJJPAUtagVARIANT@@@Z 10014740 f i VideoCapture.obj
 0001:00013780       ?GetProperty@?$CComPtr@UIDispatch@@@ATL@@SAJPAUIDispatch@@JPAUtagVARIANT@@@Z 10014780 f i VideoCapture.obj
 0001:000138e0       ?GetPropertyMap@COPOSVideoCapture@@SAPBUATL_PROPMAP_ENTRY@ATL@@XZ 100148e0 f i VideoCapture.obj
 0001:000138f0       ?GetRect@?$IViewObjectExImpl@VCOPOSVideoCapture@@@ATL@@UAGJKPAU_RECTL@@@Z 100148f0 f i VideoCapture.obj
 0001:00013960       ?GetSize@?$CSimpleMap@PA_WPA_WVCExpansionVectorEqualHelper@ATL@@@ATL@@QBEHXZ 10014960 f i VideoCapture.obj
 0001:00013980       ?GetSize@CComDynamicUnkArray@ATL@@QBEHXZ 10014980 f i VideoCapture.obj
 0001:000139a0       ?GetSizeMax@?$IPersistStreamInitImpl@VCOPOSVideoCapture@@@ATL@@UAGJPAT_ULARGE_INTEGER@@@Z 100149a0 f i VideoCapture.obj
 0001:00013f10       ?GetSizeMax@CComVariant@ATL@@QBEJPAT_ULARGE_INTEGER@@@Z 10014f10 f i VideoCapture.obj
 0001:00014290       ?GetStreamSize@CComBSTR@ATL@@SAKPA_W@Z 10015290 f i VideoCapture.obj
 0001:000142e0       ?GetTI@CComTypeInfoHolder@ATL@@QAEJK@Z 100152e0 f i VideoCapture.obj
 0001:00014af0       ?GetTI@CComTypeInfoHolder@ATL@@QAEJKPAPAUITypeInfo@@@Z 10015af0 f i VideoCapture.obj
 0001:00014bb0       ?GetTypeInfo@?$IDispatchImpl@UIOPOSVideoCapture@@$1?IID_IOPOSVideoCapture@@3U_GUID@@B$1?LIBID_OposVideoCapture_CCO@@3U3@B$00$0A@VCComTypeInfoHolder@ATL@@@ATL@@UAGJIKPAPAUITypeInfo@@@Z 10015bb0 f i VideoCapture.obj
 0001:00014be0       ?GetTypeInfo@CComTypeInfoHolder@ATL@@QAEJIKPAPAUITypeInfo@@@Z 10015be0 f i VideoCapture.obj
 0001:00014c20       ?GetTypeInfoCount@?$IDispatchImpl@UIOPOSVideoCapture@@$1?IID_IOPOSVideoCapture@@3U_GUID@@B$1?LIBID_OposVideoCapture_CCO@@3U3@B$00$0A@VCComTypeInfoHolder@ATL@@@ATL@@UAGJPAI@Z 10015c20 f i VideoCapture.obj
 0001:00014c40       ?GetUnknown@CComDynamicUnkArray@ATL@@QAGPAUIUnknown@@K@Z 10015c40 f i VideoCapture.obj
 0001:00014cb0       ?GetUnknown@COPOSVideoCapture@@QAEPAUIUnknown@@XZ 10015cb0 f i VideoCapture.obj
 0001:00014ce0       ?GetUserClassID@?$IOleObjectImpl@VCOPOSVideoCapture@@@ATL@@UAGJPAU_GUID@@@Z 10015ce0 f i VideoCapture.obj
 0001:00014d90       ?GetUserType@?$IOleObjectImpl@VCOPOSVideoCapture@@@ATL@@UAGJKPAPA_W@Z 10015d90 f i VideoCapture.obj
 0001:00014e00       ?GetValueAt@?$CSimpleMap@PA_WPA_WVCExpansionVectorEqualHelper@ATL@@@ATL@@QBEAAPA_WH@Z 10015e00 f i VideoCapture.obj
 0001:00014e80       ?GetViewStatus@?$IViewObjectExImpl@VCOPOSVideoCapture@@@ATL@@UAGJPAK@Z 10015e80 f i VideoCapture.obj
 0001:00014f40       ?GetWNDPROC@CWndProcThunk@ATL@@QAEP6GJPAUHWND__@@IIJ@ZXZ 10015f40 f i VideoCapture.obj
 0001:00014f70       ?GetWindow@?$IOleInPlaceActiveObjectImpl@VCOPOSVideoCapture@@@ATL@@UAGJPAPAUHWND__@@@Z 10015f70 f i VideoCapture.obj
 0001:00015040       ?GetWindow@?$IOleInPlaceObjectWindowlessImpl@VCOPOSVideoCapture@@@ATL@@UAGJPAPAUHWND__@@@Z 10016040 f i VideoCapture.obj
 0001:00015110       ?GetWindowLongPtrW@@YAJPAUHWND__@@H@Z 10016110 f i VideoCapture.obj
 0001:00015140       ?GetWindowProc@?$CWindowImplBaseT@VCWindow@ATL@@V?$CWinTraits@$0FGAAAAAA@$0A@@2@@ATL@@UAEP6GJPAUHWND__@@IIJ@ZXZ 10016140 f i VideoCapture.obj
 0001:00015150       ?GetWndCaption@?$CWindowImpl@VCOPOSVideoCapture@@VCWindow@ATL@@V?$CWinTraits@$0FGAAAAAA@$0A@@3@@ATL@@SAPB_WXZ 10016150 f i VideoCapture.obj
 0001:00015160       ?GetWndClassInfo@?$CWindowImpl@VCOPOSVideoCapture@@VCWindow@ATL@@V?$CWinTraits@$0FGAAAAAA@$0A@@3@@ATL@@SAAAU_ATL_WNDCLASSINFOW@2@XZ 10016160 f i VideoCapture.obj
 0001:00015170       ?GetWndClassName@CWindow@ATL@@SAPB_WXZ 10016170 f i VideoCapture.obj
 0001:00015180       ?GetWndExStyle@?$CWinTraits@$0FGAAAAAA@$0A@@ATL@@SAKK@Z 10016180 f i VideoCapture.obj
 0001:000151a0       ?GetWndExStyle@?$CWindowImplBaseT@VCWindow@ATL@@V?$CWinTraits@$0FGAAAAAA@$0A@@2@@ATL@@SAKK@Z 100161a0 f i VideoCapture.obj
 0001:000151c0       ?GetWndStyle@?$CWinTraits@$0FGAAAAAA@$0A@@ATL@@SAKK@Z 100161c0 f i VideoCapture.obj
 0001:000151e0       ?GetWndStyle@?$CWindowImplBaseT@VCWindow@ATL@@V?$CWinTraits@$0FGAAAAAA@$0A@@2@@ATL@@SAKK@Z 100161e0 f i VideoCapture.obj
 0001:00015200       ?GetZoomInfo@CComControlBase@ATL@@QAEXAAUATL_DRAWINFO@@@Z 10016200 f i VideoCapture.obj
 0001:00015370       ?HKeyFromString@CRegParser@ATL@@KAPAUHKEY__@@PA_W@Z 10016370 f i VideoCapture.obj
 0001:000153e0       ?HandsOffStorage@?$IPersistStorageImpl@VCOPOSVideoCapture@@@ATL@@UAGJXZ 100163e0 f i VideoCapture.obj
 0001:00015440       ?HasSubKeys@CRegParser@ATL@@IAEHPAUHKEY__@@@Z 10016440 f i VideoCapture.obj
 0001:00015550       ?IDataObject_GetData@CComControlBase@ATL@@QAEJPAUtagFORMATETC@@PAUtagSTGMEDIUM@@@Z 10016550 f i VideoCapture.obj
 0001:00015970       ?IOleInPlaceObject_InPlaceDeactivate@CComControlBase@ATL@@QAEJXZ 10016970 f i VideoCapture.obj
 0001:00015b70       ?IOleInPlaceObject_SetObjectRects@CComControlBase@ATL@@QAEJPBUtagRECT@@0@Z 10016b70 f i VideoCapture.obj
 0001:00015d30       ?IOleInPlaceObject_UIDeactivate@CComControlBase@ATL@@QAEJXZ 10016d30 f i VideoCapture.obj
 0001:00015fa0       ?IOleObject_Advise@CComControlBase@ATL@@QAEJPAUIAdviseSink@@PAK@Z 10016fa0 f i VideoCapture.obj
 0001:00016050       ?IOleObject_Close@CComControlBase@ATL@@QAEJK@Z 10017050 f i VideoCapture.obj
 0001:00016300       ?IOleObject_GetClientSite@CComControlBase@ATL@@QAEJPAPAUIOleClientSite@@@Z 10017300 f i VideoCapture.obj
 0001:000163a0       ?IOleObject_SetClientSite@CComControlBase@ATL@@QAEJPAUIOleClientSite@@@Z 100173a0 f i VideoCapture.obj
 0001:00016470       ?IOleObject_SetExtent@CComControlBase@ATL@@QAEJKPAUtagSIZE@@@Z 10017470 f i VideoCapture.obj
 0001:000165b0       ?IPSI_GetIPersistStreamInit@?$IPersistStorageImpl@VCOPOSVideoCapture@@@ATL@@AAEPAUIPersistStreamInit@@XZ 100175b0 f i VideoCapture.obj
 0001:00016680       ?IPersistStreamInit_Load@?$IPersistStreamInitImpl@VCOPOSVideoCapture@@@ATL@@QAEJPAUIStream@@PBUATL_PROPMAP_ENTRY@2@@Z 10017680 f i VideoCapture.obj
 0001:00016700       ?IPersistStreamInit_Save@?$IPersistStreamInitImpl@VCOPOSVideoCapture@@@ATL@@QAEJPAUIStream@@HPBUATL_PROPMAP_ENTRY@2@@Z 10017700 f i VideoCapture.obj
 0001:00016790       ?IQuickActivate_QuickActivate@CComControlBase@ATL@@QAEJPAUtagQACONTAINER@@PAUtagQACONTROL@@@Z 10017790 f i VideoCapture.obj
 0001:00016de0       ?IViewObject_Draw@CComControlBase@ATL@@QAEJKJPAXPAUtagDVTARGETDEVICE@@PAUHDC__@@2PBU_RECTL@@3@Z 10017de0 f i VideoCapture.obj
 0001:00017080       ?InPlaceActivate@CComControlBase@ATL@@QAEJJPBUtagRECT@@@Z 10018080 f i VideoCapture.obj
 0001:00017a10       ?InPlaceDeactivate@?$IOleInPlaceObjectWindowlessImpl@VCOPOSVideoCapture@@@ATL@@UAGJXZ 10018a10 f i VideoCapture.obj
 0001:00017a90       ?Increment@CComMultiThreadModel@ATL@@SGKPAJ@Z 10018a90 f i VideoCapture.obj
 0001:00017ab0       ?Increment@CComSingleThreadModel@ATL@@SGKPAJ@Z 10018ab0 f i VideoCapture.obj
 0001:00017ad0       ?Init@?$CComEnumImpl@UIEnumConnectionPoints@@$1?_GUID_b196b285_bab4_101a_b69c_00aa00341d07@@3U__s_GUID@@BPAUIConnectionPoint@@V?$_CopyInterface@UIConnectionPoint@@@ATL@@@ATL@@QAEJPAPAUIConnectionPoint@@0PAUIUnknown@@W4CComEnumFlags@2@@Z 10018ad0 f i VideoCapture.obj
 0001:00017cb0       ?Init@?$CComEnumImpl@UIEnumConnections@@$1?_GUID_b196b287_bab4_101a_b69c_00aa00341d07@@3U__s_GUID@@BUtagCONNECTDATA@@V?$_Copy@UtagCONNECTDATA@@@ATL@@@ATL@@QAEJPAUtagCONNECTDATA@@0PAUIUnknown@@W4CComEnumFlags@2@@Z 10018cb0 f i VideoCapture.obj
 0001:00017e90       ?Init@CComFakeCriticalSection@ATL@@QAEJXZ 10018e90 f i VideoCapture.obj
 0001:00017ea0       ?Init@CComModule@ATL@@QAEJPAU_ATL_OBJMAP_ENTRY30@2@PAUHINSTANCE__@@PBU_GUID@@@Z 10018ea0 f i VideoCapture.obj
 0001:00017f90       ?Init@CComSafeDeleteCriticalSection@ATL@@QAEJXZ 10018f90 f i VideoCapture.obj
 0001:00018010       ?Init@CDynamicStdCallThunk2@ATL@@QAEHKPAX@Z 10019010 f i VideoCapture.obj
 0001:00018070       ?Init@CWndProcThunk@ATL@@QAEHP6GJPAUHWND__@@IIJ@ZPAX@Z 10019070 f i VideoCapture.obj
 0001:000180b0       ?InitFromData@?$IOleObjectImpl@VCOPOSVideoCapture@@@ATL@@UAGJPAUIDataObject@@HK@Z 100190b0 f i VideoCapture.obj
 0001:00018120       ?InitLibId@?$CAtlModuleT@VCComModule@ATL@@@ATL@@SAXXZ 10019120 f i VideoCapture.obj
 0001:00018130       ?InitNew@?$IPersistStorageImpl@VCOPOSVideoCapture@@@ATL@@UAGJPAUIStorage@@@Z 10019130 f i VideoCapture.obj
 0001:00018220       ?InitNew@?$IPersistStreamInitImpl@VCOPOSVideoCapture@@@ATL@@UAGJXZ 10019220 f i VideoCapture.obj
 0001:000182b0       ?InlineIsEqualUnknown@ATL@@YGHABU_GUID@@@Z 100192b0 f i VideoCapture.obj
 0001:00018320       ?InternalAddRef@?$CComObjectRootEx@VCComMultiThreadModel@ATL@@@ATL@@QAEKXZ 10019320 f i VideoCapture.obj
 0001:00018380       ?InternalAddRef@?$CComObjectRootEx@VCComSingleThreadModel@ATL@@@ATL@@QAEKXZ 10019380 f i VideoCapture.obj
 0001:000183e0       ?InternalFinalConstructAddRef@CComObjectRootBase@ATL@@QAEXXZ 100193e0 f i VideoCapture.obj
 0001:000183f0       ?InternalFinalConstructAddRef@COPOSVideoCapture@@QAEXXZ 100193f0 f i VideoCapture.obj
 0001:00018420       ?InternalFinalConstructRelease@CComObjectRootBase@ATL@@QAEXXZ 10019420 f i VideoCapture.obj
 0001:00018470       ?InternalFinalConstructRelease@COPOSVideoCapture@@QAEXXZ 10019470 f i VideoCapture.obj
 0001:000184a0       ?InternalGetSite@CComControlBase@ATL@@QAEJABU_GUID@@PAPAX@Z 100194a0 f i VideoCapture.obj
 0001:00018560       ?InternalQueryInterface@CComObjectRootBase@ATL@@SGJPAXPBU_ATL_INTMAP_ENTRY@2@ABU_GUID@@PAPAX@Z 10019560 f i VideoCapture.obj
 0001:00018620       ?InternalRelease@?$CComObjectRootEx@VCComMultiThreadModel@ATL@@@ATL@@QAEKXZ 10019620 f i VideoCapture.obj
 0001:00018690       ?InternalRelease@?$CComObjectRootEx@VCComSingleThreadModel@ATL@@@ATL@@QAEKXZ 10019690 f i VideoCapture.obj
 0001:00018700       ?InternalSetAtIndex@?$CSimpleArray@GV?$CSimpleArrayEqualHelper@G@ATL@@@ATL@@QAEXHABG@Z 10019700 f i VideoCapture.obj
 0001:00018770       ?InternalSetAtIndex@?$CSimpleMap@PA_WPA_WVCExpansionVectorEqualHelper@ATL@@@ATL@@QAEXHABQA_W0@Z 10019770 f i VideoCapture.obj
 0001:00018810       ?Invoke@?$IDispatchImpl@UIOPOSVideoCapture@@$1?IID_IOPOSVideoCapture@@3U_GUID@@B$1?LIBID_OposVideoCapture_CCO@@3U3@B$00$0A@VCComTypeInfoHolder@ATL@@@ATL@@UAGJJABU_GUID@@KGPAUtagDISPPARAMS@@PAUtagVARIANT@@PAUtagEXCEPINFO@@PAI@Z 10019810 f i VideoCapture.obj
 0001:00018850       ?Invoke@CComTypeInfoHolder@ATL@@QAEJPAUIDispatch@@JABU_GUID@@KGPAUtagDISPPARAMS@@PAUtagVARIANT@@PAUtagEXCEPINFO@@PAI@Z 10019850 f i VideoCapture.obj
 0001:000188e0       ?IsDirty@?$IPersistStorageImpl@VCOPOSVideoCapture@@@ATL@@UAGJXZ 100198e0 f i VideoCapture.obj
 0001:000189d0       ?IsDirty@?$IPersistStreamInitImpl@VCOPOSVideoCapture@@@ATL@@UAGJXZ 100199d0 f i VideoCapture.obj
 0001:00018a70       ?IsEqualKey@CExpansionVectorEqualHelper@ATL@@SA_NQA_W0@Z 10019a70 f i VideoCapture.obj
 0001:00018aa0       ?IsEqualObject@?$CComPtrBase@UIOleClientSite@@@ATL@@QAE_NPAUIUnknown@@@Z 10019aa0 f i VideoCapture.obj
 0001:00018bd0       ?IsEqualObject@?$CComPtrBase@UITypeInfo@@@ATL@@QAE_NPAUIUnknown@@@Z 10019bd0 f i VideoCapture.obj
 0001:00018d00       ?IsSpace@CRegParser@ATL@@IAEH_W@Z 10019d00 f i VideoCapture.obj
 0001:00018d60       ?IsUpToDate@?$IOleObjectImpl@VCOPOSVideoCapture@@@ATL@@UAGJXZ 10019d60 f i VideoCapture.obj
 0001:00018dc0       ?Length@CComBSTR@ATL@@QBEIXZ 10019dc0 f i VideoCapture.obj
 0001:00018e00       ?Load@?$IPersistStorageImpl@VCOPOSVideoCapture@@@ATL@@UAGJPAUIStorage@@@Z 10019e00 f i VideoCapture.obj
 0001:00018f60       ?Load@?$IPersistStreamInitImpl@VCOPOSVideoCapture@@@ATL@@UAGJPAUIStream@@@Z 10019f60 f i VideoCapture.obj
 0001:00018ff0       ?LoadCursorW@AtlModuleRegisterWndClassInfoParamW@ATL@@SAPAUHICON__@@PAUHINSTANCE__@@PB_W@Z 10019ff0 f i VideoCapture.obj
 0001:00019020       ?LoadNameCache@CComTypeInfoHolder@ATL@@QAEJPAUITypeInfo@@@Z 1001a020 f i VideoCapture.obj
 0001:000192b0       ?Lock@?$CComCritSecLock@VCComCriticalSection@ATL@@@ATL@@QAEJXZ 1001a2b0 f i VideoCapture.obj
 0001:00019360       ?Lock@?$CComObjectRootEx@VCComSingleThreadModel@ATL@@@ATL@@QAEXXZ 1001a360 f i VideoCapture.obj
 0001:00019370       ?Lock@CAtlModule@ATL@@UAEJXZ 1001a370 f i VideoCapture.obj
 0001:000193a0       ?Lock@CComCriticalSection@ATL@@QAEJXZ 1001a3a0 f i VideoCapture.obj
 0001:000193e0       ?Lock@CComFakeCriticalSection@ATL@@QAEJXZ 1001a3e0 f i VideoCapture.obj
 0001:000193f0       ?LockServer@CComClassFactory@ATL@@UAGJH@Z 1001a3f0 f i VideoCapture.obj
 0001:00019450       ?Lookup@?$CSimpleMap@PA_WPA_WVCExpansionVectorEqualHelper@ATL@@@ATL@@QBEPA_WABQA_W@Z 1001a450 f i VideoCapture.obj
 0001:000194a0       ?Next@?$CComEnumImpl@UIEnumConnectionPoints@@$1?_GUID_b196b285_bab4_101a_b69c_00aa00341d07@@3U__s_GUID@@BPAUIConnectionPoint@@V?$_CopyInterface@UIConnectionPoint@@@ATL@@@ATL@@UAGJKPAPAUIConnectionPoint@@PAK@Z 1001a4a0 f i VideoCapture.obj
 0001:00019610       ?Next@?$CComEnumImpl@UIEnumConnections@@$1?_GUID_b196b287_bab4_101a_b69c_00aa00341d07@@3U__s_GUID@@BUtagCONNECTDATA@@V?$_Copy@UtagCONNECTDATA@@@ATL@@@ATL@@UAGJKPAUtagCONNECTDATA@@PAK@Z 1001a610 f i VideoCapture.obj
 0001:00019780       ?NextToken@CRegParser@ATL@@IAEJPA_W@Z 1001a780 f i VideoCapture.obj
 0001:00019a20       ?OLE2CT_EX@@YAPB_WPB_WI@Z  1001aa20 f i VideoCapture.obj
 0001:00019a30       ?OLE2CT_EX_DEF@@YAPB_WPB_W@Z 1001aa30 f i VideoCapture.obj
 0001:00019a40       ?OLE2T_EX@@YAPA_WPA_WI@Z   1001aa40 f i VideoCapture.obj
 0001:00019a50       ?OnAmbientPropertyChange@?$IOleControlImpl@VCOPOSVideoCapture@@@ATL@@UAGJJ@Z 1001aa50 f i VideoCapture.obj
 0001:00019ae0       ?OnDocWindowActivate@?$IOleInPlaceActiveObjectImpl@VCOPOSVideoCapture@@@ATL@@UAGJH@Z 1001aae0 f i VideoCapture.obj
 0001:00019b70       ?OnDrawAdvanced@CComControlBase@ATL@@UAEJAAUATL_DRAWINFO@@@Z 1001ab70 f i VideoCapture.obj
 0001:00019d90       ?OnFinalMessage@?$CWindowImplBaseT@VCWindow@ATL@@V?$CWinTraits@$0FGAAAAAA@$0A@@2@@ATL@@UAEXPAUHWND__@@@Z 1001ad90 f i VideoCapture.obj
 0001:00019da0       ?OnFrameWindowActivate@?$IOleInPlaceActiveObjectImpl@VCOPOSVideoCapture@@@ATL@@UAGJH@Z 1001ada0 f i VideoCapture.obj
 0001:00019e00       ?OnKillFocus@CComControlBase@ATL@@QAEJIIJAAH@Z 1001ae00 f i VideoCapture.obj
 0001:00019f00       ?OnMnemonic@?$IOleControlImpl@VCOPOSVideoCapture@@@ATL@@UAGJPAUtagMSG@@@Z 1001af00 f i VideoCapture.obj
 0001:00019f70       ?OnMouseActivate@CComControlBase@ATL@@QAEJIIJAAH@Z 1001af70 f i VideoCapture.obj
 0001:0001a0c0       ?OnPaint@CComControlBase@ATL@@QAEJIIJAAH@Z 1001b0c0 f i VideoCapture.obj
 0001:0001a240       ?OnPostVerbDiscardUndo@?$IOleObjectImpl@VCOPOSVideoCapture@@@ATL@@QAEJXZ 1001b240 f i VideoCapture.obj
 0001:0001a250       ?OnPostVerbHide@?$IOleObjectImpl@VCOPOSVideoCapture@@@ATL@@QAEJXZ 1001b250 f i VideoCapture.obj
 0001:0001a260       ?OnPostVerbInPlaceActivate@?$IOleObjectImpl@VCOPOSVideoCapture@@@ATL@@QAEJXZ 1001b260 f i VideoCapture.obj
 0001:0001a270       ?OnPostVerbOpen@?$IOleObjectImpl@VCOPOSVideoCapture@@@ATL@@QAEJXZ 1001b270 f i VideoCapture.obj
 0001:0001a280       ?OnPostVerbShow@?$IOleObjectImpl@VCOPOSVideoCapture@@@ATL@@QAEJXZ 1001b280 f i VideoCapture.obj
 0001:0001a290       ?OnPostVerbUIActivate@?$IOleObjectImpl@VCOPOSVideoCapture@@@ATL@@QAEJXZ 1001b290 f i VideoCapture.obj
 0001:0001a2a0       ?OnPreVerbDiscardUndo@?$IOleObjectImpl@VCOPOSVideoCapture@@@ATL@@QAEJXZ 1001b2a0 f i VideoCapture.obj
 0001:0001a2b0       ?OnPreVerbHide@?$IOleObjectImpl@VCOPOSVideoCapture@@@ATL@@QAEJXZ 1001b2b0 f i VideoCapture.obj
 0001:0001a2c0       ?OnPreVerbInPlaceActivate@?$IOleObjectImpl@VCOPOSVideoCapture@@@ATL@@QAEJXZ 1001b2c0 f i VideoCapture.obj
 0001:0001a2d0       ?OnPreVerbOpen@?$IOleObjectImpl@VCOPOSVideoCapture@@@ATL@@QAEJXZ 1001b2d0 f i VideoCapture.obj
 0001:0001a2e0       ?OnPreVerbShow@?$IOleObjectImpl@VCOPOSVideoCapture@@@ATL@@QAEJXZ 1001b2e0 f i VideoCapture.obj
 0001:0001a2f0       ?OnPreVerbUIActivate@?$IOleObjectImpl@VCOPOSVideoCapture@@@ATL@@QAEJXZ 1001b2f0 f i VideoCapture.obj
 0001:0001a300       ?OnSetFocus@CComControlBase@ATL@@QAEJIIJAAH@Z 1001b300 f i VideoCapture.obj
 0001:0001a490       ?OnWindowMessage@?$IOleInPlaceObjectWindowlessImpl@VCOPOSVideoCapture@@@ATL@@UAGJIIJPAJ@Z 1001b490 f i VideoCapture.obj
 0001:0001a5f0       ?Open@CRegKey@ATL@@QAEJPAUHKEY__@@PB_WK@Z 1001b5f0 f i VideoCapture.obj
 0001:0001a740       ?OuterAddRef@CComObjectRootBase@ATL@@QAEKXZ 1001b740 f i VideoCapture.obj
 0001:0001a780       ?OuterQueryInterface@CComObjectRootBase@ATL@@QAEJABU_GUID@@PAPAX@Z 1001b780 f i VideoCapture.obj
 0001:0001a7d0       ?OuterRelease@CComObjectRootBase@ATL@@QAEKXZ 1001b7d0 f i VideoCapture.obj
 0001:0001a810       ?PreProcessBuffer@CRegParser@ATL@@QAEJPA_WPAPA_W@Z 1001b810 f i VideoCapture.obj
 0001:0001ad50       ?PreTranslateAccelerator@CComControlBase@ATL@@QAEHPAUtagMSG@@AAJ@Z 1001bd50 f i VideoCapture.obj
 0001:0001ad60       ?ProcessWindowMessage@?$CComControl@VCOPOSVideoCapture@@V?$CWindowImpl@VCOPOSVideoCapture@@VCWindow@ATL@@V?$CWinTraits@$0FGAAAAAA@$0A@@3@@ATL@@@ATL@@UAEHPAUHWND__@@IIJAAJK@Z 1001bd60 f i VideoCapture.obj
 0001:0001af30       ?ProcessWindowMessage@COPOSVideoCapture@@UAEHPAUHWND__@@IIJAAJK@Z 1001bf30 f i VideoCapture.obj
 0001:0001b030       ?PutProperty@?$CComPtr@UIDispatch@@@ATL@@QAEJJPAUtagVARIANT@@@Z 1001c030 f i VideoCapture.obj
 0001:0001b070       ?PutProperty@?$CComPtr@UIDispatch@@@ATL@@SAJPAUIDispatch@@JPAUtagVARIANT@@@Z 1001c070 f i VideoCapture.obj
 0001:0001b260       ?QueryGetData@?$IDataObjectImpl@VCOPOSVideoCapture@@@ATL@@UAGJPAUtagFORMATETC@@@Z 1001c260 f i VideoCapture.obj
 0001:0001b2d0       ?QueryHitPoint@?$IViewObjectExImpl@VCOPOSVideoCapture@@@ATL@@UAGJKPBUtagRECT@@UtagPOINT@@JPAK@Z 1001c2d0 f i VideoCapture.obj
 0001:0001b3e0       ?QueryHitRect@?$IViewObjectExImpl@VCOPOSVideoCapture@@@ATL@@UAGJKPBUtagRECT@@0JPAK@Z 1001c3e0 f i VideoCapture.obj
 0001:0001b530       ?QueryInterface@?$CComAggObject@VCOPOSVideoCapture@@@ATL@@UAGJABU_GUID@@PAPAX@Z 1001c530 f i VideoCapture.obj
 0001:0001b5e0       ?QueryInterface@?$CComContainedObject@VCOPOSVideoCapture@@@ATL@@UAGJABU_GUID@@PAPAX@Z 1001c5e0 f i VideoCapture.obj
 0001:0001b604       ?QueryInterface@?$CComContainedObject@VCOPOSVideoCapture@@@ATL@@WHA@AGJABU_GUID@@PAPAX@Z 1001c604 f i VideoCapture.obj
 0001:0001b60e       ?QueryInterface@?$CComContainedObject@VCOPOSVideoCapture@@@ATL@@WHE@AGJABU_GUID@@PAPAX@Z 1001c60e f i VideoCapture.obj
 0001:0001b618       ?QueryInterface@?$CComContainedObject@VCOPOSVideoCapture@@@ATL@@WHI@AGJABU_GUID@@PAPAX@Z 1001c618 f i VideoCapture.obj
 0001:0001b622       ?QueryInterface@?$CComContainedObject@VCOPOSVideoCapture@@@ATL@@WHM@AGJABU_GUID@@PAPAX@Z 1001c622 f i VideoCapture.obj
 0001:0001b62c       ?QueryInterface@?$CComContainedObject@VCOPOSVideoCapture@@@ATL@@WIA@AGJABU_GUID@@PAPAX@Z 1001c62c f i VideoCapture.obj
 0001:0001b639       ?QueryInterface@?$CComContainedObject@VCOPOSVideoCapture@@@ATL@@WIE@AGJABU_GUID@@PAPAX@Z 1001c639 f i VideoCapture.obj
 0001:0001b646       ?QueryInterface@?$CComContainedObject@VCOPOSVideoCapture@@@ATL@@WII@AGJABU_GUID@@PAPAX@Z 1001c646 f i VideoCapture.obj
 0001:0001b653       ?QueryInterface@?$CComContainedObject@VCOPOSVideoCapture@@@ATL@@WIM@AGJABU_GUID@@PAPAX@Z 1001c653 f i VideoCapture.obj
 0001:0001b660       ?QueryInterface@?$CComContainedObject@VCOPOSVideoCapture@@@ATL@@WJA@AGJABU_GUID@@PAPAX@Z 1001c660 f i VideoCapture.obj
 0001:0001b66d       ?QueryInterface@?$CComContainedObject@VCOPOSVideoCapture@@@ATL@@WJE@AGJABU_GUID@@PAPAX@Z 1001c66d f i VideoCapture.obj
 0001:0001b67a       ?QueryInterface@?$CComContainedObject@VCOPOSVideoCapture@@@ATL@@WJI@AGJABU_GUID@@PAPAX@Z 1001c67a f i VideoCapture.obj
 0001:0001b687       ?QueryInterface@?$CComContainedObject@VCOPOSVideoCapture@@@ATL@@WJM@AGJABU_GUID@@PAPAX@Z 1001c687 f i VideoCapture.obj
 0001:0001b694       ?QueryInterface@?$CComContainedObject@VCOPOSVideoCapture@@@ATL@@WKA@AGJABU_GUID@@PAPAX@Z 1001c694 f i VideoCapture.obj
 0001:0001b6b0       ?QueryInterface@?$CComObject@V?$CComEnum@UIEnumConnectionPoints@@$1?_GUID_b196b285_bab4_101a_b69c_00aa00341d07@@3U__s_GUID@@BPAUIConnectionPoint@@V?$_CopyInterface@UIConnectionPoint@@@ATL@@VCComSingleThreadModel@6@@ATL@@@ATL@@UAGJABU_GUID@@PAPAX@Z 1001c6b0 f i VideoCapture.obj
 0001:0001b6d0       ?QueryInterface@?$CComObject@V?$CComEnum@UIEnumConnections@@$1?_GUID_b196b287_bab4_101a_b69c_00aa00341d07@@3U__s_GUID@@BUtagCONNECTDATA@@V?$_Copy@UtagCONNECTDATA@@@ATL@@VCComSingleThreadModel@6@@ATL@@@ATL@@UAGJABU_GUID@@PAPAX@Z 1001c6d0 f i VideoCapture.obj
 0001:0001b6f0       ?QueryInterface@?$CComObject@VCOPOSVideoCapture@@@ATL@@UAGJABU_GUID@@PAPAX@Z 1001c6f0 f i VideoCapture.obj
 0001:0001b70e       ?QueryInterface@?$CComObject@VCOPOSVideoCapture@@@ATL@@WHA@AGJABU_GUID@@PAPAX@Z 1001c70e f i VideoCapture.obj
 0001:0001b718       ?QueryInterface@?$CComObject@VCOPOSVideoCapture@@@ATL@@WHE@AGJABU_GUID@@PAPAX@Z 1001c718 f i VideoCapture.obj
 0001:0001b722       ?QueryInterface@?$CComObject@VCOPOSVideoCapture@@@ATL@@WHI@AGJABU_GUID@@PAPAX@Z 1001c722 f i VideoCapture.obj
 0001:0001b72c       ?QueryInterface@?$CComObject@VCOPOSVideoCapture@@@ATL@@WHM@AGJABU_GUID@@PAPAX@Z 1001c72c f i VideoCapture.obj
 0001:0001b736       ?QueryInterface@?$CComObject@VCOPOSVideoCapture@@@ATL@@WIA@AGJABU_GUID@@PAPAX@Z 1001c736 f i VideoCapture.obj
 0001:0001b743       ?QueryInterface@?$CComObject@VCOPOSVideoCapture@@@ATL@@WIE@AGJABU_GUID@@PAPAX@Z 1001c743 f i VideoCapture.obj
 0001:0001b750       ?QueryInterface@?$CComObject@VCOPOSVideoCapture@@@ATL@@WII@AGJABU_GUID@@PAPAX@Z 1001c750 f i VideoCapture.obj
 0001:0001b75d       ?QueryInterface@?$CComObject@VCOPOSVideoCapture@@@ATL@@WIM@AGJABU_GUID@@PAPAX@Z 1001c75d f i VideoCapture.obj
 0001:0001b76a       ?QueryInterface@?$CComObject@VCOPOSVideoCapture@@@ATL@@WJA@AGJABU_GUID@@PAPAX@Z 1001c76a f i VideoCapture.obj
 0001:0001b777       ?QueryInterface@?$CComObject@VCOPOSVideoCapture@@@ATL@@WJE@AGJABU_GUID@@PAPAX@Z 1001c777 f i VideoCapture.obj
 0001:0001b784       ?QueryInterface@?$CComObject@VCOPOSVideoCapture@@@ATL@@WJI@AGJABU_GUID@@PAPAX@Z 1001c784 f i VideoCapture.obj
 0001:0001b791       ?QueryInterface@?$CComObject@VCOPOSVideoCapture@@@ATL@@WJM@AGJABU_GUID@@PAPAX@Z 1001c791 f i VideoCapture.obj
 0001:0001b79e       ?QueryInterface@?$CComObject@VCOPOSVideoCapture@@@ATL@@WKA@AGJABU_GUID@@PAPAX@Z 1001c79e f i VideoCapture.obj
 0001:0001b7b0       ?QueryInterface@?$CComObjectCached@VCComClassFactory@ATL@@@ATL@@UAGJABU_GUID@@PAPAX@Z 1001c7b0 f i VideoCapture.obj
 0001:0001b7d0       ?QueryInterface@CRegObject@ATL@@UAGJABU_GUID@@PAPAX@Z 1001c7d0 f i VideoCapture.obj
 0001:0001b820       ?QuickActivate@?$IQuickActivateImpl@VCOPOSVideoCapture@@@ATL@@UAGJPAUtagQACONTAINER@@PAUtagQACONTROL@@@Z 1001c820 f i VideoCapture.obj
 0001:0001b8b0       ?ReactivateAndUndo@?$IOleInPlaceObjectWindowlessImpl@VCOPOSVideoCapture@@@ATL@@UAGJXZ 1001c8b0 f i VideoCapture.obj
 0001:0001b920       ?ReadFromStream@CComBSTR@ATL@@QAEJPAUIStream@@@Z 1001c920 f i VideoCapture.obj
 0001:0001bd20       ?ReadFromStream@CComVariant@ATL@@QAEJPAUIStream@@GTClassesAllowedInStream@2@K@Z 1001cd20 f i VideoCapture.obj
 0001:0001c0a0       ?RecurseDeleteKey@CRegKey@ATL@@QAEJPB_W@Z 1001d0a0 f i VideoCapture.obj
 0001:0001c280       ?RegCreateKeyExW@CAtlTransactionManager@ATL@@QAEJPAUHKEY__@@PB_WKPA_WKKQAU_SECURITY_ATTRIBUTES@@PAPAU3@PAK@Z 1001d280 f i VideoCapture.obj
 0001:0001c3b0       ?RegDeleteKeyW@CAtlTransactionManager@ATL@@QAEJPAUHKEY__@@PB_W@Z 1001d3b0 f i VideoCapture.obj
 0001:0001c4b0       ?RegOpenKeyExW@CAtlTransactionManager@ATL@@QAEJPAUHKEY__@@PB_WKKPAPAU3@@Z 1001d4b0 f i VideoCapture.obj
 0001:0001c5c0       ?Register@_ATL_WNDCLASSINFOW@ATL@@QAEGPAP6GJPAUHWND__@@IIJ@Z@Z 1001d5c0 f i VideoCapture.obj
 0001:0001c600       ?RegisterBuffer@CRegParser@ATL@@QAEJPA_WH@Z 1001d600 f i VideoCapture.obj
 0001:0001c930       ?RegisterClassExW@AtlModuleRegisterWndClassInfoParamW@ATL@@SAGPAU_ATL_WIN_MODULE70@2@PBUtagWNDCLASSEXW@@@Z 1001d930 f i VideoCapture.obj
 0001:0001c950       ?RegisterFromResource@CRegObject@ATL@@IAEJPB_W00H@Z 1001d950 f i VideoCapture.obj
 0001:0001cce0       ?RegisterServer@?$CAtlModuleT@VCComModule@ATL@@@ATL@@QAEJHPBU_GUID@@@Z 1001dce0 f i VideoCapture.obj
 0001:0001cd60       ?RegisterServer@CAtlComModule@ATL@@QAEJHPBU_GUID@@@Z 1001dd60 f i VideoCapture.obj
 0001:0001cd90       ?RegisterServer@CComModule@ATL@@QAEJHPBU_GUID@@@Z 1001dd90 f i VideoCapture.obj
 0001:0001ce70       ?RegisterSubkeys@CRegParser@ATL@@IAEJPA_WPAUHKEY__@@HH@Z 1001de70 f i VideoCapture.obj
 0001:0001d990       ?Release@?$CComAggObject@VCOPOSVideoCapture@@@ATL@@UAGKXZ 1001e990 f i VideoCapture.obj
 0001:0001da50       ?Release@?$CComContainedObject@VCOPOSVideoCapture@@@ATL@@UAGKXZ 1001ea50 f i VideoCapture.obj
 0001:0001da6c       ?Release@?$CComContainedObject@VCOPOSVideoCapture@@@ATL@@WHA@AGKXZ 1001ea6c f i VideoCapture.obj
 0001:0001da76       ?Release@?$CComContainedObject@VCOPOSVideoCapture@@@ATL@@WHE@AGKXZ 1001ea76 f i VideoCapture.obj
 0001:0001da80       ?Release@?$CComContainedObject@VCOPOSVideoCapture@@@ATL@@WHI@AGKXZ 1001ea80 f i VideoCapture.obj
 0001:0001da8a       ?Release@?$CComContainedObject@VCOPOSVideoCapture@@@ATL@@WHM@AGKXZ 1001ea8a f i VideoCapture.obj
 0001:0001da94       ?Release@?$CComContainedObject@VCOPOSVideoCapture@@@ATL@@WIA@AGKXZ 1001ea94 f i VideoCapture.obj
 0001:0001daa1       ?Release@?$CComContainedObject@VCOPOSVideoCapture@@@ATL@@WIE@AGKXZ 1001eaa1 f i VideoCapture.obj
 0001:0001daae       ?Release@?$CComContainedObject@VCOPOSVideoCapture@@@ATL@@WII@AGKXZ 1001eaae f i VideoCapture.obj
 0001:0001dabb       ?Release@?$CComContainedObject@VCOPOSVideoCapture@@@ATL@@WIM@AGKXZ 1001eabb f i VideoCapture.obj
 0001:0001dac8       ?Release@?$CComContainedObject@VCOPOSVideoCapture@@@ATL@@WJA@AGKXZ 1001eac8 f i VideoCapture.obj
 0001:0001dad5       ?Release@?$CComContainedObject@VCOPOSVideoCapture@@@ATL@@WJE@AGKXZ 1001ead5 f i VideoCapture.obj
 0001:0001dae2       ?Release@?$CComContainedObject@VCOPOSVideoCapture@@@ATL@@WJI@AGKXZ 1001eae2 f i VideoCapture.obj
 0001:0001daef       ?Release@?$CComContainedObject@VCOPOSVideoCapture@@@ATL@@WJM@AGKXZ 1001eaef f i VideoCapture.obj
 0001:0001dafc       ?Release@?$CComContainedObject@VCOPOSVideoCapture@@@ATL@@WKA@AGKXZ 1001eafc f i VideoCapture.obj
 0001:0001db09       ?Release@?$CComContainedObject@VCOPOSVideoCapture@@@ATL@@WKI@AGKXZ 1001eb09 f i VideoCapture.obj
 0001:0001db16       ?Release@?$CComContainedObject@VCOPOSVideoCapture@@@ATL@@WLE@AGKXZ 1001eb16 f i VideoCapture.obj
 0001:0001db30       ?Release@?$CComObject@V?$CComEnum@UIEnumConnectionPoints@@$1?_GUID_b196b285_bab4_101a_b69c_00aa00341d07@@3U__s_GUID@@BPAUIConnectionPoint@@V?$_CopyInterface@UIConnectionPoint@@@ATL@@VCComSingleThreadModel@6@@ATL@@@ATL@@UAGKXZ 1001eb30 f i VideoCapture.obj
 0001:0001dbf0       ?Release@?$CComObject@V?$CComEnum@UIEnumConnections@@$1?_GUID_b196b287_bab4_101a_b69c_00aa00341d07@@3U__s_GUID@@BUtagCONNECTDATA@@V?$_Copy@UtagCONNECTDATA@@@ATL@@VCComSingleThreadModel@6@@ATL@@@ATL@@UAGKXZ 1001ebf0 f i VideoCapture.obj
 0001:0001dcb0       ?Release@?$CComObject@VCOPOSVideoCapture@@@ATL@@UAGKXZ 1001ecb0 f i VideoCapture.obj
 0001:0001dd69       ?Release@?$CComObject@VCOPOSVideoCapture@@@ATL@@WHA@AGKXZ 1001ed69 f i VideoCapture.obj
 0001:0001dd73       ?Release@?$CComObject@VCOPOSVideoCapture@@@ATL@@WHE@AGKXZ 1001ed73 f i VideoCapture.obj
 0001:0001dd7d       ?Release@?$CComObject@VCOPOSVideoCapture@@@ATL@@WHI@AGKXZ 1001ed7d f i VideoCapture.obj
 0001:0001dd87       ?Release@?$CComObject@VCOPOSVideoCapture@@@ATL@@WHM@AGKXZ 1001ed87 f i VideoCapture.obj
 0001:0001dd91       ?Release@?$CComObject@VCOPOSVideoCapture@@@ATL@@WIA@AGKXZ 1001ed91 f i VideoCapture.obj
 0001:0001dd9e       ?Release@?$CComObject@VCOPOSVideoCapture@@@ATL@@WIE@AGKXZ 1001ed9e f i VideoCapture.obj
 0001:0001ddab       ?Release@?$CComObject@VCOPOSVideoCapture@@@ATL@@WII@AGKXZ 1001edab f i VideoCapture.obj
 0001:0001ddb8       ?Release@?$CComObject@VCOPOSVideoCapture@@@ATL@@WIM@AGKXZ 1001edb8 f i VideoCapture.obj
 0001:0001ddc5       ?Release@?$CComObject@VCOPOSVideoCapture@@@ATL@@WJA@AGKXZ 1001edc5 f i VideoCapture.obj
 0001:0001ddd2       ?Release@?$CComObject@VCOPOSVideoCapture@@@ATL@@WJE@AGKXZ 1001edd2 f i VideoCapture.obj
 0001:0001dddf       ?Release@?$CComObject@VCOPOSVideoCapture@@@ATL@@WJI@AGKXZ 1001eddf f i VideoCapture.obj
 0001:0001ddec       ?Release@?$CComObject@VCOPOSVideoCapture@@@ATL@@WJM@AGKXZ 1001edec f i VideoCapture.obj
 0001:0001ddf9       ?Release@?$CComObject@VCOPOSVideoCapture@@@ATL@@WKA@AGKXZ 1001edf9 f i VideoCapture.obj
 0001:0001de06       ?Release@?$CComObject@VCOPOSVideoCapture@@@ATL@@WKI@AGKXZ 1001ee06 f i VideoCapture.obj
 0001:0001de13       ?Release@?$CComObject@VCOPOSVideoCapture@@@ATL@@WLE@AGKXZ 1001ee13 f i VideoCapture.obj
 0001:0001de20       ?Release@?$CComObjectCached@VCComClassFactory@ATL@@@ATL@@UAGKXZ 1001ee20 f i VideoCapture.obj
 0001:0001dec0       ?Release@?$CComPtrBase@UIAdviseSink@@@ATL@@QAEXXZ 1001eec0 f i VideoCapture.obj
 0001:0001df20       ?Release@?$CComPtrBase@UIDispatch@@@ATL@@QAEXXZ 1001ef20 f i VideoCapture.obj
 0001:0001df80       ?Release@?$CComPtrBase@UIOleInPlaceSiteWindowless@@@ATL@@QAEXXZ 1001ef80 f i VideoCapture.obj
 0001:0001dfe0       ?Release@CRegObject@ATL@@UAGKXZ 1001efe0 f i VideoCapture.obj
 0001:0001e020       ?Remove@CComDynamicUnkArray@ATL@@QAEHK@Z 1001f020 f i VideoCapture.obj
 0001:0001e0d0       ?RemoveAll@?$CSimpleMap@PA_WPA_WVCExpansionVectorEqualHelper@ATL@@@ATL@@QAEXXZ 1001f0d0 f i VideoCapture.obj
 0001:0001e160       ?Reset@?$CComEnumImpl@UIEnumConnectionPoints@@$1?_GUID_b196b285_bab4_101a_b69c_00aa00341d07@@3U__s_GUID@@BPAUIConnectionPoint@@V?$_CopyInterface@UIConnectionPoint@@@ATL@@@ATL@@UAGJXZ 1001f160 f i VideoCapture.obj
 0001:0001e180       ?Reset@?$CComEnumImpl@UIEnumConnections@@$1?_GUID_b196b287_bab4_101a_b69c_00aa00341d07@@3U__s_GUID@@BUtagCONNECTDATA@@V?$_Copy@UtagCONNECTDATA@@@ATL@@@ATL@@UAGJXZ 1001f180 f i VideoCapture.obj
 0001:0001e1a0       ?ResizeBorder@?$IOleInPlaceActiveObjectImpl@VCOPOSVideoCapture@@@ATL@@UAGJPBUtagRECT@@PAUIOleInPlaceUIWindow@@H@Z 1001f1a0 f i VideoCapture.obj
 0001:0001e200       ?ResourceRegister@CRegObject@ATL@@QAGJPB_WI0@Z 1001f200 f i VideoCapture.obj
 0001:0001e2e0       ?ResourceRegisterSz@CRegObject@ATL@@QAGJPB_W00@Z 1001f2e0 f i VideoCapture.obj
 0001:0001e3e0       ?ResourceUnregister@CRegObject@ATL@@QAGJPB_WI0@Z 1001f3e0 f i VideoCapture.obj
 0001:0001e4c0       ?ResourceUnregisterSz@CRegObject@ATL@@QAGJPB_W00@Z 1001f4c0 f i VideoCapture.obj
 0001:0001e5c0       ?SODataDummy@COPOSVideoCapture@@MAGJJ@Z 1001f5c0 f i VideoCapture.obj
 0001:0001e5d0       ?SODirectIO@COPOSVideoCapture@@MAGJJPAJPAPA_W@Z 1001f5d0 f i VideoCapture.obj
 0001:0001e790       ?SOError@COPOSVideoCapture@@MAGJJJJPAJ@Z 1001f790 f i VideoCapture.obj
 0001:0001e850       ?SOOutputCompleteDummy@COPOSVideoCapture@@MAGJJ@Z 1001f850 f i VideoCapture.obj
 0001:0001e860       ?SOStatusUpdate@COPOSVideoCapture@@MAGJJ@Z 1001f860 f i VideoCapture.obj
 0001:0001e8e0       ?Save@?$IPersistStorageImpl@VCOPOSVideoCapture@@@ATL@@UAGJPAUIStorage@@H@Z 1001f8e0 f i VideoCapture.obj
 0001:0001ea40       ?Save@?$IPersistStreamInitImpl@VCOPOSVideoCapture@@@ATL@@UAGJPAUIStream@@H@Z 1001fa40 f i VideoCapture.obj
 0001:0001ead0       ?SaveCompleted@?$IPersistStorageImpl@VCOPOSVideoCapture@@@ATL@@UAGJPAUIStorage@@@Z 1001fad0 f i VideoCapture.obj
 0001:0001eb30       ?SendOnDataChange@CComControlBase@ATL@@QAEJK@Z 1001fb30 f i VideoCapture.obj
 0001:0001ec20       ?SendOnSave@CComControlBase@ATL@@QAEJXZ 1001fc20 f i VideoCapture.obj
 0001:0001ec90       ?SendOnViewChange@CComControlBase@ATL@@QAEJKJ@Z 1001fc90 f i VideoCapture.obj
 0001:0001ed00       ?SetAdvise@?$IViewObjectExImpl@VCOPOSVideoCapture@@@ATL@@UAGJKKPAUIAdviseSink@@@Z 1001fd00 f i VideoCapture.obj
 0001:0001ed90       ?SetClientSite@?$IOleObjectImpl@VCOPOSVideoCapture@@@ATL@@UAGJPAUIOleClientSite@@@Z 1001fd90 f i VideoCapture.obj
 0001:0001ee20       ?SetColorScheme@?$IOleObjectImpl@VCOPOSVideoCapture@@@ATL@@UAGJPAUtagLOGPALETTE@@@Z 1001fe20 f i VideoCapture.obj
 0001:0001ee90       ?SetContentExtent@?$IQuickActivateImpl@VCOPOSVideoCapture@@@ATL@@UAGJPAUtagSIZE@@@Z 1001fe90 f i VideoCapture.obj
 0001:0001ef20       ?SetControlFocus@CComControlBase@ATL@@QAEHH@Z 1001ff20 f i VideoCapture.obj
 0001:0001f0a0       ?SetDWORDValue@CRegKey@ATL@@QAEJPB_WK@Z 100200a0 f i VideoCapture.obj
 0001:0001f120       ?SetData@?$IDataObjectImpl@VCOPOSVideoCapture@@@ATL@@UAGJPAUtagFORMATETC@@PAUtagSTGMEDIUM@@H@Z 10020120 f i VideoCapture.obj
 0001:0001f190       ?SetExtent@?$IOleObjectImpl@VCOPOSVideoCapture@@@ATL@@UAGJKPAUtagSIZE@@@Z 10020190 f i VideoCapture.obj
 0001:0001f220       ?SetHostNames@?$IOleObjectImpl@VCOPOSVideoCapture@@@ATL@@UAGJPB_W0@Z 10020220 f i VideoCapture.obj
 0001:0001f280       ?SetInterfaceSafetyOptions@?$IObjectSafetyImpl@VCOPOSVideoCapture@@$02@ATL@@UAGJABU_GUID@@KK@Z 10020280 f i VideoCapture.obj
 0001:0001f3f0       ?SetMoniker@?$IOleObjectImpl@VCOPOSVideoCapture@@@ATL@@UAGJKPAUIMoniker@@@Z 100203f0 f i VideoCapture.obj
 0001:0001f460       ?SetMultiStringValue@CRegKey@ATL@@QAEJPB_W0@Z 10020460 f i VideoCapture.obj
 0001:0001f580       ?SetObjectRects@?$IOleInPlaceObjectWindowlessImpl@VCOPOSVideoCapture@@@ATL@@UAGJPBUtagRECT@@0@Z 10020580 f i VideoCapture.obj
 0001:0001f610       ?SetStringValue@CRegKey@ATL@@QAEJPB_W0K@Z 10020610 f i VideoCapture.obj
 0001:0001f740       ?SetVoid@CComClassFactory@ATL@@QAEXPAX@Z 10020740 f i VideoCapture.obj
 0001:0001f760       ?SetVoid@CComObjectRootBase@ATL@@QAEXPAX@Z 10020760 f i VideoCapture.obj
 0001:0001f770       ?SetWindowLongPtrW@@YAJPAUHWND__@@HJ@Z 10020770 f i VideoCapture.obj
 0001:0001f7a0       ?ShowWindow@CWindow@ATL@@QAEHH@Z 100207a0 f i VideoCapture.obj
 0001:0001f820       ?Skip@?$CComEnumImpl@UIEnumConnectionPoints@@$1?_GUID_b196b285_bab4_101a_b69c_00aa00341d07@@3U__s_GUID@@BPAUIConnectionPoint@@V?$_CopyInterface@UIConnectionPoint@@@ATL@@@ATL@@UAGJK@Z 10020820 f i VideoCapture.obj
 0001:0001f890       ?Skip@?$CComEnumImpl@UIEnumConnections@@$1?_GUID_b196b287_bab4_101a_b69c_00aa00341d07@@3U__s_GUID@@BUtagCONNECTDATA@@V?$_Copy@UtagCONNECTDATA@@@ATL@@@ATL@@UAGJK@Z 10020890 f i VideoCapture.obj
 0001:0001f900       ?SkipAssignment@CRegParser@ATL@@IAEJPA_W@Z 10020900 f i VideoCapture.obj
 0001:0001f9e0       ?SkipWhiteSpace@CRegParser@ATL@@IAEXXZ 100209e0 f i VideoCapture.obj
 0001:0001fa30       ?StartWindowProc@?$CWindowImplBaseT@VCWindow@ATL@@V?$CWinTraits@$0FGAAAAAA@$0A@@2@@ATL@@SGJPAUHWND__@@IIJ@Z 10020a30 f i VideoCapture.obj
 0001:0001fb50       ?StrChrW@CRegParser@ATL@@KAPA_WPA_W_W@Z 10020b50 f i VideoCapture.obj
 0001:0001fbc0       ?StrFromMap@CRegObject@ATL@@QAEPB_WPA_W@Z 10020bc0 f i VideoCapture.obj
 0001:0001fc50       ?Swap@?$CComPtrBase@UIAdviseSink@@@ATL@@IAEXAAV12@@Z 10020c50 f i VideoCapture.obj
 0001:0001fc80       ?Swap@?$CComPtrBase@UIOleClientSite@@@ATL@@IAEXAAV12@@Z 10020c80 f i VideoCapture.obj
 0001:0001fcb0       ?Swap@?$CComPtrBase@UIUnknown@@@ATL@@IAEXAAV12@@Z 10020cb0 f i VideoCapture.obj
 0001:0001fce0       ?T2COLE_EX@@YAPB_WPB_WI@Z  10020ce0 f i VideoCapture.obj
 0001:0001fcf0       ?T2OLE_EX@@YAPA_WPA_WI@Z   10020cf0 f i VideoCapture.obj
 0001:0001fd00       ?Term@CAtlModule@ATL@@QAEXXZ 10020d00 f i VideoCapture.obj
 0001:0001fdb0       ?Term@CComModule@ATL@@QAEXXZ 10020db0 f i VideoCapture.obj
 0001:0001fea0       ?TranslateAcceleratorW@?$IOleInPlaceActiveObjectImpl@VCOPOSVideoCapture@@@ATL@@UAGJPAUtagMSG@@@Z 10020ea0 f i VideoCapture.obj
 0001:000200a0       ?UIDeactivate@?$IOleInPlaceObjectWindowlessImpl@VCOPOSVideoCapture@@@ATL@@UAGJXZ 100210a0 f i VideoCapture.obj
 0001:00020120       ?Unadvise@?$CProxy_IOPOSEvents@VCOPOSVideoCapture@@@@UAGJK@Z 10021120 f i VideoCapture.obj
 0001:00020160       ?Unadvise@?$IConnectionPointImpl@VCOPOSVideoCapture@@$1?DIID__IOPOSVideoCaptureEvents@@3U_GUID@@BVCComDynamicUnkArray@ATL@@@ATL@@UAGJK@Z 10021160 f i VideoCapture.obj
 0001:00020230       ?Unadvise@?$IConnectionPointImpl@VCOPOSVideoCapture@@$1?IID_IPropertyNotifySink@@3U_GUID@@BVCComDynamicUnkArray@ATL@@@ATL@@UAGJK@Z 10021230 f i VideoCapture.obj
 0001:00020300       ?Unadvise@?$IOleObjectImpl@VCOPOSVideoCapture@@@ATL@@UAGJK@Z 10021300 f i VideoCapture.obj
 0001:000203d0       ?Unfreeze@?$IViewObjectExImpl@VCOPOSVideoCapture@@@ATL@@UAGJK@Z 100213d0 f i VideoCapture.obj
 0001:00020440       ?Unlock@?$CComCritSecLock@VCComCriticalSection@ATL@@@ATL@@QAEXXZ 10021440 f i VideoCapture.obj
 0001:000204b0       ?Unlock@?$CComObjectRootEx@VCComSingleThreadModel@ATL@@@ATL@@QAEXXZ 100214b0 f i VideoCapture.obj
 0001:000204c0       ?Unlock@CAtlModule@ATL@@UAEJXZ 100214c0 f i VideoCapture.obj
 0001:000204f0       ?Unlock@CComCriticalSection@ATL@@QAEJXZ 100214f0 f i VideoCapture.obj
 0001:00020530       ?Unlock@CComFakeCriticalSection@ATL@@QAEJXZ 10021530 f i VideoCapture.obj
 0001:00020540       ?UnregisterServer@?$CAtlModuleT@VCComModule@ATL@@@ATL@@QAEJHPBU_GUID@@@Z 10021540 f i VideoCapture.obj
 0001:000205b0       ?UnregisterServer@CAtlComModule@ATL@@QAEJHPBU_GUID@@@Z 100215b0 f i VideoCapture.obj
 0001:000205e0       ?UnregisterServer@CComModule@ATL@@QAEJHPBU_GUID@@@Z 100215e0 f i VideoCapture.obj
 0001:000206c0       ?Update@?$IOleObjectImpl@VCOPOSVideoCapture@@@ATL@@UAGJXZ 100216c0 f i VideoCapture.obj
 0001:00020720       ?UpdateRegistryFromResource@CAtlModule@ATL@@QAGJIHPAU_ATL_REGMAP_ENTRY@2@@Z 10021720 f i VideoCapture.obj
 0001:00020bf0       ?UpdateRegistryFromResource@CAtlModule@ATL@@QAGJPB_WHPAU_ATL_REGMAP_ENTRY@2@@Z 10021bf0 f i VideoCapture.obj
 0001:000210e0       ?UpdateRegistryFromResource@CComModule@ATL@@UAGJIHPAU_ATL_REGMAP_ENTRY@2@@Z 100220e0 f i VideoCapture.obj
 0001:00021110       ?UpdateRegistryFromResource@CComModule@ATL@@UAGJPB_WHPAU_ATL_REGMAP_ENTRY@2@@Z 10022110 f i VideoCapture.obj
 0001:00021140       ?UpdateRegistryFromResourceD@CComModule@ATL@@UAGJIHPAU_ATL_REGMAP_ENTRY@2@@Z 10022140 f i VideoCapture.obj
 0001:00021150       ?UpdateRegistryFromResourceD@CComModule@ATL@@UAGJPB_WHPAU_ATL_REGMAP_ENTRY@2@@Z 10022150 f i VideoCapture.obj
 0001:00021160       ?VTFromRegType@CRegParser@ATL@@KAHPB_WAAG@Z 10022160 f i VideoCapture.obj
 0001:00021240       ?WindowProc@?$CWindowImplBaseT@VCWindow@ATL@@V?$CWinTraits@$0FGAAAAAA@$0A@@2@@ATL@@SGJPAUHWND__@@IIJ@Z 10022240 f i VideoCapture.obj
 0001:00021450       ?WriteToStream@CComBSTR@ATL@@QAEJPAUIStream@@@Z 10022450 f i VideoCapture.obj
 0001:000215b0       ?WriteToStream@CComVariant@ATL@@QAEJPAUIStream@@@Z 100225b0 f i VideoCapture.obj
 0001:00021910       ?WriteToStream@CComVariant@ATL@@QAEJPAUIStream@@G@Z 10022910 f i VideoCapture.obj
 0001:000219e0       ?_AtlFinalConstruct@CComObjectRootBase@ATL@@QAEJXZ 100229e0 f i VideoCapture.obj
 0001:000219f0       ?_AtlGetConversionACP@ATL@@YGIXZ 100229f0 f i VideoCapture.obj
 0001:00021a00       ?_AtlInitialConstruct@?$CComAggObject@VCOPOSVideoCapture@@@ATL@@QAEJXZ 10022a00 f i VideoCapture.obj
 0001:00021a50       ?_AtlInitialConstruct@?$CComObjectRootEx@VCComMultiThreadModel@ATL@@@ATL@@QAEJXZ 10022a50 f i VideoCapture.obj
 0001:00021a80       ?_AtlInitialConstruct@?$CComObjectRootEx@VCComSingleThreadModel@ATL@@@ATL@@QAEJXZ 10022a80 f i VideoCapture.obj
 0001:00021a90       ?_AtlVerifyStackAvailable@_ATL_SAFE_ALLOCA_IMPL@ATL@@YA_NK@Z 10022a90 f i VideoCapture.obj
 0001:00021c40       ?_GetEntries@?$CComEnum@UIEnumConnectionPoints@@$1?_GUID_b196b285_bab4_101a_b69c_00aa00341d07@@3U__s_GUID@@BPAUIConnectionPoint@@V?$_CopyInterface@UIConnectionPoint@@@ATL@@VCComSingleThreadModel@6@@ATL@@SGPBU_ATL_INTMAP_ENTRY@2@XZ 10022c40 f i VideoCapture.obj
 0001:00021c60       ?_GetEntries@?$CComEnum@UIEnumConnections@@$1?_GUID_b196b287_bab4_101a_b69c_00aa00341d07@@3U__s_GUID@@BUtagCONNECTDATA@@V?$_Copy@UtagCONNECTDATA@@@ATL@@VCComSingleThreadModel@6@@ATL@@SGPBU_ATL_INTMAP_ENTRY@2@XZ 10022c60 f i VideoCapture.obj
 0001:00021c80       ?_GetEntries@CComClassFactory@ATL@@SGPBU_ATL_INTMAP_ENTRY@2@XZ 10022c80 f i VideoCapture.obj
 0001:00021ca0       ?_GetEntries@COPOSVideoCapture@@SGPBU_ATL_INTMAP_ENTRY@ATL@@XZ 10022ca0 f i VideoCapture.obj
 0001:00021cc0       ?_GetRawUnknown@COPOSVideoCapture@@QAEPAUIUnknown@@XZ 10022cc0 f i VideoCapture.obj
 0001:00021d30       ?_GetViewStatus@COPOSVideoCapture@@QAEKXZ 10022d30 f i VideoCapture.obj
 0001:00021d40       ?_InternalQueryInterface@?$CComEnum@UIEnumConnectionPoints@@$1?_GUID_b196b285_bab4_101a_b69c_00aa00341d07@@3U__s_GUID@@BPAUIConnectionPoint@@V?$_CopyInterface@UIConnectionPoint@@@ATL@@VCComSingleThreadModel@6@@ATL@@QAEJABU_GUID@@PAPAX@Z 10022d40 f i VideoCapture.obj
 0001:00021d80       ?_InternalQueryInterface@?$CComEnum@UIEnumConnections@@$1?_GUID_b196b287_bab4_101a_b69c_00aa00341d07@@3U__s_GUID@@BUtagCONNECTDATA@@V?$_Copy@UtagCONNECTDATA@@@ATL@@VCComSingleThreadModel@6@@ATL@@QAEJABU_GUID@@PAPAX@Z 10022d80 f i VideoCapture.obj
 0001:00021dc0       ?_InternalQueryInterface@CComClassFactory@ATL@@QAEJABU_GUID@@PAPAX@Z 10022dc0 f i VideoCapture.obj
 0001:00021e00       ?_InternalQueryInterface@COPOSVideoCapture@@QAEJABU_GUID@@PAPAX@Z 10022e00 f i VideoCapture.obj
 0001:00021e40       ?_LocCPQueryInterface@?$IConnectionPointImpl@VCOPOSVideoCapture@@$1?DIID__IOPOSVideoCaptureEvents@@3U_GUID@@BVCComDynamicUnkArray@ATL@@@ATL@@UAGJABU_GUID@@PAPAX@Z 10022e40 f i VideoCapture.obj
 0001:00021ee0       ?_LocCPQueryInterface@?$IConnectionPointImpl@VCOPOSVideoCapture@@$1?IID_IPropertyNotifySink@@3U_GUID@@BVCComDynamicUnkArray@ATL@@@ATL@@UAGJABU_GUID@@PAPAX@Z 10022ee0 f i VideoCapture.obj
 0001:00021f80       ?atlCreate@?$CWindowImpl@VCOPOSVideoCapture@@VCWindow@ATL@@V?$CWinTraits@$0FGAAAAAA@$0A@@3@@ATL@@QAEPAUHWND__@@PAU3@V_U_RECT@2@PB_WKKV_U_MENUorID@2@PAX@Z 10022f80 f i VideoCapture.obj
 0001:00022030       ?atlCreate@?$CWindowImplBaseT@VCWindow@ATL@@V?$CWinTraits@$0FGAAAAAA@$0A@@2@@ATL@@QAEPAUHWND__@@PAU3@V_U_RECT@2@PB_WKKV_U_MENUorID@2@GPAX@Z 10023030 f i VideoCapture.obj
 0001:000221b0       ?atlCreate@CRegKey@ATL@@QAEJPAUHKEY__@@PB_WPA_WKKPAU_SECURITY_ATTRIBUTES@@PAK@Z 100231b0 f i VideoCapture.obj
 0001:00022310       ?begin@CComDynamicUnkArray@ATL@@QAEPAPAUIUnknown@@XZ 10023310 f i VideoCapture.obj
 0001:00022320       ?copy@?$_Copy@UtagCONNECTDATA@@@ATL@@SAJPAUtagCONNECTDATA@@PBU3@@Z 10023320 f i VideoCapture.obj
 0001:000223e0       ?copy@?$_CopyInterface@UIConnectionPoint@@@ATL@@SAJPAPAUIConnectionPoint@@PBQAU3@@Z 100233e0 f i VideoCapture.obj
 0001:000224a0       ?destroy@?$_Copy@UtagCONNECTDATA@@@ATL@@SAXPAUtagCONNECTDATA@@@Z 100234a0 f i VideoCapture.obj
 0001:000224e0       ?destroy@?$_CopyInterface@UIConnectionPoint@@@ATL@@SAXPAPAUIConnectionPoint@@@Z 100234e0 f i VideoCapture.obj
 0001:00022520       ?end@CComDynamicUnkArray@ATL@@QAEPAPAUIUnknown@@XZ 10023520 f i VideoCapture.obj
 0001:00022540       ?init@?$_Copy@UtagCONNECTDATA@@@ATL@@SAXPAUtagCONNECTDATA@@@Z 10023540 f i VideoCapture.obj
 0001:00022550       ?init@?$_CopyInterface@UIConnectionPoint@@@ATL@@SAXPAPAUIConnectionPoint@@@Z 10023550 f i VideoCapture.obj
 0001:00022560       ?memcpy_s@Checked@ATL@@YAXPAXIPBXI@Z 10023560 f i VideoCapture.obj
 0001:00022590       ?ocscpy_s@@YA_NPA_WIPB_W@Z 10023590 f i VideoCapture.obj
 0001:000225f0       ?ocslen@@YAHPB_W@Z         100235f0 f i VideoCapture.obj
 0001:00022620       ?tcsncpy_s@Checked@ATL@@YAHPA_WIPB_WI@Z 10023620 f i VideoCapture.obj
 0001:00022650       ?wcscat_s@Checked@ATL@@YAXPA_WIPB_W@Z 10023650 f i VideoCapture.obj
 0001:00022680       ?wcscpy_s@Checked@ATL@@YAXPA_WIPB_W@Z 10023680 f i VideoCapture.obj
 0001:000226b0       ?wcsncpy_s@Checked@ATL@@YAHPA_WIPB_WI@Z 100236b0 f i VideoCapture.obj
 0001:000226e0       ?wcsstr@@YAPA_WPA_WPB_W@Z  100236e0 f i VideoCapture.obj
 0001:00022700       _InlineIsEqualGUID         10023700 f i VideoCapture.obj
 0001:000227a0       _IsEqualGUID               100237a0 f i VideoCapture.obj
 0001:000227f0       ??0COPOSVideoCapture@@QAE@XZ 100237f0 f   VideoCaptureImpl.obj
 0001:00022900       ?FinalConstruct@COPOSVideoCapture@@QAEJXZ 10023900 f   VideoCaptureImpl.obj
 0001:000229d0       ??1COPOSVideoCapture@@UAE@XZ 100239d0 f   VideoCaptureImpl.obj
 0001:00022ab0       ?WriteTrace@COPOSVideoCapture@@QAAXPB_WZZ 10023ab0 f   VideoCaptureImpl.obj
 0001:00022b60       ?WriteTraceString@COPOSVideoCapture@@QAEXPB_WPA_W@Z 10023b60 f   VideoCaptureImpl.obj
 0001:00022ed0       ?WriteTraceString@COPOSVideoCapture@@QAAXPAXHHHPB_WZZ 10023ed0 f   VideoCaptureImpl.obj
 0001:00023100       ?WriteTraceError@COPOSVideoCapture@@QAEXPB_WK@Z 10024100 f   VideoCaptureImpl.obj
 0001:000231f0       ?WriteTraceMethods@COPOSVideoCapture@@QAEXPAJH@Z 100241f0 f   VideoCaptureImpl.obj
 0001:00023260       ?GetOposProp@COPOSVideoCapture@@IAEJPBDJPAJJ@Z 10024260 f   VideoCaptureImpl.obj
 0001:000234d0       ?SetOposProp@COPOSVideoCapture@@IAEJPBDJJJ@Z 100244d0 f   VideoCaptureImpl.obj
 0001:00023760       ?GetOposProp@COPOSVideoCapture@@IAEJPBDJPAFJ@Z 10024760 f   VideoCaptureImpl.obj
 0001:00023800       ?SetOposProp@COPOSVideoCapture@@IAEJPBDJFJ@Z 10024800 f   VideoCaptureImpl.obj
 0001:00023860       ?GetOposProp@COPOSVideoCapture@@IAEJPBDJPAPA_WJ@Z 10024860 f   VideoCaptureImpl.obj
 0001:00023ae0       ?SetOposProp@COPOSVideoCapture@@IAEJPBDJPA_WJ@Z 10024ae0 f   VideoCaptureImpl.obj
 0001:00023e20       ?DoInvoke@COPOSVideoCapture@@IAEJPBDJPAVOposVariant@@IHPAJ_N@Z 10024e20 f   VideoCaptureImpl.obj
 0001:00024750       ?SetCOFreezeEvents@COPOSVideoCapture@@IAEXF@Z 10025750 f   VideoCaptureImpl.obj
 0001:00024890       ?FreezeEvents@COPOSVideoCapture@@MAGJH@Z 10025890 f   VideoCaptureImpl.obj
 0001:00024970       ?OnDraw@COPOSVideoCapture@@MAEJAAUATL_DRAWINFO@@@Z 10025970 f   VideoCaptureImpl.obj
 0001:00024b10       ?SOProcessID@COPOSVideoCapture@@UAGJPAJ@Z 10025b10 f   VideoCaptureImpl.obj
 0001:00024b50       ?get_OpenResult@COPOSVideoCapture@@UAGJPAJ@Z 10025b50 f   VideoCaptureImpl.obj
 0001:00024b90       ?get_BinaryConversion@COPOSVideoCapture@@UAGJPAJ@Z 10025b90 f   VideoCaptureImpl.obj
 0001:00024bc0       ?put_BinaryConversion@COPOSVideoCapture@@UAGJJ@Z 10025bc0 f   VideoCaptureImpl.obj
 0001:00024bf0       ?get_CapPowerReporting@COPOSVideoCapture@@UAGJPAJ@Z 10025bf0 f   VideoCaptureImpl.obj
 0001:00024c20       ?get_CheckHealthText@COPOSVideoCapture@@UAGJPAPA_W@Z 10025c20 f   VideoCaptureImpl.obj
 0001:00024c50       ?get_Claimed@COPOSVideoCapture@@UAGJPAF@Z 10025c50 f   VideoCaptureImpl.obj
 0001:00024c80       ?get_DeviceEnabled@COPOSVideoCapture@@UAGJPAF@Z 10025c80 f   VideoCaptureImpl.obj
 0001:00024cb0       ?put_DeviceEnabled@COPOSVideoCapture@@UAGJF@Z 10025cb0 f   VideoCaptureImpl.obj
 0001:00024ce0       ?get_FreezeEvents@COPOSVideoCapture@@UAGJPAF@Z 10025ce0 f   VideoCaptureImpl.obj
 0001:00024d10       ?put_FreezeEvents@COPOSVideoCapture@@UAGJF@Z 10025d10 f   VideoCaptureImpl.obj
 0001:00024da0       ?get_PowerNotify@COPOSVideoCapture@@UAGJPAJ@Z 10025da0 f   VideoCaptureImpl.obj
 0001:00024dd0       ?put_PowerNotify@COPOSVideoCapture@@UAGJJ@Z 10025dd0 f   VideoCaptureImpl.obj
 0001:00024e00       ?get_PowerState@COPOSVideoCapture@@UAGJPAJ@Z 10025e00 f   VideoCaptureImpl.obj
 0001:00024e30       ?get_ResultCode@COPOSVideoCapture@@UAGJPAJ@Z 10025e30 f   VideoCaptureImpl.obj
 0001:00024ec0       ?get_ResultCodeExtended@COPOSVideoCapture@@UAGJPAJ@Z 10025ec0 f   VideoCaptureImpl.obj
 0001:00024ef0       ?get_State@COPOSVideoCapture@@UAGJPAJ@Z 10025ef0 f   VideoCaptureImpl.obj
 0001:00024f40       ?get_ControlObjectDescription@COPOSVideoCapture@@UAGJPAPA_W@Z 10025f40 f   VideoCaptureImpl.obj
 0001:00024fc0       ?get_ControlObjectVersion@COPOSVideoCapture@@UAGJPAJ@Z 10025fc0 f   VideoCaptureImpl.obj
 0001:00025000       ?get_ServiceObjectDescription@COPOSVideoCapture@@UAGJPAPA_W@Z 10026000 f   VideoCaptureImpl.obj
 0001:00025030       ?get_ServiceObjectVersion@COPOSVideoCapture@@UAGJPAJ@Z 10026030 f   VideoCaptureImpl.obj
 0001:00025060       ?get_DeviceDescription@COPOSVideoCapture@@UAGJPAPA_W@Z 10026060 f   VideoCaptureImpl.obj
 0001:00025090       ?get_DeviceName@COPOSVideoCapture@@UAGJPAPA_W@Z 10026090 f   VideoCaptureImpl.obj
 0001:000250c0       ?get_CapStatisticsReporting@COPOSVideoCapture@@UAGJPAF@Z 100260c0 f   VideoCaptureImpl.obj
 0001:000250f0       ?get_CapUpdateStatistics@COPOSVideoCapture@@UAGJPAF@Z 100260f0 f   VideoCaptureImpl.obj
 0001:00025120       ?get_CapCompareFirmwareVersion@COPOSVideoCapture@@UAGJPAF@Z 10026120 f   VideoCaptureImpl.obj
 0001:00025150       ?get_CapUpdateFirmware@COPOSVideoCapture@@UAGJPAF@Z 10026150 f   VideoCaptureImpl.obj
 0001:00025180       ?CheckHealth@COPOSVideoCapture@@UAGJJPAJ@Z 10026180 f   VideoCaptureImpl.obj
 0001:00025220       ?ClaimDevice@COPOSVideoCapture@@UAGJJPAJ@Z 10026220 f   VideoCaptureImpl.obj
 0001:00025300       ?ClearInput@COPOSVideoCapture@@UAGJPAJ@Z 10026300 f   VideoCaptureImpl.obj
 0001:00025330       ?Close@COPOSVideoCapture@@UAGJPAJ@Z 10026330 f   VideoCaptureImpl.obj
 0001:00025400       ?DirectIO@COPOSVideoCapture@@UAGJJPAJPAPA_W0@Z 10026400 f   VideoCaptureImpl.obj
 0001:00025510       ?Open@COPOSVideoCapture@@UAGJPA_WPAJ@Z 10026510 f   VideoCaptureImpl.obj
 0001:00026700       ?ReleaseDevice@COPOSVideoCapture@@UAGJPAJ@Z 10027700 f   VideoCaptureImpl.obj
 0001:00026770       ?ResetStatistics@COPOSVideoCapture@@UAGJPA_WPAJ@Z 10027770 f   VideoCaptureImpl.obj
 0001:00026820       ?RetrieveStatistics@COPOSVideoCapture@@UAGJPAPA_WPAJ@Z 10027820 f   VideoCaptureImpl.obj
 0001:000268d0       ?UpdateStatistics@COPOSVideoCapture@@UAGJPA_WPAJ@Z 100278d0 f   VideoCaptureImpl.obj
 0001:00026980       ?CompareFirmwareVersion@COPOSVideoCapture@@UAGJPA_WPAJ1@Z 10027980 f   VideoCaptureImpl.obj
 0001:00026a70       ?UpdateFirmware@COPOSVideoCapture@@UAGJPA_WPAJ@Z 10027a70 f   VideoCaptureImpl.obj
 0001:00026b20       ?get_AutoExposure@COPOSVideoCapture@@UAGJPAF@Z 10027b20 f   VideoCaptureImpl.obj
 0001:00026b50       ?put_AutoExposure@COPOSVideoCapture@@UAGJF@Z 10027b50 f   VideoCaptureImpl.obj
 0001:00026b80       ?get_AutoFocus@COPOSVideoCapture@@UAGJPAF@Z 10027b80 f   VideoCaptureImpl.obj
 0001:00026bb0       ?put_AutoFocus@COPOSVideoCapture@@UAGJF@Z 10027bb0 f   VideoCaptureImpl.obj
 0001:00026be0       ?get_AutoGain@COPOSVideoCapture@@UAGJPAF@Z 10027be0 f   VideoCaptureImpl.obj
 0001:00026c10       ?put_AutoGain@COPOSVideoCapture@@UAGJF@Z 10027c10 f   VideoCaptureImpl.obj
 0001:00026c40       ?get_AutoWhiteBalance@COPOSVideoCapture@@UAGJPAF@Z 10027c40 f   VideoCaptureImpl.obj
 0001:00026c70       ?put_AutoWhiteBalance@COPOSVideoCapture@@UAGJF@Z 10027c70 f   VideoCaptureImpl.obj
 0001:00026ca0       ?get_Brightness@COPOSVideoCapture@@UAGJPAJ@Z 10027ca0 f   VideoCaptureImpl.obj
 0001:00026cd0       ?put_Brightness@COPOSVideoCapture@@UAGJJ@Z 10027cd0 f   VideoCaptureImpl.obj
 0001:00026d00       ?get_CapAssociatedHardTotalsDevice@COPOSVideoCapture@@UAGJPAPA_W@Z 10027d00 f   VideoCaptureImpl.obj
 0001:00026d30       ?get_CapAutoExposure@COPOSVideoCapture@@UAGJPAF@Z 10027d30 f   VideoCaptureImpl.obj
 0001:00026d60       ?get_CapAutoFocus@COPOSVideoCapture@@UAGJPAF@Z 10027d60 f   VideoCaptureImpl.obj
 0001:00026d90       ?get_CapAutoGain@COPOSVideoCapture@@UAGJPAF@Z 10027d90 f   VideoCaptureImpl.obj
 0001:00026dc0       ?get_CapAutoWhiteBalance@COPOSVideoCapture@@UAGJPAF@Z 10027dc0 f   VideoCaptureImpl.obj
 0001:00026df0       ?get_CapBrightness@COPOSVideoCapture@@UAGJPAF@Z 10027df0 f   VideoCaptureImpl.obj
 0001:00026e20       ?get_CapContrast@COPOSVideoCapture@@UAGJPAF@Z 10027e20 f   VideoCaptureImpl.obj
 0001:00026e50       ?get_CapExposure@COPOSVideoCapture@@UAGJPAF@Z 10027e50 f   VideoCaptureImpl.obj
 0001:00026e80       ?get_CapGain@COPOSVideoCapture@@UAGJPAF@Z 10027e80 f   VideoCaptureImpl.obj
 0001:00026eb0       ?get_CapHorizontalFlip@COPOSVideoCapture@@UAGJPAF@Z 10027eb0 f   VideoCaptureImpl.obj
 0001:00026ee0       ?get_CapHue@COPOSVideoCapture@@UAGJPAF@Z 10027ee0 f   VideoCaptureImpl.obj
 0001:00026f10       ?get_CapPhoto@COPOSVideoCapture@@UAGJPAF@Z 10027f10 f   VideoCaptureImpl.obj
 0001:00026f40       ?get_CapPhotoColorSpace@COPOSVideoCapture@@UAGJPAF@Z 10027f40 f   VideoCaptureImpl.obj
 0001:00026f70       ?get_CapPhotoFrameRate@COPOSVideoCapture@@UAGJPAF@Z 10027f70 f   VideoCaptureImpl.obj
 0001:00026fa0       ?get_CapPhotoResolution@COPOSVideoCapture@@UAGJPAF@Z 10027fa0 f   VideoCaptureImpl.obj
 0001:00026fd0       ?get_CapPhotoType@COPOSVideoCapture@@UAGJPAF@Z 10027fd0 f   VideoCaptureImpl.obj
 0001:00027000       ?get_CapSaturation@COPOSVideoCapture@@UAGJPAF@Z 10028000 f   VideoCaptureImpl.obj
 0001:00027030       ?get_CapStorage@COPOSVideoCapture@@UAGJPAJ@Z 10028030 f   VideoCaptureImpl.obj
 0001:00027060       ?get_CapVerticalFlip@COPOSVideoCapture@@UAGJPAF@Z 10028060 f   VideoCaptureImpl.obj
 0001:00027090       ?get_CapVideo@COPOSVideoCapture@@UAGJPAF@Z 10028090 f   VideoCaptureImpl.obj
 0001:000270c0       ?get_CapVideoColorSpace@COPOSVideoCapture@@UAGJPAF@Z 100280c0 f   VideoCaptureImpl.obj
 0001:000270f0       ?get_CapVideoFrameRate@COPOSVideoCapture@@UAGJPAF@Z 100280f0 f   VideoCaptureImpl.obj
 0001:00027120       ?get_CapVideoResolution@COPOSVideoCapture@@UAGJPAF@Z 10028120 f   VideoCaptureImpl.obj
 0001:00027150       ?get_CapVideoType@COPOSVideoCapture@@UAGJPAF@Z 10028150 f   VideoCaptureImpl.obj
 0001:00027180       ?get_Contrast@COPOSVideoCapture@@UAGJPAJ@Z 10028180 f   VideoCaptureImpl.obj
 0001:000271b0       ?put_Contrast@COPOSVideoCapture@@UAGJJ@Z 100281b0 f   VideoCaptureImpl.obj
 0001:000271e0       ?get_Exposure@COPOSVideoCapture@@UAGJPAJ@Z 100281e0 f   VideoCaptureImpl.obj
 0001:00027210       ?put_Exposure@COPOSVideoCapture@@UAGJJ@Z 10028210 f   VideoCaptureImpl.obj
 0001:00027240       ?get_Gain@COPOSVideoCapture@@UAGJPAJ@Z 10028240 f   VideoCaptureImpl.obj
 0001:00027270       ?put_Gain@COPOSVideoCapture@@UAGJJ@Z 10028270 f   VideoCaptureImpl.obj
 0001:000272a0       ?get_HorizontalFlip@COPOSVideoCapture@@UAGJPAF@Z 100282a0 f   VideoCaptureImpl.obj
 0001:000272d0       ?put_HorizontalFlip@COPOSVideoCapture@@UAGJF@Z 100282d0 f   VideoCaptureImpl.obj
 0001:00027300       ?get_Hue@COPOSVideoCapture@@UAGJPAJ@Z 10028300 f   VideoCaptureImpl.obj
 0001:00027330       ?put_Hue@COPOSVideoCapture@@UAGJJ@Z 10028330 f   VideoCaptureImpl.obj
 0001:00027360       ?get_PhotoColorSpace@COPOSVideoCapture@@UAGJPAPA_W@Z 10028360 f   VideoCaptureImpl.obj
 0001:00027390       ?put_PhotoColorSpace@COPOSVideoCapture@@UAGJPA_W@Z 10028390 f   VideoCaptureImpl.obj
 0001:000273c0       ?get_PhotoColorSpaceList@COPOSVideoCapture@@UAGJPAPA_W@Z 100283c0 f   VideoCaptureImpl.obj
 0001:000273f0       ?get_PhotoFrameRate@COPOSVideoCapture@@UAGJPAJ@Z 100283f0 f   VideoCaptureImpl.obj
 0001:00027420       ?put_PhotoFrameRate@COPOSVideoCapture@@UAGJJ@Z 10028420 f   VideoCaptureImpl.obj
 0001:00027450       ?get_PhotoMaxFrameRate@COPOSVideoCapture@@UAGJPAJ@Z 10028450 f   VideoCaptureImpl.obj
 0001:00027480       ?get_PhotoResolution@COPOSVideoCapture@@UAGJPAPA_W@Z 10028480 f   VideoCaptureImpl.obj
 0001:000274b0       ?put_PhotoResolution@COPOSVideoCapture@@UAGJPA_W@Z 100284b0 f   VideoCaptureImpl.obj
 0001:000274e0       ?get_PhotoResolutionList@COPOSVideoCapture@@UAGJPAPA_W@Z 100284e0 f   VideoCaptureImpl.obj
 0001:00027510       ?get_PhotoType@COPOSVideoCapture@@UAGJPAPA_W@Z 10028510 f   VideoCaptureImpl.obj
 0001:00027540       ?put_PhotoType@COPOSVideoCapture@@UAGJPA_W@Z 10028540 f   VideoCaptureImpl.obj
 0001:00027570       ?get_PhotoTypeList@COPOSVideoCapture@@UAGJPAPA_W@Z 10028570 f   VideoCaptureImpl.obj
 0001:000275a0       ?get_RemainingRecordingTimeInSec@COPOSVideoCapture@@UAGJPAJ@Z 100285a0 f   VideoCaptureImpl.obj
 0001:000275d0       ?get_Saturation@COPOSVideoCapture@@UAGJPAJ@Z 100285d0 f   VideoCaptureImpl.obj
 0001:00027600       ?put_Saturation@COPOSVideoCapture@@UAGJJ@Z 10028600 f   VideoCaptureImpl.obj
 0001:00027630       ?get_Storage@COPOSVideoCapture@@UAGJPAJ@Z 10028630 f   VideoCaptureImpl.obj
 0001:00027660       ?put_Storage@COPOSVideoCapture@@UAGJJ@Z 10028660 f   VideoCaptureImpl.obj
 0001:00027690       ?get_VerticalFlip@COPOSVideoCapture@@UAGJPAF@Z 10028690 f   VideoCaptureImpl.obj
 0001:000276c0       ?put_VerticalFlip@COPOSVideoCapture@@UAGJF@Z 100286c0 f   VideoCaptureImpl.obj
 0001:000276f0       ?get_VideoCaptureMode@COPOSVideoCapture@@UAGJPAJ@Z 100286f0 f   VideoCaptureImpl.obj
 0001:00027720       ?put_VideoCaptureMode@COPOSVideoCapture@@UAGJJ@Z 10028720 f   VideoCaptureImpl.obj
 0001:00027750       ?get_VideoColorSpace@COPOSVideoCapture@@UAGJPAPA_W@Z 10028750 f   VideoCaptureImpl.obj
 0001:00027780       ?put_VideoColorSpace@COPOSVideoCapture@@UAGJPA_W@Z 10028780 f   VideoCaptureImpl.obj
 0001:000277b0       ?get_VideoColorSpaceList@COPOSVideoCapture@@UAGJPAPA_W@Z 100287b0 f   VideoCaptureImpl.obj
 0001:000277e0       ?get_VideoFrameRate@COPOSVideoCapture@@UAGJPAJ@Z 100287e0 f   VideoCaptureImpl.obj
 0001:00027810       ?put_VideoFrameRate@COPOSVideoCapture@@UAGJJ@Z 10028810 f   VideoCaptureImpl.obj
 0001:00027840       ?get_VideoMaxFrameRate@COPOSVideoCapture@@UAGJPAJ@Z 10028840 f   VideoCaptureImpl.obj
 0001:00027870       ?get_VideoResolution@COPOSVideoCapture@@UAGJPAPA_W@Z 10028870 f   VideoCaptureImpl.obj
 0001:000278a0       ?put_VideoResolution@COPOSVideoCapture@@UAGJPA_W@Z 100288a0 f   VideoCaptureImpl.obj
 0001:000278d0       ?get_VideoResolutionList@COPOSVideoCapture@@UAGJPAPA_W@Z 100288d0 f   VideoCaptureImpl.obj
 0001:00027900       ?get_VideoType@COPOSVideoCapture@@UAGJPAPA_W@Z 10028900 f   VideoCaptureImpl.obj
 0001:00027930       ?put_VideoType@COPOSVideoCapture@@UAGJPA_W@Z 10028930 f   VideoCaptureImpl.obj
 0001:00027960       ?get_VideoTypeList@COPOSVideoCapture@@UAGJPAPA_W@Z 10028960 f   VideoCaptureImpl.obj
 0001:00027990       ?StartVideo@COPOSVideoCapture@@UAGJPA_WFJPAJ@Z 10028990 f   VideoCaptureImpl.obj
 0001:00027aa0       ?StopVideo@COPOSVideoCapture@@UAGJPAJ@Z 10028aa0 f   VideoCaptureImpl.obj
 0001:00027ad0       ?TakePhoto@COPOSVideoCapture@@UAGJPA_WFJPAJ@Z 10028ad0 f   VideoCaptureImpl.obj
 0001:00027be0       ??0?$CComControl@VCOPOSVideoCapture@@V?$CWindowImpl@VCOPOSVideoCapture@@VCWindow@ATL@@V?$CWinTraits@$0FGAAAAAA@$0A@@3@@ATL@@@ATL@@QAE@XZ 10028be0 f i VideoCaptureImpl.obj
 0001:00027c20       ??0?$CComPtr@UIAdviseSink@@@ATL@@QAE@XZ 10028c20 f i VideoCaptureImpl.obj
 0001:00027c50       ??0?$CComPtr@UIDataAdviseHolder@@@ATL@@QAE@XZ 10028c50 f i VideoCaptureImpl.obj
 0001:00027c80       ??0?$CComPtr@UIOleAdviseHolder@@@ATL@@QAE@XZ 10028c80 f i VideoCaptureImpl.obj
 0001:00027cb0       ??0?$CComPtr@UIOleClientSite@@@ATL@@QAE@XZ 10028cb0 f i VideoCaptureImpl.obj
 0001:00027ce0       ??0?$CComPtr@UIOleInPlaceSiteWindowless@@@ATL@@QAE@XZ 10028ce0 f i VideoCaptureImpl.obj
 0001:00027d10       ??0?$CComPtrBase@UIAdviseSink@@@ATL@@IAE@XZ 10028d10 f i VideoCaptureImpl.obj
 0001:00027d30       ??0?$CComPtrBase@UIDataAdviseHolder@@@ATL@@IAE@XZ 10028d30 f i VideoCaptureImpl.obj
 0001:00027d50       ??0?$CComPtrBase@UIOleAdviseHolder@@@ATL@@IAE@XZ 10028d50 f i VideoCaptureImpl.obj
 0001:00027d70       ??0?$CComPtrBase@UIOleClientSite@@@ATL@@IAE@XZ 10028d70 f i VideoCaptureImpl.obj
 0001:00027d90       ??0?$CComPtrBase@UIOleInPlaceSiteWindowless@@@ATL@@IAE@XZ 10028d90 f i VideoCaptureImpl.obj
 0001:00027db0       ??0?$CComQIPtr@UIDispatch@@$1?_GUID_00020400_0000_0000_c000_000000000046@@3U__s_GUID@@B@ATL@@QAE@XZ 10028db0 f i VideoCaptureImpl.obj
 0001:00027de0       ??0?$CProxy_IOPOSEvents@VCOPOSVideoCapture@@@@QAE@PAVCOPOSVideoCapture@@@Z 10028de0 f i VideoCaptureImpl.obj
 0001:00027e50       ??0?$CWindowImpl@VCOPOSVideoCapture@@VCWindow@ATL@@V?$CWinTraits@$0FGAAAAAA@$0A@@3@@ATL@@QAE@XZ 10028e50 f i VideoCaptureImpl.obj
 0001:00027e80       ??0?$CWindowImplBaseT@VCWindow@ATL@@V?$CWinTraits@$0FGAAAAAA@$0A@@2@@ATL@@QAE@XZ 10028e80 f i VideoCaptureImpl.obj
 0001:00027ec0       ??0?$CWindowImplRoot@VCWindow@ATL@@@ATL@@QAE@XZ 10028ec0 f i VideoCaptureImpl.obj
 0001:00027f20       ??0?$IConnectionPointContainerImpl@VCOPOSVideoCapture@@@ATL@@QAE@XZ 10028f20 f i VideoCaptureImpl.obj
 0001:00027f50       ??0?$IConnectionPointImpl@VCOPOSVideoCapture@@$1?DIID__IOPOSVideoCaptureEvents@@3U_GUID@@BVCComDynamicUnkArray@ATL@@@ATL@@QAE@XZ 10028f50 f i VideoCaptureImpl.obj
 0001:00027f90       ??0?$IConnectionPointImpl@VCOPOSVideoCapture@@$1?IID_IPropertyNotifySink@@3U_GUID@@BVCComDynamicUnkArray@ATL@@@ATL@@QAE@XZ 10028f90 f i VideoCaptureImpl.obj
 0001:00027fd0       ??0?$IDataObjectImpl@VCOPOSVideoCapture@@@ATL@@QAE@XZ 10028fd0 f i VideoCaptureImpl.obj
 0001:00028000       ??0?$IDispatchImpl@UIOPOSVideoCapture@@$1?IID_IOPOSVideoCapture@@3U_GUID@@B$1?LIBID_OposVideoCapture_CCO@@3U3@B$00$0A@VCComTypeInfoHolder@ATL@@@ATL@@QAE@XZ 10029000 f i VideoCaptureImpl.obj
 0001:00028030       ??0?$IObjectSafetyImpl@VCOPOSVideoCapture@@$02@ATL@@QAE@XZ 10029030 f i VideoCaptureImpl.obj
 0001:00028070       ??0?$IOleControlImpl@VCOPOSVideoCapture@@@ATL@@QAE@XZ 10029070 f i VideoCaptureImpl.obj
 0001:000280a0       ??0?$IOleInPlaceActiveObjectImpl@VCOPOSVideoCapture@@@ATL@@QAE@XZ 100290a0 f i VideoCaptureImpl.obj
 0001:000280d0       ??0?$IOleInPlaceObjectWindowlessImpl@VCOPOSVideoCapture@@@ATL@@QAE@XZ 100290d0 f i VideoCaptureImpl.obj
 0001:00028100       ??0?$IOleObjectImpl@VCOPOSVideoCapture@@@ATL@@QAE@XZ 10029100 f i VideoCaptureImpl.obj
 0001:00028130       ??0?$IPersistStorageImpl@VCOPOSVideoCapture@@@ATL@@QAE@XZ 10029130 f i VideoCaptureImpl.obj
 0001:00028160       ??0?$IPersistStreamInitImpl@VCOPOSVideoCapture@@@ATL@@QAE@XZ 10029160 f i VideoCaptureImpl.obj
 0001:00028190       ??0?$IPropertyNotifySinkCP@VCOPOSVideoCapture@@VCComDynamicUnkArray@ATL@@@ATL@@QAE@XZ 10029190 f i VideoCaptureImpl.obj
 0001:000281c0       ??0?$IProvideClassInfo2Impl@$1?CLSID_OPOSVideoCapture@@3U_GUID@@B$1?DIID__IOPOSVideoCaptureEvents@@3U2@B$1?LIBID_OposVideoCapture_CCO@@3U2@B$00$0A@VCComTypeInfoHolder@ATL@@@ATL@@QAE@XZ 100291c0 f i VideoCaptureImpl.obj
 0001:000281f0       ??0?$IQuickActivateImpl@VCOPOSVideoCapture@@@ATL@@QAE@XZ 100291f0 f i VideoCaptureImpl.obj
 0001:00028220       ??0?$ISpecifyPropertyPagesImpl@VCOPOSVideoCapture@@@ATL@@QAE@XZ 10029220 f i VideoCaptureImpl.obj
 0001:00028250       ??0?$IViewObjectExImpl@VCOPOSVideoCapture@@@ATL@@QAE@XZ 10029250 f i VideoCaptureImpl.obj
 0001:00028280       ??0?$_ICPLocator@$1?DIID__IOPOSVideoCaptureEvents@@3U_GUID@@B@ATL@@QAE@XZ 10029280 f i VideoCaptureImpl.obj
 0001:00028290       ??0?$_ICPLocator@$1?IID_IPropertyNotifySink@@3U_GUID@@B@ATL@@QAE@XZ 10029290 f i VideoCaptureImpl.obj
 0001:000282a0       ??0CComControlBase@ATL@@QAE@AAPAUHWND__@@@Z 100292a0 f i VideoCaptureImpl.obj
 0001:00028450       ??0CComDynamicUnkArray@ATL@@QAE@XZ 10029450 f i VideoCaptureImpl.obj
 0001:00028480       ??0CDynamicStdCallThunk2@ATL@@QAE@XZ 10029480 f i VideoCaptureImpl.obj
 0001:000284a0       ??0CMessageMap@ATL@@QAE@XZ 100294a0 f i VideoCaptureImpl.obj
 0001:000284b0       ??0CWindow@ATL@@QAE@PAUHWND__@@@Z 100294b0 f i VideoCaptureImpl.obj
 0001:000284d0       ??0CWndProcThunk@ATL@@QAE@XZ 100294d0 f i VideoCaptureImpl.obj
 0001:00028500       ??0IConnectionPointContainer@@QAE@XZ 10029500 f i VideoCaptureImpl.obj
 0001:00028530       ??0IDataObject@@QAE@XZ     10029530 f i VideoCaptureImpl.obj
 0001:00028560       ??0IDispatch@@QAE@XZ       10029560 f i VideoCaptureImpl.obj
 0001:00028590       ??0IOPOSVideoCapture@@QAE@XZ 10029590 f i VideoCaptureImpl.obj
 0001:000285c0       ??0IOPOSVideoCapture_1_16@@QAE@XZ 100295c0 f i VideoCaptureImpl.obj
 0001:000285f0       ??0IObjectSafety@@QAE@XZ   100295f0 f i VideoCaptureImpl.obj
 0001:00028620       ??0IOleControl@@QAE@XZ     10029620 f i VideoCaptureImpl.obj
 0001:00028650       ??0IOleInPlaceActiveObject@@QAE@XZ 10029650 f i VideoCaptureImpl.obj
 0001:00028680       ??0IOleInPlaceObject@@QAE@XZ 10029680 f i VideoCaptureImpl.obj
 0001:000286b0       ??0IOleInPlaceObjectWindowless@@QAE@XZ 100296b0 f i VideoCaptureImpl.obj
 0001:000286e0       ??0IOleObject@@QAE@XZ      100296e0 f i VideoCaptureImpl.obj
 0001:00028710       ??0IOleWindow@@QAE@XZ      10029710 f i VideoCaptureImpl.obj
 0001:00028740       ??0IPersist@@QAE@XZ        10029740 f i VideoCaptureImpl.obj
 0001:00028770       ??0IPersistStorage@@QAE@XZ 10029770 f i VideoCaptureImpl.obj
 0001:000287a0       ??0IPersistStreamInit@@QAE@XZ 100297a0 f i VideoCaptureImpl.obj
 0001:000287d0       ??0IProvideClassInfo2@@QAE@XZ 100297d0 f i VideoCaptureImpl.obj
 0001:00028800       ??0IProvideClassInfo@@QAE@XZ 10029800 f i VideoCaptureImpl.obj
 0001:00028830       ??0IQuickActivate@@QAE@XZ  10029830 f i VideoCaptureImpl.obj
 0001:00028860       ??0ISpecifyPropertyPages@@QAE@XZ 10029860 f i VideoCaptureImpl.obj
 0001:00028890       ??0IViewObject2@@QAE@XZ    10029890 f i VideoCaptureImpl.obj
 0001:000288c0       ??0IViewObject@@QAE@XZ     100298c0 f i VideoCaptureImpl.obj
 0001:000288f0       ??0IViewObjectEx@@QAE@XZ   100298f0 f i VideoCaptureImpl.obj
 0001:00028920       ??0OposVariantResult@@QAE@XZ 10029920 f i VideoCaptureImpl.obj
 0001:00028950       ??0_CW@@QAE@PBD@Z          10029950 f i VideoCaptureImpl.obj
 0001:00028990       ??0_CW@@QAE@PB_W@Z         10029990 f i VideoCaptureImpl.obj
 0001:000289d0       ??0_CWNCC@@QAE@PBD@Z       100299d0 f i VideoCaptureImpl.obj
 0001:00028a00       ??1?$CComControl@VCOPOSVideoCapture@@V?$CWindowImpl@VCOPOSVideoCapture@@VCWindow@ATL@@V?$CWinTraits@$0FGAAAAAA@$0A@@3@@ATL@@@ATL@@UAE@XZ 10029a00 f i VideoCaptureImpl.obj
 0001:00028a30       ??1?$CComPtr@UIDataAdviseHolder@@@ATL@@QAE@XZ 10029a30 f i VideoCaptureImpl.obj
 0001:00028a60       ??1?$CComPtr@UIOleAdviseHolder@@@ATL@@QAE@XZ 10029a60 f i VideoCaptureImpl.obj
 0001:00028a90       ??1?$CComPtr@UIOleInPlaceSiteWindowless@@@ATL@@QAE@XZ 10029a90 f i VideoCaptureImpl.obj
 0001:00028ac0       ??1?$CComPtrBase@UIDataAdviseHolder@@@ATL@@QAE@XZ 10029ac0 f i VideoCaptureImpl.obj
 0001:00028b10       ??1?$CComPtrBase@UIOleAdviseHolder@@@ATL@@QAE@XZ 10029b10 f i VideoCaptureImpl.obj
 0001:00028b60       ??1?$CComPtrBase@UIOleInPlaceSiteWindowless@@@ATL@@QAE@XZ 10029b60 f i VideoCaptureImpl.obj
 0001:00028bb0       ??1?$CComQIPtr@UIDispatch@@$1?_GUID_00020400_0000_0000_c000_000000000046@@3U__s_GUID@@B@ATL@@QAE@XZ 10029bb0 f i VideoCaptureImpl.obj
 0001:00028be0       ??1?$CProxy_IOPOSEvents@VCOPOSVideoCapture@@@@QAE@XZ 10029be0 f i VideoCaptureImpl.obj
 0001:00028c10       ??1?$CWindowImpl@VCOPOSVideoCapture@@VCWindow@ATL@@V?$CWinTraits@$0FGAAAAAA@$0A@@3@@ATL@@UAE@XZ 10029c10 f i VideoCaptureImpl.obj
 0001:00028c40       ??1?$CWindowImplBaseT@VCWindow@ATL@@V?$CWinTraits@$0FGAAAAAA@$0A@@2@@ATL@@UAE@XZ 10029c40 f i VideoCaptureImpl.obj
 0001:00028c70       ??1?$CWindowImplRoot@VCWindow@ATL@@@ATL@@UAE@XZ 10029c70 f i VideoCaptureImpl.obj
 0001:00028d10       ??1?$IConnectionPointImpl@VCOPOSVideoCapture@@$1?DIID__IOPOSVideoCaptureEvents@@3U_GUID@@BVCComDynamicUnkArray@ATL@@@ATL@@QAE@XZ 10029d10 f i VideoCaptureImpl.obj
 0001:00028d90       ??1?$IConnectionPointImpl@VCOPOSVideoCapture@@$1?IID_IPropertyNotifySink@@3U_GUID@@BVCComDynamicUnkArray@ATL@@@ATL@@QAE@XZ 10029d90 f i VideoCaptureImpl.obj
 0001:00028e10       ??1?$IPropertyNotifySinkCP@VCOPOSVideoCapture@@VCComDynamicUnkArray@ATL@@@ATL@@QAE@XZ 10029e10 f i VideoCaptureImpl.obj
 0001:00028e40       ??1CComControlBase@ATL@@UAE@XZ 10029e40 f i VideoCaptureImpl.obj
 0001:00028f00       ??1CComDynamicUnkArray@ATL@@QAE@XZ 10029f00 f i VideoCaptureImpl.obj
 0001:00028f40       ??1CDynamicStdCallThunk2@ATL@@QAE@XZ 10029f40 f i VideoCaptureImpl.obj
 0001:00028f70       ??1CWndProcThunk@ATL@@QAE@XZ 10029f70 f i VideoCaptureImpl.obj
 0001:00028fa0       ??1OposVariantResult@@QAE@XZ 10029fa0 f i VideoCaptureImpl.obj
 0001:00028fd0       ??1_CW@@QAE@XZ             10029fd0 f i VideoCaptureImpl.obj
 0001:00029040       ??1_CWNCC@@QAE@XZ          1002a040 f i VideoCaptureImpl.obj
 0001:00029070       ??B_CW@@QAEPB_WXZ          1002a070 f i VideoCaptureImpl.obj
 0001:000290b0       ??B_CWNCC@@QAEPA_WXZ       1002a0b0 f i VideoCaptureImpl.obj
 0001:000290e0       ??_EOposVariant@@QAEPAXI@Z 1002a0e0 f i VideoCaptureImpl.obj
 0001:00029170       ?EventClaim@COPOSVideoCapture@@IAEXXZ 1002a170 f i VideoCaptureImpl.obj
 0001:000291b0       ?EventClose@COPOSVideoCapture@@IAEXXZ 1002a1b0 f i VideoCaptureImpl.obj
 0001:00029250       ?EventInit@COPOSVideoCapture@@IAEJXZ 1002a250 f i VideoCaptureImpl.obj
 0001:00029480       ?EventOpen@COPOSVideoCapture@@IAEXXZ 1002a480 f i VideoCaptureImpl.obj
 0001:000294c0       ?EventPreCloseRelease@COPOSVideoCapture@@IAEXXZ 1002a4c0 f i VideoCaptureImpl.obj
 0001:00029540       ?EventUninit@COPOSVideoCapture@@IAEXXZ 1002a540 f i VideoCaptureImpl.obj
 0001:00029670       ?EventWindowProc@COPOSVideoCapture@@IAGJIIJ@Z 1002a670 f i VideoCaptureImpl.obj
 0001:000297b0       ?FireEventCleanup@COPOSVideoCapture@@IAEXXZ 1002a7b0 f i VideoCaptureImpl.obj
 0001:00029800       ?FireEventSetup@COPOSVideoCapture@@IAE_NXZ 1002a800 f i VideoCaptureImpl.obj
 0001:00029870       ?GetModuleInstance@CComModule@ATL@@QAEPAUHINSTANCE__@@XZ 1002a870 f i VideoCaptureImpl.obj
 0001:00029880       ?SetRC@COPOSVideoCapture@@IAEJJ@Z 1002a880 f i VideoCaptureImpl.obj
 0001:000298a0       ?s_EventWindowProc@COPOSVideoCapture@@KGJPAUHWND__@@IIJ@Z 1002a8a0 f i VideoCaptureImpl.obj
 0001:00029940       __snwprintf                1002a940 f i VideoCaptureImpl.obj
 0001:000299a0       __vfwprintf_l              1002a9a0 f i VideoCaptureImpl.obj
 0001:000299d0       __vsnwprintf               1002a9d0 f i VideoCaptureImpl.obj
 0001:00029a00       __vsnwprintf_l             1002aa00 f i VideoCaptureImpl.obj
 0001:00029a70       _vfwprintf                 1002aa70 f i VideoCaptureImpl.obj
 0001:00029a92       _DebugBreak@0              1002aa92 f   kernel32:KERNEL32.dll
 0001:00029a98       _Sleep@4                   1002aa98 f   kernel32:KERNEL32.dll
 0001:00029a9e       _GetCurrentProcess@0       1002aa9e f   kernel32:KERNEL32.dll
 0001:00029aa4       _TerminateProcess@8        1002aaa4 f   kernel32:KERNEL32.dll
 0001:00029aaa       _MultiByteToWideChar@24    1002aaaa f   kernel32:KERNEL32.dll
 0001:00029ab0       _WideCharToMultiByte@32    1002aab0 f   kernel32:KERNEL32.dll
 0001:00029ab6       _DecodePointer@4           1002aab6 f   kernel32:KERNEL32.dll
 0001:00029abc       _RaiseException@16         1002aabc f   kernel32:KERNEL32.dll
 0001:00029ac2       _GetLastError@0            1002aac2 f   kernel32:KERNEL32.dll
 0001:00029ac8       _SetLastError@4            1002aac8 f   kernel32:KERNEL32.dll
 0001:00029ace       _InitializeCriticalSectionEx@12 1002aace f   kernel32:KERNEL32.dll
 0001:00029ad4       _DeleteCriticalSection@4   1002aad4 f   kernel32:KERNEL32.dll
 0001:00029ada       _EncodePointer@4           1002aada f   kernel32:KERNEL32.dll
 0001:00029ae0       _EnterCriticalSection@4    1002aae0 f   kernel32:KERNEL32.dll
 0001:00029ae6       _LeaveCriticalSection@4    1002aae6 f   kernel32:KERNEL32.dll
 0001:00029aec       _ResetEvent@4              1002aaec f   kernel32:KERNEL32.dll
 0001:00029af2       _ReleaseMutex@4            1002aaf2 f   kernel32:KERNEL32.dll
 0001:00029af8       _WaitForSingleObject@8     1002aaf8 f   kernel32:KERNEL32.dll
 0001:00029afe       _GetCurrentThreadId@0      1002aafe f   kernel32:KERNEL32.dll
 0001:00029b04       _DisableThreadLibraryCalls@4 1002ab04 f   kernel32:KERNEL32.dll
 0001:00029b0a       _FreeLibrary@4             1002ab0a f   kernel32:KERNEL32.dll
 0001:00029b10       _GetModuleFileNameW@12     1002ab10 f   kernel32:KERNEL32.dll
 0001:00029b16       _GetModuleHandleW@4        1002ab16 f   kernel32:KERNEL32.dll
 0001:00029b1c       _GetProcAddress@8          1002ab1c f   kernel32:KERNEL32.dll
 0001:00029b22       _LoadLibraryExW@12         1002ab22 f   kernel32:KERNEL32.dll
 0001:00029b28       _LoadResource@8            1002ab28 f   kernel32:KERNEL32.dll
 0001:00029b2e       _SizeofResource@8          1002ab2e f   kernel32:KERNEL32.dll
 0001:00029b34       _FindResourceW@12          1002ab34 f   kernel32:KERNEL32.dll
 0001:00029b3a       _GlobalAlloc@8             1002ab3a f   kernel32:KERNEL32.dll
 0001:00029b40       _GlobalUnlock@4            1002ab40 f   kernel32:KERNEL32.dll
 0001:00029b46       _GlobalLock@4              1002ab46 f   kernel32:KERNEL32.dll
 0001:00029b4c       _MulDiv@12                 1002ab4c f   kernel32:KERNEL32.dll
 0001:00029b52       _lstrcmpiW@8               1002ab52 f   kernel32:KERNEL32.dll
 0001:00029b58       _DeleteFileW@4             1002ab58 f   kernel32:KERNEL32.dll
 0001:00029b5e       _CloseHandle@4             1002ab5e f   kernel32:KERNEL32.dll
 0001:00029b64       _SetEvent@4                1002ab64 f   kernel32:KERNEL32.dll
 0001:00029b6a       _CreateMutexW@12           1002ab6a f   kernel32:KERNEL32.dll
 0001:00029b70       _CreateEventW@16           1002ab70 f   kernel32:KERNEL32.dll
 0001:00029b76       _GetCurrentProcessId@0     1002ab76 f   kernel32:KERNEL32.dll
 0001:00029b7c       _LocalFree@4               1002ab7c f   kernel32:KERNEL32.dll
 0001:00029b82       _FormatMessageW@28         1002ab82 f   kernel32:KERNEL32.dll
 0001:00029b88       _GetActiveWindow@0         1002ab88 f   user32:USER32.dll
 0001:00029b8e       _MessageBoxW@16            1002ab8e f   user32:USER32.dll
 0001:00029b94       _UnregisterClassW@8        1002ab94 f   user32:USER32.dll
 0001:00029b9a       _PostMessageW@16           1002ab9a f   user32:USER32.dll
 0001:00029ba0       _DefWindowProcW@16         1002aba0 f   user32:USER32.dll
 0001:00029ba6       _CallWindowProcW@20        1002aba6 f   user32:USER32.dll
 0001:00029bac       _RegisterClassExW@4        1002abac f   user32:USER32.dll
 0001:00029bb2       _GetClassInfoExW@12        1002abb2 f   user32:USER32.dll
 0001:00029bb8       _CreateWindowExW@48        1002abb8 f   user32:USER32.dll
 0001:00029bbe       _IsWindow@4                1002abbe f   user32:USER32.dll
 0001:00029bc4       _IsChild@8                 1002abc4 f   user32:USER32.dll
 0001:00029bca       _DestroyWindow@4           1002abca f   user32:USER32.dll
 0001:00029bd0       _ShowWindow@8              1002abd0 f   user32:USER32.dll
 0001:00029bd6       _SetWindowPos@28           1002abd6 f   user32:USER32.dll
 0001:00029bdc       _CharNextW@4               1002abdc f   user32:USER32.dll
 0001:00029be2       _SetFocus@4                1002abe2 f   user32:USER32.dll
 0001:00029be8       _GetFocus@0                1002abe8 f   user32:USER32.dll
 0001:00029bee       _GetKeyState@4             1002abee f   user32:USER32.dll
 0001:00029bf4       _GetDC@4                   1002abf4 f   user32:USER32.dll
 0001:00029bfa       _ReleaseDC@8               1002abfa f   user32:USER32.dll
 0001:00029c00       _BeginPaint@8              1002ac00 f   user32:USER32.dll
 0001:00029c06       _EndPaint@8                1002ac06 f   user32:USER32.dll
 0001:00029c0c       _SetWindowRgn@12           1002ac0c f   user32:USER32.dll
 0001:00029c12       _InvalidateRect@12         1002ac12 f   user32:USER32.dll
 0001:00029c18       _GetClientRect@8           1002ac18 f   user32:USER32.dll
 0001:00029c1e       _IntersectRect@12          1002ac1e f   user32:USER32.dll
 0001:00029c24       _UnionRect@12              1002ac24 f   user32:USER32.dll
 0001:00029c2a       _OffsetRect@12             1002ac2a f   user32:USER32.dll
 0001:00029c30       _EqualRect@8               1002ac30 f   user32:USER32.dll
 0001:00029c36       _PtInRect@12               1002ac36 f   user32:USER32.dll
 0001:00029c3c       _GetWindowLongW@8          1002ac3c f   user32:USER32.dll
 0001:00029c42       _SetWindowLongW@12         1002ac42 f   user32:USER32.dll
 0001:00029c48       _GetParent@4               1002ac48 f   user32:USER32.dll
 0001:00029c4e       _LoadCursorW@8             1002ac4e f   user32:USER32.dll
 0001:00029c54       _PeekMessageW@20           1002ac54 f   user32:USER32.dll
 0001:00029c5a       _RegisterClassW@4          1002ac5a f   user32:USER32.dll
 0001:00029c60       _LoadBitmapW@8             1002ac60 f   user32:USER32.dll
 0001:00029c66       _CloseMetaFile@4           1002ac66 f   gdi32:GDI32.dll
 0001:00029c6c       _CreateDCW@16              1002ac6c f   gdi32:GDI32.dll
 0001:00029c72       _CreateMetaFileW@4         1002ac72 f   gdi32:GDI32.dll
 0001:00029c78       _CreateRectRgnIndirect@4   1002ac78 f   gdi32:GDI32.dll
 0001:00029c7e       _DeleteDC@4                1002ac7e f   gdi32:GDI32.dll
 0001:00029c84       _DeleteMetaFile@4          1002ac84 f   gdi32:GDI32.dll
 0001:00029c8a       _GetDeviceCaps@8           1002ac8a f   gdi32:GDI32.dll
 0001:00029c90       _RestoreDC@8               1002ac90 f   gdi32:GDI32.dll
 0001:00029c96       _SaveDC@4                  1002ac96 f   gdi32:GDI32.dll
 0001:00029c9c       _SetMapMode@8              1002ac9c f   gdi32:GDI32.dll
 0001:00029ca2       _LPtoDP@12                 1002aca2 f   gdi32:GDI32.dll
 0001:00029ca8       _SetViewportOrgEx@16       1002aca8 f   gdi32:GDI32.dll
 0001:00029cae       _SetWindowExtEx@16         1002acae f   gdi32:GDI32.dll
 0001:00029cb4       _SetWindowOrgEx@16         1002acb4 f   gdi32:GDI32.dll
 0001:00029cba       _BitBlt@36                 1002acba f   gdi32:GDI32.dll
 0001:00029cc0       _CreateCompatibleDC@4      1002acc0 f   gdi32:GDI32.dll
 0001:00029cc6       _DeleteObject@4            1002acc6 f   gdi32:GDI32.dll
 0001:00029ccc       _SelectObject@8            1002accc f   gdi32:GDI32.dll
 0001:00029cd2       _GetObjectW@12             1002acd2 f   gdi32:GDI32.dll
 0001:00029cd8       _RegCloseKey@4             1002acd8 f   advapi32:ADVAPI32.dll
 0001:00029cde       _RegCreateKeyExW@36        1002acde f   advapi32:ADVAPI32.dll
 0001:00029ce4       _RegDeleteKeyW@8           1002ace4 f   advapi32:ADVAPI32.dll
 0001:00029cea       _RegDeleteValueW@8         1002acea f   advapi32:ADVAPI32.dll
 0001:00029cf0       _RegEnumKeyExW@32          1002acf0 f   advapi32:ADVAPI32.dll
 0001:00029cf6       _RegOpenKeyExW@20          1002acf6 f   advapi32:ADVAPI32.dll
 0001:00029cfc       _RegQueryInfoKeyW@48       1002acfc f   advapi32:ADVAPI32.dll
 0001:00029d02       _RegSetValueExW@24         1002ad02 f   advapi32:ADVAPI32.dll
 0001:00029d08       _RegQueryValueExW@24       1002ad08 f   advapi32:ADVAPI32.dll
 0001:00029d0e       _CoCreateInstance@20       1002ad0e f   ole32:ole32.dll
 0001:00029d14       _StringFromGUID2@12        1002ad14 f   ole32:ole32.dll
 0001:00029d1a       _CoTaskMemAlloc@4          1002ad1a f   ole32:ole32.dll
 0001:00029d20       _CoTaskMemRealloc@8        1002ad20 f   ole32:ole32.dll
 0001:00029d26       _CoTaskMemFree@4           1002ad26 f   ole32:ole32.dll
 0001:00029d2c       _ReadClassStm@8            1002ad2c f   ole32:ole32.dll
 0001:00029d32       _WriteClassStm@8           1002ad32 f   ole32:ole32.dll
 0001:00029d38       _CreateDataAdviseHolder@4  1002ad38 f   ole32:ole32.dll
 0001:00029d3e       _OleSaveToStream@8         1002ad3e f   ole32:ole32.dll
 0001:00029d44       _CreateOleAdviseHolder@4   1002ad44 f   ole32:ole32.dll
 0001:00029d4a       _OleRegGetUserType@12      1002ad4a f   ole32:ole32.dll
 0001:00029d50       _OleRegGetMiscStatus@12    1002ad50 f   ole32:ole32.dll
 0001:00029d56       _OleRegEnumVerbs@8         1002ad56 f   ole32:ole32.dll
 0001:00029d5c       _CLSIDFromProgID@8         1002ad5c f   ole32:ole32.dll
 0001:00029d62       _SysAllocString@4          1002ad62 f   oleaut32:OLEAUT32.dll
 0001:00029d68       _SysAllocStringLen@8       1002ad68 f   oleaut32:OLEAUT32.dll
 0001:00029d6e       _SysFreeString@4           1002ad6e f   oleaut32:OLEAUT32.dll
 0001:00029d74       _SysStringLen@4            1002ad74 f   oleaut32:OLEAUT32.dll
 0001:00029d7a       _VariantClear@4            1002ad7a f   oleaut32:OLEAUT32.dll
 0001:00029d80       _VariantCopyInd@8          1002ad80 f   oleaut32:OLEAUT32.dll
 0001:00029d86       _VariantChangeType@16      1002ad86 f   oleaut32:OLEAUT32.dll
 0001:00029d8c       _SysStringByteLen@4        1002ad8c f   oleaut32:OLEAUT32.dll
 0001:00029d92       _SysAllocStringByteLen@8   1002ad92 f   oleaut32:OLEAUT32.dll
 0001:00029d98       _VariantInit@4             1002ad98 f   oleaut32:OLEAUT32.dll
 0001:00029d9e       _VarUI4FromStr@16          1002ad9e f   oleaut32:OLEAUT32.dll
 0001:00029da4       _LoadTypeLib@8             1002ada4 f   oleaut32:OLEAUT32.dll
 0001:00029daa       _LoadRegTypeLib@20         1002adaa f   oleaut32:OLEAUT32.dll
 0001:00029db0       _RegisterTypeLib@12        1002adb0 f   oleaut32:OLEAUT32.dll
 0001:00029db6       _UnRegisterTypeLib@20      1002adb6 f   oleaut32:OLEAUT32.dll
 0001:00029dbc       _OleCreatePropertyFrame@44 1002adbc f   oleaut32:OLEAUT32.dll
 0001:00029dd0       @_RTC_AllocaHelper@12      1002add0 f   LIBCMTD:stack.obj
 0001:00029e10       @_RTC_CheckStackVars2@12   1002ae10 f   LIBCMTD:stack.obj
 0001:00029ef0       @_RTC_CheckStackVars@8     1002aef0 f   LIBCMTD:stack.obj
 0001:00029f50       __RTC_CheckEsp             1002af50 f   LIBCMTD:stack.obj
 0001:00029f80       @__security_check_cookie@4 1002af80 f   LIBCMTD:secchk.obj
 0001:00029f90       __CRT_RTC_INIT             1002af90 f   LIBCMTD:init.obj
 0001:00029fa0       __CRT_RTC_INITW            1002afa0 f   LIBCMTD:init.obj
 0001:00029fb0       __RTC_InitBase             1002afb0 f   LIBCMTD:init.obj
 0001:00029fe0       __RTC_Shutdown             1002afe0 f   LIBCMTD:init.obj
 0001:0002a000       ??_U@YAPAXI@Z              1002b000 f   LIBCMTD:new_array.obj
 0001:0002a020       ??3@YAXPAXI@Z              1002b020 f   LIBCMTD:delete_scalar_size.obj
 0001:0002a040       ??_V@YAXPAX@Z              1002b040 f   LIBCMTD:delete_array.obj
 0001:0002a060       ??_V@YAXPAXI@Z             1002b060 f   LIBCMTD:delete_array_size.obj
 0001:0002a080       ?configure_argv@__scrt_narrow_argv_policy@@SAHXZ 1002b080 f i LIBCMTD:utility.obj
 0001:0002a130       ?initialize_environment@__scrt_narrow_environment_policy@@SAHXZ 1002b130 f i LIBCMTD:utility.obj
 0001:0002a1b0       _NtCurrentTeb              1002b1b0 f i LIBCMTD:utility.obj
 0001:0002a1c0       ___scrt_acquire_startup_lock 1002b1c0 f   LIBCMTD:utility.obj
 0001:0002a210       ___scrt_dllmain_after_initialize_c 1002b210 f   LIBCMTD:utility.obj
 0001:0002a240       ___scrt_dllmain_before_initialize_c 1002b240 f   LIBCMTD:utility.obj
 0001:0002a260       ___scrt_dllmain_crt_thread_attach 1002b260 f   LIBCMTD:utility.obj
 0001:0002a290       ___scrt_dllmain_crt_thread_detach 1002b290 f   LIBCMTD:utility.obj
 0001:0002a2b0       ___scrt_dllmain_exception_filter 1002b2b0 f   LIBCMTD:utility.obj
 0001:0002a300       ___scrt_dllmain_uninitialize_c 1002b300 f   LIBCMTD:utility.obj
 0001:0002a330       ___scrt_dllmain_uninitialize_critical 1002b330 f   LIBCMTD:utility.obj
 0001:0002a350       ___scrt_initialize_crt     1002b350 f   LIBCMTD:utility.obj
 0001:0002a3a0       ___scrt_initialize_onexit_tables 1002b3a0 f   LIBCMTD:utility.obj
 0001:0002a480       ___scrt_is_nonwritable_in_current_image 1002b480 f   LIBCMTD:utility.obj
 0001:0002a5b0       ___scrt_release_startup_lock 1002b5b0 f   LIBCMTD:utility.obj
 0001:0002a5e0       ___scrt_uninitialize_crt   1002b5e0 f   LIBCMTD:utility.obj
 0001:0002a620       __onexit                   1002b620 f   LIBCMTD:utility.obj
 0001:0002a690       _at_quick_exit             1002b690 f   LIBCMTD:utility.obj
 0001:0002a6d0       _atexit                    1002b6d0 f   LIBCMTD:utility.obj
 0001:0002a700       ??3@YAXPAX@Z               1002b700 f   LIBCMTD:delete_scalar.obj
 0001:0002a720       ___raise_securityfailure   1002b720 f   LIBCMTD:gs_report.obj
 0001:0002a750       ___report_gsfailure        1002b750 f   LIBCMTD:gs_report.obj
 0001:0002a860       ___report_rangecheckfailure 1002b860 f   LIBCMTD:gs_report.obj
 0001:0002a870       ___report_securityfailure  1002b870 f   LIBCMTD:gs_report.obj
 0001:0002a950       ___report_securityfailureEx 1002b950 f   LIBCMTD:gs_report.obj
 0001:0002aba0       __Init_thread_abort        1002bba0 f   LIBCMTD:thread_safe_statics.obj
 0001:0002abc0       __Init_thread_footer       1002bbc0 f   LIBCMTD:thread_safe_statics.obj
 0001:0002ac10       __Init_thread_header       1002bc10 f   LIBCMTD:thread_safe_statics.obj
 0001:0002ac80       __Init_thread_lock         1002bc80 f   LIBCMTD:thread_safe_statics.obj
 0001:0002ac90       __Init_thread_notify       1002bc90 f   LIBCMTD:thread_safe_statics.obj
 0001:0002ace0       __Init_thread_unlock       1002bce0 f   LIBCMTD:thread_safe_statics.obj
 0001:0002acf0       __Init_thread_wait         1002bcf0 f   LIBCMTD:thread_safe_statics.obj
 0001:0002ad80       ??2@YAPAXIABUnothrow_t@std@@@Z 1002bd80 f   LIBCMTD:new_scalar_nothrow.obj
 0001:0002ae10       ??_U@YAPAXIABUnothrow_t@std@@@Z 1002be10 f   LIBCMTD:new_array_nothrow.obj
 0001:0002ae30       __allmul                   1002be30 f   LIBCMTD:llmul.obj
 0001:0002ae70       __alloca_probe_16          1002be70 f   LIBCMTD:alloca16.obj
 0001:0002ae86       __alloca_probe_8           1002be86     LIBCMTD:alloca16.obj
 0001:0002aea0       __alloca_probe             1002bea0 f   LIBCMTD:chkstk.obj
 0001:0002aea0       __chkstk                   1002bea0 f   LIBCMTD:chkstk.obj
 0001:0002b3a0       __CRT_INIT@12              1002c3a0 f   LIBCMTD:dll_dllmain.obj
 0001:0002b3c0       __DllMainCRTStartup@12     1002c3c0 f   LIBCMTD:dll_dllmain.obj
 0001:0002b480       ?_RTC_AllocaFailure@@YAXPAXPAU_RTC_ALLOCA_NODE@@H@Z 1002c480 f   LIBCMTD:error.obj
 0001:0002b570       ?_RTC_Failure@@YAXPAXH@Z   1002c570 f   LIBCMTD:error.obj
 0001:0002b5c0       ?_RTC_StackFailure@@YAXPAXPBD@Z 1002c5c0 f   LIBCMTD:error.obj
 0001:0002b980       __RTC_UninitUse            1002c980 f   LIBCMTD:error.obj
 0001:0002ba30       __vsprintf_s_l             1002ca30 f i LIBCMTD:error.obj
 0001:0002ba60       _sprintf_s                 1002ca60 f i LIBCMTD:error.obj
 0001:0002ba80       ?_RTC_GetErrorFunc@@YAP6AHHPBDH00ZZPBX@Z 1002ca80 f   LIBCMTD:userapi.obj
 0001:0002ba90       ?_RTC_GetErrorFuncW@@YAP6AHHPB_WH00ZZPBX@Z 1002ca90 f   LIBCMTD:userapi.obj
 0001:0002baa0       __RTC_GetErrDesc           1002caa0 f   LIBCMTD:userapi.obj
 0001:0002bac0       __RTC_NumErrors            1002cac0 f   LIBCMTD:userapi.obj
 0001:0002bad0       __RTC_SetErrorFunc         1002cad0 f   LIBCMTD:userapi.obj
 0001:0002baf0       __RTC_SetErrorFuncW        1002caf0 f   LIBCMTD:userapi.obj
 0001:0002bb10       __RTC_SetErrorType         1002cb10 f   LIBCMTD:userapi.obj
 0001:0002bb40       ??2@YAPAXI@Z               1002cb40 f   LIBCMTD:new_scalar.obj
 0001:0002bb90       ___isa_available_init      1002cb90 f   LIBCMTD:cpu_disp.obj
 0001:0002bed0       __get_startup_argv_mode    1002ced0 f   LIBCMTD:argv_mode.obj
 0001:0002bee0       ___scrt_is_ucrt_dll_in_use 1002cee0 f   LIBCMTD:ucrt_detection.obj
 0001:0002bf10       ___scrt_fastfail           1002cf10 f   LIBCMTD:utility_desktop.obj
 0001:0002c050       ___scrt_get_show_window_mode 1002d050 f   LIBCMTD:utility_desktop.obj
 0001:0002c090       ___scrt_initialize_mta     1002d090 f   LIBCMTD:utility_desktop.obj
 0001:0002c0a0       ___scrt_initialize_winrt   1002d0a0 f   LIBCMTD:utility_desktop.obj
 0001:0002c0b0       ___scrt_is_managed_app     1002d0b0 f   LIBCMTD:utility_desktop.obj
 0001:0002c140       ___scrt_set_unhandled_exception_filter 1002d140 f   LIBCMTD:utility_desktop.obj
 0001:0002c150       ___scrt_stub_for_initialize_mta 1002d150 f   LIBCMTD:utility_desktop.obj
 0001:0002c150       ___scrt_exe_initialize_mta 1002d150 f   LIBCMTD:utility_desktop.obj
 0001:0002c160       ___scrt_unhandled_exception_filter@4 1002d160 f   LIBCMTD:utility_desktop.obj
 0001:0002c1e0       __crt_debugger_hook        1002d1e0 f   LIBCMTD:utility_desktop.obj
 0001:0002c1f0       @_guard_check_icall_nop@4  1002d1f0 f i LIBCMTD:guard_support.obj
 0001:0002c200       _ReadNoFence               1002d200 f i LIBCMTD:guard_support.obj
 0001:0002c220       _ReadPointerNoFence        1002d220 f i LIBCMTD:guard_support.obj
 0001:0002c240       ___castguard_check_failure_debugbreak 1002d240 f i LIBCMTD:guard_support.obj
 0001:0002c260       ___castguard_check_failure_fastfail 1002d260 f i LIBCMTD:guard_support.obj
 0001:0002c280       ___castguard_check_failure_nop 1002d280 f i LIBCMTD:guard_support.obj
 0001:0002c290       ___castguard_check_failure_os_handled 1002d290 f i LIBCMTD:guard_support.obj
 0001:0002c320       ___castguard_slow_path_check_debugbreak 1002d320 f i LIBCMTD:guard_support.obj
 0001:0002c350       ___castguard_slow_path_check_fastfail 1002d350 f i LIBCMTD:guard_support.obj
 0001:0002c390       ___castguard_slow_path_check_nop 1002d390 f i LIBCMTD:guard_support.obj
 0001:0002c3a0       ___castguard_slow_path_check_os_handled 1002d3a0 f i LIBCMTD:guard_support.obj
 0001:0002c420       __guard_icall_checks_enforced 1002d420 f i LIBCMTD:guard_support.obj
 0001:0002c4c0       ___security_init_cookie    1002d4c0 f   LIBCMTD:gs_support.obj
 0001:0002c540       ?__scrt_initialize_type_info@@YAXXZ 1002d540 f   LIBCMTD:tncleanup.obj
 0001:0002c550       ?__scrt_uninitialize_type_info@@YAXXZ 1002d550 f   LIBCMTD:tncleanup.obj
 0001:0002c570       ___local_stdio_scanf_options 1002d570 f i LIBCMTD:default_local_stdio_options.obj
 0001:0002c580       ___scrt_initialize_default_local_stdio_options 1002d580 f   LIBCMTD:default_local_stdio_options.obj
 0001:0002c5c0       ___scrt_get_dyn_tls_init_callback 1002d5c0 f   LIBCMTD:dyn_tls_init.obj
 0001:0002c5d0       __RTC_Initialize           1002d5d0 f   LIBCMTD:initsect.obj
 0001:0002c600       __RTC_Terminate            1002d600 f   LIBCMTD:initsect.obj
 0001:0002cab0       ?_RTC_GetSrcLine@@YAHPAEPA_WKPAH1K@Z 1002dab0 f   LIBCMTD:pdblkup.obj
 0001:0002ce30       __except_handler4_noexcept 1002de30 f   LIBCMTD:chandler4_noexcept.obj
 0001:0002ce90       ??0bad_alloc@std@@AAE@QBD@Z 1002de90 f i LIBCMTD:throw_bad_alloc.obj
 0001:0002cec0       ??0bad_alloc@std@@QAE@ABV01@@Z 1002dec0 f i LIBCMTD:throw_bad_alloc.obj
 0001:0002cef0       ??0bad_alloc@std@@QAE@XZ   1002def0 f i LIBCMTD:throw_bad_alloc.obj
 0001:0002cf20       ??0bad_array_new_length@std@@QAE@ABV01@@Z 1002df20 f i LIBCMTD:throw_bad_alloc.obj
 0001:0002cf50       ??0bad_array_new_length@std@@QAE@XZ 1002df50 f i LIBCMTD:throw_bad_alloc.obj
 0001:0002cf80       ??0exception@std@@QAE@ABV01@@Z 1002df80 f i LIBCMTD:throw_bad_alloc.obj
 0001:0002cfc0       ??0exception@std@@QAE@QBDH@Z 1002dfc0 f i LIBCMTD:throw_bad_alloc.obj
 0001:0002cff0       ??1bad_alloc@std@@UAE@XZ   1002dff0 f i LIBCMTD:throw_bad_alloc.obj
 0001:0002d010       ??1bad_array_new_length@std@@UAE@XZ 1002e010 f i LIBCMTD:throw_bad_alloc.obj
 0001:0002d030       ??1exception@std@@UAE@XZ   1002e030 f i LIBCMTD:throw_bad_alloc.obj
 0001:0002d060       ??_Ebad_alloc@std@@UAEPAXI@Z 1002e060 f i LIBCMTD:throw_bad_alloc.obj
 0001:0002d060       ??_Gbad_alloc@std@@UAEPAXI@Z 1002e060 f i LIBCMTD:throw_bad_alloc.obj
 0001:0002d090       ??_Ebad_array_new_length@std@@UAEPAXI@Z 1002e090 f i LIBCMTD:throw_bad_alloc.obj
 0001:0002d090       ??_Gbad_array_new_length@std@@UAEPAXI@Z 1002e090 f i LIBCMTD:throw_bad_alloc.obj
 0001:0002d0c0       ??_Eexception@std@@UAEPAXI@Z 1002e0c0 f i LIBCMTD:throw_bad_alloc.obj
 0001:0002d0c0       ??_Gexception@std@@UAEPAXI@Z 1002e0c0 f i LIBCMTD:throw_bad_alloc.obj
 0001:0002d0f0       ?__scrt_throw_std_bad_alloc@@YAXXZ 1002e0f0 f   LIBCMTD:throw_bad_alloc.obj
 0001:0002d110       ?__scrt_throw_std_bad_array_new_length@@YAXXZ 1002e110 f   LIBCMTD:throw_bad_alloc.obj
 0001:0002d130       ?what@exception@std@@UBEPBDXZ 1002e130 f i LIBCMTD:throw_bad_alloc.obj
 0001:0002d160       ??1type_info@@UAE@XZ       1002e160 f   LIBCMTD:std_type_info_static.obj
 0001:0002d180       ??_Etype_info@@UAEPAXI@Z   1002e180 f i LIBCMTD:std_type_info_static.obj
 0001:0002d180       ??_Gtype_info@@UAEPAXI@Z   1002e180 f i LIBCMTD:std_type_info_static.obj
 0001:0002d1ae       ??$?2PAUHINSTANCE__@@@Wrapper@?$CSimpleArray@PAUHINSTANCE__@@V?$CSimpleArrayEqualHelper@PAUHINSTANCE__@@@ATL@@@ATL@@SAPAXIPAPAUHINSTANCE__@@@Z 1002e1ae f i atls:atlbase.obj
 0001:0002d1b6       ??0?$CSimpleArray@PAUHINSTANCE__@@V?$CSimpleArrayEqualHelper@PAUHINSTANCE__@@@ATL@@@ATL@@QAE@XZ 1002e1b6 f i atls:atlbase.obj
 0001:0002d1c3       ??0CAtlBaseModule@ATL@@QAE@XZ 1002e1c3 f   atls:atlbase.obj
 0001:0002d216       ??0Wrapper@?$CSimpleArray@PAUHINSTANCE__@@V?$CSimpleArrayEqualHelper@PAUHINSTANCE__@@@ATL@@@ATL@@QAE@ABQAUHINSTANCE__@@@Z 1002e216 f i atls:atlbase.obj
 0001:0002d226       ??0_ATL_BASE_MODULE70@ATL@@QAE@XZ 1002e226 f i atls:atlbase.obj
 0001:0002d249       ??1?$CSimpleArray@PAUHINSTANCE__@@V?$CSimpleArrayEqualHelper@PAUHINSTANCE__@@@ATL@@@ATL@@QAE@XZ 1002e249 f i atls:atlbase.obj
 0001:0002d24e       ??1CAtlBaseModule@ATL@@QAE@XZ 1002e24e f   atls:atlbase.obj
 0001:0002d264       ??1_ATL_BASE_MODULE70@ATL@@QAE@XZ 1002e264 f i atls:atlbase.obj
 0001:0002d26c       ??A?$CSimpleArray@PAUHINSTANCE__@@V?$CSimpleArrayEqualHelper@PAUHINSTANCE__@@@ATL@@@ATL@@QAEAAPAUHINSTANCE__@@H@Z 1002e26c f i atls:atlbase.obj
 0001:0002d291       ?Add@?$CSimpleArray@PAUHINSTANCE__@@V?$CSimpleArrayEqualHelper@PAUHINSTANCE__@@@ATL@@@ATL@@QAEHABQAUHINSTANCE__@@@Z 1002e291 f i atls:atlbase.obj
 0001:0002d309       ?AddResourceInstance@CAtlBaseModule@ATL@@QAE_NPAUHINSTANCE__@@@Z 1002e309 f   atls:atlbase.obj
 0001:0002d33c       ?GetHInstanceAt@CAtlBaseModule@ATL@@QAEPAUHINSTANCE__@@H@Z 1002e33c f   atls:atlbase.obj
 0001:0002d381       ?GetSize@?$CSimpleArray@PAUHINSTANCE__@@V?$CSimpleArrayEqualHelper@PAUHINSTANCE__@@@ATL@@@ATL@@QBEHXZ 1002e381 f i atls:atlbase.obj
 0001:0002d385       ?InternalSetAtIndex@?$CSimpleArray@PAUHINSTANCE__@@V?$CSimpleArrayEqualHelper@PAUHINSTANCE__@@@ATL@@@ATL@@QAEXHABQAUHINSTANCE__@@@Z 1002e385 f i atls:atlbase.obj
 0001:0002d39f       ?RemoveAll@?$CSimpleArray@PAUHINSTANCE__@@V?$CSimpleArrayEqualHelper@PAUHINSTANCE__@@@ATL@@@ATL@@QAEXXZ 1002e39f f i atls:atlbase.obj
 0001:0002d3bc       ?RemoveAt@?$CSimpleArray@PAUHINSTANCE__@@V?$CSimpleArrayEqualHelper@PAUHINSTANCE__@@@ATL@@@ATL@@QAEHH@Z 1002e3bc f i atls:atlbase.obj
 0001:0002d404       ?RemoveResourceInstance@CAtlBaseModule@ATL@@QAE_NPAUHINSTANCE__@@@Z 1002e404 f   atls:atlbase.obj
 0001:0002d461       ?memmove_s@Checked@ATL@@YAXPAXIPBXI@Z 1002e461 f i atls:atlbase.obj
 0001:0002d7be       ?GetCodeAddress@_stdcallthunk@ATL@@QAEPAXXZ 1002e7be f i atls:atlthunk.obj
 0001:0002d7e8       ?Init@_stdcallthunk@ATL@@QAEHKPAX@Z 1002e7e8 f i atls:atlthunk.obj
 0001:0002d81d       ?__AllocStdCallThunk@@YGPAXXZ 1002e81d f   atls:atlthunk.obj
 0001:0002d822       ?__AllocStdCallThunk@ATL@@YGPAXXZ 1002e822 f   atls:atlthunk.obj
 0001:0002d827       ?__AllocStdCallThunk_cmn@@YAPAXXZ 1002e827 f   atls:atlthunk.obj
 0001:0002d8ed       ?__FreeStdCallThunk@@YGXPAX@Z 1002e8ed f   atls:atlthunk.obj
 0001:0002d8fd       ?__FreeStdCallThunk@ATL@@YGXPAX@Z 1002e8fd f   atls:atlthunk.obj
 0001:0002d90d       ?__FreeStdCallThunk_cmn@@YAXPAX@Z 1002e90d f   atls:atlthunk.obj
 0001:0002d9a9       _AtlThunk_AllocateData@0   1002e9a9 f   atls:atlthunk.obj
 0001:0002da0e       _AtlThunk_DataToCode@4     1002ea0e f   atls:atlthunk.obj
 0001:0002da55       _AtlThunk_FreeData@4       1002ea55 f   atls:atlthunk.obj
 0001:0002daab       _AtlThunk_InitData@12      1002eaab f   atls:atlthunk.obj
 0001:0002dafa       _MemoryBarrier             1002eafa f i atls:atlthunk.obj
 0001:0002db08       __InlineInterlockedCompareExchangePointer 1002eb08 f i atls:atlthunk.obj
 0001:0002db20       _memset                    1002eb20 f   libvcruntimed:memset.obj
 0001:0002dc80       ??$__crt_interlocked_exchange_pointer@$$A6AXXZP6AXXZ@@YAP6AXXZPDS6AXXZQ6AXXZ@Z 1002ec80 f i libvcruntimed:purevirt.obj
 0001:0002dc90       ??$__crt_interlocked_read_pointer@$$A6AXXZ@@YAP6AXXZPDS6AXXZ@Z 1002ec90 f i libvcruntimed:purevirt.obj
 0001:0002dcb0       ?__crt_interlocked_read_32@@YAHPDH@Z 1002ecb0 f i libvcruntimed:purevirt.obj
 0001:0002dcd0       __get_purecall_handler     1002ecd0 f   libvcruntimed:purevirt.obj
 0001:0002dcf0       __purecall                 1002ecf0 f   libvcruntimed:purevirt.obj
 0001:0002dd20       __set_purecall_handler     1002ed20 f   libvcruntimed:purevirt.obj
 0001:0002def0       _memcmp                    1002eef0 f   libvcruntimed:memcmp.obj
 0001:0002e7c0       _memcpy                    1002f7c0 f   libvcruntimed:memcpy.obj
 0001:0002ed40       _wcsstr                    1002fd40 f   libvcruntimed:wcsstr.obj
 0001:0002f270       __except_handler4          10030270 f   libvcruntimed:chandler4.obj
 0001:0002f460       ___vcrt_initialize         10030460 f   libvcruntimed:initialization.obj
 0001:0002f4a0       ___vcrt_thread_attach      100304a0 f   libvcruntimed:initialization.obj
 0001:0002f4c0       ___vcrt_thread_detach      100304c0 f   libvcruntimed:initialization.obj
 0001:0002f4e0       ___vcrt_uninitialize       100304e0 f   libvcruntimed:initialization.obj
 0001:0002f500       ___vcrt_uninitialize_critical 10030500 f   libvcruntimed:initialization.obj
 0001:0002f520       ??$?0AAViterator@TryBlockMap@__FrameHandler3@@AAV012@$0A@@?$pair@Viterator@TryBlockMap@__FrameHandler3@@V123@@std@@QAE@AAViterator@TryBlockMap@__FrameHandler3@@0@Z 10030520 f i libvcruntimed:trnsctrl.obj
 0001:0002f570       ??$forward@AAViterator@TryBlockMap@__FrameHandler3@@@std@@YAAAViterator@TryBlockMap@__FrameHandler3@@AAV123@@Z 10030570 f i libvcruntimed:trnsctrl.obj
 0001:0002f580       ??0iterator@TryBlockMap@__FrameHandler3@@QAE@AAV12@I@Z 10030580 f i libvcruntimed:trnsctrl.obj
 0001:0002f5b0       ?GetRangeOfTrysToCheck@__FrameHandler3@@SA?AU?$pair@Viterator@TryBlockMap@__FrameHandler3@@V123@@std@@AAVTryBlockMap@1@HPAXPBU_s_FuncInfo@@H@Z 100305b0 f   libvcruntimed:trnsctrl.obj
 0001:0002f690       ?_CallCatchBlock2@@YAPAXPAUEHRegistrationNode@@PBU_s_FuncInfo@@PAXHK@Z 10030690 f   libvcruntimed:trnsctrl.obj
 0001:0002f700       ?_CallSETranslator@@YAHPAUEHExceptionRecord@@PAUEHRegistrationNode@@PAX2PBU_s_FuncInfo@@H1@Z 10030700 f   libvcruntimed:trnsctrl.obj
 0001:0002f810       ?_JumpToContinuation@@YGXPAXPAUEHRegistrationNode@@@Z 10030810 f   libvcruntimed:trnsctrl.obj
 0001:0002f850       ?_UnwindNestedFrames@@YGXPAUEHRegistrationNode@@PAUEHExceptionRecord@@@Z 10030850 f   libvcruntimed:trnsctrl.obj
 0001:0002f8b0       __CatchGuardHandler        100308b0 f   libvcruntimed:trnsctrl.obj
 0001:0002f900       __CreateFrameInfo          10030900 f   libvcruntimed:trnsctrl.obj
 0001:0002f930       __FindAndUnlinkFrame       10030930 f   libvcruntimed:trnsctrl.obj
 0001:0002f9a0       __TranslatorGuardHandler   100309a0 f   libvcruntimed:trnsctrl.obj
 0001:0002fa50       ___CxxFrameHandler         10030a50 f   libvcruntimed:trnsctrl.obj
 0001:0002fa90       ___CxxFrameHandler2        10030a90 f   libvcruntimed:trnsctrl.obj
 0001:0002fad0       ___CxxFrameHandler3        10030ad0 f   libvcruntimed:trnsctrl.obj
 0001:0002fb10       ___CxxLongjmpUnwind@4      10030b10 f   libvcruntimed:trnsctrl.obj
 0001:0002fb50       ___DestructExceptionObject 10030b50 f   libvcruntimed:ehhelpers.obj
 0001:0002fc70       ?_CallMemberFunction0@@YGXQAX0@Z 10030c70 f i libvcruntimed:ehhelpers.obj
 0001:0002fd10       ?raw_name@type_info@@QBEPBDXZ 10030d10 f i libvcruntimed:ehhelpers.obj
 0001:0002fd30       __IsExceptionObjectToBeDestroyed 10030d30 f   libvcruntimed:ehhelpers.obj
 0001:0002fd70       __SetWinRTOutOfMemoryExceptionCallback 10030d70 f   libvcruntimed:ehhelpers.obj
 0001:0002fd80       ___AdjustPointer           10030d80 f   libvcruntimed:ehhelpers.obj
 0001:0002fdd0       ___FrameUnwindFilter       10030dd0 f   libvcruntimed:ehhelpers.obj
 0001:0002fe60       ___GetPlatformExceptionInfo 10030e60 f   libvcruntimed:ehhelpers.obj
 0001:0002fee0       ___current_exception       10030ee0 f   libvcruntimed:ehhelpers.obj
 0001:0002fef0       ___current_exception_context 10030ef0 f   libvcruntimed:ehhelpers.obj
 0001:0002ff00       ___processing_throw        10030f00 f   libvcruntimed:ehhelpers.obj
 0001:0002ff10       ___std_terminate           10030f10 f   libvcruntimed:ehhelpers.obj
 0001:0002ff20       __is_exception_typeof      10030f20 f   libvcruntimed:ehhelpers.obj
 0001:00030020       ??$?RD@__crt_internal_free_policy@@QBEXQBD@Z 10031020 f i libvcruntimed:std_type_info.obj
 0001:00030040       ??$?RX@__crt_internal_free_policy@@QBEXQBX@Z 10031040 f i libvcruntimed:std_type_info.obj
 0001:00030060       ??$__crt_interlocked_compare_exchange_pointer@$$CBDPAD$$T@@YAPBDPDSBDQAD$$T@Z 10031060 f i libvcruntimed:std_type_info.obj
 0001:00030080       ??$__crt_interlocked_read_pointer@$$CBD@@YAPBDPDSBD@Z 10031080 f i libvcruntimed:std_type_info.obj
 0001:000300a0       ??0?$__crt_unique_heap_ptr@DU__crt_internal_free_policy@@@@QAE@QAD@Z 100310a0 f i libvcruntimed:std_type_info.obj
 0001:000300c0       ??0?$__crt_unique_heap_ptr@XU__crt_internal_free_policy@@@@QAE@QAX@Z 100310c0 f i libvcruntimed:std_type_info.obj
 0001:000300e0       ??1?$__crt_unique_heap_ptr@DU__crt_internal_free_policy@@@@QAE@XZ 100310e0 f i libvcruntimed:std_type_info.obj
 0001:00030100       ??1?$__crt_unique_heap_ptr@XU__crt_internal_free_policy@@@@QAE@XZ 10031100 f i libvcruntimed:std_type_info.obj
 0001:00030120       ??B?$__crt_unique_heap_ptr@DU__crt_internal_free_policy@@@@QBE_NXZ 10031120 f i libvcruntimed:std_type_info.obj
 0001:00030140       ??B?$__crt_unique_heap_ptr@XU__crt_internal_free_policy@@@@QBE_NXZ 10031140 f i libvcruntimed:std_type_info.obj
 0001:000301d0       ?detach@?$__crt_unique_heap_ptr@XU__crt_internal_free_policy@@@@QAEPAXXZ 100311d0 f i libvcruntimed:std_type_info.obj
 0001:00030200       ?get@?$__crt_unique_heap_ptr@DU__crt_internal_free_policy@@@@QBEPADXZ 10031200 f i libvcruntimed:std_type_info.obj
 0001:00030210       ?get@?$__crt_unique_heap_ptr@XU__crt_internal_free_policy@@@@QBEPAXXZ 10031210 f i libvcruntimed:std_type_info.obj
 0001:00030220       ?is_valid@?$__crt_unique_heap_ptr@DU__crt_internal_free_policy@@@@QBE_NXZ 10031220 f i libvcruntimed:std_type_info.obj
 0001:00030250       ?is_valid@?$__crt_unique_heap_ptr@XU__crt_internal_free_policy@@@@QBE_NXZ 10031250 f i libvcruntimed:std_type_info.obj
 0001:00030280       ?release@?$__crt_unique_heap_ptr@DU__crt_internal_free_policy@@@@QAEXXZ 10031280 f i libvcruntimed:std_type_info.obj
 0001:000302b0       ?release@?$__crt_unique_heap_ptr@XU__crt_internal_free_policy@@@@QAEXXZ 100312b0 f i libvcruntimed:std_type_info.obj
 0001:000302e0       ___std_type_info_compare   100312e0 f   libvcruntimed:std_type_info.obj
 0001:00030310       ___std_type_info_destroy_list 10031310 f   libvcruntimed:std_type_info.obj
 0001:00030350       ___std_type_info_hash      10031350 f   libvcruntimed:std_type_info.obj
 0001:000303b0       ___std_type_info_name      100313b0 f   libvcruntimed:std_type_info.obj
 0001:00030590       ___vcrt_GetModuleFileNameW 10031590 f   libvcruntimed:winapi_thunks.obj
 0001:000305b0       ___vcrt_GetModuleHandleW   100315b0 f   libvcruntimed:winapi_thunks.obj
 0001:000305c0       ___vcrt_LoadLibraryExW     100315c0 f   libvcruntimed:winapi_thunks.obj
 0001:000305e0       ??$?RD@__crt_public_free_policy@@QBEXQBD@Z 100315e0 f i libvcruntimed:std_exception.obj
 0001:00030600       ??0?$__crt_unique_heap_ptr@DU__crt_public_free_policy@@@@QAE@QAD@Z 10031600 f i libvcruntimed:std_exception.obj
 0001:00030620       ??1?$__crt_unique_heap_ptr@DU__crt_public_free_policy@@@@QAE@XZ 10031620 f i libvcruntimed:std_exception.obj
 0001:00030640       ??B?$__crt_unique_heap_ptr@DU__crt_public_free_policy@@@@QBE_NXZ 10031640 f i libvcruntimed:std_exception.obj
 0001:00030660       ?detach@?$__crt_unique_heap_ptr@DU__crt_public_free_policy@@@@QAEPADXZ 10031660 f i libvcruntimed:std_exception.obj
 0001:00030690       ?get@?$__crt_unique_heap_ptr@DU__crt_public_free_policy@@@@QBEPADXZ 10031690 f i libvcruntimed:std_exception.obj
 0001:000306a0       ?is_valid@?$__crt_unique_heap_ptr@DU__crt_public_free_policy@@@@QBE_NXZ 100316a0 f i libvcruntimed:std_exception.obj
 0001:000306d0       ?release@?$__crt_unique_heap_ptr@DU__crt_public_free_policy@@@@QAEXXZ 100316d0 f i libvcruntimed:std_exception.obj
 0001:00030700       ___std_exception_copy      10031700 f   libvcruntimed:std_exception.obj
 0001:000307f0       ___std_exception_destroy   100317f0 f   libvcruntimed:std_exception.obj
 0001:00030820       __CxxThrowException@8      10031820 f   libvcruntimed:throw.obj
 0001:000308d0       _memmove                   100318d0 f   libvcruntimed:memmove.obj
 0001:00030e50       __local_unwind4            10031e50 f   libvcruntimed:exsup4.obj
 0001:00030f40       __seh_longjmp_unwind4@4    10031f40 f   libvcruntimed:exsup4.obj
 0001:00030f70       @_EH4_CallFilterFunc@8     10031f70 f   libvcruntimed:exsup4.obj
 0001:00030f90       @_EH4_TransferToHandler@8  10031f90 f   libvcruntimed:exsup4.obj
 0001:00030fb0       @_EH4_GlobalUnwind2@8      10031fb0 f   libvcruntimed:exsup4.obj
 0001:00030fd0       @_EH4_LocalUnwind@16       10031fd0 f   libvcruntimed:exsup4.obj
 0001:00031000       ___except_validate_context_record 10032000 f   libvcruntimed:jbcxrval.obj
 0001:00031050       ___except_validate_jump_buffer 10032050 f   libvcruntimed:jbcxrval.obj
 0001:00031070       ___except_validate_jump_buffer_common 10032070 f i libvcruntimed:jbcxrval.obj
 0001:000310d0       ??$?RU__vcrt_ptd@@@__crt_internal_free_policy@@QBEXQBU__vcrt_ptd@@@Z 100320d0 f i libvcruntimed:per_thread_data.obj
 0001:000310f0       ??0?$__crt_unique_heap_ptr@U__vcrt_ptd@@U__crt_internal_free_policy@@@@QAE@QAU__vcrt_ptd@@@Z 100320f0 f i libvcruntimed:per_thread_data.obj
 0001:00031130       ??1?$__crt_unique_heap_ptr@U__vcrt_ptd@@U__crt_internal_free_policy@@@@QAE@XZ 10032130 f i libvcruntimed:per_thread_data.obj
 0001:00031170       ??B?$__crt_unique_heap_ptr@U__vcrt_ptd@@U__crt_internal_free_policy@@@@QBE_NXZ 10032170 f i libvcruntimed:per_thread_data.obj
 0001:00031190       ?detach@?$__crt_unique_heap_ptr@U__vcrt_ptd@@U__crt_internal_free_policy@@@@QAEPAU__vcrt_ptd@@XZ 10032190 f i libvcruntimed:per_thread_data.obj
 0001:000311c0       ?get@?$__crt_unique_heap_ptr@U__vcrt_ptd@@U__crt_internal_free_policy@@@@QBEPAU__vcrt_ptd@@XZ 100321c0 f i libvcruntimed:per_thread_data.obj
 0001:000311d0       ?is_valid@?$__crt_unique_heap_ptr@U__vcrt_ptd@@U__crt_internal_free_policy@@@@QBE_NXZ 100321d0 f i libvcruntimed:per_thread_data.obj
 0001:00031200       ?release@?$__crt_unique_heap_ptr@U__vcrt_ptd@@U__crt_internal_free_policy@@@@QAEXXZ 10032200 f i libvcruntimed:per_thread_data.obj
 0001:00031260       ___vcrt_freefls@4          10032260 f   libvcruntimed:per_thread_data.obj
 0001:00031290       ___vcrt_freeptd            10032290 f   libvcruntimed:per_thread_data.obj
 0001:000312f0       ___vcrt_getptd             100322f0 f   libvcruntimed:per_thread_data.obj
 0001:00031310       ___vcrt_getptd_noexit      10032310 f   libvcruntimed:per_thread_data.obj
 0001:00031470       ___vcrt_getptd_noinit      10032470 f   libvcruntimed:per_thread_data.obj
 0001:000314d0       ___vcrt_initialize_ptd     100324d0 f   libvcruntimed:per_thread_data.obj
 0001:00031520       ___vcrt_uninitialize_ptd   10032520 f   libvcruntimed:per_thread_data.obj
 0001:00031550       ___vcrt_initialize_locks   10032550 f   libvcruntimed:locks.obj
 0001:000315b0       ___vcrt_lock               100325b0 f   libvcruntimed:locks.obj
 0001:000315d0       ___vcrt_uninitialize_locks 100325d0 f   libvcruntimed:locks.obj
 0001:00031620       ___vcrt_unlock             10032620 f   libvcruntimed:locks.obj
 0001:00032190       ??$TypeMatchHelper@V__FrameHandler3@@@@YAHPBU_s_HandlerType@@PBU_s_CatchableType@@PBU_s_ThrowInfo@@@Z 10033190 f i libvcruntimed:frame.obj
 0001:00032270       ??$__InternalCxxFrameHandler@V__FrameHandler3@@@@YA?AW4_EXCEPTION_DISPOSITION@@PAUEHExceptionRecord@@PAUEHRegistrationNode@@PAU_CONTEXT@@PAXPBU_s_FuncInfo@@H1E@Z 10033270 f i libvcruntimed:frame.obj
 0001:00032430       ??0HandlerMap@__FrameHandler3@@QAE@PBU_s_TryBlockMapEntry@@II@Z 10033430 f i libvcruntimed:frame.obj
 0001:00032460       ??0TryBlockMap@__FrameHandler3@@QAE@PBU_s_FuncInfo@@I@Z 10033460 f i libvcruntimed:frame.obj
 0001:00032490       ??0bad_exception@std@@QAE@ABV01@@Z 10033490 f i libvcruntimed:frame.obj
 0001:000324c0       ??0bad_exception@std@@QAE@XZ 100334c0 f i libvcruntimed:frame.obj
 0001:000324f0       ??0iterator@HandlerMap@__FrameHandler3@@QAE@AAV12@I@Z 100334f0 f i libvcruntimed:frame.obj
 0001:00032520       ??1bad_exception@std@@UAE@XZ 10033520 f i libvcruntimed:frame.obj
 0001:00032540       ??8iterator@HandlerMap@__FrameHandler3@@QBE_NABV012@@Z 10033540 f i libvcruntimed:frame.obj
 0001:00032570       ??8type_info@@QBE_NABV0@@Z 10033570 f i libvcruntimed:frame.obj
 0001:000325b0       ??9iterator@HandlerMap@__FrameHandler3@@QBE_NABV012@@Z 100335b0 f i libvcruntimed:frame.obj
 0001:000325f0       ??Diterator@HandlerMap@__FrameHandler3@@QAE?BU_s_HandlerType@@XZ 100335f0 f i libvcruntimed:frame.obj
 0001:00032630       ??Diterator@TryBlockMap@__FrameHandler3@@QAE?BU_s_TryBlockMapEntry@@XZ 10033630 f i libvcruntimed:frame.obj
 0001:00032680       ??Eiterator@HandlerMap@__FrameHandler3@@QAEAAV012@XZ 10033680 f i libvcruntimed:frame.obj
 0001:000326a0       ??Eiterator@TryBlockMap@__FrameHandler3@@QAEAAV012@XZ 100336a0 f i libvcruntimed:frame.obj
 0001:000326c0       ??Miterator@TryBlockMap@__FrameHandler3@@QBE_NABV012@@Z 100336c0 f i libvcruntimed:frame.obj
 0001:000326f0       ??_Ebad_exception@std@@UAEPAXI@Z 100336f0 f i libvcruntimed:frame.obj
 0001:000326f0       ??_Gbad_exception@std@@UAEPAXI@Z 100336f0 f i libvcruntimed:frame.obj
 0001:00032720       ?BuildCatchObject@__FrameHandler3@@SAXPAUEHExceptionRecord@@PAXPBU_s_HandlerType@@PBU_s_CatchableType@@@Z 10033720 f   libvcruntimed:frame.obj
 0001:00032740       ?BuildCatchObjectHelper@__FrameHandler3@@SAHPAUEHExceptionRecord@@PAXPBU_s_HandlerType@@PBU_s_CatchableType@@@Z 10033740 f   libvcruntimed:frame.obj
 0001:00032ae0       ?FrameUnwindToEmptyState@__FrameHandler3@@SAXPAUEHRegistrationNode@@PAXPBU_s_FuncInfo@@@Z 10033ae0 f   libvcruntimed:frame.obj
 0001:00032b00       ?FrameUnwindToState@__FrameHandler3@@SAXPAUEHRegistrationNode@@PAXPBU_s_FuncInfo@@H@Z 10033b00 f   libvcruntimed:frame.obj
 0001:00032c80       ?GetMaxState@__FrameHandler3@@SAHPAXPBU_s_FuncInfo@@@Z 10033c80 f i libvcruntimed:frame.obj
 0001:00032da0       ?TypeMatch@__FrameHandler3@@SAHPBU_s_HandlerType@@PBU_s_CatchableType@@PBU_s_ThrowInfo@@@Z 10033da0 f   libvcruntimed:frame.obj
 0001:00032dc0       ?_CallMemberFunction1@@YGXQAX00@Z 10033dc0 f i libvcruntimed:frame.obj
 0001:00032df0       ?_CallMemberFunction2@@YGXQAX00H@Z 10033df0 f i libvcruntimed:frame.obj
 0001:00032e20       ?begin@HandlerMap@__FrameHandler3@@QAE?AViterator@12@XZ 10033e20 f i libvcruntimed:frame.obj
 0001:00032e40       ?end@HandlerMap@__FrameHandler3@@QAE?AViterator@12@XZ 10033e40 f i libvcruntimed:frame.obj
 0001:00032e70       ?getESTypes@__FrameHandler3@@SAPBU_s_ESTypeList@@PBU_s_FuncInfo@@@Z 10033e70 f i libvcruntimed:frame.obj
 0001:00032e80       ?getLastEntry@HandlerMap@__FrameHandler3@@QAEPBU_s_HandlerType@@XZ 10033e80 f i libvcruntimed:frame.obj
 0001:00032ea0       ?getMagicNum@__FrameHandler3@@SAIPBU_s_FuncInfo@@@Z 10033ea0 f i libvcruntimed:frame.obj
 0001:00032eb0       ?getNumTryBlocks@TryBlockMap@__FrameHandler3@@QAEIXZ 10033eb0 f i libvcruntimed:frame.obj
 0001:00032ed0       ?isEHs@__FrameHandler3@@SA_NPBU_s_FuncInfo@@@Z 10033ed0 f i libvcruntimed:frame.obj
 0001:00032f00       ?isNoExcept@__FrameHandler3@@SA_NPBU_s_FuncInfo@@@Z 10033f00 f i libvcruntimed:frame.obj
 0001:00032f30       ___BuildCatchObject        10033f30 f   libvcruntimed:frame.obj
 0001:00032f50       ___BuildCatchObjectHelper  10033f50 f   libvcruntimed:frame.obj
 0001:00032f70       ___TypeMatch               10033f70 f   libvcruntimed:frame.obj
 0001:00032f90       ___vcrt_EncodePointer      10033f90 f i libvcruntimed:frame.obj
 0001:00032fa0       __CallSettingFrame@12      10033fa0 f   libvcruntimed:lowhelpr.obj
 0001:00032fc7       __NLG_Return               10033fc7     libvcruntimed:lowhelpr.obj
 0001:00032ff0       ??$?0$00@DName@@QAE@PBDU?$StringLifeSelector@$00@@@Z 10033ff0 f i libvcruntimed:undname.obj
 0001:00033040       ??$?0$00@pcharNode@@QAE@PBDHU?$StringLifeSelector@$00@@@Z 10034040 f i libvcruntimed:undname.obj
 0001:00033080       ??$?0$01@DName@@QAE@PBDU?$StringLifeSelector@$01@@@Z 10034080 f i libvcruntimed:undname.obj
 0001:000330d0       ??$?0$01@pcharNode@@QAE@PBDHU?$StringLifeSelector@$01@@@Z 100340d0 f i libvcruntimed:undname.obj
 0001:00033150       ??$?0$0A@@DName@@QAE@PBDU?$StringLifeSelector@$0A@@@@Z 10034150 f i libvcruntimed:undname.obj
 0001:000331a0       ??$?0$0A@@pcharNode@@QAE@PBDHU?$StringLifeSelector@$0A@@@@Z 100341a0 f i libvcruntimed:undname.obj
 0001:00033220       ??$?0_K$0A@@?$optional@_K@std@@QAE@$$QA_K@Z 10034220 f i libvcruntimed:undname.obj
 0001:00033260       ??$?0_K@?$_Optional_construct_base@_K@std@@QAE@Uin_place_t@1@$$QA_K@Z 10034260 f i libvcruntimed:undname.obj
 0001:00033290       ??$?0_K@?$_Optional_destruct_base@_K$00@std@@QAE@Uin_place_t@1@$$QA_K@Z 10034290 f i libvcruntimed:undname.obj
 0001:000332c0       ??$append@VDNameNode@@@DName@@AAEXPBVDNameNode@@@Z 100342c0 f i libvcruntimed:undname.obj
 0001:00033350       ??$append@VDNameStatusNode@@@DName@@AAEXPBVDNameStatusNode@@@Z 10034350 f i libvcruntimed:undname.obj
 0001:000333e0       ??$append@VcharNode@@@DName@@AAEXPBVcharNode@@@Z 100343e0 f i libvcruntimed:undname.obj
 0001:00033470       ??$append@VpDNameNode@@@DName@@AAEXPBVpDNameNode@@@Z 10034470 f i libvcruntimed:undname.obj
 0001:00033500       ??$append@VpcharNode@@@DName@@AAEXPBVpcharNode@@@Z 10034500 f i libvcruntimed:undname.obj
 0001:00033590       ??$doPchar@$00@DName@@AAEXPBDH@Z 10034590 f i libvcruntimed:undname.obj
 0001:000336a0       ??$doPchar@$01@DName@@AAEXPBDH@Z 100346a0 f i libvcruntimed:undname.obj
 0001:000337b0       ??$doPchar@$0A@@DName@@AAEXPBDH@Z 100347b0 f i libvcruntimed:undname.obj
 0001:000338c0       ??$forward@_K@std@@YA$$QA_KAA_K@Z 100348c0 f i libvcruntimed:undname.obj
 0001:000338d0       ??$size@D$04@std@@YAIAAY04$$CBD@Z 100348d0 f i libvcruntimed:undname.obj
 0001:000338e0       ??$size@D$0EB@@std@@YAIAAY0EB@$$CBD@Z 100348e0 f i libvcruntimed:undname.obj
 0001:000338f0       ??0?$_Optional_construct_base@_K@std@@QAE@XZ 100348f0 f i libvcruntimed:undname.obj
 0001:00033910       ??0?$_Optional_destruct_base@_K$00@std@@QAE@XZ 10034910 f i libvcruntimed:undname.obj
 0001:00033930       ??0?$optional@_K@std@@QAE@XZ 10034930 f i libvcruntimed:undname.obj
 0001:00033950       ??0Block@_HeapManager@@QAE@XZ 10034950 f i libvcruntimed:undname.obj
 0001:00033970       ??0DName@@QAE@AAPBDD@Z     10034970 f   libvcruntimed:undname.obj
 0001:00033ae0       ??0DName@@QAE@ABUStringLiteral@@@Z 10034ae0 f   libvcruntimed:undname.obj
 0001:00033b30       ??0DName@@QAE@ABV0@@Z      10034b30 f i libvcruntimed:undname.obj
 0001:00033b60       ??0DName@@QAE@D@Z          10034b60 f   libvcruntimed:undname.obj
 0001:00033b90       ??0DName@@QAE@PAV0@@Z      10034b90 f   libvcruntimed:undname.obj
 0001:00033c40       ??0DName@@QAE@W4DNameStatus@@@Z 10034c40 f   libvcruntimed:undname.obj
 0001:00033ce0       ??0DName@@QAE@XZ           10034ce0 f i libvcruntimed:undname.obj
 0001:00033d10       ??0DName@@QAE@_J@Z         10034d10 f   libvcruntimed:undname.obj
 0001:00033e00       ??0DName@@QAE@_K@Z         10034e00 f   libvcruntimed:undname.obj
 0001:00033eb0       ??0DNameNode@@IAE@XZ       10034eb0 f i libvcruntimed:undname.obj
 0001:00033ed0       ??0Replicator@@QAE@XZ      10034ed0 f i libvcruntimed:undname.obj
 0001:00033f10       ??0UnDecorator@@QAE@PBDP6APADJ@ZK@Z 10034f10 f i libvcruntimed:undname.obj
 0001:00033f90       ??0_Nontrivial_dummy_type@std@@QAE@XZ 10034f90 f i libvcruntimed:undname.obj
 0001:00033fa0       ??0charNode@@QAE@D@Z       10034fa0 f i libvcruntimed:undname.obj
 0001:00033fd0       ??0pDNameNode@@QAE@PAVDName@@@Z 10034fd0 f   libvcruntimed:undname.obj
 0001:00034030       ??0pairNode@@QAE@PBVDNameNode@@0@Z 10035030 f i libvcruntimed:undname.obj
 0001:00034090       ??2@YAPAXIAAV_HeapManager@@H@Z 10035090 f   libvcruntimed:undname.obj
 0001:000340d0       ??4DName@@QAEAAV0@ABUStringLiteral@@@Z 100350d0 f   libvcruntimed:undname.obj
 0001:00034110       ??4DName@@QAEAAV0@ABV0@@Z  10035110 f   libvcruntimed:undname.obj
 0001:00034140       ??4DName@@QAEAAV0@D@Z      10035140 f i libvcruntimed:undname.obj
 0001:00034170       ??4DName@@QAEAAV0@PAV0@@Z  10035170 f   libvcruntimed:undname.obj
 0001:00034210       ??4DName@@QAEAAV0@W4DNameStatus@@@Z 10035210 f   libvcruntimed:undname.obj
 0001:00034290       ??AReplicator@@QBE?AVDName@@H@Z 10035290 f   libvcruntimed:undname.obj
 0001:00034300       ??B?$optional@_K@std@@QBE_NXZ 10035300 f i libvcruntimed:undname.obj
 0001:00034320       ??D?$optional@_K@std@@QGAEAA_KXZ 10035320 f i libvcruntimed:undname.obj
 0001:00034390       ??H@YA?AVDName@@ABUStringLiteral@@ABV0@@Z 10035390 f i libvcruntimed:undname.obj
 0001:000343c0       ??H@YA?AVDName@@DABV0@@Z   100353c0 f i libvcruntimed:undname.obj
 0001:000343f0       ??H@YA?AVDName@@W4DNameStatus@@ABV0@@Z 100353f0 f i libvcruntimed:undname.obj
 0001:00034420       ??HDName@@QBE?AV0@ABUStringLiteral@@@Z 10035420 f   libvcruntimed:undname.obj
 0001:00034460       ??HDName@@QBE?AV0@ABV0@@Z  10035460 f   libvcruntimed:undname.obj
 0001:000344a0       ??HDName@@QBE?AV0@D@Z      100354a0 f   libvcruntimed:undname.obj
 0001:000344e0       ??HDName@@QBE?AV0@PAV0@@Z  100354e0 f   libvcruntimed:undname.obj
 0001:00034520       ??HDName@@QBE?AV0@W4DNameStatus@@@Z 10035520 f   libvcruntimed:undname.obj
 0001:00034560       ??HStringLiteral@@QBE?AU0@H@Z 10035560 f i libvcruntimed:undname.obj
 0001:00034590       ??YDName@@QAEAAV0@ABUStringLiteral@@@Z 10035590 f   libvcruntimed:undname.obj
 0001:00034630       ??YDName@@QAEAAV0@ABV0@@Z  10035630 f   libvcruntimed:undname.obj
 0001:000346d0       ??YDName@@QAEAAV0@D@Z      100356d0 f   libvcruntimed:undname.obj
 0001:00034750       ??YDName@@QAEAAV0@PAV0@@Z  10035750 f   libvcruntimed:undname.obj
 0001:00034800       ??YDName@@QAEAAV0@W4DNameStatus@@@Z 10035800 f   libvcruntimed:undname.obj
 0001:00034860       ??YReplicator@@QAEAAV0@ABVDName@@@Z 10035860 f   libvcruntimed:undname.obj
 0001:000348f0       ??_5DName@@QAEAAV0@ABV0@@Z 100358f0 f   libvcruntimed:undname.obj
 0001:00034950       ??__K_l@@YA?AUStringLiteral@@PBDI@Z 10035950 f i libvcruntimed:undname.obj
 0001:00034970       ?Constructor@_HeapManager@@QAEXP6APAXI@ZP6AXPAX@Z@Z 10035970 f i libvcruntimed:undname.obj
 0001:000349b0       ?Destructor@_HeapManager@@QAEXXZ 100359b0 f i libvcruntimed:undname.obj
 0001:00034a20       ?UScore@UnDecorator@@SA?AUStringLiteral@@W4Tokens@@@Z 10035a20 f   libvcruntimed:undname.obj
 0001:00034a70       ?composeDeclaration@UnDecorator@@CA?AVDName@@ABV2@@Z 10035a70 f i libvcruntimed:undname.obj
 0001:000369e0       ?dbGetString@DName@@QBEPADXZ 100379e0 f   libvcruntimed:undname.obj
 0001:00036a00       ?doAccessSpecifiers@UnDecorator@@SAHXZ 10037a00 f i libvcruntimed:undname.obj
 0001:00036a30       ?doAllocationLanguage@UnDecorator@@SAHXZ 10037a30 f i libvcruntimed:undname.obj
 0001:00036a60       ?doAllocationModel@UnDecorator@@SAHXZ 10037a60 f i libvcruntimed:undname.obj
 0001:00036a90       ?doEcsu@UnDecorator@@SAHXZ 10037a90 f i libvcruntimed:undname.obj
 0001:00036ac0       ?doEllipsis@UnDecorator@@SAHXZ 10037ac0 f i libvcruntimed:undname.obj
 0001:00036af0       ?doFunctionReturns@UnDecorator@@SAHXZ 10037af0 f i libvcruntimed:undname.obj
 0001:00036b20       ?doMSKeywords@UnDecorator@@SAHXZ 10037b20 f i libvcruntimed:undname.obj
 0001:00036b50       ?doMemberTypes@UnDecorator@@SAHXZ 10037b50 f i libvcruntimed:undname.obj
 0001:00036b80       ?doNameOnly@UnDecorator@@SAHXZ 10037b80 f i libvcruntimed:undname.obj
 0001:00036b90       ?doNoIdentCharCheck@UnDecorator@@SAHXZ 10037b90 f i libvcruntimed:undname.obj
 0001:00036ba0       ?doPchar@DName@@AAEXD@Z    10037ba0 f   libvcruntimed:undname.obj
 0001:00036c10       ?doPtr64@UnDecorator@@SAHXZ 10037c10 f i libvcruntimed:undname.obj
 0001:00036c40       ?doRestrictionSpec@UnDecorator@@SAHXZ 10037c40 f i libvcruntimed:undname.obj
 0001:00036c70       ?doThisTypes@UnDecorator@@SAHXZ 10037c70 f i libvcruntimed:undname.obj
 0001:00036ca0       ?doThrowTypes@UnDecorator@@SAHXZ 10037ca0 f i libvcruntimed:undname.obj
 0001:00036cd0       ?doTypeOnly@UnDecorator@@SAHXZ 10037cd0 f i libvcruntimed:undname.obj
 0001:00036ce0       ?doUnderScore@UnDecorator@@SAHXZ 10037ce0 f i libvcruntimed:undname.obj
 0001:00036d10       ?getAddressOf@UnDecorator@@CA?AVDName@@XZ 10037d10 f   libvcruntimed:undname.obj
 0001:00036d90       ?getArgumentList@UnDecorator@@CA?AVDName@@XZ 10037d90 f   libvcruntimed:undname.obj
 0001:00036ee0       ?getArgumentTypes@UnDecorator@@CA?AVDName@@XZ 10037ee0 f   libvcruntimed:undname.obj
 0001:000370b0       ?getArrayAccess@UnDecorator@@CA?AVDName@@XZ 100380b0 f   libvcruntimed:undname.obj
 0001:00037150       ?getArrayObject@UnDecorator@@CA?AVDName@@XZ 10038150 f   libvcruntimed:undname.obj
 0001:00037230       ?getArrayType@UnDecorator@@CA?AVDName@@ABV2@@Z 10038230 f i libvcruntimed:undname.obj
 0001:000374d0       ?getBasedType@UnDecorator@@CA?AVDName@@XZ 100384d0 f   libvcruntimed:undname.obj
 0001:000375c0       ?getBasicDataType@UnDecorator@@CA?AVDName@@ABV2@@Z 100385c0 f   libvcruntimed:undname.obj
 0001:00037f30       ?getCHPEName@UnDecorator@@QAEPADPADH@Z 10038f30 f i libvcruntimed:undname.obj
 0001:00038090       ?getCallIndex@UnDecorator@@CA?AVDName@@XZ 10039090 f i libvcruntimed:undname.obj
 0001:000380b0       ?getCallingConvention@UnDecorator@@CA?AVDName@@XZ 100390b0 f   libvcruntimed:undname.obj
 0001:00038310       ?getDataIndirectType@UnDecorator@@CA?AVDName@@ABV2@W4IndirectionKind@@0H@Z 10039310 f   libvcruntimed:undname.obj
 0001:00038c30       ?getDataIndirectType@UnDecorator@@CA?AVDName@@XZ 10039c30 f i libvcruntimed:undname.obj
 0001:00038c70       ?getDataType@UnDecorator@@CA?AVDName@@PAV2@@Z 10039c70 f   libvcruntimed:undname.obj
 0001:00038db0       ?getDecoratedName@UnDecorator@@CA?AVDName@@XZ 10039db0 f   libvcruntimed:undname.obj
 0001:000391f0       ?getDimension@UnDecorator@@CA?AVDName@@_N@Z 1003a1f0 f   libvcruntimed:undname.obj
 0001:00039450       ?getDispatchTarget@UnDecorator@@CA?AVDName@@XZ 1003a450 f   libvcruntimed:undname.obj
 0001:000394f0       ?getDisplacement@UnDecorator@@CA?AVDName@@XZ 1003a4f0 f i libvcruntimed:undname.obj
 0001:00039510       ?getECSUDataType@UnDecorator@@CA?AVDName@@XZ 1003a510 f   libvcruntimed:undname.obj
 0001:00039770       ?getECSUName@UnDecorator@@CA?AVDName@@XZ 1003a770 f i libvcruntimed:undname.obj
 0001:00039790       ?getEnumType@UnDecorator@@CA?AVDName@@XZ 1003a790 f i libvcruntimed:undname.obj
 0001:00039950       ?getExtendedDataIndirectType@UnDecorator@@CA?AVDName@@AAW4IndirectionKind@@AA_NH@Z 1003a950 f   libvcruntimed:undname.obj
 0001:00039ba0       ?getExternalDataType@UnDecorator@@CA?AVDName@@ABV2@@Z 1003aba0 f i libvcruntimed:undname.obj
 0001:00039c40       ?getFloatingPoint@UnDecorator@@CA?AVDName@@H@Z 1003ac40 f   libvcruntimed:undname.obj
 0001:00039e00       ?getFunctionIndirectType@UnDecorator@@CA?AVDName@@ABV2@@Z 1003ae00 f   libvcruntimed:undname.obj
 0001:0003a2e0       ?getGuardNumber@UnDecorator@@CA?AVDName@@XZ 1003b2e0 f i libvcruntimed:undname.obj
 0001:0003a300       ?getLastChar@DName@@QBEDXZ 1003b300 f i libvcruntimed:undname.obj
 0001:0003a340       ?getLastChar@DNameStatusNode@@UBEDXZ 1003b340 f i libvcruntimed:undname.obj
 0001:0003a370       ?getLastChar@charNode@@UBEDXZ 1003b370 f i libvcruntimed:undname.obj
 0001:0003a390       ?getLastChar@pDNameNode@@UBEDXZ 1003b390 f i libvcruntimed:undname.obj
 0001:0003a3c0       ?getLastChar@pairNode@@UBEDXZ 1003b3c0 f i libvcruntimed:undname.obj
 0001:0003a430       ?getLastChar@pcharNode@@UBEDXZ 1003b430 f i libvcruntimed:undname.obj
 0001:0003a470       ?getLexicalFrame@UnDecorator@@CA?AVDName@@XZ 1003b470 f i libvcruntimed:undname.obj
 0001:0003a4b0       ?getMemberAccess@UnDecorator@@CA?AVDName@@XZ 1003b4b0 f   libvcruntimed:undname.obj
 0001:0003a540       ?getMemoryWithBuffer@_HeapManager@@QAEPAXI@Z 1003b540 f   libvcruntimed:undname.obj
 0001:0003a630       ?getMemoryWithoutBuffer@_HeapManager@@QAEPAXI@Z 1003b630 f   libvcruntimed:undname.obj
 0001:0003a670       ?getNoexcept@UnDecorator@@CA?AVDName@@XZ 1003b670 f   libvcruntimed:undname.obj
 0001:0003a6f0       ?getNumberOfDimensions@UnDecorator@@CAHXZ 1003b6f0 f   libvcruntimed:undname.obj
 0001:0003a7f0       ?getOperatorName@UnDecorator@@CA?AVDName@@_NPA_N@Z 1003b7f0 f i libvcruntimed:undname.obj
 0001:0003b2f0       ?getPointerToMember@UnDecorator@@CA?AVDName@@XZ 1003c2f0 f   libvcruntimed:undname.obj
 0001:0003b3e0       ?getPointerType@UnDecorator@@CA?AVDName@@ABV2@0@Z 1003c3e0 f i libvcruntimed:undname.obj
 0001:0003b400       ?getPointerTypeArray@UnDecorator@@CA?AVDName@@ABV2@0@Z 1003c400 f i libvcruntimed:undname.obj
 0001:0003b420       ?getPrimaryDataType@UnDecorator@@CA?AVDName@@ABV2@@Z 1003c420 f   libvcruntimed:undname.obj
 0001:0003b8b0       ?getPtrRefDataType@UnDecorator@@CA?AVDName@@ABV2@H@Z 1003c8b0 f   libvcruntimed:undname.obj
 0001:0003bb60       ?getPtrRefType@UnDecorator@@CA?AVDName@@ABV2@0W4IndirectionKind@@@Z 1003cb60 f   libvcruntimed:undname.obj
 0001:0003bce0       ?getReferenceType@UnDecorator@@CA?AVDName@@ABV2@0W4IndirectionKind@@@Z 1003cce0 f i libvcruntimed:undname.obj
 0001:0003bd00       ?getRestrictionSpec@UnDecorator@@CA?AVDName@@XZ 1003cd00 f   libvcruntimed:undname.obj
 0001:0003bec0       ?getReturnType@UnDecorator@@CA?AVDName@@PAV2@@Z 1003cec0 f   libvcruntimed:undname.obj
 0001:0003bf10       ?getScope@UnDecorator@@CA?AVDName@@XZ 1003cf10 f   libvcruntimed:undname.obj
 0001:0003c4a0       ?getScopedName@UnDecorator@@CA?AVDName@@XZ 1003d4a0 f   libvcruntimed:undname.obj
 0001:0003c5f0       ?getSignedDimension@UnDecorator@@CA?AVDName@@XZ 1003d5f0 f   libvcruntimed:undname.obj
 0001:0003c670       ?getStorageConvention@UnDecorator@@CA?AVDName@@XZ 1003d670 f i libvcruntimed:undname.obj
 0001:0003c690       ?getString@DName@@QBEPADPAD0@Z 1003d690 f i libvcruntimed:undname.obj
 0001:0003c6f0       ?getString@DName@@QBEPADPADH@Z 1003d6f0 f i libvcruntimed:undname.obj
 0001:0003c780       ?getString@DNameStatusNode@@UBEPADPAD0@Z 1003d780 f i libvcruntimed:undname.obj
 0001:0003c7c0       ?getString@charNode@@UBEPADPAD0@Z 1003d7c0 f i libvcruntimed:undname.obj
 0001:0003c7f0       ?getString@pDNameNode@@UBEPADPAD0@Z 1003d7f0 f i libvcruntimed:undname.obj
 0001:0003c830       ?getString@pairNode@@UBEPADPAD0@Z 1003d830 f i libvcruntimed:undname.obj
 0001:0003c8c0       ?getString@pcharNode@@UBEPADPAD0@Z 1003d8c0 f i libvcruntimed:undname.obj
 0001:0003c8f0       ?getStringEncoding@UnDecorator@@CA?AVDName@@W4PrefixKind@@H@Z 1003d8f0 f   libvcruntimed:undname.obj
 0001:0003ca00       ?getStringHelper@@YAPADPADPBD1H@Z 1003da00 f i libvcruntimed:undname.obj
 0001:0003ca40       ?getStringObject@UnDecorator@@CA?AVDName@@XZ 1003da40 f   libvcruntimed:undname.obj
 0001:0003caf0       ?getSymbolName@UnDecorator@@CA?AVDName@@XZ 1003daf0 f i libvcruntimed:undname.obj
 0001:0003cb80       ?getTemplateArgumentList@UnDecorator@@CA?AVDName@@XZ 1003db80 f   libvcruntimed:undname.obj
 0001:0003ce70       ?getTemplateName@UnDecorator@@CA?AVDName@@_N@Z 1003de70 f   libvcruntimed:undname.obj
 0001:0003d030       ?getTemplateNonTypeArgument@UnDecorator@@CA?AVDName@@XZ 1003e030 f   libvcruntimed:undname.obj
 0001:0003d670       ?getTemplateTypeArgument@UnDecorator@@CA?AVDName@@XZ 1003e670 f   libvcruntimed:undname.obj
 0001:0003d810       ?getThisType@UnDecorator@@CA?AVDName@@XZ 1003e810 f i libvcruntimed:undname.obj
 0001:0003d850       ?getThrowTypes@UnDecorator@@CA?AVDName@@XZ 1003e850 f   libvcruntimed:undname.obj
 0001:0003d890       ?getTypeEncoding@UnDecorator@@CAHXZ 1003e890 f i libvcruntimed:undname.obj
 0001:0003e350       ?getUndecoratedName@UnDecorator@@QAEPADPADH@Z 1003f350 f i libvcruntimed:undname.obj
 0001:0003e4b0       ?getUnionObject@UnDecorator@@CA?AVDName@@XZ 1003f4b0 f   libvcruntimed:undname.obj
 0001:0003e580       ?getVCallThunkType@UnDecorator@@CA?AVDName@@XZ 1003f580 f i libvcruntimed:undname.obj
 0001:0003e600       ?getValue@UnDecorator@@CA?AV?$optional@_K@std@@XZ 1003f600 f   libvcruntimed:undname.obj
 0001:0003e6c0       ?getValueObject@UnDecorator@@CA?AVDName@@XZ 1003f6c0 f   libvcruntimed:undname.obj
 0001:0003e8a0       ?getVbTableType@UnDecorator@@CA?AVDName@@ABV2@@Z 1003f8a0 f i libvcruntimed:undname.obj
 0001:0003e8c0       ?getVdispMapType@UnDecorator@@CA?AVDName@@ABV2@@Z 1003f8c0 f i libvcruntimed:undname.obj
 0001:0003e950       ?getVfTableType@UnDecorator@@CA?AVDName@@ABV2@@Z 1003f950 f i libvcruntimed:undname.obj
 0001:0003eb50       ?getZName@UnDecorator@@CA?AVDName@@_N0@Z 1003fb50 f   libvcruntimed:undname.obj
 0001:0003ee80       ?haveTemplateParameters@UnDecorator@@SAHXZ 1003fe80 f i libvcruntimed:undname.obj
 0001:0003ee90       ?isArray@DName@@QBEHXZ     1003fe90 f i libvcruntimed:undname.obj
 0001:0003eeb0       ?isComArray@DName@@QBEHXZ  1003feb0 f i libvcruntimed:undname.obj
 0001:0003eed0       ?isEmpty@DName@@QBEHXZ     1003fed0 f i libvcruntimed:undname.obj
 0001:0003ef00       ?isFull@Replicator@@QBEHXZ 1003ff00 f i libvcruntimed:undname.obj
 0001:0003ef30       ?isNoTE@DName@@QBEHXZ      1003ff30 f i libvcruntimed:undname.obj
 0001:0003ef50       ?isPinPtr@DName@@QBEHXZ    1003ff50 f i libvcruntimed:undname.obj
 0001:0003ef70       ?isPtrRef@DName@@QBEHXZ    1003ff70 f i libvcruntimed:undname.obj
 0001:0003ef90       ?isUDC@DName@@QBEHXZ       1003ff90 f i libvcruntimed:undname.obj
 0001:0003efd0       ?isUDTThunk@DName@@QBEHXZ  1003ffd0 f i libvcruntimed:undname.obj
 0001:0003f010       ?isVCallThunk@DName@@QBEHXZ 10040010 f i libvcruntimed:undname.obj
 0001:0003f030       ?isValid@DName@@QBEHXZ     10040030 f i libvcruntimed:undname.obj
 0001:0003f070       ?length@DName@@QBEHXZ      10040070 f i libvcruntimed:undname.obj
 0001:0003f0b0       ?length@DNameStatusNode@@UBEHXZ 100400b0 f i libvcruntimed:undname.obj
 0001:0003f0d0       ?length@charNode@@UBEHXZ   100400d0 f i libvcruntimed:undname.obj
 0001:0003f0e0       ?length@pDNameNode@@UBEHXZ 100400e0 f i libvcruntimed:undname.obj
 0001:0003f110       ?length@pairNode@@UBEHXZ   10040110 f i libvcruntimed:undname.obj
 0001:0003f180       ?length@pcharNode@@UBEHXZ  10040180 f i libvcruntimed:undname.obj
 0001:0003f1a0       ?make@DNameStatusNode@@SAPBV1@W4DNameStatus@@@Z 100401a0 f i libvcruntimed:undname.obj
 0001:0003f1d0       ?parseDecoratedName@UnDecorator@@CA?AVDName@@XZ 100401d0 f   libvcruntimed:undname.obj
 0001:0003f360       ?raw_length@DNameStatusNode@@UBEHXZ 10040360 f i libvcruntimed:undname.obj
 0001:0003f380       ?raw_length@charNode@@UBEHXZ 10040380 f i libvcruntimed:undname.obj
 0001:0003f3a0       ?raw_length@pDNameNode@@UBEHXZ 100403a0 f i libvcruntimed:undname.obj
 0001:0003f3b0       ?raw_length@pairNode@@UBEHXZ 100403b0 f i libvcruntimed:undname.obj
 0001:0003f3d0       ?raw_length@pcharNode@@UBEHXZ 100403d0 f i libvcruntimed:undname.obj
 0001:0003f3f0       ?setIsArray@DName@@QAEXXZ  100403f0 f i libvcruntimed:undname.obj
 0001:0003f410       ?setIsComArray@DName@@QAEXXZ 10040410 f i libvcruntimed:undname.obj
 0001:0003f430       ?setIsNoTE@DName@@QAEXXZ   10040430 f i libvcruntimed:undname.obj
 0001:0003f450       ?setIsPinPtr@DName@@QAEXXZ 10040450 f i libvcruntimed:undname.obj
 0001:0003f470       ?setIsUDC@DName@@QAEXXZ    10040470 f i libvcruntimed:undname.obj
 0001:0003f4a0       ?setIsVCallThunk@DName@@QAEXXZ 100404a0 f i libvcruntimed:undname.obj
 0001:0003f4c0       ?setPtrRef@DName@@QAEAAV1@XZ 100404c0 f i libvcruntimed:undname.obj
 0001:0003f4e0       ?status@DName@@QBE?AW4DNameStatus@@XZ 100404e0 f i libvcruntimed:undname.obj
 0001:0003f5e0       ___unDName                 100405e0 f   libvcruntimed:undname.obj
 0001:0003f610       ___unDNameEx               10040610 f   libvcruntimed:undname.obj
 0001:0003f6e0       _unDNameGenerateCHPE       100406e0 f   libvcruntimed:undname.obj
 0001:0003f740       __global_unwind2           10040740 f   libvcruntimed:exsup.obj
 0001:0003f7c0       __local_unwind2            100407c0 f   libvcruntimed:exsup.obj
 0001:0003f860       __abnormal_termination     10040860 f   libvcruntimed:exsup.obj
 0001:0003f890       __NLG_Notify1              10040890 f   libvcruntimed:exsup.obj
 0001:0003f8a0       __NLG_Notify               100408a0 f   libvcruntimed:exsup.obj
 0001:0003f8b7       __NLG_Dispatch             100408b7     libvcruntimed:exsup.obj
 0001:0003f8b7       __NLG_Dispatch2            100408b7     libvcruntimed:exsup.obj
 0001:0003f8c0       __NLG_Call                 100408c0 f   libvcruntimed:exsup.obj
 0001:0003f8c2       __NLG_Return2              100408c2     libvcruntimed:exsup.obj
 0001:0003f8d0       ??$__crt_interlocked_exchange_pointer@UHINSTANCE__@@PAU1@@@YAPAUHINSTANCE__@@PDSAU0@QAU0@@Z 100408d0 f i libvcruntimed:winapi_downlevel.obj
 0001:0003f8e0       ??$__crt_interlocked_exchange_pointer@UHINSTANCE__@@PAX@@YAPAUHINSTANCE__@@PDSAU0@QAX@Z 100408e0 f i libvcruntimed:winapi_downlevel.obj
 0001:0003f8f0       ??$__crt_interlocked_exchange_pointer@XPAX@@YAPAXPDSAXQAX@Z 100408f0 f i libvcruntimed:winapi_downlevel.obj
 0001:0003f900       ??$__crt_interlocked_read_pointer@UHINSTANCE__@@@@YAPAUHINSTANCE__@@PDSAU0@@Z 10040900 f i libvcruntimed:winapi_downlevel.obj
 0001:0003f920       ??$__crt_interlocked_read_pointer@X@@YAPAXPDSAX@Z 10040920 f i libvcruntimed:winapi_downlevel.obj
 0001:0003fcf0       ___vcrt_FlsAlloc           10040cf0 f   libvcruntimed:winapi_downlevel.obj
 0001:0003fd30       ___vcrt_FlsFree            10040d30 f   libvcruntimed:winapi_downlevel.obj
 0001:0003fd70       ___vcrt_FlsGetValue        10040d70 f   libvcruntimed:winapi_downlevel.obj
 0001:0003fdb0       ___vcrt_FlsSetValue        10040db0 f   libvcruntimed:winapi_downlevel.obj
 0001:0003fe00       ___vcrt_InitializeCriticalSectionEx 10040e00 f   libvcruntimed:winapi_downlevel.obj
 0001:0003fe80       __get_unexpected           10040e80 f   libvcruntimed:unexpected.obj
 0001:0003fea0       _set_unexpected            10040ea0 f   libvcruntimed:unexpected.obj
 0001:0003fed0       _unexpected                10040ed0 f   libvcruntimed:unexpected.obj
 0001:0003ff10       ?GetCurrentState@__FrameHandler3@@SAHPAUEHRegistrationNode@@PAXPBU_s_FuncInfo@@@Z 10040f10 f   libvcruntimed:ehstate.obj
 0001:0003ff40       ?SetState@__FrameHandler3@@SAXPAUEHRegistrationNode@@PBU_s_FuncInfo@@H@Z 10040f40 f   libvcruntimed:ehstate.obj
 0001:0003ff50       ??$?0ABV?$stream_output_adapter@D@__crt_stdio_output@@AB_KABQBDAAV__crt_cached_ptd_host@@ABQAD@?$format_validation_base@DV?$stream_output_adapter@D@__crt_stdio_output@@@__crt_stdio_output@@IAE@ABV?$stream_output_adapter@D@1@AB_KABQBDAAV__crt_cached_ptd_host@@ABQAD@Z 10040f50 f i libucrtd:output.obj
 0001:0003ff80       ??$?0ABV?$stream_output_adapter@D@__crt_stdio_output@@AB_KABQBDAAV__crt_cached_ptd_host@@ABQAD@?$positional_parameter_base@DV?$stream_output_adapter@D@__crt_stdio_output@@@__crt_stdio_output@@IAE@ABV?$stream_output_adapter@D@1@AB_KABQBDAAV__crt_cached_ptd_host@@ABQAD@Z 10040f80 f i libucrtd:output.obj
 0001:00040000       ??$?0ABV?$stream_output_adapter@D@__crt_stdio_output@@AB_KABQBDAAV__crt_cached_ptd_host@@ABQAD@?$standard_base@DV?$stream_output_adapter@D@__crt_stdio_output@@@__crt_stdio_output@@IAE@ABV?$stream_output_adapter@D@1@AB_KABQBDAAV__crt_cached_ptd_host@@ABQAD@Z 10041000 f i libucrtd:output.obj
 0001:00040050       ??$?0ABV?$stream_output_adapter@_W@__crt_stdio_output@@AB_KABQB_WAAV__crt_cached_ptd_host@@ABQAD@?$format_validation_base@_WV?$stream_output_adapter@_W@__crt_stdio_output@@@__crt_stdio_output@@IAE@ABV?$stream_output_adapter@_W@1@AB_KABQB_WAAV__crt_cached_ptd_host@@ABQAD@Z 10041050 f i libucrtd:output.obj
 0001:00040080       ??$?0ABV?$stream_output_adapter@_W@__crt_stdio_output@@AB_KABQB_WAAV__crt_cached_ptd_host@@ABQAD@?$positional_parameter_base@_WV?$stream_output_adapter@_W@__crt_stdio_output@@@__crt_stdio_output@@IAE@ABV?$stream_output_adapter@_W@1@AB_KABQB_WAAV__crt_cached_ptd_host@@ABQAD@Z 10041080 f i libucrtd:output.obj
 0001:00040100       ??$?0ABV?$stream_output_adapter@_W@__crt_stdio_output@@AB_KABQB_WAAV__crt_cached_ptd_host@@ABQAD@?$standard_base@_WV?$stream_output_adapter@_W@__crt_stdio_output@@@__crt_stdio_output@@IAE@ABV?$stream_output_adapter@_W@1@AB_KABQB_WAAV__crt_cached_ptd_host@@ABQAD@Z 10041100 f i libucrtd:output.obj
 0001:00040150       ??$?0ABV?$string_output_adapter@D@__crt_stdio_output@@AB_KABQBDAAV__crt_cached_ptd_host@@ABQAD@?$format_validation_base@DV?$string_output_adapter@D@__crt_stdio_output@@@__crt_stdio_output@@IAE@ABV?$string_output_adapter@D@1@AB_KABQBDAAV__crt_cached_ptd_host@@ABQAD@Z 10041150 f i libucrtd:output.obj
 0001:00040180       ??$?0ABV?$string_output_adapter@D@__crt_stdio_output@@AB_KABQBDAAV__crt_cached_ptd_host@@ABQAD@?$positional_parameter_base@DV?$string_output_adapter@D@__crt_stdio_output@@@__crt_stdio_output@@IAE@ABV?$string_output_adapter@D@1@AB_KABQBDAAV__crt_cached_ptd_host@@ABQAD@Z 10041180 f i libucrtd:output.obj
 0001:00040200       ??$?0ABV?$string_output_adapter@D@__crt_stdio_output@@AB_KABQBDAAV__crt_cached_ptd_host@@ABQAD@?$standard_base@DV?$string_output_adapter@D@__crt_stdio_output@@@__crt_stdio_output@@IAE@ABV?$string_output_adapter@D@1@AB_KABQBDAAV__crt_cached_ptd_host@@ABQAD@Z 10041200 f i libucrtd:output.obj
 0001:00040250       ??$?0ABV?$string_output_adapter@_W@__crt_stdio_output@@AB_KABQB_WAAV__crt_cached_ptd_host@@ABQAD@?$format_validation_base@_WV?$string_output_adapter@_W@__crt_stdio_output@@@__crt_stdio_output@@IAE@ABV?$string_output_adapter@_W@1@AB_KABQB_WAAV__crt_cached_ptd_host@@ABQAD@Z 10041250 f i libucrtd:output.obj
 0001:00040280       ??$?0ABV?$string_output_adapter@_W@__crt_stdio_output@@AB_KABQB_WAAV__crt_cached_ptd_host@@ABQAD@?$positional_parameter_base@_WV?$string_output_adapter@_W@__crt_stdio_output@@@__crt_stdio_output@@IAE@ABV?$string_output_adapter@_W@1@AB_KABQB_WAAV__crt_cached_ptd_host@@ABQAD@Z 10041280 f i libucrtd:output.obj
 0001:00040300       ??$?0ABV?$string_output_adapter@_W@__crt_stdio_output@@AB_KABQB_WAAV__crt_cached_ptd_host@@ABQAD@?$standard_base@_WV?$string_output_adapter@_W@__crt_stdio_output@@@__crt_stdio_output@@IAE@ABV?$string_output_adapter@_W@1@AB_KABQB_WAAV__crt_cached_ptd_host@@ABQAD@Z 10041300 f i libucrtd:output.obj
 0001:00040950       ??$__crt_interlocked_read@J@@YAJPDJ@Z 10041950 f i libucrtd:output.obj
 0001:00040970       ??$_tcstol_internal@DPAPAD$0A@@@YAJAAV__crt_cached_ptd_host@@QBDQAPADH@Z 10041970 f i libucrtd:output.obj
 0001:000409b0       ??$_tcstol_internal@_WPAPA_W$0A@@@YAJAAV__crt_cached_ptd_host@@QB_WQAPA_WH@Z 100419b0 f i libucrtd:output.obj
 0001:00043950       ??$count@D@formatting_buffer@__crt_stdio_output@@QBEIXZ 10044950 f i libucrtd:output.obj
 0001:00043990       ??$count@_W@formatting_buffer@__crt_stdio_output@@QBEIXZ 10044990 f i libucrtd:output.obj
 0001:000439d0       ??$data@D@formatting_buffer@__crt_stdio_output@@QAEPADXZ 100449d0 f i libucrtd:output.obj
 0001:00043a10       ??$data@_W@formatting_buffer@__crt_stdio_output@@QAEPA_WXZ 10044a10 f i libucrtd:output.obj
 0001:00043a50       ??$ensure_buffer_is_big_enough@D@formatting_buffer@__crt_stdio_output@@QAE_NIAAV__crt_cached_ptd_host@@@Z 10044a50 f i libucrtd:output.obj
 0001:00043b40       ??$ensure_buffer_is_big_enough@_W@formatting_buffer@__crt_stdio_output@@QAE_NIAAV__crt_cached_ptd_host@@@Z 10044b40 f i libucrtd:output.obj
 0001:00043c30       ??$extract_argument_from_va_list@C_J@?$positional_parameter_base@DV?$stream_output_adapter@D@__crt_stdio_output@@@__crt_stdio_output@@IAE_NAA_J@Z 10044c30 f i libucrtd:output.obj
 0001:00043d90       ??$extract_argument_from_va_list@C_J@?$positional_parameter_base@DV?$string_output_adapter@D@__crt_stdio_output@@@__crt_stdio_output@@IAE_NAA_J@Z 10044d90 f i libucrtd:output.obj
 0001:00043ef0       ??$extract_argument_from_va_list@C_J@?$positional_parameter_base@_WV?$stream_output_adapter@_W@__crt_stdio_output@@@__crt_stdio_output@@IAE_NAA_J@Z 10044ef0 f i libucrtd:output.obj
 0001:00044060       ??$extract_argument_from_va_list@C_J@?$positional_parameter_base@_WV?$string_output_adapter@_W@__crt_stdio_output@@@__crt_stdio_output@@IAE_NAA_J@Z 10045060 f i libucrtd:output.obj
 0001:000441d0       ??$extract_argument_from_va_list@C_J@?$standard_base@DV?$stream_output_adapter@D@__crt_stdio_output@@@__crt_stdio_output@@IAE_NAA_J@Z 100451d0 f i libucrtd:output.obj
 0001:00044200       ??$extract_argument_from_va_list@C_J@?$standard_base@DV?$string_output_adapter@D@__crt_stdio_output@@@__crt_stdio_output@@IAE_NAA_J@Z 10045200 f i libucrtd:output.obj
 0001:00044230       ??$extract_argument_from_va_list@C_J@?$standard_base@_WV?$stream_output_adapter@_W@__crt_stdio_output@@@__crt_stdio_output@@IAE_NAA_J@Z 10045230 f i libucrtd:output.obj
 0001:00044260       ??$extract_argument_from_va_list@C_J@?$standard_base@_WV?$string_output_adapter@_W@__crt_stdio_output@@@__crt_stdio_output@@IAE_NAA_J@Z 10045260 f i libucrtd:output.obj
 0001:00044290       ??$extract_argument_from_va_list@E_J@?$positional_parameter_base@DV?$stream_output_adapter@D@__crt_stdio_output@@@__crt_stdio_output@@IAE_NAA_J@Z 10045290 f i libucrtd:output.obj
 0001:000443f0       ??$extract_argument_from_va_list@E_J@?$positional_parameter_base@DV?$string_output_adapter@D@__crt_stdio_output@@@__crt_stdio_output@@IAE_NAA_J@Z 100453f0 f i libucrtd:output.obj
 0001:00044550       ??$extract_argument_from_va_list@E_J@?$positional_parameter_base@_WV?$stream_output_adapter@_W@__crt_stdio_output@@@__crt_stdio_output@@IAE_NAA_J@Z 10045550 f i libucrtd:output.obj
 0001:000446c0       ??$extract_argument_from_va_list@E_J@?$positional_parameter_base@_WV?$string_output_adapter@_W@__crt_stdio_output@@@__crt_stdio_output@@IAE_NAA_J@Z 100456c0 f i libucrtd:output.obj
 0001:00044830       ??$extract_argument_from_va_list@E_J@?$standard_base@DV?$stream_output_adapter@D@__crt_stdio_output@@@__crt_stdio_output@@IAE_NAA_J@Z 10045830 f i libucrtd:output.obj
 0001:00044860       ??$extract_argument_from_va_list@E_J@?$standard_base@DV?$string_output_adapter@D@__crt_stdio_output@@@__crt_stdio_output@@IAE_NAA_J@Z 10045860 f i libucrtd:output.obj
 0001:00044890       ??$extract_argument_from_va_list@E_J@?$standard_base@_WV?$stream_output_adapter@_W@__crt_stdio_output@@@__crt_stdio_output@@IAE_NAA_J@Z 10045890 f i libucrtd:output.obj
 0001:000448c0       ??$extract_argument_from_va_list@E_J@?$standard_base@_WV?$string_output_adapter@_W@__crt_stdio_output@@@__crt_stdio_output@@IAE_NAA_J@Z 100458c0 f i libucrtd:output.obj
 0001:000448f0       ??$extract_argument_from_va_list@F_J@?$positional_parameter_base@DV?$stream_output_adapter@D@__crt_stdio_output@@@__crt_stdio_output@@IAE_NAA_J@Z 100458f0 f i libucrtd:output.obj
 0001:00044a50       ??$extract_argument_from_va_list@F_J@?$positional_parameter_base@DV?$string_output_adapter@D@__crt_stdio_output@@@__crt_stdio_output@@IAE_NAA_J@Z 10045a50 f i libucrtd:output.obj
 0001:00044bb0       ??$extract_argument_from_va_list@F_J@?$positional_parameter_base@_WV?$stream_output_adapter@_W@__crt_stdio_output@@@__crt_stdio_output@@IAE_NAA_J@Z 10045bb0 f i libucrtd:output.obj
 0001:00044d10       ??$extract_argument_from_va_list@F_J@?$positional_parameter_base@_WV?$string_output_adapter@_W@__crt_stdio_output@@@__crt_stdio_output@@IAE_NAA_J@Z 10045d10 f i libucrtd:output.obj
 0001:00044e70       ??$extract_argument_from_va_list@F_J@?$standard_base@DV?$stream_output_adapter@D@__crt_stdio_output@@@__crt_stdio_output@@IAE_NAA_J@Z 10045e70 f i libucrtd:output.obj
 0001:00044ea0       ??$extract_argument_from_va_list@F_J@?$standard_base@DV?$string_output_adapter@D@__crt_stdio_output@@@__crt_stdio_output@@IAE_NAA_J@Z 10045ea0 f i libucrtd:output.obj
 0001:00044ed0       ??$extract_argument_from_va_list@F_J@?$standard_base@_WV?$stream_output_adapter@_W@__crt_stdio_output@@@__crt_stdio_output@@IAE_NAA_J@Z 10045ed0 f i libucrtd:output.obj
 0001:00044f00       ??$extract_argument_from_va_list@F_J@?$standard_base@_WV?$string_output_adapter@_W@__crt_stdio_output@@@__crt_stdio_output@@IAE_NAA_J@Z 10045f00 f i libucrtd:output.obj
 0001:00044f30       ??$extract_argument_from_va_list@GD@?$positional_parameter_base@DV?$stream_output_adapter@D@__crt_stdio_output@@@__crt_stdio_output@@IAE_NAAD@Z 10045f30 f i libucrtd:output.obj
 0001:00045090       ??$extract_argument_from_va_list@GD@?$positional_parameter_base@DV?$string_output_adapter@D@__crt_stdio_output@@@__crt_stdio_output@@IAE_NAAD@Z 10046090 f i libucrtd:output.obj
 0001:000451f0       ??$extract_argument_from_va_list@GD@?$standard_base@DV?$stream_output_adapter@D@__crt_stdio_output@@@__crt_stdio_output@@IAE_NAAD@Z 100461f0 f i libucrtd:output.obj
 0001:00045220       ??$extract_argument_from_va_list@GD@?$standard_base@DV?$string_output_adapter@D@__crt_stdio_output@@@__crt_stdio_output@@IAE_NAAD@Z 10046220 f i libucrtd:output.obj
 0001:00045250       ??$extract_argument_from_va_list@G_J@?$positional_parameter_base@DV?$stream_output_adapter@D@__crt_stdio_output@@@__crt_stdio_output@@IAE_NAA_J@Z 10046250 f i libucrtd:output.obj
 0001:000453b0       ??$extract_argument_from_va_list@G_J@?$positional_parameter_base@DV?$string_output_adapter@D@__crt_stdio_output@@@__crt_stdio_output@@IAE_NAA_J@Z 100463b0 f i libucrtd:output.obj
 0001:00045510       ??$extract_argument_from_va_list@G_J@?$positional_parameter_base@_WV?$stream_output_adapter@_W@__crt_stdio_output@@@__crt_stdio_output@@IAE_NAA_J@Z 10046510 f i libucrtd:output.obj
 0001:00045680       ??$extract_argument_from_va_list@G_J@?$positional_parameter_base@_WV?$string_output_adapter@_W@__crt_stdio_output@@@__crt_stdio_output@@IAE_NAA_J@Z 10046680 f i libucrtd:output.obj
 0001:000457f0       ??$extract_argument_from_va_list@G_J@?$standard_base@DV?$stream_output_adapter@D@__crt_stdio_output@@@__crt_stdio_output@@IAE_NAA_J@Z 100467f0 f i libucrtd:output.obj
 0001:00045820       ??$extract_argument_from_va_list@G_J@?$standard_base@DV?$string_output_adapter@D@__crt_stdio_output@@@__crt_stdio_output@@IAE_NAA_J@Z 10046820 f i libucrtd:output.obj
 0001:00045850       ??$extract_argument_from_va_list@G_J@?$standard_base@_WV?$stream_output_adapter@_W@__crt_stdio_output@@@__crt_stdio_output@@IAE_NAA_J@Z 10046850 f i libucrtd:output.obj
 0001:00045880       ??$extract_argument_from_va_list@G_J@?$standard_base@_WV?$string_output_adapter@_W@__crt_stdio_output@@@__crt_stdio_output@@IAE_NAA_J@Z 10046880 f i libucrtd:output.obj
 0001:000458b0       ??$extract_argument_from_va_list@H_J@?$positional_parameter_base@DV?$stream_output_adapter@D@__crt_stdio_output@@@__crt_stdio_output@@IAE_NAA_J@Z 100468b0 f i libucrtd:output.obj
 0001:00045a10       ??$extract_argument_from_va_list@H_J@?$positional_parameter_base@DV?$string_output_adapter@D@__crt_stdio_output@@@__crt_stdio_output@@IAE_NAA_J@Z 10046a10 f i libucrtd:output.obj
 0001:00045b70       ??$extract_argument_from_va_list@H_J@?$positional_parameter_base@_WV?$stream_output_adapter@_W@__crt_stdio_output@@@__crt_stdio_output@@IAE_NAA_J@Z 10046b70 f i libucrtd:output.obj
 0001:00045cd0       ??$extract_argument_from_va_list@H_J@?$positional_parameter_base@_WV?$string_output_adapter@_W@__crt_stdio_output@@@__crt_stdio_output@@IAE_NAA_J@Z 10046cd0 f i libucrtd:output.obj
 0001:00045e30       ??$extract_argument_from_va_list@H_J@?$standard_base@DV?$stream_output_adapter@D@__crt_stdio_output@@@__crt_stdio_output@@IAE_NAA_J@Z 10046e30 f i libucrtd:output.obj
 0001:00045e60       ??$extract_argument_from_va_list@H_J@?$standard_base@DV?$string_output_adapter@D@__crt_stdio_output@@@__crt_stdio_output@@IAE_NAA_J@Z 10046e60 f i libucrtd:output.obj
 0001:00045e90       ??$extract_argument_from_va_list@H_J@?$standard_base@_WV?$stream_output_adapter@_W@__crt_stdio_output@@@__crt_stdio_output@@IAE_NAA_J@Z 10046e90 f i libucrtd:output.obj
 0001:00045ec0       ??$extract_argument_from_va_list@H_J@?$standard_base@_WV?$string_output_adapter@_W@__crt_stdio_output@@@__crt_stdio_output@@IAE_NAA_J@Z 10046ec0 f i libucrtd:output.obj
 0001:00045ef0       ??$extract_argument_from_va_list@I_J@?$positional_parameter_base@DV?$stream_output_adapter@D@__crt_stdio_output@@@__crt_stdio_output@@IAE_NAA_J@Z 10046ef0 f i libucrtd:output.obj
 0001:00046050       ??$extract_argument_from_va_list@I_J@?$positional_parameter_base@DV?$string_output_adapter@D@__crt_stdio_output@@@__crt_stdio_output@@IAE_NAA_J@Z 10047050 f i libucrtd:output.obj
 0001:000461b0       ??$extract_argument_from_va_list@I_J@?$positional_parameter_base@_WV?$stream_output_adapter@_W@__crt_stdio_output@@@__crt_stdio_output@@IAE_NAA_J@Z 100471b0 f i libucrtd:output.obj
 0001:00046310       ??$extract_argument_from_va_list@I_J@?$positional_parameter_base@_WV?$string_output_adapter@_W@__crt_stdio_output@@@__crt_stdio_output@@IAE_NAA_J@Z 10047310 f i libucrtd:output.obj
 0001:00046470       ??$extract_argument_from_va_list@I_J@?$standard_base@DV?$stream_output_adapter@D@__crt_stdio_output@@@__crt_stdio_output@@IAE_NAA_J@Z 10047470 f i libucrtd:output.obj
 0001:000464a0       ??$extract_argument_from_va_list@I_J@?$standard_base@DV?$string_output_adapter@D@__crt_stdio_output@@@__crt_stdio_output@@IAE_NAA_J@Z 100474a0 f i libucrtd:output.obj
 0001:000464d0       ??$extract_argument_from_va_list@I_J@?$standard_base@_WV?$stream_output_adapter@_W@__crt_stdio_output@@@__crt_stdio_output@@IAE_NAA_J@Z 100474d0 f i libucrtd:output.obj
 0001:00046500       ??$extract_argument_from_va_list@I_J@?$standard_base@_WV?$string_output_adapter@_W@__crt_stdio_output@@@__crt_stdio_output@@IAE_NAA_J@Z 10047500 f i libucrtd:output.obj
 0001:00046530       ??$extract_argument_from_va_list@PADPAD@?$positional_parameter_base@DV?$stream_output_adapter@D@__crt_stdio_output@@@__crt_stdio_output@@IAE_NAAPAD@Z 10047530 f i libucrtd:output.obj
 0001:00046690       ??$extract_argument_from_va_list@PADPAD@?$positional_parameter_base@DV?$string_output_adapter@D@__crt_stdio_output@@@__crt_stdio_output@@IAE_NAAPAD@Z 10047690 f i libucrtd:output.obj
 0001:000467f0       ??$extract_argument_from_va_list@PADPAD@?$positional_parameter_base@_WV?$stream_output_adapter@_W@__crt_stdio_output@@@__crt_stdio_output@@IAE_NAAPAD@Z 100477f0 f i libucrtd:output.obj
 0001:00046950       ??$extract_argument_from_va_list@PADPAD@?$positional_parameter_base@_WV?$string_output_adapter@_W@__crt_stdio_output@@@__crt_stdio_output@@IAE_NAAPAD@Z 10047950 f i libucrtd:output.obj
 0001:00046ab0       ??$extract_argument_from_va_list@PADPAD@?$standard_base@DV?$stream_output_adapter@D@__crt_stdio_output@@@__crt_stdio_output@@IAE_NAAPAD@Z 10047ab0 f i libucrtd:output.obj
 0001:00046ae0       ??$extract_argument_from_va_list@PADPAD@?$standard_base@DV?$string_output_adapter@D@__crt_stdio_output@@@__crt_stdio_output@@IAE_NAAPAD@Z 10047ae0 f i libucrtd:output.obj
 0001:00046b10       ??$extract_argument_from_va_list@PADPAD@?$standard_base@_WV?$stream_output_adapter@_W@__crt_stdio_output@@@__crt_stdio_output@@IAE_NAAPAD@Z 10047b10 f i libucrtd:output.obj
 0001:00046b40       ??$extract_argument_from_va_list@PADPAD@?$standard_base@_WV?$string_output_adapter@_W@__crt_stdio_output@@@__crt_stdio_output@@IAE_NAAPAD@Z 10047b40 f i libucrtd:output.obj
 0001:00046b70       ??$extract_argument_from_va_list@PAUansi_string@?1??type_case_Z@?$output_processor@DV?$stream_output_adapter@D@__crt_stdio_output@@V?$format_validation_base@DV?$stream_output_adapter@D@__crt_stdio_output@@@2@@__crt_stdio_output@@AAE_NXZ@PAU1?1??234@AAE_NXZ@@?$standard_base@DV?$stream_output_adapter@D@__crt_stdio_output@@@__crt_stdio_output@@IAE_NAAPAUansi_string@?1??type_case_Z@?$output_processor@DV?$stream_output_adapter@D@__crt_stdio_output@@V?$format_validation_base@DV?$stream_output_adapter@D@__crt_stdio_output@@@2@@1@AAE_NXZ@@Z 10047b70 f i libucrtd:output.obj
 0001:00046ba0       ??$extract_argument_from_va_list@PAUansi_string@?1??type_case_Z@?$output_processor@DV?$stream_output_adapter@D@__crt_stdio_output@@V?$positional_parameter_base@DV?$stream_output_adapter@D@__crt_stdio_output@@@2@@__crt_stdio_output@@AAE_NXZ@PAU1?1??234@AAE_NXZ@@?$positional_parameter_base@DV?$stream_output_adapter@D@__crt_stdio_output@@@__crt_stdio_output@@IAE_NAAPAUansi_string@?1??type_case_Z@?$output_processor@DV?$stream_output_adapter@D@__crt_stdio_output@@V?$positional_parameter_base@DV?$stream_output_adapter@D@__crt_stdio_output@@@2@@1@AAE_NXZ@@Z 10047ba0 f i libucrtd:output.obj
 0001:00046d00       ??$extract_argument_from_va_list@PAUansi_string@?1??type_case_Z@?$output_processor@DV?$stream_output_adapter@D@__crt_stdio_output@@V?$positional_parameter_base@DV?$stream_output_adapter@D@__crt_stdio_output@@@2@@__crt_stdio_output@@AAE_NXZ@PAU1?1??234@AAE_NXZ@@?$standard_base@DV?$stream_output_adapter@D@__crt_stdio_output@@@__crt_stdio_output@@IAE_NAAPAUansi_string@?1??type_case_Z@?$output_processor@DV?$stream_output_adapter@D@__crt_stdio_output@@V?$positional_parameter_base@DV?$stream_output_adapter@D@__crt_stdio_output@@@2@@1@AAE_NXZ@@Z 10047d00 f i libucrtd:output.obj
 0001:00046d30       ??$extract_argument_from_va_list@PAUansi_string@?1??type_case_Z@?$output_processor@DV?$stream_output_adapter@D@__crt_stdio_output@@V?$standard_base@DV?$stream_output_adapter@D@__crt_stdio_output@@@2@@__crt_stdio_output@@AAE_NXZ@PAU1?1??234@AAE_NXZ@@?$standard_base@DV?$stream_output_adapter@D@__crt_stdio_output@@@__crt_stdio_output@@IAE_NAAPAUansi_string@?1??type_case_Z@?$output_processor@DV?$stream_output_adapter@D@__crt_stdio_output@@V?$standard_base@DV?$stream_output_adapter@D@__crt_stdio_output@@@2@@1@AAE_NXZ@@Z 10047d30 f i libucrtd:output.obj
 0001:00046d60       ??$extract_argument_from_va_list@PAUansi_string@?1??type_case_Z@?$output_processor@DV?$string_output_adapter@D@__crt_stdio_output@@V?$format_validation_base@DV?$string_output_adapter@D@__crt_stdio_output@@@2@@__crt_stdio_output@@AAE_NXZ@PAU1?1??234@AAE_NXZ@@?$standard_base@DV?$string_output_adapter@D@__crt_stdio_output@@@__crt_stdio_output@@IAE_NAAPAUansi_string@?1??type_case_Z@?$output_processor@DV?$string_output_adapter@D@__crt_stdio_output@@V?$format_validation_base@DV?$string_output_adapter@D@__crt_stdio_output@@@2@@1@AAE_NXZ@@Z 10047d60 f i libucrtd:output.obj
 0001:00046d90       ??$extract_argument_from_va_list@PAUansi_string@?1??type_case_Z@?$output_processor@DV?$string_output_adapter@D@__crt_stdio_output@@V?$positional_parameter_base@DV?$string_output_adapter@D@__crt_stdio_output@@@2@@__crt_stdio_output@@AAE_NXZ@PAU1?1??234@AAE_NXZ@@?$positional_parameter_base@DV?$string_output_adapter@D@__crt_stdio_output@@@__crt_stdio_output@@IAE_NAAPAUansi_string@?1??type_case_Z@?$output_processor@DV?$string_output_adapter@D@__crt_stdio_output@@V?$positional_parameter_base@DV?$string_output_adapter@D@__crt_stdio_output@@@2@@1@AAE_NXZ@@Z 10047d90 f i libucrtd:output.obj
 0001:00046ef0       ??$extract_argument_from_va_list@PAUansi_string@?1??type_case_Z@?$output_processor@DV?$string_output_adapter@D@__crt_stdio_output@@V?$positional_parameter_base@DV?$string_output_adapter@D@__crt_stdio_output@@@2@@__crt_stdio_output@@AAE_NXZ@PAU1?1??234@AAE_NXZ@@?$standard_base@DV?$string_output_adapter@D@__crt_stdio_output@@@__crt_stdio_output@@IAE_NAAPAUansi_string@?1??type_case_Z@?$output_processor@DV?$string_output_adapter@D@__crt_stdio_output@@V?$positional_parameter_base@DV?$string_output_adapter@D@__crt_stdio_output@@@2@@1@AAE_NXZ@@Z 10047ef0 f i libucrtd:output.obj
 0001:00046f20       ??$extract_argument_from_va_list@PAUansi_string@?1??type_case_Z@?$output_processor@DV?$string_output_adapter@D@__crt_stdio_output@@V?$standard_base@DV?$string_output_adapter@D@__crt_stdio_output@@@2@@__crt_stdio_output@@AAE_NXZ@PAU1?1??234@AAE_NXZ@@?$standard_base@DV?$string_output_adapter@D@__crt_stdio_output@@@__crt_stdio_output@@IAE_NAAPAUansi_string@?1??type_case_Z@?$output_processor@DV?$string_output_adapter@D@__crt_stdio_output@@V?$standard_base@DV?$string_output_adapter@D@__crt_stdio_output@@@2@@1@AAE_NXZ@@Z 10047f20 f i libucrtd:output.obj
 0001:00046f50       ??$extract_argument_from_va_list@PAUansi_string@?1??type_case_Z@?$output_processor@_WV?$stream_output_adapter@_W@__crt_stdio_output@@V?$format_validation_base@_WV?$stream_output_adapter@_W@__crt_stdio_output@@@2@@__crt_stdio_output@@AAE_NXZ@PAU1?1??234@AAE_NXZ@@?$standard_base@_WV?$stream_output_adapter@_W@__crt_stdio_output@@@__crt_stdio_output@@IAE_NAAPAUansi_string@?1??type_case_Z@?$output_processor@_WV?$stream_output_adapter@_W@__crt_stdio_output@@V?$format_validation_base@_WV?$stream_output_adapter@_W@__crt_stdio_output@@@2@@1@AAE_NXZ@@Z 10047f50 f i libucrtd:output.obj
 0001:00046f80       ??$extract_argument_from_va_list@PAUansi_string@?1??type_case_Z@?$output_processor@_WV?$stream_output_adapter@_W@__crt_stdio_output@@V?$positional_parameter_base@_WV?$stream_output_adapter@_W@__crt_stdio_output@@@2@@__crt_stdio_output@@AAE_NXZ@PAU1?1??234@AAE_NXZ@@?$positional_parameter_base@_WV?$stream_output_adapter@_W@__crt_stdio_output@@@__crt_stdio_output@@IAE_NAAPAUansi_string@?1??type_case_Z@?$output_processor@_WV?$stream_output_adapter@_W@__crt_stdio_output@@V?$positional_parameter_base@_WV?$stream_output_adapter@_W@__crt_stdio_output@@@2@@1@AAE_NXZ@@Z 10047f80 f i libucrtd:output.obj
 0001:000470e0       ??$extract_argument_from_va_list@PAUansi_string@?1??type_case_Z@?$output_processor@_WV?$stream_output_adapter@_W@__crt_stdio_output@@V?$positional_parameter_base@_WV?$stream_output_adapter@_W@__crt_stdio_output@@@2@@__crt_stdio_output@@AAE_NXZ@PAU1?1??234@AAE_NXZ@@?$standard_base@_WV?$stream_output_adapter@_W@__crt_stdio_output@@@__crt_stdio_output@@IAE_NAAPAUansi_string@?1??type_case_Z@?$output_processor@_WV?$stream_output_adapter@_W@__crt_stdio_output@@V?$positional_parameter_base@_WV?$stream_output_adapter@_W@__crt_stdio_output@@@2@@1@AAE_NXZ@@Z 100480e0 f i libucrtd:output.obj
 0001:00047110       ??$extract_argument_from_va_list@PAUansi_string@?1??type_case_Z@?$output_processor@_WV?$stream_output_adapter@_W@__crt_stdio_output@@V?$standard_base@_WV?$stream_output_adapter@_W@__crt_stdio_output@@@2@@__crt_stdio_output@@AAE_NXZ@PAU1?1??234@AAE_NXZ@@?$standard_base@_WV?$stream_output_adapter@_W@__crt_stdio_output@@@__crt_stdio_output@@IAE_NAAPAUansi_string@?1??type_case_Z@?$output_processor@_WV?$stream_output_adapter@_W@__crt_stdio_output@@V?$standard_base@_WV?$stream_output_adapter@_W@__crt_stdio_output@@@2@@1@AAE_NXZ@@Z 10048110 f i libucrtd:output.obj
 0001:00047140       ??$extract_argument_from_va_list@PAUansi_string@?1??type_case_Z@?$output_processor@_WV?$string_output_adapter@_W@__crt_stdio_output@@V?$format_validation_base@_WV?$string_output_adapter@_W@__crt_stdio_output@@@2@@__crt_stdio_output@@AAE_NXZ@PAU1?1??234@AAE_NXZ@@?$standard_base@_WV?$string_output_adapter@_W@__crt_stdio_output@@@__crt_stdio_output@@IAE_NAAPAUansi_string@?1??type_case_Z@?$output_processor@_WV?$string_output_adapter@_W@__crt_stdio_output@@V?$format_validation_base@_WV?$string_output_adapter@_W@__crt_stdio_output@@@2@@1@AAE_NXZ@@Z 10048140 f i libucrtd:output.obj
 0001:00047170       ??$extract_argument_from_va_list@PAUansi_string@?1??type_case_Z@?$output_processor@_WV?$string_output_adapter@_W@__crt_stdio_output@@V?$positional_parameter_base@_WV?$string_output_adapter@_W@__crt_stdio_output@@@2@@__crt_stdio_output@@AAE_NXZ@PAU1?1??234@AAE_NXZ@@?$positional_parameter_base@_WV?$string_output_adapter@_W@__crt_stdio_output@@@__crt_stdio_output@@IAE_NAAPAUansi_string@?1??type_case_Z@?$output_processor@_WV?$string_output_adapter@_W@__crt_stdio_output@@V?$positional_parameter_base@_WV?$string_output_adapter@_W@__crt_stdio_output@@@2@@1@AAE_NXZ@@Z 10048170 f i libucrtd:output.obj
 0001:000472d0       ??$extract_argument_from_va_list@PAUansi_string@?1??type_case_Z@?$output_processor@_WV?$string_output_adapter@_W@__crt_stdio_output@@V?$positional_parameter_base@_WV?$string_output_adapter@_W@__crt_stdio_output@@@2@@__crt_stdio_output@@AAE_NXZ@PAU1?1??234@AAE_NXZ@@?$standard_base@_WV?$string_output_adapter@_W@__crt_stdio_output@@@__crt_stdio_output@@IAE_NAAPAUansi_string@?1??type_case_Z@?$output_processor@_WV?$string_output_adapter@_W@__crt_stdio_output@@V?$positional_parameter_base@_WV?$string_output_adapter@_W@__crt_stdio_output@@@2@@1@AAE_NXZ@@Z 100482d0 f i libucrtd:output.obj
 0001:00047300       ??$extract_argument_from_va_list@PAUansi_string@?1??type_case_Z@?$output_processor@_WV?$string_output_adapter@_W@__crt_stdio_output@@V?$standard_base@_WV?$string_output_adapter@_W@__crt_stdio_output@@@2@@__crt_stdio_output@@AAE_NXZ@PAU1?1??234@AAE_NXZ@@?$standard_base@_WV?$string_output_adapter@_W@__crt_stdio_output@@@__crt_stdio_output@@IAE_NAAPAUansi_string@?1??type_case_Z@?$output_processor@_WV?$string_output_adapter@_W@__crt_stdio_output@@V?$standard_base@_WV?$string_output_adapter@_W@__crt_stdio_output@@@2@@1@AAE_NXZ@@Z 10048300 f i libucrtd:output.obj
 0001:00047330       ??$extract_argument_from_va_list@PAXPAX@?$positional_parameter_base@DV?$stream_output_adapter@D@__crt_stdio_output@@@__crt_stdio_output@@IAE_NAAPAX@Z 10048330 f i libucrtd:output.obj
 0001:00047490       ??$extract_argument_from_va_list@PAXPAX@?$positional_parameter_base@DV?$string_output_adapter@D@__crt_stdio_output@@@__crt_stdio_output@@IAE_NAAPAX@Z 10048490 f i libucrtd:output.obj
 0001:000475f0       ??$extract_argument_from_va_list@PAXPAX@?$positional_parameter_base@_WV?$stream_output_adapter@_W@__crt_stdio_output@@@__crt_stdio_output@@IAE_NAAPAX@Z 100485f0 f i libucrtd:output.obj
 0001:00047750       ??$extract_argument_from_va_list@PAXPAX@?$positional_parameter_base@_WV?$string_output_adapter@_W@__crt_stdio_output@@@__crt_stdio_output@@IAE_NAAPAX@Z 10048750 f i libucrtd:output.obj
 0001:000478b0       ??$extract_argument_from_va_list@PAXPAX@?$standard_base@DV?$stream_output_adapter@D@__crt_stdio_output@@@__crt_stdio_output@@IAE_NAAPAX@Z 100488b0 f i libucrtd:output.obj
 0001:000478e0       ??$extract_argument_from_va_list@PAXPAX@?$standard_base@DV?$string_output_adapter@D@__crt_stdio_output@@@__crt_stdio_output@@IAE_NAAPAX@Z 100488e0 f i libucrtd:output.obj
 0001:00047910       ??$extract_argument_from_va_list@PAXPAX@?$standard_base@_WV?$stream_output_adapter@_W@__crt_stdio_output@@@__crt_stdio_output@@IAE_NAAPAX@Z 10048910 f i libucrtd:output.obj
 0001:00047940       ??$extract_argument_from_va_list@PAXPAX@?$standard_base@_WV?$string_output_adapter@_W@__crt_stdio_output@@@__crt_stdio_output@@IAE_NAAPAX@Z 10048940 f i libucrtd:output.obj
 0001:00047970       ??$extract_argument_from_va_list@U_CRT_DOUBLE@@U1@@?$positional_parameter_base@DV?$stream_output_adapter@D@__crt_stdio_output@@@__crt_stdio_output@@IAE_NAAU_CRT_DOUBLE@@@Z 10048970 f i libucrtd:output.obj
 0001:00047b00       ??$extract_argument_from_va_list@U_CRT_DOUBLE@@U1@@?$positional_parameter_base@DV?$string_output_adapter@D@__crt_stdio_output@@@__crt_stdio_output@@IAE_NAAU_CRT_DOUBLE@@@Z 10048b00 f i libucrtd:output.obj
 0001:00047c90       ??$extract_argument_from_va_list@U_CRT_DOUBLE@@U1@@?$positional_parameter_base@_WV?$stream_output_adapter@_W@__crt_stdio_output@@@__crt_stdio_output@@IAE_NAAU_CRT_DOUBLE@@@Z 10048c90 f i libucrtd:output.obj
 0001:00047e20       ??$extract_argument_from_va_list@U_CRT_DOUBLE@@U1@@?$positional_parameter_base@_WV?$string_output_adapter@_W@__crt_stdio_output@@@__crt_stdio_output@@IAE_NAAU_CRT_DOUBLE@@@Z 10048e20 f i libucrtd:output.obj
 0001:00047fb0       ??$extract_argument_from_va_list@U_CRT_DOUBLE@@U1@@?$standard_base@DV?$stream_output_adapter@D@__crt_stdio_output@@@__crt_stdio_output@@IAE_NAAU_CRT_DOUBLE@@@Z 10048fb0 f i libucrtd:output.obj
 0001:00048000       ??$extract_argument_from_va_list@U_CRT_DOUBLE@@U1@@?$standard_base@DV?$string_output_adapter@D@__crt_stdio_output@@@__crt_stdio_output@@IAE_NAAU_CRT_DOUBLE@@@Z 10049000 f i libucrtd:output.obj
 0001:00048050       ??$extract_argument_from_va_list@U_CRT_DOUBLE@@U1@@?$standard_base@_WV?$stream_output_adapter@_W@__crt_stdio_output@@@__crt_stdio_output@@IAE_NAAU_CRT_DOUBLE@@@Z 10049050 f i libucrtd:output.obj
 0001:000480a0       ??$extract_argument_from_va_list@U_CRT_DOUBLE@@U1@@?$standard_base@_WV?$string_output_adapter@_W@__crt_stdio_output@@@__crt_stdio_output@@IAE_NAAU_CRT_DOUBLE@@@Z 100490a0 f i libucrtd:output.obj
 0001:000480f0       ??$extract_argument_from_va_list@_J_J@?$positional_parameter_base@DV?$stream_output_adapter@D@__crt_stdio_output@@@__crt_stdio_output@@IAE_NAA_J@Z 100490f0 f i libucrtd:output.obj
 0001:00048250       ??$extract_argument_from_va_list@_J_J@?$positional_parameter_base@DV?$string_output_adapter@D@__crt_stdio_output@@@__crt_stdio_output@@IAE_NAA_J@Z 10049250 f i libucrtd:output.obj
 0001:000483b0       ??$extract_argument_from_va_list@_J_J@?$positional_parameter_base@_WV?$stream_output_adapter@_W@__crt_stdio_output@@@__crt_stdio_output@@IAE_NAA_J@Z 100493b0 f i libucrtd:output.obj
 0001:00048510       ??$extract_argument_from_va_list@_J_J@?$positional_parameter_base@_WV?$string_output_adapter@_W@__crt_stdio_output@@@__crt_stdio_output@@IAE_NAA_J@Z 10049510 f i libucrtd:output.obj
 0001:00048670       ??$extract_argument_from_va_list@_J_J@?$standard_base@DV?$stream_output_adapter@D@__crt_stdio_output@@@__crt_stdio_output@@IAE_NAA_J@Z 10049670 f i libucrtd:output.obj
 0001:000486a0       ??$extract_argument_from_va_list@_J_J@?$standard_base@DV?$string_output_adapter@D@__crt_stdio_output@@@__crt_stdio_output@@IAE_NAA_J@Z 100496a0 f i libucrtd:output.obj
 0001:000486d0       ??$extract_argument_from_va_list@_J_J@?$standard_base@_WV?$stream_output_adapter@_W@__crt_stdio_output@@@__crt_stdio_output@@IAE_NAA_J@Z 100496d0 f i libucrtd:output.obj
 0001:00048700       ??$extract_argument_from_va_list@_J_J@?$standard_base@_WV?$string_output_adapter@_W@__crt_stdio_output@@@__crt_stdio_output@@IAE_NAA_J@Z 10049700 f i libucrtd:output.obj
 0001:00048730       ??$extract_argument_from_va_list@_K_J@?$positional_parameter_base@DV?$stream_output_adapter@D@__crt_stdio_output@@@__crt_stdio_output@@IAE_NAA_J@Z 10049730 f i libucrtd:output.obj
 0001:00048890       ??$extract_argument_from_va_list@_K_J@?$positional_parameter_base@DV?$string_output_adapter@D@__crt_stdio_output@@@__crt_stdio_output@@IAE_NAA_J@Z 10049890 f i libucrtd:output.obj
 0001:000489f0       ??$extract_argument_from_va_list@_K_J@?$positional_parameter_base@_WV?$stream_output_adapter@_W@__crt_stdio_output@@@__crt_stdio_output@@IAE_NAA_J@Z 100499f0 f i libucrtd:output.obj
 0001:00048b50       ??$extract_argument_from_va_list@_K_J@?$positional_parameter_base@_WV?$string_output_adapter@_W@__crt_stdio_output@@@__crt_stdio_output@@IAE_NAA_J@Z 10049b50 f i libucrtd:output.obj
 0001:00048cb0       ??$extract_argument_from_va_list@_K_J@?$standard_base@DV?$stream_output_adapter@D@__crt_stdio_output@@@__crt_stdio_output@@IAE_NAA_J@Z 10049cb0 f i libucrtd:output.obj
 0001:00048ce0       ??$extract_argument_from_va_list@_K_J@?$standard_base@DV?$string_output_adapter@D@__crt_stdio_output@@@__crt_stdio_output@@IAE_NAA_J@Z 10049ce0 f i libucrtd:output.obj
 0001:00048d10       ??$extract_argument_from_va_list@_K_J@?$standard_base@_WV?$stream_output_adapter@_W@__crt_stdio_output@@@__crt_stdio_output@@IAE_NAA_J@Z 10049d10 f i libucrtd:output.obj
 0001:00048d40       ??$extract_argument_from_va_list@_K_J@?$standard_base@_WV?$string_output_adapter@_W@__crt_stdio_output@@@__crt_stdio_output@@IAE_NAA_J@Z 10049d40 f i libucrtd:output.obj
 0001:00048d70       ??$extract_argument_from_va_list@_W_W@?$positional_parameter_base@DV?$stream_output_adapter@D@__crt_stdio_output@@@__crt_stdio_output@@IAE_NAA_W@Z 10049d70 f i libucrtd:output.obj
 0001:00048ed0       ??$extract_argument_from_va_list@_W_W@?$positional_parameter_base@DV?$string_output_adapter@D@__crt_stdio_output@@@__crt_stdio_output@@IAE_NAA_W@Z 10049ed0 f i libucrtd:output.obj
 0001:00049030       ??$extract_argument_from_va_list@_W_W@?$positional_parameter_base@_WV?$stream_output_adapter@_W@__crt_stdio_output@@@__crt_stdio_output@@IAE_NAA_W@Z 1004a030 f i libucrtd:output.obj
 0001:00049190       ??$extract_argument_from_va_list@_W_W@?$positional_parameter_base@_WV?$string_output_adapter@_W@__crt_stdio_output@@@__crt_stdio_output@@IAE_NAA_W@Z 1004a190 f i libucrtd:output.obj
 0001:000492f0       ??$extract_argument_from_va_list@_W_W@?$standard_base@DV?$stream_output_adapter@D@__crt_stdio_output@@@__crt_stdio_output@@IAE_NAA_W@Z 1004a2f0 f i libucrtd:output.obj
 0001:00049320       ??$extract_argument_from_va_list@_W_W@?$standard_base@DV?$string_output_adapter@D@__crt_stdio_output@@@__crt_stdio_output@@IAE_NAA_W@Z 1004a320 f i libucrtd:output.obj
 0001:00049350       ??$extract_argument_from_va_list@_W_W@?$standard_base@_WV?$stream_output_adapter@_W@__crt_stdio_output@@@__crt_stdio_output@@IAE_NAA_W@Z 1004a350 f i libucrtd:output.obj
 0001:00049380       ??$extract_argument_from_va_list@_W_W@?$standard_base@_WV?$string_output_adapter@_W@__crt_stdio_output@@@__crt_stdio_output@@IAE_NAA_W@Z 1004a380 f i libucrtd:output.obj
 0001:000493b0       ??$get_parameter_type@D@?$positional_parameter_base@DV?$stream_output_adapter@D@__crt_stdio_output@@@__crt_stdio_output@@CA?AW4parameter_type@01@PAD@Z 1004a3b0 f i libucrtd:output.obj
 0001:000493c0       ??$get_parameter_type@D@?$positional_parameter_base@DV?$string_output_adapter@D@__crt_stdio_output@@@__crt_stdio_output@@CA?AW4parameter_type@01@PAD@Z 1004a3c0 f i libucrtd:output.obj
 0001:000493d0       ??$get_parameter_type@D@?$positional_parameter_base@_WV?$stream_output_adapter@_W@__crt_stdio_output@@@__crt_stdio_output@@CA?AW4parameter_type@01@PAD@Z 1004a3d0 f i libucrtd:output.obj
 0001:000493e0       ??$get_parameter_type@D@?$positional_parameter_base@_WV?$string_output_adapter@_W@__crt_stdio_output@@@__crt_stdio_output@@CA?AW4parameter_type@01@PAD@Z 1004a3e0 f i libucrtd:output.obj
 0001:000493f0       ??$get_parameter_type@Uansi_string@?1??type_case_Z@?$output_processor@DV?$stream_output_adapter@D@__crt_stdio_output@@V?$positional_parameter_base@DV?$stream_output_adapter@D@__crt_stdio_output@@@2@@__crt_stdio_output@@AAE_NXZ@@?$positional_parameter_base@DV?$stream_output_adapter@D@__crt_stdio_output@@@__crt_stdio_output@@CA?AW4parameter_type@01@PAUansi_string@?1??type_case_Z@?$output_processor@DV?$stream_output_adapter@D@__crt_stdio_output@@V?$positional_parameter_base@DV?$stream_output_adapter@D@__crt_stdio_output@@@2@@1@AAE_NXZ@@Z 1004a3f0 f i libucrtd:output.obj
 0001:00049400       ??$get_parameter_type@Uansi_string@?1??type_case_Z@?$output_processor@DV?$string_output_adapter@D@__crt_stdio_output@@V?$positional_parameter_base@DV?$string_output_adapter@D@__crt_stdio_output@@@2@@__crt_stdio_output@@AAE_NXZ@@?$positional_parameter_base@DV?$string_output_adapter@D@__crt_stdio_output@@@__crt_stdio_output@@CA?AW4parameter_type@01@PAUansi_string@?1??type_case_Z@?$output_processor@DV?$string_output_adapter@D@__crt_stdio_output@@V?$positional_parameter_base@DV?$string_output_adapter@D@__crt_stdio_output@@@2@@1@AAE_NXZ@@Z 1004a400 f i libucrtd:output.obj
 0001:00049410       ??$get_parameter_type@Uansi_string@?1??type_case_Z@?$output_processor@_WV?$stream_output_adapter@_W@__crt_stdio_output@@V?$positional_parameter_base@_WV?$stream_output_adapter@_W@__crt_stdio_output@@@2@@__crt_stdio_output@@AAE_NXZ@@?$positional_parameter_base@_WV?$stream_output_adapter@_W@__crt_stdio_output@@@__crt_stdio_output@@CA?AW4parameter_type@01@PAUansi_string@?1??type_case_Z@?$output_processor@_WV?$stream_output_adapter@_W@__crt_stdio_output@@V?$positional_parameter_base@_WV?$stream_output_adapter@_W@__crt_stdio_output@@@2@@1@AAE_NXZ@@Z 1004a410 f i libucrtd:output.obj
 0001:00049420       ??$get_parameter_type@Uansi_string@?1??type_case_Z@?$output_processor@_WV?$string_output_adapter@_W@__crt_stdio_output@@V?$positional_parameter_base@_WV?$string_output_adapter@_W@__crt_stdio_output@@@2@@__crt_stdio_output@@AAE_NXZ@@?$positional_parameter_base@_WV?$string_output_adapter@_W@__crt_stdio_output@@@__crt_stdio_output@@CA?AW4parameter_type@01@PAUansi_string@?1??type_case_Z@?$output_processor@_WV?$string_output_adapter@_W@__crt_stdio_output@@V?$positional_parameter_base@_WV?$string_output_adapter@_W@__crt_stdio_output@@@2@@1@AAE_NXZ@@Z 1004a420 f i libucrtd:output.obj
 0001:00049430       ??$get_parameter_type@X@?$positional_parameter_base@DV?$stream_output_adapter@D@__crt_stdio_output@@@__crt_stdio_output@@CA?AW4parameter_type@01@PAX@Z 1004a430 f i libucrtd:output.obj
 0001:00049440       ??$get_parameter_type@X@?$positional_parameter_base@DV?$string_output_adapter@D@__crt_stdio_output@@@__crt_stdio_output@@CA?AW4parameter_type@01@PAX@Z 1004a440 f i libucrtd:output.obj
 0001:00049450       ??$get_parameter_type@X@?$positional_parameter_base@_WV?$stream_output_adapter@_W@__crt_stdio_output@@@__crt_stdio_output@@CA?AW4parameter_type@01@PAX@Z 1004a450 f i libucrtd:output.obj
 0001:00049460       ??$get_parameter_type@X@?$positional_parameter_base@_WV?$string_output_adapter@_W@__crt_stdio_output@@@__crt_stdio_output@@CA?AW4parameter_type@01@PAX@Z 1004a460 f i libucrtd:output.obj
 0001:00049470       ??$is_character_specifier@D@?$positional_parameter_base@DV?$stream_output_adapter@D@__crt_stdio_output@@@__crt_stdio_output@@CA_ND@Z 1004a470 f i libucrtd:output.obj
 0001:000494a0       ??$is_character_specifier@D@?$positional_parameter_base@DV?$string_output_adapter@D@__crt_stdio_output@@@__crt_stdio_output@@CA_ND@Z 1004a4a0 f i libucrtd:output.obj
 0001:000494d0       ??$is_character_specifier@_W@?$positional_parameter_base@_WV?$stream_output_adapter@_W@__crt_stdio_output@@@__crt_stdio_output@@CA_N_W@Z 1004a4d0 f i libucrtd:output.obj
 0001:00049500       ??$is_character_specifier@_W@?$positional_parameter_base@_WV?$string_output_adapter@_W@__crt_stdio_output@@@__crt_stdio_output@@CA_N_W@Z 1004a500 f i libucrtd:output.obj
 0001:00049530       ??$is_integral_specifier@D@?$positional_parameter_base@DV?$stream_output_adapter@D@__crt_stdio_output@@@__crt_stdio_output@@CA_ND@Z 1004a530 f i libucrtd:output.obj
 0001:00049590       ??$is_integral_specifier@D@?$positional_parameter_base@DV?$string_output_adapter@D@__crt_stdio_output@@@__crt_stdio_output@@CA_ND@Z 1004a590 f i libucrtd:output.obj
 0001:000495f0       ??$is_integral_specifier@_W@?$positional_parameter_base@_WV?$stream_output_adapter@_W@__crt_stdio_output@@@__crt_stdio_output@@CA_N_W@Z 1004a5f0 f i libucrtd:output.obj
 0001:00049650       ??$is_integral_specifier@_W@?$positional_parameter_base@_WV?$string_output_adapter@_W@__crt_stdio_output@@@__crt_stdio_output@@CA_N_W@Z 1004a650 f i libucrtd:output.obj
 0001:000496b0       ??$is_overflow_condition@K@__crt_strtox@@YA_NIK@Z 1004a6b0 f i libucrtd:output.obj
 0001:00049710       ??$is_pointer_specifier@D@?$positional_parameter_base@DV?$stream_output_adapter@D@__crt_stdio_output@@@__crt_stdio_output@@CA_ND@Z 1004a710 f i libucrtd:output.obj
 0001:00049740       ??$is_pointer_specifier@D@?$positional_parameter_base@DV?$string_output_adapter@D@__crt_stdio_output@@@__crt_stdio_output@@CA_ND@Z 1004a740 f i libucrtd:output.obj
 0001:00049770       ??$is_pointer_specifier@_W@?$positional_parameter_base@_WV?$stream_output_adapter@_W@__crt_stdio_output@@@__crt_stdio_output@@CA_N_W@Z 1004a770 f i libucrtd:output.obj
 0001:000497a0       ??$is_pointer_specifier@_W@?$positional_parameter_base@_WV?$string_output_adapter@_W@__crt_stdio_output@@@__crt_stdio_output@@CA_N_W@Z 1004a7a0 f i libucrtd:output.obj
 0001:000497d0       ??$is_string_specifier@D@?$positional_parameter_base@DV?$stream_output_adapter@D@__crt_stdio_output@@@__crt_stdio_output@@CA_ND@Z 1004a7d0 f i libucrtd:output.obj
 0001:00049800       ??$is_string_specifier@D@?$positional_parameter_base@DV?$string_output_adapter@D@__crt_stdio_output@@@__crt_stdio_output@@CA_ND@Z 1004a800 f i libucrtd:output.obj
 0001:00049830       ??$is_string_specifier@_W@?$positional_parameter_base@_WV?$stream_output_adapter@_W@__crt_stdio_output@@@__crt_stdio_output@@CA_N_W@Z 1004a830 f i libucrtd:output.obj
 0001:00049860       ??$is_string_specifier@_W@?$positional_parameter_base@_WV?$string_output_adapter@_W@__crt_stdio_output@@@__crt_stdio_output@@CA_N_W@Z 1004a860 f i libucrtd:output.obj
 0001:00049890       ??$is_wide_character_specifier@D@__crt_stdio_output@@YA_N_KDW4length_modifier@0@@Z 1004a890 f i libucrtd:output.obj
 0001:00049910       ??$is_wide_character_specifier@_W@__crt_stdio_output@@YA_N_K_WW4length_modifier@0@@Z 1004a910 f i libucrtd:output.obj
 0001:000499d0       ??$make_c_string_character_source@DPAPAD@__crt_strtox@@YA?AV?$c_string_character_source@D@0@QBDQAPAD@Z 1004a9d0 f i libucrtd:output.obj
 0001:000499f0       ??$make_c_string_character_source@_WPAPA_W@__crt_strtox@@YA?AV?$c_string_character_source@_W@0@QB_WQAPA_W@Z 1004a9f0 f i libucrtd:output.obj
 0001:00049a10       ??$parse_integer@KV?$c_string_character_source@D@__crt_strtox@@$0A@@__crt_strtox@@YAKAAV__crt_cached_ptd_host@@V?$c_string_character_source@D@0@H_N@Z 1004aa10 f i libucrtd:output.obj
 0001:00049d40       ??$parse_integer@KV?$c_string_character_source@_W@__crt_strtox@@$0A@@__crt_strtox@@YAKAAV__crt_cached_ptd_host@@V?$c_string_character_source@_W@0@H_N@Z 1004ad40 f i libucrtd:output.obj
 0001:0004a080       ??$peek_va_arg@C@__crt_stdio_output@@YACPAD@Z 1004b080 f i libucrtd:output.obj
 0001:0004a0a0       ??$peek_va_arg@E@__crt_stdio_output@@YAEPAD@Z 1004b0a0 f i libucrtd:output.obj
 0001:0004a0c0       ??$peek_va_arg@F@__crt_stdio_output@@YAFPAD@Z 1004b0c0 f i libucrtd:output.obj
 0001:0004a0e0       ??$peek_va_arg@G@__crt_stdio_output@@YAGPAD@Z 1004b0e0 f i libucrtd:output.obj
 0001:0004a100       ??$peek_va_arg@H@__crt_stdio_output@@YAHPAD@Z 1004b100 f i libucrtd:output.obj
 0001:0004a120       ??$peek_va_arg@I@__crt_stdio_output@@YAIPAD@Z 1004b120 f i libucrtd:output.obj
 0001:0004a140       ??$peek_va_arg@PAD@__crt_stdio_output@@YAPADPAD@Z 1004b140 f i libucrtd:output.obj
 0001:0004a160       ??$peek_va_arg@PAUansi_string@?1??type_case_Z@?$output_processor@DV?$stream_output_adapter@D@__crt_stdio_output@@V?$positional_parameter_base@DV?$stream_output_adapter@D@__crt_stdio_output@@@2@@__crt_stdio_output@@AAE_NXZ@@__crt_stdio_output@@YAPAUansi_string@?1??type_case_Z@?$output_processor@DV?$stream_output_adapter@D@__crt_stdio_output@@V?$positional_parameter_base@DV?$stream_output_adapter@D@__crt_stdio_output@@@2@@0@AAE_NXZ@PAD@Z 1004b160 f i libucrtd:output.obj
 0001:0004a180       ??$peek_va_arg@PAUansi_string@?1??type_case_Z@?$output_processor@DV?$string_output_adapter@D@__crt_stdio_output@@V?$positional_parameter_base@DV?$string_output_adapter@D@__crt_stdio_output@@@2@@__crt_stdio_output@@AAE_NXZ@@__crt_stdio_output@@YAPAUansi_string@?1??type_case_Z@?$output_processor@DV?$string_output_adapter@D@__crt_stdio_output@@V?$positional_parameter_base@DV?$string_output_adapter@D@__crt_stdio_output@@@2@@0@AAE_NXZ@PAD@Z 1004b180 f i libucrtd:output.obj
 0001:0004a1a0       ??$peek_va_arg@PAUansi_string@?1??type_case_Z@?$output_processor@_WV?$stream_output_adapter@_W@__crt_stdio_output@@V?$positional_parameter_base@_WV?$stream_output_adapter@_W@__crt_stdio_output@@@2@@__crt_stdio_output@@AAE_NXZ@@__crt_stdio_output@@YAPAUansi_string@?1??type_case_Z@?$output_processor@_WV?$stream_output_adapter@_W@__crt_stdio_output@@V?$positional_parameter_base@_WV?$stream_output_adapter@_W@__crt_stdio_output@@@2@@0@AAE_NXZ@PAD@Z 1004b1a0 f i libucrtd:output.obj
 0001:0004a1c0       ??$peek_va_arg@PAUansi_string@?1??type_case_Z@?$output_processor@_WV?$string_output_adapter@_W@__crt_stdio_output@@V?$positional_parameter_base@_WV?$string_output_adapter@_W@__crt_stdio_output@@@2@@__crt_stdio_output@@AAE_NXZ@@__crt_stdio_output@@YAPAUansi_string@?1??type_case_Z@?$output_processor@_WV?$string_output_adapter@_W@__crt_stdio_output@@V?$positional_parameter_base@_WV?$string_output_adapter@_W@__crt_stdio_output@@@2@@0@AAE_NXZ@PAD@Z 1004b1c0 f i libucrtd:output.obj
 0001:0004a1e0       ??$peek_va_arg@PAX@__crt_stdio_output@@YAPAXPAD@Z 1004b1e0 f i libucrtd:output.obj
 0001:0004a200       ??$peek_va_arg@U_CRT_DOUBLE@@@__crt_stdio_output@@YA?AU_CRT_DOUBLE@@PAD@Z 1004b200 f i libucrtd:output.obj
 0001:0004a220       ??$peek_va_arg@_J@__crt_stdio_output@@YA_JPAD@Z 1004b220 f i libucrtd:output.obj
 0001:0004a240       ??$peek_va_arg@_K@__crt_stdio_output@@YA_KPAD@Z 1004b240 f i libucrtd:output.obj
 0001:0004a260       ??$peek_va_arg@_W@__crt_stdio_output@@YA_WPAD@Z 1004b260 f i libucrtd:output.obj
 0001:0004a280       ??$puttc_nolock_internal@ABDPAU_iobuf@@AAV__crt_cached_ptd_host@@@?$__crt_char_traits@D@@SAHABD$$QAPAU_iobuf@@AAV__crt_cached_ptd_host@@@Z 1004b280 f i libucrtd:output.obj
 0001:0004a2a0       ??$puttc_nolock_internal@AB_WPAU_iobuf@@AAV__crt_cached_ptd_host@@@?$__crt_char_traits@_W@@SAGAB_W$$QAPAU_iobuf@@AAV__crt_cached_ptd_host@@@Z 1004b2a0 f i libucrtd:output.obj
 0001:0004a2c0       ??$read_va_arg@C@__crt_stdio_output@@YACAAPAD@Z 1004b2c0 f i libucrtd:output.obj
 0001:0004a2e0       ??$read_va_arg@E@__crt_stdio_output@@YAEAAPAD@Z 1004b2e0 f i libucrtd:output.obj
 0001:0004a300       ??$read_va_arg@F@__crt_stdio_output@@YAFAAPAD@Z 1004b300 f i libucrtd:output.obj
 0001:0004a320       ??$read_va_arg@G@__crt_stdio_output@@YAGAAPAD@Z 1004b320 f i libucrtd:output.obj
 0001:0004a340       ??$read_va_arg@H@__crt_stdio_output@@YAHAAPAD@Z 1004b340 f i libucrtd:output.obj
 0001:0004a360       ??$read_va_arg@I@__crt_stdio_output@@YAIAAPAD@Z 1004b360 f i libucrtd:output.obj
 0001:0004a380       ??$read_va_arg@PAD@__crt_stdio_output@@YAPADAAPAD@Z 1004b380 f i libucrtd:output.obj
 0001:0004a3a0       ??$read_va_arg@PAUansi_string@?1??type_case_Z@?$output_processor@DV?$stream_output_adapter@D@__crt_stdio_output@@V?$format_validation_base@DV?$stream_output_adapter@D@__crt_stdio_output@@@2@@__crt_stdio_output@@AAE_NXZ@@__crt_stdio_output@@YAPAUansi_string@?1??type_case_Z@?$output_processor@DV?$stream_output_adapter@D@__crt_stdio_output@@V?$format_validation_base@DV?$stream_output_adapter@D@__crt_stdio_output@@@2@@0@AAE_NXZ@AAPAD@Z 1004b3a0 f i libucrtd:output.obj
 0001:0004a3c0       ??$read_va_arg@PAUansi_string@?1??type_case_Z@?$output_processor@DV?$stream_output_adapter@D@__crt_stdio_output@@V?$positional_parameter_base@DV?$stream_output_adapter@D@__crt_stdio_output@@@2@@__crt_stdio_output@@AAE_NXZ@@__crt_stdio_output@@YAPAUansi_string@?1??type_case_Z@?$output_processor@DV?$stream_output_adapter@D@__crt_stdio_output@@V?$positional_parameter_base@DV?$stream_output_adapter@D@__crt_stdio_output@@@2@@0@AAE_NXZ@AAPAD@Z 1004b3c0 f i libucrtd:output.obj
 0001:0004a3e0       ??$read_va_arg@PAUansi_string@?1??type_case_Z@?$output_processor@DV?$stream_output_adapter@D@__crt_stdio_output@@V?$standard_base@DV?$stream_output_adapter@D@__crt_stdio_output@@@2@@__crt_stdio_output@@AAE_NXZ@@__crt_stdio_output@@YAPAUansi_string@?1??type_case_Z@?$output_processor@DV?$stream_output_adapter@D@__crt_stdio_output@@V?$standard_base@DV?$stream_output_adapter@D@__crt_stdio_output@@@2@@0@AAE_NXZ@AAPAD@Z 1004b3e0 f i libucrtd:output.obj
 0001:0004a400       ??$read_va_arg@PAUansi_string@?1??type_case_Z@?$output_processor@DV?$string_output_adapter@D@__crt_stdio_output@@V?$format_validation_base@DV?$string_output_adapter@D@__crt_stdio_output@@@2@@__crt_stdio_output@@AAE_NXZ@@__crt_stdio_output@@YAPAUansi_string@?1??type_case_Z@?$output_processor@DV?$string_output_adapter@D@__crt_stdio_output@@V?$format_validation_base@DV?$string_output_adapter@D@__crt_stdio_output@@@2@@0@AAE_NXZ@AAPAD@Z 1004b400 f i libucrtd:output.obj
 0001:0004a420       ??$read_va_arg@PAUansi_string@?1??type_case_Z@?$output_processor@DV?$string_output_adapter@D@__crt_stdio_output@@V?$positional_parameter_base@DV?$string_output_adapter@D@__crt_stdio_output@@@2@@__crt_stdio_output@@AAE_NXZ@@__crt_stdio_output@@YAPAUansi_string@?1??type_case_Z@?$output_processor@DV?$string_output_adapter@D@__crt_stdio_output@@V?$positional_parameter_base@DV?$string_output_adapter@D@__crt_stdio_output@@@2@@0@AAE_NXZ@AAPAD@Z 1004b420 f i libucrtd:output.obj
 0001:0004a440       ??$read_va_arg@PAUansi_string@?1??type_case_Z@?$output_processor@DV?$string_output_adapter@D@__crt_stdio_output@@V?$standard_base@DV?$string_output_adapter@D@__crt_stdio_output@@@2@@__crt_stdio_output@@AAE_NXZ@@__crt_stdio_output@@YAPAUansi_string@?1??type_case_Z@?$output_processor@DV?$string_output_adapter@D@__crt_stdio_output@@V?$standard_base@DV?$string_output_adapter@D@__crt_stdio_output@@@2@@0@AAE_NXZ@AAPAD@Z 1004b440 f i libucrtd:output.obj
 0001:0004a460       ??$read_va_arg@PAUansi_string@?1??type_case_Z@?$output_processor@_WV?$stream_output_adapter@_W@__crt_stdio_output@@V?$format_validation_base@_WV?$stream_output_adapter@_W@__crt_stdio_output@@@2@@__crt_stdio_output@@AAE_NXZ@@__crt_stdio_output@@YAPAUansi_string@?1??type_case_Z@?$output_processor@_WV?$stream_output_adapter@_W@__crt_stdio_output@@V?$format_validation_base@_WV?$stream_output_adapter@_W@__crt_stdio_output@@@2@@0@AAE_NXZ@AAPAD@Z 1004b460 f i libucrtd:output.obj
 0001:0004a480       ??$read_va_arg@PAUansi_string@?1??type_case_Z@?$output_processor@_WV?$stream_output_adapter@_W@__crt_stdio_output@@V?$positional_parameter_base@_WV?$stream_output_adapter@_W@__crt_stdio_output@@@2@@__crt_stdio_output@@AAE_NXZ@@__crt_stdio_output@@YAPAUansi_string@?1??type_case_Z@?$output_processor@_WV?$stream_output_adapter@_W@__crt_stdio_output@@V?$positional_parameter_base@_WV?$stream_output_adapter@_W@__crt_stdio_output@@@2@@0@AAE_NXZ@AAPAD@Z 1004b480 f i libucrtd:output.obj
 0001:0004a4a0       ??$read_va_arg@PAUansi_string@?1??type_case_Z@?$output_processor@_WV?$stream_output_adapter@_W@__crt_stdio_output@@V?$standard_base@_WV?$stream_output_adapter@_W@__crt_stdio_output@@@2@@__crt_stdio_output@@AAE_NXZ@@__crt_stdio_output@@YAPAUansi_string@?1??type_case_Z@?$output_processor@_WV?$stream_output_adapter@_W@__crt_stdio_output@@V?$standard_base@_WV?$stream_output_adapter@_W@__crt_stdio_output@@@2@@0@AAE_NXZ@AAPAD@Z 1004b4a0 f i libucrtd:output.obj
 0001:0004a4c0       ??$read_va_arg@PAUansi_string@?1??type_case_Z@?$output_processor@_WV?$string_output_adapter@_W@__crt_stdio_output@@V?$format_validation_base@_WV?$string_output_adapter@_W@__crt_stdio_output@@@2@@__crt_stdio_output@@AAE_NXZ@@__crt_stdio_output@@YAPAUansi_string@?1??type_case_Z@?$output_processor@_WV?$string_output_adapter@_W@__crt_stdio_output@@V?$format_validation_base@_WV?$string_output_adapter@_W@__crt_stdio_output@@@2@@0@AAE_NXZ@AAPAD@Z 1004b4c0 f i libucrtd:output.obj
 0001:0004a4e0       ??$read_va_arg@PAUansi_string@?1??type_case_Z@?$output_processor@_WV?$string_output_adapter@_W@__crt_stdio_output@@V?$positional_parameter_base@_WV?$string_output_adapter@_W@__crt_stdio_output@@@2@@__crt_stdio_output@@AAE_NXZ@@__crt_stdio_output@@YAPAUansi_string@?1??type_case_Z@?$output_processor@_WV?$string_output_adapter@_W@__crt_stdio_output@@V?$positional_parameter_base@_WV?$string_output_adapter@_W@__crt_stdio_output@@@2@@0@AAE_NXZ@AAPAD@Z 1004b4e0 f i libucrtd:output.obj
 0001:0004a500       ??$read_va_arg@PAUansi_string@?1??type_case_Z@?$output_processor@_WV?$string_output_adapter@_W@__crt_stdio_output@@V?$standard_base@_WV?$string_output_adapter@_W@__crt_stdio_output@@@2@@__crt_stdio_output@@AAE_NXZ@@__crt_stdio_output@@YAPAUansi_string@?1??type_case_Z@?$output_processor@_WV?$string_output_adapter@_W@__crt_stdio_output@@V?$standard_base@_WV?$string_output_adapter@_W@__crt_stdio_output@@@2@@0@AAE_NXZ@AAPAD@Z 1004b500 f i libucrtd:output.obj
 0001:0004a520       ??$read_va_arg@PAX@__crt_stdio_output@@YAPAXAAPAD@Z 1004b520 f i libucrtd:output.obj
 0001:0004a540       ??$read_va_arg@U_CRT_DOUBLE@@@__crt_stdio_output@@YA?AU_CRT_DOUBLE@@AAPAD@Z 1004b540 f i libucrtd:output.obj
 0001:0004a560       ??$read_va_arg@_J@__crt_stdio_output@@YA_JAAPAD@Z 1004b560 f i libucrtd:output.obj
 0001:0004a580       ??$read_va_arg@_K@__crt_stdio_output@@YA_KAAPAD@Z 1004b580 f i libucrtd:output.obj
 0001:0004a5a0       ??$read_va_arg@_W@__crt_stdio_output@@YA_WAAPAD@Z 1004b5a0 f i libucrtd:output.obj
 0001:0004a5c0       ??$scratch_count@D@formatting_buffer@__crt_stdio_output@@QBEIXZ 1004b5c0 f i libucrtd:output.obj
 0001:0004a5e0       ??$scratch_data@D@formatting_buffer@__crt_stdio_output@@QAEPADXZ 1004b5e0 f i libucrtd:output.obj
 0001:0004a630       ??$type_case_integer@$07@?$output_processor@DV?$stream_output_adapter@D@__crt_stdio_output@@V?$format_validation_base@DV?$stream_output_adapter@D@__crt_stdio_output@@@2@@__crt_stdio_output@@AAE_N_N@Z 1004b630 f i libucrtd:output.obj
 0001:0004a990       ??$type_case_integer@$07@?$output_processor@DV?$stream_output_adapter@D@__crt_stdio_output@@V?$positional_parameter_base@DV?$stream_output_adapter@D@__crt_stdio_output@@@2@@__crt_stdio_output@@AAE_N_N@Z 1004b990 f i libucrtd:output.obj
 0001:0004acf0       ??$type_case_integer@$07@?$output_processor@DV?$stream_output_adapter@D@__crt_stdio_output@@V?$standard_base@DV?$stream_output_adapter@D@__crt_stdio_output@@@2@@__crt_stdio_output@@AAE_N_N@Z 1004bcf0 f i libucrtd:output.obj
 0001:0004b050       ??$type_case_integer@$07@?$output_processor@DV?$string_output_adapter@D@__crt_stdio_output@@V?$format_validation_base@DV?$string_output_adapter@D@__crt_stdio_output@@@2@@__crt_stdio_output@@AAE_N_N@Z 1004c050 f i libucrtd:output.obj
 0001:0004b3b0       ??$type_case_integer@$07@?$output_processor@DV?$string_output_adapter@D@__crt_stdio_output@@V?$positional_parameter_base@DV?$string_output_adapter@D@__crt_stdio_output@@@2@@__crt_stdio_output@@AAE_N_N@Z 1004c3b0 f i libucrtd:output.obj
 0001:0004b710       ??$type_case_integer@$07@?$output_processor@DV?$string_output_adapter@D@__crt_stdio_output@@V?$standard_base@DV?$string_output_adapter@D@__crt_stdio_output@@@2@@__crt_stdio_output@@AAE_N_N@Z 1004c710 f i libucrtd:output.obj
 0001:0004ba70       ??$type_case_integer@$07@?$output_processor@_WV?$stream_output_adapter@_W@__crt_stdio_output@@V?$format_validation_base@_WV?$stream_output_adapter@_W@__crt_stdio_output@@@2@@__crt_stdio_output@@AAE_N_N@Z 1004ca70 f i libucrtd:output.obj
 0001:0004bdd0       ??$type_case_integer@$07@?$output_processor@_WV?$stream_output_adapter@_W@__crt_stdio_output@@V?$positional_parameter_base@_WV?$stream_output_adapter@_W@__crt_stdio_output@@@2@@__crt_stdio_output@@AAE_N_N@Z 1004cdd0 f i libucrtd:output.obj
 0001:0004c130       ??$type_case_integer@$07@?$output_processor@_WV?$stream_output_adapter@_W@__crt_stdio_output@@V?$standard_base@_WV?$stream_output_adapter@_W@__crt_stdio_output@@@2@@__crt_stdio_output@@AAE_N_N@Z 1004d130 f i libucrtd:output.obj
 0001:0004c490       ??$type_case_integer@$07@?$output_processor@_WV?$string_output_adapter@_W@__crt_stdio_output@@V?$format_validation_base@_WV?$string_output_adapter@_W@__crt_stdio_output@@@2@@__crt_stdio_output@@AAE_N_N@Z 1004d490 f i libucrtd:output.obj
 0001:0004c7f0       ??$type_case_integer@$07@?$output_processor@_WV?$string_output_adapter@_W@__crt_stdio_output@@V?$positional_parameter_base@_WV?$string_output_adapter@_W@__crt_stdio_output@@@2@@__crt_stdio_output@@AAE_N_N@Z 1004d7f0 f i libucrtd:output.obj
 0001:0004cb50       ??$type_case_integer@$07@?$output_processor@_WV?$string_output_adapter@_W@__crt_stdio_output@@V?$standard_base@_WV?$string_output_adapter@_W@__crt_stdio_output@@@2@@__crt_stdio_output@@AAE_N_N@Z 1004db50 f i libucrtd:output.obj
 0001:0004ceb0       ??$type_case_integer@$09@?$output_processor@DV?$stream_output_adapter@D@__crt_stdio_output@@V?$format_validation_base@DV?$stream_output_adapter@D@__crt_stdio_output@@@2@@__crt_stdio_output@@AAE_N_N@Z 1004deb0 f i libucrtd:output.obj
 0001:0004d210       ??$type_case_integer@$09@?$output_processor@DV?$stream_output_adapter@D@__crt_stdio_output@@V?$positional_parameter_base@DV?$stream_output_adapter@D@__crt_stdio_output@@@2@@__crt_stdio_output@@AAE_N_N@Z 1004e210 f i libucrtd:output.obj
 0001:0004d570       ??$type_case_integer@$09@?$output_processor@DV?$stream_output_adapter@D@__crt_stdio_output@@V?$standard_base@DV?$stream_output_adapter@D@__crt_stdio_output@@@2@@__crt_stdio_output@@AAE_N_N@Z 1004e570 f i libucrtd:output.obj
 0001:0004d8d0       ??$type_case_integer@$09@?$output_processor@DV?$string_output_adapter@D@__crt_stdio_output@@V?$format_validation_base@DV?$string_output_adapter@D@__crt_stdio_output@@@2@@__crt_stdio_output@@AAE_N_N@Z 1004e8d0 f i libucrtd:output.obj
 0001:0004dc30       ??$type_case_integer@$09@?$output_processor@DV?$string_output_adapter@D@__crt_stdio_output@@V?$positional_parameter_base@DV?$string_output_adapter@D@__crt_stdio_output@@@2@@__crt_stdio_output@@AAE_N_N@Z 1004ec30 f i libucrtd:output.obj
 0001:0004df90       ??$type_case_integer@$09@?$output_processor@DV?$string_output_adapter@D@__crt_stdio_output@@V?$standard_base@DV?$string_output_adapter@D@__crt_stdio_output@@@2@@__crt_stdio_output@@AAE_N_N@Z 1004ef90 f i libucrtd:output.obj
 0001:0004e2f0       ??$type_case_integer@$09@?$output_processor@_WV?$stream_output_adapter@_W@__crt_stdio_output@@V?$format_validation_base@_WV?$stream_output_adapter@_W@__crt_stdio_output@@@2@@__crt_stdio_output@@AAE_N_N@Z 1004f2f0 f i libucrtd:output.obj
 0001:0004e650       ??$type_case_integer@$09@?$output_processor@_WV?$stream_output_adapter@_W@__crt_stdio_output@@V?$positional_parameter_base@_WV?$stream_output_adapter@_W@__crt_stdio_output@@@2@@__crt_stdio_output@@AAE_N_N@Z 1004f650 f i libucrtd:output.obj
 0001:0004e9b0       ??$type_case_integer@$09@?$output_processor@_WV?$stream_output_adapter@_W@__crt_stdio_output@@V?$standard_base@_WV?$stream_output_adapter@_W@__crt_stdio_output@@@2@@__crt_stdio_output@@AAE_N_N@Z 1004f9b0 f i libucrtd:output.obj
 0001:0004ed10       ??$type_case_integer@$09@?$output_processor@_WV?$string_output_adapter@_W@__crt_stdio_output@@V?$format_validation_base@_WV?$string_output_adapter@_W@__crt_stdio_output@@@2@@__crt_stdio_output@@AAE_N_N@Z 1004fd10 f i libucrtd:output.obj
 0001:0004f070       ??$type_case_integer@$09@?$output_processor@_WV?$string_output_adapter@_W@__crt_stdio_output@@V?$positional_parameter_base@_WV?$string_output_adapter@_W@__crt_stdio_output@@@2@@__crt_stdio_output@@AAE_N_N@Z 10050070 f i libucrtd:output.obj
 0001:0004f3d0       ??$type_case_integer@$09@?$output_processor@_WV?$string_output_adapter@_W@__crt_stdio_output@@V?$standard_base@_WV?$string_output_adapter@_W@__crt_stdio_output@@@2@@__crt_stdio_output@@AAE_N_N@Z 100503d0 f i libucrtd:output.obj
 0001:0004f730       ??$type_case_integer@$0BA@@?$output_processor@DV?$stream_output_adapter@D@__crt_stdio_output@@V?$format_validation_base@DV?$stream_output_adapter@D@__crt_stdio_output@@@2@@__crt_stdio_output@@AAE_N_N@Z 10050730 f i libucrtd:output.obj
 0001:0004fa90       ??$type_case_integer@$0BA@@?$output_processor@DV?$stream_output_adapter@D@__crt_stdio_output@@V?$positional_parameter_base@DV?$stream_output_adapter@D@__crt_stdio_output@@@2@@__crt_stdio_output@@AAE_N_N@Z 10050a90 f i libucrtd:output.obj
 0001:0004fdf0       ??$type_case_integer@$0BA@@?$output_processor@DV?$stream_output_adapter@D@__crt_stdio_output@@V?$standard_base@DV?$stream_output_adapter@D@__crt_stdio_output@@@2@@__crt_stdio_output@@AAE_N_N@Z 10050df0 f i libucrtd:output.obj
 0001:00050150       ??$type_case_integer@$0BA@@?$output_processor@DV?$string_output_adapter@D@__crt_stdio_output@@V?$format_validation_base@DV?$string_output_adapter@D@__crt_stdio_output@@@2@@__crt_stdio_output@@AAE_N_N@Z 10051150 f i libucrtd:output.obj
 0001:000504b0       ??$type_case_integer@$0BA@@?$output_processor@DV?$string_output_adapter@D@__crt_stdio_output@@V?$positional_parameter_base@DV?$string_output_adapter@D@__crt_stdio_output@@@2@@__crt_stdio_output@@AAE_N_N@Z 100514b0 f i libucrtd:output.obj
 0001:00050810       ??$type_case_integer@$0BA@@?$output_processor@DV?$string_output_adapter@D@__crt_stdio_output@@V?$standard_base@DV?$string_output_adapter@D@__crt_stdio_output@@@2@@__crt_stdio_output@@AAE_N_N@Z 10051810 f i libucrtd:output.obj
 0001:00050b70       ??$type_case_integer@$0BA@@?$output_processor@_WV?$stream_output_adapter@_W@__crt_stdio_output@@V?$format_validation_base@_WV?$stream_output_adapter@_W@__crt_stdio_output@@@2@@__crt_stdio_output@@AAE_N_N@Z 10051b70 f i libucrtd:output.obj
 0001:00050ed0       ??$type_case_integer@$0BA@@?$output_processor@_WV?$stream_output_adapter@_W@__crt_stdio_output@@V?$positional_parameter_base@_WV?$stream_output_adapter@_W@__crt_stdio_output@@@2@@__crt_stdio_output@@AAE_N_N@Z 10051ed0 f i libucrtd:output.obj
 0001:00051230       ??$type_case_integer@$0BA@@?$output_processor@_WV?$stream_output_adapter@_W@__crt_stdio_output@@V?$standard_base@_WV?$stream_output_adapter@_W@__crt_stdio_output@@@2@@__crt_stdio_output@@AAE_N_N@Z 10052230 f i libucrtd:output.obj
 0001:00051590       ??$type_case_integer@$0BA@@?$output_processor@_WV?$string_output_adapter@_W@__crt_stdio_output@@V?$format_validation_base@_WV?$string_output_adapter@_W@__crt_stdio_output@@@2@@__crt_stdio_output@@AAE_N_N@Z 10052590 f i libucrtd:output.obj
 0001:000518f0       ??$type_case_integer@$0BA@@?$output_processor@_WV?$string_output_adapter@_W@__crt_stdio_output@@V?$positional_parameter_base@_WV?$string_output_adapter@_W@__crt_stdio_output@@@2@@__crt_stdio_output@@AAE_N_N@Z 100528f0 f i libucrtd:output.obj
 0001:00051c50       ??$type_case_integer@$0BA@@?$output_processor@_WV?$string_output_adapter@_W@__crt_stdio_output@@V?$standard_base@_WV?$string_output_adapter@_W@__crt_stdio_output@@@2@@__crt_stdio_output@@AAE_N_N@Z 10052c50 f i libucrtd:output.obj
 0001:00051fb0       ??$type_case_integer_parse_into_buffer@I$07@?$output_processor@DV?$stream_output_adapter@D@__crt_stdio_output@@V?$format_validation_base@DV?$stream_output_adapter@D@__crt_stdio_output@@@2@@__crt_stdio_output@@AAEXI_N@Z 10052fb0 f i libucrtd:output.obj
 0001:00052080       ??$type_case_integer_parse_into_buffer@I$07@?$output_processor@DV?$stream_output_adapter@D@__crt_stdio_output@@V?$positional_parameter_base@DV?$stream_output_adapter@D@__crt_stdio_output@@@2@@__crt_stdio_output@@AAEXI_N@Z 10053080 f i libucrtd:output.obj
 0001:00052150       ??$type_case_integer_parse_into_buffer@I$07@?$output_processor@DV?$stream_output_adapter@D@__crt_stdio_output@@V?$standard_base@DV?$stream_output_adapter@D@__crt_stdio_output@@@2@@__crt_stdio_output@@AAEXI_N@Z 10053150 f i libucrtd:output.obj
 0001:00052220       ??$type_case_integer_parse_into_buffer@I$07@?$output_processor@DV?$string_output_adapter@D@__crt_stdio_output@@V?$format_validation_base@DV?$string_output_adapter@D@__crt_stdio_output@@@2@@__crt_stdio_output@@AAEXI_N@Z 10053220 f i libucrtd:output.obj
 0001:000522f0       ??$type_case_integer_parse_into_buffer@I$07@?$output_processor@DV?$string_output_adapter@D@__crt_stdio_output@@V?$positional_parameter_base@DV?$string_output_adapter@D@__crt_stdio_output@@@2@@__crt_stdio_output@@AAEXI_N@Z 100532f0 f i libucrtd:output.obj
 0001:000523c0       ??$type_case_integer_parse_into_buffer@I$07@?$output_processor@DV?$string_output_adapter@D@__crt_stdio_output@@V?$standard_base@DV?$string_output_adapter@D@__crt_stdio_output@@@2@@__crt_stdio_output@@AAEXI_N@Z 100533c0 f i libucrtd:output.obj
 0001:00052490       ??$type_case_integer_parse_into_buffer@I$07@?$output_processor@_WV?$stream_output_adapter@_W@__crt_stdio_output@@V?$format_validation_base@_WV?$stream_output_adapter@_W@__crt_stdio_output@@@2@@__crt_stdio_output@@AAEXI_N@Z 10053490 f i libucrtd:output.obj
 0001:00052570       ??$type_case_integer_parse_into_buffer@I$07@?$output_processor@_WV?$stream_output_adapter@_W@__crt_stdio_output@@V?$positional_parameter_base@_WV?$stream_output_adapter@_W@__crt_stdio_output@@@2@@__crt_stdio_output@@AAEXI_N@Z 10053570 f i libucrtd:output.obj
 0001:00052650       ??$type_case_integer_parse_into_buffer@I$07@?$output_processor@_WV?$stream_output_adapter@_W@__crt_stdio_output@@V?$standard_base@_WV?$stream_output_adapter@_W@__crt_stdio_output@@@2@@__crt_stdio_output@@AAEXI_N@Z 10053650 f i libucrtd:output.obj
 0001:00052730       ??$type_case_integer_parse_into_buffer@I$07@?$output_processor@_WV?$string_output_adapter@_W@__crt_stdio_output@@V?$format_validation_base@_WV?$string_output_adapter@_W@__crt_stdio_output@@@2@@__crt_stdio_output@@AAEXI_N@Z 10053730 f i libucrtd:output.obj
 0001:00052810       ??$type_case_integer_parse_into_buffer@I$07@?$output_processor@_WV?$string_output_adapter@_W@__crt_stdio_output@@V?$positional_parameter_base@_WV?$string_output_adapter@_W@__crt_stdio_output@@@2@@__crt_stdio_output@@AAEXI_N@Z 10053810 f i libucrtd:output.obj
 0001:000528f0       ??$type_case_integer_parse_into_buffer@I$07@?$output_processor@_WV?$string_output_adapter@_W@__crt_stdio_output@@V?$standard_base@_WV?$string_output_adapter@_W@__crt_stdio_output@@@2@@__crt_stdio_output@@AAEXI_N@Z 100538f0 f i libucrtd:output.obj
 0001:000529d0       ??$type_case_integer_parse_into_buffer@I$09@?$output_processor@DV?$stream_output_adapter@D@__crt_stdio_output@@V?$format_validation_base@DV?$stream_output_adapter@D@__crt_stdio_output@@@2@@__crt_stdio_output@@AAEXI_N@Z 100539d0 f i libucrtd:output.obj
 0001:00052ab0       ??$type_case_integer_parse_into_buffer@I$09@?$output_processor@DV?$stream_output_adapter@D@__crt_stdio_output@@V?$positional_parameter_base@DV?$stream_output_adapter@D@__crt_stdio_output@@@2@@__crt_stdio_output@@AAEXI_N@Z 10053ab0 f i libucrtd:output.obj
 0001:00052b90       ??$type_case_integer_parse_into_buffer@I$09@?$output_processor@DV?$stream_output_adapter@D@__crt_stdio_output@@V?$standard_base@DV?$stream_output_adapter@D@__crt_stdio_output@@@2@@__crt_stdio_output@@AAEXI_N@Z 10053b90 f i libucrtd:output.obj
 0001:00052c70       ??$type_case_integer_parse_into_buffer@I$09@?$output_processor@DV?$string_output_adapter@D@__crt_stdio_output@@V?$format_validation_base@DV?$string_output_adapter@D@__crt_stdio_output@@@2@@__crt_stdio_output@@AAEXI_N@Z 10053c70 f i libucrtd:output.obj
 0001:00052d50       ??$type_case_integer_parse_into_buffer@I$09@?$output_processor@DV?$string_output_adapter@D@__crt_stdio_output@@V?$positional_parameter_base@DV?$string_output_adapter@D@__crt_stdio_output@@@2@@__crt_stdio_output@@AAEXI_N@Z 10053d50 f i libucrtd:output.obj
 0001:00052e30       ??$type_case_integer_parse_into_buffer@I$09@?$output_processor@DV?$string_output_adapter@D@__crt_stdio_output@@V?$standard_base@DV?$string_output_adapter@D@__crt_stdio_output@@@2@@__crt_stdio_output@@AAEXI_N@Z 10053e30 f i libucrtd:output.obj
 0001:00052f10       ??$type_case_integer_parse_into_buffer@I$09@?$output_processor@_WV?$stream_output_adapter@_W@__crt_stdio_output@@V?$format_validation_base@_WV?$stream_output_adapter@_W@__crt_stdio_output@@@2@@__crt_stdio_output@@AAEXI_N@Z 10053f10 f i libucrtd:output.obj
 0001:00053000       ??$type_case_integer_parse_into_buffer@I$09@?$output_processor@_WV?$stream_output_adapter@_W@__crt_stdio_output@@V?$positional_parameter_base@_WV?$stream_output_adapter@_W@__crt_stdio_output@@@2@@__crt_stdio_output@@AAEXI_N@Z 10054000 f i libucrtd:output.obj
 0001:000530f0       ??$type_case_integer_parse_into_buffer@I$09@?$output_processor@_WV?$stream_output_adapter@_W@__crt_stdio_output@@V?$standard_base@_WV?$stream_output_adapter@_W@__crt_stdio_output@@@2@@__crt_stdio_output@@AAEXI_N@Z 100540f0 f i libucrtd:output.obj
 0001:000531e0       ??$type_case_integer_parse_into_buffer@I$09@?$output_processor@_WV?$string_output_adapter@_W@__crt_stdio_output@@V?$format_validation_base@_WV?$string_output_adapter@_W@__crt_stdio_output@@@2@@__crt_stdio_output@@AAEXI_N@Z 100541e0 f i libucrtd:output.obj
 0001:000532d0       ??$type_case_integer_parse_into_buffer@I$09@?$output_processor@_WV?$string_output_adapter@_W@__crt_stdio_output@@V?$positional_parameter_base@_WV?$string_output_adapter@_W@__crt_stdio_output@@@2@@__crt_stdio_output@@AAEXI_N@Z 100542d0 f i libucrtd:output.obj
 0001:000533c0       ??$type_case_integer_parse_into_buffer@I$09@?$output_processor@_WV?$string_output_adapter@_W@__crt_stdio_output@@V?$standard_base@_WV?$string_output_adapter@_W@__crt_stdio_output@@@2@@__crt_stdio_output@@AAEXI_N@Z 100543c0 f i libucrtd:output.obj
 0001:000534b0       ??$type_case_integer_parse_into_buffer@I$0BA@@?$output_processor@DV?$stream_output_adapter@D@__crt_stdio_output@@V?$format_validation_base@DV?$stream_output_adapter@D@__crt_stdio_output@@@2@@__crt_stdio_output@@AAEXI_N@Z 100544b0 f i libucrtd:output.obj
 0001:00053580       ??$type_case_integer_parse_into_buffer@I$0BA@@?$output_processor@DV?$stream_output_adapter@D@__crt_stdio_output@@V?$positional_parameter_base@DV?$stream_output_adapter@D@__crt_stdio_output@@@2@@__crt_stdio_output@@AAEXI_N@Z 10054580 f i libucrtd:output.obj
 0001:00053650       ??$type_case_integer_parse_into_buffer@I$0BA@@?$output_processor@DV?$stream_output_adapter@D@__crt_stdio_output@@V?$standard_base@DV?$stream_output_adapter@D@__crt_stdio_output@@@2@@__crt_stdio_output@@AAEXI_N@Z 10054650 f i libucrtd:output.obj
 0001:00053720       ??$type_case_integer_parse_into_buffer@I$0BA@@?$output_processor@DV?$string_output_adapter@D@__crt_stdio_output@@V?$format_validation_base@DV?$string_output_adapter@D@__crt_stdio_output@@@2@@__crt_stdio_output@@AAEXI_N@Z 10054720 f i libucrtd:output.obj
 0001:000537f0       ??$type_case_integer_parse_into_buffer@I$0BA@@?$output_processor@DV?$string_output_adapter@D@__crt_stdio_output@@V?$positional_parameter_base@DV?$string_output_adapter@D@__crt_stdio_output@@@2@@__crt_stdio_output@@AAEXI_N@Z 100547f0 f i libucrtd:output.obj
 0001:000538c0       ??$type_case_integer_parse_into_buffer@I$0BA@@?$output_processor@DV?$string_output_adapter@D@__crt_stdio_output@@V?$standard_base@DV?$string_output_adapter@D@__crt_stdio_output@@@2@@__crt_stdio_output@@AAEXI_N@Z 100548c0 f i libucrtd:output.obj
 0001:00053990       ??$type_case_integer_parse_into_buffer@I$0BA@@?$output_processor@_WV?$stream_output_adapter@_W@__crt_stdio_output@@V?$format_validation_base@_WV?$stream_output_adapter@_W@__crt_stdio_output@@@2@@__crt_stdio_output@@AAEXI_N@Z 10054990 f i libucrtd:output.obj
 0001:00053a70       ??$type_case_integer_parse_into_buffer@I$0BA@@?$output_processor@_WV?$stream_output_adapter@_W@__crt_stdio_output@@V?$positional_parameter_base@_WV?$stream_output_adapter@_W@__crt_stdio_output@@@2@@__crt_stdio_output@@AAEXI_N@Z 10054a70 f i libucrtd:output.obj
 0001:00053b50       ??$type_case_integer_parse_into_buffer@I$0BA@@?$output_processor@_WV?$stream_output_adapter@_W@__crt_stdio_output@@V?$standard_base@_WV?$stream_output_adapter@_W@__crt_stdio_output@@@2@@__crt_stdio_output@@AAEXI_N@Z 10054b50 f i libucrtd:output.obj
 0001:00053c30       ??$type_case_integer_parse_into_buffer@I$0BA@@?$output_processor@_WV?$string_output_adapter@_W@__crt_stdio_output@@V?$format_validation_base@_WV?$string_output_adapter@_W@__crt_stdio_output@@@2@@__crt_stdio_output@@AAEXI_N@Z 10054c30 f i libucrtd:output.obj
 0001:00053d10       ??$type_case_integer_parse_into_buffer@I$0BA@@?$output_processor@_WV?$string_output_adapter@_W@__crt_stdio_output@@V?$positional_parameter_base@_WV?$string_output_adapter@_W@__crt_stdio_output@@@2@@__crt_stdio_output@@AAEXI_N@Z 10054d10 f i libucrtd:output.obj
 0001:00053df0       ??$type_case_integer_parse_into_buffer@I$0BA@@?$output_processor@_WV?$string_output_adapter@_W@__crt_stdio_output@@V?$standard_base@_WV?$string_output_adapter@_W@__crt_stdio_output@@@2@@__crt_stdio_output@@AAEXI_N@Z 10054df0 f i libucrtd:output.obj
 0001:00053ed0       ??$type_case_integer_parse_into_buffer@_K$07@?$output_processor@DV?$stream_output_adapter@D@__crt_stdio_output@@V?$format_validation_base@DV?$stream_output_adapter@D@__crt_stdio_output@@@2@@__crt_stdio_output@@AAEX_K_N@Z 10054ed0 f i libucrtd:output.obj
 0001:00053fc0       ??$type_case_integer_parse_into_buffer@_K$07@?$output_processor@DV?$stream_output_adapter@D@__crt_stdio_output@@V?$positional_parameter_base@DV?$stream_output_adapter@D@__crt_stdio_output@@@2@@__crt_stdio_output@@AAEX_K_N@Z 10054fc0 f i libucrtd:output.obj
 0001:000540b0       ??$type_case_integer_parse_into_buffer@_K$07@?$output_processor@DV?$stream_output_adapter@D@__crt_stdio_output@@V?$standard_base@DV?$stream_output_adapter@D@__crt_stdio_output@@@2@@__crt_stdio_output@@AAEX_K_N@Z 100550b0 f i libucrtd:output.obj
 0001:000541a0       ??$type_case_integer_parse_into_buffer@_K$07@?$output_processor@DV?$string_output_adapter@D@__crt_stdio_output@@V?$format_validation_base@DV?$string_output_adapter@D@__crt_stdio_output@@@2@@__crt_stdio_output@@AAEX_K_N@Z 100551a0 f i libucrtd:output.obj
 0001:00054290       ??$type_case_integer_parse_into_buffer@_K$07@?$output_processor@DV?$string_output_adapter@D@__crt_stdio_output@@V?$positional_parameter_base@DV?$string_output_adapter@D@__crt_stdio_output@@@2@@__crt_stdio_output@@AAEX_K_N@Z 10055290 f i libucrtd:output.obj
 0001:00054380       ??$type_case_integer_parse_into_buffer@_K$07@?$output_processor@DV?$string_output_adapter@D@__crt_stdio_output@@V?$standard_base@DV?$string_output_adapter@D@__crt_stdio_output@@@2@@__crt_stdio_output@@AAEX_K_N@Z 10055380 f i libucrtd:output.obj
 0001:00054470       ??$type_case_integer_parse_into_buffer@_K$07@?$output_processor@_WV?$stream_output_adapter@_W@__crt_stdio_output@@V?$format_validation_base@_WV?$stream_output_adapter@_W@__crt_stdio_output@@@2@@__crt_stdio_output@@AAEX_K_N@Z 10055470 f i libucrtd:output.obj
 0001:00054570       ??$type_case_integer_parse_into_buffer@_K$07@?$output_processor@_WV?$stream_output_adapter@_W@__crt_stdio_output@@V?$positional_parameter_base@_WV?$stream_output_adapter@_W@__crt_stdio_output@@@2@@__crt_stdio_output@@AAEX_K_N@Z 10055570 f i libucrtd:output.obj
 0001:00054670       ??$type_case_integer_parse_into_buffer@_K$07@?$output_processor@_WV?$stream_output_adapter@_W@__crt_stdio_output@@V?$standard_base@_WV?$stream_output_adapter@_W@__crt_stdio_output@@@2@@__crt_stdio_output@@AAEX_K_N@Z 10055670 f i libucrtd:output.obj
 0001:00054770       ??$type_case_integer_parse_into_buffer@_K$07@?$output_processor@_WV?$string_output_adapter@_W@__crt_stdio_output@@V?$format_validation_base@_WV?$string_output_adapter@_W@__crt_stdio_output@@@2@@__crt_stdio_output@@AAEX_K_N@Z 10055770 f i libucrtd:output.obj
 0001:00054870       ??$type_case_integer_parse_into_buffer@_K$07@?$output_processor@_WV?$string_output_adapter@_W@__crt_stdio_output@@V?$positional_parameter_base@_WV?$string_output_adapter@_W@__crt_stdio_output@@@2@@__crt_stdio_output@@AAEX_K_N@Z 10055870 f i libucrtd:output.obj
 0001:00054970       ??$type_case_integer_parse_into_buffer@_K$07@?$output_processor@_WV?$string_output_adapter@_W@__crt_stdio_output@@V?$standard_base@_WV?$string_output_adapter@_W@__crt_stdio_output@@@2@@__crt_stdio_output@@AAEX_K_N@Z 10055970 f i libucrtd:output.obj
 0001:00054a70       ??$type_case_integer_parse_into_buffer@_K$09@?$output_processor@DV?$stream_output_adapter@D@__crt_stdio_output@@V?$format_validation_base@DV?$stream_output_adapter@D@__crt_stdio_output@@@2@@__crt_stdio_output@@AAEX_K_N@Z 10055a70 f i libucrtd:output.obj
 0001:00054b60       ??$type_case_integer_parse_into_buffer@_K$09@?$output_processor@DV?$stream_output_adapter@D@__crt_stdio_output@@V?$positional_parameter_base@DV?$stream_output_adapter@D@__crt_stdio_output@@@2@@__crt_stdio_output@@AAEX_K_N@Z 10055b60 f i libucrtd:output.obj
 0001:00054c50       ??$type_case_integer_parse_into_buffer@_K$09@?$output_processor@DV?$stream_output_adapter@D@__crt_stdio_output@@V?$standard_base@DV?$stream_output_adapter@D@__crt_stdio_output@@@2@@__crt_stdio_output@@AAEX_K_N@Z 10055c50 f i libucrtd:output.obj
 0001:00054d40       ??$type_case_integer_parse_into_buffer@_K$09@?$output_processor@DV?$string_output_adapter@D@__crt_stdio_output@@V?$format_validation_base@DV?$string_output_adapter@D@__crt_stdio_output@@@2@@__crt_stdio_output@@AAEX_K_N@Z 10055d40 f i libucrtd:output.obj
 0001:00054e30       ??$type_case_integer_parse_into_buffer@_K$09@?$output_processor@DV?$string_output_adapter@D@__crt_stdio_output@@V?$positional_parameter_base@DV?$string_output_adapter@D@__crt_stdio_output@@@2@@__crt_stdio_output@@AAEX_K_N@Z 10055e30 f i libucrtd:output.obj
 0001:00054f20       ??$type_case_integer_parse_into_buffer@_K$09@?$output_processor@DV?$string_output_adapter@D@__crt_stdio_output@@V?$standard_base@DV?$string_output_adapter@D@__crt_stdio_output@@@2@@__crt_stdio_output@@AAEX_K_N@Z 10055f20 f i libucrtd:output.obj
 0001:00055010       ??$type_case_integer_parse_into_buffer@_K$09@?$output_processor@_WV?$stream_output_adapter@_W@__crt_stdio_output@@V?$format_validation_base@_WV?$stream_output_adapter@_W@__crt_stdio_output@@@2@@__crt_stdio_output@@AAEX_K_N@Z 10056010 f i libucrtd:output.obj
 0001:00055110       ??$type_case_integer_parse_into_buffer@_K$09@?$output_processor@_WV?$stream_output_adapter@_W@__crt_stdio_output@@V?$positional_parameter_base@_WV?$stream_output_adapter@_W@__crt_stdio_output@@@2@@__crt_stdio_output@@AAEX_K_N@Z 10056110 f i libucrtd:output.obj
 0001:00055210       ??$type_case_integer_parse_into_buffer@_K$09@?$output_processor@_WV?$stream_output_adapter@_W@__crt_stdio_output@@V?$standard_base@_WV?$stream_output_adapter@_W@__crt_stdio_output@@@2@@__crt_stdio_output@@AAEX_K_N@Z 10056210 f i libucrtd:output.obj
 0001:00055310       ??$type_case_integer_parse_into_buffer@_K$09@?$output_processor@_WV?$string_output_adapter@_W@__crt_stdio_output@@V?$format_validation_base@_WV?$string_output_adapter@_W@__crt_stdio_output@@@2@@__crt_stdio_output@@AAEX_K_N@Z 10056310 f i libucrtd:output.obj
 0001:00055410       ??$type_case_integer_parse_into_buffer@_K$09@?$output_processor@_WV?$string_output_adapter@_W@__crt_stdio_output@@V?$positional_parameter_base@_WV?$string_output_adapter@_W@__crt_stdio_output@@@2@@__crt_stdio_output@@AAEX_K_N@Z 10056410 f i libucrtd:output.obj
 0001:00055510       ??$type_case_integer_parse_into_buffer@_K$09@?$output_processor@_WV?$string_output_adapter@_W@__crt_stdio_output@@V?$standard_base@_WV?$string_output_adapter@_W@__crt_stdio_output@@@2@@__crt_stdio_output@@AAEX_K_N@Z 10056510 f i libucrtd:output.obj
 0001:00055610       ??$type_case_integer_parse_into_buffer@_K$0BA@@?$output_processor@DV?$stream_output_adapter@D@__crt_stdio_output@@V?$format_validation_base@DV?$stream_output_adapter@D@__crt_stdio_output@@@2@@__crt_stdio_output@@AAEX_K_N@Z 10056610 f i libucrtd:output.obj
 0001:00055700       ??$type_case_integer_parse_into_buffer@_K$0BA@@?$output_processor@DV?$stream_output_adapter@D@__crt_stdio_output@@V?$positional_parameter_base@DV?$stream_output_adapter@D@__crt_stdio_output@@@2@@__crt_stdio_output@@AAEX_K_N@Z 10056700 f i libucrtd:output.obj
 0001:000557f0       ??$type_case_integer_parse_into_buffer@_K$0BA@@?$output_processor@DV?$stream_output_adapter@D@__crt_stdio_output@@V?$standard_base@DV?$stream_output_adapter@D@__crt_stdio_output@@@2@@__crt_stdio_output@@AAEX_K_N@Z 100567f0 f i libucrtd:output.obj
 0001:000558e0       ??$type_case_integer_parse_into_buffer@_K$0BA@@?$output_processor@DV?$string_output_adapter@D@__crt_stdio_output@@V?$format_validation_base@DV?$string_output_adapter@D@__crt_stdio_output@@@2@@__crt_stdio_output@@AAEX_K_N@Z 100568e0 f i libucrtd:output.obj
 0001:000559d0       ??$type_case_integer_parse_into_buffer@_K$0BA@@?$output_processor@DV?$string_output_adapter@D@__crt_stdio_output@@V?$positional_parameter_base@DV?$string_output_adapter@D@__crt_stdio_output@@@2@@__crt_stdio_output@@AAEX_K_N@Z 100569d0 f i libucrtd:output.obj
 0001:00055ac0       ??$type_case_integer_parse_into_buffer@_K$0BA@@?$output_processor@DV?$string_output_adapter@D@__crt_stdio_output@@V?$standard_base@DV?$string_output_adapter@D@__crt_stdio_output@@@2@@__crt_stdio_output@@AAEX_K_N@Z 10056ac0 f i libucrtd:output.obj
 0001:00055bb0       ??$type_case_integer_parse_into_buffer@_K$0BA@@?$output_processor@_WV?$stream_output_adapter@_W@__crt_stdio_output@@V?$format_validation_base@_WV?$stream_output_adapter@_W@__crt_stdio_output@@@2@@__crt_stdio_output@@AAEX_K_N@Z 10056bb0 f i libucrtd:output.obj
 0001:00055cb0       ??$type_case_integer_parse_into_buffer@_K$0BA@@?$output_processor@_WV?$stream_output_adapter@_W@__crt_stdio_output@@V?$positional_parameter_base@_WV?$stream_output_adapter@_W@__crt_stdio_output@@@2@@__crt_stdio_output@@AAEX_K_N@Z 10056cb0 f i libucrtd:output.obj
 0001:00055db0       ??$type_case_integer_parse_into_buffer@_K$0BA@@?$output_processor@_WV?$stream_output_adapter@_W@__crt_stdio_output@@V?$standard_base@_WV?$stream_output_adapter@_W@__crt_stdio_output@@@2@@__crt_stdio_output@@AAEX_K_N@Z 10056db0 f i libucrtd:output.obj
 0001:00055eb0       ??$type_case_integer_parse_into_buffer@_K$0BA@@?$output_processor@_WV?$string_output_adapter@_W@__crt_stdio_output@@V?$format_validation_base@_WV?$string_output_adapter@_W@__crt_stdio_output@@@2@@__crt_stdio_output@@AAEX_K_N@Z 10056eb0 f i libucrtd:output.obj
 0001:00055fb0       ??$type_case_integer_parse_into_buffer@_K$0BA@@?$output_processor@_WV?$string_output_adapter@_W@__crt_stdio_output@@V?$positional_parameter_base@_WV?$string_output_adapter@_W@__crt_stdio_output@@@2@@__crt_stdio_output@@AAEX_K_N@Z 10056fb0 f i libucrtd:output.obj
 0001:000560b0       ??$type_case_integer_parse_into_buffer@_K$0BA@@?$output_processor@_WV?$string_output_adapter@_W@__crt_stdio_output@@V?$standard_base@_WV?$string_output_adapter@_W@__crt_stdio_output@@@2@@__crt_stdio_output@@AAEX_K_N@Z 100570b0 f i libucrtd:output.obj
 0001:000561b0       ??$write_multiple_characters@V?$stream_output_adapter@D@__crt_stdio_output@@D@__crt_stdio_output@@YAXABV?$stream_output_adapter@D@0@DHQAHAAV__crt_cached_ptd_host@@@Z 100571b0 f i libucrtd:output.obj
 0001:00056200       ??$write_multiple_characters@V?$stream_output_adapter@_W@__crt_stdio_output@@D@__crt_stdio_output@@YAXABV?$stream_output_adapter@_W@0@DHQAHAAV__crt_cached_ptd_host@@@Z 10057200 f i libucrtd:output.obj
 0001:00056250       ??$write_multiple_characters@V?$string_output_adapter@D@__crt_stdio_output@@D@__crt_stdio_output@@YAXABV?$string_output_adapter@D@0@DHQAHAAV__crt_cached_ptd_host@@@Z 10057250 f i libucrtd:output.obj
 0001:000562a0       ??$write_multiple_characters@V?$string_output_adapter@_W@__crt_stdio_output@@D@__crt_stdio_output@@YAXABV?$string_output_adapter@_W@0@DHQAHAAV__crt_cached_ptd_host@@@Z 100572a0 f i libucrtd:output.obj
 0001:000565f0       ??0?$c_string_character_source@D@__crt_strtox@@QAE@QBDQAPBD@Z 100575f0 f i libucrtd:output.obj
 0001:00056630       ??0?$c_string_character_source@_W@__crt_strtox@@QAE@QB_WQAPB_W@Z 10057630 f i libucrtd:output.obj
 0001:00056670       ??0?$cached@H@__crt_cached_ptd_host@@QAE@XZ 10057670 f i libucrtd:output.obj
 0001:00056690       ??0?$cached@K@__crt_cached_ptd_host@@QAE@XZ 10057690 f i libucrtd:output.obj
 0001:000566b0       ??0?$common_data@D@__crt_stdio_output@@IAE@AAV__crt_cached_ptd_host@@@Z 100576b0 f i libucrtd:output.obj
 0001:00056750       ??0?$common_data@_W@__crt_stdio_output@@IAE@AAV__crt_cached_ptd_host@@@Z 10057750 f i libucrtd:output.obj
 0001:000567f0       ??0?$output_adapter_data@DV?$stream_output_adapter@D@__crt_stdio_output@@@__crt_stdio_output@@IAE@ABV?$stream_output_adapter@D@1@_KQBDAAV__crt_cached_ptd_host@@QAD@Z 100577f0 f i libucrtd:output.obj
 0001:00056870       ??0?$output_adapter_data@DV?$string_output_adapter@D@__crt_stdio_output@@@__crt_stdio_output@@IAE@ABV?$string_output_adapter@D@1@_KQBDAAV__crt_cached_ptd_host@@QAD@Z 10057870 f i libucrtd:output.obj
 0001:000568f0       ??0?$output_adapter_data@_WV?$stream_output_adapter@_W@__crt_stdio_output@@@__crt_stdio_output@@IAE@ABV?$stream_output_adapter@_W@1@_KQB_WAAV__crt_cached_ptd_host@@QAD@Z 100578f0 f i libucrtd:output.obj
 0001:00056970       ??0?$output_adapter_data@_WV?$string_output_adapter@_W@__crt_stdio_output@@@__crt_stdio_output@@IAE@ABV?$string_output_adapter@_W@1@_KQB_WAAV__crt_cached_ptd_host@@QAD@Z 10057970 f i libucrtd:output.obj
 0001:000569f0       ??0?$output_processor@DV?$stream_output_adapter@D@__crt_stdio_output@@V?$format_validation_base@DV?$stream_output_adapter@D@__crt_stdio_output@@@2@@__crt_stdio_output@@QAE@ABV?$stream_output_adapter@D@1@_KQBDAAV__crt_cached_ptd_host@@QAD@Z 100579f0 f i libucrtd:output.obj
 0001:00056a20       ??0?$output_processor@DV?$stream_output_adapter@D@__crt_stdio_output@@V?$positional_parameter_base@DV?$stream_output_adapter@D@__crt_stdio_output@@@2@@__crt_stdio_output@@QAE@ABV?$stream_output_adapter@D@1@_KQBDAAV__crt_cached_ptd_host@@QAD@Z 10057a20 f i libucrtd:output.obj
 0001:00056a50       ??0?$output_processor@DV?$stream_output_adapter@D@__crt_stdio_output@@V?$standard_base@DV?$stream_output_adapter@D@__crt_stdio_output@@@2@@__crt_stdio_output@@QAE@ABV?$stream_output_adapter@D@1@_KQBDAAV__crt_cached_ptd_host@@QAD@Z 10057a50 f i libucrtd:output.obj
 0001:00056a80       ??0?$output_processor@DV?$string_output_adapter@D@__crt_stdio_output@@V?$format_validation_base@DV?$string_output_adapter@D@__crt_stdio_output@@@2@@__crt_stdio_output@@QAE@ABV?$string_output_adapter@D@1@_KQBDAAV__crt_cached_ptd_host@@QAD@Z 10057a80 f i libucrtd:output.obj
 0001:00056ab0       ??0?$output_processor@DV?$string_output_adapter@D@__crt_stdio_output@@V?$positional_parameter_base@DV?$string_output_adapter@D@__crt_stdio_output@@@2@@__crt_stdio_output@@QAE@ABV?$string_output_adapter@D@1@_KQBDAAV__crt_cached_ptd_host@@QAD@Z 10057ab0 f i libucrtd:output.obj
 0001:00056ae0       ??0?$output_processor@DV?$string_output_adapter@D@__crt_stdio_output@@V?$standard_base@DV?$string_output_adapter@D@__crt_stdio_output@@@2@@__crt_stdio_output@@QAE@ABV?$string_output_adapter@D@1@_KQBDAAV__crt_cached_ptd_host@@QAD@Z 10057ae0 f i libucrtd:output.obj
 0001:00056b10       ??0?$output_processor@_WV?$stream_output_adapter@_W@__crt_stdio_output@@V?$format_validation_base@_WV?$stream_output_adapter@_W@__crt_stdio_output@@@2@@__crt_stdio_output@@QAE@ABV?$stream_output_adapter@_W@1@_KQB_WAAV__crt_cached_ptd_host@@QAD@Z 10057b10 f i libucrtd:output.obj
 0001:00056b40       ??0?$output_processor@_WV?$stream_output_adapter@_W@__crt_stdio_output@@V?$positional_parameter_base@_WV?$stream_output_adapter@_W@__crt_stdio_output@@@2@@__crt_stdio_output@@QAE@ABV?$stream_output_adapter@_W@1@_KQB_WAAV__crt_cached_ptd_host@@QAD@Z 10057b40 f i libucrtd:output.obj
 0001:00056b70       ??0?$output_processor@_WV?$stream_output_adapter@_W@__crt_stdio_output@@V?$standard_base@_WV?$stream_output_adapter@_W@__crt_stdio_output@@@2@@__crt_stdio_output@@QAE@ABV?$stream_output_adapter@_W@1@_KQB_WAAV__crt_cached_ptd_host@@QAD@Z 10057b70 f i libucrtd:output.obj
 0001:00056ba0       ??0?$output_processor@_WV?$string_output_adapter@_W@__crt_stdio_output@@V?$format_validation_base@_WV?$string_output_adapter@_W@__crt_stdio_output@@@2@@__crt_stdio_output@@QAE@ABV?$string_output_adapter@_W@1@_KQB_WAAV__crt_cached_ptd_host@@QAD@Z 10057ba0 f i libucrtd:output.obj
 0001:00056bd0       ??0?$output_processor@_WV?$string_output_adapter@_W@__crt_stdio_output@@V?$positional_parameter_base@_WV?$string_output_adapter@_W@__crt_stdio_output@@@2@@__crt_stdio_output@@QAE@ABV?$string_output_adapter@_W@1@_KQB_WAAV__crt_cached_ptd_host@@QAD@Z 10057bd0 f i libucrtd:output.obj
 0001:00056c00       ??0?$output_processor@_WV?$string_output_adapter@_W@__crt_stdio_output@@V?$standard_base@_WV?$string_output_adapter@_W@__crt_stdio_output@@@2@@__crt_stdio_output@@QAE@ABV?$string_output_adapter@_W@1@_KQB_WAAV__crt_cached_ptd_host@@QAD@Z 10057c00 f i libucrtd:output.obj
 0001:00056c30       ??0?$stream_output_adapter@D@__crt_stdio_output@@QAE@QAU_iobuf@@@Z 10057c30 f i libucrtd:output.obj
 0001:00056c60       ??0?$stream_output_adapter@_W@__crt_stdio_output@@QAE@QAU_iobuf@@@Z 10057c60 f i libucrtd:output.obj
 0001:00056c90       ??0?$string_output_adapter@D@__crt_stdio_output@@QAE@QAU?$string_output_adapter_context@D@1@@Z 10057c90 f i libucrtd:output.obj
 0001:00056cb0       ??0?$string_output_adapter@_W@__crt_stdio_output@@QAE@QAU?$string_output_adapter_context@_W@1@@Z 10057cb0 f i libucrtd:output.obj
 0001:00056cd0       ??0__acrt_stdio_temporary_buffering_guard@@QAE@QAU_iobuf@@AAV__crt_cached_ptd_host@@@Z 10057cd0 f i libucrtd:output.obj
 0001:00056d10       ??0__crt_cached_ptd_host@@QAE@QAU__crt_locale_pointers@@@Z 10057d10 f i libucrtd:output.obj
 0001:00056da0       ??0__crt_scoped_get_last_error_reset@@QAE@XZ 10057da0 f i libucrtd:output.obj
 0001:00056dc0       ??0__crt_stdio_stream@@QAE@QAU_iobuf@@@Z 10057dc0 f i libucrtd:output.obj
 0001:00056de0       ??0formatting_buffer@__crt_stdio_output@@QAE@XZ 10057de0 f i libucrtd:output.obj
 0001:00056e20       ??0guard@?$cached@H@__crt_cached_ptd_host@@QAE@AAU12@@Z 10057e20 f i libucrtd:output.obj
 0001:00056e60       ??1?$c_string_character_source@D@__crt_strtox@@QAE@XZ 10057e60 f i libucrtd:output.obj
 0001:00056e90       ??1?$c_string_character_source@_W@__crt_strtox@@QAE@XZ 10057e90 f i libucrtd:output.obj
 0001:00056ec0       ??1?$common_data@D@__crt_stdio_output@@QAE@XZ 10057ec0 f i libucrtd:output.obj
 0001:00056ee0       ??1?$common_data@_W@__crt_stdio_output@@QAE@XZ 10057ee0 f i libucrtd:output.obj
 0001:00056f00       ??1?$format_validation_base@DV?$stream_output_adapter@D@__crt_stdio_output@@@__crt_stdio_output@@QAE@XZ 10057f00 f i libucrtd:output.obj
 0001:00056f20       ??1?$format_validation_base@DV?$string_output_adapter@D@__crt_stdio_output@@@__crt_stdio_output@@QAE@XZ 10057f20 f i libucrtd:output.obj
 0001:00056f40       ??1?$format_validation_base@_WV?$stream_output_adapter@_W@__crt_stdio_output@@@__crt_stdio_output@@QAE@XZ 10057f40 f i libucrtd:output.obj
 0001:00056f60       ??1?$format_validation_base@_WV?$string_output_adapter@_W@__crt_stdio_output@@@__crt_stdio_output@@QAE@XZ 10057f60 f i libucrtd:output.obj
 0001:00056f80       ??1?$output_adapter_data@DV?$stream_output_adapter@D@__crt_stdio_output@@@__crt_stdio_output@@QAE@XZ 10057f80 f i libucrtd:output.obj
 0001:00056fa0       ??1?$output_adapter_data@DV?$string_output_adapter@D@__crt_stdio_output@@@__crt_stdio_output@@QAE@XZ 10057fa0 f i libucrtd:output.obj
 0001:00056fc0       ??1?$output_adapter_data@_WV?$stream_output_adapter@_W@__crt_stdio_output@@@__crt_stdio_output@@QAE@XZ 10057fc0 f i libucrtd:output.obj
 0001:00056fe0       ??1?$output_adapter_data@_WV?$string_output_adapter@_W@__crt_stdio_output@@@__crt_stdio_output@@QAE@XZ 10057fe0 f i libucrtd:output.obj
 0001:00057000       ??1?$output_processor@DV?$stream_output_adapter@D@__crt_stdio_output@@V?$format_validation_base@DV?$stream_output_adapter@D@__crt_stdio_output@@@2@@__crt_stdio_output@@QAE@XZ 10058000 f i libucrtd:output.obj
 0001:00057020       ??1?$output_processor@DV?$stream_output_adapter@D@__crt_stdio_output@@V?$positional_parameter_base@DV?$stream_output_adapter@D@__crt_stdio_output@@@2@@__crt_stdio_output@@QAE@XZ 10058020 f i libucrtd:output.obj
 0001:00057040       ??1?$output_processor@DV?$stream_output_adapter@D@__crt_stdio_output@@V?$standard_base@DV?$stream_output_adapter@D@__crt_stdio_output@@@2@@__crt_stdio_output@@QAE@XZ 10058040 f i libucrtd:output.obj
 0001:00057060       ??1?$output_processor@DV?$string_output_adapter@D@__crt_stdio_output@@V?$format_validation_base@DV?$string_output_adapter@D@__crt_stdio_output@@@2@@__crt_stdio_output@@QAE@XZ 10058060 f i libucrtd:output.obj
 0001:00057080       ??1?$output_processor@DV?$string_output_adapter@D@__crt_stdio_output@@V?$positional_parameter_base@DV?$string_output_adapter@D@__crt_stdio_output@@@2@@__crt_stdio_output@@QAE@XZ 10058080 f i libucrtd:output.obj
 0001:000570a0       ??1?$output_processor@DV?$string_output_adapter@D@__crt_stdio_output@@V?$standard_base@DV?$string_output_adapter@D@__crt_stdio_output@@@2@@__crt_stdio_output@@QAE@XZ 100580a0 f i libucrtd:output.obj
 0001:000570c0       ??1?$output_processor@_WV?$stream_output_adapter@_W@__crt_stdio_output@@V?$format_validation_base@_WV?$stream_output_adapter@_W@__crt_stdio_output@@@2@@__crt_stdio_output@@QAE@XZ 100580c0 f i libucrtd:output.obj
 0001:000570e0       ??1?$output_processor@_WV?$stream_output_adapter@_W@__crt_stdio_output@@V?$positional_parameter_base@_WV?$stream_output_adapter@_W@__crt_stdio_output@@@2@@__crt_stdio_output@@QAE@XZ 100580e0 f i libucrtd:output.obj
 0001:00057100       ??1?$output_processor@_WV?$stream_output_adapter@_W@__crt_stdio_output@@V?$standard_base@_WV?$stream_output_adapter@_W@__crt_stdio_output@@@2@@__crt_stdio_output@@QAE@XZ 10058100 f i libucrtd:output.obj
 0001:00057120       ??1?$output_processor@_WV?$string_output_adapter@_W@__crt_stdio_output@@V?$format_validation_base@_WV?$string_output_adapter@_W@__crt_stdio_output@@@2@@__crt_stdio_output@@QAE@XZ 10058120 f i libucrtd:output.obj
 0001:00057140       ??1?$output_processor@_WV?$string_output_adapter@_W@__crt_stdio_output@@V?$positional_parameter_base@_WV?$string_output_adapter@_W@__crt_stdio_output@@@2@@__crt_stdio_output@@QAE@XZ 10058140 f i libucrtd:output.obj
 0001:00057160       ??1?$output_processor@_WV?$string_output_adapter@_W@__crt_stdio_output@@V?$standard_base@_WV?$string_output_adapter@_W@__crt_stdio_output@@@2@@__crt_stdio_output@@QAE@XZ 10058160 f i libucrtd:output.obj
 0001:00057180       ??1?$positional_parameter_base@DV?$stream_output_adapter@D@__crt_stdio_output@@@__crt_stdio_output@@QAE@XZ 10058180 f i libucrtd:output.obj
 0001:000571a0       ??1?$positional_parameter_base@DV?$string_output_adapter@D@__crt_stdio_output@@@__crt_stdio_output@@QAE@XZ 100581a0 f i libucrtd:output.obj
 0001:000571c0       ??1?$positional_parameter_base@_WV?$stream_output_adapter@_W@__crt_stdio_output@@@__crt_stdio_output@@QAE@XZ 100581c0 f i libucrtd:output.obj
 0001:000571e0       ??1?$positional_parameter_base@_WV?$string_output_adapter@_W@__crt_stdio_output@@@__crt_stdio_output@@QAE@XZ 100581e0 f i libucrtd:output.obj
 0001:00057200       ??1?$standard_base@DV?$stream_output_adapter@D@__crt_stdio_output@@@__crt_stdio_output@@QAE@XZ 10058200 f i libucrtd:output.obj
 0001:00057220       ??1?$standard_base@DV?$string_output_adapter@D@__crt_stdio_output@@@__crt_stdio_output@@QAE@XZ 10058220 f i libucrtd:output.obj
 0001:00057240       ??1?$standard_base@_WV?$stream_output_adapter@_W@__crt_stdio_output@@@__crt_stdio_output@@QAE@XZ 10058240 f i libucrtd:output.obj
 0001:00057260       ??1?$standard_base@_WV?$string_output_adapter@_W@__crt_stdio_output@@@__crt_stdio_output@@QAE@XZ 10058260 f i libucrtd:output.obj
 0001:00057280       ??1__acrt_stdio_temporary_buffering_guard@@QAE@XZ 10058280 f i libucrtd:output.obj
 0001:000572b0       ??1__crt_cached_ptd_host@@QAE@XZ 100582b0 f i libucrtd:output.obj
 0001:00057340       ??1__crt_scoped_get_last_error_reset@@QAE@XZ 10058340 f i libucrtd:output.obj
 0001:00057360       ??1formatting_buffer@__crt_stdio_output@@QAE@XZ 10058360 f i libucrtd:output.obj
 0001:00057380       ??1guard@?$cached@H@__crt_cached_ptd_host@@QAE@XZ 10058380 f i libucrtd:output.obj
 0001:000573b0       ??4?$__crt_unique_heap_ptr@DU__crt_internal_free_policy@@@@QAEAAV0@$$QAV0@@Z 100583b0 f i libucrtd:output.obj
 0001:000573e0       ??A?$spectre_mitigated_lookup_table@Ustate_transition_pair@__crt_stdio_output@@$0IA@@__crt_stdio_output@@QBEABUstate_transition_pair@1@I@Z 100583e0 f i libucrtd:output.obj
 0001:00057400       ??C__crt_stdio_stream@@QBEPAU__crt_stdio_stream_data@@XZ 10058400 f i libucrtd:output.obj
 0001:00057c60       ?adjust_hexit@?$output_processor@DV?$stream_output_adapter@D@__crt_stdio_output@@V?$format_validation_base@DV?$stream_output_adapter@D@__crt_stdio_output@@@2@@__crt_stdio_output@@CADH_N@Z 10058c60 f i libucrtd:output.obj
 0001:00057ca0       ?adjust_hexit@?$output_processor@DV?$stream_output_adapter@D@__crt_stdio_output@@V?$positional_parameter_base@DV?$stream_output_adapter@D@__crt_stdio_output@@@2@@__crt_stdio_output@@CADH_N@Z 10058ca0 f i libucrtd:output.obj
 0001:00057ce0       ?adjust_hexit@?$output_processor@DV?$stream_output_adapter@D@__crt_stdio_output@@V?$standard_base@DV?$stream_output_adapter@D@__crt_stdio_output@@@2@@__crt_stdio_output@@CADH_N@Z 10058ce0 f i libucrtd:output.obj
 0001:00057d20       ?adjust_hexit@?$output_processor@DV?$string_output_adapter@D@__crt_stdio_output@@V?$format_validation_base@DV?$string_output_adapter@D@__crt_stdio_output@@@2@@__crt_stdio_output@@CADH_N@Z 10058d20 f i libucrtd:output.obj
 0001:00057d60       ?adjust_hexit@?$output_processor@DV?$string_output_adapter@D@__crt_stdio_output@@V?$positional_parameter_base@DV?$string_output_adapter@D@__crt_stdio_output@@@2@@__crt_stdio_output@@CADH_N@Z 10058d60 f i libucrtd:output.obj
 0001:00057da0       ?adjust_hexit@?$output_processor@DV?$string_output_adapter@D@__crt_stdio_output@@V?$standard_base@DV?$string_output_adapter@D@__crt_stdio_output@@@2@@__crt_stdio_output@@CADH_N@Z 10058da0 f i libucrtd:output.obj
 0001:00057de0       ?adjust_hexit@?$output_processor@_WV?$stream_output_adapter@_W@__crt_stdio_output@@V?$format_validation_base@_WV?$stream_output_adapter@_W@__crt_stdio_output@@@2@@__crt_stdio_output@@CADH_N@Z 10058de0 f i libucrtd:output.obj
 0001:00057e20       ?adjust_hexit@?$output_processor@_WV?$stream_output_adapter@_W@__crt_stdio_output@@V?$positional_parameter_base@_WV?$stream_output_adapter@_W@__crt_stdio_output@@@2@@__crt_stdio_output@@CADH_N@Z 10058e20 f i libucrtd:output.obj
 0001:00057e60       ?adjust_hexit@?$output_processor@_WV?$stream_output_adapter@_W@__crt_stdio_output@@V?$standard_base@_WV?$stream_output_adapter@_W@__crt_stdio_output@@@2@@__crt_stdio_output@@CADH_N@Z 10058e60 f i libucrtd:output.obj
 0001:00057ea0       ?adjust_hexit@?$output_processor@_WV?$string_output_adapter@_W@__crt_stdio_output@@V?$format_validation_base@_WV?$string_output_adapter@_W@__crt_stdio_output@@@2@@__crt_stdio_output@@CADH_N@Z 10058ea0 f i libucrtd:output.obj
 0001:00057ee0       ?adjust_hexit@?$output_processor@_WV?$string_output_adapter@_W@__crt_stdio_output@@V?$positional_parameter_base@_WV?$string_output_adapter@_W@__crt_stdio_output@@@2@@__crt_stdio_output@@CADH_N@Z 10058ee0 f i libucrtd:output.obj
 0001:00057f20       ?adjust_hexit@?$output_processor@_WV?$string_output_adapter@_W@__crt_stdio_output@@V?$standard_base@_WV?$string_output_adapter@_W@__crt_stdio_output@@@2@@__crt_stdio_output@@CADH_N@Z 10058f20 f i libucrtd:output.obj
 0001:00057f60       ?advance_to_next_pass@?$positional_parameter_base@DV?$stream_output_adapter@D@__crt_stdio_output@@@__crt_stdio_output@@IAE_NXZ 10058f60 f i libucrtd:output.obj
 0001:00058000       ?advance_to_next_pass@?$positional_parameter_base@DV?$string_output_adapter@D@__crt_stdio_output@@@__crt_stdio_output@@IAE_NXZ 10059000 f i libucrtd:output.obj
 0001:000580a0       ?advance_to_next_pass@?$positional_parameter_base@_WV?$stream_output_adapter@_W@__crt_stdio_output@@@__crt_stdio_output@@IAE_NXZ 100590a0 f i libucrtd:output.obj
 0001:00058140       ?advance_to_next_pass@?$positional_parameter_base@_WV?$string_output_adapter@_W@__crt_stdio_output@@@__crt_stdio_output@@IAE_NXZ 10059140 f i libucrtd:output.obj
 0001:000581e0       ?advance_to_next_pass@?$standard_base@DV?$stream_output_adapter@D@__crt_stdio_output@@@__crt_stdio_output@@IAE_NXZ 100591e0 f i libucrtd:output.obj
 0001:00058230       ?advance_to_next_pass@?$standard_base@DV?$string_output_adapter@D@__crt_stdio_output@@@__crt_stdio_output@@IAE_NXZ 10059230 f i libucrtd:output.obj
 0001:00058280       ?advance_to_next_pass@?$standard_base@_WV?$stream_output_adapter@_W@__crt_stdio_output@@@__crt_stdio_output@@IAE_NXZ 10059280 f i libucrtd:output.obj
 0001:000582d0       ?advance_to_next_pass@?$standard_base@_WV?$string_output_adapter@_W@__crt_stdio_output@@@__crt_stdio_output@@IAE_NXZ 100592d0 f i libucrtd:output.obj
 0001:00058320       ?check@?$cached@H@__crt_cached_ptd_host@@QBE_NH@Z 10059320 f i libucrtd:output.obj
 0001:00058360       ?check_synchronize_global_state_index@__crt_cached_ptd_host@@AAEIABV__crt_scoped_get_last_error_reset@@@Z 10059360 f i libucrtd:output.obj
 0001:00058390       ?check_synchronize_per_thread_data@__crt_cached_ptd_host@@AAEPAU__acrt_ptd@@XZ 10059390 f i libucrtd:output.obj
 0001:000583c0       ?create_guard@?$cached@H@__crt_cached_ptd_host@@QAE?AVguard@12@XZ 100593c0 f i libucrtd:output.obj
 0001:000583e0       ?crop_zeroes@__crt_stdio_output@@YAXPADQAU__crt_locale_pointers@@@Z 100593e0 f i libucrtd:output.obj
 0001:000584e0       ?disable@guard@?$cached@H@__crt_cached_ptd_host@@QAEXXZ 100594e0 f i libucrtd:output.obj
 0001:00058500       ?enable@guard@?$cached@H@__crt_cached_ptd_host@@QAEXXZ 10059500 f i libucrtd:output.obj
 0001:00058520       ?find_next_state@?$output_processor@DV?$stream_output_adapter@D@__crt_stdio_output@@V?$format_validation_base@DV?$stream_output_adapter@D@__crt_stdio_output@@@2@@__crt_stdio_output@@ABE?AW4state@2@DW432@@Z 10059520 f i libucrtd:output.obj
 0001:000585c0       ?find_next_state@?$output_processor@DV?$stream_output_adapter@D@__crt_stdio_output@@V?$positional_parameter_base@DV?$stream_output_adapter@D@__crt_stdio_output@@@2@@__crt_stdio_output@@ABE?AW4state@2@DW432@@Z 100595c0 f i libucrtd:output.obj
 0001:00058660       ?find_next_state@?$output_processor@DV?$stream_output_adapter@D@__crt_stdio_output@@V?$standard_base@DV?$stream_output_adapter@D@__crt_stdio_output@@@2@@__crt_stdio_output@@ABE?AW4state@2@DW432@@Z 10059660 f i libucrtd:output.obj
 0001:00058700       ?find_next_state@?$output_processor@DV?$string_output_adapter@D@__crt_stdio_output@@V?$format_validation_base@DV?$string_output_adapter@D@__crt_stdio_output@@@2@@__crt_stdio_output@@ABE?AW4state@2@DW432@@Z 10059700 f i libucrtd:output.obj
 0001:000587a0       ?find_next_state@?$output_processor@DV?$string_output_adapter@D@__crt_stdio_output@@V?$positional_parameter_base@DV?$string_output_adapter@D@__crt_stdio_output@@@2@@__crt_stdio_output@@ABE?AW4state@2@DW432@@Z 100597a0 f i libucrtd:output.obj
 0001:00058840       ?find_next_state@?$output_processor@DV?$string_output_adapter@D@__crt_stdio_output@@V?$standard_base@DV?$string_output_adapter@D@__crt_stdio_output@@@2@@__crt_stdio_output@@ABE?AW4state@2@DW432@@Z 10059840 f i libucrtd:output.obj
 0001:000588e0       ?find_next_state@?$output_processor@_WV?$stream_output_adapter@_W@__crt_stdio_output@@V?$format_validation_base@_WV?$stream_output_adapter@_W@__crt_stdio_output@@@2@@__crt_stdio_output@@ABE?AW4state@2@_WW432@@Z 100598e0 f i libucrtd:output.obj
 0001:00058980       ?find_next_state@?$output_processor@_WV?$stream_output_adapter@_W@__crt_stdio_output@@V?$positional_parameter_base@_WV?$stream_output_adapter@_W@__crt_stdio_output@@@2@@__crt_stdio_output@@ABE?AW4state@2@_WW432@@Z 10059980 f i libucrtd:output.obj
 0001:00058a20       ?find_next_state@?$output_processor@_WV?$stream_output_adapter@_W@__crt_stdio_output@@V?$standard_base@_WV?$stream_output_adapter@_W@__crt_stdio_output@@@2@@__crt_stdio_output@@ABE?AW4state@2@_WW432@@Z 10059a20 f i libucrtd:output.obj
 0001:00058ac0       ?find_next_state@?$output_processor@_WV?$string_output_adapter@_W@__crt_stdio_output@@V?$format_validation_base@_WV?$string_output_adapter@_W@__crt_stdio_output@@@2@@__crt_stdio_output@@ABE?AW4state@2@_WW432@@Z 10059ac0 f i libucrtd:output.obj
 0001:00058b60       ?find_next_state@?$output_processor@_WV?$string_output_adapter@_W@__crt_stdio_output@@V?$positional_parameter_base@_WV?$string_output_adapter@_W@__crt_stdio_output@@@2@@__crt_stdio_output@@ABE?AW4state@2@_WW432@@Z 10059b60 f i libucrtd:output.obj
 0001:00058c00       ?find_next_state@?$output_processor@_WV?$string_output_adapter@_W@__crt_stdio_output@@V?$standard_base@_WV?$string_output_adapter@_W@__crt_stdio_output@@@2@@__crt_stdio_output@@ABE?AW4state@2@_WW432@@Z 10059c00 f i libucrtd:output.obj
 0001:00058ca0       ?force_decimal_point@__crt_stdio_output@@YAXPADQAU__crt_locale_pointers@@@Z 10059ca0 f i libucrtd:output.obj
 0001:00058d70       ?force_synchronize_global_state_index@__crt_cached_ptd_host@@AAEIABV__crt_scoped_get_last_error_reset@@@Z 10059d70 f i libucrtd:output.obj
 0001:00058da0       ?force_synchronize_per_thread_data@__crt_cached_ptd_host@@AAEPAU__acrt_ptd@@XZ 10059da0 f i libucrtd:output.obj
 0001:00058df0       ?get@?$c_string_character_source@D@__crt_strtox@@QAEDXZ 10059df0 f i libucrtd:output.obj
 0001:00058e20       ?get@?$c_string_character_source@_W@__crt_strtox@@QAE_WXZ 10059e20 f i libucrtd:output.obj
 0001:00058e50       ?get_current_state_index@__crt_state_management@@YAIABV__crt_scoped_get_last_error_reset@@@Z 10059e50 f i libucrtd:output.obj
 0001:00058e60       ?get_errno@__crt_cached_ptd_host@@QAEAAU?$cached@H@1@XZ 10059e60 f i libucrtd:output.obj
 0001:00058e80       ?get_flags@__crt_stdio_stream@@QBEJXZ 10059e80 f i libucrtd:output.obj
 0001:00058ea0       ?get_locale@__crt_cached_ptd_host@@QAEPAU__crt_locale_pointers@@XZ 10059ea0 f i libucrtd:output.obj
 0001:00058ec0       ?get_parameter_type@?$positional_parameter_base@DV?$stream_output_adapter@D@__crt_stdio_output@@@__crt_stdio_output@@CA?AW4parameter_type@12@F@Z 10059ec0 f i libucrtd:output.obj
 0001:00058ed0       ?get_parameter_type@?$positional_parameter_base@DV?$stream_output_adapter@D@__crt_stdio_output@@@__crt_stdio_output@@CA?AW4parameter_type@12@G@Z 10059ed0 f i libucrtd:output.obj
 0001:00058ee0       ?get_parameter_type@?$positional_parameter_base@DV?$stream_output_adapter@D@__crt_stdio_output@@@__crt_stdio_output@@CA?AW4parameter_type@12@H@Z 10059ee0 f i libucrtd:output.obj
 0001:00058ef0       ?get_parameter_type@?$positional_parameter_base@DV?$stream_output_adapter@D@__crt_stdio_output@@@__crt_stdio_output@@CA?AW4parameter_type@12@I@Z 10059ef0 f i libucrtd:output.obj
 0001:00058f00       ?get_parameter_type@?$positional_parameter_base@DV?$stream_output_adapter@D@__crt_stdio_output@@@__crt_stdio_output@@CA?AW4parameter_type@12@U_CRT_DOUBLE@@@Z 10059f00 f i libucrtd:output.obj
 0001:00058f10       ?get_parameter_type@?$positional_parameter_base@DV?$stream_output_adapter@D@__crt_stdio_output@@@__crt_stdio_output@@CA?AW4parameter_type@12@_J@Z 10059f10 f i libucrtd:output.obj
 0001:00058f20       ?get_parameter_type@?$positional_parameter_base@DV?$stream_output_adapter@D@__crt_stdio_output@@@__crt_stdio_output@@CA?AW4parameter_type@12@_K@Z 10059f20 f i libucrtd:output.obj
 0001:00058f30       ?get_parameter_type@?$positional_parameter_base@DV?$stream_output_adapter@D@__crt_stdio_output@@@__crt_stdio_output@@CA?AW4parameter_type@12@_W@Z 10059f30 f i libucrtd:output.obj
 0001:00058f40       ?get_parameter_type@?$positional_parameter_base@DV?$string_output_adapter@D@__crt_stdio_output@@@__crt_stdio_output@@CA?AW4parameter_type@12@F@Z 10059f40 f i libucrtd:output.obj
 0001:00058f50       ?get_parameter_type@?$positional_parameter_base@DV?$string_output_adapter@D@__crt_stdio_output@@@__crt_stdio_output@@CA?AW4parameter_type@12@G@Z 10059f50 f i libucrtd:output.obj
 0001:00058f60       ?get_parameter_type@?$positional_parameter_base@DV?$string_output_adapter@D@__crt_stdio_output@@@__crt_stdio_output@@CA?AW4parameter_type@12@H@Z 10059f60 f i libucrtd:output.obj
 0001:00058f70       ?get_parameter_type@?$positional_parameter_base@DV?$string_output_adapter@D@__crt_stdio_output@@@__crt_stdio_output@@CA?AW4parameter_type@12@I@Z 10059f70 f i libucrtd:output.obj
 0001:00058f80       ?get_parameter_type@?$positional_parameter_base@DV?$string_output_adapter@D@__crt_stdio_output@@@__crt_stdio_output@@CA?AW4parameter_type@12@U_CRT_DOUBLE@@@Z 10059f80 f i libucrtd:output.obj
 0001:00058f90       ?get_parameter_type@?$positional_parameter_base@DV?$string_output_adapter@D@__crt_stdio_output@@@__crt_stdio_output@@CA?AW4parameter_type@12@_J@Z 10059f90 f i libucrtd:output.obj
 0001:00058fa0       ?get_parameter_type@?$positional_parameter_base@DV?$string_output_adapter@D@__crt_stdio_output@@@__crt_stdio_output@@CA?AW4parameter_type@12@_K@Z 10059fa0 f i libucrtd:output.obj
 0001:00058fb0       ?get_parameter_type@?$positional_parameter_base@DV?$string_output_adapter@D@__crt_stdio_output@@@__crt_stdio_output@@CA?AW4parameter_type@12@_W@Z 10059fb0 f i libucrtd:output.obj
 0001:00058fc0       ?get_parameter_type@?$positional_parameter_base@_WV?$stream_output_adapter@_W@__crt_stdio_output@@@__crt_stdio_output@@CA?AW4parameter_type@12@F@Z 10059fc0 f i libucrtd:output.obj
 0001:00058fd0       ?get_parameter_type@?$positional_parameter_base@_WV?$stream_output_adapter@_W@__crt_stdio_output@@@__crt_stdio_output@@CA?AW4parameter_type@12@G@Z 10059fd0 f i libucrtd:output.obj
 0001:00058fe0       ?get_parameter_type@?$positional_parameter_base@_WV?$stream_output_adapter@_W@__crt_stdio_output@@@__crt_stdio_output@@CA?AW4parameter_type@12@H@Z 10059fe0 f i libucrtd:output.obj
 0001:00058ff0       ?get_parameter_type@?$positional_parameter_base@_WV?$stream_output_adapter@_W@__crt_stdio_output@@@__crt_stdio_output@@CA?AW4parameter_type@12@I@Z 10059ff0 f i libucrtd:output.obj
 0001:00059000       ?get_parameter_type@?$positional_parameter_base@_WV?$stream_output_adapter@_W@__crt_stdio_output@@@__crt_stdio_output@@CA?AW4parameter_type@12@U_CRT_DOUBLE@@@Z 1005a000 f i libucrtd:output.obj
 0001:00059010       ?get_parameter_type@?$positional_parameter_base@_WV?$stream_output_adapter@_W@__crt_stdio_output@@@__crt_stdio_output@@CA?AW4parameter_type@12@_J@Z 1005a010 f i libucrtd:output.obj
 0001:00059020       ?get_parameter_type@?$positional_parameter_base@_WV?$stream_output_adapter@_W@__crt_stdio_output@@@__crt_stdio_output@@CA?AW4parameter_type@12@_K@Z 1005a020 f i libucrtd:output.obj
 0001:00059030       ?get_parameter_type@?$positional_parameter_base@_WV?$stream_output_adapter@_W@__crt_stdio_output@@@__crt_stdio_output@@CA?AW4parameter_type@12@_W@Z 1005a030 f i libucrtd:output.obj
 0001:00059040       ?get_parameter_type@?$positional_parameter_base@_WV?$string_output_adapter@_W@__crt_stdio_output@@@__crt_stdio_output@@CA?AW4parameter_type@12@F@Z 1005a040 f i libucrtd:output.obj
 0001:00059050       ?get_parameter_type@?$positional_parameter_base@_WV?$string_output_adapter@_W@__crt_stdio_output@@@__crt_stdio_output@@CA?AW4parameter_type@12@G@Z 1005a050 f i libucrtd:output.obj
 0001:00059060       ?get_parameter_type@?$positional_parameter_base@_WV?$string_output_adapter@_W@__crt_stdio_output@@@__crt_stdio_output@@CA?AW4parameter_type@12@H@Z 1005a060 f i libucrtd:output.obj
 0001:00059070       ?get_parameter_type@?$positional_parameter_base@_WV?$string_output_adapter@_W@__crt_stdio_output@@@__crt_stdio_output@@CA?AW4parameter_type@12@I@Z 1005a070 f i libucrtd:output.obj
 0001:00059080       ?get_parameter_type@?$positional_parameter_base@_WV?$string_output_adapter@_W@__crt_stdio_output@@@__crt_stdio_output@@CA?AW4parameter_type@12@U_CRT_DOUBLE@@@Z 1005a080 f i libucrtd:output.obj
 0001:00059090       ?get_parameter_type@?$positional_parameter_base@_WV?$string_output_adapter@_W@__crt_stdio_output@@@__crt_stdio_output@@CA?AW4parameter_type@12@_J@Z 1005a090 f i libucrtd:output.obj
 0001:000590a0       ?get_parameter_type@?$positional_parameter_base@_WV?$string_output_adapter@_W@__crt_stdio_output@@@__crt_stdio_output@@CA?AW4parameter_type@12@_K@Z 1005a0a0 f i libucrtd:output.obj
 0001:000590b0       ?get_parameter_type@?$positional_parameter_base@_WV?$string_output_adapter@_W@__crt_stdio_output@@@__crt_stdio_output@@CA?AW4parameter_type@12@_W@Z 1005a0b0 f i libucrtd:output.obj
 0001:000590c0       ?get_raw_ptd@__crt_cached_ptd_host@@QAEPAU__acrt_ptd@@XZ 1005a0c0 f i libucrtd:output.obj
 0001:000590e0       ?has_flag@?$output_processor@DV?$stream_output_adapter@D@__crt_stdio_output@@V?$format_validation_base@DV?$stream_output_adapter@D@__crt_stdio_output@@@2@@__crt_stdio_output@@ABE_NI@Z 1005a0e0 f i libucrtd:output.obj
 0001:00059110       ?has_flag@?$output_processor@DV?$stream_output_adapter@D@__crt_stdio_output@@V?$positional_parameter_base@DV?$stream_output_adapter@D@__crt_stdio_output@@@2@@__crt_stdio_output@@ABE_NI@Z 1005a110 f i libucrtd:output.obj
 0001:00059140       ?has_flag@?$output_processor@DV?$stream_output_adapter@D@__crt_stdio_output@@V?$standard_base@DV?$stream_output_adapter@D@__crt_stdio_output@@@2@@__crt_stdio_output@@ABE_NI@Z 1005a140 f i libucrtd:output.obj
 0001:00059170       ?has_flag@?$output_processor@DV?$string_output_adapter@D@__crt_stdio_output@@V?$format_validation_base@DV?$string_output_adapter@D@__crt_stdio_output@@@2@@__crt_stdio_output@@ABE_NI@Z 1005a170 f i libucrtd:output.obj
 0001:000591a0       ?has_flag@?$output_processor@DV?$string_output_adapter@D@__crt_stdio_output@@V?$positional_parameter_base@DV?$string_output_adapter@D@__crt_stdio_output@@@2@@__crt_stdio_output@@ABE_NI@Z 1005a1a0 f i libucrtd:output.obj
 0001:000591d0       ?has_flag@?$output_processor@DV?$string_output_adapter@D@__crt_stdio_output@@V?$standard_base@DV?$string_output_adapter@D@__crt_stdio_output@@@2@@__crt_stdio_output@@ABE_NI@Z 1005a1d0 f i libucrtd:output.obj
 0001:00059200       ?has_flag@?$output_processor@_WV?$stream_output_adapter@_W@__crt_stdio_output@@V?$format_validation_base@_WV?$stream_output_adapter@_W@__crt_stdio_output@@@2@@__crt_stdio_output@@ABE_NI@Z 1005a200 f i libucrtd:output.obj
 0001:00059230       ?has_flag@?$output_processor@_WV?$stream_output_adapter@_W@__crt_stdio_output@@V?$positional_parameter_base@_WV?$stream_output_adapter@_W@__crt_stdio_output@@@2@@__crt_stdio_output@@ABE_NI@Z 1005a230 f i libucrtd:output.obj
 0001:00059260       ?has_flag@?$output_processor@_WV?$stream_output_adapter@_W@__crt_stdio_output@@V?$standard_base@_WV?$stream_output_adapter@_W@__crt_stdio_output@@@2@@__crt_stdio_output@@ABE_NI@Z 1005a260 f i libucrtd:output.obj
 0001:00059290       ?has_flag@?$output_processor@_WV?$string_output_adapter@_W@__crt_stdio_output@@V?$format_validation_base@_WV?$string_output_adapter@_W@__crt_stdio_output@@@2@@__crt_stdio_output@@ABE_NI@Z 1005a290 f i libucrtd:output.obj
 0001:000592c0       ?has_flag@?$output_processor@_WV?$string_output_adapter@_W@__crt_stdio_output@@V?$positional_parameter_base@_WV?$string_output_adapter@_W@__crt_stdio_output@@@2@@__crt_stdio_output@@ABE_NI@Z 1005a2c0 f i libucrtd:output.obj
 0001:000592f0       ?has_flag@?$output_processor@_WV?$string_output_adapter@_W@__crt_stdio_output@@V?$standard_base@_WV?$string_output_adapter@_W@__crt_stdio_output@@@2@@__crt_stdio_output@@ABE_NI@Z 1005a2f0 f i libucrtd:output.obj
 0001:00059320       ?is_positional_parameter_reappearance_consistent@?$positional_parameter_base@DV?$stream_output_adapter@D@__crt_stdio_output@@@__crt_stdio_output@@AAE_NABUparameter_data@12@W4parameter_type@12@DW4length_modifier@2@@Z 1005a320 f i libucrtd:output.obj
 0001:00059550       ?is_positional_parameter_reappearance_consistent@?$positional_parameter_base@DV?$string_output_adapter@D@__crt_stdio_output@@@__crt_stdio_output@@AAE_NABUparameter_data@12@W4parameter_type@12@DW4length_modifier@2@@Z 1005a550 f i libucrtd:output.obj
 0001:00059780       ?is_positional_parameter_reappearance_consistent@?$positional_parameter_base@_WV?$stream_output_adapter@_W@__crt_stdio_output@@@__crt_stdio_output@@AAE_NABUparameter_data@12@W4parameter_type@12@_WW4length_modifier@2@@Z 1005a780 f i libucrtd:output.obj
 0001:000599b0       ?is_positional_parameter_reappearance_consistent@?$positional_parameter_base@_WV?$string_output_adapter@_W@__crt_stdio_output@@@__crt_stdio_output@@AAE_NABUparameter_data@12@W4parameter_type@12@_WW4length_modifier@2@@Z 1005a9b0 f i libucrtd:output.obj
 0001:00059be0       ?is_string_backed@__crt_stdio_stream@@QBE_NXZ 1005abe0 f i libucrtd:output.obj
 0001:00059c20       ?maximum_signed_value@__crt_strtox@@YAJK@Z 1005ac20 f i libucrtd:output.obj
 0001:00059c30       ?minimum_signed_value@__crt_strtox@@YAJK@Z 1005ac30 f i libucrtd:output.obj
 0001:00059c40       ?narrow_null_string@?$output_processor@DV?$stream_output_adapter@D@__crt_stdio_output@@V?$format_validation_base@DV?$stream_output_adapter@D@__crt_stdio_output@@@2@@__crt_stdio_output@@CAPADXZ 1005ac40 f i libucrtd:output.obj
 0001:00059c50       ?narrow_null_string@?$output_processor@DV?$stream_output_adapter@D@__crt_stdio_output@@V?$positional_parameter_base@DV?$stream_output_adapter@D@__crt_stdio_output@@@2@@__crt_stdio_output@@CAPADXZ 1005ac50 f i libucrtd:output.obj
 0001:00059c60       ?narrow_null_string@?$output_processor@DV?$stream_output_adapter@D@__crt_stdio_output@@V?$standard_base@DV?$stream_output_adapter@D@__crt_stdio_output@@@2@@__crt_stdio_output@@CAPADXZ 1005ac60 f i libucrtd:output.obj
 0001:00059c70       ?narrow_null_string@?$output_processor@DV?$string_output_adapter@D@__crt_stdio_output@@V?$format_validation_base@DV?$string_output_adapter@D@__crt_stdio_output@@@2@@__crt_stdio_output@@CAPADXZ 1005ac70 f i libucrtd:output.obj
 0001:00059c80       ?narrow_null_string@?$output_processor@DV?$string_output_adapter@D@__crt_stdio_output@@V?$positional_parameter_base@DV?$string_output_adapter@D@__crt_stdio_output@@@2@@__crt_stdio_output@@CAPADXZ 1005ac80 f i libucrtd:output.obj
 0001:00059c90       ?narrow_null_string@?$output_processor@DV?$string_output_adapter@D@__crt_stdio_output@@V?$standard_base@DV?$string_output_adapter@D@__crt_stdio_output@@@2@@__crt_stdio_output@@CAPADXZ 1005ac90 f i libucrtd:output.obj
 0001:00059ca0       ?narrow_null_string@?$output_processor@_WV?$stream_output_adapter@_W@__crt_stdio_output@@V?$format_validation_base@_WV?$stream_output_adapter@_W@__crt_stdio_output@@@2@@__crt_stdio_output@@CAPADXZ 1005aca0 f i libucrtd:output.obj
 0001:00059cb0       ?narrow_null_string@?$output_processor@_WV?$stream_output_adapter@_W@__crt_stdio_output@@V?$positional_parameter_base@_WV?$stream_output_adapter@_W@__crt_stdio_output@@@2@@__crt_stdio_output@@CAPADXZ 1005acb0 f i libucrtd:output.obj
 0001:00059cc0       ?narrow_null_string@?$output_processor@_WV?$stream_output_adapter@_W@__crt_stdio_output@@V?$standard_base@_WV?$stream_output_adapter@_W@__crt_stdio_output@@@2@@__crt_stdio_output@@CAPADXZ 1005acc0 f i libucrtd:output.obj
 0001:00059cd0       ?narrow_null_string@?$output_processor@_WV?$string_output_adapter@_W@__crt_stdio_output@@V?$format_validation_base@_WV?$string_output_adapter@_W@__crt_stdio_output@@@2@@__crt_stdio_output@@CAPADXZ 1005acd0 f i libucrtd:output.obj
 0001:00059ce0       ?narrow_null_string@?$output_processor@_WV?$string_output_adapter@_W@__crt_stdio_output@@V?$positional_parameter_base@_WV?$string_output_adapter@_W@__crt_stdio_output@@@2@@__crt_stdio_output@@CAPADXZ 1005ace0 f i libucrtd:output.obj
 0001:00059cf0       ?narrow_null_string@?$output_processor@_WV?$string_output_adapter@_W@__crt_stdio_output@@V?$standard_base@_WV?$string_output_adapter@_W@__crt_stdio_output@@@2@@__crt_stdio_output@@CAPADXZ 1005acf0 f i libucrtd:output.obj
 0001:00059d00       ?parse_digit@__crt_strtox@@YAID@Z 1005ad00 f i libucrtd:output.obj
 0001:00059d60       ?parse_digit@__crt_strtox@@YAI_W@Z 1005ad60 f i libucrtd:output.obj
 0001:00059db0       ?parse_int_from_format_string@?$output_processor@DV?$stream_output_adapter@D@__crt_stdio_output@@V?$format_validation_base@DV?$stream_output_adapter@D@__crt_stdio_output@@@2@@__crt_stdio_output@@AAE_NQAH@Z 1005adb0 f i libucrtd:output.obj
 0001:00059e70       ?parse_int_from_format_string@?$output_processor@DV?$stream_output_adapter@D@__crt_stdio_output@@V?$positional_parameter_base@DV?$stream_output_adapter@D@__crt_stdio_output@@@2@@__crt_stdio_output@@AAE_NQAH@Z 1005ae70 f i libucrtd:output.obj
 0001:00059f30       ?parse_int_from_format_string@?$output_processor@DV?$stream_output_adapter@D@__crt_stdio_output@@V?$standard_base@DV?$stream_output_adapter@D@__crt_stdio_output@@@2@@__crt_stdio_output@@AAE_NQAH@Z 1005af30 f i libucrtd:output.obj
 0001:00059ff0       ?parse_int_from_format_string@?$output_processor@DV?$string_output_adapter@D@__crt_stdio_output@@V?$format_validation_base@DV?$string_output_adapter@D@__crt_stdio_output@@@2@@__crt_stdio_output@@AAE_NQAH@Z 1005aff0 f i libucrtd:output.obj
 0001:0005a0b0       ?parse_int_from_format_string@?$output_processor@DV?$string_output_adapter@D@__crt_stdio_output@@V?$positional_parameter_base@DV?$string_output_adapter@D@__crt_stdio_output@@@2@@__crt_stdio_output@@AAE_NQAH@Z 1005b0b0 f i libucrtd:output.obj
 0001:0005a170       ?parse_int_from_format_string@?$output_processor@DV?$string_output_adapter@D@__crt_stdio_output@@V?$standard_base@DV?$string_output_adapter@D@__crt_stdio_output@@@2@@__crt_stdio_output@@AAE_NQAH@Z 1005b170 f i libucrtd:output.obj
 0001:0005a230       ?parse_int_from_format_string@?$output_processor@_WV?$stream_output_adapter@_W@__crt_stdio_output@@V?$format_validation_base@_WV?$stream_output_adapter@_W@__crt_stdio_output@@@2@@__crt_stdio_output@@AAE_NQAH@Z 1005b230 f i libucrtd:output.obj
 0001:0005a2f0       ?parse_int_from_format_string@?$output_processor@_WV?$stream_output_adapter@_W@__crt_stdio_output@@V?$positional_parameter_base@_WV?$stream_output_adapter@_W@__crt_stdio_output@@@2@@__crt_stdio_output@@AAE_NQAH@Z 1005b2f0 f i libucrtd:output.obj
 0001:0005a3b0       ?parse_int_from_format_string@?$output_processor@_WV?$stream_output_adapter@_W@__crt_stdio_output@@V?$standard_base@_WV?$stream_output_adapter@_W@__crt_stdio_output@@@2@@__crt_stdio_output@@AAE_NQAH@Z 1005b3b0 f i libucrtd:output.obj
 0001:0005a470       ?parse_int_from_format_string@?$output_processor@_WV?$string_output_adapter@_W@__crt_stdio_output@@V?$format_validation_base@_WV?$string_output_adapter@_W@__crt_stdio_output@@@2@@__crt_stdio_output@@AAE_NQAH@Z 1005b470 f i libucrtd:output.obj
 0001:0005a530       ?parse_int_from_format_string@?$output_processor@_WV?$string_output_adapter@_W@__crt_stdio_output@@V?$positional_parameter_base@_WV?$string_output_adapter@_W@__crt_stdio_output@@@2@@__crt_stdio_output@@AAE_NQAH@Z 1005b530 f i libucrtd:output.obj
 0001:0005a5f0       ?parse_int_from_format_string@?$output_processor@_WV?$string_output_adapter@_W@__crt_stdio_output@@V?$standard_base@_WV?$string_output_adapter@_W@__crt_stdio_output@@@2@@__crt_stdio_output@@AAE_NQAH@Z 1005b5f0 f i libucrtd:output.obj
 0001:0005a6b0       ?process@?$output_processor@DV?$stream_output_adapter@D@__crt_stdio_output@@V?$format_validation_base@DV?$stream_output_adapter@D@__crt_stdio_output@@@2@@__crt_stdio_output@@QAEHXZ 1005b6b0 f i libucrtd:output.obj
 0001:0005a990       ?process@?$output_processor@DV?$stream_output_adapter@D@__crt_stdio_output@@V?$positional_parameter_base@DV?$stream_output_adapter@D@__crt_stdio_output@@@2@@__crt_stdio_output@@QAEHXZ 1005b990 f i libucrtd:output.obj
 0001:0005ac70       ?process@?$output_processor@DV?$stream_output_adapter@D@__crt_stdio_output@@V?$standard_base@DV?$stream_output_adapter@D@__crt_stdio_output@@@2@@__crt_stdio_output@@QAEHXZ 1005bc70 f i libucrtd:output.obj
 0001:0005af50       ?process@?$output_processor@DV?$string_output_adapter@D@__crt_stdio_output@@V?$format_validation_base@DV?$string_output_adapter@D@__crt_stdio_output@@@2@@__crt_stdio_output@@QAEHXZ 1005bf50 f i libucrtd:output.obj
 0001:0005b230       ?process@?$output_processor@DV?$string_output_adapter@D@__crt_stdio_output@@V?$positional_parameter_base@DV?$string_output_adapter@D@__crt_stdio_output@@@2@@__crt_stdio_output@@QAEHXZ 1005c230 f i libucrtd:output.obj
 0001:0005b510       ?process@?$output_processor@DV?$string_output_adapter@D@__crt_stdio_output@@V?$standard_base@DV?$string_output_adapter@D@__crt_stdio_output@@@2@@__crt_stdio_output@@QAEHXZ 1005c510 f i libucrtd:output.obj
 0001:0005b7f0       ?process@?$output_processor@_WV?$stream_output_adapter@_W@__crt_stdio_output@@V?$format_validation_base@_WV?$stream_output_adapter@_W@__crt_stdio_output@@@2@@__crt_stdio_output@@QAEHXZ 1005c7f0 f i libucrtd:output.obj
 0001:0005bad0       ?process@?$output_processor@_WV?$stream_output_adapter@_W@__crt_stdio_output@@V?$positional_parameter_base@_WV?$stream_output_adapter@_W@__crt_stdio_output@@@2@@__crt_stdio_output@@QAEHXZ 1005cad0 f i libucrtd:output.obj
 0001:0005bdb0       ?process@?$output_processor@_WV?$stream_output_adapter@_W@__crt_stdio_output@@V?$standard_base@_WV?$stream_output_adapter@_W@__crt_stdio_output@@@2@@__crt_stdio_output@@QAEHXZ 1005cdb0 f i libucrtd:output.obj
 0001:0005c090       ?process@?$output_processor@_WV?$string_output_adapter@_W@__crt_stdio_output@@V?$format_validation_base@_WV?$string_output_adapter@_W@__crt_stdio_output@@@2@@__crt_stdio_output@@QAEHXZ 1005d090 f i libucrtd:output.obj
 0001:0005c370       ?process@?$output_processor@_WV?$string_output_adapter@_W@__crt_stdio_output@@V?$positional_parameter_base@_WV?$string_output_adapter@_W@__crt_stdio_output@@@2@@__crt_stdio_output@@QAEHXZ 1005d370 f i libucrtd:output.obj
 0001:0005c650       ?process@?$output_processor@_WV?$string_output_adapter@_W@__crt_stdio_output@@V?$standard_base@_WV?$string_output_adapter@_W@__crt_stdio_output@@@2@@__crt_stdio_output@@QAEHXZ 1005d650 f i libucrtd:output.obj
 0001:0005c930       ?public_stream@__crt_stdio_stream@@QBEPAU_iobuf@@XZ 1005d930 f i libucrtd:output.obj
 0001:0005c950       ?restore_state@?$c_string_character_source@D@__crt_strtox@@QAE_NQBD@Z 1005d950 f i libucrtd:output.obj
 0001:0005c970       ?restore_state@?$c_string_character_source@_W@__crt_strtox@@QAE_NQB_W@Z 1005d970 f i libucrtd:output.obj
 0001:0005c990       ?save_state@?$c_string_character_source@D@__crt_strtox@@QBEPBDXZ 1005d990 f i libucrtd:output.obj
 0001:0005c9b0       ?save_state@?$c_string_character_source@_W@__crt_strtox@@QBEPB_WXZ 1005d9b0 f i libucrtd:output.obj
 0001:0005c9d0       ?set@?$cached@H@__crt_cached_ptd_host@@QAEHH@Z 1005d9d0 f i libucrtd:output.obj
 0001:0005ca00       ?set_flag@?$output_processor@DV?$stream_output_adapter@D@__crt_stdio_output@@V?$format_validation_base@DV?$stream_output_adapter@D@__crt_stdio_output@@@2@@__crt_stdio_output@@AAEXI@Z 1005da00 f i libucrtd:output.obj
 0001:0005ca20       ?set_flag@?$output_processor@DV?$stream_output_adapter@D@__crt_stdio_output@@V?$positional_parameter_base@DV?$stream_output_adapter@D@__crt_stdio_output@@@2@@__crt_stdio_output@@AAEXI@Z 1005da20 f i libucrtd:output.obj
 0001:0005ca40       ?set_flag@?$output_processor@DV?$stream_output_adapter@D@__crt_stdio_output@@V?$standard_base@DV?$stream_output_adapter@D@__crt_stdio_output@@@2@@__crt_stdio_output@@AAEXI@Z 1005da40 f i libucrtd:output.obj
 0001:0005ca60       ?set_flag@?$output_processor@DV?$string_output_adapter@D@__crt_stdio_output@@V?$format_validation_base@DV?$string_output_adapter@D@__crt_stdio_output@@@2@@__crt_stdio_output@@AAEXI@Z 1005da60 f i libucrtd:output.obj
 0001:0005ca80       ?set_flag@?$output_processor@DV?$string_output_adapter@D@__crt_stdio_output@@V?$positional_parameter_base@DV?$string_output_adapter@D@__crt_stdio_output@@@2@@__crt_stdio_output@@AAEXI@Z 1005da80 f i libucrtd:output.obj
 0001:0005caa0       ?set_flag@?$output_processor@DV?$string_output_adapter@D@__crt_stdio_output@@V?$standard_base@DV?$string_output_adapter@D@__crt_stdio_output@@@2@@__crt_stdio_output@@AAEXI@Z 1005daa0 f i libucrtd:output.obj
 0001:0005cac0       ?set_flag@?$output_processor@_WV?$stream_output_adapter@_W@__crt_stdio_output@@V?$format_validation_base@_WV?$stream_output_adapter@_W@__crt_stdio_output@@@2@@__crt_stdio_output@@AAEXI@Z 1005dac0 f i libucrtd:output.obj
 0001:0005cae0       ?set_flag@?$output_processor@_WV?$stream_output_adapter@_W@__crt_stdio_output@@V?$positional_parameter_base@_WV?$stream_output_adapter@_W@__crt_stdio_output@@@2@@__crt_stdio_output@@AAEXI@Z 1005dae0 f i libucrtd:output.obj
 0001:0005cb00       ?set_flag@?$output_processor@_WV?$stream_output_adapter@_W@__crt_stdio_output@@V?$standard_base@_WV?$stream_output_adapter@_W@__crt_stdio_output@@@2@@__crt_stdio_output@@AAEXI@Z 1005db00 f i libucrtd:output.obj
 0001:0005cb20       ?set_flag@?$output_processor@_WV?$string_output_adapter@_W@__crt_stdio_output@@V?$format_validation_base@_WV?$string_output_adapter@_W@__crt_stdio_output@@@2@@__crt_stdio_output@@AAEXI@Z 1005db20 f i libucrtd:output.obj
 0001:0005cb40       ?set_flag@?$output_processor@_WV?$string_output_adapter@_W@__crt_stdio_output@@V?$positional_parameter_base@_WV?$string_output_adapter@_W@__crt_stdio_output@@@2@@__crt_stdio_output@@AAEXI@Z 1005db40 f i libucrtd:output.obj
 0001:0005cb60       ?set_flag@?$output_processor@_WV?$string_output_adapter@_W@__crt_stdio_output@@V?$standard_base@_WV?$string_output_adapter@_W@__crt_stdio_output@@@2@@__crt_stdio_output@@AAEXI@Z 1005db60 f i libucrtd:output.obj
 0001:0005cb80       ?should_format@?$positional_parameter_base@DV?$stream_output_adapter@D@__crt_stdio_output@@@__crt_stdio_output@@IAE_NXZ 1005db80 f i libucrtd:output.obj
 0001:0005cbc0       ?should_format@?$positional_parameter_base@DV?$string_output_adapter@D@__crt_stdio_output@@@__crt_stdio_output@@IAE_NXZ 1005dbc0 f i libucrtd:output.obj
 0001:0005cc00       ?should_format@?$positional_parameter_base@_WV?$stream_output_adapter@_W@__crt_stdio_output@@@__crt_stdio_output@@IAE_NXZ 1005dc00 f i libucrtd:output.obj
 0001:0005cc40       ?should_format@?$positional_parameter_base@_WV?$string_output_adapter@_W@__crt_stdio_output@@@__crt_stdio_output@@IAE_NXZ 1005dc40 f i libucrtd:output.obj
 0001:0005cc80       ?should_format@?$standard_base@DV?$stream_output_adapter@D@__crt_stdio_output@@@__crt_stdio_output@@IAE_NXZ 1005dc80 f i libucrtd:output.obj
 0001:0005cc90       ?should_format@?$standard_base@DV?$string_output_adapter@D@__crt_stdio_output@@@__crt_stdio_output@@IAE_NXZ 1005dc90 f i libucrtd:output.obj
 0001:0005cca0       ?should_format@?$standard_base@_WV?$stream_output_adapter@_W@__crt_stdio_output@@@__crt_stdio_output@@IAE_NXZ 1005dca0 f i libucrtd:output.obj
 0001:0005ccb0       ?should_format@?$standard_base@_WV?$string_output_adapter@_W@__crt_stdio_output@@@__crt_stdio_output@@IAE_NXZ 1005dcb0 f i libucrtd:output.obj
 0001:0005ccc0       ?should_skip_normal_state_processing@?$positional_parameter_base@DV?$stream_output_adapter@D@__crt_stdio_output@@@__crt_stdio_output@@IAE_NXZ 1005dcc0 f i libucrtd:output.obj
 0001:0005cd10       ?should_skip_normal_state_processing@?$positional_parameter_base@DV?$string_output_adapter@D@__crt_stdio_output@@@__crt_stdio_output@@IAE_NXZ 1005dd10 f i libucrtd:output.obj
 0001:0005cd60       ?should_skip_normal_state_processing@?$positional_parameter_base@_WV?$stream_output_adapter@_W@__crt_stdio_output@@@__crt_stdio_output@@IAE_NXZ 1005dd60 f i libucrtd:output.obj
 0001:0005cdb0       ?should_skip_normal_state_processing@?$positional_parameter_base@_WV?$string_output_adapter@_W@__crt_stdio_output@@@__crt_stdio_output@@IAE_NXZ 1005ddb0 f i libucrtd:output.obj
 0001:0005ce00       ?should_skip_normal_state_processing@?$standard_base@DV?$stream_output_adapter@D@__crt_stdio_output@@@__crt_stdio_output@@IAE_NXZ 1005de00 f i libucrtd:output.obj
 0001:0005ce10       ?should_skip_normal_state_processing@?$standard_base@DV?$string_output_adapter@D@__crt_stdio_output@@@__crt_stdio_output@@IAE_NXZ 1005de10 f i libucrtd:output.obj
 0001:0005ce20       ?should_skip_normal_state_processing@?$standard_base@_WV?$stream_output_adapter@_W@__crt_stdio_output@@@__crt_stdio_output@@IAE_NXZ 1005de20 f i libucrtd:output.obj
 0001:0005ce30       ?should_skip_normal_state_processing@?$standard_base@_WV?$string_output_adapter@_W@__crt_stdio_output@@@__crt_stdio_output@@IAE_NXZ 1005de30 f i libucrtd:output.obj
 0001:0005ce40       ?should_skip_type_state_output@?$positional_parameter_base@DV?$stream_output_adapter@D@__crt_stdio_output@@@__crt_stdio_output@@IBE_NXZ 1005de40 f i libucrtd:output.obj
 0001:0005ce80       ?should_skip_type_state_output@?$positional_parameter_base@DV?$string_output_adapter@D@__crt_stdio_output@@@__crt_stdio_output@@IBE_NXZ 1005de80 f i libucrtd:output.obj
 0001:0005cec0       ?should_skip_type_state_output@?$positional_parameter_base@_WV?$stream_output_adapter@_W@__crt_stdio_output@@@__crt_stdio_output@@IBE_NXZ 1005dec0 f i libucrtd:output.obj
 0001:0005cf00       ?should_skip_type_state_output@?$positional_parameter_base@_WV?$string_output_adapter@_W@__crt_stdio_output@@@__crt_stdio_output@@IBE_NXZ 1005df00 f i libucrtd:output.obj
 0001:0005cf40       ?should_skip_type_state_output@?$standard_base@DV?$stream_output_adapter@D@__crt_stdio_output@@@__crt_stdio_output@@IBE_NXZ 1005df40 f i libucrtd:output.obj
 0001:0005cf50       ?should_skip_type_state_output@?$standard_base@DV?$string_output_adapter@D@__crt_stdio_output@@@__crt_stdio_output@@IBE_NXZ 1005df50 f i libucrtd:output.obj
 0001:0005cf60       ?should_skip_type_state_output@?$standard_base@_WV?$stream_output_adapter@_W@__crt_stdio_output@@@__crt_stdio_output@@IBE_NXZ 1005df60 f i libucrtd:output.obj
 0001:0005cf70       ?should_skip_type_state_output@?$standard_base@_WV?$string_output_adapter@_W@__crt_stdio_output@@@__crt_stdio_output@@IBE_NXZ 1005df70 f i libucrtd:output.obj
 0001:0005cf80       ?state_case_dot@?$output_processor@DV?$stream_output_adapter@D@__crt_stdio_output@@V?$format_validation_base@DV?$stream_output_adapter@D@__crt_stdio_output@@@2@@__crt_stdio_output@@AAE_NXZ 1005df80 f i libucrtd:output.obj
 0001:0005cfa0       ?state_case_dot@?$output_processor@DV?$stream_output_adapter@D@__crt_stdio_output@@V?$positional_parameter_base@DV?$stream_output_adapter@D@__crt_stdio_output@@@2@@__crt_stdio_output@@AAE_NXZ 1005dfa0 f i libucrtd:output.obj
 0001:0005cfc0       ?state_case_dot@?$output_processor@DV?$stream_output_adapter@D@__crt_stdio_output@@V?$standard_base@DV?$stream_output_adapter@D@__crt_stdio_output@@@2@@__crt_stdio_output@@AAE_NXZ 1005dfc0 f i libucrtd:output.obj
 0001:0005cfe0       ?state_case_dot@?$output_processor@DV?$string_output_adapter@D@__crt_stdio_output@@V?$format_validation_base@DV?$string_output_adapter@D@__crt_stdio_output@@@2@@__crt_stdio_output@@AAE_NXZ 1005dfe0 f i libucrtd:output.obj
 0001:0005d000       ?state_case_dot@?$output_processor@DV?$string_output_adapter@D@__crt_stdio_output@@V?$positional_parameter_base@DV?$string_output_adapter@D@__crt_stdio_output@@@2@@__crt_stdio_output@@AAE_NXZ 1005e000 f i libucrtd:output.obj
 0001:0005d020       ?state_case_dot@?$output_processor@DV?$string_output_adapter@D@__crt_stdio_output@@V?$standard_base@DV?$string_output_adapter@D@__crt_stdio_output@@@2@@__crt_stdio_output@@AAE_NXZ 1005e020 f i libucrtd:output.obj
 0001:0005d040       ?state_case_dot@?$output_processor@_WV?$stream_output_adapter@_W@__crt_stdio_output@@V?$format_validation_base@_WV?$stream_output_adapter@_W@__crt_stdio_output@@@2@@__crt_stdio_output@@AAE_NXZ 1005e040 f i libucrtd:output.obj
 0001:0005d060       ?state_case_dot@?$output_processor@_WV?$stream_output_adapter@_W@__crt_stdio_output@@V?$positional_parameter_base@_WV?$stream_output_adapter@_W@__crt_stdio_output@@@2@@__crt_stdio_output@@AAE_NXZ 1005e060 f i libucrtd:output.obj
 0001:0005d080       ?state_case_dot@?$output_processor@_WV?$stream_output_adapter@_W@__crt_stdio_output@@V?$standard_base@_WV?$stream_output_adapter@_W@__crt_stdio_output@@@2@@__crt_stdio_output@@AAE_NXZ 1005e080 f i libucrtd:output.obj
 0001:0005d0a0       ?state_case_dot@?$output_processor@_WV?$string_output_adapter@_W@__crt_stdio_output@@V?$format_validation_base@_WV?$string_output_adapter@_W@__crt_stdio_output@@@2@@__crt_stdio_output@@AAE_NXZ 1005e0a0 f i libucrtd:output.obj
 0001:0005d0c0       ?state_case_dot@?$output_processor@_WV?$string_output_adapter@_W@__crt_stdio_output@@V?$positional_parameter_base@_WV?$string_output_adapter@_W@__crt_stdio_output@@@2@@__crt_stdio_output@@AAE_NXZ 1005e0c0 f i libucrtd:output.obj
 0001:0005d0e0       ?state_case_dot@?$output_processor@_WV?$string_output_adapter@_W@__crt_stdio_output@@V?$standard_base@_WV?$string_output_adapter@_W@__crt_stdio_output@@@2@@__crt_stdio_output@@AAE_NXZ 1005e0e0 f i libucrtd:output.obj
 0001:0005d100       ?state_case_flag@?$output_processor@DV?$stream_output_adapter@D@__crt_stdio_output@@V?$format_validation_base@DV?$stream_output_adapter@D@__crt_stdio_output@@@2@@__crt_stdio_output@@AAE_NXZ 1005e100 f i libucrtd:output.obj
 0001:0005d1b0       ?state_case_flag@?$output_processor@DV?$stream_output_adapter@D@__crt_stdio_output@@V?$positional_parameter_base@DV?$stream_output_adapter@D@__crt_stdio_output@@@2@@__crt_stdio_output@@AAE_NXZ 1005e1b0 f i libucrtd:output.obj
 0001:0005d260       ?state_case_flag@?$output_processor@DV?$stream_output_adapter@D@__crt_stdio_output@@V?$standard_base@DV?$stream_output_adapter@D@__crt_stdio_output@@@2@@__crt_stdio_output@@AAE_NXZ 1005e260 f i libucrtd:output.obj
 0001:0005d310       ?state_case_flag@?$output_processor@DV?$string_output_adapter@D@__crt_stdio_output@@V?$format_validation_base@DV?$string_output_adapter@D@__crt_stdio_output@@@2@@__crt_stdio_output@@AAE_NXZ 1005e310 f i libucrtd:output.obj
 0001:0005d3c0       ?state_case_flag@?$output_processor@DV?$string_output_adapter@D@__crt_stdio_output@@V?$positional_parameter_base@DV?$string_output_adapter@D@__crt_stdio_output@@@2@@__crt_stdio_output@@AAE_NXZ 1005e3c0 f i libucrtd:output.obj
 0001:0005d470       ?state_case_flag@?$output_processor@DV?$string_output_adapter@D@__crt_stdio_output@@V?$standard_base@DV?$string_output_adapter@D@__crt_stdio_output@@@2@@__crt_stdio_output@@AAE_NXZ 1005e470 f i libucrtd:output.obj
 0001:0005d520       ?state_case_flag@?$output_processor@_WV?$stream_output_adapter@_W@__crt_stdio_output@@V?$format_validation_base@_WV?$stream_output_adapter@_W@__crt_stdio_output@@@2@@__crt_stdio_output@@AAE_NXZ 1005e520 f i libucrtd:output.obj
 0001:0005d5d0       ?state_case_flag@?$output_processor@_WV?$stream_output_adapter@_W@__crt_stdio_output@@V?$positional_parameter_base@_WV?$stream_output_adapter@_W@__crt_stdio_output@@@2@@__crt_stdio_output@@AAE_NXZ 1005e5d0 f i libucrtd:output.obj
 0001:0005d680       ?state_case_flag@?$output_processor@_WV?$stream_output_adapter@_W@__crt_stdio_output@@V?$standard_base@_WV?$stream_output_adapter@_W@__crt_stdio_output@@@2@@__crt_stdio_output@@AAE_NXZ 1005e680 f i libucrtd:output.obj
 0001:0005d730       ?state_case_flag@?$output_processor@_WV?$string_output_adapter@_W@__crt_stdio_output@@V?$format_validation_base@_WV?$string_output_adapter@_W@__crt_stdio_output@@@2@@__crt_stdio_output@@AAE_NXZ 1005e730 f i libucrtd:output.obj
 0001:0005d7e0       ?state_case_flag@?$output_processor@_WV?$string_output_adapter@_W@__crt_stdio_output@@V?$positional_parameter_base@_WV?$string_output_adapter@_W@__crt_stdio_output@@@2@@__crt_stdio_output@@AAE_NXZ 1005e7e0 f i libucrtd:output.obj
 0001:0005d890       ?state_case_flag@?$output_processor@_WV?$string_output_adapter@_W@__crt_stdio_output@@V?$standard_base@_WV?$string_output_adapter@_W@__crt_stdio_output@@@2@@__crt_stdio_output@@AAE_NXZ 1005e890 f i libucrtd:output.obj
 0001:0005d940       ?state_case_normal@?$output_processor@DV?$stream_output_adapter@D@__crt_stdio_output@@V?$format_validation_base@DV?$stream_output_adapter@D@__crt_stdio_output@@@2@@__crt_stdio_output@@AAE_NXZ 1005e940 f i libucrtd:output.obj
 0001:0005da00       ?state_case_normal@?$output_processor@DV?$stream_output_adapter@D@__crt_stdio_output@@V?$positional_parameter_base@DV?$stream_output_adapter@D@__crt_stdio_output@@@2@@__crt_stdio_output@@AAE_NXZ 1005ea00 f i libucrtd:output.obj
 0001:0005dac0       ?state_case_normal@?$output_processor@DV?$stream_output_adapter@D@__crt_stdio_output@@V?$standard_base@DV?$stream_output_adapter@D@__crt_stdio_output@@@2@@__crt_stdio_output@@AAE_NXZ 1005eac0 f i libucrtd:output.obj
 0001:0005db80       ?state_case_normal@?$output_processor@DV?$string_output_adapter@D@__crt_stdio_output@@V?$format_validation_base@DV?$string_output_adapter@D@__crt_stdio_output@@@2@@__crt_stdio_output@@AAE_NXZ 1005eb80 f i libucrtd:output.obj
 0001:0005dc40       ?state_case_normal@?$output_processor@DV?$string_output_adapter@D@__crt_stdio_output@@V?$positional_parameter_base@DV?$string_output_adapter@D@__crt_stdio_output@@@2@@__crt_stdio_output@@AAE_NXZ 1005ec40 f i libucrtd:output.obj
 0001:0005dd00       ?state_case_normal@?$output_processor@DV?$string_output_adapter@D@__crt_stdio_output@@V?$standard_base@DV?$string_output_adapter@D@__crt_stdio_output@@@2@@__crt_stdio_output@@AAE_NXZ 1005ed00 f i libucrtd:output.obj
 0001:0005ddc0       ?state_case_normal@?$output_processor@_WV?$stream_output_adapter@_W@__crt_stdio_output@@V?$format_validation_base@_WV?$stream_output_adapter@_W@__crt_stdio_output@@@2@@__crt_stdio_output@@AAE_NXZ 1005edc0 f i libucrtd:output.obj
 0001:0005de80       ?state_case_normal@?$output_processor@_WV?$stream_output_adapter@_W@__crt_stdio_output@@V?$positional_parameter_base@_WV?$stream_output_adapter@_W@__crt_stdio_output@@@2@@__crt_stdio_output@@AAE_NXZ 1005ee80 f i libucrtd:output.obj
 0001:0005df40       ?state_case_normal@?$output_processor@_WV?$stream_output_adapter@_W@__crt_stdio_output@@V?$standard_base@_WV?$stream_output_adapter@_W@__crt_stdio_output@@@2@@__crt_stdio_output@@AAE_NXZ 1005ef40 f i libucrtd:output.obj
 0001:0005e000       ?state_case_normal@?$output_processor@_WV?$string_output_adapter@_W@__crt_stdio_output@@V?$format_validation_base@_WV?$string_output_adapter@_W@__crt_stdio_output@@@2@@__crt_stdio_output@@AAE_NXZ 1005f000 f i libucrtd:output.obj
 0001:0005e0c0       ?state_case_normal@?$output_processor@_WV?$string_output_adapter@_W@__crt_stdio_output@@V?$positional_parameter_base@_WV?$string_output_adapter@_W@__crt_stdio_output@@@2@@__crt_stdio_output@@AAE_NXZ 1005f0c0 f i libucrtd:output.obj
 0001:0005e180       ?state_case_normal@?$output_processor@_WV?$string_output_adapter@_W@__crt_stdio_output@@V?$standard_base@_WV?$string_output_adapter@_W@__crt_stdio_output@@@2@@__crt_stdio_output@@AAE_NXZ 1005f180 f i libucrtd:output.obj
 0001:0005e240       ?state_case_normal_common@?$output_processor@DV?$stream_output_adapter@D@__crt_stdio_output@@V?$format_validation_base@DV?$stream_output_adapter@D@__crt_stdio_output@@@2@@__crt_stdio_output@@AAE_NXZ 1005f240 f i libucrtd:output.obj
 0001:0005e290       ?state_case_normal_common@?$output_processor@DV?$stream_output_adapter@D@__crt_stdio_output@@V?$positional_parameter_base@DV?$stream_output_adapter@D@__crt_stdio_output@@@2@@__crt_stdio_output@@AAE_NXZ 1005f290 f i libucrtd:output.obj
 0001:0005e2e0       ?state_case_normal_common@?$output_processor@DV?$stream_output_adapter@D@__crt_stdio_output@@V?$standard_base@DV?$stream_output_adapter@D@__crt_stdio_output@@@2@@__crt_stdio_output@@AAE_NXZ 1005f2e0 f i libucrtd:output.obj
 0001:0005e330       ?state_case_normal_common@?$output_processor@DV?$string_output_adapter@D@__crt_stdio_output@@V?$format_validation_base@DV?$string_output_adapter@D@__crt_stdio_output@@@2@@__crt_stdio_output@@AAE_NXZ 1005f330 f i libucrtd:output.obj
 0001:0005e380       ?state_case_normal_common@?$output_processor@DV?$string_output_adapter@D@__crt_stdio_output@@V?$positional_parameter_base@DV?$string_output_adapter@D@__crt_stdio_output@@@2@@__crt_stdio_output@@AAE_NXZ 1005f380 f i libucrtd:output.obj
 0001:0005e3d0       ?state_case_normal_common@?$output_processor@DV?$string_output_adapter@D@__crt_stdio_output@@V?$standard_base@DV?$string_output_adapter@D@__crt_stdio_output@@@2@@__crt_stdio_output@@AAE_NXZ 1005f3d0 f i libucrtd:output.obj
 0001:0005e420       ?state_case_normal_common@?$output_processor@_WV?$stream_output_adapter@_W@__crt_stdio_output@@V?$format_validation_base@_WV?$stream_output_adapter@_W@__crt_stdio_output@@@2@@__crt_stdio_output@@AAE_NXZ 1005f420 f i libucrtd:output.obj
 0001:0005e470       ?state_case_normal_common@?$output_processor@_WV?$stream_output_adapter@_W@__crt_stdio_output@@V?$positional_parameter_base@_WV?$stream_output_adapter@_W@__crt_stdio_output@@@2@@__crt_stdio_output@@AAE_NXZ 1005f470 f i libucrtd:output.obj
 0001:0005e4c0       ?state_case_normal_common@?$output_processor@_WV?$stream_output_adapter@_W@__crt_stdio_output@@V?$standard_base@_WV?$stream_output_adapter@_W@__crt_stdio_output@@@2@@__crt_stdio_output@@AAE_NXZ 1005f4c0 f i libucrtd:output.obj
 0001:0005e510       ?state_case_normal_common@?$output_processor@_WV?$string_output_adapter@_W@__crt_stdio_output@@V?$format_validation_base@_WV?$string_output_adapter@_W@__crt_stdio_output@@@2@@__crt_stdio_output@@AAE_NXZ 1005f510 f i libucrtd:output.obj
 0001:0005e560       ?state_case_normal_common@?$output_processor@_WV?$string_output_adapter@_W@__crt_stdio_output@@V?$positional_parameter_base@_WV?$string_output_adapter@_W@__crt_stdio_output@@@2@@__crt_stdio_output@@AAE_NXZ 1005f560 f i libucrtd:output.obj
 0001:0005e5b0       ?state_case_normal_common@?$output_processor@_WV?$string_output_adapter@_W@__crt_stdio_output@@V?$standard_base@_WV?$string_output_adapter@_W@__crt_stdio_output@@@2@@__crt_stdio_output@@AAE_NXZ 1005f5b0 f i libucrtd:output.obj
 0001:0005e600       ?state_case_normal_tchar@?$output_processor@DV?$stream_output_adapter@D@__crt_stdio_output@@V?$format_validation_base@DV?$stream_output_adapter@D@__crt_stdio_output@@@2@@__crt_stdio_output@@AAE_ND@Z 1005f600 f i libucrtd:output.obj
 0001:0005e730       ?state_case_normal_tchar@?$output_processor@DV?$stream_output_adapter@D@__crt_stdio_output@@V?$positional_parameter_base@DV?$stream_output_adapter@D@__crt_stdio_output@@@2@@__crt_stdio_output@@AAE_ND@Z 1005f730 f i libucrtd:output.obj
 0001:0005e860       ?state_case_normal_tchar@?$output_processor@DV?$stream_output_adapter@D@__crt_stdio_output@@V?$standard_base@DV?$stream_output_adapter@D@__crt_stdio_output@@@2@@__crt_stdio_output@@AAE_ND@Z 1005f860 f i libucrtd:output.obj
 0001:0005e990       ?state_case_normal_tchar@?$output_processor@DV?$string_output_adapter@D@__crt_stdio_output@@V?$format_validation_base@DV?$string_output_adapter@D@__crt_stdio_output@@@2@@__crt_stdio_output@@AAE_ND@Z 1005f990 f i libucrtd:output.obj
 0001:0005eac0       ?state_case_normal_tchar@?$output_processor@DV?$string_output_adapter@D@__crt_stdio_output@@V?$positional_parameter_base@DV?$string_output_adapter@D@__crt_stdio_output@@@2@@__crt_stdio_output@@AAE_ND@Z 1005fac0 f i libucrtd:output.obj
 0001:0005ebf0       ?state_case_normal_tchar@?$output_processor@DV?$string_output_adapter@D@__crt_stdio_output@@V?$standard_base@DV?$string_output_adapter@D@__crt_stdio_output@@@2@@__crt_stdio_output@@AAE_ND@Z 1005fbf0 f i libucrtd:output.obj
 0001:0005ed20       ?state_case_normal_tchar@?$output_processor@_WV?$stream_output_adapter@_W@__crt_stdio_output@@V?$format_validation_base@_WV?$stream_output_adapter@_W@__crt_stdio_output@@@2@@__crt_stdio_output@@AAE_N_W@Z 1005fd20 f i libucrtd:output.obj
 0001:0005ed40       ?state_case_normal_tchar@?$output_processor@_WV?$stream_output_adapter@_W@__crt_stdio_output@@V?$positional_parameter_base@_WV?$stream_output_adapter@_W@__crt_stdio_output@@@2@@__crt_stdio_output@@AAE_N_W@Z 1005fd40 f i libucrtd:output.obj
 0001:0005ed60       ?state_case_normal_tchar@?$output_processor@_WV?$stream_output_adapter@_W@__crt_stdio_output@@V?$standard_base@_WV?$stream_output_adapter@_W@__crt_stdio_output@@@2@@__crt_stdio_output@@AAE_N_W@Z 1005fd60 f i libucrtd:output.obj
 0001:0005ed80       ?state_case_normal_tchar@?$output_processor@_WV?$string_output_adapter@_W@__crt_stdio_output@@V?$format_validation_base@_WV?$string_output_adapter@_W@__crt_stdio_output@@@2@@__crt_stdio_output@@AAE_N_W@Z 1005fd80 f i libucrtd:output.obj
 0001:0005eda0       ?state_case_normal_tchar@?$output_processor@_WV?$string_output_adapter@_W@__crt_stdio_output@@V?$positional_parameter_base@_WV?$string_output_adapter@_W@__crt_stdio_output@@@2@@__crt_stdio_output@@AAE_N_W@Z 1005fda0 f i libucrtd:output.obj
 0001:0005edc0       ?state_case_normal_tchar@?$output_processor@_WV?$string_output_adapter@_W@__crt_stdio_output@@V?$standard_base@_WV?$string_output_adapter@_W@__crt_stdio_output@@@2@@__crt_stdio_output@@AAE_N_W@Z 1005fdc0 f i libucrtd:output.obj
 0001:0005ede0       ?state_case_percent@?$output_processor@DV?$stream_output_adapter@D@__crt_stdio_output@@V?$format_validation_base@DV?$stream_output_adapter@D@__crt_stdio_output@@@2@@__crt_stdio_output@@AAE_NXZ 1005fde0 f i libucrtd:output.obj
 0001:0005ee30       ?state_case_percent@?$output_processor@DV?$stream_output_adapter@D@__crt_stdio_output@@V?$positional_parameter_base@DV?$stream_output_adapter@D@__crt_stdio_output@@@2@@__crt_stdio_output@@AAE_NXZ 1005fe30 f i libucrtd:output.obj
 0001:0005ee80       ?state_case_percent@?$output_processor@DV?$stream_output_adapter@D@__crt_stdio_output@@V?$standard_base@DV?$stream_output_adapter@D@__crt_stdio_output@@@2@@__crt_stdio_output@@AAE_NXZ 1005fe80 f i libucrtd:output.obj
 0001:0005eed0       ?state_case_percent@?$output_processor@DV?$string_output_adapter@D@__crt_stdio_output@@V?$format_validation_base@DV?$string_output_adapter@D@__crt_stdio_output@@@2@@__crt_stdio_output@@AAE_NXZ 1005fed0 f i libucrtd:output.obj
 0001:0005ef20       ?state_case_percent@?$output_processor@DV?$string_output_adapter@D@__crt_stdio_output@@V?$positional_parameter_base@DV?$string_output_adapter@D@__crt_stdio_output@@@2@@__crt_stdio_output@@AAE_NXZ 1005ff20 f i libucrtd:output.obj
 0001:0005ef70       ?state_case_percent@?$output_processor@DV?$string_output_adapter@D@__crt_stdio_output@@V?$standard_base@DV?$string_output_adapter@D@__crt_stdio_output@@@2@@__crt_stdio_output@@AAE_NXZ 1005ff70 f i libucrtd:output.obj
 0001:0005efc0       ?state_case_percent@?$output_processor@_WV?$stream_output_adapter@_W@__crt_stdio_output@@V?$format_validation_base@_WV?$stream_output_adapter@_W@__crt_stdio_output@@@2@@__crt_stdio_output@@AAE_NXZ 1005ffc0 f i libucrtd:output.obj
 0001:0005f010       ?state_case_percent@?$output_processor@_WV?$stream_output_adapter@_W@__crt_stdio_output@@V?$positional_parameter_base@_WV?$stream_output_adapter@_W@__crt_stdio_output@@@2@@__crt_stdio_output@@AAE_NXZ 10060010 f i libucrtd:output.obj
 0001:0005f060       ?state_case_percent@?$output_processor@_WV?$stream_output_adapter@_W@__crt_stdio_output@@V?$standard_base@_WV?$stream_output_adapter@_W@__crt_stdio_output@@@2@@__crt_stdio_output@@AAE_NXZ 10060060 f i libucrtd:output.obj
 0001:0005f0b0       ?state_case_percent@?$output_processor@_WV?$string_output_adapter@_W@__crt_stdio_output@@V?$format_validation_base@_WV?$string_output_adapter@_W@__crt_stdio_output@@@2@@__crt_stdio_output@@AAE_NXZ 100600b0 f i libucrtd:output.obj
 0001:0005f100       ?state_case_percent@?$output_processor@_WV?$string_output_adapter@_W@__crt_stdio_output@@V?$positional_parameter_base@_WV?$string_output_adapter@_W@__crt_stdio_output@@@2@@__crt_stdio_output@@AAE_NXZ 10060100 f i libucrtd:output.obj
 0001:0005f150       ?state_case_percent@?$output_processor@_WV?$string_output_adapter@_W@__crt_stdio_output@@V?$standard_base@_WV?$string_output_adapter@_W@__crt_stdio_output@@@2@@__crt_stdio_output@@AAE_NXZ 10060150 f i libucrtd:output.obj
 0001:0005f1a0       ?state_case_precision@?$output_processor@DV?$stream_output_adapter@D@__crt_stdio_output@@V?$format_validation_base@DV?$stream_output_adapter@D@__crt_stdio_output@@@2@@__crt_stdio_output@@AAE_NXZ 100601a0 f i libucrtd:output.obj
 0001:0005f210       ?state_case_precision@?$output_processor@DV?$stream_output_adapter@D@__crt_stdio_output@@V?$positional_parameter_base@DV?$stream_output_adapter@D@__crt_stdio_output@@@2@@__crt_stdio_output@@AAE_NXZ 10060210 f i libucrtd:output.obj
 0001:0005f280       ?state_case_precision@?$output_processor@DV?$stream_output_adapter@D@__crt_stdio_output@@V?$standard_base@DV?$stream_output_adapter@D@__crt_stdio_output@@@2@@__crt_stdio_output@@AAE_NXZ 10060280 f i libucrtd:output.obj
 0001:0005f2f0       ?state_case_precision@?$output_processor@DV?$string_output_adapter@D@__crt_stdio_output@@V?$format_validation_base@DV?$string_output_adapter@D@__crt_stdio_output@@@2@@__crt_stdio_output@@AAE_NXZ 100602f0 f i libucrtd:output.obj
 0001:0005f360       ?state_case_precision@?$output_processor@DV?$string_output_adapter@D@__crt_stdio_output@@V?$positional_parameter_base@DV?$string_output_adapter@D@__crt_stdio_output@@@2@@__crt_stdio_output@@AAE_NXZ 10060360 f i libucrtd:output.obj
 0001:0005f3d0       ?state_case_precision@?$output_processor@DV?$string_output_adapter@D@__crt_stdio_output@@V?$standard_base@DV?$string_output_adapter@D@__crt_stdio_output@@@2@@__crt_stdio_output@@AAE_NXZ 100603d0 f i libucrtd:output.obj
 0001:0005f440       ?state_case_precision@?$output_processor@_WV?$stream_output_adapter@_W@__crt_stdio_output@@V?$format_validation_base@_WV?$stream_output_adapter@_W@__crt_stdio_output@@@2@@__crt_stdio_output@@AAE_NXZ 10060440 f i libucrtd:output.obj
 0001:0005f4b0       ?state_case_precision@?$output_processor@_WV?$stream_output_adapter@_W@__crt_stdio_output@@V?$positional_parameter_base@_WV?$stream_output_adapter@_W@__crt_stdio_output@@@2@@__crt_stdio_output@@AAE_NXZ 100604b0 f i libucrtd:output.obj
 0001:0005f520       ?state_case_precision@?$output_processor@_WV?$stream_output_adapter@_W@__crt_stdio_output@@V?$standard_base@_WV?$stream_output_adapter@_W@__crt_stdio_output@@@2@@__crt_stdio_output@@AAE_NXZ 10060520 f i libucrtd:output.obj
 0001:0005f590       ?state_case_precision@?$output_processor@_WV?$string_output_adapter@_W@__crt_stdio_output@@V?$format_validation_base@_WV?$string_output_adapter@_W@__crt_stdio_output@@@2@@__crt_stdio_output@@AAE_NXZ 10060590 f i libucrtd:output.obj
 0001:0005f600       ?state_case_precision@?$output_processor@_WV?$string_output_adapter@_W@__crt_stdio_output@@V?$positional_parameter_base@_WV?$string_output_adapter@_W@__crt_stdio_output@@@2@@__crt_stdio_output@@AAE_NXZ 10060600 f i libucrtd:output.obj
 0001:0005f670       ?state_case_precision@?$output_processor@_WV?$string_output_adapter@_W@__crt_stdio_output@@V?$standard_base@_WV?$string_output_adapter@_W@__crt_stdio_output@@@2@@__crt_stdio_output@@AAE_NXZ 10060670 f i libucrtd:output.obj
 0001:0005f6e0       ?state_case_size@?$output_processor@DV?$stream_output_adapter@D@__crt_stdio_output@@V?$format_validation_base@DV?$stream_output_adapter@D@__crt_stdio_output@@@2@@__crt_stdio_output@@AAE_NXZ 100606e0 f i libucrtd:output.obj
 0001:0005fad0       ?state_case_size@?$output_processor@DV?$stream_output_adapter@D@__crt_stdio_output@@V?$positional_parameter_base@DV?$stream_output_adapter@D@__crt_stdio_output@@@2@@__crt_stdio_output@@AAE_NXZ 10060ad0 f i libucrtd:output.obj
 0001:0005fec0       ?state_case_size@?$output_processor@DV?$stream_output_adapter@D@__crt_stdio_output@@V?$standard_base@DV?$stream_output_adapter@D@__crt_stdio_output@@@2@@__crt_stdio_output@@AAE_NXZ 10060ec0 f i libucrtd:output.obj
 0001:000602b0       ?state_case_size@?$output_processor@DV?$string_output_adapter@D@__crt_stdio_output@@V?$format_validation_base@DV?$string_output_adapter@D@__crt_stdio_output@@@2@@__crt_stdio_output@@AAE_NXZ 100612b0 f i libucrtd:output.obj
 0001:000606a0       ?state_case_size@?$output_processor@DV?$string_output_adapter@D@__crt_stdio_output@@V?$positional_parameter_base@DV?$string_output_adapter@D@__crt_stdio_output@@@2@@__crt_stdio_output@@AAE_NXZ 100616a0 f i libucrtd:output.obj
 0001:00060a90       ?state_case_size@?$output_processor@DV?$string_output_adapter@D@__crt_stdio_output@@V?$standard_base@DV?$string_output_adapter@D@__crt_stdio_output@@@2@@__crt_stdio_output@@AAE_NXZ 10061a90 f i libucrtd:output.obj
 0001:00060e80       ?state_case_size@?$output_processor@_WV?$stream_output_adapter@_W@__crt_stdio_output@@V?$format_validation_base@_WV?$stream_output_adapter@_W@__crt_stdio_output@@@2@@__crt_stdio_output@@AAE_NXZ 10061e80 f i libucrtd:output.obj
 0001:00061270       ?state_case_size@?$output_processor@_WV?$stream_output_adapter@_W@__crt_stdio_output@@V?$positional_parameter_base@_WV?$stream_output_adapter@_W@__crt_stdio_output@@@2@@__crt_stdio_output@@AAE_NXZ 10062270 f i libucrtd:output.obj
 0001:00061660       ?state_case_size@?$output_processor@_WV?$stream_output_adapter@_W@__crt_stdio_output@@V?$standard_base@_WV?$stream_output_adapter@_W@__crt_stdio_output@@@2@@__crt_stdio_output@@AAE_NXZ 10062660 f i libucrtd:output.obj
 0001:00061a50       ?state_case_size@?$output_processor@_WV?$string_output_adapter@_W@__crt_stdio_output@@V?$format_validation_base@_WV?$string_output_adapter@_W@__crt_stdio_output@@@2@@__crt_stdio_output@@AAE_NXZ 10062a50 f i libucrtd:output.obj
 0001:00061e40       ?state_case_size@?$output_processor@_WV?$string_output_adapter@_W@__crt_stdio_output@@V?$positional_parameter_base@_WV?$string_output_adapter@_W@__crt_stdio_output@@@2@@__crt_stdio_output@@AAE_NXZ 10062e40 f i libucrtd:output.obj
 0001:00062230       ?state_case_size@?$output_processor@_WV?$string_output_adapter@_W@__crt_stdio_output@@V?$standard_base@_WV?$string_output_adapter@_W@__crt_stdio_output@@@2@@__crt_stdio_output@@AAE_NXZ 10063230 f i libucrtd:output.obj
 0001:00062620       ?state_case_type@?$output_processor@DV?$stream_output_adapter@D@__crt_stdio_output@@V?$format_validation_base@DV?$stream_output_adapter@D@__crt_stdio_output@@@2@@__crt_stdio_output@@AAE_NXZ 10063620 f i libucrtd:output.obj
 0001:000629f0       ?state_case_type@?$output_processor@DV?$stream_output_adapter@D@__crt_stdio_output@@V?$positional_parameter_base@DV?$stream_output_adapter@D@__crt_stdio_output@@@2@@__crt_stdio_output@@AAE_NXZ 100639f0 f i libucrtd:output.obj
 0001:00062dc0       ?state_case_type@?$output_processor@DV?$stream_output_adapter@D@__crt_stdio_output@@V?$standard_base@DV?$stream_output_adapter@D@__crt_stdio_output@@@2@@__crt_stdio_output@@AAE_NXZ 10063dc0 f i libucrtd:output.obj
 0001:00063190       ?state_case_type@?$output_processor@DV?$string_output_adapter@D@__crt_stdio_output@@V?$format_validation_base@DV?$string_output_adapter@D@__crt_stdio_output@@@2@@__crt_stdio_output@@AAE_NXZ 10064190 f i libucrtd:output.obj
 0001:00063560       ?state_case_type@?$output_processor@DV?$string_output_adapter@D@__crt_stdio_output@@V?$positional_parameter_base@DV?$string_output_adapter@D@__crt_stdio_output@@@2@@__crt_stdio_output@@AAE_NXZ 10064560 f i libucrtd:output.obj
 0001:00063930       ?state_case_type@?$output_processor@DV?$string_output_adapter@D@__crt_stdio_output@@V?$standard_base@DV?$string_output_adapter@D@__crt_stdio_output@@@2@@__crt_stdio_output@@AAE_NXZ 10064930 f i libucrtd:output.obj
 0001:00063d00       ?state_case_type@?$output_processor@_WV?$stream_output_adapter@_W@__crt_stdio_output@@V?$format_validation_base@_WV?$stream_output_adapter@_W@__crt_stdio_output@@@2@@__crt_stdio_output@@AAE_NXZ 10064d00 f i libucrtd:output.obj
 0001:00064100       ?state_case_type@?$output_processor@_WV?$stream_output_adapter@_W@__crt_stdio_output@@V?$positional_parameter_base@_WV?$stream_output_adapter@_W@__crt_stdio_output@@@2@@__crt_stdio_output@@AAE_NXZ 10065100 f i libucrtd:output.obj
 0001:00064500       ?state_case_type@?$output_processor@_WV?$stream_output_adapter@_W@__crt_stdio_output@@V?$standard_base@_WV?$stream_output_adapter@_W@__crt_stdio_output@@@2@@__crt_stdio_output@@AAE_NXZ 10065500 f i libucrtd:output.obj
 0001:00064900       ?state_case_type@?$output_processor@_WV?$string_output_adapter@_W@__crt_stdio_output@@V?$format_validation_base@_WV?$string_output_adapter@_W@__crt_stdio_output@@@2@@__crt_stdio_output@@AAE_NXZ 10065900 f i libucrtd:output.obj
 0001:00064d00       ?state_case_type@?$output_processor@_WV?$string_output_adapter@_W@__crt_stdio_output@@V?$positional_parameter_base@_WV?$string_output_adapter@_W@__crt_stdio_output@@@2@@__crt_stdio_output@@AAE_NXZ 10065d00 f i libucrtd:output.obj
 0001:00065100       ?state_case_type@?$output_processor@_WV?$string_output_adapter@_W@__crt_stdio_output@@V?$standard_base@_WV?$string_output_adapter@_W@__crt_stdio_output@@@2@@__crt_stdio_output@@AAE_NXZ 10066100 f i libucrtd:output.obj
 0001:00065500       ?state_case_width@?$output_processor@DV?$stream_output_adapter@D@__crt_stdio_output@@V?$format_validation_base@DV?$stream_output_adapter@D@__crt_stdio_output@@@2@@__crt_stdio_output@@AAE_NXZ 10066500 f i libucrtd:output.obj
 0001:00065580       ?state_case_width@?$output_processor@DV?$stream_output_adapter@D@__crt_stdio_output@@V?$positional_parameter_base@DV?$stream_output_adapter@D@__crt_stdio_output@@@2@@__crt_stdio_output@@AAE_NXZ 10066580 f i libucrtd:output.obj
 0001:00065600       ?state_case_width@?$output_processor@DV?$stream_output_adapter@D@__crt_stdio_output@@V?$standard_base@DV?$stream_output_adapter@D@__crt_stdio_output@@@2@@__crt_stdio_output@@AAE_NXZ 10066600 f i libucrtd:output.obj
 0001:00065680       ?state_case_width@?$output_processor@DV?$string_output_adapter@D@__crt_stdio_output@@V?$format_validation_base@DV?$string_output_adapter@D@__crt_stdio_output@@@2@@__crt_stdio_output@@AAE_NXZ 10066680 f i libucrtd:output.obj
 0001:00065700       ?state_case_width@?$output_processor@DV?$string_output_adapter@D@__crt_stdio_output@@V?$positional_parameter_base@DV?$string_output_adapter@D@__crt_stdio_output@@@2@@__crt_stdio_output@@AAE_NXZ 10066700 f i libucrtd:output.obj
 0001:00065780       ?state_case_width@?$output_processor@DV?$string_output_adapter@D@__crt_stdio_output@@V?$standard_base@DV?$string_output_adapter@D@__crt_stdio_output@@@2@@__crt_stdio_output@@AAE_NXZ 10066780 f i libucrtd:output.obj
 0001:00065800       ?state_case_width@?$output_processor@_WV?$stream_output_adapter@_W@__crt_stdio_output@@V?$format_validation_base@_WV?$stream_output_adapter@_W@__crt_stdio_output@@@2@@__crt_stdio_output@@AAE_NXZ 10066800 f i libucrtd:output.obj
 0001:00065880       ?state_case_width@?$output_processor@_WV?$stream_output_adapter@_W@__crt_stdio_output@@V?$positional_parameter_base@_WV?$stream_output_adapter@_W@__crt_stdio_output@@@2@@__crt_stdio_output@@AAE_NXZ 10066880 f i libucrtd:output.obj
 0001:00065900       ?state_case_width@?$output_processor@_WV?$stream_output_adapter@_W@__crt_stdio_output@@V?$standard_base@_WV?$stream_output_adapter@_W@__crt_stdio_output@@@2@@__crt_stdio_output@@AAE_NXZ 10066900 f i libucrtd:output.obj
 0001:00065980       ?state_case_width@?$output_processor@_WV?$string_output_adapter@_W@__crt_stdio_output@@V?$format_validation_base@_WV?$string_output_adapter@_W@__crt_stdio_output@@@2@@__crt_stdio_output@@AAE_NXZ 10066980 f i libucrtd:output.obj
 0001:00065a00       ?state_case_width@?$output_processor@_WV?$string_output_adapter@_W@__crt_stdio_output@@V?$positional_parameter_base@_WV?$string_output_adapter@_W@__crt_stdio_output@@@2@@__crt_stdio_output@@AAE_NXZ 10066a00 f i libucrtd:output.obj
 0001:00065a80       ?state_case_width@?$output_processor@_WV?$string_output_adapter@_W@__crt_stdio_output@@V?$standard_base@_WV?$string_output_adapter@_W@__crt_stdio_output@@@2@@__crt_stdio_output@@AAE_NXZ 10066a80 f i libucrtd:output.obj
 0001:00065b00       ?state_count@?$format_validation_base@DV?$stream_output_adapter@D@__crt_stdio_output@@@__crt_stdio_output@@KAIXZ 10066b00 f i libucrtd:output.obj
 0001:00065b10       ?state_count@?$format_validation_base@DV?$string_output_adapter@D@__crt_stdio_output@@@__crt_stdio_output@@KAIXZ 10066b10 f i libucrtd:output.obj
 0001:00065b20       ?state_count@?$format_validation_base@_WV?$stream_output_adapter@_W@__crt_stdio_output@@@__crt_stdio_output@@KAIXZ 10066b20 f i libucrtd:output.obj
 0001:00065b30       ?state_count@?$format_validation_base@_WV?$string_output_adapter@_W@__crt_stdio_output@@@__crt_stdio_output@@KAIXZ 10066b30 f i libucrtd:output.obj
 0001:00065b40       ?state_count@?$standard_base@DV?$stream_output_adapter@D@__crt_stdio_output@@@__crt_stdio_output@@KAIXZ 10066b40 f i libucrtd:output.obj
 0001:00065b50       ?state_count@?$standard_base@DV?$string_output_adapter@D@__crt_stdio_output@@@__crt_stdio_output@@KAIXZ 10066b50 f i libucrtd:output.obj
 0001:00065b60       ?state_count@?$standard_base@_WV?$stream_output_adapter@_W@__crt_stdio_output@@@__crt_stdio_output@@KAIXZ 10066b60 f i libucrtd:output.obj
 0001:00065b70       ?state_count@?$standard_base@_WV?$string_output_adapter@_W@__crt_stdio_output@@@__crt_stdio_output@@KAIXZ 10066b70 f i libucrtd:output.obj
 0001:00065b80       ?state_transition_table@?$format_validation_base@DV?$stream_output_adapter@D@__crt_stdio_output@@@__crt_stdio_output@@KAABV?$spectre_mitigated_lookup_table@Ustate_transition_pair@__crt_stdio_output@@$0IA@@2@XZ 10066b80 f i libucrtd:output.obj
 0001:00065b90       ?state_transition_table@?$format_validation_base@DV?$string_output_adapter@D@__crt_stdio_output@@@__crt_stdio_output@@KAABV?$spectre_mitigated_lookup_table@Ustate_transition_pair@__crt_stdio_output@@$0IA@@2@XZ 10066b90 f i libucrtd:output.obj
 0001:00065ba0       ?state_transition_table@?$format_validation_base@_WV?$stream_output_adapter@_W@__crt_stdio_output@@@__crt_stdio_output@@KAABV?$spectre_mitigated_lookup_table@Ustate_transition_pair@__crt_stdio_output@@$0IA@@2@XZ 10066ba0 f i libucrtd:output.obj
 0001:00065bb0       ?state_transition_table@?$format_validation_base@_WV?$string_output_adapter@_W@__crt_stdio_output@@@__crt_stdio_output@@KAABV?$spectre_mitigated_lookup_table@Ustate_transition_pair@__crt_stdio_output@@$0IA@@2@XZ 10066bb0 f i libucrtd:output.obj
 0001:00065bc0       ?state_transition_table@?$standard_base@DV?$stream_output_adapter@D@__crt_stdio_output@@@__crt_stdio_output@@KAABV?$spectre_mitigated_lookup_table@Ustate_transition_pair@__crt_stdio_output@@$0IA@@2@XZ 10066bc0 f i libucrtd:output.obj
 0001:00065bd0       ?state_transition_table@?$standard_base@DV?$string_output_adapter@D@__crt_stdio_output@@@__crt_stdio_output@@KAABV?$spectre_mitigated_lookup_table@Ustate_transition_pair@__crt_stdio_output@@$0IA@@2@XZ 10066bd0 f i libucrtd:output.obj
 0001:00065be0       ?state_transition_table@?$standard_base@_WV?$stream_output_adapter@_W@__crt_stdio_output@@@__crt_stdio_output@@KAABV?$spectre_mitigated_lookup_table@Ustate_transition_pair@__crt_stdio_output@@$0IA@@2@XZ 10066be0 f i libucrtd:output.obj
 0001:00065bf0       ?state_transition_table@?$standard_base@_WV?$string_output_adapter@_W@__crt_stdio_output@@@__crt_stdio_output@@KAABV?$spectre_mitigated_lookup_table@Ustate_transition_pair@__crt_stdio_output@@$0IA@@2@XZ 10066bf0 f i libucrtd:output.obj
 0001:00065c00       ?tchar_string@?$common_data@D@__crt_stdio_output@@IAEAAPADD@Z 10066c00 f i libucrtd:output.obj
 0001:00065c20       ?tchar_string@?$common_data@D@__crt_stdio_output@@IAEAAPADXZ 10066c20 f i libucrtd:output.obj
 0001:00065c40       ?tchar_string@?$common_data@_W@__crt_stdio_output@@IAEAAPA_WXZ 10066c40 f i libucrtd:output.obj
 0001:00065c60       ?tchar_string@?$common_data@_W@__crt_stdio_output@@IAEAAPA_W_W@Z 10066c60 f i libucrtd:output.obj
 0001:00065c80       ?to_integer_size@__crt_stdio_output@@YAIW4length_modifier@1@@Z 10066c80 f i libucrtd:output.obj
 0001:00065d20       ?type_case_X@?$output_processor@DV?$stream_output_adapter@D@__crt_stdio_output@@V?$format_validation_base@DV?$stream_output_adapter@D@__crt_stdio_output@@@2@@__crt_stdio_output@@AAE_NXZ 10066d20 f i libucrtd:output.obj
 0001:00065d40       ?type_case_X@?$output_processor@DV?$stream_output_adapter@D@__crt_stdio_output@@V?$positional_parameter_base@DV?$stream_output_adapter@D@__crt_stdio_output@@@2@@__crt_stdio_output@@AAE_NXZ 10066d40 f i libucrtd:output.obj
 0001:00065d60       ?type_case_X@?$output_processor@DV?$stream_output_adapter@D@__crt_stdio_output@@V?$standard_base@DV?$stream_output_adapter@D@__crt_stdio_output@@@2@@__crt_stdio_output@@AAE_NXZ 10066d60 f i libucrtd:output.obj
 0001:00065d80       ?type_case_X@?$output_processor@DV?$string_output_adapter@D@__crt_stdio_output@@V?$format_validation_base@DV?$string_output_adapter@D@__crt_stdio_output@@@2@@__crt_stdio_output@@AAE_NXZ 10066d80 f i libucrtd:output.obj
 0001:00065da0       ?type_case_X@?$output_processor@DV?$string_output_adapter@D@__crt_stdio_output@@V?$positional_parameter_base@DV?$string_output_adapter@D@__crt_stdio_output@@@2@@__crt_stdio_output@@AAE_NXZ 10066da0 f i libucrtd:output.obj
 0001:00065dc0       ?type_case_X@?$output_processor@DV?$string_output_adapter@D@__crt_stdio_output@@V?$standard_base@DV?$string_output_adapter@D@__crt_stdio_output@@@2@@__crt_stdio_output@@AAE_NXZ 10066dc0 f i libucrtd:output.obj
 0001:00065de0       ?type_case_X@?$output_processor@_WV?$stream_output_adapter@_W@__crt_stdio_output@@V?$format_validation_base@_WV?$stream_output_adapter@_W@__crt_stdio_output@@@2@@__crt_stdio_output@@AAE_NXZ 10066de0 f i libucrtd:output.obj
 0001:00065e00       ?type_case_X@?$output_processor@_WV?$stream_output_adapter@_W@__crt_stdio_output@@V?$positional_parameter_base@_WV?$stream_output_adapter@_W@__crt_stdio_output@@@2@@__crt_stdio_output@@AAE_NXZ 10066e00 f i libucrtd:output.obj
 0001:00065e20       ?type_case_X@?$output_processor@_WV?$stream_output_adapter@_W@__crt_stdio_output@@V?$standard_base@_WV?$stream_output_adapter@_W@__crt_stdio_output@@@2@@__crt_stdio_output@@AAE_NXZ 10066e20 f i libucrtd:output.obj
 0001:00065e40       ?type_case_X@?$output_processor@_WV?$string_output_adapter@_W@__crt_stdio_output@@V?$format_validation_base@_WV?$string_output_adapter@_W@__crt_stdio_output@@@2@@__crt_stdio_output@@AAE_NXZ 10066e40 f i libucrtd:output.obj
 0001:00065e60       ?type_case_X@?$output_processor@_WV?$string_output_adapter@_W@__crt_stdio_output@@V?$positional_parameter_base@_WV?$string_output_adapter@_W@__crt_stdio_output@@@2@@__crt_stdio_output@@AAE_NXZ 10066e60 f i libucrtd:output.obj
 0001:00065e80       ?type_case_X@?$output_processor@_WV?$string_output_adapter@_W@__crt_stdio_output@@V?$standard_base@_WV?$string_output_adapter@_W@__crt_stdio_output@@@2@@__crt_stdio_output@@AAE_NXZ 10066e80 f i libucrtd:output.obj
 0001:00065ea0       ?type_case_Z@?$output_processor@DV?$stream_output_adapter@D@__crt_stdio_output@@V?$format_validation_base@DV?$stream_output_adapter@D@__crt_stdio_output@@@2@@__crt_stdio_output@@AAE_NXZ 10066ea0 f i libucrtd:output.obj
 0001:00065f90       ?type_case_Z@?$output_processor@DV?$stream_output_adapter@D@__crt_stdio_output@@V?$positional_parameter_base@DV?$stream_output_adapter@D@__crt_stdio_output@@@2@@__crt_stdio_output@@AAE_NXZ 10066f90 f i libucrtd:output.obj
 0001:00066080       ?type_case_Z@?$output_processor@DV?$stream_output_adapter@D@__crt_stdio_output@@V?$standard_base@DV?$stream_output_adapter@D@__crt_stdio_output@@@2@@__crt_stdio_output@@AAE_NXZ 10067080 f i libucrtd:output.obj
 0001:00066170       ?type_case_Z@?$output_processor@DV?$string_output_adapter@D@__crt_stdio_output@@V?$format_validation_base@DV?$string_output_adapter@D@__crt_stdio_output@@@2@@__crt_stdio_output@@AAE_NXZ 10067170 f i libucrtd:output.obj
 0001:00066260       ?type_case_Z@?$output_processor@DV?$string_output_adapter@D@__crt_stdio_output@@V?$positional_parameter_base@DV?$string_output_adapter@D@__crt_stdio_output@@@2@@__crt_stdio_output@@AAE_NXZ 10067260 f i libucrtd:output.obj
 0001:00066350       ?type_case_Z@?$output_processor@DV?$string_output_adapter@D@__crt_stdio_output@@V?$standard_base@DV?$string_output_adapter@D@__crt_stdio_output@@@2@@__crt_stdio_output@@AAE_NXZ 10067350 f i libucrtd:output.obj
 0001:00066440       ?type_case_Z@?$output_processor@_WV?$stream_output_adapter@_W@__crt_stdio_output@@V?$format_validation_base@_WV?$stream_output_adapter@_W@__crt_stdio_output@@@2@@__crt_stdio_output@@AAE_NXZ 10067440 f i libucrtd:output.obj
 0001:00066530       ?type_case_Z@?$output_processor@_WV?$stream_output_adapter@_W@__crt_stdio_output@@V?$positional_parameter_base@_WV?$stream_output_adapter@_W@__crt_stdio_output@@@2@@__crt_stdio_output@@AAE_NXZ 10067530 f i libucrtd:output.obj
 0001:00066620       ?type_case_Z@?$output_processor@_WV?$stream_output_adapter@_W@__crt_stdio_output@@V?$standard_base@_WV?$stream_output_adapter@_W@__crt_stdio_output@@@2@@__crt_stdio_output@@AAE_NXZ 10067620 f i libucrtd:output.obj
 0001:00066710       ?type_case_Z@?$output_processor@_WV?$string_output_adapter@_W@__crt_stdio_output@@V?$format_validation_base@_WV?$string_output_adapter@_W@__crt_stdio_output@@@2@@__crt_stdio_output@@AAE_NXZ 10067710 f i libucrtd:output.obj
 0001:00066800       ?type_case_Z@?$output_processor@_WV?$string_output_adapter@_W@__crt_stdio_output@@V?$positional_parameter_base@_WV?$string_output_adapter@_W@__crt_stdio_output@@@2@@__crt_stdio_output@@AAE_NXZ 10067800 f i libucrtd:output.obj
 0001:000668f0       ?type_case_Z@?$output_processor@_WV?$string_output_adapter@_W@__crt_stdio_output@@V?$standard_base@_WV?$string_output_adapter@_W@__crt_stdio_output@@@2@@__crt_stdio_output@@AAE_NXZ 100678f0 f i libucrtd:output.obj
 0001:000669e0       ?type_case_a@?$output_processor@DV?$stream_output_adapter@D@__crt_stdio_output@@V?$format_validation_base@DV?$stream_output_adapter@D@__crt_stdio_output@@@2@@__crt_stdio_output@@AAE_NXZ 100679e0 f i libucrtd:output.obj
 0001:00066cb0       ?type_case_a@?$output_processor@DV?$stream_output_adapter@D@__crt_stdio_output@@V?$positional_parameter_base@DV?$stream_output_adapter@D@__crt_stdio_output@@@2@@__crt_stdio_output@@AAE_NXZ 10067cb0 f i libucrtd:output.obj
 0001:00066f80       ?type_case_a@?$output_processor@DV?$stream_output_adapter@D@__crt_stdio_output@@V?$standard_base@DV?$stream_output_adapter@D@__crt_stdio_output@@@2@@__crt_stdio_output@@AAE_NXZ 10067f80 f i libucrtd:output.obj
 0001:00067250       ?type_case_a@?$output_processor@DV?$string_output_adapter@D@__crt_stdio_output@@V?$format_validation_base@DV?$string_output_adapter@D@__crt_stdio_output@@@2@@__crt_stdio_output@@AAE_NXZ 10068250 f i libucrtd:output.obj
 0001:00067520       ?type_case_a@?$output_processor@DV?$string_output_adapter@D@__crt_stdio_output@@V?$positional_parameter_base@DV?$string_output_adapter@D@__crt_stdio_output@@@2@@__crt_stdio_output@@AAE_NXZ 10068520 f i libucrtd:output.obj
 0001:000677f0       ?type_case_a@?$output_processor@DV?$string_output_adapter@D@__crt_stdio_output@@V?$standard_base@DV?$string_output_adapter@D@__crt_stdio_output@@@2@@__crt_stdio_output@@AAE_NXZ 100687f0 f i libucrtd:output.obj
 0001:00067ac0       ?type_case_a@?$output_processor@_WV?$stream_output_adapter@_W@__crt_stdio_output@@V?$format_validation_base@_WV?$stream_output_adapter@_W@__crt_stdio_output@@@2@@__crt_stdio_output@@AAE_NXZ 10068ac0 f i libucrtd:output.obj
 0001:00067d90       ?type_case_a@?$output_processor@_WV?$stream_output_adapter@_W@__crt_stdio_output@@V?$positional_parameter_base@_WV?$stream_output_adapter@_W@__crt_stdio_output@@@2@@__crt_stdio_output@@AAE_NXZ 10068d90 f i libucrtd:output.obj
 0001:00068060       ?type_case_a@?$output_processor@_WV?$stream_output_adapter@_W@__crt_stdio_output@@V?$standard_base@_WV?$stream_output_adapter@_W@__crt_stdio_output@@@2@@__crt_stdio_output@@AAE_NXZ 10069060 f i libucrtd:output.obj
 0001:00068330       ?type_case_a@?$output_processor@_WV?$string_output_adapter@_W@__crt_stdio_output@@V?$format_validation_base@_WV?$string_output_adapter@_W@__crt_stdio_output@@@2@@__crt_stdio_output@@AAE_NXZ 10069330 f i libucrtd:output.obj
 0001:00068600       ?type_case_a@?$output_processor@_WV?$string_output_adapter@_W@__crt_stdio_output@@V?$positional_parameter_base@_WV?$string_output_adapter@_W@__crt_stdio_output@@@2@@__crt_stdio_output@@AAE_NXZ 10069600 f i libucrtd:output.obj
 0001:000688d0       ?type_case_a@?$output_processor@_WV?$string_output_adapter@_W@__crt_stdio_output@@V?$standard_base@_WV?$string_output_adapter@_W@__crt_stdio_output@@@2@@__crt_stdio_output@@AAE_NXZ 100698d0 f i libucrtd:output.obj
 0001:00068ba0       ?type_case_c@?$output_processor@DV?$stream_output_adapter@D@__crt_stdio_output@@V?$format_validation_base@DV?$stream_output_adapter@D@__crt_stdio_output@@@2@@__crt_stdio_output@@AAE_NXZ 10069ba0 f i libucrtd:output.obj
 0001:00068bc0       ?type_case_c@?$output_processor@DV?$stream_output_adapter@D@__crt_stdio_output@@V?$positional_parameter_base@DV?$stream_output_adapter@D@__crt_stdio_output@@@2@@__crt_stdio_output@@AAE_NXZ 10069bc0 f i libucrtd:output.obj
 0001:00068be0       ?type_case_c@?$output_processor@DV?$stream_output_adapter@D@__crt_stdio_output@@V?$standard_base@DV?$stream_output_adapter@D@__crt_stdio_output@@@2@@__crt_stdio_output@@AAE_NXZ 10069be0 f i libucrtd:output.obj
 0001:00068c00       ?type_case_c@?$output_processor@DV?$string_output_adapter@D@__crt_stdio_output@@V?$format_validation_base@DV?$string_output_adapter@D@__crt_stdio_output@@@2@@__crt_stdio_output@@AAE_NXZ 10069c00 f i libucrtd:output.obj
 0001:00068c20       ?type_case_c@?$output_processor@DV?$string_output_adapter@D@__crt_stdio_output@@V?$positional_parameter_base@DV?$string_output_adapter@D@__crt_stdio_output@@@2@@__crt_stdio_output@@AAE_NXZ 10069c20 f i libucrtd:output.obj
 0001:00068c40       ?type_case_c@?$output_processor@DV?$string_output_adapter@D@__crt_stdio_output@@V?$standard_base@DV?$string_output_adapter@D@__crt_stdio_output@@@2@@__crt_stdio_output@@AAE_NXZ 10069c40 f i libucrtd:output.obj
 0001:00068c60       ?type_case_c@?$output_processor@_WV?$stream_output_adapter@_W@__crt_stdio_output@@V?$format_validation_base@_WV?$stream_output_adapter@_W@__crt_stdio_output@@@2@@__crt_stdio_output@@AAE_NXZ 10069c60 f i libucrtd:output.obj
 0001:00068c80       ?type_case_c@?$output_processor@_WV?$stream_output_adapter@_W@__crt_stdio_output@@V?$positional_parameter_base@_WV?$stream_output_adapter@_W@__crt_stdio_output@@@2@@__crt_stdio_output@@AAE_NXZ 10069c80 f i libucrtd:output.obj
 0001:00068ca0       ?type_case_c@?$output_processor@_WV?$stream_output_adapter@_W@__crt_stdio_output@@V?$standard_base@_WV?$stream_output_adapter@_W@__crt_stdio_output@@@2@@__crt_stdio_output@@AAE_NXZ 10069ca0 f i libucrtd:output.obj
 0001:00068cc0       ?type_case_c@?$output_processor@_WV?$string_output_adapter@_W@__crt_stdio_output@@V?$format_validation_base@_WV?$string_output_adapter@_W@__crt_stdio_output@@@2@@__crt_stdio_output@@AAE_NXZ 10069cc0 f i libucrtd:output.obj
 0001:00068ce0       ?type_case_c@?$output_processor@_WV?$string_output_adapter@_W@__crt_stdio_output@@V?$positional_parameter_base@_WV?$string_output_adapter@_W@__crt_stdio_output@@@2@@__crt_stdio_output@@AAE_NXZ 10069ce0 f i libucrtd:output.obj
 0001:00068d00       ?type_case_c@?$output_processor@_WV?$string_output_adapter@_W@__crt_stdio_output@@V?$standard_base@_WV?$string_output_adapter@_W@__crt_stdio_output@@@2@@__crt_stdio_output@@AAE_NXZ 10069d00 f i libucrtd:output.obj
 0001:00068d20       ?type_case_c_tchar@?$output_processor@DV?$stream_output_adapter@D@__crt_stdio_output@@V?$format_validation_base@DV?$stream_output_adapter@D@__crt_stdio_output@@@2@@__crt_stdio_output@@AAE_ND@Z 10069d20 f i libucrtd:output.obj
 0001:00068e50       ?type_case_c_tchar@?$output_processor@DV?$stream_output_adapter@D@__crt_stdio_output@@V?$positional_parameter_base@DV?$stream_output_adapter@D@__crt_stdio_output@@@2@@__crt_stdio_output@@AAE_ND@Z 10069e50 f i libucrtd:output.obj
 0001:00068f80       ?type_case_c_tchar@?$output_processor@DV?$stream_output_adapter@D@__crt_stdio_output@@V?$standard_base@DV?$stream_output_adapter@D@__crt_stdio_output@@@2@@__crt_stdio_output@@AAE_ND@Z 10069f80 f i libucrtd:output.obj
 0001:000690b0       ?type_case_c_tchar@?$output_processor@DV?$string_output_adapter@D@__crt_stdio_output@@V?$format_validation_base@DV?$string_output_adapter@D@__crt_stdio_output@@@2@@__crt_stdio_output@@AAE_ND@Z 1006a0b0 f i libucrtd:output.obj
 0001:000691e0       ?type_case_c_tchar@?$output_processor@DV?$string_output_adapter@D@__crt_stdio_output@@V?$positional_parameter_base@DV?$string_output_adapter@D@__crt_stdio_output@@@2@@__crt_stdio_output@@AAE_ND@Z 1006a1e0 f i libucrtd:output.obj
 0001:00069310       ?type_case_c_tchar@?$output_processor@DV?$string_output_adapter@D@__crt_stdio_output@@V?$standard_base@DV?$string_output_adapter@D@__crt_stdio_output@@@2@@__crt_stdio_output@@AAE_ND@Z 1006a310 f i libucrtd:output.obj
 0001:00069440       ?type_case_c_tchar@?$output_processor@_WV?$stream_output_adapter@_W@__crt_stdio_output@@V?$format_validation_base@_WV?$stream_output_adapter@_W@__crt_stdio_output@@@2@@__crt_stdio_output@@AAE_N_W@Z 1006a440 f i libucrtd:output.obj
 0001:00069560       ?type_case_c_tchar@?$output_processor@_WV?$stream_output_adapter@_W@__crt_stdio_output@@V?$positional_parameter_base@_WV?$stream_output_adapter@_W@__crt_stdio_output@@@2@@__crt_stdio_output@@AAE_N_W@Z 1006a560 f i libucrtd:output.obj
 0001:00069680       ?type_case_c_tchar@?$output_processor@_WV?$stream_output_adapter@_W@__crt_stdio_output@@V?$standard_base@_WV?$stream_output_adapter@_W@__crt_stdio_output@@@2@@__crt_stdio_output@@AAE_N_W@Z 1006a680 f i libucrtd:output.obj
 0001:000697a0       ?type_case_c_tchar@?$output_processor@_WV?$string_output_adapter@_W@__crt_stdio_output@@V?$format_validation_base@_WV?$string_output_adapter@_W@__crt_stdio_output@@@2@@__crt_stdio_output@@AAE_N_W@Z 1006a7a0 f i libucrtd:output.obj
 0001:000698c0       ?type_case_c_tchar@?$output_processor@_WV?$string_output_adapter@_W@__crt_stdio_output@@V?$positional_parameter_base@_WV?$string_output_adapter@_W@__crt_stdio_output@@@2@@__crt_stdio_output@@AAE_N_W@Z 1006a8c0 f i libucrtd:output.obj
 0001:000699e0       ?type_case_c_tchar@?$output_processor@_WV?$string_output_adapter@_W@__crt_stdio_output@@V?$standard_base@_WV?$string_output_adapter@_W@__crt_stdio_output@@@2@@__crt_stdio_output@@AAE_N_W@Z 1006a9e0 f i libucrtd:output.obj
 0001:00069b00       ?type_case_d@?$output_processor@DV?$stream_output_adapter@D@__crt_stdio_output@@V?$format_validation_base@DV?$stream_output_adapter@D@__crt_stdio_output@@@2@@__crt_stdio_output@@AAE_NXZ 1006ab00 f i libucrtd:output.obj
 0001:00069b30       ?type_case_d@?$output_processor@DV?$stream_output_adapter@D@__crt_stdio_output@@V?$positional_parameter_base@DV?$stream_output_adapter@D@__crt_stdio_output@@@2@@__crt_stdio_output@@AAE_NXZ 1006ab30 f i libucrtd:output.obj
 0001:00069b60       ?type_case_d@?$output_processor@DV?$stream_output_adapter@D@__crt_stdio_output@@V?$standard_base@DV?$stream_output_adapter@D@__crt_stdio_output@@@2@@__crt_stdio_output@@AAE_NXZ 1006ab60 f i libucrtd:output.obj
 0001:00069b90       ?type_case_d@?$output_processor@DV?$string_output_adapter@D@__crt_stdio_output@@V?$format_validation_base@DV?$string_output_adapter@D@__crt_stdio_output@@@2@@__crt_stdio_output@@AAE_NXZ 1006ab90 f i libucrtd:output.obj
 0001:00069bc0       ?type_case_d@?$output_processor@DV?$string_output_adapter@D@__crt_stdio_output@@V?$positional_parameter_base@DV?$string_output_adapter@D@__crt_stdio_output@@@2@@__crt_stdio_output@@AAE_NXZ 1006abc0 f i libucrtd:output.obj
 0001:00069bf0       ?type_case_d@?$output_processor@DV?$string_output_adapter@D@__crt_stdio_output@@V?$standard_base@DV?$string_output_adapter@D@__crt_stdio_output@@@2@@__crt_stdio_output@@AAE_NXZ 1006abf0 f i libucrtd:output.obj
 0001:00069c20       ?type_case_d@?$output_processor@_WV?$stream_output_adapter@_W@__crt_stdio_output@@V?$format_validation_base@_WV?$stream_output_adapter@_W@__crt_stdio_output@@@2@@__crt_stdio_output@@AAE_NXZ 1006ac20 f i libucrtd:output.obj
 0001:00069c50       ?type_case_d@?$output_processor@_WV?$stream_output_adapter@_W@__crt_stdio_output@@V?$positional_parameter_base@_WV?$stream_output_adapter@_W@__crt_stdio_output@@@2@@__crt_stdio_output@@AAE_NXZ 1006ac50 f i libucrtd:output.obj
 0001:00069c80       ?type_case_d@?$output_processor@_WV?$stream_output_adapter@_W@__crt_stdio_output@@V?$standard_base@_WV?$stream_output_adapter@_W@__crt_stdio_output@@@2@@__crt_stdio_output@@AAE_NXZ 1006ac80 f i libucrtd:output.obj
 0001:00069cb0       ?type_case_d@?$output_processor@_WV?$string_output_adapter@_W@__crt_stdio_output@@V?$format_validation_base@_WV?$string_output_adapter@_W@__crt_stdio_output@@@2@@__crt_stdio_output@@AAE_NXZ 1006acb0 f i libucrtd:output.obj
 0001:00069ce0       ?type_case_d@?$output_processor@_WV?$string_output_adapter@_W@__crt_stdio_output@@V?$positional_parameter_base@_WV?$string_output_adapter@_W@__crt_stdio_output@@@2@@__crt_stdio_output@@AAE_NXZ 1006ace0 f i libucrtd:output.obj
 0001:00069d10       ?type_case_d@?$output_processor@_WV?$string_output_adapter@_W@__crt_stdio_output@@V?$standard_base@_WV?$string_output_adapter@_W@__crt_stdio_output@@@2@@__crt_stdio_output@@AAE_NXZ 1006ad10 f i libucrtd:output.obj
 0001:00069d40       ?type_case_n@?$output_processor@DV?$stream_output_adapter@D@__crt_stdio_output@@V?$format_validation_base@DV?$stream_output_adapter@D@__crt_stdio_output@@@2@@__crt_stdio_output@@AAE_NXZ 1006ad40 f i libucrtd:output.obj
 0001:00069f60       ?type_case_n@?$output_processor@DV?$stream_output_adapter@D@__crt_stdio_output@@V?$positional_parameter_base@DV?$stream_output_adapter@D@__crt_stdio_output@@@2@@__crt_stdio_output@@AAE_NXZ 1006af60 f i libucrtd:output.obj
 0001:0006a180       ?type_case_n@?$output_processor@DV?$stream_output_adapter@D@__crt_stdio_output@@V?$standard_base@DV?$stream_output_adapter@D@__crt_stdio_output@@@2@@__crt_stdio_output@@AAE_NXZ 1006b180 f i libucrtd:output.obj
 0001:0006a3a0       ?type_case_n@?$output_processor@DV?$string_output_adapter@D@__crt_stdio_output@@V?$format_validation_base@DV?$string_output_adapter@D@__crt_stdio_output@@@2@@__crt_stdio_output@@AAE_NXZ 1006b3a0 f i libucrtd:output.obj
 0001:0006a5c0       ?type_case_n@?$output_processor@DV?$string_output_adapter@D@__crt_stdio_output@@V?$positional_parameter_base@DV?$string_output_adapter@D@__crt_stdio_output@@@2@@__crt_stdio_output@@AAE_NXZ 1006b5c0 f i libucrtd:output.obj
 0001:0006a7e0       ?type_case_n@?$output_processor@DV?$string_output_adapter@D@__crt_stdio_output@@V?$standard_base@DV?$string_output_adapter@D@__crt_stdio_output@@@2@@__crt_stdio_output@@AAE_NXZ 1006b7e0 f i libucrtd:output.obj
 0001:0006aa00       ?type_case_n@?$output_processor@_WV?$stream_output_adapter@_W@__crt_stdio_output@@V?$format_validation_base@_WV?$stream_output_adapter@_W@__crt_stdio_output@@@2@@__crt_stdio_output@@AAE_NXZ 1006ba00 f i libucrtd:output.obj
 0001:0006ac20       ?type_case_n@?$output_processor@_WV?$stream_output_adapter@_W@__crt_stdio_output@@V?$positional_parameter_base@_WV?$stream_output_adapter@_W@__crt_stdio_output@@@2@@__crt_stdio_output@@AAE_NXZ 1006bc20 f i libucrtd:output.obj
 0001:0006ae40       ?type_case_n@?$output_processor@_WV?$stream_output_adapter@_W@__crt_stdio_output@@V?$standard_base@_WV?$stream_output_adapter@_W@__crt_stdio_output@@@2@@__crt_stdio_output@@AAE_NXZ 1006be40 f i libucrtd:output.obj
 0001:0006b060       ?type_case_n@?$output_processor@_WV?$string_output_adapter@_W@__crt_stdio_output@@V?$format_validation_base@_WV?$string_output_adapter@_W@__crt_stdio_output@@@2@@__crt_stdio_output@@AAE_NXZ 1006c060 f i libucrtd:output.obj
 0001:0006b280       ?type_case_n@?$output_processor@_WV?$string_output_adapter@_W@__crt_stdio_output@@V?$positional_parameter_base@_WV?$string_output_adapter@_W@__crt_stdio_output@@@2@@__crt_stdio_output@@AAE_NXZ 1006c280 f i libucrtd:output.obj
 0001:0006b4a0       ?type_case_n@?$output_processor@_WV?$string_output_adapter@_W@__crt_stdio_output@@V?$standard_base@_WV?$string_output_adapter@_W@__crt_stdio_output@@@2@@__crt_stdio_output@@AAE_NXZ 1006c4a0 f i libucrtd:output.obj
 0001:0006b6c0       ?type_case_o@?$output_processor@DV?$stream_output_adapter@D@__crt_stdio_output@@V?$format_validation_base@DV?$stream_output_adapter@D@__crt_stdio_output@@@2@@__crt_stdio_output@@AAE_NXZ 1006c6c0 f i libucrtd:output.obj
 0001:0006b700       ?type_case_o@?$output_processor@DV?$stream_output_adapter@D@__crt_stdio_output@@V?$positional_parameter_base@DV?$stream_output_adapter@D@__crt_stdio_output@@@2@@__crt_stdio_output@@AAE_NXZ 1006c700 f i libucrtd:output.obj
 0001:0006b740       ?type_case_o@?$output_processor@DV?$stream_output_adapter@D@__crt_stdio_output@@V?$standard_base@DV?$stream_output_adapter@D@__crt_stdio_output@@@2@@__crt_stdio_output@@AAE_NXZ 1006c740 f i libucrtd:output.obj
 0001:0006b780       ?type_case_o@?$output_processor@DV?$string_output_adapter@D@__crt_stdio_output@@V?$format_validation_base@DV?$string_output_adapter@D@__crt_stdio_output@@@2@@__crt_stdio_output@@AAE_NXZ 1006c780 f i libucrtd:output.obj
 0001:0006b7c0       ?type_case_o@?$output_processor@DV?$string_output_adapter@D@__crt_stdio_output@@V?$positional_parameter_base@DV?$string_output_adapter@D@__crt_stdio_output@@@2@@__crt_stdio_output@@AAE_NXZ 1006c7c0 f i libucrtd:output.obj
 0001:0006b800       ?type_case_o@?$output_processor@DV?$string_output_adapter@D@__crt_stdio_output@@V?$standard_base@DV?$string_output_adapter@D@__crt_stdio_output@@@2@@__crt_stdio_output@@AAE_NXZ 1006c800 f i libucrtd:output.obj
 0001:0006b840       ?type_case_o@?$output_processor@_WV?$stream_output_adapter@_W@__crt_stdio_output@@V?$format_validation_base@_WV?$stream_output_adapter@_W@__crt_stdio_output@@@2@@__crt_stdio_output@@AAE_NXZ 1006c840 f i libucrtd:output.obj
 0001:0006b880       ?type_case_o@?$output_processor@_WV?$stream_output_adapter@_W@__crt_stdio_output@@V?$positional_parameter_base@_WV?$stream_output_adapter@_W@__crt_stdio_output@@@2@@__crt_stdio_output@@AAE_NXZ 1006c880 f i libucrtd:output.obj
 0001:0006b8c0       ?type_case_o@?$output_processor@_WV?$stream_output_adapter@_W@__crt_stdio_output@@V?$standard_base@_WV?$stream_output_adapter@_W@__crt_stdio_output@@@2@@__crt_stdio_output@@AAE_NXZ 1006c8c0 f i libucrtd:output.obj
 0001:0006b900       ?type_case_o@?$output_processor@_WV?$string_output_adapter@_W@__crt_stdio_output@@V?$format_validation_base@_WV?$string_output_adapter@_W@__crt_stdio_output@@@2@@__crt_stdio_output@@AAE_NXZ 1006c900 f i libucrtd:output.obj
 0001:0006b940       ?type_case_o@?$output_processor@_WV?$string_output_adapter@_W@__crt_stdio_output@@V?$positional_parameter_base@_WV?$string_output_adapter@_W@__crt_stdio_output@@@2@@__crt_stdio_output@@AAE_NXZ 1006c940 f i libucrtd:output.obj
 0001:0006b980       ?type_case_o@?$output_processor@_WV?$string_output_adapter@_W@__crt_stdio_output@@V?$standard_base@_WV?$string_output_adapter@_W@__crt_stdio_output@@@2@@__crt_stdio_output@@AAE_NXZ 1006c980 f i libucrtd:output.obj
 0001:0006b9c0       ?type_case_p@?$output_processor@DV?$stream_output_adapter@D@__crt_stdio_output@@V?$format_validation_base@DV?$stream_output_adapter@D@__crt_stdio_output@@@2@@__crt_stdio_output@@AAE_NXZ 1006c9c0 f i libucrtd:output.obj
 0001:0006b9f0       ?type_case_p@?$output_processor@DV?$stream_output_adapter@D@__crt_stdio_output@@V?$positional_parameter_base@DV?$stream_output_adapter@D@__crt_stdio_output@@@2@@__crt_stdio_output@@AAE_NXZ 1006c9f0 f i libucrtd:output.obj
 0001:0006ba20       ?type_case_p@?$output_processor@DV?$stream_output_adapter@D@__crt_stdio_output@@V?$standard_base@DV?$stream_output_adapter@D@__crt_stdio_output@@@2@@__crt_stdio_output@@AAE_NXZ 1006ca20 f i libucrtd:output.obj
 0001:0006ba50       ?type_case_p@?$output_processor@DV?$string_output_adapter@D@__crt_stdio_output@@V?$format_validation_base@DV?$string_output_adapter@D@__crt_stdio_output@@@2@@__crt_stdio_output@@AAE_NXZ 1006ca50 f i libucrtd:output.obj
 0001:0006ba80       ?type_case_p@?$output_processor@DV?$string_output_adapter@D@__crt_stdio_output@@V?$positional_parameter_base@DV?$string_output_adapter@D@__crt_stdio_output@@@2@@__crt_stdio_output@@AAE_NXZ 1006ca80 f i libucrtd:output.obj
 0001:0006bab0       ?type_case_p@?$output_processor@DV?$string_output_adapter@D@__crt_stdio_output@@V?$standard_base@DV?$string_output_adapter@D@__crt_stdio_output@@@2@@__crt_stdio_output@@AAE_NXZ 1006cab0 f i libucrtd:output.obj
 0001:0006bae0       ?type_case_p@?$output_processor@_WV?$stream_output_adapter@_W@__crt_stdio_output@@V?$format_validation_base@_WV?$stream_output_adapter@_W@__crt_stdio_output@@@2@@__crt_stdio_output@@AAE_NXZ 1006cae0 f i libucrtd:output.obj
 0001:0006bb10       ?type_case_p@?$output_processor@_WV?$stream_output_adapter@_W@__crt_stdio_output@@V?$positional_parameter_base@_WV?$stream_output_adapter@_W@__crt_stdio_output@@@2@@__crt_stdio_output@@AAE_NXZ 1006cb10 f i libucrtd:output.obj
 0001:0006bb40       ?type_case_p@?$output_processor@_WV?$stream_output_adapter@_W@__crt_stdio_output@@V?$standard_base@_WV?$stream_output_adapter@_W@__crt_stdio_output@@@2@@__crt_stdio_output@@AAE_NXZ 1006cb40 f i libucrtd:output.obj
 0001:0006bb70       ?type_case_p@?$output_processor@_WV?$string_output_adapter@_W@__crt_stdio_output@@V?$format_validation_base@_WV?$string_output_adapter@_W@__crt_stdio_output@@@2@@__crt_stdio_output@@AAE_NXZ 1006cb70 f i libucrtd:output.obj
 0001:0006bba0       ?type_case_p@?$output_processor@_WV?$string_output_adapter@_W@__crt_stdio_output@@V?$positional_parameter_base@_WV?$string_output_adapter@_W@__crt_stdio_output@@@2@@__crt_stdio_output@@AAE_NXZ 1006cba0 f i libucrtd:output.obj
 0001:0006bbd0       ?type_case_p@?$output_processor@_WV?$string_output_adapter@_W@__crt_stdio_output@@V?$standard_base@_WV?$string_output_adapter@_W@__crt_stdio_output@@@2@@__crt_stdio_output@@AAE_NXZ 1006cbd0 f i libucrtd:output.obj
 0001:0006bc00       ?type_case_s@?$output_processor@DV?$stream_output_adapter@D@__crt_stdio_output@@V?$format_validation_base@DV?$stream_output_adapter@D@__crt_stdio_output@@@2@@__crt_stdio_output@@AAE_NXZ 1006cc00 f i libucrtd:output.obj
 0001:0006bcf0       ?type_case_s@?$output_processor@DV?$stream_output_adapter@D@__crt_stdio_output@@V?$positional_parameter_base@DV?$stream_output_adapter@D@__crt_stdio_output@@@2@@__crt_stdio_output@@AAE_NXZ 1006ccf0 f i libucrtd:output.obj
 0001:0006bde0       ?type_case_s@?$output_processor@DV?$stream_output_adapter@D@__crt_stdio_output@@V?$standard_base@DV?$stream_output_adapter@D@__crt_stdio_output@@@2@@__crt_stdio_output@@AAE_NXZ 1006cde0 f i libucrtd:output.obj
 0001:0006bed0       ?type_case_s@?$output_processor@DV?$string_output_adapter@D@__crt_stdio_output@@V?$format_validation_base@DV?$string_output_adapter@D@__crt_stdio_output@@@2@@__crt_stdio_output@@AAE_NXZ 1006ced0 f i libucrtd:output.obj
 0001:0006bfc0       ?type_case_s@?$output_processor@DV?$string_output_adapter@D@__crt_stdio_output@@V?$positional_parameter_base@DV?$string_output_adapter@D@__crt_stdio_output@@@2@@__crt_stdio_output@@AAE_NXZ 1006cfc0 f i libucrtd:output.obj
 0001:0006c0b0       ?type_case_s@?$output_processor@DV?$string_output_adapter@D@__crt_stdio_output@@V?$standard_base@DV?$string_output_adapter@D@__crt_stdio_output@@@2@@__crt_stdio_output@@AAE_NXZ 1006d0b0 f i libucrtd:output.obj
 0001:0006c1a0       ?type_case_s@?$output_processor@_WV?$stream_output_adapter@_W@__crt_stdio_output@@V?$format_validation_base@_WV?$stream_output_adapter@_W@__crt_stdio_output@@@2@@__crt_stdio_output@@AAE_NXZ 1006d1a0 f i libucrtd:output.obj
 0001:0006c290       ?type_case_s@?$output_processor@_WV?$stream_output_adapter@_W@__crt_stdio_output@@V?$positional_parameter_base@_WV?$stream_output_adapter@_W@__crt_stdio_output@@@2@@__crt_stdio_output@@AAE_NXZ 1006d290 f i libucrtd:output.obj
 0001:0006c380       ?type_case_s@?$output_processor@_WV?$stream_output_adapter@_W@__crt_stdio_output@@V?$standard_base@_WV?$stream_output_adapter@_W@__crt_stdio_output@@@2@@__crt_stdio_output@@AAE_NXZ 1006d380 f i libucrtd:output.obj
 0001:0006c470       ?type_case_s@?$output_processor@_WV?$string_output_adapter@_W@__crt_stdio_output@@V?$format_validation_base@_WV?$string_output_adapter@_W@__crt_stdio_output@@@2@@__crt_stdio_output@@AAE_NXZ 1006d470 f i libucrtd:output.obj
 0001:0006c560       ?type_case_s@?$output_processor@_WV?$string_output_adapter@_W@__crt_stdio_output@@V?$positional_parameter_base@_WV?$string_output_adapter@_W@__crt_stdio_output@@@2@@__crt_stdio_output@@AAE_NXZ 1006d560 f i libucrtd:output.obj
 0001:0006c650       ?type_case_s@?$output_processor@_WV?$string_output_adapter@_W@__crt_stdio_output@@V?$standard_base@_WV?$string_output_adapter@_W@__crt_stdio_output@@@2@@__crt_stdio_output@@AAE_NXZ 1006d650 f i libucrtd:output.obj
 0001:0006c740       ?type_case_s_compute_narrow_string_length@?$output_processor@DV?$stream_output_adapter@D@__crt_stdio_output@@V?$format_validation_base@DV?$stream_output_adapter@D@__crt_stdio_output@@@2@@__crt_stdio_output@@AAEHHD@Z 1006d740 f i libucrtd:output.obj
 0001:0006c770       ?type_case_s_compute_narrow_string_length@?$output_processor@DV?$stream_output_adapter@D@__crt_stdio_output@@V?$positional_parameter_base@DV?$stream_output_adapter@D@__crt_stdio_output@@@2@@__crt_stdio_output@@AAEHHD@Z 1006d770 f i libucrtd:output.obj
 0001:0006c7a0       ?type_case_s_compute_narrow_string_length@?$output_processor@DV?$stream_output_adapter@D@__crt_stdio_output@@V?$standard_base@DV?$stream_output_adapter@D@__crt_stdio_output@@@2@@__crt_stdio_output@@AAEHHD@Z 1006d7a0 f i libucrtd:output.obj
 0001:0006c7d0       ?type_case_s_compute_narrow_string_length@?$output_processor@DV?$string_output_adapter@D@__crt_stdio_output@@V?$format_validation_base@DV?$string_output_adapter@D@__crt_stdio_output@@@2@@__crt_stdio_output@@AAEHHD@Z 1006d7d0 f i libucrtd:output.obj
 0001:0006c800       ?type_case_s_compute_narrow_string_length@?$output_processor@DV?$string_output_adapter@D@__crt_stdio_output@@V?$positional_parameter_base@DV?$string_output_adapter@D@__crt_stdio_output@@@2@@__crt_stdio_output@@AAEHHD@Z 1006d800 f i libucrtd:output.obj
 0001:0006c830       ?type_case_s_compute_narrow_string_length@?$output_processor@DV?$string_output_adapter@D@__crt_stdio_output@@V?$standard_base@DV?$string_output_adapter@D@__crt_stdio_output@@@2@@__crt_stdio_output@@AAEHHD@Z 1006d830 f i libucrtd:output.obj
 0001:0006c860       ?type_case_s_compute_narrow_string_length@?$output_processor@_WV?$stream_output_adapter@_W@__crt_stdio_output@@V?$format_validation_base@_WV?$stream_output_adapter@_W@__crt_stdio_output@@@2@@__crt_stdio_output@@AAEHH_W@Z 1006d860 f i libucrtd:output.obj
 0001:0006c8e0       ?type_case_s_compute_narrow_string_length@?$output_processor@_WV?$stream_output_adapter@_W@__crt_stdio_output@@V?$positional_parameter_base@_WV?$stream_output_adapter@_W@__crt_stdio_output@@@2@@__crt_stdio_output@@AAEHH_W@Z 1006d8e0 f i libucrtd:output.obj
 0001:0006c960       ?type_case_s_compute_narrow_string_length@?$output_processor@_WV?$stream_output_adapter@_W@__crt_stdio_output@@V?$standard_base@_WV?$stream_output_adapter@_W@__crt_stdio_output@@@2@@__crt_stdio_output@@AAEHH_W@Z 1006d960 f i libucrtd:output.obj
 0001:0006c9e0       ?type_case_s_compute_narrow_string_length@?$output_processor@_WV?$string_output_adapter@_W@__crt_stdio_output@@V?$format_validation_base@_WV?$string_output_adapter@_W@__crt_stdio_output@@@2@@__crt_stdio_output@@AAEHH_W@Z 1006d9e0 f i libucrtd:output.obj
 0001:0006ca60       ?type_case_s_compute_narrow_string_length@?$output_processor@_WV?$string_output_adapter@_W@__crt_stdio_output@@V?$positional_parameter_base@_WV?$string_output_adapter@_W@__crt_stdio_output@@@2@@__crt_stdio_output@@AAEHH_W@Z 1006da60 f i libucrtd:output.obj
 0001:0006cae0       ?type_case_s_compute_narrow_string_length@?$output_processor@_WV?$string_output_adapter@_W@__crt_stdio_output@@V?$standard_base@_WV?$string_output_adapter@_W@__crt_stdio_output@@@2@@__crt_stdio_output@@AAEHH_W@Z 1006dae0 f i libucrtd:output.obj
 0001:0006cb60       ?type_case_u@?$output_processor@DV?$stream_output_adapter@D@__crt_stdio_output@@V?$format_validation_base@DV?$stream_output_adapter@D@__crt_stdio_output@@@2@@__crt_stdio_output@@AAE_NXZ 1006db60 f i libucrtd:output.obj
 0001:0006cb80       ?type_case_u@?$output_processor@DV?$stream_output_adapter@D@__crt_stdio_output@@V?$positional_parameter_base@DV?$stream_output_adapter@D@__crt_stdio_output@@@2@@__crt_stdio_output@@AAE_NXZ 1006db80 f i libucrtd:output.obj
 0001:0006cba0       ?type_case_u@?$output_processor@DV?$stream_output_adapter@D@__crt_stdio_output@@V?$standard_base@DV?$stream_output_adapter@D@__crt_stdio_output@@@2@@__crt_stdio_output@@AAE_NXZ 1006dba0 f i libucrtd:output.obj
 0001:0006cbc0       ?type_case_u@?$output_processor@DV?$string_output_adapter@D@__crt_stdio_output@@V?$format_validation_base@DV?$string_output_adapter@D@__crt_stdio_output@@@2@@__crt_stdio_output@@AAE_NXZ 1006dbc0 f i libucrtd:output.obj
 0001:0006cbe0       ?type_case_u@?$output_processor@DV?$string_output_adapter@D@__crt_stdio_output@@V?$positional_parameter_base@DV?$string_output_adapter@D@__crt_stdio_output@@@2@@__crt_stdio_output@@AAE_NXZ 1006dbe0 f i libucrtd:output.obj
 0001:0006cc00       ?type_case_u@?$output_processor@DV?$string_output_adapter@D@__crt_stdio_output@@V?$standard_base@DV?$string_output_adapter@D@__crt_stdio_output@@@2@@__crt_stdio_output@@AAE_NXZ 1006dc00 f i libucrtd:output.obj
 0001:0006cc20       ?type_case_u@?$output_processor@_WV?$stream_output_adapter@_W@__crt_stdio_output@@V?$format_validation_base@_WV?$stream_output_adapter@_W@__crt_stdio_output@@@2@@__crt_stdio_output@@AAE_NXZ 1006dc20 f i libucrtd:output.obj
 0001:0006cc40       ?type_case_u@?$output_processor@_WV?$stream_output_adapter@_W@__crt_stdio_output@@V?$positional_parameter_base@_WV?$stream_output_adapter@_W@__crt_stdio_output@@@2@@__crt_stdio_output@@AAE_NXZ 1006dc40 f i libucrtd:output.obj
 0001:0006cc60       ?type_case_u@?$output_processor@_WV?$stream_output_adapter@_W@__crt_stdio_output@@V?$standard_base@_WV?$stream_output_adapter@_W@__crt_stdio_output@@@2@@__crt_stdio_output@@AAE_NXZ 1006dc60 f i libucrtd:output.obj
 0001:0006cc80       ?type_case_u@?$output_processor@_WV?$string_output_adapter@_W@__crt_stdio_output@@V?$format_validation_base@_WV?$string_output_adapter@_W@__crt_stdio_output@@@2@@__crt_stdio_output@@AAE_NXZ 1006dc80 f i libucrtd:output.obj
 0001:0006cca0       ?type_case_u@?$output_processor@_WV?$string_output_adapter@_W@__crt_stdio_output@@V?$positional_parameter_base@_WV?$string_output_adapter@_W@__crt_stdio_output@@@2@@__crt_stdio_output@@AAE_NXZ 1006dca0 f i libucrtd:output.obj
 0001:0006ccc0       ?type_case_u@?$output_processor@_WV?$string_output_adapter@_W@__crt_stdio_output@@V?$standard_base@_WV?$string_output_adapter@_W@__crt_stdio_output@@@2@@__crt_stdio_output@@AAE_NXZ 1006dcc0 f i libucrtd:output.obj
 0001:0006cce0       ?type_case_x@?$output_processor@DV?$stream_output_adapter@D@__crt_stdio_output@@V?$format_validation_base@DV?$stream_output_adapter@D@__crt_stdio_output@@@2@@__crt_stdio_output@@AAE_NXZ 1006dce0 f i libucrtd:output.obj
 0001:0006cd00       ?type_case_x@?$output_processor@DV?$stream_output_adapter@D@__crt_stdio_output@@V?$positional_parameter_base@DV?$stream_output_adapter@D@__crt_stdio_output@@@2@@__crt_stdio_output@@AAE_NXZ 1006dd00 f i libucrtd:output.obj
 0001:0006cd20       ?type_case_x@?$output_processor@DV?$stream_output_adapter@D@__crt_stdio_output@@V?$standard_base@DV?$stream_output_adapter@D@__crt_stdio_output@@@2@@__crt_stdio_output@@AAE_NXZ 1006dd20 f i libucrtd:output.obj
 0001:0006cd40       ?type_case_x@?$output_processor@DV?$string_output_adapter@D@__crt_stdio_output@@V?$format_validation_base@DV?$string_output_adapter@D@__crt_stdio_output@@@2@@__crt_stdio_output@@AAE_NXZ 1006dd40 f i libucrtd:output.obj
 0001:0006cd60       ?type_case_x@?$output_processor@DV?$string_output_adapter@D@__crt_stdio_output@@V?$positional_parameter_base@DV?$string_output_adapter@D@__crt_stdio_output@@@2@@__crt_stdio_output@@AAE_NXZ 1006dd60 f i libucrtd:output.obj
 0001:0006cd80       ?type_case_x@?$output_processor@DV?$string_output_adapter@D@__crt_stdio_output@@V?$standard_base@DV?$string_output_adapter@D@__crt_stdio_output@@@2@@__crt_stdio_output@@AAE_NXZ 1006dd80 f i libucrtd:output.obj
 0001:0006cda0       ?type_case_x@?$output_processor@_WV?$stream_output_adapter@_W@__crt_stdio_output@@V?$format_validation_base@_WV?$stream_output_adapter@_W@__crt_stdio_output@@@2@@__crt_stdio_output@@AAE_NXZ 1006dda0 f i libucrtd:output.obj
 0001:0006cdc0       ?type_case_x@?$output_processor@_WV?$stream_output_adapter@_W@__crt_stdio_output@@V?$positional_parameter_base@_WV?$stream_output_adapter@_W@__crt_stdio_output@@@2@@__crt_stdio_output@@AAE_NXZ 1006ddc0 f i libucrtd:output.obj
 0001:0006cde0       ?type_case_x@?$output_processor@_WV?$stream_output_adapter@_W@__crt_stdio_output@@V?$standard_base@_WV?$stream_output_adapter@_W@__crt_stdio_output@@@2@@__crt_stdio_output@@AAE_NXZ 1006dde0 f i libucrtd:output.obj
 0001:0006ce00       ?type_case_x@?$output_processor@_WV?$string_output_adapter@_W@__crt_stdio_output@@V?$format_validation_base@_WV?$string_output_adapter@_W@__crt_stdio_output@@@2@@__crt_stdio_output@@AAE_NXZ 1006de00 f i libucrtd:output.obj
 0001:0006ce20       ?type_case_x@?$output_processor@_WV?$string_output_adapter@_W@__crt_stdio_output@@V?$positional_parameter_base@_WV?$string_output_adapter@_W@__crt_stdio_output@@@2@@__crt_stdio_output@@AAE_NXZ 1006de20 f i libucrtd:output.obj
 0001:0006ce40       ?type_case_x@?$output_processor@_WV?$string_output_adapter@_W@__crt_stdio_output@@V?$standard_base@_WV?$string_output_adapter@_W@__crt_stdio_output@@@2@@__crt_stdio_output@@AAE_NXZ 1006de40 f i libucrtd:output.obj
 0001:0006ce60       ?unget@?$c_string_character_source@D@__crt_strtox@@QAEXD@Z 1006de60 f i libucrtd:output.obj
 0001:0006cf10       ?unget@?$c_string_character_source@_W@__crt_strtox@@QAEX_W@Z 1006df10 f i libucrtd:output.obj
 0001:0006cfc0       ?unsafe_value@?$cached@H@__crt_cached_ptd_host@@QAEHXZ 1006dfc0 f i libucrtd:output.obj
 0001:0006cfe0       ?unsafe_value@?$cached@K@__crt_cached_ptd_host@@QAEKXZ 1006dfe0 f i libucrtd:output.obj
 0001:0006d000       ?unset_flag@?$output_processor@DV?$stream_output_adapter@D@__crt_stdio_output@@V?$format_validation_base@DV?$stream_output_adapter@D@__crt_stdio_output@@@2@@__crt_stdio_output@@AAEXI@Z 1006e000 f i libucrtd:output.obj
 0001:0006d020       ?unset_flag@?$output_processor@DV?$stream_output_adapter@D@__crt_stdio_output@@V?$positional_parameter_base@DV?$stream_output_adapter@D@__crt_stdio_output@@@2@@__crt_stdio_output@@AAEXI@Z 1006e020 f i libucrtd:output.obj
 0001:0006d040       ?unset_flag@?$output_processor@DV?$stream_output_adapter@D@__crt_stdio_output@@V?$standard_base@DV?$stream_output_adapter@D@__crt_stdio_output@@@2@@__crt_stdio_output@@AAEXI@Z 1006e040 f i libucrtd:output.obj
 0001:0006d060       ?unset_flag@?$output_processor@DV?$string_output_adapter@D@__crt_stdio_output@@V?$format_validation_base@DV?$string_output_adapter@D@__crt_stdio_output@@@2@@__crt_stdio_output@@AAEXI@Z 1006e060 f i libucrtd:output.obj
 0001:0006d080       ?unset_flag@?$output_processor@DV?$string_output_adapter@D@__crt_stdio_output@@V?$positional_parameter_base@DV?$string_output_adapter@D@__crt_stdio_output@@@2@@__crt_stdio_output@@AAEXI@Z 1006e080 f i libucrtd:output.obj
 0001:0006d0a0       ?unset_flag@?$output_processor@DV?$string_output_adapter@D@__crt_stdio_output@@V?$standard_base@DV?$string_output_adapter@D@__crt_stdio_output@@@2@@__crt_stdio_output@@AAEXI@Z 1006e0a0 f i libucrtd:output.obj
 0001:0006d0c0       ?unset_flag@?$output_processor@_WV?$stream_output_adapter@_W@__crt_stdio_output@@V?$format_validation_base@_WV?$stream_output_adapter@_W@__crt_stdio_output@@@2@@__crt_stdio_output@@AAEXI@Z 1006e0c0 f i libucrtd:output.obj
 0001:0006d0e0       ?unset_flag@?$output_processor@_WV?$stream_output_adapter@_W@__crt_stdio_output@@V?$positional_parameter_base@_WV?$stream_output_adapter@_W@__crt_stdio_output@@@2@@__crt_stdio_output@@AAEXI@Z 1006e0e0 f i libucrtd:output.obj
 0001:0006d100       ?unset_flag@?$output_processor@_WV?$stream_output_adapter@_W@__crt_stdio_output@@V?$standard_base@_WV?$stream_output_adapter@_W@__crt_stdio_output@@@2@@__crt_stdio_output@@AAEXI@Z 1006e100 f i libucrtd:output.obj
 0001:0006d120       ?unset_flag@?$output_processor@_WV?$string_output_adapter@_W@__crt_stdio_output@@V?$format_validation_base@_WV?$string_output_adapter@_W@__crt_stdio_output@@@2@@__crt_stdio_output@@AAEXI@Z 1006e120 f i libucrtd:output.obj
 0001:0006d140       ?unset_flag@?$output_processor@_WV?$string_output_adapter@_W@__crt_stdio_output@@V?$positional_parameter_base@_WV?$string_output_adapter@_W@__crt_stdio_output@@@2@@__crt_stdio_output@@AAEXI@Z 1006e140 f i libucrtd:output.obj
 0001:0006d160       ?unset_flag@?$output_processor@_WV?$string_output_adapter@_W@__crt_stdio_output@@V?$standard_base@_WV?$string_output_adapter@_W@__crt_stdio_output@@@2@@__crt_stdio_output@@AAEXI@Z 1006e160 f i libucrtd:output.obj
 0001:0006d180       ?update_field_width@?$positional_parameter_base@DV?$stream_output_adapter@D@__crt_stdio_output@@@__crt_stdio_output@@IAE_NXZ 1006e180 f i libucrtd:output.obj
 0001:0006d310       ?update_field_width@?$positional_parameter_base@DV?$string_output_adapter@D@__crt_stdio_output@@@__crt_stdio_output@@IAE_NXZ 1006e310 f i libucrtd:output.obj
 0001:0006d4a0       ?update_field_width@?$positional_parameter_base@_WV?$stream_output_adapter@_W@__crt_stdio_output@@@__crt_stdio_output@@IAE_NXZ 1006e4a0 f i libucrtd:output.obj
 0001:0006d630       ?update_field_width@?$positional_parameter_base@_WV?$string_output_adapter@_W@__crt_stdio_output@@@__crt_stdio_output@@IAE_NXZ 1006e630 f i libucrtd:output.obj
 0001:0006d7c0       ?update_field_width@?$standard_base@DV?$stream_output_adapter@D@__crt_stdio_output@@@__crt_stdio_output@@IAE_NXZ 1006e7c0 f i libucrtd:output.obj
 0001:0006d7f0       ?update_field_width@?$standard_base@DV?$string_output_adapter@D@__crt_stdio_output@@@__crt_stdio_output@@IAE_NXZ 1006e7f0 f i libucrtd:output.obj
 0001:0006d820       ?update_field_width@?$standard_base@_WV?$stream_output_adapter@_W@__crt_stdio_output@@@__crt_stdio_output@@IAE_NXZ 1006e820 f i libucrtd:output.obj
 0001:0006d850       ?update_field_width@?$standard_base@_WV?$string_output_adapter@_W@__crt_stdio_output@@@__crt_stdio_output@@IAE_NXZ 1006e850 f i libucrtd:output.obj
 0001:0006d880       ?update_locale@__crt_cached_ptd_host@@AAEXXZ 1006e880 f i libucrtd:output.obj
 0001:0006d8a0       ?update_locale_slow@__crt_cached_ptd_host@@AAEXXZ 1006e8a0 f i libucrtd:output.obj
 0001:0006d930       ?update_precision@?$positional_parameter_base@DV?$stream_output_adapter@D@__crt_stdio_output@@@__crt_stdio_output@@IAE_NXZ 1006e930 f i libucrtd:output.obj
 0001:0006dac0       ?update_precision@?$positional_parameter_base@DV?$string_output_adapter@D@__crt_stdio_output@@@__crt_stdio_output@@IAE_NXZ 1006eac0 f i libucrtd:output.obj
 0001:0006dc50       ?update_precision@?$positional_parameter_base@_WV?$stream_output_adapter@_W@__crt_stdio_output@@@__crt_stdio_output@@IAE_NXZ 1006ec50 f i libucrtd:output.obj
 0001:0006dde0       ?update_precision@?$positional_parameter_base@_WV?$string_output_adapter@_W@__crt_stdio_output@@@__crt_stdio_output@@IAE_NXZ 1006ede0 f i libucrtd:output.obj
 0001:0006df70       ?update_precision@?$standard_base@DV?$stream_output_adapter@D@__crt_stdio_output@@@__crt_stdio_output@@IAE_NXZ 1006ef70 f i libucrtd:output.obj
 0001:0006dfa0       ?update_precision@?$standard_base@DV?$string_output_adapter@D@__crt_stdio_output@@@__crt_stdio_output@@IAE_NXZ 1006efa0 f i libucrtd:output.obj
 0001:0006dfd0       ?update_precision@?$standard_base@_WV?$stream_output_adapter@_W@__crt_stdio_output@@@__crt_stdio_output@@IAE_NXZ 1006efd0 f i libucrtd:output.obj
 0001:0006e000       ?update_precision@?$standard_base@_WV?$string_output_adapter@_W@__crt_stdio_output@@@__crt_stdio_output@@IAE_NXZ 1006f000 f i libucrtd:output.obj
 0001:0006e030       ?valid@?$cached@H@__crt_cached_ptd_host@@QBE_NXZ 1006f030 f i libucrtd:output.obj
 0001:0006e050       ?valid@?$cached@K@__crt_cached_ptd_host@@QBE_NXZ 1006f050 f i libucrtd:output.obj
 0001:0006e070       ?valid@__crt_stdio_stream@@QBE_NXZ 1006f070 f i libucrtd:output.obj
 0001:0006e0a0       ?validate@?$c_string_character_source@D@__crt_strtox@@QBE_NXZ 1006f0a0 f i libucrtd:output.obj
 0001:0006e130       ?validate@?$c_string_character_source@_W@__crt_strtox@@QBE_NXZ 1006f130 f i libucrtd:output.obj
 0001:0006e1c0       ?validate@?$stream_output_adapter@D@__crt_stdio_output@@QBE_NAAV__crt_cached_ptd_host@@@Z 1006f1c0 f i libucrtd:output.obj
 0001:0006e280       ?validate@?$stream_output_adapter@_W@__crt_stdio_output@@QBE_NAAV__crt_cached_ptd_host@@@Z 1006f280 f i libucrtd:output.obj
 0001:0006e340       ?validate@?$string_output_adapter@D@__crt_stdio_output@@QBE_NAAV__crt_cached_ptd_host@@@Z 1006f340 f i libucrtd:output.obj
 0001:0006e3e0       ?validate@?$string_output_adapter@_W@__crt_stdio_output@@QBE_NAAV__crt_cached_ptd_host@@@Z 1006f3e0 f i libucrtd:output.obj
 0001:0006e480       ?validate_and_store_parameter_data@?$positional_parameter_base@DV?$stream_output_adapter@D@__crt_stdio_output@@@__crt_stdio_output@@AAE_NAAUparameter_data@12@W4parameter_type@12@DW4length_modifier@2@@Z 1006f480 f i libucrtd:output.obj
 0001:0006e570       ?validate_and_store_parameter_data@?$positional_parameter_base@DV?$string_output_adapter@D@__crt_stdio_output@@@__crt_stdio_output@@AAE_NAAUparameter_data@12@W4parameter_type@12@DW4length_modifier@2@@Z 1006f570 f i libucrtd:output.obj
 0001:0006e660       ?validate_and_store_parameter_data@?$positional_parameter_base@_WV?$stream_output_adapter@_W@__crt_stdio_output@@@__crt_stdio_output@@AAE_NAAUparameter_data@12@W4parameter_type@12@_WW4length_modifier@2@@Z 1006f660 f i libucrtd:output.obj
 0001:0006e750       ?validate_and_store_parameter_data@?$positional_parameter_base@_WV?$string_output_adapter@_W@__crt_stdio_output@@@__crt_stdio_output@@AAE_NAAUparameter_data@12@W4parameter_type@12@_WW4length_modifier@2@@Z 1006f750 f i libucrtd:output.obj
 0001:0006e840       ?validate_and_update_state_at_beginning_of_format_character@?$positional_parameter_base@DV?$stream_output_adapter@D@__crt_stdio_output@@@__crt_stdio_output@@IAE_NXZ 1006f840 f i libucrtd:output.obj
 0001:0006ea70       ?validate_and_update_state_at_beginning_of_format_character@?$positional_parameter_base@DV?$string_output_adapter@D@__crt_stdio_output@@@__crt_stdio_output@@IAE_NXZ 1006fa70 f i libucrtd:output.obj
 0001:0006eca0       ?validate_and_update_state_at_beginning_of_format_character@?$positional_parameter_base@_WV?$stream_output_adapter@_W@__crt_stdio_output@@@__crt_stdio_output@@IAE_NXZ 1006fca0 f i libucrtd:output.obj
 0001:0006eed0       ?validate_and_update_state_at_beginning_of_format_character@?$positional_parameter_base@_WV?$string_output_adapter@_W@__crt_stdio_output@@@__crt_stdio_output@@IAE_NXZ 1006fed0 f i libucrtd:output.obj
 0001:0006f100       ?validate_and_update_state_at_beginning_of_format_character@?$standard_base@DV?$stream_output_adapter@D@__crt_stdio_output@@@__crt_stdio_output@@IAE_NXZ 10070100 f i libucrtd:output.obj
 0001:0006f110       ?validate_and_update_state_at_beginning_of_format_character@?$standard_base@DV?$string_output_adapter@D@__crt_stdio_output@@@__crt_stdio_output@@IAE_NXZ 10070110 f i libucrtd:output.obj
 0001:0006f120       ?validate_and_update_state_at_beginning_of_format_character@?$standard_base@_WV?$stream_output_adapter@_W@__crt_stdio_output@@@__crt_stdio_output@@IAE_NXZ 10070120 f i libucrtd:output.obj
 0001:0006f130       ?validate_and_update_state_at_beginning_of_format_character@?$standard_base@_WV?$string_output_adapter@_W@__crt_stdio_output@@@__crt_stdio_output@@IAE_NXZ 10070130 f i libucrtd:output.obj
 0001:0006f140       ?validate_and_update_state_at_end_of_format_string@?$format_validation_base@DV?$stream_output_adapter@D@__crt_stdio_output@@@__crt_stdio_output@@IAE_NXZ 10070140 f i libucrtd:output.obj
 0001:0006f1f0       ?validate_and_update_state_at_end_of_format_string@?$format_validation_base@DV?$string_output_adapter@D@__crt_stdio_output@@@__crt_stdio_output@@IAE_NXZ 100701f0 f i libucrtd:output.obj
 0001:0006f2a0       ?validate_and_update_state_at_end_of_format_string@?$format_validation_base@_WV?$stream_output_adapter@_W@__crt_stdio_output@@@__crt_stdio_output@@IAE_NXZ 100702a0 f i libucrtd:output.obj
 0001:0006f350       ?validate_and_update_state_at_end_of_format_string@?$format_validation_base@_WV?$string_output_adapter@_W@__crt_stdio_output@@@__crt_stdio_output@@IAE_NXZ 10070350 f i libucrtd:output.obj
 0001:0006f400       ?validate_and_update_state_at_end_of_format_string@?$positional_parameter_base@DV?$stream_output_adapter@D@__crt_stdio_output@@@__crt_stdio_output@@IAE_NXZ 10070400 f i libucrtd:output.obj
 0001:0006f5b0       ?validate_and_update_state_at_end_of_format_string@?$positional_parameter_base@DV?$string_output_adapter@D@__crt_stdio_output@@@__crt_stdio_output@@IAE_NXZ 100705b0 f i libucrtd:output.obj
 0001:0006f760       ?validate_and_update_state_at_end_of_format_string@?$positional_parameter_base@_WV?$stream_output_adapter@_W@__crt_stdio_output@@@__crt_stdio_output@@IAE_NXZ 10070760 f i libucrtd:output.obj
 0001:0006f910       ?validate_and_update_state_at_end_of_format_string@?$positional_parameter_base@_WV?$string_output_adapter@_W@__crt_stdio_output@@@__crt_stdio_output@@IAE_NXZ 10070910 f i libucrtd:output.obj
 0001:0006fac0       ?validate_and_update_state_at_end_of_format_string@?$standard_base@DV?$stream_output_adapter@D@__crt_stdio_output@@@__crt_stdio_output@@IBE_NXZ 10070ac0 f i libucrtd:output.obj
 0001:0006fad0       ?validate_and_update_state_at_end_of_format_string@?$standard_base@DV?$string_output_adapter@D@__crt_stdio_output@@@__crt_stdio_output@@IBE_NXZ 10070ad0 f i libucrtd:output.obj
 0001:0006fae0       ?validate_and_update_state_at_end_of_format_string@?$standard_base@_WV?$stream_output_adapter@_W@__crt_stdio_output@@@__crt_stdio_output@@IBE_NXZ 10070ae0 f i libucrtd:output.obj
 0001:0006faf0       ?validate_and_update_state_at_end_of_format_string@?$standard_base@_WV?$string_output_adapter@_W@__crt_stdio_output@@@__crt_stdio_output@@IBE_NXZ 10070af0 f i libucrtd:output.obj
 0001:0006fb00       ?validate_state_for_type_case_a@?$positional_parameter_base@DV?$stream_output_adapter@D@__crt_stdio_output@@@__crt_stdio_output@@IAE_NXZ 10070b00 f i libucrtd:output.obj
 0001:0006fc10       ?validate_state_for_type_case_a@?$positional_parameter_base@DV?$string_output_adapter@D@__crt_stdio_output@@@__crt_stdio_output@@IAE_NXZ 10070c10 f i libucrtd:output.obj
 0001:0006fd20       ?validate_state_for_type_case_a@?$positional_parameter_base@_WV?$stream_output_adapter@_W@__crt_stdio_output@@@__crt_stdio_output@@IAE_NXZ 10070d20 f i libucrtd:output.obj
 0001:0006fe30       ?validate_state_for_type_case_a@?$positional_parameter_base@_WV?$string_output_adapter@_W@__crt_stdio_output@@@__crt_stdio_output@@IAE_NXZ 10070e30 f i libucrtd:output.obj
 0001:0006ff40       ?validate_state_for_type_case_a@?$standard_base@DV?$stream_output_adapter@D@__crt_stdio_output@@@__crt_stdio_output@@IBE_NXZ 10070f40 f i libucrtd:output.obj
 0001:0006ff50       ?validate_state_for_type_case_a@?$standard_base@DV?$string_output_adapter@D@__crt_stdio_output@@@__crt_stdio_output@@IBE_NXZ 10070f50 f i libucrtd:output.obj
 0001:0006ff60       ?validate_state_for_type_case_a@?$standard_base@_WV?$stream_output_adapter@_W@__crt_stdio_output@@@__crt_stdio_output@@IBE_NXZ 10070f60 f i libucrtd:output.obj
 0001:0006ff70       ?validate_state_for_type_case_a@?$standard_base@_WV?$string_output_adapter@_W@__crt_stdio_output@@@__crt_stdio_output@@IBE_NXZ 10070f70 f i libucrtd:output.obj
 0001:0006ff80       ?validate_stream_is_ansi_if_required@?$__acrt_stdio_char_traits@D@@SA_NQAU_iobuf@@@Z 10070f80 f i libucrtd:output.obj
 0001:000700b0       ?validate_stream_is_ansi_if_required@?$__acrt_stdio_char_traits@_W@@SA_NQAU_iobuf@@@Z 100710b0 f i libucrtd:output.obj
 0001:000700c0       ?wide_character_to_digit@__crt_strtox@@YAH_W@Z 100710c0 f i libucrtd:output.obj
 0001:000703f0       ?wide_null_string@?$output_processor@DV?$stream_output_adapter@D@__crt_stdio_output@@V?$format_validation_base@DV?$stream_output_adapter@D@__crt_stdio_output@@@2@@__crt_stdio_output@@CAPA_WXZ 100713f0 f i libucrtd:output.obj
 0001:00070400       ?wide_null_string@?$output_processor@DV?$stream_output_adapter@D@__crt_stdio_output@@V?$positional_parameter_base@DV?$stream_output_adapter@D@__crt_stdio_output@@@2@@__crt_stdio_output@@CAPA_WXZ 10071400 f i libucrtd:output.obj
 0001:00070410       ?wide_null_string@?$output_processor@DV?$stream_output_adapter@D@__crt_stdio_output@@V?$standard_base@DV?$stream_output_adapter@D@__crt_stdio_output@@@2@@__crt_stdio_output@@CAPA_WXZ 10071410 f i libucrtd:output.obj
 0001:00070420       ?wide_null_string@?$output_processor@DV?$string_output_adapter@D@__crt_stdio_output@@V?$format_validation_base@DV?$string_output_adapter@D@__crt_stdio_output@@@2@@__crt_stdio_output@@CAPA_WXZ 10071420 f i libucrtd:output.obj
 0001:00070430       ?wide_null_string@?$output_processor@DV?$string_output_adapter@D@__crt_stdio_output@@V?$positional_parameter_base@DV?$string_output_adapter@D@__crt_stdio_output@@@2@@__crt_stdio_output@@CAPA_WXZ 10071430 f i libucrtd:output.obj
 0001:00070440       ?wide_null_string@?$output_processor@DV?$string_output_adapter@D@__crt_stdio_output@@V?$standard_base@DV?$string_output_adapter@D@__crt_stdio_output@@@2@@__crt_stdio_output@@CAPA_WXZ 10071440 f i libucrtd:output.obj
 0001:00070450       ?wide_null_string@?$output_processor@_WV?$stream_output_adapter@_W@__crt_stdio_output@@V?$format_validation_base@_WV?$stream_output_adapter@_W@__crt_stdio_output@@@2@@__crt_stdio_output@@CAPA_WXZ 10071450 f i libucrtd:output.obj
 0001:00070460       ?wide_null_string@?$output_processor@_WV?$stream_output_adapter@_W@__crt_stdio_output@@V?$positional_parameter_base@_WV?$stream_output_adapter@_W@__crt_stdio_output@@@2@@__crt_stdio_output@@CAPA_WXZ 10071460 f i libucrtd:output.obj
 0001:00070470       ?wide_null_string@?$output_processor@_WV?$stream_output_adapter@_W@__crt_stdio_output@@V?$standard_base@_WV?$stream_output_adapter@_W@__crt_stdio_output@@@2@@__crt_stdio_output@@CAPA_WXZ 10071470 f i libucrtd:output.obj
 0001:00070480       ?wide_null_string@?$output_processor@_WV?$string_output_adapter@_W@__crt_stdio_output@@V?$format_validation_base@_WV?$string_output_adapter@_W@__crt_stdio_output@@@2@@__crt_stdio_output@@CAPA_WXZ 10071480 f i libucrtd:output.obj
 0001:00070490       ?wide_null_string@?$output_processor@_WV?$string_output_adapter@_W@__crt_stdio_output@@V?$positional_parameter_base@_WV?$string_output_adapter@_W@__crt_stdio_output@@@2@@__crt_stdio_output@@CAPA_WXZ 10071490 f i libucrtd:output.obj
 0001:000704a0       ?wide_null_string@?$output_processor@_WV?$string_output_adapter@_W@__crt_stdio_output@@V?$standard_base@_WV?$string_output_adapter@_W@__crt_stdio_output@@@2@@__crt_stdio_output@@CAPA_WXZ 100714a0 f i libucrtd:output.obj
 0001:000704b0       ?write_character@?$output_adapter_common@DV?$stream_output_adapter@D@__crt_stdio_output@@@__crt_stdio_output@@QBEXDQAHAAV__crt_cached_ptd_host@@@Z 100714b0 f i libucrtd:output.obj
 0001:000704f0       ?write_character@?$output_adapter_common@_WV?$stream_output_adapter@_W@__crt_stdio_output@@@__crt_stdio_output@@QBEX_WQAHAAV__crt_cached_ptd_host@@@Z 100714f0 f i libucrtd:output.obj
 0001:00070530       ?write_character@?$string_output_adapter@D@__crt_stdio_output@@QBE_NDQAHAAV__crt_cached_ptd_host@@@Z 10071530 f i libucrtd:output.obj
 0001:000705c0       ?write_character@?$string_output_adapter@_W@__crt_stdio_output@@QBE_N_WQAHAAV__crt_cached_ptd_host@@@Z 100715c0 f i libucrtd:output.obj
 0001:00070660       ?write_character_without_count_update@?$stream_output_adapter@D@__crt_stdio_output@@QBE_NDAAV__crt_cached_ptd_host@@@Z 10071660 f i libucrtd:output.obj
 0001:000706d0       ?write_character_without_count_update@?$stream_output_adapter@_W@__crt_stdio_output@@QBE_N_WAAV__crt_cached_ptd_host@@@Z 100716d0 f i libucrtd:output.obj
 0001:00070740       ?write_stored_string_tchar@?$output_processor@DV?$stream_output_adapter@D@__crt_stdio_output@@V?$format_validation_base@DV?$stream_output_adapter@D@__crt_stdio_output@@@2@@__crt_stdio_output@@AAE_ND@Z 10071740 f i libucrtd:output.obj
 0001:00070860       ?write_stored_string_tchar@?$output_processor@DV?$stream_output_adapter@D@__crt_stdio_output@@V?$positional_parameter_base@DV?$stream_output_adapter@D@__crt_stdio_output@@@2@@__crt_stdio_output@@AAE_ND@Z 10071860 f i libucrtd:output.obj
 0001:00070980       ?write_stored_string_tchar@?$output_processor@DV?$stream_output_adapter@D@__crt_stdio_output@@V?$standard_base@DV?$stream_output_adapter@D@__crt_stdio_output@@@2@@__crt_stdio_output@@AAE_ND@Z 10071980 f i libucrtd:output.obj
 0001:00070aa0       ?write_stored_string_tchar@?$output_processor@DV?$string_output_adapter@D@__crt_stdio_output@@V?$format_validation_base@DV?$string_output_adapter@D@__crt_stdio_output@@@2@@__crt_stdio_output@@AAE_ND@Z 10071aa0 f i libucrtd:output.obj
 0001:00070bc0       ?write_stored_string_tchar@?$output_processor@DV?$string_output_adapter@D@__crt_stdio_output@@V?$positional_parameter_base@DV?$string_output_adapter@D@__crt_stdio_output@@@2@@__crt_stdio_output@@AAE_ND@Z 10071bc0 f i libucrtd:output.obj
 0001:00070ce0       ?write_stored_string_tchar@?$output_processor@DV?$string_output_adapter@D@__crt_stdio_output@@V?$standard_base@DV?$string_output_adapter@D@__crt_stdio_output@@@2@@__crt_stdio_output@@AAE_ND@Z 10071ce0 f i libucrtd:output.obj
 0001:00070e00       ?write_stored_string_tchar@?$output_processor@_WV?$stream_output_adapter@_W@__crt_stdio_output@@V?$format_validation_base@_WV?$stream_output_adapter@_W@__crt_stdio_output@@@2@@__crt_stdio_output@@AAE_N_W@Z 10071e00 f i libucrtd:output.obj
 0001:00070f10       ?write_stored_string_tchar@?$output_processor@_WV?$stream_output_adapter@_W@__crt_stdio_output@@V?$positional_parameter_base@_WV?$stream_output_adapter@_W@__crt_stdio_output@@@2@@__crt_stdio_output@@AAE_N_W@Z 10071f10 f i libucrtd:output.obj
 0001:00071020       ?write_stored_string_tchar@?$output_processor@_WV?$stream_output_adapter@_W@__crt_stdio_output@@V?$standard_base@_WV?$stream_output_adapter@_W@__crt_stdio_output@@@2@@__crt_stdio_output@@AAE_N_W@Z 10072020 f i libucrtd:output.obj
 0001:00071130       ?write_stored_string_tchar@?$output_processor@_WV?$string_output_adapter@_W@__crt_stdio_output@@V?$format_validation_base@_WV?$string_output_adapter@_W@__crt_stdio_output@@@2@@__crt_stdio_output@@AAE_N_W@Z 10072130 f i libucrtd:output.obj
 0001:00071240       ?write_stored_string_tchar@?$output_processor@_WV?$string_output_adapter@_W@__crt_stdio_output@@V?$positional_parameter_base@_WV?$string_output_adapter@_W@__crt_stdio_output@@@2@@__crt_stdio_output@@AAE_N_W@Z 10072240 f i libucrtd:output.obj
 0001:00071350       ?write_stored_string_tchar@?$output_processor@_WV?$string_output_adapter@_W@__crt_stdio_output@@V?$standard_base@_WV?$string_output_adapter@_W@__crt_stdio_output@@@2@@__crt_stdio_output@@AAE_N_W@Z 10072350 f i libucrtd:output.obj
 0001:00071460       ?write_string@?$stream_output_adapter@D@__crt_stdio_output@@QBEXQBDHQAHAAV__crt_cached_ptd_host@@@Z 10072460 f i libucrtd:output.obj
 0001:000714c0       ?write_string@?$stream_output_adapter@_W@__crt_stdio_output@@QBEXQB_WHQAHAAV__crt_cached_ptd_host@@@Z 100724c0 f i libucrtd:output.obj
 0001:00071520       ?write_string@?$string_output_adapter@D@__crt_stdio_output@@QBEXQBDHQAHAAV__crt_cached_ptd_host@@@Z 10072520 f i libucrtd:output.obj
 0001:00071620       ?write_string@?$string_output_adapter@_W@__crt_stdio_output@@QBEXQB_WHQAHAAV__crt_cached_ptd_host@@@Z 10072620 f i libucrtd:output.obj
 0001:00071730       ?write_string_impl@?$output_adapter_common@DV?$stream_output_adapter@D@__crt_stdio_output@@@__crt_stdio_output@@IBEXQBDHQAHAAV__crt_cached_ptd_host@@@Z 10072730 f i libucrtd:output.obj
 0001:000717f0       ?write_string_impl@?$output_adapter_common@_WV?$stream_output_adapter@_W@__crt_stdio_output@@@__crt_stdio_output@@IBEXQB_WHQAHAAV__crt_cached_ptd_host@@@Z 100727f0 f i libucrtd:output.obj
 0001:000718b0       ___acrt_disable_global_locale_sync 100728b0 f i libucrtd:output.obj
 0001:000718d0       ___acrt_enable_global_locale_sync 100728d0 f i libucrtd:output.obj
 0001:000718f0       ___acrt_isleadbyte_l_noupdate 100728f0 f i libucrtd:output.obj
 0001:00071910       ___acrt_locale_changed     10072910 f i libucrtd:output.obj
 0001:00071940       ___acrt_locale_get_ctype_array_value 10072940 f i libucrtd:output.obj
 0001:00071970       ___ascii_iswalpha          10072970 f i libucrtd:output.obj
 0001:000719b0       ___ascii_toupper           100729b0 f i libucrtd:output.obj
 0001:000719d0       ___ascii_towupper          100729d0 f i libucrtd:output.obj
 0001:000719f0       ___stdio_common_vfprintf   100729f0 f   libucrtd:output.obj
 0001:00071a40       ___stdio_common_vfprintf_p 10072a40 f   libucrtd:output.obj
 0001:00071a90       ___stdio_common_vfprintf_s 10072a90 f   libucrtd:output.obj
 0001:00071ae0       ___stdio_common_vfwprintf  10072ae0 f   libucrtd:output.obj
 0001:00071b30       ___stdio_common_vfwprintf_p 10072b30 f   libucrtd:output.obj
 0001:00071b80       ___stdio_common_vfwprintf_s 10072b80 f   libucrtd:output.obj
 0001:00071bd0       ___stdio_common_vsnprintf_s 10072bd0 f   libucrtd:output.obj
 0001:00071c20       ___stdio_common_vsnwprintf_s 10072c20 f   libucrtd:output.obj
 0001:00071c70       ___stdio_common_vsprintf   10072c70 f   libucrtd:output.obj
 0001:00071cc0       ___stdio_common_vsprintf_p 10072cc0 f   libucrtd:output.obj
 0001:00071d10       ___stdio_common_vsprintf_s 10072d10 f   libucrtd:output.obj
 0001:00071d60       ___stdio_common_vswprintf  10072d60 f   libucrtd:output.obj
 0001:00071db0       ___stdio_common_vswprintf_p 10072db0 f   libucrtd:output.obj
 0001:00071e00       ___stdio_common_vswprintf_s 10072e00 f   libucrtd:output.obj
 0001:00071e50       __ctype_fast_check_internal 10072e50 f i libucrtd:output.obj
 0001:00071e70       __isdigit_fast_internal    10072e70 f i libucrtd:output.obj
 0001:00071e90       __tolower_fast_internal    10072e90 f i libucrtd:output.obj
 0001:00071eb0       _free                      10072eb0 f   libucrtd:free.obj
 0001:00071ee0       _malloc                    10072ee0 f   libucrtd:malloc.obj
 0001:00071f00       ??$?RU?$__crt_report_hook_node@D@@@__crt_internal_free_policy@@QBEXQBU?$__crt_report_hook_node@D@@@Z 10072f00 f i libucrtd:dbgrpt.obj
 0001:00071f20       ??$?RU?$__crt_report_hook_node@_W@@@__crt_internal_free_policy@@QBEXQBU?$__crt_report_hook_node@_W@@@Z 10072f20 f i libucrtd:dbgrpt.obj
 0001:00072df0       ??$get_module_file_name@AAPAUHINSTANCE__@@AAY0BAF@DK@?$__crt_char_traits@D@@SAKAAPAUHINSTANCE__@@AAY0BAF@D$$QAK@Z 10073df0 f i libucrtd:dbgrpt.obj
 0001:00072e10       ??$get_module_file_name@AAPAUHINSTANCE__@@AAY0BAF@_WK@?$__crt_char_traits@_W@@SAKAAPAUHINSTANCE__@@AAY0BAF@_W$$QAK@Z 10073e10 f i libucrtd:dbgrpt.obj
 0001:00072e30       ??$tcscpy_s@AAY0BAF@DIPBD@?$__crt_char_traits@D@@SAHAAY0BAF@D$$QAI$$QAPBD@Z 10073e30 f i libucrtd:dbgrpt.obj
 0001:00072e50       ??$tcscpy_s@AAY0BAF@_WIPB_W@?$__crt_char_traits@_W@@SAHAAY0BAF@_W$$QAI$$QAPB_W@Z 10073e50 f i libucrtd:dbgrpt.obj
 0001:00072e70       ??$tcslen@AAY0BAF@D@?$__crt_char_traits@D@@SAIAAY0BAF@D@Z 10073e70 f i libucrtd:dbgrpt.obj
 0001:00072e90       ??$tcslen@AAY0BAF@_W@?$__crt_char_traits@_W@@SAIAAY0BAF@_W@Z 10073e90 f i libucrtd:dbgrpt.obj
 0001:00072eb0       ??$tcslen@ABQBD@?$__crt_char_traits@D@@SAIABQBD@Z 10073eb0 f i libucrtd:dbgrpt.obj
 0001:00072ed0       ??$tcslen@ABQB_W@?$__crt_char_traits@_W@@SAIABQB_W@Z 10073ed0 f i libucrtd:dbgrpt.obj
 0001:00072fd0       ??0?$__crt_unique_heap_ptr@U?$__crt_report_hook_node@D@@U__crt_internal_free_policy@@@@QAE@QAU?$__crt_report_hook_node@D@@@Z 10073fd0 f i libucrtd:dbgrpt.obj
 0001:00072ff0       ??0?$__crt_unique_heap_ptr@U?$__crt_report_hook_node@_W@@U__crt_internal_free_policy@@@@QAE@QAU?$__crt_report_hook_node@_W@@@Z 10073ff0 f i libucrtd:dbgrpt.obj
 0001:00073010       ??1?$__crt_unique_heap_ptr@U?$__crt_report_hook_node@D@@U__crt_internal_free_policy@@@@QAE@XZ 10074010 f i libucrtd:dbgrpt.obj
 0001:00073030       ??1?$__crt_unique_heap_ptr@U?$__crt_report_hook_node@_W@@U__crt_internal_free_policy@@@@QAE@XZ 10074030 f i libucrtd:dbgrpt.obj
 0001:00073050       ??B?$__crt_unique_heap_ptr@U?$__crt_report_hook_node@D@@U__crt_internal_free_policy@@@@QBE_NXZ 10074050 f i libucrtd:dbgrpt.obj
 0001:00073070       ??B?$__crt_unique_heap_ptr@U?$__crt_report_hook_node@_W@@U__crt_internal_free_policy@@@@QBE_NXZ 10074070 f i libucrtd:dbgrpt.obj
 0001:000735d0       ?detach@?$__crt_unique_heap_ptr@U?$__crt_report_hook_node@D@@U__crt_internal_free_policy@@@@QAEPAU?$__crt_report_hook_node@D@@XZ 100745d0 f i libucrtd:dbgrpt.obj
 0001:00073600       ?detach@?$__crt_unique_heap_ptr@U?$__crt_report_hook_node@_W@@U__crt_internal_free_policy@@@@QAEPAU?$__crt_report_hook_node@_W@@XZ 10074600 f i libucrtd:dbgrpt.obj
 0001:00073630       ?get@?$__crt_unique_heap_ptr@U?$__crt_report_hook_node@D@@U__crt_internal_free_policy@@@@QBEPAU?$__crt_report_hook_node@D@@XZ 10074630 f i libucrtd:dbgrpt.obj
 0001:00073650       ?get@?$__crt_unique_heap_ptr@U?$__crt_report_hook_node@_W@@U__crt_internal_free_policy@@@@QBEPAU?$__crt_report_hook_node@_W@@XZ 10074650 f i libucrtd:dbgrpt.obj
 0001:000736d0       ?is_valid@?$__crt_unique_heap_ptr@U?$__crt_report_hook_node@D@@U__crt_internal_free_policy@@@@QBE_NXZ 100746d0 f i libucrtd:dbgrpt.obj
 0001:00073700       ?is_valid@?$__crt_unique_heap_ptr@U?$__crt_report_hook_node@_W@@U__crt_internal_free_policy@@@@QBE_NXZ 10074700 f i libucrtd:dbgrpt.obj
 0001:00073730       ?release@?$__crt_unique_heap_ptr@U?$__crt_report_hook_node@D@@U__crt_internal_free_policy@@@@QAEXXZ 10074730 f i libucrtd:dbgrpt.obj
 0001:00073760       ?release@?$__crt_unique_heap_ptr@U?$__crt_report_hook_node@_W@@U__crt_internal_free_policy@@@@QAEXXZ 10074760 f i libucrtd:dbgrpt.obj
 0001:00073790       __CrtDbgReport             10074790 f   libucrtd:dbgrpt.obj
 0001:000737e0       __CrtDbgReportW            100747e0 f   libucrtd:dbgrpt.obj
 0001:00073830       __CrtSetReportHook2        10074830 f   libucrtd:dbgrpt.obj
 0001:00073850       __CrtSetReportHookW2       10074850 f   libucrtd:dbgrpt.obj
 0001:00073870       ___acrt_MessageWindowA     10074870 f   libucrtd:dbgrpt.obj
 0001:000738a0       ___acrt_MessageWindowW     100748a0 f   libucrtd:dbgrpt.obj
 0001:000738d0       __invoke_watson_if_error   100748d0 f i libucrtd:dbgrpt.obj
 0001:00073900       __invoke_watson_if_oneof   10074900 f i libucrtd:dbgrpt.obj
 0001:00073940       __snwprintf_s              10074940 f i libucrtd:dbgrpt.obj
 0001:00073980       __vsnwprintf_s_l           10074980 f i libucrtd:dbgrpt.obj
 0001:00073d00       _wcscpy_s                  10074d00 f   libucrtd:wcscpy_s.obj
 0001:00074a20       ??1?$__crt_simd_cleanup_guard@$00@@QAE@XZ 10075a20 f i libucrtd:strnlen.obj
 0001:00074a30       ??1?$__crt_simd_cleanup_guard@$0A@@@QAE@XZ 10075a30 f i libucrtd:strnlen.obj
 0001:00074a40       ?compare_equals@?$__crt_simd_traits@$00E@@SA?AT__m256i@@T2@0@Z 10075a40 f i libucrtd:strnlen.obj
 0001:00074a80       ?compare_equals@?$__crt_simd_traits@$00G@@SA?AT__m256i@@T2@0@Z 10075a80 f i libucrtd:strnlen.obj
 0001:00074ac0       ?compare_equals@?$__crt_simd_traits@$0A@E@@SA?AT__m128i@@T2@0@Z 10075ac0 f i libucrtd:strnlen.obj
 0001:00074b00       ?compare_equals@?$__crt_simd_traits@$0A@G@@SA?AT__m128i@@T2@0@Z 10075b00 f i libucrtd:strnlen.obj
 0001:00074b40       ?compute_byte_mask@?$__crt_simd_pack_traits@$00@@SAHT__m256i@@@Z 10075b40 f i libucrtd:strnlen.obj
 0001:00074b70       ?compute_byte_mask@?$__crt_simd_pack_traits@$0A@@@SAHT__m128i@@@Z 10075b70 f i libucrtd:strnlen.obj
 0001:00074ba0       ?get_zero_pack@?$__crt_simd_pack_traits@$00@@SA?AT__m256i@@XZ 10075ba0 f i libucrtd:strnlen.obj
 0001:00074bd0       ?get_zero_pack@?$__crt_simd_pack_traits@$0A@@@SA?AT__m128i@@XZ 10075bd0 f i libucrtd:strnlen.obj
 0001:00074c00       _strnlen                   10075c00 f   libucrtd:strnlen.obj
 0001:00074c20       _wcslen                    10075c20 f   libucrtd:strnlen.obj
 0001:00074c40       _wcsnlen                   10075c40 f   libucrtd:strnlen.obj
 0001:00074c60       ??$__crt_fast_decode_pointer@P6AXPB_W00II@Z@@YAP6AXPB_W00II@ZQ6AX000II@Z@Z 10075c60 f i libucrtd:invalid_parameter.obj
 0001:00074c90       ??$__crt_fast_encode_pointer@P6AXPB_W00II@Z@@YAP6AXPB_W00II@ZQ6AX000II@Z@Z 10075c90 f i libucrtd:invalid_parameter.obj
 0001:00074cc0       ??$initialize_from_array@$$BY00Q6AXPB_W00II@Z@?$dual_state_global@P6AXPB_W00II@Z@__crt_state_management@@QAAXAAY00Q6AXPB_W00II@Z@Z 10075cc0 f i libucrtd:invalid_parameter.obj
 0001:00074d10       ?__crt_rotate_pointer_value@@YAIIH@Z 10075d10 f i libucrtd:invalid_parameter.obj
 0001:00074d20       ?check_synchronize_global_state_index@__crt_cached_ptd_host@@AAEIXZ 10075d20 f i libucrtd:invalid_parameter.obj
 0001:00074d70       ?dangerous_get_state_array@?$dual_state_global@P6AXPB_W00II@Z@__crt_state_management@@QAEPAP6AXPB_W00II@ZXZ 10075d70 f i libucrtd:invalid_parameter.obj
 0001:00074d80       ?get_current_global_state_index@__crt_cached_ptd_host@@QAEIXZ 10075d80 f i libucrtd:invalid_parameter.obj
 0001:00074da0       ?get_current_state_index@__crt_state_management@@YAIXZ 10075da0 f i libucrtd:invalid_parameter.obj
 0001:00074db0       ?get_raw_ptd_noexit@__crt_cached_ptd_host@@QAEPAU__acrt_ptd@@XZ 10075db0 f i libucrtd:invalid_parameter.obj
 0001:00074dd0       ?try_synchronize_per_thread_data@__crt_cached_ptd_host@@AAEPAU__acrt_ptd@@XZ 10075dd0 f i libucrtd:invalid_parameter.obj
 0001:00074e00       ?value@?$dual_state_global@P6AXPB_W00II@Z@__crt_state_management@@QAEAAP6AXPB_W00II@ZAAV__crt_cached_ptd_host@@@Z 10075e00 f i libucrtd:invalid_parameter.obj
 0001:00074e20       ?value@?$dual_state_global@P6AXPB_W00II@Z@__crt_state_management@@QAEAAP6AXPB_W00II@ZXZ 10075e20 f i libucrtd:invalid_parameter.obj
 0001:00074e40       ___acrt_call_reportfault   10075e40 f   libucrtd:invalid_parameter.obj
 0001:00074fa0       ___acrt_initialize_invalid_parameter_handler 10075fa0 f   libucrtd:invalid_parameter.obj
 0001:00074fd0       __get_invalid_parameter_handler 10075fd0 f   libucrtd:invalid_parameter.obj
 0001:00074ff0       __get_thread_local_invalid_parameter_handler 10075ff0 f   libucrtd:invalid_parameter.obj
 0001:00075020       __invalid_parameter        10076020 f   libucrtd:invalid_parameter.obj
 0001:00075060       __invalid_parameter_internal 10076060 f   libucrtd:invalid_parameter.obj
 0001:00075130       __invalid_parameter_noinfo 10076130 f   libucrtd:invalid_parameter.obj
 0001:00075150       __invalid_parameter_noinfo_noreturn 10076150 f   libucrtd:invalid_parameter.obj
 0001:00075180       __invoke_watson            10076180 f   libucrtd:invalid_parameter.obj
 0001:000751c0       __set_invalid_parameter_handler 100761c0 f   libucrtd:invalid_parameter.obj
 0001:00075210       __set_thread_local_invalid_parameter_handler 10076210 f   libucrtd:invalid_parameter.obj
 0001:00075240       ?get_doserrno@__crt_cached_ptd_host@@QAEAAU?$cached@K@1@XZ 10076240 f i libucrtd:errno.obj
 0001:00075260       ?set@?$cached@K@__crt_cached_ptd_host@@QAEKK@Z 10076260 f i libucrtd:errno.obj
 0001:00075290       ___acrt_errno_from_os_error 10076290 f   libucrtd:errno.obj
 0001:00075310       ___acrt_errno_map_os_error 10076310 f   libucrtd:errno.obj
 0001:00075340       ___acrt_errno_map_os_error_ptd 10076340 f   libucrtd:errno.obj
 0001:00075390       ___doserrno                10076390 f   libucrtd:errno.obj
 0001:000753c0       __errno                    100763c0 f   libucrtd:errno.obj
 0001:000753f0       __get_doserrno             100763f0 f   libucrtd:errno.obj
 0001:00075480       __get_errno                10076480 f   libucrtd:errno.obj
 0001:00075510       __set_doserrno             10076510 f   libucrtd:errno.obj
 0001:00075540       __set_errno                10076540 f   libucrtd:errno.obj
 0001:00075570       _calloc                    10076570 f   libucrtd:calloc.obj
 0001:00075590       __recalloc                 10076590 f   libucrtd:recalloc.obj
 0001:000755c0       __recalloc_base            100765c0 f   libucrtd:recalloc.obj
 0001:00075660       __resetstkoflw             10076660 f   libucrtd:resetstk.obj
 0001:00075bc0       _wcscat_s                  10076bc0 f   libucrtd:wcscat_s.obj
 0001:00076010       _wcsncpy_s                 10077010 f   libucrtd:wcsncpy_s.obj
 0001:00076150       ___isascii                 10077150 f   libucrtd:_ctype.obj
 0001:00076180       ___iscsym                  10077180 f   libucrtd:_ctype.obj
 0001:000761c0       ___iscsymf                 100771c0 f   libucrtd:_ctype.obj
 0001:00076200       ___toascii                 10077200 f   libucrtd:_ctype.obj
 0001:00076210       __isalnum_l                10077210 f   libucrtd:_ctype.obj
 0001:00076230       __isalpha_l                10077230 f   libucrtd:_ctype.obj
 0001:00076250       __isblank_l                10077250 f   libucrtd:_ctype.obj
 0001:00076270       __iscntrl_l                10077270 f   libucrtd:_ctype.obj
 0001:00076290       __iscsym_l                 10077290 f   libucrtd:_ctype.obj
 0001:000762d0       __iscsymf_l                100772d0 f   libucrtd:_ctype.obj
 0001:00076310       __isdigit_l                10077310 f   libucrtd:_ctype.obj
 0001:00076330       __isgraph_l                10077330 f   libucrtd:_ctype.obj
 0001:00076350       __islower_l                10077350 f   libucrtd:_ctype.obj
 0001:00076370       __isprint_l                10077370 f   libucrtd:_ctype.obj
 0001:00076390       __ispunct_l                10077390 f   libucrtd:_ctype.obj
 0001:000763b0       __isspace_l                100773b0 f   libucrtd:_ctype.obj
 0001:000763d0       __isupper_l                100773d0 f   libucrtd:_ctype.obj
 0001:000763f0       __isxdigit_l               100773f0 f   libucrtd:_ctype.obj
 0001:00076410       _isalnum                   10077410 f   libucrtd:_ctype.obj
 0001:00076430       _isalpha                   10077430 f   libucrtd:_ctype.obj
 0001:00076450       _isblank                   10077450 f   libucrtd:_ctype.obj
 0001:00076480       _iscntrl                   10077480 f   libucrtd:_ctype.obj
 0001:000764a0       _isdigit                   100774a0 f   libucrtd:_ctype.obj
 0001:000764c0       _isgraph                   100774c0 f   libucrtd:_ctype.obj
 0001:000764e0       _islower                   100774e0 f   libucrtd:_ctype.obj
 0001:00076500       _isprint                   10077500 f   libucrtd:_ctype.obj
 0001:00076520       _ispunct                   10077520 f   libucrtd:_ctype.obj
 0001:00076540       _isspace                   10077540 f   libucrtd:_ctype.obj
 0001:00076560       _isupper                   10077560 f   libucrtd:_ctype.obj
 0001:00076580       _isxdigit                  10077580 f   libucrtd:_ctype.obj
 0001:000765a0       _wcscat                    100775a0 f   libucrtd:wcscat.obj
 0001:00076600       _wcscpy                    10077600 f   libucrtd:wcscpy.obj
 0001:00076c90       ??$open_file@ABQBDABQBDABHPAU_iobuf@@@?$__crt_char_traits@D@@SAPAU_iobuf@@ABQBD0ABH$$QAPAU1@@Z 10077c90 f i libucrtd:fopen.obj
 0001:00076cc0       ??$open_file@ABQB_WABQB_WABHPAU_iobuf@@@?$__crt_char_traits@_W@@SAPAU_iobuf@@ABQB_W0ABH$$QAPAU1@@Z 10077cc0 f i libucrtd:fopen.obj
 0001:00076cf0       ?unlock@__crt_stdio_stream@@QBEXXZ 10077cf0 f i libucrtd:fopen.obj
 0001:00076d10       __fsopen                   10077d10 f   libucrtd:fopen.obj
 0001:00076d30       __wfopen                   10077d30 f   libucrtd:fopen.obj
 0001:00076d50       __wfopen_s                 10077d50 f   libucrtd:fopen.obj
 0001:00076d70       __wfsopen                  10077d70 f   libucrtd:fopen.obj
 0001:00076d90       _fopen                     10077d90 f   libucrtd:fopen.obj
 0001:00076db0       _fopen_s                   10077db0 f   libucrtd:fopen.obj
 0001:00077090       ?is_in_use@__crt_stdio_stream@@QBE_NXZ 10078090 f i libucrtd:fclose.obj
 0001:000770d0       __fclose_nolock            100780d0 f   libucrtd:fclose.obj
 0001:00077110       _fclose                    10078110 f   libucrtd:fclose.obj
 0001:000773b0       __fputc_nolock             100783b0 f   libucrtd:fputc.obj
 0001:000773f0       __fputc_nolock_internal    100783f0 f   libucrtd:fputc.obj
 0001:00077480       __fputchar                 10078480 f   libucrtd:fputc.obj
 0001:000774a0       __putc_nolock              100784a0 f   libucrtd:fputc.obj
 0001:000774c0       _fputc                     100784c0 f   libucrtd:fputc.obj
 0001:00077500       _putc                      10078500 f   libucrtd:fputc.obj
 0001:00077520       _putchar                   10078520 f   libucrtd:fputc.obj
 0001:00077590       __seh_filter_dll           10078590 f   libucrtd:exception_filter.obj
 0001:000775c0       __seh_filter_exe           100785c0 f   libucrtd:exception_filter.obj
 0001:000777e0       ??$?B$$A6GXPAXK0@Z@__crt_fast_encoded_nullptr_t@@QBEP6GXPAXK0@ZXZ 100787e0 f i libucrtd:exit.obj
 0001:000778f0       ??$__crt_fast_decode_pointer@P6GXPAXK0@Z@@YAP6GXPAXK0@ZQ6GX0K0@Z@Z 100788f0 f i libucrtd:exit.obj
 0001:00077920       ??$__crt_fast_encode_pointer@P6GXPAXK0@Z@@YAP6GXPAXK0@ZQ6GX0K0@Z@Z 10078920 f i libucrtd:exit.obj
 0001:00077950       ??$__crt_get_proc_address@P6GXI@Z@@YAP6GXI@ZQAUHINSTANCE__@@QBD@Z 10078950 f i libucrtd:exit.obj
 0001:000779e0       ??0?$__crt_unique_handle_t@U__crt_hmodule_traits@@@@QAE@QAUHINSTANCE__@@@Z 100789e0 f i libucrtd:exit.obj
 0001:00077a00       ??1?$__crt_unique_handle_t@U__crt_hmodule_traits@@@@QAE@XZ 10078a00 f i libucrtd:exit.obj
 0001:00077bc0       ?__acrt_select_exit_lock@@YA?AW4__acrt_lock_id@@XZ 10078bc0 f i libucrtd:exit.obj
 0001:00077bd0       ?__crt_fast_encode_pointer@@YA?AU__crt_fast_encoded_nullptr_t@@$$T@Z 10078bd0 f i libucrtd:exit.obj
 0001:00077c00       ?close@?$__crt_unique_handle_t@U__crt_hmodule_traits@@@@QAEXXZ 10078c00 f i libucrtd:exit.obj
 0001:00077c40       ?close@__crt_hmodule_traits@@SA_NPAUHINSTANCE__@@@Z 10078c40 f i libucrtd:exit.obj
 0001:00077d70       ?get@?$__crt_unique_handle_t@U__crt_hmodule_traits@@@@QBEPAUHINSTANCE__@@XZ 10078d70 f i libucrtd:exit.obj
 0001:00077d90       ?get_address_of@?$__crt_unique_handle_t@U__crt_hmodule_traits@@@@QAEPAPAUHINSTANCE__@@XZ 10078d90 f i libucrtd:exit.obj
 0001:00077da0       ?get_invalid_value@__crt_hmodule_traits@@SAPAUHINSTANCE__@@XZ 10078da0 f i libucrtd:exit.obj
 0001:00077f50       __Exit                     10078f50 f   libucrtd:exit.obj
 0001:00077f70       ___acrt_initialize_thread_local_exit_callback 10078f70 f   libucrtd:exit.obj
 0001:00077f80       __c_exit                   10078f80 f   libucrtd:exit.obj
 0001:00077fa0       __cexit                    10078fa0 f   libucrtd:exit.obj
 0001:00077fc0       __exit                     10078fc0 f   libucrtd:exit.obj
 0001:00077fe0       __is_c_termination_complete 10078fe0 f   libucrtd:exit.obj
 0001:00078000       __register_thread_local_exe_atexit_callback 10079000 f   libucrtd:exit.obj
 0001:00078040       _exit                      10079040 f   libucrtd:exit.obj
 0001:00078060       _quick_exit                10079060 f   libucrtd:exit.obj
 0001:00078080       ??$?RE@__crt_internal_free_policy@@QBEXQBE@Z 10079080 f i libucrtd:argv_parsing.obj
 0001:000780a0       ??$?RPAD@__crt_internal_free_policy@@QBEXQBQAD@Z 100790a0 f i libucrtd:argv_parsing.obj
 0001:000780c0       ??$?RPA_W@__crt_internal_free_policy@@QBEXQBQA_W@Z 100790c0 f i libucrtd:argv_parsing.obj
 0001:00078680       ??$get_module_file_name@$$TAAY0BAF@DH@?$__crt_char_traits@D@@SAK$$QA$$TAAY0BAF@D$$QAH@Z 10079680 f i libucrtd:argv_parsing.obj
 0001:000786a0       ??$get_module_file_name@$$TAAY0BAF@_WH@?$__crt_char_traits@_W@@SAK$$QA$$TAAY0BAF@_W$$QAH@Z 100796a0 f i libucrtd:argv_parsing.obj
 0001:00078de0       ??$set_program_name@PAD@?$__crt_char_traits@D@@SAX$$QAPAD@Z 10079de0 f i libucrtd:argv_parsing.obj
 0001:00078e00       ??$set_program_name@PA_W@?$__crt_char_traits@_W@@SAX$$QAPA_W@Z 10079e00 f i libucrtd:argv_parsing.obj
 0001:00078e60       ??0?$__crt_unique_heap_ptr@EU__crt_internal_free_policy@@@@QAE@QAE@Z 10079e60 f i libucrtd:argv_parsing.obj
 0001:00078e80       ??0?$__crt_unique_heap_ptr@PADU__crt_internal_free_policy@@@@QAE@QAPAD@Z 10079e80 f i libucrtd:argv_parsing.obj
 0001:00078ea0       ??0?$__crt_unique_heap_ptr@PA_WU__crt_internal_free_policy@@@@QAE@QAPA_W@Z 10079ea0 f i libucrtd:argv_parsing.obj
 0001:00078ec0       ??1?$__crt_unique_heap_ptr@EU__crt_internal_free_policy@@@@QAE@XZ 10079ec0 f i libucrtd:argv_parsing.obj
 0001:00078ee0       ??1?$__crt_unique_heap_ptr@PADU__crt_internal_free_policy@@@@QAE@XZ 10079ee0 f i libucrtd:argv_parsing.obj
 0001:00078f00       ??1?$__crt_unique_heap_ptr@PA_WU__crt_internal_free_policy@@@@QAE@XZ 10079f00 f i libucrtd:argv_parsing.obj
 0001:00078f20       ??B?$__crt_unique_heap_ptr@EU__crt_internal_free_policy@@@@QBE_NXZ 10079f20 f i libucrtd:argv_parsing.obj
 0001:00078fe0       ?detach@?$__crt_unique_heap_ptr@EU__crt_internal_free_policy@@@@QAEPAEXZ 10079fe0 f i libucrtd:argv_parsing.obj
 0001:00079010       ?detach@?$__crt_unique_heap_ptr@PADU__crt_internal_free_policy@@@@QAEPAPADXZ 1007a010 f i libucrtd:argv_parsing.obj
 0001:00079040       ?detach@?$__crt_unique_heap_ptr@PA_WU__crt_internal_free_policy@@@@QAEPAPA_WXZ 1007a040 f i libucrtd:argv_parsing.obj
 0001:000790d0       ?get@?$__crt_unique_heap_ptr@EU__crt_internal_free_policy@@@@QBEPAEXZ 1007a0d0 f i libucrtd:argv_parsing.obj
 0001:000790f0       ?get@?$__crt_unique_heap_ptr@PADU__crt_internal_free_policy@@@@QBEPAPADXZ 1007a0f0 f i libucrtd:argv_parsing.obj
 0001:00079110       ?get@?$__crt_unique_heap_ptr@PA_WU__crt_internal_free_policy@@@@QBEPAPA_WXZ 1007a110 f i libucrtd:argv_parsing.obj
 0001:00079130       ?get_address_of@?$__crt_unique_heap_ptr@PADU__crt_internal_free_policy@@@@QAEPAPAPADXZ 1007a130 f i libucrtd:argv_parsing.obj
 0001:00079140       ?get_address_of@?$__crt_unique_heap_ptr@PA_WU__crt_internal_free_policy@@@@QAEPAPAPA_WXZ 1007a140 f i libucrtd:argv_parsing.obj
 0001:00079190       ?is_valid@?$__crt_unique_heap_ptr@EU__crt_internal_free_policy@@@@QBE_NXZ 1007a190 f i libucrtd:argv_parsing.obj
 0001:000791c0       ?release@?$__crt_unique_heap_ptr@EU__crt_internal_free_policy@@@@QAEXXZ 1007a1c0 f i libucrtd:argv_parsing.obj
 0001:000791f0       ?release@?$__crt_unique_heap_ptr@PADU__crt_internal_free_policy@@@@QAEXXZ 1007a1f0 f i libucrtd:argv_parsing.obj
 0001:00079220       ?release@?$__crt_unique_heap_ptr@PA_WU__crt_internal_free_policy@@@@QAEXXZ 1007a220 f i libucrtd:argv_parsing.obj
 0001:00079290       ___acrt_allocate_buffer_for_argv 1007a290 f   libucrtd:argv_parsing.obj
 0001:00079350       __configure_narrow_argv    1007a350 f   libucrtd:argv_parsing.obj
 0001:00079370       __configure_wide_argv      1007a370 f   libucrtd:argv_parsing.obj
 0001:00079390       __set_pgmptr               1007a390 f i libucrtd:argv_parsing.obj
 0001:000793a0       __set_wpgmptr              1007a3a0 f i libucrtd:argv_parsing.obj
 0001:000793b0       ??$?R_W@__crt_internal_free_policy@@QBEXQB_W@Z 1007a3b0 f i libucrtd:environment_initialization.obj
 0001:00079b90       ??$get_environment_from_os@$$V@?$__crt_char_traits@D@@SAPADXZ 1007ab90 f i libucrtd:environment_initialization.obj
 0001:00079ba0       ??$get_environment_from_os@$$V@?$__crt_char_traits@_W@@SAPA_WXZ 1007aba0 f i libucrtd:environment_initialization.obj
 0001:00079e70       ??$set_variable_in_environment_nolock@PADH@?$__crt_char_traits@D@@SAH$$QAPAD$$QAH@Z 1007ae70 f i libucrtd:environment_initialization.obj
 0001:00079e90       ??$set_variable_in_environment_nolock@PA_WH@?$__crt_char_traits@_W@@SAH$$QAPA_W$$QAH@Z 1007ae90 f i libucrtd:environment_initialization.obj
 0001:00079eb0       ??$tcscpy_s@PADABIAAPAD@?$__crt_char_traits@D@@SAH$$QAPADABIAAPAD@Z 1007aeb0 f i libucrtd:environment_initialization.obj
 0001:00079ee0       ??$tcscpy_s@PA_WABIAAPA_W@?$__crt_char_traits@_W@@SAH$$QAPA_WABIAAPA_W@Z 1007aee0 f i libucrtd:environment_initialization.obj
 0001:00079f10       ??$tcslen@AAPAD@?$__crt_char_traits@D@@SAIAAPAD@Z 1007af10 f i libucrtd:environment_initialization.obj
 0001:00079f30       ??$tcslen@AAPA_W@?$__crt_char_traits@_W@@SAIAAPA_W@Z 1007af30 f i libucrtd:environment_initialization.obj
 0001:00079f50       ??$uninitialize@A6AXAAPAPAD@_E@?$dual_state_global@PAPAD@__crt_state_management@@QAEXA6AXAAPAPAD@_E@Z 1007af50 f i libucrtd:environment_initialization.obj
 0001:00079fd0       ??$uninitialize@A6AXAAPAPA_W@_E@?$dual_state_global@PAPA_W@__crt_state_management@@QAEXA6AXAAPAPA_W@_E@Z 1007afd0 f i libucrtd:environment_initialization.obj
 0001:0007a0b0       ??0?$__crt_unique_heap_ptr@_WU__crt_internal_free_policy@@@@QAE@QA_W@Z 1007b0b0 f i libucrtd:environment_initialization.obj
 0001:0007a0d0       ??1?$__crt_unique_heap_ptr@_WU__crt_internal_free_policy@@@@QAE@XZ 1007b0d0 f i libucrtd:environment_initialization.obj
 0001:0007a0f0       ??B?$__crt_unique_heap_ptr@PADU__crt_internal_free_policy@@@@QBE_NXZ 1007b0f0 f i libucrtd:environment_initialization.obj
 0001:0007a110       ??B?$__crt_unique_heap_ptr@PA_WU__crt_internal_free_policy@@@@QBE_NXZ 1007b110 f i libucrtd:environment_initialization.obj
 0001:0007a130       ??B?$__crt_unique_heap_ptr@_WU__crt_internal_free_policy@@@@QBE_NXZ 1007b130 f i libucrtd:environment_initialization.obj
 0001:0007a150       ?__crt_compute_required_transform_buffer_count@@YAIIQBD@Z 1007b150 f i libucrtd:environment_initialization.obj
 0001:0007a170       ?__crt_compute_required_transform_buffer_count@@YAIIQB_W@Z 1007b170 f i libucrtd:environment_initialization.obj
 0001:0007a1a0       ?__crt_transform_string@@YAIIQBDQA_WI@Z 1007b1a0 f i libucrtd:environment_initialization.obj
 0001:0007a1d0       ?__crt_transform_string@@YAIIQB_WQADI@Z 1007b1d0 f i libucrtd:environment_initialization.obj
 0001:0007a200       ?detach@?$__crt_unique_heap_ptr@DU__crt_internal_free_policy@@@@QAEPADXZ 1007b200 f i libucrtd:environment_initialization.obj
 0001:0007a230       ?detach@?$__crt_unique_heap_ptr@_WU__crt_internal_free_policy@@@@QAEPA_WXZ 1007b230 f i libucrtd:environment_initialization.obj
 0001:0007a260       ?get@?$__crt_unique_heap_ptr@_WU__crt_internal_free_policy@@@@QBEPA_WXZ 1007b260 f i libucrtd:environment_initialization.obj
 0001:0007a300       ?initialize@?$dual_state_global@PAPAD@__crt_state_management@@QAEXQAPAD@Z 1007b300 f i libucrtd:environment_initialization.obj
 0001:0007a340       ?initialize@?$dual_state_global@PAPA_W@__crt_state_management@@QAEXQAPA_W@Z 1007b340 f i libucrtd:environment_initialization.obj
 0001:0007a380       ?is_valid@?$__crt_unique_heap_ptr@PADU__crt_internal_free_policy@@@@QBE_NXZ 1007b380 f i libucrtd:environment_initialization.obj
 0001:0007a3b0       ?is_valid@?$__crt_unique_heap_ptr@PA_WU__crt_internal_free_policy@@@@QBE_NXZ 1007b3b0 f i libucrtd:environment_initialization.obj
 0001:0007a3e0       ?is_valid@?$__crt_unique_heap_ptr@_WU__crt_internal_free_policy@@@@QBE_NXZ 1007b3e0 f i libucrtd:environment_initialization.obj
 0001:0007a430       ?release@?$__crt_unique_heap_ptr@_WU__crt_internal_free_policy@@@@QAEXXZ 1007b430 f i libucrtd:environment_initialization.obj
 0001:0007a460       ?value@?$dual_state_global@PAPAD@__crt_state_management@@QAEAAPAPADXZ 1007b460 f i libucrtd:environment_initialization.obj
 0001:0007a480       ?value@?$dual_state_global@PAPA_W@__crt_state_management@@QAEAAPAPA_WXZ 1007b480 f i libucrtd:environment_initialization.obj
 0001:0007a4a0       ___dcrt_get_or_create_narrow_environment_nolock 1007b4a0 f   libucrtd:environment_initialization.obj
 0001:0007a4b0       ___dcrt_get_or_create_wide_environment_nolock 1007b4b0 f   libucrtd:environment_initialization.obj
 0001:0007a4c0       ___dcrt_uninitialize_environments_nolock 1007b4c0 f   libucrtd:environment_initialization.obj
 0001:0007a510       ___p__environ              1007b510 f   libucrtd:environment_initialization.obj
 0001:0007a530       ___p__wenviron             1007b530 f   libucrtd:environment_initialization.obj
 0001:0007a550       __get_initial_narrow_environment 1007b550 f   libucrtd:environment_initialization.obj
 0001:0007a560       __get_initial_wide_environment 1007b560 f   libucrtd:environment_initialization.obj
 0001:0007a570       __initialize_narrow_environment 1007b570 f   libucrtd:environment_initialization.obj
 0001:0007a580       __initialize_wide_environment 1007b580 f   libucrtd:environment_initialization.obj
 0001:0007a590       ??$?B$$A6AXXZ@__crt_fast_encoded_nullptr_t@@QBEP6AXXZXZ 1007b590 f i libucrtd:onexit.obj
 0001:0007a5b0       ??$?BP6AXXZ@__crt_fast_encoded_nullptr_t@@QBEPAP6AXXZXZ 1007b5b0 f i libucrtd:onexit.obj
 0001:0007a5d0       ??$?RP6AXXZ@__crt_internal_free_policy@@QBEXQBQ6AXXZ@Z 1007b5d0 f i libucrtd:onexit.obj
 0001:0007a7f0       ??$__crt_fast_decode_pointer@P6AXXZ@@YAP6AXXZQ6AXXZ@Z 1007b7f0 f i libucrtd:onexit.obj
 0001:0007a820       ??$__crt_fast_decode_pointer@PAP6AXXZ@@YAPAP6AXXZQAP6AXXZ@Z 1007b820 f i libucrtd:onexit.obj
 0001:0007a850       ??$__crt_fast_encode_pointer@P6AHXZ@@YAP6AHXZQ6AHXZ@Z 1007b850 f i libucrtd:onexit.obj
 0001:0007a880       ??$__crt_fast_encode_pointer@P6AXXZ@@YAP6AXXZQ6AXXZ@Z 1007b880 f i libucrtd:onexit.obj
 0001:0007a8b0       ??$__crt_fast_encode_pointer@PAP6AXXZ@@YAPAP6AXXZQAP6AXXZ@Z 1007b8b0 f i libucrtd:onexit.obj
 0001:0007a9b0       ??0?$__crt_unique_heap_ptr@P6AXXZU__crt_internal_free_policy@@@@QAE@QAP6AXXZ@Z 1007b9b0 f i libucrtd:onexit.obj
 0001:0007a9d0       ??1?$__crt_unique_heap_ptr@P6AXXZU__crt_internal_free_policy@@@@QAE@XZ 1007b9d0 f i libucrtd:onexit.obj
 0001:0007a9f0       ??1scoped_global_state_reset@__crt_state_management@@QAE@XZ 1007b9f0 f i libucrtd:onexit.obj
 0001:0007ae70       ?detach@?$__crt_unique_heap_ptr@P6AXXZU__crt_internal_free_policy@@@@QAEPAP6AXXZXZ 1007be70 f i libucrtd:onexit.obj
 0001:0007aea0       ?release@?$__crt_unique_heap_ptr@P6AXXZU__crt_internal_free_policy@@@@QAEXXZ 1007bea0 f i libucrtd:onexit.obj
 0001:0007aed0       __crt_at_quick_exit        1007bed0 f   libucrtd:onexit.obj
 0001:0007aef0       __crt_atexit               1007bef0 f   libucrtd:onexit.obj
 0001:0007af10       __execute_onexit_table     1007bf10 f   libucrtd:onexit.obj
 0001:0007af50       __initialize_onexit_table  1007bf50 f   libucrtd:onexit.obj
 0001:0007afb0       __register_onexit_function 1007bfb0 f   libucrtd:onexit.obj
 0001:0007b200       ??$?BX@__crt_fast_encoded_nullptr_t@@QBEPAXXZ 1007c200 f i libucrtd:initialization.obj
 0001:0007b220       ??$__crt_fast_encode_pointer@PAX@@YAPAXQAX@Z 1007c220 f i libucrtd:initialization.obj
 0001:0007b310       ?initialize@?$dual_state_global@PAU__crt_locale_data@@@__crt_state_management@@QAEXQAU__crt_locale_data@@@Z 1007c310 f i libucrtd:initialization.obj
 0001:0007b350       ___acrt_initialize         1007c350 f   libucrtd:initialization.obj
 0001:0007b370       ___acrt_thread_attach      1007c370 f   libucrtd:initialization.obj
 0001:0007b390       ___acrt_thread_detach      1007c390 f   libucrtd:initialization.obj
 0001:0007b3a0       ___acrt_uninitialize       1007c3a0 f   libucrtd:initialization.obj
 0001:0007b3c0       ___acrt_uninitialize_critical 1007c3c0 f   libucrtd:initialization.obj
 0001:0007b3e0       ??0_LocaleUpdate@@QAE@QAU__crt_locale_pointers@@@Z 1007c3e0 f i libucrtd:debug_heap.obj
 0001:0007b4b0       ??1_LocaleUpdate@@QAE@XZ   1007c4b0 f i libucrtd:debug_heap.obj
 0001:0007b4e0       ?GetLocaleT@_LocaleUpdate@@QAEPAU__crt_locale_pointers@@XZ 1007c4e0 f i libucrtd:debug_heap.obj
 0001:0007cf30       __CrtCheckMemory           1007df30 f   libucrtd:debug_heap.obj
 0001:0007d0c0       __CrtDoForAllClientObjects 1007e0c0 f   libucrtd:debug_heap.obj
 0001:0007d220       __CrtDumpMemoryLeaks       1007e220 f   libucrtd:debug_heap.obj
 0001:0007d2c0       __CrtGetAllocHook          1007e2c0 f   libucrtd:debug_heap.obj
 0001:0007d2d0       __CrtGetDumpClient         1007e2d0 f   libucrtd:debug_heap.obj
 0001:0007d2e0       __CrtIsMemoryBlock         1007e2e0 f   libucrtd:debug_heap.obj
 0001:0007d430       __CrtIsValidHeapPointer    1007e430 f   libucrtd:debug_heap.obj
 0001:0007d470       __CrtIsValidPointer        1007e470 f   libucrtd:debug_heap.obj
 0001:0007d4a0       __CrtMemCheckpoint         1007e4a0 f   libucrtd:debug_heap.obj
 0001:0007d6d0       __CrtMemDifference         1007e6d0 f   libucrtd:debug_heap.obj
 0001:0007d940       __CrtMemDumpAllObjectsSince 1007e940 f   libucrtd:debug_heap.obj
 0001:0007d9e0       __CrtMemDumpStatistics     1007e9e0 f   libucrtd:debug_heap.obj
 0001:0007db10       __CrtReportBlockType       1007eb10 f   libucrtd:debug_heap.obj
 0001:0007db40       __CrtSetAllocHook          1007eb40 f   libucrtd:debug_heap.obj
 0001:0007db60       __CrtSetBreakAlloc         1007eb60 f   libucrtd:debug_heap.obj
 0001:0007db80       __CrtSetDbgBlockType       1007eb80 f   libucrtd:debug_heap.obj
 0001:0007dc60       __CrtSetDbgFlag            1007ec60 f   libucrtd:debug_heap.obj
 0001:0007ddd0       __CrtSetDumpClient         1007edd0 f   libucrtd:debug_heap.obj
 0001:0007ddf0       ___acrt_get_locale_data_prefix 1007edf0 f i libucrtd:debug_heap.obj
 0001:0007de10       ___p__crtBreakAlloc        1007ee10 f   libucrtd:debug_heap.obj
 0001:0007de20       ___p__crtDbgFlag           1007ee20 f   libucrtd:debug_heap.obj
 0001:0007de30       __aligned_free_dbg         1007ee30 f   libucrtd:debug_heap.obj
 0001:0007dee0       __aligned_malloc_dbg       1007eee0 f   libucrtd:debug_heap.obj
 0001:0007df10       __aligned_msize_dbg        1007ef10 f   libucrtd:debug_heap.obj
 0001:0007e040       __aligned_offset_malloc_dbg 1007f040 f   libucrtd:debug_heap.obj
 0001:0007e220       __aligned_offset_realloc_dbg 1007f220 f   libucrtd:debug_heap.obj
 0001:0007e530       __aligned_offset_recalloc_dbg 1007f530 f   libucrtd:debug_heap.obj
 0001:0007e5f0       __aligned_realloc_dbg      1007f5f0 f   libucrtd:debug_heap.obj
 0001:0007e620       __aligned_recalloc_dbg     1007f620 f   libucrtd:debug_heap.obj
 0001:0007e650       __calloc_dbg               1007f650 f   libucrtd:debug_heap.obj
 0001:0007e6c0       __chvalidchk_l             1007f6c0 f i libucrtd:debug_heap.obj
 0001:0007e6e0       __expand_dbg               1007f6e0 f   libucrtd:debug_heap.obj
 0001:0007e810       __free_dbg                 1007f810 f   libucrtd:debug_heap.obj
 0001:0007e8c0       __ischartype_l             1007f8c0 f i libucrtd:debug_heap.obj
 0001:0007e940       __malloc_dbg               1007f940 f   libucrtd:debug_heap.obj
 0001:0007e960       __msize_dbg                1007f960 f   libucrtd:debug_heap.obj
 0001:0007eaf0       __realloc_dbg              1007faf0 f   libucrtd:debug_heap.obj
 0001:0007eb90       __recalloc_dbg             1007fb90 f   libucrtd:debug_heap.obj
 0001:0007ec40       __initterm                 1007fc40 f   libucrtd:initterm.obj
 0001:0007ec90       __initterm_e               1007fc90 f   libucrtd:initterm.obj
 0001:0007f000       _strcpy_s                  10080000 f   libucrtd:strcpy_s.obj
 0001:0007f430       _strcat_s                  10080430 f   libucrtd:strcat_s.obj
 0001:0007f450       ??$?B$$A6AHI@Z@__crt_fast_encoded_nullptr_t@@QBEP6AHI@ZXZ 10080450 f i libucrtd:new_handler.obj
 0001:0007f470       ??$__crt_fast_decode_pointer@P6AHI@Z@@YAP6AHI@ZQ6AHI@Z@Z 10080470 f i libucrtd:new_handler.obj
 0001:0007f4a0       ??$__crt_fast_encode_pointer@P6AHI@Z@@YAP6AHI@ZQ6AHI@Z@Z 100804a0 f i libucrtd:new_handler.obj
 0001:0007f4d0       ?_set_new_handler@@YAP6AHI@ZH@Z 100804d0 f   libucrtd:new_handler.obj
 0001:0007f530       ?initialize@?$dual_state_global@P6AHI@Z@__crt_state_management@@QAEXQ6AHI@Z@Z 10080530 f i libucrtd:new_handler.obj
 0001:0007f570       ?value@?$dual_state_global@P6AHI@Z@__crt_state_management@@QAEAAP6AHI@ZXZ 10080570 f i libucrtd:new_handler.obj
 0001:0007f590       ___acrt_initialize_new_handler 10080590 f   libucrtd:new_handler.obj
 0001:0007f5b0       __callnewh                 100805b0 f   libucrtd:new_handler.obj
 0001:0007f600       __query_new_handler        10080600 f   libucrtd:new_handler.obj
 0001:0007f690       __set_new_handler          10080690 f   libucrtd:new_handler.obj
 0001:0007f770       __get_terminate            10080770 f   libucrtd:terminate.obj
 0001:0007f790       _set_terminate             10080790 f   libucrtd:terminate.obj
 0001:0007f7c0       _terminate                 100807c0 f   libucrtd:terminate.obj
 0001:000801c0       __makepath                 100811c0 f   libucrtd:makepath.obj
 0001:000801f0       __makepath_s               100811f0 f   libucrtd:makepath.obj
 0001:00080220       __wmakepath                10081220 f   libucrtd:makepath.obj
 0001:00080250       __wmakepath_s              10081250 f   libucrtd:makepath.obj
 0001:00081d20       ??$tcsncpy_s@AAPADIAAPBDABI@?$__crt_char_traits@D@@SAHAAPAD$$QAIAAPBDABI@Z 10082d20 f i libucrtd:splitpath.obj
 0001:00081d50       ??$tcsncpy_s@AAPADIAAPBDH@?$__crt_char_traits@D@@SAHAAPAD$$QAIAAPBD$$QAH@Z 10082d50 f i libucrtd:splitpath.obj
 0001:00081d80       ??$tcsncpy_s@AAPA_WIAAPB_WABI@?$__crt_char_traits@_W@@SAHAAPA_W$$QAIAAPB_WABI@Z 10082d80 f i libucrtd:splitpath.obj
 0001:00081db0       ??$tcsncpy_s@AAPA_WIAAPB_WH@?$__crt_char_traits@_W@@SAHAAPA_W$$QAIAAPB_W$$QAH@Z 10082db0 f i libucrtd:splitpath.obj
 0001:00081ff0       __splitpath                10082ff0 f   libucrtd:splitpath.obj
 0001:00082020       __splitpath_s              10083020 f   libucrtd:splitpath.obj
 0001:00082070       __wsplitpath               10083070 f   libucrtd:splitpath.obj
 0001:000820a0       __wsplitpath_s             100830a0 f   libucrtd:splitpath.obj
 0001:000820f0       __set_abort_behavior       100830f0 f   libucrtd:abort.obj
 0001:00082120       _abort                     10083120 f   libucrtd:abort.obj
 0001:00082190       _strcmp                    10083190 f   libucrtd:strcmp.obj
 0001:00082220       _strlen                    10083220 f   libucrtd:strlen.obj
 0001:000822b0       ??$is_overflow_condition@_K@__crt_strtox@@YA_NI_K@Z 100832b0 f i libucrtd:atox.obj
 0001:00082340       ??$make_c_string_character_source@D$$T@__crt_strtox@@YA?AV?$c_string_character_source@D@0@QBD$$T@Z 10083340 f i libucrtd:atox.obj
 0001:00082360       ??$make_c_string_character_source@_W$$T@__crt_strtox@@YA?AV?$c_string_character_source@_W@0@QB_W$$T@Z 10083360 f i libucrtd:atox.obj
 0001:00082380       ??$parse_integer@KV?$c_string_character_source@D@__crt_strtox@@$00@__crt_strtox@@YAKAAV__crt_cached_ptd_host@@V?$c_string_character_source@D@0@H_N@Z 10083380 f i libucrtd:atox.obj
 0001:000826e0       ??$parse_integer@KV?$c_string_character_source@_W@__crt_strtox@@$00@__crt_strtox@@YAKAAV__crt_cached_ptd_host@@V?$c_string_character_source@_W@0@H_N@Z 100836e0 f i libucrtd:atox.obj
 0001:00082a50       ??$parse_integer@_KV?$c_string_character_source@D@__crt_strtox@@$00@__crt_strtox@@YA_KAAV__crt_cached_ptd_host@@V?$c_string_character_source@D@0@H_N@Z 10083a50 f i libucrtd:atox.obj
 0001:00082e40       ??$parse_integer@_KV?$c_string_character_source@_W@__crt_strtox@@$00@__crt_strtox@@YA_KAAV__crt_cached_ptd_host@@V?$c_string_character_source@_W@0@H_N@Z 10083e40 f i libucrtd:atox.obj
 0001:00083230       ??$parse_integer_from_string@JD$$T@__crt_strtox@@YAJQBD$$THQAU__crt_locale_pointers@@@Z 10084230 f i libucrtd:atox.obj
 0001:00083290       ??$parse_integer_from_string@J_W$$T@__crt_strtox@@YAJQB_W$$THQAU__crt_locale_pointers@@@Z 10084290 f i libucrtd:atox.obj
 0001:000832f0       ??$parse_integer_from_string@_JD$$T@__crt_strtox@@YA_JQBD$$THQAU__crt_locale_pointers@@@Z 100842f0 f i libucrtd:atox.obj
 0001:00083350       ??$parse_integer_from_string@_J_W$$T@__crt_strtox@@YA_JQB_W$$THQAU__crt_locale_pointers@@@Z 10084350 f i libucrtd:atox.obj
 0001:000833b0       ?is_space@__crt_strtox@@YA_NDQAU__crt_locale_pointers@@@Z 100843b0 f i libucrtd:atox.obj
 0001:000833f0       ?is_space@__crt_strtox@@YA_N_WPAU__crt_locale_pointers@@@Z 100843f0 f i libucrtd:atox.obj
 0001:00083420       ?maximum_signed_value@__crt_strtox@@YA_J_K@Z 10084420 f i libucrtd:atox.obj
 0001:00083430       ?minimum_signed_value@__crt_strtox@@YA_J_K@Z 10084430 f i libucrtd:atox.obj
 0001:00083440       __atoi64                   10084440 f   libucrtd:atox.obj
 0001:00083460       __atoi64_l                 10084460 f   libucrtd:atox.obj
 0001:00083480       __atoi_l                   10084480 f   libucrtd:atox.obj
 0001:000834a0       __atol_l                   100844a0 f   libucrtd:atox.obj
 0001:000834c0       __atoll_l                  100844c0 f   libucrtd:atox.obj
 0001:000834e0       __wtoi                     100844e0 f   libucrtd:atox.obj
 0001:00083500       __wtoi64                   10084500 f   libucrtd:atox.obj
 0001:00083520       __wtoi64_l                 10084520 f   libucrtd:atox.obj
 0001:00083540       __wtoi_l                   10084540 f   libucrtd:atox.obj
 0001:00083560       __wtol                     10084560 f   libucrtd:atox.obj
 0001:00083580       __wtol_l                   10084580 f   libucrtd:atox.obj
 0001:000835a0       __wtoll                    100845a0 f   libucrtd:atox.obj
 0001:000835c0       __wtoll_l                  100845c0 f   libucrtd:atox.obj
 0001:000835e0       _atoi                      100845e0 f   libucrtd:atox.obj
 0001:00083600       _atol                      10084600 f   libucrtd:atox.obj
 0001:00083620       _atoll                     10084620 f   libucrtd:atox.obj
 0001:00083640       _strncmp                   10084640 f   libucrtd:strncmp.obj
 0001:000836c0       _wcsncmp                   100846c0 f   libucrtd:wcsncmp.obj
 0001:00083720       __CrtGetDebugFillThreshold 10084720 f   libucrtd:debug_fill_threshold.obj
 0001:00083730       __CrtSetDebugFillThreshold 10084730 f   libucrtd:debug_fill_threshold.obj
 0001:00083750       ?value@?$dual_state_global@PAU__crt_locale_data@@@__crt_state_management@@QAEAAPAU__crt_locale_data@@XZ 10084750 f i libucrtd:locale_update.obj
 0001:00083770       ?value@?$dual_state_global@PAU__crt_multibyte_data@@@__crt_state_management@@QAEAAPAU__crt_multibyte_data@@XZ 10084770 f i libucrtd:locale_update.obj
 0001:00083790       ?value_explicit@?$dual_state_global@PAU__crt_locale_data@@@__crt_state_management@@QAEAAPAU__crt_locale_data@@I@Z 10084790 f i libucrtd:locale_update.obj
 0001:000837b0       ?value_explicit@?$dual_state_global@PAU__crt_multibyte_data@@@__crt_state_management@@QAEAAPAU__crt_multibyte_data@@I@Z 100847b0 f i libucrtd:locale_update.obj
 0001:000837d0       ___acrt_should_sync_with_global_locale 100847d0 f i libucrtd:locale_update.obj
 0001:00083800       ___acrt_update_locale_info 10084800 f   libucrtd:locale_update.obj
 0001:00083840       ___acrt_update_locale_info_explicit 10084840 f   libucrtd:locale_update.obj
 0001:00083880       ___acrt_update_multibyte_info 10084880 f   libucrtd:locale_update.obj
 0001:000838c0       ___acrt_update_multibyte_info_explicit 100848c0 f   libucrtd:locale_update.obj
 0001:00083900       ?__acrt_fp_classify@@YA?AW4__acrt_fp_class@@ABN@Z 10084900 f i libucrtd:cvt.obj
 0001:00083a20       ?__acrt_fp_is_negative@@YA_NABN@Z 10084a20 f i libucrtd:cvt.obj
 0001:00084c30       ?strrchr@@YAPADQADH@Z      10085c30 f i libucrtd:cvt.obj
 0001:00084c50       ___acrt_fp_format          10085c50 f   libucrtd:cvt.obj
 0001:000850d0       ?value_or@?$cached@H@__crt_cached_ptd_host@@QBEHH@Z 100860d0 f i libucrtd:wctomb.obj
 0001:00085100       __wctomb_internal          10086100 f   libucrtd:wctomb.obj
 0001:00085480       __wctomb_l                 10086480 f   libucrtd:wctomb.obj
 0001:00085500       __wctomb_s_l               10086500 f   libucrtd:wctomb.obj
 0001:00085550       _wctomb                    10086550 f   libucrtd:wctomb.obj
 0001:000855c0       _wctomb_s                  100865c0 f   libucrtd:wctomb.obj
 0001:00085610       __isleadbyte_fast_internal 10086610 f i libucrtd:mbtowc.obj
 0001:00085630       __mbtowc_internal          10086630 f   libucrtd:mbtowc.obj
 0001:000858c0       __mbtowc_l                 100868c0 f   libucrtd:mbtowc.obj
 0001:00085900       _mbtowc                    10086900 f   libucrtd:mbtowc.obj
 0001:00085940       ?lowio_handle@__crt_stdio_stream@@QBEHXZ 10086940 f i libucrtd:fileno.obj
 0001:00085960       __fileno                   10086960 f   libucrtd:fileno.obj
 0001:00085a00       ??$?RPAU__crt_stdio_stream_data@@@__crt_internal_free_policy@@QBEXQBQAU__crt_stdio_stream_data@@@Z 10086a00 f i libucrtd:_file.obj
 0001:00085a20       ??0?$__crt_unique_heap_ptr@PAU__crt_stdio_stream_data@@U__crt_internal_free_policy@@@@QAE@QAPAU__crt_stdio_stream_data@@@Z 10086a20 f i libucrtd:_file.obj
 0001:00085a40       ??1?$__crt_unique_heap_ptr@PAU__crt_stdio_stream_data@@U__crt_internal_free_policy@@@@QAE@XZ 10086a40 f i libucrtd:_file.obj
 0001:00085a60       ?detach@?$__crt_unique_heap_ptr@PAU__crt_stdio_stream_data@@U__crt_internal_free_policy@@@@QAEPAPAU__crt_stdio_stream_data@@XZ 10086a60 f i libucrtd:_file.obj
 0001:00085a90       ?release@?$__crt_unique_heap_ptr@PAU__crt_stdio_stream_data@@U__crt_internal_free_policy@@@@QAEXXZ 10086a90 f i libucrtd:_file.obj
 0001:00085ac0       ___acrt_initialize_stdio   10086ac0 f   libucrtd:_file.obj
 0001:00085c30       ___acrt_iob_func           10086c30 f   libucrtd:_file.obj
 0001:00085c40       ___acrt_uninitialize_stdio 10086c40 f   libucrtd:_file.obj
 0001:00085cc0       __get_stream_buffer_pointers 10086cc0 f   libucrtd:_file.obj
 0001:00085da0       __lock_file                10086da0 f   libucrtd:_file.obj
 0001:00085dd0       __unlock_file              10086dd0 f   libucrtd:_file.obj
 0001:00085e00       __get_printf_count_output  10086e00 f   libucrtd:printf_count_output.obj
 0001:00085e30       __set_printf_count_output  10086e30 f   libucrtd:printf_count_output.obj
 0001:00086030       __fputwc_nolock            10087030 f   libucrtd:fputwc.obj
 0001:00086070       __fputwc_nolock_internal   10087070 f   libucrtd:fputwc.obj
 0001:00086280       __fputwchar                10087280 f   libucrtd:fputwc.obj
 0001:000862a0       __putwc_nolock             100872a0 f   libucrtd:fputwc.obj
 0001:000862c0       _fputwc                    100872c0 f   libucrtd:fputwc.obj
 0001:00086300       _putwc                     10087300 f   libucrtd:fputwc.obj
 0001:00086320       _putwchar                  10087320 f   libucrtd:fputwc.obj
 0001:00086340       ?has_any_buffer@__crt_stdio_stream@@QBE_NXZ 10087340 f i libucrtd:_sftbuf.obj
 0001:00086360       ?has_any_of@__crt_stdio_stream@@QBE_NJ@Z 10087360 f i libucrtd:_sftbuf.obj
 0001:000863a0       ?has_temporary_buffer@__crt_stdio_stream@@QBE_NXZ 100873a0 f i libucrtd:_sftbuf.obj
 0001:000863c0       ?set_flags@__crt_stdio_stream@@QBE_NJ@Z 100873c0 f i libucrtd:_sftbuf.obj
 0001:00086410       ?unset_flags@__crt_stdio_stream@@QBE_NJ@Z 10087410 f i libucrtd:_sftbuf.obj
 0001:00086460       ___acrt_should_use_temporary_buffer 10087460 f   libucrtd:_sftbuf.obj
 0001:000864b0       ___acrt_stdio_begin_temporary_buffering_nolock 100874b0 f   libucrtd:_sftbuf.obj
 0001:00086680       ___acrt_stdio_end_temporary_buffering_nolock 10087680 f   libucrtd:_sftbuf.obj
 0001:00086700       ??$?RU__acrt_ptd@@@__crt_internal_free_policy@@QBEXQBU__acrt_ptd@@@Z 10087700 f i libucrtd:per_thread_data.obj
 0001:00086c70       ??0?$__crt_unique_heap_ptr@U__acrt_ptd@@U__crt_internal_free_policy@@@@QAE@QAU__acrt_ptd@@@Z 10087c70 f i libucrtd:per_thread_data.obj
 0001:00086c90       ??1?$__crt_unique_heap_ptr@U__acrt_ptd@@U__crt_internal_free_policy@@@@QAE@XZ 10087c90 f i libucrtd:per_thread_data.obj
 0001:00086cb0       ??B?$__crt_unique_heap_ptr@U__acrt_ptd@@U__crt_internal_free_policy@@@@QBE_NXZ 10087cb0 f i libucrtd:per_thread_data.obj
 0001:00086fc0       ?dangerous_get_state_array@?$dual_state_global@PAU__crt_locale_data@@@__crt_state_management@@QAEPAPAU__crt_locale_data@@XZ 10087fc0 f i libucrtd:per_thread_data.obj
 0001:00087160       ?detach@?$__crt_unique_heap_ptr@U__acrt_ptd@@U__crt_internal_free_policy@@@@QAEPAU__acrt_ptd@@XZ 10088160 f i libucrtd:per_thread_data.obj
 0001:00087190       ?get@?$__crt_unique_heap_ptr@U__acrt_ptd@@U__crt_internal_free_policy@@@@QBEPAU__acrt_ptd@@XZ 10088190 f i libucrtd:per_thread_data.obj
 0001:00087330       ?is_valid@?$__crt_unique_heap_ptr@U__acrt_ptd@@U__crt_internal_free_policy@@@@QBE_NXZ 10088330 f i libucrtd:per_thread_data.obj
 0001:00087360       ?release@?$__crt_unique_heap_ptr@U__acrt_ptd@@U__crt_internal_free_policy@@@@QAEXXZ 10088360 f i libucrtd:per_thread_data.obj
 0001:00087450       ___acrt_freeptd            10088450 f   libucrtd:per_thread_data.obj
 0001:00087480       ___acrt_getptd             10088480 f   libucrtd:per_thread_data.obj
 0001:000874a0       ___acrt_getptd_head        100884a0 f   libucrtd:per_thread_data.obj
 0001:000874c0       ___acrt_getptd_noexit      100884c0 f   libucrtd:per_thread_data.obj
 0001:000874d0       ___acrt_getptd_noexit_explicit 100884d0 f   libucrtd:per_thread_data.obj
 0001:000874f0       ___acrt_initialize_ptd     100884f0 f   libucrtd:per_thread_data.obj
 0001:00087530       ___acrt_uninitialize_ptd   10088530 f   libucrtd:per_thread_data.obj
 0001:00087560       ___threadhandle            10088560 f   libucrtd:per_thread_data.obj
 0001:00087570       ___threadid                10088570 f   libucrtd:per_thread_data.obj
 0001:00087590       ??$?RU__crt_locale_data@@@__crt_internal_free_policy@@QBEXQBU__crt_locale_data@@@Z 10088590 f i libucrtd:wsetlocale.obj
 0001:000875b0       ??$?RU__crt_locale_pointers@@@__crt_internal_free_policy@@QBEXQBU__crt_locale_pointers@@@Z 100885b0 f i libucrtd:wsetlocale.obj
 0001:000875d0       ??$?RU__crt_multibyte_data@@@__crt_internal_free_policy@@QBEXQBU__crt_multibyte_data@@@Z 100885d0 f i libucrtd:wsetlocale.obj
 0001:00087cb0       ??0?$__crt_unique_heap_ptr@U__crt_locale_data@@U__crt_internal_free_policy@@@@QAE@QAU__crt_locale_data@@@Z 10088cb0 f i libucrtd:wsetlocale.obj
 0001:00087cd0       ??0?$__crt_unique_heap_ptr@U__crt_locale_pointers@@U__crt_internal_free_policy@@@@QAE@QAU__crt_locale_pointers@@@Z 10088cd0 f i libucrtd:wsetlocale.obj
 0001:00087cf0       ??0?$__crt_unique_heap_ptr@U__crt_multibyte_data@@U__crt_internal_free_policy@@@@QAE@QAU__crt_multibyte_data@@@Z 10088cf0 f i libucrtd:wsetlocale.obj
 0001:00087d10       ??0_expandlocale_locale_name_cache@@QAE@QA_WIQAU__crt_qualified_locale_data@@@Z 10088d10 f i libucrtd:wsetlocale.obj
 0001:00087d80       ??1?$__crt_unique_heap_ptr@U__crt_locale_data@@U__crt_internal_free_policy@@@@QAE@XZ 10088d80 f i libucrtd:wsetlocale.obj
 0001:00087da0       ??1?$__crt_unique_heap_ptr@U__crt_locale_pointers@@U__crt_internal_free_policy@@@@QAE@XZ 10088da0 f i libucrtd:wsetlocale.obj
 0001:00087dc0       ??1?$__crt_unique_heap_ptr@U__crt_multibyte_data@@U__crt_internal_free_policy@@@@QAE@XZ 10088dc0 f i libucrtd:wsetlocale.obj
 0001:00087de0       ??1_expandlocale_locale_name_cache@@QAE@XZ 10088de0 f i libucrtd:wsetlocale.obj
 0001:00087e40       ??B?$__crt_unique_heap_ptr@U__crt_locale_data@@U__crt_internal_free_policy@@@@QBE_NXZ 10088e40 f i libucrtd:wsetlocale.obj
 0001:00087e60       ??B?$__crt_unique_heap_ptr@U__crt_locale_pointers@@U__crt_internal_free_policy@@@@QBE_NXZ 10088e60 f i libucrtd:wsetlocale.obj
 0001:00087e80       ??B?$__crt_unique_heap_ptr@U__crt_multibyte_data@@U__crt_internal_free_policy@@@@QBE_NXZ 10088e80 f i libucrtd:wsetlocale.obj
 0001:00088270       ?commit_locale_name@_expandlocale_locale_name_cache@@QAEXQB_WI@Z 10089270 f i libucrtd:wsetlocale.obj
 0001:000882d0       ?commit_locale_name_cache_already_updated@_expandlocale_locale_name_cache@@QAEXQB_WI@Z 100892d0 f i libucrtd:wsetlocale.obj
 0001:00088330       ?detach@?$__crt_unique_heap_ptr@U__crt_locale_data@@U__crt_internal_free_policy@@@@QAEPAU__crt_locale_data@@XZ 10089330 f i libucrtd:wsetlocale.obj
 0001:00088360       ?detach@?$__crt_unique_heap_ptr@U__crt_locale_pointers@@U__crt_internal_free_policy@@@@QAEPAU__crt_locale_pointers@@XZ 10089360 f i libucrtd:wsetlocale.obj
 0001:00088390       ?detach@?$__crt_unique_heap_ptr@U__crt_multibyte_data@@U__crt_internal_free_policy@@@@QAEPAU__crt_multibyte_data@@XZ 10089390 f i libucrtd:wsetlocale.obj
 0001:000883c0       ?get@?$__crt_unique_heap_ptr@U__crt_locale_data@@U__crt_internal_free_policy@@@@QBEPAU__crt_locale_data@@XZ 100893c0 f i libucrtd:wsetlocale.obj
 0001:000883e0       ?get@?$__crt_unique_heap_ptr@U__crt_locale_pointers@@U__crt_internal_free_policy@@@@QBEPAU__crt_locale_pointers@@XZ 100893e0 f i libucrtd:wsetlocale.obj
 0001:00088400       ?get@?$__crt_unique_heap_ptr@U__crt_multibyte_data@@U__crt_internal_free_policy@@@@QBEPAU__crt_multibyte_data@@XZ 10089400 f i libucrtd:wsetlocale.obj
 0001:00088420       ?is_valid@?$__crt_unique_heap_ptr@U__crt_locale_data@@U__crt_internal_free_policy@@@@QBE_NXZ 10089420 f i libucrtd:wsetlocale.obj
 0001:00088450       ?is_valid@?$__crt_unique_heap_ptr@U__crt_locale_pointers@@U__crt_internal_free_policy@@@@QBE_NXZ 10089450 f i libucrtd:wsetlocale.obj
 0001:00088480       ?is_valid@?$__crt_unique_heap_ptr@U__crt_multibyte_data@@U__crt_internal_free_policy@@@@QBE_NXZ 10089480 f i libucrtd:wsetlocale.obj
 0001:000884b0       ?release@?$__crt_unique_heap_ptr@U__crt_locale_data@@U__crt_internal_free_policy@@@@QAEXXZ 100894b0 f i libucrtd:wsetlocale.obj
 0001:000884e0       ?release@?$__crt_unique_heap_ptr@U__crt_locale_pointers@@U__crt_internal_free_policy@@@@QAEXXZ 100894e0 f i libucrtd:wsetlocale.obj
 0001:00088510       ?release@?$__crt_unique_heap_ptr@U__crt_multibyte_data@@U__crt_internal_free_policy@@@@QAEXXZ 10089510 f i libucrtd:wsetlocale.obj
 0001:00088540       ___acrt_copy_locale_name   10089540 f   libucrtd:wsetlocale.obj
 0001:000885e0       ___acrt_set_locale_changed 100895e0 f   libucrtd:wsetlocale.obj
 0001:00088600       ___acrt_uninitialize_locale 10089600 f   libucrtd:wsetlocale.obj
 0001:00088620       ___ascii_tolower           10089620 f i libucrtd:wsetlocale.obj
 0001:00088640       ___ascii_towlower          10089640 f i libucrtd:wsetlocale.obj
 0001:00088660       ___lc_lctowcs              10089660 f   libucrtd:wsetlocale.obj
 0001:00088710       ___lc_wcstolc              10089710 f   libucrtd:wsetlocale.obj
