 OPOSVoiceRecognition

 Timestamp is 600f7c38 (Tue Jan 26 11:19:36 2021)

 Preferred load address is 10000000

 Start         Length     Name                   Class
 0001:00000000 00000d90H .text$di                CODE
 0001:00000d90 000a9870H .text$mn                CODE
 0001:000aa600 000001c0H .text$x                 CODE
 0001:000aa7c0 00000120H .text$yd                CODE
 0002:00000000 00000358H .idata$5                DATA
 0002:00000358 00000008H .00cfg                  DATA
 0002:00000360 00000004H .CRT$XCA                DATA
 0002:00000364 00000004H .CRT$XCL                DATA
 0002:00000368 0000006cH .CRT$XCU                DATA
 0002:000003d4 00000004H .CRT$XCZ                DATA
 0002:000003d8 00000004H .CRT$XIA                DATA
 0002:000003dc 00000014H .CRT$XIC                DATA
 0002:000003f0 00000004H .CRT$XIZ                DATA
 0002:000003f4 00000004H .CRT$XLA                DATA
 0002:000003f8 00000004H .CRT$XLZ                DATA
 0002:000003fc 00000004H .CRT$XPA                DATA
 0002:00000400 00000008H .CRT$XPX                DATA
 0002:00000408 00000004H .CRT$XPXA               DATA
 0002:0000040c 00000004H .CRT$XPZ                DATA
 0002:00000410 00000004H .CRT$XTA                DATA
 0002:00000414 0000000cH .CRT$XTZ                DATA
 0002:00000418 00000000H .gfids$y                DATA
 0002:00000420 0002fee0H .rdata                  DATA
 0002:00030300 00000004H .rdata$CastGuardVftablesA DATA
 0002:00030304 00000004H .rdata$CastGuardVftablesC DATA
 0002:00030308 00000018H .rdata$T                DATA
 0002:00030320 0000033cH .rdata$r                DATA
 0002:0003065c 00000044H .rdata$sxdata           DATA
 0002:000306a0 00000454H .rdata$zzzdbg           DATA
 0002:00030af4 00000004H .rtc$IAA                DATA
 0002:00030af8 00000018H .rtc$IMZ                DATA
 0002:00030b10 00000004H .rtc$IZZ                DATA
 0002:00030b14 00000004H .rtc$TAA                DATA
 0002:00030b18 00000018H .rtc$TMZ                DATA
 0002:00030b30 00000004H .rtc$TZZ                DATA
 0002:00030b34 00000004H .tls                    DATA
 0002:00030b38 00000004H .tls$                   DATA
 0002:00030b3c 00000004H .tls$ZZZ                DATA
 0002:00030b40 00000e4cH .xdata$x                DATA
 0002:0003198c 00000004H ATL$__a                 DATA
 0002:00031990 00000010H ATL$__z                 DATA
 0002:000319a0 000000b4H .edata                  DATA
 0002:00031a54 00000078H .idata$2                DATA
 0002:00031acc 00000014H .idata$3                DATA
 0002:00031ae0 00000358H .idata$4                DATA
 0002:00031e38 00000d56H .idata$6                DATA
 0003:00000000 00000bb0H .data                   DATA
 0003:00000bb0 00000138H .data$r                 DATA
 0003:00000ce8 00003588H .bss                    DATA
 0004:00000000 00000220H .rsrc$01                DATA
 0004:00000220 00003dd0H .rsrc$02                DATA

  Address         Publics by Value              Rva+Base       Lib:Object

 0000:00000000       ___guard_eh_cont_count     00000000     <absolute>
 0000:00000000       ___arm64x_extra_rfe_table_size 00000000     <absolute>
 0000:00000000       ___hybrid_code_map         00000000     <absolute>
 0000:00000000       ___x64_code_ranges_to_entry_points 00000000     <absolute>
 0000:00000000       ___guard_longjmp_table     00000000     <absolute>
 0000:00000000       ___guard_eh_cont_table     00000000     <absolute>
 0000:00000000       ___arm64x_redirection_metadata_count 00000000     <absolute>
 0000:00000000       ___hybrid_auxiliary_iat    00000000     <absolute>
 0000:00000000       ___arm64x_native_entrypoint 00000000     <absolute>
 0000:00000000       ___enclave_config          00000000     <absolute>
 0000:00000000       ___x64_code_ranges_to_entry_points_count 00000000     <absolute>
 0000:00000000       ___guard_iat_count         00000000     <absolute>
 0000:00000000       ___dynamic_value_reloc_table 00000000     <absolute>
 0000:00000000       ___AbsoluteZero            00000000     <absolute>
 0000:00000000       __except_list              00000000     <absolute>
 0000:00000000       ___volatile_metadata       00000000     <absolute>
 0000:00000000       ___hybrid_code_map_count   00000000     <absolute>
 0000:00000000       ___guard_iat_table         00000000     <absolute>
 0000:00000000       ___arm64x_extra_rfe_table  00000000     <absolute>
 0000:00000000       ___arm64x_redirection_metadata 00000000     <absolute>
 0000:00000000       ___guard_fids_count        00000000     <absolute>
 0000:00000000       ___guard_fids_table        00000000     <absolute>
 0000:00000000       ___guard_longjmp_count     00000000     <absolute>
 0000:00000011       ___safe_se_handler_count   00000011     <absolute>
 0000:0000002c       __tls_array                0000002c     <absolute>
 0000:00000100       ___guard_flags             00000100     <absolute>
 0000:00000000       ___ImageBase               10000000     <linker-defined>
 0001:00000d90       ?_assert@@YAXPB_W0I@Z      10001d90 f   Assert.obj
 0001:00000ec0       ___local_stdio_printf_options 10001ec0 f i Assert.obj
 0001:00000ed0       ___vswprintf_l             10001ed0 f i Assert.obj
 0001:00000f00       __swprintf                 10001f00 f i Assert.obj
 0001:00000f60       __vswprintf_c_l            10001f60 f i Assert.obj
 0001:00000fd0       __vswprintf_l              10001fd0 f i Assert.obj
 0001:00001000       ?cw_memcpy@@YGHPADPB_WH@Z  10002000 f   CWString.obj
 0001:00001060       ?cw_memcpy@@YGHPA_WPBDH@Z  10002060 f   CWString.obj
 0001:000010c0       ?cw_memcpy@@YGHPADPBDH@Z   100020c0 f   CWString.obj
 0001:00001110       ?cw_memcpy@@YGHPA_WPB_WH@Z 10002110 f   CWString.obj
 0001:00001150       ?cw_memset@@YAXPADDH@Z     10002150 f   CWString.obj
 0001:00001170       ?cw_memset@@YAXPA_W_WH@Z   10002170 f   CWString.obj
 0001:00001190       ?cw_strlen@@YAHPBD@Z       10002190 f   CWString.obj
 0001:000011e0       ?cw_strlen@@YAHPB_W@Z      100021e0 f   CWString.obj
 0001:00001230       ?cw_strcpy@@YAHPADPB_W@Z   10002230 f   CWString.obj
 0001:00001250       ?cw_strcpy@@YAHPA_WPBD@Z   10002250 f   CWString.obj
 0001:00001270       ?cw_strcpy@@YAHPADPBD@Z    10002270 f   CWString.obj
 0001:00001290       ?cw_strcpy@@YAHPA_WPB_W@Z  10002290 f   CWString.obj
 0001:000012b0       ?cw_strcat@@YAHPADPB_W@Z   100022b0 f   CWString.obj
 0001:000012e0       ?cw_strcat@@YAHPA_WPBD@Z   100022e0 f   CWString.obj
 0001:00001310       ?cw_strcat@@YAHPADPBD@Z    10002310 f   CWString.obj
 0001:00001340       ?cw_strcat@@YAHPA_WPB_W@Z  10002340 f   CWString.obj
 0001:00001370       ?cw_dup@@YGXPBDAAHAAPA_W1@Z 10002370 f   CWString.obj
 0001:00001430       ?cw_dup@@YGXPB_WAAHAAPAD1@Z 10002430 f   CWString.obj
 0001:000014e0       ?DupChar@_CW@@AAEXXZ       100024e0 f   CWString.obj
 0001:00001530       ?DupWide@_CW@@AAEXXZ       10002530 f   CWString.obj
 0001:00001580       ?GetCharsMbcs@_CW@@QAEHXZ  10002580 f   CWString.obj
 0001:000015e0       ?GetCharsWide@_CW@@QAEHXZ  100025e0 f   CWString.obj
 0001:00001640       ?SetVARIANT_BOOL@OposVariant@@QAEXF@Z 10002640 f   OposVariant.obj
 0001:000016a0       ?SetVARIANT_BOOL_Ptr@OposVariant@@QAEXPAFAAJ@Z 100026a0 f   OposVariant.obj
 0001:000016f0       ?GetLONG@OposVariant@@QAEJXZ 100026f0 f   OposVariant.obj
 0001:00001780       ?ChangeLONG@OposVariant@@QAEXPAJAAJ@Z 10002780 f   OposVariant.obj
 0001:00001840       ?SetLONG@OposVariant@@QAEXJ@Z 10002840 f   OposVariant.obj
 0001:00001880       ?SetLONG_Ptr@OposVariant@@QAEXPAJAAJ@Z 10002880 f   OposVariant.obj
 0001:000018d0       ?ChangeCURRENCY@OposVariant@@QAEXPATtagCY@@AAJ@Z 100028d0 f   OposVariant.obj
 0001:00001990       ?SetCURRENCY@OposVariant@@QAEXTtagCY@@@Z 10002990 f   OposVariant.obj
 0001:000019d0       ?SetCURRENCY_Ptr@OposVariant@@QAEXPATtagCY@@AAJ@Z 100029d0 f   OposVariant.obj
 0001:00001a20       ?ChangeBSTR@OposVariant@@QAEXPAPA_WAAJ@Z 10002a20 f   OposVariant.obj
 0001:00001ae0       ?SetBSTR@OposVariant@@QAEXPA_WAAJ@Z 10002ae0 f   OposVariant.obj
 0001:00001b30       ?SetBSTR_Copy@OposVariant@@QAEXPA_WAAJ@Z 10002b30 f   OposVariant.obj
 0001:00001bd0       ?SetBSTR_OutPtr@OposVariant@@QAE_NPAPA_WAAJ@Z 10002bd0 f   OposVariant.obj
 0001:00001c20       ?SetBSTR_InOutPtr@OposVariant@@QAE_NPAPA_WAAJ@Z 10002c20 f   OposVariant.obj
 0001:00001c70       ?SetVARIANT@OposVariant@@QAEXAAUtagVARIANT@@GAAJ@Z 10002c70 f   OposVariant.obj
 0001:00001cf0       ?SetVARIANT_Ptr@OposVariant@@QAEXAAPAUtagVARIANT@@GAAJ@Z 10002cf0 f   OposVariant.obj
 0001:00001d90       ?SetString@OposVariant@@QAEXPB_WAAJ@Z 10002d90 f   OposVariant.obj
 0001:00001e20       ?SetDispatch_Ptr@OposVariant@@QAEXPAUIDispatch@@AAJ@Z 10002e20 f   OposVariant.obj
 0001:00001e90       ??0OposDispParms@@QAE@PAVOposVariant@@H@Z 10002e90 f   OposVariant.obj
 0001:00001f60       ??1OposDispParms@@QAE@XZ   10002f60 f   OposVariant.obj
 0001:00001fb0       ??$AtlMultiply@I@ATL@@YAJPAIII@Z 10002fb0 f i OposVariant.obj
 0001:00002010       ??0?$CHeapPtr@_WVCCRTAllocator@ATL@@@ATL@@QAE@XZ 10003010 f i OposVariant.obj
 0001:00002040       ??0?$CHeapPtrBase@_WVCCRTAllocator@ATL@@@ATL@@IAE@XZ 10003040 f i OposVariant.obj
 0001:00002060       ??0?$CSimpleArray@GV?$CSimpleArrayEqualHelper@G@ATL@@@ATL@@QAE@XZ 10003060 f i OposVariant.obj
 0001:000020a0       ??0?$CTraceCategoryEx@$00$0A@@ATL@@QAE@PB_W@Z 100030a0 f i OposVariant.obj
 0001:000020d0       ??0?$CTraceCategoryEx@$01$0A@@ATL@@QAE@PB_W@Z 100030d0 f i OposVariant.obj
 0001:00002100       ??0?$CTraceCategoryEx@$03$0A@@ATL@@QAE@PB_W@Z 10003100 f i OposVariant.obj
 0001:00002130       ??0?$CTraceCategoryEx@$07$0A@@ATL@@QAE@PB_W@Z 10003130 f i OposVariant.obj
 0001:00002160       ??0?$CTraceCategoryEx@$0BA@$0A@@ATL@@QAE@PB_W@Z 10003160 f i OposVariant.obj
 0001:00002190       ??0?$CTraceCategoryEx@$0BAA@$0A@@ATL@@QAE@PB_W@Z 10003190 f i OposVariant.obj
 0001:000021d0       ??0?$CTraceCategoryEx@$0BAAA@$0A@@ATL@@QAE@PB_W@Z 100031d0 f i OposVariant.obj
 0001:00002210       ??0?$CTraceCategoryEx@$0BAAAA@$0A@@ATL@@QAE@PB_W@Z 10003210 f i OposVariant.obj
 0001:00002250       ??0?$CTraceCategoryEx@$0BAAAAA@$0A@@ATL@@QAE@PB_W@Z 10003250 f i OposVariant.obj
 0001:00002290       ??0?$CTraceCategoryEx@$0CA@$0A@@ATL@@QAE@PB_W@Z 10003290 f i OposVariant.obj
 0001:000022c0       ??0?$CTraceCategoryEx@$0CAA@$0A@@ATL@@QAE@PB_W@Z 100032c0 f i OposVariant.obj
 0001:00002300       ??0?$CTraceCategoryEx@$0CAAA@$0A@@ATL@@QAE@PB_W@Z 10003300 f i OposVariant.obj
 0001:00002340       ??0?$CTraceCategoryEx@$0CAAAA@$0A@@ATL@@QAE@PB_W@Z 10003340 f i OposVariant.obj
 0001:00002380       ??0?$CTraceCategoryEx@$0CAAAAA@$0A@@ATL@@QAE@PB_W@Z 10003380 f i OposVariant.obj
 0001:000023c0       ??0?$CTraceCategoryEx@$0EA@$0A@@ATL@@QAE@PB_W@Z 100033c0 f i OposVariant.obj
 0001:000023f0       ??0?$CTraceCategoryEx@$0EAA@$0A@@ATL@@QAE@PB_W@Z 100033f0 f i OposVariant.obj
 0001:00002430       ??0?$CTraceCategoryEx@$0EAAA@$0A@@ATL@@QAE@PB_W@Z 10003430 f i OposVariant.obj
 0001:00002470       ??0?$CTraceCategoryEx@$0EAAAA@$0A@@ATL@@QAE@PB_W@Z 10003470 f i OposVariant.obj
 0001:000024b0       ??0?$CTraceCategoryEx@$0EAAAAA@$0A@@ATL@@QAE@PB_W@Z 100034b0 f i OposVariant.obj
 0001:000024f0       ??0?$CTraceCategoryEx@$0IA@$0A@@ATL@@QAE@PB_W@Z 100034f0 f i OposVariant.obj
 0001:00002530       ??0?$CTraceCategoryEx@$0IAA@$0A@@ATL@@QAE@PB_W@Z 10003530 f i OposVariant.obj
 0001:00002570       ??0?$CTraceCategoryEx@$0IAAA@$0A@@ATL@@QAE@PB_W@Z 10003570 f i OposVariant.obj
 0001:000025b0       ??0?$CTraceCategoryEx@$0IAAAA@$0A@@ATL@@QAE@PB_W@Z 100035b0 f i OposVariant.obj
 0001:000025f0       ??0CAtlComModule@ATL@@QAE@XZ 100035f0 f i OposVariant.obj
 0001:000026d0       ??0CAtlWinModule@ATL@@QAE@XZ 100036d0 f i OposVariant.obj
 0001:00002760       ??0CComCriticalSection@ATL@@QAE@XZ 10003760 f i OposVariant.obj
 0001:00002790       ??0CPreserveLastError@ATL@@QAE@XZ 10003790 f i OposVariant.obj
 0001:000027d0       ??0CTraceFileAndLineInfo@ATL@@QAE@PBDH@Z 100037d0 f i OposVariant.obj
 0001:00002800       ??0_ATL_COM_MODULE70@ATL@@QAE@XZ 10003800 f i OposVariant.obj
 0001:00002830       ??0_ATL_WIN_MODULE70@ATL@@QAE@XZ 10003830 f i OposVariant.obj
 0001:00002870       ??1?$CHeapPtr@_WVCCRTAllocator@ATL@@@ATL@@QAE@XZ 10003870 f i OposVariant.obj
 0001:000028a0       ??1?$CHeapPtrBase@_WVCCRTAllocator@ATL@@@ATL@@QAE@XZ 100038a0 f i OposVariant.obj
 0001:000028d0       ??1?$CSimpleArray@GV?$CSimpleArrayEqualHelper@G@ATL@@@ATL@@QAE@XZ 100038d0 f i OposVariant.obj
 0001:00002900       ??1CAtlComModule@ATL@@QAE@XZ 10003900 f i OposVariant.obj
 0001:00002930       ??1CAtlWinModule@ATL@@QAE@XZ 10003930 f i OposVariant.obj
 0001:00002960       ??1CComBSTR@ATL@@QAE@XZ    10003960 f i OposVariant.obj
 0001:000029a0       ??1CComCriticalSection@ATL@@QAE@XZ 100039a0 f i OposVariant.obj
 0001:000029c0       ??1CPreserveLastError@ATL@@QAE@XZ 100039c0 f i OposVariant.obj
 0001:00002a00       ??1_ATL_COM_MODULE70@ATL@@QAE@XZ 10003a00 f i OposVariant.obj
 0001:00002a30       ??1_ATL_WIN_MODULE70@ATL@@QAE@XZ 10003a30 f i OposVariant.obj
 0001:00002a70       ??1stringdispid@CComTypeInfoHolder@ATL@@QAE@XZ 10003a70 f i OposVariant.obj
 0001:00002aa0       ??A?$CSimpleArray@GV?$CSimpleArrayEqualHelper@G@ATL@@@ATL@@QAEAAGH@Z 10003aa0 f i OposVariant.obj
 0001:00002b20       ??B?$CHeapPtrBase@_WVCCRTAllocator@ATL@@@ATL@@QBEPA_WXZ 10003b20 f i OposVariant.obj
 0001:00002b40       ??B?$CTraceCategoryEx@$01$0A@@ATL@@QAEIXZ 10003b40 f i OposVariant.obj
 0001:00002b60       ??B?$CTraceCategoryEx@$0CA@$0A@@ATL@@QAEIXZ 10003b60 f i OposVariant.obj
 0001:00002b80       ??RCTraceFileAndLineInfo@ATL@@QBAXHIPB_WZZ 10003b80 f i OposVariant.obj
 0001:00002c20       ??_Estringdispid@CComTypeInfoHolder@ATL@@QAEPAXI@Z 10003c20 f i OposVariant.obj
 0001:00002cb0       ??_H@YGXPAXIIP6EPAX0@Z@Z   10003cb0 f i OposVariant.obj
 0001:00002d20       ??_I@YGXPAXIIP6EX0@Z@Z     10003d20 f i OposVariant.obj
 0001:00002da0       ?Allocate@?$CHeapPtr@_WVCCRTAllocator@ATL@@@ATL@@QAE_NI@Z 10003da0 f i OposVariant.obj
 0001:00002e30       ?Allocate@CCRTAllocator@ATL@@SAPAXI@Z 10003e30 f i OposVariant.obj
 0001:00002e50       ?AllocateBytes@?$CHeapPtrBase@_WVCCRTAllocator@ATL@@@ATL@@QAE_NI@Z 10003e50 f i OposVariant.obj
 0001:00002ec0       ?AtlWinModuleInit@ATL@@YGJPAU_ATL_WIN_MODULE70@1@@Z 10003ec0 f i OposVariant.obj
 0001:00002f90       ?AtlWinModuleTerm@ATL@@YGJPAU_ATL_WIN_MODULE70@1@PAUHINSTANCE__@@@Z 10003f90 f i OposVariant.obj
 0001:00003050       ?Clear@OposVariant@@QAEJXZ 10004050 f i OposVariant.obj
 0001:00003090       ?Free@?$CHeapPtrBase@_WVCCRTAllocator@ATL@@@ATL@@QAEXXZ 10004090 f i OposVariant.obj
 0001:000030d0       ?Free@CCRTAllocator@ATL@@SAXPAX@Z 100040d0 f i OposVariant.obj
 0001:000030f0       ?GetCategoryName@CTrace@ATL@@CAPA_WI@Z 100040f0 f i OposVariant.obj
 0001:00003140       ?GetModuleInstance@CAtlBaseModule@ATL@@QAEPAUHINSTANCE__@@XZ 10004140 f i OposVariant.obj
 0001:00003160       ?GetSize@?$CSimpleArray@GV?$CSimpleArrayEqualHelper@G@ATL@@@ATL@@QBEHXZ 10004160 f i OposVariant.obj
 0001:00003180       ?Init@CComCriticalSection@ATL@@QAEJXZ 10004180 f i OposVariant.obj
 0001:000031e0       ?RegisterCategory@CTrace@ATL@@SAXPB_WI@Z 100041e0 f i OposVariant.obj
 0001:00003270       ?RemoveAll@?$CSimpleArray@GV?$CSimpleArrayEqualHelper@G@ATL@@@ATL@@QAEXXZ 10004270 f i OposVariant.obj
 0001:000032f0       ?Term@CAtlComModule@ATL@@QAEXXZ 100042f0 f i OposVariant.obj
 0001:000033b0       ?Term@CAtlWinModule@ATL@@QAEXXZ 100043b0 f i OposVariant.obj
 0001:000033e0       ?Term@CComCriticalSection@ATL@@QAEJXZ 100043e0 f i OposVariant.obj
 0001:00003420       ?TraceV@CTrace@ATL@@CAXPBDHIIPB_W@Z 10004420 f i OposVariant.obj
 0001:000036a0       ?TraceV@CTrace@ATL@@SAXPBDHIIPB_WPAD@Z 100046a0 f i OposVariant.obj
 0001:000037e0       ?_AtlInitializeCriticalSectionEx@ATL@@YAHPAU_RTL_CRITICAL_SECTION@@KK@Z 100047e0 f i OposVariant.obj
 0001:00003810       ?_AtlRaiseException@ATL@@YAXKK@Z 10004810 f i OposVariant.obj
 0001:00003840       _HRESULT_FROM_WIN32        10004840 f i OposVariant.obj
 0001:00003880       __vswprintf_s_l            10004880 f i OposVariant.obj
 0001:000038f0       _swprintf_s                100048f0 f i OposVariant.obj
 0001:00003950       ?ObjectMain@CComObjectRootBase@ATL@@SGX_N@Z 10004950 f i VoiceRecognition.obj
 0001:00003960       ?GetCategoryMap@CComObjectRootBase@ATL@@SAPBU_ATL_CATMAP_ENTRY@2@XZ 10004960 f i VoiceRecognition.obj
 0001:00003970       ?GetObjectDescription@?$CComCoClass@VCOPOSVoiceRecognition@@$1?CLSID_OPOSVoiceRecognition@@3U_GUID@@B@ATL@@SGPB_WXZ 10004970 f i VoiceRecognition.obj
 0001:00003980       ?UpdateRegistry@COPOSVoiceRecognition@@SGJH@Z 10004980 f i VoiceRecognition.obj
 0001:000039a0       ?CreateInstance@?$CComCreator@V?$CComObjectCached@VCComClassFactory@ATL@@@ATL@@@ATL@@SGJPAXABU_GUID@@PAPAX@Z 100049a0 f i VoiceRecognition.obj
 0001:00003b20       ?CreateInstance@?$CComCreator2@V?$CComCreator@V?$CComObject@VCOPOSVoiceRecognition@@@ATL@@@ATL@@V?$CComCreator@V?$CComAggObject@VCOPOSVoiceRecognition@@@ATL@@@2@@ATL@@SGJPAXABU_GUID@@PAPAX@Z 10004b20 f i VoiceRecognition.obj
 0001:00003cd0       _DllGetClassObject@12      10004cd0 f   VoiceRecognition.obj
 0001:00003d00       _DllCanUnloadNow@0         10004d00 f   VoiceRecognition.obj
 0001:00003d40       _DllRegisterServer@0       10004d40 f   VoiceRecognition.obj
 0001:00003d60       _DllUnregisterServer@0     10004d60 f   VoiceRecognition.obj
 0001:00003ef0       _DllMain@12                10004ef0 f   VoiceRecognition.obj
 0001:00003f50       ??$?2G@Wrapper@?$CSimpleArray@GV?$CSimpleArrayEqualHelper@G@ATL@@@ATL@@SAPAXIPAG@Z 10004f50 f i VoiceRecognition.obj
 0001:00003f60       ??$?2PA_W@?$Wrapper@PA_W@?$CSimpleMap@PA_WPA_WVCExpansionVectorEqualHelper@ATL@@@ATL@@SAPAXIPAPA_W@Z 10004f60 f i VoiceRecognition.obj
 0001:00003f70       ??$?4UITypeInfo2@@@?$CComPtr@UITypeInfo@@@ATL@@QAEPAUITypeInfo@@ABV?$CComPtr@UITypeInfo2@@@1@@Z 10004f70 f i VoiceRecognition.obj
 0001:00003fd0       ??$AtlAdd@K@ATL@@YAJPAKKK@Z 10004fd0 f i VoiceRecognition.obj
 0001:00004010       ??$AtlAdd@_K@ATL@@YAJPA_K_K1@Z 10005010 f i VoiceRecognition.obj
 0001:00004080       ??$AtlAddThrow@K@ATL@@YAKKK@Z 10005080 f i VoiceRecognition.obj
 0001:00004100       ??$AtlModuleRegisterWndClassInfoT@VAtlModuleRegisterWndClassInfoParamW@ATL@@@ATL@@YAGPAU_ATL_BASE_MODULE70@0@PAU_ATL_WIN_MODULE70@0@PAU_ATL_WNDCLASSINFOW@0@PAP6GJPAUHWND__@@IIJ@ZVAtlModuleRegisterWndClassInfoParamW@0@@Z 10005100 f i VoiceRecognition.obj
 0001:00004510       ??$AtlMultiply@H@ATL@@YAJPAHHH@Z 10005510 f i VoiceRecognition.obj
 0001:00004590       ??$AtlMultiply@K@ATL@@YAJPAKKK@Z 10005590 f i VoiceRecognition.obj
 0001:000045f0       ??$AtlMultiplyThrow@I@ATL@@YAIII@Z 100055f0 f i VoiceRecognition.obj
 0001:00004670       ??$QueryInterface@UIPersistStream@@@IUnknown@@QAGJPAPAUIPersistStream@@@Z 10005670 f i VoiceRecognition.obj
 0001:000046a0       ??$QueryInterface@UITypeInfo2@@@IUnknown@@QAGJPAPAUITypeInfo2@@@Z 100056a0 f i VoiceRecognition.obj
 0001:000046d0       ??0?$CAtlModuleT@VCComModule@ATL@@@ATL@@QAE@XZ 100056d0 f i VoiceRecognition.obj
 0001:00004700       ??0?$CAtlSafeAllocBufferManager@VCCRTAllocator@ATL@@@_ATL_SAFE_ALLOCA_IMPL@ATL@@QAE@XZ 10005700 f i VoiceRecognition.obj
 0001:00004720       ??0?$CAutoVectorPtr@_W@ATL@@QAE@XZ 10005720 f i VoiceRecognition.obj
 0001:00004740       ??0?$CComAggObject@VCOPOSVoiceRecognition@@@ATL@@QAE@PAX@Z 10005740 f i VoiceRecognition.obj
 0001:000047b0       ??0?$CComContainedObject@VCOPOSVoiceRecognition@@@ATL@@QAE@PAX@Z 100057b0 f i VoiceRecognition.obj
 0001:000048c0       ??0?$CComCritSecLock@VCComCriticalSection@ATL@@@ATL@@QAE@AAVCComCriticalSection@1@_N@Z 100058c0 f i VoiceRecognition.obj
 0001:00004920       ??0?$CComEnum@UIEnumConnectionPoints@@$1?_GUID_b196b285_bab4_101a_b69c_00aa00341d07@@3U__s_GUID@@BPAUIConnectionPoint@@V?$_CopyInterface@UIConnectionPoint@@@ATL@@VCComSingleThreadModel@6@@ATL@@QAE@XZ 10005920 f i VoiceRecognition.obj
 0001:00004960       ??0?$CComEnum@UIEnumConnections@@$1?_GUID_b196b287_bab4_101a_b69c_00aa00341d07@@3U__s_GUID@@BUtagCONNECTDATA@@V?$_Copy@UtagCONNECTDATA@@@ATL@@VCComSingleThreadModel@6@@ATL@@QAE@XZ 10005960 f i VoiceRecognition.obj
 0001:000049a0       ??0?$CComEnumImpl@UIEnumConnectionPoints@@$1?_GUID_b196b285_bab4_101a_b69c_00aa00341d07@@3U__s_GUID@@BPAUIConnectionPoint@@V?$_CopyInterface@UIConnectionPoint@@@ATL@@@ATL@@QAE@XZ 100059a0 f i VoiceRecognition.obj
 0001:00004a00       ??0?$CComEnumImpl@UIEnumConnections@@$1?_GUID_b196b287_bab4_101a_b69c_00aa00341d07@@3U__s_GUID@@BUtagCONNECTDATA@@V?$_Copy@UtagCONNECTDATA@@@ATL@@@ATL@@QAE@XZ 10005a00 f i VoiceRecognition.obj
 0001:00004a60       ??0?$CComObject@V?$CComEnum@UIEnumConnectionPoints@@$1?_GUID_b196b285_bab4_101a_b69c_00aa00341d07@@3U__s_GUID@@BPAUIConnectionPoint@@V?$_CopyInterface@UIConnectionPoint@@@ATL@@VCComSingleThreadModel@6@@ATL@@@ATL@@QAE@PAX@Z 10005a60 f i VoiceRecognition.obj
 0001:00004ab0       ??0?$CComObject@V?$CComEnum@UIEnumConnections@@$1?_GUID_b196b287_bab4_101a_b69c_00aa00341d07@@3U__s_GUID@@BUtagCONNECTDATA@@V?$_Copy@UtagCONNECTDATA@@@ATL@@VCComSingleThreadModel@6@@ATL@@@ATL@@QAE@PAX@Z 10005ab0 f i VoiceRecognition.obj
 0001:00004b00       ??0?$CComObject@VCOPOSVoiceRecognition@@@ATL@@QAE@PAX@Z 10005b00 f i VoiceRecognition.obj
 0001:00004c20       ??0?$CComObjectCached@VCComClassFactory@ATL@@@ATL@@QAE@PAX@Z 10005c20 f i VoiceRecognition.obj
 0001:00004c60       ??0?$CComObjectRootEx@VCComMultiThreadModel@ATL@@@ATL@@QAE@XZ 10005c60 f i VoiceRecognition.obj
 0001:00004ca0       ??0?$CComObjectRootEx@VCComSingleThreadModel@ATL@@@ATL@@QAE@XZ 10005ca0 f i VoiceRecognition.obj
 0001:00004cd0       ??0?$CComPtr@UIAdviseSink@@@ATL@@QAE@PAUIAdviseSink@@@Z 10005cd0 f i VoiceRecognition.obj
 0001:00004d00       ??0?$CComPtr@UICatRegister@@@ATL@@QAE@XZ 10005d00 f i VoiceRecognition.obj
 0001:00004d30       ??0?$CComPtr@UIConnectionPoint@@@ATL@@QAE@XZ 10005d30 f i VoiceRecognition.obj
 0001:00004d60       ??0?$CComPtr@UIConnectionPointContainer@@@ATL@@QAE@XZ 10005d60 f i VoiceRecognition.obj
 0001:00004d90       ??0?$CComPtr@UIDataObject@@@ATL@@QAE@XZ 10005d90 f i VoiceRecognition.obj
 0001:00004dc0       ??0?$CComPtr@UIDispatch@@@ATL@@QAE@XZ 10005dc0 f i VoiceRecognition.obj
 0001:00004df0       ??0?$CComPtr@UIOleClientSite@@@ATL@@QAE@PAUIOleClientSite@@@Z 10005df0 f i VoiceRecognition.obj
 0001:00004e20       ??0?$CComPtr@UIOleControlSite@@@ATL@@QAE@XZ 10005e20 f i VoiceRecognition.obj
 0001:00004e50       ??0?$CComPtr@UIOleInPlaceActiveObject@@@ATL@@QAE@XZ 10005e50 f i VoiceRecognition.obj
 0001:00004e80       ??0?$CComPtr@UIOleInPlaceFrame@@@ATL@@QAE@XZ 10005e80 f i VoiceRecognition.obj
 0001:00004eb0       ??0?$CComPtr@UIOleInPlaceObject@@@ATL@@QAE@XZ 10005eb0 f i VoiceRecognition.obj
 0001:00004ee0       ??0?$CComPtr@UIOleInPlaceUIWindow@@@ATL@@QAE@XZ 10005ee0 f i VoiceRecognition.obj
 0001:00004f10       ??0?$CComPtr@UIOleObject@@@ATL@@QAE@XZ 10005f10 f i VoiceRecognition.obj
 0001:00004f40       ??0?$CComPtr@UIPersistStream@@@ATL@@QAE@XZ 10005f40 f i VoiceRecognition.obj
 0001:00004f70       ??0?$CComPtr@UIPersistStreamInit@@@ATL@@QAE@XZ 10005f70 f i VoiceRecognition.obj
 0001:00004fa0       ??0?$CComPtr@UIPointerInactive@@@ATL@@QAE@XZ 10005fa0 f i VoiceRecognition.obj
 0001:00004fd0       ??0?$CComPtr@UIProvideClassInfo2@@@ATL@@QAE@XZ 10005fd0 f i VoiceRecognition.obj
 0001:00005000       ??0?$CComPtr@UISpecifyPropertyPages@@@ATL@@QAE@XZ 10006000 f i VoiceRecognition.obj
 0001:00005030       ??0?$CComPtr@UIStream@@@ATL@@QAE@XZ 10006030 f i VoiceRecognition.obj
 0001:00005060       ??0?$CComPtr@UITypeInfo2@@@ATL@@QAE@XZ 10006060 f i VoiceRecognition.obj
 0001:00005090       ??0?$CComPtr@UITypeInfo@@@ATL@@QAE@ABV01@@Z 10006090 f i VoiceRecognition.obj
 0001:000050c0       ??0?$CComPtr@UITypeInfo@@@ATL@@QAE@XZ 100060c0 f i VoiceRecognition.obj
 0001:000050f0       ??0?$CComPtr@UITypeLib@@@ATL@@QAE@XZ 100060f0 f i VoiceRecognition.obj
 0001:00005120       ??0?$CComPtr@UIUnknown@@@ATL@@QAE@ABV01@@Z 10006120 f i VoiceRecognition.obj
 0001:00005150       ??0?$CComPtr@UIUnknown@@@ATL@@QAE@PAUIUnknown@@@Z 10006150 f i VoiceRecognition.obj
 0001:00005180       ??0?$CComPtr@UIUnknown@@@ATL@@QAE@XZ 10006180 f i VoiceRecognition.obj
 0001:000051b0       ??0?$CComPtr@UIViewObjectEx@@@ATL@@QAE@XZ 100061b0 f i VoiceRecognition.obj
 0001:000051e0       ??0?$CComPtrBase@UIAdviseSink@@@ATL@@IAE@PAUIAdviseSink@@@Z 100061e0 f i VoiceRecognition.obj
 0001:00005230       ??0?$CComPtrBase@UICatRegister@@@ATL@@IAE@XZ 10006230 f i VoiceRecognition.obj
 0001:00005250       ??0?$CComPtrBase@UIConnectionPoint@@@ATL@@IAE@XZ 10006250 f i VoiceRecognition.obj
 0001:00005270       ??0?$CComPtrBase@UIConnectionPointContainer@@@ATL@@IAE@XZ 10006270 f i VoiceRecognition.obj
 0001:00005290       ??0?$CComPtrBase@UIDataObject@@@ATL@@IAE@XZ 10006290 f i VoiceRecognition.obj
 0001:000052b0       ??0?$CComPtrBase@UIDispatch@@@ATL@@IAE@XZ 100062b0 f i VoiceRecognition.obj
 0001:000052d0       ??0?$CComPtrBase@UIOleClientSite@@@ATL@@IAE@PAUIOleClientSite@@@Z 100062d0 f i VoiceRecognition.obj
 0001:00005320       ??0?$CComPtrBase@UIOleControlSite@@@ATL@@IAE@XZ 10006320 f i VoiceRecognition.obj
 0001:00005340       ??0?$CComPtrBase@UIOleInPlaceActiveObject@@@ATL@@IAE@XZ 10006340 f i VoiceRecognition.obj
 0001:00005360       ??0?$CComPtrBase@UIOleInPlaceFrame@@@ATL@@IAE@XZ 10006360 f i VoiceRecognition.obj
 0001:00005380       ??0?$CComPtrBase@UIOleInPlaceObject@@@ATL@@IAE@XZ 10006380 f i VoiceRecognition.obj
 0001:000053a0       ??0?$CComPtrBase@UIOleInPlaceUIWindow@@@ATL@@IAE@XZ 100063a0 f i VoiceRecognition.obj
 0001:000053c0       ??0?$CComPtrBase@UIOleObject@@@ATL@@IAE@XZ 100063c0 f i VoiceRecognition.obj
 0001:000053e0       ??0?$CComPtrBase@UIPersistStream@@@ATL@@IAE@XZ 100063e0 f i VoiceRecognition.obj
 0001:00005400       ??0?$CComPtrBase@UIPersistStreamInit@@@ATL@@IAE@XZ 10006400 f i VoiceRecognition.obj
 0001:00005420       ??0?$CComPtrBase@UIPointerInactive@@@ATL@@IAE@XZ 10006420 f i VoiceRecognition.obj
 0001:00005440       ??0?$CComPtrBase@UIProvideClassInfo2@@@ATL@@IAE@XZ 10006440 f i VoiceRecognition.obj
 0001:00005460       ??0?$CComPtrBase@UISpecifyPropertyPages@@@ATL@@IAE@XZ 10006460 f i VoiceRecognition.obj
 0001:00005480       ??0?$CComPtrBase@UIStream@@@ATL@@IAE@XZ 10006480 f i VoiceRecognition.obj
 0001:000054a0       ??0?$CComPtrBase@UITypeInfo2@@@ATL@@IAE@XZ 100064a0 f i VoiceRecognition.obj
 0001:000054c0       ??0?$CComPtrBase@UITypeInfo@@@ATL@@IAE@PAUITypeInfo@@@Z 100064c0 f i VoiceRecognition.obj
 0001:00005510       ??0?$CComPtrBase@UITypeInfo@@@ATL@@IAE@XZ 10006510 f i VoiceRecognition.obj
 0001:00005530       ??0?$CComPtrBase@UITypeLib@@@ATL@@IAE@XZ 10006530 f i VoiceRecognition.obj
 0001:00005550       ??0?$CComPtrBase@UIUnknown@@@ATL@@IAE@PAUIUnknown@@@Z 10006550 f i VoiceRecognition.obj
 0001:000055a0       ??0?$CComPtrBase@UIUnknown@@@ATL@@IAE@XZ 100065a0 f i VoiceRecognition.obj
 0001:000055c0       ??0?$CComPtrBase@UIViewObjectEx@@@ATL@@IAE@XZ 100065c0 f i VoiceRecognition.obj
 0001:000055e0       ??0?$CComQIPtr@UIOleControlSite@@$1?_GUID_b196b289_bab4_101a_b69c_00aa00341d07@@3U__s_GUID@@B@ATL@@QAE@PAUIUnknown@@@Z 100065e0 f i VoiceRecognition.obj
 0001:00005640       ??0?$CComQIPtr@UIOleObject@@$1?_GUID_00000112_0000_0000_c000_000000000046@@3U__s_GUID@@B@ATL@@QAE@XZ 10006640 f i VoiceRecognition.obj
 0001:00005670       ??0?$CComQIPtr@UISpecifyPropertyPages@@$1?_GUID_b196b28b_bab4_101a_b69c_00aa00341d07@@3U__s_GUID@@B@ATL@@QAE@XZ 10006670 f i VoiceRecognition.obj
 0001:000056a0       ??0?$CSimpleMap@PA_WPA_WVCExpansionVectorEqualHelper@ATL@@@ATL@@QAE@XZ 100066a0 f i VoiceRecognition.obj
 0001:000056e0       ??0?$CTempBuffer@E$0BAA@VCCRTAllocator@ATL@@@ATL@@QAE@XZ 100066e0 f i VoiceRecognition.obj
 0001:00005700       ??0?$CTempBuffer@_W$0BAA@VCCRTAllocator@ATL@@@ATL@@QAE@XZ 10006700 f i VoiceRecognition.obj
 0001:00005720       ??0?$CTempBuffer@_W$0EAA@VCCRTAllocator@ATL@@@ATL@@QAE@XZ 10006720 f i VoiceRecognition.obj
 0001:00005740       ??0?$Wrapper@PA_W@?$CSimpleMap@PA_WPA_WVCExpansionVectorEqualHelper@ATL@@@ATL@@QAE@ABQA_W@Z 10006740 f i VoiceRecognition.obj
 0001:00005770       ??0CAtlModule@ATL@@QAE@XZ  10006770 f i VoiceRecognition.obj
 0001:00005890       ??0CComAutoDeleteCriticalSection@ATL@@QAE@XZ 10006890 f i VoiceRecognition.obj
 0001:000058c0       ??0CComBSTR@ATL@@QAE@XZ    100068c0 f i VoiceRecognition.obj
 0001:000058e0       ??0CComClassFactory@ATL@@QAE@XZ 100068e0 f i VoiceRecognition.obj
 0001:00005920       ??0CComModule@ATL@@QAE@XZ  10006920 f i VoiceRecognition.obj
 0001:00005990       ??0CComObjectRootBase@ATL@@QAE@XZ 10006990 f i VoiceRecognition.obj
 0001:000059b0       ??0CComSafeDeleteCriticalSection@ATL@@QAE@XZ 100069b0 f i VoiceRecognition.obj
 0001:000059e0       ??0CComVariant@ATL@@QAE@XZ 100069e0 f i VoiceRecognition.obj
 0001:00005a30       ??0CExpansionVector@ATL@@QAE@XZ 10006a30 f i VoiceRecognition.obj
 0001:00005a60       ??0CParseBuffer@CRegParser@ATL@@QAE@H@Z 10006a60 f i VoiceRecognition.obj
 0001:00005ad0       ??0CRegKey@ATL@@QAE@PAUHKEY__@@@Z 10006ad0 f i VoiceRecognition.obj
 0001:00005b10       ??0CRegKey@ATL@@QAE@PAVCAtlTransactionManager@1@@Z 10006b10 f i VoiceRecognition.obj
 0001:00005b50       ??0CRegObject@ATL@@QAE@XZ  10006b50 f i VoiceRecognition.obj
 0001:00005b90       ??0CRegParser@ATL@@QAE@PAVCRegObject@1@@Z 10006b90 f i VoiceRecognition.obj
 0001:00005bc0       ??0IClassFactory@@QAE@XZ   10006bc0 f i VoiceRecognition.obj
 0001:00005bf0       ??0IEnumConnectionPoints@@QAE@XZ 10006bf0 f i VoiceRecognition.obj
 0001:00005c20       ??0IEnumConnections@@QAE@XZ 10006c20 f i VoiceRecognition.obj
 0001:00005c50       ??0IRegistrarBase@@QAE@XZ  10006c50 f i VoiceRecognition.obj
 0001:00005c80       ??0IUnknown@@QAE@XZ        10006c80 f i VoiceRecognition.obj
 0001:00005ca0       ??0ModuleLockHelper@ATL@@QAE@XZ 10006ca0 f i VoiceRecognition.obj
 0001:00005ce0       ??0OposVariant@@QAE@XZ     10006ce0 f i VoiceRecognition.obj
 0001:00005d10       ??0Wrapper@?$CSimpleArray@GV?$CSimpleArrayEqualHelper@G@ATL@@@ATL@@QAE@ABG@Z 10006d10 f i VoiceRecognition.obj
 0001:00005d40       ??0_ATL_MODULE70@ATL@@QAE@XZ 10006d40 f i VoiceRecognition.obj
 0001:00005d70       ??0_ATL_MSG@ATL@@QAE@PAUHWND__@@IIJH@Z 10006d70 f i VoiceRecognition.obj
 0001:00005de0       ??0_U_MENUorID@ATL@@QAE@I@Z 10006de0 f i VoiceRecognition.obj
 0001:00005e00       ??0_U_RECT@ATL@@QAE@AAUtagRECT@@@Z 10006e00 f i VoiceRecognition.obj
 0001:00005e20       ??0stringdispid@CComTypeInfoHolder@ATL@@QAE@XZ 10006e20 f i VoiceRecognition.obj
 0001:00005e60       ??1?$CAtlModuleT@VCComModule@ATL@@@ATL@@UAE@XZ 10006e60 f i VoiceRecognition.obj
 0001:00005e90       ??1?$CAtlSafeAllocBufferManager@VCCRTAllocator@ATL@@@_ATL_SAFE_ALLOCA_IMPL@ATL@@QAE@XZ 10006e90 f i VoiceRecognition.obj
 0001:00005ee0       ??1?$CAutoVectorPtr@_W@ATL@@QAE@XZ 10006ee0 f i VoiceRecognition.obj
 0001:00005f10       ??1?$CComAggObject@VCOPOSVoiceRecognition@@@ATL@@UAE@XZ 10006f10 f i VoiceRecognition.obj
 0001:00005f80       ??1?$CComContainedObject@VCOPOSVoiceRecognition@@@ATL@@UAE@XZ 10006f80 f i VoiceRecognition.obj
 0001:00005fb0       ??1?$CComCritSecLock@VCComCriticalSection@ATL@@@ATL@@QAE@XZ 10006fb0 f i VoiceRecognition.obj
 0001:00005fe0       ??1?$CComEnum@UIEnumConnectionPoints@@$1?_GUID_b196b285_bab4_101a_b69c_00aa00341d07@@3U__s_GUID@@BPAUIConnectionPoint@@V?$_CopyInterface@UIConnectionPoint@@@ATL@@VCComSingleThreadModel@6@@ATL@@UAE@XZ 10006fe0 f i VoiceRecognition.obj
 0001:00006010       ??1?$CComEnum@UIEnumConnections@@$1?_GUID_b196b287_bab4_101a_b69c_00aa00341d07@@3U__s_GUID@@BUtagCONNECTDATA@@V?$_Copy@UtagCONNECTDATA@@@ATL@@VCComSingleThreadModel@6@@ATL@@UAE@XZ 10007010 f i VoiceRecognition.obj
 0001:00006040       ??1?$CComEnumImpl@UIEnumConnectionPoints@@$1?_GUID_b196b285_bab4_101a_b69c_00aa00341d07@@3U__s_GUID@@BPAUIConnectionPoint@@V?$_CopyInterface@UIConnectionPoint@@@ATL@@@ATL@@UAE@XZ 10007040 f i VoiceRecognition.obj
 0001:000060d0       ??1?$CComEnumImpl@UIEnumConnections@@$1?_GUID_b196b287_bab4_101a_b69c_00aa00341d07@@3U__s_GUID@@BUtagCONNECTDATA@@V?$_Copy@UtagCONNECTDATA@@@ATL@@@ATL@@UAE@XZ 100070d0 f i VoiceRecognition.obj
 0001:00006160       ??1?$CComObject@V?$CComEnum@UIEnumConnectionPoints@@$1?_GUID_b196b285_bab4_101a_b69c_00aa00341d07@@3U__s_GUID@@BPAUIConnectionPoint@@V?$_CopyInterface@UIConnectionPoint@@@ATL@@VCComSingleThreadModel@6@@ATL@@@ATL@@UAE@XZ 10007160 f i VoiceRecognition.obj
 0001:000061c0       ??1?$CComObject@V?$CComEnum@UIEnumConnections@@$1?_GUID_b196b287_bab4_101a_b69c_00aa00341d07@@3U__s_GUID@@BUtagCONNECTDATA@@V?$_Copy@UtagCONNECTDATA@@@ATL@@VCComSingleThreadModel@6@@ATL@@@ATL@@UAE@XZ 100071c0 f i VoiceRecognition.obj
 0001:00006220       ??1?$CComObject@VCOPOSVoiceRecognition@@@ATL@@UAE@XZ 10007220 f i VoiceRecognition.obj
 0001:00006360       ??1?$CComObjectCached@VCComClassFactory@ATL@@@ATL@@UAE@XZ 10007360 f i VoiceRecognition.obj
 0001:000063b0       ??1?$CComObjectRootEx@VCComMultiThreadModel@ATL@@@ATL@@QAE@XZ 100073b0 f i VoiceRecognition.obj
 0001:000063e0       ??1?$CComObjectRootEx@VCComSingleThreadModel@ATL@@@ATL@@QAE@XZ 100073e0 f i VoiceRecognition.obj
 0001:00006410       ??1?$CComPtr@UIAdviseSink@@@ATL@@QAE@XZ 10007410 f i VoiceRecognition.obj
 0001:00006440       ??1?$CComPtr@UICatRegister@@@ATL@@QAE@XZ 10007440 f i VoiceRecognition.obj
 0001:00006470       ??1?$CComPtr@UIConnectionPoint@@@ATL@@QAE@XZ 10007470 f i VoiceRecognition.obj
 0001:000064a0       ??1?$CComPtr@UIConnectionPointContainer@@@ATL@@QAE@XZ 100074a0 f i VoiceRecognition.obj
 0001:000064d0       ??1?$CComPtr@UIDataObject@@@ATL@@QAE@XZ 100074d0 f i VoiceRecognition.obj
 0001:00006500       ??1?$CComPtr@UIDispatch@@@ATL@@QAE@XZ 10007500 f i VoiceRecognition.obj
 0001:00006530       ??1?$CComPtr@UIOleClientSite@@@ATL@@QAE@XZ 10007530 f i VoiceRecognition.obj
 0001:00006560       ??1?$CComPtr@UIOleControlSite@@@ATL@@QAE@XZ 10007560 f i VoiceRecognition.obj
 0001:00006590       ??1?$CComPtr@UIOleInPlaceActiveObject@@@ATL@@QAE@XZ 10007590 f i VoiceRecognition.obj
 0001:000065c0       ??1?$CComPtr@UIOleInPlaceFrame@@@ATL@@QAE@XZ 100075c0 f i VoiceRecognition.obj
 0001:000065f0       ??1?$CComPtr@UIOleInPlaceObject@@@ATL@@QAE@XZ 100075f0 f i VoiceRecognition.obj
 0001:00006620       ??1?$CComPtr@UIOleInPlaceUIWindow@@@ATL@@QAE@XZ 10007620 f i VoiceRecognition.obj
 0001:00006650       ??1?$CComPtr@UIOleObject@@@ATL@@QAE@XZ 10007650 f i VoiceRecognition.obj
 0001:00006680       ??1?$CComPtr@UIPersistStream@@@ATL@@QAE@XZ 10007680 f i VoiceRecognition.obj
 0001:000066b0       ??1?$CComPtr@UIPersistStreamInit@@@ATL@@QAE@XZ 100076b0 f i VoiceRecognition.obj
 0001:000066e0       ??1?$CComPtr@UIPointerInactive@@@ATL@@QAE@XZ 100076e0 f i VoiceRecognition.obj
 0001:00006710       ??1?$CComPtr@UIProvideClassInfo2@@@ATL@@QAE@XZ 10007710 f i VoiceRecognition.obj
 0001:00006740       ??1?$CComPtr@UISpecifyPropertyPages@@@ATL@@QAE@XZ 10007740 f i VoiceRecognition.obj
 0001:00006770       ??1?$CComPtr@UIStream@@@ATL@@QAE@XZ 10007770 f i VoiceRecognition.obj
 0001:000067a0       ??1?$CComPtr@UITypeInfo2@@@ATL@@QAE@XZ 100077a0 f i VoiceRecognition.obj
 0001:000067d0       ??1?$CComPtr@UITypeInfo@@@ATL@@QAE@XZ 100077d0 f i VoiceRecognition.obj
 0001:00006800       ??1?$CComPtr@UITypeLib@@@ATL@@QAE@XZ 10007800 f i VoiceRecognition.obj
 0001:00006830       ??1?$CComPtr@UIUnknown@@@ATL@@QAE@XZ 10007830 f i VoiceRecognition.obj
 0001:00006860       ??1?$CComPtr@UIViewObjectEx@@@ATL@@QAE@XZ 10007860 f i VoiceRecognition.obj
 0001:00006890       ??1?$CComPtrBase@UIAdviseSink@@@ATL@@QAE@XZ 10007890 f i VoiceRecognition.obj
 0001:000068e0       ??1?$CComPtrBase@UICatRegister@@@ATL@@QAE@XZ 100078e0 f i VoiceRecognition.obj
 0001:00006930       ??1?$CComPtrBase@UIConnectionPoint@@@ATL@@QAE@XZ 10007930 f i VoiceRecognition.obj
 0001:00006980       ??1?$CComPtrBase@UIConnectionPointContainer@@@ATL@@QAE@XZ 10007980 f i VoiceRecognition.obj
 0001:000069d0       ??1?$CComPtrBase@UIDataObject@@@ATL@@QAE@XZ 100079d0 f i VoiceRecognition.obj
 0001:00006a20       ??1?$CComPtrBase@UIDispatch@@@ATL@@QAE@XZ 10007a20 f i VoiceRecognition.obj
 0001:00006a70       ??1?$CComPtrBase@UIOleClientSite@@@ATL@@QAE@XZ 10007a70 f i VoiceRecognition.obj
 0001:00006ac0       ??1?$CComPtrBase@UIOleControlSite@@@ATL@@QAE@XZ 10007ac0 f i VoiceRecognition.obj
 0001:00006b10       ??1?$CComPtrBase@UIOleInPlaceActiveObject@@@ATL@@QAE@XZ 10007b10 f i VoiceRecognition.obj
 0001:00006b60       ??1?$CComPtrBase@UIOleInPlaceFrame@@@ATL@@QAE@XZ 10007b60 f i VoiceRecognition.obj
 0001:00006bb0       ??1?$CComPtrBase@UIOleInPlaceObject@@@ATL@@QAE@XZ 10007bb0 f i VoiceRecognition.obj
 0001:00006c00       ??1?$CComPtrBase@UIOleInPlaceUIWindow@@@ATL@@QAE@XZ 10007c00 f i VoiceRecognition.obj
 0001:00006c50       ??1?$CComPtrBase@UIOleObject@@@ATL@@QAE@XZ 10007c50 f i VoiceRecognition.obj
 0001:00006ca0       ??1?$CComPtrBase@UIPersistStream@@@ATL@@QAE@XZ 10007ca0 f i VoiceRecognition.obj
 0001:00006cf0       ??1?$CComPtrBase@UIPersistStreamInit@@@ATL@@QAE@XZ 10007cf0 f i VoiceRecognition.obj
 0001:00006d40       ??1?$CComPtrBase@UIPointerInactive@@@ATL@@QAE@XZ 10007d40 f i VoiceRecognition.obj
 0001:00006d90       ??1?$CComPtrBase@UIProvideClassInfo2@@@ATL@@QAE@XZ 10007d90 f i VoiceRecognition.obj
 0001:00006de0       ??1?$CComPtrBase@UISpecifyPropertyPages@@@ATL@@QAE@XZ 10007de0 f i VoiceRecognition.obj
 0001:00006e30       ??1?$CComPtrBase@UIStream@@@ATL@@QAE@XZ 10007e30 f i VoiceRecognition.obj
 0001:00006e80       ??1?$CComPtrBase@UITypeInfo2@@@ATL@@QAE@XZ 10007e80 f i VoiceRecognition.obj
 0001:00006ed0       ??1?$CComPtrBase@UITypeInfo@@@ATL@@QAE@XZ 10007ed0 f i VoiceRecognition.obj
 0001:00006f20       ??1?$CComPtrBase@UITypeLib@@@ATL@@QAE@XZ 10007f20 f i VoiceRecognition.obj
 0001:00006f70       ??1?$CComPtrBase@UIUnknown@@@ATL@@QAE@XZ 10007f70 f i VoiceRecognition.obj
 0001:00006fc0       ??1?$CComPtrBase@UIViewObjectEx@@@ATL@@QAE@XZ 10007fc0 f i VoiceRecognition.obj
 0001:00007010       ??1?$CComQIPtr@UIOleControlSite@@$1?_GUID_b196b289_bab4_101a_b69c_00aa00341d07@@3U__s_GUID@@B@ATL@@QAE@XZ 10008010 f i VoiceRecognition.obj
 0001:00007040       ??1?$CComQIPtr@UIOleObject@@$1?_GUID_00000112_0000_0000_c000_000000000046@@3U__s_GUID@@B@ATL@@QAE@XZ 10008040 f i VoiceRecognition.obj
 0001:00007070       ??1?$CComQIPtr@UISpecifyPropertyPages@@$1?_GUID_b196b28b_bab4_101a_b69c_00aa00341d07@@3U__s_GUID@@B@ATL@@QAE@XZ 10008070 f i VoiceRecognition.obj
 0001:000070a0       ??1?$CSimpleMap@PA_WPA_WVCExpansionVectorEqualHelper@ATL@@@ATL@@QAE@XZ 100080a0 f i VoiceRecognition.obj
 0001:000070d0       ??1?$CTempBuffer@E$0BAA@VCCRTAllocator@ATL@@@ATL@@QAE@XZ 100080d0 f i VoiceRecognition.obj
 0001:00007110       ??1?$CTempBuffer@_W$0BAA@VCCRTAllocator@ATL@@@ATL@@QAE@XZ 10008110 f i VoiceRecognition.obj
 0001:00007150       ??1?$CTempBuffer@_W$0EAA@VCCRTAllocator@ATL@@@ATL@@QAE@XZ 10008150 f i VoiceRecognition.obj
 0001:00007190       ??1CAtlModule@ATL@@UAE@XZ  10008190 f i VoiceRecognition.obj
 0001:000071c0       ??1CComAutoDeleteCriticalSection@ATL@@QAE@XZ 100081c0 f i VoiceRecognition.obj
 0001:000071f0       ??1CComClassFactory@ATL@@UAE@XZ 100081f0 f i VoiceRecognition.obj
 0001:00007220       ??1CComModule@ATL@@UAE@XZ  10008220 f i VoiceRecognition.obj
 0001:00007250       ??1CComObjectRootBase@ATL@@QAE@XZ 10008250 f i VoiceRecognition.obj
 0001:00007270       ??1CComSafeDeleteCriticalSection@ATL@@QAE@XZ 10008270 f i VoiceRecognition.obj
 0001:000072b0       ??1CComVariant@ATL@@QAE@XZ 100082b0 f i VoiceRecognition.obj
 0001:00007310       ??1CExpansionVector@ATL@@QAE@XZ 10008310 f i VoiceRecognition.obj
 0001:00007340       ??1CParseBuffer@CRegParser@ATL@@QAE@XZ 10008340 f i VoiceRecognition.obj
 0001:00007380       ??1CRegKey@ATL@@QAE@XZ     10008380 f i VoiceRecognition.obj
 0001:000073b0       ??1CRegObject@ATL@@UAE@XZ  100083b0 f i VoiceRecognition.obj
 0001:000073f0       ??1ModuleLockHelper@ATL@@QAE@XZ 100083f0 f i VoiceRecognition.obj
 0001:00007430       ??1OposVariant@@QAE@XZ     10008430 f i VoiceRecognition.obj
 0001:00007460       ??1_ATL_MODULE70@ATL@@QAE@XZ 10008460 f i VoiceRecognition.obj
 0001:00007490       ??4?$CComPtr@UIAdviseSink@@@ATL@@QAEPAUIAdviseSink@@PAU2@@Z 10008490 f i VoiceRecognition.obj
 0001:000074f0       ??4?$CComPtr@UIOleClientSite@@@ATL@@QAEPAUIOleClientSite@@PAU2@@Z 100084f0 f i VoiceRecognition.obj
 0001:00007550       ??4?$CComPtr@UIUnknown@@@ATL@@QAEPAUIUnknown@@PAU2@@Z 10008550 f i VoiceRecognition.obj
 0001:000075b0       ??4?$CComQIPtr@UIOleObject@@$1?_GUID_00000112_0000_0000_c000_000000000046@@3U__s_GUID@@B@ATL@@QAEPAUIOleObject@@PAUIUnknown@@@Z 100085b0 f i VoiceRecognition.obj
 0001:00007600       ??4?$CComQIPtr@UISpecifyPropertyPages@@$1?_GUID_b196b28b_bab4_101a_b69c_00aa00341d07@@3U__s_GUID@@B@ATL@@QAEPAUISpecifyPropertyPages@@PAUIUnknown@@@Z 10008600 f i VoiceRecognition.obj
 0001:00007650       ??7?$CComPtrBase@UIOleClientSite@@@ATL@@QBE_NXZ 10008650 f i VoiceRecognition.obj
 0001:00007690       ??7?$CComPtrBase@UIOleInPlaceSiteWindowless@@@ATL@@QBE_NXZ 10008690 f i VoiceRecognition.obj
 0001:000076d0       ??7CComBSTR@ATL@@QBE_NXZ   100086d0 f i VoiceRecognition.obj
 0001:00007710       ??8?$CComPtrBase@UIConnectionPointContainer@@@ATL@@QBE_NPAUIConnectionPointContainer@@@Z 10008710 f i VoiceRecognition.obj
 0001:00007750       ??8?$CComPtrBase@UIDataAdviseHolder@@@ATL@@QBE_NPAUIDataAdviseHolder@@@Z 10008750 f i VoiceRecognition.obj
 0001:00007790       ??8?$CComPtrBase@UIOleAdviseHolder@@@ATL@@QBE_NPAUIOleAdviseHolder@@@Z 10008790 f i VoiceRecognition.obj
 0001:000077d0       ??8?$CComPtrBase@UIOleClientSite@@@ATL@@QBE_NPAUIOleClientSite@@@Z 100087d0 f i VoiceRecognition.obj
 0001:00007810       ??8?$CComPtrBase@UIOleControlSite@@@ATL@@QBE_NPAUIOleControlSite@@@Z 10008810 f i VoiceRecognition.obj
 0001:00007850       ??8?$CComPtrBase@UIOleInPlaceObject@@@ATL@@QBE_NPAUIOleInPlaceObject@@@Z 10008850 f i VoiceRecognition.obj
 0001:00007890       ??8?$CComPtrBase@UIOleInPlaceSiteWindowless@@@ATL@@QBE_NPAUIOleInPlaceSiteWindowless@@@Z 10008890 f i VoiceRecognition.obj
 0001:000078d0       ??8?$CComPtrBase@UIOleObject@@@ATL@@QBE_NPAUIOleObject@@@Z 100088d0 f i VoiceRecognition.obj
 0001:00007910       ??8?$CComPtrBase@UIPersistStream@@@ATL@@QBE_NPAUIPersistStream@@@Z 10008910 f i VoiceRecognition.obj
 0001:00007950       ??8?$CComPtrBase@UIPersistStreamInit@@@ATL@@QBE_NPAUIPersistStreamInit@@@Z 10008950 f i VoiceRecognition.obj
 0001:00007990       ??8?$CComPtrBase@UIPointerInactive@@@ATL@@QBE_NPAUIPointerInactive@@@Z 10008990 f i VoiceRecognition.obj
 0001:000079d0       ??8?$CComPtrBase@UIUnknown@@@ATL@@QBE_NPAUIUnknown@@@Z 100089d0 f i VoiceRecognition.obj
 0001:00007a10       ??8?$CComPtrBase@UIViewObjectEx@@@ATL@@QBE_NPAUIViewObjectEx@@@Z 10008a10 f i VoiceRecognition.obj
 0001:00007a50       ??8CComBSTR@ATL@@QBE_NH@Z  10008a50 f i VoiceRecognition.obj
 0001:00007ab0       ??9?$CComPtrBase@UIConnectionPointContainer@@@ATL@@QBE_NPAUIConnectionPointContainer@@@Z 10008ab0 f i VoiceRecognition.obj
 0001:00007b00       ??9?$CComPtrBase@UIDataAdviseHolder@@@ATL@@QBE_NPAUIDataAdviseHolder@@@Z 10008b00 f i VoiceRecognition.obj
 0001:00007b50       ??9?$CComPtrBase@UIOleAdviseHolder@@@ATL@@QBE_NPAUIOleAdviseHolder@@@Z 10008b50 f i VoiceRecognition.obj
 0001:00007ba0       ??9?$CComPtrBase@UIOleClientSite@@@ATL@@QBE_NPAUIOleClientSite@@@Z 10008ba0 f i VoiceRecognition.obj
 0001:00007bf0       ??9?$CComPtrBase@UIOleControlSite@@@ATL@@QBE_NPAUIOleControlSite@@@Z 10008bf0 f i VoiceRecognition.obj
 0001:00007c40       ??9?$CComPtrBase@UIOleInPlaceObject@@@ATL@@QBE_NPAUIOleInPlaceObject@@@Z 10008c40 f i VoiceRecognition.obj
 0001:00007c90       ??9?$CComPtrBase@UIOleInPlaceSiteWindowless@@@ATL@@QBE_NPAUIOleInPlaceSiteWindowless@@@Z 10008c90 f i VoiceRecognition.obj
 0001:00007ce0       ??9?$CComPtrBase@UIOleObject@@@ATL@@QBE_NPAUIOleObject@@@Z 10008ce0 f i VoiceRecognition.obj
 0001:00007d30       ??9?$CComPtrBase@UIPersistStream@@@ATL@@QBE_NPAUIPersistStream@@@Z 10008d30 f i VoiceRecognition.obj
 0001:00007d80       ??9?$CComPtrBase@UIPersistStreamInit@@@ATL@@QBE_NPAUIPersistStreamInit@@@Z 10008d80 f i VoiceRecognition.obj
 0001:00007dd0       ??9?$CComPtrBase@UIPointerInactive@@@ATL@@QBE_NPAUIPointerInactive@@@Z 10008dd0 f i VoiceRecognition.obj
 0001:00007e20       ??9?$CComPtrBase@UIUnknown@@@ATL@@QBE_NPAUIUnknown@@@Z 10008e20 f i VoiceRecognition.obj
 0001:00007e70       ??9?$CComPtrBase@UIViewObjectEx@@@ATL@@QBE_NPAUIViewObjectEx@@@Z 10008e70 f i VoiceRecognition.obj
 0001:00007ec0       ??9CComBSTR@ATL@@QBE_NH@Z  10008ec0 f i VoiceRecognition.obj
 0001:00007f10       ??B?$CComPtrBase@UIAdviseSink@@@ATL@@QBEPAUIAdviseSink@@XZ 10008f10 f i VoiceRecognition.obj
 0001:00007f30       ??B?$CComPtrBase@UIDataAdviseHolder@@@ATL@@QBEPAUIDataAdviseHolder@@XZ 10008f30 f i VoiceRecognition.obj
 0001:00007f50       ??B?$CComPtrBase@UIDataObject@@@ATL@@QBEPAUIDataObject@@XZ 10008f50 f i VoiceRecognition.obj
 0001:00007f70       ??B?$CComPtrBase@UIOleAdviseHolder@@@ATL@@QBEPAUIOleAdviseHolder@@XZ 10008f70 f i VoiceRecognition.obj
 0001:00007f90       ??B?$CComPtrBase@UIOleClientSite@@@ATL@@QBEPAUIOleClientSite@@XZ 10008f90 f i VoiceRecognition.obj
 0001:00007fb0       ??B?$CComPtrBase@UIOleControlSite@@@ATL@@QBEPAUIOleControlSite@@XZ 10008fb0 f i VoiceRecognition.obj
 0001:00007fd0       ??B?$CComPtrBase@UIOleInPlaceActiveObject@@@ATL@@QBEPAUIOleInPlaceActiveObject@@XZ 10008fd0 f i VoiceRecognition.obj
 0001:00007ff0       ??B?$CComPtrBase@UIOleInPlaceFrame@@@ATL@@QBEPAUIOleInPlaceFrame@@XZ 10008ff0 f i VoiceRecognition.obj
 0001:00008010       ??B?$CComPtrBase@UIOleInPlaceSiteWindowless@@@ATL@@QBEPAUIOleInPlaceSiteWindowless@@XZ 10009010 f i VoiceRecognition.obj
 0001:00008030       ??B?$CComPtrBase@UIOleInPlaceUIWindow@@@ATL@@QBEPAUIOleInPlaceUIWindow@@XZ 10009030 f i VoiceRecognition.obj
 0001:00008050       ??B?$CComPtrBase@UIOleObject@@@ATL@@QBEPAUIOleObject@@XZ 10009050 f i VoiceRecognition.obj
 0001:00008070       ??B?$CComPtrBase@UIPersistStream@@@ATL@@QBEPAUIPersistStream@@XZ 10009070 f i VoiceRecognition.obj
 0001:00008090       ??B?$CComPtrBase@UIProvideClassInfo2@@@ATL@@QBEPAUIProvideClassInfo2@@XZ 10009090 f i VoiceRecognition.obj
 0001:000080b0       ??B?$CComPtrBase@UISpecifyPropertyPages@@@ATL@@QBEPAUISpecifyPropertyPages@@XZ 100090b0 f i VoiceRecognition.obj
 0001:000080d0       ??B?$CComPtrBase@UIStream@@@ATL@@QBEPAUIStream@@XZ 100090d0 f i VoiceRecognition.obj
 0001:000080f0       ??B?$CComPtrBase@UITypeInfo2@@@ATL@@QBEPAUITypeInfo2@@XZ 100090f0 f i VoiceRecognition.obj
 0001:00008110       ??B?$CComPtrBase@UITypeInfo@@@ATL@@QBEPAUITypeInfo@@XZ 10009110 f i VoiceRecognition.obj
 0001:00008130       ??B?$CComPtrBase@UITypeLib@@@ATL@@QBEPAUITypeLib@@XZ 10009130 f i VoiceRecognition.obj
 0001:00008150       ??B?$CComPtrBase@UIUnknown@@@ATL@@QBEPAUIUnknown@@XZ 10009150 f i VoiceRecognition.obj
 0001:00008170       ??B?$CTempBuffer@E$0BAA@VCCRTAllocator@ATL@@@ATL@@QBEPAEXZ 10009170 f i VoiceRecognition.obj
 0001:00008190       ??B?$CTempBuffer@_W$0BAA@VCCRTAllocator@ATL@@@ATL@@QBEPA_WXZ 10009190 f i VoiceRecognition.obj
 0001:000081b0       ??B?$CTempBuffer@_W$0EAA@VCCRTAllocator@ATL@@@ATL@@QBEPA_WXZ 100091b0 f i VoiceRecognition.obj
 0001:000081d0       ??B?$CTraceCategoryEx@$00$0A@@ATL@@QAEIXZ 100091d0 f i VoiceRecognition.obj
 0001:000081f0       ??B?$CTraceCategoryEx@$07$0A@@ATL@@QAEIXZ 100091f0 f i VoiceRecognition.obj
 0001:00008210       ??B?$CTraceCategoryEx@$0CAAA@$0A@@ATL@@QAEIXZ 10009210 f i VoiceRecognition.obj
 0001:00008230       ??B?$CTraceCategoryEx@$0EA@$0A@@ATL@@QAEIXZ 10009230 f i VoiceRecognition.obj
 0001:00008250       ??B?$CTraceCategoryEx@$0IAA@$0A@@ATL@@QAEIXZ 10009250 f i VoiceRecognition.obj
 0001:00008270       ??BCComBSTR@ATL@@QBEPA_WXZ 10009270 f i VoiceRecognition.obj
 0001:00008290       ??BCRegKey@ATL@@QBEPAUHKEY__@@XZ 10009290 f i VoiceRecognition.obj
 0001:000082b0       ??C?$CComPtrBase@UIAdviseSink@@@ATL@@QBEPAV?$_NoAddRefReleaseOnCComPtr@UIAdviseSink@@@1@XZ 100092b0 f i VoiceRecognition.obj
 0001:00008300       ??C?$CComPtrBase@UICatRegister@@@ATL@@QBEPAV?$_NoAddRefReleaseOnCComPtr@UICatRegister@@@1@XZ 10009300 f i VoiceRecognition.obj
 0001:00008350       ??C?$CComPtrBase@UIConnectionPoint@@@ATL@@QBEPAV?$_NoAddRefReleaseOnCComPtr@UIConnectionPoint@@@1@XZ 10009350 f i VoiceRecognition.obj
 0001:000083a0       ??C?$CComPtrBase@UIConnectionPointContainer@@@ATL@@QBEPAV?$_NoAddRefReleaseOnCComPtr@UIConnectionPointContainer@@@1@XZ 100093a0 f i VoiceRecognition.obj
 0001:000083f0       ??C?$CComPtrBase@UIDataAdviseHolder@@@ATL@@QBEPAV?$_NoAddRefReleaseOnCComPtr@UIDataAdviseHolder@@@1@XZ 100093f0 f i VoiceRecognition.obj
 0001:00008440       ??C?$CComPtrBase@UIOleAdviseHolder@@@ATL@@QBEPAV?$_NoAddRefReleaseOnCComPtr@UIOleAdviseHolder@@@1@XZ 10009440 f i VoiceRecognition.obj
 0001:00008490       ??C?$CComPtrBase@UIOleClientSite@@@ATL@@QBEPAV?$_NoAddRefReleaseOnCComPtr@UIOleClientSite@@@1@XZ 10009490 f i VoiceRecognition.obj
 0001:000084e0       ??C?$CComPtrBase@UIOleControlSite@@@ATL@@QBEPAV?$_NoAddRefReleaseOnCComPtr@UIOleControlSite@@@1@XZ 100094e0 f i VoiceRecognition.obj
 0001:00008530       ??C?$CComPtrBase@UIOleInPlaceFrame@@@ATL@@QBEPAV?$_NoAddRefReleaseOnCComPtr@UIOleInPlaceFrame@@@1@XZ 10009530 f i VoiceRecognition.obj
 0001:00008580       ??C?$CComPtrBase@UIOleInPlaceObject@@@ATL@@QBEPAV?$_NoAddRefReleaseOnCComPtr@UIOleInPlaceObject@@@1@XZ 10009580 f i VoiceRecognition.obj
 0001:000085d0       ??C?$CComPtrBase@UIOleInPlaceSiteWindowless@@@ATL@@QBEPAV?$_NoAddRefReleaseOnCComPtr@UIOleInPlaceSiteWindowless@@@1@XZ 100095d0 f i VoiceRecognition.obj
 0001:00008620       ??C?$CComPtrBase@UIOleInPlaceUIWindow@@@ATL@@QBEPAV?$_NoAddRefReleaseOnCComPtr@UIOleInPlaceUIWindow@@@1@XZ 10009620 f i VoiceRecognition.obj
 0001:00008670       ??C?$CComPtrBase@UIOleObject@@@ATL@@QBEPAV?$_NoAddRefReleaseOnCComPtr@UIOleObject@@@1@XZ 10009670 f i VoiceRecognition.obj
 0001:000086c0       ??C?$CComPtrBase@UIPersistStream@@@ATL@@QBEPAV?$_NoAddRefReleaseOnCComPtr@UIPersistStream@@@1@XZ 100096c0 f i VoiceRecognition.obj
 0001:00008710       ??C?$CComPtrBase@UIPersistStreamInit@@@ATL@@QBEPAV?$_NoAddRefReleaseOnCComPtr@UIPersistStreamInit@@@1@XZ 10009710 f i VoiceRecognition.obj
 0001:00008760       ??C?$CComPtrBase@UIPointerInactive@@@ATL@@QBEPAV?$_NoAddRefReleaseOnCComPtr@UIPointerInactive@@@1@XZ 10009760 f i VoiceRecognition.obj
 0001:000087b0       ??C?$CComPtrBase@UIProvideClassInfo2@@@ATL@@QBEPAV?$_NoAddRefReleaseOnCComPtr@UIProvideClassInfo2@@@1@XZ 100097b0 f i VoiceRecognition.obj
 0001:00008800       ??C?$CComPtrBase@UISpecifyPropertyPages@@@ATL@@QBEPAV?$_NoAddRefReleaseOnCComPtr@UISpecifyPropertyPages@@@1@XZ 10009800 f i VoiceRecognition.obj
 0001:00008850       ??C?$CComPtrBase@UITypeInfo@@@ATL@@QBEPAV?$_NoAddRefReleaseOnCComPtr@UITypeInfo@@@1@XZ 10009850 f i VoiceRecognition.obj
 0001:000088a0       ??C?$CComPtrBase@UITypeLib@@@ATL@@QBEPAV?$_NoAddRefReleaseOnCComPtr@UITypeLib@@@1@XZ 100098a0 f i VoiceRecognition.obj
 0001:000088f0       ??C?$CComPtrBase@UIUnknown@@@ATL@@QBEPAV?$_NoAddRefReleaseOnCComPtr@UIUnknown@@@1@XZ 100098f0 f i VoiceRecognition.obj
 0001:00008940       ??C?$CComPtrBase@UIViewObjectEx@@@ATL@@QBEPAV?$_NoAddRefReleaseOnCComPtr@UIViewObjectEx@@@1@XZ 10009940 f i VoiceRecognition.obj
 0001:00008990       ??I?$CComPtrBase@UICatRegister@@@ATL@@QAEPAPAUICatRegister@@XZ 10009990 f i VoiceRecognition.obj
 0001:000089e0       ??I?$CComPtrBase@UIConnectionPoint@@@ATL@@QAEPAPAUIConnectionPoint@@XZ 100099e0 f i VoiceRecognition.obj
 0001:00008a30       ??I?$CComPtrBase@UIConnectionPointContainer@@@ATL@@QAEPAPAUIConnectionPointContainer@@XZ 10009a30 f i VoiceRecognition.obj
 0001:00008a80       ??I?$CComPtrBase@UIDataAdviseHolder@@@ATL@@QAEPAPAUIDataAdviseHolder@@XZ 10009a80 f i VoiceRecognition.obj
 0001:00008ad0       ??I?$CComPtrBase@UIDataObject@@@ATL@@QAEPAPAUIDataObject@@XZ 10009ad0 f i VoiceRecognition.obj
 0001:00008b20       ??I?$CComPtrBase@UIDispatch@@@ATL@@QAEPAPAUIDispatch@@XZ 10009b20 f i VoiceRecognition.obj
 0001:00008b70       ??I?$CComPtrBase@UIOleAdviseHolder@@@ATL@@QAEPAPAUIOleAdviseHolder@@XZ 10009b70 f i VoiceRecognition.obj
 0001:00008bc0       ??I?$CComPtrBase@UIOleControlSite@@@ATL@@QAEPAPAUIOleControlSite@@XZ 10009bc0 f i VoiceRecognition.obj
 0001:00008c10       ??I?$CComPtrBase@UIOleInPlaceActiveObject@@@ATL@@QAEPAPAUIOleInPlaceActiveObject@@XZ 10009c10 f i VoiceRecognition.obj
 0001:00008c60       ??I?$CComPtrBase@UIOleInPlaceFrame@@@ATL@@QAEPAPAUIOleInPlaceFrame@@XZ 10009c60 f i VoiceRecognition.obj
 0001:00008cb0       ??I?$CComPtrBase@UIOleInPlaceObject@@@ATL@@QAEPAPAUIOleInPlaceObject@@XZ 10009cb0 f i VoiceRecognition.obj
 0001:00008d00       ??I?$CComPtrBase@UIOleInPlaceSiteWindowless@@@ATL@@QAEPAPAUIOleInPlaceSiteWindowless@@XZ 10009d00 f i VoiceRecognition.obj
 0001:00008d50       ??I?$CComPtrBase@UIOleInPlaceUIWindow@@@ATL@@QAEPAPAUIOleInPlaceUIWindow@@XZ 10009d50 f i VoiceRecognition.obj
 0001:00008da0       ??I?$CComPtrBase@UIOleObject@@@ATL@@QAEPAPAUIOleObject@@XZ 10009da0 f i VoiceRecognition.obj
 0001:00008df0       ??I?$CComPtrBase@UIPersistStream@@@ATL@@QAEPAPAUIPersistStream@@XZ 10009df0 f i VoiceRecognition.obj
 0001:00008e40       ??I?$CComPtrBase@UIPointerInactive@@@ATL@@QAEPAPAUIPointerInactive@@XZ 10009e40 f i VoiceRecognition.obj
 0001:00008e90       ??I?$CComPtrBase@UIProvideClassInfo2@@@ATL@@QAEPAPAUIProvideClassInfo2@@XZ 10009e90 f i VoiceRecognition.obj
 0001:00008ee0       ??I?$CComPtrBase@UIStream@@@ATL@@QAEPAPAUIStream@@XZ 10009ee0 f i VoiceRecognition.obj
 0001:00008f30       ??I?$CComPtrBase@UITypeInfo2@@@ATL@@QAEPAPAUITypeInfo2@@XZ 10009f30 f i VoiceRecognition.obj
 0001:00008f80       ??I?$CComPtrBase@UITypeInfo@@@ATL@@QAEPAPAUITypeInfo@@XZ 10009f80 f i VoiceRecognition.obj
 0001:00008fd0       ??I?$CComPtrBase@UITypeLib@@@ATL@@QAEPAPAUITypeLib@@XZ 10009fd0 f i VoiceRecognition.obj
 0001:00009020       ??I?$CComPtrBase@UIUnknown@@@ATL@@QAEPAPAUIUnknown@@XZ 1000a020 f i VoiceRecognition.obj
 0001:00009070       ??I?$CComPtrBase@UIViewObjectEx@@@ATL@@QAEPAPAUIViewObjectEx@@XZ 1000a070 f i VoiceRecognition.obj
 0001:000090c0       ??ICComBSTR@ATL@@QAEPAPA_WXZ 1000a0c0 f i VoiceRecognition.obj
 0001:000090d5       ??_E?$CComContainedObject@VCOPOSVoiceRecognition@@@ATL@@W3AEPAXI@Z 1000a0d5 f i VoiceRecognition.obj
 0001:000090dd       ??_E?$CComContainedObject@VCOPOSVoiceRecognition@@@ATL@@WEM@AEPAXI@Z 1000a0dd f i VoiceRecognition.obj
 0001:000090e5       ??_E?$CComObject@VCOPOSVoiceRecognition@@@ATL@@W3AEPAXI@Z 1000a0e5 f i VoiceRecognition.obj
 0001:000090ed       ??_E?$CComObject@VCOPOSVoiceRecognition@@@ATL@@WEM@AEPAXI@Z 1000a0ed f i VoiceRecognition.obj
 0001:00009100       ??_G?$CComAggObject@VCOPOSVoiceRecognition@@@ATL@@UAEPAXI@Z 1000a100 f i VoiceRecognition.obj
 0001:00009100       ??_E?$CComAggObject@VCOPOSVoiceRecognition@@@ATL@@UAEPAXI@Z 1000a100 f i VoiceRecognition.obj
 0001:00009150       ??_G?$CComContainedObject@VCOPOSVoiceRecognition@@@ATL@@UAEPAXI@Z 1000a150 f i VoiceRecognition.obj
 0001:00009150       ??_E?$CComContainedObject@VCOPOSVoiceRecognition@@@ATL@@UAEPAXI@Z 1000a150 f i VoiceRecognition.obj
 0001:000091a0       ??_E?$CComObject@V?$CComEnum@UIEnumConnectionPoints@@$1?_GUID_b196b285_bab4_101a_b69c_00aa00341d07@@3U__s_GUID@@BPAUIConnectionPoint@@V?$_CopyInterface@UIConnectionPoint@@@ATL@@VCComSingleThreadModel@6@@ATL@@@ATL@@UAEPAXI@Z 1000a1a0 f i VoiceRecognition.obj
 0001:000091a0       ??_G?$CComObject@V?$CComEnum@UIEnumConnectionPoints@@$1?_GUID_b196b285_bab4_101a_b69c_00aa00341d07@@3U__s_GUID@@BPAUIConnectionPoint@@V?$_CopyInterface@UIConnectionPoint@@@ATL@@VCComSingleThreadModel@6@@ATL@@@ATL@@UAEPAXI@Z 1000a1a0 f i VoiceRecognition.obj
 0001:000091e0       ??_E?$CComObject@V?$CComEnum@UIEnumConnections@@$1?_GUID_b196b287_bab4_101a_b69c_00aa00341d07@@3U__s_GUID@@BUtagCONNECTDATA@@V?$_Copy@UtagCONNECTDATA@@@ATL@@VCComSingleThreadModel@6@@ATL@@@ATL@@UAEPAXI@Z 1000a1e0 f i VoiceRecognition.obj
 0001:000091e0       ??_G?$CComObject@V?$CComEnum@UIEnumConnections@@$1?_GUID_b196b287_bab4_101a_b69c_00aa00341d07@@3U__s_GUID@@BUtagCONNECTDATA@@V?$_Copy@UtagCONNECTDATA@@@ATL@@VCComSingleThreadModel@6@@ATL@@@ATL@@UAEPAXI@Z 1000a1e0 f i VoiceRecognition.obj
 0001:00009220       ??_G?$CComObject@VCOPOSVoiceRecognition@@@ATL@@UAEPAXI@Z 1000a220 f i VoiceRecognition.obj
 0001:00009220       ??_E?$CComObject@VCOPOSVoiceRecognition@@@ATL@@UAEPAXI@Z 1000a220 f i VoiceRecognition.obj
 0001:00009270       ??_G?$CComObjectCached@VCComClassFactory@ATL@@@ATL@@UAEPAXI@Z 1000a270 f i VoiceRecognition.obj
 0001:00009270       ??_E?$CComObjectCached@VCComClassFactory@ATL@@@ATL@@UAEPAXI@Z 1000a270 f i VoiceRecognition.obj
 0001:000092b0       ??_GCComClassFactory@ATL@@UAEPAXI@Z 1000a2b0 f i VoiceRecognition.obj
 0001:000092b0       ??_ECComClassFactory@ATL@@UAEPAXI@Z 1000a2b0 f i VoiceRecognition.obj
 0001:000092f0       ??_ECComModule@ATL@@UAEPAXI@Z 1000a2f0 f i VoiceRecognition.obj
 0001:000092f0       ??_GCComModule@ATL@@UAEPAXI@Z 1000a2f0 f i VoiceRecognition.obj
 0001:00009330       ??_GCRegObject@ATL@@UAEPAXI@Z 1000a330 f i VoiceRecognition.obj
 0001:00009330       ??_ECRegObject@ATL@@UAEPAXI@Z 1000a330 f i VoiceRecognition.obj
 0001:00009370       ?Add@?$CSimpleArray@GV?$CSimpleArrayEqualHelper@G@ATL@@@ATL@@QAEHABG@Z 1000a370 f i VoiceRecognition.obj
 0001:000094c0       ?Add@?$CSimpleMap@PA_WPA_WVCExpansionVectorEqualHelper@ATL@@@ATL@@QAEHABQA_W0@Z 1000a4c0 f i VoiceRecognition.obj
 0001:00009580       ?Add@CComDynamicUnkArray@ATL@@QAEKPAUIUnknown@@@Z 1000a580 f i VoiceRecognition.obj
 0001:00009720       ?Add@CExpansionVector@ATL@@QAEHPB_W0@Z 1000a720 f i VoiceRecognition.obj
 0001:000099b0       ?AddChar@CParseBuffer@CRegParser@ATL@@QAEHPB_W@Z 1000a9b0 f i VoiceRecognition.obj
 0001:000099f0       ?AddCommonRGSReplacements@?$CAtlModuleT@VCComModule@ATL@@@ATL@@UAEJPAUIRegistrarBase@@@Z 1000a9f0 f i VoiceRecognition.obj
 0001:00009a40       ?AddCreateWndData@CAtlWinModule@ATL@@QAEXPAU_AtlCreateWndData@2@PAX@Z 1000aa40 f i VoiceRecognition.obj
 0001:00009a70       ?AddRef@?$CComAggObject@VCOPOSVoiceRecognition@@@ATL@@UAGKXZ 1000aa70 f i VoiceRecognition.obj
 0001:00009a90       ?AddRef@?$CComContainedObject@VCOPOSVoiceRecognition@@@ATL@@UAGKXZ 1000aa90 f i VoiceRecognition.obj
 0001:00009aac       ?AddRef@?$CComContainedObject@VCOPOSVoiceRecognition@@@ATL@@WHA@AGKXZ 1000aaac f i VoiceRecognition.obj
 0001:00009ab6       ?AddRef@?$CComContainedObject@VCOPOSVoiceRecognition@@@ATL@@WHE@AGKXZ 1000aab6 f i VoiceRecognition.obj
 0001:00009ac0       ?AddRef@?$CComContainedObject@VCOPOSVoiceRecognition@@@ATL@@WHI@AGKXZ 1000aac0 f i VoiceRecognition.obj
 0001:00009aca       ?AddRef@?$CComContainedObject@VCOPOSVoiceRecognition@@@ATL@@WHM@AGKXZ 1000aaca f i VoiceRecognition.obj
 0001:00009ad4       ?AddRef@?$CComContainedObject@VCOPOSVoiceRecognition@@@ATL@@WIA@AGKXZ 1000aad4 f i VoiceRecognition.obj
 0001:00009ae1       ?AddRef@?$CComContainedObject@VCOPOSVoiceRecognition@@@ATL@@WIE@AGKXZ 1000aae1 f i VoiceRecognition.obj
 0001:00009aee       ?AddRef@?$CComContainedObject@VCOPOSVoiceRecognition@@@ATL@@WII@AGKXZ 1000aaee f i VoiceRecognition.obj
 0001:00009afb       ?AddRef@?$CComContainedObject@VCOPOSVoiceRecognition@@@ATL@@WIM@AGKXZ 1000aafb f i VoiceRecognition.obj
 0001:00009b08       ?AddRef@?$CComContainedObject@VCOPOSVoiceRecognition@@@ATL@@WJA@AGKXZ 1000ab08 f i VoiceRecognition.obj
 0001:00009b15       ?AddRef@?$CComContainedObject@VCOPOSVoiceRecognition@@@ATL@@WJE@AGKXZ 1000ab15 f i VoiceRecognition.obj
 0001:00009b22       ?AddRef@?$CComContainedObject@VCOPOSVoiceRecognition@@@ATL@@WJI@AGKXZ 1000ab22 f i VoiceRecognition.obj
 0001:00009b2f       ?AddRef@?$CComContainedObject@VCOPOSVoiceRecognition@@@ATL@@WJM@AGKXZ 1000ab2f f i VoiceRecognition.obj
 0001:00009b3c       ?AddRef@?$CComContainedObject@VCOPOSVoiceRecognition@@@ATL@@WKA@AGKXZ 1000ab3c f i VoiceRecognition.obj
 0001:00009b49       ?AddRef@?$CComContainedObject@VCOPOSVoiceRecognition@@@ATL@@WKI@AGKXZ 1000ab49 f i VoiceRecognition.obj
 0001:00009b56       ?AddRef@?$CComContainedObject@VCOPOSVoiceRecognition@@@ATL@@WLE@AGKXZ 1000ab56 f i VoiceRecognition.obj
 0001:00009b70       ?AddRef@?$CComObject@V?$CComEnum@UIEnumConnectionPoints@@$1?_GUID_b196b285_bab4_101a_b69c_00aa00341d07@@3U__s_GUID@@BPAUIConnectionPoint@@V?$_CopyInterface@UIConnectionPoint@@@ATL@@VCComSingleThreadModel@6@@ATL@@@ATL@@UAGKXZ 1000ab70 f i VoiceRecognition.obj
 0001:00009b90       ?AddRef@?$CComObject@V?$CComEnum@UIEnumConnections@@$1?_GUID_b196b287_bab4_101a_b69c_00aa00341d07@@3U__s_GUID@@BUtagCONNECTDATA@@V?$_Copy@UtagCONNECTDATA@@@ATL@@VCComSingleThreadModel@6@@ATL@@@ATL@@UAGKXZ 1000ab90 f i VoiceRecognition.obj
 0001:00009bb0       ?AddRef@?$CComObject@VCOPOSVoiceRecognition@@@ATL@@UAGKXZ 1000abb0 f i VoiceRecognition.obj
 0001:00009bcc       ?AddRef@?$CComObject@VCOPOSVoiceRecognition@@@ATL@@WHA@AGKXZ 1000abcc f i VoiceRecognition.obj
 0001:00009bd6       ?AddRef@?$CComObject@VCOPOSVoiceRecognition@@@ATL@@WHE@AGKXZ 1000abd6 f i VoiceRecognition.obj
 0001:00009be0       ?AddRef@?$CComObject@VCOPOSVoiceRecognition@@@ATL@@WHI@AGKXZ 1000abe0 f i VoiceRecognition.obj
 0001:00009bea       ?AddRef@?$CComObject@VCOPOSVoiceRecognition@@@ATL@@WHM@AGKXZ 1000abea f i VoiceRecognition.obj
 0001:00009bf4       ?AddRef@?$CComObject@VCOPOSVoiceRecognition@@@ATL@@WIA@AGKXZ 1000abf4 f i VoiceRecognition.obj
 0001:00009c01       ?AddRef@?$CComObject@VCOPOSVoiceRecognition@@@ATL@@WIE@AGKXZ 1000ac01 f i VoiceRecognition.obj
 0001:00009c0e       ?AddRef@?$CComObject@VCOPOSVoiceRecognition@@@ATL@@WII@AGKXZ 1000ac0e f i VoiceRecognition.obj
 0001:00009c1b       ?AddRef@?$CComObject@VCOPOSVoiceRecognition@@@ATL@@WIM@AGKXZ 1000ac1b f i VoiceRecognition.obj
 0001:00009c28       ?AddRef@?$CComObject@VCOPOSVoiceRecognition@@@ATL@@WJA@AGKXZ 1000ac28 f i VoiceRecognition.obj
 0001:00009c35       ?AddRef@?$CComObject@VCOPOSVoiceRecognition@@@ATL@@WJE@AGKXZ 1000ac35 f i VoiceRecognition.obj
 0001:00009c42       ?AddRef@?$CComObject@VCOPOSVoiceRecognition@@@ATL@@WJI@AGKXZ 1000ac42 f i VoiceRecognition.obj
 0001:00009c4f       ?AddRef@?$CComObject@VCOPOSVoiceRecognition@@@ATL@@WJM@AGKXZ 1000ac4f f i VoiceRecognition.obj
 0001:00009c5c       ?AddRef@?$CComObject@VCOPOSVoiceRecognition@@@ATL@@WKA@AGKXZ 1000ac5c f i VoiceRecognition.obj
 0001:00009c69       ?AddRef@?$CComObject@VCOPOSVoiceRecognition@@@ATL@@WKI@AGKXZ 1000ac69 f i VoiceRecognition.obj
 0001:00009c76       ?AddRef@?$CComObject@VCOPOSVoiceRecognition@@@ATL@@WLE@AGKXZ 1000ac76 f i VoiceRecognition.obj
 0001:00009c90       ?AddRef@?$CComObjectCached@VCComClassFactory@ATL@@@ATL@@UAGKXZ 1000ac90 f i VoiceRecognition.obj
 0001:00009ce0       ?AddRef@CRegObject@ATL@@UAGKXZ 1000ace0 f i VoiceRecognition.obj
 0001:00009d30       ?AddReplacement@CRegObject@ATL@@UAGJPB_W0@Z 1000ad30 f i VoiceRecognition.obj
 0001:00009e40       ?AddString@CParseBuffer@CRegParser@ATL@@QAEHPB_W@Z 1000ae40 f i VoiceRecognition.obj
 0001:00009f30       ?AddTermFunc@CAtlModule@ATL@@QAEJP6GXK@ZK@Z 1000af30 f i VoiceRecognition.obj
 0001:00009f80       ?AddValue@CRegParser@ATL@@IAEJAAVCRegKey@2@PB_WPA_W@Z 1000af80 f i VoiceRecognition.obj
 0001:0000a710       ?Advise@?$CProxy_IOPOSEvents@VCOPOSVoiceRecognition@@@@UAGJPAUIUnknown@@PAK@Z 1000b710 f i VoiceRecognition.obj
 0001:0000a760       ?Advise@?$IConnectionPointImpl@VCOPOSVoiceRecognition@@$1?DIID__IOPOSVoiceRecognitionEvents@@3U_GUID@@BVCComDynamicUnkArray@ATL@@@ATL@@UAGJPAUIUnknown@@PAK@Z 1000b760 f i VoiceRecognition.obj
 0001:0000a900       ?Advise@?$IConnectionPointImpl@VCOPOSVoiceRecognition@@$1?IID_IPropertyNotifySink@@3U_GUID@@BVCComDynamicUnkArray@ATL@@@ATL@@UAGJPAUIUnknown@@PAK@Z 1000b900 f i VoiceRecognition.obj
 0001:0000aaa0       ?Advise@?$IOleObjectImpl@VCOPOSVoiceRecognition@@@ATL@@UAGJPAUIAdviseSink@@PAK@Z 1000baa0 f i VoiceRecognition.obj
 0001:0000ab30       ?Allocate@?$CAtlSafeAllocBufferManager@VCCRTAllocator@ATL@@@_ATL_SAFE_ALLOCA_IMPL@ATL@@QAEPAXK@Z 1000bb30 f i VoiceRecognition.obj
 0001:0000aba0       ?Allocate@?$CTempBuffer@E$0BAA@VCCRTAllocator@ATL@@@ATL@@QAEPAEI@Z 1000bba0 f i VoiceRecognition.obj
 0001:0000abe0       ?Allocate@?$CTempBuffer@_W$0BAA@VCCRTAllocator@ATL@@@ATL@@QAEPA_WI@Z 1000bbe0 f i VoiceRecognition.obj
 0001:0000ac20       ?Allocate@?$CTempBuffer@_W$0EAA@VCCRTAllocator@ATL@@@ATL@@QAEPA_WI@Z 1000bc20 f i VoiceRecognition.obj
 0001:0000ac60       ?AllocateBytes@?$CTempBuffer@E$0BAA@VCCRTAllocator@ATL@@@ATL@@QAEPAEI@Z 1000bc60 f i VoiceRecognition.obj
 0001:0000ace0       ?AllocateBytes@?$CTempBuffer@_W$0BAA@VCCRTAllocator@ATL@@@ATL@@QAEPA_WI@Z 1000bce0 f i VoiceRecognition.obj
 0001:0000ad60       ?AllocateBytes@?$CTempBuffer@_W$0EAA@VCCRTAllocator@ATL@@@ATL@@QAEPA_WI@Z 1000bd60 f i VoiceRecognition.obj
 0001:0000ade0       ?AllocateHeap@?$CTempBuffer@E$0BAA@VCCRTAllocator@ATL@@@ATL@@AAEXI@Z 1000bde0 f i VoiceRecognition.obj
 0001:0000ae30       ?AllocateHeap@?$CTempBuffer@_W$0BAA@VCCRTAllocator@ATL@@@ATL@@AAEXI@Z 1000be30 f i VoiceRecognition.obj
 0001:0000ae80       ?AllocateHeap@?$CTempBuffer@_W$0EAA@VCCRTAllocator@ATL@@@ATL@@AAEXI@Z 1000be80 f i VoiceRecognition.obj
 0001:0000aed0       ?Append@CParseBuffer@CRegParser@ATL@@QAEHPB_WH@Z 1000bed0 f i VoiceRecognition.obj
 0001:0000b070       ?AtlCallTermFunc@ATL@@YGXPAU_ATL_MODULE70@1@@Z 1000c070 f i VoiceRecognition.obj
 0001:0000b110       ?AtlCoTaskMemCAlloc@ATL@@YAPAXKK@Z 1000c110 f i VoiceRecognition.obj
 0001:0000b1a0       ?AtlCoTaskMemRecalloc@ATL@@YAPAXPAXKK@Z 1000c1a0 f i VoiceRecognition.obj
 0001:0000b240       ?AtlComModuleGetClassObject@ATL@@YGJPAU_ATL_COM_MODULE70@1@ABU_GUID@@1PAPAX@Z 1000c240 f i VoiceRecognition.obj
 0001:0000b4d0       ?AtlComModuleRegisterServer@ATL@@YGJPAU_ATL_COM_MODULE70@1@HPBU_GUID@@@Z 1000c4d0 f i VoiceRecognition.obj
 0001:0000b660       ?AtlComModuleUnregisterServer@ATL@@YGJPAU_ATL_COM_MODULE70@1@HPBU_GUID@@@Z 1000c660 f i VoiceRecognition.obj
 0001:0000b790       ?AtlComQIPtrAssign2@ATL@@YAXPAPAUIUnknown@@PAU2@ABU_GUID@@@Z 1000c790 f i VoiceRecognition.obj
 0001:0000b810       ?AtlCreateTargetDC@ATL@@YGPAUHDC__@@PAU2@PAUtagDVTARGETDEVICE@@@Z 1000c810 f i VoiceRecognition.obj
 0001:0000b9b0       ?AtlCrtErrorCheck@ATL@@YAHH@Z 1000c9b0 f i VoiceRecognition.obj
 0001:0000ba80       ?AtlGetPerUserRegistration@ATL@@YGJPA_N@Z 1000ca80 f i VoiceRecognition.obj
 0001:0000bab0       ?AtlHiMetricToPixel@ATL@@YGXPBUtagSIZE@@PAU2@@Z 1000cab0 f i VoiceRecognition.obj
 0001:0000bc80       ?AtlHresultFromLastError@ATL@@YAJXZ 1000cc80 f i VoiceRecognition.obj
 0001:0000bcc0       ?AtlHresultFromWin32@ATL@@YAJK@Z 1000ccc0 f i VoiceRecognition.obj
 0001:0000bce0       ?AtlIPersistStreamInit_Load@ATL@@YGJPAUIStream@@PBUATL_PROPMAP_ENTRY@1@PAXPAUIUnknown@@@Z 1000cce0 f i VoiceRecognition.obj
 0001:0000c140       ?AtlIPersistStreamInit_Save@ATL@@YGJPAUIStream@@HPBUATL_PROPMAP_ENTRY@1@PAXPAUIUnknown@@@Z 1000d140 f i VoiceRecognition.obj
 0001:0000c520       ?AtlInternalOleLoadFromStream@ATL@@YAJPAUIStream@@ABU_GUID@@PAPAXTClassesAllowedInStream@1@K@Z 1000d520 f i VoiceRecognition.obj
 0001:0000c7c0       ?AtlInternalQueryInterface@ATL@@YGJPAXPBU_ATL_INTMAP_ENTRY@1@ABU_GUID@@PAPAX@Z 1000d7c0 f i VoiceRecognition.obj
 0001:0000c9f0       ?AtlLoadTypeLib@ATL@@YGJPAUHINSTANCE__@@PB_WPAPA_WPAPAUITypeLib@@@Z 1000d9f0 f i VoiceRecognition.obj
 0001:0000ce50       ?AtlModuleAddTermFunc@ATL@@YGJPAU_ATL_MODULE70@1@P6GXK@ZK@Z 1000de50 f i VoiceRecognition.obj
 0001:0000cfb0       ?AtlRegisterClassCategoriesHelper@ATL@@YGJABU_GUID@@PBU_ATL_CATMAP_ENTRY@1@H@Z 1000dfb0 f i VoiceRecognition.obj
 0001:0000d690       ?AtlRegisterTypeLib@ATL@@YGJPAUHINSTANCE__@@PB_W@Z 1000e690 f i VoiceRecognition.obj
 0001:0000d9d0       ?AtlThrowImpl@ATL@@YGXJ@Z  1000e9d0 f i VoiceRecognition.obj
 0001:0000da80       ?AtlUnRegisterTypeLib@ATL@@YGJPAUHINSTANCE__@@PB_W@Z 1000ea80 f i VoiceRecognition.obj
 0001:0000dc90       ?AtlWinModuleAddCreateWndData@ATL@@YGXPAU_ATL_WIN_MODULE70@1@PAU_AtlCreateWndData@1@PAX@Z 1000ec90 f i VoiceRecognition.obj
 0001:0000de00       ?AtlWinModuleExtractCreateWndData@ATL@@YGPAXPAU_ATL_WIN_MODULE70@1@@Z 1000ee00 f i VoiceRecognition.obj
 0001:0000df80       ?AtlWinModuleRegisterClassExW@ATL@@YGGPAU_ATL_WIN_MODULE70@1@PBUtagWNDCLASSEXW@@@Z 1000ef80 f i VoiceRecognition.obj
 0001:0000e050       ?AtlWinModuleRegisterWndClassInfoW@ATL@@YGGPAU_ATL_WIN_MODULE70@1@PAU_ATL_BASE_MODULE70@1@PAU_ATL_WNDCLASSINFOW@1@PAP6GJPAUHWND__@@IIJ@Z@Z 1000f050 f i VoiceRecognition.obj
 0001:0000e0e0       ?Attach@?$CAutoVectorPtr@_W@ATL@@QAEXPA_W@Z 1000f0e0 f i VoiceRecognition.obj
 0001:0000e140       ?Attach@CComBSTR@ATL@@QAEXPA_W@Z 1000f140 f i VoiceRecognition.obj
 0001:0000e190       ?Attach@CRegKey@ATL@@QAEXPAUHKEY__@@@Z 1000f190 f i VoiceRecognition.obj
 0001:0000e200       ?CanForceRemoveKey@CRegParser@ATL@@IAEHPB_W@Z 1000f200 f i VoiceRecognition.obj
 0001:0000e270       ?ChToByte@CRegParser@ATL@@KAE_W@Z 1000f270 f i VoiceRecognition.obj
 0001:0000e390       ?ChangeType@CComVariant@ATL@@QAEJGPBUtagVARIANT@@@Z 1000f390 f i VoiceRecognition.obj
 0001:0000e3f0       ?Cleanup@CComTypeInfoHolder@ATL@@SGXK@Z 1000f3f0 f i VoiceRecognition.obj
 0001:0000e4c0       ?Clear@CComVariant@ATL@@QAEJXZ 1000f4c0 f i VoiceRecognition.obj
 0001:0000e500       ?ClearReplacements@CExpansionVector@ATL@@QAEJXZ 1000f500 f i VoiceRecognition.obj
 0001:0000e590       ?ClearReplacements@CRegObject@ATL@@UAGJXZ 1000f590 f i VoiceRecognition.obj
 0001:0000e5e0       ?Clone@?$CComEnumImpl@UIEnumConnectionPoints@@$1?_GUID_b196b285_bab4_101a_b69c_00aa00341d07@@3U__s_GUID@@BPAUIConnectionPoint@@V?$_CopyInterface@UIConnectionPoint@@@ATL@@@ATL@@UAGJPAPAUIEnumConnectionPoints@@@Z 1000f5e0 f i VoiceRecognition.obj
 0001:0000e750       ?Clone@?$CComEnumImpl@UIEnumConnections@@$1?_GUID_b196b287_bab4_101a_b69c_00aa00341d07@@3U__s_GUID@@BUtagCONNECTDATA@@V?$_Copy@UtagCONNECTDATA@@@ATL@@@ATL@@UAGJPAPAUIEnumConnections@@@Z 1000f750 f i VoiceRecognition.obj
 0001:0000e8c0       ?Close@?$IOleObjectImpl@VCOPOSVoiceRecognition@@@ATL@@UAGJK@Z 1000f8c0 f i VoiceRecognition.obj
 0001:0000e950       ?Close@CRegKey@ATL@@QAEJXZ 1000f950 f i VoiceRecognition.obj
 0001:0000e9c0       ?ContextSensitiveHelp@?$IOleInPlaceActiveObjectImpl@VCOPOSVoiceRecognition@@@ATL@@UAGJH@Z 1000f9c0 f i VoiceRecognition.obj
 0001:0000ea30       ?ContextSensitiveHelp@?$IOleInPlaceObjectWindowlessImpl@VCOPOSVoiceRecognition@@@ATL@@UAGJH@Z 1000fa30 f i VoiceRecognition.obj
 0001:0000eaa0       ?ControlQueryInterface@?$CComControl@VCOPOSVoiceRecognition@@V?$CWindowImpl@VCOPOSVoiceRecognition@@VCWindow@ATL@@V?$CWinTraits@$0FGAAAAAA@$0A@@3@@ATL@@@ATL@@UAEJABU_GUID@@PAPAX@Z 1000faa0 f i VoiceRecognition.obj
 0001:0000eb20       ?CreateControlWindow@?$CComControl@VCOPOSVoiceRecognition@@V?$CWindowImpl@VCOPOSVoiceRecognition@@VCWindow@ATL@@V?$CWinTraits@$0FGAAAAAA@$0A@@3@@ATL@@@ATL@@UAEPAUHWND__@@PAU3@AAUtagRECT@@@Z 1000fb20 f i VoiceRecognition.obj
 0001:0000eba0       ?CreateInstance@?$CComCreator@V?$CComAggObject@VCOPOSVoiceRecognition@@@ATL@@@ATL@@SGJPAXABU_GUID@@PAPAX@Z 1000fba0 f i VoiceRecognition.obj
 0001:0000ed20       ?CreateInstance@?$CComCreator@V?$CComObject@VCOPOSVoiceRecognition@@@ATL@@@ATL@@SGJPAXABU_GUID@@PAPAX@Z 1000fd20 f i VoiceRecognition.obj
 0001:0000eeb0       ?CreateInstance@?$CComObject@V?$CComEnum@UIEnumConnectionPoints@@$1?_GUID_b196b285_bab4_101a_b69c_00aa00341d07@@3U__s_GUID@@BPAUIConnectionPoint@@V?$_CopyInterface@UIConnectionPoint@@@ATL@@VCComSingleThreadModel@6@@ATL@@@ATL@@SGJPAPAV12@@Z 1000feb0 f i VoiceRecognition.obj
 0001:0000f020       ?CreateInstance@?$CComObject@V?$CComEnum@UIEnumConnections@@$1?_GUID_b196b287_bab4_101a_b69c_00aa00341d07@@3U__s_GUID@@BUtagCONNECTDATA@@V?$_Copy@UtagCONNECTDATA@@@ATL@@VCComSingleThreadModel@6@@ATL@@@ATL@@SGJPAPAV12@@Z 10010020 f i VoiceRecognition.obj
 0001:0000f190       ?CreateInstance@CComClassFactory@ATL@@UAGJPAUIUnknown@@ABU_GUID@@PAPAX@Z 10010190 f i VoiceRecognition.obj
 0001:0000f280       ?DAdvise@?$IDataObjectImpl@VCOPOSVoiceRecognition@@@ATL@@UAGJPAUtagFORMATETC@@KPAUIAdviseSink@@PAK@Z 10010280 f i VoiceRecognition.obj
 0001:0000f380       ?DEVMODEOLE2T_EX@@YAPAU_devicemodeW@@PAU1@@Z 10010380 f i VoiceRecognition.obj
 0001:0000f390       ?DUnadvise@?$IDataObjectImpl@VCOPOSVoiceRecognition@@@ATL@@UAGJK@Z 10010390 f i VoiceRecognition.obj
 0001:0000f460       ?Decrement@CComMultiThreadModel@ATL@@SGKPAJ@Z 10010460 f i VoiceRecognition.obj
 0001:0000f480       ?Decrement@CComSingleThreadModel@ATL@@SGKPAJ@Z 10010480 f i VoiceRecognition.obj
 0001:0000f4a0       ?DefWindowProcW@?$CWindowImplBaseT@VCWindow@ATL@@V?$CWinTraits@$0FGAAAAAA@$0A@@2@@ATL@@QAEJIIJ@Z 100104a0 f i VoiceRecognition.obj
 0001:0000f4f0       ?DefaultReflectionHandler@?$CWindowImplRoot@VCWindow@ATL@@@ATL@@SAHPAUHWND__@@IIJAAJ@Z 100104f0 f i VoiceRecognition.obj
 0001:0000f6e0       ?DeleteSubKey@CRegKey@ATL@@QAEJPB_W@Z 100106e0 f i VoiceRecognition.obj
 0001:0000f7f0       ?DeleteValue@CRegKey@ATL@@QAEJPB_W@Z 100107f0 f i VoiceRecognition.obj
 0001:0000f860       ?Detach@?$CAutoVectorPtr@_W@ATL@@QAEPA_WXZ 10010860 f i VoiceRecognition.obj
 0001:0000f890       ?Detach@?$CComPtrBase@UIPersistStream@@@ATL@@QAEPAUIPersistStream@@XZ 10010890 f i VoiceRecognition.obj
 0001:0000f8c0       ?Detach@?$CComPtrBase@UITypeInfo@@@ATL@@QAEPAUITypeInfo@@XZ 100108c0 f i VoiceRecognition.obj
 0001:0000f8f0       ?Detach@?$CComPtrBase@UIUnknown@@@ATL@@QAEPAUIUnknown@@XZ 100108f0 f i VoiceRecognition.obj
 0001:0000f920       ?Detach@CComBSTR@ATL@@QAEPA_WXZ 10010920 f i VoiceRecognition.obj
 0001:0000f950       ?Detach@CParseBuffer@CRegParser@ATL@@QAEPA_WXZ 10010950 f i VoiceRecognition.obj
 0001:0000f9a0       ?Detach@CRegKey@ATL@@QAEPAUHKEY__@@XZ 100109a0 f i VoiceRecognition.obj
 0001:0000f9f0       ?DoEvent@COPOSVoiceRecognition@@IAEXIIJ@Z 100109f0 f i VoiceRecognition.obj
 0001:0000fb30       ?DoVerb@?$IOleObjectImpl@VCOPOSVoiceRecognition@@@ATL@@UAGJJPAUtagMSG@@PAUIOleClientSite@@JPAUHWND__@@PBUtagRECT@@@Z 10010b30 f i VoiceRecognition.obj
 0001:0000fd40       ?DoVerbDiscardUndo@?$IOleObjectImpl@VCOPOSVoiceRecognition@@@ATL@@QAEJPBUtagRECT@@PAUHWND__@@@Z 10010d40 f i VoiceRecognition.obj
 0001:0000fdb0       ?DoVerbHide@?$IOleObjectImpl@VCOPOSVoiceRecognition@@@ATL@@QAEJPBUtagRECT@@PAUHWND__@@@Z 10010db0 f i VoiceRecognition.obj
 0001:0000fe60       ?DoVerbInPlaceActivate@?$IOleObjectImpl@VCOPOSVoiceRecognition@@@ATL@@QAEJPBUtagRECT@@PAUHWND__@@@Z 10010e60 f i VoiceRecognition.obj
 0001:0000ff00       ?DoVerbOpen@?$IOleObjectImpl@VCOPOSVoiceRecognition@@@ATL@@QAEJPBUtagRECT@@PAUHWND__@@@Z 10010f00 f i VoiceRecognition.obj
 0001:0000ff70       ?DoVerbPrimary@?$IOleObjectImpl@VCOPOSVoiceRecognition@@@ATL@@QAEJPBUtagRECT@@PAUHWND__@@@Z 10010f70 f i VoiceRecognition.obj
 0001:00010080       ?DoVerbProperties@CComControlBase@ATL@@QAEJPBUtagRECT@@PAUHWND__@@@Z 10011080 f i VoiceRecognition.obj
 0001:000103a0       ?DoVerbShow@?$IOleObjectImpl@VCOPOSVoiceRecognition@@@ATL@@QAEJPBUtagRECT@@PAUHWND__@@@Z 100113a0 f i VoiceRecognition.obj
 0001:00010430       ?DoVerbUIActivate@?$IOleObjectImpl@VCOPOSVoiceRecognition@@@ATL@@QAEJPBUtagRECT@@PAUHWND__@@@Z 10011430 f i VoiceRecognition.obj
 0001:000104d0       ?DoesVerbActivate@CComControlBase@ATL@@QAEHJ@Z 100114d0 f i VoiceRecognition.obj
 0001:00010540       ?DoesVerbUIActivate@CComControlBase@ATL@@QAEHJ@Z 10011540 f i VoiceRecognition.obj
 0001:000105c0       ?Draw@?$IViewObjectExImpl@VCOPOSVoiceRecognition@@@ATL@@UAGJKJPAXPAUtagDVTARGETDEVICE@@PAUHDC__@@2PBU_RECTL@@3P6GHK@ZK@Z 100115c0 f i VoiceRecognition.obj
 0001:00010660       ?Empty@CComBSTR@ATL@@QAEXXZ 10011660 f i VoiceRecognition.obj
 0001:000106a0       ?EnableModeless@?$IOleInPlaceActiveObjectImpl@VCOPOSVoiceRecognition@@@ATL@@UAGJH@Z 100116a0 f i VoiceRecognition.obj
 0001:00010700       ?EndOfVar@CRegParser@ATL@@IAEHXZ 10011700 f i VoiceRecognition.obj
 0001:00010770       ?EnsureTI@CComTypeInfoHolder@ATL@@QAEJK@Z 10011770 f i VoiceRecognition.obj
 0001:000107d0       ?EnumAdvise@?$IOleObjectImpl@VCOPOSVoiceRecognition@@@ATL@@UAGJPAPAUIEnumSTATDATA@@@Z 100117d0 f i VoiceRecognition.obj
 0001:000108e0       ?EnumConnectionPoints@?$IConnectionPointContainerImpl@VCOPOSVoiceRecognition@@@ATL@@UAGJPAPAUIEnumConnectionPoints@@@Z 100118e0 f i VoiceRecognition.obj
 0001:00010d10       ?EnumConnections@?$IConnectionPointImpl@VCOPOSVoiceRecognition@@$1?DIID__IOPOSVoiceRecognitionEvents@@3U_GUID@@BVCComDynamicUnkArray@ATL@@@ATL@@UAGJPAPAUIEnumConnections@@@Z 10011d10 f i VoiceRecognition.obj
 0001:00010f60       ?EnumConnections@?$IConnectionPointImpl@VCOPOSVoiceRecognition@@$1?IID_IPropertyNotifySink@@3U_GUID@@BVCComDynamicUnkArray@ATL@@@ATL@@UAGJPAPAUIEnumConnections@@@Z 10011f60 f i VoiceRecognition.obj
 0001:000111b0       ?EnumDAdvise@?$IDataObjectImpl@VCOPOSVoiceRecognition@@@ATL@@UAGJPAPAUIEnumSTATDATA@@@Z 100121b0 f i VoiceRecognition.obj
 0001:000112b0       ?EnumFormatEtc@?$IDataObjectImpl@VCOPOSVoiceRecognition@@@ATL@@UAGJKPAPAUIEnumFORMATETC@@@Z 100122b0 f i VoiceRecognition.obj
 0001:00011320       ?EnumVerbs@?$IOleObjectImpl@VCOPOSVoiceRecognition@@@ATL@@UAGJPAPAUIEnumOLEVERB@@@Z 10012320 f i VoiceRecognition.obj
 0001:000113d0       ?EscapeSingleQuote@CAtlModule@ATL@@SAXPA_WIPB_W@Z 100123d0 f i VoiceRecognition.obj
 0001:00011480       ?ExtractCreateWndData@CAtlWinModule@ATL@@QAEPAXXZ 10012480 f i VoiceRecognition.obj
 0001:000114b0       ?FAccessAllowed@?$IObjectSafetyImpl@VCOPOSVoiceRecognition@@$02@ATL@@MAEHXZ 100124b0 f i VoiceRecognition.obj
 0001:000114d0       ?FinalConstruct@?$CComAggObject@VCOPOSVoiceRecognition@@@ATL@@QAEJXZ 100124d0 f i VoiceRecognition.obj
 0001:00011510       ?FinalConstruct@CComObjectRootBase@ATL@@QAEJXZ 10012510 f i VoiceRecognition.obj
 0001:00011530       ?FinalConstruct@CRegObject@ATL@@QAEJXZ 10012530 f i VoiceRecognition.obj
 0001:00011560       ?FinalRelease@?$CComAggObject@VCOPOSVoiceRecognition@@@ATL@@QAEXXZ 10012560 f i VoiceRecognition.obj
 0001:000115a0       ?FinalRelease@CComObjectRootBase@ATL@@QAEXXZ 100125a0 f i VoiceRecognition.obj
 0001:000115c0       ?FindConnectionPoint@?$IConnectionPointContainerImpl@VCOPOSVoiceRecognition@@@ATL@@UAGJABU_GUID@@PAPAUIConnectionPoint@@@Z 100125c0 f i VoiceRecognition.obj
 0001:00011710       ?FindKey@?$CSimpleMap@PA_WPA_WVCExpansionVectorEqualHelper@ATL@@@ATL@@QBEHABQA_W@Z 10012710 f i VoiceRecognition.obj
 0001:00011780       ?FireTheEvent@?$CProxy_IOPOSEvents@VCOPOSVoiceRecognition@@@@IAEXPAUIUnknown@@PAVOposVariant@@IAAJPB_WJ@Z 10012780 f i VoiceRecognition.obj
 0001:000118f0       ?FireViewChange@CComControlBase@ATL@@QAEJXZ 100128f0 f i VoiceRecognition.obj
 0001:000119b0       ?Fire_DataEvent@?$CProxy_IOPOSEvents@VCOPOSVoiceRecognition@@@@QAEXJ@Z 100129b0 f i VoiceRecognition.obj
 0001:00011b10       ?Fire_DirectIOEvent@?$CProxy_IOPOSEvents@VCOPOSVoiceRecognition@@@@QAEXJPAJPAPA_W@Z 10012b10 f i VoiceRecognition.obj
 0001:00011ce0       ?Fire_ErrorEvent@?$CProxy_IOPOSEvents@VCOPOSVoiceRecognition@@@@QAEXJJJPAJ@Z 10012ce0 f i VoiceRecognition.obj
 0001:00011ed0       ?Fire_StatusUpdateEvent@?$CProxy_IOPOSEvents@VCOPOSVoiceRecognition@@@@QAEXJ@Z 10012ed0 f i VoiceRecognition.obj
 0001:00012030       ?FormatWindowClassName@AtlModuleRegisterWndClassInfoParamW@ATL@@SAXPA_WKPAX@Z 10013030 f i VoiceRecognition.obj
 0001:00012060       ?Free@?$CAutoVectorPtr@_W@ATL@@QAEXXZ 10013060 f i VoiceRecognition.obj
 0001:000120b0       ?FreeHeap@?$CTempBuffer@E$0BAA@VCCRTAllocator@ATL@@@ATL@@AAEXXZ 100130b0 f i VoiceRecognition.obj
 0001:000120e0       ?FreeHeap@?$CTempBuffer@_W$0BAA@VCCRTAllocator@ATL@@@ATL@@AAEXXZ 100130e0 f i VoiceRecognition.obj
 0001:00012110       ?FreeHeap@?$CTempBuffer@_W$0EAA@VCCRTAllocator@ATL@@@ATL@@AAEXXZ 10013110 f i VoiceRecognition.obj
 0001:00012140       ?Freeze@?$IViewObjectExImpl@VCOPOSVoiceRecognition@@@ATL@@UAGJKJPAXPAK@Z 10013140 f i VoiceRecognition.obj
 0001:000121b0       ?GenerateError@CRegParser@ATL@@IAEJI@Z 100131b0 f i VoiceRecognition.obj
 0001:000121d0       ?GetAdvise@?$IViewObjectExImpl@VCOPOSVoiceRecognition@@@ATL@@UAGJPAK0PAPAUIAdviseSink@@@Z 100131d0 f i VoiceRecognition.obj
 0001:000122d0       ?GetAmbientLocaleID@CComControlBase@ATL@@QAEJAAK@Z 100132d0 f i VoiceRecognition.obj
 0001:000123b0       ?GetAmbientProperty@CComControlBase@ATL@@QAEJJAAUtagVARIANT@@@Z 100133b0 f i VoiceRecognition.obj
 0001:00012400       ?GetAmbientUserMode@CComControlBase@ATL@@QAEJAAH@Z 10013400 f i VoiceRecognition.obj
 0001:00012500       ?GetAppId@?$CAtlModuleT@VCComModule@ATL@@@ATL@@SAPB_WXZ 10013500 f i VoiceRecognition.obj
 0001:00012510       ?GetAt@CComDynamicUnkArray@ATL@@QAEPAUIUnknown@@H@Z 10013510 f i VoiceRecognition.obj
 0001:00012590       ?GetCanonicalFormatEtc@?$IDataObjectImpl@VCOPOSVoiceRecognition@@@ATL@@UAGJPAUtagFORMATETC@@0@Z 10013590 f i VoiceRecognition.obj
 0001:00012600       ?GetClassID@?$IPersistStorageImpl@VCOPOSVoiceRecognition@@@ATL@@UAGJPAU_GUID@@@Z 10013600 f i VoiceRecognition.obj
 0001:00012680       ?GetClassID@?$IPersistStreamInitImpl@VCOPOSVoiceRecognition@@@ATL@@UAGJPAU_GUID@@@Z 10013680 f i VoiceRecognition.obj
 0001:00012700       ?GetClassInfoExW@AtlModuleRegisterWndClassInfoParamW@ATL@@SAHPAUHINSTANCE__@@PB_WPAUtagWNDCLASSEXW@@@Z 10013700 f i VoiceRecognition.obj
 0001:00012730       ?GetClassInfoW@?$IProvideClassInfo2Impl@$1?CLSID_OPOSVoiceRecognition@@3U_GUID@@B$1?DIID__IOPOSVoiceRecognitionEvents@@3U2@B$1?LIBID_OposVoiceRecognition_CCO@@3U2@B$00$0A@VCComTypeInfoHolder@ATL@@@ATL@@UAGJPAPAUITypeInfo@@@Z 10013730 f i VoiceRecognition.obj
 0001:00012750       ?GetClassObject@CComModule@ATL@@QAEJABU_GUID@@0PAPAX@Z 10013750 f i VoiceRecognition.obj
 0001:00012950       ?GetClientSite@?$IOleObjectImpl@VCOPOSVoiceRecognition@@@ATL@@UAGJPAPAUIOleClientSite@@@Z 10013950 f i VoiceRecognition.obj
 0001:000129e0       ?GetClipboardData@?$IOleObjectImpl@VCOPOSVoiceRecognition@@@ATL@@UAGJKPAPAUIDataObject@@@Z 100139e0 f i VoiceRecognition.obj
 0001:00012a50       ?GetCodeAddress@CDynamicStdCallThunk2@ATL@@QAEPAXXZ 10013a50 f i VoiceRecognition.obj
 0001:00012a80       ?GetColorSet@?$IViewObjectExImpl@VCOPOSVoiceRecognition@@@ATL@@UAGJKJPAXPAUtagDVTARGETDEVICE@@PAUHDC__@@PAPAUtagLOGPALETTE@@@Z 10013a80 f i VoiceRecognition.obj
 0001:00012af0       ?GetConnMap@COPOSVoiceRecognition@@SAPBU_ATL_CONNMAP_ENTRY@ATL@@PAH@Z 10013af0 f i VoiceRecognition.obj
 0001:00012c30       ?GetConnectionInterface@?$IConnectionPointImpl@VCOPOSVoiceRecognition@@$1?DIID__IOPOSVoiceRecognitionEvents@@3U_GUID@@BVCComDynamicUnkArray@ATL@@@ATL@@UAGJPAU_GUID@@@Z 10013c30 f i VoiceRecognition.obj
 0001:00012c70       ?GetConnectionInterface@?$IConnectionPointImpl@VCOPOSVoiceRecognition@@$1?IID_IPropertyNotifySink@@3U_GUID@@BVCComDynamicUnkArray@ATL@@@ATL@@UAGJPAU_GUID@@@Z 10013c70 f i VoiceRecognition.obj
 0001:00012cb0       ?GetConnectionPointContainer@?$IConnectionPointImpl@VCOPOSVoiceRecognition@@$1?DIID__IOPOSVoiceRecognitionEvents@@3U_GUID@@BVCComDynamicUnkArray@ATL@@@ATL@@UAGJPAPAUIConnectionPointContainer@@@Z 10013cb0 f i VoiceRecognition.obj
 0001:00012d20       ?GetConnectionPointContainer@?$IConnectionPointImpl@VCOPOSVoiceRecognition@@$1?IID_IPropertyNotifySink@@3U_GUID@@BVCComDynamicUnkArray@ATL@@@ATL@@UAGJPAPAUIConnectionPointContainer@@@Z 10013d20 f i VoiceRecognition.obj
 0001:00012d90       ?GetContentExtent@?$IQuickActivateImpl@VCOPOSVoiceRecognition@@@ATL@@UAGJPAUtagSIZE@@@Z 10013d90 f i VoiceRecognition.obj
 0001:00012e20       ?GetControlInfo@?$IOleControlImpl@VCOPOSVoiceRecognition@@@ATL@@UAGJPAUtagCONTROLINFO@@@Z 10013e20 f i VoiceRecognition.obj
 0001:00012e90       ?GetCookie@CComDynamicUnkArray@ATL@@QAGKPAPAUIUnknown@@@Z 10013e90 f i VoiceRecognition.obj
 0001:00012f50       ?GetData@?$IDataObjectImpl@VCOPOSVoiceRecognition@@@ATL@@UAGJPAUtagFORMATETC@@PAUtagSTGMEDIUM@@@Z 10013f50 f i VoiceRecognition.obj
 0001:00012fe0       ?GetData@CAtlSafeAllocBufferNode@?$CAtlSafeAllocBufferManager@VCCRTAllocator@ATL@@@_ATL_SAFE_ALLOCA_IMPL@ATL@@QAEPAXXZ 10013fe0 f i VoiceRecognition.obj
 0001:00013000       ?GetDataHere@?$IDataObjectImpl@VCOPOSVoiceRecognition@@@ATL@@UAGJPAUtagFORMATETC@@PAUtagSTGMEDIUM@@@Z 10014000 f i VoiceRecognition.obj
 0001:00013070       ?GetDropTarget@?$IOleInPlaceObjectWindowlessImpl@VCOPOSVoiceRecognition@@@ATL@@UAGJPAPAUIDropTarget@@@Z 10014070 f i VoiceRecognition.obj
 0001:000130e0       ?GetExtent@?$IOleObjectImpl@VCOPOSVoiceRecognition@@@ATL@@UAGJKPAUtagSIZE@@@Z 100140e0 f i VoiceRecognition.obj
 0001:00013180       ?GetExtent@?$IViewObjectExImpl@VCOPOSVoiceRecognition@@@ATL@@UAGJKJPAUtagDVTARGETDEVICE@@PAUtagSIZE@@@Z 10014180 f i VoiceRecognition.obj
 0001:00013250       ?GetGITPtr@CAtlModule@ATL@@UAEJPAPAUIGlobalInterfaceTable@@@Z 10014250 f i VoiceRecognition.obj
 0001:00013350       ?GetGUID@?$IProvideClassInfo2Impl@$1?CLSID_OPOSVoiceRecognition@@3U_GUID@@B$1?DIID__IOPOSVoiceRecognitionEvents@@3U2@B$1?LIBID_OposVoiceRecognition_CCO@@3U2@B$00$0A@VCComTypeInfoHolder@ATL@@@ATL@@UAGJKPAU_GUID@@@Z 10014350 f i VoiceRecognition.obj
 0001:000133d0       ?GetIDsOfNames@?$IDispatchImpl@UIOPOSVoiceRecognition@@$1?IID_IOPOSVoiceRecognition@@3U_GUID@@B$1?LIBID_OposVoiceRecognition_CCO@@3U3@B$00$0A@VCComTypeInfoHolder@ATL@@@ATL@@UAGJABU_GUID@@PAPA_WIKPAJ@Z 100143d0 f i VoiceRecognition.obj
 0001:00013400       ?GetIDsOfNames@CComTypeInfoHolder@ATL@@QAEJABU_GUID@@PAPA_WIKPAJ@Z 10014400 f i VoiceRecognition.obj
 0001:000135b0       ?GetInterfaceSafetyOptions@?$IObjectSafetyImpl@VCOPOSVoiceRecognition@@$02@ATL@@UAGJABU_GUID@@PAK1@Z 100145b0 f i VoiceRecognition.obj
 0001:00013720       ?GetKeyAt@?$CSimpleMap@PA_WPA_WVCExpansionVectorEqualHelper@ATL@@@ATL@@QBEAAPA_WH@Z 10014720 f i VoiceRecognition.obj
 0001:000137a0       ?GetLockCount@CAtlModule@ATL@@UAEJXZ 100147a0 f i VoiceRecognition.obj
 0001:000137c0       ?GetMiscStatus@?$IOleObjectImpl@VCOPOSVoiceRecognition@@@ATL@@UAGJKPAK@Z 100147c0 f i VoiceRecognition.obj
 0001:00013830       ?GetMoniker@?$IOleObjectImpl@VCOPOSVoiceRecognition@@@ATL@@UAGJKKPAPAUIMoniker@@@Z 10014830 f i VoiceRecognition.obj
 0001:000138a0       ?GetNaturalExtent@?$IViewObjectExImpl@VCOPOSVoiceRecognition@@@ATL@@UAGJKJPAUtagDVTARGETDEVICE@@PAUHDC__@@PAUtagExtentInfo@@PAUtagSIZE@@@Z 100148a0 f i VoiceRecognition.obj
 0001:000139c0       ?GetObjectCLSID@?$CComCoClass@VCOPOSVoiceRecognition@@$1?CLSID_OPOSVoiceRecognition@@3U_GUID@@B@ATL@@SGABU_GUID@@XZ 100149c0 f i VoiceRecognition.obj
 0001:000139d0       ?GetPages@?$ISpecifyPropertyPagesImpl@VCOPOSVoiceRecognition@@@ATL@@UAGJPAUtagCAUUID@@@Z 100149d0 f i VoiceRecognition.obj
 0001:00013a40       ?GetPagesHelper@?$ISpecifyPropertyPagesImpl@VCOPOSVoiceRecognition@@@ATL@@IAEJPAUtagCAUUID@@PBUATL_PROPMAP_ENTRY@2@@Z 10014a40 f i VoiceRecognition.obj
 0001:00013c40       ?GetProperty@?$CComPtr@UIDispatch@@@ATL@@QAEJJPAUtagVARIANT@@@Z 10014c40 f i VoiceRecognition.obj
 0001:00013c80       ?GetProperty@?$CComPtr@UIDispatch@@@ATL@@SAJPAUIDispatch@@JPAUtagVARIANT@@@Z 10014c80 f i VoiceRecognition.obj
 0001:00013de0       ?GetPropertyMap@COPOSVoiceRecognition@@SAPBUATL_PROPMAP_ENTRY@ATL@@XZ 10014de0 f i VoiceRecognition.obj
 0001:00013df0       ?GetRect@?$IViewObjectExImpl@VCOPOSVoiceRecognition@@@ATL@@UAGJKPAU_RECTL@@@Z 10014df0 f i VoiceRecognition.obj
 0001:00013e60       ?GetSize@?$CSimpleMap@PA_WPA_WVCExpansionVectorEqualHelper@ATL@@@ATL@@QBEHXZ 10014e60 f i VoiceRecognition.obj
 0001:00013e80       ?GetSize@CComDynamicUnkArray@ATL@@QBEHXZ 10014e80 f i VoiceRecognition.obj
 0001:00013ea0       ?GetSizeMax@?$IPersistStreamInitImpl@VCOPOSVoiceRecognition@@@ATL@@UAGJPAT_ULARGE_INTEGER@@@Z 10014ea0 f i VoiceRecognition.obj
 0001:00014410       ?GetSizeMax@CComVariant@ATL@@QBEJPAT_ULARGE_INTEGER@@@Z 10015410 f i VoiceRecognition.obj
 0001:00014770       ?GetStreamSize@CComBSTR@ATL@@SAKPA_W@Z 10015770 f i VoiceRecognition.obj
 0001:000147c0       ?GetTI@CComTypeInfoHolder@ATL@@QAEJK@Z 100157c0 f i VoiceRecognition.obj
 0001:00014fd0       ?GetTI@CComTypeInfoHolder@ATL@@QAEJKPAPAUITypeInfo@@@Z 10015fd0 f i VoiceRecognition.obj
 0001:00015090       ?GetTypeInfo@?$IDispatchImpl@UIOPOSVoiceRecognition@@$1?IID_IOPOSVoiceRecognition@@3U_GUID@@B$1?LIBID_OposVoiceRecognition_CCO@@3U3@B$00$0A@VCComTypeInfoHolder@ATL@@@ATL@@UAGJIKPAPAUITypeInfo@@@Z 10016090 f i VoiceRecognition.obj
 0001:000150c0       ?GetTypeInfo@CComTypeInfoHolder@ATL@@QAEJIKPAPAUITypeInfo@@@Z 100160c0 f i VoiceRecognition.obj
 0001:00015100       ?GetTypeInfoCount@?$IDispatchImpl@UIOPOSVoiceRecognition@@$1?IID_IOPOSVoiceRecognition@@3U_GUID@@B$1?LIBID_OposVoiceRecognition_CCO@@3U3@B$00$0A@VCComTypeInfoHolder@ATL@@@ATL@@UAGJPAI@Z 10016100 f i VoiceRecognition.obj
 0001:00015120       ?GetUnknown@CComDynamicUnkArray@ATL@@QAGPAUIUnknown@@K@Z 10016120 f i VoiceRecognition.obj
 0001:00015190       ?GetUnknown@COPOSVoiceRecognition@@QAEPAUIUnknown@@XZ 10016190 f i VoiceRecognition.obj
 0001:000151c0       ?GetUserClassID@?$IOleObjectImpl@VCOPOSVoiceRecognition@@@ATL@@UAGJPAU_GUID@@@Z 100161c0 f i VoiceRecognition.obj
 0001:00015270       ?GetUserType@?$IOleObjectImpl@VCOPOSVoiceRecognition@@@ATL@@UAGJKPAPA_W@Z 10016270 f i VoiceRecognition.obj
 0001:000152e0       ?GetValueAt@?$CSimpleMap@PA_WPA_WVCExpansionVectorEqualHelper@ATL@@@ATL@@QBEAAPA_WH@Z 100162e0 f i VoiceRecognition.obj
 0001:00015360       ?GetViewStatus@?$IViewObjectExImpl@VCOPOSVoiceRecognition@@@ATL@@UAGJPAK@Z 10016360 f i VoiceRecognition.obj
 0001:00015420       ?GetWNDPROC@CWndProcThunk@ATL@@QAEP6GJPAUHWND__@@IIJ@ZXZ 10016420 f i VoiceRecognition.obj
 0001:00015450       ?GetWindow@?$IOleInPlaceActiveObjectImpl@VCOPOSVoiceRecognition@@@ATL@@UAGJPAPAUHWND__@@@Z 10016450 f i VoiceRecognition.obj
 0001:00015520       ?GetWindow@?$IOleInPlaceObjectWindowlessImpl@VCOPOSVoiceRecognition@@@ATL@@UAGJPAPAUHWND__@@@Z 10016520 f i VoiceRecognition.obj
 0001:000155f0       ?GetWindowLongPtrW@@YAJPAUHWND__@@H@Z 100165f0 f i VoiceRecognition.obj
 0001:00015620       ?GetWindowProc@?$CWindowImplBaseT@VCWindow@ATL@@V?$CWinTraits@$0FGAAAAAA@$0A@@2@@ATL@@UAEP6GJPAUHWND__@@IIJ@ZXZ 10016620 f i VoiceRecognition.obj
 0001:00015640       ?GetWndCaption@?$CWindowImpl@VCOPOSVoiceRecognition@@VCWindow@ATL@@V?$CWinTraits@$0FGAAAAAA@$0A@@3@@ATL@@SAPB_WXZ 10016640 f i VoiceRecognition.obj
 0001:00015650       ?GetWndClassInfo@?$CWindowImpl@VCOPOSVoiceRecognition@@VCWindow@ATL@@V?$CWinTraits@$0FGAAAAAA@$0A@@3@@ATL@@SAAAU_ATL_WNDCLASSINFOW@2@XZ 10016650 f i VoiceRecognition.obj
 0001:00015660       ?GetWndClassName@CWindow@ATL@@SAPB_WXZ 10016660 f i VoiceRecognition.obj
 0001:00015670       ?GetWndExStyle@?$CWinTraits@$0FGAAAAAA@$0A@@ATL@@SAKK@Z 10016670 f i VoiceRecognition.obj
 0001:000156a0       ?GetWndExStyle@?$CWindowImplBaseT@VCWindow@ATL@@V?$CWinTraits@$0FGAAAAAA@$0A@@2@@ATL@@SAKK@Z 100166a0 f i VoiceRecognition.obj
 0001:000156c0       ?GetWndStyle@?$CWinTraits@$0FGAAAAAA@$0A@@ATL@@SAKK@Z 100166c0 f i VoiceRecognition.obj
 0001:000156f0       ?GetWndStyle@?$CWindowImplBaseT@VCWindow@ATL@@V?$CWinTraits@$0FGAAAAAA@$0A@@2@@ATL@@SAKK@Z 100166f0 f i VoiceRecognition.obj
 0001:00015710       ?GetZoomInfo@CComControlBase@ATL@@QAEXAAUATL_DRAWINFO@@@Z 10016710 f i VoiceRecognition.obj
 0001:00015880       ?HKeyFromString@CRegParser@ATL@@KAPAUHKEY__@@PA_W@Z 10016880 f i VoiceRecognition.obj
 0001:000158f0       ?HandsOffStorage@?$IPersistStorageImpl@VCOPOSVoiceRecognition@@@ATL@@UAGJXZ 100168f0 f i VoiceRecognition.obj
 0001:00015950       ?HasSubKeys@CRegParser@ATL@@IAEHPAUHKEY__@@@Z 10016950 f i VoiceRecognition.obj
 0001:00015a60       ?IDataObject_GetData@CComControlBase@ATL@@QAEJPAUtagFORMATETC@@PAUtagSTGMEDIUM@@@Z 10016a60 f i VoiceRecognition.obj
 0001:00015e80       ?IOleInPlaceObject_InPlaceDeactivate@CComControlBase@ATL@@QAEJXZ 10016e80 f i VoiceRecognition.obj
 0001:00016080       ?IOleInPlaceObject_SetObjectRects@CComControlBase@ATL@@QAEJPBUtagRECT@@0@Z 10017080 f i VoiceRecognition.obj
 0001:00016240       ?IOleInPlaceObject_UIDeactivate@CComControlBase@ATL@@QAEJXZ 10017240 f i VoiceRecognition.obj
 0001:000164b0       ?IOleObject_Advise@CComControlBase@ATL@@QAEJPAUIAdviseSink@@PAK@Z 100174b0 f i VoiceRecognition.obj
 0001:00016560       ?IOleObject_Close@CComControlBase@ATL@@QAEJK@Z 10017560 f i VoiceRecognition.obj
 0001:00016810       ?IOleObject_GetClientSite@CComControlBase@ATL@@QAEJPAPAUIOleClientSite@@@Z 10017810 f i VoiceRecognition.obj
 0001:000168b0       ?IOleObject_SetClientSite@CComControlBase@ATL@@QAEJPAUIOleClientSite@@@Z 100178b0 f i VoiceRecognition.obj
 0001:00016980       ?IOleObject_SetExtent@CComControlBase@ATL@@QAEJKPAUtagSIZE@@@Z 10017980 f i VoiceRecognition.obj
 0001:00016ac0       ?IPSI_GetIPersistStreamInit@?$IPersistStorageImpl@VCOPOSVoiceRecognition@@@ATL@@AAEPAUIPersistStreamInit@@XZ 10017ac0 f i VoiceRecognition.obj
 0001:00016b90       ?IPersistStreamInit_Load@?$IPersistStreamInitImpl@VCOPOSVoiceRecognition@@@ATL@@QAEJPAUIStream@@PBUATL_PROPMAP_ENTRY@2@@Z 10017b90 f i VoiceRecognition.obj
 0001:00016c10       ?IPersistStreamInit_Save@?$IPersistStreamInitImpl@VCOPOSVoiceRecognition@@@ATL@@QAEJPAUIStream@@HPBUATL_PROPMAP_ENTRY@2@@Z 10017c10 f i VoiceRecognition.obj
 0001:00016ca0       ?IQuickActivate_QuickActivate@CComControlBase@ATL@@QAEJPAUtagQACONTAINER@@PAUtagQACONTROL@@@Z 10017ca0 f i VoiceRecognition.obj
 0001:000172f0       ?IViewObject_Draw@CComControlBase@ATL@@QAEJKJPAXPAUtagDVTARGETDEVICE@@PAUHDC__@@2PBU_RECTL@@3@Z 100182f0 f i VoiceRecognition.obj
 0001:00017590       ?InPlaceActivate@CComControlBase@ATL@@QAEJJPBUtagRECT@@@Z 10018590 f i VoiceRecognition.obj
 0001:00017f20       ?InPlaceDeactivate@?$IOleInPlaceObjectWindowlessImpl@VCOPOSVoiceRecognition@@@ATL@@UAGJXZ 10018f20 f i VoiceRecognition.obj
 0001:00017fa0       ?Increment@CComMultiThreadModel@ATL@@SGKPAJ@Z 10018fa0 f i VoiceRecognition.obj
 0001:00017fc0       ?Increment@CComSingleThreadModel@ATL@@SGKPAJ@Z 10018fc0 f i VoiceRecognition.obj
 0001:00017fe0       ?Init@?$CComEnumImpl@UIEnumConnectionPoints@@$1?_GUID_b196b285_bab4_101a_b69c_00aa00341d07@@3U__s_GUID@@BPAUIConnectionPoint@@V?$_CopyInterface@UIConnectionPoint@@@ATL@@@ATL@@QAEJPAPAUIConnectionPoint@@0PAUIUnknown@@W4CComEnumFlags@2@@Z 10018fe0 f i VoiceRecognition.obj
 0001:000181c0       ?Init@?$CComEnumImpl@UIEnumConnections@@$1?_GUID_b196b287_bab4_101a_b69c_00aa00341d07@@3U__s_GUID@@BUtagCONNECTDATA@@V?$_Copy@UtagCONNECTDATA@@@ATL@@@ATL@@QAEJPAUtagCONNECTDATA@@0PAUIUnknown@@W4CComEnumFlags@2@@Z 100191c0 f i VoiceRecognition.obj
 0001:000183a0       ?Init@CComFakeCriticalSection@ATL@@QAEJXZ 100193a0 f i VoiceRecognition.obj
 0001:000183c0       ?Init@CComModule@ATL@@QAEJPAU_ATL_OBJMAP_ENTRY30@2@PAUHINSTANCE__@@PBU_GUID@@@Z 100193c0 f i VoiceRecognition.obj
 0001:000184b0       ?Init@CComSafeDeleteCriticalSection@ATL@@QAEJXZ 100194b0 f i VoiceRecognition.obj
 0001:00018530       ?Init@CDynamicStdCallThunk2@ATL@@QAEHKPAX@Z 10019530 f i VoiceRecognition.obj
 0001:00018590       ?Init@CWndProcThunk@ATL@@QAEHP6GJPAUHWND__@@IIJ@ZPAX@Z 10019590 f i VoiceRecognition.obj
 0001:000185d0       ?InitFromData@?$IOleObjectImpl@VCOPOSVoiceRecognition@@@ATL@@UAGJPAUIDataObject@@HK@Z 100195d0 f i VoiceRecognition.obj
 0001:00018640       ?InitLibId@?$CAtlModuleT@VCComModule@ATL@@@ATL@@SAXXZ 10019640 f i VoiceRecognition.obj
 0001:00018650       ?InitNew@?$IPersistStorageImpl@VCOPOSVoiceRecognition@@@ATL@@UAGJPAUIStorage@@@Z 10019650 f i VoiceRecognition.obj
 0001:00018740       ?InitNew@?$IPersistStreamInitImpl@VCOPOSVoiceRecognition@@@ATL@@UAGJXZ 10019740 f i VoiceRecognition.obj
 0001:000187d0       ?InlineIsEqualUnknown@ATL@@YGHABU_GUID@@@Z 100197d0 f i VoiceRecognition.obj
 0001:00018840       ?InternalAddRef@?$CComObjectRootEx@VCComMultiThreadModel@ATL@@@ATL@@QAEKXZ 10019840 f i VoiceRecognition.obj
 0001:000188a0       ?InternalAddRef@?$CComObjectRootEx@VCComSingleThreadModel@ATL@@@ATL@@QAEKXZ 100198a0 f i VoiceRecognition.obj
 0001:00018900       ?InternalFinalConstructAddRef@CComObjectRootBase@ATL@@QAEXXZ 10019900 f i VoiceRecognition.obj
 0001:00018920       ?InternalFinalConstructAddRef@COPOSVoiceRecognition@@QAEXXZ 10019920 f i VoiceRecognition.obj
 0001:00018950       ?InternalFinalConstructRelease@CComObjectRootBase@ATL@@QAEXXZ 10019950 f i VoiceRecognition.obj
 0001:000189a0       ?InternalFinalConstructRelease@COPOSVoiceRecognition@@QAEXXZ 100199a0 f i VoiceRecognition.obj
 0001:000189d0       ?InternalGetSite@CComControlBase@ATL@@QAEJABU_GUID@@PAPAX@Z 100199d0 f i VoiceRecognition.obj
 0001:00018a90       ?InternalQueryInterface@CComObjectRootBase@ATL@@SGJPAXPBU_ATL_INTMAP_ENTRY@2@ABU_GUID@@PAPAX@Z 10019a90 f i VoiceRecognition.obj
 0001:00018b50       ?InternalRelease@?$CComObjectRootEx@VCComMultiThreadModel@ATL@@@ATL@@QAEKXZ 10019b50 f i VoiceRecognition.obj
 0001:00018bc0       ?InternalRelease@?$CComObjectRootEx@VCComSingleThreadModel@ATL@@@ATL@@QAEKXZ 10019bc0 f i VoiceRecognition.obj
 0001:00018c30       ?InternalSetAtIndex@?$CSimpleArray@GV?$CSimpleArrayEqualHelper@G@ATL@@@ATL@@QAEXHABG@Z 10019c30 f i VoiceRecognition.obj
 0001:00018ca0       ?InternalSetAtIndex@?$CSimpleMap@PA_WPA_WVCExpansionVectorEqualHelper@ATL@@@ATL@@QAEXHABQA_W0@Z 10019ca0 f i VoiceRecognition.obj
 0001:00018d40       ?Invoke@?$IDispatchImpl@UIOPOSVoiceRecognition@@$1?IID_IOPOSVoiceRecognition@@3U_GUID@@B$1?LIBID_OposVoiceRecognition_CCO@@3U3@B$00$0A@VCComTypeInfoHolder@ATL@@@ATL@@UAGJJABU_GUID@@KGPAUtagDISPPARAMS@@PAUtagVARIANT@@PAUtagEXCEPINFO@@PAI@Z 10019d40 f i VoiceRecognition.obj
 0001:00018d80       ?Invoke@CComTypeInfoHolder@ATL@@QAEJPAUIDispatch@@JABU_GUID@@KGPAUtagDISPPARAMS@@PAUtagVARIANT@@PAUtagEXCEPINFO@@PAI@Z 10019d80 f i VoiceRecognition.obj
 0001:00018e10       ?IsDirty@?$IPersistStorageImpl@VCOPOSVoiceRecognition@@@ATL@@UAGJXZ 10019e10 f i VoiceRecognition.obj
 0001:00018f00       ?IsDirty@?$IPersistStreamInitImpl@VCOPOSVoiceRecognition@@@ATL@@UAGJXZ 10019f00 f i VoiceRecognition.obj
 0001:00018fa0       ?IsEqualKey@CExpansionVectorEqualHelper@ATL@@SA_NQA_W0@Z 10019fa0 f i VoiceRecognition.obj
 0001:00018fd0       ?IsEqualObject@?$CComPtrBase@UIOleClientSite@@@ATL@@QAE_NPAUIUnknown@@@Z 10019fd0 f i VoiceRecognition.obj
 0001:00019100       ?IsEqualObject@?$CComPtrBase@UITypeInfo@@@ATL@@QAE_NPAUIUnknown@@@Z 1001a100 f i VoiceRecognition.obj
 0001:00019230       ?IsSpace@CRegParser@ATL@@IAEH_W@Z 1001a230 f i VoiceRecognition.obj
 0001:000192a0       ?IsUpToDate@?$IOleObjectImpl@VCOPOSVoiceRecognition@@@ATL@@UAGJXZ 1001a2a0 f i VoiceRecognition.obj
 0001:00019300       ?Length@CComBSTR@ATL@@QBEIXZ 1001a300 f i VoiceRecognition.obj
 0001:00019340       ?Load@?$IPersistStorageImpl@VCOPOSVoiceRecognition@@@ATL@@UAGJPAUIStorage@@@Z 1001a340 f i VoiceRecognition.obj
 0001:000194a0       ?Load@?$IPersistStreamInitImpl@VCOPOSVoiceRecognition@@@ATL@@UAGJPAUIStream@@@Z 1001a4a0 f i VoiceRecognition.obj
 0001:00019530       ?LoadCursorW@AtlModuleRegisterWndClassInfoParamW@ATL@@SAPAUHICON__@@PAUHINSTANCE__@@PB_W@Z 1001a530 f i VoiceRecognition.obj
 0001:00019560       ?LoadNameCache@CComTypeInfoHolder@ATL@@QAEJPAUITypeInfo@@@Z 1001a560 f i VoiceRecognition.obj
 0001:000197f0       ?Lock@?$CComCritSecLock@VCComCriticalSection@ATL@@@ATL@@QAEJXZ 1001a7f0 f i VoiceRecognition.obj
 0001:000198a0       ?Lock@?$CComObjectRootEx@VCComSingleThreadModel@ATL@@@ATL@@QAEXXZ 1001a8a0 f i VoiceRecognition.obj
 0001:000198c0       ?Lock@CAtlModule@ATL@@UAEJXZ 1001a8c0 f i VoiceRecognition.obj
 0001:000198f0       ?Lock@CComCriticalSection@ATL@@QAEJXZ 1001a8f0 f i VoiceRecognition.obj
 0001:00019930       ?Lock@CComFakeCriticalSection@ATL@@QAEJXZ 1001a930 f i VoiceRecognition.obj
 0001:00019950       ?LockServer@CComClassFactory@ATL@@UAGJH@Z 1001a950 f i VoiceRecognition.obj
 0001:000199b0       ?Lookup@?$CSimpleMap@PA_WPA_WVCExpansionVectorEqualHelper@ATL@@@ATL@@QBEPA_WABQA_W@Z 1001a9b0 f i VoiceRecognition.obj
 0001:00019a00       ?Next@?$CComEnumImpl@UIEnumConnectionPoints@@$1?_GUID_b196b285_bab4_101a_b69c_00aa00341d07@@3U__s_GUID@@BPAUIConnectionPoint@@V?$_CopyInterface@UIConnectionPoint@@@ATL@@@ATL@@UAGJKPAPAUIConnectionPoint@@PAK@Z 1001aa00 f i VoiceRecognition.obj
 0001:00019b70       ?Next@?$CComEnumImpl@UIEnumConnections@@$1?_GUID_b196b287_bab4_101a_b69c_00aa00341d07@@3U__s_GUID@@BUtagCONNECTDATA@@V?$_Copy@UtagCONNECTDATA@@@ATL@@@ATL@@UAGJKPAUtagCONNECTDATA@@PAK@Z 1001ab70 f i VoiceRecognition.obj
 0001:00019ce0       ?NextToken@CRegParser@ATL@@IAEJPA_W@Z 1001ace0 f i VoiceRecognition.obj
 0001:00019f80       ?OLE2CT_EX@@YAPB_WPB_WI@Z  1001af80 f i VoiceRecognition.obj
 0001:00019f90       ?OLE2CT_EX_DEF@@YAPB_WPB_W@Z 1001af90 f i VoiceRecognition.obj
 0001:00019fa0       ?OLE2T_EX@@YAPA_WPA_WI@Z   1001afa0 f i VoiceRecognition.obj
 0001:00019fb0       ?OnAmbientPropertyChange@?$IOleControlImpl@VCOPOSVoiceRecognition@@@ATL@@UAGJJ@Z 1001afb0 f i VoiceRecognition.obj
 0001:0001a040       ?OnDocWindowActivate@?$IOleInPlaceActiveObjectImpl@VCOPOSVoiceRecognition@@@ATL@@UAGJH@Z 1001b040 f i VoiceRecognition.obj
 0001:0001a0d0       ?OnDrawAdvanced@CComControlBase@ATL@@UAEJAAUATL_DRAWINFO@@@Z 1001b0d0 f i VoiceRecognition.obj
 0001:0001a2f0       ?OnFinalMessage@?$CWindowImplBaseT@VCWindow@ATL@@V?$CWinTraits@$0FGAAAAAA@$0A@@2@@ATL@@UAEXPAUHWND__@@@Z 1001b2f0 f i VoiceRecognition.obj
 0001:0001a310       ?OnFrameWindowActivate@?$IOleInPlaceActiveObjectImpl@VCOPOSVoiceRecognition@@@ATL@@UAGJH@Z 1001b310 f i VoiceRecognition.obj
 0001:0001a370       ?OnKillFocus@CComControlBase@ATL@@QAEJIIJAAH@Z 1001b370 f i VoiceRecognition.obj
 0001:0001a470       ?OnMnemonic@?$IOleControlImpl@VCOPOSVoiceRecognition@@@ATL@@UAGJPAUtagMSG@@@Z 1001b470 f i VoiceRecognition.obj
 0001:0001a4e0       ?OnMouseActivate@CComControlBase@ATL@@QAEJIIJAAH@Z 1001b4e0 f i VoiceRecognition.obj
 0001:0001a630       ?OnPaint@CComControlBase@ATL@@QAEJIIJAAH@Z 1001b630 f i VoiceRecognition.obj
 0001:0001a7b0       ?OnPostVerbDiscardUndo@?$IOleObjectImpl@VCOPOSVoiceRecognition@@@ATL@@QAEJXZ 1001b7b0 f i VoiceRecognition.obj
 0001:0001a7d0       ?OnPostVerbHide@?$IOleObjectImpl@VCOPOSVoiceRecognition@@@ATL@@QAEJXZ 1001b7d0 f i VoiceRecognition.obj
 0001:0001a7f0       ?OnPostVerbInPlaceActivate@?$IOleObjectImpl@VCOPOSVoiceRecognition@@@ATL@@QAEJXZ 1001b7f0 f i VoiceRecognition.obj
 0001:0001a810       ?OnPostVerbOpen@?$IOleObjectImpl@VCOPOSVoiceRecognition@@@ATL@@QAEJXZ 1001b810 f i VoiceRecognition.obj
 0001:0001a830       ?OnPostVerbShow@?$IOleObjectImpl@VCOPOSVoiceRecognition@@@ATL@@QAEJXZ 1001b830 f i VoiceRecognition.obj
 0001:0001a850       ?OnPostVerbUIActivate@?$IOleObjectImpl@VCOPOSVoiceRecognition@@@ATL@@QAEJXZ 1001b850 f i VoiceRecognition.obj
 0001:0001a870       ?OnPreVerbDiscardUndo@?$IOleObjectImpl@VCOPOSVoiceRecognition@@@ATL@@QAEJXZ 1001b870 f i VoiceRecognition.obj
 0001:0001a890       ?OnPreVerbHide@?$IOleObjectImpl@VCOPOSVoiceRecognition@@@ATL@@QAEJXZ 1001b890 f i VoiceRecognition.obj
 0001:0001a8b0       ?OnPreVerbInPlaceActivate@?$IOleObjectImpl@VCOPOSVoiceRecognition@@@ATL@@QAEJXZ 1001b8b0 f i VoiceRecognition.obj
 0001:0001a8d0       ?OnPreVerbOpen@?$IOleObjectImpl@VCOPOSVoiceRecognition@@@ATL@@QAEJXZ 1001b8d0 f i VoiceRecognition.obj
 0001:0001a8f0       ?OnPreVerbShow@?$IOleObjectImpl@VCOPOSVoiceRecognition@@@ATL@@QAEJXZ 1001b8f0 f i VoiceRecognition.obj
 0001:0001a910       ?OnPreVerbUIActivate@?$IOleObjectImpl@VCOPOSVoiceRecognition@@@ATL@@QAEJXZ 1001b910 f i VoiceRecognition.obj
 0001:0001a930       ?OnSetFocus@CComControlBase@ATL@@QAEJIIJAAH@Z 1001b930 f i VoiceRecognition.obj
 0001:0001aac0       ?OnWindowMessage@?$IOleInPlaceObjectWindowlessImpl@VCOPOSVoiceRecognition@@@ATL@@UAGJIIJPAJ@Z 1001bac0 f i VoiceRecognition.obj
 0001:0001ac20       ?Open@CRegKey@ATL@@QAEJPAUHKEY__@@PB_WK@Z 1001bc20 f i VoiceRecognition.obj
 0001:0001ad70       ?OuterAddRef@CComObjectRootBase@ATL@@QAEKXZ 1001bd70 f i VoiceRecognition.obj
 0001:0001adb0       ?OuterQueryInterface@CComObjectRootBase@ATL@@QAEJABU_GUID@@PAPAX@Z 1001bdb0 f i VoiceRecognition.obj
 0001:0001ae00       ?OuterRelease@CComObjectRootBase@ATL@@QAEKXZ 1001be00 f i VoiceRecognition.obj
 0001:0001ae40       ?PreProcessBuffer@CRegParser@ATL@@QAEJPA_WPAPA_W@Z 1001be40 f i VoiceRecognition.obj
 0001:0001b380       ?PreTranslateAccelerator@CComControlBase@ATL@@QAEHPAUtagMSG@@AAJ@Z 1001c380 f i VoiceRecognition.obj
 0001:0001b3a0       ?ProcessWindowMessage@?$CComControl@VCOPOSVoiceRecognition@@V?$CWindowImpl@VCOPOSVoiceRecognition@@VCWindow@ATL@@V?$CWinTraits@$0FGAAAAAA@$0A@@3@@ATL@@@ATL@@UAEHPAUHWND__@@IIJAAJK@Z 1001c3a0 f i VoiceRecognition.obj
 0001:0001b570       ?ProcessWindowMessage@COPOSVoiceRecognition@@UAEHPAUHWND__@@IIJAAJK@Z 1001c570 f i VoiceRecognition.obj
 0001:0001b670       ?PutProperty@?$CComPtr@UIDispatch@@@ATL@@QAEJJPAUtagVARIANT@@@Z 1001c670 f i VoiceRecognition.obj
 0001:0001b6b0       ?PutProperty@?$CComPtr@UIDispatch@@@ATL@@SAJPAUIDispatch@@JPAUtagVARIANT@@@Z 1001c6b0 f i VoiceRecognition.obj
 0001:0001b8a0       ?QueryGetData@?$IDataObjectImpl@VCOPOSVoiceRecognition@@@ATL@@UAGJPAUtagFORMATETC@@@Z 1001c8a0 f i VoiceRecognition.obj
 0001:0001b910       ?QueryHitPoint@?$IViewObjectExImpl@VCOPOSVoiceRecognition@@@ATL@@UAGJKPBUtagRECT@@UtagPOINT@@JPAK@Z 1001c910 f i VoiceRecognition.obj
 0001:0001ba20       ?QueryHitRect@?$IViewObjectExImpl@VCOPOSVoiceRecognition@@@ATL@@UAGJKPBUtagRECT@@0JPAK@Z 1001ca20 f i VoiceRecognition.obj
 0001:0001bb70       ?QueryInterface@?$CComAggObject@VCOPOSVoiceRecognition@@@ATL@@UAGJABU_GUID@@PAPAX@Z 1001cb70 f i VoiceRecognition.obj
 0001:0001bc20       ?QueryInterface@?$CComContainedObject@VCOPOSVoiceRecognition@@@ATL@@UAGJABU_GUID@@PAPAX@Z 1001cc20 f i VoiceRecognition.obj
 0001:0001bc44       ?QueryInterface@?$CComContainedObject@VCOPOSVoiceRecognition@@@ATL@@WHA@AGJABU_GUID@@PAPAX@Z 1001cc44 f i VoiceRecognition.obj
 0001:0001bc4e       ?QueryInterface@?$CComContainedObject@VCOPOSVoiceRecognition@@@ATL@@WHE@AGJABU_GUID@@PAPAX@Z 1001cc4e f i VoiceRecognition.obj
 0001:0001bc58       ?QueryInterface@?$CComContainedObject@VCOPOSVoiceRecognition@@@ATL@@WHI@AGJABU_GUID@@PAPAX@Z 1001cc58 f i VoiceRecognition.obj
 0001:0001bc62       ?QueryInterface@?$CComContainedObject@VCOPOSVoiceRecognition@@@ATL@@WHM@AGJABU_GUID@@PAPAX@Z 1001cc62 f i VoiceRecognition.obj
 0001:0001bc6c       ?QueryInterface@?$CComContainedObject@VCOPOSVoiceRecognition@@@ATL@@WIA@AGJABU_GUID@@PAPAX@Z 1001cc6c f i VoiceRecognition.obj
 0001:0001bc79       ?QueryInterface@?$CComContainedObject@VCOPOSVoiceRecognition@@@ATL@@WIE@AGJABU_GUID@@PAPAX@Z 1001cc79 f i VoiceRecognition.obj
 0001:0001bc86       ?QueryInterface@?$CComContainedObject@VCOPOSVoiceRecognition@@@ATL@@WII@AGJABU_GUID@@PAPAX@Z 1001cc86 f i VoiceRecognition.obj
 0001:0001bc93       ?QueryInterface@?$CComContainedObject@VCOPOSVoiceRecognition@@@ATL@@WIM@AGJABU_GUID@@PAPAX@Z 1001cc93 f i VoiceRecognition.obj
 0001:0001bca0       ?QueryInterface@?$CComContainedObject@VCOPOSVoiceRecognition@@@ATL@@WJA@AGJABU_GUID@@PAPAX@Z 1001cca0 f i VoiceRecognition.obj
 0001:0001bcad       ?QueryInterface@?$CComContainedObject@VCOPOSVoiceRecognition@@@ATL@@WJE@AGJABU_GUID@@PAPAX@Z 1001ccad f i VoiceRecognition.obj
 0001:0001bcba       ?QueryInterface@?$CComContainedObject@VCOPOSVoiceRecognition@@@ATL@@WJI@AGJABU_GUID@@PAPAX@Z 1001ccba f i VoiceRecognition.obj
 0001:0001bcc7       ?QueryInterface@?$CComContainedObject@VCOPOSVoiceRecognition@@@ATL@@WJM@AGJABU_GUID@@PAPAX@Z 1001ccc7 f i VoiceRecognition.obj
 0001:0001bcd4       ?QueryInterface@?$CComContainedObject@VCOPOSVoiceRecognition@@@ATL@@WKA@AGJABU_GUID@@PAPAX@Z 1001ccd4 f i VoiceRecognition.obj
 0001:0001bcf0       ?QueryInterface@?$CComObject@V?$CComEnum@UIEnumConnectionPoints@@$1?_GUID_b196b285_bab4_101a_b69c_00aa00341d07@@3U__s_GUID@@BPAUIConnectionPoint@@V?$_CopyInterface@UIConnectionPoint@@@ATL@@VCComSingleThreadModel@6@@ATL@@@ATL@@UAGJABU_GUID@@PAPAX@Z 1001ccf0 f i VoiceRecognition.obj
 0001:0001bd10       ?QueryInterface@?$CComObject@V?$CComEnum@UIEnumConnections@@$1?_GUID_b196b287_bab4_101a_b69c_00aa00341d07@@3U__s_GUID@@BUtagCONNECTDATA@@V?$_Copy@UtagCONNECTDATA@@@ATL@@VCComSingleThreadModel@6@@ATL@@@ATL@@UAGJABU_GUID@@PAPAX@Z 1001cd10 f i VoiceRecognition.obj
 0001:0001bd30       ?QueryInterface@?$CComObject@VCOPOSVoiceRecognition@@@ATL@@UAGJABU_GUID@@PAPAX@Z 1001cd30 f i VoiceRecognition.obj
 0001:0001bd4e       ?QueryInterface@?$CComObject@VCOPOSVoiceRecognition@@@ATL@@WHA@AGJABU_GUID@@PAPAX@Z 1001cd4e f i VoiceRecognition.obj
 0001:0001bd58       ?QueryInterface@?$CComObject@VCOPOSVoiceRecognition@@@ATL@@WHE@AGJABU_GUID@@PAPAX@Z 1001cd58 f i VoiceRecognition.obj
 0001:0001bd62       ?QueryInterface@?$CComObject@VCOPOSVoiceRecognition@@@ATL@@WHI@AGJABU_GUID@@PAPAX@Z 1001cd62 f i VoiceRecognition.obj
 0001:0001bd6c       ?QueryInterface@?$CComObject@VCOPOSVoiceRecognition@@@ATL@@WHM@AGJABU_GUID@@PAPAX@Z 1001cd6c f i VoiceRecognition.obj
 0001:0001bd76       ?QueryInterface@?$CComObject@VCOPOSVoiceRecognition@@@ATL@@WIA@AGJABU_GUID@@PAPAX@Z 1001cd76 f i VoiceRecognition.obj
 0001:0001bd83       ?QueryInterface@?$CComObject@VCOPOSVoiceRecognition@@@ATL@@WIE@AGJABU_GUID@@PAPAX@Z 1001cd83 f i VoiceRecognition.obj
 0001:0001bd90       ?QueryInterface@?$CComObject@VCOPOSVoiceRecognition@@@ATL@@WII@AGJABU_GUID@@PAPAX@Z 1001cd90 f i VoiceRecognition.obj
 0001:0001bd9d       ?QueryInterface@?$CComObject@VCOPOSVoiceRecognition@@@ATL@@WIM@AGJABU_GUID@@PAPAX@Z 1001cd9d f i VoiceRecognition.obj
 0001:0001bdaa       ?QueryInterface@?$CComObject@VCOPOSVoiceRecognition@@@ATL@@WJA@AGJABU_GUID@@PAPAX@Z 1001cdaa f i VoiceRecognition.obj
 0001:0001bdb7       ?QueryInterface@?$CComObject@VCOPOSVoiceRecognition@@@ATL@@WJE@AGJABU_GUID@@PAPAX@Z 1001cdb7 f i VoiceRecognition.obj
 0001:0001bdc4       ?QueryInterface@?$CComObject@VCOPOSVoiceRecognition@@@ATL@@WJI@AGJABU_GUID@@PAPAX@Z 1001cdc4 f i VoiceRecognition.obj
 0001:0001bdd1       ?QueryInterface@?$CComObject@VCOPOSVoiceRecognition@@@ATL@@WJM@AGJABU_GUID@@PAPAX@Z 1001cdd1 f i VoiceRecognition.obj
 0001:0001bdde       ?QueryInterface@?$CComObject@VCOPOSVoiceRecognition@@@ATL@@WKA@AGJABU_GUID@@PAPAX@Z 1001cdde f i VoiceRecognition.obj
 0001:0001bdf0       ?QueryInterface@?$CComObjectCached@VCComClassFactory@ATL@@@ATL@@UAGJABU_GUID@@PAPAX@Z 1001cdf0 f i VoiceRecognition.obj
 0001:0001be10       ?QueryInterface@CRegObject@ATL@@UAGJABU_GUID@@PAPAX@Z 1001ce10 f i VoiceRecognition.obj
 0001:0001be60       ?QuickActivate@?$IQuickActivateImpl@VCOPOSVoiceRecognition@@@ATL@@UAGJPAUtagQACONTAINER@@PAUtagQACONTROL@@@Z 1001ce60 f i VoiceRecognition.obj
 0001:0001bef0       ?ReactivateAndUndo@?$IOleInPlaceObjectWindowlessImpl@VCOPOSVoiceRecognition@@@ATL@@UAGJXZ 1001cef0 f i VoiceRecognition.obj
 0001:0001bf60       ?ReadFromStream@CComBSTR@ATL@@QAEJPAUIStream@@@Z 1001cf60 f i VoiceRecognition.obj
 0001:0001c360       ?ReadFromStream@CComVariant@ATL@@QAEJPAUIStream@@GTClassesAllowedInStream@2@K@Z 1001d360 f i VoiceRecognition.obj
 0001:0001c6c0       ?RecurseDeleteKey@CRegKey@ATL@@QAEJPB_W@Z 1001d6c0 f i VoiceRecognition.obj
 0001:0001c8a0       ?RegCreateKeyExW@CAtlTransactionManager@ATL@@QAEJPAUHKEY__@@PB_WKPA_WKKQAU_SECURITY_ATTRIBUTES@@PAPAU3@PAK@Z 1001d8a0 f i VoiceRecognition.obj
 0001:0001c9d0       ?RegDeleteKeyW@CAtlTransactionManager@ATL@@QAEJPAUHKEY__@@PB_W@Z 1001d9d0 f i VoiceRecognition.obj
 0001:0001cad0       ?RegOpenKeyExW@CAtlTransactionManager@ATL@@QAEJPAUHKEY__@@PB_WKKPAPAU3@@Z 1001dad0 f i VoiceRecognition.obj
 0001:0001cbe0       ?Register@_ATL_WNDCLASSINFOW@ATL@@QAEGPAP6GJPAUHWND__@@IIJ@Z@Z 1001dbe0 f i VoiceRecognition.obj
 0001:0001cc20       ?RegisterBuffer@CRegParser@ATL@@QAEJPA_WH@Z 1001dc20 f i VoiceRecognition.obj
 0001:0001cf50       ?RegisterClassExW@AtlModuleRegisterWndClassInfoParamW@ATL@@SAGPAU_ATL_WIN_MODULE70@2@PBUtagWNDCLASSEXW@@@Z 1001df50 f i VoiceRecognition.obj
 0001:0001cf70       ?RegisterFromResource@CRegObject@ATL@@IAEJPB_W00H@Z 1001df70 f i VoiceRecognition.obj
 0001:0001d300       ?RegisterServer@?$CAtlModuleT@VCComModule@ATL@@@ATL@@QAEJHPBU_GUID@@@Z 1001e300 f i VoiceRecognition.obj
 0001:0001d380       ?RegisterServer@CAtlComModule@ATL@@QAEJHPBU_GUID@@@Z 1001e380 f i VoiceRecognition.obj
 0001:0001d3b0       ?RegisterServer@CComModule@ATL@@QAEJHPBU_GUID@@@Z 1001e3b0 f i VoiceRecognition.obj
 0001:0001d490       ?RegisterSubkeys@CRegParser@ATL@@IAEJPA_WPAUHKEY__@@HH@Z 1001e490 f i VoiceRecognition.obj
 0001:0001dfb0       ?Release@?$CComAggObject@VCOPOSVoiceRecognition@@@ATL@@UAGKXZ 1001efb0 f i VoiceRecognition.obj
 0001:0001e070       ?Release@?$CComContainedObject@VCOPOSVoiceRecognition@@@ATL@@UAGKXZ 1001f070 f i VoiceRecognition.obj
 0001:0001e08c       ?Release@?$CComContainedObject@VCOPOSVoiceRecognition@@@ATL@@WHA@AGKXZ 1001f08c f i VoiceRecognition.obj
 0001:0001e096       ?Release@?$CComContainedObject@VCOPOSVoiceRecognition@@@ATL@@WHE@AGKXZ 1001f096 f i VoiceRecognition.obj
 0001:0001e0a0       ?Release@?$CComContainedObject@VCOPOSVoiceRecognition@@@ATL@@WHI@AGKXZ 1001f0a0 f i VoiceRecognition.obj
 0001:0001e0aa       ?Release@?$CComContainedObject@VCOPOSVoiceRecognition@@@ATL@@WHM@AGKXZ 1001f0aa f i VoiceRecognition.obj
 0001:0001e0b4       ?Release@?$CComContainedObject@VCOPOSVoiceRecognition@@@ATL@@WIA@AGKXZ 1001f0b4 f i VoiceRecognition.obj
 0001:0001e0c1       ?Release@?$CComContainedObject@VCOPOSVoiceRecognition@@@ATL@@WIE@AGKXZ 1001f0c1 f i VoiceRecognition.obj
 0001:0001e0ce       ?Release@?$CComContainedObject@VCOPOSVoiceRecognition@@@ATL@@WII@AGKXZ 1001f0ce f i VoiceRecognition.obj
 0001:0001e0db       ?Release@?$CComContainedObject@VCOPOSVoiceRecognition@@@ATL@@WIM@AGKXZ 1001f0db f i VoiceRecognition.obj
 0001:0001e0e8       ?Release@?$CComContainedObject@VCOPOSVoiceRecognition@@@ATL@@WJA@AGKXZ 1001f0e8 f i VoiceRecognition.obj
 0001:0001e0f5       ?Release@?$CComContainedObject@VCOPOSVoiceRecognition@@@ATL@@WJE@AGKXZ 1001f0f5 f i VoiceRecognition.obj
 0001:0001e102       ?Release@?$CComContainedObject@VCOPOSVoiceRecognition@@@ATL@@WJI@AGKXZ 1001f102 f i VoiceRecognition.obj
 0001:0001e10f       ?Release@?$CComContainedObject@VCOPOSVoiceRecognition@@@ATL@@WJM@AGKXZ 1001f10f f i VoiceRecognition.obj
 0001:0001e11c       ?Release@?$CComContainedObject@VCOPOSVoiceRecognition@@@ATL@@WKA@AGKXZ 1001f11c f i VoiceRecognition.obj
 0001:0001e129       ?Release@?$CComContainedObject@VCOPOSVoiceRecognition@@@ATL@@WKI@AGKXZ 1001f129 f i VoiceRecognition.obj
 0001:0001e136       ?Release@?$CComContainedObject@VCOPOSVoiceRecognition@@@ATL@@WLE@AGKXZ 1001f136 f i VoiceRecognition.obj
 0001:0001e150       ?Release@?$CComObject@V?$CComEnum@UIEnumConnectionPoints@@$1?_GUID_b196b285_bab4_101a_b69c_00aa00341d07@@3U__s_GUID@@BPAUIConnectionPoint@@V?$_CopyInterface@UIConnectionPoint@@@ATL@@VCComSingleThreadModel@6@@ATL@@@ATL@@UAGKXZ 1001f150 f i VoiceRecognition.obj
 0001:0001e210       ?Release@?$CComObject@V?$CComEnum@UIEnumConnections@@$1?_GUID_b196b287_bab4_101a_b69c_00aa00341d07@@3U__s_GUID@@BUtagCONNECTDATA@@V?$_Copy@UtagCONNECTDATA@@@ATL@@VCComSingleThreadModel@6@@ATL@@@ATL@@UAGKXZ 1001f210 f i VoiceRecognition.obj
 0001:0001e2d0       ?Release@?$CComObject@VCOPOSVoiceRecognition@@@ATL@@UAGKXZ 1001f2d0 f i VoiceRecognition.obj
 0001:0001e389       ?Release@?$CComObject@VCOPOSVoiceRecognition@@@ATL@@WHA@AGKXZ 1001f389 f i VoiceRecognition.obj
 0001:0001e393       ?Release@?$CComObject@VCOPOSVoiceRecognition@@@ATL@@WHE@AGKXZ 1001f393 f i VoiceRecognition.obj
 0001:0001e39d       ?Release@?$CComObject@VCOPOSVoiceRecognition@@@ATL@@WHI@AGKXZ 1001f39d f i VoiceRecognition.obj
 0001:0001e3a7       ?Release@?$CComObject@VCOPOSVoiceRecognition@@@ATL@@WHM@AGKXZ 1001f3a7 f i VoiceRecognition.obj
 0001:0001e3b1       ?Release@?$CComObject@VCOPOSVoiceRecognition@@@ATL@@WIA@AGKXZ 1001f3b1 f i VoiceRecognition.obj
 0001:0001e3be       ?Release@?$CComObject@VCOPOSVoiceRecognition@@@ATL@@WIE@AGKXZ 1001f3be f i VoiceRecognition.obj
 0001:0001e3cb       ?Release@?$CComObject@VCOPOSVoiceRecognition@@@ATL@@WII@AGKXZ 1001f3cb f i VoiceRecognition.obj
 0001:0001e3d8       ?Release@?$CComObject@VCOPOSVoiceRecognition@@@ATL@@WIM@AGKXZ 1001f3d8 f i VoiceRecognition.obj
 0001:0001e3e5       ?Release@?$CComObject@VCOPOSVoiceRecognition@@@ATL@@WJA@AGKXZ 1001f3e5 f i VoiceRecognition.obj
 0001:0001e3f2       ?Release@?$CComObject@VCOPOSVoiceRecognition@@@ATL@@WJE@AGKXZ 1001f3f2 f i VoiceRecognition.obj
 0001:0001e3ff       ?Release@?$CComObject@VCOPOSVoiceRecognition@@@ATL@@WJI@AGKXZ 1001f3ff f i VoiceRecognition.obj
 0001:0001e40c       ?Release@?$CComObject@VCOPOSVoiceRecognition@@@ATL@@WJM@AGKXZ 1001f40c f i VoiceRecognition.obj
 0001:0001e419       ?Release@?$CComObject@VCOPOSVoiceRecognition@@@ATL@@WKA@AGKXZ 1001f419 f i VoiceRecognition.obj
 0001:0001e426       ?Release@?$CComObject@VCOPOSVoiceRecognition@@@ATL@@WKI@AGKXZ 1001f426 f i VoiceRecognition.obj
 0001:0001e433       ?Release@?$CComObject@VCOPOSVoiceRecognition@@@ATL@@WLE@AGKXZ 1001f433 f i VoiceRecognition.obj
 0001:0001e440       ?Release@?$CComObjectCached@VCComClassFactory@ATL@@@ATL@@UAGKXZ 1001f440 f i VoiceRecognition.obj
 0001:0001e4e0       ?Release@?$CComPtrBase@UIAdviseSink@@@ATL@@QAEXXZ 1001f4e0 f i VoiceRecognition.obj
 0001:0001e540       ?Release@?$CComPtrBase@UIDispatch@@@ATL@@QAEXXZ 1001f540 f i VoiceRecognition.obj
 0001:0001e5a0       ?Release@?$CComPtrBase@UIOleInPlaceSiteWindowless@@@ATL@@QAEXXZ 1001f5a0 f i VoiceRecognition.obj
 0001:0001e600       ?Release@CRegObject@ATL@@UAGKXZ 1001f600 f i VoiceRecognition.obj
 0001:0001e640       ?Remove@CComDynamicUnkArray@ATL@@QAEHK@Z 1001f640 f i VoiceRecognition.obj
 0001:0001e6f0       ?RemoveAll@?$CSimpleMap@PA_WPA_WVCExpansionVectorEqualHelper@ATL@@@ATL@@QAEXXZ 1001f6f0 f i VoiceRecognition.obj
 0001:0001e780       ?Reset@?$CComEnumImpl@UIEnumConnectionPoints@@$1?_GUID_b196b285_bab4_101a_b69c_00aa00341d07@@3U__s_GUID@@BPAUIConnectionPoint@@V?$_CopyInterface@UIConnectionPoint@@@ATL@@@ATL@@UAGJXZ 1001f780 f i VoiceRecognition.obj
 0001:0001e7a0       ?Reset@?$CComEnumImpl@UIEnumConnections@@$1?_GUID_b196b287_bab4_101a_b69c_00aa00341d07@@3U__s_GUID@@BUtagCONNECTDATA@@V?$_Copy@UtagCONNECTDATA@@@ATL@@@ATL@@UAGJXZ 1001f7a0 f i VoiceRecognition.obj
 0001:0001e7c0       ?ResizeBorder@?$IOleInPlaceActiveObjectImpl@VCOPOSVoiceRecognition@@@ATL@@UAGJPBUtagRECT@@PAUIOleInPlaceUIWindow@@H@Z 1001f7c0 f i VoiceRecognition.obj
 0001:0001e820       ?ResourceRegister@CRegObject@ATL@@QAGJPB_WI0@Z 1001f820 f i VoiceRecognition.obj
 0001:0001e900       ?ResourceRegisterSz@CRegObject@ATL@@QAGJPB_W00@Z 1001f900 f i VoiceRecognition.obj
 0001:0001ea00       ?ResourceUnregister@CRegObject@ATL@@QAGJPB_WI0@Z 1001fa00 f i VoiceRecognition.obj
 0001:0001eae0       ?ResourceUnregisterSz@CRegObject@ATL@@QAGJPB_W00@Z 1001fae0 f i VoiceRecognition.obj
 0001:0001ebe0       ?SOData@COPOSVoiceRecognition@@MAGJJ@Z 1001fbe0 f i VoiceRecognition.obj
 0001:0001ec60       ?SODirectIO@COPOSVoiceRecognition@@MAGJJPAJPAPA_W@Z 1001fc60 f i VoiceRecognition.obj
 0001:0001ee20       ?SOError@COPOSVoiceRecognition@@MAGJJJJPAJ@Z 1001fe20 f i VoiceRecognition.obj
 0001:0001eee0       ?SOOutputCompleteDummy@COPOSVoiceRecognition@@MAGJJ@Z 1001fee0 f i VoiceRecognition.obj
 0001:0001eef0       ?SOStatusUpdate@COPOSVoiceRecognition@@MAGJJ@Z 1001fef0 f i VoiceRecognition.obj
 0001:0001ef70       ?Save@?$IPersistStorageImpl@VCOPOSVoiceRecognition@@@ATL@@UAGJPAUIStorage@@H@Z 1001ff70 f i VoiceRecognition.obj
 0001:0001f0d0       ?Save@?$IPersistStreamInitImpl@VCOPOSVoiceRecognition@@@ATL@@UAGJPAUIStream@@H@Z 100200d0 f i VoiceRecognition.obj
 0001:0001f160       ?SaveCompleted@?$IPersistStorageImpl@VCOPOSVoiceRecognition@@@ATL@@UAGJPAUIStorage@@@Z 10020160 f i VoiceRecognition.obj
 0001:0001f1c0       ?SendOnDataChange@CComControlBase@ATL@@QAEJK@Z 100201c0 f i VoiceRecognition.obj
 0001:0001f2b0       ?SendOnSave@CComControlBase@ATL@@QAEJXZ 100202b0 f i VoiceRecognition.obj
 0001:0001f320       ?SendOnViewChange@CComControlBase@ATL@@QAEJKJ@Z 10020320 f i VoiceRecognition.obj
 0001:0001f390       ?SetAdvise@?$IViewObjectExImpl@VCOPOSVoiceRecognition@@@ATL@@UAGJKKPAUIAdviseSink@@@Z 10020390 f i VoiceRecognition.obj
 0001:0001f420       ?SetClientSite@?$IOleObjectImpl@VCOPOSVoiceRecognition@@@ATL@@UAGJPAUIOleClientSite@@@Z 10020420 f i VoiceRecognition.obj
 0001:0001f4b0       ?SetColorScheme@?$IOleObjectImpl@VCOPOSVoiceRecognition@@@ATL@@UAGJPAUtagLOGPALETTE@@@Z 100204b0 f i VoiceRecognition.obj
 0001:0001f520       ?SetContentExtent@?$IQuickActivateImpl@VCOPOSVoiceRecognition@@@ATL@@UAGJPAUtagSIZE@@@Z 10020520 f i VoiceRecognition.obj
 0001:0001f5b0       ?SetControlFocus@CComControlBase@ATL@@QAEHH@Z 100205b0 f i VoiceRecognition.obj
 0001:0001f730       ?SetDWORDValue@CRegKey@ATL@@QAEJPB_WK@Z 10020730 f i VoiceRecognition.obj
 0001:0001f7b0       ?SetData@?$IDataObjectImpl@VCOPOSVoiceRecognition@@@ATL@@UAGJPAUtagFORMATETC@@PAUtagSTGMEDIUM@@H@Z 100207b0 f i VoiceRecognition.obj
 0001:0001f820       ?SetExtent@?$IOleObjectImpl@VCOPOSVoiceRecognition@@@ATL@@UAGJKPAUtagSIZE@@@Z 10020820 f i VoiceRecognition.obj
 0001:0001f8b0       ?SetHostNames@?$IOleObjectImpl@VCOPOSVoiceRecognition@@@ATL@@UAGJPB_W0@Z 100208b0 f i VoiceRecognition.obj
 0001:0001f910       ?SetInterfaceSafetyOptions@?$IObjectSafetyImpl@VCOPOSVoiceRecognition@@$02@ATL@@UAGJABU_GUID@@KK@Z 10020910 f i VoiceRecognition.obj
 0001:0001fa80       ?SetMoniker@?$IOleObjectImpl@VCOPOSVoiceRecognition@@@ATL@@UAGJKPAUIMoniker@@@Z 10020a80 f i VoiceRecognition.obj
 0001:0001faf0       ?SetMultiStringValue@CRegKey@ATL@@QAEJPB_W0@Z 10020af0 f i VoiceRecognition.obj
 0001:0001fc10       ?SetObjectRects@?$IOleInPlaceObjectWindowlessImpl@VCOPOSVoiceRecognition@@@ATL@@UAGJPBUtagRECT@@0@Z 10020c10 f i VoiceRecognition.obj
 0001:0001fca0       ?SetStringValue@CRegKey@ATL@@QAEJPB_W0K@Z 10020ca0 f i VoiceRecognition.obj
 0001:0001fdd0       ?SetVoid@CComClassFactory@ATL@@QAEXPAX@Z 10020dd0 f i VoiceRecognition.obj
 0001:0001fdf0       ?SetVoid@CComObjectRootBase@ATL@@QAEXPAX@Z 10020df0 f i VoiceRecognition.obj
 0001:0001fe10       ?SetWindowLongPtrW@@YAJPAUHWND__@@HJ@Z 10020e10 f i VoiceRecognition.obj
 0001:0001fe40       ?ShowWindow@CWindow@ATL@@QAEHH@Z 10020e40 f i VoiceRecognition.obj
 0001:0001fec0       ?Skip@?$CComEnumImpl@UIEnumConnectionPoints@@$1?_GUID_b196b285_bab4_101a_b69c_00aa00341d07@@3U__s_GUID@@BPAUIConnectionPoint@@V?$_CopyInterface@UIConnectionPoint@@@ATL@@@ATL@@UAGJK@Z 10020ec0 f i VoiceRecognition.obj
 0001:0001ff40       ?Skip@?$CComEnumImpl@UIEnumConnections@@$1?_GUID_b196b287_bab4_101a_b69c_00aa00341d07@@3U__s_GUID@@BUtagCONNECTDATA@@V?$_Copy@UtagCONNECTDATA@@@ATL@@@ATL@@UAGJK@Z 10020f40 f i VoiceRecognition.obj
 0001:0001ffc0       ?SkipAssignment@CRegParser@ATL@@IAEJPA_W@Z 10020fc0 f i VoiceRecognition.obj
 0001:000200a0       ?SkipWhiteSpace@CRegParser@ATL@@IAEXXZ 100210a0 f i VoiceRecognition.obj
 0001:000200f0       ?StartWindowProc@?$CWindowImplBaseT@VCWindow@ATL@@V?$CWinTraits@$0FGAAAAAA@$0A@@2@@ATL@@SGJPAUHWND__@@IIJ@Z 100210f0 f i VoiceRecognition.obj
 0001:00020210       ?StrChrW@CRegParser@ATL@@KAPA_WPA_W_W@Z 10021210 f i VoiceRecognition.obj
 0001:00020280       ?StrFromMap@CRegObject@ATL@@QAEPB_WPA_W@Z 10021280 f i VoiceRecognition.obj
 0001:00020310       ?Swap@?$CComPtrBase@UIAdviseSink@@@ATL@@IAEXAAV12@@Z 10021310 f i VoiceRecognition.obj
 0001:00020350       ?Swap@?$CComPtrBase@UIOleClientSite@@@ATL@@IAEXAAV12@@Z 10021350 f i VoiceRecognition.obj
 0001:00020390       ?Swap@?$CComPtrBase@UIUnknown@@@ATL@@IAEXAAV12@@Z 10021390 f i VoiceRecognition.obj
 0001:000203d0       ?T2COLE_EX@@YAPB_WPB_WI@Z  100213d0 f i VoiceRecognition.obj
 0001:000203e0       ?T2OLE_EX@@YAPA_WPA_WI@Z   100213e0 f i VoiceRecognition.obj
 0001:000203f0       ?Term@CAtlModule@ATL@@QAEXXZ 100213f0 f i VoiceRecognition.obj
 0001:000204a0       ?Term@CComModule@ATL@@QAEXXZ 100214a0 f i VoiceRecognition.obj
 0001:00020590       ?TranslateAcceleratorW@?$IOleInPlaceActiveObjectImpl@VCOPOSVoiceRecognition@@@ATL@@UAGJPAUtagMSG@@@Z 10021590 f i VoiceRecognition.obj
 0001:00020790       ?UIDeactivate@?$IOleInPlaceObjectWindowlessImpl@VCOPOSVoiceRecognition@@@ATL@@UAGJXZ 10021790 f i VoiceRecognition.obj
 0001:00020810       ?Unadvise@?$CProxy_IOPOSEvents@VCOPOSVoiceRecognition@@@@UAGJK@Z 10021810 f i VoiceRecognition.obj
 0001:00020850       ?Unadvise@?$IConnectionPointImpl@VCOPOSVoiceRecognition@@$1?DIID__IOPOSVoiceRecognitionEvents@@3U_GUID@@BVCComDynamicUnkArray@ATL@@@ATL@@UAGJK@Z 10021850 f i VoiceRecognition.obj
 0001:00020920       ?Unadvise@?$IConnectionPointImpl@VCOPOSVoiceRecognition@@$1?IID_IPropertyNotifySink@@3U_GUID@@BVCComDynamicUnkArray@ATL@@@ATL@@UAGJK@Z 10021920 f i VoiceRecognition.obj
 0001:000209f0       ?Unadvise@?$IOleObjectImpl@VCOPOSVoiceRecognition@@@ATL@@UAGJK@Z 100219f0 f i VoiceRecognition.obj
 0001:00020ac0       ?Unfreeze@?$IViewObjectExImpl@VCOPOSVoiceRecognition@@@ATL@@UAGJK@Z 10021ac0 f i VoiceRecognition.obj
 0001:00020b30       ?Unlock@?$CComCritSecLock@VCComCriticalSection@ATL@@@ATL@@QAEXXZ 10021b30 f i VoiceRecognition.obj
 0001:00020ba0       ?Unlock@?$CComObjectRootEx@VCComSingleThreadModel@ATL@@@ATL@@QAEXXZ 10021ba0 f i VoiceRecognition.obj
 0001:00020bc0       ?Unlock@CAtlModule@ATL@@UAEJXZ 10021bc0 f i VoiceRecognition.obj
 0001:00020bf0       ?Unlock@CComCriticalSection@ATL@@QAEJXZ 10021bf0 f i VoiceRecognition.obj
 0001:00020c30       ?Unlock@CComFakeCriticalSection@ATL@@QAEJXZ 10021c30 f i VoiceRecognition.obj
 0001:00020c50       ?UnregisterServer@?$CAtlModuleT@VCComModule@ATL@@@ATL@@QAEJHPBU_GUID@@@Z 10021c50 f i VoiceRecognition.obj
 0001:00020cc0       ?UnregisterServer@CAtlComModule@ATL@@QAEJHPBU_GUID@@@Z 10021cc0 f i VoiceRecognition.obj
 0001:00020cf0       ?UnregisterServer@CComModule@ATL@@QAEJHPBU_GUID@@@Z 10021cf0 f i VoiceRecognition.obj
 0001:00020dd0       ?Update@?$IOleObjectImpl@VCOPOSVoiceRecognition@@@ATL@@UAGJXZ 10021dd0 f i VoiceRecognition.obj
 0001:00020e30       ?UpdateRegistryFromResource@CAtlModule@ATL@@QAGJIHPAU_ATL_REGMAP_ENTRY@2@@Z 10021e30 f i VoiceRecognition.obj
 0001:00021300       ?UpdateRegistryFromResource@CAtlModule@ATL@@QAGJPB_WHPAU_ATL_REGMAP_ENTRY@2@@Z 10022300 f i VoiceRecognition.obj
 0001:000217f0       ?UpdateRegistryFromResource@CComModule@ATL@@UAGJIHPAU_ATL_REGMAP_ENTRY@2@@Z 100227f0 f i VoiceRecognition.obj
 0001:00021820       ?UpdateRegistryFromResource@CComModule@ATL@@UAGJPB_WHPAU_ATL_REGMAP_ENTRY@2@@Z 10022820 f i VoiceRecognition.obj
 0001:00021850       ?UpdateRegistryFromResourceD@CComModule@ATL@@UAGJIHPAU_ATL_REGMAP_ENTRY@2@@Z 10022850 f i VoiceRecognition.obj
 0001:00021860       ?UpdateRegistryFromResourceD@CComModule@ATL@@UAGJPB_WHPAU_ATL_REGMAP_ENTRY@2@@Z 10022860 f i VoiceRecognition.obj
 0001:00021870       ?VTFromRegType@CRegParser@ATL@@KAHPB_WAAG@Z 10022870 f i VoiceRecognition.obj
 0001:00021950       ?WindowProc@?$CWindowImplBaseT@VCWindow@ATL@@V?$CWinTraits@$0FGAAAAAA@$0A@@2@@ATL@@SGJPAUHWND__@@IIJ@Z 10022950 f i VoiceRecognition.obj
 0001:00021b60       ?WriteToStream@CComBSTR@ATL@@QAEJPAUIStream@@@Z 10022b60 f i VoiceRecognition.obj
 0001:00021cc0       ?WriteToStream@CComVariant@ATL@@QAEJPAUIStream@@@Z 10022cc0 f i VoiceRecognition.obj
 0001:00022000       ?WriteToStream@CComVariant@ATL@@QAEJPAUIStream@@G@Z 10023000 f i VoiceRecognition.obj
 0001:000220d0       ?_AtlFinalConstruct@CComObjectRootBase@ATL@@QAEJXZ 100230d0 f i VoiceRecognition.obj
 0001:000220f0       ?_AtlGetConversionACP@ATL@@YGIXZ 100230f0 f i VoiceRecognition.obj
 0001:00022100       ?_AtlInitialConstruct@?$CComAggObject@VCOPOSVoiceRecognition@@@ATL@@QAEJXZ 10023100 f i VoiceRecognition.obj
 0001:00022150       ?_AtlInitialConstruct@?$CComObjectRootEx@VCComMultiThreadModel@ATL@@@ATL@@QAEJXZ 10023150 f i VoiceRecognition.obj
 0001:00022180       ?_AtlInitialConstruct@?$CComObjectRootEx@VCComSingleThreadModel@ATL@@@ATL@@QAEJXZ 10023180 f i VoiceRecognition.obj
 0001:000221a0       ?_AtlVerifyStackAvailable@_ATL_SAFE_ALLOCA_IMPL@ATL@@YA_NK@Z 100231a0 f i VoiceRecognition.obj
 0001:00022350       ?_GetEntries@?$CComEnum@UIEnumConnectionPoints@@$1?_GUID_b196b285_bab4_101a_b69c_00aa00341d07@@3U__s_GUID@@BPAUIConnectionPoint@@V?$_CopyInterface@UIConnectionPoint@@@ATL@@VCComSingleThreadModel@6@@ATL@@SGPBU_ATL_INTMAP_ENTRY@2@XZ 10023350 f i VoiceRecognition.obj
 0001:00022370       ?_GetEntries@?$CComEnum@UIEnumConnections@@$1?_GUID_b196b287_bab4_101a_b69c_00aa00341d07@@3U__s_GUID@@BUtagCONNECTDATA@@V?$_Copy@UtagCONNECTDATA@@@ATL@@VCComSingleThreadModel@6@@ATL@@SGPBU_ATL_INTMAP_ENTRY@2@XZ 10023370 f i VoiceRecognition.obj
 0001:00022390       ?_GetEntries@CComClassFactory@ATL@@SGPBU_ATL_INTMAP_ENTRY@2@XZ 10023390 f i VoiceRecognition.obj
 0001:000223b0       ?_GetEntries@COPOSVoiceRecognition@@SGPBU_ATL_INTMAP_ENTRY@ATL@@XZ 100233b0 f i VoiceRecognition.obj
 0001:000223d0       ?_GetRawUnknown@COPOSVoiceRecognition@@QAEPAUIUnknown@@XZ 100233d0 f i VoiceRecognition.obj
 0001:00022440       ?_GetViewStatus@COPOSVoiceRecognition@@QAEKXZ 10023440 f i VoiceRecognition.obj
 0001:00022460       ?_InternalQueryInterface@?$CComEnum@UIEnumConnectionPoints@@$1?_GUID_b196b285_bab4_101a_b69c_00aa00341d07@@3U__s_GUID@@BPAUIConnectionPoint@@V?$_CopyInterface@UIConnectionPoint@@@ATL@@VCComSingleThreadModel@6@@ATL@@QAEJABU_GUID@@PAPAX@Z 10023460 f i VoiceRecognition.obj
 0001:000224a0       ?_InternalQueryInterface@?$CComEnum@UIEnumConnections@@$1?_GUID_b196b287_bab4_101a_b69c_00aa00341d07@@3U__s_GUID@@BUtagCONNECTDATA@@V?$_Copy@UtagCONNECTDATA@@@ATL@@VCComSingleThreadModel@6@@ATL@@QAEJABU_GUID@@PAPAX@Z 100234a0 f i VoiceRecognition.obj
 0001:000224e0       ?_InternalQueryInterface@CComClassFactory@ATL@@QAEJABU_GUID@@PAPAX@Z 100234e0 f i VoiceRecognition.obj
 0001:00022520       ?_InternalQueryInterface@COPOSVoiceRecognition@@QAEJABU_GUID@@PAPAX@Z 10023520 f i VoiceRecognition.obj
 0001:00022560       ?_LocCPQueryInterface@?$IConnectionPointImpl@VCOPOSVoiceRecognition@@$1?DIID__IOPOSVoiceRecognitionEvents@@3U_GUID@@BVCComDynamicUnkArray@ATL@@@ATL@@UAGJABU_GUID@@PAPAX@Z 10023560 f i VoiceRecognition.obj
 0001:00022600       ?_LocCPQueryInterface@?$IConnectionPointImpl@VCOPOSVoiceRecognition@@$1?IID_IPropertyNotifySink@@3U_GUID@@BVCComDynamicUnkArray@ATL@@@ATL@@UAGJABU_GUID@@PAPAX@Z 10023600 f i VoiceRecognition.obj
 0001:000226a0       ?atlCreate@?$CWindowImpl@VCOPOSVoiceRecognition@@VCWindow@ATL@@V?$CWinTraits@$0FGAAAAAA@$0A@@3@@ATL@@QAEPAUHWND__@@PAU3@V_U_RECT@2@PB_WKKV_U_MENUorID@2@PAX@Z 100236a0 f i VoiceRecognition.obj
 0001:00022750       ?atlCreate@?$CWindowImplBaseT@VCWindow@ATL@@V?$CWinTraits@$0FGAAAAAA@$0A@@2@@ATL@@QAEPAUHWND__@@PAU3@V_U_RECT@2@PB_WKKV_U_MENUorID@2@GPAX@Z 10023750 f i VoiceRecognition.obj
 0001:000228d0       ?atlCreate@CRegKey@ATL@@QAEJPAUHKEY__@@PB_WPA_WKKPAU_SECURITY_ATTRIBUTES@@PAK@Z 100238d0 f i VoiceRecognition.obj
 0001:00022a30       ?begin@CComDynamicUnkArray@ATL@@QAEPAPAUIUnknown@@XZ 10023a30 f i VoiceRecognition.obj
 0001:00022a50       ?copy@?$_Copy@UtagCONNECTDATA@@@ATL@@SAJPAUtagCONNECTDATA@@PBU3@@Z 10023a50 f i VoiceRecognition.obj
 0001:00022b10       ?copy@?$_CopyInterface@UIConnectionPoint@@@ATL@@SAJPAPAUIConnectionPoint@@PBQAU3@@Z 10023b10 f i VoiceRecognition.obj
 0001:00022bd0       ?destroy@?$_Copy@UtagCONNECTDATA@@@ATL@@SAXPAUtagCONNECTDATA@@@Z 10023bd0 f i VoiceRecognition.obj
 0001:00022c10       ?destroy@?$_CopyInterface@UIConnectionPoint@@@ATL@@SAXPAPAUIConnectionPoint@@@Z 10023c10 f i VoiceRecognition.obj
 0001:00022c50       ?end@CComDynamicUnkArray@ATL@@QAEPAPAUIUnknown@@XZ 10023c50 f i VoiceRecognition.obj
 0001:00022c70       ?init@?$_Copy@UtagCONNECTDATA@@@ATL@@SAXPAUtagCONNECTDATA@@@Z 10023c70 f i VoiceRecognition.obj
 0001:00022c80       ?init@?$_CopyInterface@UIConnectionPoint@@@ATL@@SAXPAPAUIConnectionPoint@@@Z 10023c80 f i VoiceRecognition.obj
 0001:00022c90       ?memcpy_s@Checked@ATL@@YAXPAXIPBXI@Z 10023c90 f i VoiceRecognition.obj
 0001:00022cc0       ?ocscpy_s@@YA_NPA_WIPB_W@Z 10023cc0 f i VoiceRecognition.obj
 0001:00022d20       ?ocslen@@YAHPB_W@Z         10023d20 f i VoiceRecognition.obj
 0001:00022d50       ?tcsncpy_s@Checked@ATL@@YAHPA_WIPB_WI@Z 10023d50 f i VoiceRecognition.obj
 0001:00022d80       ?wcscat_s@Checked@ATL@@YAXPA_WIPB_W@Z 10023d80 f i VoiceRecognition.obj
 0001:00022db0       ?wcscpy_s@Checked@ATL@@YAXPA_WIPB_W@Z 10023db0 f i VoiceRecognition.obj
 0001:00022de0       ?wcsncpy_s@Checked@ATL@@YAHPA_WIPB_WI@Z 10023de0 f i VoiceRecognition.obj
 0001:00022e10       ?wcsstr@@YAPA_WPA_WPB_W@Z  10023e10 f i VoiceRecognition.obj
 0001:00022e30       _InlineIsEqualGUID         10023e30 f i VoiceRecognition.obj
 0001:00022ed0       _IsEqualGUID               10023ed0 f i VoiceRecognition.obj
 0001:00022f20       ??0COPOSVoiceRecognition@@QAE@XZ 10023f20 f   VoiceRecognitionImpl.obj
 0001:00023030       ?FinalConstruct@COPOSVoiceRecognition@@QAEJXZ 10024030 f   VoiceRecognitionImpl.obj
 0001:00023100       ??1COPOSVoiceRecognition@@UAE@XZ 10024100 f   VoiceRecognitionImpl.obj
 0001:000231e0       ?WriteTrace@COPOSVoiceRecognition@@QAAXPB_WZZ 100241e0 f   VoiceRecognitionImpl.obj
 0001:00023290       ?WriteTraceString@COPOSVoiceRecognition@@QAEXPB_WPA_W@Z 10024290 f   VoiceRecognitionImpl.obj
 0001:00023600       ?WriteTraceString@COPOSVoiceRecognition@@QAAXPAXHHHPB_WZZ 10024600 f   VoiceRecognitionImpl.obj
 0001:00023830       ?WriteTraceError@COPOSVoiceRecognition@@QAEXPB_WK@Z 10024830 f   VoiceRecognitionImpl.obj
 0001:00023920       ?WriteTraceMethods@COPOSVoiceRecognition@@QAEXPAJH@Z 10024920 f   VoiceRecognitionImpl.obj
 0001:00023990       ?GetOposProp@COPOSVoiceRecognition@@IAEJPBDJPAJJ@Z 10024990 f   VoiceRecognitionImpl.obj
 0001:00023c00       ?SetOposProp@COPOSVoiceRecognition@@IAEJPBDJJJ@Z 10024c00 f   VoiceRecognitionImpl.obj
 0001:00023e90       ?GetOposProp@COPOSVoiceRecognition@@IAEJPBDJPAFJ@Z 10024e90 f   VoiceRecognitionImpl.obj
 0001:00023f30       ?SetOposProp@COPOSVoiceRecognition@@IAEJPBDJFJ@Z 10024f30 f   VoiceRecognitionImpl.obj
 0001:00023f90       ?GetOposProp@COPOSVoiceRecognition@@IAEJPBDJPAPA_WJ@Z 10024f90 f   VoiceRecognitionImpl.obj
 0001:00024210       ?SetOposProp@COPOSVoiceRecognition@@IAEJPBDJPA_WJ@Z 10025210 f   VoiceRecognitionImpl.obj
 0001:00024550       ?DoInvoke@COPOSVoiceRecognition@@IAEJPBDJPAVOposVariant@@IHPAJ_N@Z 10025550 f   VoiceRecognitionImpl.obj
 0001:00024e80       ?SetCOFreezeEvents@COPOSVoiceRecognition@@IAEXF@Z 10025e80 f   VoiceRecognitionImpl.obj
 0001:00024fc0       ?FreezeEvents@COPOSVoiceRecognition@@MAGJH@Z 10025fc0 f   VoiceRecognitionImpl.obj
 0001:000250a0       ?OnDraw@COPOSVoiceRecognition@@MAEJAAUATL_DRAWINFO@@@Z 100260a0 f   VoiceRecognitionImpl.obj
 0001:00025240       ?SOProcessID@COPOSVoiceRecognition@@UAGJPAJ@Z 10026240 f   VoiceRecognitionImpl.obj
 0001:00025280       ?get_OpenResult@COPOSVoiceRecognition@@UAGJPAJ@Z 10026280 f   VoiceRecognitionImpl.obj
 0001:000252c0       ?get_AutoDisable@COPOSVoiceRecognition@@UAGJPAF@Z 100262c0 f   VoiceRecognitionImpl.obj
 0001:000252f0       ?put_AutoDisable@COPOSVoiceRecognition@@UAGJF@Z 100262f0 f   VoiceRecognitionImpl.obj
 0001:00025320       ?get_BinaryConversion@COPOSVoiceRecognition@@UAGJPAJ@Z 10026320 f   VoiceRecognitionImpl.obj
 0001:00025350       ?put_BinaryConversion@COPOSVoiceRecognition@@UAGJJ@Z 10026350 f   VoiceRecognitionImpl.obj
 0001:00025380       ?get_CapPowerReporting@COPOSVoiceRecognition@@UAGJPAJ@Z 10026380 f   VoiceRecognitionImpl.obj
 0001:000253b0       ?get_CheckHealthText@COPOSVoiceRecognition@@UAGJPAPA_W@Z 100263b0 f   VoiceRecognitionImpl.obj
 0001:000253e0       ?get_Claimed@COPOSVoiceRecognition@@UAGJPAF@Z 100263e0 f   VoiceRecognitionImpl.obj
 0001:00025410       ?get_DataCount@COPOSVoiceRecognition@@UAGJPAJ@Z 10026410 f   VoiceRecognitionImpl.obj
 0001:00025440       ?get_DataEventEnabled@COPOSVoiceRecognition@@UAGJPAF@Z 10026440 f   VoiceRecognitionImpl.obj
 0001:00025470       ?put_DataEventEnabled@COPOSVoiceRecognition@@UAGJF@Z 10026470 f   VoiceRecognitionImpl.obj
 0001:000254a0       ?get_DeviceEnabled@COPOSVoiceRecognition@@UAGJPAF@Z 100264a0 f   VoiceRecognitionImpl.obj
 0001:000254d0       ?put_DeviceEnabled@COPOSVoiceRecognition@@UAGJF@Z 100264d0 f   VoiceRecognitionImpl.obj
 0001:00025500       ?get_FreezeEvents@COPOSVoiceRecognition@@UAGJPAF@Z 10026500 f   VoiceRecognitionImpl.obj
 0001:00025530       ?put_FreezeEvents@COPOSVoiceRecognition@@UAGJF@Z 10026530 f   VoiceRecognitionImpl.obj
 0001:000255c0       ?get_PowerNotify@COPOSVoiceRecognition@@UAGJPAJ@Z 100265c0 f   VoiceRecognitionImpl.obj
 0001:000255f0       ?put_PowerNotify@COPOSVoiceRecognition@@UAGJJ@Z 100265f0 f   VoiceRecognitionImpl.obj
 0001:00025620       ?get_PowerState@COPOSVoiceRecognition@@UAGJPAJ@Z 10026620 f   VoiceRecognitionImpl.obj
 0001:00025650       ?get_ResultCode@COPOSVoiceRecognition@@UAGJPAJ@Z 10026650 f   VoiceRecognitionImpl.obj
 0001:000256e0       ?get_ResultCodeExtended@COPOSVoiceRecognition@@UAGJPAJ@Z 100266e0 f   VoiceRecognitionImpl.obj
 0001:00025710       ?get_State@COPOSVoiceRecognition@@UAGJPAJ@Z 10026710 f   VoiceRecognitionImpl.obj
 0001:00025760       ?get_ControlObjectDescription@COPOSVoiceRecognition@@UAGJPAPA_W@Z 10026760 f   VoiceRecognitionImpl.obj
 0001:000257e0       ?get_ControlObjectVersion@COPOSVoiceRecognition@@UAGJPAJ@Z 100267e0 f   VoiceRecognitionImpl.obj
 0001:00025820       ?get_ServiceObjectDescription@COPOSVoiceRecognition@@UAGJPAPA_W@Z 10026820 f   VoiceRecognitionImpl.obj
 0001:00025850       ?get_ServiceObjectVersion@COPOSVoiceRecognition@@UAGJPAJ@Z 10026850 f   VoiceRecognitionImpl.obj
 0001:00025880       ?get_DeviceDescription@COPOSVoiceRecognition@@UAGJPAPA_W@Z 10026880 f   VoiceRecognitionImpl.obj
 0001:000258b0       ?get_DeviceName@COPOSVoiceRecognition@@UAGJPAPA_W@Z 100268b0 f   VoiceRecognitionImpl.obj
 0001:000258e0       ?get_CapStatisticsReporting@COPOSVoiceRecognition@@UAGJPAF@Z 100268e0 f   VoiceRecognitionImpl.obj
 0001:00025910       ?get_CapUpdateStatistics@COPOSVoiceRecognition@@UAGJPAF@Z 10026910 f   VoiceRecognitionImpl.obj
 0001:00025940       ?get_CapCompareFirmwareVersion@COPOSVoiceRecognition@@UAGJPAF@Z 10026940 f   VoiceRecognitionImpl.obj
 0001:00025970       ?get_CapUpdateFirmware@COPOSVoiceRecognition@@UAGJPAF@Z 10026970 f   VoiceRecognitionImpl.obj
 0001:000259a0       ?CheckHealth@COPOSVoiceRecognition@@UAGJJPAJ@Z 100269a0 f   VoiceRecognitionImpl.obj
 0001:00025a40       ?ClaimDevice@COPOSVoiceRecognition@@UAGJJPAJ@Z 10026a40 f   VoiceRecognitionImpl.obj
 0001:00025b20       ?ClearInput@COPOSVoiceRecognition@@UAGJPAJ@Z 10026b20 f   VoiceRecognitionImpl.obj
 0001:00025b50       ?Close@COPOSVoiceRecognition@@UAGJPAJ@Z 10026b50 f   VoiceRecognitionImpl.obj
 0001:00025c20       ?DirectIO@COPOSVoiceRecognition@@UAGJJPAJPAPA_W0@Z 10026c20 f   VoiceRecognitionImpl.obj
 0001:00025d30       ?Open@COPOSVoiceRecognition@@UAGJPA_WPAJ@Z 10026d30 f   VoiceRecognitionImpl.obj
 0001:00026f20       ?ReleaseDevice@COPOSVoiceRecognition@@UAGJPAJ@Z 10027f20 f   VoiceRecognitionImpl.obj
 0001:00026f90       ?ResetStatistics@COPOSVoiceRecognition@@UAGJPA_WPAJ@Z 10027f90 f   VoiceRecognitionImpl.obj
 0001:00027040       ?RetrieveStatistics@COPOSVoiceRecognition@@UAGJPAPA_WPAJ@Z 10028040 f   VoiceRecognitionImpl.obj
 0001:000270f0       ?UpdateStatistics@COPOSVoiceRecognition@@UAGJPA_WPAJ@Z 100280f0 f   VoiceRecognitionImpl.obj
 0001:000271a0       ?CompareFirmwareVersion@COPOSVoiceRecognition@@UAGJPA_WPAJ1@Z 100281a0 f   VoiceRecognitionImpl.obj
 0001:00027290       ?UpdateFirmware@COPOSVoiceRecognition@@UAGJPA_WPAJ@Z 10028290 f   VoiceRecognitionImpl.obj
 0001:00027340       ?ClearInputProperties@COPOSVoiceRecognition@@UAGJPAJ@Z 10028340 f   VoiceRecognitionImpl.obj
 0001:00027370       ?get_CapLanguage@COPOSVoiceRecognition@@UAGJPAF@Z 10028370 f   VoiceRecognitionImpl.obj
 0001:000273a0       ?get_HearingDataPattern@COPOSVoiceRecognition@@UAGJPAPA_W@Z 100283a0 f   VoiceRecognitionImpl.obj
 0001:000273d0       ?get_HearingDataWord@COPOSVoiceRecognition@@UAGJPAPA_W@Z 100283d0 f   VoiceRecognitionImpl.obj
 0001:00027400       ?get_HearingDataWordList@COPOSVoiceRecognition@@UAGJPAPA_W@Z 10028400 f   VoiceRecognitionImpl.obj
 0001:00027430       ?get_HearingResult@COPOSVoiceRecognition@@UAGJPAJ@Z 10028430 f   VoiceRecognitionImpl.obj
 0001:00027460       ?get_HearingStatus@COPOSVoiceRecognition@@UAGJPAJ@Z 10028460 f   VoiceRecognitionImpl.obj
 0001:00027490       ?get_LanguageList@COPOSVoiceRecognition@@UAGJPAPA_W@Z 10028490 f   VoiceRecognitionImpl.obj
 0001:000274c0       ?StartHearingFree@COPOSVoiceRecognition@@UAGJPA_WPAJ@Z 100284c0 f   VoiceRecognitionImpl.obj
 0001:00027570       ?StartHearingSentence@COPOSVoiceRecognition@@UAGJPA_W00PAJ@Z 10028570 f   VoiceRecognitionImpl.obj
 0001:00027690       ?StartHearingWord@COPOSVoiceRecognition@@UAGJPA_W0PAJ@Z 10028690 f   VoiceRecognitionImpl.obj
 0001:00027780       ?StartHearingYesNo@COPOSVoiceRecognition@@UAGJPA_WPAJ@Z 10028780 f   VoiceRecognitionImpl.obj
 0001:00027830       ?StopHearing@COPOSVoiceRecognition@@UAGJPAJ@Z 10028830 f   VoiceRecognitionImpl.obj
 0001:00027860       ??0?$CComControl@VCOPOSVoiceRecognition@@V?$CWindowImpl@VCOPOSVoiceRecognition@@VCWindow@ATL@@V?$CWinTraits@$0FGAAAAAA@$0A@@3@@ATL@@@ATL@@QAE@XZ 10028860 f i VoiceRecognitionImpl.obj
 0001:000278a0       ??0?$CComPtr@UIAdviseSink@@@ATL@@QAE@XZ 100288a0 f i VoiceRecognitionImpl.obj
 0001:000278d0       ??0?$CComPtr@UIDataAdviseHolder@@@ATL@@QAE@XZ 100288d0 f i VoiceRecognitionImpl.obj
 0001:00027900       ??0?$CComPtr@UIOleAdviseHolder@@@ATL@@QAE@XZ 10028900 f i VoiceRecognitionImpl.obj
 0001:00027930       ??0?$CComPtr@UIOleClientSite@@@ATL@@QAE@XZ 10028930 f i VoiceRecognitionImpl.obj
 0001:00027960       ??0?$CComPtr@UIOleInPlaceSiteWindowless@@@ATL@@QAE@XZ 10028960 f i VoiceRecognitionImpl.obj
 0001:00027990       ??0?$CComPtrBase@UIAdviseSink@@@ATL@@IAE@XZ 10028990 f i VoiceRecognitionImpl.obj
 0001:000279b0       ??0?$CComPtrBase@UIDataAdviseHolder@@@ATL@@IAE@XZ 100289b0 f i VoiceRecognitionImpl.obj
 0001:000279d0       ??0?$CComPtrBase@UIOleAdviseHolder@@@ATL@@IAE@XZ 100289d0 f i VoiceRecognitionImpl.obj
 0001:000279f0       ??0?$CComPtrBase@UIOleClientSite@@@ATL@@IAE@XZ 100289f0 f i VoiceRecognitionImpl.obj
 0001:00027a10       ??0?$CComPtrBase@UIOleInPlaceSiteWindowless@@@ATL@@IAE@XZ 10028a10 f i VoiceRecognitionImpl.obj
 0001:00027a30       ??0?$CComQIPtr@UIDispatch@@$1?_GUID_00020400_0000_0000_c000_000000000046@@3U__s_GUID@@B@ATL@@QAE@XZ 10028a30 f i VoiceRecognitionImpl.obj
 0001:00027a60       ??0?$CProxy_IOPOSEvents@VCOPOSVoiceRecognition@@@@QAE@PAVCOPOSVoiceRecognition@@@Z 10028a60 f i VoiceRecognitionImpl.obj
 0001:00027ad0       ??0?$CWindowImpl@VCOPOSVoiceRecognition@@VCWindow@ATL@@V?$CWinTraits@$0FGAAAAAA@$0A@@3@@ATL@@QAE@XZ 10028ad0 f i VoiceRecognitionImpl.obj
 0001:00027b00       ??0?$CWindowImplBaseT@VCWindow@ATL@@V?$CWinTraits@$0FGAAAAAA@$0A@@2@@ATL@@QAE@XZ 10028b00 f i VoiceRecognitionImpl.obj
 0001:00027b40       ??0?$CWindowImplRoot@VCWindow@ATL@@@ATL@@QAE@XZ 10028b40 f i VoiceRecognitionImpl.obj
 0001:00027ba0       ??0?$IConnectionPointContainerImpl@VCOPOSVoiceRecognition@@@ATL@@QAE@XZ 10028ba0 f i VoiceRecognitionImpl.obj
 0001:00027bd0       ??0?$IConnectionPointImpl@VCOPOSVoiceRecognition@@$1?DIID__IOPOSVoiceRecognitionEvents@@3U_GUID@@BVCComDynamicUnkArray@ATL@@@ATL@@QAE@XZ 10028bd0 f i VoiceRecognitionImpl.obj
 0001:00027c10       ??0?$IConnectionPointImpl@VCOPOSVoiceRecognition@@$1?IID_IPropertyNotifySink@@3U_GUID@@BVCComDynamicUnkArray@ATL@@@ATL@@QAE@XZ 10028c10 f i VoiceRecognitionImpl.obj
 0001:00027c50       ??0?$IDataObjectImpl@VCOPOSVoiceRecognition@@@ATL@@QAE@XZ 10028c50 f i VoiceRecognitionImpl.obj
 0001:00027c80       ??0?$IDispatchImpl@UIOPOSVoiceRecognition@@$1?IID_IOPOSVoiceRecognition@@3U_GUID@@B$1?LIBID_OposVoiceRecognition_CCO@@3U3@B$00$0A@VCComTypeInfoHolder@ATL@@@ATL@@QAE@XZ 10028c80 f i VoiceRecognitionImpl.obj
 0001:00027cb0       ??0?$IObjectSafetyImpl@VCOPOSVoiceRecognition@@$02@ATL@@QAE@XZ 10028cb0 f i VoiceRecognitionImpl.obj
 0001:00027cf0       ??0?$IOleControlImpl@VCOPOSVoiceRecognition@@@ATL@@QAE@XZ 10028cf0 f i VoiceRecognitionImpl.obj
 0001:00027d20       ??0?$IOleInPlaceActiveObjectImpl@VCOPOSVoiceRecognition@@@ATL@@QAE@XZ 10028d20 f i VoiceRecognitionImpl.obj
 0001:00027d50       ??0?$IOleInPlaceObjectWindowlessImpl@VCOPOSVoiceRecognition@@@ATL@@QAE@XZ 10028d50 f i VoiceRecognitionImpl.obj
 0001:00027d80       ??0?$IOleObjectImpl@VCOPOSVoiceRecognition@@@ATL@@QAE@XZ 10028d80 f i VoiceRecognitionImpl.obj
 0001:00027db0       ??0?$IPersistStorageImpl@VCOPOSVoiceRecognition@@@ATL@@QAE@XZ 10028db0 f i VoiceRecognitionImpl.obj
 0001:00027de0       ??0?$IPersistStreamInitImpl@VCOPOSVoiceRecognition@@@ATL@@QAE@XZ 10028de0 f i VoiceRecognitionImpl.obj
 0001:00027e10       ??0?$IPropertyNotifySinkCP@VCOPOSVoiceRecognition@@VCComDynamicUnkArray@ATL@@@ATL@@QAE@XZ 10028e10 f i VoiceRecognitionImpl.obj
 0001:00027e40       ??0?$IProvideClassInfo2Impl@$1?CLSID_OPOSVoiceRecognition@@3U_GUID@@B$1?DIID__IOPOSVoiceRecognitionEvents@@3U2@B$1?LIBID_OposVoiceRecognition_CCO@@3U2@B$00$0A@VCComTypeInfoHolder@ATL@@@ATL@@QAE@XZ 10028e40 f i VoiceRecognitionImpl.obj
 0001:00027e70       ??0?$IQuickActivateImpl@VCOPOSVoiceRecognition@@@ATL@@QAE@XZ 10028e70 f i VoiceRecognitionImpl.obj
 0001:00027ea0       ??0?$ISpecifyPropertyPagesImpl@VCOPOSVoiceRecognition@@@ATL@@QAE@XZ 10028ea0 f i VoiceRecognitionImpl.obj
 0001:00027ed0       ??0?$IViewObjectExImpl@VCOPOSVoiceRecognition@@@ATL@@QAE@XZ 10028ed0 f i VoiceRecognitionImpl.obj
 0001:00027f00       ??0?$_ICPLocator@$1?DIID__IOPOSVoiceRecognitionEvents@@3U_GUID@@B@ATL@@QAE@XZ 10028f00 f i VoiceRecognitionImpl.obj
 0001:00027f20       ??0?$_ICPLocator@$1?IID_IPropertyNotifySink@@3U_GUID@@B@ATL@@QAE@XZ 10028f20 f i VoiceRecognitionImpl.obj
 0001:00027f40       ??0CComControlBase@ATL@@QAE@AAPAUHWND__@@@Z 10028f40 f i VoiceRecognitionImpl.obj
 0001:000280f0       ??0CComDynamicUnkArray@ATL@@QAE@XZ 100290f0 f i VoiceRecognitionImpl.obj
 0001:00028120       ??0CDynamicStdCallThunk2@ATL@@QAE@XZ 10029120 f i VoiceRecognitionImpl.obj
 0001:00028140       ??0CMessageMap@ATL@@QAE@XZ 10029140 f i VoiceRecognitionImpl.obj
 0001:00028160       ??0CWindow@ATL@@QAE@PAUHWND__@@@Z 10029160 f i VoiceRecognitionImpl.obj
 0001:00028180       ??0CWndProcThunk@ATL@@QAE@XZ 10029180 f i VoiceRecognitionImpl.obj
 0001:000281b0       ??0IConnectionPointContainer@@QAE@XZ 100291b0 f i VoiceRecognitionImpl.obj
 0001:000281e0       ??0IDataObject@@QAE@XZ     100291e0 f i VoiceRecognitionImpl.obj
 0001:00028210       ??0IDispatch@@QAE@XZ       10029210 f i VoiceRecognitionImpl.obj
 0001:00028240       ??0IOPOSVoiceRecognition@@QAE@XZ 10029240 f i VoiceRecognitionImpl.obj
 0001:00028270       ??0IOPOSVoiceRecognition_1_16@@QAE@XZ 10029270 f i VoiceRecognitionImpl.obj
 0001:000282a0       ??0IObjectSafety@@QAE@XZ   100292a0 f i VoiceRecognitionImpl.obj
 0001:000282d0       ??0IOleControl@@QAE@XZ     100292d0 f i VoiceRecognitionImpl.obj
 0001:00028300       ??0IOleInPlaceActiveObject@@QAE@XZ 10029300 f i VoiceRecognitionImpl.obj
 0001:00028330       ??0IOleInPlaceObject@@QAE@XZ 10029330 f i VoiceRecognitionImpl.obj
 0001:00028360       ??0IOleInPlaceObjectWindowless@@QAE@XZ 10029360 f i VoiceRecognitionImpl.obj
 0001:00028390       ??0IOleObject@@QAE@XZ      10029390 f i VoiceRecognitionImpl.obj
 0001:000283c0       ??0IOleWindow@@QAE@XZ      100293c0 f i VoiceRecognitionImpl.obj
 0001:000283f0       ??0IPersist@@QAE@XZ        100293f0 f i VoiceRecognitionImpl.obj
 0001:00028420       ??0IPersistStorage@@QAE@XZ 10029420 f i VoiceRecognitionImpl.obj
 0001:00028450       ??0IPersistStreamInit@@QAE@XZ 10029450 f i VoiceRecognitionImpl.obj
 0001:00028480       ??0IProvideClassInfo2@@QAE@XZ 10029480 f i VoiceRecognitionImpl.obj
 0001:000284b0       ??0IProvideClassInfo@@QAE@XZ 100294b0 f i VoiceRecognitionImpl.obj
 0001:000284e0       ??0IQuickActivate@@QAE@XZ  100294e0 f i VoiceRecognitionImpl.obj
 0001:00028510       ??0ISpecifyPropertyPages@@QAE@XZ 10029510 f i VoiceRecognitionImpl.obj
 0001:00028540       ??0IViewObject2@@QAE@XZ    10029540 f i VoiceRecognitionImpl.obj
 0001:00028570       ??0IViewObject@@QAE@XZ     10029570 f i VoiceRecognitionImpl.obj
 0001:000285a0       ??0IViewObjectEx@@QAE@XZ   100295a0 f i VoiceRecognitionImpl.obj
 0001:000285d0       ??0OposVariantResult@@QAE@XZ 100295d0 f i VoiceRecognitionImpl.obj
 0001:00028600       ??0_CW@@QAE@PBD@Z          10029600 f i VoiceRecognitionImpl.obj
 0001:00028640       ??0_CW@@QAE@PB_W@Z         10029640 f i VoiceRecognitionImpl.obj
 0001:00028680       ??0_CWNCC@@QAE@PBD@Z       10029680 f i VoiceRecognitionImpl.obj
 0001:000286b0       ??1?$CComControl@VCOPOSVoiceRecognition@@V?$CWindowImpl@VCOPOSVoiceRecognition@@VCWindow@ATL@@V?$CWinTraits@$0FGAAAAAA@$0A@@3@@ATL@@@ATL@@UAE@XZ 100296b0 f i VoiceRecognitionImpl.obj
 0001:000286e0       ??1?$CComPtr@UIDataAdviseHolder@@@ATL@@QAE@XZ 100296e0 f i VoiceRecognitionImpl.obj
 0001:00028710       ??1?$CComPtr@UIOleAdviseHolder@@@ATL@@QAE@XZ 10029710 f i VoiceRecognitionImpl.obj
 0001:00028740       ??1?$CComPtr@UIOleInPlaceSiteWindowless@@@ATL@@QAE@XZ 10029740 f i VoiceRecognitionImpl.obj
 0001:00028770       ??1?$CComPtrBase@UIDataAdviseHolder@@@ATL@@QAE@XZ 10029770 f i VoiceRecognitionImpl.obj
 0001:000287c0       ??1?$CComPtrBase@UIOleAdviseHolder@@@ATL@@QAE@XZ 100297c0 f i VoiceRecognitionImpl.obj
 0001:00028810       ??1?$CComPtrBase@UIOleInPlaceSiteWindowless@@@ATL@@QAE@XZ 10029810 f i VoiceRecognitionImpl.obj
 0001:00028860       ??1?$CComQIPtr@UIDispatch@@$1?_GUID_00020400_0000_0000_c000_000000000046@@3U__s_GUID@@B@ATL@@QAE@XZ 10029860 f i VoiceRecognitionImpl.obj
 0001:00028890       ??1?$CProxy_IOPOSEvents@VCOPOSVoiceRecognition@@@@QAE@XZ 10029890 f i VoiceRecognitionImpl.obj
 0001:000288c0       ??1?$CWindowImpl@VCOPOSVoiceRecognition@@VCWindow@ATL@@V?$CWinTraits@$0FGAAAAAA@$0A@@3@@ATL@@UAE@XZ 100298c0 f i VoiceRecognitionImpl.obj
 0001:000288f0       ??1?$CWindowImplBaseT@VCWindow@ATL@@V?$CWinTraits@$0FGAAAAAA@$0A@@2@@ATL@@UAE@XZ 100298f0 f i VoiceRecognitionImpl.obj
 0001:00028920       ??1?$CWindowImplRoot@VCWindow@ATL@@@ATL@@UAE@XZ 10029920 f i VoiceRecognitionImpl.obj
 0001:000289c0       ??1?$IConnectionPointImpl@VCOPOSVoiceRecognition@@$1?DIID__IOPOSVoiceRecognitionEvents@@3U_GUID@@BVCComDynamicUnkArray@ATL@@@ATL@@QAE@XZ 100299c0 f i VoiceRecognitionImpl.obj
 0001:00028a40       ??1?$IConnectionPointImpl@VCOPOSVoiceRecognition@@$1?IID_IPropertyNotifySink@@3U_GUID@@BVCComDynamicUnkArray@ATL@@@ATL@@QAE@XZ 10029a40 f i VoiceRecognitionImpl.obj
 0001:00028ac0       ??1?$IPropertyNotifySinkCP@VCOPOSVoiceRecognition@@VCComDynamicUnkArray@ATL@@@ATL@@QAE@XZ 10029ac0 f i VoiceRecognitionImpl.obj
 0001:00028af0       ??1CComControlBase@ATL@@UAE@XZ 10029af0 f i VoiceRecognitionImpl.obj
 0001:00028bb0       ??1CComDynamicUnkArray@ATL@@QAE@XZ 10029bb0 f i VoiceRecognitionImpl.obj
 0001:00028bf0       ??1CDynamicStdCallThunk2@ATL@@QAE@XZ 10029bf0 f i VoiceRecognitionImpl.obj
 0001:00028c20       ??1CWndProcThunk@ATL@@QAE@XZ 10029c20 f i VoiceRecognitionImpl.obj
 0001:00028c50       ??1OposVariantResult@@QAE@XZ 10029c50 f i VoiceRecognitionImpl.obj
 0001:00028c80       ??1_CW@@QAE@XZ             10029c80 f i VoiceRecognitionImpl.obj
 0001:00028cf0       ??1_CWNCC@@QAE@XZ          10029cf0 f i VoiceRecognitionImpl.obj
 0001:00028d20       ??B_CW@@QAEPB_WXZ          10029d20 f i VoiceRecognitionImpl.obj
 0001:00028d60       ??B_CWNCC@@QAEPA_WXZ       10029d60 f i VoiceRecognitionImpl.obj
 0001:00028d90       ??_EOposVariant@@QAEPAXI@Z 10029d90 f i VoiceRecognitionImpl.obj
 0001:00028e20       ?EventClaim@COPOSVoiceRecognition@@IAEXXZ 10029e20 f i VoiceRecognitionImpl.obj
 0001:00028e60       ?EventClose@COPOSVoiceRecognition@@IAEXXZ 10029e60 f i VoiceRecognitionImpl.obj
 0001:00028f00       ?EventInit@COPOSVoiceRecognition@@IAEJXZ 10029f00 f i VoiceRecognitionImpl.obj
 0001:00029130       ?EventOpen@COPOSVoiceRecognition@@IAEXXZ 1002a130 f i VoiceRecognitionImpl.obj
 0001:00029170       ?EventPreCloseRelease@COPOSVoiceRecognition@@IAEXXZ 1002a170 f i VoiceRecognitionImpl.obj
 0001:000291f0       ?EventUninit@COPOSVoiceRecognition@@IAEXXZ 1002a1f0 f i VoiceRecognitionImpl.obj
 0001:00029320       ?EventWindowProc@COPOSVoiceRecognition@@IAGJIIJ@Z 1002a320 f i VoiceRecognitionImpl.obj
 0001:000294b0       ?FireEventCleanup@COPOSVoiceRecognition@@IAEXXZ 1002a4b0 f i VoiceRecognitionImpl.obj
 0001:00029500       ?FireEventSetup@COPOSVoiceRecognition@@IAE_NXZ 1002a500 f i VoiceRecognitionImpl.obj
 0001:00029570       ?GetModuleInstance@CComModule@ATL@@QAEPAUHINSTANCE__@@XZ 1002a570 f i VoiceRecognitionImpl.obj
 0001:00029590       ?SetRC@COPOSVoiceRecognition@@IAEJJ@Z 1002a590 f i VoiceRecognitionImpl.obj
 0001:000295c0       ?s_EventWindowProc@COPOSVoiceRecognition@@KGJPAUHWND__@@IIJ@Z 1002a5c0 f i VoiceRecognitionImpl.obj
 0001:00029660       __snwprintf                1002a660 f i VoiceRecognitionImpl.obj
 0001:000296c0       __vfwprintf_l              1002a6c0 f i VoiceRecognitionImpl.obj
 0001:000296f0       __vsnwprintf               1002a6f0 f i VoiceRecognitionImpl.obj
 0001:00029720       __vsnwprintf_l             1002a720 f i VoiceRecognitionImpl.obj
 0001:00029790       _vfwprintf                 1002a790 f i VoiceRecognitionImpl.obj
 0001:000297b2       _DebugBreak@0              1002a7b2 f   kernel32:KERNEL32.dll
 0001:000297b8       _Sleep@4                   1002a7b8 f   kernel32:KERNEL32.dll
 0001:000297be       _GetCurrentProcess@0       1002a7be f   kernel32:KERNEL32.dll
 0001:000297c4       _TerminateProcess@8        1002a7c4 f   kernel32:KERNEL32.dll
 0001:000297ca       _MultiByteToWideChar@24    1002a7ca f   kernel32:KERNEL32.dll
 0001:000297d0       _WideCharToMultiByte@32    1002a7d0 f   kernel32:KERNEL32.dll
 0001:000297d6       _DecodePointer@4           1002a7d6 f   kernel32:KERNEL32.dll
 0001:000297dc       _RaiseException@16         1002a7dc f   kernel32:KERNEL32.dll
 0001:000297e2       _GetLastError@0            1002a7e2 f   kernel32:KERNEL32.dll
 0001:000297e8       _SetLastError@4            1002a7e8 f   kernel32:KERNEL32.dll
 0001:000297ee       _InitializeCriticalSectionEx@12 1002a7ee f   kernel32:KERNEL32.dll
 0001:000297f4       _DeleteCriticalSection@4   1002a7f4 f   kernel32:KERNEL32.dll
 0001:000297fa       _EncodePointer@4           1002a7fa f   kernel32:KERNEL32.dll
 0001:00029800       _EnterCriticalSection@4    1002a800 f   kernel32:KERNEL32.dll
 0001:00029806       _LeaveCriticalSection@4    1002a806 f   kernel32:KERNEL32.dll
 0001:0002980c       _ResetEvent@4              1002a80c f   kernel32:KERNEL32.dll
 0001:00029812       _ReleaseMutex@4            1002a812 f   kernel32:KERNEL32.dll
 0001:00029818       _WaitForSingleObject@8     1002a818 f   kernel32:KERNEL32.dll
 0001:0002981e       _GetCurrentThreadId@0      1002a81e f   kernel32:KERNEL32.dll
 0001:00029824       _DisableThreadLibraryCalls@4 1002a824 f   kernel32:KERNEL32.dll
 0001:0002982a       _FreeLibrary@4             1002a82a f   kernel32:KERNEL32.dll
 0001:00029830       _GetModuleFileNameW@12     1002a830 f   kernel32:KERNEL32.dll
 0001:00029836       _GetModuleHandleW@4        1002a836 f   kernel32:KERNEL32.dll
 0001:0002983c       _GetProcAddress@8          1002a83c f   kernel32:KERNEL32.dll
 0001:00029842       _LoadLibraryExW@12         1002a842 f   kernel32:KERNEL32.dll
 0001:00029848       _LoadResource@8            1002a848 f   kernel32:KERNEL32.dll
 0001:0002984e       _SizeofResource@8          1002a84e f   kernel32:KERNEL32.dll
 0001:00029854       _FindResourceW@12          1002a854 f   kernel32:KERNEL32.dll
 0001:0002985a       _GlobalAlloc@8             1002a85a f   kernel32:KERNEL32.dll
 0001:00029860       _GlobalUnlock@4            1002a860 f   kernel32:KERNEL32.dll
 0001:00029866       _GlobalLock@4              1002a866 f   kernel32:KERNEL32.dll
 0001:0002986c       _MulDiv@12                 1002a86c f   kernel32:KERNEL32.dll
 0001:00029872       _lstrcmpiW@8               1002a872 f   kernel32:KERNEL32.dll
 0001:00029878       _DeleteFileW@4             1002a878 f   kernel32:KERNEL32.dll
 0001:0002987e       _CloseHandle@4             1002a87e f   kernel32:KERNEL32.dll
 0001:00029884       _SetEvent@4                1002a884 f   kernel32:KERNEL32.dll
 0001:0002988a       _CreateMutexW@12           1002a88a f   kernel32:KERNEL32.dll
 0001:00029890       _CreateEventW@16           1002a890 f   kernel32:KERNEL32.dll
 0001:00029896       _GetCurrentProcessId@0     1002a896 f   kernel32:KERNEL32.dll
 0001:0002989c       _LocalFree@4               1002a89c f   kernel32:KERNEL32.dll
 0001:000298a2       _FormatMessageW@28         1002a8a2 f   kernel32:KERNEL32.dll
 0001:000298a8       _GetActiveWindow@0         1002a8a8 f   user32:USER32.dll
 0001:000298ae       _MessageBoxW@16            1002a8ae f   user32:USER32.dll
 0001:000298b4       _UnregisterClassW@8        1002a8b4 f   user32:USER32.dll
 0001:000298ba       _PostMessageW@16           1002a8ba f   user32:USER32.dll
 0001:000298c0       _DefWindowProcW@16         1002a8c0 f   user32:USER32.dll
 0001:000298c6       _CallWindowProcW@20        1002a8c6 f   user32:USER32.dll
 0001:000298cc       _RegisterClassExW@4        1002a8cc f   user32:USER32.dll
 0001:000298d2       _GetClassInfoExW@12        1002a8d2 f   user32:USER32.dll
 0001:000298d8       _CreateWindowExW@48        1002a8d8 f   user32:USER32.dll
 0001:000298de       _IsWindow@4                1002a8de f   user32:USER32.dll
 0001:000298e4       _IsChild@8                 1002a8e4 f   user32:USER32.dll
 0001:000298ea       _DestroyWindow@4           1002a8ea f   user32:USER32.dll
 0001:000298f0       _ShowWindow@8              1002a8f0 f   user32:USER32.dll
 0001:000298f6       _SetWindowPos@28           1002a8f6 f   user32:USER32.dll
 0001:000298fc       _CharNextW@4               1002a8fc f   user32:USER32.dll
 0001:00029902       _SetFocus@4                1002a902 f   user32:USER32.dll
 0001:00029908       _GetFocus@0                1002a908 f   user32:USER32.dll
 0001:0002990e       _GetKeyState@4             1002a90e f   user32:USER32.dll
 0001:00029914       _GetDC@4                   1002a914 f   user32:USER32.dll
 0001:0002991a       _ReleaseDC@8               1002a91a f   user32:USER32.dll
 0001:00029920       _BeginPaint@8              1002a920 f   user32:USER32.dll
 0001:00029926       _EndPaint@8                1002a926 f   user32:USER32.dll
 0001:0002992c       _SetWindowRgn@12           1002a92c f   user32:USER32.dll
 0001:00029932       _InvalidateRect@12         1002a932 f   user32:USER32.dll
 0001:00029938       _GetClientRect@8           1002a938 f   user32:USER32.dll
 0001:0002993e       _IntersectRect@12          1002a93e f   user32:USER32.dll
 0001:00029944       _UnionRect@12              1002a944 f   user32:USER32.dll
 0001:0002994a       _OffsetRect@12             1002a94a f   user32:USER32.dll
 0001:00029950       _EqualRect@8               1002a950 f   user32:USER32.dll
 0001:00029956       _PtInRect@12               1002a956 f   user32:USER32.dll
 0001:0002995c       _GetWindowLongW@8          1002a95c f   user32:USER32.dll
 0001:00029962       _SetWindowLongW@12         1002a962 f   user32:USER32.dll
 0001:00029968       _GetParent@4               1002a968 f   user32:USER32.dll
 0001:0002996e       _LoadCursorW@8             1002a96e f   user32:USER32.dll
 0001:00029974       _PeekMessageW@20           1002a974 f   user32:USER32.dll
 0001:0002997a       _RegisterClassW@4          1002a97a f   user32:USER32.dll
 0001:00029980       _LoadBitmapW@8             1002a980 f   user32:USER32.dll
 0001:00029986       _CloseMetaFile@4           1002a986 f   gdi32:GDI32.dll
 0001:0002998c       _CreateDCW@16              1002a98c f   gdi32:GDI32.dll
 0001:00029992       _CreateMetaFileW@4         1002a992 f   gdi32:GDI32.dll
 0001:00029998       _CreateRectRgnIndirect@4   1002a998 f   gdi32:GDI32.dll
 0001:0002999e       _DeleteDC@4                1002a99e f   gdi32:GDI32.dll
 0001:000299a4       _DeleteMetaFile@4          1002a9a4 f   gdi32:GDI32.dll
 0001:000299aa       _GetDeviceCaps@8           1002a9aa f   gdi32:GDI32.dll
 0001:000299b0       _RestoreDC@8               1002a9b0 f   gdi32:GDI32.dll
 0001:000299b6       _SaveDC@4                  1002a9b6 f   gdi32:GDI32.dll
 0001:000299bc       _SetMapMode@8              1002a9bc f   gdi32:GDI32.dll
 0001:000299c2       _LPtoDP@12                 1002a9c2 f   gdi32:GDI32.dll
 0001:000299c8       _SetViewportOrgEx@16       1002a9c8 f   gdi32:GDI32.dll
 0001:000299ce       _SetWindowExtEx@16         1002a9ce f   gdi32:GDI32.dll
 0001:000299d4       _SetWindowOrgEx@16         1002a9d4 f   gdi32:GDI32.dll
 0001:000299da       _BitBlt@36                 1002a9da f   gdi32:GDI32.dll
 0001:000299e0       _CreateCompatibleDC@4      1002a9e0 f   gdi32:GDI32.dll
 0001:000299e6       _DeleteObject@4            1002a9e6 f   gdi32:GDI32.dll
 0001:000299ec       _SelectObject@8            1002a9ec f   gdi32:GDI32.dll
 0001:000299f2       _GetObjectW@12             1002a9f2 f   gdi32:GDI32.dll
 0001:000299f8       _RegCloseKey@4             1002a9f8 f   advapi32:ADVAPI32.dll
 0001:000299fe       _RegCreateKeyExW@36        1002a9fe f   advapi32:ADVAPI32.dll
 0001:00029a04       _RegDeleteKeyW@8           1002aa04 f   advapi32:ADVAPI32.dll
 0001:00029a0a       _RegDeleteValueW@8         1002aa0a f   advapi32:ADVAPI32.dll
 0001:00029a10       _RegEnumKeyExW@32          1002aa10 f   advapi32:ADVAPI32.dll
 0001:00029a16       _RegOpenKeyExW@20          1002aa16 f   advapi32:ADVAPI32.dll
 0001:00029a1c       _RegQueryInfoKeyW@48       1002aa1c f   advapi32:ADVAPI32.dll
 0001:00029a22       _RegSetValueExW@24         1002aa22 f   advapi32:ADVAPI32.dll
 0001:00029a28       _RegQueryValueExW@24       1002aa28 f   advapi32:ADVAPI32.dll
 0001:00029a2e       _CoCreateInstance@20       1002aa2e f   ole32:ole32.dll
 0001:00029a34       _StringFromGUID2@12        1002aa34 f   ole32:ole32.dll
 0001:00029a3a       _CoTaskMemAlloc@4          1002aa3a f   ole32:ole32.dll
 0001:00029a40       _CoTaskMemRealloc@8        1002aa40 f   ole32:ole32.dll
 0001:00029a46       _CoTaskMemFree@4           1002aa46 f   ole32:ole32.dll
 0001:00029a4c       _ReadClassStm@8            1002aa4c f   ole32:ole32.dll
 0001:00029a52       _WriteClassStm@8           1002aa52 f   ole32:ole32.dll
 0001:00029a58       _CreateDataAdviseHolder@4  1002aa58 f   ole32:ole32.dll
 0001:00029a5e       _OleSaveToStream@8         1002aa5e f   ole32:ole32.dll
 0001:00029a64       _CreateOleAdviseHolder@4   1002aa64 f   ole32:ole32.dll
 0001:00029a6a       _OleRegGetUserType@12      1002aa6a f   ole32:ole32.dll
 0001:00029a70       _OleRegGetMiscStatus@12    1002aa70 f   ole32:ole32.dll
 0001:00029a76       _OleRegEnumVerbs@8         1002aa76 f   ole32:ole32.dll
 0001:00029a7c       _CLSIDFromProgID@8         1002aa7c f   ole32:ole32.dll
 0001:00029a82       _SysAllocString@4          1002aa82 f   oleaut32:OLEAUT32.dll
 0001:00029a88       _SysAllocStringLen@8       1002aa88 f   oleaut32:OLEAUT32.dll
 0001:00029a8e       _SysFreeString@4           1002aa8e f   oleaut32:OLEAUT32.dll
 0001:00029a94       _SysStringLen@4            1002aa94 f   oleaut32:OLEAUT32.dll
 0001:00029a9a       _VariantClear@4            1002aa9a f   oleaut32:OLEAUT32.dll
 0001:00029aa0       _VariantCopyInd@8          1002aaa0 f   oleaut32:OLEAUT32.dll
 0001:00029aa6       _VariantChangeType@16      1002aaa6 f   oleaut32:OLEAUT32.dll
 0001:00029aac       _SysStringByteLen@4        1002aaac f   oleaut32:OLEAUT32.dll
 0001:00029ab2       _SysAllocStringByteLen@8   1002aab2 f   oleaut32:OLEAUT32.dll
 0001:00029ab8       _VariantInit@4             1002aab8 f   oleaut32:OLEAUT32.dll
 0001:00029abe       _VarUI4FromStr@16          1002aabe f   oleaut32:OLEAUT32.dll
 0001:00029ac4       _LoadTypeLib@8             1002aac4 f   oleaut32:OLEAUT32.dll
 0001:00029aca       _LoadRegTypeLib@20         1002aaca f   oleaut32:OLEAUT32.dll
 0001:00029ad0       _RegisterTypeLib@12        1002aad0 f   oleaut32:OLEAUT32.dll
 0001:00029ad6       _UnRegisterTypeLib@20      1002aad6 f   oleaut32:OLEAUT32.dll
 0001:00029adc       _OleCreatePropertyFrame@44 1002aadc f   oleaut32:OLEAUT32.dll
 0001:00029af0       @_RTC_AllocaHelper@12      1002aaf0 f   LIBCMTD:stack.obj
 0001:00029b30       @_RTC_CheckStackVars2@12   1002ab30 f   LIBCMTD:stack.obj
 0001:00029c10       @_RTC_CheckStackVars@8     1002ac10 f   LIBCMTD:stack.obj
 0001:00029c70       __RTC_CheckEsp             1002ac70 f   LIBCMTD:stack.obj
 0001:00029cb0       @__security_check_cookie@4 1002acb0 f   LIBCMTD:secchk.obj
 0001:00029cd0       __CRT_RTC_INIT             1002acd0 f   LIBCMTD:init.obj
 0001:00029ce0       __CRT_RTC_INITW            1002ace0 f   LIBCMTD:init.obj
 0001:00029cf0       __RTC_InitBase             1002acf0 f   LIBCMTD:init.obj
 0001:00029d20       __RTC_Shutdown             1002ad20 f   LIBCMTD:init.obj
 0001:00029d40       ??_U@YAPAXI@Z              1002ad40 f   LIBCMTD:new_array.obj
 0001:00029d60       ??3@YAXPAXI@Z              1002ad60 f   LIBCMTD:delete_scalar_size.obj
 0001:00029d80       ??_V@YAXPAX@Z              1002ad80 f   LIBCMTD:delete_array.obj
 0001:00029da0       ??_V@YAXPAXI@Z             1002ada0 f   LIBCMTD:delete_array_size.obj
 0001:00029dc0       ?configure_argv@__scrt_narrow_argv_policy@@SAHXZ 1002adc0 f i LIBCMTD:utility.obj
 0001:00029e70       ?initialize_environment@__scrt_narrow_environment_policy@@SAHXZ 1002ae70 f i LIBCMTD:utility.obj
 0001:00029ef0       _NtCurrentTeb              1002aef0 f i LIBCMTD:utility.obj
 0001:00029f00       ___scrt_acquire_startup_lock 1002af00 f   LIBCMTD:utility.obj
 0001:00029f50       ___scrt_dllmain_after_initialize_c 1002af50 f   LIBCMTD:utility.obj
 0001:00029f80       ___scrt_dllmain_before_initialize_c 1002af80 f   LIBCMTD:utility.obj
 0001:00029fa0       ___scrt_dllmain_crt_thread_attach 1002afa0 f   LIBCMTD:utility.obj
 0001:00029fd0       ___scrt_dllmain_crt_thread_detach 1002afd0 f   LIBCMTD:utility.obj
 0001:00029ff0       ___scrt_dllmain_exception_filter 1002aff0 f   LIBCMTD:utility.obj
 0001:0002a040       ___scrt_dllmain_uninitialize_c 1002b040 f   LIBCMTD:utility.obj
 0001:0002a070       ___scrt_dllmain_uninitialize_critical 1002b070 f   LIBCMTD:utility.obj
 0001:0002a090       ___scrt_initialize_crt     1002b090 f   LIBCMTD:utility.obj
 0001:0002a0e0       ___scrt_initialize_onexit_tables 1002b0e0 f   LIBCMTD:utility.obj
 0001:0002a1c0       ___scrt_is_nonwritable_in_current_image 1002b1c0 f   LIBCMTD:utility.obj
 0001:0002a2f0       ___scrt_release_startup_lock 1002b2f0 f   LIBCMTD:utility.obj
 0001:0002a320       ___scrt_uninitialize_crt   1002b320 f   LIBCMTD:utility.obj
 0001:0002a360       __onexit                   1002b360 f   LIBCMTD:utility.obj
 0001:0002a3d0       _at_quick_exit             1002b3d0 f   LIBCMTD:utility.obj
 0001:0002a410       _atexit                    1002b410 f   LIBCMTD:utility.obj
 0001:0002a440       ??3@YAXPAX@Z               1002b440 f   LIBCMTD:delete_scalar.obj
 0001:0002a460       ___raise_securityfailure   1002b460 f   LIBCMTD:gs_report.obj
 0001:0002a490       ___report_gsfailure        1002b490 f   LIBCMTD:gs_report.obj
 0001:0002a5a0       ___report_rangecheckfailure 1002b5a0 f   LIBCMTD:gs_report.obj
 0001:0002a5b0       ___report_securityfailure  1002b5b0 f   LIBCMTD:gs_report.obj
 0001:0002a690       ___report_securityfailureEx 1002b690 f   LIBCMTD:gs_report.obj
 0001:0002a8e0       __Init_thread_abort        1002b8e0 f   LIBCMTD:thread_safe_statics.obj
 0001:0002a900       __Init_thread_footer       1002b900 f   LIBCMTD:thread_safe_statics.obj
 0001:0002a950       __Init_thread_header       1002b950 f   LIBCMTD:thread_safe_statics.obj
 0001:0002a9c0       __Init_thread_lock         1002b9c0 f   LIBCMTD:thread_safe_statics.obj
 0001:0002a9d0       __Init_thread_notify       1002b9d0 f   LIBCMTD:thread_safe_statics.obj
 0001:0002aa20       __Init_thread_unlock       1002ba20 f   LIBCMTD:thread_safe_statics.obj
 0001:0002aa30       __Init_thread_wait         1002ba30 f   LIBCMTD:thread_safe_statics.obj
 0001:0002aac0       ??2@YAPAXIABUnothrow_t@std@@@Z 1002bac0 f   LIBCMTD:new_scalar_nothrow.obj
 0001:0002ab50       ??_U@YAPAXIABUnothrow_t@std@@@Z 1002bb50 f   LIBCMTD:new_array_nothrow.obj
 0001:0002ab70       __allmul                   1002bb70 f   LIBCMTD:llmul.obj
 0001:0002abb0       __alloca_probe_16          1002bbb0 f   LIBCMTD:alloca16.obj
 0001:0002abc6       __alloca_probe_8           1002bbc6     LIBCMTD:alloca16.obj
 0001:0002abe0       __alloca_probe             1002bbe0 f   LIBCMTD:chkstk.obj
 0001:0002abe0       __chkstk                   1002bbe0 f   LIBCMTD:chkstk.obj
 0001:0002b0e0       __CRT_INIT@12              1002c0e0 f   LIBCMTD:dll_dllmain.obj
 0001:0002b100       __DllMainCRTStartup@12     1002c100 f   LIBCMTD:dll_dllmain.obj
 0001:0002b1c0       ?_RTC_AllocaFailure@@YAXPAXPAU_RTC_ALLOCA_NODE@@H@Z 1002c1c0 f   LIBCMTD:error.obj
 0001:0002b2b0       ?_RTC_Failure@@YAXPAXH@Z   1002c2b0 f   LIBCMTD:error.obj
 0001:0002b300       ?_RTC_StackFailure@@YAXPAXPBD@Z 1002c300 f   LIBCMTD:error.obj
 0001:0002b6c0       __RTC_UninitUse            1002c6c0 f   LIBCMTD:error.obj
 0001:0002b770       __vsprintf_s_l             1002c770 f i LIBCMTD:error.obj
 0001:0002b7a0       _sprintf_s                 1002c7a0 f i LIBCMTD:error.obj
 0001:0002b7c0       ?_RTC_GetErrorFunc@@YAP6AHHPBDH00ZZPBX@Z 1002c7c0 f   LIBCMTD:userapi.obj
 0001:0002b7d0       ?_RTC_GetErrorFuncW@@YAP6AHHPB_WH00ZZPBX@Z 1002c7d0 f   LIBCMTD:userapi.obj
 0001:0002b7e0       __RTC_GetErrDesc           1002c7e0 f   LIBCMTD:userapi.obj
 0001:0002b800       __RTC_NumErrors            1002c800 f   LIBCMTD:userapi.obj
 0001:0002b810       __RTC_SetErrorFunc         1002c810 f   LIBCMTD:userapi.obj
 0001:0002b830       __RTC_SetErrorFuncW        1002c830 f   LIBCMTD:userapi.obj
 0001:0002b850       __RTC_SetErrorType         1002c850 f   LIBCMTD:userapi.obj
 0001:0002b880       ??2@YAPAXI@Z               1002c880 f   LIBCMTD:new_scalar.obj
 0001:0002b8d0       ___isa_available_init      1002c8d0 f   LIBCMTD:cpu_disp.obj
 0001:0002bc10       __get_startup_argv_mode    1002cc10 f   LIBCMTD:argv_mode.obj
 0001:0002bc20       ___scrt_is_ucrt_dll_in_use 1002cc20 f   LIBCMTD:ucrt_detection.obj
 0001:0002bc50       ___scrt_fastfail           1002cc50 f   LIBCMTD:utility_desktop.obj
 0001:0002bd90       ___scrt_get_show_window_mode 1002cd90 f   LIBCMTD:utility_desktop.obj
 0001:0002bdd0       ___scrt_initialize_mta     1002cdd0 f   LIBCMTD:utility_desktop.obj
 0001:0002bde0       ___scrt_initialize_winrt   1002cde0 f   LIBCMTD:utility_desktop.obj
 0001:0002bdf0       ___scrt_is_managed_app     1002cdf0 f   LIBCMTD:utility_desktop.obj
 0001:0002be80       ___scrt_set_unhandled_exception_filter 1002ce80 f   LIBCMTD:utility_desktop.obj
 0001:0002be90       ___scrt_exe_initialize_mta 1002ce90 f   LIBCMTD:utility_desktop.obj
 0001:0002be90       ___scrt_stub_for_initialize_mta 1002ce90 f   LIBCMTD:utility_desktop.obj
 0001:0002bea0       ___scrt_unhandled_exception_filter@4 1002cea0 f   LIBCMTD:utility_desktop.obj
 0001:0002bf20       __crt_debugger_hook        1002cf20 f   LIBCMTD:utility_desktop.obj
 0001:0002bf30       @_guard_check_icall_nop@4  1002cf30 f i LIBCMTD:guard_support.obj
 0001:0002bf40       _ReadNoFence               1002cf40 f i LIBCMTD:guard_support.obj
 0001:0002bf60       _ReadPointerNoFence        1002cf60 f i LIBCMTD:guard_support.obj
 0001:0002bf80       ___castguard_check_failure_debugbreak 1002cf80 f i LIBCMTD:guard_support.obj
 0001:0002bfa0       ___castguard_check_failure_fastfail 1002cfa0 f i LIBCMTD:guard_support.obj
 0001:0002bfc0       ___castguard_check_failure_nop 1002cfc0 f i LIBCMTD:guard_support.obj
 0001:0002bfd0       ___castguard_check_failure_os_handled 1002cfd0 f i LIBCMTD:guard_support.obj
 0001:0002c050       ___castguard_slow_path_check_debugbreak 1002d050 f i LIBCMTD:guard_support.obj
 0001:0002c080       ___castguard_slow_path_check_fastfail 1002d080 f i LIBCMTD:guard_support.obj
 0001:0002c0c0       ___castguard_slow_path_check_nop 1002d0c0 f i LIBCMTD:guard_support.obj
 0001:0002c0d0       ___castguard_slow_path_check_os_handled 1002d0d0 f i LIBCMTD:guard_support.obj
 0001:0002c170       __guard_icall_checks_enforced 1002d170 f i LIBCMTD:guard_support.obj
 0001:0002c210       ___security_init_cookie    1002d210 f   LIBCMTD:gs_support.obj
 0001:0002c290       ?__scrt_initialize_type_info@@YAXXZ 1002d290 f   LIBCMTD:tncleanup.obj
 0001:0002c2a0       ?__scrt_uninitialize_type_info@@YAXXZ 1002d2a0 f   LIBCMTD:tncleanup.obj
 0001:0002c2c0       ___local_stdio_scanf_options 1002d2c0 f i LIBCMTD:default_local_stdio_options.obj
 0001:0002c2d0       ___scrt_initialize_default_local_stdio_options 1002d2d0 f   LIBCMTD:default_local_stdio_options.obj
 0001:0002c310       ___scrt_get_dyn_tls_init_callback 1002d310 f   LIBCMTD:dyn_tls_init.obj
 0001:0002c320       __RTC_Initialize           1002d320 f   LIBCMTD:initsect.obj
 0001:0002c350       __RTC_Terminate            1002d350 f   LIBCMTD:initsect.obj
 0001:0002c800       ?_RTC_GetSrcLine@@YAHPAEPA_WKPAH1K@Z 1002d800 f   LIBCMTD:pdblkup.obj
 0001:0002cb80       __except_handler4_noexcept 1002db80 f   LIBCMTD:chandler4_noexcept.obj
 0001:0002cbe0       ??0bad_alloc@std@@AAE@QBD@Z 1002dbe0 f i LIBCMTD:throw_bad_alloc.obj
 0001:0002cc10       ??0bad_alloc@std@@QAE@ABV01@@Z 1002dc10 f i LIBCMTD:throw_bad_alloc.obj
 0001:0002cc40       ??0bad_alloc@std@@QAE@XZ   1002dc40 f i LIBCMTD:throw_bad_alloc.obj
 0001:0002cc70       ??0bad_array_new_length@std@@QAE@ABV01@@Z 1002dc70 f i LIBCMTD:throw_bad_alloc.obj
 0001:0002cca0       ??0bad_array_new_length@std@@QAE@XZ 1002dca0 f i LIBCMTD:throw_bad_alloc.obj
 0001:0002ccd0       ??0exception@std@@QAE@ABV01@@Z 1002dcd0 f i LIBCMTD:throw_bad_alloc.obj
 0001:0002cd10       ??0exception@std@@QAE@QBDH@Z 1002dd10 f i LIBCMTD:throw_bad_alloc.obj
 0001:0002cd40       ??1bad_alloc@std@@UAE@XZ   1002dd40 f i LIBCMTD:throw_bad_alloc.obj
 0001:0002cd60       ??1bad_array_new_length@std@@UAE@XZ 1002dd60 f i LIBCMTD:throw_bad_alloc.obj
 0001:0002cd80       ??1exception@std@@UAE@XZ   1002dd80 f i LIBCMTD:throw_bad_alloc.obj
 0001:0002cdb0       ??_Ebad_alloc@std@@UAEPAXI@Z 1002ddb0 f i LIBCMTD:throw_bad_alloc.obj
 0001:0002cdb0       ??_Gbad_alloc@std@@UAEPAXI@Z 1002ddb0 f i LIBCMTD:throw_bad_alloc.obj
 0001:0002cde0       ??_Gbad_array_new_length@std@@UAEPAXI@Z 1002dde0 f i LIBCMTD:throw_bad_alloc.obj
 0001:0002cde0       ??_Ebad_array_new_length@std@@UAEPAXI@Z 1002dde0 f i LIBCMTD:throw_bad_alloc.obj
 0001:0002ce10       ??_Gexception@std@@UAEPAXI@Z 1002de10 f i LIBCMTD:throw_bad_alloc.obj
 0001:0002ce10       ??_Eexception@std@@UAEPAXI@Z 1002de10 f i LIBCMTD:throw_bad_alloc.obj
 0001:0002ce40       ?__scrt_throw_std_bad_alloc@@YAXXZ 1002de40 f   LIBCMTD:throw_bad_alloc.obj
 0001:0002ce60       ?__scrt_throw_std_bad_array_new_length@@YAXXZ 1002de60 f   LIBCMTD:throw_bad_alloc.obj
 0001:0002ce80       ?what@exception@std@@UBEPBDXZ 1002de80 f i LIBCMTD:throw_bad_alloc.obj
 0001:0002ceb0       ??1type_info@@UAE@XZ       1002deb0 f   LIBCMTD:std_type_info_static.obj
 0001:0002ced0       ??_Gtype_info@@UAEPAXI@Z   1002ded0 f i LIBCMTD:std_type_info_static.obj
 0001:0002ced0       ??_Etype_info@@UAEPAXI@Z   1002ded0 f i LIBCMTD:std_type_info_static.obj
 0001:0002cefe       ??$?2PAUHINSTANCE__@@@Wrapper@?$CSimpleArray@PAUHINSTANCE__@@V?$CSimpleArrayEqualHelper@PAUHINSTANCE__@@@ATL@@@ATL@@SAPAXIPAPAUHINSTANCE__@@@Z 1002defe f i atls:atlbase.obj
 0001:0002cf06       ??0?$CSimpleArray@PAUHINSTANCE__@@V?$CSimpleArrayEqualHelper@PAUHINSTANCE__@@@ATL@@@ATL@@QAE@XZ 1002df06 f i atls:atlbase.obj
 0001:0002cf13       ??0CAtlBaseModule@ATL@@QAE@XZ 1002df13 f   atls:atlbase.obj
 0001:0002cf66       ??0Wrapper@?$CSimpleArray@PAUHINSTANCE__@@V?$CSimpleArrayEqualHelper@PAUHINSTANCE__@@@ATL@@@ATL@@QAE@ABQAUHINSTANCE__@@@Z 1002df66 f i atls:atlbase.obj
 0001:0002cf76       ??0_ATL_BASE_MODULE70@ATL@@QAE@XZ 1002df76 f i atls:atlbase.obj
 0001:0002cf99       ??1?$CSimpleArray@PAUHINSTANCE__@@V?$CSimpleArrayEqualHelper@PAUHINSTANCE__@@@ATL@@@ATL@@QAE@XZ 1002df99 f i atls:atlbase.obj
 0001:0002cf9e       ??1CAtlBaseModule@ATL@@QAE@XZ 1002df9e f   atls:atlbase.obj
 0001:0002cfb4       ??1_ATL_BASE_MODULE70@ATL@@QAE@XZ 1002dfb4 f i atls:atlbase.obj
 0001:0002cfbc       ??A?$CSimpleArray@PAUHINSTANCE__@@V?$CSimpleArrayEqualHelper@PAUHINSTANCE__@@@ATL@@@ATL@@QAEAAPAUHINSTANCE__@@H@Z 1002dfbc f i atls:atlbase.obj
 0001:0002cfe1       ?Add@?$CSimpleArray@PAUHINSTANCE__@@V?$CSimpleArrayEqualHelper@PAUHINSTANCE__@@@ATL@@@ATL@@QAEHABQAUHINSTANCE__@@@Z 1002dfe1 f i atls:atlbase.obj
 0001:0002d063       ?AddResourceInstance@CAtlBaseModule@ATL@@QAE_NPAUHINSTANCE__@@@Z 1002e063 f   atls:atlbase.obj
 0001:0002d096       ?GetHInstanceAt@CAtlBaseModule@ATL@@QAEPAUHINSTANCE__@@H@Z 1002e096 f   atls:atlbase.obj
 0001:0002d0db       ?GetSize@?$CSimpleArray@PAUHINSTANCE__@@V?$CSimpleArrayEqualHelper@PAUHINSTANCE__@@@ATL@@@ATL@@QBEHXZ 1002e0db f i atls:atlbase.obj
 0001:0002d0df       ?InternalSetAtIndex@?$CSimpleArray@PAUHINSTANCE__@@V?$CSimpleArrayEqualHelper@PAUHINSTANCE__@@@ATL@@@ATL@@QAEXHABQAUHINSTANCE__@@@Z 1002e0df f i atls:atlbase.obj
 0001:0002d0f9       ?RemoveAll@?$CSimpleArray@PAUHINSTANCE__@@V?$CSimpleArrayEqualHelper@PAUHINSTANCE__@@@ATL@@@ATL@@QAEXXZ 1002e0f9 f i atls:atlbase.obj
 0001:0002d116       ?RemoveAt@?$CSimpleArray@PAUHINSTANCE__@@V?$CSimpleArrayEqualHelper@PAUHINSTANCE__@@@ATL@@@ATL@@QAEHH@Z 1002e116 f i atls:atlbase.obj
 0001:0002d164       ?RemoveResourceInstance@CAtlBaseModule@ATL@@QAE_NPAUHINSTANCE__@@@Z 1002e164 f   atls:atlbase.obj
 0001:0002d1c1       ?memmove_s@Checked@ATL@@YAXPAXIPBXI@Z 1002e1c1 f i atls:atlbase.obj
 0001:0002d51e       ?GetCodeAddress@_stdcallthunk@ATL@@QAEPAXXZ 1002e51e f i atls:atlthunk.obj
 0001:0002d548       ?Init@_stdcallthunk@ATL@@QAEHKPAX@Z 1002e548 f i atls:atlthunk.obj
 0001:0002d57d       ?__AllocStdCallThunk@@YGPAXXZ 1002e57d f   atls:atlthunk.obj
 0001:0002d582       ?__AllocStdCallThunk@ATL@@YGPAXXZ 1002e582 f   atls:atlthunk.obj
 0001:0002d587       ?__AllocStdCallThunk_cmn@@YAPAXXZ 1002e587 f   atls:atlthunk.obj
 0001:0002d64d       ?__FreeStdCallThunk@@YGXPAX@Z 1002e64d f   atls:atlthunk.obj
 0001:0002d65d       ?__FreeStdCallThunk@ATL@@YGXPAX@Z 1002e65d f   atls:atlthunk.obj
 0001:0002d66d       ?__FreeStdCallThunk_cmn@@YAXPAX@Z 1002e66d f   atls:atlthunk.obj
 0001:0002d708       _AtlThunk_AllocateData@0   1002e708 f   atls:atlthunk.obj
 0001:0002d76d       _AtlThunk_DataToCode@4     1002e76d f   atls:atlthunk.obj
 0001:0002d7b4       _AtlThunk_FreeData@4       1002e7b4 f   atls:atlthunk.obj
 0001:0002d80a       _AtlThunk_InitData@12      1002e80a f   atls:atlthunk.obj
 0001:0002d859       _MemoryBarrier             1002e859 f i atls:atlthunk.obj
 0001:0002d867       __InlineInterlockedCompareExchangePointer 1002e867 f i atls:atlthunk.obj
 0001:0002d880       _memset                    1002e880 f   libvcruntimed:memset.obj
 0001:0002d9e0       ??$__crt_interlocked_exchange_pointer@$$A6AXXZP6AXXZ@@YAP6AXXZPDS6AXXZQ6AXXZ@Z 1002e9e0 f i libvcruntimed:purevirt.obj
 0001:0002d9f0       ??$__crt_interlocked_read_pointer@$$A6AXXZ@@YAP6AXXZPDS6AXXZ@Z 1002e9f0 f i libvcruntimed:purevirt.obj
 0001:0002da10       ?__crt_interlocked_read_32@@YAHPDH@Z 1002ea10 f i libvcruntimed:purevirt.obj
 0001:0002da30       __get_purecall_handler     1002ea30 f   libvcruntimed:purevirt.obj
 0001:0002da50       __purecall                 1002ea50 f   libvcruntimed:purevirt.obj
 0001:0002da80       __set_purecall_handler     1002ea80 f   libvcruntimed:purevirt.obj
 0001:0002dc50       _memcmp                    1002ec50 f   libvcruntimed:memcmp.obj
 0001:0002e520       _memcpy                    1002f520 f   libvcruntimed:memcpy.obj
 0001:0002eaa0       _wcsstr                    1002faa0 f   libvcruntimed:wcsstr.obj
 0001:0002efd0       __except_handler4          1002ffd0 f   libvcruntimed:chandler4.obj
 0001:0002f1c0       ___vcrt_initialize         100301c0 f   libvcruntimed:initialization.obj
 0001:0002f200       ___vcrt_thread_attach      10030200 f   libvcruntimed:initialization.obj
 0001:0002f220       ___vcrt_thread_detach      10030220 f   libvcruntimed:initialization.obj
 0001:0002f240       ___vcrt_uninitialize       10030240 f   libvcruntimed:initialization.obj
 0001:0002f260       ___vcrt_uninitialize_critical 10030260 f   libvcruntimed:initialization.obj
 0001:0002f280       ??$?0AAViterator@TryBlockMap@__FrameHandler3@@AAV012@$0A@@?$pair@Viterator@TryBlockMap@__FrameHandler3@@V123@@std@@QAE@AAViterator@TryBlockMap@__FrameHandler3@@0@Z 10030280 f i libvcruntimed:trnsctrl.obj
 0001:0002f2d0       ??$forward@AAViterator@TryBlockMap@__FrameHandler3@@@std@@YAAAViterator@TryBlockMap@__FrameHandler3@@AAV123@@Z 100302d0 f i libvcruntimed:trnsctrl.obj
 0001:0002f2e0       ??0iterator@TryBlockMap@__FrameHandler3@@QAE@AAV12@I@Z 100302e0 f i libvcruntimed:trnsctrl.obj
 0001:0002f310       ?GetRangeOfTrysToCheck@__FrameHandler3@@SA?AU?$pair@Viterator@TryBlockMap@__FrameHandler3@@V123@@std@@AAVTryBlockMap@1@HPAXPBU_s_FuncInfo@@H@Z 10030310 f   libvcruntimed:trnsctrl.obj
 0001:0002f3f0       ?_CallCatchBlock2@@YAPAXPAUEHRegistrationNode@@PBU_s_FuncInfo@@PAXHK@Z 100303f0 f   libvcruntimed:trnsctrl.obj
 0001:0002f460       ?_CallSETranslator@@YAHPAUEHExceptionRecord@@PAUEHRegistrationNode@@PAX2PBU_s_FuncInfo@@H1@Z 10030460 f   libvcruntimed:trnsctrl.obj
 0001:0002f560       ?_JumpToContinuation@@YGXPAXPAUEHRegistrationNode@@@Z 10030560 f   libvcruntimed:trnsctrl.obj
 0001:0002f5a0       ?_UnwindNestedFrames@@YGXPAUEHRegistrationNode@@PAUEHExceptionRecord@@@Z 100305a0 f   libvcruntimed:trnsctrl.obj
 0001:0002f600       __CatchGuardHandler        10030600 f   libvcruntimed:trnsctrl.obj
 0001:0002f650       __CreateFrameInfo          10030650 f   libvcruntimed:trnsctrl.obj
 0001:0002f680       __FindAndUnlinkFrame       10030680 f   libvcruntimed:trnsctrl.obj
 0001:0002f6f0       __TranslatorGuardHandler   100306f0 f   libvcruntimed:trnsctrl.obj
 0001:0002f7a0       ___CxxFrameHandler         100307a0 f   libvcruntimed:trnsctrl.obj
 0001:0002f7e0       ___CxxFrameHandler2        100307e0 f   libvcruntimed:trnsctrl.obj
 0001:0002f820       ___CxxFrameHandler3        10030820 f   libvcruntimed:trnsctrl.obj
 0001:0002f860       ___CxxLongjmpUnwind@4      10030860 f   libvcruntimed:trnsctrl.obj
 0001:0002f8a0       ___DestructExceptionObject 100308a0 f   libvcruntimed:ehhelpers.obj
 0001:0002f9c0       ?_CallMemberFunction0@@YGXQAX0@Z 100309c0 f i libvcruntimed:ehhelpers.obj
 0001:0002fa60       ?raw_name@type_info@@QBEPBDXZ 10030a60 f i libvcruntimed:ehhelpers.obj
 0001:0002fa80       __IsExceptionObjectToBeDestroyed 10030a80 f   libvcruntimed:ehhelpers.obj
 0001:0002fac0       __SetWinRTOutOfMemoryExceptionCallback 10030ac0 f   libvcruntimed:ehhelpers.obj
 0001:0002fad0       ___AdjustPointer           10030ad0 f   libvcruntimed:ehhelpers.obj
 0001:0002fb20       ___FrameUnwindFilter       10030b20 f   libvcruntimed:ehhelpers.obj
 0001:0002fbb0       ___GetPlatformExceptionInfo 10030bb0 f   libvcruntimed:ehhelpers.obj
 0001:0002fc30       ___current_exception       10030c30 f   libvcruntimed:ehhelpers.obj
 0001:0002fc40       ___current_exception_context 10030c40 f   libvcruntimed:ehhelpers.obj
 0001:0002fc50       ___processing_throw        10030c50 f   libvcruntimed:ehhelpers.obj
 0001:0002fc60       ___std_terminate           10030c60 f   libvcruntimed:ehhelpers.obj
 0001:0002fc70       __is_exception_typeof      10030c70 f   libvcruntimed:ehhelpers.obj
 0001:0002fd70       ??$?RD@__crt_internal_free_policy@@QBEXQBD@Z 10030d70 f i libvcruntimed:std_type_info.obj
 0001:0002fd90       ??$?RX@__crt_internal_free_policy@@QBEXQBX@Z 10030d90 f i libvcruntimed:std_type_info.obj
 0001:0002fdb0       ??$__crt_interlocked_compare_exchange_pointer@$$CBDPAD$$T@@YAPBDPDSBDQAD$$T@Z 10030db0 f i libvcruntimed:std_type_info.obj
 0001:0002fdd0       ??$__crt_interlocked_read_pointer@$$CBD@@YAPBDPDSBD@Z 10030dd0 f i libvcruntimed:std_type_info.obj
 0001:0002fdf0       ??0?$__crt_unique_heap_ptr@DU__crt_internal_free_policy@@@@QAE@QAD@Z 10030df0 f i libvcruntimed:std_type_info.obj
 0001:0002fe10       ??0?$__crt_unique_heap_ptr@XU__crt_internal_free_policy@@@@QAE@QAX@Z 10030e10 f i libvcruntimed:std_type_info.obj
 0001:0002fe30       ??1?$__crt_unique_heap_ptr@DU__crt_internal_free_policy@@@@QAE@XZ 10030e30 f i libvcruntimed:std_type_info.obj
 0001:0002fe50       ??1?$__crt_unique_heap_ptr@XU__crt_internal_free_policy@@@@QAE@XZ 10030e50 f i libvcruntimed:std_type_info.obj
 0001:0002fe70       ??B?$__crt_unique_heap_ptr@DU__crt_internal_free_policy@@@@QBE_NXZ 10030e70 f i libvcruntimed:std_type_info.obj
 0001:0002fe90       ??B?$__crt_unique_heap_ptr@XU__crt_internal_free_policy@@@@QBE_NXZ 10030e90 f i libvcruntimed:std_type_info.obj
 0001:0002ff20       ?detach@?$__crt_unique_heap_ptr@XU__crt_internal_free_policy@@@@QAEPAXXZ 10030f20 f i libvcruntimed:std_type_info.obj
 0001:0002ff50       ?get@?$__crt_unique_heap_ptr@DU__crt_internal_free_policy@@@@QBEPADXZ 10030f50 f i libvcruntimed:std_type_info.obj
 0001:0002ff60       ?get@?$__crt_unique_heap_ptr@XU__crt_internal_free_policy@@@@QBEPAXXZ 10030f60 f i libvcruntimed:std_type_info.obj
 0001:0002ff70       ?is_valid@?$__crt_unique_heap_ptr@DU__crt_internal_free_policy@@@@QBE_NXZ 10030f70 f i libvcruntimed:std_type_info.obj
 0001:0002ffa0       ?is_valid@?$__crt_unique_heap_ptr@XU__crt_internal_free_policy@@@@QBE_NXZ 10030fa0 f i libvcruntimed:std_type_info.obj
 0001:0002ffd0       ?release@?$__crt_unique_heap_ptr@DU__crt_internal_free_policy@@@@QAEXXZ 10030fd0 f i libvcruntimed:std_type_info.obj
 0001:00030000       ?release@?$__crt_unique_heap_ptr@XU__crt_internal_free_policy@@@@QAEXXZ 10031000 f i libvcruntimed:std_type_info.obj
 0001:00030030       ___std_type_info_compare   10031030 f   libvcruntimed:std_type_info.obj
 0001:00030060       ___std_type_info_destroy_list 10031060 f   libvcruntimed:std_type_info.obj
 0001:000300a0       ___std_type_info_hash      100310a0 f   libvcruntimed:std_type_info.obj
 0001:00030100       ___std_type_info_name      10031100 f   libvcruntimed:std_type_info.obj
 0001:000302e0       ___vcrt_GetModuleFileNameW 100312e0 f   libvcruntimed:winapi_thunks.obj
 0001:00030300       ___vcrt_GetModuleHandleW   10031300 f   libvcruntimed:winapi_thunks.obj
 0001:00030310       ___vcrt_LoadLibraryExW     10031310 f   libvcruntimed:winapi_thunks.obj
 0001:00030330       ??$?RD@__crt_public_free_policy@@QBEXQBD@Z 10031330 f i libvcruntimed:std_exception.obj
 0001:00030350       ??0?$__crt_unique_heap_ptr@DU__crt_public_free_policy@@@@QAE@QAD@Z 10031350 f i libvcruntimed:std_exception.obj
 0001:00030370       ??1?$__crt_unique_heap_ptr@DU__crt_public_free_policy@@@@QAE@XZ 10031370 f i libvcruntimed:std_exception.obj
 0001:00030390       ??B?$__crt_unique_heap_ptr@DU__crt_public_free_policy@@@@QBE_NXZ 10031390 f i libvcruntimed:std_exception.obj
 0001:000303b0       ?detach@?$__crt_unique_heap_ptr@DU__crt_public_free_policy@@@@QAEPADXZ 100313b0 f i libvcruntimed:std_exception.obj
 0001:000303e0       ?get@?$__crt_unique_heap_ptr@DU__crt_public_free_policy@@@@QBEPADXZ 100313e0 f i libvcruntimed:std_exception.obj
 0001:000303f0       ?is_valid@?$__crt_unique_heap_ptr@DU__crt_public_free_policy@@@@QBE_NXZ 100313f0 f i libvcruntimed:std_exception.obj
 0001:00030420       ?release@?$__crt_unique_heap_ptr@DU__crt_public_free_policy@@@@QAEXXZ 10031420 f i libvcruntimed:std_exception.obj
 0001:00030450       ___std_exception_copy      10031450 f   libvcruntimed:std_exception.obj
 0001:00030540       ___std_exception_destroy   10031540 f   libvcruntimed:std_exception.obj
 0001:00030570       __CxxThrowException@8      10031570 f   libvcruntimed:throw.obj
 0001:00030620       _memmove                   10031620 f   libvcruntimed:memmove.obj
 0001:00030ba0       __local_unwind4            10031ba0 f   libvcruntimed:exsup4.obj
 0001:00030c74       __seh_longjmp_unwind4@4    10031c74 f   libvcruntimed:exsup4.obj
 0001:00030c9c       @_EH4_CallFilterFunc@8     10031c9c f   libvcruntimed:exsup4.obj
 0001:00030cb4       @_EH4_TransferToHandler@8  10031cb4 f   libvcruntimed:exsup4.obj
 0001:00030cd0       @_EH4_GlobalUnwind2@8      10031cd0 f   libvcruntimed:exsup4.obj
 0001:00030cec       @_EH4_LocalUnwind@16       10031cec f   libvcruntimed:exsup4.obj
 0001:00030d20       ___except_validate_context_record 10031d20 f   libvcruntimed:jbcxrval.obj
 0001:00030d70       ___except_validate_jump_buffer 10031d70 f   libvcruntimed:jbcxrval.obj
 0001:00030d90       ___except_validate_jump_buffer_common 10031d90 f i libvcruntimed:jbcxrval.obj
 0001:00030df0       ??$?RU__vcrt_ptd@@@__crt_internal_free_policy@@QBEXQBU__vcrt_ptd@@@Z 10031df0 f i libvcruntimed:per_thread_data.obj
 0001:00030e10       ??0?$__crt_unique_heap_ptr@U__vcrt_ptd@@U__crt_internal_free_policy@@@@QAE@QAU__vcrt_ptd@@@Z 10031e10 f i libvcruntimed:per_thread_data.obj
 0001:00030e50       ??1?$__crt_unique_heap_ptr@U__vcrt_ptd@@U__crt_internal_free_policy@@@@QAE@XZ 10031e50 f i libvcruntimed:per_thread_data.obj
 0001:00030e90       ??B?$__crt_unique_heap_ptr@U__vcrt_ptd@@U__crt_internal_free_policy@@@@QBE_NXZ 10031e90 f i libvcruntimed:per_thread_data.obj
 0001:00030eb0       ?detach@?$__crt_unique_heap_ptr@U__vcrt_ptd@@U__crt_internal_free_policy@@@@QAEPAU__vcrt_ptd@@XZ 10031eb0 f i libvcruntimed:per_thread_data.obj
 0001:00030ee0       ?get@?$__crt_unique_heap_ptr@U__vcrt_ptd@@U__crt_internal_free_policy@@@@QBEPAU__vcrt_ptd@@XZ 10031ee0 f i libvcruntimed:per_thread_data.obj
 0001:00030ef0       ?is_valid@?$__crt_unique_heap_ptr@U__vcrt_ptd@@U__crt_internal_free_policy@@@@QBE_NXZ 10031ef0 f i libvcruntimed:per_thread_data.obj
 0001:00030f20       ?release@?$__crt_unique_heap_ptr@U__vcrt_ptd@@U__crt_internal_free_policy@@@@QAEXXZ 10031f20 f i libvcruntimed:per_thread_data.obj
 0001:00030f80       ___vcrt_freefls@4          10031f80 f   libvcruntimed:per_thread_data.obj
 0001:00030fb0       ___vcrt_freeptd            10031fb0 f   libvcruntimed:per_thread_data.obj
 0001:00031010       ___vcrt_getptd             10032010 f   libvcruntimed:per_thread_data.obj
 0001:00031030       ___vcrt_getptd_noexit      10032030 f   libvcruntimed:per_thread_data.obj
 0001:00031190       ___vcrt_getptd_noinit      10032190 f   libvcruntimed:per_thread_data.obj
 0001:000311f0       ___vcrt_initialize_ptd     100321f0 f   libvcruntimed:per_thread_data.obj
 0001:00031240       ___vcrt_uninitialize_ptd   10032240 f   libvcruntimed:per_thread_data.obj
 0001:00031270       ___vcrt_initialize_locks   10032270 f   libvcruntimed:locks.obj
 0001:000312d0       ___vcrt_lock               100322d0 f   libvcruntimed:locks.obj
 0001:000312f0       ___vcrt_uninitialize_locks 100322f0 f   libvcruntimed:locks.obj
 0001:00031340       ___vcrt_unlock             10032340 f   libvcruntimed:locks.obj
 0001:00031ed0       ??$TypeMatchHelper@V__FrameHandler3@@@@YAHPBU_s_HandlerType@@PBU_s_CatchableType@@PBU_s_ThrowInfo@@@Z 10032ed0 f i libvcruntimed:frame.obj
 0001:00031fb0       ??$__InternalCxxFrameHandler@V__FrameHandler3@@@@YA?AW4_EXCEPTION_DISPOSITION@@PAUEHExceptionRecord@@PAUEHRegistrationNode@@PAU_CONTEXT@@PAXPBU_s_FuncInfo@@H1E@Z 10032fb0 f i libvcruntimed:frame.obj
 0001:00032170       ??0HandlerMap@__FrameHandler3@@QAE@PBU_s_TryBlockMapEntry@@II@Z 10033170 f i libvcruntimed:frame.obj
 0001:000321a0       ??0TryBlockMap@__FrameHandler3@@QAE@PBU_s_FuncInfo@@I@Z 100331a0 f i libvcruntimed:frame.obj
 0001:000321d0       ??0bad_exception@std@@QAE@ABV01@@Z 100331d0 f i libvcruntimed:frame.obj
 0001:00032200       ??0bad_exception@std@@QAE@XZ 10033200 f i libvcruntimed:frame.obj
 0001:00032230       ??0iterator@HandlerMap@__FrameHandler3@@QAE@AAV12@I@Z 10033230 f i libvcruntimed:frame.obj
 0001:00032260       ??1bad_exception@std@@UAE@XZ 10033260 f i libvcruntimed:frame.obj
 0001:00032280       ??8iterator@HandlerMap@__FrameHandler3@@QBE_NABV012@@Z 10033280 f i libvcruntimed:frame.obj
 0001:000322b0       ??8type_info@@QBE_NABV0@@Z 100332b0 f i libvcruntimed:frame.obj
 0001:000322f0       ??9iterator@HandlerMap@__FrameHandler3@@QBE_NABV012@@Z 100332f0 f i libvcruntimed:frame.obj
 0001:00032330       ??Diterator@HandlerMap@__FrameHandler3@@QAE?BU_s_HandlerType@@XZ 10033330 f i libvcruntimed:frame.obj
 0001:00032370       ??Diterator@TryBlockMap@__FrameHandler3@@QAE?BU_s_TryBlockMapEntry@@XZ 10033370 f i libvcruntimed:frame.obj
 0001:000323c0       ??Eiterator@HandlerMap@__FrameHandler3@@QAEAAV012@XZ 100333c0 f i libvcruntimed:frame.obj
 0001:000323e0       ??Eiterator@TryBlockMap@__FrameHandler3@@QAEAAV012@XZ 100333e0 f i libvcruntimed:frame.obj
 0001:00032400       ??Miterator@TryBlockMap@__FrameHandler3@@QBE_NABV012@@Z 10033400 f i libvcruntimed:frame.obj
 0001:00032430       ??_Ebad_exception@std@@UAEPAXI@Z 10033430 f i libvcruntimed:frame.obj
 0001:00032430       ??_Gbad_exception@std@@UAEPAXI@Z 10033430 f i libvcruntimed:frame.obj
 0001:00032460       ?BuildCatchObject@__FrameHandler3@@SAXPAUEHExceptionRecord@@PAXPBU_s_HandlerType@@PBU_s_CatchableType@@@Z 10033460 f   libvcruntimed:frame.obj
 0001:00032480       ?BuildCatchObjectHelper@__FrameHandler3@@SAHPAUEHExceptionRecord@@PAXPBU_s_HandlerType@@PBU_s_CatchableType@@@Z 10033480 f   libvcruntimed:frame.obj
 0001:00032820       ?FrameUnwindToEmptyState@__FrameHandler3@@SAXPAUEHRegistrationNode@@PAXPBU_s_FuncInfo@@@Z 10033820 f   libvcruntimed:frame.obj
 0001:00032840       ?FrameUnwindToState@__FrameHandler3@@SAXPAUEHRegistrationNode@@PAXPBU_s_FuncInfo@@H@Z 10033840 f   libvcruntimed:frame.obj
 0001:000329c0       ?GetMaxState@__FrameHandler3@@SAHPAXPBU_s_FuncInfo@@@Z 100339c0 f i libvcruntimed:frame.obj
 0001:00032ae0       ?TypeMatch@__FrameHandler3@@SAHPBU_s_HandlerType@@PBU_s_CatchableType@@PBU_s_ThrowInfo@@@Z 10033ae0 f   libvcruntimed:frame.obj
 0001:00032b00       ?_CallMemberFunction1@@YGXQAX00@Z 10033b00 f i libvcruntimed:frame.obj
 0001:00032b30       ?_CallMemberFunction2@@YGXQAX00H@Z 10033b30 f i libvcruntimed:frame.obj
 0001:00032b60       ?begin@HandlerMap@__FrameHandler3@@QAE?AViterator@12@XZ 10033b60 f i libvcruntimed:frame.obj
 0001:00032b80       ?end@HandlerMap@__FrameHandler3@@QAE?AViterator@12@XZ 10033b80 f i libvcruntimed:frame.obj
 0001:00032bb0       ?getESTypes@__FrameHandler3@@SAPBU_s_ESTypeList@@PBU_s_FuncInfo@@@Z 10033bb0 f i libvcruntimed:frame.obj
 0001:00032bc0       ?getLastEntry@HandlerMap@__FrameHandler3@@QAEPBU_s_HandlerType@@XZ 10033bc0 f i libvcruntimed:frame.obj
 0001:00032be0       ?getMagicNum@__FrameHandler3@@SAIPBU_s_FuncInfo@@@Z 10033be0 f i libvcruntimed:frame.obj
 0001:00032bf0       ?getNumTryBlocks@TryBlockMap@__FrameHandler3@@QAEIXZ 10033bf0 f i libvcruntimed:frame.obj
 0001:00032c10       ?isEHs@__FrameHandler3@@SA_NPBU_s_FuncInfo@@@Z 10033c10 f i libvcruntimed:frame.obj
 0001:00032c40       ?isNoExcept@__FrameHandler3@@SA_NPBU_s_FuncInfo@@@Z 10033c40 f i libvcruntimed:frame.obj
 0001:00032c70       ___BuildCatchObject        10033c70 f   libvcruntimed:frame.obj
 0001:00032c90       ___BuildCatchObjectHelper  10033c90 f   libvcruntimed:frame.obj
 0001:00032cb0       ___TypeMatch               10033cb0 f   libvcruntimed:frame.obj
 0001:00032cd0       ___vcrt_EncodePointer      10033cd0 f i libvcruntimed:frame.obj
 0001:00032ce0       __CallSettingFrame@12      10033ce0 f   libvcruntimed:lowhelpr.obj
 0001:00032d07       __NLG_Return               10033d07     libvcruntimed:lowhelpr.obj
 0001:00032d30       ??$?0$00@DName@@QAE@PBDU?$StringLifeSelector@$00@@@Z 10033d30 f i libvcruntimed:undname.obj
 0001:00032d80       ??$?0$00@pcharNode@@QAE@PBDHU?$StringLifeSelector@$00@@@Z 10033d80 f i libvcruntimed:undname.obj
 0001:00032dc0       ??$?0$01@DName@@QAE@PBDU?$StringLifeSelector@$01@@@Z 10033dc0 f i libvcruntimed:undname.obj
 0001:00032e10       ??$?0$01@pcharNode@@QAE@PBDHU?$StringLifeSelector@$01@@@Z 10033e10 f i libvcruntimed:undname.obj
 0001:00032e90       ??$?0$0A@@DName@@QAE@PBDU?$StringLifeSelector@$0A@@@@Z 10033e90 f i libvcruntimed:undname.obj
 0001:00032ee0       ??$?0$0A@@pcharNode@@QAE@PBDHU?$StringLifeSelector@$0A@@@@Z 10033ee0 f i libvcruntimed:undname.obj
 0001:00032f60       ??$?0_K$0A@@?$optional@_K@std@@QAE@$$QA_K@Z 10033f60 f i libvcruntimed:undname.obj
 0001:00032fa0       ??$?0_K@?$_Optional_construct_base@_K@std@@QAE@Uin_place_t@1@$$QA_K@Z 10033fa0 f i libvcruntimed:undname.obj
 0001:00032fd0       ??$?0_K@?$_Optional_destruct_base@_K$00@std@@QAE@Uin_place_t@1@$$QA_K@Z 10033fd0 f i libvcruntimed:undname.obj
 0001:00033000       ??$append@VDNameNode@@@DName@@AAEXPBVDNameNode@@@Z 10034000 f i libvcruntimed:undname.obj
 0001:00033090       ??$append@VDNameStatusNode@@@DName@@AAEXPBVDNameStatusNode@@@Z 10034090 f i libvcruntimed:undname.obj
 0001:00033120       ??$append@VcharNode@@@DName@@AAEXPBVcharNode@@@Z 10034120 f i libvcruntimed:undname.obj
 0001:000331b0       ??$append@VpDNameNode@@@DName@@AAEXPBVpDNameNode@@@Z 100341b0 f i libvcruntimed:undname.obj
 0001:00033240       ??$append@VpcharNode@@@DName@@AAEXPBVpcharNode@@@Z 10034240 f i libvcruntimed:undname.obj
 0001:000332d0       ??$doPchar@$00@DName@@AAEXPBDH@Z 100342d0 f i libvcruntimed:undname.obj
 0001:000333e0       ??$doPchar@$01@DName@@AAEXPBDH@Z 100343e0 f i libvcruntimed:undname.obj
 0001:000334f0       ??$doPchar@$0A@@DName@@AAEXPBDH@Z 100344f0 f i libvcruntimed:undname.obj
 0001:00033600       ??$forward@_K@std@@YA$$QA_KAA_K@Z 10034600 f i libvcruntimed:undname.obj
 0001:00033610       ??$size@D$04@std@@YAIAAY04$$CBD@Z 10034610 f i libvcruntimed:undname.obj
 0001:00033620       ??$size@D$0EB@@std@@YAIAAY0EB@$$CBD@Z 10034620 f i libvcruntimed:undname.obj
 0001:00033630       ??0?$_Optional_construct_base@_K@std@@QAE@XZ 10034630 f i libvcruntimed:undname.obj
 0001:00033650       ??0?$_Optional_destruct_base@_K$00@std@@QAE@XZ 10034650 f i libvcruntimed:undname.obj
 0001:00033670       ??0?$optional@_K@std@@QAE@XZ 10034670 f i libvcruntimed:undname.obj
 0001:00033690       ??0Block@_HeapManager@@QAE@XZ 10034690 f i libvcruntimed:undname.obj
 0001:000336b0       ??0DName@@QAE@AAPBDD@Z     100346b0 f   libvcruntimed:undname.obj
 0001:00033820       ??0DName@@QAE@ABUStringLiteral@@@Z 10034820 f   libvcruntimed:undname.obj
 0001:00033870       ??0DName@@QAE@ABV0@@Z      10034870 f i libvcruntimed:undname.obj
 0001:000338a0       ??0DName@@QAE@D@Z          100348a0 f   libvcruntimed:undname.obj
 0001:000338d0       ??0DName@@QAE@PAV0@@Z      100348d0 f   libvcruntimed:undname.obj
 0001:00033980       ??0DName@@QAE@W4DNameStatus@@@Z 10034980 f   libvcruntimed:undname.obj
 0001:00033a20       ??0DName@@QAE@XZ           10034a20 f i libvcruntimed:undname.obj
 0001:00033a50       ??0DName@@QAE@_J@Z         10034a50 f   libvcruntimed:undname.obj
 0001:00033b40       ??0DName@@QAE@_K@Z         10034b40 f   libvcruntimed:undname.obj
 0001:00033bf0       ??0DNameNode@@IAE@XZ       10034bf0 f i libvcruntimed:undname.obj
 0001:00033c10       ??0Replicator@@QAE@XZ      10034c10 f i libvcruntimed:undname.obj
 0001:00033c50       ??0UnDecorator@@QAE@PBDP6APADJ@ZK@Z 10034c50 f i libvcruntimed:undname.obj
 0001:00033cd0       ??0_Nontrivial_dummy_type@std@@QAE@XZ 10034cd0 f i libvcruntimed:undname.obj
 0001:00033ce0       ??0charNode@@QAE@D@Z       10034ce0 f i libvcruntimed:undname.obj
 0001:00033d10       ??0pDNameNode@@QAE@PAVDName@@@Z 10034d10 f   libvcruntimed:undname.obj
 0001:00033d70       ??0pairNode@@QAE@PBVDNameNode@@0@Z 10034d70 f i libvcruntimed:undname.obj
 0001:00033dd0       ??2@YAPAXIAAV_HeapManager@@H@Z 10034dd0 f   libvcruntimed:undname.obj
 0001:00033e10       ??4DName@@QAEAAV0@ABUStringLiteral@@@Z 10034e10 f   libvcruntimed:undname.obj
 0001:00033e50       ??4DName@@QAEAAV0@ABV0@@Z  10034e50 f   libvcruntimed:undname.obj
 0001:00033e80       ??4DName@@QAEAAV0@D@Z      10034e80 f i libvcruntimed:undname.obj
 0001:00033eb0       ??4DName@@QAEAAV0@PAV0@@Z  10034eb0 f   libvcruntimed:undname.obj
 0001:00033f50       ??4DName@@QAEAAV0@W4DNameStatus@@@Z 10034f50 f   libvcruntimed:undname.obj
 0001:00033fd0       ??AReplicator@@QBE?AVDName@@H@Z 10034fd0 f   libvcruntimed:undname.obj
 0001:00034040       ??B?$optional@_K@std@@QBE_NXZ 10035040 f i libvcruntimed:undname.obj
 0001:00034060       ??D?$optional@_K@std@@QGAEAA_KXZ 10035060 f i libvcruntimed:undname.obj
 0001:00034070       ??H@YA?AVDName@@ABUStringLiteral@@ABV0@@Z 10035070 f i libvcruntimed:undname.obj
 0001:000340a0       ??H@YA?AVDName@@DABV0@@Z   100350a0 f i libvcruntimed:undname.obj
 0001:000340d0       ??H@YA?AVDName@@W4DNameStatus@@ABV0@@Z 100350d0 f i libvcruntimed:undname.obj
 0001:00034100       ??HDName@@QBE?AV0@ABUStringLiteral@@@Z 10035100 f   libvcruntimed:undname.obj
 0001:00034140       ??HDName@@QBE?AV0@ABV0@@Z  10035140 f   libvcruntimed:undname.obj
 0001:00034180       ??HDName@@QBE?AV0@D@Z      10035180 f   libvcruntimed:undname.obj
 0001:000341c0       ??HDName@@QBE?AV0@PAV0@@Z  100351c0 f   libvcruntimed:undname.obj
 0001:00034200       ??HDName@@QBE?AV0@W4DNameStatus@@@Z 10035200 f   libvcruntimed:undname.obj
 0001:00034240       ??HStringLiteral@@QBE?AU0@H@Z 10035240 f i libvcruntimed:undname.obj
 0001:00034270       ??YDName@@QAEAAV0@ABUStringLiteral@@@Z 10035270 f   libvcruntimed:undname.obj
 0001:00034310       ??YDName@@QAEAAV0@ABV0@@Z  10035310 f   libvcruntimed:undname.obj
 0001:000343b0       ??YDName@@QAEAAV0@D@Z      100353b0 f   libvcruntimed:undname.obj
 0001:00034430       ??YDName@@QAEAAV0@PAV0@@Z  10035430 f   libvcruntimed:undname.obj
 0001:000344e0       ??YDName@@QAEAAV0@W4DNameStatus@@@Z 100354e0 f   libvcruntimed:undname.obj
 0001:00034540       ??YReplicator@@QAEAAV0@ABVDName@@@Z 10035540 f   libvcruntimed:undname.obj
 0001:000345d0       ??_5DName@@QAEAAV0@ABV0@@Z 100355d0 f   libvcruntimed:undname.obj
 0001:00034630       ??__K_l@@YA?AUStringLiteral@@PBDI@Z 10035630 f i libvcruntimed:undname.obj
 0001:00034650       ?Constructor@_HeapManager@@QAEXP6APAXI@ZP6AXPAX@Z@Z 10035650 f i libvcruntimed:undname.obj
 0001:00034690       ?Destructor@_HeapManager@@QAEXXZ 10035690 f i libvcruntimed:undname.obj
 0001:00034700       ?UScore@UnDecorator@@SA?AUStringLiteral@@W4Tokens@@@Z 10035700 f   libvcruntimed:undname.obj
 0001:00034750       ?composeDeclaration@UnDecorator@@CA?AVDName@@ABV2@@Z 10035750 f i libvcruntimed:undname.obj
 0001:000366c0       ?dbGetString@DName@@QBEPADXZ 100376c0 f   libvcruntimed:undname.obj
 0001:000366e0       ?doAccessSpecifiers@UnDecorator@@SAHXZ 100376e0 f i libvcruntimed:undname.obj
 0001:00036710       ?doAllocationLanguage@UnDecorator@@SAHXZ 10037710 f i libvcruntimed:undname.obj
 0001:00036740       ?doAllocationModel@UnDecorator@@SAHXZ 10037740 f i libvcruntimed:undname.obj
 0001:00036770       ?doEcsu@UnDecorator@@SAHXZ 10037770 f i libvcruntimed:undname.obj
 0001:000367a0       ?doEllipsis@UnDecorator@@SAHXZ 100377a0 f i libvcruntimed:undname.obj
 0001:000367d0       ?doFunctionReturns@UnDecorator@@SAHXZ 100377d0 f i libvcruntimed:undname.obj
 0001:00036800       ?doMSKeywords@UnDecorator@@SAHXZ 10037800 f i libvcruntimed:undname.obj
 0001:00036830       ?doMemberTypes@UnDecorator@@SAHXZ 10037830 f i libvcruntimed:undname.obj
 0001:00036860       ?doNameOnly@UnDecorator@@SAHXZ 10037860 f i libvcruntimed:undname.obj
 0001:00036870       ?doNoIdentCharCheck@UnDecorator@@SAHXZ 10037870 f i libvcruntimed:undname.obj
 0001:00036880       ?doPchar@DName@@AAEXD@Z    10037880 f   libvcruntimed:undname.obj
 0001:000368f0       ?doPtr64@UnDecorator@@SAHXZ 100378f0 f i libvcruntimed:undname.obj
 0001:00036920       ?doRestrictionSpec@UnDecorator@@SAHXZ 10037920 f i libvcruntimed:undname.obj
 0001:00036950       ?doThisTypes@UnDecorator@@SAHXZ 10037950 f i libvcruntimed:undname.obj
 0001:00036980       ?doThrowTypes@UnDecorator@@SAHXZ 10037980 f i libvcruntimed:undname.obj
 0001:000369b0       ?doTypeOnly@UnDecorator@@SAHXZ 100379b0 f i libvcruntimed:undname.obj
 0001:000369c0       ?doUnderScore@UnDecorator@@SAHXZ 100379c0 f i libvcruntimed:undname.obj
 0001:000369f0       ?getArgumentList@UnDecorator@@CA?AVDName@@XZ 100379f0 f   libvcruntimed:undname.obj
 0001:00036b40       ?getArgumentTypes@UnDecorator@@CA?AVDName@@XZ 10037b40 f   libvcruntimed:undname.obj
 0001:00036d50       ?getArrayObject@UnDecorator@@CA?AVDName@@XZ 10037d50 f   libvcruntimed:undname.obj
 0001:00036e30       ?getArrayType@UnDecorator@@CA?AVDName@@ABV2@@Z 10037e30 f i libvcruntimed:undname.obj
 0001:000370d0       ?getBasedType@UnDecorator@@CA?AVDName@@XZ 100380d0 f   libvcruntimed:undname.obj
 0001:000371c0       ?getBasicDataType@UnDecorator@@CA?AVDName@@ABV2@@Z 100381c0 f   libvcruntimed:undname.obj
 0001:00037ad0       ?getCHPEName@UnDecorator@@QAEPADPADH@Z 10038ad0 f i libvcruntimed:undname.obj
 0001:00037c30       ?getCallIndex@UnDecorator@@CA?AVDName@@XZ 10038c30 f i libvcruntimed:undname.obj
 0001:00037c50       ?getCallingConvention@UnDecorator@@CA?AVDName@@XZ 10038c50 f   libvcruntimed:undname.obj
 0001:00037e90       ?getDataIndirectType@UnDecorator@@CA?AVDName@@ABV2@W4IndirectionKind@@0H@Z 10038e90 f   libvcruntimed:undname.obj
 0001:000387b0       ?getDataIndirectType@UnDecorator@@CA?AVDName@@XZ 100397b0 f i libvcruntimed:undname.obj
 0001:000387f0       ?getDataType@UnDecorator@@CA?AVDName@@PAV2@@Z 100397f0 f   libvcruntimed:undname.obj
 0001:00038930       ?getDecoratedName@UnDecorator@@CA?AVDName@@XZ 10039930 f   libvcruntimed:undname.obj
 0001:00038d70       ?getDimension@UnDecorator@@CA?AVDName@@_N@Z 10039d70 f   libvcruntimed:undname.obj
 0001:00038fd0       ?getDispatchTarget@UnDecorator@@CA?AVDName@@XZ 10039fd0 f   libvcruntimed:undname.obj
 0001:00039070       ?getDisplacement@UnDecorator@@CA?AVDName@@XZ 1003a070 f i libvcruntimed:undname.obj
 0001:00039090       ?getECSUDataType@UnDecorator@@CA?AVDName@@XZ 1003a090 f   libvcruntimed:undname.obj
 0001:000392f0       ?getECSUName@UnDecorator@@CA?AVDName@@XZ 1003a2f0 f i libvcruntimed:undname.obj
 0001:00039310       ?getEnumType@UnDecorator@@CA?AVDName@@XZ 1003a310 f i libvcruntimed:undname.obj
 0001:000394c0       ?getExtendedDataIndirectType@UnDecorator@@CA?AVDName@@AAW4IndirectionKind@@AA_NH@Z 1003a4c0 f   libvcruntimed:undname.obj
 0001:00039710       ?getExternalDataType@UnDecorator@@CA?AVDName@@ABV2@@Z 1003a710 f i libvcruntimed:undname.obj
 0001:000397b0       ?getFloatingPoint@UnDecorator@@CA?AVDName@@H@Z 1003a7b0 f   libvcruntimed:undname.obj
 0001:00039960       ?getFunctionIndirectType@UnDecorator@@CA?AVDName@@ABV2@@Z 1003a960 f   libvcruntimed:undname.obj
 0001:00039e40       ?getGuardNumber@UnDecorator@@CA?AVDName@@XZ 1003ae40 f i libvcruntimed:undname.obj
 0001:00039e60       ?getLastChar@DName@@QBEDXZ 1003ae60 f i libvcruntimed:undname.obj
 0001:00039ea0       ?getLastChar@DNameStatusNode@@UBEDXZ 1003aea0 f i libvcruntimed:undname.obj
 0001:00039ed0       ?getLastChar@charNode@@UBEDXZ 1003aed0 f i libvcruntimed:undname.obj
 0001:00039ef0       ?getLastChar@pDNameNode@@UBEDXZ 1003aef0 f i libvcruntimed:undname.obj
 0001:00039f20       ?getLastChar@pairNode@@UBEDXZ 1003af20 f i libvcruntimed:undname.obj
 0001:00039f90       ?getLastChar@pcharNode@@UBEDXZ 1003af90 f i libvcruntimed:undname.obj
 0001:00039fd0       ?getLexicalFrame@UnDecorator@@CA?AVDName@@XZ 1003afd0 f i libvcruntimed:undname.obj
 0001:0003a010       ?getMemoryWithBuffer@_HeapManager@@QAEPAXI@Z 1003b010 f   libvcruntimed:undname.obj
 0001:0003a100       ?getMemoryWithoutBuffer@_HeapManager@@QAEPAXI@Z 1003b100 f   libvcruntimed:undname.obj
 0001:0003a140       ?getNoexcept@UnDecorator@@CA?AVDName@@XZ 1003b140 f   libvcruntimed:undname.obj
 0001:0003a1c0       ?getNumberOfDimensions@UnDecorator@@CAHXZ 1003b1c0 f   libvcruntimed:undname.obj
 0001:0003a2c0       ?getOperatorName@UnDecorator@@CA?AVDName@@_NPA_N@Z 1003b2c0 f i libvcruntimed:undname.obj
 0001:0003adb0       ?getPointerType@UnDecorator@@CA?AVDName@@ABV2@0@Z 1003bdb0 f i libvcruntimed:undname.obj
 0001:0003add0       ?getPointerTypeArray@UnDecorator@@CA?AVDName@@ABV2@0@Z 1003bdd0 f i libvcruntimed:undname.obj
 0001:0003adf0       ?getPrimaryDataType@UnDecorator@@CA?AVDName@@ABV2@@Z 1003bdf0 f   libvcruntimed:undname.obj
 0001:0003b280       ?getPtrRefDataType@UnDecorator@@CA?AVDName@@ABV2@H@Z 1003c280 f   libvcruntimed:undname.obj
 0001:0003b530       ?getPtrRefType@UnDecorator@@CA?AVDName@@ABV2@0W4IndirectionKind@@@Z 1003c530 f   libvcruntimed:undname.obj
 0001:0003b6b0       ?getReferenceType@UnDecorator@@CA?AVDName@@ABV2@0W4IndirectionKind@@@Z 1003c6b0 f i libvcruntimed:undname.obj
 0001:0003b6d0       ?getRestrictionSpec@UnDecorator@@CA?AVDName@@XZ 1003c6d0 f   libvcruntimed:undname.obj
 0001:0003b890       ?getReturnType@UnDecorator@@CA?AVDName@@PAV2@@Z 1003c890 f   libvcruntimed:undname.obj
 0001:0003b8e0       ?getScope@UnDecorator@@CA?AVDName@@XZ 1003c8e0 f   libvcruntimed:undname.obj
 0001:0003be70       ?getScopedName@UnDecorator@@CA?AVDName@@XZ 1003ce70 f   libvcruntimed:undname.obj
 0001:0003bfc0       ?getSignedDimension@UnDecorator@@CA?AVDName@@XZ 1003cfc0 f   libvcruntimed:undname.obj
 0001:0003c040       ?getStorageConvention@UnDecorator@@CA?AVDName@@XZ 1003d040 f i libvcruntimed:undname.obj
 0001:0003c060       ?getString@DName@@QBEPADPAD0@Z 1003d060 f i libvcruntimed:undname.obj
 0001:0003c0c0       ?getString@DName@@QBEPADPADH@Z 1003d0c0 f i libvcruntimed:undname.obj
 0001:0003c150       ?getString@DNameStatusNode@@UBEPADPAD0@Z 1003d150 f i libvcruntimed:undname.obj
 0001:0003c190       ?getString@charNode@@UBEPADPAD0@Z 1003d190 f i libvcruntimed:undname.obj
 0001:0003c1c0       ?getString@pDNameNode@@UBEPADPAD0@Z 1003d1c0 f i libvcruntimed:undname.obj
 0001:0003c200       ?getString@pairNode@@UBEPADPAD0@Z 1003d200 f i libvcruntimed:undname.obj
 0001:0003c290       ?getString@pcharNode@@UBEPADPAD0@Z 1003d290 f i libvcruntimed:undname.obj
 0001:0003c2c0       ?getStringEncoding@UnDecorator@@CA?AVDName@@W4PrefixKind@@H@Z 1003d2c0 f   libvcruntimed:undname.obj
 0001:0003c3d0       ?getStringHelper@@YAPADPADPBD1H@Z 1003d3d0 f i libvcruntimed:undname.obj
 0001:0003c410       ?getStringObject@UnDecorator@@CA?AVDName@@XZ 1003d410 f   libvcruntimed:undname.obj
 0001:0003c4c0       ?getSymbolName@UnDecorator@@CA?AVDName@@XZ 1003d4c0 f i libvcruntimed:undname.obj
 0001:0003c550       ?getTemplateArgumentList@UnDecorator@@CA?AVDName@@XZ 1003d550 f   libvcruntimed:undname.obj
 0001:0003c840       ?getTemplateName@UnDecorator@@CA?AVDName@@_N@Z 1003d840 f   libvcruntimed:undname.obj
 0001:0003ca00       ?getTemplateNonTypeArgument@UnDecorator@@CA?AVDName@@XZ 1003da00 f   libvcruntimed:undname.obj
 0001:0003cf40       ?getTemplateTypeArgument@UnDecorator@@CA?AVDName@@XZ 1003df40 f   libvcruntimed:undname.obj
 0001:0003d0e0       ?getThisType@UnDecorator@@CA?AVDName@@XZ 1003e0e0 f i libvcruntimed:undname.obj
 0001:0003d120       ?getThrowTypes@UnDecorator@@CA?AVDName@@XZ 1003e120 f   libvcruntimed:undname.obj
 0001:0003d160       ?getTypeEncoding@UnDecorator@@CAHXZ 1003e160 f i libvcruntimed:undname.obj
 0001:0003dc20       ?getUndecoratedName@UnDecorator@@QAEPADPADH@Z 1003ec20 f i libvcruntimed:undname.obj
 0001:0003dd80       ?getVCallThunkType@UnDecorator@@CA?AVDName@@XZ 1003ed80 f i libvcruntimed:undname.obj
 0001:0003de00       ?getValue@UnDecorator@@CA?AV?$optional@_K@std@@XZ 1003ee00 f   libvcruntimed:undname.obj
 0001:0003dec0       ?getValueObject@UnDecorator@@CA?AVDName@@XZ 1003eec0 f   libvcruntimed:undname.obj
 0001:0003e080       ?getVbTableType@UnDecorator@@CA?AVDName@@ABV2@@Z 1003f080 f i libvcruntimed:undname.obj
 0001:0003e0a0       ?getVdispMapType@UnDecorator@@CA?AVDName@@ABV2@@Z 1003f0a0 f i libvcruntimed:undname.obj
 0001:0003e130       ?getVfTableType@UnDecorator@@CA?AVDName@@ABV2@@Z 1003f130 f i libvcruntimed:undname.obj
 0001:0003e330       ?getZName@UnDecorator@@CA?AVDName@@_N0@Z 1003f330 f   libvcruntimed:undname.obj
 0001:0003e670       ?haveTemplateParameters@UnDecorator@@SAHXZ 1003f670 f i libvcruntimed:undname.obj
 0001:0003e680       ?isArray@DName@@QBEHXZ     1003f680 f i libvcruntimed:undname.obj
 0001:0003e6a0       ?isComArray@DName@@QBEHXZ  1003f6a0 f i libvcruntimed:undname.obj
 0001:0003e6c0       ?isEmpty@DName@@QBEHXZ     1003f6c0 f i libvcruntimed:undname.obj
 0001:0003e6f0       ?isFull@Replicator@@QBEHXZ 1003f6f0 f i libvcruntimed:undname.obj
 0001:0003e720       ?isNoTE@DName@@QBEHXZ      1003f720 f i libvcruntimed:undname.obj
 0001:0003e740       ?isPinPtr@DName@@QBEHXZ    1003f740 f i libvcruntimed:undname.obj
 0001:0003e760       ?isPtrRef@DName@@QBEHXZ    1003f760 f i libvcruntimed:undname.obj
 0001:0003e780       ?isUDC@DName@@QBEHXZ       1003f780 f i libvcruntimed:undname.obj
 0001:0003e7c0       ?isUDTThunk@DName@@QBEHXZ  1003f7c0 f i libvcruntimed:undname.obj
 0001:0003e800       ?isVCallThunk@DName@@QBEHXZ 1003f800 f i libvcruntimed:undname.obj
 0001:0003e820       ?isValid@DName@@QBEHXZ     1003f820 f i libvcruntimed:undname.obj
 0001:0003e860       ?length@DName@@QBEHXZ      1003f860 f i libvcruntimed:undname.obj
 0001:0003e8a0       ?length@DNameStatusNode@@UBEHXZ 1003f8a0 f i libvcruntimed:undname.obj
 0001:0003e8c0       ?length@charNode@@UBEHXZ   1003f8c0 f i libvcruntimed:undname.obj
 0001:0003e8d0       ?length@pDNameNode@@UBEHXZ 1003f8d0 f i libvcruntimed:undname.obj
 0001:0003e900       ?length@pairNode@@UBEHXZ   1003f900 f i libvcruntimed:undname.obj
 0001:0003e970       ?length@pcharNode@@UBEHXZ  1003f970 f i libvcruntimed:undname.obj
 0001:0003e990       ?make@DNameStatusNode@@SAPBV1@W4DNameStatus@@@Z 1003f990 f i libvcruntimed:undname.obj
 0001:0003e9c0       ?parseDecoratedName@UnDecorator@@CA?AVDName@@XZ 1003f9c0 f   libvcruntimed:undname.obj
 0001:0003eb50       ?raw_length@DNameStatusNode@@UBEHXZ 1003fb50 f i libvcruntimed:undname.obj
 0001:0003eb70       ?raw_length@charNode@@UBEHXZ 1003fb70 f i libvcruntimed:undname.obj
 0001:0003eb90       ?raw_length@pDNameNode@@UBEHXZ 1003fb90 f i libvcruntimed:undname.obj
 0001:0003eba0       ?raw_length@pairNode@@UBEHXZ 1003fba0 f i libvcruntimed:undname.obj
 0001:0003ebc0       ?raw_length@pcharNode@@UBEHXZ 1003fbc0 f i libvcruntimed:undname.obj
 0001:0003ebe0       ?setIsArray@DName@@QAEXXZ  1003fbe0 f i libvcruntimed:undname.obj
 0001:0003ec00       ?setIsComArray@DName@@QAEXXZ 1003fc00 f i libvcruntimed:undname.obj
 0001:0003ec20       ?setIsNoTE@DName@@QAEXXZ   1003fc20 f i libvcruntimed:undname.obj
 0001:0003ec40       ?setIsPinPtr@DName@@QAEXXZ 1003fc40 f i libvcruntimed:undname.obj
 0001:0003ec60       ?setIsUDC@DName@@QAEXXZ    1003fc60 f i libvcruntimed:undname.obj
 0001:0003ec90       ?setIsVCallThunk@DName@@QAEXXZ 1003fc90 f i libvcruntimed:undname.obj
 0001:0003ecb0       ?setPtrRef@DName@@QAEAAV1@XZ 1003fcb0 f i libvcruntimed:undname.obj
 0001:0003ecd0       ?status@DName@@QBE?AW4DNameStatus@@XZ 1003fcd0 f i libvcruntimed:undname.obj
 0001:0003edd0       ___unDName                 1003fdd0 f   libvcruntimed:undname.obj
 0001:0003ee00       ___unDNameEx               1003fe00 f   libvcruntimed:undname.obj
 0001:0003eed0       _unDNameGenerateCHPE       1003fed0 f   libvcruntimed:undname.obj
 0001:0003ef30       __global_unwind2           1003ff30 f   libvcruntimed:exsup.obj
 0001:0003ef96       __local_unwind2            1003ff96 f   libvcruntimed:exsup.obj
 0001:0003f01a       __abnormal_termination     1004001a f   libvcruntimed:exsup.obj
 0001:0003f040       __NLG_Notify1              10040040 f   libvcruntimed:exsup.obj
 0001:0003f04c       __NLG_Notify               1004004c f   libvcruntimed:exsup.obj
 0001:0003f063       __NLG_Dispatch             10040063     libvcruntimed:exsup.obj
 0001:0003f063       __NLG_Dispatch2            10040063     libvcruntimed:exsup.obj
 0001:0003f06b       __NLG_Call                 1004006b f   libvcruntimed:exsup.obj
 0001:0003f06d       __NLG_Return2              1004006d     libvcruntimed:exsup.obj
 0001:0003f070       ??$__crt_interlocked_exchange_pointer@UHINSTANCE__@@PAU1@@@YAPAUHINSTANCE__@@PDSAU0@QAU0@@Z 10040070 f i libvcruntimed:winapi_downlevel.obj
 0001:0003f080       ??$__crt_interlocked_exchange_pointer@UHINSTANCE__@@PAX@@YAPAUHINSTANCE__@@PDSAU0@QAX@Z 10040080 f i libvcruntimed:winapi_downlevel.obj
 0001:0003f090       ??$__crt_interlocked_exchange_pointer@XPAX@@YAPAXPDSAXQAX@Z 10040090 f i libvcruntimed:winapi_downlevel.obj
 0001:0003f0a0       ??$__crt_interlocked_read_pointer@UHINSTANCE__@@@@YAPAUHINSTANCE__@@PDSAU0@@Z 100400a0 f i libvcruntimed:winapi_downlevel.obj
 0001:0003f0c0       ??$__crt_interlocked_read_pointer@X@@YAPAXPDSAX@Z 100400c0 f i libvcruntimed:winapi_downlevel.obj
 0001:0003f490       ___vcrt_FlsAlloc           10040490 f   libvcruntimed:winapi_downlevel.obj
 0001:0003f4d0       ___vcrt_FlsFree            100404d0 f   libvcruntimed:winapi_downlevel.obj
 0001:0003f510       ___vcrt_FlsGetValue        10040510 f   libvcruntimed:winapi_downlevel.obj
 0001:0003f550       ___vcrt_FlsSetValue        10040550 f   libvcruntimed:winapi_downlevel.obj
 0001:0003f5a0       ___vcrt_InitializeCriticalSectionEx 100405a0 f   libvcruntimed:winapi_downlevel.obj
 0001:0003f620       __get_unexpected           10040620 f   libvcruntimed:unexpected.obj
 0001:0003f640       _set_unexpected            10040640 f   libvcruntimed:unexpected.obj
 0001:0003f670       _unexpected                10040670 f   libvcruntimed:unexpected.obj
 0001:0003f6b0       ?GetCurrentState@__FrameHandler3@@SAHPAUEHRegistrationNode@@PAXPBU_s_FuncInfo@@@Z 100406b0 f   libvcruntimed:ehstate.obj
 0001:0003f6e0       ?SetState@__FrameHandler3@@SAXPAUEHRegistrationNode@@PBU_s_FuncInfo@@H@Z 100406e0 f   libvcruntimed:ehstate.obj
 0001:0003f6f0       ??$?0ABV?$stream_output_adapter@D@__crt_stdio_output@@AB_KABQBDABQAU__crt_locale_pointers@@ABQAD@?$format_validation_base@DV?$stream_output_adapter@D@__crt_stdio_output@@@__crt_stdio_output@@IAE@ABV?$stream_output_adapter@D@1@AB_KABQBDABQAU__crt_locale_pointers@@ABQAD@Z 100406f0 f i libucrtd:output.obj
 0001:0003f720       ??$?0ABV?$stream_output_adapter@D@__crt_stdio_output@@AB_KABQBDABQAU__crt_locale_pointers@@ABQAD@?$positional_parameter_base@DV?$stream_output_adapter@D@__crt_stdio_output@@@__crt_stdio_output@@IAE@ABV?$stream_output_adapter@D@1@AB_KABQBDABQAU__crt_locale_pointers@@ABQAD@Z 10040720 f i libucrtd:output.obj
 0001:0003f7a0       ??$?0ABV?$stream_output_adapter@D@__crt_stdio_output@@AB_KABQBDABQAU__crt_locale_pointers@@ABQAD@?$standard_base@DV?$stream_output_adapter@D@__crt_stdio_output@@@__crt_stdio_output@@IAE@ABV?$stream_output_adapter@D@1@AB_KABQBDABQAU__crt_locale_pointers@@ABQAD@Z 100407a0 f i libucrtd:output.obj
 0001:0003f7f0       ??$?0ABV?$stream_output_adapter@_W@__crt_stdio_output@@AB_KABQB_WABQAU__crt_locale_pointers@@ABQAD@?$format_validation_base@_WV?$stream_output_adapter@_W@__crt_stdio_output@@@__crt_stdio_output@@IAE@ABV?$stream_output_adapter@_W@1@AB_KABQB_WABQAU__crt_locale_pointers@@ABQAD@Z 100407f0 f i libucrtd:output.obj
 0001:0003f820       ??$?0ABV?$stream_output_adapter@_W@__crt_stdio_output@@AB_KABQB_WABQAU__crt_locale_pointers@@ABQAD@?$positional_parameter_base@_WV?$stream_output_adapter@_W@__crt_stdio_output@@@__crt_stdio_output@@IAE@ABV?$stream_output_adapter@_W@1@AB_KABQB_WABQAU__crt_locale_pointers@@ABQAD@Z 10040820 f i libucrtd:output.obj
 0001:0003f8a0       ??$?0ABV?$stream_output_adapter@_W@__crt_stdio_output@@AB_KABQB_WABQAU__crt_locale_pointers@@ABQAD@?$standard_base@_WV?$stream_output_adapter@_W@__crt_stdio_output@@@__crt_stdio_output@@IAE@ABV?$stream_output_adapter@_W@1@AB_KABQB_WABQAU__crt_locale_pointers@@ABQAD@Z 100408a0 f i libucrtd:output.obj
 0001:0003f8f0       ??$?0ABV?$string_output_adapter@D@__crt_stdio_output@@AB_KABQBDABQAU__crt_locale_pointers@@ABQAD@?$format_validation_base@DV?$string_output_adapter@D@__crt_stdio_output@@@__crt_stdio_output@@IAE@ABV?$string_output_adapter@D@1@AB_KABQBDABQAU__crt_locale_pointers@@ABQAD@Z 100408f0 f i libucrtd:output.obj
 0001:0003f920       ??$?0ABV?$string_output_adapter@D@__crt_stdio_output@@AB_KABQBDABQAU__crt_locale_pointers@@ABQAD@?$positional_parameter_base@DV?$string_output_adapter@D@__crt_stdio_output@@@__crt_stdio_output@@IAE@ABV?$string_output_adapter@D@1@AB_KABQBDABQAU__crt_locale_pointers@@ABQAD@Z 10040920 f i libucrtd:output.obj
 0001:0003f9a0       ??$?0ABV?$string_output_adapter@D@__crt_stdio_output@@AB_KABQBDABQAU__crt_locale_pointers@@ABQAD@?$standard_base@DV?$string_output_adapter@D@__crt_stdio_output@@@__crt_stdio_output@@IAE@ABV?$string_output_adapter@D@1@AB_KABQBDABQAU__crt_locale_pointers@@ABQAD@Z 100409a0 f i libucrtd:output.obj
 0001:0003f9f0       ??$?0ABV?$string_output_adapter@_W@__crt_stdio_output@@AB_KABQB_WABQAU__crt_locale_pointers@@ABQAD@?$format_validation_base@_WV?$string_output_adapter@_W@__crt_stdio_output@@@__crt_stdio_output@@IAE@ABV?$string_output_adapter@_W@1@AB_KABQB_WABQAU__crt_locale_pointers@@ABQAD@Z 100409f0 f i libucrtd:output.obj
 0001:0003fa20       ??$?0ABV?$string_output_adapter@_W@__crt_stdio_output@@AB_KABQB_WABQAU__crt_locale_pointers@@ABQAD@?$positional_parameter_base@_WV?$string_output_adapter@_W@__crt_stdio_output@@@__crt_stdio_output@@IAE@ABV?$string_output_adapter@_W@1@AB_KABQB_WABQAU__crt_locale_pointers@@ABQAD@Z 10040a20 f i libucrtd:output.obj
 0001:0003faa0       ??$?0ABV?$string_output_adapter@_W@__crt_stdio_output@@AB_KABQB_WABQAU__crt_locale_pointers@@ABQAD@?$standard_base@_WV?$string_output_adapter@_W@__crt_stdio_output@@@__crt_stdio_output@@IAE@ABV?$string_output_adapter@_W@1@AB_KABQB_WABQAU__crt_locale_pointers@@ABQAD@Z 10040aa0 f i libucrtd:output.obj
 0001:0003ffd0       ??$__crt_interlocked_read@J@@YAJPDJ@Z 10040fd0 f i libucrtd:output.obj
 0001:00042d70       ??$count@D@formatting_buffer@__crt_stdio_output@@QBEIXZ 10043d70 f i libucrtd:output.obj
 0001:00042db0       ??$count@_W@formatting_buffer@__crt_stdio_output@@QBEIXZ 10043db0 f i libucrtd:output.obj
 0001:00042df0       ??$data@D@formatting_buffer@__crt_stdio_output@@QAEPADXZ 10043df0 f i libucrtd:output.obj
 0001:00042e30       ??$data@_W@formatting_buffer@__crt_stdio_output@@QAEPA_WXZ 10043e30 f i libucrtd:output.obj
 0001:00042e70       ??$ensure_buffer_is_big_enough@D@formatting_buffer@__crt_stdio_output@@QAE_NI@Z 10043e70 f i libucrtd:output.obj
 0001:00042f50       ??$ensure_buffer_is_big_enough@_W@formatting_buffer@__crt_stdio_output@@QAE_NI@Z 10043f50 f i libucrtd:output.obj
 0001:00043040       ??$extract_argument_from_va_list@C_J@?$positional_parameter_base@DV?$stream_output_adapter@D@__crt_stdio_output@@@__crt_stdio_output@@IAE_NAA_J@Z 10044040 f i libucrtd:output.obj
 0001:00043180       ??$extract_argument_from_va_list@C_J@?$positional_parameter_base@DV?$string_output_adapter@D@__crt_stdio_output@@@__crt_stdio_output@@IAE_NAA_J@Z 10044180 f i libucrtd:output.obj
 0001:000432c0       ??$extract_argument_from_va_list@C_J@?$positional_parameter_base@_WV?$stream_output_adapter@_W@__crt_stdio_output@@@__crt_stdio_output@@IAE_NAA_J@Z 100442c0 f i libucrtd:output.obj
 0001:00043400       ??$extract_argument_from_va_list@C_J@?$positional_parameter_base@_WV?$string_output_adapter@_W@__crt_stdio_output@@@__crt_stdio_output@@IAE_NAA_J@Z 10044400 f i libucrtd:output.obj
 0001:00043540       ??$extract_argument_from_va_list@C_J@?$standard_base@DV?$stream_output_adapter@D@__crt_stdio_output@@@__crt_stdio_output@@IAE_NAA_J@Z 10044540 f i libucrtd:output.obj
 0001:00043570       ??$extract_argument_from_va_list@C_J@?$standard_base@DV?$string_output_adapter@D@__crt_stdio_output@@@__crt_stdio_output@@IAE_NAA_J@Z 10044570 f i libucrtd:output.obj
 0001:000435a0       ??$extract_argument_from_va_list@C_J@?$standard_base@_WV?$stream_output_adapter@_W@__crt_stdio_output@@@__crt_stdio_output@@IAE_NAA_J@Z 100445a0 f i libucrtd:output.obj
 0001:000435d0       ??$extract_argument_from_va_list@C_J@?$standard_base@_WV?$string_output_adapter@_W@__crt_stdio_output@@@__crt_stdio_output@@IAE_NAA_J@Z 100445d0 f i libucrtd:output.obj
 0001:00043600       ??$extract_argument_from_va_list@E_J@?$positional_parameter_base@DV?$stream_output_adapter@D@__crt_stdio_output@@@__crt_stdio_output@@IAE_NAA_J@Z 10044600 f i libucrtd:output.obj
 0001:00043740       ??$extract_argument_from_va_list@E_J@?$positional_parameter_base@DV?$string_output_adapter@D@__crt_stdio_output@@@__crt_stdio_output@@IAE_NAA_J@Z 10044740 f i libucrtd:output.obj
 0001:00043880       ??$extract_argument_from_va_list@E_J@?$positional_parameter_base@_WV?$stream_output_adapter@_W@__crt_stdio_output@@@__crt_stdio_output@@IAE_NAA_J@Z 10044880 f i libucrtd:output.obj
 0001:000439c0       ??$extract_argument_from_va_list@E_J@?$positional_parameter_base@_WV?$string_output_adapter@_W@__crt_stdio_output@@@__crt_stdio_output@@IAE_NAA_J@Z 100449c0 f i libucrtd:output.obj
 0001:00043b00       ??$extract_argument_from_va_list@E_J@?$standard_base@DV?$stream_output_adapter@D@__crt_stdio_output@@@__crt_stdio_output@@IAE_NAA_J@Z 10044b00 f i libucrtd:output.obj
 0001:00043b30       ??$extract_argument_from_va_list@E_J@?$standard_base@DV?$string_output_adapter@D@__crt_stdio_output@@@__crt_stdio_output@@IAE_NAA_J@Z 10044b30 f i libucrtd:output.obj
 0001:00043b60       ??$extract_argument_from_va_list@E_J@?$standard_base@_WV?$stream_output_adapter@_W@__crt_stdio_output@@@__crt_stdio_output@@IAE_NAA_J@Z 10044b60 f i libucrtd:output.obj
 0001:00043b90       ??$extract_argument_from_va_list@E_J@?$standard_base@_WV?$string_output_adapter@_W@__crt_stdio_output@@@__crt_stdio_output@@IAE_NAA_J@Z 10044b90 f i libucrtd:output.obj
 0001:00043bc0       ??$extract_argument_from_va_list@F_J@?$positional_parameter_base@DV?$stream_output_adapter@D@__crt_stdio_output@@@__crt_stdio_output@@IAE_NAA_J@Z 10044bc0 f i libucrtd:output.obj
 0001:00043cf0       ??$extract_argument_from_va_list@F_J@?$positional_parameter_base@DV?$string_output_adapter@D@__crt_stdio_output@@@__crt_stdio_output@@IAE_NAA_J@Z 10044cf0 f i libucrtd:output.obj
 0001:00043e20       ??$extract_argument_from_va_list@F_J@?$positional_parameter_base@_WV?$stream_output_adapter@_W@__crt_stdio_output@@@__crt_stdio_output@@IAE_NAA_J@Z 10044e20 f i libucrtd:output.obj
 0001:00043f50       ??$extract_argument_from_va_list@F_J@?$positional_parameter_base@_WV?$string_output_adapter@_W@__crt_stdio_output@@@__crt_stdio_output@@IAE_NAA_J@Z 10044f50 f i libucrtd:output.obj
 0001:00044080       ??$extract_argument_from_va_list@F_J@?$standard_base@DV?$stream_output_adapter@D@__crt_stdio_output@@@__crt_stdio_output@@IAE_NAA_J@Z 10045080 f i libucrtd:output.obj
 0001:000440b0       ??$extract_argument_from_va_list@F_J@?$standard_base@DV?$string_output_adapter@D@__crt_stdio_output@@@__crt_stdio_output@@IAE_NAA_J@Z 100450b0 f i libucrtd:output.obj
 0001:000440e0       ??$extract_argument_from_va_list@F_J@?$standard_base@_WV?$stream_output_adapter@_W@__crt_stdio_output@@@__crt_stdio_output@@IAE_NAA_J@Z 100450e0 f i libucrtd:output.obj
 0001:00044110       ??$extract_argument_from_va_list@F_J@?$standard_base@_WV?$string_output_adapter@_W@__crt_stdio_output@@@__crt_stdio_output@@IAE_NAA_J@Z 10045110 f i libucrtd:output.obj
 0001:00044140       ??$extract_argument_from_va_list@GD@?$positional_parameter_base@DV?$stream_output_adapter@D@__crt_stdio_output@@@__crt_stdio_output@@IAE_NAAD@Z 10045140 f i libucrtd:output.obj
 0001:00044270       ??$extract_argument_from_va_list@GD@?$positional_parameter_base@DV?$string_output_adapter@D@__crt_stdio_output@@@__crt_stdio_output@@IAE_NAAD@Z 10045270 f i libucrtd:output.obj
 0001:000443a0       ??$extract_argument_from_va_list@GD@?$standard_base@DV?$stream_output_adapter@D@__crt_stdio_output@@@__crt_stdio_output@@IAE_NAAD@Z 100453a0 f i libucrtd:output.obj
 0001:000443d0       ??$extract_argument_from_va_list@GD@?$standard_base@DV?$string_output_adapter@D@__crt_stdio_output@@@__crt_stdio_output@@IAE_NAAD@Z 100453d0 f i libucrtd:output.obj
 0001:00044400       ??$extract_argument_from_va_list@G_J@?$positional_parameter_base@DV?$stream_output_adapter@D@__crt_stdio_output@@@__crt_stdio_output@@IAE_NAA_J@Z 10045400 f i libucrtd:output.obj
 0001:00044540       ??$extract_argument_from_va_list@G_J@?$positional_parameter_base@DV?$string_output_adapter@D@__crt_stdio_output@@@__crt_stdio_output@@IAE_NAA_J@Z 10045540 f i libucrtd:output.obj
 0001:00044680       ??$extract_argument_from_va_list@G_J@?$positional_parameter_base@_WV?$stream_output_adapter@_W@__crt_stdio_output@@@__crt_stdio_output@@IAE_NAA_J@Z 10045680 f i libucrtd:output.obj
 0001:000447c0       ??$extract_argument_from_va_list@G_J@?$positional_parameter_base@_WV?$string_output_adapter@_W@__crt_stdio_output@@@__crt_stdio_output@@IAE_NAA_J@Z 100457c0 f i libucrtd:output.obj
 0001:00044900       ??$extract_argument_from_va_list@G_J@?$standard_base@DV?$stream_output_adapter@D@__crt_stdio_output@@@__crt_stdio_output@@IAE_NAA_J@Z 10045900 f i libucrtd:output.obj
 0001:00044930       ??$extract_argument_from_va_list@G_J@?$standard_base@DV?$string_output_adapter@D@__crt_stdio_output@@@__crt_stdio_output@@IAE_NAA_J@Z 10045930 f i libucrtd:output.obj
 0001:00044960       ??$extract_argument_from_va_list@G_J@?$standard_base@_WV?$stream_output_adapter@_W@__crt_stdio_output@@@__crt_stdio_output@@IAE_NAA_J@Z 10045960 f i libucrtd:output.obj
 0001:00044990       ??$extract_argument_from_va_list@G_J@?$standard_base@_WV?$string_output_adapter@_W@__crt_stdio_output@@@__crt_stdio_output@@IAE_NAA_J@Z 10045990 f i libucrtd:output.obj
 0001:000449c0       ??$extract_argument_from_va_list@H_J@?$positional_parameter_base@DV?$stream_output_adapter@D@__crt_stdio_output@@@__crt_stdio_output@@IAE_NAA_J@Z 100459c0 f i libucrtd:output.obj
 0001:00044af0       ??$extract_argument_from_va_list@H_J@?$positional_parameter_base@DV?$string_output_adapter@D@__crt_stdio_output@@@__crt_stdio_output@@IAE_NAA_J@Z 10045af0 f i libucrtd:output.obj
 0001:00044c20       ??$extract_argument_from_va_list@H_J@?$positional_parameter_base@_WV?$stream_output_adapter@_W@__crt_stdio_output@@@__crt_stdio_output@@IAE_NAA_J@Z 10045c20 f i libucrtd:output.obj
 0001:00044d50       ??$extract_argument_from_va_list@H_J@?$positional_parameter_base@_WV?$string_output_adapter@_W@__crt_stdio_output@@@__crt_stdio_output@@IAE_NAA_J@Z 10045d50 f i libucrtd:output.obj
 0001:00044e80       ??$extract_argument_from_va_list@H_J@?$standard_base@DV?$stream_output_adapter@D@__crt_stdio_output@@@__crt_stdio_output@@IAE_NAA_J@Z 10045e80 f i libucrtd:output.obj
 0001:00044eb0       ??$extract_argument_from_va_list@H_J@?$standard_base@DV?$string_output_adapter@D@__crt_stdio_output@@@__crt_stdio_output@@IAE_NAA_J@Z 10045eb0 f i libucrtd:output.obj
 0001:00044ee0       ??$extract_argument_from_va_list@H_J@?$standard_base@_WV?$stream_output_adapter@_W@__crt_stdio_output@@@__crt_stdio_output@@IAE_NAA_J@Z 10045ee0 f i libucrtd:output.obj
 0001:00044f10       ??$extract_argument_from_va_list@H_J@?$standard_base@_WV?$string_output_adapter@_W@__crt_stdio_output@@@__crt_stdio_output@@IAE_NAA_J@Z 10045f10 f i libucrtd:output.obj
 0001:00044f40       ??$extract_argument_from_va_list@I_J@?$positional_parameter_base@DV?$stream_output_adapter@D@__crt_stdio_output@@@__crt_stdio_output@@IAE_NAA_J@Z 10045f40 f i libucrtd:output.obj
 0001:00045070       ??$extract_argument_from_va_list@I_J@?$positional_parameter_base@DV?$string_output_adapter@D@__crt_stdio_output@@@__crt_stdio_output@@IAE_NAA_J@Z 10046070 f i libucrtd:output.obj
 0001:000451a0       ??$extract_argument_from_va_list@I_J@?$positional_parameter_base@_WV?$stream_output_adapter@_W@__crt_stdio_output@@@__crt_stdio_output@@IAE_NAA_J@Z 100461a0 f i libucrtd:output.obj
 0001:000452d0       ??$extract_argument_from_va_list@I_J@?$positional_parameter_base@_WV?$string_output_adapter@_W@__crt_stdio_output@@@__crt_stdio_output@@IAE_NAA_J@Z 100462d0 f i libucrtd:output.obj
 0001:00045400       ??$extract_argument_from_va_list@I_J@?$standard_base@DV?$stream_output_adapter@D@__crt_stdio_output@@@__crt_stdio_output@@IAE_NAA_J@Z 10046400 f i libucrtd:output.obj
 0001:00045430       ??$extract_argument_from_va_list@I_J@?$standard_base@DV?$string_output_adapter@D@__crt_stdio_output@@@__crt_stdio_output@@IAE_NAA_J@Z 10046430 f i libucrtd:output.obj
 0001:00045460       ??$extract_argument_from_va_list@I_J@?$standard_base@_WV?$stream_output_adapter@_W@__crt_stdio_output@@@__crt_stdio_output@@IAE_NAA_J@Z 10046460 f i libucrtd:output.obj
 0001:00045490       ??$extract_argument_from_va_list@I_J@?$standard_base@_WV?$string_output_adapter@_W@__crt_stdio_output@@@__crt_stdio_output@@IAE_NAA_J@Z 10046490 f i libucrtd:output.obj
 0001:000454c0       ??$extract_argument_from_va_list@PADPAD@?$positional_parameter_base@DV?$stream_output_adapter@D@__crt_stdio_output@@@__crt_stdio_output@@IAE_NAAPAD@Z 100464c0 f i libucrtd:output.obj
 0001:000455f0       ??$extract_argument_from_va_list@PADPAD@?$positional_parameter_base@DV?$string_output_adapter@D@__crt_stdio_output@@@__crt_stdio_output@@IAE_NAAPAD@Z 100465f0 f i libucrtd:output.obj
 0001:00045720       ??$extract_argument_from_va_list@PADPAD@?$positional_parameter_base@_WV?$stream_output_adapter@_W@__crt_stdio_output@@@__crt_stdio_output@@IAE_NAAPAD@Z 10046720 f i libucrtd:output.obj
 0001:00045850       ??$extract_argument_from_va_list@PADPAD@?$positional_parameter_base@_WV?$string_output_adapter@_W@__crt_stdio_output@@@__crt_stdio_output@@IAE_NAAPAD@Z 10046850 f i libucrtd:output.obj
 0001:00045980       ??$extract_argument_from_va_list@PADPAD@?$standard_base@DV?$stream_output_adapter@D@__crt_stdio_output@@@__crt_stdio_output@@IAE_NAAPAD@Z 10046980 f i libucrtd:output.obj
 0001:000459b0       ??$extract_argument_from_va_list@PADPAD@?$standard_base@DV?$string_output_adapter@D@__crt_stdio_output@@@__crt_stdio_output@@IAE_NAAPAD@Z 100469b0 f i libucrtd:output.obj
 0001:000459e0       ??$extract_argument_from_va_list@PADPAD@?$standard_base@_WV?$stream_output_adapter@_W@__crt_stdio_output@@@__crt_stdio_output@@IAE_NAAPAD@Z 100469e0 f i libucrtd:output.obj
 0001:00045a10       ??$extract_argument_from_va_list@PADPAD@?$standard_base@_WV?$string_output_adapter@_W@__crt_stdio_output@@@__crt_stdio_output@@IAE_NAAPAD@Z 10046a10 f i libucrtd:output.obj
 0001:00045a40       ??$extract_argument_from_va_list@PAUansi_string@?1??type_case_Z@?$output_processor@DV?$stream_output_adapter@D@__crt_stdio_output@@V?$format_validation_base@DV?$stream_output_adapter@D@__crt_stdio_output@@@2@@__crt_stdio_output@@AAE_NXZ@PAU1?1??234@AAE_NXZ@@?$standard_base@DV?$stream_output_adapter@D@__crt_stdio_output@@@__crt_stdio_output@@IAE_NAAPAUansi_string@?1??type_case_Z@?$output_processor@DV?$stream_output_adapter@D@__crt_stdio_output@@V?$format_validation_base@DV?$stream_output_adapter@D@__crt_stdio_output@@@2@@1@AAE_NXZ@@Z 10046a40 f i libucrtd:output.obj
 0001:00045a70       ??$extract_argument_from_va_list@PAUansi_string@?1??type_case_Z@?$output_processor@DV?$stream_output_adapter@D@__crt_stdio_output@@V?$positional_parameter_base@DV?$stream_output_adapter@D@__crt_stdio_output@@@2@@__crt_stdio_output@@AAE_NXZ@PAU1?1??234@AAE_NXZ@@?$positional_parameter_base@DV?$stream_output_adapter@D@__crt_stdio_output@@@__crt_stdio_output@@IAE_NAAPAUansi_string@?1??type_case_Z@?$output_processor@DV?$stream_output_adapter@D@__crt_stdio_output@@V?$positional_parameter_base@DV?$stream_output_adapter@D@__crt_stdio_output@@@2@@1@AAE_NXZ@@Z 10046a70 f i libucrtd:output.obj
 0001:00045ba0       ??$extract_argument_from_va_list@PAUansi_string@?1??type_case_Z@?$output_processor@DV?$stream_output_adapter@D@__crt_stdio_output@@V?$positional_parameter_base@DV?$stream_output_adapter@D@__crt_stdio_output@@@2@@__crt_stdio_output@@AAE_NXZ@PAU1?1??234@AAE_NXZ@@?$standard_base@DV?$stream_output_adapter@D@__crt_stdio_output@@@__crt_stdio_output@@IAE_NAAPAUansi_string@?1??type_case_Z@?$output_processor@DV?$stream_output_adapter@D@__crt_stdio_output@@V?$positional_parameter_base@DV?$stream_output_adapter@D@__crt_stdio_output@@@2@@1@AAE_NXZ@@Z 10046ba0 f i libucrtd:output.obj
 0001:00045bd0       ??$extract_argument_from_va_list@PAUansi_string@?1??type_case_Z@?$output_processor@DV?$stream_output_adapter@D@__crt_stdio_output@@V?$standard_base@DV?$stream_output_adapter@D@__crt_stdio_output@@@2@@__crt_stdio_output@@AAE_NXZ@PAU1?1??234@AAE_NXZ@@?$standard_base@DV?$stream_output_adapter@D@__crt_stdio_output@@@__crt_stdio_output@@IAE_NAAPAUansi_string@?1??type_case_Z@?$output_processor@DV?$stream_output_adapter@D@__crt_stdio_output@@V?$standard_base@DV?$stream_output_adapter@D@__crt_stdio_output@@@2@@1@AAE_NXZ@@Z 10046bd0 f i libucrtd:output.obj
 0001:00045c00       ??$extract_argument_from_va_list@PAUansi_string@?1??type_case_Z@?$output_processor@DV?$string_output_adapter@D@__crt_stdio_output@@V?$format_validation_base@DV?$string_output_adapter@D@__crt_stdio_output@@@2@@__crt_stdio_output@@AAE_NXZ@PAU1?1??234@AAE_NXZ@@?$standard_base@DV?$string_output_adapter@D@__crt_stdio_output@@@__crt_stdio_output@@IAE_NAAPAUansi_string@?1??type_case_Z@?$output_processor@DV?$string_output_adapter@D@__crt_stdio_output@@V?$format_validation_base@DV?$string_output_adapter@D@__crt_stdio_output@@@2@@1@AAE_NXZ@@Z 10046c00 f i libucrtd:output.obj
 0001:00045c30       ??$extract_argument_from_va_list@PAUansi_string@?1??type_case_Z@?$output_processor@DV?$string_output_adapter@D@__crt_stdio_output@@V?$positional_parameter_base@DV?$string_output_adapter@D@__crt_stdio_output@@@2@@__crt_stdio_output@@AAE_NXZ@PAU1?1??234@AAE_NXZ@@?$positional_parameter_base@DV?$string_output_adapter@D@__crt_stdio_output@@@__crt_stdio_output@@IAE_NAAPAUansi_string@?1??type_case_Z@?$output_processor@DV?$string_output_adapter@D@__crt_stdio_output@@V?$positional_parameter_base@DV?$string_output_adapter@D@__crt_stdio_output@@@2@@1@AAE_NXZ@@Z 10046c30 f i libucrtd:output.obj
 0001:00045d60       ??$extract_argument_from_va_list@PAUansi_string@?1??type_case_Z@?$output_processor@DV?$string_output_adapter@D@__crt_stdio_output@@V?$positional_parameter_base@DV?$string_output_adapter@D@__crt_stdio_output@@@2@@__crt_stdio_output@@AAE_NXZ@PAU1?1??234@AAE_NXZ@@?$standard_base@DV?$string_output_adapter@D@__crt_stdio_output@@@__crt_stdio_output@@IAE_NAAPAUansi_string@?1??type_case_Z@?$output_processor@DV?$string_output_adapter@D@__crt_stdio_output@@V?$positional_parameter_base@DV?$string_output_adapter@D@__crt_stdio_output@@@2@@1@AAE_NXZ@@Z 10046d60 f i libucrtd:output.obj
 0001:00045d90       ??$extract_argument_from_va_list@PAUansi_string@?1??type_case_Z@?$output_processor@DV?$string_output_adapter@D@__crt_stdio_output@@V?$standard_base@DV?$string_output_adapter@D@__crt_stdio_output@@@2@@__crt_stdio_output@@AAE_NXZ@PAU1?1??234@AAE_NXZ@@?$standard_base@DV?$string_output_adapter@D@__crt_stdio_output@@@__crt_stdio_output@@IAE_NAAPAUansi_string@?1??type_case_Z@?$output_processor@DV?$string_output_adapter@D@__crt_stdio_output@@V?$standard_base@DV?$string_output_adapter@D@__crt_stdio_output@@@2@@1@AAE_NXZ@@Z 10046d90 f i libucrtd:output.obj
 0001:00045dc0       ??$extract_argument_from_va_list@PAUansi_string@?1??type_case_Z@?$output_processor@_WV?$stream_output_adapter@_W@__crt_stdio_output@@V?$format_validation_base@_WV?$stream_output_adapter@_W@__crt_stdio_output@@@2@@__crt_stdio_output@@AAE_NXZ@PAU1?1??234@AAE_NXZ@@?$standard_base@_WV?$stream_output_adapter@_W@__crt_stdio_output@@@__crt_stdio_output@@IAE_NAAPAUansi_string@?1??type_case_Z@?$output_processor@_WV?$stream_output_adapter@_W@__crt_stdio_output@@V?$format_validation_base@_WV?$stream_output_adapter@_W@__crt_stdio_output@@@2@@1@AAE_NXZ@@Z 10046dc0 f i libucrtd:output.obj
 0001:00045df0       ??$extract_argument_from_va_list@PAUansi_string@?1??type_case_Z@?$output_processor@_WV?$stream_output_adapter@_W@__crt_stdio_output@@V?$positional_parameter_base@_WV?$stream_output_adapter@_W@__crt_stdio_output@@@2@@__crt_stdio_output@@AAE_NXZ@PAU1?1??234@AAE_NXZ@@?$positional_parameter_base@_WV?$stream_output_adapter@_W@__crt_stdio_output@@@__crt_stdio_output@@IAE_NAAPAUansi_string@?1??type_case_Z@?$output_processor@_WV?$stream_output_adapter@_W@__crt_stdio_output@@V?$positional_parameter_base@_WV?$stream_output_adapter@_W@__crt_stdio_output@@@2@@1@AAE_NXZ@@Z 10046df0 f i libucrtd:output.obj
 0001:00045f20       ??$extract_argument_from_va_list@PAUansi_string@?1??type_case_Z@?$output_processor@_WV?$stream_output_adapter@_W@__crt_stdio_output@@V?$positional_parameter_base@_WV?$stream_output_adapter@_W@__crt_stdio_output@@@2@@__crt_stdio_output@@AAE_NXZ@PAU1?1??234@AAE_NXZ@@?$standard_base@_WV?$stream_output_adapter@_W@__crt_stdio_output@@@__crt_stdio_output@@IAE_NAAPAUansi_string@?1??type_case_Z@?$output_processor@_WV?$stream_output_adapter@_W@__crt_stdio_output@@V?$positional_parameter_base@_WV?$stream_output_adapter@_W@__crt_stdio_output@@@2@@1@AAE_NXZ@@Z 10046f20 f i libucrtd:output.obj
 0001:00045f50       ??$extract_argument_from_va_list@PAUansi_string@?1??type_case_Z@?$output_processor@_WV?$stream_output_adapter@_W@__crt_stdio_output@@V?$standard_base@_WV?$stream_output_adapter@_W@__crt_stdio_output@@@2@@__crt_stdio_output@@AAE_NXZ@PAU1?1??234@AAE_NXZ@@?$standard_base@_WV?$stream_output_adapter@_W@__crt_stdio_output@@@__crt_stdio_output@@IAE_NAAPAUansi_string@?1??type_case_Z@?$output_processor@_WV?$stream_output_adapter@_W@__crt_stdio_output@@V?$standard_base@_WV?$stream_output_adapter@_W@__crt_stdio_output@@@2@@1@AAE_NXZ@@Z 10046f50 f i libucrtd:output.obj
 0001:00045f80       ??$extract_argument_from_va_list@PAUansi_string@?1??type_case_Z@?$output_processor@_WV?$string_output_adapter@_W@__crt_stdio_output@@V?$format_validation_base@_WV?$string_output_adapter@_W@__crt_stdio_output@@@2@@__crt_stdio_output@@AAE_NXZ@PAU1?1??234@AAE_NXZ@@?$standard_base@_WV?$string_output_adapter@_W@__crt_stdio_output@@@__crt_stdio_output@@IAE_NAAPAUansi_string@?1??type_case_Z@?$output_processor@_WV?$string_output_adapter@_W@__crt_stdio_output@@V?$format_validation_base@_WV?$string_output_adapter@_W@__crt_stdio_output@@@2@@1@AAE_NXZ@@Z 10046f80 f i libucrtd:output.obj
 0001:00045fb0       ??$extract_argument_from_va_list@PAUansi_string@?1??type_case_Z@?$output_processor@_WV?$string_output_adapter@_W@__crt_stdio_output@@V?$positional_parameter_base@_WV?$string_output_adapter@_W@__crt_stdio_output@@@2@@__crt_stdio_output@@AAE_NXZ@PAU1?1??234@AAE_NXZ@@?$positional_parameter_base@_WV?$string_output_adapter@_W@__crt_stdio_output@@@__crt_stdio_output@@IAE_NAAPAUansi_string@?1??type_case_Z@?$output_processor@_WV?$string_output_adapter@_W@__crt_stdio_output@@V?$positional_parameter_base@_WV?$string_output_adapter@_W@__crt_stdio_output@@@2@@1@AAE_NXZ@@Z 10046fb0 f i libucrtd:output.obj
 0001:000460e0       ??$extract_argument_from_va_list@PAUansi_string@?1??type_case_Z@?$output_processor@_WV?$string_output_adapter@_W@__crt_stdio_output@@V?$positional_parameter_base@_WV?$string_output_adapter@_W@__crt_stdio_output@@@2@@__crt_stdio_output@@AAE_NXZ@PAU1?1??234@AAE_NXZ@@?$standard_base@_WV?$string_output_adapter@_W@__crt_stdio_output@@@__crt_stdio_output@@IAE_NAAPAUansi_string@?1??type_case_Z@?$output_processor@_WV?$string_output_adapter@_W@__crt_stdio_output@@V?$positional_parameter_base@_WV?$string_output_adapter@_W@__crt_stdio_output@@@2@@1@AAE_NXZ@@Z 100470e0 f i libucrtd:output.obj
 0001:00046110       ??$extract_argument_from_va_list@PAUansi_string@?1??type_case_Z@?$output_processor@_WV?$string_output_adapter@_W@__crt_stdio_output@@V?$standard_base@_WV?$string_output_adapter@_W@__crt_stdio_output@@@2@@__crt_stdio_output@@AAE_NXZ@PAU1?1??234@AAE_NXZ@@?$standard_base@_WV?$string_output_adapter@_W@__crt_stdio_output@@@__crt_stdio_output@@IAE_NAAPAUansi_string@?1??type_case_Z@?$output_processor@_WV?$string_output_adapter@_W@__crt_stdio_output@@V?$standard_base@_WV?$string_output_adapter@_W@__crt_stdio_output@@@2@@1@AAE_NXZ@@Z 10047110 f i libucrtd:output.obj
 0001:00046140       ??$extract_argument_from_va_list@PAXPAX@?$positional_parameter_base@DV?$stream_output_adapter@D@__crt_stdio_output@@@__crt_stdio_output@@IAE_NAAPAX@Z 10047140 f i libucrtd:output.obj
 0001:00046270       ??$extract_argument_from_va_list@PAXPAX@?$positional_parameter_base@DV?$string_output_adapter@D@__crt_stdio_output@@@__crt_stdio_output@@IAE_NAAPAX@Z 10047270 f i libucrtd:output.obj
 0001:000463a0       ??$extract_argument_from_va_list@PAXPAX@?$positional_parameter_base@_WV?$stream_output_adapter@_W@__crt_stdio_output@@@__crt_stdio_output@@IAE_NAAPAX@Z 100473a0 f i libucrtd:output.obj
 0001:000464d0       ??$extract_argument_from_va_list@PAXPAX@?$positional_parameter_base@_WV?$string_output_adapter@_W@__crt_stdio_output@@@__crt_stdio_output@@IAE_NAAPAX@Z 100474d0 f i libucrtd:output.obj
 0001:00046600       ??$extract_argument_from_va_list@PAXPAX@?$standard_base@DV?$stream_output_adapter@D@__crt_stdio_output@@@__crt_stdio_output@@IAE_NAAPAX@Z 10047600 f i libucrtd:output.obj
 0001:00046630       ??$extract_argument_from_va_list@PAXPAX@?$standard_base@DV?$string_output_adapter@D@__crt_stdio_output@@@__crt_stdio_output@@IAE_NAAPAX@Z 10047630 f i libucrtd:output.obj
 0001:00046660       ??$extract_argument_from_va_list@PAXPAX@?$standard_base@_WV?$stream_output_adapter@_W@__crt_stdio_output@@@__crt_stdio_output@@IAE_NAAPAX@Z 10047660 f i libucrtd:output.obj
 0001:00046690       ??$extract_argument_from_va_list@PAXPAX@?$standard_base@_WV?$string_output_adapter@_W@__crt_stdio_output@@@__crt_stdio_output@@IAE_NAAPAX@Z 10047690 f i libucrtd:output.obj
 0001:000466c0       ??$extract_argument_from_va_list@U_CRT_DOUBLE@@U1@@?$positional_parameter_base@DV?$stream_output_adapter@D@__crt_stdio_output@@@__crt_stdio_output@@IAE_NAAU_CRT_DOUBLE@@@Z 100476c0 f i libucrtd:output.obj
 0001:00046820       ??$extract_argument_from_va_list@U_CRT_DOUBLE@@U1@@?$positional_parameter_base@DV?$string_output_adapter@D@__crt_stdio_output@@@__crt_stdio_output@@IAE_NAAU_CRT_DOUBLE@@@Z 10047820 f i libucrtd:output.obj
 0001:00046980       ??$extract_argument_from_va_list@U_CRT_DOUBLE@@U1@@?$positional_parameter_base@_WV?$stream_output_adapter@_W@__crt_stdio_output@@@__crt_stdio_output@@IAE_NAAU_CRT_DOUBLE@@@Z 10047980 f i libucrtd:output.obj
 0001:00046ae0       ??$extract_argument_from_va_list@U_CRT_DOUBLE@@U1@@?$positional_parameter_base@_WV?$string_output_adapter@_W@__crt_stdio_output@@@__crt_stdio_output@@IAE_NAAU_CRT_DOUBLE@@@Z 10047ae0 f i libucrtd:output.obj
 0001:00046c40       ??$extract_argument_from_va_list@U_CRT_DOUBLE@@U1@@?$standard_base@DV?$stream_output_adapter@D@__crt_stdio_output@@@__crt_stdio_output@@IAE_NAAU_CRT_DOUBLE@@@Z 10047c40 f i libucrtd:output.obj
 0001:00046c90       ??$extract_argument_from_va_list@U_CRT_DOUBLE@@U1@@?$standard_base@DV?$string_output_adapter@D@__crt_stdio_output@@@__crt_stdio_output@@IAE_NAAU_CRT_DOUBLE@@@Z 10047c90 f i libucrtd:output.obj
 0001:00046ce0       ??$extract_argument_from_va_list@U_CRT_DOUBLE@@U1@@?$standard_base@_WV?$stream_output_adapter@_W@__crt_stdio_output@@@__crt_stdio_output@@IAE_NAAU_CRT_DOUBLE@@@Z 10047ce0 f i libucrtd:output.obj
 0001:00046d30       ??$extract_argument_from_va_list@U_CRT_DOUBLE@@U1@@?$standard_base@_WV?$string_output_adapter@_W@__crt_stdio_output@@@__crt_stdio_output@@IAE_NAAU_CRT_DOUBLE@@@Z 10047d30 f i libucrtd:output.obj
 0001:00046d80       ??$extract_argument_from_va_list@_J_J@?$positional_parameter_base@DV?$stream_output_adapter@D@__crt_stdio_output@@@__crt_stdio_output@@IAE_NAA_J@Z 10047d80 f i libucrtd:output.obj
 0001:00046eb0       ??$extract_argument_from_va_list@_J_J@?$positional_parameter_base@DV?$string_output_adapter@D@__crt_stdio_output@@@__crt_stdio_output@@IAE_NAA_J@Z 10047eb0 f i libucrtd:output.obj
 0001:00046fe0       ??$extract_argument_from_va_list@_J_J@?$positional_parameter_base@_WV?$stream_output_adapter@_W@__crt_stdio_output@@@__crt_stdio_output@@IAE_NAA_J@Z 10047fe0 f i libucrtd:output.obj
 0001:00047110       ??$extract_argument_from_va_list@_J_J@?$positional_parameter_base@_WV?$string_output_adapter@_W@__crt_stdio_output@@@__crt_stdio_output@@IAE_NAA_J@Z 10048110 f i libucrtd:output.obj
 0001:00047240       ??$extract_argument_from_va_list@_J_J@?$standard_base@DV?$stream_output_adapter@D@__crt_stdio_output@@@__crt_stdio_output@@IAE_NAA_J@Z 10048240 f i libucrtd:output.obj
 0001:00047270       ??$extract_argument_from_va_list@_J_J@?$standard_base@DV?$string_output_adapter@D@__crt_stdio_output@@@__crt_stdio_output@@IAE_NAA_J@Z 10048270 f i libucrtd:output.obj
 0001:000472a0       ??$extract_argument_from_va_list@_J_J@?$standard_base@_WV?$stream_output_adapter@_W@__crt_stdio_output@@@__crt_stdio_output@@IAE_NAA_J@Z 100482a0 f i libucrtd:output.obj
 0001:000472d0       ??$extract_argument_from_va_list@_J_J@?$standard_base@_WV?$string_output_adapter@_W@__crt_stdio_output@@@__crt_stdio_output@@IAE_NAA_J@Z 100482d0 f i libucrtd:output.obj
 0001:00047300       ??$extract_argument_from_va_list@_K_J@?$positional_parameter_base@DV?$stream_output_adapter@D@__crt_stdio_output@@@__crt_stdio_output@@IAE_NAA_J@Z 10048300 f i libucrtd:output.obj
 0001:00047430       ??$extract_argument_from_va_list@_K_J@?$positional_parameter_base@DV?$string_output_adapter@D@__crt_stdio_output@@@__crt_stdio_output@@IAE_NAA_J@Z 10048430 f i libucrtd:output.obj
 0001:00047560       ??$extract_argument_from_va_list@_K_J@?$positional_parameter_base@_WV?$stream_output_adapter@_W@__crt_stdio_output@@@__crt_stdio_output@@IAE_NAA_J@Z 10048560 f i libucrtd:output.obj
 0001:00047690       ??$extract_argument_from_va_list@_K_J@?$positional_parameter_base@_WV?$string_output_adapter@_W@__crt_stdio_output@@@__crt_stdio_output@@IAE_NAA_J@Z 10048690 f i libucrtd:output.obj
 0001:000477c0       ??$extract_argument_from_va_list@_K_J@?$standard_base@DV?$stream_output_adapter@D@__crt_stdio_output@@@__crt_stdio_output@@IAE_NAA_J@Z 100487c0 f i libucrtd:output.obj
 0001:000477f0       ??$extract_argument_from_va_list@_K_J@?$standard_base@DV?$string_output_adapter@D@__crt_stdio_output@@@__crt_stdio_output@@IAE_NAA_J@Z 100487f0 f i libucrtd:output.obj
 0001:00047820       ??$extract_argument_from_va_list@_K_J@?$standard_base@_WV?$stream_output_adapter@_W@__crt_stdio_output@@@__crt_stdio_output@@IAE_NAA_J@Z 10048820 f i libucrtd:output.obj
 0001:00047850       ??$extract_argument_from_va_list@_K_J@?$standard_base@_WV?$string_output_adapter@_W@__crt_stdio_output@@@__crt_stdio_output@@IAE_NAA_J@Z 10048850 f i libucrtd:output.obj
 0001:00047880       ??$extract_argument_from_va_list@_W_W@?$positional_parameter_base@DV?$stream_output_adapter@D@__crt_stdio_output@@@__crt_stdio_output@@IAE_NAA_W@Z 10048880 f i libucrtd:output.obj
 0001:000479b0       ??$extract_argument_from_va_list@_W_W@?$positional_parameter_base@DV?$string_output_adapter@D@__crt_stdio_output@@@__crt_stdio_output@@IAE_NAA_W@Z 100489b0 f i libucrtd:output.obj
 0001:00047ae0       ??$extract_argument_from_va_list@_W_W@?$positional_parameter_base@_WV?$stream_output_adapter@_W@__crt_stdio_output@@@__crt_stdio_output@@IAE_NAA_W@Z 10048ae0 f i libucrtd:output.obj
 0001:00047c10       ??$extract_argument_from_va_list@_W_W@?$positional_parameter_base@_WV?$string_output_adapter@_W@__crt_stdio_output@@@__crt_stdio_output@@IAE_NAA_W@Z 10048c10 f i libucrtd:output.obj
 0001:00047d40       ??$extract_argument_from_va_list@_W_W@?$standard_base@DV?$stream_output_adapter@D@__crt_stdio_output@@@__crt_stdio_output@@IAE_NAA_W@Z 10048d40 f i libucrtd:output.obj
 0001:00047d70       ??$extract_argument_from_va_list@_W_W@?$standard_base@DV?$string_output_adapter@D@__crt_stdio_output@@@__crt_stdio_output@@IAE_NAA_W@Z 10048d70 f i libucrtd:output.obj
 0001:00047da0       ??$extract_argument_from_va_list@_W_W@?$standard_base@_WV?$stream_output_adapter@_W@__crt_stdio_output@@@__crt_stdio_output@@IAE_NAA_W@Z 10048da0 f i libucrtd:output.obj
 0001:00047dd0       ??$extract_argument_from_va_list@_W_W@?$standard_base@_WV?$string_output_adapter@_W@__crt_stdio_output@@@__crt_stdio_output@@IAE_NAA_W@Z 10048dd0 f i libucrtd:output.obj
 0001:00047e00       ??$get_parameter_type@D@?$positional_parameter_base@DV?$stream_output_adapter@D@__crt_stdio_output@@@__crt_stdio_output@@CA?AW4parameter_type@01@PAD@Z 10048e00 f i libucrtd:output.obj
 0001:00047e10       ??$get_parameter_type@D@?$positional_parameter_base@DV?$string_output_adapter@D@__crt_stdio_output@@@__crt_stdio_output@@CA?AW4parameter_type@01@PAD@Z 10048e10 f i libucrtd:output.obj
 0001:00047e20       ??$get_parameter_type@D@?$positional_parameter_base@_WV?$stream_output_adapter@_W@__crt_stdio_output@@@__crt_stdio_output@@CA?AW4parameter_type@01@PAD@Z 10048e20 f i libucrtd:output.obj
 0001:00047e30       ??$get_parameter_type@D@?$positional_parameter_base@_WV?$string_output_adapter@_W@__crt_stdio_output@@@__crt_stdio_output@@CA?AW4parameter_type@01@PAD@Z 10048e30 f i libucrtd:output.obj
 0001:00047e40       ??$get_parameter_type@Uansi_string@?1??type_case_Z@?$output_processor@DV?$stream_output_adapter@D@__crt_stdio_output@@V?$positional_parameter_base@DV?$stream_output_adapter@D@__crt_stdio_output@@@2@@__crt_stdio_output@@AAE_NXZ@@?$positional_parameter_base@DV?$stream_output_adapter@D@__crt_stdio_output@@@__crt_stdio_output@@CA?AW4parameter_type@01@PAUansi_string@?1??type_case_Z@?$output_processor@DV?$stream_output_adapter@D@__crt_stdio_output@@V?$positional_parameter_base@DV?$stream_output_adapter@D@__crt_stdio_output@@@2@@1@AAE_NXZ@@Z 10048e40 f i libucrtd:output.obj
 0001:00047e50       ??$get_parameter_type@Uansi_string@?1??type_case_Z@?$output_processor@DV?$string_output_adapter@D@__crt_stdio_output@@V?$positional_parameter_base@DV?$string_output_adapter@D@__crt_stdio_output@@@2@@__crt_stdio_output@@AAE_NXZ@@?$positional_parameter_base@DV?$string_output_adapter@D@__crt_stdio_output@@@__crt_stdio_output@@CA?AW4parameter_type@01@PAUansi_string@?1??type_case_Z@?$output_processor@DV?$string_output_adapter@D@__crt_stdio_output@@V?$positional_parameter_base@DV?$string_output_adapter@D@__crt_stdio_output@@@2@@1@AAE_NXZ@@Z 10048e50 f i libucrtd:output.obj
 0001:00047e60       ??$get_parameter_type@Uansi_string@?1??type_case_Z@?$output_processor@_WV?$stream_output_adapter@_W@__crt_stdio_output@@V?$positional_parameter_base@_WV?$stream_output_adapter@_W@__crt_stdio_output@@@2@@__crt_stdio_output@@AAE_NXZ@@?$positional_parameter_base@_WV?$stream_output_adapter@_W@__crt_stdio_output@@@__crt_stdio_output@@CA?AW4parameter_type@01@PAUansi_string@?1??type_case_Z@?$output_processor@_WV?$stream_output_adapter@_W@__crt_stdio_output@@V?$positional_parameter_base@_WV?$stream_output_adapter@_W@__crt_stdio_output@@@2@@1@AAE_NXZ@@Z 10048e60 f i libucrtd:output.obj
 0001:00047e70       ??$get_parameter_type@Uansi_string@?1??type_case_Z@?$output_processor@_WV?$string_output_adapter@_W@__crt_stdio_output@@V?$positional_parameter_base@_WV?$string_output_adapter@_W@__crt_stdio_output@@@2@@__crt_stdio_output@@AAE_NXZ@@?$positional_parameter_base@_WV?$string_output_adapter@_W@__crt_stdio_output@@@__crt_stdio_output@@CA?AW4parameter_type@01@PAUansi_string@?1??type_case_Z@?$output_processor@_WV?$string_output_adapter@_W@__crt_stdio_output@@V?$positional_parameter_base@_WV?$string_output_adapter@_W@__crt_stdio_output@@@2@@1@AAE_NXZ@@Z 10048e70 f i libucrtd:output.obj
 0001:00047e80       ??$get_parameter_type@X@?$positional_parameter_base@DV?$stream_output_adapter@D@__crt_stdio_output@@@__crt_stdio_output@@CA?AW4parameter_type@01@PAX@Z 10048e80 f i libucrtd:output.obj
 0001:00047e90       ??$get_parameter_type@X@?$positional_parameter_base@DV?$string_output_adapter@D@__crt_stdio_output@@@__crt_stdio_output@@CA?AW4parameter_type@01@PAX@Z 10048e90 f i libucrtd:output.obj
 0001:00047ea0       ??$get_parameter_type@X@?$positional_parameter_base@_WV?$stream_output_adapter@_W@__crt_stdio_output@@@__crt_stdio_output@@CA?AW4parameter_type@01@PAX@Z 10048ea0 f i libucrtd:output.obj
 0001:00047eb0       ??$get_parameter_type@X@?$positional_parameter_base@_WV?$string_output_adapter@_W@__crt_stdio_output@@@__crt_stdio_output@@CA?AW4parameter_type@01@PAX@Z 10048eb0 f i libucrtd:output.obj
 0001:00047ec0       ??$is_character_specifier@D@?$positional_parameter_base@DV?$stream_output_adapter@D@__crt_stdio_output@@@__crt_stdio_output@@CA_ND@Z 10048ec0 f i libucrtd:output.obj
 0001:00047ef0       ??$is_character_specifier@D@?$positional_parameter_base@DV?$string_output_adapter@D@__crt_stdio_output@@@__crt_stdio_output@@CA_ND@Z 10048ef0 f i libucrtd:output.obj
 0001:00047f20       ??$is_character_specifier@_W@?$positional_parameter_base@_WV?$stream_output_adapter@_W@__crt_stdio_output@@@__crt_stdio_output@@CA_N_W@Z 10048f20 f i libucrtd:output.obj
 0001:00047f50       ??$is_character_specifier@_W@?$positional_parameter_base@_WV?$string_output_adapter@_W@__crt_stdio_output@@@__crt_stdio_output@@CA_N_W@Z 10048f50 f i libucrtd:output.obj
 0001:00047f80       ??$is_integral_specifier@D@?$positional_parameter_base@DV?$stream_output_adapter@D@__crt_stdio_output@@@__crt_stdio_output@@CA_ND@Z 10048f80 f i libucrtd:output.obj
 0001:00047fe0       ??$is_integral_specifier@D@?$positional_parameter_base@DV?$string_output_adapter@D@__crt_stdio_output@@@__crt_stdio_output@@CA_ND@Z 10048fe0 f i libucrtd:output.obj
 0001:00048040       ??$is_integral_specifier@_W@?$positional_parameter_base@_WV?$stream_output_adapter@_W@__crt_stdio_output@@@__crt_stdio_output@@CA_N_W@Z 10049040 f i libucrtd:output.obj
 0001:000480a0       ??$is_integral_specifier@_W@?$positional_parameter_base@_WV?$string_output_adapter@_W@__crt_stdio_output@@@__crt_stdio_output@@CA_N_W@Z 100490a0 f i libucrtd:output.obj
 0001:00048100       ??$is_pointer_specifier@D@?$positional_parameter_base@DV?$stream_output_adapter@D@__crt_stdio_output@@@__crt_stdio_output@@CA_ND@Z 10049100 f i libucrtd:output.obj
 0001:00048130       ??$is_pointer_specifier@D@?$positional_parameter_base@DV?$string_output_adapter@D@__crt_stdio_output@@@__crt_stdio_output@@CA_ND@Z 10049130 f i libucrtd:output.obj
 0001:00048160       ??$is_pointer_specifier@_W@?$positional_parameter_base@_WV?$stream_output_adapter@_W@__crt_stdio_output@@@__crt_stdio_output@@CA_N_W@Z 10049160 f i libucrtd:output.obj
 0001:00048190       ??$is_pointer_specifier@_W@?$positional_parameter_base@_WV?$string_output_adapter@_W@__crt_stdio_output@@@__crt_stdio_output@@CA_N_W@Z 10049190 f i libucrtd:output.obj
 0001:000481c0       ??$is_string_specifier@D@?$positional_parameter_base@DV?$stream_output_adapter@D@__crt_stdio_output@@@__crt_stdio_output@@CA_ND@Z 100491c0 f i libucrtd:output.obj
 0001:000481f0       ??$is_string_specifier@D@?$positional_parameter_base@DV?$string_output_adapter@D@__crt_stdio_output@@@__crt_stdio_output@@CA_ND@Z 100491f0 f i libucrtd:output.obj
 0001:00048220       ??$is_string_specifier@_W@?$positional_parameter_base@_WV?$stream_output_adapter@_W@__crt_stdio_output@@@__crt_stdio_output@@CA_N_W@Z 10049220 f i libucrtd:output.obj
 0001:00048250       ??$is_string_specifier@_W@?$positional_parameter_base@_WV?$string_output_adapter@_W@__crt_stdio_output@@@__crt_stdio_output@@CA_N_W@Z 10049250 f i libucrtd:output.obj
 0001:00048280       ??$is_wide_character_specifier@D@__crt_stdio_output@@YA_N_KDW4length_modifier@0@@Z 10049280 f i libucrtd:output.obj
 0001:00048300       ??$is_wide_character_specifier@_W@__crt_stdio_output@@YA_N_K_WW4length_modifier@0@@Z 10049300 f i libucrtd:output.obj
 0001:000483c0       ??$peek_va_arg@C@__crt_stdio_output@@YACPAD@Z 100493c0 f i libucrtd:output.obj
 0001:000483e0       ??$peek_va_arg@E@__crt_stdio_output@@YAEPAD@Z 100493e0 f i libucrtd:output.obj
 0001:00048400       ??$peek_va_arg@F@__crt_stdio_output@@YAFPAD@Z 10049400 f i libucrtd:output.obj
 0001:00048420       ??$peek_va_arg@G@__crt_stdio_output@@YAGPAD@Z 10049420 f i libucrtd:output.obj
 0001:00048440       ??$peek_va_arg@H@__crt_stdio_output@@YAHPAD@Z 10049440 f i libucrtd:output.obj
 0001:00048460       ??$peek_va_arg@I@__crt_stdio_output@@YAIPAD@Z 10049460 f i libucrtd:output.obj
 0001:00048480       ??$peek_va_arg@PAD@__crt_stdio_output@@YAPADPAD@Z 10049480 f i libucrtd:output.obj
 0001:000484a0       ??$peek_va_arg@PAUansi_string@?1??type_case_Z@?$output_processor@DV?$stream_output_adapter@D@__crt_stdio_output@@V?$positional_parameter_base@DV?$stream_output_adapter@D@__crt_stdio_output@@@2@@__crt_stdio_output@@AAE_NXZ@@__crt_stdio_output@@YAPAUansi_string@?1??type_case_Z@?$output_processor@DV?$stream_output_adapter@D@__crt_stdio_output@@V?$positional_parameter_base@DV?$stream_output_adapter@D@__crt_stdio_output@@@2@@0@AAE_NXZ@PAD@Z 100494a0 f i libucrtd:output.obj
 0001:000484c0       ??$peek_va_arg@PAUansi_string@?1??type_case_Z@?$output_processor@DV?$string_output_adapter@D@__crt_stdio_output@@V?$positional_parameter_base@DV?$string_output_adapter@D@__crt_stdio_output@@@2@@__crt_stdio_output@@AAE_NXZ@@__crt_stdio_output@@YAPAUansi_string@?1??type_case_Z@?$output_processor@DV?$string_output_adapter@D@__crt_stdio_output@@V?$positional_parameter_base@DV?$string_output_adapter@D@__crt_stdio_output@@@2@@0@AAE_NXZ@PAD@Z 100494c0 f i libucrtd:output.obj
 0001:000484e0       ??$peek_va_arg@PAUansi_string@?1??type_case_Z@?$output_processor@_WV?$stream_output_adapter@_W@__crt_stdio_output@@V?$positional_parameter_base@_WV?$stream_output_adapter@_W@__crt_stdio_output@@@2@@__crt_stdio_output@@AAE_NXZ@@__crt_stdio_output@@YAPAUansi_string@?1??type_case_Z@?$output_processor@_WV?$stream_output_adapter@_W@__crt_stdio_output@@V?$positional_parameter_base@_WV?$stream_output_adapter@_W@__crt_stdio_output@@@2@@0@AAE_NXZ@PAD@Z 100494e0 f i libucrtd:output.obj
 0001:00048500       ??$peek_va_arg@PAUansi_string@?1??type_case_Z@?$output_processor@_WV?$string_output_adapter@_W@__crt_stdio_output@@V?$positional_parameter_base@_WV?$string_output_adapter@_W@__crt_stdio_output@@@2@@__crt_stdio_output@@AAE_NXZ@@__crt_stdio_output@@YAPAUansi_string@?1??type_case_Z@?$output_processor@_WV?$string_output_adapter@_W@__crt_stdio_output@@V?$positional_parameter_base@_WV?$string_output_adapter@_W@__crt_stdio_output@@@2@@0@AAE_NXZ@PAD@Z 10049500 f i libucrtd:output.obj
 0001:00048520       ??$peek_va_arg@PAX@__crt_stdio_output@@YAPAXPAD@Z 10049520 f i libucrtd:output.obj
 0001:00048540       ??$peek_va_arg@U_CRT_DOUBLE@@@__crt_stdio_output@@YA?AU_CRT_DOUBLE@@PAD@Z 10049540 f i libucrtd:output.obj
 0001:00048560       ??$peek_va_arg@_J@__crt_stdio_output@@YA_JPAD@Z 10049560 f i libucrtd:output.obj
 0001:00048580       ??$peek_va_arg@_K@__crt_stdio_output@@YA_KPAD@Z 10049580 f i libucrtd:output.obj
 0001:000485a0       ??$peek_va_arg@_W@__crt_stdio_output@@YA_WPAD@Z 100495a0 f i libucrtd:output.obj
 0001:000485c0       ??$puttc_nolock@ABDPAU_iobuf@@@?$__crt_char_traits@D@@SAHABD$$QAPAU_iobuf@@@Z 100495c0 f i libucrtd:output.obj
 0001:000485e0       ??$puttc_nolock@AB_WPAU_iobuf@@@?$__crt_char_traits@_W@@SAGAB_W$$QAPAU_iobuf@@@Z 100495e0 f i libucrtd:output.obj
 0001:00048600       ??$read_va_arg@C@__crt_stdio_output@@YACAAPAD@Z 10049600 f i libucrtd:output.obj
 0001:00048620       ??$read_va_arg@E@__crt_stdio_output@@YAEAAPAD@Z 10049620 f i libucrtd:output.obj
 0001:00048640       ??$read_va_arg@F@__crt_stdio_output@@YAFAAPAD@Z 10049640 f i libucrtd:output.obj
 0001:00048660       ??$read_va_arg@G@__crt_stdio_output@@YAGAAPAD@Z 10049660 f i libucrtd:output.obj
 0001:00048680       ??$read_va_arg@H@__crt_stdio_output@@YAHAAPAD@Z 10049680 f i libucrtd:output.obj
 0001:000486a0       ??$read_va_arg@I@__crt_stdio_output@@YAIAAPAD@Z 100496a0 f i libucrtd:output.obj
 0001:000486c0       ??$read_va_arg@PAD@__crt_stdio_output@@YAPADAAPAD@Z 100496c0 f i libucrtd:output.obj
 0001:000486e0       ??$read_va_arg@PAUansi_string@?1??type_case_Z@?$output_processor@DV?$stream_output_adapter@D@__crt_stdio_output@@V?$format_validation_base@DV?$stream_output_adapter@D@__crt_stdio_output@@@2@@__crt_stdio_output@@AAE_NXZ@@__crt_stdio_output@@YAPAUansi_string@?1??type_case_Z@?$output_processor@DV?$stream_output_adapter@D@__crt_stdio_output@@V?$format_validation_base@DV?$stream_output_adapter@D@__crt_stdio_output@@@2@@0@AAE_NXZ@AAPAD@Z 100496e0 f i libucrtd:output.obj
 0001:00048700       ??$read_va_arg@PAUansi_string@?1??type_case_Z@?$output_processor@DV?$stream_output_adapter@D@__crt_stdio_output@@V?$positional_parameter_base@DV?$stream_output_adapter@D@__crt_stdio_output@@@2@@__crt_stdio_output@@AAE_NXZ@@__crt_stdio_output@@YAPAUansi_string@?1??type_case_Z@?$output_processor@DV?$stream_output_adapter@D@__crt_stdio_output@@V?$positional_parameter_base@DV?$stream_output_adapter@D@__crt_stdio_output@@@2@@0@AAE_NXZ@AAPAD@Z 10049700 f i libucrtd:output.obj
 0001:00048720       ??$read_va_arg@PAUansi_string@?1??type_case_Z@?$output_processor@DV?$stream_output_adapter@D@__crt_stdio_output@@V?$standard_base@DV?$stream_output_adapter@D@__crt_stdio_output@@@2@@__crt_stdio_output@@AAE_NXZ@@__crt_stdio_output@@YAPAUansi_string@?1??type_case_Z@?$output_processor@DV?$stream_output_adapter@D@__crt_stdio_output@@V?$standard_base@DV?$stream_output_adapter@D@__crt_stdio_output@@@2@@0@AAE_NXZ@AAPAD@Z 10049720 f i libucrtd:output.obj
 0001:00048740       ??$read_va_arg@PAUansi_string@?1??type_case_Z@?$output_processor@DV?$string_output_adapter@D@__crt_stdio_output@@V?$format_validation_base@DV?$string_output_adapter@D@__crt_stdio_output@@@2@@__crt_stdio_output@@AAE_NXZ@@__crt_stdio_output@@YAPAUansi_string@?1??type_case_Z@?$output_processor@DV?$string_output_adapter@D@__crt_stdio_output@@V?$format_validation_base@DV?$string_output_adapter@D@__crt_stdio_output@@@2@@0@AAE_NXZ@AAPAD@Z 10049740 f i libucrtd:output.obj
 0001:00048760       ??$read_va_arg@PAUansi_string@?1??type_case_Z@?$output_processor@DV?$string_output_adapter@D@__crt_stdio_output@@V?$positional_parameter_base@DV?$string_output_adapter@D@__crt_stdio_output@@@2@@__crt_stdio_output@@AAE_NXZ@@__crt_stdio_output@@YAPAUansi_string@?1??type_case_Z@?$output_processor@DV?$string_output_adapter@D@__crt_stdio_output@@V?$positional_parameter_base@DV?$string_output_adapter@D@__crt_stdio_output@@@2@@0@AAE_NXZ@AAPAD@Z 10049760 f i libucrtd:output.obj
 0001:00048780       ??$read_va_arg@PAUansi_string@?1??type_case_Z@?$output_processor@DV?$string_output_adapter@D@__crt_stdio_output@@V?$standard_base@DV?$string_output_adapter@D@__crt_stdio_output@@@2@@__crt_stdio_output@@AAE_NXZ@@__crt_stdio_output@@YAPAUansi_string@?1??type_case_Z@?$output_processor@DV?$string_output_adapter@D@__crt_stdio_output@@V?$standard_base@DV?$string_output_adapter@D@__crt_stdio_output@@@2@@0@AAE_NXZ@AAPAD@Z 10049780 f i libucrtd:output.obj
 0001:000487a0       ??$read_va_arg@PAUansi_string@?1??type_case_Z@?$output_processor@_WV?$stream_output_adapter@_W@__crt_stdio_output@@V?$format_validation_base@_WV?$stream_output_adapter@_W@__crt_stdio_output@@@2@@__crt_stdio_output@@AAE_NXZ@@__crt_stdio_output@@YAPAUansi_string@?1??type_case_Z@?$output_processor@_WV?$stream_output_adapter@_W@__crt_stdio_output@@V?$format_validation_base@_WV?$stream_output_adapter@_W@__crt_stdio_output@@@2@@0@AAE_NXZ@AAPAD@Z 100497a0 f i libucrtd:output.obj
 0001:000487c0       ??$read_va_arg@PAUansi_string@?1??type_case_Z@?$output_processor@_WV?$stream_output_adapter@_W@__crt_stdio_output@@V?$positional_parameter_base@_WV?$stream_output_adapter@_W@__crt_stdio_output@@@2@@__crt_stdio_output@@AAE_NXZ@@__crt_stdio_output@@YAPAUansi_string@?1??type_case_Z@?$output_processor@_WV?$stream_output_adapter@_W@__crt_stdio_output@@V?$positional_parameter_base@_WV?$stream_output_adapter@_W@__crt_stdio_output@@@2@@0@AAE_NXZ@AAPAD@Z 100497c0 f i libucrtd:output.obj
 0001:000487e0       ??$read_va_arg@PAUansi_string@?1??type_case_Z@?$output_processor@_WV?$stream_output_adapter@_W@__crt_stdio_output@@V?$standard_base@_WV?$stream_output_adapter@_W@__crt_stdio_output@@@2@@__crt_stdio_output@@AAE_NXZ@@__crt_stdio_output@@YAPAUansi_string@?1??type_case_Z@?$output_processor@_WV?$stream_output_adapter@_W@__crt_stdio_output@@V?$standard_base@_WV?$stream_output_adapter@_W@__crt_stdio_output@@@2@@0@AAE_NXZ@AAPAD@Z 100497e0 f i libucrtd:output.obj
 0001:00048800       ??$read_va_arg@PAUansi_string@?1??type_case_Z@?$output_processor@_WV?$string_output_adapter@_W@__crt_stdio_output@@V?$format_validation_base@_WV?$string_output_adapter@_W@__crt_stdio_output@@@2@@__crt_stdio_output@@AAE_NXZ@@__crt_stdio_output@@YAPAUansi_string@?1??type_case_Z@?$output_processor@_WV?$string_output_adapter@_W@__crt_stdio_output@@V?$format_validation_base@_WV?$string_output_adapter@_W@__crt_stdio_output@@@2@@0@AAE_NXZ@AAPAD@Z 10049800 f i libucrtd:output.obj
 0001:00048820       ??$read_va_arg@PAUansi_string@?1??type_case_Z@?$output_processor@_WV?$string_output_adapter@_W@__crt_stdio_output@@V?$positional_parameter_base@_WV?$string_output_adapter@_W@__crt_stdio_output@@@2@@__crt_stdio_output@@AAE_NXZ@@__crt_stdio_output@@YAPAUansi_string@?1??type_case_Z@?$output_processor@_WV?$string_output_adapter@_W@__crt_stdio_output@@V?$positional_parameter_base@_WV?$string_output_adapter@_W@__crt_stdio_output@@@2@@0@AAE_NXZ@AAPAD@Z 10049820 f i libucrtd:output.obj
 0001:00048840       ??$read_va_arg@PAUansi_string@?1??type_case_Z@?$output_processor@_WV?$string_output_adapter@_W@__crt_stdio_output@@V?$standard_base@_WV?$string_output_adapter@_W@__crt_stdio_output@@@2@@__crt_stdio_output@@AAE_NXZ@@__crt_stdio_output@@YAPAUansi_string@?1??type_case_Z@?$output_processor@_WV?$string_output_adapter@_W@__crt_stdio_output@@V?$standard_base@_WV?$string_output_adapter@_W@__crt_stdio_output@@@2@@0@AAE_NXZ@AAPAD@Z 10049840 f i libucrtd:output.obj
 0001:00048860       ??$read_va_arg@PAX@__crt_stdio_output@@YAPAXAAPAD@Z 10049860 f i libucrtd:output.obj
 0001:00048880       ??$read_va_arg@U_CRT_DOUBLE@@@__crt_stdio_output@@YA?AU_CRT_DOUBLE@@AAPAD@Z 10049880 f i libucrtd:output.obj
 0001:000488a0       ??$read_va_arg@_J@__crt_stdio_output@@YA_JAAPAD@Z 100498a0 f i libucrtd:output.obj
 0001:000488c0       ??$read_va_arg@_K@__crt_stdio_output@@YA_KAAPAD@Z 100498c0 f i libucrtd:output.obj
 0001:000488e0       ??$read_va_arg@_W@__crt_stdio_output@@YA_WAAPAD@Z 100498e0 f i libucrtd:output.obj
 0001:00048900       ??$scratch_count@D@formatting_buffer@__crt_stdio_output@@QBEIXZ 10049900 f i libucrtd:output.obj
 0001:00048920       ??$scratch_data@D@formatting_buffer@__crt_stdio_output@@QAEPADXZ 10049920 f i libucrtd:output.obj
 0001:00048970       ??$tcstol@AAPBDPAPADH@?$__crt_char_traits@D@@SAJAAPBD$$QAPAPAD$$QAH@Z 10049970 f i libucrtd:output.obj
 0001:000489a0       ??$tcstol@AAPB_WPAPA_WH@?$__crt_char_traits@_W@@SAJAAPB_W$$QAPAPA_W$$QAH@Z 100499a0 f i libucrtd:output.obj
 0001:000489d0       ??$tcstol@PBDPAPADH@?$__crt_char_traits@D@@SAJ$$QAPBD$$QAPAPAD$$QAH@Z 100499d0 f i libucrtd:output.obj
 0001:00048a00       ??$tcstol@PB_WPAPA_WH@?$__crt_char_traits@_W@@SAJ$$QAPB_W$$QAPAPA_W$$QAH@Z 10049a00 f i libucrtd:output.obj
 0001:00048a30       ??$type_case_integer_parse_into_buffer@I@?$output_processor@DV?$stream_output_adapter@D@__crt_stdio_output@@V?$format_validation_base@DV?$stream_output_adapter@D@__crt_stdio_output@@@2@@__crt_stdio_output@@AAEXII_N@Z 10049a30 f i libucrtd:output.obj
 0001:00048b00       ??$type_case_integer_parse_into_buffer@I@?$output_processor@DV?$stream_output_adapter@D@__crt_stdio_output@@V?$positional_parameter_base@DV?$stream_output_adapter@D@__crt_stdio_output@@@2@@__crt_stdio_output@@AAEXII_N@Z 10049b00 f i libucrtd:output.obj
 0001:00048bd0       ??$type_case_integer_parse_into_buffer@I@?$output_processor@DV?$stream_output_adapter@D@__crt_stdio_output@@V?$standard_base@DV?$stream_output_adapter@D@__crt_stdio_output@@@2@@__crt_stdio_output@@AAEXII_N@Z 10049bd0 f i libucrtd:output.obj
 0001:00048ca0       ??$type_case_integer_parse_into_buffer@I@?$output_processor@DV?$string_output_adapter@D@__crt_stdio_output@@V?$format_validation_base@DV?$string_output_adapter@D@__crt_stdio_output@@@2@@__crt_stdio_output@@AAEXII_N@Z 10049ca0 f i libucrtd:output.obj
 0001:00048d70       ??$type_case_integer_parse_into_buffer@I@?$output_processor@DV?$string_output_adapter@D@__crt_stdio_output@@V?$positional_parameter_base@DV?$string_output_adapter@D@__crt_stdio_output@@@2@@__crt_stdio_output@@AAEXII_N@Z 10049d70 f i libucrtd:output.obj
 0001:00048e40       ??$type_case_integer_parse_into_buffer@I@?$output_processor@DV?$string_output_adapter@D@__crt_stdio_output@@V?$standard_base@DV?$string_output_adapter@D@__crt_stdio_output@@@2@@__crt_stdio_output@@AAEXII_N@Z 10049e40 f i libucrtd:output.obj
 0001:00048f10       ??$type_case_integer_parse_into_buffer@I@?$output_processor@_WV?$stream_output_adapter@_W@__crt_stdio_output@@V?$format_validation_base@_WV?$stream_output_adapter@_W@__crt_stdio_output@@@2@@__crt_stdio_output@@AAEXII_N@Z 10049f10 f i libucrtd:output.obj
 0001:00048ff0       ??$type_case_integer_parse_into_buffer@I@?$output_processor@_WV?$stream_output_adapter@_W@__crt_stdio_output@@V?$positional_parameter_base@_WV?$stream_output_adapter@_W@__crt_stdio_output@@@2@@__crt_stdio_output@@AAEXII_N@Z 10049ff0 f i libucrtd:output.obj
 0001:000490d0       ??$type_case_integer_parse_into_buffer@I@?$output_processor@_WV?$stream_output_adapter@_W@__crt_stdio_output@@V?$standard_base@_WV?$stream_output_adapter@_W@__crt_stdio_output@@@2@@__crt_stdio_output@@AAEXII_N@Z 1004a0d0 f i libucrtd:output.obj
 0001:000491b0       ??$type_case_integer_parse_into_buffer@I@?$output_processor@_WV?$string_output_adapter@_W@__crt_stdio_output@@V?$format_validation_base@_WV?$string_output_adapter@_W@__crt_stdio_output@@@2@@__crt_stdio_output@@AAEXII_N@Z 1004a1b0 f i libucrtd:output.obj
 0001:00049290       ??$type_case_integer_parse_into_buffer@I@?$output_processor@_WV?$string_output_adapter@_W@__crt_stdio_output@@V?$positional_parameter_base@_WV?$string_output_adapter@_W@__crt_stdio_output@@@2@@__crt_stdio_output@@AAEXII_N@Z 1004a290 f i libucrtd:output.obj
 0001:00049370       ??$type_case_integer_parse_into_buffer@I@?$output_processor@_WV?$string_output_adapter@_W@__crt_stdio_output@@V?$standard_base@_WV?$string_output_adapter@_W@__crt_stdio_output@@@2@@__crt_stdio_output@@AAEXII_N@Z 1004a370 f i libucrtd:output.obj
 0001:00049450       ??$type_case_integer_parse_into_buffer@_K@?$output_processor@DV?$stream_output_adapter@D@__crt_stdio_output@@V?$format_validation_base@DV?$stream_output_adapter@D@__crt_stdio_output@@@2@@__crt_stdio_output@@AAEX_KI_N@Z 1004a450 f i libucrtd:output.obj
 0001:00049540       ??$type_case_integer_parse_into_buffer@_K@?$output_processor@DV?$stream_output_adapter@D@__crt_stdio_output@@V?$positional_parameter_base@DV?$stream_output_adapter@D@__crt_stdio_output@@@2@@__crt_stdio_output@@AAEX_KI_N@Z 1004a540 f i libucrtd:output.obj
 0001:00049630       ??$type_case_integer_parse_into_buffer@_K@?$output_processor@DV?$stream_output_adapter@D@__crt_stdio_output@@V?$standard_base@DV?$stream_output_adapter@D@__crt_stdio_output@@@2@@__crt_stdio_output@@AAEX_KI_N@Z 1004a630 f i libucrtd:output.obj
 0001:00049720       ??$type_case_integer_parse_into_buffer@_K@?$output_processor@DV?$string_output_adapter@D@__crt_stdio_output@@V?$format_validation_base@DV?$string_output_adapter@D@__crt_stdio_output@@@2@@__crt_stdio_output@@AAEX_KI_N@Z 1004a720 f i libucrtd:output.obj
 0001:00049810       ??$type_case_integer_parse_into_buffer@_K@?$output_processor@DV?$string_output_adapter@D@__crt_stdio_output@@V?$positional_parameter_base@DV?$string_output_adapter@D@__crt_stdio_output@@@2@@__crt_stdio_output@@AAEX_KI_N@Z 1004a810 f i libucrtd:output.obj
 0001:00049900       ??$type_case_integer_parse_into_buffer@_K@?$output_processor@DV?$string_output_adapter@D@__crt_stdio_output@@V?$standard_base@DV?$string_output_adapter@D@__crt_stdio_output@@@2@@__crt_stdio_output@@AAEX_KI_N@Z 1004a900 f i libucrtd:output.obj
 0001:000499f0       ??$type_case_integer_parse_into_buffer@_K@?$output_processor@_WV?$stream_output_adapter@_W@__crt_stdio_output@@V?$format_validation_base@_WV?$stream_output_adapter@_W@__crt_stdio_output@@@2@@__crt_stdio_output@@AAEX_KI_N@Z 1004a9f0 f i libucrtd:output.obj
 0001:00049af0       ??$type_case_integer_parse_into_buffer@_K@?$output_processor@_WV?$stream_output_adapter@_W@__crt_stdio_output@@V?$positional_parameter_base@_WV?$stream_output_adapter@_W@__crt_stdio_output@@@2@@__crt_stdio_output@@AAEX_KI_N@Z 1004aaf0 f i libucrtd:output.obj
 0001:00049bf0       ??$type_case_integer_parse_into_buffer@_K@?$output_processor@_WV?$stream_output_adapter@_W@__crt_stdio_output@@V?$standard_base@_WV?$stream_output_adapter@_W@__crt_stdio_output@@@2@@__crt_stdio_output@@AAEX_KI_N@Z 1004abf0 f i libucrtd:output.obj
 0001:00049cf0       ??$type_case_integer_parse_into_buffer@_K@?$output_processor@_WV?$string_output_adapter@_W@__crt_stdio_output@@V?$format_validation_base@_WV?$string_output_adapter@_W@__crt_stdio_output@@@2@@__crt_stdio_output@@AAEX_KI_N@Z 1004acf0 f i libucrtd:output.obj
 0001:00049df0       ??$type_case_integer_parse_into_buffer@_K@?$output_processor@_WV?$string_output_adapter@_W@__crt_stdio_output@@V?$positional_parameter_base@_WV?$string_output_adapter@_W@__crt_stdio_output@@@2@@__crt_stdio_output@@AAEX_KI_N@Z 1004adf0 f i libucrtd:output.obj
 0001:00049ef0       ??$type_case_integer_parse_into_buffer@_K@?$output_processor@_WV?$string_output_adapter@_W@__crt_stdio_output@@V?$standard_base@_WV?$string_output_adapter@_W@__crt_stdio_output@@@2@@__crt_stdio_output@@AAEX_KI_N@Z 1004aef0 f i libucrtd:output.obj
 0001:00049ff0       ??$write_multiple_characters@V?$stream_output_adapter@D@__crt_stdio_output@@D@__crt_stdio_output@@YAXABV?$stream_output_adapter@D@0@DHQAH@Z 1004aff0 f i libucrtd:output.obj
 0001:0004a040       ??$write_multiple_characters@V?$stream_output_adapter@_W@__crt_stdio_output@@D@__crt_stdio_output@@YAXABV?$stream_output_adapter@_W@0@DHQAH@Z 1004b040 f i libucrtd:output.obj
 0001:0004a090       ??$write_multiple_characters@V?$string_output_adapter@D@__crt_stdio_output@@D@__crt_stdio_output@@YAXABV?$string_output_adapter@D@0@DHQAH@Z 1004b090 f i libucrtd:output.obj
 0001:0004a0e0       ??$write_multiple_characters@V?$string_output_adapter@_W@__crt_stdio_output@@D@__crt_stdio_output@@YAXABV?$string_output_adapter@_W@0@DHQAH@Z 1004b0e0 f i libucrtd:output.obj
 0001:0004a430       ??0?$common_data@D@__crt_stdio_output@@IAE@XZ 1004b430 f i libucrtd:output.obj
 0001:0004a4e0       ??0?$common_data@_W@__crt_stdio_output@@IAE@XZ 1004b4e0 f i libucrtd:output.obj
 0001:0004a590       ??0?$output_adapter_data@DV?$stream_output_adapter@D@__crt_stdio_output@@@__crt_stdio_output@@IAE@ABV?$stream_output_adapter@D@1@_KQBDQAU__crt_locale_pointers@@QAD@Z 1004b590 f i libucrtd:output.obj
 0001:0004a5f0       ??0?$output_adapter_data@DV?$string_output_adapter@D@__crt_stdio_output@@@__crt_stdio_output@@IAE@ABV?$string_output_adapter@D@1@_KQBDQAU__crt_locale_pointers@@QAD@Z 1004b5f0 f i libucrtd:output.obj
 0001:0004a650       ??0?$output_adapter_data@_WV?$stream_output_adapter@_W@__crt_stdio_output@@@__crt_stdio_output@@IAE@ABV?$stream_output_adapter@_W@1@_KQB_WQAU__crt_locale_pointers@@QAD@Z 1004b650 f i libucrtd:output.obj
 0001:0004a6b0       ??0?$output_adapter_data@_WV?$string_output_adapter@_W@__crt_stdio_output@@@__crt_stdio_output@@IAE@ABV?$string_output_adapter@_W@1@_KQB_WQAU__crt_locale_pointers@@QAD@Z 1004b6b0 f i libucrtd:output.obj
 0001:0004a710       ??0?$output_processor@DV?$stream_output_adapter@D@__crt_stdio_output@@V?$format_validation_base@DV?$stream_output_adapter@D@__crt_stdio_output@@@2@@__crt_stdio_output@@QAE@ABV?$stream_output_adapter@D@1@_KQBDQAU__crt_locale_pointers@@QAD@Z 1004b710 f i libucrtd:output.obj
 0001:0004a740       ??0?$output_processor@DV?$stream_output_adapter@D@__crt_stdio_output@@V?$positional_parameter_base@DV?$stream_output_adapter@D@__crt_stdio_output@@@2@@__crt_stdio_output@@QAE@ABV?$stream_output_adapter@D@1@_KQBDQAU__crt_locale_pointers@@QAD@Z 1004b740 f i libucrtd:output.obj
 0001:0004a770       ??0?$output_processor@DV?$stream_output_adapter@D@__crt_stdio_output@@V?$standard_base@DV?$stream_output_adapter@D@__crt_stdio_output@@@2@@__crt_stdio_output@@QAE@ABV?$stream_output_adapter@D@1@_KQBDQAU__crt_locale_pointers@@QAD@Z 1004b770 f i libucrtd:output.obj
 0001:0004a7a0       ??0?$output_processor@DV?$string_output_adapter@D@__crt_stdio_output@@V?$format_validation_base@DV?$string_output_adapter@D@__crt_stdio_output@@@2@@__crt_stdio_output@@QAE@ABV?$string_output_adapter@D@1@_KQBDQAU__crt_locale_pointers@@QAD@Z 1004b7a0 f i libucrtd:output.obj
 0001:0004a7d0       ??0?$output_processor@DV?$string_output_adapter@D@__crt_stdio_output@@V?$positional_parameter_base@DV?$string_output_adapter@D@__crt_stdio_output@@@2@@__crt_stdio_output@@QAE@ABV?$string_output_adapter@D@1@_KQBDQAU__crt_locale_pointers@@QAD@Z 1004b7d0 f i libucrtd:output.obj
 0001:0004a800       ??0?$output_processor@DV?$string_output_adapter@D@__crt_stdio_output@@V?$standard_base@DV?$string_output_adapter@D@__crt_stdio_output@@@2@@__crt_stdio_output@@QAE@ABV?$string_output_adapter@D@1@_KQBDQAU__crt_locale_pointers@@QAD@Z 1004b800 f i libucrtd:output.obj
 0001:0004a830       ??0?$output_processor@_WV?$stream_output_adapter@_W@__crt_stdio_output@@V?$format_validation_base@_WV?$stream_output_adapter@_W@__crt_stdio_output@@@2@@__crt_stdio_output@@QAE@ABV?$stream_output_adapter@_W@1@_KQB_WQAU__crt_locale_pointers@@QAD@Z 1004b830 f i libucrtd:output.obj
 0001:0004a860       ??0?$output_processor@_WV?$stream_output_adapter@_W@__crt_stdio_output@@V?$positional_parameter_base@_WV?$stream_output_adapter@_W@__crt_stdio_output@@@2@@__crt_stdio_output@@QAE@ABV?$stream_output_adapter@_W@1@_KQB_WQAU__crt_locale_pointers@@QAD@Z 1004b860 f i libucrtd:output.obj
 0001:0004a890       ??0?$output_processor@_WV?$stream_output_adapter@_W@__crt_stdio_output@@V?$standard_base@_WV?$stream_output_adapter@_W@__crt_stdio_output@@@2@@__crt_stdio_output@@QAE@ABV?$stream_output_adapter@_W@1@_KQB_WQAU__crt_locale_pointers@@QAD@Z 1004b890 f i libucrtd:output.obj
 0001:0004a8c0       ??0?$output_processor@_WV?$string_output_adapter@_W@__crt_stdio_output@@V?$format_validation_base@_WV?$string_output_adapter@_W@__crt_stdio_output@@@2@@__crt_stdio_output@@QAE@ABV?$string_output_adapter@_W@1@_KQB_WQAU__crt_locale_pointers@@QAD@Z 1004b8c0 f i libucrtd:output.obj
 0001:0004a8f0       ??0?$output_processor@_WV?$string_output_adapter@_W@__crt_stdio_output@@V?$positional_parameter_base@_WV?$string_output_adapter@_W@__crt_stdio_output@@@2@@__crt_stdio_output@@QAE@ABV?$string_output_adapter@_W@1@_KQB_WQAU__crt_locale_pointers@@QAD@Z 1004b8f0 f i libucrtd:output.obj
 0001:0004a920       ??0?$output_processor@_WV?$string_output_adapter@_W@__crt_stdio_output@@V?$standard_base@_WV?$string_output_adapter@_W@__crt_stdio_output@@@2@@__crt_stdio_output@@QAE@ABV?$string_output_adapter@_W@1@_KQB_WQAU__crt_locale_pointers@@QAD@Z 1004b920 f i libucrtd:output.obj
 0001:0004a950       ??0?$stream_output_adapter@D@__crt_stdio_output@@QAE@QAU_iobuf@@@Z 1004b950 f i libucrtd:output.obj
 0001:0004a970       ??0?$stream_output_adapter@_W@__crt_stdio_output@@QAE@QAU_iobuf@@@Z 1004b970 f i libucrtd:output.obj
 0001:0004a990       ??0?$string_output_adapter@D@__crt_stdio_output@@QAE@QAU?$string_output_adapter_context@D@1@@Z 1004b990 f i libucrtd:output.obj
 0001:0004a9b0       ??0?$string_output_adapter@_W@__crt_stdio_output@@QAE@QAU?$string_output_adapter_context@_W@1@@Z 1004b9b0 f i libucrtd:output.obj
 0001:0004a9d0       ??0_LocaleUpdate@@QAE@QAU__crt_locale_pointers@@@Z 1004b9d0 f i libucrtd:output.obj
 0001:0004aaa0       ??0__acrt_stdio_temporary_buffering_guard@@QAE@QAU_iobuf@@@Z 1004baa0 f i libucrtd:output.obj
 0001:0004aad0       ??0__crt_deferred_errno_cache@@QAE@XZ 1004bad0 f i libucrtd:output.obj
 0001:0004aaf0       ??0__crt_errno_guard@@QAE@QAH@Z 1004baf0 f i libucrtd:output.obj
 0001:0004ab20       ??0__crt_stdio_stream@@QAE@QAU_iobuf@@@Z 1004bb20 f i libucrtd:output.obj
 0001:0004ab40       ??0formatting_buffer@__crt_stdio_output@@QAE@XZ 1004bb40 f i libucrtd:output.obj
 0001:0004ab70       ??1?$common_data@D@__crt_stdio_output@@QAE@XZ 1004bb70 f i libucrtd:output.obj
 0001:0004ab90       ??1?$common_data@_W@__crt_stdio_output@@QAE@XZ 1004bb90 f i libucrtd:output.obj
 0001:0004abb0       ??1?$format_validation_base@DV?$stream_output_adapter@D@__crt_stdio_output@@@__crt_stdio_output@@QAE@XZ 1004bbb0 f i libucrtd:output.obj
 0001:0004abd0       ??1?$format_validation_base@DV?$string_output_adapter@D@__crt_stdio_output@@@__crt_stdio_output@@QAE@XZ 1004bbd0 f i libucrtd:output.obj
 0001:0004abf0       ??1?$format_validation_base@_WV?$stream_output_adapter@_W@__crt_stdio_output@@@__crt_stdio_output@@QAE@XZ 1004bbf0 f i libucrtd:output.obj
 0001:0004ac10       ??1?$format_validation_base@_WV?$string_output_adapter@_W@__crt_stdio_output@@@__crt_stdio_output@@QAE@XZ 1004bc10 f i libucrtd:output.obj
 0001:0004ac30       ??1?$output_adapter_data@DV?$stream_output_adapter@D@__crt_stdio_output@@@__crt_stdio_output@@QAE@XZ 1004bc30 f i libucrtd:output.obj
 0001:0004ac50       ??1?$output_adapter_data@DV?$string_output_adapter@D@__crt_stdio_output@@@__crt_stdio_output@@QAE@XZ 1004bc50 f i libucrtd:output.obj
 0001:0004ac70       ??1?$output_adapter_data@_WV?$stream_output_adapter@_W@__crt_stdio_output@@@__crt_stdio_output@@QAE@XZ 1004bc70 f i libucrtd:output.obj
 0001:0004ac90       ??1?$output_adapter_data@_WV?$string_output_adapter@_W@__crt_stdio_output@@@__crt_stdio_output@@QAE@XZ 1004bc90 f i libucrtd:output.obj
 0001:0004acb0       ??1?$output_processor@DV?$stream_output_adapter@D@__crt_stdio_output@@V?$format_validation_base@DV?$stream_output_adapter@D@__crt_stdio_output@@@2@@__crt_stdio_output@@QAE@XZ 1004bcb0 f i libucrtd:output.obj
 0001:0004acd0       ??1?$output_processor@DV?$stream_output_adapter@D@__crt_stdio_output@@V?$positional_parameter_base@DV?$stream_output_adapter@D@__crt_stdio_output@@@2@@__crt_stdio_output@@QAE@XZ 1004bcd0 f i libucrtd:output.obj
 0001:0004acf0       ??1?$output_processor@DV?$stream_output_adapter@D@__crt_stdio_output@@V?$standard_base@DV?$stream_output_adapter@D@__crt_stdio_output@@@2@@__crt_stdio_output@@QAE@XZ 1004bcf0 f i libucrtd:output.obj
 0001:0004ad10       ??1?$output_processor@DV?$string_output_adapter@D@__crt_stdio_output@@V?$format_validation_base@DV?$string_output_adapter@D@__crt_stdio_output@@@2@@__crt_stdio_output@@QAE@XZ 1004bd10 f i libucrtd:output.obj
 0001:0004ad30       ??1?$output_processor@DV?$string_output_adapter@D@__crt_stdio_output@@V?$positional_parameter_base@DV?$string_output_adapter@D@__crt_stdio_output@@@2@@__crt_stdio_output@@QAE@XZ 1004bd30 f i libucrtd:output.obj
 0001:0004ad50       ??1?$output_processor@DV?$string_output_adapter@D@__crt_stdio_output@@V?$standard_base@DV?$string_output_adapter@D@__crt_stdio_output@@@2@@__crt_stdio_output@@QAE@XZ 1004bd50 f i libucrtd:output.obj
 0001:0004ad70       ??1?$output_processor@_WV?$stream_output_adapter@_W@__crt_stdio_output@@V?$format_validation_base@_WV?$stream_output_adapter@_W@__crt_stdio_output@@@2@@__crt_stdio_output@@QAE@XZ 1004bd70 f i libucrtd:output.obj
 0001:0004ad90       ??1?$output_processor@_WV?$stream_output_adapter@_W@__crt_stdio_output@@V?$positional_parameter_base@_WV?$stream_output_adapter@_W@__crt_stdio_output@@@2@@__crt_stdio_output@@QAE@XZ 1004bd90 f i libucrtd:output.obj
 0001:0004adb0       ??1?$output_processor@_WV?$stream_output_adapter@_W@__crt_stdio_output@@V?$standard_base@_WV?$stream_output_adapter@_W@__crt_stdio_output@@@2@@__crt_stdio_output@@QAE@XZ 1004bdb0 f i libucrtd:output.obj
 0001:0004add0       ??1?$output_processor@_WV?$string_output_adapter@_W@__crt_stdio_output@@V?$format_validation_base@_WV?$string_output_adapter@_W@__crt_stdio_output@@@2@@__crt_stdio_output@@QAE@XZ 1004bdd0 f i libucrtd:output.obj
 0001:0004adf0       ??1?$output_processor@_WV?$string_output_adapter@_W@__crt_stdio_output@@V?$positional_parameter_base@_WV?$string_output_adapter@_W@__crt_stdio_output@@@2@@__crt_stdio_output@@QAE@XZ 1004bdf0 f i libucrtd:output.obj
 0001:0004ae10       ??1?$output_processor@_WV?$string_output_adapter@_W@__crt_stdio_output@@V?$standard_base@_WV?$string_output_adapter@_W@__crt_stdio_output@@@2@@__crt_stdio_output@@QAE@XZ 1004be10 f i libucrtd:output.obj
 0001:0004ae30       ??1?$positional_parameter_base@DV?$stream_output_adapter@D@__crt_stdio_output@@@__crt_stdio_output@@QAE@XZ 1004be30 f i libucrtd:output.obj
 0001:0004ae50       ??1?$positional_parameter_base@DV?$string_output_adapter@D@__crt_stdio_output@@@__crt_stdio_output@@QAE@XZ 1004be50 f i libucrtd:output.obj
 0001:0004ae70       ??1?$positional_parameter_base@_WV?$stream_output_adapter@_W@__crt_stdio_output@@@__crt_stdio_output@@QAE@XZ 1004be70 f i libucrtd:output.obj
 0001:0004ae90       ??1?$positional_parameter_base@_WV?$string_output_adapter@_W@__crt_stdio_output@@@__crt_stdio_output@@QAE@XZ 1004be90 f i libucrtd:output.obj
 0001:0004aeb0       ??1?$standard_base@DV?$stream_output_adapter@D@__crt_stdio_output@@@__crt_stdio_output@@QAE@XZ 1004beb0 f i libucrtd:output.obj
 0001:0004aed0       ??1?$standard_base@DV?$string_output_adapter@D@__crt_stdio_output@@@__crt_stdio_output@@QAE@XZ 1004bed0 f i libucrtd:output.obj
 0001:0004aef0       ??1?$standard_base@_WV?$stream_output_adapter@_W@__crt_stdio_output@@@__crt_stdio_output@@QAE@XZ 1004bef0 f i libucrtd:output.obj
 0001:0004af10       ??1?$standard_base@_WV?$string_output_adapter@_W@__crt_stdio_output@@@__crt_stdio_output@@QAE@XZ 1004bf10 f i libucrtd:output.obj
 0001:0004af30       ??1_LocaleUpdate@@QAE@XZ   1004bf30 f i libucrtd:output.obj
 0001:0004af60       ??1__acrt_stdio_temporary_buffering_guard@@QAE@XZ 1004bf60 f i libucrtd:output.obj
 0001:0004af90       ??1__crt_errno_guard@@QAE@XZ 1004bf90 f i libucrtd:output.obj
 0001:0004afc0       ??1formatting_buffer@__crt_stdio_output@@QAE@XZ 1004bfc0 f i libucrtd:output.obj
 0001:0004afe0       ??4?$__crt_unique_heap_ptr@DU__crt_internal_free_policy@@@@QAEAAV0@$$QAV0@@Z 1004bfe0 f i libucrtd:output.obj
 0001:0004b010       ??A?$spectre_mitigated_lookup_table@Ustate_transition_pair@__crt_stdio_output@@$0IA@@__crt_stdio_output@@QBEABUstate_transition_pair@1@I@Z 1004c010 f i libucrtd:output.obj
 0001:0004b030       ??C__crt_stdio_stream@@QBEPAU__crt_stdio_stream_data@@XZ 1004c030 f i libucrtd:output.obj
 0001:0004b770       ?GetLocaleT@_LocaleUpdate@@QAEPAU__crt_locale_pointers@@XZ 1004c770 f i libucrtd:output.obj
 0001:0004b790       ?adjust_hexit@?$output_processor@DV?$stream_output_adapter@D@__crt_stdio_output@@V?$format_validation_base@DV?$stream_output_adapter@D@__crt_stdio_output@@@2@@__crt_stdio_output@@CADH_N@Z 1004c790 f i libucrtd:output.obj
 0001:0004b7d0       ?adjust_hexit@?$output_processor@DV?$stream_output_adapter@D@__crt_stdio_output@@V?$positional_parameter_base@DV?$stream_output_adapter@D@__crt_stdio_output@@@2@@__crt_stdio_output@@CADH_N@Z 1004c7d0 f i libucrtd:output.obj
 0001:0004b810       ?adjust_hexit@?$output_processor@DV?$stream_output_adapter@D@__crt_stdio_output@@V?$standard_base@DV?$stream_output_adapter@D@__crt_stdio_output@@@2@@__crt_stdio_output@@CADH_N@Z 1004c810 f i libucrtd:output.obj
 0001:0004b850       ?adjust_hexit@?$output_processor@DV?$string_output_adapter@D@__crt_stdio_output@@V?$format_validation_base@DV?$string_output_adapter@D@__crt_stdio_output@@@2@@__crt_stdio_output@@CADH_N@Z 1004c850 f i libucrtd:output.obj
 0001:0004b890       ?adjust_hexit@?$output_processor@DV?$string_output_adapter@D@__crt_stdio_output@@V?$positional_parameter_base@DV?$string_output_adapter@D@__crt_stdio_output@@@2@@__crt_stdio_output@@CADH_N@Z 1004c890 f i libucrtd:output.obj
 0001:0004b8d0       ?adjust_hexit@?$output_processor@DV?$string_output_adapter@D@__crt_stdio_output@@V?$standard_base@DV?$string_output_adapter@D@__crt_stdio_output@@@2@@__crt_stdio_output@@CADH_N@Z 1004c8d0 f i libucrtd:output.obj
 0001:0004b910       ?adjust_hexit@?$output_processor@_WV?$stream_output_adapter@_W@__crt_stdio_output@@V?$format_validation_base@_WV?$stream_output_adapter@_W@__crt_stdio_output@@@2@@__crt_stdio_output@@CADH_N@Z 1004c910 f i libucrtd:output.obj
 0001:0004b950       ?adjust_hexit@?$output_processor@_WV?$stream_output_adapter@_W@__crt_stdio_output@@V?$positional_parameter_base@_WV?$stream_output_adapter@_W@__crt_stdio_output@@@2@@__crt_stdio_output@@CADH_N@Z 1004c950 f i libucrtd:output.obj
 0001:0004b990       ?adjust_hexit@?$output_processor@_WV?$stream_output_adapter@_W@__crt_stdio_output@@V?$standard_base@_WV?$stream_output_adapter@_W@__crt_stdio_output@@@2@@__crt_stdio_output@@CADH_N@Z 1004c990 f i libucrtd:output.obj
 0001:0004b9d0       ?adjust_hexit@?$output_processor@_WV?$string_output_adapter@_W@__crt_stdio_output@@V?$format_validation_base@_WV?$string_output_adapter@_W@__crt_stdio_output@@@2@@__crt_stdio_output@@CADH_N@Z 1004c9d0 f i libucrtd:output.obj
 0001:0004ba10       ?adjust_hexit@?$output_processor@_WV?$string_output_adapter@_W@__crt_stdio_output@@V?$positional_parameter_base@_WV?$string_output_adapter@_W@__crt_stdio_output@@@2@@__crt_stdio_output@@CADH_N@Z 1004ca10 f i libucrtd:output.obj
 0001:0004ba50       ?adjust_hexit@?$output_processor@_WV?$string_output_adapter@_W@__crt_stdio_output@@V?$standard_base@_WV?$string_output_adapter@_W@__crt_stdio_output@@@2@@__crt_stdio_output@@CADH_N@Z 1004ca50 f i libucrtd:output.obj
 0001:0004ba90       ?advance_to_next_pass@?$positional_parameter_base@DV?$stream_output_adapter@D@__crt_stdio_output@@@__crt_stdio_output@@IAE_NXZ 1004ca90 f i libucrtd:output.obj
 0001:0004bb30       ?advance_to_next_pass@?$positional_parameter_base@DV?$string_output_adapter@D@__crt_stdio_output@@@__crt_stdio_output@@IAE_NXZ 1004cb30 f i libucrtd:output.obj
 0001:0004bbd0       ?advance_to_next_pass@?$positional_parameter_base@_WV?$stream_output_adapter@_W@__crt_stdio_output@@@__crt_stdio_output@@IAE_NXZ 1004cbd0 f i libucrtd:output.obj
 0001:0004bc70       ?advance_to_next_pass@?$positional_parameter_base@_WV?$string_output_adapter@_W@__crt_stdio_output@@@__crt_stdio_output@@IAE_NXZ 1004cc70 f i libucrtd:output.obj
 0001:0004bd10       ?advance_to_next_pass@?$standard_base@DV?$stream_output_adapter@D@__crt_stdio_output@@@__crt_stdio_output@@IAE_NXZ 1004cd10 f i libucrtd:output.obj
 0001:0004bd60       ?advance_to_next_pass@?$standard_base@DV?$string_output_adapter@D@__crt_stdio_output@@@__crt_stdio_output@@IAE_NXZ 1004cd60 f i libucrtd:output.obj
 0001:0004bdb0       ?advance_to_next_pass@?$standard_base@_WV?$stream_output_adapter@_W@__crt_stdio_output@@@__crt_stdio_output@@IAE_NXZ 1004cdb0 f i libucrtd:output.obj
 0001:0004be00       ?advance_to_next_pass@?$standard_base@_WV?$string_output_adapter@_W@__crt_stdio_output@@@__crt_stdio_output@@IAE_NXZ 1004ce00 f i libucrtd:output.obj
 0001:0004be50       ?crop_zeroes@__crt_stdio_output@@YAXPADQAU__crt_locale_pointers@@@Z 1004ce50 f i libucrtd:output.obj
 0001:0004bf50       ?find_next_state@?$output_processor@DV?$stream_output_adapter@D@__crt_stdio_output@@V?$format_validation_base@DV?$stream_output_adapter@D@__crt_stdio_output@@@2@@__crt_stdio_output@@ABE?AW4state@2@DW432@@Z 1004cf50 f i libucrtd:output.obj
 0001:0004bfc0       ?find_next_state@?$output_processor@DV?$stream_output_adapter@D@__crt_stdio_output@@V?$positional_parameter_base@DV?$stream_output_adapter@D@__crt_stdio_output@@@2@@__crt_stdio_output@@ABE?AW4state@2@DW432@@Z 1004cfc0 f i libucrtd:output.obj
 0001:0004c030       ?find_next_state@?$output_processor@DV?$stream_output_adapter@D@__crt_stdio_output@@V?$standard_base@DV?$stream_output_adapter@D@__crt_stdio_output@@@2@@__crt_stdio_output@@ABE?AW4state@2@DW432@@Z 1004d030 f i libucrtd:output.obj
 0001:0004c0a0       ?find_next_state@?$output_processor@DV?$string_output_adapter@D@__crt_stdio_output@@V?$format_validation_base@DV?$string_output_adapter@D@__crt_stdio_output@@@2@@__crt_stdio_output@@ABE?AW4state@2@DW432@@Z 1004d0a0 f i libucrtd:output.obj
 0001:0004c110       ?find_next_state@?$output_processor@DV?$string_output_adapter@D@__crt_stdio_output@@V?$positional_parameter_base@DV?$string_output_adapter@D@__crt_stdio_output@@@2@@__crt_stdio_output@@ABE?AW4state@2@DW432@@Z 1004d110 f i libucrtd:output.obj
 0001:0004c180       ?find_next_state@?$output_processor@DV?$string_output_adapter@D@__crt_stdio_output@@V?$standard_base@DV?$string_output_adapter@D@__crt_stdio_output@@@2@@__crt_stdio_output@@ABE?AW4state@2@DW432@@Z 1004d180 f i libucrtd:output.obj
 0001:0004c1f0       ?find_next_state@?$output_processor@_WV?$stream_output_adapter@_W@__crt_stdio_output@@V?$format_validation_base@_WV?$stream_output_adapter@_W@__crt_stdio_output@@@2@@__crt_stdio_output@@ABE?AW4state@2@_WW432@@Z 1004d1f0 f i libucrtd:output.obj
 0001:0004c260       ?find_next_state@?$output_processor@_WV?$stream_output_adapter@_W@__crt_stdio_output@@V?$positional_parameter_base@_WV?$stream_output_adapter@_W@__crt_stdio_output@@@2@@__crt_stdio_output@@ABE?AW4state@2@_WW432@@Z 1004d260 f i libucrtd:output.obj
 0001:0004c2d0       ?find_next_state@?$output_processor@_WV?$stream_output_adapter@_W@__crt_stdio_output@@V?$standard_base@_WV?$stream_output_adapter@_W@__crt_stdio_output@@@2@@__crt_stdio_output@@ABE?AW4state@2@_WW432@@Z 1004d2d0 f i libucrtd:output.obj
 0001:0004c340       ?find_next_state@?$output_processor@_WV?$string_output_adapter@_W@__crt_stdio_output@@V?$format_validation_base@_WV?$string_output_adapter@_W@__crt_stdio_output@@@2@@__crt_stdio_output@@ABE?AW4state@2@_WW432@@Z 1004d340 f i libucrtd:output.obj
 0001:0004c3b0       ?find_next_state@?$output_processor@_WV?$string_output_adapter@_W@__crt_stdio_output@@V?$positional_parameter_base@_WV?$string_output_adapter@_W@__crt_stdio_output@@@2@@__crt_stdio_output@@ABE?AW4state@2@_WW432@@Z 1004d3b0 f i libucrtd:output.obj
 0001:0004c420       ?find_next_state@?$output_processor@_WV?$string_output_adapter@_W@__crt_stdio_output@@V?$standard_base@_WV?$string_output_adapter@_W@__crt_stdio_output@@@2@@__crt_stdio_output@@ABE?AW4state@2@_WW432@@Z 1004d420 f i libucrtd:output.obj
 0001:0004c490       ?force_decimal_point@__crt_stdio_output@@YAXPADQAU__crt_locale_pointers@@@Z 1004d490 f i libucrtd:output.obj
 0001:0004c560       ?get@__crt_deferred_errno_cache@@QAEAAHXZ 1004d560 f i libucrtd:output.obj
 0001:0004c590       ?get_flags@__crt_stdio_stream@@QBEJXZ 1004d590 f i libucrtd:output.obj
 0001:0004c5b0       ?get_parameter_type@?$positional_parameter_base@DV?$stream_output_adapter@D@__crt_stdio_output@@@__crt_stdio_output@@CA?AW4parameter_type@12@F@Z 1004d5b0 f i libucrtd:output.obj
 0001:0004c5c0       ?get_parameter_type@?$positional_parameter_base@DV?$stream_output_adapter@D@__crt_stdio_output@@@__crt_stdio_output@@CA?AW4parameter_type@12@G@Z 1004d5c0 f i libucrtd:output.obj
 0001:0004c5d0       ?get_parameter_type@?$positional_parameter_base@DV?$stream_output_adapter@D@__crt_stdio_output@@@__crt_stdio_output@@CA?AW4parameter_type@12@H@Z 1004d5d0 f i libucrtd:output.obj
 0001:0004c5e0       ?get_parameter_type@?$positional_parameter_base@DV?$stream_output_adapter@D@__crt_stdio_output@@@__crt_stdio_output@@CA?AW4parameter_type@12@I@Z 1004d5e0 f i libucrtd:output.obj
 0001:0004c5f0       ?get_parameter_type@?$positional_parameter_base@DV?$stream_output_adapter@D@__crt_stdio_output@@@__crt_stdio_output@@CA?AW4parameter_type@12@U_CRT_DOUBLE@@@Z 1004d5f0 f i libucrtd:output.obj
 0001:0004c600       ?get_parameter_type@?$positional_parameter_base@DV?$stream_output_adapter@D@__crt_stdio_output@@@__crt_stdio_output@@CA?AW4parameter_type@12@_J@Z 1004d600 f i libucrtd:output.obj
 0001:0004c610       ?get_parameter_type@?$positional_parameter_base@DV?$stream_output_adapter@D@__crt_stdio_output@@@__crt_stdio_output@@CA?AW4parameter_type@12@_K@Z 1004d610 f i libucrtd:output.obj
 0001:0004c620       ?get_parameter_type@?$positional_parameter_base@DV?$stream_output_adapter@D@__crt_stdio_output@@@__crt_stdio_output@@CA?AW4parameter_type@12@_W@Z 1004d620 f i libucrtd:output.obj
 0001:0004c630       ?get_parameter_type@?$positional_parameter_base@DV?$string_output_adapter@D@__crt_stdio_output@@@__crt_stdio_output@@CA?AW4parameter_type@12@F@Z 1004d630 f i libucrtd:output.obj
 0001:0004c640       ?get_parameter_type@?$positional_parameter_base@DV?$string_output_adapter@D@__crt_stdio_output@@@__crt_stdio_output@@CA?AW4parameter_type@12@G@Z 1004d640 f i libucrtd:output.obj
 0001:0004c650       ?get_parameter_type@?$positional_parameter_base@DV?$string_output_adapter@D@__crt_stdio_output@@@__crt_stdio_output@@CA?AW4parameter_type@12@H@Z 1004d650 f i libucrtd:output.obj
 0001:0004c660       ?get_parameter_type@?$positional_parameter_base@DV?$string_output_adapter@D@__crt_stdio_output@@@__crt_stdio_output@@CA?AW4parameter_type@12@I@Z 1004d660 f i libucrtd:output.obj
 0001:0004c670       ?get_parameter_type@?$positional_parameter_base@DV?$string_output_adapter@D@__crt_stdio_output@@@__crt_stdio_output@@CA?AW4parameter_type@12@U_CRT_DOUBLE@@@Z 1004d670 f i libucrtd:output.obj
 0001:0004c680       ?get_parameter_type@?$positional_parameter_base@DV?$string_output_adapter@D@__crt_stdio_output@@@__crt_stdio_output@@CA?AW4parameter_type@12@_J@Z 1004d680 f i libucrtd:output.obj
 0001:0004c690       ?get_parameter_type@?$positional_parameter_base@DV?$string_output_adapter@D@__crt_stdio_output@@@__crt_stdio_output@@CA?AW4parameter_type@12@_K@Z 1004d690 f i libucrtd:output.obj
 0001:0004c6a0       ?get_parameter_type@?$positional_parameter_base@DV?$string_output_adapter@D@__crt_stdio_output@@@__crt_stdio_output@@CA?AW4parameter_type@12@_W@Z 1004d6a0 f i libucrtd:output.obj
 0001:0004c6b0       ?get_parameter_type@?$positional_parameter_base@_WV?$stream_output_adapter@_W@__crt_stdio_output@@@__crt_stdio_output@@CA?AW4parameter_type@12@F@Z 1004d6b0 f i libucrtd:output.obj
 0001:0004c6c0       ?get_parameter_type@?$positional_parameter_base@_WV?$stream_output_adapter@_W@__crt_stdio_output@@@__crt_stdio_output@@CA?AW4parameter_type@12@G@Z 1004d6c0 f i libucrtd:output.obj
 0001:0004c6d0       ?get_parameter_type@?$positional_parameter_base@_WV?$stream_output_adapter@_W@__crt_stdio_output@@@__crt_stdio_output@@CA?AW4parameter_type@12@H@Z 1004d6d0 f i libucrtd:output.obj
 0001:0004c6e0       ?get_parameter_type@?$positional_parameter_base@_WV?$stream_output_adapter@_W@__crt_stdio_output@@@__crt_stdio_output@@CA?AW4parameter_type@12@I@Z 1004d6e0 f i libucrtd:output.obj
 0001:0004c6f0       ?get_parameter_type@?$positional_parameter_base@_WV?$stream_output_adapter@_W@__crt_stdio_output@@@__crt_stdio_output@@CA?AW4parameter_type@12@U_CRT_DOUBLE@@@Z 1004d6f0 f i libucrtd:output.obj
 0001:0004c700       ?get_parameter_type@?$positional_parameter_base@_WV?$stream_output_adapter@_W@__crt_stdio_output@@@__crt_stdio_output@@CA?AW4parameter_type@12@_J@Z 1004d700 f i libucrtd:output.obj
 0001:0004c710       ?get_parameter_type@?$positional_parameter_base@_WV?$stream_output_adapter@_W@__crt_stdio_output@@@__crt_stdio_output@@CA?AW4parameter_type@12@_K@Z 1004d710 f i libucrtd:output.obj
 0001:0004c720       ?get_parameter_type@?$positional_parameter_base@_WV?$stream_output_adapter@_W@__crt_stdio_output@@@__crt_stdio_output@@CA?AW4parameter_type@12@_W@Z 1004d720 f i libucrtd:output.obj
 0001:0004c730       ?get_parameter_type@?$positional_parameter_base@_WV?$string_output_adapter@_W@__crt_stdio_output@@@__crt_stdio_output@@CA?AW4parameter_type@12@F@Z 1004d730 f i libucrtd:output.obj
 0001:0004c740       ?get_parameter_type@?$positional_parameter_base@_WV?$string_output_adapter@_W@__crt_stdio_output@@@__crt_stdio_output@@CA?AW4parameter_type@12@G@Z 1004d740 f i libucrtd:output.obj
 0001:0004c750       ?get_parameter_type@?$positional_parameter_base@_WV?$string_output_adapter@_W@__crt_stdio_output@@@__crt_stdio_output@@CA?AW4parameter_type@12@H@Z 1004d750 f i libucrtd:output.obj
 0001:0004c760       ?get_parameter_type@?$positional_parameter_base@_WV?$string_output_adapter@_W@__crt_stdio_output@@@__crt_stdio_output@@CA?AW4parameter_type@12@I@Z 1004d760 f i libucrtd:output.obj
 0001:0004c770       ?get_parameter_type@?$positional_parameter_base@_WV?$string_output_adapter@_W@__crt_stdio_output@@@__crt_stdio_output@@CA?AW4parameter_type@12@U_CRT_DOUBLE@@@Z 1004d770 f i libucrtd:output.obj
 0001:0004c780       ?get_parameter_type@?$positional_parameter_base@_WV?$string_output_adapter@_W@__crt_stdio_output@@@__crt_stdio_output@@CA?AW4parameter_type@12@_J@Z 1004d780 f i libucrtd:output.obj
 0001:0004c790       ?get_parameter_type@?$positional_parameter_base@_WV?$string_output_adapter@_W@__crt_stdio_output@@@__crt_stdio_output@@CA?AW4parameter_type@12@_K@Z 1004d790 f i libucrtd:output.obj
 0001:0004c7a0       ?get_parameter_type@?$positional_parameter_base@_WV?$string_output_adapter@_W@__crt_stdio_output@@@__crt_stdio_output@@CA?AW4parameter_type@12@_W@Z 1004d7a0 f i libucrtd:output.obj
 0001:0004c7b0       ?has_flag@?$output_processor@DV?$stream_output_adapter@D@__crt_stdio_output@@V?$format_validation_base@DV?$stream_output_adapter@D@__crt_stdio_output@@@2@@__crt_stdio_output@@ABE_NI@Z 1004d7b0 f i libucrtd:output.obj
 0001:0004c7e0       ?has_flag@?$output_processor@DV?$stream_output_adapter@D@__crt_stdio_output@@V?$positional_parameter_base@DV?$stream_output_adapter@D@__crt_stdio_output@@@2@@__crt_stdio_output@@ABE_NI@Z 1004d7e0 f i libucrtd:output.obj
 0001:0004c810       ?has_flag@?$output_processor@DV?$stream_output_adapter@D@__crt_stdio_output@@V?$standard_base@DV?$stream_output_adapter@D@__crt_stdio_output@@@2@@__crt_stdio_output@@ABE_NI@Z 1004d810 f i libucrtd:output.obj
 0001:0004c840       ?has_flag@?$output_processor@DV?$string_output_adapter@D@__crt_stdio_output@@V?$format_validation_base@DV?$string_output_adapter@D@__crt_stdio_output@@@2@@__crt_stdio_output@@ABE_NI@Z 1004d840 f i libucrtd:output.obj
 0001:0004c870       ?has_flag@?$output_processor@DV?$string_output_adapter@D@__crt_stdio_output@@V?$positional_parameter_base@DV?$string_output_adapter@D@__crt_stdio_output@@@2@@__crt_stdio_output@@ABE_NI@Z 1004d870 f i libucrtd:output.obj
 0001:0004c8a0       ?has_flag@?$output_processor@DV?$string_output_adapter@D@__crt_stdio_output@@V?$standard_base@DV?$string_output_adapter@D@__crt_stdio_output@@@2@@__crt_stdio_output@@ABE_NI@Z 1004d8a0 f i libucrtd:output.obj
 0001:0004c8d0       ?has_flag@?$output_processor@_WV?$stream_output_adapter@_W@__crt_stdio_output@@V?$format_validation_base@_WV?$stream_output_adapter@_W@__crt_stdio_output@@@2@@__crt_stdio_output@@ABE_NI@Z 1004d8d0 f i libucrtd:output.obj
 0001:0004c900       ?has_flag@?$output_processor@_WV?$stream_output_adapter@_W@__crt_stdio_output@@V?$positional_parameter_base@_WV?$stream_output_adapter@_W@__crt_stdio_output@@@2@@__crt_stdio_output@@ABE_NI@Z 1004d900 f i libucrtd:output.obj
 0001:0004c930       ?has_flag@?$output_processor@_WV?$stream_output_adapter@_W@__crt_stdio_output@@V?$standard_base@_WV?$stream_output_adapter@_W@__crt_stdio_output@@@2@@__crt_stdio_output@@ABE_NI@Z 1004d930 f i libucrtd:output.obj
 0001:0004c960       ?has_flag@?$output_processor@_WV?$string_output_adapter@_W@__crt_stdio_output@@V?$format_validation_base@_WV?$string_output_adapter@_W@__crt_stdio_output@@@2@@__crt_stdio_output@@ABE_NI@Z 1004d960 f i libucrtd:output.obj
 0001:0004c990       ?has_flag@?$output_processor@_WV?$string_output_adapter@_W@__crt_stdio_output@@V?$positional_parameter_base@_WV?$string_output_adapter@_W@__crt_stdio_output@@@2@@__crt_stdio_output@@ABE_NI@Z 1004d990 f i libucrtd:output.obj
 0001:0004c9c0       ?has_flag@?$output_processor@_WV?$string_output_adapter@_W@__crt_stdio_output@@V?$standard_base@_WV?$string_output_adapter@_W@__crt_stdio_output@@@2@@__crt_stdio_output@@ABE_NI@Z 1004d9c0 f i libucrtd:output.obj
 0001:0004c9f0       ?is_positional_parameter_reappearance_consistent@?$positional_parameter_base@DV?$stream_output_adapter@D@__crt_stdio_output@@@__crt_stdio_output@@AAE_NABUparameter_data@12@W4parameter_type@12@DW4length_modifier@2@@Z 1004d9f0 f i libucrtd:output.obj
 0001:0004cc20       ?is_positional_parameter_reappearance_consistent@?$positional_parameter_base@DV?$string_output_adapter@D@__crt_stdio_output@@@__crt_stdio_output@@AAE_NABUparameter_data@12@W4parameter_type@12@DW4length_modifier@2@@Z 1004dc20 f i libucrtd:output.obj
 0001:0004ce50       ?is_positional_parameter_reappearance_consistent@?$positional_parameter_base@_WV?$stream_output_adapter@_W@__crt_stdio_output@@@__crt_stdio_output@@AAE_NABUparameter_data@12@W4parameter_type@12@_WW4length_modifier@2@@Z 1004de50 f i libucrtd:output.obj
 0001:0004d080       ?is_positional_parameter_reappearance_consistent@?$positional_parameter_base@_WV?$string_output_adapter@_W@__crt_stdio_output@@@__crt_stdio_output@@AAE_NABUparameter_data@12@W4parameter_type@12@_WW4length_modifier@2@@Z 1004e080 f i libucrtd:output.obj
 0001:0004d2b0       ?is_string_backed@__crt_stdio_stream@@QBE_NXZ 1004e2b0 f i libucrtd:output.obj
 0001:0004d2f0       ?narrow_null_string@?$output_processor@DV?$stream_output_adapter@D@__crt_stdio_output@@V?$format_validation_base@DV?$stream_output_adapter@D@__crt_stdio_output@@@2@@__crt_stdio_output@@CAPADXZ 1004e2f0 f i libucrtd:output.obj
 0001:0004d300       ?narrow_null_string@?$output_processor@DV?$stream_output_adapter@D@__crt_stdio_output@@V?$positional_parameter_base@DV?$stream_output_adapter@D@__crt_stdio_output@@@2@@__crt_stdio_output@@CAPADXZ 1004e300 f i libucrtd:output.obj
 0001:0004d310       ?narrow_null_string@?$output_processor@DV?$stream_output_adapter@D@__crt_stdio_output@@V?$standard_base@DV?$stream_output_adapter@D@__crt_stdio_output@@@2@@__crt_stdio_output@@CAPADXZ 1004e310 f i libucrtd:output.obj
 0001:0004d320       ?narrow_null_string@?$output_processor@DV?$string_output_adapter@D@__crt_stdio_output@@V?$format_validation_base@DV?$string_output_adapter@D@__crt_stdio_output@@@2@@__crt_stdio_output@@CAPADXZ 1004e320 f i libucrtd:output.obj
 0001:0004d330       ?narrow_null_string@?$output_processor@DV?$string_output_adapter@D@__crt_stdio_output@@V?$positional_parameter_base@DV?$string_output_adapter@D@__crt_stdio_output@@@2@@__crt_stdio_output@@CAPADXZ 1004e330 f i libucrtd:output.obj
 0001:0004d340       ?narrow_null_string@?$output_processor@DV?$string_output_adapter@D@__crt_stdio_output@@V?$standard_base@DV?$string_output_adapter@D@__crt_stdio_output@@@2@@__crt_stdio_output@@CAPADXZ 1004e340 f i libucrtd:output.obj
 0001:0004d350       ?narrow_null_string@?$output_processor@_WV?$stream_output_adapter@_W@__crt_stdio_output@@V?$format_validation_base@_WV?$stream_output_adapter@_W@__crt_stdio_output@@@2@@__crt_stdio_output@@CAPADXZ 1004e350 f i libucrtd:output.obj
 0001:0004d360       ?narrow_null_string@?$output_processor@_WV?$stream_output_adapter@_W@__crt_stdio_output@@V?$positional_parameter_base@_WV?$stream_output_adapter@_W@__crt_stdio_output@@@2@@__crt_stdio_output@@CAPADXZ 1004e360 f i libucrtd:output.obj
 0001:0004d370       ?narrow_null_string@?$output_processor@_WV?$stream_output_adapter@_W@__crt_stdio_output@@V?$standard_base@_WV?$stream_output_adapter@_W@__crt_stdio_output@@@2@@__crt_stdio_output@@CAPADXZ 1004e370 f i libucrtd:output.obj
 0001:0004d380       ?narrow_null_string@?$output_processor@_WV?$string_output_adapter@_W@__crt_stdio_output@@V?$format_validation_base@_WV?$string_output_adapter@_W@__crt_stdio_output@@@2@@__crt_stdio_output@@CAPADXZ 1004e380 f i libucrtd:output.obj
 0001:0004d390       ?narrow_null_string@?$output_processor@_WV?$string_output_adapter@_W@__crt_stdio_output@@V?$positional_parameter_base@_WV?$string_output_adapter@_W@__crt_stdio_output@@@2@@__crt_stdio_output@@CAPADXZ 1004e390 f i libucrtd:output.obj
 0001:0004d3a0       ?narrow_null_string@?$output_processor@_WV?$string_output_adapter@_W@__crt_stdio_output@@V?$standard_base@_WV?$string_output_adapter@_W@__crt_stdio_output@@@2@@__crt_stdio_output@@CAPADXZ 1004e3a0 f i libucrtd:output.obj
 0001:0004d3b0       ?parse_int_from_format_string@?$output_processor@DV?$stream_output_adapter@D@__crt_stdio_output@@V?$format_validation_base@DV?$stream_output_adapter@D@__crt_stdio_output@@@2@@__crt_stdio_output@@AAE_NQAH@Z 1004e3b0 f i libucrtd:output.obj
 0001:0004d470       ?parse_int_from_format_string@?$output_processor@DV?$stream_output_adapter@D@__crt_stdio_output@@V?$positional_parameter_base@DV?$stream_output_adapter@D@__crt_stdio_output@@@2@@__crt_stdio_output@@AAE_NQAH@Z 1004e470 f i libucrtd:output.obj
 0001:0004d530       ?parse_int_from_format_string@?$output_processor@DV?$stream_output_adapter@D@__crt_stdio_output@@V?$standard_base@DV?$stream_output_adapter@D@__crt_stdio_output@@@2@@__crt_stdio_output@@AAE_NQAH@Z 1004e530 f i libucrtd:output.obj
 0001:0004d5f0       ?parse_int_from_format_string@?$output_processor@DV?$string_output_adapter@D@__crt_stdio_output@@V?$format_validation_base@DV?$string_output_adapter@D@__crt_stdio_output@@@2@@__crt_stdio_output@@AAE_NQAH@Z 1004e5f0 f i libucrtd:output.obj
 0001:0004d6b0       ?parse_int_from_format_string@?$output_processor@DV?$string_output_adapter@D@__crt_stdio_output@@V?$positional_parameter_base@DV?$string_output_adapter@D@__crt_stdio_output@@@2@@__crt_stdio_output@@AAE_NQAH@Z 1004e6b0 f i libucrtd:output.obj
 0001:0004d770       ?parse_int_from_format_string@?$output_processor@DV?$string_output_adapter@D@__crt_stdio_output@@V?$standard_base@DV?$string_output_adapter@D@__crt_stdio_output@@@2@@__crt_stdio_output@@AAE_NQAH@Z 1004e770 f i libucrtd:output.obj
 0001:0004d830       ?parse_int_from_format_string@?$output_processor@_WV?$stream_output_adapter@_W@__crt_stdio_output@@V?$format_validation_base@_WV?$stream_output_adapter@_W@__crt_stdio_output@@@2@@__crt_stdio_output@@AAE_NQAH@Z 1004e830 f i libucrtd:output.obj
 0001:0004d8f0       ?parse_int_from_format_string@?$output_processor@_WV?$stream_output_adapter@_W@__crt_stdio_output@@V?$positional_parameter_base@_WV?$stream_output_adapter@_W@__crt_stdio_output@@@2@@__crt_stdio_output@@AAE_NQAH@Z 1004e8f0 f i libucrtd:output.obj
 0001:0004d9b0       ?parse_int_from_format_string@?$output_processor@_WV?$stream_output_adapter@_W@__crt_stdio_output@@V?$standard_base@_WV?$stream_output_adapter@_W@__crt_stdio_output@@@2@@__crt_stdio_output@@AAE_NQAH@Z 1004e9b0 f i libucrtd:output.obj
 0001:0004da70       ?parse_int_from_format_string@?$output_processor@_WV?$string_output_adapter@_W@__crt_stdio_output@@V?$format_validation_base@_WV?$string_output_adapter@_W@__crt_stdio_output@@@2@@__crt_stdio_output@@AAE_NQAH@Z 1004ea70 f i libucrtd:output.obj
 0001:0004db30       ?parse_int_from_format_string@?$output_processor@_WV?$string_output_adapter@_W@__crt_stdio_output@@V?$positional_parameter_base@_WV?$string_output_adapter@_W@__crt_stdio_output@@@2@@__crt_stdio_output@@AAE_NQAH@Z 1004eb30 f i libucrtd:output.obj
 0001:0004dbf0       ?parse_int_from_format_string@?$output_processor@_WV?$string_output_adapter@_W@__crt_stdio_output@@V?$standard_base@_WV?$string_output_adapter@_W@__crt_stdio_output@@@2@@__crt_stdio_output@@AAE_NQAH@Z 1004ebf0 f i libucrtd:output.obj
 0001:0004dcb0       ?process@?$output_processor@DV?$stream_output_adapter@D@__crt_stdio_output@@V?$format_validation_base@DV?$stream_output_adapter@D@__crt_stdio_output@@@2@@__crt_stdio_output@@QAEHXZ 1004ecb0 f i libucrtd:output.obj
 0001:0004df60       ?process@?$output_processor@DV?$stream_output_adapter@D@__crt_stdio_output@@V?$positional_parameter_base@DV?$stream_output_adapter@D@__crt_stdio_output@@@2@@__crt_stdio_output@@QAEHXZ 1004ef60 f i libucrtd:output.obj
 0001:0004e210       ?process@?$output_processor@DV?$stream_output_adapter@D@__crt_stdio_output@@V?$standard_base@DV?$stream_output_adapter@D@__crt_stdio_output@@@2@@__crt_stdio_output@@QAEHXZ 1004f210 f i libucrtd:output.obj
 0001:0004e4c0       ?process@?$output_processor@DV?$string_output_adapter@D@__crt_stdio_output@@V?$format_validation_base@DV?$string_output_adapter@D@__crt_stdio_output@@@2@@__crt_stdio_output@@QAEHXZ 1004f4c0 f i libucrtd:output.obj
 0001:0004e770       ?process@?$output_processor@DV?$string_output_adapter@D@__crt_stdio_output@@V?$positional_parameter_base@DV?$string_output_adapter@D@__crt_stdio_output@@@2@@__crt_stdio_output@@QAEHXZ 1004f770 f i libucrtd:output.obj
 0001:0004ea20       ?process@?$output_processor@DV?$string_output_adapter@D@__crt_stdio_output@@V?$standard_base@DV?$string_output_adapter@D@__crt_stdio_output@@@2@@__crt_stdio_output@@QAEHXZ 1004fa20 f i libucrtd:output.obj
 0001:0004ecd0       ?process@?$output_processor@_WV?$stream_output_adapter@_W@__crt_stdio_output@@V?$format_validation_base@_WV?$stream_output_adapter@_W@__crt_stdio_output@@@2@@__crt_stdio_output@@QAEHXZ 1004fcd0 f i libucrtd:output.obj
 0001:0004ef80       ?process@?$output_processor@_WV?$stream_output_adapter@_W@__crt_stdio_output@@V?$positional_parameter_base@_WV?$stream_output_adapter@_W@__crt_stdio_output@@@2@@__crt_stdio_output@@QAEHXZ 1004ff80 f i libucrtd:output.obj
 0001:0004f230       ?process@?$output_processor@_WV?$stream_output_adapter@_W@__crt_stdio_output@@V?$standard_base@_WV?$stream_output_adapter@_W@__crt_stdio_output@@@2@@__crt_stdio_output@@QAEHXZ 10050230 f i libucrtd:output.obj
 0001:0004f4e0       ?process@?$output_processor@_WV?$string_output_adapter@_W@__crt_stdio_output@@V?$format_validation_base@_WV?$string_output_adapter@_W@__crt_stdio_output@@@2@@__crt_stdio_output@@QAEHXZ 100504e0 f i libucrtd:output.obj
 0001:0004f790       ?process@?$output_processor@_WV?$string_output_adapter@_W@__crt_stdio_output@@V?$positional_parameter_base@_WV?$string_output_adapter@_W@__crt_stdio_output@@@2@@__crt_stdio_output@@QAEHXZ 10050790 f i libucrtd:output.obj
 0001:0004fa40       ?process@?$output_processor@_WV?$string_output_adapter@_W@__crt_stdio_output@@V?$standard_base@_WV?$string_output_adapter@_W@__crt_stdio_output@@@2@@__crt_stdio_output@@QAEHXZ 10050a40 f i libucrtd:output.obj
 0001:0004fcf0       ?public_stream@__crt_stdio_stream@@QBEPAU_iobuf@@XZ 10050cf0 f i libucrtd:output.obj
 0001:0004fd10       ?set_flag@?$output_processor@DV?$stream_output_adapter@D@__crt_stdio_output@@V?$format_validation_base@DV?$stream_output_adapter@D@__crt_stdio_output@@@2@@__crt_stdio_output@@AAEXI@Z 10050d10 f i libucrtd:output.obj
 0001:0004fd30       ?set_flag@?$output_processor@DV?$stream_output_adapter@D@__crt_stdio_output@@V?$positional_parameter_base@DV?$stream_output_adapter@D@__crt_stdio_output@@@2@@__crt_stdio_output@@AAEXI@Z 10050d30 f i libucrtd:output.obj
 0001:0004fd50       ?set_flag@?$output_processor@DV?$stream_output_adapter@D@__crt_stdio_output@@V?$standard_base@DV?$stream_output_adapter@D@__crt_stdio_output@@@2@@__crt_stdio_output@@AAEXI@Z 10050d50 f i libucrtd:output.obj
 0001:0004fd70       ?set_flag@?$output_processor@DV?$string_output_adapter@D@__crt_stdio_output@@V?$format_validation_base@DV?$string_output_adapter@D@__crt_stdio_output@@@2@@__crt_stdio_output@@AAEXI@Z 10050d70 f i libucrtd:output.obj
 0001:0004fd90       ?set_flag@?$output_processor@DV?$string_output_adapter@D@__crt_stdio_output@@V?$positional_parameter_base@DV?$string_output_adapter@D@__crt_stdio_output@@@2@@__crt_stdio_output@@AAEXI@Z 10050d90 f i libucrtd:output.obj
 0001:0004fdb0       ?set_flag@?$output_processor@DV?$string_output_adapter@D@__crt_stdio_output@@V?$standard_base@DV?$string_output_adapter@D@__crt_stdio_output@@@2@@__crt_stdio_output@@AAEXI@Z 10050db0 f i libucrtd:output.obj
 0001:0004fdd0       ?set_flag@?$output_processor@_WV?$stream_output_adapter@_W@__crt_stdio_output@@V?$format_validation_base@_WV?$stream_output_adapter@_W@__crt_stdio_output@@@2@@__crt_stdio_output@@AAEXI@Z 10050dd0 f i libucrtd:output.obj
 0001:0004fdf0       ?set_flag@?$output_processor@_WV?$stream_output_adapter@_W@__crt_stdio_output@@V?$positional_parameter_base@_WV?$stream_output_adapter@_W@__crt_stdio_output@@@2@@__crt_stdio_output@@AAEXI@Z 10050df0 f i libucrtd:output.obj
 0001:0004fe10       ?set_flag@?$output_processor@_WV?$stream_output_adapter@_W@__crt_stdio_output@@V?$standard_base@_WV?$stream_output_adapter@_W@__crt_stdio_output@@@2@@__crt_stdio_output@@AAEXI@Z 10050e10 f i libucrtd:output.obj
 0001:0004fe30       ?set_flag@?$output_processor@_WV?$string_output_adapter@_W@__crt_stdio_output@@V?$format_validation_base@_WV?$string_output_adapter@_W@__crt_stdio_output@@@2@@__crt_stdio_output@@AAEXI@Z 10050e30 f i libucrtd:output.obj
 0001:0004fe50       ?set_flag@?$output_processor@_WV?$string_output_adapter@_W@__crt_stdio_output@@V?$positional_parameter_base@_WV?$string_output_adapter@_W@__crt_stdio_output@@@2@@__crt_stdio_output@@AAEXI@Z 10050e50 f i libucrtd:output.obj
 0001:0004fe70       ?set_flag@?$output_processor@_WV?$string_output_adapter@_W@__crt_stdio_output@@V?$standard_base@_WV?$string_output_adapter@_W@__crt_stdio_output@@@2@@__crt_stdio_output@@AAEXI@Z 10050e70 f i libucrtd:output.obj
 0001:0004fe90       ?should_format@?$positional_parameter_base@DV?$stream_output_adapter@D@__crt_stdio_output@@@__crt_stdio_output@@IAE_NXZ 10050e90 f i libucrtd:output.obj
 0001:0004fed0       ?should_format@?$positional_parameter_base@DV?$string_output_adapter@D@__crt_stdio_output@@@__crt_stdio_output@@IAE_NXZ 10050ed0 f i libucrtd:output.obj
 0001:0004ff10       ?should_format@?$positional_parameter_base@_WV?$stream_output_adapter@_W@__crt_stdio_output@@@__crt_stdio_output@@IAE_NXZ 10050f10 f i libucrtd:output.obj
 0001:0004ff50       ?should_format@?$positional_parameter_base@_WV?$string_output_adapter@_W@__crt_stdio_output@@@__crt_stdio_output@@IAE_NXZ 10050f50 f i libucrtd:output.obj
 0001:0004ff90       ?should_format@?$standard_base@DV?$stream_output_adapter@D@__crt_stdio_output@@@__crt_stdio_output@@IAE_NXZ 10050f90 f i libucrtd:output.obj
 0001:0004ffa0       ?should_format@?$standard_base@DV?$string_output_adapter@D@__crt_stdio_output@@@__crt_stdio_output@@IAE_NXZ 10050fa0 f i libucrtd:output.obj
 0001:0004ffb0       ?should_format@?$standard_base@_WV?$stream_output_adapter@_W@__crt_stdio_output@@@__crt_stdio_output@@IAE_NXZ 10050fb0 f i libucrtd:output.obj
 0001:0004ffc0       ?should_format@?$standard_base@_WV?$string_output_adapter@_W@__crt_stdio_output@@@__crt_stdio_output@@IAE_NXZ 10050fc0 f i libucrtd:output.obj
 0001:0004ffd0       ?should_skip_normal_state_processing@?$positional_parameter_base@DV?$stream_output_adapter@D@__crt_stdio_output@@@__crt_stdio_output@@IAE_NXZ 10050fd0 f i libucrtd:output.obj
 0001:00050020       ?should_skip_normal_state_processing@?$positional_parameter_base@DV?$string_output_adapter@D@__crt_stdio_output@@@__crt_stdio_output@@IAE_NXZ 10051020 f i libucrtd:output.obj
 0001:00050070       ?should_skip_normal_state_processing@?$positional_parameter_base@_WV?$stream_output_adapter@_W@__crt_stdio_output@@@__crt_stdio_output@@IAE_NXZ 10051070 f i libucrtd:output.obj
 0001:000500c0       ?should_skip_normal_state_processing@?$positional_parameter_base@_WV?$string_output_adapter@_W@__crt_stdio_output@@@__crt_stdio_output@@IAE_NXZ 100510c0 f i libucrtd:output.obj
 0001:00050110       ?should_skip_normal_state_processing@?$standard_base@DV?$stream_output_adapter@D@__crt_stdio_output@@@__crt_stdio_output@@IAE_NXZ 10051110 f i libucrtd:output.obj
 0001:00050120       ?should_skip_normal_state_processing@?$standard_base@DV?$string_output_adapter@D@__crt_stdio_output@@@__crt_stdio_output@@IAE_NXZ 10051120 f i libucrtd:output.obj
 0001:00050130       ?should_skip_normal_state_processing@?$standard_base@_WV?$stream_output_adapter@_W@__crt_stdio_output@@@__crt_stdio_output@@IAE_NXZ 10051130 f i libucrtd:output.obj
 0001:00050140       ?should_skip_normal_state_processing@?$standard_base@_WV?$string_output_adapter@_W@__crt_stdio_output@@@__crt_stdio_output@@IAE_NXZ 10051140 f i libucrtd:output.obj
 0001:00050150       ?should_skip_type_state_output@?$positional_parameter_base@DV?$stream_output_adapter@D@__crt_stdio_output@@@__crt_stdio_output@@IBE_NXZ 10051150 f i libucrtd:output.obj
 0001:00050190       ?should_skip_type_state_output@?$positional_parameter_base@DV?$string_output_adapter@D@__crt_stdio_output@@@__crt_stdio_output@@IBE_NXZ 10051190 f i libucrtd:output.obj
 0001:000501d0       ?should_skip_type_state_output@?$positional_parameter_base@_WV?$stream_output_adapter@_W@__crt_stdio_output@@@__crt_stdio_output@@IBE_NXZ 100511d0 f i libucrtd:output.obj
 0001:00050210       ?should_skip_type_state_output@?$positional_parameter_base@_WV?$string_output_adapter@_W@__crt_stdio_output@@@__crt_stdio_output@@IBE_NXZ 10051210 f i libucrtd:output.obj
 0001:00050250       ?should_skip_type_state_output@?$standard_base@DV?$stream_output_adapter@D@__crt_stdio_output@@@__crt_stdio_output@@IBE_NXZ 10051250 f i libucrtd:output.obj
 0001:00050260       ?should_skip_type_state_output@?$standard_base@DV?$string_output_adapter@D@__crt_stdio_output@@@__crt_stdio_output@@IBE_NXZ 10051260 f i libucrtd:output.obj
 0001:00050270       ?should_skip_type_state_output@?$standard_base@_WV?$stream_output_adapter@_W@__crt_stdio_output@@@__crt_stdio_output@@IBE_NXZ 10051270 f i libucrtd:output.obj
 0001:00050280       ?should_skip_type_state_output@?$standard_base@_WV?$string_output_adapter@_W@__crt_stdio_output@@@__crt_stdio_output@@IBE_NXZ 10051280 f i libucrtd:output.obj
 0001:00050290       ?state_case_dot@?$output_processor@DV?$stream_output_adapter@D@__crt_stdio_output@@V?$format_validation_base@DV?$stream_output_adapter@D@__crt_stdio_output@@@2@@__crt_stdio_output@@AAE_NXZ 10051290 f i libucrtd:output.obj
 0001:000502b0       ?state_case_dot@?$output_processor@DV?$stream_output_adapter@D@__crt_stdio_output@@V?$positional_parameter_base@DV?$stream_output_adapter@D@__crt_stdio_output@@@2@@__crt_stdio_output@@AAE_NXZ 100512b0 f i libucrtd:output.obj
 0001:000502d0       ?state_case_dot@?$output_processor@DV?$stream_output_adapter@D@__crt_stdio_output@@V?$standard_base@DV?$stream_output_adapter@D@__crt_stdio_output@@@2@@__crt_stdio_output@@AAE_NXZ 100512d0 f i libucrtd:output.obj
 0001:000502f0       ?state_case_dot@?$output_processor@DV?$string_output_adapter@D@__crt_stdio_output@@V?$format_validation_base@DV?$string_output_adapter@D@__crt_stdio_output@@@2@@__crt_stdio_output@@AAE_NXZ 100512f0 f i libucrtd:output.obj
 0001:00050310       ?state_case_dot@?$output_processor@DV?$string_output_adapter@D@__crt_stdio_output@@V?$positional_parameter_base@DV?$string_output_adapter@D@__crt_stdio_output@@@2@@__crt_stdio_output@@AAE_NXZ 10051310 f i libucrtd:output.obj
 0001:00050330       ?state_case_dot@?$output_processor@DV?$string_output_adapter@D@__crt_stdio_output@@V?$standard_base@DV?$string_output_adapter@D@__crt_stdio_output@@@2@@__crt_stdio_output@@AAE_NXZ 10051330 f i libucrtd:output.obj
 0001:00050350       ?state_case_dot@?$output_processor@_WV?$stream_output_adapter@_W@__crt_stdio_output@@V?$format_validation_base@_WV?$stream_output_adapter@_W@__crt_stdio_output@@@2@@__crt_stdio_output@@AAE_NXZ 10051350 f i libucrtd:output.obj
 0001:00050370       ?state_case_dot@?$output_processor@_WV?$stream_output_adapter@_W@__crt_stdio_output@@V?$positional_parameter_base@_WV?$stream_output_adapter@_W@__crt_stdio_output@@@2@@__crt_stdio_output@@AAE_NXZ 10051370 f i libucrtd:output.obj
 0001:00050390       ?state_case_dot@?$output_processor@_WV?$stream_output_adapter@_W@__crt_stdio_output@@V?$standard_base@_WV?$stream_output_adapter@_W@__crt_stdio_output@@@2@@__crt_stdio_output@@AAE_NXZ 10051390 f i libucrtd:output.obj
 0001:000503b0       ?state_case_dot@?$output_processor@_WV?$string_output_adapter@_W@__crt_stdio_output@@V?$format_validation_base@_WV?$string_output_adapter@_W@__crt_stdio_output@@@2@@__crt_stdio_output@@AAE_NXZ 100513b0 f i libucrtd:output.obj
 0001:000503d0       ?state_case_dot@?$output_processor@_WV?$string_output_adapter@_W@__crt_stdio_output@@V?$positional_parameter_base@_WV?$string_output_adapter@_W@__crt_stdio_output@@@2@@__crt_stdio_output@@AAE_NXZ 100513d0 f i libucrtd:output.obj
 0001:000503f0       ?state_case_dot@?$output_processor@_WV?$string_output_adapter@_W@__crt_stdio_output@@V?$standard_base@_WV?$string_output_adapter@_W@__crt_stdio_output@@@2@@__crt_stdio_output@@AAE_NXZ 100513f0 f i libucrtd:output.obj
 0001:00050410       ?state_case_flag@?$output_processor@DV?$stream_output_adapter@D@__crt_stdio_output@@V?$format_validation_base@DV?$stream_output_adapter@D@__crt_stdio_output@@@2@@__crt_stdio_output@@AAE_NXZ 10051410 f i libucrtd:output.obj
 0001:000504c0       ?state_case_flag@?$output_processor@DV?$stream_output_adapter@D@__crt_stdio_output@@V?$positional_parameter_base@DV?$stream_output_adapter@D@__crt_stdio_output@@@2@@__crt_stdio_output@@AAE_NXZ 100514c0 f i libucrtd:output.obj
 0001:00050570       ?state_case_flag@?$output_processor@DV?$stream_output_adapter@D@__crt_stdio_output@@V?$standard_base@DV?$stream_output_adapter@D@__crt_stdio_output@@@2@@__crt_stdio_output@@AAE_NXZ 10051570 f i libucrtd:output.obj
 0001:00050620       ?state_case_flag@?$output_processor@DV?$string_output_adapter@D@__crt_stdio_output@@V?$format_validation_base@DV?$string_output_adapter@D@__crt_stdio_output@@@2@@__crt_stdio_output@@AAE_NXZ 10051620 f i libucrtd:output.obj
 0001:000506d0       ?state_case_flag@?$output_processor@DV?$string_output_adapter@D@__crt_stdio_output@@V?$positional_parameter_base@DV?$string_output_adapter@D@__crt_stdio_output@@@2@@__crt_stdio_output@@AAE_NXZ 100516d0 f i libucrtd:output.obj
 0001:00050780       ?state_case_flag@?$output_processor@DV?$string_output_adapter@D@__crt_stdio_output@@V?$standard_base@DV?$string_output_adapter@D@__crt_stdio_output@@@2@@__crt_stdio_output@@AAE_NXZ 10051780 f i libucrtd:output.obj
 0001:00050830       ?state_case_flag@?$output_processor@_WV?$stream_output_adapter@_W@__crt_stdio_output@@V?$format_validation_base@_WV?$stream_output_adapter@_W@__crt_stdio_output@@@2@@__crt_stdio_output@@AAE_NXZ 10051830 f i libucrtd:output.obj
 0001:000508e0       ?state_case_flag@?$output_processor@_WV?$stream_output_adapter@_W@__crt_stdio_output@@V?$positional_parameter_base@_WV?$stream_output_adapter@_W@__crt_stdio_output@@@2@@__crt_stdio_output@@AAE_NXZ 100518e0 f i libucrtd:output.obj
 0001:00050990       ?state_case_flag@?$output_processor@_WV?$stream_output_adapter@_W@__crt_stdio_output@@V?$standard_base@_WV?$stream_output_adapter@_W@__crt_stdio_output@@@2@@__crt_stdio_output@@AAE_NXZ 10051990 f i libucrtd:output.obj
 0001:00050a40       ?state_case_flag@?$output_processor@_WV?$string_output_adapter@_W@__crt_stdio_output@@V?$format_validation_base@_WV?$string_output_adapter@_W@__crt_stdio_output@@@2@@__crt_stdio_output@@AAE_NXZ 10051a40 f i libucrtd:output.obj
 0001:00050af0       ?state_case_flag@?$output_processor@_WV?$string_output_adapter@_W@__crt_stdio_output@@V?$positional_parameter_base@_WV?$string_output_adapter@_W@__crt_stdio_output@@@2@@__crt_stdio_output@@AAE_NXZ 10051af0 f i libucrtd:output.obj
 0001:00050ba0       ?state_case_flag@?$output_processor@_WV?$string_output_adapter@_W@__crt_stdio_output@@V?$standard_base@_WV?$string_output_adapter@_W@__crt_stdio_output@@@2@@__crt_stdio_output@@AAE_NXZ 10051ba0 f i libucrtd:output.obj
 0001:00050c50       ?state_case_normal@?$output_processor@DV?$stream_output_adapter@D@__crt_stdio_output@@V?$format_validation_base@DV?$stream_output_adapter@D@__crt_stdio_output@@@2@@__crt_stdio_output@@AAE_NXZ 10051c50 f i libucrtd:output.obj
 0001:00050d00       ?state_case_normal@?$output_processor@DV?$stream_output_adapter@D@__crt_stdio_output@@V?$positional_parameter_base@DV?$stream_output_adapter@D@__crt_stdio_output@@@2@@__crt_stdio_output@@AAE_NXZ 10051d00 f i libucrtd:output.obj
 0001:00050db0       ?state_case_normal@?$output_processor@DV?$stream_output_adapter@D@__crt_stdio_output@@V?$standard_base@DV?$stream_output_adapter@D@__crt_stdio_output@@@2@@__crt_stdio_output@@AAE_NXZ 10051db0 f i libucrtd:output.obj
 0001:00050e60       ?state_case_normal@?$output_processor@DV?$string_output_adapter@D@__crt_stdio_output@@V?$format_validation_base@DV?$string_output_adapter@D@__crt_stdio_output@@@2@@__crt_stdio_output@@AAE_NXZ 10051e60 f i libucrtd:output.obj
 0001:00050f10       ?state_case_normal@?$output_processor@DV?$string_output_adapter@D@__crt_stdio_output@@V?$positional_parameter_base@DV?$string_output_adapter@D@__crt_stdio_output@@@2@@__crt_stdio_output@@AAE_NXZ 10051f10 f i libucrtd:output.obj
 0001:00050fc0       ?state_case_normal@?$output_processor@DV?$string_output_adapter@D@__crt_stdio_output@@V?$standard_base@DV?$string_output_adapter@D@__crt_stdio_output@@@2@@__crt_stdio_output@@AAE_NXZ 10051fc0 f i libucrtd:output.obj
 0001:00051070       ?state_case_normal@?$output_processor@_WV?$stream_output_adapter@_W@__crt_stdio_output@@V?$format_validation_base@_WV?$stream_output_adapter@_W@__crt_stdio_output@@@2@@__crt_stdio_output@@AAE_NXZ 10052070 f i libucrtd:output.obj
 0001:00051120       ?state_case_normal@?$output_processor@_WV?$stream_output_adapter@_W@__crt_stdio_output@@V?$positional_parameter_base@_WV?$stream_output_adapter@_W@__crt_stdio_output@@@2@@__crt_stdio_output@@AAE_NXZ 10052120 f i libucrtd:output.obj
 0001:000511d0       ?state_case_normal@?$output_processor@_WV?$stream_output_adapter@_W@__crt_stdio_output@@V?$standard_base@_WV?$stream_output_adapter@_W@__crt_stdio_output@@@2@@__crt_stdio_output@@AAE_NXZ 100521d0 f i libucrtd:output.obj
 0001:00051280       ?state_case_normal@?$output_processor@_WV?$string_output_adapter@_W@__crt_stdio_output@@V?$format_validation_base@_WV?$string_output_adapter@_W@__crt_stdio_output@@@2@@__crt_stdio_output@@AAE_NXZ 10052280 f i libucrtd:output.obj
 0001:00051330       ?state_case_normal@?$output_processor@_WV?$string_output_adapter@_W@__crt_stdio_output@@V?$positional_parameter_base@_WV?$string_output_adapter@_W@__crt_stdio_output@@@2@@__crt_stdio_output@@AAE_NXZ 10052330 f i libucrtd:output.obj
 0001:000513e0       ?state_case_normal@?$output_processor@_WV?$string_output_adapter@_W@__crt_stdio_output@@V?$standard_base@_WV?$string_output_adapter@_W@__crt_stdio_output@@@2@@__crt_stdio_output@@AAE_NXZ 100523e0 f i libucrtd:output.obj
 0001:00051490       ?state_case_normal_common@?$output_processor@DV?$stream_output_adapter@D@__crt_stdio_output@@V?$format_validation_base@DV?$stream_output_adapter@D@__crt_stdio_output@@@2@@__crt_stdio_output@@AAE_NXZ 10052490 f i libucrtd:output.obj
 0001:000514e0       ?state_case_normal_common@?$output_processor@DV?$stream_output_adapter@D@__crt_stdio_output@@V?$positional_parameter_base@DV?$stream_output_adapter@D@__crt_stdio_output@@@2@@__crt_stdio_output@@AAE_NXZ 100524e0 f i libucrtd:output.obj
 0001:00051530       ?state_case_normal_common@?$output_processor@DV?$stream_output_adapter@D@__crt_stdio_output@@V?$standard_base@DV?$stream_output_adapter@D@__crt_stdio_output@@@2@@__crt_stdio_output@@AAE_NXZ 10052530 f i libucrtd:output.obj
 0001:00051580       ?state_case_normal_common@?$output_processor@DV?$string_output_adapter@D@__crt_stdio_output@@V?$format_validation_base@DV?$string_output_adapter@D@__crt_stdio_output@@@2@@__crt_stdio_output@@AAE_NXZ 10052580 f i libucrtd:output.obj
 0001:000515d0       ?state_case_normal_common@?$output_processor@DV?$string_output_adapter@D@__crt_stdio_output@@V?$positional_parameter_base@DV?$string_output_adapter@D@__crt_stdio_output@@@2@@__crt_stdio_output@@AAE_NXZ 100525d0 f i libucrtd:output.obj
 0001:00051620       ?state_case_normal_common@?$output_processor@DV?$string_output_adapter@D@__crt_stdio_output@@V?$standard_base@DV?$string_output_adapter@D@__crt_stdio_output@@@2@@__crt_stdio_output@@AAE_NXZ 10052620 f i libucrtd:output.obj
 0001:00051670       ?state_case_normal_common@?$output_processor@_WV?$stream_output_adapter@_W@__crt_stdio_output@@V?$format_validation_base@_WV?$stream_output_adapter@_W@__crt_stdio_output@@@2@@__crt_stdio_output@@AAE_NXZ 10052670 f i libucrtd:output.obj
 0001:000516c0       ?state_case_normal_common@?$output_processor@_WV?$stream_output_adapter@_W@__crt_stdio_output@@V?$positional_parameter_base@_WV?$stream_output_adapter@_W@__crt_stdio_output@@@2@@__crt_stdio_output@@AAE_NXZ 100526c0 f i libucrtd:output.obj
 0001:00051710       ?state_case_normal_common@?$output_processor@_WV?$stream_output_adapter@_W@__crt_stdio_output@@V?$standard_base@_WV?$stream_output_adapter@_W@__crt_stdio_output@@@2@@__crt_stdio_output@@AAE_NXZ 10052710 f i libucrtd:output.obj
 0001:00051760       ?state_case_normal_common@?$output_processor@_WV?$string_output_adapter@_W@__crt_stdio_output@@V?$format_validation_base@_WV?$string_output_adapter@_W@__crt_stdio_output@@@2@@__crt_stdio_output@@AAE_NXZ 10052760 f i libucrtd:output.obj
 0001:000517b0       ?state_case_normal_common@?$output_processor@_WV?$string_output_adapter@_W@__crt_stdio_output@@V?$positional_parameter_base@_WV?$string_output_adapter@_W@__crt_stdio_output@@@2@@__crt_stdio_output@@AAE_NXZ 100527b0 f i libucrtd:output.obj
 0001:00051800       ?state_case_normal_common@?$output_processor@_WV?$string_output_adapter@_W@__crt_stdio_output@@V?$standard_base@_WV?$string_output_adapter@_W@__crt_stdio_output@@@2@@__crt_stdio_output@@AAE_NXZ 10052800 f i libucrtd:output.obj
 0001:00051850       ?state_case_normal_tchar@?$output_processor@DV?$stream_output_adapter@D@__crt_stdio_output@@V?$format_validation_base@DV?$stream_output_adapter@D@__crt_stdio_output@@@2@@__crt_stdio_output@@AAE_ND@Z 10052850 f i libucrtd:output.obj
 0001:00051950       ?state_case_normal_tchar@?$output_processor@DV?$stream_output_adapter@D@__crt_stdio_output@@V?$positional_parameter_base@DV?$stream_output_adapter@D@__crt_stdio_output@@@2@@__crt_stdio_output@@AAE_ND@Z 10052950 f i libucrtd:output.obj
 0001:00051a50       ?state_case_normal_tchar@?$output_processor@DV?$stream_output_adapter@D@__crt_stdio_output@@V?$standard_base@DV?$stream_output_adapter@D@__crt_stdio_output@@@2@@__crt_stdio_output@@AAE_ND@Z 10052a50 f i libucrtd:output.obj
 0001:00051b50       ?state_case_normal_tchar@?$output_processor@DV?$string_output_adapter@D@__crt_stdio_output@@V?$format_validation_base@DV?$string_output_adapter@D@__crt_stdio_output@@@2@@__crt_stdio_output@@AAE_ND@Z 10052b50 f i libucrtd:output.obj
 0001:00051c50       ?state_case_normal_tchar@?$output_processor@DV?$string_output_adapter@D@__crt_stdio_output@@V?$positional_parameter_base@DV?$string_output_adapter@D@__crt_stdio_output@@@2@@__crt_stdio_output@@AAE_ND@Z 10052c50 f i libucrtd:output.obj
 0001:00051d50       ?state_case_normal_tchar@?$output_processor@DV?$string_output_adapter@D@__crt_stdio_output@@V?$standard_base@DV?$string_output_adapter@D@__crt_stdio_output@@@2@@__crt_stdio_output@@AAE_ND@Z 10052d50 f i libucrtd:output.obj
 0001:00051e50       ?state_case_normal_tchar@?$output_processor@_WV?$stream_output_adapter@_W@__crt_stdio_output@@V?$format_validation_base@_WV?$stream_output_adapter@_W@__crt_stdio_output@@@2@@__crt_stdio_output@@AAE_N_W@Z 10052e50 f i libucrtd:output.obj
 0001:00051e70       ?state_case_normal_tchar@?$output_processor@_WV?$stream_output_adapter@_W@__crt_stdio_output@@V?$positional_parameter_base@_WV?$stream_output_adapter@_W@__crt_stdio_output@@@2@@__crt_stdio_output@@AAE_N_W@Z 10052e70 f i libucrtd:output.obj
 0001:00051e90       ?state_case_normal_tchar@?$output_processor@_WV?$stream_output_adapter@_W@__crt_stdio_output@@V?$standard_base@_WV?$stream_output_adapter@_W@__crt_stdio_output@@@2@@__crt_stdio_output@@AAE_N_W@Z 10052e90 f i libucrtd:output.obj
 0001:00051eb0       ?state_case_normal_tchar@?$output_processor@_WV?$string_output_adapter@_W@__crt_stdio_output@@V?$format_validation_base@_WV?$string_output_adapter@_W@__crt_stdio_output@@@2@@__crt_stdio_output@@AAE_N_W@Z 10052eb0 f i libucrtd:output.obj
 0001:00051ed0       ?state_case_normal_tchar@?$output_processor@_WV?$string_output_adapter@_W@__crt_stdio_output@@V?$positional_parameter_base@_WV?$string_output_adapter@_W@__crt_stdio_output@@@2@@__crt_stdio_output@@AAE_N_W@Z 10052ed0 f i libucrtd:output.obj
 0001:00051ef0       ?state_case_normal_tchar@?$output_processor@_WV?$string_output_adapter@_W@__crt_stdio_output@@V?$standard_base@_WV?$string_output_adapter@_W@__crt_stdio_output@@@2@@__crt_stdio_output@@AAE_N_W@Z 10052ef0 f i libucrtd:output.obj
 0001:00051f10       ?state_case_percent@?$output_processor@DV?$stream_output_adapter@D@__crt_stdio_output@@V?$format_validation_base@DV?$stream_output_adapter@D@__crt_stdio_output@@@2@@__crt_stdio_output@@AAE_NXZ 10052f10 f i libucrtd:output.obj
 0001:00051f60       ?state_case_percent@?$output_processor@DV?$stream_output_adapter@D@__crt_stdio_output@@V?$positional_parameter_base@DV?$stream_output_adapter@D@__crt_stdio_output@@@2@@__crt_stdio_output@@AAE_NXZ 10052f60 f i libucrtd:output.obj
 0001:00051fb0       ?state_case_percent@?$output_processor@DV?$stream_output_adapter@D@__crt_stdio_output@@V?$standard_base@DV?$stream_output_adapter@D@__crt_stdio_output@@@2@@__crt_stdio_output@@AAE_NXZ 10052fb0 f i libucrtd:output.obj
 0001:00052000       ?state_case_percent@?$output_processor@DV?$string_output_adapter@D@__crt_stdio_output@@V?$format_validation_base@DV?$string_output_adapter@D@__crt_stdio_output@@@2@@__crt_stdio_output@@AAE_NXZ 10053000 f i libucrtd:output.obj
 0001:00052050       ?state_case_percent@?$output_processor@DV?$string_output_adapter@D@__crt_stdio_output@@V?$positional_parameter_base@DV?$string_output_adapter@D@__crt_stdio_output@@@2@@__crt_stdio_output@@AAE_NXZ 10053050 f i libucrtd:output.obj
 0001:000520a0       ?state_case_percent@?$output_processor@DV?$string_output_adapter@D@__crt_stdio_output@@V?$standard_base@DV?$string_output_adapter@D@__crt_stdio_output@@@2@@__crt_stdio_output@@AAE_NXZ 100530a0 f i libucrtd:output.obj
 0001:000520f0       ?state_case_percent@?$output_processor@_WV?$stream_output_adapter@_W@__crt_stdio_output@@V?$format_validation_base@_WV?$stream_output_adapter@_W@__crt_stdio_output@@@2@@__crt_stdio_output@@AAE_NXZ 100530f0 f i libucrtd:output.obj
 0001:00052140       ?state_case_percent@?$output_processor@_WV?$stream_output_adapter@_W@__crt_stdio_output@@V?$positional_parameter_base@_WV?$stream_output_adapter@_W@__crt_stdio_output@@@2@@__crt_stdio_output@@AAE_NXZ 10053140 f i libucrtd:output.obj
 0001:00052190       ?state_case_percent@?$output_processor@_WV?$stream_output_adapter@_W@__crt_stdio_output@@V?$standard_base@_WV?$stream_output_adapter@_W@__crt_stdio_output@@@2@@__crt_stdio_output@@AAE_NXZ 10053190 f i libucrtd:output.obj
 0001:000521e0       ?state_case_percent@?$output_processor@_WV?$string_output_adapter@_W@__crt_stdio_output@@V?$format_validation_base@_WV?$string_output_adapter@_W@__crt_stdio_output@@@2@@__crt_stdio_output@@AAE_NXZ 100531e0 f i libucrtd:output.obj
 0001:00052230       ?state_case_percent@?$output_processor@_WV?$string_output_adapter@_W@__crt_stdio_output@@V?$positional_parameter_base@_WV?$string_output_adapter@_W@__crt_stdio_output@@@2@@__crt_stdio_output@@AAE_NXZ 10053230 f i libucrtd:output.obj
 0001:00052280       ?state_case_percent@?$output_processor@_WV?$string_output_adapter@_W@__crt_stdio_output@@V?$standard_base@_WV?$string_output_adapter@_W@__crt_stdio_output@@@2@@__crt_stdio_output@@AAE_NXZ 10053280 f i libucrtd:output.obj
 0001:000522d0       ?state_case_precision@?$output_processor@DV?$stream_output_adapter@D@__crt_stdio_output@@V?$format_validation_base@DV?$stream_output_adapter@D@__crt_stdio_output@@@2@@__crt_stdio_output@@AAE_NXZ 100532d0 f i libucrtd:output.obj
 0001:00052340       ?state_case_precision@?$output_processor@DV?$stream_output_adapter@D@__crt_stdio_output@@V?$positional_parameter_base@DV?$stream_output_adapter@D@__crt_stdio_output@@@2@@__crt_stdio_output@@AAE_NXZ 10053340 f i libucrtd:output.obj
 0001:000523b0       ?state_case_precision@?$output_processor@DV?$stream_output_adapter@D@__crt_stdio_output@@V?$standard_base@DV?$stream_output_adapter@D@__crt_stdio_output@@@2@@__crt_stdio_output@@AAE_NXZ 100533b0 f i libucrtd:output.obj
 0001:00052420       ?state_case_precision@?$output_processor@DV?$string_output_adapter@D@__crt_stdio_output@@V?$format_validation_base@DV?$string_output_adapter@D@__crt_stdio_output@@@2@@__crt_stdio_output@@AAE_NXZ 10053420 f i libucrtd:output.obj
 0001:00052490       ?state_case_precision@?$output_processor@DV?$string_output_adapter@D@__crt_stdio_output@@V?$positional_parameter_base@DV?$string_output_adapter@D@__crt_stdio_output@@@2@@__crt_stdio_output@@AAE_NXZ 10053490 f i libucrtd:output.obj
 0001:00052500       ?state_case_precision@?$output_processor@DV?$string_output_adapter@D@__crt_stdio_output@@V?$standard_base@DV?$string_output_adapter@D@__crt_stdio_output@@@2@@__crt_stdio_output@@AAE_NXZ 10053500 f i libucrtd:output.obj
 0001:00052570       ?state_case_precision@?$output_processor@_WV?$stream_output_adapter@_W@__crt_stdio_output@@V?$format_validation_base@_WV?$stream_output_adapter@_W@__crt_stdio_output@@@2@@__crt_stdio_output@@AAE_NXZ 10053570 f i libucrtd:output.obj
 0001:000525e0       ?state_case_precision@?$output_processor@_WV?$stream_output_adapter@_W@__crt_stdio_output@@V?$positional_parameter_base@_WV?$stream_output_adapter@_W@__crt_stdio_output@@@2@@__crt_stdio_output@@AAE_NXZ 100535e0 f i libucrtd:output.obj
 0001:00052650       ?state_case_precision@?$output_processor@_WV?$stream_output_adapter@_W@__crt_stdio_output@@V?$standard_base@_WV?$stream_output_adapter@_W@__crt_stdio_output@@@2@@__crt_stdio_output@@AAE_NXZ 10053650 f i libucrtd:output.obj
 0001:000526c0       ?state_case_precision@?$output_processor@_WV?$string_output_adapter@_W@__crt_stdio_output@@V?$format_validation_base@_WV?$string_output_adapter@_W@__crt_stdio_output@@@2@@__crt_stdio_output@@AAE_NXZ 100536c0 f i libucrtd:output.obj
 0001:00052730       ?state_case_precision@?$output_processor@_WV?$string_output_adapter@_W@__crt_stdio_output@@V?$positional_parameter_base@_WV?$string_output_adapter@_W@__crt_stdio_output@@@2@@__crt_stdio_output@@AAE_NXZ 10053730 f i libucrtd:output.obj
 0001:000527a0       ?state_case_precision@?$output_processor@_WV?$string_output_adapter@_W@__crt_stdio_output@@V?$standard_base@_WV?$string_output_adapter@_W@__crt_stdio_output@@@2@@__crt_stdio_output@@AAE_NXZ 100537a0 f i libucrtd:output.obj
 0001:00052810       ?state_case_size@?$output_processor@DV?$stream_output_adapter@D@__crt_stdio_output@@V?$format_validation_base@DV?$stream_output_adapter@D@__crt_stdio_output@@@2@@__crt_stdio_output@@AAE_NXZ 10053810 f i libucrtd:output.obj
 0001:00052be0       ?state_case_size@?$output_processor@DV?$stream_output_adapter@D@__crt_stdio_output@@V?$positional_parameter_base@DV?$stream_output_adapter@D@__crt_stdio_output@@@2@@__crt_stdio_output@@AAE_NXZ 10053be0 f i libucrtd:output.obj
 0001:00052fb0       ?state_case_size@?$output_processor@DV?$stream_output_adapter@D@__crt_stdio_output@@V?$standard_base@DV?$stream_output_adapter@D@__crt_stdio_output@@@2@@__crt_stdio_output@@AAE_NXZ 10053fb0 f i libucrtd:output.obj
 0001:00053380       ?state_case_size@?$output_processor@DV?$string_output_adapter@D@__crt_stdio_output@@V?$format_validation_base@DV?$string_output_adapter@D@__crt_stdio_output@@@2@@__crt_stdio_output@@AAE_NXZ 10054380 f i libucrtd:output.obj
 0001:00053750       ?state_case_size@?$output_processor@DV?$string_output_adapter@D@__crt_stdio_output@@V?$positional_parameter_base@DV?$string_output_adapter@D@__crt_stdio_output@@@2@@__crt_stdio_output@@AAE_NXZ 10054750 f i libucrtd:output.obj
 0001:00053b20       ?state_case_size@?$output_processor@DV?$string_output_adapter@D@__crt_stdio_output@@V?$standard_base@DV?$string_output_adapter@D@__crt_stdio_output@@@2@@__crt_stdio_output@@AAE_NXZ 10054b20 f i libucrtd:output.obj
 0001:00053ef0       ?state_case_size@?$output_processor@_WV?$stream_output_adapter@_W@__crt_stdio_output@@V?$format_validation_base@_WV?$stream_output_adapter@_W@__crt_stdio_output@@@2@@__crt_stdio_output@@AAE_NXZ 10054ef0 f i libucrtd:output.obj
 0001:000542c0       ?state_case_size@?$output_processor@_WV?$stream_output_adapter@_W@__crt_stdio_output@@V?$positional_parameter_base@_WV?$stream_output_adapter@_W@__crt_stdio_output@@@2@@__crt_stdio_output@@AAE_NXZ 100552c0 f i libucrtd:output.obj
 0001:00054690       ?state_case_size@?$output_processor@_WV?$stream_output_adapter@_W@__crt_stdio_output@@V?$standard_base@_WV?$stream_output_adapter@_W@__crt_stdio_output@@@2@@__crt_stdio_output@@AAE_NXZ 10055690 f i libucrtd:output.obj
 0001:00054a60       ?state_case_size@?$output_processor@_WV?$string_output_adapter@_W@__crt_stdio_output@@V?$format_validation_base@_WV?$string_output_adapter@_W@__crt_stdio_output@@@2@@__crt_stdio_output@@AAE_NXZ 10055a60 f i libucrtd:output.obj
 0001:00054e30       ?state_case_size@?$output_processor@_WV?$string_output_adapter@_W@__crt_stdio_output@@V?$positional_parameter_base@_WV?$string_output_adapter@_W@__crt_stdio_output@@@2@@__crt_stdio_output@@AAE_NXZ 10055e30 f i libucrtd:output.obj
 0001:00055200       ?state_case_size@?$output_processor@_WV?$string_output_adapter@_W@__crt_stdio_output@@V?$standard_base@_WV?$string_output_adapter@_W@__crt_stdio_output@@@2@@__crt_stdio_output@@AAE_NXZ 10056200 f i libucrtd:output.obj
 0001:000555d0       ?state_case_type@?$output_processor@DV?$stream_output_adapter@D@__crt_stdio_output@@V?$format_validation_base@DV?$stream_output_adapter@D@__crt_stdio_output@@@2@@__crt_stdio_output@@AAE_NXZ 100565d0 f i libucrtd:output.obj
 0001:00055980       ?state_case_type@?$output_processor@DV?$stream_output_adapter@D@__crt_stdio_output@@V?$positional_parameter_base@DV?$stream_output_adapter@D@__crt_stdio_output@@@2@@__crt_stdio_output@@AAE_NXZ 10056980 f i libucrtd:output.obj
 0001:00055d30       ?state_case_type@?$output_processor@DV?$stream_output_adapter@D@__crt_stdio_output@@V?$standard_base@DV?$stream_output_adapter@D@__crt_stdio_output@@@2@@__crt_stdio_output@@AAE_NXZ 10056d30 f i libucrtd:output.obj
 0001:000560e0       ?state_case_type@?$output_processor@DV?$string_output_adapter@D@__crt_stdio_output@@V?$format_validation_base@DV?$string_output_adapter@D@__crt_stdio_output@@@2@@__crt_stdio_output@@AAE_NXZ 100570e0 f i libucrtd:output.obj
 0001:00056490       ?state_case_type@?$output_processor@DV?$string_output_adapter@D@__crt_stdio_output@@V?$positional_parameter_base@DV?$string_output_adapter@D@__crt_stdio_output@@@2@@__crt_stdio_output@@AAE_NXZ 10057490 f i libucrtd:output.obj
 0001:00056840       ?state_case_type@?$output_processor@DV?$string_output_adapter@D@__crt_stdio_output@@V?$standard_base@DV?$string_output_adapter@D@__crt_stdio_output@@@2@@__crt_stdio_output@@AAE_NXZ 10057840 f i libucrtd:output.obj
 0001:00056bf0       ?state_case_type@?$output_processor@_WV?$stream_output_adapter@_W@__crt_stdio_output@@V?$format_validation_base@_WV?$stream_output_adapter@_W@__crt_stdio_output@@@2@@__crt_stdio_output@@AAE_NXZ 10057bf0 f i libucrtd:output.obj
 0001:00056fd0       ?state_case_type@?$output_processor@_WV?$stream_output_adapter@_W@__crt_stdio_output@@V?$positional_parameter_base@_WV?$stream_output_adapter@_W@__crt_stdio_output@@@2@@__crt_stdio_output@@AAE_NXZ 10057fd0 f i libucrtd:output.obj
 0001:000573b0       ?state_case_type@?$output_processor@_WV?$stream_output_adapter@_W@__crt_stdio_output@@V?$standard_base@_WV?$stream_output_adapter@_W@__crt_stdio_output@@@2@@__crt_stdio_output@@AAE_NXZ 100583b0 f i libucrtd:output.obj
 0001:00057790       ?state_case_type@?$output_processor@_WV?$string_output_adapter@_W@__crt_stdio_output@@V?$format_validation_base@_WV?$string_output_adapter@_W@__crt_stdio_output@@@2@@__crt_stdio_output@@AAE_NXZ 10058790 f i libucrtd:output.obj
 0001:00057b70       ?state_case_type@?$output_processor@_WV?$string_output_adapter@_W@__crt_stdio_output@@V?$positional_parameter_base@_WV?$string_output_adapter@_W@__crt_stdio_output@@@2@@__crt_stdio_output@@AAE_NXZ 10058b70 f i libucrtd:output.obj
 0001:00057f50       ?state_case_type@?$output_processor@_WV?$string_output_adapter@_W@__crt_stdio_output@@V?$standard_base@_WV?$string_output_adapter@_W@__crt_stdio_output@@@2@@__crt_stdio_output@@AAE_NXZ 10058f50 f i libucrtd:output.obj
 0001:00058330       ?state_case_width@?$output_processor@DV?$stream_output_adapter@D@__crt_stdio_output@@V?$format_validation_base@DV?$stream_output_adapter@D@__crt_stdio_output@@@2@@__crt_stdio_output@@AAE_NXZ 10059330 f i libucrtd:output.obj
 0001:000583b0       ?state_case_width@?$output_processor@DV?$stream_output_adapter@D@__crt_stdio_output@@V?$positional_parameter_base@DV?$stream_output_adapter@D@__crt_stdio_output@@@2@@__crt_stdio_output@@AAE_NXZ 100593b0 f i libucrtd:output.obj
 0001:00058430       ?state_case_width@?$output_processor@DV?$stream_output_adapter@D@__crt_stdio_output@@V?$standard_base@DV?$stream_output_adapter@D@__crt_stdio_output@@@2@@__crt_stdio_output@@AAE_NXZ 10059430 f i libucrtd:output.obj
 0001:000584b0       ?state_case_width@?$output_processor@DV?$string_output_adapter@D@__crt_stdio_output@@V?$format_validation_base@DV?$string_output_adapter@D@__crt_stdio_output@@@2@@__crt_stdio_output@@AAE_NXZ 100594b0 f i libucrtd:output.obj
 0001:00058530       ?state_case_width@?$output_processor@DV?$string_output_adapter@D@__crt_stdio_output@@V?$positional_parameter_base@DV?$string_output_adapter@D@__crt_stdio_output@@@2@@__crt_stdio_output@@AAE_NXZ 10059530 f i libucrtd:output.obj
 0001:000585b0       ?state_case_width@?$output_processor@DV?$string_output_adapter@D@__crt_stdio_output@@V?$standard_base@DV?$string_output_adapter@D@__crt_stdio_output@@@2@@__crt_stdio_output@@AAE_NXZ 100595b0 f i libucrtd:output.obj
 0001:00058630       ?state_case_width@?$output_processor@_WV?$stream_output_adapter@_W@__crt_stdio_output@@V?$format_validation_base@_WV?$stream_output_adapter@_W@__crt_stdio_output@@@2@@__crt_stdio_output@@AAE_NXZ 10059630 f i libucrtd:output.obj
 0001:000586b0       ?state_case_width@?$output_processor@_WV?$stream_output_adapter@_W@__crt_stdio_output@@V?$positional_parameter_base@_WV?$stream_output_adapter@_W@__crt_stdio_output@@@2@@__crt_stdio_output@@AAE_NXZ 100596b0 f i libucrtd:output.obj
 0001:00058730       ?state_case_width@?$output_processor@_WV?$stream_output_adapter@_W@__crt_stdio_output@@V?$standard_base@_WV?$stream_output_adapter@_W@__crt_stdio_output@@@2@@__crt_stdio_output@@AAE_NXZ 10059730 f i libucrtd:output.obj
 0001:000587b0       ?state_case_width@?$output_processor@_WV?$string_output_adapter@_W@__crt_stdio_output@@V?$format_validation_base@_WV?$string_output_adapter@_W@__crt_stdio_output@@@2@@__crt_stdio_output@@AAE_NXZ 100597b0 f i libucrtd:output.obj
 0001:00058830       ?state_case_width@?$output_processor@_WV?$string_output_adapter@_W@__crt_stdio_output@@V?$positional_parameter_base@_WV?$string_output_adapter@_W@__crt_stdio_output@@@2@@__crt_stdio_output@@AAE_NXZ 10059830 f i libucrtd:output.obj
 0001:000588b0       ?state_case_width@?$output_processor@_WV?$string_output_adapter@_W@__crt_stdio_output@@V?$standard_base@_WV?$string_output_adapter@_W@__crt_stdio_output@@@2@@__crt_stdio_output@@AAE_NXZ 100598b0 f i libucrtd:output.obj
 0001:00058930       ?state_count@?$format_validation_base@DV?$stream_output_adapter@D@__crt_stdio_output@@@__crt_stdio_output@@KAIXZ 10059930 f i libucrtd:output.obj
 0001:00058940       ?state_count@?$format_validation_base@DV?$string_output_adapter@D@__crt_stdio_output@@@__crt_stdio_output@@KAIXZ 10059940 f i libucrtd:output.obj
 0001:00058950       ?state_count@?$format_validation_base@_WV?$stream_output_adapter@_W@__crt_stdio_output@@@__crt_stdio_output@@KAIXZ 10059950 f i libucrtd:output.obj
 0001:00058960       ?state_count@?$format_validation_base@_WV?$string_output_adapter@_W@__crt_stdio_output@@@__crt_stdio_output@@KAIXZ 10059960 f i libucrtd:output.obj
 0001:00058970       ?state_count@?$standard_base@DV?$stream_output_adapter@D@__crt_stdio_output@@@__crt_stdio_output@@KAIXZ 10059970 f i libucrtd:output.obj
 0001:00058980       ?state_count@?$standard_base@DV?$string_output_adapter@D@__crt_stdio_output@@@__crt_stdio_output@@KAIXZ 10059980 f i libucrtd:output.obj
 0001:00058990       ?state_count@?$standard_base@_WV?$stream_output_adapter@_W@__crt_stdio_output@@@__crt_stdio_output@@KAIXZ 10059990 f i libucrtd:output.obj
 0001:000589a0       ?state_count@?$standard_base@_WV?$string_output_adapter@_W@__crt_stdio_output@@@__crt_stdio_output@@KAIXZ 100599a0 f i libucrtd:output.obj
 0001:000589b0       ?state_transition_table@?$format_validation_base@DV?$stream_output_adapter@D@__crt_stdio_output@@@__crt_stdio_output@@KAABV?$spectre_mitigated_lookup_table@Ustate_transition_pair@__crt_stdio_output@@$0IA@@2@XZ 100599b0 f i libucrtd:output.obj
 0001:000589c0       ?state_transition_table@?$format_validation_base@DV?$string_output_adapter@D@__crt_stdio_output@@@__crt_stdio_output@@KAABV?$spectre_mitigated_lookup_table@Ustate_transition_pair@__crt_stdio_output@@$0IA@@2@XZ 100599c0 f i libucrtd:output.obj
 0001:000589d0       ?state_transition_table@?$format_validation_base@_WV?$stream_output_adapter@_W@__crt_stdio_output@@@__crt_stdio_output@@KAABV?$spectre_mitigated_lookup_table@Ustate_transition_pair@__crt_stdio_output@@$0IA@@2@XZ 100599d0 f i libucrtd:output.obj
 0001:000589e0       ?state_transition_table@?$format_validation_base@_WV?$string_output_adapter@_W@__crt_stdio_output@@@__crt_stdio_output@@KAABV?$spectre_mitigated_lookup_table@Ustate_transition_pair@__crt_stdio_output@@$0IA@@2@XZ 100599e0 f i libucrtd:output.obj
 0001:000589f0       ?state_transition_table@?$standard_base@DV?$stream_output_adapter@D@__crt_stdio_output@@@__crt_stdio_output@@KAABV?$spectre_mitigated_lookup_table@Ustate_transition_pair@__crt_stdio_output@@$0IA@@2@XZ 100599f0 f i libucrtd:output.obj
 0001:00058a00       ?state_transition_table@?$standard_base@DV?$string_output_adapter@D@__crt_stdio_output@@@__crt_stdio_output@@KAABV?$spectre_mitigated_lookup_table@Ustate_transition_pair@__crt_stdio_output@@$0IA@@2@XZ 10059a00 f i libucrtd:output.obj
 0001:00058a10       ?state_transition_table@?$standard_base@_WV?$stream_output_adapter@_W@__crt_stdio_output@@@__crt_stdio_output@@KAABV?$spectre_mitigated_lookup_table@Ustate_transition_pair@__crt_stdio_output@@$0IA@@2@XZ 10059a10 f i libucrtd:output.obj
 0001:00058a20       ?state_transition_table@?$standard_base@_WV?$string_output_adapter@_W@__crt_stdio_output@@@__crt_stdio_output@@KAABV?$spectre_mitigated_lookup_table@Ustate_transition_pair@__crt_stdio_output@@$0IA@@2@XZ 10059a20 f i libucrtd:output.obj
 0001:00058a30       ?tchar_string@?$common_data@D@__crt_stdio_output@@IAEAAPADD@Z 10059a30 f i libucrtd:output.obj
 0001:00058a50       ?tchar_string@?$common_data@D@__crt_stdio_output@@IAEAAPADXZ 10059a50 f i libucrtd:output.obj
 0001:00058a70       ?tchar_string@?$common_data@_W@__crt_stdio_output@@IAEAAPA_WXZ 10059a70 f i libucrtd:output.obj
 0001:00058a90       ?tchar_string@?$common_data@_W@__crt_stdio_output@@IAEAAPA_W_W@Z 10059a90 f i libucrtd:output.obj
 0001:00058ab0       ?to_integer_size@__crt_stdio_output@@YAIW4length_modifier@1@@Z 10059ab0 f i libucrtd:output.obj
 0001:00058b50       ?type_case_X@?$output_processor@DV?$stream_output_adapter@D@__crt_stdio_output@@V?$format_validation_base@DV?$stream_output_adapter@D@__crt_stdio_output@@@2@@__crt_stdio_output@@AAE_NXZ 10059b50 f i libucrtd:output.obj
 0001:00058b70       ?type_case_X@?$output_processor@DV?$stream_output_adapter@D@__crt_stdio_output@@V?$positional_parameter_base@DV?$stream_output_adapter@D@__crt_stdio_output@@@2@@__crt_stdio_output@@AAE_NXZ 10059b70 f i libucrtd:output.obj
 0001:00058b90       ?type_case_X@?$output_processor@DV?$stream_output_adapter@D@__crt_stdio_output@@V?$standard_base@DV?$stream_output_adapter@D@__crt_stdio_output@@@2@@__crt_stdio_output@@AAE_NXZ 10059b90 f i libucrtd:output.obj
 0001:00058bb0       ?type_case_X@?$output_processor@DV?$string_output_adapter@D@__crt_stdio_output@@V?$format_validation_base@DV?$string_output_adapter@D@__crt_stdio_output@@@2@@__crt_stdio_output@@AAE_NXZ 10059bb0 f i libucrtd:output.obj
 0001:00058bd0       ?type_case_X@?$output_processor@DV?$string_output_adapter@D@__crt_stdio_output@@V?$positional_parameter_base@DV?$string_output_adapter@D@__crt_stdio_output@@@2@@__crt_stdio_output@@AAE_NXZ 10059bd0 f i libucrtd:output.obj
 0001:00058bf0       ?type_case_X@?$output_processor@DV?$string_output_adapter@D@__crt_stdio_output@@V?$standard_base@DV?$string_output_adapter@D@__crt_stdio_output@@@2@@__crt_stdio_output@@AAE_NXZ 10059bf0 f i libucrtd:output.obj
 0001:00058c10       ?type_case_X@?$output_processor@_WV?$stream_output_adapter@_W@__crt_stdio_output@@V?$format_validation_base@_WV?$stream_output_adapter@_W@__crt_stdio_output@@@2@@__crt_stdio_output@@AAE_NXZ 10059c10 f i libucrtd:output.obj
 0001:00058c30       ?type_case_X@?$output_processor@_WV?$stream_output_adapter@_W@__crt_stdio_output@@V?$positional_parameter_base@_WV?$stream_output_adapter@_W@__crt_stdio_output@@@2@@__crt_stdio_output@@AAE_NXZ 10059c30 f i libucrtd:output.obj
 0001:00058c50       ?type_case_X@?$output_processor@_WV?$stream_output_adapter@_W@__crt_stdio_output@@V?$standard_base@_WV?$stream_output_adapter@_W@__crt_stdio_output@@@2@@__crt_stdio_output@@AAE_NXZ 10059c50 f i libucrtd:output.obj
 0001:00058c70       ?type_case_X@?$output_processor@_WV?$string_output_adapter@_W@__crt_stdio_output@@V?$format_validation_base@_WV?$string_output_adapter@_W@__crt_stdio_output@@@2@@__crt_stdio_output@@AAE_NXZ 10059c70 f i libucrtd:output.obj
 0001:00058c90       ?type_case_X@?$output_processor@_WV?$string_output_adapter@_W@__crt_stdio_output@@V?$positional_parameter_base@_WV?$string_output_adapter@_W@__crt_stdio_output@@@2@@__crt_stdio_output@@AAE_NXZ 10059c90 f i libucrtd:output.obj
 0001:00058cb0       ?type_case_X@?$output_processor@_WV?$string_output_adapter@_W@__crt_stdio_output@@V?$standard_base@_WV?$string_output_adapter@_W@__crt_stdio_output@@@2@@__crt_stdio_output@@AAE_NXZ 10059cb0 f i libucrtd:output.obj
 0001:00058cd0       ?type_case_Z@?$output_processor@DV?$stream_output_adapter@D@__crt_stdio_output@@V?$format_validation_base@DV?$stream_output_adapter@D@__crt_stdio_output@@@2@@__crt_stdio_output@@AAE_NXZ 10059cd0 f i libucrtd:output.obj
 0001:00058dc0       ?type_case_Z@?$output_processor@DV?$stream_output_adapter@D@__crt_stdio_output@@V?$positional_parameter_base@DV?$stream_output_adapter@D@__crt_stdio_output@@@2@@__crt_stdio_output@@AAE_NXZ 10059dc0 f i libucrtd:output.obj
 0001:00058eb0       ?type_case_Z@?$output_processor@DV?$stream_output_adapter@D@__crt_stdio_output@@V?$standard_base@DV?$stream_output_adapter@D@__crt_stdio_output@@@2@@__crt_stdio_output@@AAE_NXZ 10059eb0 f i libucrtd:output.obj
 0001:00058fa0       ?type_case_Z@?$output_processor@DV?$string_output_adapter@D@__crt_stdio_output@@V?$format_validation_base@DV?$string_output_adapter@D@__crt_stdio_output@@@2@@__crt_stdio_output@@AAE_NXZ 10059fa0 f i libucrtd:output.obj
 0001:00059090       ?type_case_Z@?$output_processor@DV?$string_output_adapter@D@__crt_stdio_output@@V?$positional_parameter_base@DV?$string_output_adapter@D@__crt_stdio_output@@@2@@__crt_stdio_output@@AAE_NXZ 1005a090 f i libucrtd:output.obj
 0001:00059180       ?type_case_Z@?$output_processor@DV?$string_output_adapter@D@__crt_stdio_output@@V?$standard_base@DV?$string_output_adapter@D@__crt_stdio_output@@@2@@__crt_stdio_output@@AAE_NXZ 1005a180 f i libucrtd:output.obj
 0001:00059270       ?type_case_Z@?$output_processor@_WV?$stream_output_adapter@_W@__crt_stdio_output@@V?$format_validation_base@_WV?$stream_output_adapter@_W@__crt_stdio_output@@@2@@__crt_stdio_output@@AAE_NXZ 1005a270 f i libucrtd:output.obj
 0001:00059360       ?type_case_Z@?$output_processor@_WV?$stream_output_adapter@_W@__crt_stdio_output@@V?$positional_parameter_base@_WV?$stream_output_adapter@_W@__crt_stdio_output@@@2@@__crt_stdio_output@@AAE_NXZ 1005a360 f i libucrtd:output.obj
 0001:00059450       ?type_case_Z@?$output_processor@_WV?$stream_output_adapter@_W@__crt_stdio_output@@V?$standard_base@_WV?$stream_output_adapter@_W@__crt_stdio_output@@@2@@__crt_stdio_output@@AAE_NXZ 1005a450 f i libucrtd:output.obj
 0001:00059540       ?type_case_Z@?$output_processor@_WV?$string_output_adapter@_W@__crt_stdio_output@@V?$format_validation_base@_WV?$string_output_adapter@_W@__crt_stdio_output@@@2@@__crt_stdio_output@@AAE_NXZ 1005a540 f i libucrtd:output.obj
 0001:00059630       ?type_case_Z@?$output_processor@_WV?$string_output_adapter@_W@__crt_stdio_output@@V?$positional_parameter_base@_WV?$string_output_adapter@_W@__crt_stdio_output@@@2@@__crt_stdio_output@@AAE_NXZ 1005a630 f i libucrtd:output.obj
 0001:00059720       ?type_case_Z@?$output_processor@_WV?$string_output_adapter@_W@__crt_stdio_output@@V?$standard_base@_WV?$string_output_adapter@_W@__crt_stdio_output@@@2@@__crt_stdio_output@@AAE_NXZ 1005a720 f i libucrtd:output.obj
 0001:00059810       ?type_case_a@?$output_processor@DV?$stream_output_adapter@D@__crt_stdio_output@@V?$format_validation_base@DV?$stream_output_adapter@D@__crt_stdio_output@@@2@@__crt_stdio_output@@AAE_NXZ 1005a810 f i libucrtd:output.obj
 0001:00059a80       ?type_case_a@?$output_processor@DV?$stream_output_adapter@D@__crt_stdio_output@@V?$positional_parameter_base@DV?$stream_output_adapter@D@__crt_stdio_output@@@2@@__crt_stdio_output@@AAE_NXZ 1005aa80 f i libucrtd:output.obj
 0001:00059cf0       ?type_case_a@?$output_processor@DV?$stream_output_adapter@D@__crt_stdio_output@@V?$standard_base@DV?$stream_output_adapter@D@__crt_stdio_output@@@2@@__crt_stdio_output@@AAE_NXZ 1005acf0 f i libucrtd:output.obj
 0001:00059f60       ?type_case_a@?$output_processor@DV?$string_output_adapter@D@__crt_stdio_output@@V?$format_validation_base@DV?$string_output_adapter@D@__crt_stdio_output@@@2@@__crt_stdio_output@@AAE_NXZ 1005af60 f i libucrtd:output.obj
 0001:0005a1d0       ?type_case_a@?$output_processor@DV?$string_output_adapter@D@__crt_stdio_output@@V?$positional_parameter_base@DV?$string_output_adapter@D@__crt_stdio_output@@@2@@__crt_stdio_output@@AAE_NXZ 1005b1d0 f i libucrtd:output.obj
 0001:0005a440       ?type_case_a@?$output_processor@DV?$string_output_adapter@D@__crt_stdio_output@@V?$standard_base@DV?$string_output_adapter@D@__crt_stdio_output@@@2@@__crt_stdio_output@@AAE_NXZ 1005b440 f i libucrtd:output.obj
 0001:0005a6b0       ?type_case_a@?$output_processor@_WV?$stream_output_adapter@_W@__crt_stdio_output@@V?$format_validation_base@_WV?$stream_output_adapter@_W@__crt_stdio_output@@@2@@__crt_stdio_output@@AAE_NXZ 1005b6b0 f i libucrtd:output.obj
 0001:0005a920       ?type_case_a@?$output_processor@_WV?$stream_output_adapter@_W@__crt_stdio_output@@V?$positional_parameter_base@_WV?$stream_output_adapter@_W@__crt_stdio_output@@@2@@__crt_stdio_output@@AAE_NXZ 1005b920 f i libucrtd:output.obj
 0001:0005ab90       ?type_case_a@?$output_processor@_WV?$stream_output_adapter@_W@__crt_stdio_output@@V?$standard_base@_WV?$stream_output_adapter@_W@__crt_stdio_output@@@2@@__crt_stdio_output@@AAE_NXZ 1005bb90 f i libucrtd:output.obj
 0001:0005ae00       ?type_case_a@?$output_processor@_WV?$string_output_adapter@_W@__crt_stdio_output@@V?$format_validation_base@_WV?$string_output_adapter@_W@__crt_stdio_output@@@2@@__crt_stdio_output@@AAE_NXZ 1005be00 f i libucrtd:output.obj
 0001:0005b070       ?type_case_a@?$output_processor@_WV?$string_output_adapter@_W@__crt_stdio_output@@V?$positional_parameter_base@_WV?$string_output_adapter@_W@__crt_stdio_output@@@2@@__crt_stdio_output@@AAE_NXZ 1005c070 f i libucrtd:output.obj
 0001:0005b2e0       ?type_case_a@?$output_processor@_WV?$string_output_adapter@_W@__crt_stdio_output@@V?$standard_base@_WV?$string_output_adapter@_W@__crt_stdio_output@@@2@@__crt_stdio_output@@AAE_NXZ 1005c2e0 f i libucrtd:output.obj
 0001:0005b550       ?type_case_c@?$output_processor@DV?$stream_output_adapter@D@__crt_stdio_output@@V?$format_validation_base@DV?$stream_output_adapter@D@__crt_stdio_output@@@2@@__crt_stdio_output@@AAE_NXZ 1005c550 f i libucrtd:output.obj
 0001:0005b570       ?type_case_c@?$output_processor@DV?$stream_output_adapter@D@__crt_stdio_output@@V?$positional_parameter_base@DV?$stream_output_adapter@D@__crt_stdio_output@@@2@@__crt_stdio_output@@AAE_NXZ 1005c570 f i libucrtd:output.obj
 0001:0005b590       ?type_case_c@?$output_processor@DV?$stream_output_adapter@D@__crt_stdio_output@@V?$standard_base@DV?$stream_output_adapter@D@__crt_stdio_output@@@2@@__crt_stdio_output@@AAE_NXZ 1005c590 f i libucrtd:output.obj
 0001:0005b5b0       ?type_case_c@?$output_processor@DV?$string_output_adapter@D@__crt_stdio_output@@V?$format_validation_base@DV?$string_output_adapter@D@__crt_stdio_output@@@2@@__crt_stdio_output@@AAE_NXZ 1005c5b0 f i libucrtd:output.obj
 0001:0005b5d0       ?type_case_c@?$output_processor@DV?$string_output_adapter@D@__crt_stdio_output@@V?$positional_parameter_base@DV?$string_output_adapter@D@__crt_stdio_output@@@2@@__crt_stdio_output@@AAE_NXZ 1005c5d0 f i libucrtd:output.obj
 0001:0005b5f0       ?type_case_c@?$output_processor@DV?$string_output_adapter@D@__crt_stdio_output@@V?$standard_base@DV?$string_output_adapter@D@__crt_stdio_output@@@2@@__crt_stdio_output@@AAE_NXZ 1005c5f0 f i libucrtd:output.obj
 0001:0005b610       ?type_case_c@?$output_processor@_WV?$stream_output_adapter@_W@__crt_stdio_output@@V?$format_validation_base@_WV?$stream_output_adapter@_W@__crt_stdio_output@@@2@@__crt_stdio_output@@AAE_NXZ 1005c610 f i libucrtd:output.obj
 0001:0005b630       ?type_case_c@?$output_processor@_WV?$stream_output_adapter@_W@__crt_stdio_output@@V?$positional_parameter_base@_WV?$stream_output_adapter@_W@__crt_stdio_output@@@2@@__crt_stdio_output@@AAE_NXZ 1005c630 f i libucrtd:output.obj
 0001:0005b650       ?type_case_c@?$output_processor@_WV?$stream_output_adapter@_W@__crt_stdio_output@@V?$standard_base@_WV?$stream_output_adapter@_W@__crt_stdio_output@@@2@@__crt_stdio_output@@AAE_NXZ 1005c650 f i libucrtd:output.obj
 0001:0005b670       ?type_case_c@?$output_processor@_WV?$string_output_adapter@_W@__crt_stdio_output@@V?$format_validation_base@_WV?$string_output_adapter@_W@__crt_stdio_output@@@2@@__crt_stdio_output@@AAE_NXZ 1005c670 f i libucrtd:output.obj
 0001:0005b690       ?type_case_c@?$output_processor@_WV?$string_output_adapter@_W@__crt_stdio_output@@V?$positional_parameter_base@_WV?$string_output_adapter@_W@__crt_stdio_output@@@2@@__crt_stdio_output@@AAE_NXZ 1005c690 f i libucrtd:output.obj
 0001:0005b6b0       ?type_case_c@?$output_processor@_WV?$string_output_adapter@_W@__crt_stdio_output@@V?$standard_base@_WV?$string_output_adapter@_W@__crt_stdio_output@@@2@@__crt_stdio_output@@AAE_NXZ 1005c6b0 f i libucrtd:output.obj
 0001:0005b6d0       ?type_case_c_tchar@?$output_processor@DV?$stream_output_adapter@D@__crt_stdio_output@@V?$format_validation_base@DV?$stream_output_adapter@D@__crt_stdio_output@@@2@@__crt_stdio_output@@AAE_ND@Z 1005c6d0 f i libucrtd:output.obj
 0001:0005b7e0       ?type_case_c_tchar@?$output_processor@DV?$stream_output_adapter@D@__crt_stdio_output@@V?$positional_parameter_base@DV?$stream_output_adapter@D@__crt_stdio_output@@@2@@__crt_stdio_output@@AAE_ND@Z 1005c7e0 f i libucrtd:output.obj
 0001:0005b8f0       ?type_case_c_tchar@?$output_processor@DV?$stream_output_adapter@D@__crt_stdio_output@@V?$standard_base@DV?$stream_output_adapter@D@__crt_stdio_output@@@2@@__crt_stdio_output@@AAE_ND@Z 1005c8f0 f i libucrtd:output.obj
 0001:0005ba00       ?type_case_c_tchar@?$output_processor@DV?$string_output_adapter@D@__crt_stdio_output@@V?$format_validation_base@DV?$string_output_adapter@D@__crt_stdio_output@@@2@@__crt_stdio_output@@AAE_ND@Z 1005ca00 f i libucrtd:output.obj
 0001:0005bb10       ?type_case_c_tchar@?$output_processor@DV?$string_output_adapter@D@__crt_stdio_output@@V?$positional_parameter_base@DV?$string_output_adapter@D@__crt_stdio_output@@@2@@__crt_stdio_output@@AAE_ND@Z 1005cb10 f i libucrtd:output.obj
 0001:0005bc20       ?type_case_c_tchar@?$output_processor@DV?$string_output_adapter@D@__crt_stdio_output@@V?$standard_base@DV?$string_output_adapter@D@__crt_stdio_output@@@2@@__crt_stdio_output@@AAE_ND@Z 1005cc20 f i libucrtd:output.obj
 0001:0005bd30       ?type_case_c_tchar@?$output_processor@_WV?$stream_output_adapter@_W@__crt_stdio_output@@V?$format_validation_base@_WV?$stream_output_adapter@_W@__crt_stdio_output@@@2@@__crt_stdio_output@@AAE_N_W@Z 1005cd30 f i libucrtd:output.obj
 0001:0005be30       ?type_case_c_tchar@?$output_processor@_WV?$stream_output_adapter@_W@__crt_stdio_output@@V?$positional_parameter_base@_WV?$stream_output_adapter@_W@__crt_stdio_output@@@2@@__crt_stdio_output@@AAE_N_W@Z 1005ce30 f i libucrtd:output.obj
 0001:0005bf30       ?type_case_c_tchar@?$output_processor@_WV?$stream_output_adapter@_W@__crt_stdio_output@@V?$standard_base@_WV?$stream_output_adapter@_W@__crt_stdio_output@@@2@@__crt_stdio_output@@AAE_N_W@Z 1005cf30 f i libucrtd:output.obj
 0001:0005c030       ?type_case_c_tchar@?$output_processor@_WV?$string_output_adapter@_W@__crt_stdio_output@@V?$format_validation_base@_WV?$string_output_adapter@_W@__crt_stdio_output@@@2@@__crt_stdio_output@@AAE_N_W@Z 1005d030 f i libucrtd:output.obj
 0001:0005c130       ?type_case_c_tchar@?$output_processor@_WV?$string_output_adapter@_W@__crt_stdio_output@@V?$positional_parameter_base@_WV?$string_output_adapter@_W@__crt_stdio_output@@@2@@__crt_stdio_output@@AAE_N_W@Z 1005d130 f i libucrtd:output.obj
 0001:0005c230       ?type_case_c_tchar@?$output_processor@_WV?$string_output_adapter@_W@__crt_stdio_output@@V?$standard_base@_WV?$string_output_adapter@_W@__crt_stdio_output@@@2@@__crt_stdio_output@@AAE_N_W@Z 1005d230 f i libucrtd:output.obj
 0001:0005c330       ?type_case_d@?$output_processor@DV?$stream_output_adapter@D@__crt_stdio_output@@V?$format_validation_base@DV?$stream_output_adapter@D@__crt_stdio_output@@@2@@__crt_stdio_output@@AAE_NXZ 1005d330 f i libucrtd:output.obj
 0001:0005c360       ?type_case_d@?$output_processor@DV?$stream_output_adapter@D@__crt_stdio_output@@V?$positional_parameter_base@DV?$stream_output_adapter@D@__crt_stdio_output@@@2@@__crt_stdio_output@@AAE_NXZ 1005d360 f i libucrtd:output.obj
 0001:0005c390       ?type_case_d@?$output_processor@DV?$stream_output_adapter@D@__crt_stdio_output@@V?$standard_base@DV?$stream_output_adapter@D@__crt_stdio_output@@@2@@__crt_stdio_output@@AAE_NXZ 1005d390 f i libucrtd:output.obj
 0001:0005c3c0       ?type_case_d@?$output_processor@DV?$string_output_adapter@D@__crt_stdio_output@@V?$format_validation_base@DV?$string_output_adapter@D@__crt_stdio_output@@@2@@__crt_stdio_output@@AAE_NXZ 1005d3c0 f i libucrtd:output.obj
 0001:0005c3f0       ?type_case_d@?$output_processor@DV?$string_output_adapter@D@__crt_stdio_output@@V?$positional_parameter_base@DV?$string_output_adapter@D@__crt_stdio_output@@@2@@__crt_stdio_output@@AAE_NXZ 1005d3f0 f i libucrtd:output.obj
 0001:0005c420       ?type_case_d@?$output_processor@DV?$string_output_adapter@D@__crt_stdio_output@@V?$standard_base@DV?$string_output_adapter@D@__crt_stdio_output@@@2@@__crt_stdio_output@@AAE_NXZ 1005d420 f i libucrtd:output.obj
 0001:0005c450       ?type_case_d@?$output_processor@_WV?$stream_output_adapter@_W@__crt_stdio_output@@V?$format_validation_base@_WV?$stream_output_adapter@_W@__crt_stdio_output@@@2@@__crt_stdio_output@@AAE_NXZ 1005d450 f i libucrtd:output.obj
 0001:0005c480       ?type_case_d@?$output_processor@_WV?$stream_output_adapter@_W@__crt_stdio_output@@V?$positional_parameter_base@_WV?$stream_output_adapter@_W@__crt_stdio_output@@@2@@__crt_stdio_output@@AAE_NXZ 1005d480 f i libucrtd:output.obj
 0001:0005c4b0       ?type_case_d@?$output_processor@_WV?$stream_output_adapter@_W@__crt_stdio_output@@V?$standard_base@_WV?$stream_output_adapter@_W@__crt_stdio_output@@@2@@__crt_stdio_output@@AAE_NXZ 1005d4b0 f i libucrtd:output.obj
 0001:0005c4e0       ?type_case_d@?$output_processor@_WV?$string_output_adapter@_W@__crt_stdio_output@@V?$format_validation_base@_WV?$string_output_adapter@_W@__crt_stdio_output@@@2@@__crt_stdio_output@@AAE_NXZ 1005d4e0 f i libucrtd:output.obj
 0001:0005c510       ?type_case_d@?$output_processor@_WV?$string_output_adapter@_W@__crt_stdio_output@@V?$positional_parameter_base@_WV?$string_output_adapter@_W@__crt_stdio_output@@@2@@__crt_stdio_output@@AAE_NXZ 1005d510 f i libucrtd:output.obj
 0001:0005c540       ?type_case_d@?$output_processor@_WV?$string_output_adapter@_W@__crt_stdio_output@@V?$standard_base@_WV?$string_output_adapter@_W@__crt_stdio_output@@@2@@__crt_stdio_output@@AAE_NXZ 1005d540 f i libucrtd:output.obj
 0001:0005c570       ?type_case_integer@?$output_processor@DV?$stream_output_adapter@D@__crt_stdio_output@@V?$format_validation_base@DV?$stream_output_adapter@D@__crt_stdio_output@@@2@@__crt_stdio_output@@AAE_NI_N@Z 1005d570 f i libucrtd:output.obj
 0001:0005c8c0       ?type_case_integer@?$output_processor@DV?$stream_output_adapter@D@__crt_stdio_output@@V?$positional_parameter_base@DV?$stream_output_adapter@D@__crt_stdio_output@@@2@@__crt_stdio_output@@AAE_NI_N@Z 1005d8c0 f i libucrtd:output.obj
 0001:0005cc10       ?type_case_integer@?$output_processor@DV?$stream_output_adapter@D@__crt_stdio_output@@V?$standard_base@DV?$stream_output_adapter@D@__crt_stdio_output@@@2@@__crt_stdio_output@@AAE_NI_N@Z 1005dc10 f i libucrtd:output.obj
 0001:0005cf60       ?type_case_integer@?$output_processor@DV?$string_output_adapter@D@__crt_stdio_output@@V?$format_validation_base@DV?$string_output_adapter@D@__crt_stdio_output@@@2@@__crt_stdio_output@@AAE_NI_N@Z 1005df60 f i libucrtd:output.obj
 0001:0005d2b0       ?type_case_integer@?$output_processor@DV?$string_output_adapter@D@__crt_stdio_output@@V?$positional_parameter_base@DV?$string_output_adapter@D@__crt_stdio_output@@@2@@__crt_stdio_output@@AAE_NI_N@Z 1005e2b0 f i libucrtd:output.obj
 0001:0005d600       ?type_case_integer@?$output_processor@DV?$string_output_adapter@D@__crt_stdio_output@@V?$standard_base@DV?$string_output_adapter@D@__crt_stdio_output@@@2@@__crt_stdio_output@@AAE_NI_N@Z 1005e600 f i libucrtd:output.obj
 0001:0005d950       ?type_case_integer@?$output_processor@_WV?$stream_output_adapter@_W@__crt_stdio_output@@V?$format_validation_base@_WV?$stream_output_adapter@_W@__crt_stdio_output@@@2@@__crt_stdio_output@@AAE_NI_N@Z 1005e950 f i libucrtd:output.obj
 0001:0005dca0       ?type_case_integer@?$output_processor@_WV?$stream_output_adapter@_W@__crt_stdio_output@@V?$positional_parameter_base@_WV?$stream_output_adapter@_W@__crt_stdio_output@@@2@@__crt_stdio_output@@AAE_NI_N@Z 1005eca0 f i libucrtd:output.obj
 0001:0005dff0       ?type_case_integer@?$output_processor@_WV?$stream_output_adapter@_W@__crt_stdio_output@@V?$standard_base@_WV?$stream_output_adapter@_W@__crt_stdio_output@@@2@@__crt_stdio_output@@AAE_NI_N@Z 1005eff0 f i libucrtd:output.obj
 0001:0005e340       ?type_case_integer@?$output_processor@_WV?$string_output_adapter@_W@__crt_stdio_output@@V?$format_validation_base@_WV?$string_output_adapter@_W@__crt_stdio_output@@@2@@__crt_stdio_output@@AAE_NI_N@Z 1005f340 f i libucrtd:output.obj
 0001:0005e690       ?type_case_integer@?$output_processor@_WV?$string_output_adapter@_W@__crt_stdio_output@@V?$positional_parameter_base@_WV?$string_output_adapter@_W@__crt_stdio_output@@@2@@__crt_stdio_output@@AAE_NI_N@Z 1005f690 f i libucrtd:output.obj
 0001:0005e9e0       ?type_case_integer@?$output_processor@_WV?$string_output_adapter@_W@__crt_stdio_output@@V?$standard_base@_WV?$string_output_adapter@_W@__crt_stdio_output@@@2@@__crt_stdio_output@@AAE_NI_N@Z 1005f9e0 f i libucrtd:output.obj
 0001:0005ed30       ?type_case_n@?$output_processor@DV?$stream_output_adapter@D@__crt_stdio_output@@V?$format_validation_base@DV?$stream_output_adapter@D@__crt_stdio_output@@@2@@__crt_stdio_output@@AAE_NXZ 1005fd30 f i libucrtd:output.obj
 0001:0005ef20       ?type_case_n@?$output_processor@DV?$stream_output_adapter@D@__crt_stdio_output@@V?$positional_parameter_base@DV?$stream_output_adapter@D@__crt_stdio_output@@@2@@__crt_stdio_output@@AAE_NXZ 1005ff20 f i libucrtd:output.obj
 0001:0005f110       ?type_case_n@?$output_processor@DV?$stream_output_adapter@D@__crt_stdio_output@@V?$standard_base@DV?$stream_output_adapter@D@__crt_stdio_output@@@2@@__crt_stdio_output@@AAE_NXZ 10060110 f i libucrtd:output.obj
 0001:0005f300       ?type_case_n@?$output_processor@DV?$string_output_adapter@D@__crt_stdio_output@@V?$format_validation_base@DV?$string_output_adapter@D@__crt_stdio_output@@@2@@__crt_stdio_output@@AAE_NXZ 10060300 f i libucrtd:output.obj
 0001:0005f4f0       ?type_case_n@?$output_processor@DV?$string_output_adapter@D@__crt_stdio_output@@V?$positional_parameter_base@DV?$string_output_adapter@D@__crt_stdio_output@@@2@@__crt_stdio_output@@AAE_NXZ 100604f0 f i libucrtd:output.obj
 0001:0005f6e0       ?type_case_n@?$output_processor@DV?$string_output_adapter@D@__crt_stdio_output@@V?$standard_base@DV?$string_output_adapter@D@__crt_stdio_output@@@2@@__crt_stdio_output@@AAE_NXZ 100606e0 f i libucrtd:output.obj
 0001:0005f8d0       ?type_case_n@?$output_processor@_WV?$stream_output_adapter@_W@__crt_stdio_output@@V?$format_validation_base@_WV?$stream_output_adapter@_W@__crt_stdio_output@@@2@@__crt_stdio_output@@AAE_NXZ 100608d0 f i libucrtd:output.obj
 0001:0005fac0       ?type_case_n@?$output_processor@_WV?$stream_output_adapter@_W@__crt_stdio_output@@V?$positional_parameter_base@_WV?$stream_output_adapter@_W@__crt_stdio_output@@@2@@__crt_stdio_output@@AAE_NXZ 10060ac0 f i libucrtd:output.obj
 0001:0005fcb0       ?type_case_n@?$output_processor@_WV?$stream_output_adapter@_W@__crt_stdio_output@@V?$standard_base@_WV?$stream_output_adapter@_W@__crt_stdio_output@@@2@@__crt_stdio_output@@AAE_NXZ 10060cb0 f i libucrtd:output.obj
 0001:0005fea0       ?type_case_n@?$output_processor@_WV?$string_output_adapter@_W@__crt_stdio_output@@V?$format_validation_base@_WV?$string_output_adapter@_W@__crt_stdio_output@@@2@@__crt_stdio_output@@AAE_NXZ 10060ea0 f i libucrtd:output.obj
 0001:00060090       ?type_case_n@?$output_processor@_WV?$string_output_adapter@_W@__crt_stdio_output@@V?$positional_parameter_base@_WV?$string_output_adapter@_W@__crt_stdio_output@@@2@@__crt_stdio_output@@AAE_NXZ 10061090 f i libucrtd:output.obj
 0001:00060280       ?type_case_n@?$output_processor@_WV?$string_output_adapter@_W@__crt_stdio_output@@V?$standard_base@_WV?$string_output_adapter@_W@__crt_stdio_output@@@2@@__crt_stdio_output@@AAE_NXZ 10061280 f i libucrtd:output.obj
 0001:00060470       ?type_case_o@?$output_processor@DV?$stream_output_adapter@D@__crt_stdio_output@@V?$format_validation_base@DV?$stream_output_adapter@D@__crt_stdio_output@@@2@@__crt_stdio_output@@AAE_NXZ 10061470 f i libucrtd:output.obj
 0001:000604b0       ?type_case_o@?$output_processor@DV?$stream_output_adapter@D@__crt_stdio_output@@V?$positional_parameter_base@DV?$stream_output_adapter@D@__crt_stdio_output@@@2@@__crt_stdio_output@@AAE_NXZ 100614b0 f i libucrtd:output.obj
 0001:000604f0       ?type_case_o@?$output_processor@DV?$stream_output_adapter@D@__crt_stdio_output@@V?$standard_base@DV?$stream_output_adapter@D@__crt_stdio_output@@@2@@__crt_stdio_output@@AAE_NXZ 100614f0 f i libucrtd:output.obj
 0001:00060530       ?type_case_o@?$output_processor@DV?$string_output_adapter@D@__crt_stdio_output@@V?$format_validation_base@DV?$string_output_adapter@D@__crt_stdio_output@@@2@@__crt_stdio_output@@AAE_NXZ 10061530 f i libucrtd:output.obj
 0001:00060570       ?type_case_o@?$output_processor@DV?$string_output_adapter@D@__crt_stdio_output@@V?$positional_parameter_base@DV?$string_output_adapter@D@__crt_stdio_output@@@2@@__crt_stdio_output@@AAE_NXZ 10061570 f i libucrtd:output.obj
 0001:000605b0       ?type_case_o@?$output_processor@DV?$string_output_adapter@D@__crt_stdio_output@@V?$standard_base@DV?$string_output_adapter@D@__crt_stdio_output@@@2@@__crt_stdio_output@@AAE_NXZ 100615b0 f i libucrtd:output.obj
 0001:000605f0       ?type_case_o@?$output_processor@_WV?$stream_output_adapter@_W@__crt_stdio_output@@V?$format_validation_base@_WV?$stream_output_adapter@_W@__crt_stdio_output@@@2@@__crt_stdio_output@@AAE_NXZ 100615f0 f i libucrtd:output.obj
 0001:00060630       ?type_case_o@?$output_processor@_WV?$stream_output_adapter@_W@__crt_stdio_output@@V?$positional_parameter_base@_WV?$stream_output_adapter@_W@__crt_stdio_output@@@2@@__crt_stdio_output@@AAE_NXZ 10061630 f i libucrtd:output.obj
 0001:00060670       ?type_case_o@?$output_processor@_WV?$stream_output_adapter@_W@__crt_stdio_output@@V?$standard_base@_WV?$stream_output_adapter@_W@__crt_stdio_output@@@2@@__crt_stdio_output@@AAE_NXZ 10061670 f i libucrtd:output.obj
 0001:000606b0       ?type_case_o@?$output_processor@_WV?$string_output_adapter@_W@__crt_stdio_output@@V?$format_validation_base@_WV?$string_output_adapter@_W@__crt_stdio_output@@@2@@__crt_stdio_output@@AAE_NXZ 100616b0 f i libucrtd:output.obj
 0001:000606f0       ?type_case_o@?$output_processor@_WV?$string_output_adapter@_W@__crt_stdio_output@@V?$positional_parameter_base@_WV?$string_output_adapter@_W@__crt_stdio_output@@@2@@__crt_stdio_output@@AAE_NXZ 100616f0 f i libucrtd:output.obj
 0001:00060730       ?type_case_o@?$output_processor@_WV?$string_output_adapter@_W@__crt_stdio_output@@V?$standard_base@_WV?$string_output_adapter@_W@__crt_stdio_output@@@2@@__crt_stdio_output@@AAE_NXZ 10061730 f i libucrtd:output.obj
 0001:00060770       ?type_case_p@?$output_processor@DV?$stream_output_adapter@D@__crt_stdio_output@@V?$format_validation_base@DV?$stream_output_adapter@D@__crt_stdio_output@@@2@@__crt_stdio_output@@AAE_NXZ 10061770 f i libucrtd:output.obj
 0001:000607a0       ?type_case_p@?$output_processor@DV?$stream_output_adapter@D@__crt_stdio_output@@V?$positional_parameter_base@DV?$stream_output_adapter@D@__crt_stdio_output@@@2@@__crt_stdio_output@@AAE_NXZ 100617a0 f i libucrtd:output.obj
 0001:000607d0       ?type_case_p@?$output_processor@DV?$stream_output_adapter@D@__crt_stdio_output@@V?$standard_base@DV?$stream_output_adapter@D@__crt_stdio_output@@@2@@__crt_stdio_output@@AAE_NXZ 100617d0 f i libucrtd:output.obj
 0001:00060800       ?type_case_p@?$output_processor@DV?$string_output_adapter@D@__crt_stdio_output@@V?$format_validation_base@DV?$string_output_adapter@D@__crt_stdio_output@@@2@@__crt_stdio_output@@AAE_NXZ 10061800 f i libucrtd:output.obj
 0001:00060830       ?type_case_p@?$output_processor@DV?$string_output_adapter@D@__crt_stdio_output@@V?$positional_parameter_base@DV?$string_output_adapter@D@__crt_stdio_output@@@2@@__crt_stdio_output@@AAE_NXZ 10061830 f i libucrtd:output.obj
 0001:00060860       ?type_case_p@?$output_processor@DV?$string_output_adapter@D@__crt_stdio_output@@V?$standard_base@DV?$string_output_adapter@D@__crt_stdio_output@@@2@@__crt_stdio_output@@AAE_NXZ 10061860 f i libucrtd:output.obj
 0001:00060890       ?type_case_p@?$output_processor@_WV?$stream_output_adapter@_W@__crt_stdio_output@@V?$format_validation_base@_WV?$stream_output_adapter@_W@__crt_stdio_output@@@2@@__crt_stdio_output@@AAE_NXZ 10061890 f i libucrtd:output.obj
 0001:000608c0       ?type_case_p@?$output_processor@_WV?$stream_output_adapter@_W@__crt_stdio_output@@V?$positional_parameter_base@_WV?$stream_output_adapter@_W@__crt_stdio_output@@@2@@__crt_stdio_output@@AAE_NXZ 100618c0 f i libucrtd:output.obj
 0001:000608f0       ?type_case_p@?$output_processor@_WV?$stream_output_adapter@_W@__crt_stdio_output@@V?$standard_base@_WV?$stream_output_adapter@_W@__crt_stdio_output@@@2@@__crt_stdio_output@@AAE_NXZ 100618f0 f i libucrtd:output.obj
 0001:00060920       ?type_case_p@?$output_processor@_WV?$string_output_adapter@_W@__crt_stdio_output@@V?$format_validation_base@_WV?$string_output_adapter@_W@__crt_stdio_output@@@2@@__crt_stdio_output@@AAE_NXZ 10061920 f i libucrtd:output.obj
 0001:00060950       ?type_case_p@?$output_processor@_WV?$string_output_adapter@_W@__crt_stdio_output@@V?$positional_parameter_base@_WV?$string_output_adapter@_W@__crt_stdio_output@@@2@@__crt_stdio_output@@AAE_NXZ 10061950 f i libucrtd:output.obj
 0001:00060980       ?type_case_p@?$output_processor@_WV?$string_output_adapter@_W@__crt_stdio_output@@V?$standard_base@_WV?$string_output_adapter@_W@__crt_stdio_output@@@2@@__crt_stdio_output@@AAE_NXZ 10061980 f i libucrtd:output.obj
 0001:000609b0       ?type_case_s@?$output_processor@DV?$stream_output_adapter@D@__crt_stdio_output@@V?$format_validation_base@DV?$stream_output_adapter@D@__crt_stdio_output@@@2@@__crt_stdio_output@@AAE_NXZ 100619b0 f i libucrtd:output.obj
 0001:00060aa0       ?type_case_s@?$output_processor@DV?$stream_output_adapter@D@__crt_stdio_output@@V?$positional_parameter_base@DV?$stream_output_adapter@D@__crt_stdio_output@@@2@@__crt_stdio_output@@AAE_NXZ 10061aa0 f i libucrtd:output.obj
 0001:00060b90       ?type_case_s@?$output_processor@DV?$stream_output_adapter@D@__crt_stdio_output@@V?$standard_base@DV?$stream_output_adapter@D@__crt_stdio_output@@@2@@__crt_stdio_output@@AAE_NXZ 10061b90 f i libucrtd:output.obj
 0001:00060c80       ?type_case_s@?$output_processor@DV?$string_output_adapter@D@__crt_stdio_output@@V?$format_validation_base@DV?$string_output_adapter@D@__crt_stdio_output@@@2@@__crt_stdio_output@@AAE_NXZ 10061c80 f i libucrtd:output.obj
 0001:00060d70       ?type_case_s@?$output_processor@DV?$string_output_adapter@D@__crt_stdio_output@@V?$positional_parameter_base@DV?$string_output_adapter@D@__crt_stdio_output@@@2@@__crt_stdio_output@@AAE_NXZ 10061d70 f i libucrtd:output.obj
 0001:00060e60       ?type_case_s@?$output_processor@DV?$string_output_adapter@D@__crt_stdio_output@@V?$standard_base@DV?$string_output_adapter@D@__crt_stdio_output@@@2@@__crt_stdio_output@@AAE_NXZ 10061e60 f i libucrtd:output.obj
 0001:00060f50       ?type_case_s@?$output_processor@_WV?$stream_output_adapter@_W@__crt_stdio_output@@V?$format_validation_base@_WV?$stream_output_adapter@_W@__crt_stdio_output@@@2@@__crt_stdio_output@@AAE_NXZ 10061f50 f i libucrtd:output.obj
 0001:00061040       ?type_case_s@?$output_processor@_WV?$stream_output_adapter@_W@__crt_stdio_output@@V?$positional_parameter_base@_WV?$stream_output_adapter@_W@__crt_stdio_output@@@2@@__crt_stdio_output@@AAE_NXZ 10062040 f i libucrtd:output.obj
 0001:00061130       ?type_case_s@?$output_processor@_WV?$stream_output_adapter@_W@__crt_stdio_output@@V?$standard_base@_WV?$stream_output_adapter@_W@__crt_stdio_output@@@2@@__crt_stdio_output@@AAE_NXZ 10062130 f i libucrtd:output.obj
 0001:00061220       ?type_case_s@?$output_processor@_WV?$string_output_adapter@_W@__crt_stdio_output@@V?$format_validation_base@_WV?$string_output_adapter@_W@__crt_stdio_output@@@2@@__crt_stdio_output@@AAE_NXZ 10062220 f i libucrtd:output.obj
 0001:00061310       ?type_case_s@?$output_processor@_WV?$string_output_adapter@_W@__crt_stdio_output@@V?$positional_parameter_base@_WV?$string_output_adapter@_W@__crt_stdio_output@@@2@@__crt_stdio_output@@AAE_NXZ 10062310 f i libucrtd:output.obj
 0001:00061400       ?type_case_s@?$output_processor@_WV?$string_output_adapter@_W@__crt_stdio_output@@V?$standard_base@_WV?$string_output_adapter@_W@__crt_stdio_output@@@2@@__crt_stdio_output@@AAE_NXZ 10062400 f i libucrtd:output.obj
 0001:000614f0       ?type_case_s_compute_narrow_string_length@?$output_processor@DV?$stream_output_adapter@D@__crt_stdio_output@@V?$format_validation_base@DV?$stream_output_adapter@D@__crt_stdio_output@@@2@@__crt_stdio_output@@ABEHHD@Z 100624f0 f i libucrtd:output.obj
 0001:00061520       ?type_case_s_compute_narrow_string_length@?$output_processor@DV?$stream_output_adapter@D@__crt_stdio_output@@V?$positional_parameter_base@DV?$stream_output_adapter@D@__crt_stdio_output@@@2@@__crt_stdio_output@@ABEHHD@Z 10062520 f i libucrtd:output.obj
 0001:00061550       ?type_case_s_compute_narrow_string_length@?$output_processor@DV?$stream_output_adapter@D@__crt_stdio_output@@V?$standard_base@DV?$stream_output_adapter@D@__crt_stdio_output@@@2@@__crt_stdio_output@@ABEHHD@Z 10062550 f i libucrtd:output.obj
 0001:00061580       ?type_case_s_compute_narrow_string_length@?$output_processor@DV?$string_output_adapter@D@__crt_stdio_output@@V?$format_validation_base@DV?$string_output_adapter@D@__crt_stdio_output@@@2@@__crt_stdio_output@@ABEHHD@Z 10062580 f i libucrtd:output.obj
 0001:000615b0       ?type_case_s_compute_narrow_string_length@?$output_processor@DV?$string_output_adapter@D@__crt_stdio_output@@V?$positional_parameter_base@DV?$string_output_adapter@D@__crt_stdio_output@@@2@@__crt_stdio_output@@ABEHHD@Z 100625b0 f i libucrtd:output.obj
 0001:000615e0       ?type_case_s_compute_narrow_string_length@?$output_processor@DV?$string_output_adapter@D@__crt_stdio_output@@V?$standard_base@DV?$string_output_adapter@D@__crt_stdio_output@@@2@@__crt_stdio_output@@ABEHHD@Z 100625e0 f i libucrtd:output.obj
 0001:00061610       ?type_case_s_compute_narrow_string_length@?$output_processor@_WV?$stream_output_adapter@_W@__crt_stdio_output@@V?$format_validation_base@_WV?$stream_output_adapter@_W@__crt_stdio_output@@@2@@__crt_stdio_output@@ABEHH_W@Z 10062610 f i libucrtd:output.obj
 0001:00061680       ?type_case_s_compute_narrow_string_length@?$output_processor@_WV?$stream_output_adapter@_W@__crt_stdio_output@@V?$positional_parameter_base@_WV?$stream_output_adapter@_W@__crt_stdio_output@@@2@@__crt_stdio_output@@ABEHH_W@Z 10062680 f i libucrtd:output.obj
 0001:000616f0       ?type_case_s_compute_narrow_string_length@?$output_processor@_WV?$stream_output_adapter@_W@__crt_stdio_output@@V?$standard_base@_WV?$stream_output_adapter@_W@__crt_stdio_output@@@2@@__crt_stdio_output@@ABEHH_W@Z 100626f0 f i libucrtd:output.obj
 0001:00061760       ?type_case_s_compute_narrow_string_length@?$output_processor@_WV?$string_output_adapter@_W@__crt_stdio_output@@V?$format_validation_base@_WV?$string_output_adapter@_W@__crt_stdio_output@@@2@@__crt_stdio_output@@ABEHH_W@Z 10062760 f i libucrtd:output.obj
 0001:000617d0       ?type_case_s_compute_narrow_string_length@?$output_processor@_WV?$string_output_adapter@_W@__crt_stdio_output@@V?$positional_parameter_base@_WV?$string_output_adapter@_W@__crt_stdio_output@@@2@@__crt_stdio_output@@ABEHH_W@Z 100627d0 f i libucrtd:output.obj
 0001:00061840       ?type_case_s_compute_narrow_string_length@?$output_processor@_WV?$string_output_adapter@_W@__crt_stdio_output@@V?$standard_base@_WV?$string_output_adapter@_W@__crt_stdio_output@@@2@@__crt_stdio_output@@ABEHH_W@Z 10062840 f i libucrtd:output.obj
 0001:000618b0       ?type_case_u@?$output_processor@DV?$stream_output_adapter@D@__crt_stdio_output@@V?$format_validation_base@DV?$stream_output_adapter@D@__crt_stdio_output@@@2@@__crt_stdio_output@@AAE_NXZ 100628b0 f i libucrtd:output.obj
 0001:000618d0       ?type_case_u@?$output_processor@DV?$stream_output_adapter@D@__crt_stdio_output@@V?$positional_parameter_base@DV?$stream_output_adapter@D@__crt_stdio_output@@@2@@__crt_stdio_output@@AAE_NXZ 100628d0 f i libucrtd:output.obj
 0001:000618f0       ?type_case_u@?$output_processor@DV?$stream_output_adapter@D@__crt_stdio_output@@V?$standard_base@DV?$stream_output_adapter@D@__crt_stdio_output@@@2@@__crt_stdio_output@@AAE_NXZ 100628f0 f i libucrtd:output.obj
 0001:00061910       ?type_case_u@?$output_processor@DV?$string_output_adapter@D@__crt_stdio_output@@V?$format_validation_base@DV?$string_output_adapter@D@__crt_stdio_output@@@2@@__crt_stdio_output@@AAE_NXZ 10062910 f i libucrtd:output.obj
 0001:00061930       ?type_case_u@?$output_processor@DV?$string_output_adapter@D@__crt_stdio_output@@V?$positional_parameter_base@DV?$string_output_adapter@D@__crt_stdio_output@@@2@@__crt_stdio_output@@AAE_NXZ 10062930 f i libucrtd:output.obj
 0001:00061950       ?type_case_u@?$output_processor@DV?$string_output_adapter@D@__crt_stdio_output@@V?$standard_base@DV?$string_output_adapter@D@__crt_stdio_output@@@2@@__crt_stdio_output@@AAE_NXZ 10062950 f i libucrtd:output.obj
 0001:00061970       ?type_case_u@?$output_processor@_WV?$stream_output_adapter@_W@__crt_stdio_output@@V?$format_validation_base@_WV?$stream_output_adapter@_W@__crt_stdio_output@@@2@@__crt_stdio_output@@AAE_NXZ 10062970 f i libucrtd:output.obj
 0001:00061990       ?type_case_u@?$output_processor@_WV?$stream_output_adapter@_W@__crt_stdio_output@@V?$positional_parameter_base@_WV?$stream_output_adapter@_W@__crt_stdio_output@@@2@@__crt_stdio_output@@AAE_NXZ 10062990 f i libucrtd:output.obj
 0001:000619b0       ?type_case_u@?$output_processor@_WV?$stream_output_adapter@_W@__crt_stdio_output@@V?$standard_base@_WV?$stream_output_adapter@_W@__crt_stdio_output@@@2@@__crt_stdio_output@@AAE_NXZ 100629b0 f i libucrtd:output.obj
 0001:000619d0       ?type_case_u@?$output_processor@_WV?$string_output_adapter@_W@__crt_stdio_output@@V?$format_validation_base@_WV?$string_output_adapter@_W@__crt_stdio_output@@@2@@__crt_stdio_output@@AAE_NXZ 100629d0 f i libucrtd:output.obj
 0001:000619f0       ?type_case_u@?$output_processor@_WV?$string_output_adapter@_W@__crt_stdio_output@@V?$positional_parameter_base@_WV?$string_output_adapter@_W@__crt_stdio_output@@@2@@__crt_stdio_output@@AAE_NXZ 100629f0 f i libucrtd:output.obj
 0001:00061a10       ?type_case_u@?$output_processor@_WV?$string_output_adapter@_W@__crt_stdio_output@@V?$standard_base@_WV?$string_output_adapter@_W@__crt_stdio_output@@@2@@__crt_stdio_output@@AAE_NXZ 10062a10 f i libucrtd:output.obj
 0001:00061a30       ?type_case_x@?$output_processor@DV?$stream_output_adapter@D@__crt_stdio_output@@V?$format_validation_base@DV?$stream_output_adapter@D@__crt_stdio_output@@@2@@__crt_stdio_output@@AAE_NXZ 10062a30 f i libucrtd:output.obj
 0001:00061a50       ?type_case_x@?$output_processor@DV?$stream_output_adapter@D@__crt_stdio_output@@V?$positional_parameter_base@DV?$stream_output_adapter@D@__crt_stdio_output@@@2@@__crt_stdio_output@@AAE_NXZ 10062a50 f i libucrtd:output.obj
 0001:00061a70       ?type_case_x@?$output_processor@DV?$stream_output_adapter@D@__crt_stdio_output@@V?$standard_base@DV?$stream_output_adapter@D@__crt_stdio_output@@@2@@__crt_stdio_output@@AAE_NXZ 10062a70 f i libucrtd:output.obj
 0001:00061a90       ?type_case_x@?$output_processor@DV?$string_output_adapter@D@__crt_stdio_output@@V?$format_validation_base@DV?$string_output_adapter@D@__crt_stdio_output@@@2@@__crt_stdio_output@@AAE_NXZ 10062a90 f i libucrtd:output.obj
 0001:00061ab0       ?type_case_x@?$output_processor@DV?$string_output_adapter@D@__crt_stdio_output@@V?$positional_parameter_base@DV?$string_output_adapter@D@__crt_stdio_output@@@2@@__crt_stdio_output@@AAE_NXZ 10062ab0 f i libucrtd:output.obj
 0001:00061ad0       ?type_case_x@?$output_processor@DV?$string_output_adapter@D@__crt_stdio_output@@V?$standard_base@DV?$string_output_adapter@D@__crt_stdio_output@@@2@@__crt_stdio_output@@AAE_NXZ 10062ad0 f i libucrtd:output.obj
 0001:00061af0       ?type_case_x@?$output_processor@_WV?$stream_output_adapter@_W@__crt_stdio_output@@V?$format_validation_base@_WV?$stream_output_adapter@_W@__crt_stdio_output@@@2@@__crt_stdio_output@@AAE_NXZ 10062af0 f i libucrtd:output.obj
 0001:00061b10       ?type_case_x@?$output_processor@_WV?$stream_output_adapter@_W@__crt_stdio_output@@V?$positional_parameter_base@_WV?$stream_output_adapter@_W@__crt_stdio_output@@@2@@__crt_stdio_output@@AAE_NXZ 10062b10 f i libucrtd:output.obj
 0001:00061b30       ?type_case_x@?$output_processor@_WV?$stream_output_adapter@_W@__crt_stdio_output@@V?$standard_base@_WV?$stream_output_adapter@_W@__crt_stdio_output@@@2@@__crt_stdio_output@@AAE_NXZ 10062b30 f i libucrtd:output.obj
 0001:00061b50       ?type_case_x@?$output_processor@_WV?$string_output_adapter@_W@__crt_stdio_output@@V?$format_validation_base@_WV?$string_output_adapter@_W@__crt_stdio_output@@@2@@__crt_stdio_output@@AAE_NXZ 10062b50 f i libucrtd:output.obj
 0001:00061b70       ?type_case_x@?$output_processor@_WV?$string_output_adapter@_W@__crt_stdio_output@@V?$positional_parameter_base@_WV?$string_output_adapter@_W@__crt_stdio_output@@@2@@__crt_stdio_output@@AAE_NXZ 10062b70 f i libucrtd:output.obj
 0001:00061b90       ?type_case_x@?$output_processor@_WV?$string_output_adapter@_W@__crt_stdio_output@@V?$standard_base@_WV?$string_output_adapter@_W@__crt_stdio_output@@@2@@__crt_stdio_output@@AAE_NXZ 10062b90 f i libucrtd:output.obj
 0001:00061bb0       ?unset_flag@?$output_processor@DV?$stream_output_adapter@D@__crt_stdio_output@@V?$format_validation_base@DV?$stream_output_adapter@D@__crt_stdio_output@@@2@@__crt_stdio_output@@AAEXI@Z 10062bb0 f i libucrtd:output.obj
 0001:00061bd0       ?unset_flag@?$output_processor@DV?$stream_output_adapter@D@__crt_stdio_output@@V?$positional_parameter_base@DV?$stream_output_adapter@D@__crt_stdio_output@@@2@@__crt_stdio_output@@AAEXI@Z 10062bd0 f i libucrtd:output.obj
 0001:00061bf0       ?unset_flag@?$output_processor@DV?$stream_output_adapter@D@__crt_stdio_output@@V?$standard_base@DV?$stream_output_adapter@D@__crt_stdio_output@@@2@@__crt_stdio_output@@AAEXI@Z 10062bf0 f i libucrtd:output.obj
 0001:00061c10       ?unset_flag@?$output_processor@DV?$string_output_adapter@D@__crt_stdio_output@@V?$format_validation_base@DV?$string_output_adapter@D@__crt_stdio_output@@@2@@__crt_stdio_output@@AAEXI@Z 10062c10 f i libucrtd:output.obj
 0001:00061c30       ?unset_flag@?$output_processor@DV?$string_output_adapter@D@__crt_stdio_output@@V?$positional_parameter_base@DV?$string_output_adapter@D@__crt_stdio_output@@@2@@__crt_stdio_output@@AAEXI@Z 10062c30 f i libucrtd:output.obj
 0001:00061c50       ?unset_flag@?$output_processor@DV?$string_output_adapter@D@__crt_stdio_output@@V?$standard_base@DV?$string_output_adapter@D@__crt_stdio_output@@@2@@__crt_stdio_output@@AAEXI@Z 10062c50 f i libucrtd:output.obj
 0001:00061c70       ?unset_flag@?$output_processor@_WV?$stream_output_adapter@_W@__crt_stdio_output@@V?$format_validation_base@_WV?$stream_output_adapter@_W@__crt_stdio_output@@@2@@__crt_stdio_output@@AAEXI@Z 10062c70 f i libucrtd:output.obj
 0001:00061c90       ?unset_flag@?$output_processor@_WV?$stream_output_adapter@_W@__crt_stdio_output@@V?$positional_parameter_base@_WV?$stream_output_adapter@_W@__crt_stdio_output@@@2@@__crt_stdio_output@@AAEXI@Z 10062c90 f i libucrtd:output.obj
 0001:00061cb0       ?unset_flag@?$output_processor@_WV?$stream_output_adapter@_W@__crt_stdio_output@@V?$standard_base@_WV?$stream_output_adapter@_W@__crt_stdio_output@@@2@@__crt_stdio_output@@AAEXI@Z 10062cb0 f i libucrtd:output.obj
 0001:00061cd0       ?unset_flag@?$output_processor@_WV?$string_output_adapter@_W@__crt_stdio_output@@V?$format_validation_base@_WV?$string_output_adapter@_W@__crt_stdio_output@@@2@@__crt_stdio_output@@AAEXI@Z 10062cd0 f i libucrtd:output.obj
 0001:00061cf0       ?unset_flag@?$output_processor@_WV?$string_output_adapter@_W@__crt_stdio_output@@V?$positional_parameter_base@_WV?$string_output_adapter@_W@__crt_stdio_output@@@2@@__crt_stdio_output@@AAEXI@Z 10062cf0 f i libucrtd:output.obj
 0001:00061d10       ?unset_flag@?$output_processor@_WV?$string_output_adapter@_W@__crt_stdio_output@@V?$standard_base@_WV?$string_output_adapter@_W@__crt_stdio_output@@@2@@__crt_stdio_output@@AAEXI@Z 10062d10 f i libucrtd:output.obj
 0001:00061d30       ?update_field_width@?$positional_parameter_base@DV?$stream_output_adapter@D@__crt_stdio_output@@@__crt_stdio_output@@IAE_NXZ 10062d30 f i libucrtd:output.obj
 0001:00061eb0       ?update_field_width@?$positional_parameter_base@DV?$string_output_adapter@D@__crt_stdio_output@@@__crt_stdio_output@@IAE_NXZ 10062eb0 f i libucrtd:output.obj
 0001:00062030       ?update_field_width@?$positional_parameter_base@_WV?$stream_output_adapter@_W@__crt_stdio_output@@@__crt_stdio_output@@IAE_NXZ 10063030 f i libucrtd:output.obj
 0001:000621b0       ?update_field_width@?$positional_parameter_base@_WV?$string_output_adapter@_W@__crt_stdio_output@@@__crt_stdio_output@@IAE_NXZ 100631b0 f i libucrtd:output.obj
 0001:00062330       ?update_field_width@?$standard_base@DV?$stream_output_adapter@D@__crt_stdio_output@@@__crt_stdio_output@@IAE_NXZ 10063330 f i libucrtd:output.obj
 0001:00062360       ?update_field_width@?$standard_base@DV?$string_output_adapter@D@__crt_stdio_output@@@__crt_stdio_output@@IAE_NXZ 10063360 f i libucrtd:output.obj
 0001:00062390       ?update_field_width@?$standard_base@_WV?$stream_output_adapter@_W@__crt_stdio_output@@@__crt_stdio_output@@IAE_NXZ 10063390 f i libucrtd:output.obj
 0001:000623c0       ?update_field_width@?$standard_base@_WV?$string_output_adapter@_W@__crt_stdio_output@@@__crt_stdio_output@@IAE_NXZ 100633c0 f i libucrtd:output.obj
 0001:000623f0       ?update_precision@?$positional_parameter_base@DV?$stream_output_adapter@D@__crt_stdio_output@@@__crt_stdio_output@@IAE_NXZ 100633f0 f i libucrtd:output.obj
 0001:00062570       ?update_precision@?$positional_parameter_base@DV?$string_output_adapter@D@__crt_stdio_output@@@__crt_stdio_output@@IAE_NXZ 10063570 f i libucrtd:output.obj
 0001:000626f0       ?update_precision@?$positional_parameter_base@_WV?$stream_output_adapter@_W@__crt_stdio_output@@@__crt_stdio_output@@IAE_NXZ 100636f0 f i libucrtd:output.obj
 0001:00062870       ?update_precision@?$positional_parameter_base@_WV?$string_output_adapter@_W@__crt_stdio_output@@@__crt_stdio_output@@IAE_NXZ 10063870 f i libucrtd:output.obj
 0001:000629f0       ?update_precision@?$standard_base@DV?$stream_output_adapter@D@__crt_stdio_output@@@__crt_stdio_output@@IAE_NXZ 100639f0 f i libucrtd:output.obj
 0001:00062a20       ?update_precision@?$standard_base@DV?$string_output_adapter@D@__crt_stdio_output@@@__crt_stdio_output@@IAE_NXZ 10063a20 f i libucrtd:output.obj
 0001:00062a50       ?update_precision@?$standard_base@_WV?$stream_output_adapter@_W@__crt_stdio_output@@@__crt_stdio_output@@IAE_NXZ 10063a50 f i libucrtd:output.obj
 0001:00062a80       ?update_precision@?$standard_base@_WV?$string_output_adapter@_W@__crt_stdio_output@@@__crt_stdio_output@@IAE_NXZ 10063a80 f i libucrtd:output.obj
 0001:00062ab0       ?valid@__crt_stdio_stream@@QBE_NXZ 10063ab0 f i libucrtd:output.obj
 0001:00062ae0       ?validate@?$stream_output_adapter@D@__crt_stdio_output@@QBE_NXZ 10063ae0 f i libucrtd:output.obj
 0001:00062b90       ?validate@?$stream_output_adapter@_W@__crt_stdio_output@@QBE_NXZ 10063b90 f i libucrtd:output.obj
 0001:00062c40       ?validate@?$string_output_adapter@D@__crt_stdio_output@@QBE_NXZ 10063c40 f i libucrtd:output.obj
 0001:00062cd0       ?validate@?$string_output_adapter@_W@__crt_stdio_output@@QBE_NXZ 10063cd0 f i libucrtd:output.obj
 0001:00062d60       ?validate_and_store_parameter_data@?$positional_parameter_base@DV?$stream_output_adapter@D@__crt_stdio_output@@@__crt_stdio_output@@AAE_NAAUparameter_data@12@W4parameter_type@12@DW4length_modifier@2@@Z 10063d60 f i libucrtd:output.obj
 0001:00062e30       ?validate_and_store_parameter_data@?$positional_parameter_base@DV?$string_output_adapter@D@__crt_stdio_output@@@__crt_stdio_output@@AAE_NAAUparameter_data@12@W4parameter_type@12@DW4length_modifier@2@@Z 10063e30 f i libucrtd:output.obj
 0001:00062f00       ?validate_and_store_parameter_data@?$positional_parameter_base@_WV?$stream_output_adapter@_W@__crt_stdio_output@@@__crt_stdio_output@@AAE_NAAUparameter_data@12@W4parameter_type@12@_WW4length_modifier@2@@Z 10063f00 f i libucrtd:output.obj
 0001:00062fe0       ?validate_and_store_parameter_data@?$positional_parameter_base@_WV?$string_output_adapter@_W@__crt_stdio_output@@@__crt_stdio_output@@AAE_NAAUparameter_data@12@W4parameter_type@12@_WW4length_modifier@2@@Z 10063fe0 f i libucrtd:output.obj
 0001:000630c0       ?validate_and_update_state_at_beginning_of_format_character@?$positional_parameter_base@DV?$stream_output_adapter@D@__crt_stdio_output@@@__crt_stdio_output@@IAE_NXZ 100640c0 f i libucrtd:output.obj
 0001:000632e0       ?validate_and_update_state_at_beginning_of_format_character@?$positional_parameter_base@DV?$string_output_adapter@D@__crt_stdio_output@@@__crt_stdio_output@@IAE_NXZ 100642e0 f i libucrtd:output.obj
 0001:00063500       ?validate_and_update_state_at_beginning_of_format_character@?$positional_parameter_base@_WV?$stream_output_adapter@_W@__crt_stdio_output@@@__crt_stdio_output@@IAE_NXZ 10064500 f i libucrtd:output.obj
 0001:00063720       ?validate_and_update_state_at_beginning_of_format_character@?$positional_parameter_base@_WV?$string_output_adapter@_W@__crt_stdio_output@@@__crt_stdio_output@@IAE_NXZ 10064720 f i libucrtd:output.obj
 0001:00063940       ?validate_and_update_state_at_beginning_of_format_character@?$standard_base@DV?$stream_output_adapter@D@__crt_stdio_output@@@__crt_stdio_output@@IAE_NXZ 10064940 f i libucrtd:output.obj
 0001:00063950       ?validate_and_update_state_at_beginning_of_format_character@?$standard_base@DV?$string_output_adapter@D@__crt_stdio_output@@@__crt_stdio_output@@IAE_NXZ 10064950 f i libucrtd:output.obj
 0001:00063960       ?validate_and_update_state_at_beginning_of_format_character@?$standard_base@_WV?$stream_output_adapter@_W@__crt_stdio_output@@@__crt_stdio_output@@IAE_NXZ 10064960 f i libucrtd:output.obj
 0001:00063970       ?validate_and_update_state_at_beginning_of_format_character@?$standard_base@_WV?$string_output_adapter@_W@__crt_stdio_output@@@__crt_stdio_output@@IAE_NXZ 10064970 f i libucrtd:output.obj
 0001:00063980       ?validate_and_update_state_at_end_of_format_string@?$format_validation_base@DV?$stream_output_adapter@D@__crt_stdio_output@@@__crt_stdio_output@@IBE_NXZ 10064980 f i libucrtd:output.obj
 0001:00063a20       ?validate_and_update_state_at_end_of_format_string@?$format_validation_base@DV?$string_output_adapter@D@__crt_stdio_output@@@__crt_stdio_output@@IBE_NXZ 10064a20 f i libucrtd:output.obj
 0001:00063ac0       ?validate_and_update_state_at_end_of_format_string@?$format_validation_base@_WV?$stream_output_adapter@_W@__crt_stdio_output@@@__crt_stdio_output@@IBE_NXZ 10064ac0 f i libucrtd:output.obj
 0001:00063b60       ?validate_and_update_state_at_end_of_format_string@?$format_validation_base@_WV?$string_output_adapter@_W@__crt_stdio_output@@@__crt_stdio_output@@IBE_NXZ 10064b60 f i libucrtd:output.obj
 0001:00063c00       ?validate_and_update_state_at_end_of_format_string@?$positional_parameter_base@DV?$stream_output_adapter@D@__crt_stdio_output@@@__crt_stdio_output@@IAE_NXZ 10064c00 f i libucrtd:output.obj
 0001:00063da0       ?validate_and_update_state_at_end_of_format_string@?$positional_parameter_base@DV?$string_output_adapter@D@__crt_stdio_output@@@__crt_stdio_output@@IAE_NXZ 10064da0 f i libucrtd:output.obj
 0001:00063f40       ?validate_and_update_state_at_end_of_format_string@?$positional_parameter_base@_WV?$stream_output_adapter@_W@__crt_stdio_output@@@__crt_stdio_output@@IAE_NXZ 10064f40 f i libucrtd:output.obj
 0001:000640e0       ?validate_and_update_state_at_end_of_format_string@?$positional_parameter_base@_WV?$string_output_adapter@_W@__crt_stdio_output@@@__crt_stdio_output@@IAE_NXZ 100650e0 f i libucrtd:output.obj
 0001:00064280       ?validate_and_update_state_at_end_of_format_string@?$standard_base@DV?$stream_output_adapter@D@__crt_stdio_output@@@__crt_stdio_output@@IBE_NXZ 10065280 f i libucrtd:output.obj
 0001:00064290       ?validate_and_update_state_at_end_of_format_string@?$standard_base@DV?$string_output_adapter@D@__crt_stdio_output@@@__crt_stdio_output@@IBE_NXZ 10065290 f i libucrtd:output.obj
 0001:000642a0       ?validate_and_update_state_at_end_of_format_string@?$standard_base@_WV?$stream_output_adapter@_W@__crt_stdio_output@@@__crt_stdio_output@@IBE_NXZ 100652a0 f i libucrtd:output.obj
 0001:000642b0       ?validate_and_update_state_at_end_of_format_string@?$standard_base@_WV?$string_output_adapter@_W@__crt_stdio_output@@@__crt_stdio_output@@IBE_NXZ 100652b0 f i libucrtd:output.obj
 0001:000642c0       ?validate_state_for_type_case_a@?$positional_parameter_base@DV?$stream_output_adapter@D@__crt_stdio_output@@@__crt_stdio_output@@IAE_NXZ 100652c0 f i libucrtd:output.obj
 0001:000643b0       ?validate_state_for_type_case_a@?$positional_parameter_base@DV?$string_output_adapter@D@__crt_stdio_output@@@__crt_stdio_output@@IAE_NXZ 100653b0 f i libucrtd:output.obj
 0001:000644a0       ?validate_state_for_type_case_a@?$positional_parameter_base@_WV?$stream_output_adapter@_W@__crt_stdio_output@@@__crt_stdio_output@@IAE_NXZ 100654a0 f i libucrtd:output.obj
 0001:00064590       ?validate_state_for_type_case_a@?$positional_parameter_base@_WV?$string_output_adapter@_W@__crt_stdio_output@@@__crt_stdio_output@@IAE_NXZ 10065590 f i libucrtd:output.obj
 0001:00064680       ?validate_state_for_type_case_a@?$standard_base@DV?$stream_output_adapter@D@__crt_stdio_output@@@__crt_stdio_output@@IBE_NXZ 10065680 f i libucrtd:output.obj
 0001:00064690       ?validate_state_for_type_case_a@?$standard_base@DV?$string_output_adapter@D@__crt_stdio_output@@@__crt_stdio_output@@IBE_NXZ 10065690 f i libucrtd:output.obj
 0001:000646a0       ?validate_state_for_type_case_a@?$standard_base@_WV?$stream_output_adapter@_W@__crt_stdio_output@@@__crt_stdio_output@@IBE_NXZ 100656a0 f i libucrtd:output.obj
 0001:000646b0       ?validate_state_for_type_case_a@?$standard_base@_WV?$string_output_adapter@_W@__crt_stdio_output@@@__crt_stdio_output@@IBE_NXZ 100656b0 f i libucrtd:output.obj
 0001:000646c0       ?validate_stream_is_ansi_if_required@?$__acrt_stdio_char_traits@D@@SA_NQAU_iobuf@@@Z 100656c0 f i libucrtd:output.obj
 0001:000647f0       ?validate_stream_is_ansi_if_required@?$__acrt_stdio_char_traits@_W@@SA_NQAU_iobuf@@@Z 100657f0 f i libucrtd:output.obj
 0001:00064800       ?wide_null_string@?$output_processor@DV?$stream_output_adapter@D@__crt_stdio_output@@V?$format_validation_base@DV?$stream_output_adapter@D@__crt_stdio_output@@@2@@__crt_stdio_output@@CAPA_WXZ 10065800 f i libucrtd:output.obj
 0001:00064810       ?wide_null_string@?$output_processor@DV?$stream_output_adapter@D@__crt_stdio_output@@V?$positional_parameter_base@DV?$stream_output_adapter@D@__crt_stdio_output@@@2@@__crt_stdio_output@@CAPA_WXZ 10065810 f i libucrtd:output.obj
 0001:00064820       ?wide_null_string@?$output_processor@DV?$stream_output_adapter@D@__crt_stdio_output@@V?$standard_base@DV?$stream_output_adapter@D@__crt_stdio_output@@@2@@__crt_stdio_output@@CAPA_WXZ 10065820 f i libucrtd:output.obj
 0001:00064830       ?wide_null_string@?$output_processor@DV?$string_output_adapter@D@__crt_stdio_output@@V?$format_validation_base@DV?$string_output_adapter@D@__crt_stdio_output@@@2@@__crt_stdio_output@@CAPA_WXZ 10065830 f i libucrtd:output.obj
 0001:00064840       ?wide_null_string@?$output_processor@DV?$string_output_adapter@D@__crt_stdio_output@@V?$positional_parameter_base@DV?$string_output_adapter@D@__crt_stdio_output@@@2@@__crt_stdio_output@@CAPA_WXZ 10065840 f i libucrtd:output.obj
 0001:00064850       ?wide_null_string@?$output_processor@DV?$string_output_adapter@D@__crt_stdio_output@@V?$standard_base@DV?$string_output_adapter@D@__crt_stdio_output@@@2@@__crt_stdio_output@@CAPA_WXZ 10065850 f i libucrtd:output.obj
 0001:00064860       ?wide_null_string@?$output_processor@_WV?$stream_output_adapter@_W@__crt_stdio_output@@V?$format_validation_base@_WV?$stream_output_adapter@_W@__crt_stdio_output@@@2@@__crt_stdio_output@@CAPA_WXZ 10065860 f i libucrtd:output.obj
 0001:00064870       ?wide_null_string@?$output_processor@_WV?$stream_output_adapter@_W@__crt_stdio_output@@V?$positional_parameter_base@_WV?$stream_output_adapter@_W@__crt_stdio_output@@@2@@__crt_stdio_output@@CAPA_WXZ 10065870 f i libucrtd:output.obj
 0001:00064880       ?wide_null_string@?$output_processor@_WV?$stream_output_adapter@_W@__crt_stdio_output@@V?$standard_base@_WV?$stream_output_adapter@_W@__crt_stdio_output@@@2@@__crt_stdio_output@@CAPA_WXZ 10065880 f i libucrtd:output.obj
 0001:00064890       ?wide_null_string@?$output_processor@_WV?$string_output_adapter@_W@__crt_stdio_output@@V?$format_validation_base@_WV?$string_output_adapter@_W@__crt_stdio_output@@@2@@__crt_stdio_output@@CAPA_WXZ 10065890 f i libucrtd:output.obj
 0001:000648a0       ?wide_null_string@?$output_processor@_WV?$string_output_adapter@_W@__crt_stdio_output@@V?$positional_parameter_base@_WV?$string_output_adapter@_W@__crt_stdio_output@@@2@@__crt_stdio_output@@CAPA_WXZ 100658a0 f i libucrtd:output.obj
 0001:000648b0       ?wide_null_string@?$output_processor@_WV?$string_output_adapter@_W@__crt_stdio_output@@V?$standard_base@_WV?$string_output_adapter@_W@__crt_stdio_output@@@2@@__crt_stdio_output@@CAPA_WXZ 100658b0 f i libucrtd:output.obj
 0001:000648c0       ?write_character@?$output_adapter_common@DV?$stream_output_adapter@D@__crt_stdio_output@@@__crt_stdio_output@@QBEXDQAH@Z 100658c0 f i libucrtd:output.obj
 0001:00064900       ?write_character@?$output_adapter_common@_WV?$stream_output_adapter@_W@__crt_stdio_output@@@__crt_stdio_output@@QBEX_WQAH@Z 10065900 f i libucrtd:output.obj
 0001:00064940       ?write_character@?$string_output_adapter@D@__crt_stdio_output@@QBE_NDQAH@Z 10065940 f i libucrtd:output.obj
 0001:000649d0       ?write_character@?$string_output_adapter@_W@__crt_stdio_output@@QBE_N_WQAH@Z 100659d0 f i libucrtd:output.obj
 0001:00064a70       ?write_character_without_count_update@?$stream_output_adapter@D@__crt_stdio_output@@QBE_ND@Z 10065a70 f i libucrtd:output.obj
 0001:00064ae0       ?write_character_without_count_update@?$stream_output_adapter@_W@__crt_stdio_output@@QBE_N_W@Z 10065ae0 f i libucrtd:output.obj
 0001:00064b50       ?write_stored_string_tchar@?$output_processor@DV?$stream_output_adapter@D@__crt_stdio_output@@V?$format_validation_base@DV?$stream_output_adapter@D@__crt_stdio_output@@@2@@__crt_stdio_output@@AAE_ND@Z 10065b50 f i libucrtd:output.obj
 0001:00064c70       ?write_stored_string_tchar@?$output_processor@DV?$stream_output_adapter@D@__crt_stdio_output@@V?$positional_parameter_base@DV?$stream_output_adapter@D@__crt_stdio_output@@@2@@__crt_stdio_output@@AAE_ND@Z 10065c70 f i libucrtd:output.obj
 0001:00064d90       ?write_stored_string_tchar@?$output_processor@DV?$stream_output_adapter@D@__crt_stdio_output@@V?$standard_base@DV?$stream_output_adapter@D@__crt_stdio_output@@@2@@__crt_stdio_output@@AAE_ND@Z 10065d90 f i libucrtd:output.obj
 0001:00064eb0       ?write_stored_string_tchar@?$output_processor@DV?$string_output_adapter@D@__crt_stdio_output@@V?$format_validation_base@DV?$string_output_adapter@D@__crt_stdio_output@@@2@@__crt_stdio_output@@AAE_ND@Z 10065eb0 f i libucrtd:output.obj
 0001:00064fd0       ?write_stored_string_tchar@?$output_processor@DV?$string_output_adapter@D@__crt_stdio_output@@V?$positional_parameter_base@DV?$string_output_adapter@D@__crt_stdio_output@@@2@@__crt_stdio_output@@AAE_ND@Z 10065fd0 f i libucrtd:output.obj
 0001:000650f0       ?write_stored_string_tchar@?$output_processor@DV?$string_output_adapter@D@__crt_stdio_output@@V?$standard_base@DV?$string_output_adapter@D@__crt_stdio_output@@@2@@__crt_stdio_output@@AAE_ND@Z 100660f0 f i libucrtd:output.obj
 0001:00065210       ?write_stored_string_tchar@?$output_processor@_WV?$stream_output_adapter@_W@__crt_stdio_output@@V?$format_validation_base@_WV?$stream_output_adapter@_W@__crt_stdio_output@@@2@@__crt_stdio_output@@AAE_N_W@Z 10066210 f i libucrtd:output.obj
 0001:00065300       ?write_stored_string_tchar@?$output_processor@_WV?$stream_output_adapter@_W@__crt_stdio_output@@V?$positional_parameter_base@_WV?$stream_output_adapter@_W@__crt_stdio_output@@@2@@__crt_stdio_output@@AAE_N_W@Z 10066300 f i libucrtd:output.obj
 0001:000653f0       ?write_stored_string_tchar@?$output_processor@_WV?$stream_output_adapter@_W@__crt_stdio_output@@V?$standard_base@_WV?$stream_output_adapter@_W@__crt_stdio_output@@@2@@__crt_stdio_output@@AAE_N_W@Z 100663f0 f i libucrtd:output.obj
 0001:000654e0       ?write_stored_string_tchar@?$output_processor@_WV?$string_output_adapter@_W@__crt_stdio_output@@V?$format_validation_base@_WV?$string_output_adapter@_W@__crt_stdio_output@@@2@@__crt_stdio_output@@AAE_N_W@Z 100664e0 f i libucrtd:output.obj
 0001:000655d0       ?write_stored_string_tchar@?$output_processor@_WV?$string_output_adapter@_W@__crt_stdio_output@@V?$positional_parameter_base@_WV?$string_output_adapter@_W@__crt_stdio_output@@@2@@__crt_stdio_output@@AAE_N_W@Z 100665d0 f i libucrtd:output.obj
 0001:000656c0       ?write_stored_string_tchar@?$output_processor@_WV?$string_output_adapter@_W@__crt_stdio_output@@V?$standard_base@_WV?$string_output_adapter@_W@__crt_stdio_output@@@2@@__crt_stdio_output@@AAE_N_W@Z 100666c0 f i libucrtd:output.obj
 0001:000657b0       ?write_string@?$stream_output_adapter@D@__crt_stdio_output@@QBEXQBDHQAHAAV__crt_deferred_errno_cache@@@Z 100667b0 f i libucrtd:output.obj
 0001:00065810       ?write_string@?$stream_output_adapter@_W@__crt_stdio_output@@QBEXQB_WHQAHAAV__crt_deferred_errno_cache@@@Z 10066810 f i libucrtd:output.obj
 0001:00065870       ?write_string@?$string_output_adapter@D@__crt_stdio_output@@QBEXQBDHQAHAAV__crt_deferred_errno_cache@@@Z 10066870 f i libucrtd:output.obj
 0001:00065970       ?write_string@?$string_output_adapter@_W@__crt_stdio_output@@QBEXQB_WHQAHAAV__crt_deferred_errno_cache@@@Z 10066970 f i libucrtd:output.obj
 0001:00065a80       ?write_string_impl@?$output_adapter_common@DV?$stream_output_adapter@D@__crt_stdio_output@@@__crt_stdio_output@@IBEXQBDHQAHAAV__crt_deferred_errno_cache@@@Z 10066a80 f i libucrtd:output.obj
 0001:00065b20       ?write_string_impl@?$output_adapter_common@_WV?$stream_output_adapter@_W@__crt_stdio_output@@@__crt_stdio_output@@IBEXQB_WHQAHAAV__crt_deferred_errno_cache@@@Z 10066b20 f i libucrtd:output.obj
 0001:00065bc0       ___acrt_disable_global_locale_sync 10066bc0 f i libucrtd:output.obj
 0001:00065be0       ___acrt_enable_global_locale_sync 10066be0 f i libucrtd:output.obj
 0001:00065c00       ___acrt_isleadbyte_l_noupdate 10066c00 f i libucrtd:output.obj
 0001:00065c20       ___acrt_locale_changed     10066c20 f i libucrtd:output.obj
 0001:00065c50       ___acrt_locale_get_ctype_array_value 10066c50 f i libucrtd:output.obj
 0001:00065c80       ___stdio_common_vfprintf   10066c80 f   libucrtd:output.obj
 0001:00065cb0       ___stdio_common_vfprintf_p 10066cb0 f   libucrtd:output.obj
 0001:00065ce0       ___stdio_common_vfprintf_s 10066ce0 f   libucrtd:output.obj
 0001:00065d10       ___stdio_common_vfwprintf  10066d10 f   libucrtd:output.obj
 0001:00065d40       ___stdio_common_vfwprintf_p 10066d40 f   libucrtd:output.obj
 0001:00065d70       ___stdio_common_vfwprintf_s 10066d70 f   libucrtd:output.obj
 0001:00065da0       ___stdio_common_vsnprintf_s 10066da0 f   libucrtd:output.obj
 0001:00065dd0       ___stdio_common_vsnwprintf_s 10066dd0 f   libucrtd:output.obj
 0001:00065e00       ___stdio_common_vsprintf   10066e00 f   libucrtd:output.obj
 0001:00065e30       ___stdio_common_vsprintf_p 10066e30 f   libucrtd:output.obj
 0001:00065e60       ___stdio_common_vsprintf_s 10066e60 f   libucrtd:output.obj
 0001:00065e90       ___stdio_common_vswprintf  10066e90 f   libucrtd:output.obj
 0001:00065ec0       ___stdio_common_vswprintf_p 10066ec0 f   libucrtd:output.obj
 0001:00065ef0       ___stdio_common_vswprintf_s 10066ef0 f   libucrtd:output.obj
 0001:00065f20       __ctype_fast_check_internal 10066f20 f i libucrtd:output.obj
 0001:00065f40       __isdigit_fast_internal    10066f40 f i libucrtd:output.obj
 0001:00065f60       __tolower_fast_internal    10066f60 f i libucrtd:output.obj
 0001:00065f80       _free                      10066f80 f   libucrtd:free.obj
 0001:00065fb0       _malloc                    10066fb0 f   libucrtd:malloc.obj
 0001:00065fd0       ??$?RU?$__crt_report_hook_node@D@@@__crt_internal_free_policy@@QBEXQBU?$__crt_report_hook_node@D@@@Z 10066fd0 f i libucrtd:dbgrpt.obj
 0001:00065ff0       ??$?RU?$__crt_report_hook_node@_W@@@__crt_internal_free_policy@@QBEXQBU?$__crt_report_hook_node@_W@@@Z 10066ff0 f i libucrtd:dbgrpt.obj
 0001:00066de0       ??$get_module_file_name@AAPAUHINSTANCE__@@AAY0BAF@DK@?$__crt_char_traits@D@@SAKAAPAUHINSTANCE__@@AAY0BAF@D$$QAK@Z 10067de0 f i libucrtd:dbgrpt.obj
 0001:00066e00       ??$get_module_file_name@AAPAUHINSTANCE__@@AAY0BAF@_WK@?$__crt_char_traits@_W@@SAKAAPAUHINSTANCE__@@AAY0BAF@_W$$QAK@Z 10067e00 f i libucrtd:dbgrpt.obj
 0001:00066e20       ??$tcscpy_s@AAY0BAF@DIPBD@?$__crt_char_traits@D@@SAHAAY0BAF@D$$QAI$$QAPBD@Z 10067e20 f i libucrtd:dbgrpt.obj
 0001:00066e40       ??$tcscpy_s@AAY0BAF@_WIPB_W@?$__crt_char_traits@_W@@SAHAAY0BAF@_W$$QAI$$QAPB_W@Z 10067e40 f i libucrtd:dbgrpt.obj
 0001:00066e60       ??$tcslen@AAY0BAF@D@?$__crt_char_traits@D@@SAIAAY0BAF@D@Z 10067e60 f i libucrtd:dbgrpt.obj
 0001:00066e80       ??$tcslen@AAY0BAF@_W@?$__crt_char_traits@_W@@SAIAAY0BAF@_W@Z 10067e80 f i libucrtd:dbgrpt.obj
 0001:00066ea0       ??$tcslen@ABQBD@?$__crt_char_traits@D@@SAIABQBD@Z 10067ea0 f i libucrtd:dbgrpt.obj
 0001:00066ec0       ??$tcslen@ABQB_W@?$__crt_char_traits@_W@@SAIABQB_W@Z 10067ec0 f i libucrtd:dbgrpt.obj
 0001:00066fc0       ??0?$__crt_unique_heap_ptr@U?$__crt_report_hook_node@D@@U__crt_internal_free_policy@@@@QAE@QAU?$__crt_report_hook_node@D@@@Z 10067fc0 f i libucrtd:dbgrpt.obj
 0001:00066fe0       ??0?$__crt_unique_heap_ptr@U?$__crt_report_hook_node@_W@@U__crt_internal_free_policy@@@@QAE@QAU?$__crt_report_hook_node@_W@@@Z 10067fe0 f i libucrtd:dbgrpt.obj
 0001:00067000       ??1?$__crt_unique_heap_ptr@U?$__crt_report_hook_node@D@@U__crt_internal_free_policy@@@@QAE@XZ 10068000 f i libucrtd:dbgrpt.obj
 0001:00067020       ??1?$__crt_unique_heap_ptr@U?$__crt_report_hook_node@_W@@U__crt_internal_free_policy@@@@QAE@XZ 10068020 f i libucrtd:dbgrpt.obj
 0001:00067040       ??B?$__crt_unique_heap_ptr@U?$__crt_report_hook_node@D@@U__crt_internal_free_policy@@@@QBE_NXZ 10068040 f i libucrtd:dbgrpt.obj
 0001:00067060       ??B?$__crt_unique_heap_ptr@U?$__crt_report_hook_node@_W@@U__crt_internal_free_policy@@@@QBE_NXZ 10068060 f i libucrtd:dbgrpt.obj
 0001:000675a0       ?detach@?$__crt_unique_heap_ptr@U?$__crt_report_hook_node@D@@U__crt_internal_free_policy@@@@QAEPAU?$__crt_report_hook_node@D@@XZ 100685a0 f i libucrtd:dbgrpt.obj
 0001:000675d0       ?detach@?$__crt_unique_heap_ptr@U?$__crt_report_hook_node@_W@@U__crt_internal_free_policy@@@@QAEPAU?$__crt_report_hook_node@_W@@XZ 100685d0 f i libucrtd:dbgrpt.obj
 0001:00067600       ?get@?$__crt_unique_heap_ptr@U?$__crt_report_hook_node@D@@U__crt_internal_free_policy@@@@QBEPAU?$__crt_report_hook_node@D@@XZ 10068600 f i libucrtd:dbgrpt.obj
 0001:00067620       ?get@?$__crt_unique_heap_ptr@U?$__crt_report_hook_node@_W@@U__crt_internal_free_policy@@@@QBEPAU?$__crt_report_hook_node@_W@@XZ 10068620 f i libucrtd:dbgrpt.obj
 0001:000676a0       ?is_valid@?$__crt_unique_heap_ptr@U?$__crt_report_hook_node@D@@U__crt_internal_free_policy@@@@QBE_NXZ 100686a0 f i libucrtd:dbgrpt.obj
 0001:000676d0       ?is_valid@?$__crt_unique_heap_ptr@U?$__crt_report_hook_node@_W@@U__crt_internal_free_policy@@@@QBE_NXZ 100686d0 f i libucrtd:dbgrpt.obj
 0001:00067700       ?release@?$__crt_unique_heap_ptr@U?$__crt_report_hook_node@D@@U__crt_internal_free_policy@@@@QAEXXZ 10068700 f i libucrtd:dbgrpt.obj
 0001:00067730       ?release@?$__crt_unique_heap_ptr@U?$__crt_report_hook_node@_W@@U__crt_internal_free_policy@@@@QAEXXZ 10068730 f i libucrtd:dbgrpt.obj
 0001:00067760       __CrtDbgReport             10068760 f   libucrtd:dbgrpt.obj
 0001:000677b0       __CrtDbgReportW            100687b0 f   libucrtd:dbgrpt.obj
 0001:00067800       __CrtSetReportHook2        10068800 f   libucrtd:dbgrpt.obj
 0001:00067820       __CrtSetReportHookW2       10068820 f   libucrtd:dbgrpt.obj
 0001:00067840       ___acrt_MessageWindowA     10068840 f   libucrtd:dbgrpt.obj
 0001:00067870       ___acrt_MessageWindowW     10068870 f   libucrtd:dbgrpt.obj
 0001:000678a0       __invoke_watson_if_error   100688a0 f i libucrtd:dbgrpt.obj
 0001:000678d0       __invoke_watson_if_oneof   100688d0 f i libucrtd:dbgrpt.obj
 0001:00067910       __snwprintf_s              10068910 f i libucrtd:dbgrpt.obj
 0001:00067950       __vsnwprintf_s_l           10068950 f i libucrtd:dbgrpt.obj
 0001:00067cd0       _wcscpy_s                  10068cd0 f   libucrtd:wcscpy_s.obj
 0001:000689f0       ??1?$__crt_simd_cleanup_guard@$00@@QAE@XZ 100699f0 f i libucrtd:strnlen.obj
 0001:00068a00       ??1?$__crt_simd_cleanup_guard@$0A@@@QAE@XZ 10069a00 f i libucrtd:strnlen.obj
 0001:00068a10       ?compare_equals@?$__crt_simd_traits@$00E@@SA?AT__m256i@@T2@0@Z 10069a10 f i libucrtd:strnlen.obj
 0001:00068a50       ?compare_equals@?$__crt_simd_traits@$00G@@SA?AT__m256i@@T2@0@Z 10069a50 f i libucrtd:strnlen.obj
 0001:00068a90       ?compare_equals@?$__crt_simd_traits@$0A@E@@SA?AT__m128i@@T2@0@Z 10069a90 f i libucrtd:strnlen.obj
 0001:00068ad0       ?compare_equals@?$__crt_simd_traits@$0A@G@@SA?AT__m128i@@T2@0@Z 10069ad0 f i libucrtd:strnlen.obj
 0001:00068b10       ?compute_byte_mask@?$__crt_simd_pack_traits@$00@@SAHT__m256i@@@Z 10069b10 f i libucrtd:strnlen.obj
 0001:00068b40       ?compute_byte_mask@?$__crt_simd_pack_traits@$0A@@@SAHT__m128i@@@Z 10069b40 f i libucrtd:strnlen.obj
 0001:00068b70       ?get_zero_pack@?$__crt_simd_pack_traits@$00@@SA?AT__m256i@@XZ 10069b70 f i libucrtd:strnlen.obj
 0001:00068ba0       ?get_zero_pack@?$__crt_simd_pack_traits@$0A@@@SA?AT__m128i@@XZ 10069ba0 f i libucrtd:strnlen.obj
 0001:00068bd0       _strnlen                   10069bd0 f   libucrtd:strnlen.obj
 0001:00068bf0       _wcslen                    10069bf0 f   libucrtd:strnlen.obj
 0001:00068c10       _wcsnlen                   10069c10 f   libucrtd:strnlen.obj
 0001:00068c30       ??$__crt_fast_decode_pointer@P6AXPB_W00II@Z@@YAP6AXPB_W00II@ZQ6AX000II@Z@Z 10069c30 f i libucrtd:invalid_parameter.obj
 0001:00068c60       ??$__crt_fast_encode_pointer@P6AXPB_W00II@Z@@YAP6AXPB_W00II@ZQ6AX000II@Z@Z 10069c60 f i libucrtd:invalid_parameter.obj
 0001:00068c90       ??$initialize_from_array@$$BY00Q6AXPB_W00II@Z@?$dual_state_global@P6AXPB_W00II@Z@__crt_state_management@@QAAXAAY00Q6AXPB_W00II@Z@Z 10069c90 f i libucrtd:invalid_parameter.obj
 0001:00068ce0       ?__crt_rotate_pointer_value@@YAIIH@Z 10069ce0 f i libucrtd:invalid_parameter.obj
 0001:00068cf0       ?dangerous_get_state_array@?$dual_state_global@P6AXPB_W00II@Z@__crt_state_management@@QAEPAP6AXPB_W00II@ZXZ 10069cf0 f i libucrtd:invalid_parameter.obj
 0001:00068d00       ?get_current_state_index@__crt_state_management@@YAIXZ 10069d00 f i libucrtd:invalid_parameter.obj
 0001:00068d10       ?value@?$dual_state_global@P6AXPB_W00II@Z@__crt_state_management@@QAEAAP6AXPB_W00II@ZXZ 10069d10 f i libucrtd:invalid_parameter.obj
 0001:00068d30       ___acrt_call_reportfault   10069d30 f   libucrtd:invalid_parameter.obj
 0001:00068e90       ___acrt_initialize_invalid_parameter_handler 10069e90 f   libucrtd:invalid_parameter.obj
 0001:00068ec0       __get_invalid_parameter_handler 10069ec0 f   libucrtd:invalid_parameter.obj
 0001:00068ee0       __get_thread_local_invalid_parameter_handler 10069ee0 f   libucrtd:invalid_parameter.obj
 0001:00068f10       __invalid_parameter        10069f10 f   libucrtd:invalid_parameter.obj
 0001:00068fd0       __invalid_parameter_noinfo 10069fd0 f   libucrtd:invalid_parameter.obj
 0001:00068ff0       __invalid_parameter_noinfo_noreturn 10069ff0 f   libucrtd:invalid_parameter.obj
 0001:00069020       __invoke_watson            1006a020 f   libucrtd:invalid_parameter.obj
 0001:00069060       __set_invalid_parameter_handler 1006a060 f   libucrtd:invalid_parameter.obj
 0001:000690b0       __set_thread_local_invalid_parameter_handler 1006a0b0 f   libucrtd:invalid_parameter.obj
 0001:000690e0       ___acrt_errno_from_os_error 1006a0e0 f   libucrtd:errno.obj
 0001:00069160       ___acrt_errno_map_os_error 1006a160 f   libucrtd:errno.obj
 0001:00069190       ___doserrno                1006a190 f   libucrtd:errno.obj
 0001:000691c0       __errno                    1006a1c0 f   libucrtd:errno.obj
 0001:000691f0       __get_doserrno             1006a1f0 f   libucrtd:errno.obj
 0001:00069280       __get_errno                1006a280 f   libucrtd:errno.obj
 0001:00069310       __set_doserrno             1006a310 f   libucrtd:errno.obj
 0001:00069340       __set_errno                1006a340 f   libucrtd:errno.obj
 0001:00069370       _calloc                    1006a370 f   libucrtd:calloc.obj
 0001:00069390       __recalloc                 1006a390 f   libucrtd:recalloc.obj
 0001:000693c0       __recalloc_base            1006a3c0 f   libucrtd:recalloc.obj
 0001:0006945a       __resetstkoflw             1006a45a f   libucrtd:resetstk.obj
 0001:00069940       _wcscat_s                  1006a940 f   libucrtd:wcscat_s.obj
 0001:00069d90       _wcsncpy_s                 1006ad90 f   libucrtd:wcsncpy_s.obj
 0001:00069ed0       ___isascii                 1006aed0 f   libucrtd:_ctype.obj
 0001:00069f00       ___iscsym                  1006af00 f   libucrtd:_ctype.obj
 0001:00069f40       ___iscsymf                 1006af40 f   libucrtd:_ctype.obj
 0001:00069f80       ___toascii                 1006af80 f   libucrtd:_ctype.obj
 0001:00069f90       __isalnum_l                1006af90 f   libucrtd:_ctype.obj
 0001:00069fb0       __isalpha_l                1006afb0 f   libucrtd:_ctype.obj
 0001:00069fd0       __isblank_l                1006afd0 f   libucrtd:_ctype.obj
 0001:00069ff0       __iscntrl_l                1006aff0 f   libucrtd:_ctype.obj
 0001:0006a010       __iscsym_l                 1006b010 f   libucrtd:_ctype.obj
 0001:0006a050       __iscsymf_l                1006b050 f   libucrtd:_ctype.obj
 0001:0006a090       __isdigit_l                1006b090 f   libucrtd:_ctype.obj
 0001:0006a0b0       __isgraph_l                1006b0b0 f   libucrtd:_ctype.obj
 0001:0006a0d0       __islower_l                1006b0d0 f   libucrtd:_ctype.obj
 0001:0006a0f0       __isprint_l                1006b0f0 f   libucrtd:_ctype.obj
 0001:0006a110       __ispunct_l                1006b110 f   libucrtd:_ctype.obj
 0001:0006a130       __isspace_l                1006b130 f   libucrtd:_ctype.obj
 0001:0006a150       __isupper_l                1006b150 f   libucrtd:_ctype.obj
 0001:0006a170       __isxdigit_l               1006b170 f   libucrtd:_ctype.obj
 0001:0006a190       _isalnum                   1006b190 f   libucrtd:_ctype.obj
 0001:0006a1b0       _isalpha                   1006b1b0 f   libucrtd:_ctype.obj
 0001:0006a1d0       _isblank                   1006b1d0 f   libucrtd:_ctype.obj
 0001:0006a200       _iscntrl                   1006b200 f   libucrtd:_ctype.obj
 0001:0006a220       _isdigit                   1006b220 f   libucrtd:_ctype.obj
 0001:0006a240       _isgraph                   1006b240 f   libucrtd:_ctype.obj
 0001:0006a260       _islower                   1006b260 f   libucrtd:_ctype.obj
 0001:0006a280       _isprint                   1006b280 f   libucrtd:_ctype.obj
 0001:0006a2a0       _ispunct                   1006b2a0 f   libucrtd:_ctype.obj
 0001:0006a2c0       _isspace                   1006b2c0 f   libucrtd:_ctype.obj
 0001:0006a2e0       _isupper                   1006b2e0 f   libucrtd:_ctype.obj
 0001:0006a300       _isxdigit                  1006b300 f   libucrtd:_ctype.obj
 0001:0006a320       _wcscat                    1006b320 f   libucrtd:wcscat.obj
 0001:0006a380       _wcscpy                    1006b380 f   libucrtd:wcscpy.obj
 0001:0006aa10       ??$open_file@ABQBDABQBDABHPAU_iobuf@@@?$__crt_char_traits@D@@SAPAU_iobuf@@ABQBD0ABH$$QAPAU1@@Z 1006ba10 f i libucrtd:fopen.obj
 0001:0006aa40       ??$open_file@ABQB_WABQB_WABHPAU_iobuf@@@?$__crt_char_traits@_W@@SAPAU_iobuf@@ABQB_W0ABH$$QAPAU1@@Z 1006ba40 f i libucrtd:fopen.obj
 0001:0006aa70       ?unlock@__crt_stdio_stream@@QBEXXZ 1006ba70 f i libucrtd:fopen.obj
 0001:0006aa90       __fsopen                   1006ba90 f   libucrtd:fopen.obj
 0001:0006aab0       __wfopen                   1006bab0 f   libucrtd:fopen.obj
 0001:0006aad0       __wfopen_s                 1006bad0 f   libucrtd:fopen.obj
 0001:0006aaf0       __wfsopen                  1006baf0 f   libucrtd:fopen.obj
 0001:0006ab10       _fopen                     1006bb10 f   libucrtd:fopen.obj
 0001:0006ab30       _fopen_s                   1006bb30 f   libucrtd:fopen.obj
 0001:0006ab50       ?is_in_use@__crt_stdio_stream@@QBE_NXZ 1006bb50 f i libucrtd:fclose.obj
 0001:0006ab90       __fclose_nolock            1006bb90 f   libucrtd:fclose.obj
 0001:0006acd0       _fclose                    1006bcd0 f   libucrtd:fclose.obj
 0001:0006ae20       __fputc_nolock             1006be20 f   libucrtd:fputc.obj
 0001:0006aeb0       __fputchar                 1006beb0 f   libucrtd:fputc.obj
 0001:0006aed0       __putc_nolock              1006bed0 f   libucrtd:fputc.obj
 0001:0006aef0       _fputc                     1006bef0 f   libucrtd:fputc.obj
 0001:0006b130       _putc                      1006c130 f   libucrtd:fputc.obj
 0001:0006b150       _putchar                   1006c150 f   libucrtd:fputc.obj
 0001:0006b1c0       __seh_filter_dll           1006c1c0 f   libucrtd:exception_filter.obj
 0001:0006b1f0       __seh_filter_exe           1006c1f0 f   libucrtd:exception_filter.obj
 0001:0006b400       ??$?B$$A6GXPAXK0@Z@__crt_fast_encoded_nullptr_t@@QBEP6GXPAXK0@ZXZ 1006c400 f i libucrtd:exit.obj
 0001:0006b4e0       ??$__crt_fast_decode_pointer@P6GXPAXK0@Z@@YAP6GXPAXK0@ZQ6GX0K0@Z@Z 1006c4e0 f i libucrtd:exit.obj
 0001:0006b510       ??$__crt_fast_encode_pointer@P6GXPAXK0@Z@@YAP6GXPAXK0@ZQ6GX0K0@Z@Z 1006c510 f i libucrtd:exit.obj
 0001:0006b540       ??$__crt_get_proc_address@P6GXI@Z@@YAP6GXI@ZQAUHINSTANCE__@@QBD@Z 1006c540 f i libucrtd:exit.obj
 0001:0006b5d0       ??0?$__crt_unique_handle_t@U__crt_hmodule_traits@@@@QAE@QAUHINSTANCE__@@@Z 1006c5d0 f i libucrtd:exit.obj
 0001:0006b5f0       ??1?$__crt_unique_handle_t@U__crt_hmodule_traits@@@@QAE@XZ 1006c5f0 f i libucrtd:exit.obj
 0001:0006b7b0       ?__acrt_select_exit_lock@@YA?AW4__acrt_lock_id@@XZ 1006c7b0 f i libucrtd:exit.obj
 0001:0006b7c0       ?__crt_fast_encode_pointer@@YA?AU__crt_fast_encoded_nullptr_t@@$$T@Z 1006c7c0 f i libucrtd:exit.obj
 0001:0006b7f0       ?close@?$__crt_unique_handle_t@U__crt_hmodule_traits@@@@QAEXXZ 1006c7f0 f i libucrtd:exit.obj
 0001:0006b830       ?close@__crt_hmodule_traits@@SA_NPAUHINSTANCE__@@@Z 1006c830 f i libucrtd:exit.obj
 0001:0006b920       ?get@?$__crt_unique_handle_t@U__crt_hmodule_traits@@@@QBEPAUHINSTANCE__@@XZ 1006c920 f i libucrtd:exit.obj
 0001:0006b940       ?get_address_of@?$__crt_unique_handle_t@U__crt_hmodule_traits@@@@QAEPAPAUHINSTANCE__@@XZ 1006c940 f i libucrtd:exit.obj
 0001:0006b950       ?get_invalid_value@__crt_hmodule_traits@@SAPAUHINSTANCE__@@XZ 1006c950 f i libucrtd:exit.obj
 0001:0006bad0       __Exit                     1006cad0 f   libucrtd:exit.obj
 0001:0006baf0       ___acrt_initialize_thread_local_exit_callback 1006caf0 f   libucrtd:exit.obj
 0001:0006bb00       __c_exit                   1006cb00 f   libucrtd:exit.obj
 0001:0006bb20       __cexit                    1006cb20 f   libucrtd:exit.obj
 0001:0006bb40       __exit                     1006cb40 f   libucrtd:exit.obj
 0001:0006bb60       __is_c_termination_complete 1006cb60 f   libucrtd:exit.obj
 0001:0006bb80       __register_thread_local_exe_atexit_callback 1006cb80 f   libucrtd:exit.obj
 0001:0006bbc0       _exit                      1006cbc0 f   libucrtd:exit.obj
 0001:0006bbe0       _quick_exit                1006cbe0 f   libucrtd:exit.obj
 0001:0006bc00       ??$?RE@__crt_internal_free_policy@@QBEXQBE@Z 1006cc00 f i libucrtd:argv_parsing.obj
 0001:0006bc20       ??$?RPAD@__crt_internal_free_policy@@QBEXQBQAD@Z 1006cc20 f i libucrtd:argv_parsing.obj
 0001:0006bc40       ??$?RPA_W@__crt_internal_free_policy@@QBEXQBQA_W@Z 1006cc40 f i libucrtd:argv_parsing.obj
 0001:0006c1a0       ??$get_module_file_name@$$TAAY0BAF@DH@?$__crt_char_traits@D@@SAK$$QA$$TAAY0BAF@D$$QAH@Z 1006d1a0 f i libucrtd:argv_parsing.obj
 0001:0006c1c0       ??$get_module_file_name@$$TAAY0BAF@_WH@?$__crt_char_traits@_W@@SAK$$QA$$TAAY0BAF@_W$$QAH@Z 1006d1c0 f i libucrtd:argv_parsing.obj
 0001:0006c8e0       ??$set_program_name@PAD@?$__crt_char_traits@D@@SAX$$QAPAD@Z 1006d8e0 f i libucrtd:argv_parsing.obj
 0001:0006c900       ??$set_program_name@PA_W@?$__crt_char_traits@_W@@SAX$$QAPA_W@Z 1006d900 f i libucrtd:argv_parsing.obj
 0001:0006c960       ??0?$__crt_unique_heap_ptr@EU__crt_internal_free_policy@@@@QAE@QAE@Z 1006d960 f i libucrtd:argv_parsing.obj
 0001:0006c980       ??0?$__crt_unique_heap_ptr@PADU__crt_internal_free_policy@@@@QAE@QAPAD@Z 1006d980 f i libucrtd:argv_parsing.obj
 0001:0006c9a0       ??0?$__crt_unique_heap_ptr@PA_WU__crt_internal_free_policy@@@@QAE@QAPA_W@Z 1006d9a0 f i libucrtd:argv_parsing.obj
 0001:0006c9c0       ??1?$__crt_unique_heap_ptr@EU__crt_internal_free_policy@@@@QAE@XZ 1006d9c0 f i libucrtd:argv_parsing.obj
 0001:0006c9e0       ??1?$__crt_unique_heap_ptr@PADU__crt_internal_free_policy@@@@QAE@XZ 1006d9e0 f i libucrtd:argv_parsing.obj
 0001:0006ca00       ??1?$__crt_unique_heap_ptr@PA_WU__crt_internal_free_policy@@@@QAE@XZ 1006da00 f i libucrtd:argv_parsing.obj
 0001:0006ca20       ??B?$__crt_unique_heap_ptr@EU__crt_internal_free_policy@@@@QBE_NXZ 1006da20 f i libucrtd:argv_parsing.obj
 0001:0006cae0       ?detach@?$__crt_unique_heap_ptr@EU__crt_internal_free_policy@@@@QAEPAEXZ 1006dae0 f i libucrtd:argv_parsing.obj
 0001:0006cb10       ?detach@?$__crt_unique_heap_ptr@PADU__crt_internal_free_policy@@@@QAEPAPADXZ 1006db10 f i libucrtd:argv_parsing.obj
 0001:0006cb40       ?detach@?$__crt_unique_heap_ptr@PA_WU__crt_internal_free_policy@@@@QAEPAPA_WXZ 1006db40 f i libucrtd:argv_parsing.obj
 0001:0006cbd0       ?get@?$__crt_unique_heap_ptr@EU__crt_internal_free_policy@@@@QBEPAEXZ 1006dbd0 f i libucrtd:argv_parsing.obj
 0001:0006cbf0       ?get@?$__crt_unique_heap_ptr@PADU__crt_internal_free_policy@@@@QBEPAPADXZ 1006dbf0 f i libucrtd:argv_parsing.obj
 0001:0006cc10       ?get@?$__crt_unique_heap_ptr@PA_WU__crt_internal_free_policy@@@@QBEPAPA_WXZ 1006dc10 f i libucrtd:argv_parsing.obj
 0001:0006cc30       ?get_address_of@?$__crt_unique_heap_ptr@PADU__crt_internal_free_policy@@@@QAEPAPAPADXZ 1006dc30 f i libucrtd:argv_parsing.obj
 0001:0006cc40       ?get_address_of@?$__crt_unique_heap_ptr@PA_WU__crt_internal_free_policy@@@@QAEPAPAPA_WXZ 1006dc40 f i libucrtd:argv_parsing.obj
 0001:0006cc90       ?is_valid@?$__crt_unique_heap_ptr@EU__crt_internal_free_policy@@@@QBE_NXZ 1006dc90 f i libucrtd:argv_parsing.obj
 0001:0006ccc0       ?release@?$__crt_unique_heap_ptr@EU__crt_internal_free_policy@@@@QAEXXZ 1006dcc0 f i libucrtd:argv_parsing.obj
 0001:0006ccf0       ?release@?$__crt_unique_heap_ptr@PADU__crt_internal_free_policy@@@@QAEXXZ 1006dcf0 f i libucrtd:argv_parsing.obj
 0001:0006cd20       ?release@?$__crt_unique_heap_ptr@PA_WU__crt_internal_free_policy@@@@QAEXXZ 1006dd20 f i libucrtd:argv_parsing.obj
 0001:0006cd90       ___acrt_allocate_buffer_for_argv 1006dd90 f   libucrtd:argv_parsing.obj
 0001:0006ce50       __configure_narrow_argv    1006de50 f   libucrtd:argv_parsing.obj
 0001:0006ce70       __configure_wide_argv      1006de70 f   libucrtd:argv_parsing.obj
 0001:0006ce90       __set_pgmptr               1006de90 f i libucrtd:argv_parsing.obj
 0001:0006cea0       __set_wpgmptr              1006dea0 f i libucrtd:argv_parsing.obj
 0001:0006ceaf       ??$?R_W@__crt_internal_free_policy@@QBEXQB_W@Z 1006deaf f i libucrtd:environment_initialization.obj
 0001:0006d318       ??$get_environment_from_os@$$V@?$__crt_char_traits@D@@SAPADXZ 1006e318 f i libucrtd:environment_initialization.obj
 0001:0006d31d       ??$get_environment_from_os@$$V@?$__crt_char_traits@_W@@SAPA_WXZ 1006e31d f i libucrtd:environment_initialization.obj
 0001:0006d446       ??$set_variable_in_environment_nolock@PADH@?$__crt_char_traits@D@@SAH$$QAPAD$$QAH@Z 1006e446 f i libucrtd:environment_initialization.obj
 0001:0006d45e       ??$set_variable_in_environment_nolock@PA_WH@?$__crt_char_traits@_W@@SAH$$QAPA_W$$QAH@Z 1006e45e f i libucrtd:environment_initialization.obj
 0001:0006d476       ??$tcscpy_s@PADABIAAPAD@?$__crt_char_traits@D@@SAH$$QAPADABIAAPAD@Z 1006e476 f i libucrtd:environment_initialization.obj
 0001:0006d494       ??$tcscpy_s@PA_WABIAAPA_W@?$__crt_char_traits@_W@@SAH$$QAPA_WABIAAPA_W@Z 1006e494 f i libucrtd:environment_initialization.obj
 0001:0006d4b2       ??$tcslen@AAPAD@?$__crt_char_traits@D@@SAIAAPAD@Z 1006e4b2 f i libucrtd:environment_initialization.obj
 0001:0006d4ca       ??$tcslen@AAPA_W@?$__crt_char_traits@_W@@SAIAAPA_W@Z 1006e4ca f i libucrtd:environment_initialization.obj
 0001:0006d4e8       ??$uninitialize@A6AXAAPAPAD@Z@?$dual_state_global@PAPAD@__crt_state_management@@QAEXA6AXAAPAPAD@Z@Z 1006e4e8 f i libucrtd:environment_initialization.obj
 0001:0006d511       ??$uninitialize@A6AXAAPAPA_W@Z@?$dual_state_global@PAPA_W@__crt_state_management@@QAEXA6AXAAPAPA_W@Z@Z 1006e511 f i libucrtd:environment_initialization.obj
 0001:0006d570       ??0?$__crt_unique_heap_ptr@_WU__crt_internal_free_policy@@@@QAE@QA_W@Z 1006e570 f i libucrtd:environment_initialization.obj
 0001:0006d580       ??1?$__crt_unique_heap_ptr@_WU__crt_internal_free_policy@@@@QAE@XZ 1006e580 f i libucrtd:environment_initialization.obj
 0001:0006d595       ??B?$__crt_unique_heap_ptr@PADU__crt_internal_free_policy@@@@QBE_NXZ 1006e595 f i libucrtd:environment_initialization.obj
 0001:0006d59c       ??B?$__crt_unique_heap_ptr@PA_WU__crt_internal_free_policy@@@@QBE_NXZ 1006e59c f i libucrtd:environment_initialization.obj
 0001:0006d5a3       ??B?$__crt_unique_heap_ptr@_WU__crt_internal_free_policy@@@@QBE_NXZ 1006e5a3 f i libucrtd:environment_initialization.obj
 0001:0006d5aa       ?__crt_compute_required_transform_buffer_count@@YAIIQBD@Z 1006e5aa f i libucrtd:environment_initialization.obj
 0001:0006d5c6       ?__crt_compute_required_transform_buffer_count@@YAIIQB_W@Z 1006e5c6 f i libucrtd:environment_initialization.obj
 0001:0006d5e4       ?__crt_transform_string@@YAIIQBDQA_WI@Z 1006e5e4 f i libucrtd:environment_initialization.obj
 0001:0006d603       ?__crt_transform_string@@YAIIQB_WQADI@Z 1006e603 f i libucrtd:environment_initialization.obj
 0001:0006d625       ?detach@?$__crt_unique_heap_ptr@DU__crt_internal_free_policy@@@@QAEPADXZ 1006e625 f i libucrtd:environment_initialization.obj
 0001:0006d62b       ?detach@?$__crt_unique_heap_ptr@_WU__crt_internal_free_policy@@@@QAEPA_WXZ 1006e62b f i libucrtd:environment_initialization.obj
 0001:0006d631       ?get@?$__crt_unique_heap_ptr@_WU__crt_internal_free_policy@@@@QBEPA_WXZ 1006e631 f i libucrtd:environment_initialization.obj
 0001:0006d658       ?initialize@?$dual_state_global@PAPAD@__crt_state_management@@QAEXQAPAD@Z 1006e658 f i libucrtd:environment_initialization.obj
 0001:0006d67e       ?initialize@?$dual_state_global@PAPA_W@__crt_state_management@@QAEXQAPA_W@Z 1006e67e f i libucrtd:environment_initialization.obj
 0001:0006d6a4       ?is_valid@?$__crt_unique_heap_ptr@PADU__crt_internal_free_policy@@@@QBE_NXZ 1006e6a4 f i libucrtd:environment_initialization.obj
 0001:0006d6ab       ?is_valid@?$__crt_unique_heap_ptr@PA_WU__crt_internal_free_policy@@@@QBE_NXZ 1006e6ab f i libucrtd:environment_initialization.obj
 0001:0006d6b2       ?is_valid@?$__crt_unique_heap_ptr@_WU__crt_internal_free_policy@@@@QBE_NXZ 1006e6b2 f i libucrtd:environment_initialization.obj
 0001:0006d6c1       ?release@?$__crt_unique_heap_ptr@_WU__crt_internal_free_policy@@@@QAEXXZ 1006e6c1 f i libucrtd:environment_initialization.obj
 0001:0006d6d6       ?value@?$dual_state_global@PAPAD@__crt_state_management@@QAEAAPAPADXZ 1006e6d6 f i libucrtd:environment_initialization.obj
 0001:0006d6d9       ?value@?$dual_state_global@PAPA_W@__crt_state_management@@QAEAAPAPA_WXZ 1006e6d9 f i libucrtd:environment_initialization.obj
 0001:0006d6dc       ___dcrt_get_or_create_narrow_environment_nolock 1006e6dc f   libucrtd:environment_initialization.obj
 0001:0006d6e1       ___dcrt_get_or_create_wide_environment_nolock 1006e6e1 f   libucrtd:environment_initialization.obj
 0001:0006d6e6       ___dcrt_uninitialize_environments_nolock 1006e6e6 f   libucrtd:environment_initialization.obj
 0001:0006d71d       ___p__environ              1006e71d f   libucrtd:environment_initialization.obj
 0001:0006d723       ___p__wenviron             1006e723 f   libucrtd:environment_initialization.obj
 0001:0006d729       __get_initial_narrow_environment 1006e729 f   libucrtd:environment_initialization.obj
 0001:0006d73d       __get_initial_wide_environment 1006e73d f   libucrtd:environment_initialization.obj
 0001:0006d751       __initialize_narrow_environment 1006e751 f   libucrtd:environment_initialization.obj
 0001:0006d756       __initialize_wide_environment 1006e756 f   libucrtd:environment_initialization.obj
 0001:0006d760       ??$?B$$A6AXXZ@__crt_fast_encoded_nullptr_t@@QBEP6AXXZXZ 1006e760 f i libucrtd:onexit.obj
 0001:0006d780       ??$?BP6AXXZ@__crt_fast_encoded_nullptr_t@@QBEPAP6AXXZXZ 1006e780 f i libucrtd:onexit.obj
 0001:0006d7a0       ??$?RP6AXXZ@__crt_internal_free_policy@@QBEXQBQ6AXXZ@Z 1006e7a0 f i libucrtd:onexit.obj
 0001:0006d960       ??$__crt_fast_decode_pointer@P6AXXZ@@YAP6AXXZQ6AXXZ@Z 1006e960 f i libucrtd:onexit.obj
 0001:0006d990       ??$__crt_fast_decode_pointer@PAP6AXXZ@@YAPAP6AXXZQAP6AXXZ@Z 1006e990 f i libucrtd:onexit.obj
 0001:0006d9c0       ??$__crt_fast_encode_pointer@P6AHXZ@@YAP6AHXZQ6AHXZ@Z 1006e9c0 f i libucrtd:onexit.obj
 0001:0006d9f0       ??$__crt_fast_encode_pointer@P6AXXZ@@YAP6AXXZQ6AXXZ@Z 1006e9f0 f i libucrtd:onexit.obj
 0001:0006da20       ??$__crt_fast_encode_pointer@PAP6AXXZ@@YAPAP6AXXZQAP6AXXZ@Z 1006ea20 f i libucrtd:onexit.obj
 0001:0006db20       ??0?$__crt_unique_heap_ptr@P6AXXZU__crt_internal_free_policy@@@@QAE@QAP6AXXZ@Z 1006eb20 f i libucrtd:onexit.obj
 0001:0006db40       ??1?$__crt_unique_heap_ptr@P6AXXZU__crt_internal_free_policy@@@@QAE@XZ 1006eb40 f i libucrtd:onexit.obj
 0001:0006db60       ??1scoped_global_state_reset@__crt_state_management@@QAE@XZ 1006eb60 f i libucrtd:onexit.obj
 0001:0006dfd0       ?detach@?$__crt_unique_heap_ptr@P6AXXZU__crt_internal_free_policy@@@@QAEPAP6AXXZXZ 1006efd0 f i libucrtd:onexit.obj
 0001:0006e000       ?release@?$__crt_unique_heap_ptr@P6AXXZU__crt_internal_free_policy@@@@QAEXXZ 1006f000 f i libucrtd:onexit.obj
 0001:0006e030       __crt_at_quick_exit        1006f030 f   libucrtd:onexit.obj
 0001:0006e050       __crt_atexit               1006f050 f   libucrtd:onexit.obj
 0001:0006e070       __execute_onexit_table     1006f070 f   libucrtd:onexit.obj
 0001:0006e0a0       __initialize_onexit_table  1006f0a0 f   libucrtd:onexit.obj
 0001:0006e100       __register_onexit_function 1006f100 f   libucrtd:onexit.obj
 0001:0006e340       ??$?BX@__crt_fast_encoded_nullptr_t@@QBEPAXXZ 1006f340 f i libucrtd:initialization.obj
 0001:0006e360       ??$__crt_fast_encode_pointer@PAX@@YAPAXQAX@Z 1006f360 f i libucrtd:initialization.obj
 0001:0006e420       ?initialize@?$dual_state_global@PAU__crt_locale_data@@@__crt_state_management@@QAEXQAU__crt_locale_data@@@Z 1006f420 f i libucrtd:initialization.obj
 0001:0006e460       ___acrt_initialize         1006f460 f   libucrtd:initialization.obj
 0001:0006e480       ___acrt_thread_attach      1006f480 f   libucrtd:initialization.obj
 0001:0006e4a0       ___acrt_thread_detach      1006f4a0 f   libucrtd:initialization.obj
 0001:0006e4b0       ___acrt_uninitialize       1006f4b0 f   libucrtd:initialization.obj
 0001:0006e4d0       ___acrt_uninitialize_critical 1006f4d0 f   libucrtd:initialization.obj
 0001:0006fd40       __CrtCheckMemory           10070d40 f   libucrtd:debug_heap.obj
 0001:0006fed0       __CrtDoForAllClientObjects 10070ed0 f   libucrtd:debug_heap.obj
 0001:00070020       __CrtDumpMemoryLeaks       10071020 f   libucrtd:debug_heap.obj
 0001:000700c0       __CrtGetAllocHook          100710c0 f   libucrtd:debug_heap.obj
 0001:000700d0       __CrtGetDumpClient         100710d0 f   libucrtd:debug_heap.obj
 0001:000700e0       __CrtIsMemoryBlock         100710e0 f   libucrtd:debug_heap.obj
 0001:00070230       __CrtIsValidHeapPointer    10071230 f   libucrtd:debug_heap.obj
 0001:00070260       __CrtIsValidPointer        10071260 f   libucrtd:debug_heap.obj
 0001:00070290       __CrtMemCheckpoint         10071290 f   libucrtd:debug_heap.obj
 0001:000704c0       __CrtMemDifference         100714c0 f   libucrtd:debug_heap.obj
 0001:00070730       __CrtMemDumpAllObjectsSince 10071730 f   libucrtd:debug_heap.obj
 0001:000707d0       __CrtMemDumpStatistics     100717d0 f   libucrtd:debug_heap.obj
 0001:00070900       __CrtReportBlockType       10071900 f   libucrtd:debug_heap.obj
 0001:00070930       __CrtSetAllocHook          10071930 f   libucrtd:debug_heap.obj
 0001:00070950       __CrtSetBreakAlloc         10071950 f   libucrtd:debug_heap.obj
 0001:00070970       __CrtSetDbgBlockType       10071970 f   libucrtd:debug_heap.obj
 0001:00070a50       __CrtSetDbgFlag            10071a50 f   libucrtd:debug_heap.obj
 0001:00070bc0       __CrtSetDumpClient         10071bc0 f   libucrtd:debug_heap.obj
 0001:00070be0       ___acrt_get_locale_data_prefix 10071be0 f i libucrtd:debug_heap.obj
 0001:00070c00       ___p__crtBreakAlloc        10071c00 f   libucrtd:debug_heap.obj
 0001:00070c10       ___p__crtDbgFlag           10071c10 f   libucrtd:debug_heap.obj
 0001:00070c20       __aligned_free_dbg         10071c20 f   libucrtd:debug_heap.obj
 0001:00070cd0       __aligned_malloc_dbg       10071cd0 f   libucrtd:debug_heap.obj
 0001:00070d00       __aligned_msize_dbg        10071d00 f   libucrtd:debug_heap.obj
 0001:00070e30       __aligned_offset_malloc_dbg 10071e30 f   libucrtd:debug_heap.obj
 0001:00071010       __aligned_offset_realloc_dbg 10072010 f   libucrtd:debug_heap.obj
 0001:00071320       __aligned_offset_recalloc_dbg 10072320 f   libucrtd:debug_heap.obj
 0001:000713e0       __aligned_realloc_dbg      100723e0 f   libucrtd:debug_heap.obj
 0001:00071410       __aligned_recalloc_dbg     10072410 f   libucrtd:debug_heap.obj
 0001:00071440       __calloc_dbg               10072440 f   libucrtd:debug_heap.obj
 0001:000714b0       __chvalidchk_l             100724b0 f i libucrtd:debug_heap.obj
 0001:000714d0       __expand_dbg               100724d0 f   libucrtd:debug_heap.obj
 0001:00071600       __free_dbg                 10072600 f   libucrtd:debug_heap.obj
 0001:000716b0       __ischartype_l             100726b0 f i libucrtd:debug_heap.obj
 0001:00071730       __malloc_dbg               10072730 f   libucrtd:debug_heap.obj
 0001:00071750       __msize_dbg                10072750 f   libucrtd:debug_heap.obj
 0001:000718e0       __realloc_dbg              100728e0 f   libucrtd:debug_heap.obj
 0001:00071980       __recalloc_dbg             10072980 f   libucrtd:debug_heap.obj
 0001:00071a30       __initterm                 10072a30 f   libucrtd:initterm.obj
 0001:00071a80       __initterm_e               10072a80 f   libucrtd:initterm.obj
 0001:00071df0       _strcpy_s                  10072df0 f   libucrtd:strcpy_s.obj
 0001:00072220       _strcat_s                  10073220 f   libucrtd:strcat_s.obj
 0001:00072240       ??$?B$$A6AHI@Z@__crt_fast_encoded_nullptr_t@@QBEP6AHI@ZXZ 10073240 f i libucrtd:new_handler.obj
 0001:00072260       ??$__crt_fast_decode_pointer@P6AHI@Z@@YAP6AHI@ZQ6AHI@Z@Z 10073260 f i libucrtd:new_handler.obj
 0001:00072290       ??$__crt_fast_encode_pointer@P6AHI@Z@@YAP6AHI@ZQ6AHI@Z@Z 10073290 f i libucrtd:new_handler.obj
 0001:000722c0       ?_set_new_handler@@YAP6AHI@ZH@Z 100732c0 f   libucrtd:new_handler.obj
 0001:00072320       ?initialize@?$dual_state_global@P6AHI@Z@__crt_state_management@@QAEXQ6AHI@Z@Z 10073320 f i libucrtd:new_handler.obj
 0001:00072360       ?value@?$dual_state_global@P6AHI@Z@__crt_state_management@@QAEAAP6AHI@ZXZ 10073360 f i libucrtd:new_handler.obj
 0001:00072380       ___acrt_initialize_new_handler 10073380 f   libucrtd:new_handler.obj
 0001:000723a0       __callnewh                 100733a0 f   libucrtd:new_handler.obj
 0001:000723e0       __query_new_handler        100733e0 f   libucrtd:new_handler.obj
 0001:00072470       __set_new_handler          10073470 f   libucrtd:new_handler.obj
 0001:00072550       __get_terminate            10073550 f   libucrtd:terminate.obj
 0001:00072570       _set_terminate             10073570 f   libucrtd:terminate.obj
 0001:000725a0       _terminate                 100735a0 f   libucrtd:terminate.obj
 0001:00072f70       __makepath                 10073f70 f   libucrtd:makepath.obj
 0001:00072fa0       __makepath_s               10073fa0 f   libucrtd:makepath.obj
 0001:00072fd0       __wmakepath                10073fd0 f   libucrtd:makepath.obj
 0001:00073000       __wmakepath_s              10074000 f   libucrtd:makepath.obj
 0001:00074950       ??$tcsncpy_s@AAPADIAAPBDABI@?$__crt_char_traits@D@@SAHAAPAD$$QAIAAPBDABI@Z 10075950 f i libucrtd:splitpath.obj
 0001:00074980       ??$tcsncpy_s@AAPADIAAPBDH@?$__crt_char_traits@D@@SAHAAPAD$$QAIAAPBD$$QAH@Z 10075980 f i libucrtd:splitpath.obj
 0001:000749b0       ??$tcsncpy_s@AAPA_WIAAPB_WABI@?$__crt_char_traits@_W@@SAHAAPA_W$$QAIAAPB_WABI@Z 100759b0 f i libucrtd:splitpath.obj
 0001:000749e0       ??$tcsncpy_s@AAPA_WIAAPB_WH@?$__crt_char_traits@_W@@SAHAAPA_W$$QAIAAPB_W$$QAH@Z 100759e0 f i libucrtd:splitpath.obj
 0001:00074c20       __splitpath                10075c20 f   libucrtd:splitpath.obj
 0001:00074c50       __splitpath_s              10075c50 f   libucrtd:splitpath.obj
 0001:00074ca0       __wsplitpath               10075ca0 f   libucrtd:splitpath.obj
 0001:00074cd0       __wsplitpath_s             10075cd0 f   libucrtd:splitpath.obj
 0001:00074d20       __set_abort_behavior       10075d20 f   libucrtd:abort.obj
 0001:00074d50       _abort                     10075d50 f   libucrtd:abort.obj
 0001:00074dc0       _strcmp                    10075dc0 f   libucrtd:strcmp.obj
 0001:00074e50       _strlen                    10075e50 f   libucrtd:strlen.obj
 0001:00074ee0       ??$is_overflow_condition@K@__crt_strtox@@YA_NIK@Z 10075ee0 f i libucrtd:atox.obj
 0001:00074f40       ??$is_overflow_condition@_K@__crt_strtox@@YA_NI_K@Z 10075f40 f i libucrtd:atox.obj
 0001:00074fd0       ??$make_c_string_character_source@D$$T@__crt_strtox@@YA?AV?$c_string_character_source@D@0@QBD$$T@Z 10075fd0 f i libucrtd:atox.obj
 0001:00074ff0       ??$make_c_string_character_source@_W$$T@__crt_strtox@@YA?AV?$c_string_character_source@_W@0@QB_W$$T@Z 10075ff0 f i libucrtd:atox.obj
 0001:00075010       ??$parse_integer@KV?$c_string_character_source@D@__crt_strtox@@@__crt_strtox@@YAKQAU__crt_locale_pointers@@V?$c_string_character_source@D@0@H_N@Z 10076010 f i libucrtd:atox.obj
 0001:00075380       ??$parse_integer@KV?$c_string_character_source@_W@__crt_strtox@@@__crt_strtox@@YAKQAU__crt_locale_pointers@@V?$c_string_character_source@_W@0@H_N@Z 10076380 f i libucrtd:atox.obj
 0001:000756f0       ??$parse_integer@_KV?$c_string_character_source@D@__crt_strtox@@@__crt_strtox@@YA_KQAU__crt_locale_pointers@@V?$c_string_character_source@D@0@H_N@Z 100766f0 f i libucrtd:atox.obj
 0001:00075b10       ??$parse_integer@_KV?$c_string_character_source@_W@__crt_strtox@@@__crt_strtox@@YA_KQAU__crt_locale_pointers@@V?$c_string_character_source@_W@0@H_N@Z 10076b10 f i libucrtd:atox.obj
 0001:00075f40       ??$parse_integer_from_string@JD$$T@__crt_strtox@@YAJQBD$$THQAU__crt_locale_pointers@@@Z 10076f40 f i libucrtd:atox.obj
 0001:00075f80       ??$parse_integer_from_string@J_W$$T@__crt_strtox@@YAJQB_W$$THQAU__crt_locale_pointers@@@Z 10076f80 f i libucrtd:atox.obj
 0001:00075fc0       ??$parse_integer_from_string@_JD$$T@__crt_strtox@@YA_JQBD$$THQAU__crt_locale_pointers@@@Z 10076fc0 f i libucrtd:atox.obj
 0001:00076000       ??$parse_integer_from_string@_J_W$$T@__crt_strtox@@YA_JQB_W$$THQAU__crt_locale_pointers@@@Z 10077000 f i libucrtd:atox.obj
 0001:00076040       ??0?$c_string_character_source@D@__crt_strtox@@QAE@QBDQAPBD@Z 10077040 f i libucrtd:atox.obj
 0001:00076080       ??0?$c_string_character_source@_W@__crt_strtox@@QAE@QB_WQAPB_W@Z 10077080 f i libucrtd:atox.obj
 0001:000760c0       ??1?$c_string_character_source@D@__crt_strtox@@QAE@XZ 100770c0 f i libucrtd:atox.obj
 0001:000760f0       ??1?$c_string_character_source@_W@__crt_strtox@@QAE@XZ 100770f0 f i libucrtd:atox.obj
 0001:00076120       ?get@?$c_string_character_source@D@__crt_strtox@@QAEDXZ 10077120 f i libucrtd:atox.obj
 0001:00076150       ?get@?$c_string_character_source@_W@__crt_strtox@@QAE_WXZ 10077150 f i libucrtd:atox.obj
 0001:00076180       ?is_space@__crt_strtox@@YA_NDQAU__crt_locale_pointers@@@Z 10077180 f i libucrtd:atox.obj
 0001:000761c0       ?is_space@__crt_strtox@@YA_N_WPAU__crt_locale_pointers@@@Z 100771c0 f i libucrtd:atox.obj
 0001:000761f0       ?maximum_signed_value@__crt_strtox@@YAJK@Z 100771f0 f i libucrtd:atox.obj
 0001:00076200       ?maximum_signed_value@__crt_strtox@@YA_J_K@Z 10077200 f i libucrtd:atox.obj
 0001:00076210       ?minimum_signed_value@__crt_strtox@@YAJK@Z 10077210 f i libucrtd:atox.obj
 0001:00076220       ?minimum_signed_value@__crt_strtox@@YA_J_K@Z 10077220 f i libucrtd:atox.obj
 0001:00076230       ?parse_digit@__crt_strtox@@YAID@Z 10077230 f i libucrtd:atox.obj
 0001:00076290       ?parse_digit@__crt_strtox@@YAI_W@Z 10077290 f i libucrtd:atox.obj
 0001:000762e0       ?restore_state@?$c_string_character_source@D@__crt_strtox@@QAE_NQBD@Z 100772e0 f i libucrtd:atox.obj
 0001:00076300       ?restore_state@?$c_string_character_source@_W@__crt_strtox@@QAE_NQB_W@Z 10077300 f i libucrtd:atox.obj
 0001:00076320       ?save_state@?$c_string_character_source@D@__crt_strtox@@QBEPBDXZ 10077320 f i libucrtd:atox.obj
 0001:00076340       ?save_state@?$c_string_character_source@_W@__crt_strtox@@QBEPB_WXZ 10077340 f i libucrtd:atox.obj
 0001:00076360       ?unget@?$c_string_character_source@D@__crt_strtox@@QAEXD@Z 10077360 f i libucrtd:atox.obj
 0001:00076410       ?unget@?$c_string_character_source@_W@__crt_strtox@@QAEX_W@Z 10077410 f i libucrtd:atox.obj
 0001:000764c0       ?validate@?$c_string_character_source@D@__crt_strtox@@QBE_NXZ 100774c0 f i libucrtd:atox.obj
 0001:00076550       ?validate@?$c_string_character_source@_W@__crt_strtox@@QBE_NXZ 10077550 f i libucrtd:atox.obj
 0001:000765e0       ?wide_character_to_digit@__crt_strtox@@YAH_W@Z 100775e0 f i libucrtd:atox.obj
 0001:00076910       ___ascii_iswalpha          10077910 f i libucrtd:atox.obj
 0001:00076950       ___ascii_toupper           10077950 f i libucrtd:atox.obj
 0001:00076970       ___ascii_towupper          10077970 f i libucrtd:atox.obj
 0001:00076990       __atoi64                   10077990 f   libucrtd:atox.obj
 0001:000769b0       __atoi64_l                 100779b0 f   libucrtd:atox.obj
 0001:000769d0       __atoi_l                   100779d0 f   libucrtd:atox.obj
 0001:000769f0       __atol_l                   100779f0 f   libucrtd:atox.obj
 0001:00076a10       __atoll_l                  10077a10 f   libucrtd:atox.obj
 0001:00076a30       __wtoi                     10077a30 f   libucrtd:atox.obj
 0001:00076a50       __wtoi64                   10077a50 f   libucrtd:atox.obj
 0001:00076a70       __wtoi64_l                 10077a70 f   libucrtd:atox.obj
 0001:00076a90       __wtoi_l                   10077a90 f   libucrtd:atox.obj
 0001:00076ab0       __wtol                     10077ab0 f   libucrtd:atox.obj
 0001:00076ad0       __wtol_l                   10077ad0 f   libucrtd:atox.obj
 0001:00076af0       __wtoll                    10077af0 f   libucrtd:atox.obj
 0001:00076b10       __wtoll_l                  10077b10 f   libucrtd:atox.obj
 0001:00076b30       _atoi                      10077b30 f   libucrtd:atox.obj
 0001:00076b50       _atol                      10077b50 f   libucrtd:atox.obj
 0001:00076b70       _atoll                     10077b70 f   libucrtd:atox.obj
 0001:00076b90       _strncmp                   10077b90 f   libucrtd:strncmp.obj
 0001:00076c10       _wcsncmp                   10077c10 f   libucrtd:wcsncmp.obj
 0001:00076c70       __CrtGetDebugFillThreshold 10077c70 f   libucrtd:debug_fill_threshold.obj
 0001:00076c80       __CrtSetDebugFillThreshold 10077c80 f   libucrtd:debug_fill_threshold.obj
 0001:00076ca0       ??$make_c_string_character_source@DPAPAD@__crt_strtox@@YA?AV?$c_string_character_source@D@0@QBDQAPAD@Z 10077ca0 f i libucrtd:strtox.obj
 0001:00076cc0       ??$make_c_string_character_source@_WPAPA_W@__crt_strtox@@YA?AV?$c_string_character_source@_W@0@QB_WQAPA_W@Z 10077cc0 f i libucrtd:strtox.obj
 0001:00076ce0       ??$parse_integer_from_string@JDPAPAD@__crt_strtox@@YAJQBDQAPADHQAU__crt_locale_pointers@@@Z 10077ce0 f i libucrtd:strtox.obj
 0001:00076d20       ??$parse_integer_from_string@J_WPAPA_W@__crt_strtox@@YAJQB_WQAPA_WHQAU__crt_locale_pointers@@@Z 10077d20 f i libucrtd:strtox.obj
 0001:00076d60       ??$parse_integer_from_string@KDPAPAD@__crt_strtox@@YAKQBDQAPADHQAU__crt_locale_pointers@@@Z 10077d60 f i libucrtd:strtox.obj
 0001:00076da0       ??$parse_integer_from_string@K_WPAPA_W@__crt_strtox@@YAKQB_WQAPA_WHQAU__crt_locale_pointers@@@Z 10077da0 f i libucrtd:strtox.obj
 0001:00076de0       ??$parse_integer_from_string@_JDPAPAD@__crt_strtox@@YA_JQBDQAPADHQAU__crt_locale_pointers@@@Z 10077de0 f i libucrtd:strtox.obj
 0001:00076e20       ??$parse_integer_from_string@_J_WPAPA_W@__crt_strtox@@YA_JQB_WQAPA_WHQAU__crt_locale_pointers@@@Z 10077e20 f i libucrtd:strtox.obj
 0001:00076e60       ??$parse_integer_from_string@_KDPAPAD@__crt_strtox@@YA_KQBDQAPADHQAU__crt_locale_pointers@@@Z 10077e60 f i libucrtd:strtox.obj
 0001:00076ea0       ??$parse_integer_from_string@_K_WPAPA_W@__crt_strtox@@YA_KQB_WQAPA_WHQAU__crt_locale_pointers@@@Z 10077ea0 f i libucrtd:strtox.obj
 0001:00076ee0       __strtoi64                 10077ee0 f   libucrtd:strtox.obj
 0001:00076f00       __strtoi64_l               10077f00 f   libucrtd:strtox.obj
 0001:00076f20       __strtoimax_l              10077f20 f   libucrtd:strtox.obj
 0001:00076f40       __strtol_l                 10077f40 f   libucrtd:strtox.obj
 0001:00076f60       __strtoll_l                10077f60 f   libucrtd:strtox.obj
 0001:00076f80       __strtoui64                10077f80 f   libucrtd:strtox.obj
 0001:00076fa0       __strtoui64_l              10077fa0 f   libucrtd:strtox.obj
 0001:00076fc0       __strtoul_l                10077fc0 f   libucrtd:strtox.obj
 0001:00076fe0       __strtoull_l               10077fe0 f   libucrtd:strtox.obj
 0001:00077000       __strtoumax_l              10078000 f   libucrtd:strtox.obj
 0001:00077020       __wcstoi64                 10078020 f   libucrtd:strtox.obj
 0001:00077040       __wcstoi64_l               10078040 f   libucrtd:strtox.obj
 0001:00077060       __wcstoimax_l              10078060 f   libucrtd:strtox.obj
 0001:00077080       __wcstol_l                 10078080 f   libucrtd:strtox.obj
 0001:000770a0       __wcstoll_l                100780a0 f   libucrtd:strtox.obj
 0001:000770c0       __wcstoui64                100780c0 f   libucrtd:strtox.obj
 0001:000770e0       __wcstoui64_l              100780e0 f   libucrtd:strtox.obj
 0001:00077100       __wcstoul_l                10078100 f   libucrtd:strtox.obj
 0001:00077120       __wcstoull_l               10078120 f   libucrtd:strtox.obj
 0001:00077140       __wcstoumax_l              10078140 f   libucrtd:strtox.obj
 0001:00077160       _strtoimax                 10078160 f   libucrtd:strtox.obj
 0001:00077180       _strtol                    10078180 f   libucrtd:strtox.obj
 0001:000771a0       _strtoll                   100781a0 f   libucrtd:strtox.obj
 0001:000771c0       _strtoul                   100781c0 f   libucrtd:strtox.obj
 0001:000771e0       _strtoull                  100781e0 f   libucrtd:strtox.obj
 0001:00077200       _strtoumax                 10078200 f   libucrtd:strtox.obj
 0001:00077220       _wcstoimax                 10078220 f   libucrtd:strtox.obj
 0001:00077240       _wcstol                    10078240 f   libucrtd:strtox.obj
 0001:00077260       _wcstoll                   10078260 f   libucrtd:strtox.obj
 0001:00077280       _wcstoul                   10078280 f   libucrtd:strtox.obj
 0001:000772a0       _wcstoull                  100782a0 f   libucrtd:strtox.obj
 0001:000772c0       _wcstoumax                 100782c0 f   libucrtd:strtox.obj
 0001:000772e0       __mbtowc_l                 100782e0 f   libucrtd:mbtowc.obj
 0001:00077600       _mbtowc                    10078600 f   libucrtd:mbtowc.obj
 0001:00077620       __wctomb_l                 10078620 f   libucrtd:wctomb.obj
 0001:000776a0       __wctomb_s_l               100786a0 f   libucrtd:wctomb.obj
 0001:00077a60       _wctomb                    10078a60 f   libucrtd:wctomb.obj
 0001:00077ab0       _wctomb_s                  10078ab0 f   libucrtd:wctomb.obj
 0001:00077ae0       ??$?RU__acrt_ptd@@@__crt_internal_free_policy@@QBEXQBU__acrt_ptd@@@Z 10078ae0 f i libucrtd:per_thread_data.obj
 0001:00077f90       ??0?$__crt_unique_heap_ptr@U__acrt_ptd@@U__crt_internal_free_policy@@@@QAE@QAU__acrt_ptd@@@Z 10078f90 f i libucrtd:per_thread_data.obj
 0001:00077fb0       ??0__crt_scoped_get_last_error_reset@@QAE@XZ 10078fb0 f i libucrtd:per_thread_data.obj
 0001:00077fd0       ??1?$__crt_unique_heap_ptr@U__acrt_ptd@@U__crt_internal_free_policy@@@@QAE@XZ 10078fd0 f i libucrtd:per_thread_data.obj
 0001:00077ff0       ??1__crt_scoped_get_last_error_reset@@QAE@XZ 10078ff0 f i libucrtd:per_thread_data.obj
 0001:00078010       ??B?$__crt_unique_heap_ptr@U__acrt_ptd@@U__crt_internal_free_policy@@@@QBE_NXZ 10079010 f i libucrtd:per_thread_data.obj
 0001:000782f0       ?dangerous_get_state_array@?$dual_state_global@PAU__crt_locale_data@@@__crt_state_management@@QAEPAPAU__crt_locale_data@@XZ 100792f0 f i libucrtd:per_thread_data.obj
 0001:00078470       ?detach@?$__crt_unique_heap_ptr@U__acrt_ptd@@U__crt_internal_free_policy@@@@QAEPAU__acrt_ptd@@XZ 10079470 f i libucrtd:per_thread_data.obj
 0001:000784a0       ?get@?$__crt_unique_heap_ptr@U__acrt_ptd@@U__crt_internal_free_policy@@@@QBEPAU__acrt_ptd@@XZ 100794a0 f i libucrtd:per_thread_data.obj
 0001:000784c0       ?get_current_state_index@__crt_state_management@@YAIABV__crt_scoped_get_last_error_reset@@@Z 100794c0 f i libucrtd:per_thread_data.obj
 0001:00078630       ?is_valid@?$__crt_unique_heap_ptr@U__acrt_ptd@@U__crt_internal_free_policy@@@@QBE_NXZ 10079630 f i libucrtd:per_thread_data.obj
 0001:00078660       ?release@?$__crt_unique_heap_ptr@U__acrt_ptd@@U__crt_internal_free_policy@@@@QAEXXZ 10079660 f i libucrtd:per_thread_data.obj
 0001:00078750       ?value@?$dual_state_global@PAU__crt_locale_data@@@__crt_state_management@@QAEAAPAU__crt_locale_data@@XZ 10079750 f i libucrtd:per_thread_data.obj
 0001:00078770       ___acrt_freeptd            10079770 f   libucrtd:per_thread_data.obj
 0001:000787a0       ___acrt_getptd             100797a0 f   libucrtd:per_thread_data.obj
 0001:000787c0       ___acrt_getptd_head        100797c0 f   libucrtd:per_thread_data.obj
 0001:000787e0       ___acrt_getptd_noexit      100797e0 f   libucrtd:per_thread_data.obj
 0001:000787f0       ___acrt_initialize_ptd     100797f0 f   libucrtd:per_thread_data.obj
 0001:00078830       ___acrt_uninitialize_ptd   10079830 f   libucrtd:per_thread_data.obj
 0001:00078860       ___threadhandle            10079860 f   libucrtd:per_thread_data.obj
 0001:00078870       ___threadid                10079870 f   libucrtd:per_thread_data.obj
 0001:00078880       ?value@?$dual_state_global@PAU__crt_multibyte_data@@@__crt_state_management@@QAEAAPAU__crt_multibyte_data@@XZ 10079880 f i libucrtd:locale_update.obj
 0001:000788a0       ___acrt_should_sync_with_global_locale 100798a0 f i libucrtd:locale_update.obj
 0001:000788d0       ___acrt_update_locale_info 100798d0 f   libucrtd:locale_update.obj
 0001:00078910       ___acrt_update_multibyte_info 10079910 f   libucrtd:locale_update.obj
 0001:00078950       ?__acrt_fp_classify@@YA?AW4__acrt_fp_class@@ABN@Z 10079950 f i libucrtd:cvt.obj
 0001:00078a70       ?__acrt_fp_is_negative@@YA_NABN@Z 10079a70 f i libucrtd:cvt.obj
 0001:00079d60       ?strrchr@@YAPADQADH@Z      1007ad60 f i libucrtd:cvt.obj
 0001:00079d80       ___acrt_fp_format          1007ad80 f   libucrtd:cvt.obj
 0001:0007a240       __fputwc_nolock            1007b240 f   libucrtd:fputwc.obj
 0001:0007a430       __fputwchar                1007b430 f   libucrtd:fputwc.obj
 0001:0007a450       __putwc_nolock             1007b450 f   libucrtd:fputwc.obj
 0001:0007a470       _fputwc                    1007b470 f   libucrtd:fputwc.obj
 0001:0007a580       _putwc                     1007b580 f   libucrtd:fputwc.obj
 0001:0007a5a0       _putwchar                  1007b5a0 f   libucrtd:fputwc.obj
 0001:0007a5c0       ?lowio_handle@__crt_stdio_stream@@QBEHXZ 1007b5c0 f i libucrtd:fileno.obj
 0001:0007a5e0       __fileno                   1007b5e0 f   libucrtd:fileno.obj
 0001:0007a680       ??$?RPAU__crt_stdio_stream_data@@@__crt_internal_free_policy@@QBEXQBQAU__crt_stdio_stream_data@@@Z 1007b680 f i libucrtd:_file.obj
 0001:0007a6a0       ??0?$__crt_unique_heap_ptr@PAU__crt_stdio_stream_data@@U__crt_internal_free_policy@@@@QAE@QAPAU__crt_stdio_stream_data@@@Z 1007b6a0 f i libucrtd:_file.obj
 0001:0007a6c0       ??1?$__crt_unique_heap_ptr@PAU__crt_stdio_stream_data@@U__crt_internal_free_policy@@@@QAE@XZ 1007b6c0 f i libucrtd:_file.obj
 0001:0007a6e0       ?detach@?$__crt_unique_heap_ptr@PAU__crt_stdio_stream_data@@U__crt_internal_free_policy@@@@QAEPAPAU__crt_stdio_stream_data@@XZ 1007b6e0 f i libucrtd:_file.obj
 0001:0007a710       ?release@?$__crt_unique_heap_ptr@PAU__crt_stdio_stream_data@@U__crt_internal_free_policy@@@@QAEXXZ 1007b710 f i libucrtd:_file.obj
 0001:0007a740       ___acrt_initialize_stdio   1007b740 f   libucrtd:_file.obj
 0001:0007a8b0       ___acrt_iob_func           1007b8b0 f   libucrtd:_file.obj
 0001:0007a8c0       ___acrt_uninitialize_stdio 1007b8c0 f   libucrtd:_file.obj
 0001:0007a940       __get_stream_buffer_pointers 1007b940 f   libucrtd:_file.obj
 0001:0007aa20       __lock_file                1007ba20 f   libucrtd:_file.obj
 0001:0007aa50       __unlock_file              1007ba50 f   libucrtd:_file.obj
 0001:0007aa80       __get_printf_count_output  1007ba80 f   libucrtd:printf_count_output.obj
 0001:0007aab0       __set_printf_count_output  1007bab0 f   libucrtd:printf_count_output.obj
 0001:0007ab10       ?has_any_buffer@__crt_stdio_stream@@QBE_NXZ 1007bb10 f i libucrtd:_sftbuf.obj
 0001:0007ab30       ?has_any_of@__crt_stdio_stream@@QBE_NJ@Z 1007bb30 f i libucrtd:_sftbuf.obj
 0001:0007ab70       ?has_temporary_buffer@__crt_stdio_stream@@QBE_NXZ 1007bb70 f i libucrtd:_sftbuf.obj
 0001:0007ab90       ?set_flags@__crt_stdio_stream@@QBE_NJ@Z 1007bb90 f i libucrtd:_sftbuf.obj
 0001:0007abe0       ?unset_flags@__crt_stdio_stream@@QBE_NJ@Z 1007bbe0 f i libucrtd:_sftbuf.obj
 0001:0007ac30       ___acrt_should_use_temporary_buffer 1007bc30 f   libucrtd:_sftbuf.obj
 0001:0007ac80       ___acrt_stdio_begin_temporary_buffering_nolock 1007bc80 f   libucrtd:_sftbuf.obj
 0001:0007ae30       ___acrt_stdio_end_temporary_buffering_nolock 1007be30 f   libucrtd:_sftbuf.obj
 0001:0007aec0       ??$?RU__crt_locale_data@@@__crt_internal_free_policy@@QBEXQBU__crt_locale_data@@@Z 1007bec0 f i libucrtd:wsetlocale.obj
 0001:0007aee0       ??$?RU__crt_locale_pointers@@@__crt_internal_free_policy@@QBEXQBU__crt_locale_pointers@@@Z 1007bee0 f i libucrtd:wsetlocale.obj
 0001:0007af00       ??$?RU__crt_multibyte_data@@@__crt_internal_free_policy@@QBEXQBU__crt_multibyte_data@@@Z 1007bf00 f i libucrtd:wsetlocale.obj
 0001:0007b4f0       ??0?$__crt_unique_heap_ptr@U__crt_locale_data@@U__crt_internal_free_policy@@@@QAE@QAU__crt_locale_data@@@Z 1007c4f0 f i libucrtd:wsetlocale.obj
 0001:0007b510       ??0?$__crt_unique_heap_ptr@U__crt_locale_pointers@@U__crt_internal_free_policy@@@@QAE@QAU__crt_locale_pointers@@@Z 1007c510 f i libucrtd:wsetlocale.obj
 0001:0007b530       ??0?$__crt_unique_heap_ptr@U__crt_multibyte_data@@U__crt_internal_free_policy@@@@QAE@QAU__crt_multibyte_data@@@Z 1007c530 f i libucrtd:wsetlocale.obj
 0001:0007b550       ??0_expandlocale_locale_name_cache@@QAE@QA_WIQAU__crt_qualified_locale_data@@@Z 1007c550 f i libucrtd:wsetlocale.obj
 0001:0007b5c0       ??1?$__crt_unique_heap_ptr@U__crt_locale_data@@U__crt_internal_free_policy@@@@QAE@XZ 1007c5c0 f i libucrtd:wsetlocale.obj
 0001:0007b5e0       ??1?$__crt_unique_heap_ptr@U__crt_locale_pointers@@U__crt_internal_free_policy@@@@QAE@XZ 1007c5e0 f i libucrtd:wsetlocale.obj
 0001:0007b600       ??1?$__crt_unique_heap_ptr@U__crt_multibyte_data@@U__crt_internal_free_policy@@@@QAE@XZ 1007c600 f i libucrtd:wsetlocale.obj
 0001:0007b620       ??1_expandlocale_locale_name_cache@@QAE@XZ 1007c620 f i libucrtd:wsetlocale.obj
 0001:0007b680       ??B?$__crt_unique_heap_ptr@U__crt_locale_data@@U__crt_internal_free_policy@@@@QBE_NXZ 1007c680 f i libucrtd:wsetlocale.obj
 0001:0007b6a0       ??B?$__crt_unique_heap_ptr@U__crt_locale_pointers@@U__crt_internal_free_policy@@@@QBE_NXZ 1007c6a0 f i libucrtd:wsetlocale.obj
 0001:0007b6c0       ??B?$__crt_unique_heap_ptr@U__crt_multibyte_data@@U__crt_internal_free_policy@@@@QBE_NXZ 1007c6c0 f i libucrtd:wsetlocale.obj
 0001:0007baa0       ?commit_locale_name@_expandlocale_locale_name_cache@@QAEXQB_WI@Z 1007caa0 f i libucrtd:wsetlocale.obj
 0001:0007bb00       ?commit_locale_name_cache_already_updated@_expandlocale_locale_name_cache@@QAEXQB_WI@Z 1007cb00 f i libucrtd:wsetlocale.obj
 0001:0007bb60       ?detach@?$__crt_unique_heap_ptr@U__crt_locale_data@@U__crt_internal_free_policy@@@@QAEPAU__crt_locale_data@@XZ 1007cb60 f i libucrtd:wsetlocale.obj
 0001:0007bb90       ?detach@?$__crt_unique_heap_ptr@U__crt_locale_pointers@@U__crt_internal_free_policy@@@@QAEPAU__crt_locale_pointers@@XZ 1007cb90 f i libucrtd:wsetlocale.obj
 0001:0007bbc0       ?detach@?$__crt_unique_heap_ptr@U__crt_multibyte_data@@U__crt_internal_free_policy@@@@QAEPAU__crt_multibyte_data@@XZ 1007cbc0 f i libucrtd:wsetlocale.obj
 0001:0007bbf0       ?get@?$__crt_unique_heap_ptr@U__crt_locale_data@@U__crt_internal_free_policy@@@@QBEPAU__crt_locale_data@@XZ 1007cbf0 f i libucrtd:wsetlocale.obj
 0001:0007bc10       ?get@?$__crt_unique_heap_ptr@U__crt_locale_pointers@@U__crt_internal_free_policy@@@@QBEPAU__crt_locale_pointers@@XZ 1007cc10 f i libucrtd:wsetlocale.obj
 0001:0007bc30       ?get@?$__crt_unique_heap_ptr@U__crt_multibyte_data@@U__crt_internal_free_policy@@@@QBEPAU__crt_multibyte_data@@XZ 1007cc30 f i libucrtd:wsetlocale.obj
 0001:0007bc50       ?is_valid@?$__crt_unique_heap_ptr@U__crt_locale_data@@U__crt_internal_free_policy@@@@QBE_NXZ 1007cc50 f i libucrtd:wsetlocale.obj
 0001:0007bc80       ?is_valid@?$__crt_unique_heap_ptr@U__crt_locale_pointers@@U__crt_internal_free_policy@@@@QBE_NXZ 1007cc80 f i libucrtd:wsetlocale.obj
 0001:0007bcb0       ?is_valid@?$__crt_unique_heap_ptr@U__crt_multibyte_data@@U__crt_internal_free_policy@@@@QBE_NXZ 1007ccb0 f i libucrtd:wsetlocale.obj
 0001:0007bce0       ?release@?$__crt_unique_heap_ptr@U__crt_locale_data@@U__crt_internal_free_policy@@@@QAEXXZ 1007cce0 f i libucrtd:wsetlocale.obj
 0001:0007bd10       ?release@?$__crt_unique_heap_ptr@U__crt_locale_pointers@@U__crt_internal_free_policy@@@@QAEXXZ 1007cd10 f i libucrtd:wsetlocale.obj
 0001:0007bd40       ?release@?$__crt_unique_heap_ptr@U__crt_multibyte_data@@U__crt_internal_free_policy@@@@QAEXXZ 1007cd40 f i libucrtd:wsetlocale.obj
 0001:0007bd70       ___acrt_copy_locale_name   1007cd70 f   libucrtd:wsetlocale.obj
 0001:0007be10       ___acrt_set_locale_changed 1007ce10 f   libucrtd:wsetlocale.obj
 0001:0007be30       ___acrt_uninitialize_locale 1007ce30 f   libucrtd:wsetlocale.obj
 0001:0007be50       ___ascii_tolower           1007ce50 f i libucrtd:wsetlocale.obj
 0001:0007be70       ___ascii_towlower          1007ce70 f i libucrtd:wsetlocale.obj
 0001:0007be90       ___lc_lctowcs              1007ce90 f   libucrtd:wsetlocale.obj
 0001:0007bf40       ___lc_wcstolc              1007cf40 f   libucrtd:wsetlocale.obj
 0001:0007c170       __configthreadlocale       1007d170 f   libucrtd:wsetlocale.obj
 0001:0007c2f0       __create_locale            1007d2f0 f   libucrtd:wsetlocale.obj
 0001:0007c930       __free_locale              1007d930 f   libucrtd:wsetlocale.obj
 0001:0007ca60       __get_current_locale       1007da60 f   libucrtd:wsetlocale.obj
 0001:0007cb30       __wcreate_locale           1007db30 f   libucrtd:wsetlocale.obj
 0001:0007cd70       __wcscats                  1007dd70 f   libucrtd:wsetlocale.obj
 0001:0007cdf0       __wsetlocale               1007ddf0 f   libucrtd:wsetlocale.obj
 0001:0007e4e0       ___p___mb_cur_max          1007f4e0 f   libucrtd:nlsdata.obj
 0001:0007e7e0       ___acrt_initialize_lowio   1007f7e0 f   libucrtd:ioinit.obj
 0001:0007e880       ___acrt_uninitialize_lowio 1007f880 f   libucrtd:ioinit.obj
 0001:0007e8e0       __CrtGetReportHook         1007f8e0 f   libucrtd:dbgrptt.obj
 0001:0007e8f0       __CrtSetReportFile         1007f8f0 f   libucrtd:dbgrptt.obj
 0001:0007e9f0       __CrtSetReportHook         1007f9f0 f   libucrtd:dbgrptt.obj
 0001:0007ea10       __CrtSetReportMode         1007fa10 f   libucrtd:dbgrptt.obj
 0001:0007eb50       __VCrtDbgReportA           1007fb50 f   libucrtd:dbgrptt.obj
 0001:0007f3d0       __VCrtDbgReportW           100803d0 f   libucrtd:dbgrptt.obj
 0001:0007fd80       __snprintf_s               10080d80 f i libucrtd:dbgrptt.obj
 0001:0007fdc0       __vsnprintf_s              10080dc0 f i libucrtd:dbgrptt.obj
 0001:0007fdf0       __vsnprintf_s_l            10080df0 f i libucrtd:dbgrptt.obj
 0001:0007ff80       ??$__acrt_wcs_to_mbs_cp@U__crt_win32_buffer_no_resizing@@@@YAHQB_WAAV?$__crt_win32_buffer@DU__crt_win32_buffer_no_resizing@@@@I@Z 10080f80 f i libucrtd:getmodulefilenamea.obj
 0001:0007ffb0       ??0?$__crt_win32_buffer@DU__crt_win32_buffer_no_resizing@@@@QAE@QADI@Z 10080fb0 f i libucrtd:getmodulefilenamea.obj
 0001:00080000       ??1?$__crt_win32_buffer@DU__crt_win32_buffer_no_resizing@@@@QAE@XZ 10081000 f i libucrtd:getmodulefilenamea.obj
 0001:00080070       ?__acrt_get_utf8_acp_compatibility_codepage@@YAIXZ 10081070 f i libucrtd:getmodulefilenamea.obj
 0001:00080100       ?_deallocate@?$__crt_win32_buffer@DU__crt_win32_buffer_no_resizing@@@@AAEXXZ 10081100 f i libucrtd:getmodulefilenamea.obj
 0001:00080140       ?allocate@?$__crt_win32_buffer@DU__crt_win32_buffer_no_resizing@@@@QAEHI@Z 10081140 f i libucrtd:getmodulefilenamea.obj
 0001:000801b0       ?allocate@__crt_win32_buffer_no_resizing@@SAHQAPAXIABV__crt_win32_buffer_empty_debug_info@@@Z 100811b0 f i libucrtd:getmodulefilenamea.obj
 0001:000801d0       ?capacity@?$__crt_win32_buffer@DU__crt_win32_buffer_no_resizing@@@@QBEIXZ 100811d0 f i libucrtd:getmodulefilenamea.obj
 0001:000801f0       ?data@?$__crt_win32_buffer@DU__crt_win32_buffer_no_resizing@@@@QAEPADXZ 100811f0 f i libucrtd:getmodulefilenamea.obj
 0001:00080210       ?deallocate@__crt_win32_buffer_no_resizing@@SAXQAXABV__crt_win32_buffer_empty_debug_info@@@Z 10081210 f i libucrtd:getmodulefilenamea.obj
 0001:00080220       ?debug_info@?$__crt_win32_buffer@DU__crt_win32_buffer_no_resizing@@@@QBEABV__crt_win32_buffer_empty_debug_info@@XZ 10081220 f i libucrtd:getmodulefilenamea.obj
 0001:00080230       ?set_to_nullptr@?$__crt_win32_buffer@DU__crt_win32_buffer_no_resizing@@@@QAEXXZ 10081230 f i libucrtd:getmodulefilenamea.obj
 0001:00080270       ?size@?$__crt_win32_buffer@DU__crt_win32_buffer_no_resizing@@@@QAEXI@Z 10081270 f i libucrtd:getmodulefilenamea.obj
 0001:00080290       ?size@?$__crt_win32_buffer@DU__crt_win32_buffer_no_resizing@@@@QBEIXZ 10081290 f i libucrtd:getmodulefilenamea.obj
 0001:000802b0       ___acrt_GetModuleFileNameA 100812b0 f   libucrtd:getmodulefilenamea.obj
 0001:00080590       ??$message_box@$$TABQBDABQBDK@?$__crt_char_traits@D@@SAH$$QA$$TABQBD1$$QAK@Z 10081590 f i libucrtd:crtmbox.obj
 0001:000805c0       ??$message_box@$$TABQB_WABQB_WK@?$__crt_char_traits@_W@@SAH$$QA$$TABQB_W1$$QAK@Z 100815c0 f i libucrtd:crtmbox.obj
 0001:000805f0       ??$message_box@PAUHWND__@@ABQBDABQBDABI@?$__crt_char_traits@D@@SAH$$QAPAUHWND__@@ABQBD1ABI@Z 100815f0 f i libucrtd:crtmbox.obj
 0001:00080620       ??$message_box@PAUHWND__@@ABQB_WABQB_WABI@?$__crt_char_traits@_W@@SAH$$QAPAUHWND__@@ABQB_W1ABI@Z 10081620 f i libucrtd:crtmbox.obj
 0001:00080650       ??$output_debug_string@ABQBD@?$__crt_char_traits@D@@SAXABQBD@Z 10081650 f i libucrtd:crtmbox.obj
 0001:00080670       ??$output_debug_string@ABQB_W@?$__crt_char_traits@_W@@SAXABQB_W@Z 10081670 f i libucrtd:crtmbox.obj
 0001:00080690       ___acrt_show_narrow_message_box 10081690 f   libucrtd:crtmbox.obj
 0001:000806b0       ___acrt_show_wide_message_box 100816b0 f   libucrtd:crtmbox.obj
 0001:000806d0       ___acrt_initialize_locks   100816d0 f   libucrtd:locks.obj
 0001:00080730       ___acrt_lock               10081730 f   libucrtd:locks.obj
 0001:00080750       ___acrt_uninitialize_locks 10081750 f   libucrtd:locks.obj
 0001:000807a0       ___acrt_unlock             100817a0 f   libucrtd:locks.obj
 0001:000807c0       __lock_locales             100817c0 f   libucrtd:locks.obj
 0001:000807e0       __unlock_locales           100817e0 f   libucrtd:locks.obj
 0001:00080800       ??$?B$$A6AXH@Z@__crt_fast_encoded_nullptr_t@@QBEP6AXH@ZXZ 10081800 f i libucrtd:signal.obj
 0001:000808f0       ??$__crt_fast_decode_pointer@P6AXH@Z@@YAP6AXH@ZQ6AXH@Z@Z 100818f0 f i libucrtd:signal.obj
 0001:00080920       ??$__crt_fast_encode_pointer@P6AXH@Z@@YAP6AXH@ZQ6AXH@Z@Z 10081920 f i libucrtd:signal.obj
 0001:00080bd0       ?initialize@?$dual_state_global@P6AXH@Z@__crt_state_management@@QAEXQ6AXH@Z@Z 10081bd0 f i libucrtd:signal.obj
 0001:00080d10       ?value@?$dual_state_global@P6AXH@Z@__crt_state_management@@QAEAAP6AXH@ZXZ 10081d10 f i libucrtd:signal.obj
 0001:00080d30       ___acrt_get_sigabrt_handler 10081d30 f   libucrtd:signal.obj
 0001:00080d50       ___acrt_initialize_signal_handlers 10081d50 f   libucrtd:signal.obj
 0001:00080d90       ___fpecode                 10081d90 f   libucrtd:signal.obj
 0001:00080da0       ___pxcptinfoptrs           10081da0 f   libucrtd:signal.obj
 0001:00080db0       _raise                     10081db0 f   libucrtd:signal.obj
 0001:00081180       _signal                    10082180 f   libucrtd:signal.obj
 0001:00081400       __msize                    10082400 f   libucrtd:msize.obj
 0001:00081420       __msize_base               10082420 f   libucrtd:msize.obj
 0001:000814c0       __realloc_base             100824c0 f   libucrtd:realloc_base.obj
 0001:00081580       ??$?B$$A6GHPA_WKJ@Z@__crt_fast_encoded_nullptr_t@@QBEP6GHPA_WKJ@ZXZ 10082580 f i libucrtd:winapi_thunks.obj
 0001:00081670       ??$__crt_fast_decode_pointer@P6GHPA_WKJ@Z@@YAP6GHPA_WKJ@ZQ6GH0KJ@Z@Z 10082670 f i libucrtd:winapi_thunks.obj
 0001:000816a0       ??$__crt_fast_decode_pointer@PAX@@YAPAXQAX@Z 100826a0 f i libucrtd:winapi_thunks.obj
 0001:000816d0       ??$__crt_fast_encode_pointer@P6GHPA_WKJ@Z@@YAP6GHPA_WKJ@ZQ6GH0KJ@Z@Z 100826d0 f i libucrtd:winapi_thunks.obj
 0001:00082030       _GetCurrentThreadEffectiveToken 10083030 f i libucrtd:winapi_thunks.obj
 0001:00082040       ___acrt_AppPolicyGetProcessTerminationMethodInternal@4 10083040 f   libucrtd:winapi_thunks.obj
 0001:00082080       ___acrt_AppPolicyGetShowDeveloperDiagnosticInternal@4 10083080 f   libucrtd:winapi_thunks.obj
 0001:000820c0       ___acrt_AppPolicyGetThreadInitializationTypeInternal@4 100830c0 f   libucrtd:winapi_thunks.obj
 0001:00082100       ___acrt_AppPolicyGetWindowingModelInternal@4 10083100 f   libucrtd:winapi_thunks.obj
 0001:00082140       ___acrt_AreFileApisANSI@0  10083140 f   libucrtd:winapi_thunks.obj
 0001:00082180       ___acrt_CompareStringEx@36 10083180 f   libucrtd:winapi_thunks.obj
 0001:00082200       ___acrt_EnumSystemLocalesEx@16 10083200 f   libucrtd:winapi_thunks.obj
 0001:00082260       ___acrt_FlsAlloc@4         10083260 f   libucrtd:winapi_thunks.obj
 0001:000822a0       ___acrt_FlsFree@4          100832a0 f   libucrtd:winapi_thunks.obj
 0001:000822e0       ___acrt_FlsGetValue@4      100832e0 f   libucrtd:winapi_thunks.obj
 0001:00082320       ___acrt_FlsSetValue@8      10083320 f   libucrtd:winapi_thunks.obj
 0001:00082370       ___acrt_GetDateFormatEx@28 10083370 f   libucrtd:winapi_thunks.obj
 0001:000823f0       ___acrt_GetEnabledXStateFeatures@0 100833f0 f   libucrtd:winapi_thunks.obj
 0001:00082430       ___acrt_GetLocaleInfoEx@16 10083430 f   libucrtd:winapi_thunks.obj
 0001:00082490       ___acrt_GetSystemTimePreciseAsFileTime@4 10083490 f   libucrtd:winapi_thunks.obj
 0001:000824d0       ___acrt_GetTimeFormatEx@24 100834d0 f   libucrtd:winapi_thunks.obj
 0001:00082540       ___acrt_GetUserDefaultLocaleName@8 10083540 f   libucrtd:winapi_thunks.obj
 0001:00082590       ___acrt_GetXStateFeaturesMask@8 10083590 f   libucrtd:winapi_thunks.obj
 0001:000825d0       ___acrt_InitializeCriticalSectionEx@12 100835d0 f   libucrtd:winapi_thunks.obj
 0001:00082620       ___acrt_IsValidLocaleName@4 10083620 f   libucrtd:winapi_thunks.obj
 0001:00082670       ___acrt_LCIDToLocaleName@16 10083670 f   libucrtd:winapi_thunks.obj
 0001:000826d0       ___acrt_LCMapStringEx@36   100836d0 f   libucrtd:winapi_thunks.obj
 0001:00082750       ___acrt_LocaleNameToLCID@8 10083750 f   libucrtd:winapi_thunks.obj
 0001:000827a0       ___acrt_LocateXStateFeature@12 100837a0 f   libucrtd:winapi_thunks.obj
 0001:000827f0       ___acrt_MessageBoxA@16     100837f0 f   libucrtd:winapi_thunks.obj
 0001:00082840       ___acrt_MessageBoxW@16     10083840 f   libucrtd:winapi_thunks.obj
 0001:00082890       ___acrt_RoInitialize@4     10083890 f   libucrtd:winapi_thunks.obj
 0001:000828d0       ___acrt_RoUninitialize@0   100838d0 f   libucrtd:winapi_thunks.obj
 0001:00082900       ___acrt_RtlGenRandom@8     10083900 f   libucrtd:winapi_thunks.obj
 0001:00082940       ___acrt_SetThreadStackGuarantee@4 10083940 f   libucrtd:winapi_thunks.obj
 0001:00082980       ___acrt_can_show_message_box 10083980 f   libucrtd:winapi_thunks.obj
 0001:000829c0       ___acrt_can_use_vista_locale_apis 100839c0 f   libucrtd:winapi_thunks.obj
 0001:000829f0       ___acrt_can_use_xstate_apis 100839f0 f   libucrtd:winapi_thunks.obj
 0001:00082a20       ___acrt_eagerly_load_locale_apis 10083a20 f   libucrtd:winapi_thunks.obj
 0001:00082a60       ___acrt_get_parent_window  10083a60 f   libucrtd:winapi_thunks.obj
 0001:00082ad0       ___acrt_initialize_winapi_thunks 10083ad0 f   libucrtd:winapi_thunks.obj
 0001:00082b40       ___acrt_is_interactive     10083b40 f   libucrtd:winapi_thunks.obj
 0001:00082bf0       ___acrt_uninitialize_winapi_thunks 10083bf0 f   libucrtd:winapi_thunks.obj
 0001:00082c60       __chvalidator              10083c60 f   libucrtd:isctype.obj
 0001:00082cb0       __chvalidator_l            10083cb0 f   libucrtd:isctype.obj
 0001:00082d30       __isctype                  10083d30 f   libucrtd:isctype.obj
 0001:00082d70       __isctype_l                10083d70 f   libucrtd:isctype.obj
 0001:00082ef0       __isleadbyte_fast_internal 10083ef0 f i libucrtd:isctype.obj
 0001:00082f10       ??$?RU__crt_stdio_stream_data@@@__crt_internal_free_policy@@QBEXQBU__crt_stdio_stream_data@@@Z 10083f10 f i libucrtd:stream.obj
 0001:00082f30       ??0?$__crt_unique_heap_ptr@U__crt_stdio_stream_data@@U__crt_internal_free_policy@@@@QAE@QAU__crt_stdio_stream_data@@@Z 10083f30 f i libucrtd:stream.obj
 0001:00082f50       ??0__crt_stdio_stream@@QAE@QAU__crt_stdio_stream_data@@@Z 10083f50 f i libucrtd:stream.obj
 0001:00082f70       ??0__crt_stdio_stream@@QAE@XZ 10083f70 f i libucrtd:stream.obj
 0001:00082f90       ??1?$__crt_unique_heap_ptr@U__crt_stdio_stream_data@@U__crt_internal_free_policy@@@@QAE@XZ 10083f90 f i libucrtd:stream.obj
 0001:00082fb0       ?__acrt_stdio_allocate_stream@@YA?AV__crt_stdio_stream@@XZ 10083fb0 f   libucrtd:stream.obj
 0001:000830a0       ?__acrt_stdio_free_stream@@YAXV__crt_stdio_stream@@@Z 100840a0 f   libucrtd:stream.obj
 0001:00083120       ?deallocate@__crt_stdio_stream@@QAEXXZ 10084120 f i libucrtd:stream.obj
 0001:00083140       ?detach@?$__crt_unique_heap_ptr@U__crt_stdio_stream_data@@U__crt_internal_free_policy@@@@QAEPAU__crt_stdio_stream_data@@XZ 10084140 f i libucrtd:stream.obj
 0001:000832b0       ?lock@__crt_stdio_stream@@QBEXXZ 100842b0 f i libucrtd:stream.obj
 0001:000832d0       ?release@?$__crt_unique_heap_ptr@U__crt_stdio_stream_data@@U__crt_internal_free_policy@@@@QAEXXZ 100842d0 f i libucrtd:stream.obj
 0001:00083300       ?try_allocate@__crt_stdio_stream@@QAE_NXZ 10084300 f i libucrtd:stream.obj
 0001:00083350       ??$__acrt_stdio_parse_mode@D@@YA?AU__acrt_stdio_stream_mode@@QBD@Z 10084350 f i libucrtd:openfile.obj
 0001:00083bc0       ??$__acrt_stdio_parse_mode@_W@@YA?AU__acrt_stdio_stream_mode@@QB_W@Z 10084bc0 f i libucrtd:openfile.obj
 0001:00084750       ??$tcsncmp@AAPBDAAY02$$CBDI@?$__crt_char_traits@D@@SAHAAPBDAAY02$$CBD$$QAI@Z 10085750 f i libucrtd:openfile.obj
 0001:00084770       ??$tcsncmp@AAPB_WAAY02$$CB_WI@?$__crt_char_traits@_W@@SAHAAPB_WAAY02$$CB_W$$QAI@Z 10085770 f i libucrtd:openfile.obj
 0001:00084790       ??$tcsnicmp@AAPBDAAY04$$CBDI@?$__crt_char_traits@D@@SAHAAPBDAAY04$$CBD$$QAI@Z 10085790 f i libucrtd:openfile.obj
 0001:000847b0       ??$tcsnicmp@AAPBDAAY06$$CBDI@?$__crt_char_traits@D@@SAHAAPBDAAY06$$CBD$$QAI@Z 100857b0 f i libucrtd:openfile.obj
 0001:000847d0       ??$tcsnicmp@AAPBDAAY07$$CBDI@?$__crt_char_traits@D@@SAHAAPBDAAY07$$CBD$$QAI@Z 100857d0 f i libucrtd:openfile.obj
 0001:000847f0       ??$tcsnicmp@AAPB_WAAY04$$CB_WI@?$__crt_char_traits@_W@@SAHAAPB_WAAY04$$CB_W$$QAI@Z 100857f0 f i libucrtd:openfile.obj
 0001:00084810       ??$tcsnicmp@AAPB_WAAY06$$CB_WI@?$__crt_char_traits@_W@@SAHAAPB_WAAY06$$CB_W$$QAI@Z 10085810 f i libucrtd:openfile.obj
 0001:00084830       ??$tcsnicmp@AAPB_WAAY07$$CB_WI@?$__crt_char_traits@_W@@SAHAAPB_WAAY07$$CB_W$$QAI@Z 10085830 f i libucrtd:openfile.obj
 0001:00084850       ??$tsopen_s@PAHABQBDABHABHH@?$__crt_char_traits@D@@SAH$$QAPAHABQBDABH2$$QAH@Z 10085850 f i libucrtd:openfile.obj
 0001:00084880       ??$tsopen_s@PAHABQB_WABHABHH@?$__crt_char_traits@_W@@SAH$$QAPAHABQB_WABH2$$QAH@Z 10085880 f i libucrtd:openfile.obj
 0001:000848b0       ?__acrt_stdio_parse_mode_D@@YA_NAAU__acrt_stdio_stream_mode@@@Z 100858b0 f i libucrtd:openfile.obj
 0001:000848e0       ?__acrt_stdio_parse_mode_N@@YA_NAAU__acrt_stdio_stream_mode@@@Z 100858e0 f i libucrtd:openfile.obj
 0001:00084900       ?__acrt_stdio_parse_mode_R@@YA_NAAU__acrt_stdio_stream_mode@@AA_N@Z 10085900 f i libucrtd:openfile.obj
 0001:00084930       ?__acrt_stdio_parse_mode_S@@YA_NAAU__acrt_stdio_stream_mode@@AA_N@Z 10085930 f i libucrtd:openfile.obj
 0001:00084960       ?__acrt_stdio_parse_mode_T@@YA_NAAU__acrt_stdio_stream_mode@@@Z 10085960 f i libucrtd:openfile.obj
 0001:00084990       ?__acrt_stdio_parse_mode_b@@YA_NAAU__acrt_stdio_stream_mode@@@Z 10085990 f i libucrtd:openfile.obj
 0001:000849c0       ?__acrt_stdio_parse_mode_c@@YA_NAAU__acrt_stdio_stream_mode@@AA_N@Z 100859c0 f i libucrtd:openfile.obj
 0001:000849f0       ?__acrt_stdio_parse_mode_n@@YA_NAAU__acrt_stdio_stream_mode@@AA_N@Z 100859f0 f i libucrtd:openfile.obj
 0001:00084a20       ?__acrt_stdio_parse_mode_plus@@YA_NAAU__acrt_stdio_stream_mode@@AA_N@Z 10085a20 f i libucrtd:openfile.obj
 0001:00084a90       ?__acrt_stdio_parse_mode_t@@YA_NAAU__acrt_stdio_stream_mode@@@Z 10085a90 f i libucrtd:openfile.obj
 0001:00084ac0       ?__acrt_stdio_parse_mode_x@@YA_NAAU__acrt_stdio_stream_mode@@@Z 10085ac0 f i libucrtd:openfile.obj
 0001:00084af0       __openfile                 10085af0 f   libucrtd:openfile.obj
 0001:00084b20       __wopenfile                10085b20 f   libucrtd:openfile.obj
 0001:00084e00       __close                    10085e00 f   libucrtd:close.obj
 0001:00084f80       __close_nolock             10085f80 f   libucrtd:close.obj
 0001:00084fe0       ?has_crt_buffer@__crt_stdio_stream@@QBE_NXZ 10085fe0 f i libucrtd:_freebuf.obj
 0001:00085000       ___acrt_stdio_free_buffer_nolock 10086000 f   libucrtd:_freebuf.obj
 0001:00085660       ?__acrt_stdio_reset_buffer@@YAXV__crt_stdio_stream@@@Z 10086660 f i libucrtd:fflush.obj
 0001:00085760       ?has_all_of@__crt_stdio_stream@@QBE_NJ@Z 10086760 f i libucrtd:fflush.obj
 0001:00085830       ___acrt_stdio_flush_nolock 10086830 f   libucrtd:fflush.obj
 0001:00085900       __fflush_nolock            10086900 f   libucrtd:fflush.obj
 0001:00085980       __flushall                 10086980 f   libucrtd:fflush.obj
 0001:000859a0       _fflush                    100869a0 f   libucrtd:fflush.obj
 0001:000860f0       ?has_big_buffer@__crt_stdio_stream@@QBE_NXZ 100870f0 f i libucrtd:_flsbuf.obj
 0001:000861f0       ___acrt_stdio_flush_and_write_narrow_nolock 100871f0 f   libucrtd:_flsbuf.obj
 0001:00086220       ___acrt_stdio_flush_and_write_wide_nolock 10087220 f   libucrtd:_flsbuf.obj
 0001:00086550       ___acrt_get_begin_thread_init_policy 10087550 f   libucrtd:win_policies.obj
 0001:00086570       ___acrt_get_developer_information_policy 10087570 f   libucrtd:win_policies.obj
 0001:00086590       ___acrt_get_process_end_policy 10087590 f   libucrtd:win_policies.obj
 0001:000865b0       ___acrt_get_windowing_model_policy 100875b0 f   libucrtd:win_policies.obj
 0001:00086880       ??$__acrt_mbs_to_wcs_cp@U__crt_win32_buffer_internal_dynamic_resizing@@@@YAHQBDAAV?$__crt_win32_buffer@_WU__crt_win32_buffer_internal_dynamic_resizing@@@@I@Z 10087880 f i libucrtd:argv_wildcards.obj
 0001:000868b0       ??$__acrt_wcs_to_mbs_cp@U__crt_win32_buffer_internal_dynamic_resizing@@@@YAHQB_WAAV?$__crt_win32_buffer@DU__crt_win32_buffer_internal_dynamic_resizing@@@@I@Z 100878b0 f i libucrtd:argv_wildcards.obj
 0001:00087800       ??$tcsncpy_s@AAPADIAAPADABI@?$__crt_char_traits@D@@SAHAAPAD$$QAI0ABI@Z 10088800 f i libucrtd:argv_wildcards.obj
 0001:00087830       ??$tcsncpy_s@AAPA_WIAAPA_WABI@?$__crt_char_traits@_W@@SAHAAPA_W$$QAI0ABI@Z 10088830 f i libucrtd:argv_wildcards.obj
 0001:00087860       ??$tcsncpy_s@PADABIABQBDABI@?$__crt_char_traits@D@@SAH$$QAPADABIABQBD1@Z 10088860 f i libucrtd:argv_wildcards.obj
 0001:00087890       ??$tcsncpy_s@PADIABQBDABI@?$__crt_char_traits@D@@SAH$$QAPAD$$QAIABQBDABI@Z 10088890 f i libucrtd:argv_wildcards.obj
 0001:000878c0       ??$tcsncpy_s@PA_WABIABQB_WABI@?$__crt_char_traits@_W@@SAH$$QAPA_WABIABQB_W1@Z 100888c0 f i libucrtd:argv_wildcards.obj
 0001:000878f0       ??$tcsncpy_s@PA_WIABQB_WABI@?$__crt_char_traits@_W@@SAH$$QAPA_W$$QAIABQB_WABI@Z 100888f0 f i libucrtd:argv_wildcards.obj
 0001:00087920       ??$tcspbrk@AAPADAAY02$$CBD@?$__crt_char_traits@D@@SAPADAAPADAAY02$$CBD@Z 10088920 f i libucrtd:argv_wildcards.obj
 0001:00087940       ??$tcspbrk@AAPA_WAAY02$$CB_W@?$__crt_char_traits@_W@@SAPA_WAAPA_WAAY02$$CB_W@Z 10088940 f i libucrtd:argv_wildcards.obj
 0001:00087960       ??0?$__crt_unique_handle_t@U__crt_findfile_traits@@@@QAE@QAX@Z 10088960 f i libucrtd:argv_wildcards.obj
 0001:00087980       ??0?$__crt_win32_buffer@DU__crt_win32_buffer_internal_dynamic_resizing@@@@QAE@XZ 10088980 f i libucrtd:argv_wildcards.obj
 0001:000879d0       ??0?$__crt_win32_buffer@_WU__crt_win32_buffer_internal_dynamic_resizing@@@@QAE@XZ 100889d0 f i libucrtd:argv_wildcards.obj
 0001:00087a80       ??1?$__crt_unique_handle_t@U__crt_findfile_traits@@@@QAE@XZ 10088a80 f i libucrtd:argv_wildcards.obj
 0001:00087aa0       ??1?$__crt_win32_buffer@DU__crt_win32_buffer_internal_dynamic_resizing@@@@QAE@XZ 10088aa0 f i libucrtd:argv_wildcards.obj
 0001:00087ae0       ??1?$__crt_win32_buffer@_WU__crt_win32_buffer_internal_dynamic_resizing@@@@QAE@XZ 10088ae0 f i libucrtd:argv_wildcards.obj
 0001:00087d40       ?_deallocate@?$__crt_win32_buffer@DU__crt_win32_buffer_internal_dynamic_resizing@@@@AAEXXZ 10088d40 f i libucrtd:argv_wildcards.obj
 0001:00087d80       ?_deallocate@?$__crt_win32_buffer@_WU__crt_win32_buffer_internal_dynamic_resizing@@@@AAEXXZ 10088d80 f i libucrtd:argv_wildcards.obj
 0001:00087dc0       ?allocate@?$__crt_win32_buffer@DU__crt_win32_buffer_internal_dynamic_resizing@@@@QAEHI@Z 10088dc0 f i libucrtd:argv_wildcards.obj
 0001:00087e30       ?allocate@?$__crt_win32_buffer@_WU__crt_win32_buffer_internal_dynamic_resizing@@@@QAEHI@Z 10088e30 f i libucrtd:argv_wildcards.obj
 0001:00087ea0       ?allocate@__crt_win32_buffer_internal_dynamic_resizing@@SAHQAPAXIABV__crt_win32_buffer_empty_debug_info@@@Z 10088ea0 f i libucrtd:argv_wildcards.obj
 0001:00087fe0       ?capacity@?$__crt_win32_buffer@DU__crt_win32_buffer_internal_dynamic_resizing@@@@QBEIXZ 10088fe0 f i libucrtd:argv_wildcards.obj
 0001:00088000       ?capacity@?$__crt_win32_buffer@_WU__crt_win32_buffer_internal_dynamic_resizing@@@@QBEIXZ 10089000 f i libucrtd:argv_wildcards.obj
 0001:00088020       ?close@?$__crt_unique_handle_t@U__crt_findfile_traits@@@@QAEXXZ 10089020 f i libucrtd:argv_wildcards.obj
 0001:00088060       ?close@__crt_findfile_traits@@SA_NPAX@Z 10089060 f i libucrtd:argv_wildcards.obj
 0001:00088090       ?data@?$__crt_win32_buffer@DU__crt_win32_buffer_internal_dynamic_resizing@@@@QAEPADXZ 10089090 f i libucrtd:argv_wildcards.obj
 0001:000880b0       ?data@?$__crt_win32_buffer@_WU__crt_win32_buffer_internal_dynamic_resizing@@@@QAEPA_WXZ 100890b0 f i libucrtd:argv_wildcards.obj
 0001:000880d0       ?deallocate@__crt_win32_buffer_internal_dynamic_resizing@@SAXQAXABV__crt_win32_buffer_empty_debug_info@@@Z 100890d0 f i libucrtd:argv_wildcards.obj
 0001:000880f0       ?debug_info@?$__crt_win32_buffer@DU__crt_win32_buffer_internal_dynamic_resizing@@@@QBEABV__crt_win32_buffer_empty_debug_info@@XZ 100890f0 f i libucrtd:argv_wildcards.obj
 0001:00088100       ?debug_info@?$__crt_win32_buffer@_WU__crt_win32_buffer_internal_dynamic_resizing@@@@QBEABV__crt_win32_buffer_empty_debug_info@@XZ 10089100 f i libucrtd:argv_wildcards.obj
 0001:00088410       ?get@?$__crt_unique_handle_t@U__crt_findfile_traits@@@@QBEPAXXZ 10089410 f i libucrtd:argv_wildcards.obj
