 OPOSToneIndicator

 Timestamp is 5d42a027 (Thu Aug  1 17:17:43 2019)

 Preferred load address is 10000000

 Start         Length     Name                   Class
 0001:00000000 00000d90H .text$di                CODE
 0001:00000d90 000a78f0H .text$mn                CODE
 0001:000a8680 000001c0H .text$x                 CODE
 0001:000a8840 00000120H .text$yd                CODE
 0002:00000000 00000358H .idata$5                DATA
 0002:00000358 00000004H .00cfg                  DATA
 0002:0000035c 00000004H .CRT$XCA                DATA
 0002:00000360 00000004H .CRT$XCL                DATA
 0002:00000364 0000006cH .CRT$XCU                DATA
 0002:000003d0 00000004H .CRT$XCZ                DATA
 0002:000003d4 00000004H .CRT$XIA                DATA
 0002:000003d8 00000010H .CRT$XIC                DATA
 0002:000003e8 00000004H .CRT$XIZ                DATA
 0002:000003ec 00000004H .CRT$XLA                DATA
 0002:000003f0 00000004H .CRT$XLZ                DATA
 0002:000003f4 00000004H .CRT$XPA                DATA
 0002:000003f8 00000008H .CRT$XPX                DATA
 0002:00000400 00000004H .CRT$XPXA               DATA
 0002:00000404 00000004H .CRT$XPZ                DATA
 0002:00000408 00000004H .CRT$XTA                DATA
 0002:0000040c 00000004H .CRT$XTZ                DATA
 0002:00000410 00000000H .gfids$y                DATA
 0002:00000410 0002f46cH .rdata                  DATA
 0002:0002f87c 00000018H .rdata$T                DATA
 0002:0002f894 0000033cH .rdata$r                DATA
 0002:0002fbd0 00000044H .rdata$sxdata           DATA
 0002:0002fc14 00000408H .rdata$zzzdbg           DATA
 0002:0003001c 00000004H .rtc$IAA                DATA
 0002:00030020 00000018H .rtc$IMZ                DATA
 0002:00030038 00000004H .rtc$IZZ                DATA
 0002:0003003c 00000004H .rtc$TAA                DATA
 0002:00030040 00000018H .rtc$TMZ                DATA
 0002:00030058 00000004H .rtc$TZZ                DATA
 0002:0003005c 00000004H .tls                    DATA
 0002:00030060 00000004H .tls$                   DATA
 0002:00030064 00000004H .tls$ZZZ                DATA
 0002:00030068 00000e44H .xdata$x                DATA
 0002:00030eac 00000004H ATL$__a                 DATA
 0002:00030eb0 00000010H ATL$__z                 DATA
 0002:00030ec0 000000b0H .edata                  DATA
 0002:00030f70 00000078H .idata$2                DATA
 0002:00030fe8 00000014H .idata$3                DATA
 0002:00030ffc 00000358H .idata$4                DATA
 0002:00031354 00000d50H .idata$6                DATA
 0003:00000000 00000bb0H .data                   DATA
 0003:00000bb0 00000138H .data$r                 DATA
 0003:00000ce8 00003580H .bss                    DATA
 0004:00000000 00000220H .rsrc$01                DATA
 0004:00000220 000042f0H .rsrc$02                DATA

  Address         Publics by Value              Rva+Base       Lib:Object

 0000:00000000       ___guard_longjmp_table     00000000     <absolute>
 0000:00000000       ___enclave_config          00000000     <absolute>
 0000:00000000       ___guard_fids_count        00000000     <absolute>
 0000:00000000       ___guard_fids_table        00000000     <absolute>
 0000:00000000       ___dynamic_value_reloc_table 00000000     <absolute>
 0000:00000000       ___guard_iat_count         00000000     <absolute>
 0000:00000000       ___hybrid_code_map         00000000     <absolute>
 0000:00000000       __except_list              00000000     <absolute>
 0000:00000000       ___volatile_metadata       00000000     <absolute>
 0000:00000000       ___guard_iat_table         00000000     <absolute>
 0000:00000000       ___hybrid_auxiliary_iat    00000000     <absolute>
 0000:00000000       ___hybrid_code_map_count   00000000     <absolute>
 0000:00000000       ___guard_longjmp_count     00000000     <absolute>
 0000:00000000       ___AbsoluteZero            00000000     <absolute>
 0000:00000011       ___safe_se_handler_count   00000011     <absolute>
 0000:0000002c       __tls_array                0000002c     <absolute>
 0000:00000100       ___guard_flags             00000100     <absolute>
 0000:00000000       ___ImageBase               10000000     <linker-defined>
 0001:00000d90       ?_assert@@YAXPB_W0I@Z      10001d90 f   Assert.obj
 0001:00000ec0       ___local_stdio_printf_options 10001ec0 f i Assert.obj
 0001:00000ed0       ___vswprintf_l             10001ed0 f i Assert.obj
 0001:00000f00       __swprintf                 10001f00 f i Assert.obj
 0001:00000f60       __vswprintf_c_l            10001f60 f i Assert.obj
 0001:00000fd0       __vswprintf_l              10001fd0 f i Assert.obj
 0001:00001000       ?cw_memcpy@@YGHPADPB_WH@Z  10002000 f   CWString.obj
 0001:00001060       ?cw_memcpy@@YGHPA_WPBDH@Z  10002060 f   CWString.obj
 0001:000010c0       ?cw_memcpy@@YGHPADPBDH@Z   100020c0 f   CWString.obj
 0001:00001110       ?cw_memcpy@@YGHPA_WPB_WH@Z 10002110 f   CWString.obj
 0001:00001150       ?cw_memset@@YAXPADDH@Z     10002150 f   CWString.obj
 0001:00001170       ?cw_memset@@YAXPA_W_WH@Z   10002170 f   CWString.obj
 0001:00001190       ?cw_strlen@@YAHPBD@Z       10002190 f   CWString.obj
 0001:000011e0       ?cw_strlen@@YAHPB_W@Z      100021e0 f   CWString.obj
 0001:00001230       ?cw_strcpy@@YAHPADPB_W@Z   10002230 f   CWString.obj
 0001:00001250       ?cw_strcpy@@YAHPA_WPBD@Z   10002250 f   CWString.obj
 0001:00001270       ?cw_strcpy@@YAHPADPBD@Z    10002270 f   CWString.obj
 0001:00001290       ?cw_strcpy@@YAHPA_WPB_W@Z  10002290 f   CWString.obj
 0001:000012b0       ?cw_strcat@@YAHPADPB_W@Z   100022b0 f   CWString.obj
 0001:000012e0       ?cw_strcat@@YAHPA_WPBD@Z   100022e0 f   CWString.obj
 0001:00001310       ?cw_strcat@@YAHPADPBD@Z    10002310 f   CWString.obj
 0001:00001340       ?cw_strcat@@YAHPA_WPB_W@Z  10002340 f   CWString.obj
 0001:00001370       ?cw_dup@@YGXPBDAAHAAPA_W1@Z 10002370 f   CWString.obj
 0001:00001430       ?cw_dup@@YGXPB_WAAHAAPAD1@Z 10002430 f   CWString.obj
 0001:000014e0       ?DupChar@_CW@@AAEXXZ       100024e0 f   CWString.obj
 0001:00001530       ?DupWide@_CW@@AAEXXZ       10002530 f   CWString.obj
 0001:00001580       ?GetCharsMbcs@_CW@@QAEHXZ  10002580 f   CWString.obj
 0001:000015e0       ?GetCharsWide@_CW@@QAEHXZ  100025e0 f   CWString.obj
 0001:00001640       ?SetVARIANT_BOOL@OposVariant@@QAEXF@Z 10002640 f   OposVariant.obj
 0001:000016a0       ?SetVARIANT_BOOL_Ptr@OposVariant@@QAEXPAFAAJ@Z 100026a0 f   OposVariant.obj
 0001:000016f0       ?GetLONG@OposVariant@@QAEJXZ 100026f0 f   OposVariant.obj
 0001:00001780       ?ChangeLONG@OposVariant@@QAEXPAJAAJ@Z 10002780 f   OposVariant.obj
 0001:00001840       ?SetLONG@OposVariant@@QAEXJ@Z 10002840 f   OposVariant.obj
 0001:00001880       ?SetLONG_Ptr@OposVariant@@QAEXPAJAAJ@Z 10002880 f   OposVariant.obj
 0001:000018d0       ?ChangeCURRENCY@OposVariant@@QAEXPATtagCY@@AAJ@Z 100028d0 f   OposVariant.obj
 0001:00001990       ?SetCURRENCY@OposVariant@@QAEXTtagCY@@@Z 10002990 f   OposVariant.obj
 0001:000019d0       ?SetCURRENCY_Ptr@OposVariant@@QAEXPATtagCY@@AAJ@Z 100029d0 f   OposVariant.obj
 0001:00001a20       ?ChangeBSTR@OposVariant@@QAEXPAPA_WAAJ@Z 10002a20 f   OposVariant.obj
 0001:00001ae0       ?SetBSTR@OposVariant@@QAEXPA_WAAJ@Z 10002ae0 f   OposVariant.obj
 0001:00001b30       ?SetBSTR_Copy@OposVariant@@QAEXPA_WAAJ@Z 10002b30 f   OposVariant.obj
 0001:00001bd0       ?SetBSTR_OutPtr@OposVariant@@QAE_NPAPA_WAAJ@Z 10002bd0 f   OposVariant.obj
 0001:00001c20       ?SetBSTR_InOutPtr@OposVariant@@QAE_NPAPA_WAAJ@Z 10002c20 f   OposVariant.obj
 0001:00001c70       ?SetVARIANT@OposVariant@@QAEXAAUtagVARIANT@@GAAJ@Z 10002c70 f   OposVariant.obj
 0001:00001cf0       ?SetVARIANT_Ptr@OposVariant@@QAEXAAPAUtagVARIANT@@GAAJ@Z 10002cf0 f   OposVariant.obj
 0001:00001d90       ?SetString@OposVariant@@QAEXPB_WAAJ@Z 10002d90 f   OposVariant.obj
 0001:00001e20       ?SetDispatch_Ptr@OposVariant@@QAEXPAUIDispatch@@AAJ@Z 10002e20 f   OposVariant.obj
 0001:00001e90       ??0OposDispParms@@QAE@PAVOposVariant@@H@Z 10002e90 f   OposVariant.obj
 0001:00001f60       ??1OposDispParms@@QAE@XZ   10002f60 f   OposVariant.obj
 0001:00001fb0       ??$AtlMultiply@I@ATL@@YAJPAIII@Z 10002fb0 f i OposVariant.obj
 0001:00002010       ??0?$CHeapPtr@_WVCCRTAllocator@ATL@@@ATL@@QAE@XZ 10003010 f i OposVariant.obj
 0001:00002040       ??0?$CHeapPtrBase@_WVCCRTAllocator@ATL@@@ATL@@IAE@XZ 10003040 f i OposVariant.obj
 0001:00002060       ??0?$CSimpleArray@GV?$CSimpleArrayEqualHelper@G@ATL@@@ATL@@QAE@XZ 10003060 f i OposVariant.obj
 0001:000020a0       ??0?$CTraceCategoryEx@$00$0A@@ATL@@QAE@PB_W@Z 100030a0 f i OposVariant.obj
 0001:000020d0       ??0?$CTraceCategoryEx@$01$0A@@ATL@@QAE@PB_W@Z 100030d0 f i OposVariant.obj
 0001:00002100       ??0?$CTraceCategoryEx@$03$0A@@ATL@@QAE@PB_W@Z 10003100 f i OposVariant.obj
 0001:00002130       ??0?$CTraceCategoryEx@$07$0A@@ATL@@QAE@PB_W@Z 10003130 f i OposVariant.obj
 0001:00002160       ??0?$CTraceCategoryEx@$0BA@$0A@@ATL@@QAE@PB_W@Z 10003160 f i OposVariant.obj
 0001:00002190       ??0?$CTraceCategoryEx@$0BAA@$0A@@ATL@@QAE@PB_W@Z 10003190 f i OposVariant.obj
 0001:000021d0       ??0?$CTraceCategoryEx@$0BAAA@$0A@@ATL@@QAE@PB_W@Z 100031d0 f i OposVariant.obj
 0001:00002210       ??0?$CTraceCategoryEx@$0BAAAA@$0A@@ATL@@QAE@PB_W@Z 10003210 f i OposVariant.obj
 0001:00002250       ??0?$CTraceCategoryEx@$0BAAAAA@$0A@@ATL@@QAE@PB_W@Z 10003250 f i OposVariant.obj
 0001:00002290       ??0?$CTraceCategoryEx@$0CA@$0A@@ATL@@QAE@PB_W@Z 10003290 f i OposVariant.obj
 0001:000022c0       ??0?$CTraceCategoryEx@$0CAA@$0A@@ATL@@QAE@PB_W@Z 100032c0 f i OposVariant.obj
 0001:00002300       ??0?$CTraceCategoryEx@$0CAAA@$0A@@ATL@@QAE@PB_W@Z 10003300 f i OposVariant.obj
 0001:00002340       ??0?$CTraceCategoryEx@$0CAAAA@$0A@@ATL@@QAE@PB_W@Z 10003340 f i OposVariant.obj
 0001:00002380       ??0?$CTraceCategoryEx@$0CAAAAA@$0A@@ATL@@QAE@PB_W@Z 10003380 f i OposVariant.obj
 0001:000023c0       ??0?$CTraceCategoryEx@$0EA@$0A@@ATL@@QAE@PB_W@Z 100033c0 f i OposVariant.obj
 0001:000023f0       ??0?$CTraceCategoryEx@$0EAA@$0A@@ATL@@QAE@PB_W@Z 100033f0 f i OposVariant.obj
 0001:00002430       ??0?$CTraceCategoryEx@$0EAAA@$0A@@ATL@@QAE@PB_W@Z 10003430 f i OposVariant.obj
 0001:00002470       ??0?$CTraceCategoryEx@$0EAAAA@$0A@@ATL@@QAE@PB_W@Z 10003470 f i OposVariant.obj
 0001:000024b0       ??0?$CTraceCategoryEx@$0EAAAAA@$0A@@ATL@@QAE@PB_W@Z 100034b0 f i OposVariant.obj
 0001:000024f0       ??0?$CTraceCategoryEx@$0IA@$0A@@ATL@@QAE@PB_W@Z 100034f0 f i OposVariant.obj
 0001:00002530       ??0?$CTraceCategoryEx@$0IAA@$0A@@ATL@@QAE@PB_W@Z 10003530 f i OposVariant.obj
 0001:00002570       ??0?$CTraceCategoryEx@$0IAAA@$0A@@ATL@@QAE@PB_W@Z 10003570 f i OposVariant.obj
 0001:000025b0       ??0?$CTraceCategoryEx@$0IAAAA@$0A@@ATL@@QAE@PB_W@Z 100035b0 f i OposVariant.obj
 0001:000025f0       ??0CAtlComModule@ATL@@QAE@XZ 100035f0 f i OposVariant.obj
 0001:000026d0       ??0CAtlWinModule@ATL@@QAE@XZ 100036d0 f i OposVariant.obj
 0001:00002760       ??0CComCriticalSection@ATL@@QAE@XZ 10003760 f i OposVariant.obj
 0001:00002790       ??0CPreserveLastError@ATL@@QAE@XZ 10003790 f i OposVariant.obj
 0001:000027d0       ??0CTraceFileAndLineInfo@ATL@@QAE@PBDH@Z 100037d0 f i OposVariant.obj
 0001:00002800       ??0_ATL_COM_MODULE70@ATL@@QAE@XZ 10003800 f i OposVariant.obj
 0001:00002830       ??0_ATL_WIN_MODULE70@ATL@@QAE@XZ 10003830 f i OposVariant.obj
 0001:00002870       ??1?$CHeapPtr@_WVCCRTAllocator@ATL@@@ATL@@QAE@XZ 10003870 f i OposVariant.obj
 0001:000028a0       ??1?$CHeapPtrBase@_WVCCRTAllocator@ATL@@@ATL@@QAE@XZ 100038a0 f i OposVariant.obj
 0001:000028d0       ??1?$CSimpleArray@GV?$CSimpleArrayEqualHelper@G@ATL@@@ATL@@QAE@XZ 100038d0 f i OposVariant.obj
 0001:00002900       ??1CAtlComModule@ATL@@QAE@XZ 10003900 f i OposVariant.obj
 0001:00002930       ??1CAtlWinModule@ATL@@QAE@XZ 10003930 f i OposVariant.obj
 0001:00002960       ??1CComBSTR@ATL@@QAE@XZ    10003960 f i OposVariant.obj
 0001:000029a0       ??1CComCriticalSection@ATL@@QAE@XZ 100039a0 f i OposVariant.obj
 0001:000029c0       ??1CPreserveLastError@ATL@@QAE@XZ 100039c0 f i OposVariant.obj
 0001:00002a00       ??1_ATL_COM_MODULE70@ATL@@QAE@XZ 10003a00 f i OposVariant.obj
 0001:00002a30       ??1_ATL_WIN_MODULE70@ATL@@QAE@XZ 10003a30 f i OposVariant.obj
 0001:00002a70       ??1stringdispid@CComTypeInfoHolder@ATL@@QAE@XZ 10003a70 f i OposVariant.obj
 0001:00002aa0       ??A?$CSimpleArray@GV?$CSimpleArrayEqualHelper@G@ATL@@@ATL@@QAEAAGH@Z 10003aa0 f i OposVariant.obj
 0001:00002b20       ??B?$CHeapPtrBase@_WVCCRTAllocator@ATL@@@ATL@@QBEPA_WXZ 10003b20 f i OposVariant.obj
 0001:00002b40       ??B?$CTraceCategoryEx@$01$0A@@ATL@@QAEIXZ 10003b40 f i OposVariant.obj
 0001:00002b60       ??B?$CTraceCategoryEx@$0CA@$0A@@ATL@@QAEIXZ 10003b60 f i OposVariant.obj
 0001:00002b80       ??RCTraceFileAndLineInfo@ATL@@QBAXHIPB_WZZ 10003b80 f i OposVariant.obj
 0001:00002c20       ??_Estringdispid@CComTypeInfoHolder@ATL@@QAEPAXI@Z 10003c20 f i OposVariant.obj
 0001:00002cb0       ??_H@YGXPAXIIP6EPAX0@Z@Z   10003cb0 f i OposVariant.obj
 0001:00002d20       ??_I@YGXPAXIIP6EX0@Z@Z     10003d20 f i OposVariant.obj
 0001:00002da0       ?Allocate@?$CHeapPtr@_WVCCRTAllocator@ATL@@@ATL@@QAE_NI@Z 10003da0 f i OposVariant.obj
 0001:00002e30       ?Allocate@CCRTAllocator@ATL@@SAPAXI@Z 10003e30 f i OposVariant.obj
 0001:00002e50       ?AllocateBytes@?$CHeapPtrBase@_WVCCRTAllocator@ATL@@@ATL@@QAE_NI@Z 10003e50 f i OposVariant.obj
 0001:00002ec0       ?AtlWinModuleInit@ATL@@YGJPAU_ATL_WIN_MODULE70@1@@Z 10003ec0 f i OposVariant.obj
 0001:00002f90       ?AtlWinModuleTerm@ATL@@YGJPAU_ATL_WIN_MODULE70@1@PAUHINSTANCE__@@@Z 10003f90 f i OposVariant.obj
 0001:00003050       ?Clear@OposVariant@@QAEJXZ 10004050 f i OposVariant.obj
 0001:00003090       ?Free@?$CHeapPtrBase@_WVCCRTAllocator@ATL@@@ATL@@QAEXXZ 10004090 f i OposVariant.obj
 0001:000030d0       ?Free@CCRTAllocator@ATL@@SAXPAX@Z 100040d0 f i OposVariant.obj
 0001:000030f0       ?GetCategoryName@CTrace@ATL@@CAPA_WI@Z 100040f0 f i OposVariant.obj
 0001:00003140       ?GetModuleInstance@CAtlBaseModule@ATL@@QAEPAUHINSTANCE__@@XZ 10004140 f i OposVariant.obj
 0001:00003160       ?GetSize@?$CSimpleArray@GV?$CSimpleArrayEqualHelper@G@ATL@@@ATL@@QBEHXZ 10004160 f i OposVariant.obj
 0001:00003180       ?Init@CComCriticalSection@ATL@@QAEJXZ 10004180 f i OposVariant.obj
 0001:000031e0       ?RegisterCategory@CTrace@ATL@@SAXPB_WI@Z 100041e0 f i OposVariant.obj
 0001:00003270       ?RemoveAll@?$CSimpleArray@GV?$CSimpleArrayEqualHelper@G@ATL@@@ATL@@QAEXXZ 10004270 f i OposVariant.obj
 0001:000032f0       ?Term@CAtlComModule@ATL@@QAEXXZ 100042f0 f i OposVariant.obj
 0001:000033b0       ?Term@CAtlWinModule@ATL@@QAEXXZ 100043b0 f i OposVariant.obj
 0001:000033e0       ?Term@CComCriticalSection@ATL@@QAEJXZ 100043e0 f i OposVariant.obj
 0001:00003420       ?TraceV@CTrace@ATL@@CAXPBDHIIPB_W@Z 10004420 f i OposVariant.obj
 0001:000036a0       ?TraceV@CTrace@ATL@@SAXPBDHIIPB_WPAD@Z 100046a0 f i OposVariant.obj
 0001:000037e0       ?_AtlInitializeCriticalSectionEx@ATL@@YAHPAU_RTL_CRITICAL_SECTION@@KK@Z 100047e0 f i OposVariant.obj
 0001:00003810       ?_AtlRaiseException@ATL@@YAXKK@Z 10004810 f i OposVariant.obj
 0001:00003840       _HRESULT_FROM_WIN32        10004840 f i OposVariant.obj
 0001:00003880       __vswprintf_s_l            10004880 f i OposVariant.obj
 0001:000038f0       _swprintf_s                100048f0 f i OposVariant.obj
 0001:00003950       ?UpdateRegistry@COPOSToneIndicator@@SGJH@Z 10004950 f i ToneIndicator.obj
 0001:00003970       ?ObjectMain@CComObjectRootBase@ATL@@SGX_N@Z 10004970 f i ToneIndicator.obj
 0001:00003980       ?GetCategoryMap@CComObjectRootBase@ATL@@SAPBU_ATL_CATMAP_ENTRY@2@XZ 10004980 f i ToneIndicator.obj
 0001:00003990       ?CreateInstance@?$CComCreator@V?$CComObjectCached@VCComClassFactory@ATL@@@ATL@@@ATL@@SGJPAXABU_GUID@@PAPAX@Z 10004990 f i ToneIndicator.obj
 0001:00003b10       ?CreateInstance@?$CComCreator2@V?$CComCreator@V?$CComObject@VCOPOSToneIndicator@@@ATL@@@ATL@@V?$CComCreator@V?$CComAggObject@VCOPOSToneIndicator@@@ATL@@@2@@ATL@@SGJPAXABU_GUID@@PAPAX@Z 10004b10 f i ToneIndicator.obj
 0001:00003b90       ?GetObjectDescription@?$CComCoClass@VCOPOSToneIndicator@@$1?CLSID_OPOSToneIndicator@@3U_GUID@@B@ATL@@SGPB_WXZ 10004b90 f i ToneIndicator.obj
 0001:00003cd0       _DllGetClassObject@12      10004cd0 f   ToneIndicator.obj
 0001:00003d00       _DllCanUnloadNow@0         10004d00 f   ToneIndicator.obj
 0001:00003d40       _DllRegisterServer@0       10004d40 f   ToneIndicator.obj
 0001:00003d60       _DllUnregisterServer@0     10004d60 f   ToneIndicator.obj
 0001:00003ef0       _DllMain@12                10004ef0 f   ToneIndicator.obj
 0001:00003f50       ??$?2G@Wrapper@?$CSimpleArray@GV?$CSimpleArrayEqualHelper@G@ATL@@@ATL@@SAPAXIPAG@Z 10004f50 f i ToneIndicator.obj
 0001:00003f60       ??$?2PA_W@?$Wrapper@PA_W@?$CSimpleMap@PA_WPA_WVCExpansionVectorEqualHelper@ATL@@@ATL@@SAPAXIPAPA_W@Z 10004f60 f i ToneIndicator.obj
 0001:00003f70       ??$?4UITypeInfo2@@@?$CComPtr@UITypeInfo@@@ATL@@QAEPAUITypeInfo@@ABV?$CComPtr@UITypeInfo2@@@1@@Z 10004f70 f i ToneIndicator.obj
 0001:00003fd0       ??$AtlAdd@K@ATL@@YAJPAKKK@Z 10004fd0 f i ToneIndicator.obj
 0001:00004010       ??$AtlAdd@_K@ATL@@YAJPA_K_K1@Z 10005010 f i ToneIndicator.obj
 0001:00004080       ??$AtlAddThrow@K@ATL@@YAKKK@Z 10005080 f i ToneIndicator.obj
 0001:00004100       ??$AtlModuleRegisterWndClassInfoT@VAtlModuleRegisterWndClassInfoParamW@ATL@@@ATL@@YAGPAU_ATL_BASE_MODULE70@0@PAU_ATL_WIN_MODULE70@0@PAU_ATL_WNDCLASSINFOW@0@PAP6GJPAUHWND__@@IIJ@ZVAtlModuleRegisterWndClassInfoParamW@0@@Z 10005100 f i ToneIndicator.obj
 0001:00004510       ??$AtlMultiply@H@ATL@@YAJPAHHH@Z 10005510 f i ToneIndicator.obj
 0001:00004590       ??$AtlMultiply@K@ATL@@YAJPAKKK@Z 10005590 f i ToneIndicator.obj
 0001:000045f0       ??$AtlMultiplyThrow@I@ATL@@YAIII@Z 100055f0 f i ToneIndicator.obj
 0001:00004670       ??$QueryInterface@UIPersistStream@@@IUnknown@@QAGJPAPAUIPersistStream@@@Z 10005670 f i ToneIndicator.obj
 0001:000046a0       ??$QueryInterface@UITypeInfo2@@@IUnknown@@QAGJPAPAUITypeInfo2@@@Z 100056a0 f i ToneIndicator.obj
 0001:000046d0       ??0?$CAtlModuleT@VCComModule@ATL@@@ATL@@QAE@XZ 100056d0 f i ToneIndicator.obj
 0001:00004700       ??0?$CAtlSafeAllocBufferManager@VCCRTAllocator@ATL@@@_ATL_SAFE_ALLOCA_IMPL@ATL@@QAE@XZ 10005700 f i ToneIndicator.obj
 0001:00004720       ??0?$CAutoVectorPtr@_W@ATL@@QAE@XZ 10005720 f i ToneIndicator.obj
 0001:00004740       ??0?$CComAggObject@VCOPOSToneIndicator@@@ATL@@QAE@PAX@Z 10005740 f i ToneIndicator.obj
 0001:000047b0       ??0?$CComContainedObject@VCOPOSToneIndicator@@@ATL@@QAE@PAX@Z 100057b0 f i ToneIndicator.obj
 0001:000048c0       ??0?$CComCritSecLock@VCComCriticalSection@ATL@@@ATL@@QAE@AAVCComCriticalSection@1@_N@Z 100058c0 f i ToneIndicator.obj
 0001:00004920       ??0?$CComEnum@UIEnumConnectionPoints@@$1?_GUID_b196b285_bab4_101a_b69c_00aa00341d07@@3U__s_GUID@@BPAUIConnectionPoint@@V?$_CopyInterface@UIConnectionPoint@@@ATL@@VCComSingleThreadModel@6@@ATL@@QAE@XZ 10005920 f i ToneIndicator.obj
 0001:00004960       ??0?$CComEnum@UIEnumConnections@@$1?_GUID_b196b287_bab4_101a_b69c_00aa00341d07@@3U__s_GUID@@BUtagCONNECTDATA@@V?$_Copy@UtagCONNECTDATA@@@ATL@@VCComSingleThreadModel@6@@ATL@@QAE@XZ 10005960 f i ToneIndicator.obj
 0001:000049a0       ??0?$CComEnumImpl@UIEnumConnectionPoints@@$1?_GUID_b196b285_bab4_101a_b69c_00aa00341d07@@3U__s_GUID@@BPAUIConnectionPoint@@V?$_CopyInterface@UIConnectionPoint@@@ATL@@@ATL@@QAE@XZ 100059a0 f i ToneIndicator.obj
 0001:00004a00       ??0?$CComEnumImpl@UIEnumConnections@@$1?_GUID_b196b287_bab4_101a_b69c_00aa00341d07@@3U__s_GUID@@BUtagCONNECTDATA@@V?$_Copy@UtagCONNECTDATA@@@ATL@@@ATL@@QAE@XZ 10005a00 f i ToneIndicator.obj
 0001:00004a60       ??0?$CComObject@V?$CComEnum@UIEnumConnectionPoints@@$1?_GUID_b196b285_bab4_101a_b69c_00aa00341d07@@3U__s_GUID@@BPAUIConnectionPoint@@V?$_CopyInterface@UIConnectionPoint@@@ATL@@VCComSingleThreadModel@6@@ATL@@@ATL@@QAE@PAX@Z 10005a60 f i ToneIndicator.obj
 0001:00004ab0       ??0?$CComObject@V?$CComEnum@UIEnumConnections@@$1?_GUID_b196b287_bab4_101a_b69c_00aa00341d07@@3U__s_GUID@@BUtagCONNECTDATA@@V?$_Copy@UtagCONNECTDATA@@@ATL@@VCComSingleThreadModel@6@@ATL@@@ATL@@QAE@PAX@Z 10005ab0 f i ToneIndicator.obj
 0001:00004b00       ??0?$CComObject@VCOPOSToneIndicator@@@ATL@@QAE@PAX@Z 10005b00 f i ToneIndicator.obj
 0001:00004c20       ??0?$CComObjectCached@VCComClassFactory@ATL@@@ATL@@QAE@PAX@Z 10005c20 f i ToneIndicator.obj
 0001:00004c60       ??0?$CComObjectRootEx@VCComMultiThreadModel@ATL@@@ATL@@QAE@XZ 10005c60 f i ToneIndicator.obj
 0001:00004ca0       ??0?$CComObjectRootEx@VCComSingleThreadModel@ATL@@@ATL@@QAE@XZ 10005ca0 f i ToneIndicator.obj
 0001:00004cd0       ??0?$CComPtr@UIAdviseSink@@@ATL@@QAE@PAUIAdviseSink@@@Z 10005cd0 f i ToneIndicator.obj
 0001:00004d00       ??0?$CComPtr@UICatRegister@@@ATL@@QAE@XZ 10005d00 f i ToneIndicator.obj
 0001:00004d30       ??0?$CComPtr@UIConnectionPoint@@@ATL@@QAE@XZ 10005d30 f i ToneIndicator.obj
 0001:00004d60       ??0?$CComPtr@UIConnectionPointContainer@@@ATL@@QAE@XZ 10005d60 f i ToneIndicator.obj
 0001:00004d90       ??0?$CComPtr@UIDataObject@@@ATL@@QAE@XZ 10005d90 f i ToneIndicator.obj
 0001:00004dc0       ??0?$CComPtr@UIDispatch@@@ATL@@QAE@XZ 10005dc0 f i ToneIndicator.obj
 0001:00004df0       ??0?$CComPtr@UIOleClientSite@@@ATL@@QAE@PAUIOleClientSite@@@Z 10005df0 f i ToneIndicator.obj
 0001:00004e20       ??0?$CComPtr@UIOleControlSite@@@ATL@@QAE@XZ 10005e20 f i ToneIndicator.obj
 0001:00004e50       ??0?$CComPtr@UIOleInPlaceActiveObject@@@ATL@@QAE@XZ 10005e50 f i ToneIndicator.obj
 0001:00004e80       ??0?$CComPtr@UIOleInPlaceFrame@@@ATL@@QAE@XZ 10005e80 f i ToneIndicator.obj
 0001:00004eb0       ??0?$CComPtr@UIOleInPlaceObject@@@ATL@@QAE@XZ 10005eb0 f i ToneIndicator.obj
 0001:00004ee0       ??0?$CComPtr@UIOleInPlaceUIWindow@@@ATL@@QAE@XZ 10005ee0 f i ToneIndicator.obj
 0001:00004f10       ??0?$CComPtr@UIOleObject@@@ATL@@QAE@XZ 10005f10 f i ToneIndicator.obj
 0001:00004f40       ??0?$CComPtr@UIPersistStream@@@ATL@@QAE@XZ 10005f40 f i ToneIndicator.obj
 0001:00004f70       ??0?$CComPtr@UIPersistStreamInit@@@ATL@@QAE@XZ 10005f70 f i ToneIndicator.obj
 0001:00004fa0       ??0?$CComPtr@UIPointerInactive@@@ATL@@QAE@XZ 10005fa0 f i ToneIndicator.obj
 0001:00004fd0       ??0?$CComPtr@UIProvideClassInfo2@@@ATL@@QAE@XZ 10005fd0 f i ToneIndicator.obj
 0001:00005000       ??0?$CComPtr@UISpecifyPropertyPages@@@ATL@@QAE@XZ 10006000 f i ToneIndicator.obj
 0001:00005030       ??0?$CComPtr@UIStream@@@ATL@@QAE@XZ 10006030 f i ToneIndicator.obj
 0001:00005060       ??0?$CComPtr@UITypeInfo2@@@ATL@@QAE@XZ 10006060 f i ToneIndicator.obj
 0001:00005090       ??0?$CComPtr@UITypeInfo@@@ATL@@QAE@ABV01@@Z 10006090 f i ToneIndicator.obj
 0001:000050c0       ??0?$CComPtr@UITypeInfo@@@ATL@@QAE@XZ 100060c0 f i ToneIndicator.obj
 0001:000050f0       ??0?$CComPtr@UITypeLib@@@ATL@@QAE@XZ 100060f0 f i ToneIndicator.obj
 0001:00005120       ??0?$CComPtr@UIUnknown@@@ATL@@QAE@ABV01@@Z 10006120 f i ToneIndicator.obj
 0001:00005150       ??0?$CComPtr@UIUnknown@@@ATL@@QAE@PAUIUnknown@@@Z 10006150 f i ToneIndicator.obj
 0001:00005180       ??0?$CComPtr@UIUnknown@@@ATL@@QAE@XZ 10006180 f i ToneIndicator.obj
 0001:000051b0       ??0?$CComPtr@UIViewObjectEx@@@ATL@@QAE@XZ 100061b0 f i ToneIndicator.obj
 0001:000051e0       ??0?$CComPtrBase@UIAdviseSink@@@ATL@@IAE@PAUIAdviseSink@@@Z 100061e0 f i ToneIndicator.obj
 0001:00005230       ??0?$CComPtrBase@UICatRegister@@@ATL@@IAE@XZ 10006230 f i ToneIndicator.obj
 0001:00005250       ??0?$CComPtrBase@UIConnectionPoint@@@ATL@@IAE@XZ 10006250 f i ToneIndicator.obj
 0001:00005270       ??0?$CComPtrBase@UIConnectionPointContainer@@@ATL@@IAE@XZ 10006270 f i ToneIndicator.obj
 0001:00005290       ??0?$CComPtrBase@UIDataObject@@@ATL@@IAE@XZ 10006290 f i ToneIndicator.obj
 0001:000052b0       ??0?$CComPtrBase@UIDispatch@@@ATL@@IAE@XZ 100062b0 f i ToneIndicator.obj
 0001:000052d0       ??0?$CComPtrBase@UIOleClientSite@@@ATL@@IAE@PAUIOleClientSite@@@Z 100062d0 f i ToneIndicator.obj
 0001:00005320       ??0?$CComPtrBase@UIOleControlSite@@@ATL@@IAE@XZ 10006320 f i ToneIndicator.obj
 0001:00005340       ??0?$CComPtrBase@UIOleInPlaceActiveObject@@@ATL@@IAE@XZ 10006340 f i ToneIndicator.obj
 0001:00005360       ??0?$CComPtrBase@UIOleInPlaceFrame@@@ATL@@IAE@XZ 10006360 f i ToneIndicator.obj
 0001:00005380       ??0?$CComPtrBase@UIOleInPlaceObject@@@ATL@@IAE@XZ 10006380 f i ToneIndicator.obj
 0001:000053a0       ??0?$CComPtrBase@UIOleInPlaceUIWindow@@@ATL@@IAE@XZ 100063a0 f i ToneIndicator.obj
 0001:000053c0       ??0?$CComPtrBase@UIOleObject@@@ATL@@IAE@XZ 100063c0 f i ToneIndicator.obj
 0001:000053e0       ??0?$CComPtrBase@UIPersistStream@@@ATL@@IAE@XZ 100063e0 f i ToneIndicator.obj
 0001:00005400       ??0?$CComPtrBase@UIPersistStreamInit@@@ATL@@IAE@XZ 10006400 f i ToneIndicator.obj
 0001:00005420       ??0?$CComPtrBase@UIPointerInactive@@@ATL@@IAE@XZ 10006420 f i ToneIndicator.obj
 0001:00005440       ??0?$CComPtrBase@UIProvideClassInfo2@@@ATL@@IAE@XZ 10006440 f i ToneIndicator.obj
 0001:00005460       ??0?$CComPtrBase@UISpecifyPropertyPages@@@ATL@@IAE@XZ 10006460 f i ToneIndicator.obj
 0001:00005480       ??0?$CComPtrBase@UIStream@@@ATL@@IAE@XZ 10006480 f i ToneIndicator.obj
 0001:000054a0       ??0?$CComPtrBase@UITypeInfo2@@@ATL@@IAE@XZ 100064a0 f i ToneIndicator.obj
 0001:000054c0       ??0?$CComPtrBase@UITypeInfo@@@ATL@@IAE@PAUITypeInfo@@@Z 100064c0 f i ToneIndicator.obj
 0001:00005510       ??0?$CComPtrBase@UITypeInfo@@@ATL@@IAE@XZ 10006510 f i ToneIndicator.obj
 0001:00005530       ??0?$CComPtrBase@UITypeLib@@@ATL@@IAE@XZ 10006530 f i ToneIndicator.obj
 0001:00005550       ??0?$CComPtrBase@UIUnknown@@@ATL@@IAE@PAUIUnknown@@@Z 10006550 f i ToneIndicator.obj
 0001:000055a0       ??0?$CComPtrBase@UIUnknown@@@ATL@@IAE@XZ 100065a0 f i ToneIndicator.obj
 0001:000055c0       ??0?$CComPtrBase@UIViewObjectEx@@@ATL@@IAE@XZ 100065c0 f i ToneIndicator.obj
 0001:000055e0       ??0?$CComQIPtr@UIOleControlSite@@$1?_GUID_b196b289_bab4_101a_b69c_00aa00341d07@@3U__s_GUID@@B@ATL@@QAE@PAUIUnknown@@@Z 100065e0 f i ToneIndicator.obj
 0001:00005640       ??0?$CComQIPtr@UIOleObject@@$1?_GUID_00000112_0000_0000_c000_000000000046@@3U__s_GUID@@B@ATL@@QAE@XZ 10006640 f i ToneIndicator.obj
 0001:00005670       ??0?$CComQIPtr@UISpecifyPropertyPages@@$1?_GUID_b196b28b_bab4_101a_b69c_00aa00341d07@@3U__s_GUID@@B@ATL@@QAE@XZ 10006670 f i ToneIndicator.obj
 0001:000056a0       ??0?$CSimpleMap@PA_WPA_WVCExpansionVectorEqualHelper@ATL@@@ATL@@QAE@XZ 100066a0 f i ToneIndicator.obj
 0001:000056e0       ??0?$CTempBuffer@E$0BAA@VCCRTAllocator@ATL@@@ATL@@QAE@XZ 100066e0 f i ToneIndicator.obj
 0001:00005700       ??0?$CTempBuffer@_W$0BAA@VCCRTAllocator@ATL@@@ATL@@QAE@XZ 10006700 f i ToneIndicator.obj
 0001:00005720       ??0?$CTempBuffer@_W$0EAA@VCCRTAllocator@ATL@@@ATL@@QAE@XZ 10006720 f i ToneIndicator.obj
 0001:00005740       ??0?$Wrapper@PA_W@?$CSimpleMap@PA_WPA_WVCExpansionVectorEqualHelper@ATL@@@ATL@@QAE@ABQA_W@Z 10006740 f i ToneIndicator.obj
 0001:00005770       ??0CAtlModule@ATL@@QAE@XZ  10006770 f i ToneIndicator.obj
 0001:00005890       ??0CComAutoDeleteCriticalSection@ATL@@QAE@XZ 10006890 f i ToneIndicator.obj
 0001:000058c0       ??0CComBSTR@ATL@@QAE@XZ    100068c0 f i ToneIndicator.obj
 0001:000058e0       ??0CComClassFactory@ATL@@QAE@XZ 100068e0 f i ToneIndicator.obj
 0001:00005920       ??0CComModule@ATL@@QAE@XZ  10006920 f i ToneIndicator.obj
 0001:00005990       ??0CComObjectRootBase@ATL@@QAE@XZ 10006990 f i ToneIndicator.obj
 0001:000059b0       ??0CComSafeDeleteCriticalSection@ATL@@QAE@XZ 100069b0 f i ToneIndicator.obj
 0001:000059e0       ??0CComVariant@ATL@@QAE@XZ 100069e0 f i ToneIndicator.obj
 0001:00005a30       ??0CExpansionVector@ATL@@QAE@XZ 10006a30 f i ToneIndicator.obj
 0001:00005a60       ??0CParseBuffer@CRegParser@ATL@@QAE@H@Z 10006a60 f i ToneIndicator.obj
 0001:00005ad0       ??0CRegKey@ATL@@QAE@PAUHKEY__@@@Z 10006ad0 f i ToneIndicator.obj
 0001:00005b10       ??0CRegKey@ATL@@QAE@PAVCAtlTransactionManager@1@@Z 10006b10 f i ToneIndicator.obj
 0001:00005b50       ??0CRegObject@ATL@@QAE@XZ  10006b50 f i ToneIndicator.obj
 0001:00005b90       ??0CRegParser@ATL@@QAE@PAVCRegObject@1@@Z 10006b90 f i ToneIndicator.obj
 0001:00005bc0       ??0IClassFactory@@QAE@XZ   10006bc0 f i ToneIndicator.obj
 0001:00005bf0       ??0IEnumConnectionPoints@@QAE@XZ 10006bf0 f i ToneIndicator.obj
 0001:00005c20       ??0IEnumConnections@@QAE@XZ 10006c20 f i ToneIndicator.obj
 0001:00005c50       ??0IRegistrarBase@@QAE@XZ  10006c50 f i ToneIndicator.obj
 0001:00005c80       ??0IUnknown@@QAE@XZ        10006c80 f i ToneIndicator.obj
 0001:00005ca0       ??0ModuleLockHelper@ATL@@QAE@XZ 10006ca0 f i ToneIndicator.obj
 0001:00005ce0       ??0OposVariant@@QAE@XZ     10006ce0 f i ToneIndicator.obj
 0001:00005d10       ??0Wrapper@?$CSimpleArray@GV?$CSimpleArrayEqualHelper@G@ATL@@@ATL@@QAE@ABG@Z 10006d10 f i ToneIndicator.obj
 0001:00005d40       ??0_ATL_MODULE70@ATL@@QAE@XZ 10006d40 f i ToneIndicator.obj
 0001:00005d70       ??0_ATL_MSG@ATL@@QAE@PAUHWND__@@IIJH@Z 10006d70 f i ToneIndicator.obj
 0001:00005de0       ??0_U_MENUorID@ATL@@QAE@I@Z 10006de0 f i ToneIndicator.obj
 0001:00005e00       ??0_U_RECT@ATL@@QAE@AAUtagRECT@@@Z 10006e00 f i ToneIndicator.obj
 0001:00005e20       ??0stringdispid@CComTypeInfoHolder@ATL@@QAE@XZ 10006e20 f i ToneIndicator.obj
 0001:00005e60       ??1?$CAtlModuleT@VCComModule@ATL@@@ATL@@UAE@XZ 10006e60 f i ToneIndicator.obj
 0001:00005e90       ??1?$CAtlSafeAllocBufferManager@VCCRTAllocator@ATL@@@_ATL_SAFE_ALLOCA_IMPL@ATL@@QAE@XZ 10006e90 f i ToneIndicator.obj
 0001:00005ee0       ??1?$CAutoVectorPtr@_W@ATL@@QAE@XZ 10006ee0 f i ToneIndicator.obj
 0001:00005f10       ??1?$CComAggObject@VCOPOSToneIndicator@@@ATL@@UAE@XZ 10006f10 f i ToneIndicator.obj
 0001:00005f80       ??1?$CComContainedObject@VCOPOSToneIndicator@@@ATL@@UAE@XZ 10006f80 f i ToneIndicator.obj
 0001:00005fb0       ??1?$CComCritSecLock@VCComCriticalSection@ATL@@@ATL@@QAE@XZ 10006fb0 f i ToneIndicator.obj
 0001:00005fe0       ??1?$CComEnum@UIEnumConnectionPoints@@$1?_GUID_b196b285_bab4_101a_b69c_00aa00341d07@@3U__s_GUID@@BPAUIConnectionPoint@@V?$_CopyInterface@UIConnectionPoint@@@ATL@@VCComSingleThreadModel@6@@ATL@@UAE@XZ 10006fe0 f i ToneIndicator.obj
 0001:00006010       ??1?$CComEnum@UIEnumConnections@@$1?_GUID_b196b287_bab4_101a_b69c_00aa00341d07@@3U__s_GUID@@BUtagCONNECTDATA@@V?$_Copy@UtagCONNECTDATA@@@ATL@@VCComSingleThreadModel@6@@ATL@@UAE@XZ 10007010 f i ToneIndicator.obj
 0001:00006040       ??1?$CComEnumImpl@UIEnumConnectionPoints@@$1?_GUID_b196b285_bab4_101a_b69c_00aa00341d07@@3U__s_GUID@@BPAUIConnectionPoint@@V?$_CopyInterface@UIConnectionPoint@@@ATL@@@ATL@@UAE@XZ 10007040 f i ToneIndicator.obj
 0001:000060d0       ??1?$CComEnumImpl@UIEnumConnections@@$1?_GUID_b196b287_bab4_101a_b69c_00aa00341d07@@3U__s_GUID@@BUtagCONNECTDATA@@V?$_Copy@UtagCONNECTDATA@@@ATL@@@ATL@@UAE@XZ 100070d0 f i ToneIndicator.obj
 0001:00006160       ??1?$CComObject@V?$CComEnum@UIEnumConnectionPoints@@$1?_GUID_b196b285_bab4_101a_b69c_00aa00341d07@@3U__s_GUID@@BPAUIConnectionPoint@@V?$_CopyInterface@UIConnectionPoint@@@ATL@@VCComSingleThreadModel@6@@ATL@@@ATL@@UAE@XZ 10007160 f i ToneIndicator.obj
 0001:000061c0       ??1?$CComObject@V?$CComEnum@UIEnumConnections@@$1?_GUID_b196b287_bab4_101a_b69c_00aa00341d07@@3U__s_GUID@@BUtagCONNECTDATA@@V?$_Copy@UtagCONNECTDATA@@@ATL@@VCComSingleThreadModel@6@@ATL@@@ATL@@UAE@XZ 100071c0 f i ToneIndicator.obj
 0001:00006220       ??1?$CComObject@VCOPOSToneIndicator@@@ATL@@UAE@XZ 10007220 f i ToneIndicator.obj
 0001:00006360       ??1?$CComObjectCached@VCComClassFactory@ATL@@@ATL@@UAE@XZ 10007360 f i ToneIndicator.obj
 0001:000063b0       ??1?$CComObjectRootEx@VCComMultiThreadModel@ATL@@@ATL@@QAE@XZ 100073b0 f i ToneIndicator.obj
 0001:000063e0       ??1?$CComObjectRootEx@VCComSingleThreadModel@ATL@@@ATL@@QAE@XZ 100073e0 f i ToneIndicator.obj
 0001:00006410       ??1?$CComPtr@UIAdviseSink@@@ATL@@QAE@XZ 10007410 f i ToneIndicator.obj
 0001:00006440       ??1?$CComPtr@UICatRegister@@@ATL@@QAE@XZ 10007440 f i ToneIndicator.obj
 0001:00006470       ??1?$CComPtr@UIConnectionPoint@@@ATL@@QAE@XZ 10007470 f i ToneIndicator.obj
 0001:000064a0       ??1?$CComPtr@UIConnectionPointContainer@@@ATL@@QAE@XZ 100074a0 f i ToneIndicator.obj
 0001:000064d0       ??1?$CComPtr@UIDataObject@@@ATL@@QAE@XZ 100074d0 f i ToneIndicator.obj
 0001:00006500       ??1?$CComPtr@UIDispatch@@@ATL@@QAE@XZ 10007500 f i ToneIndicator.obj
 0001:00006530       ??1?$CComPtr@UIOleClientSite@@@ATL@@QAE@XZ 10007530 f i ToneIndicator.obj
 0001:00006560       ??1?$CComPtr@UIOleControlSite@@@ATL@@QAE@XZ 10007560 f i ToneIndicator.obj
 0001:00006590       ??1?$CComPtr@UIOleInPlaceActiveObject@@@ATL@@QAE@XZ 10007590 f i ToneIndicator.obj
 0001:000065c0       ??1?$CComPtr@UIOleInPlaceFrame@@@ATL@@QAE@XZ 100075c0 f i ToneIndicator.obj
 0001:000065f0       ??1?$CComPtr@UIOleInPlaceObject@@@ATL@@QAE@XZ 100075f0 f i ToneIndicator.obj
 0001:00006620       ??1?$CComPtr@UIOleInPlaceUIWindow@@@ATL@@QAE@XZ 10007620 f i ToneIndicator.obj
 0001:00006650       ??1?$CComPtr@UIOleObject@@@ATL@@QAE@XZ 10007650 f i ToneIndicator.obj
 0001:00006680       ??1?$CComPtr@UIPersistStream@@@ATL@@QAE@XZ 10007680 f i ToneIndicator.obj
 0001:000066b0       ??1?$CComPtr@UIPersistStreamInit@@@ATL@@QAE@XZ 100076b0 f i ToneIndicator.obj
 0001:000066e0       ??1?$CComPtr@UIPointerInactive@@@ATL@@QAE@XZ 100076e0 f i ToneIndicator.obj
 0001:00006710       ??1?$CComPtr@UIProvideClassInfo2@@@ATL@@QAE@XZ 10007710 f i ToneIndicator.obj
 0001:00006740       ??1?$CComPtr@UISpecifyPropertyPages@@@ATL@@QAE@XZ 10007740 f i ToneIndicator.obj
 0001:00006770       ??1?$CComPtr@UIStream@@@ATL@@QAE@XZ 10007770 f i ToneIndicator.obj
 0001:000067a0       ??1?$CComPtr@UITypeInfo2@@@ATL@@QAE@XZ 100077a0 f i ToneIndicator.obj
 0001:000067d0       ??1?$CComPtr@UITypeInfo@@@ATL@@QAE@XZ 100077d0 f i ToneIndicator.obj
 0001:00006800       ??1?$CComPtr@UITypeLib@@@ATL@@QAE@XZ 10007800 f i ToneIndicator.obj
 0001:00006830       ??1?$CComPtr@UIUnknown@@@ATL@@QAE@XZ 10007830 f i ToneIndicator.obj
 0001:00006860       ??1?$CComPtr@UIViewObjectEx@@@ATL@@QAE@XZ 10007860 f i ToneIndicator.obj
 0001:00006890       ??1?$CComPtrBase@UIAdviseSink@@@ATL@@QAE@XZ 10007890 f i ToneIndicator.obj
 0001:000068e0       ??1?$CComPtrBase@UICatRegister@@@ATL@@QAE@XZ 100078e0 f i ToneIndicator.obj
 0001:00006930       ??1?$CComPtrBase@UIConnectionPoint@@@ATL@@QAE@XZ 10007930 f i ToneIndicator.obj
 0001:00006980       ??1?$CComPtrBase@UIConnectionPointContainer@@@ATL@@QAE@XZ 10007980 f i ToneIndicator.obj
 0001:000069d0       ??1?$CComPtrBase@UIDataObject@@@ATL@@QAE@XZ 100079d0 f i ToneIndicator.obj
 0001:00006a20       ??1?$CComPtrBase@UIDispatch@@@ATL@@QAE@XZ 10007a20 f i ToneIndicator.obj
 0001:00006a70       ??1?$CComPtrBase@UIOleClientSite@@@ATL@@QAE@XZ 10007a70 f i ToneIndicator.obj
 0001:00006ac0       ??1?$CComPtrBase@UIOleControlSite@@@ATL@@QAE@XZ 10007ac0 f i ToneIndicator.obj
 0001:00006b10       ??1?$CComPtrBase@UIOleInPlaceActiveObject@@@ATL@@QAE@XZ 10007b10 f i ToneIndicator.obj
 0001:00006b60       ??1?$CComPtrBase@UIOleInPlaceFrame@@@ATL@@QAE@XZ 10007b60 f i ToneIndicator.obj
 0001:00006bb0       ??1?$CComPtrBase@UIOleInPlaceObject@@@ATL@@QAE@XZ 10007bb0 f i ToneIndicator.obj
 0001:00006c00       ??1?$CComPtrBase@UIOleInPlaceUIWindow@@@ATL@@QAE@XZ 10007c00 f i ToneIndicator.obj
 0001:00006c50       ??1?$CComPtrBase@UIOleObject@@@ATL@@QAE@XZ 10007c50 f i ToneIndicator.obj
 0001:00006ca0       ??1?$CComPtrBase@UIPersistStream@@@ATL@@QAE@XZ 10007ca0 f i ToneIndicator.obj
 0001:00006cf0       ??1?$CComPtrBase@UIPersistStreamInit@@@ATL@@QAE@XZ 10007cf0 f i ToneIndicator.obj
 0001:00006d40       ??1?$CComPtrBase@UIPointerInactive@@@ATL@@QAE@XZ 10007d40 f i ToneIndicator.obj
 0001:00006d90       ??1?$CComPtrBase@UIProvideClassInfo2@@@ATL@@QAE@XZ 10007d90 f i ToneIndicator.obj
 0001:00006de0       ??1?$CComPtrBase@UISpecifyPropertyPages@@@ATL@@QAE@XZ 10007de0 f i ToneIndicator.obj
 0001:00006e30       ??1?$CComPtrBase@UIStream@@@ATL@@QAE@XZ 10007e30 f i ToneIndicator.obj
 0001:00006e80       ??1?$CComPtrBase@UITypeInfo2@@@ATL@@QAE@XZ 10007e80 f i ToneIndicator.obj
 0001:00006ed0       ??1?$CComPtrBase@UITypeInfo@@@ATL@@QAE@XZ 10007ed0 f i ToneIndicator.obj
 0001:00006f20       ??1?$CComPtrBase@UITypeLib@@@ATL@@QAE@XZ 10007f20 f i ToneIndicator.obj
 0001:00006f70       ??1?$CComPtrBase@UIUnknown@@@ATL@@QAE@XZ 10007f70 f i ToneIndicator.obj
 0001:00006fc0       ??1?$CComPtrBase@UIViewObjectEx@@@ATL@@QAE@XZ 10007fc0 f i ToneIndicator.obj
 0001:00007010       ??1?$CComQIPtr@UIOleControlSite@@$1?_GUID_b196b289_bab4_101a_b69c_00aa00341d07@@3U__s_GUID@@B@ATL@@QAE@XZ 10008010 f i ToneIndicator.obj
 0001:00007040       ??1?$CComQIPtr@UIOleObject@@$1?_GUID_00000112_0000_0000_c000_000000000046@@3U__s_GUID@@B@ATL@@QAE@XZ 10008040 f i ToneIndicator.obj
 0001:00007070       ??1?$CComQIPtr@UISpecifyPropertyPages@@$1?_GUID_b196b28b_bab4_101a_b69c_00aa00341d07@@3U__s_GUID@@B@ATL@@QAE@XZ 10008070 f i ToneIndicator.obj
 0001:000070a0       ??1?$CSimpleMap@PA_WPA_WVCExpansionVectorEqualHelper@ATL@@@ATL@@QAE@XZ 100080a0 f i ToneIndicator.obj
 0001:000070d0       ??1?$CTempBuffer@E$0BAA@VCCRTAllocator@ATL@@@ATL@@QAE@XZ 100080d0 f i ToneIndicator.obj
 0001:00007110       ??1?$CTempBuffer@_W$0BAA@VCCRTAllocator@ATL@@@ATL@@QAE@XZ 10008110 f i ToneIndicator.obj
 0001:00007150       ??1?$CTempBuffer@_W$0EAA@VCCRTAllocator@ATL@@@ATL@@QAE@XZ 10008150 f i ToneIndicator.obj
 0001:00007190       ??1CAtlModule@ATL@@UAE@XZ  10008190 f i ToneIndicator.obj
 0001:000071c0       ??1CComAutoDeleteCriticalSection@ATL@@QAE@XZ 100081c0 f i ToneIndicator.obj
 0001:000071f0       ??1CComClassFactory@ATL@@UAE@XZ 100081f0 f i ToneIndicator.obj
 0001:00007220       ??1CComModule@ATL@@UAE@XZ  10008220 f i ToneIndicator.obj
 0001:00007250       ??1CComObjectRootBase@ATL@@QAE@XZ 10008250 f i ToneIndicator.obj
 0001:00007270       ??1CComSafeDeleteCriticalSection@ATL@@QAE@XZ 10008270 f i ToneIndicator.obj
 0001:000072b0       ??1CComVariant@ATL@@QAE@XZ 100082b0 f i ToneIndicator.obj
 0001:00007310       ??1CExpansionVector@ATL@@QAE@XZ 10008310 f i ToneIndicator.obj
 0001:00007340       ??1CParseBuffer@CRegParser@ATL@@QAE@XZ 10008340 f i ToneIndicator.obj
 0001:00007380       ??1CRegKey@ATL@@QAE@XZ     10008380 f i ToneIndicator.obj
 0001:000073b0       ??1CRegObject@ATL@@UAE@XZ  100083b0 f i ToneIndicator.obj
 0001:000073f0       ??1ModuleLockHelper@ATL@@QAE@XZ 100083f0 f i ToneIndicator.obj
 0001:00007430       ??1OposVariant@@QAE@XZ     10008430 f i ToneIndicator.obj
 0001:00007460       ??1_ATL_MODULE70@ATL@@QAE@XZ 10008460 f i ToneIndicator.obj
 0001:00007490       ??4?$CComPtr@UIAdviseSink@@@ATL@@QAEPAUIAdviseSink@@PAU2@@Z 10008490 f i ToneIndicator.obj
 0001:00007500       ??4?$CComPtr@UIOleClientSite@@@ATL@@QAEPAUIOleClientSite@@PAU2@@Z 10008500 f i ToneIndicator.obj
 0001:00007570       ??4?$CComPtr@UIUnknown@@@ATL@@QAEPAUIUnknown@@PAU2@@Z 10008570 f i ToneIndicator.obj
 0001:000075e0       ??4?$CComQIPtr@UIOleObject@@$1?_GUID_00000112_0000_0000_c000_000000000046@@3U__s_GUID@@B@ATL@@QAEPAUIOleObject@@PAUIUnknown@@@Z 100085e0 f i ToneIndicator.obj
 0001:00007630       ??4?$CComQIPtr@UISpecifyPropertyPages@@$1?_GUID_b196b28b_bab4_101a_b69c_00aa00341d07@@3U__s_GUID@@B@ATL@@QAEPAUISpecifyPropertyPages@@PAUIUnknown@@@Z 10008630 f i ToneIndicator.obj
 0001:00007680       ??7?$CComPtrBase@UIOleClientSite@@@ATL@@QBE_NXZ 10008680 f i ToneIndicator.obj
 0001:000076c0       ??7?$CComPtrBase@UIOleInPlaceSiteWindowless@@@ATL@@QBE_NXZ 100086c0 f i ToneIndicator.obj
 0001:00007700       ??7CComBSTR@ATL@@QBE_NXZ   10008700 f i ToneIndicator.obj
 0001:00007740       ??8?$CComPtrBase@UIAdviseSink@@@ATL@@QBE_NPAUIAdviseSink@@@Z 10008740 f i ToneIndicator.obj
 0001:00007780       ??8?$CComPtrBase@UIConnectionPointContainer@@@ATL@@QBE_NPAUIConnectionPointContainer@@@Z 10008780 f i ToneIndicator.obj
 0001:000077c0       ??8?$CComPtrBase@UIDataAdviseHolder@@@ATL@@QBE_NPAUIDataAdviseHolder@@@Z 100087c0 f i ToneIndicator.obj
 0001:00007800       ??8?$CComPtrBase@UIOleAdviseHolder@@@ATL@@QBE_NPAUIOleAdviseHolder@@@Z 10008800 f i ToneIndicator.obj
 0001:00007840       ??8?$CComPtrBase@UIOleClientSite@@@ATL@@QBE_NPAUIOleClientSite@@@Z 10008840 f i ToneIndicator.obj
 0001:00007880       ??8?$CComPtrBase@UIOleControlSite@@@ATL@@QBE_NPAUIOleControlSite@@@Z 10008880 f i ToneIndicator.obj
 0001:000078c0       ??8?$CComPtrBase@UIOleInPlaceObject@@@ATL@@QBE_NPAUIOleInPlaceObject@@@Z 100088c0 f i ToneIndicator.obj
 0001:00007900       ??8?$CComPtrBase@UIOleInPlaceSiteWindowless@@@ATL@@QBE_NPAUIOleInPlaceSiteWindowless@@@Z 10008900 f i ToneIndicator.obj
 0001:00007940       ??8?$CComPtrBase@UIOleObject@@@ATL@@QBE_NPAUIOleObject@@@Z 10008940 f i ToneIndicator.obj
 0001:00007980       ??8?$CComPtrBase@UIPersistStream@@@ATL@@QBE_NPAUIPersistStream@@@Z 10008980 f i ToneIndicator.obj
 0001:000079c0       ??8?$CComPtrBase@UIPersistStreamInit@@@ATL@@QBE_NPAUIPersistStreamInit@@@Z 100089c0 f i ToneIndicator.obj
 0001:00007a00       ??8?$CComPtrBase@UIPointerInactive@@@ATL@@QBE_NPAUIPointerInactive@@@Z 10008a00 f i ToneIndicator.obj
 0001:00007a40       ??8?$CComPtrBase@UIUnknown@@@ATL@@QBE_NPAUIUnknown@@@Z 10008a40 f i ToneIndicator.obj
 0001:00007a80       ??8?$CComPtrBase@UIViewObjectEx@@@ATL@@QBE_NPAUIViewObjectEx@@@Z 10008a80 f i ToneIndicator.obj
 0001:00007ac0       ??8CComBSTR@ATL@@QBE_NH@Z  10008ac0 f i ToneIndicator.obj
 0001:00007b20       ??9?$CComPtrBase@UIAdviseSink@@@ATL@@QBE_NPAUIAdviseSink@@@Z 10008b20 f i ToneIndicator.obj
 0001:00007b70       ??9?$CComPtrBase@UIConnectionPointContainer@@@ATL@@QBE_NPAUIConnectionPointContainer@@@Z 10008b70 f i ToneIndicator.obj
 0001:00007bc0       ??9?$CComPtrBase@UIDataAdviseHolder@@@ATL@@QBE_NPAUIDataAdviseHolder@@@Z 10008bc0 f i ToneIndicator.obj
 0001:00007c10       ??9?$CComPtrBase@UIOleAdviseHolder@@@ATL@@QBE_NPAUIOleAdviseHolder@@@Z 10008c10 f i ToneIndicator.obj
 0001:00007c60       ??9?$CComPtrBase@UIOleClientSite@@@ATL@@QBE_NPAUIOleClientSite@@@Z 10008c60 f i ToneIndicator.obj
 0001:00007cb0       ??9?$CComPtrBase@UIOleControlSite@@@ATL@@QBE_NPAUIOleControlSite@@@Z 10008cb0 f i ToneIndicator.obj
 0001:00007d00       ??9?$CComPtrBase@UIOleInPlaceObject@@@ATL@@QBE_NPAUIOleInPlaceObject@@@Z 10008d00 f i ToneIndicator.obj
 0001:00007d50       ??9?$CComPtrBase@UIOleInPlaceSiteWindowless@@@ATL@@QBE_NPAUIOleInPlaceSiteWindowless@@@Z 10008d50 f i ToneIndicator.obj
 0001:00007da0       ??9?$CComPtrBase@UIOleObject@@@ATL@@QBE_NPAUIOleObject@@@Z 10008da0 f i ToneIndicator.obj
 0001:00007df0       ??9?$CComPtrBase@UIPersistStream@@@ATL@@QBE_NPAUIPersistStream@@@Z 10008df0 f i ToneIndicator.obj
 0001:00007e40       ??9?$CComPtrBase@UIPersistStreamInit@@@ATL@@QBE_NPAUIPersistStreamInit@@@Z 10008e40 f i ToneIndicator.obj
 0001:00007e90       ??9?$CComPtrBase@UIPointerInactive@@@ATL@@QBE_NPAUIPointerInactive@@@Z 10008e90 f i ToneIndicator.obj
 0001:00007ee0       ??9?$CComPtrBase@UIUnknown@@@ATL@@QBE_NPAUIUnknown@@@Z 10008ee0 f i ToneIndicator.obj
 0001:00007f30       ??9?$CComPtrBase@UIViewObjectEx@@@ATL@@QBE_NPAUIViewObjectEx@@@Z 10008f30 f i ToneIndicator.obj
 0001:00007f80       ??9CComBSTR@ATL@@QBE_NH@Z  10008f80 f i ToneIndicator.obj
 0001:00007fd0       ??B?$CComPtrBase@UIAdviseSink@@@ATL@@QBEPAUIAdviseSink@@XZ 10008fd0 f i ToneIndicator.obj
 0001:00007ff0       ??B?$CComPtrBase@UIDataAdviseHolder@@@ATL@@QBEPAUIDataAdviseHolder@@XZ 10008ff0 f i ToneIndicator.obj
 0001:00008010       ??B?$CComPtrBase@UIDataObject@@@ATL@@QBEPAUIDataObject@@XZ 10009010 f i ToneIndicator.obj
 0001:00008030       ??B?$CComPtrBase@UIOleAdviseHolder@@@ATL@@QBEPAUIOleAdviseHolder@@XZ 10009030 f i ToneIndicator.obj
 0001:00008050       ??B?$CComPtrBase@UIOleClientSite@@@ATL@@QBEPAUIOleClientSite@@XZ 10009050 f i ToneIndicator.obj
 0001:00008070       ??B?$CComPtrBase@UIOleControlSite@@@ATL@@QBEPAUIOleControlSite@@XZ 10009070 f i ToneIndicator.obj
 0001:00008090       ??B?$CComPtrBase@UIOleInPlaceActiveObject@@@ATL@@QBEPAUIOleInPlaceActiveObject@@XZ 10009090 f i ToneIndicator.obj
 0001:000080b0       ??B?$CComPtrBase@UIOleInPlaceFrame@@@ATL@@QBEPAUIOleInPlaceFrame@@XZ 100090b0 f i ToneIndicator.obj
 0001:000080d0       ??B?$CComPtrBase@UIOleInPlaceSiteWindowless@@@ATL@@QBEPAUIOleInPlaceSiteWindowless@@XZ 100090d0 f i ToneIndicator.obj
 0001:000080f0       ??B?$CComPtrBase@UIOleInPlaceUIWindow@@@ATL@@QBEPAUIOleInPlaceUIWindow@@XZ 100090f0 f i ToneIndicator.obj
 0001:00008110       ??B?$CComPtrBase@UIOleObject@@@ATL@@QBEPAUIOleObject@@XZ 10009110 f i ToneIndicator.obj
 0001:00008130       ??B?$CComPtrBase@UIPersistStream@@@ATL@@QBEPAUIPersistStream@@XZ 10009130 f i ToneIndicator.obj
 0001:00008150       ??B?$CComPtrBase@UIProvideClassInfo2@@@ATL@@QBEPAUIProvideClassInfo2@@XZ 10009150 f i ToneIndicator.obj
 0001:00008170       ??B?$CComPtrBase@UISpecifyPropertyPages@@@ATL@@QBEPAUISpecifyPropertyPages@@XZ 10009170 f i ToneIndicator.obj
 0001:00008190       ??B?$CComPtrBase@UIStream@@@ATL@@QBEPAUIStream@@XZ 10009190 f i ToneIndicator.obj
 0001:000081b0       ??B?$CComPtrBase@UITypeInfo2@@@ATL@@QBEPAUITypeInfo2@@XZ 100091b0 f i ToneIndicator.obj
 0001:000081d0       ??B?$CComPtrBase@UITypeInfo@@@ATL@@QBEPAUITypeInfo@@XZ 100091d0 f i ToneIndicator.obj
 0001:000081f0       ??B?$CComPtrBase@UITypeLib@@@ATL@@QBEPAUITypeLib@@XZ 100091f0 f i ToneIndicator.obj
 0001:00008210       ??B?$CComPtrBase@UIUnknown@@@ATL@@QBEPAUIUnknown@@XZ 10009210 f i ToneIndicator.obj
 0001:00008230       ??B?$CTempBuffer@E$0BAA@VCCRTAllocator@ATL@@@ATL@@QBEPAEXZ 10009230 f i ToneIndicator.obj
 0001:00008250       ??B?$CTempBuffer@_W$0BAA@VCCRTAllocator@ATL@@@ATL@@QBEPA_WXZ 10009250 f i ToneIndicator.obj
 0001:00008270       ??B?$CTempBuffer@_W$0EAA@VCCRTAllocator@ATL@@@ATL@@QBEPA_WXZ 10009270 f i ToneIndicator.obj
 0001:00008290       ??B?$CTraceCategoryEx@$00$0A@@ATL@@QAEIXZ 10009290 f i ToneIndicator.obj
 0001:000082b0       ??B?$CTraceCategoryEx@$07$0A@@ATL@@QAEIXZ 100092b0 f i ToneIndicator.obj
 0001:000082d0       ??B?$CTraceCategoryEx@$0CAAA@$0A@@ATL@@QAEIXZ 100092d0 f i ToneIndicator.obj
 0001:000082f0       ??B?$CTraceCategoryEx@$0EA@$0A@@ATL@@QAEIXZ 100092f0 f i ToneIndicator.obj
 0001:00008310       ??B?$CTraceCategoryEx@$0IAA@$0A@@ATL@@QAEIXZ 10009310 f i ToneIndicator.obj
 0001:00008330       ??BCComBSTR@ATL@@QBEPA_WXZ 10009330 f i ToneIndicator.obj
 0001:00008350       ??BCRegKey@ATL@@QBEPAUHKEY__@@XZ 10009350 f i ToneIndicator.obj
 0001:00008370       ??C?$CComPtrBase@UIAdviseSink@@@ATL@@QBEPAV?$_NoAddRefReleaseOnCComPtr@UIAdviseSink@@@1@XZ 10009370 f i ToneIndicator.obj
 0001:000083c0       ??C?$CComPtrBase@UICatRegister@@@ATL@@QBEPAV?$_NoAddRefReleaseOnCComPtr@UICatRegister@@@1@XZ 100093c0 f i ToneIndicator.obj
 0001:00008410       ??C?$CComPtrBase@UIConnectionPoint@@@ATL@@QBEPAV?$_NoAddRefReleaseOnCComPtr@UIConnectionPoint@@@1@XZ 10009410 f i ToneIndicator.obj
 0001:00008460       ??C?$CComPtrBase@UIConnectionPointContainer@@@ATL@@QBEPAV?$_NoAddRefReleaseOnCComPtr@UIConnectionPointContainer@@@1@XZ 10009460 f i ToneIndicator.obj
 0001:000084b0       ??C?$CComPtrBase@UIDataAdviseHolder@@@ATL@@QBEPAV?$_NoAddRefReleaseOnCComPtr@UIDataAdviseHolder@@@1@XZ 100094b0 f i ToneIndicator.obj
 0001:00008500       ??C?$CComPtrBase@UIOleAdviseHolder@@@ATL@@QBEPAV?$_NoAddRefReleaseOnCComPtr@UIOleAdviseHolder@@@1@XZ 10009500 f i ToneIndicator.obj
 0001:00008550       ??C?$CComPtrBase@UIOleClientSite@@@ATL@@QBEPAV?$_NoAddRefReleaseOnCComPtr@UIOleClientSite@@@1@XZ 10009550 f i ToneIndicator.obj
 0001:000085a0       ??C?$CComPtrBase@UIOleControlSite@@@ATL@@QBEPAV?$_NoAddRefReleaseOnCComPtr@UIOleControlSite@@@1@XZ 100095a0 f i ToneIndicator.obj
 0001:000085f0       ??C?$CComPtrBase@UIOleInPlaceFrame@@@ATL@@QBEPAV?$_NoAddRefReleaseOnCComPtr@UIOleInPlaceFrame@@@1@XZ 100095f0 f i ToneIndicator.obj
 0001:00008640       ??C?$CComPtrBase@UIOleInPlaceObject@@@ATL@@QBEPAV?$_NoAddRefReleaseOnCComPtr@UIOleInPlaceObject@@@1@XZ 10009640 f i ToneIndicator.obj
 0001:00008690       ??C?$CComPtrBase@UIOleInPlaceSiteWindowless@@@ATL@@QBEPAV?$_NoAddRefReleaseOnCComPtr@UIOleInPlaceSiteWindowless@@@1@XZ 10009690 f i ToneIndicator.obj
 0001:000086e0       ??C?$CComPtrBase@UIOleInPlaceUIWindow@@@ATL@@QBEPAV?$_NoAddRefReleaseOnCComPtr@UIOleInPlaceUIWindow@@@1@XZ 100096e0 f i ToneIndicator.obj
 0001:00008730       ??C?$CComPtrBase@UIOleObject@@@ATL@@QBEPAV?$_NoAddRefReleaseOnCComPtr@UIOleObject@@@1@XZ 10009730 f i ToneIndicator.obj
 0001:00008780       ??C?$CComPtrBase@UIPersistStream@@@ATL@@QBEPAV?$_NoAddRefReleaseOnCComPtr@UIPersistStream@@@1@XZ 10009780 f i ToneIndicator.obj
 0001:000087d0       ??C?$CComPtrBase@UIPersistStreamInit@@@ATL@@QBEPAV?$_NoAddRefReleaseOnCComPtr@UIPersistStreamInit@@@1@XZ 100097d0 f i ToneIndicator.obj
 0001:00008820       ??C?$CComPtrBase@UIPointerInactive@@@ATL@@QBEPAV?$_NoAddRefReleaseOnCComPtr@UIPointerInactive@@@1@XZ 10009820 f i ToneIndicator.obj
 0001:00008870       ??C?$CComPtrBase@UIProvideClassInfo2@@@ATL@@QBEPAV?$_NoAddRefReleaseOnCComPtr@UIProvideClassInfo2@@@1@XZ 10009870 f i ToneIndicator.obj
 0001:000088c0       ??C?$CComPtrBase@UISpecifyPropertyPages@@@ATL@@QBEPAV?$_NoAddRefReleaseOnCComPtr@UISpecifyPropertyPages@@@1@XZ 100098c0 f i ToneIndicator.obj
 0001:00008910       ??C?$CComPtrBase@UITypeInfo@@@ATL@@QBEPAV?$_NoAddRefReleaseOnCComPtr@UITypeInfo@@@1@XZ 10009910 f i ToneIndicator.obj
 0001:00008960       ??C?$CComPtrBase@UITypeLib@@@ATL@@QBEPAV?$_NoAddRefReleaseOnCComPtr@UITypeLib@@@1@XZ 10009960 f i ToneIndicator.obj
 0001:000089b0       ??C?$CComPtrBase@UIUnknown@@@ATL@@QBEPAV?$_NoAddRefReleaseOnCComPtr@UIUnknown@@@1@XZ 100099b0 f i ToneIndicator.obj
 0001:00008a00       ??C?$CComPtrBase@UIViewObjectEx@@@ATL@@QBEPAV?$_NoAddRefReleaseOnCComPtr@UIViewObjectEx@@@1@XZ 10009a00 f i ToneIndicator.obj
 0001:00008a50       ??I?$CComPtrBase@UICatRegister@@@ATL@@QAEPAPAUICatRegister@@XZ 10009a50 f i ToneIndicator.obj
 0001:00008aa0       ??I?$CComPtrBase@UIConnectionPoint@@@ATL@@QAEPAPAUIConnectionPoint@@XZ 10009aa0 f i ToneIndicator.obj
 0001:00008af0       ??I?$CComPtrBase@UIConnectionPointContainer@@@ATL@@QAEPAPAUIConnectionPointContainer@@XZ 10009af0 f i ToneIndicator.obj
 0001:00008b40       ??I?$CComPtrBase@UIDataAdviseHolder@@@ATL@@QAEPAPAUIDataAdviseHolder@@XZ 10009b40 f i ToneIndicator.obj
 0001:00008b90       ??I?$CComPtrBase@UIDataObject@@@ATL@@QAEPAPAUIDataObject@@XZ 10009b90 f i ToneIndicator.obj
 0001:00008be0       ??I?$CComPtrBase@UIDispatch@@@ATL@@QAEPAPAUIDispatch@@XZ 10009be0 f i ToneIndicator.obj
 0001:00008c30       ??I?$CComPtrBase@UIOleAdviseHolder@@@ATL@@QAEPAPAUIOleAdviseHolder@@XZ 10009c30 f i ToneIndicator.obj
 0001:00008c80       ??I?$CComPtrBase@UIOleControlSite@@@ATL@@QAEPAPAUIOleControlSite@@XZ 10009c80 f i ToneIndicator.obj
 0001:00008cd0       ??I?$CComPtrBase@UIOleInPlaceActiveObject@@@ATL@@QAEPAPAUIOleInPlaceActiveObject@@XZ 10009cd0 f i ToneIndicator.obj
 0001:00008d20       ??I?$CComPtrBase@UIOleInPlaceFrame@@@ATL@@QAEPAPAUIOleInPlaceFrame@@XZ 10009d20 f i ToneIndicator.obj
 0001:00008d70       ??I?$CComPtrBase@UIOleInPlaceObject@@@ATL@@QAEPAPAUIOleInPlaceObject@@XZ 10009d70 f i ToneIndicator.obj
 0001:00008dc0       ??I?$CComPtrBase@UIOleInPlaceSiteWindowless@@@ATL@@QAEPAPAUIOleInPlaceSiteWindowless@@XZ 10009dc0 f i ToneIndicator.obj
 0001:00008e10       ??I?$CComPtrBase@UIOleInPlaceUIWindow@@@ATL@@QAEPAPAUIOleInPlaceUIWindow@@XZ 10009e10 f i ToneIndicator.obj
 0001:00008e60       ??I?$CComPtrBase@UIOleObject@@@ATL@@QAEPAPAUIOleObject@@XZ 10009e60 f i ToneIndicator.obj
 0001:00008eb0       ??I?$CComPtrBase@UIPersistStream@@@ATL@@QAEPAPAUIPersistStream@@XZ 10009eb0 f i ToneIndicator.obj
 0001:00008f00       ??I?$CComPtrBase@UIPointerInactive@@@ATL@@QAEPAPAUIPointerInactive@@XZ 10009f00 f i ToneIndicator.obj
 0001:00008f50       ??I?$CComPtrBase@UIProvideClassInfo2@@@ATL@@QAEPAPAUIProvideClassInfo2@@XZ 10009f50 f i ToneIndicator.obj
 0001:00008fa0       ??I?$CComPtrBase@UIStream@@@ATL@@QAEPAPAUIStream@@XZ 10009fa0 f i ToneIndicator.obj
 0001:00008ff0       ??I?$CComPtrBase@UITypeInfo2@@@ATL@@QAEPAPAUITypeInfo2@@XZ 10009ff0 f i ToneIndicator.obj
 0001:00009040       ??I?$CComPtrBase@UITypeInfo@@@ATL@@QAEPAPAUITypeInfo@@XZ 1000a040 f i ToneIndicator.obj
 0001:00009090       ??I?$CComPtrBase@UITypeLib@@@ATL@@QAEPAPAUITypeLib@@XZ 1000a090 f i ToneIndicator.obj
 0001:000090e0       ??I?$CComPtrBase@UIUnknown@@@ATL@@QAEPAPAUIUnknown@@XZ 1000a0e0 f i ToneIndicator.obj
 0001:00009130       ??I?$CComPtrBase@UIViewObjectEx@@@ATL@@QAEPAPAUIViewObjectEx@@XZ 1000a130 f i ToneIndicator.obj
 0001:00009180       ??ICComBSTR@ATL@@QAEPAPA_WXZ 1000a180 f i ToneIndicator.obj
 0001:00009195       ??_E?$CComContainedObject@VCOPOSToneIndicator@@@ATL@@W3AEPAXI@Z 1000a195 f i ToneIndicator.obj
 0001:0000919d       ??_E?$CComContainedObject@VCOPOSToneIndicator@@@ATL@@WEM@AEPAXI@Z 1000a19d f i ToneIndicator.obj
 0001:000091a5       ??_E?$CComObject@VCOPOSToneIndicator@@@ATL@@W3AEPAXI@Z 1000a1a5 f i ToneIndicator.obj
 0001:000091ad       ??_E?$CComObject@VCOPOSToneIndicator@@@ATL@@WEM@AEPAXI@Z 1000a1ad f i ToneIndicator.obj
 0001:000091c0       ??_E?$CComAggObject@VCOPOSToneIndicator@@@ATL@@UAEPAXI@Z 1000a1c0 f i ToneIndicator.obj
 0001:000091c0       ??_G?$CComAggObject@VCOPOSToneIndicator@@@ATL@@UAEPAXI@Z 1000a1c0 f i ToneIndicator.obj
 0001:00009210       ??_E?$CComContainedObject@VCOPOSToneIndicator@@@ATL@@UAEPAXI@Z 1000a210 f i ToneIndicator.obj
 0001:00009210       ??_G?$CComContainedObject@VCOPOSToneIndicator@@@ATL@@UAEPAXI@Z 1000a210 f i ToneIndicator.obj
 0001:00009260       ??_G?$CComObject@V?$CComEnum@UIEnumConnectionPoints@@$1?_GUID_b196b285_bab4_101a_b69c_00aa00341d07@@3U__s_GUID@@BPAUIConnectionPoint@@V?$_CopyInterface@UIConnectionPoint@@@ATL@@VCComSingleThreadModel@6@@ATL@@@ATL@@UAEPAXI@Z 1000a260 f i ToneIndicator.obj
 0001:00009260       ??_E?$CComObject@V?$CComEnum@UIEnumConnectionPoints@@$1?_GUID_b196b285_bab4_101a_b69c_00aa00341d07@@3U__s_GUID@@BPAUIConnectionPoint@@V?$_CopyInterface@UIConnectionPoint@@@ATL@@VCComSingleThreadModel@6@@ATL@@@ATL@@UAEPAXI@Z 1000a260 f i ToneIndicator.obj
 0001:000092a0       ??_G?$CComObject@V?$CComEnum@UIEnumConnections@@$1?_GUID_b196b287_bab4_101a_b69c_00aa00341d07@@3U__s_GUID@@BUtagCONNECTDATA@@V?$_Copy@UtagCONNECTDATA@@@ATL@@VCComSingleThreadModel@6@@ATL@@@ATL@@UAEPAXI@Z 1000a2a0 f i ToneIndicator.obj
 0001:000092a0       ??_E?$CComObject@V?$CComEnum@UIEnumConnections@@$1?_GUID_b196b287_bab4_101a_b69c_00aa00341d07@@3U__s_GUID@@BUtagCONNECTDATA@@V?$_Copy@UtagCONNECTDATA@@@ATL@@VCComSingleThreadModel@6@@ATL@@@ATL@@UAEPAXI@Z 1000a2a0 f i ToneIndicator.obj
 0001:000092e0       ??_G?$CComObject@VCOPOSToneIndicator@@@ATL@@UAEPAXI@Z 1000a2e0 f i ToneIndicator.obj
 0001:000092e0       ??_E?$CComObject@VCOPOSToneIndicator@@@ATL@@UAEPAXI@Z 1000a2e0 f i ToneIndicator.obj
 0001:00009330       ??_E?$CComObjectCached@VCComClassFactory@ATL@@@ATL@@UAEPAXI@Z 1000a330 f i ToneIndicator.obj
 0001:00009330       ??_G?$CComObjectCached@VCComClassFactory@ATL@@@ATL@@UAEPAXI@Z 1000a330 f i ToneIndicator.obj
 0001:00009370       ??_GCComClassFactory@ATL@@UAEPAXI@Z 1000a370 f i ToneIndicator.obj
 0001:00009370       ??_ECComClassFactory@ATL@@UAEPAXI@Z 1000a370 f i ToneIndicator.obj
 0001:000093b0       ??_ECComModule@ATL@@UAEPAXI@Z 1000a3b0 f i ToneIndicator.obj
 0001:000093b0       ??_GCComModule@ATL@@UAEPAXI@Z 1000a3b0 f i ToneIndicator.obj
 0001:000093f0       ??_GCRegObject@ATL@@UAEPAXI@Z 1000a3f0 f i ToneIndicator.obj
 0001:000093f0       ??_ECRegObject@ATL@@UAEPAXI@Z 1000a3f0 f i ToneIndicator.obj
 0001:00009430       ?Add@?$CSimpleArray@GV?$CSimpleArrayEqualHelper@G@ATL@@@ATL@@QAEHABG@Z 1000a430 f i ToneIndicator.obj
 0001:00009580       ?Add@?$CSimpleMap@PA_WPA_WVCExpansionVectorEqualHelper@ATL@@@ATL@@QAEHABQA_W0@Z 1000a580 f i ToneIndicator.obj
 0001:00009640       ?Add@CComDynamicUnkArray@ATL@@QAEKPAUIUnknown@@@Z 1000a640 f i ToneIndicator.obj
 0001:000097e0       ?Add@CExpansionVector@ATL@@QAEHPB_W0@Z 1000a7e0 f i ToneIndicator.obj
 0001:00009a70       ?AddChar@CParseBuffer@CRegParser@ATL@@QAEHPB_W@Z 1000aa70 f i ToneIndicator.obj
 0001:00009ab0       ?AddCommonRGSReplacements@?$CAtlModuleT@VCComModule@ATL@@@ATL@@UAEJPAUIRegistrarBase@@@Z 1000aab0 f i ToneIndicator.obj
 0001:00009b00       ?AddCreateWndData@CAtlWinModule@ATL@@QAEXPAU_AtlCreateWndData@2@PAX@Z 1000ab00 f i ToneIndicator.obj
 0001:00009b30       ?AddRef@?$CComAggObject@VCOPOSToneIndicator@@@ATL@@UAGKXZ 1000ab30 f i ToneIndicator.obj
 0001:00009b50       ?AddRef@?$CComContainedObject@VCOPOSToneIndicator@@@ATL@@UAGKXZ 1000ab50 f i ToneIndicator.obj
 0001:00009b6c       ?AddRef@?$CComContainedObject@VCOPOSToneIndicator@@@ATL@@WHA@AGKXZ 1000ab6c f i ToneIndicator.obj
 0001:00009b76       ?AddRef@?$CComContainedObject@VCOPOSToneIndicator@@@ATL@@WHE@AGKXZ 1000ab76 f i ToneIndicator.obj
 0001:00009b80       ?AddRef@?$CComContainedObject@VCOPOSToneIndicator@@@ATL@@WHI@AGKXZ 1000ab80 f i ToneIndicator.obj
 0001:00009b8a       ?AddRef@?$CComContainedObject@VCOPOSToneIndicator@@@ATL@@WHM@AGKXZ 1000ab8a f i ToneIndicator.obj
 0001:00009b94       ?AddRef@?$CComContainedObject@VCOPOSToneIndicator@@@ATL@@WIA@AGKXZ 1000ab94 f i ToneIndicator.obj
 0001:00009ba1       ?AddRef@?$CComContainedObject@VCOPOSToneIndicator@@@ATL@@WIE@AGKXZ 1000aba1 f i ToneIndicator.obj
 0001:00009bae       ?AddRef@?$CComContainedObject@VCOPOSToneIndicator@@@ATL@@WII@AGKXZ 1000abae f i ToneIndicator.obj
 0001:00009bbb       ?AddRef@?$CComContainedObject@VCOPOSToneIndicator@@@ATL@@WIM@AGKXZ 1000abbb f i ToneIndicator.obj
 0001:00009bc8       ?AddRef@?$CComContainedObject@VCOPOSToneIndicator@@@ATL@@WJA@AGKXZ 1000abc8 f i ToneIndicator.obj
 0001:00009bd5       ?AddRef@?$CComContainedObject@VCOPOSToneIndicator@@@ATL@@WJE@AGKXZ 1000abd5 f i ToneIndicator.obj
 0001:00009be2       ?AddRef@?$CComContainedObject@VCOPOSToneIndicator@@@ATL@@WJI@AGKXZ 1000abe2 f i ToneIndicator.obj
 0001:00009bef       ?AddRef@?$CComContainedObject@VCOPOSToneIndicator@@@ATL@@WJM@AGKXZ 1000abef f i ToneIndicator.obj
 0001:00009bfc       ?AddRef@?$CComContainedObject@VCOPOSToneIndicator@@@ATL@@WKA@AGKXZ 1000abfc f i ToneIndicator.obj
 0001:00009c09       ?AddRef@?$CComContainedObject@VCOPOSToneIndicator@@@ATL@@WKI@AGKXZ 1000ac09 f i ToneIndicator.obj
 0001:00009c16       ?AddRef@?$CComContainedObject@VCOPOSToneIndicator@@@ATL@@WLE@AGKXZ 1000ac16 f i ToneIndicator.obj
 0001:00009c30       ?AddRef@?$CComObject@V?$CComEnum@UIEnumConnectionPoints@@$1?_GUID_b196b285_bab4_101a_b69c_00aa00341d07@@3U__s_GUID@@BPAUIConnectionPoint@@V?$_CopyInterface@UIConnectionPoint@@@ATL@@VCComSingleThreadModel@6@@ATL@@@ATL@@UAGKXZ 1000ac30 f i ToneIndicator.obj
 0001:00009c50       ?AddRef@?$CComObject@V?$CComEnum@UIEnumConnections@@$1?_GUID_b196b287_bab4_101a_b69c_00aa00341d07@@3U__s_GUID@@BUtagCONNECTDATA@@V?$_Copy@UtagCONNECTDATA@@@ATL@@VCComSingleThreadModel@6@@ATL@@@ATL@@UAGKXZ 1000ac50 f i ToneIndicator.obj
 0001:00009c70       ?AddRef@?$CComObject@VCOPOSToneIndicator@@@ATL@@UAGKXZ 1000ac70 f i ToneIndicator.obj
 0001:00009c8c       ?AddRef@?$CComObject@VCOPOSToneIndicator@@@ATL@@WHA@AGKXZ 1000ac8c f i ToneIndicator.obj
 0001:00009c96       ?AddRef@?$CComObject@VCOPOSToneIndicator@@@ATL@@WHE@AGKXZ 1000ac96 f i ToneIndicator.obj
 0001:00009ca0       ?AddRef@?$CComObject@VCOPOSToneIndicator@@@ATL@@WHI@AGKXZ 1000aca0 f i ToneIndicator.obj
 0001:00009caa       ?AddRef@?$CComObject@VCOPOSToneIndicator@@@ATL@@WHM@AGKXZ 1000acaa f i ToneIndicator.obj
 0001:00009cb4       ?AddRef@?$CComObject@VCOPOSToneIndicator@@@ATL@@WIA@AGKXZ 1000acb4 f i ToneIndicator.obj
 0001:00009cc1       ?AddRef@?$CComObject@VCOPOSToneIndicator@@@ATL@@WIE@AGKXZ 1000acc1 f i ToneIndicator.obj
 0001:00009cce       ?AddRef@?$CComObject@VCOPOSToneIndicator@@@ATL@@WII@AGKXZ 1000acce f i ToneIndicator.obj
 0001:00009cdb       ?AddRef@?$CComObject@VCOPOSToneIndicator@@@ATL@@WIM@AGKXZ 1000acdb f i ToneIndicator.obj
 0001:00009ce8       ?AddRef@?$CComObject@VCOPOSToneIndicator@@@ATL@@WJA@AGKXZ 1000ace8 f i ToneIndicator.obj
 0001:00009cf5       ?AddRef@?$CComObject@VCOPOSToneIndicator@@@ATL@@WJE@AGKXZ 1000acf5 f i ToneIndicator.obj
 0001:00009d02       ?AddRef@?$CComObject@VCOPOSToneIndicator@@@ATL@@WJI@AGKXZ 1000ad02 f i ToneIndicator.obj
 0001:00009d0f       ?AddRef@?$CComObject@VCOPOSToneIndicator@@@ATL@@WJM@AGKXZ 1000ad0f f i ToneIndicator.obj
 0001:00009d1c       ?AddRef@?$CComObject@VCOPOSToneIndicator@@@ATL@@WKA@AGKXZ 1000ad1c f i ToneIndicator.obj
 0001:00009d29       ?AddRef@?$CComObject@VCOPOSToneIndicator@@@ATL@@WKI@AGKXZ 1000ad29 f i ToneIndicator.obj
 0001:00009d36       ?AddRef@?$CComObject@VCOPOSToneIndicator@@@ATL@@WLE@AGKXZ 1000ad36 f i ToneIndicator.obj
 0001:00009d50       ?AddRef@?$CComObjectCached@VCComClassFactory@ATL@@@ATL@@UAGKXZ 1000ad50 f i ToneIndicator.obj
 0001:00009da0       ?AddRef@CRegObject@ATL@@UAGKXZ 1000ada0 f i ToneIndicator.obj
 0001:00009df0       ?AddReplacement@CRegObject@ATL@@UAGJPB_W0@Z 1000adf0 f i ToneIndicator.obj
 0001:00009f00       ?AddString@CParseBuffer@CRegParser@ATL@@QAEHPB_W@Z 1000af00 f i ToneIndicator.obj
 0001:00009ff0       ?AddTermFunc@CAtlModule@ATL@@QAEJP6GXK@ZK@Z 1000aff0 f i ToneIndicator.obj
 0001:0000a040       ?AddValue@CRegParser@ATL@@IAEJAAVCRegKey@2@PB_WPA_W@Z 1000b040 f i ToneIndicator.obj
 0001:0000a7d0       ?Advise@?$CProxy_IOPOSEvents@VCOPOSToneIndicator@@@@UAGJPAUIUnknown@@PAK@Z 1000b7d0 f i ToneIndicator.obj
 0001:0000a820       ?Advise@?$IConnectionPointImpl@VCOPOSToneIndicator@@$1?DIID__IOPOSToneIndicatorEvents@@3U_GUID@@BVCComDynamicUnkArray@ATL@@@ATL@@UAGJPAUIUnknown@@PAK@Z 1000b820 f i ToneIndicator.obj
 0001:0000a9c0       ?Advise@?$IConnectionPointImpl@VCOPOSToneIndicator@@$1?IID_IPropertyNotifySink@@3U_GUID@@BVCComDynamicUnkArray@ATL@@@ATL@@UAGJPAUIUnknown@@PAK@Z 1000b9c0 f i ToneIndicator.obj
 0001:0000ab60       ?Advise@?$IOleObjectImpl@VCOPOSToneIndicator@@@ATL@@UAGJPAUIAdviseSink@@PAK@Z 1000bb60 f i ToneIndicator.obj
 0001:0000abf0       ?Allocate@?$CAtlSafeAllocBufferManager@VCCRTAllocator@ATL@@@_ATL_SAFE_ALLOCA_IMPL@ATL@@QAEPAXK@Z 1000bbf0 f i ToneIndicator.obj
 0001:0000ac60       ?Allocate@?$CTempBuffer@E$0BAA@VCCRTAllocator@ATL@@@ATL@@QAEPAEI@Z 1000bc60 f i ToneIndicator.obj
 0001:0000aca0       ?Allocate@?$CTempBuffer@_W$0BAA@VCCRTAllocator@ATL@@@ATL@@QAEPA_WI@Z 1000bca0 f i ToneIndicator.obj
 0001:0000ace0       ?Allocate@?$CTempBuffer@_W$0EAA@VCCRTAllocator@ATL@@@ATL@@QAEPA_WI@Z 1000bce0 f i ToneIndicator.obj
 0001:0000ad20       ?AllocateBytes@?$CTempBuffer@E$0BAA@VCCRTAllocator@ATL@@@ATL@@QAEPAEI@Z 1000bd20 f i ToneIndicator.obj
 0001:0000ada0       ?AllocateBytes@?$CTempBuffer@_W$0BAA@VCCRTAllocator@ATL@@@ATL@@QAEPA_WI@Z 1000bda0 f i ToneIndicator.obj
 0001:0000ae20       ?AllocateBytes@?$CTempBuffer@_W$0EAA@VCCRTAllocator@ATL@@@ATL@@QAEPA_WI@Z 1000be20 f i ToneIndicator.obj
 0001:0000aea0       ?AllocateHeap@?$CTempBuffer@E$0BAA@VCCRTAllocator@ATL@@@ATL@@AAEXI@Z 1000bea0 f i ToneIndicator.obj
 0001:0000aef0       ?AllocateHeap@?$CTempBuffer@_W$0BAA@VCCRTAllocator@ATL@@@ATL@@AAEXI@Z 1000bef0 f i ToneIndicator.obj
 0001:0000af40       ?AllocateHeap@?$CTempBuffer@_W$0EAA@VCCRTAllocator@ATL@@@ATL@@AAEXI@Z 1000bf40 f i ToneIndicator.obj
 0001:0000af90       ?Append@CParseBuffer@CRegParser@ATL@@QAEHPB_WH@Z 1000bf90 f i ToneIndicator.obj
 0001:0000b130       ?AtlCallTermFunc@ATL@@YGXPAU_ATL_MODULE70@1@@Z 1000c130 f i ToneIndicator.obj
 0001:0000b1d0       ?AtlCoTaskMemCAlloc@ATL@@YAPAXKK@Z 1000c1d0 f i ToneIndicator.obj
 0001:0000b260       ?AtlCoTaskMemRecalloc@ATL@@YAPAXPAXKK@Z 1000c260 f i ToneIndicator.obj
 0001:0000b300       ?AtlComModuleGetClassObject@ATL@@YGJPAU_ATL_COM_MODULE70@1@ABU_GUID@@1PAPAX@Z 1000c300 f i ToneIndicator.obj
 0001:0000b590       ?AtlComModuleRegisterServer@ATL@@YGJPAU_ATL_COM_MODULE70@1@HPBU_GUID@@@Z 1000c590 f i ToneIndicator.obj
 0001:0000b720       ?AtlComModuleUnregisterServer@ATL@@YGJPAU_ATL_COM_MODULE70@1@HPBU_GUID@@@Z 1000c720 f i ToneIndicator.obj
 0001:0000b850       ?AtlComQIPtrAssign2@ATL@@YAXPAPAUIUnknown@@PAU2@ABU_GUID@@@Z 1000c850 f i ToneIndicator.obj
 0001:0000b8d0       ?AtlCreateTargetDC@ATL@@YGPAUHDC__@@PAU2@PAUtagDVTARGETDEVICE@@@Z 1000c8d0 f i ToneIndicator.obj
 0001:0000ba70       ?AtlCrtErrorCheck@ATL@@YAHH@Z 1000ca70 f i ToneIndicator.obj
 0001:0000bb40       ?AtlGetPerUserRegistration@ATL@@YGJPA_N@Z 1000cb40 f i ToneIndicator.obj
 0001:0000bb70       ?AtlHiMetricToPixel@ATL@@YGXPBUtagSIZE@@PAU2@@Z 1000cb70 f i ToneIndicator.obj
 0001:0000bd40       ?AtlHresultFromLastError@ATL@@YAJXZ 1000cd40 f i ToneIndicator.obj
 0001:0000bd80       ?AtlHresultFromWin32@ATL@@YAJK@Z 1000cd80 f i ToneIndicator.obj
 0001:0000bda0       ?AtlIPersistStreamInit_Load@ATL@@YGJPAUIStream@@PBUATL_PROPMAP_ENTRY@1@PAXPAUIUnknown@@@Z 1000cda0 f i ToneIndicator.obj
 0001:0000c200       ?AtlIPersistStreamInit_Save@ATL@@YGJPAUIStream@@HPBUATL_PROPMAP_ENTRY@1@PAXPAUIUnknown@@@Z 1000d200 f i ToneIndicator.obj
 0001:0000c5e0       ?AtlInternalOleLoadFromStream@ATL@@YAJPAUIStream@@ABU_GUID@@PAPAXTClassesAllowedInStream@1@K@Z 1000d5e0 f i ToneIndicator.obj
 0001:0000c880       ?AtlInternalQueryInterface@ATL@@YGJPAXPBU_ATL_INTMAP_ENTRY@1@ABU_GUID@@PAPAX@Z 1000d880 f i ToneIndicator.obj
 0001:0000cab0       ?AtlLoadTypeLib@ATL@@YGJPAUHINSTANCE__@@PB_WPAPA_WPAPAUITypeLib@@@Z 1000dab0 f i ToneIndicator.obj
 0001:0000cf10       ?AtlModuleAddTermFunc@ATL@@YGJPAU_ATL_MODULE70@1@P6GXK@ZK@Z 1000df10 f i ToneIndicator.obj
 0001:0000d070       ?AtlRegisterClassCategoriesHelper@ATL@@YGJABU_GUID@@PBU_ATL_CATMAP_ENTRY@1@H@Z 1000e070 f i ToneIndicator.obj
 0001:0000d750       ?AtlRegisterTypeLib@ATL@@YGJPAUHINSTANCE__@@PB_W@Z 1000e750 f i ToneIndicator.obj
 0001:0000da90       ?AtlThrowImpl@ATL@@YGXJ@Z  1000ea90 f i ToneIndicator.obj
 0001:0000db40       ?AtlUnRegisterTypeLib@ATL@@YGJPAUHINSTANCE__@@PB_W@Z 1000eb40 f i ToneIndicator.obj
 0001:0000dd50       ?AtlWinModuleAddCreateWndData@ATL@@YGXPAU_ATL_WIN_MODULE70@1@PAU_AtlCreateWndData@1@PAX@Z 1000ed50 f i ToneIndicator.obj
 0001:0000dec0       ?AtlWinModuleExtractCreateWndData@ATL@@YGPAXPAU_ATL_WIN_MODULE70@1@@Z 1000eec0 f i ToneIndicator.obj
 0001:0000e040       ?AtlWinModuleRegisterClassExW@ATL@@YGGPAU_ATL_WIN_MODULE70@1@PBUtagWNDCLASSEXW@@@Z 1000f040 f i ToneIndicator.obj
 0001:0000e110       ?AtlWinModuleRegisterWndClassInfoW@ATL@@YGGPAU_ATL_WIN_MODULE70@1@PAU_ATL_BASE_MODULE70@1@PAU_ATL_WNDCLASSINFOW@1@PAP6GJPAUHWND__@@IIJ@Z@Z 1000f110 f i ToneIndicator.obj
 0001:0000e1a0       ?Attach@?$CAutoVectorPtr@_W@ATL@@QAEXPA_W@Z 1000f1a0 f i ToneIndicator.obj
 0001:0000e200       ?Attach@CComBSTR@ATL@@QAEXPA_W@Z 1000f200 f i ToneIndicator.obj
 0001:0000e250       ?Attach@CRegKey@ATL@@QAEXPAUHKEY__@@@Z 1000f250 f i ToneIndicator.obj
 0001:0000e2c0       ?CanForceRemoveKey@CRegParser@ATL@@IAEHPB_W@Z 1000f2c0 f i ToneIndicator.obj
 0001:0000e330       ?ChToByte@CRegParser@ATL@@KAE_W@Z 1000f330 f i ToneIndicator.obj
 0001:0000e450       ?ChangeType@CComVariant@ATL@@QAEJGPBUtagVARIANT@@@Z 1000f450 f i ToneIndicator.obj
 0001:0000e4b0       ?Cleanup@CComTypeInfoHolder@ATL@@SGXK@Z 1000f4b0 f i ToneIndicator.obj
 0001:0000e580       ?Clear@CComVariant@ATL@@QAEJXZ 1000f580 f i ToneIndicator.obj
 0001:0000e5c0       ?ClearReplacements@CExpansionVector@ATL@@QAEJXZ 1000f5c0 f i ToneIndicator.obj
 0001:0000e650       ?ClearReplacements@CRegObject@ATL@@UAGJXZ 1000f650 f i ToneIndicator.obj
 0001:0000e6a0       ?Clone@?$CComEnumImpl@UIEnumConnectionPoints@@$1?_GUID_b196b285_bab4_101a_b69c_00aa00341d07@@3U__s_GUID@@BPAUIConnectionPoint@@V?$_CopyInterface@UIConnectionPoint@@@ATL@@@ATL@@UAGJPAPAUIEnumConnectionPoints@@@Z 1000f6a0 f i ToneIndicator.obj
 0001:0000e810       ?Clone@?$CComEnumImpl@UIEnumConnections@@$1?_GUID_b196b287_bab4_101a_b69c_00aa00341d07@@3U__s_GUID@@BUtagCONNECTDATA@@V?$_Copy@UtagCONNECTDATA@@@ATL@@@ATL@@UAGJPAPAUIEnumConnections@@@Z 1000f810 f i ToneIndicator.obj
 0001:0000e980       ?Close@?$IOleObjectImpl@VCOPOSToneIndicator@@@ATL@@UAGJK@Z 1000f980 f i ToneIndicator.obj
 0001:0000ea10       ?Close@CRegKey@ATL@@QAEJXZ 1000fa10 f i ToneIndicator.obj
 0001:0000ea80       ?ContextSensitiveHelp@?$IOleInPlaceActiveObjectImpl@VCOPOSToneIndicator@@@ATL@@UAGJH@Z 1000fa80 f i ToneIndicator.obj
 0001:0000eaf0       ?ContextSensitiveHelp@?$IOleInPlaceObjectWindowlessImpl@VCOPOSToneIndicator@@@ATL@@UAGJH@Z 1000faf0 f i ToneIndicator.obj
 0001:0000eb60       ?ControlQueryInterface@?$CComControl@VCOPOSToneIndicator@@V?$CWindowImpl@VCOPOSToneIndicator@@VCWindow@ATL@@V?$CWinTraits@$0FGAAAAAA@$0A@@3@@ATL@@@ATL@@UAEJABU_GUID@@PAPAX@Z 1000fb60 f i ToneIndicator.obj
 0001:0000ebe0       ?CreateControlWindow@?$CComControl@VCOPOSToneIndicator@@V?$CWindowImpl@VCOPOSToneIndicator@@VCWindow@ATL@@V?$CWinTraits@$0FGAAAAAA@$0A@@3@@ATL@@@ATL@@UAEPAUHWND__@@PAU3@AAUtagRECT@@@Z 1000fbe0 f i ToneIndicator.obj
 0001:0000ec60       ?CreateInstance@?$CComCreator@V?$CComAggObject@VCOPOSToneIndicator@@@ATL@@@ATL@@SGJPAXABU_GUID@@PAPAX@Z 1000fc60 f i ToneIndicator.obj
 0001:0000ede0       ?CreateInstance@?$CComCreator@V?$CComObject@VCOPOSToneIndicator@@@ATL@@@ATL@@SGJPAXABU_GUID@@PAPAX@Z 1000fde0 f i ToneIndicator.obj
 0001:0000ef70       ?CreateInstance@?$CComObject@V?$CComEnum@UIEnumConnectionPoints@@$1?_GUID_b196b285_bab4_101a_b69c_00aa00341d07@@3U__s_GUID@@BPAUIConnectionPoint@@V?$_CopyInterface@UIConnectionPoint@@@ATL@@VCComSingleThreadModel@6@@ATL@@@ATL@@SGJPAPAV12@@Z 1000ff70 f i ToneIndicator.obj
 0001:0000f0e0       ?CreateInstance@?$CComObject@V?$CComEnum@UIEnumConnections@@$1?_GUID_b196b287_bab4_101a_b69c_00aa00341d07@@3U__s_GUID@@BUtagCONNECTDATA@@V?$_Copy@UtagCONNECTDATA@@@ATL@@VCComSingleThreadModel@6@@ATL@@@ATL@@SGJPAPAV12@@Z 100100e0 f i ToneIndicator.obj
 0001:0000f250       ?CreateInstance@CComClassFactory@ATL@@UAGJPAUIUnknown@@ABU_GUID@@PAPAX@Z 10010250 f i ToneIndicator.obj
 0001:0000f340       ?DAdvise@?$IDataObjectImpl@VCOPOSToneIndicator@@@ATL@@UAGJPAUtagFORMATETC@@KPAUIAdviseSink@@PAK@Z 10010340 f i ToneIndicator.obj
 0001:0000f440       ?DEVMODEOLE2T_EX@@YAPAU_devicemodeW@@PAU1@@Z 10010440 f i ToneIndicator.obj
 0001:0000f450       ?DUnadvise@?$IDataObjectImpl@VCOPOSToneIndicator@@@ATL@@UAGJK@Z 10010450 f i ToneIndicator.obj
 0001:0000f520       ?Decrement@CComMultiThreadModel@ATL@@SGKPAJ@Z 10010520 f i ToneIndicator.obj
 0001:0000f540       ?Decrement@CComSingleThreadModel@ATL@@SGKPAJ@Z 10010540 f i ToneIndicator.obj
 0001:0000f560       ?DefWindowProcW@?$CWindowImplBaseT@VCWindow@ATL@@V?$CWinTraits@$0FGAAAAAA@$0A@@2@@ATL@@QAEJIIJ@Z 10010560 f i ToneIndicator.obj
 0001:0000f5b0       ?DefaultReflectionHandler@?$CWindowImplRoot@VCWindow@ATL@@@ATL@@SAHPAUHWND__@@IIJAAJ@Z 100105b0 f i ToneIndicator.obj
 0001:0000f7a0       ?DeleteSubKey@CRegKey@ATL@@QAEJPB_W@Z 100107a0 f i ToneIndicator.obj
 0001:0000f8b0       ?DeleteValue@CRegKey@ATL@@QAEJPB_W@Z 100108b0 f i ToneIndicator.obj
 0001:0000f920       ?Detach@?$CAutoVectorPtr@_W@ATL@@QAEPA_WXZ 10010920 f i ToneIndicator.obj
 0001:0000f950       ?Detach@?$CComPtrBase@UIPersistStream@@@ATL@@QAEPAUIPersistStream@@XZ 10010950 f i ToneIndicator.obj
 0001:0000f980       ?Detach@?$CComPtrBase@UITypeInfo@@@ATL@@QAEPAUITypeInfo@@XZ 10010980 f i ToneIndicator.obj
 0001:0000f9b0       ?Detach@?$CComPtrBase@UIUnknown@@@ATL@@QAEPAUIUnknown@@XZ 100109b0 f i ToneIndicator.obj
 0001:0000f9e0       ?Detach@CComBSTR@ATL@@QAEPA_WXZ 100109e0 f i ToneIndicator.obj
 0001:0000fa10       ?Detach@CParseBuffer@CRegParser@ATL@@QAEPA_WXZ 10010a10 f i ToneIndicator.obj
 0001:0000fa60       ?Detach@CRegKey@ATL@@QAEPAUHKEY__@@XZ 10010a60 f i ToneIndicator.obj
 0001:0000fab0       ?DoEvent@COPOSToneIndicator@@IAEXIIJ@Z 10010ab0 f i ToneIndicator.obj
 0001:0000fbf0       ?DoVerb@?$IOleObjectImpl@VCOPOSToneIndicator@@@ATL@@UAGJJPAUtagMSG@@PAUIOleClientSite@@JPAUHWND__@@PBUtagRECT@@@Z 10010bf0 f i ToneIndicator.obj
 0001:0000fe00       ?DoVerbDiscardUndo@?$IOleObjectImpl@VCOPOSToneIndicator@@@ATL@@QAEJPBUtagRECT@@PAUHWND__@@@Z 10010e00 f i ToneIndicator.obj
 0001:0000fe70       ?DoVerbHide@?$IOleObjectImpl@VCOPOSToneIndicator@@@ATL@@QAEJPBUtagRECT@@PAUHWND__@@@Z 10010e70 f i ToneIndicator.obj
 0001:0000ff20       ?DoVerbInPlaceActivate@?$IOleObjectImpl@VCOPOSToneIndicator@@@ATL@@QAEJPBUtagRECT@@PAUHWND__@@@Z 10010f20 f i ToneIndicator.obj
 0001:0000ffc0       ?DoVerbOpen@?$IOleObjectImpl@VCOPOSToneIndicator@@@ATL@@QAEJPBUtagRECT@@PAUHWND__@@@Z 10010fc0 f i ToneIndicator.obj
 0001:00010030       ?DoVerbPrimary@?$IOleObjectImpl@VCOPOSToneIndicator@@@ATL@@QAEJPBUtagRECT@@PAUHWND__@@@Z 10011030 f i ToneIndicator.obj
 0001:00010140       ?DoVerbProperties@CComControlBase@ATL@@QAEJPBUtagRECT@@PAUHWND__@@@Z 10011140 f i ToneIndicator.obj
 0001:00010460       ?DoVerbShow@?$IOleObjectImpl@VCOPOSToneIndicator@@@ATL@@QAEJPBUtagRECT@@PAUHWND__@@@Z 10011460 f i ToneIndicator.obj
 0001:000104f0       ?DoVerbUIActivate@?$IOleObjectImpl@VCOPOSToneIndicator@@@ATL@@QAEJPBUtagRECT@@PAUHWND__@@@Z 100114f0 f i ToneIndicator.obj
 0001:00010590       ?DoesVerbActivate@CComControlBase@ATL@@QAEHJ@Z 10011590 f i ToneIndicator.obj
 0001:00010600       ?DoesVerbUIActivate@CComControlBase@ATL@@QAEHJ@Z 10011600 f i ToneIndicator.obj
 0001:00010680       ?Draw@?$IViewObjectExImpl@VCOPOSToneIndicator@@@ATL@@UAGJKJPAXPAUtagDVTARGETDEVICE@@PAUHDC__@@2PBU_RECTL@@3P6GHK@ZK@Z 10011680 f i ToneIndicator.obj
 0001:00010720       ?Empty@CComBSTR@ATL@@QAEXXZ 10011720 f i ToneIndicator.obj
 0001:00010760       ?EnableModeless@?$IOleInPlaceActiveObjectImpl@VCOPOSToneIndicator@@@ATL@@UAGJH@Z 10011760 f i ToneIndicator.obj
 0001:000107c0       ?EndOfVar@CRegParser@ATL@@IAEHXZ 100117c0 f i ToneIndicator.obj
 0001:00010830       ?EnsureTI@CComTypeInfoHolder@ATL@@QAEJK@Z 10011830 f i ToneIndicator.obj
 0001:00010890       ?EnumAdvise@?$IOleObjectImpl@VCOPOSToneIndicator@@@ATL@@UAGJPAPAUIEnumSTATDATA@@@Z 10011890 f i ToneIndicator.obj
 0001:000109a0       ?EnumConnectionPoints@?$IConnectionPointContainerImpl@VCOPOSToneIndicator@@@ATL@@UAGJPAPAUIEnumConnectionPoints@@@Z 100119a0 f i ToneIndicator.obj
 0001:00010dd0       ?EnumConnections@?$IConnectionPointImpl@VCOPOSToneIndicator@@$1?DIID__IOPOSToneIndicatorEvents@@3U_GUID@@BVCComDynamicUnkArray@ATL@@@ATL@@UAGJPAPAUIEnumConnections@@@Z 10011dd0 f i ToneIndicator.obj
 0001:00011020       ?EnumConnections@?$IConnectionPointImpl@VCOPOSToneIndicator@@$1?IID_IPropertyNotifySink@@3U_GUID@@BVCComDynamicUnkArray@ATL@@@ATL@@UAGJPAPAUIEnumConnections@@@Z 10012020 f i ToneIndicator.obj
 0001:00011270       ?EnumDAdvise@?$IDataObjectImpl@VCOPOSToneIndicator@@@ATL@@UAGJPAPAUIEnumSTATDATA@@@Z 10012270 f i ToneIndicator.obj
 0001:00011370       ?EnumFormatEtc@?$IDataObjectImpl@VCOPOSToneIndicator@@@ATL@@UAGJKPAPAUIEnumFORMATETC@@@Z 10012370 f i ToneIndicator.obj
 0001:000113e0       ?EnumVerbs@?$IOleObjectImpl@VCOPOSToneIndicator@@@ATL@@UAGJPAPAUIEnumOLEVERB@@@Z 100123e0 f i ToneIndicator.obj
 0001:00011490       ?EscapeSingleQuote@CAtlModule@ATL@@SAXPA_WIPB_W@Z 10012490 f i ToneIndicator.obj
 0001:00011540       ?ExtractCreateWndData@CAtlWinModule@ATL@@QAEPAXXZ 10012540 f i ToneIndicator.obj
 0001:00011570       ?FAccessAllowed@?$IObjectSafetyImpl@VCOPOSToneIndicator@@$02@ATL@@MAEHXZ 10012570 f i ToneIndicator.obj
 0001:00011590       ?FinalConstruct@?$CComAggObject@VCOPOSToneIndicator@@@ATL@@QAEJXZ 10012590 f i ToneIndicator.obj
 0001:000115d0       ?FinalConstruct@CComObjectRootBase@ATL@@QAEJXZ 100125d0 f i ToneIndicator.obj
 0001:000115f0       ?FinalConstruct@CRegObject@ATL@@QAEJXZ 100125f0 f i ToneIndicator.obj
 0001:00011620       ?FinalRelease@?$CComAggObject@VCOPOSToneIndicator@@@ATL@@QAEXXZ 10012620 f i ToneIndicator.obj
 0001:00011660       ?FinalRelease@CComObjectRootBase@ATL@@QAEXXZ 10012660 f i ToneIndicator.obj
 0001:00011680       ?FindConnectionPoint@?$IConnectionPointContainerImpl@VCOPOSToneIndicator@@@ATL@@UAGJABU_GUID@@PAPAUIConnectionPoint@@@Z 10012680 f i ToneIndicator.obj
 0001:000117d0       ?FindKey@?$CSimpleMap@PA_WPA_WVCExpansionVectorEqualHelper@ATL@@@ATL@@QBEHABQA_W@Z 100127d0 f i ToneIndicator.obj
 0001:00011840       ?FireTheEvent@?$CProxy_IOPOSEvents@VCOPOSToneIndicator@@@@IAEXPAUIUnknown@@PAVOposVariant@@IAAJPB_WJ@Z 10012840 f i ToneIndicator.obj
 0001:000119b0       ?FireViewChange@CComControlBase@ATL@@QAEJXZ 100129b0 f i ToneIndicator.obj
 0001:00011a70       ?Fire_DirectIOEvent@?$CProxy_IOPOSEvents@VCOPOSToneIndicator@@@@QAEXJPAJPAPA_W@Z 10012a70 f i ToneIndicator.obj
 0001:00011c40       ?Fire_ErrorEvent@?$CProxy_IOPOSEvents@VCOPOSToneIndicator@@@@QAEXJJJPAJ@Z 10012c40 f i ToneIndicator.obj
 0001:00011e30       ?Fire_OutputCompleteEvent@?$CProxy_IOPOSEvents@VCOPOSToneIndicator@@@@QAEXJ@Z 10012e30 f i ToneIndicator.obj
 0001:00011f90       ?Fire_StatusUpdateEvent@?$CProxy_IOPOSEvents@VCOPOSToneIndicator@@@@QAEXJ@Z 10012f90 f i ToneIndicator.obj
 0001:000120f0       ?FormatWindowClassName@AtlModuleRegisterWndClassInfoParamW@ATL@@SAXPA_WKPAX@Z 100130f0 f i ToneIndicator.obj
 0001:00012120       ?Free@?$CAutoVectorPtr@_W@ATL@@QAEXXZ 10013120 f i ToneIndicator.obj
 0001:00012170       ?FreeHeap@?$CTempBuffer@E$0BAA@VCCRTAllocator@ATL@@@ATL@@AAEXXZ 10013170 f i ToneIndicator.obj
 0001:000121a0       ?FreeHeap@?$CTempBuffer@_W$0BAA@VCCRTAllocator@ATL@@@ATL@@AAEXXZ 100131a0 f i ToneIndicator.obj
 0001:000121d0       ?FreeHeap@?$CTempBuffer@_W$0EAA@VCCRTAllocator@ATL@@@ATL@@AAEXXZ 100131d0 f i ToneIndicator.obj
 0001:00012200       ?Freeze@?$IViewObjectExImpl@VCOPOSToneIndicator@@@ATL@@UAGJKJPAXPAK@Z 10013200 f i ToneIndicator.obj
 0001:00012270       ?GenerateError@CRegParser@ATL@@IAEJI@Z 10013270 f i ToneIndicator.obj
 0001:00012290       ?GetAdvise@?$IViewObjectExImpl@VCOPOSToneIndicator@@@ATL@@UAGJPAK0PAPAUIAdviseSink@@@Z 10013290 f i ToneIndicator.obj
 0001:00012390       ?GetAmbientLocaleID@CComControlBase@ATL@@QAEJAAK@Z 10013390 f i ToneIndicator.obj
 0001:00012470       ?GetAmbientProperty@CComControlBase@ATL@@QAEJJAAUtagVARIANT@@@Z 10013470 f i ToneIndicator.obj
 0001:000124c0       ?GetAmbientUserMode@CComControlBase@ATL@@QAEJAAH@Z 100134c0 f i ToneIndicator.obj
 0001:000125c0       ?GetAppId@?$CAtlModuleT@VCComModule@ATL@@@ATL@@SAPB_WXZ 100135c0 f i ToneIndicator.obj
 0001:000125d0       ?GetAt@CComDynamicUnkArray@ATL@@QAEPAUIUnknown@@H@Z 100135d0 f i ToneIndicator.obj
 0001:00012650       ?GetCanonicalFormatEtc@?$IDataObjectImpl@VCOPOSToneIndicator@@@ATL@@UAGJPAUtagFORMATETC@@0@Z 10013650 f i ToneIndicator.obj
 0001:000126c0       ?GetClassID@?$IPersistStorageImpl@VCOPOSToneIndicator@@@ATL@@UAGJPAU_GUID@@@Z 100136c0 f i ToneIndicator.obj
 0001:00012740       ?GetClassID@?$IPersistStreamInitImpl@VCOPOSToneIndicator@@@ATL@@UAGJPAU_GUID@@@Z 10013740 f i ToneIndicator.obj
 0001:000127c0       ?GetClassInfoExW@AtlModuleRegisterWndClassInfoParamW@ATL@@SAHPAUHINSTANCE__@@PB_WPAUtagWNDCLASSEXW@@@Z 100137c0 f i ToneIndicator.obj
 0001:000127f0       ?GetClassInfoW@?$IProvideClassInfo2Impl@$1?CLSID_OPOSToneIndicator@@3U_GUID@@B$1?DIID__IOPOSToneIndicatorEvents@@3U2@B$1?LIBID_OposToneIndicator_CCO@@3U2@B$00$0A@VCComTypeInfoHolder@ATL@@@ATL@@UAGJPAPAUITypeInfo@@@Z 100137f0 f i ToneIndicator.obj
 0001:00012810       ?GetClassObject@CComModule@ATL@@QAEJABU_GUID@@0PAPAX@Z 10013810 f i ToneIndicator.obj
 0001:00012a10       ?GetClientSite@?$IOleObjectImpl@VCOPOSToneIndicator@@@ATL@@UAGJPAPAUIOleClientSite@@@Z 10013a10 f i ToneIndicator.obj
 0001:00012aa0       ?GetClipboardData@?$IOleObjectImpl@VCOPOSToneIndicator@@@ATL@@UAGJKPAPAUIDataObject@@@Z 10013aa0 f i ToneIndicator.obj
 0001:00012b10       ?GetCodeAddress@CDynamicStdCallThunk2@ATL@@QAEPAXXZ 10013b10 f i ToneIndicator.obj
 0001:00012b40       ?GetColorSet@?$IViewObjectExImpl@VCOPOSToneIndicator@@@ATL@@UAGJKJPAXPAUtagDVTARGETDEVICE@@PAUHDC__@@PAPAUtagLOGPALETTE@@@Z 10013b40 f i ToneIndicator.obj
 0001:00012bb0       ?GetConnMap@COPOSToneIndicator@@SAPBU_ATL_CONNMAP_ENTRY@ATL@@PAH@Z 10013bb0 f i ToneIndicator.obj
 0001:00012cf0       ?GetConnectionInterface@?$IConnectionPointImpl@VCOPOSToneIndicator@@$1?DIID__IOPOSToneIndicatorEvents@@3U_GUID@@BVCComDynamicUnkArray@ATL@@@ATL@@UAGJPAU_GUID@@@Z 10013cf0 f i ToneIndicator.obj
 0001:00012d30       ?GetConnectionInterface@?$IConnectionPointImpl@VCOPOSToneIndicator@@$1?IID_IPropertyNotifySink@@3U_GUID@@BVCComDynamicUnkArray@ATL@@@ATL@@UAGJPAU_GUID@@@Z 10013d30 f i ToneIndicator.obj
 0001:00012d70       ?GetConnectionPointContainer@?$IConnectionPointImpl@VCOPOSToneIndicator@@$1?DIID__IOPOSToneIndicatorEvents@@3U_GUID@@BVCComDynamicUnkArray@ATL@@@ATL@@UAGJPAPAUIConnectionPointContainer@@@Z 10013d70 f i ToneIndicator.obj
 0001:00012de0       ?GetConnectionPointContainer@?$IConnectionPointImpl@VCOPOSToneIndicator@@$1?IID_IPropertyNotifySink@@3U_GUID@@BVCComDynamicUnkArray@ATL@@@ATL@@UAGJPAPAUIConnectionPointContainer@@@Z 10013de0 f i ToneIndicator.obj
 0001:00012e50       ?GetContentExtent@?$IQuickActivateImpl@VCOPOSToneIndicator@@@ATL@@UAGJPAUtagSIZE@@@Z 10013e50 f i ToneIndicator.obj
 0001:00012ee0       ?GetControlInfo@?$IOleControlImpl@VCOPOSToneIndicator@@@ATL@@UAGJPAUtagCONTROLINFO@@@Z 10013ee0 f i ToneIndicator.obj
 0001:00012f50       ?GetCookie@CComDynamicUnkArray@ATL@@QAGKPAPAUIUnknown@@@Z 10013f50 f i ToneIndicator.obj
 0001:00013010       ?GetData@?$IDataObjectImpl@VCOPOSToneIndicator@@@ATL@@UAGJPAUtagFORMATETC@@PAUtagSTGMEDIUM@@@Z 10014010 f i ToneIndicator.obj
 0001:000130a0       ?GetData@CAtlSafeAllocBufferNode@?$CAtlSafeAllocBufferManager@VCCRTAllocator@ATL@@@_ATL_SAFE_ALLOCA_IMPL@ATL@@QAEPAXXZ 100140a0 f i ToneIndicator.obj
 0001:000130c0       ?GetDataHere@?$IDataObjectImpl@VCOPOSToneIndicator@@@ATL@@UAGJPAUtagFORMATETC@@PAUtagSTGMEDIUM@@@Z 100140c0 f i ToneIndicator.obj
 0001:00013130       ?GetDropTarget@?$IOleInPlaceObjectWindowlessImpl@VCOPOSToneIndicator@@@ATL@@UAGJPAPAUIDropTarget@@@Z 10014130 f i ToneIndicator.obj
 0001:000131a0       ?GetExtent@?$IOleObjectImpl@VCOPOSToneIndicator@@@ATL@@UAGJKPAUtagSIZE@@@Z 100141a0 f i ToneIndicator.obj
 0001:00013240       ?GetExtent@?$IViewObjectExImpl@VCOPOSToneIndicator@@@ATL@@UAGJKJPAUtagDVTARGETDEVICE@@PAUtagSIZE@@@Z 10014240 f i ToneIndicator.obj
 0001:00013310       ?GetGITPtr@CAtlModule@ATL@@UAEJPAPAUIGlobalInterfaceTable@@@Z 10014310 f i ToneIndicator.obj
 0001:00013410       ?GetGUID@?$IProvideClassInfo2Impl@$1?CLSID_OPOSToneIndicator@@3U_GUID@@B$1?DIID__IOPOSToneIndicatorEvents@@3U2@B$1?LIBID_OposToneIndicator_CCO@@3U2@B$00$0A@VCComTypeInfoHolder@ATL@@@ATL@@UAGJKPAU_GUID@@@Z 10014410 f i ToneIndicator.obj
 0001:00013490       ?GetIDsOfNames@?$IDispatchImpl@UIOPOSToneIndicator@@$1?IID_IOPOSToneIndicator@@3U_GUID@@B$1?LIBID_OposToneIndicator_CCO@@3U3@B$00$0A@VCComTypeInfoHolder@ATL@@@ATL@@UAGJABU_GUID@@PAPA_WIKPAJ@Z 10014490 f i ToneIndicator.obj
 0001:000134c0       ?GetIDsOfNames@CComTypeInfoHolder@ATL@@QAEJABU_GUID@@PAPA_WIKPAJ@Z 100144c0 f i ToneIndicator.obj
 0001:00013670       ?GetInterfaceSafetyOptions@?$IObjectSafetyImpl@VCOPOSToneIndicator@@$02@ATL@@UAGJABU_GUID@@PAK1@Z 10014670 f i ToneIndicator.obj
 0001:000137e0       ?GetKeyAt@?$CSimpleMap@PA_WPA_WVCExpansionVectorEqualHelper@ATL@@@ATL@@QBEAAPA_WH@Z 100147e0 f i ToneIndicator.obj
 0001:00013860       ?GetLockCount@CAtlModule@ATL@@UAEJXZ 10014860 f i ToneIndicator.obj
 0001:00013880       ?GetMiscStatus@?$IOleObjectImpl@VCOPOSToneIndicator@@@ATL@@UAGJKPAK@Z 10014880 f i ToneIndicator.obj
 0001:000138f0       ?GetMoniker@?$IOleObjectImpl@VCOPOSToneIndicator@@@ATL@@UAGJKKPAPAUIMoniker@@@Z 100148f0 f i ToneIndicator.obj
 0001:00013960       ?GetNaturalExtent@?$IViewObjectExImpl@VCOPOSToneIndicator@@@ATL@@UAGJKJPAUtagDVTARGETDEVICE@@PAUHDC__@@PAUtagExtentInfo@@PAUtagSIZE@@@Z 10014960 f i ToneIndicator.obj
 0001:00013a80       ?GetObjectCLSID@?$CComCoClass@VCOPOSToneIndicator@@$1?CLSID_OPOSToneIndicator@@3U_GUID@@B@ATL@@SGABU_GUID@@XZ 10014a80 f i ToneIndicator.obj
 0001:00013a90       ?GetPages@?$ISpecifyPropertyPagesImpl@VCOPOSToneIndicator@@@ATL@@UAGJPAUtagCAUUID@@@Z 10014a90 f i ToneIndicator.obj
 0001:00013b00       ?GetPagesHelper@?$ISpecifyPropertyPagesImpl@VCOPOSToneIndicator@@@ATL@@IAEJPAUtagCAUUID@@PBUATL_PROPMAP_ENTRY@2@@Z 10014b00 f i ToneIndicator.obj
 0001:00013d00       ?GetProperty@?$CComPtr@UIDispatch@@@ATL@@QAEJJPAUtagVARIANT@@@Z 10014d00 f i ToneIndicator.obj
 0001:00013d40       ?GetProperty@?$CComPtr@UIDispatch@@@ATL@@SAJPAUIDispatch@@JPAUtagVARIANT@@@Z 10014d40 f i ToneIndicator.obj
 0001:00013ea0       ?GetPropertyMap@COPOSToneIndicator@@SAPBUATL_PROPMAP_ENTRY@ATL@@XZ 10014ea0 f i ToneIndicator.obj
 0001:00013eb0       ?GetRect@?$IViewObjectExImpl@VCOPOSToneIndicator@@@ATL@@UAGJKPAU_RECTL@@@Z 10014eb0 f i ToneIndicator.obj
 0001:00013f20       ?GetSize@?$CSimpleMap@PA_WPA_WVCExpansionVectorEqualHelper@ATL@@@ATL@@QBEHXZ 10014f20 f i ToneIndicator.obj
 0001:00013f40       ?GetSize@CComDynamicUnkArray@ATL@@QBEHXZ 10014f40 f i ToneIndicator.obj
 0001:00013f60       ?GetSizeMax@?$IPersistStreamInitImpl@VCOPOSToneIndicator@@@ATL@@UAGJPAT_ULARGE_INTEGER@@@Z 10014f60 f i ToneIndicator.obj
 0001:000144d0       ?GetSizeMax@CComVariant@ATL@@QBEJPAT_ULARGE_INTEGER@@@Z 100154d0 f i ToneIndicator.obj
 0001:00014830       ?GetStreamSize@CComBSTR@ATL@@SAKPA_W@Z 10015830 f i ToneIndicator.obj
 0001:00014880       ?GetTI@CComTypeInfoHolder@ATL@@QAEJK@Z 10015880 f i ToneIndicator.obj
 0001:00015090       ?GetTI@CComTypeInfoHolder@ATL@@QAEJKPAPAUITypeInfo@@@Z 10016090 f i ToneIndicator.obj
 0001:00015150       ?GetTypeInfo@?$IDispatchImpl@UIOPOSToneIndicator@@$1?IID_IOPOSToneIndicator@@3U_GUID@@B$1?LIBID_OposToneIndicator_CCO@@3U3@B$00$0A@VCComTypeInfoHolder@ATL@@@ATL@@UAGJIKPAPAUITypeInfo@@@Z 10016150 f i ToneIndicator.obj
 0001:00015180       ?GetTypeInfo@CComTypeInfoHolder@ATL@@QAEJIKPAPAUITypeInfo@@@Z 10016180 f i ToneIndicator.obj
 0001:000151c0       ?GetTypeInfoCount@?$IDispatchImpl@UIOPOSToneIndicator@@$1?IID_IOPOSToneIndicator@@3U_GUID@@B$1?LIBID_OposToneIndicator_CCO@@3U3@B$00$0A@VCComTypeInfoHolder@ATL@@@ATL@@UAGJPAI@Z 100161c0 f i ToneIndicator.obj
 0001:000151e0       ?GetUnknown@CComDynamicUnkArray@ATL@@QAGPAUIUnknown@@K@Z 100161e0 f i ToneIndicator.obj
 0001:00015250       ?GetUnknown@COPOSToneIndicator@@QAEPAUIUnknown@@XZ 10016250 f i ToneIndicator.obj
 0001:00015280       ?GetUserClassID@?$IOleObjectImpl@VCOPOSToneIndicator@@@ATL@@UAGJPAU_GUID@@@Z 10016280 f i ToneIndicator.obj
 0001:00015330       ?GetUserType@?$IOleObjectImpl@VCOPOSToneIndicator@@@ATL@@UAGJKPAPA_W@Z 10016330 f i ToneIndicator.obj
 0001:000153a0       ?GetValueAt@?$CSimpleMap@PA_WPA_WVCExpansionVectorEqualHelper@ATL@@@ATL@@QBEAAPA_WH@Z 100163a0 f i ToneIndicator.obj
 0001:00015420       ?GetViewStatus@?$IViewObjectExImpl@VCOPOSToneIndicator@@@ATL@@UAGJPAK@Z 10016420 f i ToneIndicator.obj
 0001:000154e0       ?GetWNDPROC@CWndProcThunk@ATL@@QAEP6GJPAUHWND__@@IIJ@ZXZ 100164e0 f i ToneIndicator.obj
 0001:00015510       ?GetWindow@?$IOleInPlaceActiveObjectImpl@VCOPOSToneIndicator@@@ATL@@UAGJPAPAUHWND__@@@Z 10016510 f i ToneIndicator.obj
 0001:000155e0       ?GetWindow@?$IOleInPlaceObjectWindowlessImpl@VCOPOSToneIndicator@@@ATL@@UAGJPAPAUHWND__@@@Z 100165e0 f i ToneIndicator.obj
 0001:000156b0       ?GetWindowLongPtrW@@YAJPAUHWND__@@H@Z 100166b0 f i ToneIndicator.obj
 0001:000156e0       ?GetWindowProc@?$CWindowImplBaseT@VCWindow@ATL@@V?$CWinTraits@$0FGAAAAAA@$0A@@2@@ATL@@UAEP6GJPAUHWND__@@IIJ@ZXZ 100166e0 f i ToneIndicator.obj
 0001:00015700       ?GetWndCaption@?$CWindowImpl@VCOPOSToneIndicator@@VCWindow@ATL@@V?$CWinTraits@$0FGAAAAAA@$0A@@3@@ATL@@SAPB_WXZ 10016700 f i ToneIndicator.obj
 0001:00015710       ?GetWndClassInfo@?$CWindowImpl@VCOPOSToneIndicator@@VCWindow@ATL@@V?$CWinTraits@$0FGAAAAAA@$0A@@3@@ATL@@SAAAU_ATL_WNDCLASSINFOW@2@XZ 10016710 f i ToneIndicator.obj
 0001:00015720       ?GetWndClassName@CWindow@ATL@@SAPB_WXZ 10016720 f i ToneIndicator.obj
 0001:00015730       ?GetWndExStyle@?$CWinTraits@$0FGAAAAAA@$0A@@ATL@@SAKK@Z 10016730 f i ToneIndicator.obj
 0001:00015760       ?GetWndExStyle@?$CWindowImplBaseT@VCWindow@ATL@@V?$CWinTraits@$0FGAAAAAA@$0A@@2@@ATL@@SAKK@Z 10016760 f i ToneIndicator.obj
 0001:00015780       ?GetWndStyle@?$CWinTraits@$0FGAAAAAA@$0A@@ATL@@SAKK@Z 10016780 f i ToneIndicator.obj
 0001:000157b0       ?GetWndStyle@?$CWindowImplBaseT@VCWindow@ATL@@V?$CWinTraits@$0FGAAAAAA@$0A@@2@@ATL@@SAKK@Z 100167b0 f i ToneIndicator.obj
 0001:000157d0       ?GetZoomInfo@CComControlBase@ATL@@QAEXAAUATL_DRAWINFO@@@Z 100167d0 f i ToneIndicator.obj
 0001:00015940       ?HKeyFromString@CRegParser@ATL@@KAPAUHKEY__@@PA_W@Z 10016940 f i ToneIndicator.obj
 0001:000159b0       ?HandsOffStorage@?$IPersistStorageImpl@VCOPOSToneIndicator@@@ATL@@UAGJXZ 100169b0 f i ToneIndicator.obj
 0001:00015a10       ?HasSubKeys@CRegParser@ATL@@IAEHPAUHKEY__@@@Z 10016a10 f i ToneIndicator.obj
 0001:00015b20       ?IDataObject_GetData@CComControlBase@ATL@@QAEJPAUtagFORMATETC@@PAUtagSTGMEDIUM@@@Z 10016b20 f i ToneIndicator.obj
 0001:00015f40       ?IOleInPlaceObject_InPlaceDeactivate@CComControlBase@ATL@@QAEJXZ 10016f40 f i ToneIndicator.obj
 0001:00016140       ?IOleInPlaceObject_SetObjectRects@CComControlBase@ATL@@QAEJPBUtagRECT@@0@Z 10017140 f i ToneIndicator.obj
 0001:00016300       ?IOleInPlaceObject_UIDeactivate@CComControlBase@ATL@@QAEJXZ 10017300 f i ToneIndicator.obj
 0001:00016570       ?IOleObject_Advise@CComControlBase@ATL@@QAEJPAUIAdviseSink@@PAK@Z 10017570 f i ToneIndicator.obj
 0001:00016620       ?IOleObject_Close@CComControlBase@ATL@@QAEJK@Z 10017620 f i ToneIndicator.obj
 0001:000168d0       ?IOleObject_GetClientSite@CComControlBase@ATL@@QAEJPAPAUIOleClientSite@@@Z 100178d0 f i ToneIndicator.obj
 0001:00016970       ?IOleObject_SetClientSite@CComControlBase@ATL@@QAEJPAUIOleClientSite@@@Z 10017970 f i ToneIndicator.obj
 0001:00016a40       ?IOleObject_SetExtent@CComControlBase@ATL@@QAEJKPAUtagSIZE@@@Z 10017a40 f i ToneIndicator.obj
 0001:00016b80       ?IPSI_GetIPersistStreamInit@?$IPersistStorageImpl@VCOPOSToneIndicator@@@ATL@@AAEPAUIPersistStreamInit@@XZ 10017b80 f i ToneIndicator.obj
 0001:00016c50       ?IPersistStreamInit_Load@?$IPersistStreamInitImpl@VCOPOSToneIndicator@@@ATL@@QAEJPAUIStream@@PBUATL_PROPMAP_ENTRY@2@@Z 10017c50 f i ToneIndicator.obj
 0001:00016cd0       ?IPersistStreamInit_Save@?$IPersistStreamInitImpl@VCOPOSToneIndicator@@@ATL@@QAEJPAUIStream@@HPBUATL_PROPMAP_ENTRY@2@@Z 10017cd0 f i ToneIndicator.obj
 0001:00016d60       ?IQuickActivate_QuickActivate@CComControlBase@ATL@@QAEJPAUtagQACONTAINER@@PAUtagQACONTROL@@@Z 10017d60 f i ToneIndicator.obj
 0001:000173b0       ?IViewObject_Draw@CComControlBase@ATL@@QAEJKJPAXPAUtagDVTARGETDEVICE@@PAUHDC__@@2PBU_RECTL@@3@Z 100183b0 f i ToneIndicator.obj
 0001:00017650       ?InPlaceActivate@CComControlBase@ATL@@QAEJJPBUtagRECT@@@Z 10018650 f i ToneIndicator.obj
 0001:00017fe0       ?InPlaceDeactivate@?$IOleInPlaceObjectWindowlessImpl@VCOPOSToneIndicator@@@ATL@@UAGJXZ 10018fe0 f i ToneIndicator.obj
 0001:00018060       ?Increment@CComMultiThreadModel@ATL@@SGKPAJ@Z 10019060 f i ToneIndicator.obj
 0001:00018080       ?Increment@CComSingleThreadModel@ATL@@SGKPAJ@Z 10019080 f i ToneIndicator.obj
 0001:000180a0       ?Init@?$CComEnumImpl@UIEnumConnectionPoints@@$1?_GUID_b196b285_bab4_101a_b69c_00aa00341d07@@3U__s_GUID@@BPAUIConnectionPoint@@V?$_CopyInterface@UIConnectionPoint@@@ATL@@@ATL@@QAEJPAPAUIConnectionPoint@@0PAUIUnknown@@W4CComEnumFlags@2@@Z 100190a0 f i ToneIndicator.obj
 0001:00018280       ?Init@?$CComEnumImpl@UIEnumConnections@@$1?_GUID_b196b287_bab4_101a_b69c_00aa00341d07@@3U__s_GUID@@BUtagCONNECTDATA@@V?$_Copy@UtagCONNECTDATA@@@ATL@@@ATL@@QAEJPAUtagCONNECTDATA@@0PAUIUnknown@@W4CComEnumFlags@2@@Z 10019280 f i ToneIndicator.obj
 0001:00018460       ?Init@CComFakeCriticalSection@ATL@@QAEJXZ 10019460 f i ToneIndicator.obj
 0001:00018480       ?Init@CComModule@ATL@@QAEJPAU_ATL_OBJMAP_ENTRY30@2@PAUHINSTANCE__@@PBU_GUID@@@Z 10019480 f i ToneIndicator.obj
 0001:00018570       ?Init@CComSafeDeleteCriticalSection@ATL@@QAEJXZ 10019570 f i ToneIndicator.obj
 0001:000185f0       ?Init@CDynamicStdCallThunk2@ATL@@QAEHKPAX@Z 100195f0 f i ToneIndicator.obj
 0001:00018650       ?Init@CWndProcThunk@ATL@@QAEHP6GJPAUHWND__@@IIJ@ZPAX@Z 10019650 f i ToneIndicator.obj
 0001:00018690       ?InitFromData@?$IOleObjectImpl@VCOPOSToneIndicator@@@ATL@@UAGJPAUIDataObject@@HK@Z 10019690 f i ToneIndicator.obj
 0001:00018700       ?InitLibId@?$CAtlModuleT@VCComModule@ATL@@@ATL@@SAXXZ 10019700 f i ToneIndicator.obj
 0001:00018710       ?InitNew@?$IPersistStorageImpl@VCOPOSToneIndicator@@@ATL@@UAGJPAUIStorage@@@Z 10019710 f i ToneIndicator.obj
 0001:00018800       ?InitNew@?$IPersistStreamInitImpl@VCOPOSToneIndicator@@@ATL@@UAGJXZ 10019800 f i ToneIndicator.obj
 0001:00018890       ?InlineIsEqualUnknown@ATL@@YGHABU_GUID@@@Z 10019890 f i ToneIndicator.obj
 0001:00018900       ?InternalAddRef@?$CComObjectRootEx@VCComMultiThreadModel@ATL@@@ATL@@QAEKXZ 10019900 f i ToneIndicator.obj
 0001:00018960       ?InternalAddRef@?$CComObjectRootEx@VCComSingleThreadModel@ATL@@@ATL@@QAEKXZ 10019960 f i ToneIndicator.obj
 0001:000189c0       ?InternalFinalConstructAddRef@CComObjectRootBase@ATL@@QAEXXZ 100199c0 f i ToneIndicator.obj
 0001:000189e0       ?InternalFinalConstructAddRef@COPOSToneIndicator@@QAEXXZ 100199e0 f i ToneIndicator.obj
 0001:00018a10       ?InternalFinalConstructRelease@CComObjectRootBase@ATL@@QAEXXZ 10019a10 f i ToneIndicator.obj
 0001:00018a60       ?InternalFinalConstructRelease@COPOSToneIndicator@@QAEXXZ 10019a60 f i ToneIndicator.obj
 0001:00018a90       ?InternalGetSite@CComControlBase@ATL@@QAEJABU_GUID@@PAPAX@Z 10019a90 f i ToneIndicator.obj
 0001:00018b50       ?InternalQueryInterface@CComObjectRootBase@ATL@@SGJPAXPBU_ATL_INTMAP_ENTRY@2@ABU_GUID@@PAPAX@Z 10019b50 f i ToneIndicator.obj
 0001:00018c10       ?InternalRelease@?$CComObjectRootEx@VCComMultiThreadModel@ATL@@@ATL@@QAEKXZ 10019c10 f i ToneIndicator.obj
 0001:00018c80       ?InternalRelease@?$CComObjectRootEx@VCComSingleThreadModel@ATL@@@ATL@@QAEKXZ 10019c80 f i ToneIndicator.obj
 0001:00018cf0       ?InternalSetAtIndex@?$CSimpleArray@GV?$CSimpleArrayEqualHelper@G@ATL@@@ATL@@QAEXHABG@Z 10019cf0 f i ToneIndicator.obj
 0001:00018d60       ?InternalSetAtIndex@?$CSimpleMap@PA_WPA_WVCExpansionVectorEqualHelper@ATL@@@ATL@@QAEXHABQA_W0@Z 10019d60 f i ToneIndicator.obj
 0001:00018e00       ?Invoke@?$IDispatchImpl@UIOPOSToneIndicator@@$1?IID_IOPOSToneIndicator@@3U_GUID@@B$1?LIBID_OposToneIndicator_CCO@@3U3@B$00$0A@VCComTypeInfoHolder@ATL@@@ATL@@UAGJJABU_GUID@@KGPAUtagDISPPARAMS@@PAUtagVARIANT@@PAUtagEXCEPINFO@@PAI@Z 10019e00 f i ToneIndicator.obj
 0001:00018e40       ?Invoke@CComTypeInfoHolder@ATL@@QAEJPAUIDispatch@@JABU_GUID@@KGPAUtagDISPPARAMS@@PAUtagVARIANT@@PAUtagEXCEPINFO@@PAI@Z 10019e40 f i ToneIndicator.obj
 0001:00018ed0       ?IsDirty@?$IPersistStorageImpl@VCOPOSToneIndicator@@@ATL@@UAGJXZ 10019ed0 f i ToneIndicator.obj
 0001:00018fc0       ?IsDirty@?$IPersistStreamInitImpl@VCOPOSToneIndicator@@@ATL@@UAGJXZ 10019fc0 f i ToneIndicator.obj
 0001:00019060       ?IsEqualKey@CExpansionVectorEqualHelper@ATL@@SA_NQA_W0@Z 1001a060 f i ToneIndicator.obj
 0001:00019090       ?IsEqualObject@?$CComPtrBase@UIOleClientSite@@@ATL@@QAE_NPAUIUnknown@@@Z 1001a090 f i ToneIndicator.obj
 0001:000191c0       ?IsEqualObject@?$CComPtrBase@UITypeInfo@@@ATL@@QAE_NPAUIUnknown@@@Z 1001a1c0 f i ToneIndicator.obj
 0001:000192f0       ?IsSpace@CRegParser@ATL@@IAEH_W@Z 1001a2f0 f i ToneIndicator.obj
 0001:00019360       ?IsUpToDate@?$IOleObjectImpl@VCOPOSToneIndicator@@@ATL@@UAGJXZ 1001a360 f i ToneIndicator.obj
 0001:000193c0       ?Length@CComBSTR@ATL@@QBEIXZ 1001a3c0 f i ToneIndicator.obj
 0001:00019400       ?Load@?$IPersistStorageImpl@VCOPOSToneIndicator@@@ATL@@UAGJPAUIStorage@@@Z 1001a400 f i ToneIndicator.obj
 0001:00019560       ?Load@?$IPersistStreamInitImpl@VCOPOSToneIndicator@@@ATL@@UAGJPAUIStream@@@Z 1001a560 f i ToneIndicator.obj
 0001:000195f0       ?LoadCursorW@AtlModuleRegisterWndClassInfoParamW@ATL@@SAPAUHICON__@@PAUHINSTANCE__@@PB_W@Z 1001a5f0 f i ToneIndicator.obj
 0001:00019620       ?LoadNameCache@CComTypeInfoHolder@ATL@@QAEJPAUITypeInfo@@@Z 1001a620 f i ToneIndicator.obj
 0001:000198b0       ?Lock@?$CComCritSecLock@VCComCriticalSection@ATL@@@ATL@@QAEJXZ 1001a8b0 f i ToneIndicator.obj
 0001:00019960       ?Lock@?$CComObjectRootEx@VCComSingleThreadModel@ATL@@@ATL@@QAEXXZ 1001a960 f i ToneIndicator.obj
 0001:00019980       ?Lock@CAtlModule@ATL@@UAEJXZ 1001a980 f i ToneIndicator.obj
 0001:000199b0       ?Lock@CComCriticalSection@ATL@@QAEJXZ 1001a9b0 f i ToneIndicator.obj
 0001:000199f0       ?Lock@CComFakeCriticalSection@ATL@@QAEJXZ 1001a9f0 f i ToneIndicator.obj
 0001:00019a10       ?LockServer@CComClassFactory@ATL@@UAGJH@Z 1001aa10 f i ToneIndicator.obj
 0001:00019a70       ?Lookup@?$CSimpleMap@PA_WPA_WVCExpansionVectorEqualHelper@ATL@@@ATL@@QBEPA_WABQA_W@Z 1001aa70 f i ToneIndicator.obj
 0001:00019ac0       ?Next@?$CComEnumImpl@UIEnumConnectionPoints@@$1?_GUID_b196b285_bab4_101a_b69c_00aa00341d07@@3U__s_GUID@@BPAUIConnectionPoint@@V?$_CopyInterface@UIConnectionPoint@@@ATL@@@ATL@@UAGJKPAPAUIConnectionPoint@@PAK@Z 1001aac0 f i ToneIndicator.obj
 0001:00019c30       ?Next@?$CComEnumImpl@UIEnumConnections@@$1?_GUID_b196b287_bab4_101a_b69c_00aa00341d07@@3U__s_GUID@@BUtagCONNECTDATA@@V?$_Copy@UtagCONNECTDATA@@@ATL@@@ATL@@UAGJKPAUtagCONNECTDATA@@PAK@Z 1001ac30 f i ToneIndicator.obj
 0001:00019da0       ?NextToken@CRegParser@ATL@@IAEJPA_W@Z 1001ada0 f i ToneIndicator.obj
 0001:0001a040       ?OLE2CT_EX@@YAPB_WPB_WI@Z  1001b040 f i ToneIndicator.obj
 0001:0001a050       ?OLE2CT_EX_DEF@@YAPB_WPB_W@Z 1001b050 f i ToneIndicator.obj
 0001:0001a060       ?OLE2T_EX@@YAPA_WPA_WI@Z   1001b060 f i ToneIndicator.obj
 0001:0001a070       ?OnAmbientPropertyChange@?$IOleControlImpl@VCOPOSToneIndicator@@@ATL@@UAGJJ@Z 1001b070 f i ToneIndicator.obj
 0001:0001a100       ?OnDocWindowActivate@?$IOleInPlaceActiveObjectImpl@VCOPOSToneIndicator@@@ATL@@UAGJH@Z 1001b100 f i ToneIndicator.obj
 0001:0001a190       ?OnDrawAdvanced@CComControlBase@ATL@@UAEJAAUATL_DRAWINFO@@@Z 1001b190 f i ToneIndicator.obj
 0001:0001a3b0       ?OnFinalMessage@?$CWindowImplBaseT@VCWindow@ATL@@V?$CWinTraits@$0FGAAAAAA@$0A@@2@@ATL@@UAEXPAUHWND__@@@Z 1001b3b0 f i ToneIndicator.obj
 0001:0001a3d0       ?OnFrameWindowActivate@?$IOleInPlaceActiveObjectImpl@VCOPOSToneIndicator@@@ATL@@UAGJH@Z 1001b3d0 f i ToneIndicator.obj
 0001:0001a430       ?OnKillFocus@CComControlBase@ATL@@QAEJIIJAAH@Z 1001b430 f i ToneIndicator.obj
 0001:0001a530       ?OnMnemonic@?$IOleControlImpl@VCOPOSToneIndicator@@@ATL@@UAGJPAUtagMSG@@@Z 1001b530 f i ToneIndicator.obj
 0001:0001a5a0       ?OnMouseActivate@CComControlBase@ATL@@QAEJIIJAAH@Z 1001b5a0 f i ToneIndicator.obj
 0001:0001a6f0       ?OnPaint@CComControlBase@ATL@@QAEJIIJAAH@Z 1001b6f0 f i ToneIndicator.obj
 0001:0001a870       ?OnPostVerbDiscardUndo@?$IOleObjectImpl@VCOPOSToneIndicator@@@ATL@@QAEJXZ 1001b870 f i ToneIndicator.obj
 0001:0001a890       ?OnPostVerbHide@?$IOleObjectImpl@VCOPOSToneIndicator@@@ATL@@QAEJXZ 1001b890 f i ToneIndicator.obj
 0001:0001a8b0       ?OnPostVerbInPlaceActivate@?$IOleObjectImpl@VCOPOSToneIndicator@@@ATL@@QAEJXZ 1001b8b0 f i ToneIndicator.obj
 0001:0001a8d0       ?OnPostVerbOpen@?$IOleObjectImpl@VCOPOSToneIndicator@@@ATL@@QAEJXZ 1001b8d0 f i ToneIndicator.obj
 0001:0001a8f0       ?OnPostVerbShow@?$IOleObjectImpl@VCOPOSToneIndicator@@@ATL@@QAEJXZ 1001b8f0 f i ToneIndicator.obj
 0001:0001a910       ?OnPostVerbUIActivate@?$IOleObjectImpl@VCOPOSToneIndicator@@@ATL@@QAEJXZ 1001b910 f i ToneIndicator.obj
 0001:0001a930       ?OnPreVerbDiscardUndo@?$IOleObjectImpl@VCOPOSToneIndicator@@@ATL@@QAEJXZ 1001b930 f i ToneIndicator.obj
 0001:0001a950       ?OnPreVerbHide@?$IOleObjectImpl@VCOPOSToneIndicator@@@ATL@@QAEJXZ 1001b950 f i ToneIndicator.obj
 0001:0001a970       ?OnPreVerbInPlaceActivate@?$IOleObjectImpl@VCOPOSToneIndicator@@@ATL@@QAEJXZ 1001b970 f i ToneIndicator.obj
 0001:0001a990       ?OnPreVerbOpen@?$IOleObjectImpl@VCOPOSToneIndicator@@@ATL@@QAEJXZ 1001b990 f i ToneIndicator.obj
 0001:0001a9b0       ?OnPreVerbShow@?$IOleObjectImpl@VCOPOSToneIndicator@@@ATL@@QAEJXZ 1001b9b0 f i ToneIndicator.obj
 0001:0001a9d0       ?OnPreVerbUIActivate@?$IOleObjectImpl@VCOPOSToneIndicator@@@ATL@@QAEJXZ 1001b9d0 f i ToneIndicator.obj
 0001:0001a9f0       ?OnSetFocus@CComControlBase@ATL@@QAEJIIJAAH@Z 1001b9f0 f i ToneIndicator.obj
 0001:0001ab80       ?OnWindowMessage@?$IOleInPlaceObjectWindowlessImpl@VCOPOSToneIndicator@@@ATL@@UAGJIIJPAJ@Z 1001bb80 f i ToneIndicator.obj
 0001:0001ace0       ?Open@CRegKey@ATL@@QAEJPAUHKEY__@@PB_WK@Z 1001bce0 f i ToneIndicator.obj
 0001:0001ae30       ?OuterAddRef@CComObjectRootBase@ATL@@QAEKXZ 1001be30 f i ToneIndicator.obj
 0001:0001ae70       ?OuterQueryInterface@CComObjectRootBase@ATL@@QAEJABU_GUID@@PAPAX@Z 1001be70 f i ToneIndicator.obj
 0001:0001aec0       ?OuterRelease@CComObjectRootBase@ATL@@QAEKXZ 1001bec0 f i ToneIndicator.obj
 0001:0001af00       ?PreProcessBuffer@CRegParser@ATL@@QAEJPA_WPAPA_W@Z 1001bf00 f i ToneIndicator.obj
 0001:0001b440       ?PreTranslateAccelerator@CComControlBase@ATL@@QAEHPAUtagMSG@@AAJ@Z 1001c440 f i ToneIndicator.obj
 0001:0001b460       ?ProcessWindowMessage@?$CComControl@VCOPOSToneIndicator@@V?$CWindowImpl@VCOPOSToneIndicator@@VCWindow@ATL@@V?$CWinTraits@$0FGAAAAAA@$0A@@3@@ATL@@@ATL@@UAEHPAUHWND__@@IIJAAJK@Z 1001c460 f i ToneIndicator.obj
 0001:0001b630       ?ProcessWindowMessage@COPOSToneIndicator@@UAEHPAUHWND__@@IIJAAJK@Z 1001c630 f i ToneIndicator.obj
 0001:0001b730       ?PutProperty@?$CComPtr@UIDispatch@@@ATL@@QAEJJPAUtagVARIANT@@@Z 1001c730 f i ToneIndicator.obj
 0001:0001b770       ?PutProperty@?$CComPtr@UIDispatch@@@ATL@@SAJPAUIDispatch@@JPAUtagVARIANT@@@Z 1001c770 f i ToneIndicator.obj
 0001:0001b960       ?QueryGetData@?$IDataObjectImpl@VCOPOSToneIndicator@@@ATL@@UAGJPAUtagFORMATETC@@@Z 1001c960 f i ToneIndicator.obj
 0001:0001b9d0       ?QueryHitPoint@?$IViewObjectExImpl@VCOPOSToneIndicator@@@ATL@@UAGJKPBUtagRECT@@UtagPOINT@@JPAK@Z 1001c9d0 f i ToneIndicator.obj
 0001:0001bae0       ?QueryHitRect@?$IViewObjectExImpl@VCOPOSToneIndicator@@@ATL@@UAGJKPBUtagRECT@@0JPAK@Z 1001cae0 f i ToneIndicator.obj
 0001:0001bc30       ?QueryInterface@?$CComAggObject@VCOPOSToneIndicator@@@ATL@@UAGJABU_GUID@@PAPAX@Z 1001cc30 f i ToneIndicator.obj
 0001:0001bce0       ?QueryInterface@?$CComContainedObject@VCOPOSToneIndicator@@@ATL@@UAGJABU_GUID@@PAPAX@Z 1001cce0 f i ToneIndicator.obj
 0001:0001bd04       ?QueryInterface@?$CComContainedObject@VCOPOSToneIndicator@@@ATL@@WHA@AGJABU_GUID@@PAPAX@Z 1001cd04 f i ToneIndicator.obj
 0001:0001bd0e       ?QueryInterface@?$CComContainedObject@VCOPOSToneIndicator@@@ATL@@WHE@AGJABU_GUID@@PAPAX@Z 1001cd0e f i ToneIndicator.obj
 0001:0001bd18       ?QueryInterface@?$CComContainedObject@VCOPOSToneIndicator@@@ATL@@WHI@AGJABU_GUID@@PAPAX@Z 1001cd18 f i ToneIndicator.obj
 0001:0001bd22       ?QueryInterface@?$CComContainedObject@VCOPOSToneIndicator@@@ATL@@WHM@AGJABU_GUID@@PAPAX@Z 1001cd22 f i ToneIndicator.obj
 0001:0001bd2c       ?QueryInterface@?$CComContainedObject@VCOPOSToneIndicator@@@ATL@@WIA@AGJABU_GUID@@PAPAX@Z 1001cd2c f i ToneIndicator.obj
 0001:0001bd39       ?QueryInterface@?$CComContainedObject@VCOPOSToneIndicator@@@ATL@@WIE@AGJABU_GUID@@PAPAX@Z 1001cd39 f i ToneIndicator.obj
 0001:0001bd46       ?QueryInterface@?$CComContainedObject@VCOPOSToneIndicator@@@ATL@@WII@AGJABU_GUID@@PAPAX@Z 1001cd46 f i ToneIndicator.obj
 0001:0001bd53       ?QueryInterface@?$CComContainedObject@VCOPOSToneIndicator@@@ATL@@WIM@AGJABU_GUID@@PAPAX@Z 1001cd53 f i ToneIndicator.obj
 0001:0001bd60       ?QueryInterface@?$CComContainedObject@VCOPOSToneIndicator@@@ATL@@WJA@AGJABU_GUID@@PAPAX@Z 1001cd60 f i ToneIndicator.obj
 0001:0001bd6d       ?QueryInterface@?$CComContainedObject@VCOPOSToneIndicator@@@ATL@@WJE@AGJABU_GUID@@PAPAX@Z 1001cd6d f i ToneIndicator.obj
 0001:0001bd7a       ?QueryInterface@?$CComContainedObject@VCOPOSToneIndicator@@@ATL@@WJI@AGJABU_GUID@@PAPAX@Z 1001cd7a f i ToneIndicator.obj
 0001:0001bd87       ?QueryInterface@?$CComContainedObject@VCOPOSToneIndicator@@@ATL@@WJM@AGJABU_GUID@@PAPAX@Z 1001cd87 f i ToneIndicator.obj
 0001:0001bd94       ?QueryInterface@?$CComContainedObject@VCOPOSToneIndicator@@@ATL@@WKA@AGJABU_GUID@@PAPAX@Z 1001cd94 f i ToneIndicator.obj
 0001:0001bdb0       ?QueryInterface@?$CComObject@V?$CComEnum@UIEnumConnectionPoints@@$1?_GUID_b196b285_bab4_101a_b69c_00aa00341d07@@3U__s_GUID@@BPAUIConnectionPoint@@V?$_CopyInterface@UIConnectionPoint@@@ATL@@VCComSingleThreadModel@6@@ATL@@@ATL@@UAGJABU_GUID@@PAPAX@Z 1001cdb0 f i ToneIndicator.obj
 0001:0001bdd0       ?QueryInterface@?$CComObject@V?$CComEnum@UIEnumConnections@@$1?_GUID_b196b287_bab4_101a_b69c_00aa00341d07@@3U__s_GUID@@BUtagCONNECTDATA@@V?$_Copy@UtagCONNECTDATA@@@ATL@@VCComSingleThreadModel@6@@ATL@@@ATL@@UAGJABU_GUID@@PAPAX@Z 1001cdd0 f i ToneIndicator.obj
 0001:0001bdf0       ?QueryInterface@?$CComObject@VCOPOSToneIndicator@@@ATL@@UAGJABU_GUID@@PAPAX@Z 1001cdf0 f i ToneIndicator.obj
 0001:0001be0e       ?QueryInterface@?$CComObject@VCOPOSToneIndicator@@@ATL@@WHA@AGJABU_GUID@@PAPAX@Z 1001ce0e f i ToneIndicator.obj
 0001:0001be18       ?QueryInterface@?$CComObject@VCOPOSToneIndicator@@@ATL@@WHE@AGJABU_GUID@@PAPAX@Z 1001ce18 f i ToneIndicator.obj
 0001:0001be22       ?QueryInterface@?$CComObject@VCOPOSToneIndicator@@@ATL@@WHI@AGJABU_GUID@@PAPAX@Z 1001ce22 f i ToneIndicator.obj
 0001:0001be2c       ?QueryInterface@?$CComObject@VCOPOSToneIndicator@@@ATL@@WHM@AGJABU_GUID@@PAPAX@Z 1001ce2c f i ToneIndicator.obj
 0001:0001be36       ?QueryInterface@?$CComObject@VCOPOSToneIndicator@@@ATL@@WIA@AGJABU_GUID@@PAPAX@Z 1001ce36 f i ToneIndicator.obj
 0001:0001be43       ?QueryInterface@?$CComObject@VCOPOSToneIndicator@@@ATL@@WIE@AGJABU_GUID@@PAPAX@Z 1001ce43 f i ToneIndicator.obj
 0001:0001be50       ?QueryInterface@?$CComObject@VCOPOSToneIndicator@@@ATL@@WII@AGJABU_GUID@@PAPAX@Z 1001ce50 f i ToneIndicator.obj
 0001:0001be5d       ?QueryInterface@?$CComObject@VCOPOSToneIndicator@@@ATL@@WIM@AGJABU_GUID@@PAPAX@Z 1001ce5d f i ToneIndicator.obj
 0001:0001be6a       ?QueryInterface@?$CComObject@VCOPOSToneIndicator@@@ATL@@WJA@AGJABU_GUID@@PAPAX@Z 1001ce6a f i ToneIndicator.obj
 0001:0001be77       ?QueryInterface@?$CComObject@VCOPOSToneIndicator@@@ATL@@WJE@AGJABU_GUID@@PAPAX@Z 1001ce77 f i ToneIndicator.obj
 0001:0001be84       ?QueryInterface@?$CComObject@VCOPOSToneIndicator@@@ATL@@WJI@AGJABU_GUID@@PAPAX@Z 1001ce84 f i ToneIndicator.obj
 0001:0001be91       ?QueryInterface@?$CComObject@VCOPOSToneIndicator@@@ATL@@WJM@AGJABU_GUID@@PAPAX@Z 1001ce91 f i ToneIndicator.obj
 0001:0001be9e       ?QueryInterface@?$CComObject@VCOPOSToneIndicator@@@ATL@@WKA@AGJABU_GUID@@PAPAX@Z 1001ce9e f i ToneIndicator.obj
 0001:0001beb0       ?QueryInterface@?$CComObjectCached@VCComClassFactory@ATL@@@ATL@@UAGJABU_GUID@@PAPAX@Z 1001ceb0 f i ToneIndicator.obj
 0001:0001bed0       ?QueryInterface@CRegObject@ATL@@UAGJABU_GUID@@PAPAX@Z 1001ced0 f i ToneIndicator.obj
 0001:0001bf20       ?QuickActivate@?$IQuickActivateImpl@VCOPOSToneIndicator@@@ATL@@UAGJPAUtagQACONTAINER@@PAUtagQACONTROL@@@Z 1001cf20 f i ToneIndicator.obj
 0001:0001bfb0       ?ReactivateAndUndo@?$IOleInPlaceObjectWindowlessImpl@VCOPOSToneIndicator@@@ATL@@UAGJXZ 1001cfb0 f i ToneIndicator.obj
 0001:0001c020       ?ReadFromStream@CComBSTR@ATL@@QAEJPAUIStream@@@Z 1001d020 f i ToneIndicator.obj
 0001:0001c420       ?ReadFromStream@CComVariant@ATL@@QAEJPAUIStream@@GTClassesAllowedInStream@2@K@Z 1001d420 f i ToneIndicator.obj
 0001:0001c780       ?RecurseDeleteKey@CRegKey@ATL@@QAEJPB_W@Z 1001d780 f i ToneIndicator.obj
 0001:0001c960       ?RegCreateKeyExW@CAtlTransactionManager@ATL@@QAEJPAUHKEY__@@PB_WKPA_WKKQAU_SECURITY_ATTRIBUTES@@PAPAU3@PAK@Z 1001d960 f i ToneIndicator.obj
 0001:0001ca90       ?RegDeleteKeyW@CAtlTransactionManager@ATL@@QAEJPAUHKEY__@@PB_W@Z 1001da90 f i ToneIndicator.obj
 0001:0001cb90       ?RegOpenKeyExW@CAtlTransactionManager@ATL@@QAEJPAUHKEY__@@PB_WKKPAPAU3@@Z 1001db90 f i ToneIndicator.obj
 0001:0001cca0       ?Register@_ATL_WNDCLASSINFOW@ATL@@QAEGPAP6GJPAUHWND__@@IIJ@Z@Z 1001dca0 f i ToneIndicator.obj
 0001:0001cce0       ?RegisterBuffer@CRegParser@ATL@@QAEJPA_WH@Z 1001dce0 f i ToneIndicator.obj
 0001:0001d010       ?RegisterClassExW@AtlModuleRegisterWndClassInfoParamW@ATL@@SAGPAU_ATL_WIN_MODULE70@2@PBUtagWNDCLASSEXW@@@Z 1001e010 f i ToneIndicator.obj
 0001:0001d030       ?RegisterFromResource@CRegObject@ATL@@IAEJPB_W00H@Z 1001e030 f i ToneIndicator.obj
 0001:0001d3c0       ?RegisterServer@?$CAtlModuleT@VCComModule@ATL@@@ATL@@QAEJHPBU_GUID@@@Z 1001e3c0 f i ToneIndicator.obj
 0001:0001d440       ?RegisterServer@CAtlComModule@ATL@@QAEJHPBU_GUID@@@Z 1001e440 f i ToneIndicator.obj
 0001:0001d470       ?RegisterServer@CComModule@ATL@@QAEJHPBU_GUID@@@Z 1001e470 f i ToneIndicator.obj
 0001:0001d550       ?RegisterSubkeys@CRegParser@ATL@@IAEJPA_WPAUHKEY__@@HH@Z 1001e550 f i ToneIndicator.obj
 0001:0001e070       ?Release@?$CComAggObject@VCOPOSToneIndicator@@@ATL@@UAGKXZ 1001f070 f i ToneIndicator.obj
 0001:0001e130       ?Release@?$CComContainedObject@VCOPOSToneIndicator@@@ATL@@UAGKXZ 1001f130 f i ToneIndicator.obj
 0001:0001e14c       ?Release@?$CComContainedObject@VCOPOSToneIndicator@@@ATL@@WHA@AGKXZ 1001f14c f i ToneIndicator.obj
 0001:0001e156       ?Release@?$CComContainedObject@VCOPOSToneIndicator@@@ATL@@WHE@AGKXZ 1001f156 f i ToneIndicator.obj
 0001:0001e160       ?Release@?$CComContainedObject@VCOPOSToneIndicator@@@ATL@@WHI@AGKXZ 1001f160 f i ToneIndicator.obj
 0001:0001e16a       ?Release@?$CComContainedObject@VCOPOSToneIndicator@@@ATL@@WHM@AGKXZ 1001f16a f i ToneIndicator.obj
 0001:0001e174       ?Release@?$CComContainedObject@VCOPOSToneIndicator@@@ATL@@WIA@AGKXZ 1001f174 f i ToneIndicator.obj
 0001:0001e181       ?Release@?$CComContainedObject@VCOPOSToneIndicator@@@ATL@@WIE@AGKXZ 1001f181 f i ToneIndicator.obj
 0001:0001e18e       ?Release@?$CComContainedObject@VCOPOSToneIndicator@@@ATL@@WII@AGKXZ 1001f18e f i ToneIndicator.obj
 0001:0001e19b       ?Release@?$CComContainedObject@VCOPOSToneIndicator@@@ATL@@WIM@AGKXZ 1001f19b f i ToneIndicator.obj
 0001:0001e1a8       ?Release@?$CComContainedObject@VCOPOSToneIndicator@@@ATL@@WJA@AGKXZ 1001f1a8 f i ToneIndicator.obj
 0001:0001e1b5       ?Release@?$CComContainedObject@VCOPOSToneIndicator@@@ATL@@WJE@AGKXZ 1001f1b5 f i ToneIndicator.obj
 0001:0001e1c2       ?Release@?$CComContainedObject@VCOPOSToneIndicator@@@ATL@@WJI@AGKXZ 1001f1c2 f i ToneIndicator.obj
 0001:0001e1cf       ?Release@?$CComContainedObject@VCOPOSToneIndicator@@@ATL@@WJM@AGKXZ 1001f1cf f i ToneIndicator.obj
 0001:0001e1dc       ?Release@?$CComContainedObject@VCOPOSToneIndicator@@@ATL@@WKA@AGKXZ 1001f1dc f i ToneIndicator.obj
 0001:0001e1e9       ?Release@?$CComContainedObject@VCOPOSToneIndicator@@@ATL@@WKI@AGKXZ 1001f1e9 f i ToneIndicator.obj
 0001:0001e1f6       ?Release@?$CComContainedObject@VCOPOSToneIndicator@@@ATL@@WLE@AGKXZ 1001f1f6 f i ToneIndicator.obj
 0001:0001e210       ?Release@?$CComObject@V?$CComEnum@UIEnumConnectionPoints@@$1?_GUID_b196b285_bab4_101a_b69c_00aa00341d07@@3U__s_GUID@@BPAUIConnectionPoint@@V?$_CopyInterface@UIConnectionPoint@@@ATL@@VCComSingleThreadModel@6@@ATL@@@ATL@@UAGKXZ 1001f210 f i ToneIndicator.obj
 0001:0001e2d0       ?Release@?$CComObject@V?$CComEnum@UIEnumConnections@@$1?_GUID_b196b287_bab4_101a_b69c_00aa00341d07@@3U__s_GUID@@BUtagCONNECTDATA@@V?$_Copy@UtagCONNECTDATA@@@ATL@@VCComSingleThreadModel@6@@ATL@@@ATL@@UAGKXZ 1001f2d0 f i ToneIndicator.obj
 0001:0001e390       ?Release@?$CComObject@VCOPOSToneIndicator@@@ATL@@UAGKXZ 1001f390 f i ToneIndicator.obj
 0001:0001e449       ?Release@?$CComObject@VCOPOSToneIndicator@@@ATL@@WHA@AGKXZ 1001f449 f i ToneIndicator.obj
 0001:0001e453       ?Release@?$CComObject@VCOPOSToneIndicator@@@ATL@@WHE@AGKXZ 1001f453 f i ToneIndicator.obj
 0001:0001e45d       ?Release@?$CComObject@VCOPOSToneIndicator@@@ATL@@WHI@AGKXZ 1001f45d f i ToneIndicator.obj
 0001:0001e467       ?Release@?$CComObject@VCOPOSToneIndicator@@@ATL@@WHM@AGKXZ 1001f467 f i ToneIndicator.obj
 0001:0001e471       ?Release@?$CComObject@VCOPOSToneIndicator@@@ATL@@WIA@AGKXZ 1001f471 f i ToneIndicator.obj
 0001:0001e47e       ?Release@?$CComObject@VCOPOSToneIndicator@@@ATL@@WIE@AGKXZ 1001f47e f i ToneIndicator.obj
 0001:0001e48b       ?Release@?$CComObject@VCOPOSToneIndicator@@@ATL@@WII@AGKXZ 1001f48b f i ToneIndicator.obj
 0001:0001e498       ?Release@?$CComObject@VCOPOSToneIndicator@@@ATL@@WIM@AGKXZ 1001f498 f i ToneIndicator.obj
 0001:0001e4a5       ?Release@?$CComObject@VCOPOSToneIndicator@@@ATL@@WJA@AGKXZ 1001f4a5 f i ToneIndicator.obj
 0001:0001e4b2       ?Release@?$CComObject@VCOPOSToneIndicator@@@ATL@@WJE@AGKXZ 1001f4b2 f i ToneIndicator.obj
 0001:0001e4bf       ?Release@?$CComObject@VCOPOSToneIndicator@@@ATL@@WJI@AGKXZ 1001f4bf f i ToneIndicator.obj
 0001:0001e4cc       ?Release@?$CComObject@VCOPOSToneIndicator@@@ATL@@WJM@AGKXZ 1001f4cc f i ToneIndicator.obj
 0001:0001e4d9       ?Release@?$CComObject@VCOPOSToneIndicator@@@ATL@@WKA@AGKXZ 1001f4d9 f i ToneIndicator.obj
 0001:0001e4e6       ?Release@?$CComObject@VCOPOSToneIndicator@@@ATL@@WKI@AGKXZ 1001f4e6 f i ToneIndicator.obj
 0001:0001e4f3       ?Release@?$CComObject@VCOPOSToneIndicator@@@ATL@@WLE@AGKXZ 1001f4f3 f i ToneIndicator.obj
 0001:0001e500       ?Release@?$CComObjectCached@VCComClassFactory@ATL@@@ATL@@UAGKXZ 1001f500 f i ToneIndicator.obj
 0001:0001e5a0       ?Release@?$CComPtrBase@UIAdviseSink@@@ATL@@QAEXXZ 1001f5a0 f i ToneIndicator.obj
 0001:0001e600       ?Release@?$CComPtrBase@UIDispatch@@@ATL@@QAEXXZ 1001f600 f i ToneIndicator.obj
 0001:0001e660       ?Release@?$CComPtrBase@UIOleInPlaceSiteWindowless@@@ATL@@QAEXXZ 1001f660 f i ToneIndicator.obj
 0001:0001e6c0       ?Release@CRegObject@ATL@@UAGKXZ 1001f6c0 f i ToneIndicator.obj
 0001:0001e700       ?Remove@CComDynamicUnkArray@ATL@@QAEHK@Z 1001f700 f i ToneIndicator.obj
 0001:0001e7b0       ?RemoveAll@?$CSimpleMap@PA_WPA_WVCExpansionVectorEqualHelper@ATL@@@ATL@@QAEXXZ 1001f7b0 f i ToneIndicator.obj
 0001:0001e840       ?Reset@?$CComEnumImpl@UIEnumConnectionPoints@@$1?_GUID_b196b285_bab4_101a_b69c_00aa00341d07@@3U__s_GUID@@BPAUIConnectionPoint@@V?$_CopyInterface@UIConnectionPoint@@@ATL@@@ATL@@UAGJXZ 1001f840 f i ToneIndicator.obj
 0001:0001e860       ?Reset@?$CComEnumImpl@UIEnumConnections@@$1?_GUID_b196b287_bab4_101a_b69c_00aa00341d07@@3U__s_GUID@@BUtagCONNECTDATA@@V?$_Copy@UtagCONNECTDATA@@@ATL@@@ATL@@UAGJXZ 1001f860 f i ToneIndicator.obj
 0001:0001e880       ?ResizeBorder@?$IOleInPlaceActiveObjectImpl@VCOPOSToneIndicator@@@ATL@@UAGJPBUtagRECT@@PAUIOleInPlaceUIWindow@@H@Z 1001f880 f i ToneIndicator.obj
 0001:0001e8e0       ?ResourceRegister@CRegObject@ATL@@QAGJPB_WI0@Z 1001f8e0 f i ToneIndicator.obj
 0001:0001e9c0       ?ResourceRegisterSz@CRegObject@ATL@@QAGJPB_W00@Z 1001f9c0 f i ToneIndicator.obj
 0001:0001eac0       ?ResourceUnregister@CRegObject@ATL@@QAGJPB_WI0@Z 1001fac0 f i ToneIndicator.obj
 0001:0001eba0       ?ResourceUnregisterSz@CRegObject@ATL@@QAGJPB_W00@Z 1001fba0 f i ToneIndicator.obj
 0001:0001eca0       ?SODataDummy@COPOSToneIndicator@@MAGJJ@Z 1001fca0 f i ToneIndicator.obj
 0001:0001ecb0       ?SODirectIO@COPOSToneIndicator@@MAGJJPAJPAPA_W@Z 1001fcb0 f i ToneIndicator.obj
 0001:0001ee70       ?SOError@COPOSToneIndicator@@MAGJJJJPAJ@Z 1001fe70 f i ToneIndicator.obj
 0001:0001ef30       ?SOOutputComplete@COPOSToneIndicator@@MAGJJ@Z 1001ff30 f i ToneIndicator.obj
 0001:0001efb0       ?SOStatusUpdate@COPOSToneIndicator@@MAGJJ@Z 1001ffb0 f i ToneIndicator.obj
 0001:0001f030       ?Save@?$IPersistStorageImpl@VCOPOSToneIndicator@@@ATL@@UAGJPAUIStorage@@H@Z 10020030 f i ToneIndicator.obj
 0001:0001f190       ?Save@?$IPersistStreamInitImpl@VCOPOSToneIndicator@@@ATL@@UAGJPAUIStream@@H@Z 10020190 f i ToneIndicator.obj
 0001:0001f220       ?SaveCompleted@?$IPersistStorageImpl@VCOPOSToneIndicator@@@ATL@@UAGJPAUIStorage@@@Z 10020220 f i ToneIndicator.obj
 0001:0001f280       ?SendOnDataChange@CComControlBase@ATL@@QAEJK@Z 10020280 f i ToneIndicator.obj
 0001:0001f370       ?SendOnSave@CComControlBase@ATL@@QAEJXZ 10020370 f i ToneIndicator.obj
 0001:0001f3e0       ?SendOnViewChange@CComControlBase@ATL@@QAEJKJ@Z 100203e0 f i ToneIndicator.obj
 0001:0001f450       ?SetAdvise@?$IViewObjectExImpl@VCOPOSToneIndicator@@@ATL@@UAGJKKPAUIAdviseSink@@@Z 10020450 f i ToneIndicator.obj
 0001:0001f4e0       ?SetClientSite@?$IOleObjectImpl@VCOPOSToneIndicator@@@ATL@@UAGJPAUIOleClientSite@@@Z 100204e0 f i ToneIndicator.obj
 0001:0001f570       ?SetColorScheme@?$IOleObjectImpl@VCOPOSToneIndicator@@@ATL@@UAGJPAUtagLOGPALETTE@@@Z 10020570 f i ToneIndicator.obj
 0001:0001f5e0       ?SetContentExtent@?$IQuickActivateImpl@VCOPOSToneIndicator@@@ATL@@UAGJPAUtagSIZE@@@Z 100205e0 f i ToneIndicator.obj
 0001:0001f670       ?SetControlFocus@CComControlBase@ATL@@QAEHH@Z 10020670 f i ToneIndicator.obj
 0001:0001f7f0       ?SetDWORDValue@CRegKey@ATL@@QAEJPB_WK@Z 100207f0 f i ToneIndicator.obj
 0001:0001f870       ?SetData@?$IDataObjectImpl@VCOPOSToneIndicator@@@ATL@@UAGJPAUtagFORMATETC@@PAUtagSTGMEDIUM@@H@Z 10020870 f i ToneIndicator.obj
 0001:0001f8e0       ?SetExtent@?$IOleObjectImpl@VCOPOSToneIndicator@@@ATL@@UAGJKPAUtagSIZE@@@Z 100208e0 f i ToneIndicator.obj
 0001:0001f970       ?SetHostNames@?$IOleObjectImpl@VCOPOSToneIndicator@@@ATL@@UAGJPB_W0@Z 10020970 f i ToneIndicator.obj
 0001:0001f9d0       ?SetInterfaceSafetyOptions@?$IObjectSafetyImpl@VCOPOSToneIndicator@@$02@ATL@@UAGJABU_GUID@@KK@Z 100209d0 f i ToneIndicator.obj
 0001:0001fb40       ?SetMoniker@?$IOleObjectImpl@VCOPOSToneIndicator@@@ATL@@UAGJKPAUIMoniker@@@Z 10020b40 f i ToneIndicator.obj
 0001:0001fbb0       ?SetMultiStringValue@CRegKey@ATL@@QAEJPB_W0@Z 10020bb0 f i ToneIndicator.obj
 0001:0001fcd0       ?SetObjectRects@?$IOleInPlaceObjectWindowlessImpl@VCOPOSToneIndicator@@@ATL@@UAGJPBUtagRECT@@0@Z 10020cd0 f i ToneIndicator.obj
 0001:0001fd60       ?SetStringValue@CRegKey@ATL@@QAEJPB_W0K@Z 10020d60 f i ToneIndicator.obj
 0001:0001fe90       ?SetVoid@CComClassFactory@ATL@@QAEXPAX@Z 10020e90 f i ToneIndicator.obj
 0001:0001feb0       ?SetVoid@CComObjectRootBase@ATL@@QAEXPAX@Z 10020eb0 f i ToneIndicator.obj
 0001:0001fed0       ?SetWindowLongPtrW@@YAJPAUHWND__@@HJ@Z 10020ed0 f i ToneIndicator.obj
 0001:0001ff00       ?ShowWindow@CWindow@ATL@@QAEHH@Z 10020f00 f i ToneIndicator.obj
 0001:0001ff80       ?Skip@?$CComEnumImpl@UIEnumConnectionPoints@@$1?_GUID_b196b285_bab4_101a_b69c_00aa00341d07@@3U__s_GUID@@BPAUIConnectionPoint@@V?$_CopyInterface@UIConnectionPoint@@@ATL@@@ATL@@UAGJK@Z 10020f80 f i ToneIndicator.obj
 0001:00020000       ?Skip@?$CComEnumImpl@UIEnumConnections@@$1?_GUID_b196b287_bab4_101a_b69c_00aa00341d07@@3U__s_GUID@@BUtagCONNECTDATA@@V?$_Copy@UtagCONNECTDATA@@@ATL@@@ATL@@UAGJK@Z 10021000 f i ToneIndicator.obj
 0001:00020080       ?SkipAssignment@CRegParser@ATL@@IAEJPA_W@Z 10021080 f i ToneIndicator.obj
 0001:00020160       ?SkipWhiteSpace@CRegParser@ATL@@IAEXXZ 10021160 f i ToneIndicator.obj
 0001:000201b0       ?StartWindowProc@?$CWindowImplBaseT@VCWindow@ATL@@V?$CWinTraits@$0FGAAAAAA@$0A@@2@@ATL@@SGJPAUHWND__@@IIJ@Z 100211b0 f i ToneIndicator.obj
 0001:000202d0       ?StrChrW@CRegParser@ATL@@KAPA_WPA_W_W@Z 100212d0 f i ToneIndicator.obj
 0001:00020340       ?StrFromMap@CRegObject@ATL@@QAEPB_WPA_W@Z 10021340 f i ToneIndicator.obj
 0001:000203d0       ?Swap@?$CComPtrBase@UIAdviseSink@@@ATL@@IAEXAAV12@@Z 100213d0 f i ToneIndicator.obj
 0001:00020410       ?Swap@?$CComPtrBase@UIOleClientSite@@@ATL@@IAEXAAV12@@Z 10021410 f i ToneIndicator.obj
 0001:00020450       ?Swap@?$CComPtrBase@UIUnknown@@@ATL@@IAEXAAV12@@Z 10021450 f i ToneIndicator.obj
 0001:00020490       ?T2COLE_EX@@YAPB_WPB_WI@Z  10021490 f i ToneIndicator.obj
 0001:000204a0       ?T2OLE_EX@@YAPA_WPA_WI@Z   100214a0 f i ToneIndicator.obj
 0001:000204b0       ?Term@CAtlModule@ATL@@QAEXXZ 100214b0 f i ToneIndicator.obj
 0001:00020560       ?Term@CComModule@ATL@@QAEXXZ 10021560 f i ToneIndicator.obj
 0001:00020650       ?TranslateAcceleratorW@?$IOleInPlaceActiveObjectImpl@VCOPOSToneIndicator@@@ATL@@UAGJPAUtagMSG@@@Z 10021650 f i ToneIndicator.obj
 0001:00020850       ?UIDeactivate@?$IOleInPlaceObjectWindowlessImpl@VCOPOSToneIndicator@@@ATL@@UAGJXZ 10021850 f i ToneIndicator.obj
 0001:000208d0       ?Unadvise@?$CProxy_IOPOSEvents@VCOPOSToneIndicator@@@@UAGJK@Z 100218d0 f i ToneIndicator.obj
 0001:00020910       ?Unadvise@?$IConnectionPointImpl@VCOPOSToneIndicator@@$1?DIID__IOPOSToneIndicatorEvents@@3U_GUID@@BVCComDynamicUnkArray@ATL@@@ATL@@UAGJK@Z 10021910 f i ToneIndicator.obj
 0001:000209e0       ?Unadvise@?$IConnectionPointImpl@VCOPOSToneIndicator@@$1?IID_IPropertyNotifySink@@3U_GUID@@BVCComDynamicUnkArray@ATL@@@ATL@@UAGJK@Z 100219e0 f i ToneIndicator.obj
 0001:00020ab0       ?Unadvise@?$IOleObjectImpl@VCOPOSToneIndicator@@@ATL@@UAGJK@Z 10021ab0 f i ToneIndicator.obj
 0001:00020b80       ?Unfreeze@?$IViewObjectExImpl@VCOPOSToneIndicator@@@ATL@@UAGJK@Z 10021b80 f i ToneIndicator.obj
 0001:00020bf0       ?Unlock@?$CComCritSecLock@VCComCriticalSection@ATL@@@ATL@@QAEXXZ 10021bf0 f i ToneIndicator.obj
 0001:00020c60       ?Unlock@?$CComObjectRootEx@VCComSingleThreadModel@ATL@@@ATL@@QAEXXZ 10021c60 f i ToneIndicator.obj
 0001:00020c80       ?Unlock@CAtlModule@ATL@@UAEJXZ 10021c80 f i ToneIndicator.obj
 0001:00020cb0       ?Unlock@CComCriticalSection@ATL@@QAEJXZ 10021cb0 f i ToneIndicator.obj
 0001:00020cf0       ?Unlock@CComFakeCriticalSection@ATL@@QAEJXZ 10021cf0 f i ToneIndicator.obj
 0001:00020d10       ?UnregisterServer@?$CAtlModuleT@VCComModule@ATL@@@ATL@@QAEJHPBU_GUID@@@Z 10021d10 f i ToneIndicator.obj
 0001:00020d80       ?UnregisterServer@CAtlComModule@ATL@@QAEJHPBU_GUID@@@Z 10021d80 f i ToneIndicator.obj
 0001:00020db0       ?UnregisterServer@CComModule@ATL@@QAEJHPBU_GUID@@@Z 10021db0 f i ToneIndicator.obj
 0001:00020e90       ?Update@?$IOleObjectImpl@VCOPOSToneIndicator@@@ATL@@UAGJXZ 10021e90 f i ToneIndicator.obj
 0001:00020ef0       ?UpdateRegistryFromResource@CAtlModule@ATL@@QAGJIHPAU_ATL_REGMAP_ENTRY@2@@Z 10021ef0 f i ToneIndicator.obj
 0001:000213c0       ?UpdateRegistryFromResource@CAtlModule@ATL@@QAGJPB_WHPAU_ATL_REGMAP_ENTRY@2@@Z 100223c0 f i ToneIndicator.obj
 0001:000218b0       ?UpdateRegistryFromResource@CComModule@ATL@@UAGJIHPAU_ATL_REGMAP_ENTRY@2@@Z 100228b0 f i ToneIndicator.obj
 0001:000218e0       ?UpdateRegistryFromResource@CComModule@ATL@@UAGJPB_WHPAU_ATL_REGMAP_ENTRY@2@@Z 100228e0 f i ToneIndicator.obj
 0001:00021910       ?UpdateRegistryFromResourceD@CComModule@ATL@@UAGJIHPAU_ATL_REGMAP_ENTRY@2@@Z 10022910 f i ToneIndicator.obj
 0001:00021920       ?UpdateRegistryFromResourceD@CComModule@ATL@@UAGJPB_WHPAU_ATL_REGMAP_ENTRY@2@@Z 10022920 f i ToneIndicator.obj
 0001:00021930       ?VTFromRegType@CRegParser@ATL@@KAHPB_WAAG@Z 10022930 f i ToneIndicator.obj
 0001:00021a10       ?WindowProc@?$CWindowImplBaseT@VCWindow@ATL@@V?$CWinTraits@$0FGAAAAAA@$0A@@2@@ATL@@SGJPAUHWND__@@IIJ@Z 10022a10 f i ToneIndicator.obj
 0001:00021c20       ?WriteToStream@CComBSTR@ATL@@QAEJPAUIStream@@@Z 10022c20 f i ToneIndicator.obj
 0001:00021d80       ?WriteToStream@CComVariant@ATL@@QAEJPAUIStream@@@Z 10022d80 f i ToneIndicator.obj
 0001:000220c0       ?WriteToStream@CComVariant@ATL@@QAEJPAUIStream@@G@Z 100230c0 f i ToneIndicator.obj
 0001:00022190       ?_AtlFinalConstruct@CComObjectRootBase@ATL@@QAEJXZ 10023190 f i ToneIndicator.obj
 0001:000221b0       ?_AtlGetConversionACP@ATL@@YGIXZ 100231b0 f i ToneIndicator.obj
 0001:000221c0       ?_AtlInitialConstruct@?$CComAggObject@VCOPOSToneIndicator@@@ATL@@QAEJXZ 100231c0 f i ToneIndicator.obj
 0001:00022210       ?_AtlInitialConstruct@?$CComObjectRootEx@VCComMultiThreadModel@ATL@@@ATL@@QAEJXZ 10023210 f i ToneIndicator.obj
 0001:00022240       ?_AtlInitialConstruct@?$CComObjectRootEx@VCComSingleThreadModel@ATL@@@ATL@@QAEJXZ 10023240 f i ToneIndicator.obj
 0001:00022260       ?_AtlVerifyStackAvailable@_ATL_SAFE_ALLOCA_IMPL@ATL@@YA_NK@Z 10023260 f i ToneIndicator.obj
 0001:00022410       ?_GetEntries@?$CComEnum@UIEnumConnectionPoints@@$1?_GUID_b196b285_bab4_101a_b69c_00aa00341d07@@3U__s_GUID@@BPAUIConnectionPoint@@V?$_CopyInterface@UIConnectionPoint@@@ATL@@VCComSingleThreadModel@6@@ATL@@SGPBU_ATL_INTMAP_ENTRY@2@XZ 10023410 f i ToneIndicator.obj
 0001:00022430       ?_GetEntries@?$CComEnum@UIEnumConnections@@$1?_GUID_b196b287_bab4_101a_b69c_00aa00341d07@@3U__s_GUID@@BUtagCONNECTDATA@@V?$_Copy@UtagCONNECTDATA@@@ATL@@VCComSingleThreadModel@6@@ATL@@SGPBU_ATL_INTMAP_ENTRY@2@XZ 10023430 f i ToneIndicator.obj
 0001:00022450       ?_GetEntries@CComClassFactory@ATL@@SGPBU_ATL_INTMAP_ENTRY@2@XZ 10023450 f i ToneIndicator.obj
 0001:00022470       ?_GetEntries@COPOSToneIndicator@@SGPBU_ATL_INTMAP_ENTRY@ATL@@XZ 10023470 f i ToneIndicator.obj
 0001:00022490       ?_GetRawUnknown@COPOSToneIndicator@@QAEPAUIUnknown@@XZ 10023490 f i ToneIndicator.obj
 0001:00022500       ?_GetViewStatus@COPOSToneIndicator@@QAEKXZ 10023500 f i ToneIndicator.obj
 0001:00022520       ?_InternalQueryInterface@?$CComEnum@UIEnumConnectionPoints@@$1?_GUID_b196b285_bab4_101a_b69c_00aa00341d07@@3U__s_GUID@@BPAUIConnectionPoint@@V?$_CopyInterface@UIConnectionPoint@@@ATL@@VCComSingleThreadModel@6@@ATL@@QAEJABU_GUID@@PAPAX@Z 10023520 f i ToneIndicator.obj
 0001:00022560       ?_InternalQueryInterface@?$CComEnum@UIEnumConnections@@$1?_GUID_b196b287_bab4_101a_b69c_00aa00341d07@@3U__s_GUID@@BUtagCONNECTDATA@@V?$_Copy@UtagCONNECTDATA@@@ATL@@VCComSingleThreadModel@6@@ATL@@QAEJABU_GUID@@PAPAX@Z 10023560 f i ToneIndicator.obj
 0001:000225a0       ?_InternalQueryInterface@CComClassFactory@ATL@@QAEJABU_GUID@@PAPAX@Z 100235a0 f i ToneIndicator.obj
 0001:000225e0       ?_InternalQueryInterface@COPOSToneIndicator@@QAEJABU_GUID@@PAPAX@Z 100235e0 f i ToneIndicator.obj
 0001:00022620       ?_LocCPQueryInterface@?$IConnectionPointImpl@VCOPOSToneIndicator@@$1?DIID__IOPOSToneIndicatorEvents@@3U_GUID@@BVCComDynamicUnkArray@ATL@@@ATL@@UAGJABU_GUID@@PAPAX@Z 10023620 f i ToneIndicator.obj
 0001:000226c0       ?_LocCPQueryInterface@?$IConnectionPointImpl@VCOPOSToneIndicator@@$1?IID_IPropertyNotifySink@@3U_GUID@@BVCComDynamicUnkArray@ATL@@@ATL@@UAGJABU_GUID@@PAPAX@Z 100236c0 f i ToneIndicator.obj
 0001:00022760       ?atlCreate@?$CWindowImpl@VCOPOSToneIndicator@@VCWindow@ATL@@V?$CWinTraits@$0FGAAAAAA@$0A@@3@@ATL@@QAEPAUHWND__@@PAU3@V_U_RECT@2@PB_WKKV_U_MENUorID@2@PAX@Z 10023760 f i ToneIndicator.obj
 0001:00022810       ?atlCreate@?$CWindowImplBaseT@VCWindow@ATL@@V?$CWinTraits@$0FGAAAAAA@$0A@@2@@ATL@@QAEPAUHWND__@@PAU3@V_U_RECT@2@PB_WKKV_U_MENUorID@2@GPAX@Z 10023810 f i ToneIndicator.obj
 0001:00022990       ?atlCreate@CRegKey@ATL@@QAEJPAUHKEY__@@PB_WPA_WKKPAU_SECURITY_ATTRIBUTES@@PAK@Z 10023990 f i ToneIndicator.obj
 0001:00022af0       ?begin@CComDynamicUnkArray@ATL@@QAEPAPAUIUnknown@@XZ 10023af0 f i ToneIndicator.obj
 0001:00022b10       ?copy@?$_Copy@UtagCONNECTDATA@@@ATL@@SAJPAUtagCONNECTDATA@@PBU3@@Z 10023b10 f i ToneIndicator.obj
 0001:00022bd0       ?copy@?$_CopyInterface@UIConnectionPoint@@@ATL@@SAJPAPAUIConnectionPoint@@PBQAU3@@Z 10023bd0 f i ToneIndicator.obj
 0001:00022c90       ?destroy@?$_Copy@UtagCONNECTDATA@@@ATL@@SAXPAUtagCONNECTDATA@@@Z 10023c90 f i ToneIndicator.obj
 0001:00022cd0       ?destroy@?$_CopyInterface@UIConnectionPoint@@@ATL@@SAXPAPAUIConnectionPoint@@@Z 10023cd0 f i ToneIndicator.obj
 0001:00022d10       ?end@CComDynamicUnkArray@ATL@@QAEPAPAUIUnknown@@XZ 10023d10 f i ToneIndicator.obj
 0001:00022d30       ?init@?$_Copy@UtagCONNECTDATA@@@ATL@@SAXPAUtagCONNECTDATA@@@Z 10023d30 f i ToneIndicator.obj
 0001:00022d40       ?init@?$_CopyInterface@UIConnectionPoint@@@ATL@@SAXPAPAUIConnectionPoint@@@Z 10023d40 f i ToneIndicator.obj
 0001:00022d50       ?memcpy_s@Checked@ATL@@YAXPAXIPBXI@Z 10023d50 f i ToneIndicator.obj
 0001:00022d80       ?ocscpy_s@@YA_NPA_WIPB_W@Z 10023d80 f i ToneIndicator.obj
 0001:00022de0       ?ocslen@@YAHPB_W@Z         10023de0 f i ToneIndicator.obj
 0001:00022e10       ?tcsncpy_s@Checked@ATL@@YAHPA_WIPB_WI@Z 10023e10 f i ToneIndicator.obj
 0001:00022e40       ?wcscat_s@Checked@ATL@@YAXPA_WIPB_W@Z 10023e40 f i ToneIndicator.obj
 0001:00022e70       ?wcscpy_s@Checked@ATL@@YAXPA_WIPB_W@Z 10023e70 f i ToneIndicator.obj
 0001:00022ea0       ?wcsncpy_s@Checked@ATL@@YAHPA_WIPB_WI@Z 10023ea0 f i ToneIndicator.obj
 0001:00022ed0       ?wcsstr@@YAPA_WPA_WPB_W@Z  10023ed0 f i ToneIndicator.obj
 0001:00022ef0       _InlineIsEqualGUID         10023ef0 f i ToneIndicator.obj
 0001:00022f90       _IsEqualGUID               10023f90 f i ToneIndicator.obj
 0001:00022fe0       ??0COPOSToneIndicator@@QAE@XZ 10023fe0 f   ToneIndicatorImpl.obj
 0001:000230f0       ?FinalConstruct@COPOSToneIndicator@@QAEJXZ 100240f0 f   ToneIndicatorImpl.obj
 0001:000231c0       ??1COPOSToneIndicator@@UAE@XZ 100241c0 f   ToneIndicatorImpl.obj
 0001:000232a0       ?WriteTrace@COPOSToneIndicator@@QAAXPB_WZZ 100242a0 f   ToneIndicatorImpl.obj
 0001:00023350       ?WriteTraceString@COPOSToneIndicator@@QAEXPB_WPA_W@Z 10024350 f   ToneIndicatorImpl.obj
 0001:000236c0       ?WriteTraceString@COPOSToneIndicator@@QAAXPAXHHHPB_WZZ 100246c0 f   ToneIndicatorImpl.obj
 0001:000238f0       ?WriteTraceError@COPOSToneIndicator@@QAEXPB_WK@Z 100248f0 f   ToneIndicatorImpl.obj
 0001:000239e0       ?WriteTraceMethods@COPOSToneIndicator@@QAEXPAJH@Z 100249e0 f   ToneIndicatorImpl.obj
 0001:00023a50       ?GetOposProp@COPOSToneIndicator@@IAEJPBDJPAJJ@Z 10024a50 f   ToneIndicatorImpl.obj
 0001:00023cc0       ?SetOposProp@COPOSToneIndicator@@IAEJPBDJJJ@Z 10024cc0 f   ToneIndicatorImpl.obj
 0001:00023f50       ?GetOposProp@COPOSToneIndicator@@IAEJPBDJPAFJ@Z 10024f50 f   ToneIndicatorImpl.obj
 0001:00023ff0       ?SetOposProp@COPOSToneIndicator@@IAEJPBDJFJ@Z 10024ff0 f   ToneIndicatorImpl.obj
 0001:00024050       ?GetOposProp@COPOSToneIndicator@@IAEJPBDJPAPA_WJ@Z 10025050 f   ToneIndicatorImpl.obj
 0001:000242d0       ?SetOposProp@COPOSToneIndicator@@IAEJPBDJPA_WJ@Z 100252d0 f   ToneIndicatorImpl.obj
 0001:00024610       ?DoInvoke@COPOSToneIndicator@@IAEJPBDJPAVOposVariant@@IHPAJ_N@Z 10025610 f   ToneIndicatorImpl.obj
 0001:00024f40       ?SetCOFreezeEvents@COPOSToneIndicator@@IAEXF@Z 10025f40 f   ToneIndicatorImpl.obj
 0001:00025080       ?FreezeEvents@COPOSToneIndicator@@MAGJH@Z 10026080 f   ToneIndicatorImpl.obj
 0001:00025160       ?OnDraw@COPOSToneIndicator@@MAEJAAUATL_DRAWINFO@@@Z 10026160 f   ToneIndicatorImpl.obj
 0001:00025300       ?SOProcessID@COPOSToneIndicator@@UAGJPAJ@Z 10026300 f   ToneIndicatorImpl.obj
 0001:00025340       ?get_OpenResult@COPOSToneIndicator@@UAGJPAJ@Z 10026340 f   ToneIndicatorImpl.obj
 0001:00025380       ?get_BinaryConversion@COPOSToneIndicator@@UAGJPAJ@Z 10026380 f   ToneIndicatorImpl.obj
 0001:000253b0       ?put_BinaryConversion@COPOSToneIndicator@@UAGJJ@Z 100263b0 f   ToneIndicatorImpl.obj
 0001:000253e0       ?get_CheckHealthText@COPOSToneIndicator@@UAGJPAPA_W@Z 100263e0 f   ToneIndicatorImpl.obj
 0001:00025410       ?get_Claimed@COPOSToneIndicator@@UAGJPAF@Z 10026410 f   ToneIndicatorImpl.obj
 0001:00025440       ?get_DeviceEnabled@COPOSToneIndicator@@UAGJPAF@Z 10026440 f   ToneIndicatorImpl.obj
 0001:00025470       ?put_DeviceEnabled@COPOSToneIndicator@@UAGJF@Z 10026470 f   ToneIndicatorImpl.obj
 0001:000254a0       ?get_FreezeEvents@COPOSToneIndicator@@UAGJPAF@Z 100264a0 f   ToneIndicatorImpl.obj
 0001:000254d0       ?put_FreezeEvents@COPOSToneIndicator@@UAGJF@Z 100264d0 f   ToneIndicatorImpl.obj
 0001:00025560       ?get_OutputID@COPOSToneIndicator@@UAGJPAJ@Z 10026560 f   ToneIndicatorImpl.obj
 0001:00025590       ?get_ResultCode@COPOSToneIndicator@@UAGJPAJ@Z 10026590 f   ToneIndicatorImpl.obj
 0001:00025620       ?get_ResultCodeExtended@COPOSToneIndicator@@UAGJPAJ@Z 10026620 f   ToneIndicatorImpl.obj
 0001:00025650       ?get_State@COPOSToneIndicator@@UAGJPAJ@Z 10026650 f   ToneIndicatorImpl.obj
 0001:000256a0       ?get_ControlObjectDescription@COPOSToneIndicator@@UAGJPAPA_W@Z 100266a0 f   ToneIndicatorImpl.obj
 0001:00025720       ?get_ControlObjectVersion@COPOSToneIndicator@@UAGJPAJ@Z 10026720 f   ToneIndicatorImpl.obj
 0001:00025760       ?get_ServiceObjectDescription@COPOSToneIndicator@@UAGJPAPA_W@Z 10026760 f   ToneIndicatorImpl.obj
 0001:00025790       ?get_ServiceObjectVersion@COPOSToneIndicator@@UAGJPAJ@Z 10026790 f   ToneIndicatorImpl.obj
 0001:000257c0       ?get_DeviceDescription@COPOSToneIndicator@@UAGJPAPA_W@Z 100267c0 f   ToneIndicatorImpl.obj
 0001:000257f0       ?get_DeviceName@COPOSToneIndicator@@UAGJPAPA_W@Z 100267f0 f   ToneIndicatorImpl.obj
 0001:00025820       ?CheckHealth@COPOSToneIndicator@@UAGJJPAJ@Z 10026820 f   ToneIndicatorImpl.obj
 0001:000258c0       ?ClaimDevice@COPOSToneIndicator@@UAGJJPAJ@Z 100268c0 f   ToneIndicatorImpl.obj
 0001:000259a0       ?ClearOutput@COPOSToneIndicator@@UAGJPAJ@Z 100269a0 f   ToneIndicatorImpl.obj
 0001:000259d0       ?Close@COPOSToneIndicator@@UAGJPAJ@Z 100269d0 f   ToneIndicatorImpl.obj
 0001:00025aa0       ?DirectIO@COPOSToneIndicator@@UAGJJPAJPAPA_W0@Z 10026aa0 f   ToneIndicatorImpl.obj
 0001:00025bb0       ?Open@COPOSToneIndicator@@UAGJPA_WPAJ@Z 10026bb0 f   ToneIndicatorImpl.obj
 0001:00026da0       ?ReleaseDevice@COPOSToneIndicator@@UAGJPAJ@Z 10027da0 f   ToneIndicatorImpl.obj
 0001:00026e00       ?get_AsyncMode@COPOSToneIndicator@@UAGJPAF@Z 10027e00 f   ToneIndicatorImpl.obj
 0001:00026e30       ?put_AsyncMode@COPOSToneIndicator@@UAGJF@Z 10027e30 f   ToneIndicatorImpl.obj
 0001:00026e60       ?get_CapPitch@COPOSToneIndicator@@UAGJPAF@Z 10027e60 f   ToneIndicatorImpl.obj
 0001:00026e90       ?get_CapVolume@COPOSToneIndicator@@UAGJPAF@Z 10027e90 f   ToneIndicatorImpl.obj
 0001:00026ec0       ?get_InterToneWait@COPOSToneIndicator@@UAGJPAJ@Z 10027ec0 f   ToneIndicatorImpl.obj
 0001:00026ef0       ?put_InterToneWait@COPOSToneIndicator@@UAGJJ@Z 10027ef0 f   ToneIndicatorImpl.obj
 0001:00026f20       ?get_Tone1Duration@COPOSToneIndicator@@UAGJPAJ@Z 10027f20 f   ToneIndicatorImpl.obj
 0001:00026f50       ?put_Tone1Duration@COPOSToneIndicator@@UAGJJ@Z 10027f50 f   ToneIndicatorImpl.obj
 0001:00026f80       ?get_Tone1Pitch@COPOSToneIndicator@@UAGJPAJ@Z 10027f80 f   ToneIndicatorImpl.obj
 0001:00026fb0       ?put_Tone1Pitch@COPOSToneIndicator@@UAGJJ@Z 10027fb0 f   ToneIndicatorImpl.obj
 0001:00026fe0       ?get_Tone1Volume@COPOSToneIndicator@@UAGJPAJ@Z 10027fe0 f   ToneIndicatorImpl.obj
 0001:00027010       ?put_Tone1Volume@COPOSToneIndicator@@UAGJJ@Z 10028010 f   ToneIndicatorImpl.obj
 0001:00027040       ?get_Tone2Duration@COPOSToneIndicator@@UAGJPAJ@Z 10028040 f   ToneIndicatorImpl.obj
 0001:00027070       ?put_Tone2Duration@COPOSToneIndicator@@UAGJJ@Z 10028070 f   ToneIndicatorImpl.obj
 0001:000270a0       ?get_Tone2Pitch@COPOSToneIndicator@@UAGJPAJ@Z 100280a0 f   ToneIndicatorImpl.obj
 0001:000270d0       ?put_Tone2Pitch@COPOSToneIndicator@@UAGJJ@Z 100280d0 f   ToneIndicatorImpl.obj
 0001:00027100       ?get_Tone2Volume@COPOSToneIndicator@@UAGJPAJ@Z 10028100 f   ToneIndicatorImpl.obj
 0001:00027130       ?put_Tone2Volume@COPOSToneIndicator@@UAGJJ@Z 10028130 f   ToneIndicatorImpl.obj
 0001:00027160       ?Sound@COPOSToneIndicator@@UAGJJJPAJ@Z 10028160 f   ToneIndicatorImpl.obj
 0001:00027230       ?SoundImmediate@COPOSToneIndicator@@UAGJPAJ@Z 10028230 f   ToneIndicatorImpl.obj
 0001:00027260       ?get_CapPowerReporting@COPOSToneIndicator@@UAGJPAJ@Z 10028260 f   ToneIndicatorImpl.obj
 0001:00027290       ?get_PowerNotify@COPOSToneIndicator@@UAGJPAJ@Z 10028290 f   ToneIndicatorImpl.obj
 0001:000272c0       ?put_PowerNotify@COPOSToneIndicator@@UAGJJ@Z 100282c0 f   ToneIndicatorImpl.obj
 0001:000272f0       ?get_PowerState@COPOSToneIndicator@@UAGJPAJ@Z 100282f0 f   ToneIndicatorImpl.obj
 0001:00027320       ?get_CapStatisticsReporting@COPOSToneIndicator@@UAGJPAF@Z 10028320 f   ToneIndicatorImpl.obj
 0001:00027350       ?get_CapUpdateStatistics@COPOSToneIndicator@@UAGJPAF@Z 10028350 f   ToneIndicatorImpl.obj
 0001:00027380       ?ResetStatistics@COPOSToneIndicator@@UAGJPA_WPAJ@Z 10028380 f   ToneIndicatorImpl.obj
 0001:00027430       ?RetrieveStatistics@COPOSToneIndicator@@UAGJPAPA_WPAJ@Z 10028430 f   ToneIndicatorImpl.obj
 0001:000274e0       ?UpdateStatistics@COPOSToneIndicator@@UAGJPA_WPAJ@Z 100284e0 f   ToneIndicatorImpl.obj
 0001:00027590       ?get_CapCompareFirmwareVersion@COPOSToneIndicator@@UAGJPAF@Z 10028590 f   ToneIndicatorImpl.obj
 0001:000275c0       ?get_CapUpdateFirmware@COPOSToneIndicator@@UAGJPAF@Z 100285c0 f   ToneIndicatorImpl.obj
 0001:000275f0       ?CompareFirmwareVersion@COPOSToneIndicator@@UAGJPA_WPAJ1@Z 100285f0 f   ToneIndicatorImpl.obj
 0001:000276e0       ?UpdateFirmware@COPOSToneIndicator@@UAGJPA_WPAJ@Z 100286e0 f   ToneIndicatorImpl.obj
 0001:00027790       ?get_CapMelody@COPOSToneIndicator@@UAGJPAJ@Z 10028790 f   ToneIndicatorImpl.obj
 0001:000277c0       ?get_MelodyType@COPOSToneIndicator@@UAGJPAJ@Z 100287c0 f   ToneIndicatorImpl.obj
 0001:000277f0       ?put_MelodyType@COPOSToneIndicator@@UAGJJ@Z 100287f0 f   ToneIndicatorImpl.obj
 0001:00027820       ?get_MelodyVolume@COPOSToneIndicator@@UAGJPAJ@Z 10028820 f   ToneIndicatorImpl.obj
 0001:00027850       ?put_MelodyVolume@COPOSToneIndicator@@UAGJJ@Z 10028850 f   ToneIndicatorImpl.obj
 0001:00027880       ??0?$CComControl@VCOPOSToneIndicator@@V?$CWindowImpl@VCOPOSToneIndicator@@VCWindow@ATL@@V?$CWinTraits@$0FGAAAAAA@$0A@@3@@ATL@@@ATL@@QAE@XZ 10028880 f i ToneIndicatorImpl.obj
 0001:000278c0       ??0?$CComPtr@UIAdviseSink@@@ATL@@QAE@XZ 100288c0 f i ToneIndicatorImpl.obj
 0001:000278f0       ??0?$CComPtr@UIDataAdviseHolder@@@ATL@@QAE@XZ 100288f0 f i ToneIndicatorImpl.obj
 0001:00027920       ??0?$CComPtr@UIOleAdviseHolder@@@ATL@@QAE@XZ 10028920 f i ToneIndicatorImpl.obj
 0001:00027950       ??0?$CComPtr@UIOleClientSite@@@ATL@@QAE@XZ 10028950 f i ToneIndicatorImpl.obj
 0001:00027980       ??0?$CComPtr@UIOleInPlaceSiteWindowless@@@ATL@@QAE@XZ 10028980 f i ToneIndicatorImpl.obj
 0001:000279b0       ??0?$CComPtrBase@UIAdviseSink@@@ATL@@IAE@XZ 100289b0 f i ToneIndicatorImpl.obj
 0001:000279d0       ??0?$CComPtrBase@UIDataAdviseHolder@@@ATL@@IAE@XZ 100289d0 f i ToneIndicatorImpl.obj
 0001:000279f0       ??0?$CComPtrBase@UIOleAdviseHolder@@@ATL@@IAE@XZ 100289f0 f i ToneIndicatorImpl.obj
 0001:00027a10       ??0?$CComPtrBase@UIOleClientSite@@@ATL@@IAE@XZ 10028a10 f i ToneIndicatorImpl.obj
 0001:00027a30       ??0?$CComPtrBase@UIOleInPlaceSiteWindowless@@@ATL@@IAE@XZ 10028a30 f i ToneIndicatorImpl.obj
 0001:00027a50       ??0?$CComQIPtr@UIDispatch@@$1?_GUID_00020400_0000_0000_c000_000000000046@@3U__s_GUID@@B@ATL@@QAE@XZ 10028a50 f i ToneIndicatorImpl.obj
 0001:00027a80       ??0?$CProxy_IOPOSEvents@VCOPOSToneIndicator@@@@QAE@PAVCOPOSToneIndicator@@@Z 10028a80 f i ToneIndicatorImpl.obj
 0001:00027af0       ??0?$CWindowImpl@VCOPOSToneIndicator@@VCWindow@ATL@@V?$CWinTraits@$0FGAAAAAA@$0A@@3@@ATL@@QAE@XZ 10028af0 f i ToneIndicatorImpl.obj
 0001:00027b20       ??0?$CWindowImplBaseT@VCWindow@ATL@@V?$CWinTraits@$0FGAAAAAA@$0A@@2@@ATL@@QAE@XZ 10028b20 f i ToneIndicatorImpl.obj
 0001:00027b60       ??0?$CWindowImplRoot@VCWindow@ATL@@@ATL@@QAE@XZ 10028b60 f i ToneIndicatorImpl.obj
 0001:00027bc0       ??0?$IConnectionPointContainerImpl@VCOPOSToneIndicator@@@ATL@@QAE@XZ 10028bc0 f i ToneIndicatorImpl.obj
 0001:00027bf0       ??0?$IConnectionPointImpl@VCOPOSToneIndicator@@$1?DIID__IOPOSToneIndicatorEvents@@3U_GUID@@BVCComDynamicUnkArray@ATL@@@ATL@@QAE@XZ 10028bf0 f i ToneIndicatorImpl.obj
 0001:00027c30       ??0?$IConnectionPointImpl@VCOPOSToneIndicator@@$1?IID_IPropertyNotifySink@@3U_GUID@@BVCComDynamicUnkArray@ATL@@@ATL@@QAE@XZ 10028c30 f i ToneIndicatorImpl.obj
 0001:00027c70       ??0?$IDataObjectImpl@VCOPOSToneIndicator@@@ATL@@QAE@XZ 10028c70 f i ToneIndicatorImpl.obj
 0001:00027ca0       ??0?$IDispatchImpl@UIOPOSToneIndicator@@$1?IID_IOPOSToneIndicator@@3U_GUID@@B$1?LIBID_OposToneIndicator_CCO@@3U3@B$00$0A@VCComTypeInfoHolder@ATL@@@ATL@@QAE@XZ 10028ca0 f i ToneIndicatorImpl.obj
 0001:00027cd0       ??0?$IObjectSafetyImpl@VCOPOSToneIndicator@@$02@ATL@@QAE@XZ 10028cd0 f i ToneIndicatorImpl.obj
 0001:00027d10       ??0?$IOleControlImpl@VCOPOSToneIndicator@@@ATL@@QAE@XZ 10028d10 f i ToneIndicatorImpl.obj
 0001:00027d40       ??0?$IOleInPlaceActiveObjectImpl@VCOPOSToneIndicator@@@ATL@@QAE@XZ 10028d40 f i ToneIndicatorImpl.obj
 0001:00027d70       ??0?$IOleInPlaceObjectWindowlessImpl@VCOPOSToneIndicator@@@ATL@@QAE@XZ 10028d70 f i ToneIndicatorImpl.obj
 0001:00027da0       ??0?$IOleObjectImpl@VCOPOSToneIndicator@@@ATL@@QAE@XZ 10028da0 f i ToneIndicatorImpl.obj
 0001:00027dd0       ??0?$IPersistStorageImpl@VCOPOSToneIndicator@@@ATL@@QAE@XZ 10028dd0 f i ToneIndicatorImpl.obj
 0001:00027e00       ??0?$IPersistStreamInitImpl@VCOPOSToneIndicator@@@ATL@@QAE@XZ 10028e00 f i ToneIndicatorImpl.obj
 0001:00027e30       ??0?$IPropertyNotifySinkCP@VCOPOSToneIndicator@@VCComDynamicUnkArray@ATL@@@ATL@@QAE@XZ 10028e30 f i ToneIndicatorImpl.obj
 0001:00027e60       ??0?$IProvideClassInfo2Impl@$1?CLSID_OPOSToneIndicator@@3U_GUID@@B$1?DIID__IOPOSToneIndicatorEvents@@3U2@B$1?LIBID_OposToneIndicator_CCO@@3U2@B$00$0A@VCComTypeInfoHolder@ATL@@@ATL@@QAE@XZ 10028e60 f i ToneIndicatorImpl.obj
 0001:00027e90       ??0?$IQuickActivateImpl@VCOPOSToneIndicator@@@ATL@@QAE@XZ 10028e90 f i ToneIndicatorImpl.obj
 0001:00027ec0       ??0?$ISpecifyPropertyPagesImpl@VCOPOSToneIndicator@@@ATL@@QAE@XZ 10028ec0 f i ToneIndicatorImpl.obj
 0001:00027ef0       ??0?$IViewObjectExImpl@VCOPOSToneIndicator@@@ATL@@QAE@XZ 10028ef0 f i ToneIndicatorImpl.obj
 0001:00027f20       ??0?$_ICPLocator@$1?DIID__IOPOSToneIndicatorEvents@@3U_GUID@@B@ATL@@QAE@XZ 10028f20 f i ToneIndicatorImpl.obj
 0001:00027f40       ??0?$_ICPLocator@$1?IID_IPropertyNotifySink@@3U_GUID@@B@ATL@@QAE@XZ 10028f40 f i ToneIndicatorImpl.obj
 0001:00027f60       ??0CComControlBase@ATL@@QAE@AAPAUHWND__@@@Z 10028f60 f i ToneIndicatorImpl.obj
 0001:00028110       ??0CComDynamicUnkArray@ATL@@QAE@XZ 10029110 f i ToneIndicatorImpl.obj
 0001:00028140       ??0CDynamicStdCallThunk2@ATL@@QAE@XZ 10029140 f i ToneIndicatorImpl.obj
 0001:00028160       ??0CMessageMap@ATL@@QAE@XZ 10029160 f i ToneIndicatorImpl.obj
 0001:00028180       ??0CWindow@ATL@@QAE@PAUHWND__@@@Z 10029180 f i ToneIndicatorImpl.obj
 0001:000281a0       ??0CWndProcThunk@ATL@@QAE@XZ 100291a0 f i ToneIndicatorImpl.obj
 0001:000281d0       ??0IConnectionPointContainer@@QAE@XZ 100291d0 f i ToneIndicatorImpl.obj
 0001:00028200       ??0IDataObject@@QAE@XZ     10029200 f i ToneIndicatorImpl.obj
 0001:00028230       ??0IDispatch@@QAE@XZ       10029230 f i ToneIndicatorImpl.obj
 0001:00028260       ??0IOPOSToneIndicator@@QAE@XZ 10029260 f i ToneIndicatorImpl.obj
 0001:00028290       ??0IOPOSToneIndicator_1_13@@QAE@XZ 10029290 f i ToneIndicatorImpl.obj
 0001:000282c0       ??0IOPOSToneIndicator_1_5@@QAE@XZ 100292c0 f i ToneIndicatorImpl.obj
 0001:000282f0       ??0IOPOSToneIndicator_1_8@@QAE@XZ 100292f0 f i ToneIndicatorImpl.obj
 0001:00028320       ??0IOPOSToneIndicator_1_9@@QAE@XZ 10029320 f i ToneIndicatorImpl.obj
 0001:00028350       ??0IObjectSafety@@QAE@XZ   10029350 f i ToneIndicatorImpl.obj
 0001:00028380       ??0IOleControl@@QAE@XZ     10029380 f i ToneIndicatorImpl.obj
 0001:000283b0       ??0IOleInPlaceActiveObject@@QAE@XZ 100293b0 f i ToneIndicatorImpl.obj
 0001:000283e0       ??0IOleInPlaceObject@@QAE@XZ 100293e0 f i ToneIndicatorImpl.obj
 0001:00028410       ??0IOleInPlaceObjectWindowless@@QAE@XZ 10029410 f i ToneIndicatorImpl.obj
 0001:00028440       ??0IOleObject@@QAE@XZ      10029440 f i ToneIndicatorImpl.obj
 0001:00028470       ??0IOleWindow@@QAE@XZ      10029470 f i ToneIndicatorImpl.obj
 0001:000284a0       ??0IPersist@@QAE@XZ        100294a0 f i ToneIndicatorImpl.obj
 0001:000284d0       ??0IPersistStorage@@QAE@XZ 100294d0 f i ToneIndicatorImpl.obj
 0001:00028500       ??0IPersistStreamInit@@QAE@XZ 10029500 f i ToneIndicatorImpl.obj
 0001:00028530       ??0IProvideClassInfo2@@QAE@XZ 10029530 f i ToneIndicatorImpl.obj
 0001:00028560       ??0IProvideClassInfo@@QAE@XZ 10029560 f i ToneIndicatorImpl.obj
 0001:00028590       ??0IQuickActivate@@QAE@XZ  10029590 f i ToneIndicatorImpl.obj
 0001:000285c0       ??0ISpecifyPropertyPages@@QAE@XZ 100295c0 f i ToneIndicatorImpl.obj
 0001:000285f0       ??0IViewObject2@@QAE@XZ    100295f0 f i ToneIndicatorImpl.obj
 0001:00028620       ??0IViewObject@@QAE@XZ     10029620 f i ToneIndicatorImpl.obj
 0001:00028650       ??0IViewObjectEx@@QAE@XZ   10029650 f i ToneIndicatorImpl.obj
 0001:00028680       ??0OposVariantResult@@QAE@XZ 10029680 f i ToneIndicatorImpl.obj
 0001:000286b0       ??0_CW@@QAE@PBD@Z          100296b0 f i ToneIndicatorImpl.obj
 0001:000286f0       ??0_CW@@QAE@PB_W@Z         100296f0 f i ToneIndicatorImpl.obj
 0001:00028730       ??0_CWNCC@@QAE@PBD@Z       10029730 f i ToneIndicatorImpl.obj
 0001:00028760       ??1?$CComControl@VCOPOSToneIndicator@@V?$CWindowImpl@VCOPOSToneIndicator@@VCWindow@ATL@@V?$CWinTraits@$0FGAAAAAA@$0A@@3@@ATL@@@ATL@@UAE@XZ 10029760 f i ToneIndicatorImpl.obj
 0001:00028790       ??1?$CComPtr@UIDataAdviseHolder@@@ATL@@QAE@XZ 10029790 f i ToneIndicatorImpl.obj
 0001:000287c0       ??1?$CComPtr@UIOleAdviseHolder@@@ATL@@QAE@XZ 100297c0 f i ToneIndicatorImpl.obj
 0001:000287f0       ??1?$CComPtr@UIOleInPlaceSiteWindowless@@@ATL@@QAE@XZ 100297f0 f i ToneIndicatorImpl.obj
 0001:00028820       ??1?$CComPtrBase@UIDataAdviseHolder@@@ATL@@QAE@XZ 10029820 f i ToneIndicatorImpl.obj
 0001:00028870       ??1?$CComPtrBase@UIOleAdviseHolder@@@ATL@@QAE@XZ 10029870 f i ToneIndicatorImpl.obj
 0001:000288c0       ??1?$CComPtrBase@UIOleInPlaceSiteWindowless@@@ATL@@QAE@XZ 100298c0 f i ToneIndicatorImpl.obj
 0001:00028910       ??1?$CComQIPtr@UIDispatch@@$1?_GUID_00020400_0000_0000_c000_000000000046@@3U__s_GUID@@B@ATL@@QAE@XZ 10029910 f i ToneIndicatorImpl.obj
 0001:00028940       ??1?$CProxy_IOPOSEvents@VCOPOSToneIndicator@@@@QAE@XZ 10029940 f i ToneIndicatorImpl.obj
 0001:00028970       ??1?$CWindowImpl@VCOPOSToneIndicator@@VCWindow@ATL@@V?$CWinTraits@$0FGAAAAAA@$0A@@3@@ATL@@UAE@XZ 10029970 f i ToneIndicatorImpl.obj
 0001:000289a0       ??1?$CWindowImplBaseT@VCWindow@ATL@@V?$CWinTraits@$0FGAAAAAA@$0A@@2@@ATL@@UAE@XZ 100299a0 f i ToneIndicatorImpl.obj
 0001:000289d0       ??1?$CWindowImplRoot@VCWindow@ATL@@@ATL@@UAE@XZ 100299d0 f i ToneIndicatorImpl.obj
 0001:00028a70       ??1?$IConnectionPointImpl@VCOPOSToneIndicator@@$1?DIID__IOPOSToneIndicatorEvents@@3U_GUID@@BVCComDynamicUnkArray@ATL@@@ATL@@QAE@XZ 10029a70 f i ToneIndicatorImpl.obj
 0001:00028af0       ??1?$IConnectionPointImpl@VCOPOSToneIndicator@@$1?IID_IPropertyNotifySink@@3U_GUID@@BVCComDynamicUnkArray@ATL@@@ATL@@QAE@XZ 10029af0 f i ToneIndicatorImpl.obj
 0001:00028b70       ??1?$IPropertyNotifySinkCP@VCOPOSToneIndicator@@VCComDynamicUnkArray@ATL@@@ATL@@QAE@XZ 10029b70 f i ToneIndicatorImpl.obj
 0001:00028ba0       ??1CComControlBase@ATL@@UAE@XZ 10029ba0 f i ToneIndicatorImpl.obj
 0001:00028c60       ??1CComDynamicUnkArray@ATL@@QAE@XZ 10029c60 f i ToneIndicatorImpl.obj
 0001:00028ca0       ??1CDynamicStdCallThunk2@ATL@@QAE@XZ 10029ca0 f i ToneIndicatorImpl.obj
 0001:00028cd0       ??1CWndProcThunk@ATL@@QAE@XZ 10029cd0 f i ToneIndicatorImpl.obj
 0001:00028d00       ??1OposVariantResult@@QAE@XZ 10029d00 f i ToneIndicatorImpl.obj
 0001:00028d30       ??1_CW@@QAE@XZ             10029d30 f i ToneIndicatorImpl.obj
 0001:00028da0       ??1_CWNCC@@QAE@XZ          10029da0 f i ToneIndicatorImpl.obj
 0001:00028dd0       ??B_CW@@QAEPB_WXZ          10029dd0 f i ToneIndicatorImpl.obj
 0001:00028e10       ??B_CWNCC@@QAEPA_WXZ       10029e10 f i ToneIndicatorImpl.obj
 0001:00028e40       ??_EOposVariant@@QAEPAXI@Z 10029e40 f i ToneIndicatorImpl.obj
 0001:00028ed0       ?EventClose@COPOSToneIndicator@@IAEXXZ 10029ed0 f i ToneIndicatorImpl.obj
 0001:00028f70       ?EventInit@COPOSToneIndicator@@IAEJXZ 10029f70 f i ToneIndicatorImpl.obj
 0001:000291a0       ?EventOpen@COPOSToneIndicator@@IAEXXZ 1002a1a0 f i ToneIndicatorImpl.obj
 0001:000291e0       ?EventPreClose@COPOSToneIndicator@@IAEXXZ 1002a1e0 f i ToneIndicatorImpl.obj
 0001:00029260       ?EventUninit@COPOSToneIndicator@@IAEXXZ 1002a260 f i ToneIndicatorImpl.obj
 0001:00029390       ?EventWindowProc@COPOSToneIndicator@@IAGJIIJ@Z 1002a390 f i ToneIndicatorImpl.obj
 0001:00029510       ?FireEventCleanup@COPOSToneIndicator@@IAEXXZ 1002a510 f i ToneIndicatorImpl.obj
 0001:00029560       ?FireEventSetup@COPOSToneIndicator@@IAE_NXZ 1002a560 f i ToneIndicatorImpl.obj
 0001:000295d0       ?GetModuleInstance@CComModule@ATL@@QAEPAUHINSTANCE__@@XZ 1002a5d0 f i ToneIndicatorImpl.obj
 0001:000295f0       ?SetRC@COPOSToneIndicator@@IAEJJ@Z 1002a5f0 f i ToneIndicatorImpl.obj
 0001:00029620       ?s_EventWindowProc@COPOSToneIndicator@@KGJPAUHWND__@@IIJ@Z 1002a620 f i ToneIndicatorImpl.obj
 0001:000296c0       __snwprintf                1002a6c0 f i ToneIndicatorImpl.obj
 0001:00029720       __vfwprintf_l              1002a720 f i ToneIndicatorImpl.obj
 0001:00029750       __vsnwprintf               1002a750 f i ToneIndicatorImpl.obj
 0001:00029780       __vsnwprintf_l             1002a780 f i ToneIndicatorImpl.obj
 0001:000297f0       _vfwprintf                 1002a7f0 f i ToneIndicatorImpl.obj
 0001:00029812       _DebugBreak@0              1002a812 f   kernel32:KERNEL32.dll
 0001:00029818       _Sleep@4                   1002a818 f   kernel32:KERNEL32.dll
 0001:0002981e       _GetCurrentProcess@0       1002a81e f   kernel32:KERNEL32.dll
 0001:00029824       _TerminateProcess@8        1002a824 f   kernel32:KERNEL32.dll
 0001:0002982a       _MultiByteToWideChar@24    1002a82a f   kernel32:KERNEL32.dll
 0001:00029830       _WideCharToMultiByte@32    1002a830 f   kernel32:KERNEL32.dll
 0001:00029836       _DecodePointer@4           1002a836 f   kernel32:KERNEL32.dll
 0001:0002983c       _RaiseException@16         1002a83c f   kernel32:KERNEL32.dll
 0001:00029842       _GetLastError@0            1002a842 f   kernel32:KERNEL32.dll
 0001:00029848       _SetLastError@4            1002a848 f   kernel32:KERNEL32.dll
 0001:0002984e       _InitializeCriticalSectionEx@12 1002a84e f   kernel32:KERNEL32.dll
 0001:00029854       _DeleteCriticalSection@4   1002a854 f   kernel32:KERNEL32.dll
 0001:0002985a       _EncodePointer@4           1002a85a f   kernel32:KERNEL32.dll
 0001:00029860       _EnterCriticalSection@4    1002a860 f   kernel32:KERNEL32.dll
 0001:00029866       _LeaveCriticalSection@4    1002a866 f   kernel32:KERNEL32.dll
 0001:0002986c       _ResetEvent@4              1002a86c f   kernel32:KERNEL32.dll
 0001:00029872       _ReleaseMutex@4            1002a872 f   kernel32:KERNEL32.dll
 0001:00029878       _WaitForSingleObject@8     1002a878 f   kernel32:KERNEL32.dll
 0001:0002987e       _GetCurrentThreadId@0      1002a87e f   kernel32:KERNEL32.dll
 0001:00029884       _DisableThreadLibraryCalls@4 1002a884 f   kernel32:KERNEL32.dll
 0001:0002988a       _FreeLibrary@4             1002a88a f   kernel32:KERNEL32.dll
 0001:00029890       _GetModuleFileNameW@12     1002a890 f   kernel32:KERNEL32.dll
 0001:00029896       _GetModuleHandleW@4        1002a896 f   kernel32:KERNEL32.dll
 0001:0002989c       _GetProcAddress@8          1002a89c f   kernel32:KERNEL32.dll
 0001:000298a2       _LoadLibraryExW@12         1002a8a2 f   kernel32:KERNEL32.dll
 0001:000298a8       _LoadResource@8            1002a8a8 f   kernel32:KERNEL32.dll
 0001:000298ae       _SizeofResource@8          1002a8ae f   kernel32:KERNEL32.dll
 0001:000298b4       _FindResourceW@12          1002a8b4 f   kernel32:KERNEL32.dll
 0001:000298ba       _GlobalAlloc@8             1002a8ba f   kernel32:KERNEL32.dll
 0001:000298c0       _GlobalUnlock@4            1002a8c0 f   kernel32:KERNEL32.dll
 0001:000298c6       _GlobalLock@4              1002a8c6 f   kernel32:KERNEL32.dll
 0001:000298cc       _MulDiv@12                 1002a8cc f   kernel32:KERNEL32.dll
 0001:000298d2       _lstrcmpiW@8               1002a8d2 f   kernel32:KERNEL32.dll
 0001:000298d8       _DeleteFileW@4             1002a8d8 f   kernel32:KERNEL32.dll
 0001:000298de       _CloseHandle@4             1002a8de f   kernel32:KERNEL32.dll
 0001:000298e4       _SetEvent@4                1002a8e4 f   kernel32:KERNEL32.dll
 0001:000298ea       _CreateMutexW@12           1002a8ea f   kernel32:KERNEL32.dll
 0001:000298f0       _CreateEventW@16           1002a8f0 f   kernel32:KERNEL32.dll
 0001:000298f6       _GetCurrentProcessId@0     1002a8f6 f   kernel32:KERNEL32.dll
 0001:000298fc       _LocalFree@4               1002a8fc f   kernel32:KERNEL32.dll
 0001:00029902       _FormatMessageW@28         1002a902 f   kernel32:KERNEL32.dll
 0001:00029908       _GetActiveWindow@0         1002a908 f   user32:USER32.dll
 0001:0002990e       _MessageBoxW@16            1002a90e f   user32:USER32.dll
 0001:00029914       _UnregisterClassW@8        1002a914 f   user32:USER32.dll
 0001:0002991a       _PostMessageW@16           1002a91a f   user32:USER32.dll
 0001:00029920       _DefWindowProcW@16         1002a920 f   user32:USER32.dll
 0001:00029926       _CallWindowProcW@20        1002a926 f   user32:USER32.dll
 0001:0002992c       _RegisterClassExW@4        1002a92c f   user32:USER32.dll
 0001:00029932       _GetClassInfoExW@12        1002a932 f   user32:USER32.dll
 0001:00029938       _CreateWindowExW@48        1002a938 f   user32:USER32.dll
 0001:0002993e       _IsWindow@4                1002a93e f   user32:USER32.dll
 0001:00029944       _IsChild@8                 1002a944 f   user32:USER32.dll
 0001:0002994a       _DestroyWindow@4           1002a94a f   user32:USER32.dll
 0001:00029950       _ShowWindow@8              1002a950 f   user32:USER32.dll
 0001:00029956       _SetWindowPos@28           1002a956 f   user32:USER32.dll
 0001:0002995c       _CharNextW@4               1002a95c f   user32:USER32.dll
 0001:00029962       _SetFocus@4                1002a962 f   user32:USER32.dll
 0001:00029968       _GetFocus@0                1002a968 f   user32:USER32.dll
 0001:0002996e       _GetKeyState@4             1002a96e f   user32:USER32.dll
 0001:00029974       _GetDC@4                   1002a974 f   user32:USER32.dll
 0001:0002997a       _ReleaseDC@8               1002a97a f   user32:USER32.dll
 0001:00029980       _BeginPaint@8              1002a980 f   user32:USER32.dll
 0001:00029986       _EndPaint@8                1002a986 f   user32:USER32.dll
 0001:0002998c       _SetWindowRgn@12           1002a98c f   user32:USER32.dll
 0001:00029992       _InvalidateRect@12         1002a992 f   user32:USER32.dll
 0001:00029998       _GetClientRect@8           1002a998 f   user32:USER32.dll
 0001:0002999e       _IntersectRect@12          1002a99e f   user32:USER32.dll
 0001:000299a4       _UnionRect@12              1002a9a4 f   user32:USER32.dll
 0001:000299aa       _OffsetRect@12             1002a9aa f   user32:USER32.dll
 0001:000299b0       _EqualRect@8               1002a9b0 f   user32:USER32.dll
 0001:000299b6       _PtInRect@12               1002a9b6 f   user32:USER32.dll
 0001:000299bc       _GetWindowLongW@8          1002a9bc f   user32:USER32.dll
 0001:000299c2       _SetWindowLongW@12         1002a9c2 f   user32:USER32.dll
 0001:000299c8       _GetParent@4               1002a9c8 f   user32:USER32.dll
 0001:000299ce       _LoadCursorW@8             1002a9ce f   user32:USER32.dll
 0001:000299d4       _PeekMessageW@20           1002a9d4 f   user32:USER32.dll
 0001:000299da       _RegisterClassW@4          1002a9da f   user32:USER32.dll
 0001:000299e0       _LoadBitmapW@8             1002a9e0 f   user32:USER32.dll
 0001:000299e6       _CloseMetaFile@4           1002a9e6 f   gdi32:GDI32.dll
 0001:000299ec       _CreateDCW@16              1002a9ec f   gdi32:GDI32.dll
 0001:000299f2       _CreateMetaFileW@4         1002a9f2 f   gdi32:GDI32.dll
 0001:000299f8       _CreateRectRgnIndirect@4   1002a9f8 f   gdi32:GDI32.dll
 0001:000299fe       _DeleteDC@4                1002a9fe f   gdi32:GDI32.dll
 0001:00029a04       _DeleteMetaFile@4          1002aa04 f   gdi32:GDI32.dll
 0001:00029a0a       _GetDeviceCaps@8           1002aa0a f   gdi32:GDI32.dll
 0001:00029a10       _RestoreDC@8               1002aa10 f   gdi32:GDI32.dll
 0001:00029a16       _SaveDC@4                  1002aa16 f   gdi32:GDI32.dll
 0001:00029a1c       _SetMapMode@8              1002aa1c f   gdi32:GDI32.dll
 0001:00029a22       _LPtoDP@12                 1002aa22 f   gdi32:GDI32.dll
 0001:00029a28       _SetViewportOrgEx@16       1002aa28 f   gdi32:GDI32.dll
 0001:00029a2e       _SetWindowExtEx@16         1002aa2e f   gdi32:GDI32.dll
 0001:00029a34       _SetWindowOrgEx@16         1002aa34 f   gdi32:GDI32.dll
 0001:00029a3a       _BitBlt@36                 1002aa3a f   gdi32:GDI32.dll
 0001:00029a40       _CreateCompatibleDC@4      1002aa40 f   gdi32:GDI32.dll
 0001:00029a46       _DeleteObject@4            1002aa46 f   gdi32:GDI32.dll
 0001:00029a4c       _SelectObject@8            1002aa4c f   gdi32:GDI32.dll
 0001:00029a52       _GetObjectW@12             1002aa52 f   gdi32:GDI32.dll
 0001:00029a58       _RegCloseKey@4             1002aa58 f   advapi32:ADVAPI32.dll
 0001:00029a5e       _RegCreateKeyExW@36        1002aa5e f   advapi32:ADVAPI32.dll
 0001:00029a64       _RegDeleteKeyW@8           1002aa64 f   advapi32:ADVAPI32.dll
 0001:00029a6a       _RegDeleteValueW@8         1002aa6a f   advapi32:ADVAPI32.dll
 0001:00029a70       _RegEnumKeyExW@32          1002aa70 f   advapi32:ADVAPI32.dll
 0001:00029a76       _RegOpenKeyExW@20          1002aa76 f   advapi32:ADVAPI32.dll
 0001:00029a7c       _RegQueryInfoKeyW@48       1002aa7c f   advapi32:ADVAPI32.dll
 0001:00029a82       _RegSetValueExW@24         1002aa82 f   advapi32:ADVAPI32.dll
 0001:00029a88       _RegQueryValueExW@24       1002aa88 f   advapi32:ADVAPI32.dll
 0001:00029a8e       _CoCreateInstance@20       1002aa8e f   ole32:ole32.dll
 0001:00029a94       _StringFromGUID2@12        1002aa94 f   ole32:ole32.dll
 0001:00029a9a       _CoTaskMemAlloc@4          1002aa9a f   ole32:ole32.dll
 0001:00029aa0       _CoTaskMemRealloc@8        1002aaa0 f   ole32:ole32.dll
 0001:00029aa6       _CoTaskMemFree@4           1002aaa6 f   ole32:ole32.dll
 0001:00029aac       _ReadClassStm@8            1002aaac f   ole32:ole32.dll
 0001:00029ab2       _WriteClassStm@8           1002aab2 f   ole32:ole32.dll
 0001:00029ab8       _CreateDataAdviseHolder@4  1002aab8 f   ole32:ole32.dll
 0001:00029abe       _OleSaveToStream@8         1002aabe f   ole32:ole32.dll
 0001:00029ac4       _CreateOleAdviseHolder@4   1002aac4 f   ole32:ole32.dll
 0001:00029aca       _OleRegGetUserType@12      1002aaca f   ole32:ole32.dll
 0001:00029ad0       _OleRegGetMiscStatus@12    1002aad0 f   ole32:ole32.dll
 0001:00029ad6       _OleRegEnumVerbs@8         1002aad6 f   ole32:ole32.dll
 0001:00029adc       _CLSIDFromProgID@8         1002aadc f   ole32:ole32.dll
 0001:00029ae2       _SysAllocString@4          1002aae2 f   oleaut32:OLEAUT32.dll
 0001:00029ae8       _SysAllocStringLen@8       1002aae8 f   oleaut32:OLEAUT32.dll
 0001:00029aee       _SysFreeString@4           1002aaee f   oleaut32:OLEAUT32.dll
 0001:00029af4       _SysStringLen@4            1002aaf4 f   oleaut32:OLEAUT32.dll
 0001:00029afa       _VariantClear@4            1002aafa f   oleaut32:OLEAUT32.dll
 0001:00029b00       _VariantCopyInd@8          1002ab00 f   oleaut32:OLEAUT32.dll
 0001:00029b06       _VariantChangeType@16      1002ab06 f   oleaut32:OLEAUT32.dll
 0001:00029b0c       _SysStringByteLen@4        1002ab0c f   oleaut32:OLEAUT32.dll
 0001:00029b12       _SysAllocStringByteLen@8   1002ab12 f   oleaut32:OLEAUT32.dll
 0001:00029b18       _VariantInit@4             1002ab18 f   oleaut32:OLEAUT32.dll
 0001:00029b1e       _VarUI4FromStr@16          1002ab1e f   oleaut32:OLEAUT32.dll
 0001:00029b24       _LoadTypeLib@8             1002ab24 f   oleaut32:OLEAUT32.dll
 0001:00029b2a       _LoadRegTypeLib@20         1002ab2a f   oleaut32:OLEAUT32.dll
 0001:00029b30       _RegisterTypeLib@12        1002ab30 f   oleaut32:OLEAUT32.dll
 0001:00029b36       _UnRegisterTypeLib@20      1002ab36 f   oleaut32:OLEAUT32.dll
 0001:00029b3c       _OleCreatePropertyFrame@44 1002ab3c f   oleaut32:OLEAUT32.dll
 0001:00029b50       @_RTC_AllocaHelper@12      1002ab50 f   LIBCMTD:stack.obj
 0001:00029b90       @_RTC_CheckStackVars2@12   1002ab90 f   LIBCMTD:stack.obj
 0001:00029c70       @_RTC_CheckStackVars@8     1002ac70 f   LIBCMTD:stack.obj
 0001:00029ce0       __RTC_CheckEsp             1002ace0 f   LIBCMTD:stack.obj
 0001:00029d20       @__security_check_cookie@4 1002ad20 f   LIBCMTD:secchk.obj
 0001:00029d40       __CRT_RTC_INIT             1002ad40 f   LIBCMTD:init.obj
 0001:00029d50       __CRT_RTC_INITW            1002ad50 f   LIBCMTD:init.obj
 0001:00029d60       __RTC_InitBase             1002ad60 f   LIBCMTD:init.obj
 0001:00029d90       __RTC_Shutdown             1002ad90 f   LIBCMTD:init.obj
 0001:00029db0       ??_U@YAPAXI@Z              1002adb0 f   LIBCMTD:new_array.obj
 0001:00029dd0       ??3@YAXPAXI@Z              1002add0 f   LIBCMTD:delete_scalar_size.obj
 0001:00029df0       ??_V@YAXPAX@Z              1002adf0 f   LIBCMTD:delete_array.obj
 0001:00029e10       ??_V@YAXPAXI@Z             1002ae10 f   LIBCMTD:delete_array_size.obj
 0001:00029e30       ?configure_argv@__scrt_narrow_argv_policy@@SAHXZ 1002ae30 f i LIBCMTD:utility.obj
 0001:00029ee0       ?initialize_environment@__scrt_narrow_environment_policy@@SAHXZ 1002aee0 f i LIBCMTD:utility.obj
 0001:00029f60       _NtCurrentTeb              1002af60 f i LIBCMTD:utility.obj
 0001:00029f70       ___scrt_acquire_startup_lock 1002af70 f   LIBCMTD:utility.obj
 0001:00029fc0       ___scrt_dllmain_after_initialize_c 1002afc0 f   LIBCMTD:utility.obj
 0001:00029ff0       ___scrt_dllmain_before_initialize_c 1002aff0 f   LIBCMTD:utility.obj
 0001:0002a010       ___scrt_dllmain_crt_thread_attach 1002b010 f   LIBCMTD:utility.obj
 0001:0002a040       ___scrt_dllmain_crt_thread_detach 1002b040 f   LIBCMTD:utility.obj
 0001:0002a060       ___scrt_dllmain_exception_filter 1002b060 f   LIBCMTD:utility.obj
 0001:0002a0b0       ___scrt_dllmain_uninitialize_c 1002b0b0 f   LIBCMTD:utility.obj
 0001:0002a0e0       ___scrt_dllmain_uninitialize_critical 1002b0e0 f   LIBCMTD:utility.obj
 0001:0002a100       ___scrt_initialize_crt     1002b100 f   LIBCMTD:utility.obj
 0001:0002a150       ___scrt_initialize_onexit_tables 1002b150 f   LIBCMTD:utility.obj
 0001:0002a230       ___scrt_is_nonwritable_in_current_image 1002b230 f   LIBCMTD:utility.obj
 0001:0002a360       ___scrt_release_startup_lock 1002b360 f   LIBCMTD:utility.obj
 0001:0002a390       ___scrt_uninitialize_crt   1002b390 f   LIBCMTD:utility.obj
 0001:0002a3d0       __onexit                   1002b3d0 f   LIBCMTD:utility.obj
 0001:0002a440       _at_quick_exit             1002b440 f   LIBCMTD:utility.obj
 0001:0002a480       _atexit                    1002b480 f   LIBCMTD:utility.obj
 0001:0002a4b0       ??3@YAXPAX@Z               1002b4b0 f   LIBCMTD:delete_scalar.obj
 0001:0002a4d0       ___raise_securityfailure   1002b4d0 f   LIBCMTD:gs_report.obj
 0001:0002a500       ___report_gsfailure        1002b500 f   LIBCMTD:gs_report.obj
 0001:0002a610       ___report_rangecheckfailure 1002b610 f   LIBCMTD:gs_report.obj
 0001:0002a620       ___report_securityfailure  1002b620 f   LIBCMTD:gs_report.obj
 0001:0002a700       ___report_securityfailureEx 1002b700 f   LIBCMTD:gs_report.obj
 0001:0002a950       __Init_thread_abort        1002b950 f   LIBCMTD:thread_safe_statics.obj
 0001:0002a970       __Init_thread_footer       1002b970 f   LIBCMTD:thread_safe_statics.obj
 0001:0002a9c0       __Init_thread_header       1002b9c0 f   LIBCMTD:thread_safe_statics.obj
 0001:0002aa30       __Init_thread_lock         1002ba30 f   LIBCMTD:thread_safe_statics.obj
 0001:0002aa40       __Init_thread_notify       1002ba40 f   LIBCMTD:thread_safe_statics.obj
 0001:0002aa90       __Init_thread_unlock       1002ba90 f   LIBCMTD:thread_safe_statics.obj
 0001:0002aaa0       __Init_thread_wait         1002baa0 f   LIBCMTD:thread_safe_statics.obj
 0001:0002ab30       ??2@YAPAXIABUnothrow_t@std@@@Z 1002bb30 f   LIBCMTD:new_scalar_nothrow.obj
 0001:0002abb0       ??_U@YAPAXIABUnothrow_t@std@@@Z 1002bbb0 f   LIBCMTD:new_array_nothrow.obj
 0001:0002abd0       __allmul                   1002bbd0 f   LIBCMTD:llmul.obj
 0001:0002ac10       __alloca_probe_16          1002bc10 f   LIBCMTD:alloca16.obj
 0001:0002ac26       __alloca_probe_8           1002bc26     LIBCMTD:alloca16.obj
 0001:0002ac40       __chkstk                   1002bc40 f   LIBCMTD:chkstk.obj
 0001:0002ac40       __alloca_probe             1002bc40 f   LIBCMTD:chkstk.obj
 0001:0002b120       __CRT_INIT@12              1002c120 f   LIBCMTD:dll_dllmain.obj
 0001:0002b140       __DllMainCRTStartup@12     1002c140 f   LIBCMTD:dll_dllmain.obj
 0001:0002b200       ?_RTC_AllocaFailure@@YAXPAXPAU_RTC_ALLOCA_NODE@@H@Z 1002c200 f   LIBCMTD:error.obj
 0001:0002b2f0       ?_RTC_Failure@@YAXPAXH@Z   1002c2f0 f   LIBCMTD:error.obj
 0001:0002b340       ?_RTC_StackFailure@@YAXPAXPBD@Z 1002c340 f   LIBCMTD:error.obj
 0001:0002b700       __RTC_UninitUse            1002c700 f   LIBCMTD:error.obj
 0001:0002b7b0       __vsprintf_s_l             1002c7b0 f i LIBCMTD:error.obj
 0001:0002b7e0       _sprintf_s                 1002c7e0 f i LIBCMTD:error.obj
 0001:0002b800       ?_RTC_GetErrorFunc@@YAP6AHHPBDH00ZZPBX@Z 1002c800 f   LIBCMTD:userapi.obj
 0001:0002b810       ?_RTC_GetErrorFuncW@@YAP6AHHPB_WH00ZZPBX@Z 1002c810 f   LIBCMTD:userapi.obj
 0001:0002b820       __RTC_GetErrDesc           1002c820 f   LIBCMTD:userapi.obj
 0001:0002b840       __RTC_NumErrors            1002c840 f   LIBCMTD:userapi.obj
 0001:0002b850       __RTC_SetErrorFunc         1002c850 f   LIBCMTD:userapi.obj
 0001:0002b870       __RTC_SetErrorFuncW        1002c870 f   LIBCMTD:userapi.obj
 0001:0002b890       __RTC_SetErrorType         1002c890 f   LIBCMTD:userapi.obj
 0001:0002b8c0       ??2@YAPAXI@Z               1002c8c0 f   LIBCMTD:new_scalar.obj
 0001:0002b910       ___isa_available_init      1002c910 f   LIBCMTD:cpu_disp.obj
 0001:0002bbf0       __get_startup_argv_mode    1002cbf0 f   LIBCMTD:argv_mode.obj
 0001:0002bc00       ___scrt_is_ucrt_dll_in_use 1002cc00 f   LIBCMTD:ucrt_detection.obj
 0001:0002bc30       ___scrt_fastfail           1002cc30 f   LIBCMTD:utility_desktop.obj
 0001:0002bd70       ___scrt_get_show_window_mode 1002cd70 f   LIBCMTD:utility_desktop.obj
 0001:0002bdb0       ___scrt_initialize_mta     1002cdb0 f   LIBCMTD:utility_desktop.obj
 0001:0002bdc0       ___scrt_initialize_winrt   1002cdc0 f   LIBCMTD:utility_desktop.obj
 0001:0002bdd0       ___scrt_is_managed_app     1002cdd0 f   LIBCMTD:utility_desktop.obj
 0001:0002be60       ___scrt_set_unhandled_exception_filter 1002ce60 f   LIBCMTD:utility_desktop.obj
 0001:0002be70       ___scrt_exe_initialize_mta 1002ce70 f   LIBCMTD:utility_desktop.obj
 0001:0002be70       ___scrt_stub_for_initialize_mta 1002ce70 f   LIBCMTD:utility_desktop.obj
 0001:0002be80       ___scrt_unhandled_exception_filter@4 1002ce80 f   LIBCMTD:utility_desktop.obj
 0001:0002bee0       __crt_debugger_hook        1002cee0 f   LIBCMTD:utility_desktop.obj
 0001:0002bef0       @_guard_check_icall_nop@4  1002cef0 f i LIBCMTD:guard_support.obj
 0001:0002bf00       _ReadNoFence               1002cf00 f i LIBCMTD:guard_support.obj
 0001:0002bf20       _ReadPointerNoFence        1002cf20 f i LIBCMTD:guard_support.obj
 0001:0002bf40       __guard_icall_checks_enforced 1002cf40 f i LIBCMTD:guard_support.obj
 0001:0002bfe0       ___security_init_cookie    1002cfe0 f   LIBCMTD:gs_support.obj
 0001:0002c060       ?__scrt_initialize_type_info@@YAXXZ 1002d060 f   LIBCMTD:tncleanup.obj
 0001:0002c070       ?__scrt_uninitialize_type_info@@YAXXZ 1002d070 f   LIBCMTD:tncleanup.obj
 0001:0002c090       ___local_stdio_scanf_options 1002d090 f i LIBCMTD:default_local_stdio_options.obj
 0001:0002c0a0       ___scrt_initialize_default_local_stdio_options 1002d0a0 f   LIBCMTD:default_local_stdio_options.obj
 0001:0002c0e0       ___scrt_get_dyn_tls_init_callback 1002d0e0 f   LIBCMTD:dyn_tls_init.obj
 0001:0002c0f0       __RTC_Initialize           1002d0f0 f   LIBCMTD:initsect.obj
 0001:0002c120       __RTC_Terminate            1002d120 f   LIBCMTD:initsect.obj
 0001:0002c5d0       ?_RTC_GetSrcLine@@YAHPAEPA_WKPAH1K@Z 1002d5d0 f   LIBCMTD:pdblkup.obj
 0001:0002c960       __except_handler4_noexcept 1002d960 f   LIBCMTD:chandler4_noexcept.obj
 0001:0002c9b0       ??0bad_alloc@std@@AAE@QBD@Z 1002d9b0 f i LIBCMTD:throw_bad_alloc.obj
 0001:0002c9e0       ??0bad_alloc@std@@QAE@ABV01@@Z 1002d9e0 f i LIBCMTD:throw_bad_alloc.obj
 0001:0002ca10       ??0bad_alloc@std@@QAE@XZ   1002da10 f i LIBCMTD:throw_bad_alloc.obj
 0001:0002ca40       ??0bad_array_new_length@std@@QAE@ABV01@@Z 1002da40 f i LIBCMTD:throw_bad_alloc.obj
 0001:0002ca70       ??0bad_array_new_length@std@@QAE@XZ 1002da70 f i LIBCMTD:throw_bad_alloc.obj
 0001:0002caa0       ??0exception@std@@QAE@ABV01@@Z 1002daa0 f i LIBCMTD:throw_bad_alloc.obj
 0001:0002cae0       ??0exception@std@@QAE@QBDH@Z 1002dae0 f i LIBCMTD:throw_bad_alloc.obj
 0001:0002cb10       ??1bad_alloc@std@@UAE@XZ   1002db10 f i LIBCMTD:throw_bad_alloc.obj
 0001:0002cb30       ??1bad_array_new_length@std@@UAE@XZ 1002db30 f i LIBCMTD:throw_bad_alloc.obj
 0001:0002cb50       ??1exception@std@@UAE@XZ   1002db50 f i LIBCMTD:throw_bad_alloc.obj
 0001:0002cb80       ??_Ebad_alloc@std@@UAEPAXI@Z 1002db80 f i LIBCMTD:throw_bad_alloc.obj
 0001:0002cb80       ??_Gbad_alloc@std@@UAEPAXI@Z 1002db80 f i LIBCMTD:throw_bad_alloc.obj
 0001:0002cbb0       ??_Gbad_array_new_length@std@@UAEPAXI@Z 1002dbb0 f i LIBCMTD:throw_bad_alloc.obj
 0001:0002cbb0       ??_Ebad_array_new_length@std@@UAEPAXI@Z 1002dbb0 f i LIBCMTD:throw_bad_alloc.obj
 0001:0002cbe0       ??_Eexception@std@@UAEPAXI@Z 1002dbe0 f i LIBCMTD:throw_bad_alloc.obj
 0001:0002cbe0       ??_Gexception@std@@UAEPAXI@Z 1002dbe0 f i LIBCMTD:throw_bad_alloc.obj
 0001:0002cc10       ?__scrt_throw_std_bad_alloc@@YAXXZ 1002dc10 f   LIBCMTD:throw_bad_alloc.obj
 0001:0002cc30       ?__scrt_throw_std_bad_array_new_length@@YAXXZ 1002dc30 f   LIBCMTD:throw_bad_alloc.obj
 0001:0002cc50       ?what@exception@std@@UBEPBDXZ 1002dc50 f i LIBCMTD:throw_bad_alloc.obj
 0001:0002cc80       ??1type_info@@UAE@XZ       1002dc80 f   LIBCMTD:std_type_info_static.obj
 0001:0002cca0       ??_Gtype_info@@UAEPAXI@Z   1002dca0 f i LIBCMTD:std_type_info_static.obj
 0001:0002cca0       ??_Etype_info@@UAEPAXI@Z   1002dca0 f i LIBCMTD:std_type_info_static.obj
 0001:0002ccce       ??$?2PAUHINSTANCE__@@@Wrapper@?$CSimpleArray@PAUHINSTANCE__@@V?$CSimpleArrayEqualHelper@PAUHINSTANCE__@@@ATL@@@ATL@@SAPAXIPAPAUHINSTANCE__@@@Z 1002dcce f i atls:atlbase.obj
 0001:0002ccd6       ??0?$CSimpleArray@PAUHINSTANCE__@@V?$CSimpleArrayEqualHelper@PAUHINSTANCE__@@@ATL@@@ATL@@QAE@XZ 1002dcd6 f i atls:atlbase.obj
 0001:0002cce3       ??0CAtlBaseModule@ATL@@QAE@XZ 1002dce3 f   atls:atlbase.obj
 0001:0002cd36       ??0Wrapper@?$CSimpleArray@PAUHINSTANCE__@@V?$CSimpleArrayEqualHelper@PAUHINSTANCE__@@@ATL@@@ATL@@QAE@ABQAUHINSTANCE__@@@Z 1002dd36 f i atls:atlbase.obj
 0001:0002cd46       ??0_ATL_BASE_MODULE70@ATL@@QAE@XZ 1002dd46 f i atls:atlbase.obj
 0001:0002cd69       ??1?$CSimpleArray@PAUHINSTANCE__@@V?$CSimpleArrayEqualHelper@PAUHINSTANCE__@@@ATL@@@ATL@@QAE@XZ 1002dd69 f i atls:atlbase.obj
 0001:0002cd6e       ??1CAtlBaseModule@ATL@@QAE@XZ 1002dd6e f   atls:atlbase.obj
 0001:0002cd84       ??1_ATL_BASE_MODULE70@ATL@@QAE@XZ 1002dd84 f i atls:atlbase.obj
 0001:0002cd8c       ??A?$CSimpleArray@PAUHINSTANCE__@@V?$CSimpleArrayEqualHelper@PAUHINSTANCE__@@@ATL@@@ATL@@QAEAAPAUHINSTANCE__@@H@Z 1002dd8c f i atls:atlbase.obj
 0001:0002cdb1       ?Add@?$CSimpleArray@PAUHINSTANCE__@@V?$CSimpleArrayEqualHelper@PAUHINSTANCE__@@@ATL@@@ATL@@QAEHABQAUHINSTANCE__@@@Z 1002ddb1 f i atls:atlbase.obj
 0001:0002ce33       ?AddResourceInstance@CAtlBaseModule@ATL@@QAE_NPAUHINSTANCE__@@@Z 1002de33 f   atls:atlbase.obj
 0001:0002ce66       ?GetHInstanceAt@CAtlBaseModule@ATL@@QAEPAUHINSTANCE__@@H@Z 1002de66 f   atls:atlbase.obj
 0001:0002ceab       ?GetSize@?$CSimpleArray@PAUHINSTANCE__@@V?$CSimpleArrayEqualHelper@PAUHINSTANCE__@@@ATL@@@ATL@@QBEHXZ 1002deab f i atls:atlbase.obj
 0001:0002ceaf       ?InternalSetAtIndex@?$CSimpleArray@PAUHINSTANCE__@@V?$CSimpleArrayEqualHelper@PAUHINSTANCE__@@@ATL@@@ATL@@QAEXHABQAUHINSTANCE__@@@Z 1002deaf f i atls:atlbase.obj
 0001:0002cec9       ?RemoveAll@?$CSimpleArray@PAUHINSTANCE__@@V?$CSimpleArrayEqualHelper@PAUHINSTANCE__@@@ATL@@@ATL@@QAEXXZ 1002dec9 f i atls:atlbase.obj
 0001:0002cee6       ?RemoveAt@?$CSimpleArray@PAUHINSTANCE__@@V?$CSimpleArrayEqualHelper@PAUHINSTANCE__@@@ATL@@@ATL@@QAEHH@Z 1002dee6 f i atls:atlbase.obj
 0001:0002cf34       ?RemoveResourceInstance@CAtlBaseModule@ATL@@QAE_NPAUHINSTANCE__@@@Z 1002df34 f   atls:atlbase.obj
 0001:0002cf91       ?memmove_s@Checked@ATL@@YAXPAXIPBXI@Z 1002df91 f i atls:atlbase.obj
 0001:0002d2ee       ?GetCodeAddress@_stdcallthunk@ATL@@QAEPAXXZ 1002e2ee f i atls:atlthunk.obj
 0001:0002d318       ?Init@_stdcallthunk@ATL@@QAEHKPAX@Z 1002e318 f i atls:atlthunk.obj
 0001:0002d34d       ?__AllocStdCallThunk@@YGPAXXZ 1002e34d f   atls:atlthunk.obj
 0001:0002d352       ?__AllocStdCallThunk@ATL@@YGPAXXZ 1002e352 f   atls:atlthunk.obj
 0001:0002d357       ?__AllocStdCallThunk_cmn@@YAPAXXZ 1002e357 f   atls:atlthunk.obj
 0001:0002d41d       ?__FreeStdCallThunk@@YGXPAX@Z 1002e41d f   atls:atlthunk.obj
 0001:0002d42d       ?__FreeStdCallThunk@ATL@@YGXPAX@Z 1002e42d f   atls:atlthunk.obj
 0001:0002d43d       ?__FreeStdCallThunk_cmn@@YAXPAX@Z 1002e43d f   atls:atlthunk.obj
 0001:0002d4d8       _AtlThunk_AllocateData@0   1002e4d8 f   atls:atlthunk.obj
 0001:0002d53d       _AtlThunk_DataToCode@4     1002e53d f   atls:atlthunk.obj
 0001:0002d584       _AtlThunk_FreeData@4       1002e584 f   atls:atlthunk.obj
 0001:0002d5da       _AtlThunk_InitData@12      1002e5da f   atls:atlthunk.obj
 0001:0002d629       _MemoryBarrier             1002e629 f i atls:atlthunk.obj
 0001:0002d637       __InlineInterlockedCompareExchangePointer 1002e637 f i atls:atlthunk.obj
 0001:0002d650       _memset                    1002e650 f   libvcruntimed:memset.obj
 0001:0002d7b0       ??$__crt_interlocked_exchange_pointer@$$A6AXXZP6AXXZ@@YAP6AXXZPDS6AXXZQ6AXXZ@Z 1002e7b0 f i libvcruntimed:purevirt.obj
 0001:0002d7c0       ??$__crt_interlocked_read_pointer@$$A6AXXZ@@YAP6AXXZPDS6AXXZ@Z 1002e7c0 f i libvcruntimed:purevirt.obj
 0001:0002d7e0       ?__crt_interlocked_read_32@@YAHPDH@Z 1002e7e0 f i libvcruntimed:purevirt.obj
 0001:0002d800       __get_purecall_handler     1002e800 f   libvcruntimed:purevirt.obj
 0001:0002d820       __purecall                 1002e820 f   libvcruntimed:purevirt.obj
 0001:0002d850       __set_purecall_handler     1002e850 f   libvcruntimed:purevirt.obj
 0001:0002da20       _memcmp                    1002ea20 f   libvcruntimed:memcmp.obj
 0001:0002e2f0       _memcpy                    1002f2f0 f   libvcruntimed:memcpy.obj
 0001:0002e870       _wcsstr                    1002f870 f   libvcruntimed:wcsstr.obj
 0001:0002eda0       __except_handler4          1002fda0 f   libvcruntimed:chandler4.obj
 0001:0002ef90       ___vcrt_initialize         1002ff90 f   libvcruntimed:initialization.obj
 0001:0002efd0       ___vcrt_thread_attach      1002ffd0 f   libvcruntimed:initialization.obj
 0001:0002eff0       ___vcrt_thread_detach      1002fff0 f   libvcruntimed:initialization.obj
 0001:0002f010       ___vcrt_uninitialize       10030010 f   libvcruntimed:initialization.obj
 0001:0002f030       ___vcrt_uninitialize_critical 10030030 f   libvcruntimed:initialization.obj
 0001:0002f050       ??$?0AAViterator@TryBlockMap@__FrameHandler3@@AAV012@$0A@@?$pair@Viterator@TryBlockMap@__FrameHandler3@@V123@@std@@QAE@AAViterator@TryBlockMap@__FrameHandler3@@0@Z 10030050 f i libvcruntimed:trnsctrl.obj
 0001:0002f0a0       ??$forward@AAViterator@TryBlockMap@__FrameHandler3@@@std@@YAAAViterator@TryBlockMap@__FrameHandler3@@AAV123@@Z 100300a0 f i libvcruntimed:trnsctrl.obj
 0001:0002f0b0       ??0iterator@TryBlockMap@__FrameHandler3@@QAE@AAV12@I@Z 100300b0 f i libvcruntimed:trnsctrl.obj
 0001:0002f0e0       ?GetRangeOfTrysToCheck@__FrameHandler3@@SA?AU?$pair@Viterator@TryBlockMap@__FrameHandler3@@V123@@std@@AAVTryBlockMap@1@HPAXPBU_s_FuncInfo@@H@Z 100300e0 f   libvcruntimed:trnsctrl.obj
 0001:0002f1c0       ?_CallCatchBlock2@@YAPAXPAUEHRegistrationNode@@PBU_s_FuncInfo@@PAXHK@Z 100301c0 f   libvcruntimed:trnsctrl.obj
 0001:0002f230       ?_CallSETranslator@@YAHPAUEHExceptionRecord@@PAUEHRegistrationNode@@PAX2PBU_s_FuncInfo@@H1@Z 10030230 f   libvcruntimed:trnsctrl.obj
 0001:0002f330       ?_JumpToContinuation@@YGXPAXPAUEHRegistrationNode@@@Z 10030330 f   libvcruntimed:trnsctrl.obj
 0001:0002f370       ?_UnwindNestedFrames@@YGXPAUEHRegistrationNode@@PAUEHExceptionRecord@@@Z 10030370 f   libvcruntimed:trnsctrl.obj
 0001:0002f3d0       __CatchGuardHandler        100303d0 f   libvcruntimed:trnsctrl.obj
 0001:0002f420       __CreateFrameInfo          10030420 f   libvcruntimed:trnsctrl.obj
 0001:0002f450       __FindAndUnlinkFrame       10030450 f   libvcruntimed:trnsctrl.obj
 0001:0002f4d0       __TranslatorGuardHandler   100304d0 f   libvcruntimed:trnsctrl.obj
 0001:0002f580       ___CxxFrameHandler         10030580 f   libvcruntimed:trnsctrl.obj
 0001:0002f5c0       ___CxxFrameHandler2        100305c0 f   libvcruntimed:trnsctrl.obj
 0001:0002f600       ___CxxFrameHandler3        10030600 f   libvcruntimed:trnsctrl.obj
 0001:0002f640       ___CxxLongjmpUnwind@4      10030640 f   libvcruntimed:trnsctrl.obj
 0001:0002f680       ?<lambda_invoker_cdecl>@_Closure_wrapper_b3626920_1@@CAPAXI@Z 10030680 f i libvcruntimed:std_type_info.obj
 0001:0002f690       ?<lambda_invoker_cdecl>@_Closure_wrapper_b3626920_2@@CAXQAX@Z 10030690 f i libvcruntimed:std_type_info.obj
 0001:0002f6a0       ??$?RD@__crt_internal_free_policy@@QBEXQBD@Z 100306a0 f i libvcruntimed:std_type_info.obj
 0001:0002f6c0       ??$?RX@__crt_internal_free_policy@@QBEXQBX@Z 100306c0 f i libvcruntimed:std_type_info.obj
 0001:0002f6e0       ??$__crt_interlocked_compare_exchange_pointer@$$CBDPAD$$T@@YAPBDPDSBDQAD$$T@Z 100306e0 f i libvcruntimed:std_type_info.obj
 0001:0002f700       ??$__crt_interlocked_read_pointer@$$CBD@@YAPBDPDSBD@Z 10030700 f i libvcruntimed:std_type_info.obj
 0001:0002f720       ??0?$__crt_unique_heap_ptr@DU__crt_internal_free_policy@@@@QAE@QAD@Z 10030720 f i libvcruntimed:std_type_info.obj
 0001:0002f740       ??0?$__crt_unique_heap_ptr@XU__crt_internal_free_policy@@@@QAE@QAX@Z 10030740 f i libvcruntimed:std_type_info.obj
 0001:0002f760       ??1?$__crt_unique_heap_ptr@DU__crt_internal_free_policy@@@@QAE@XZ 10030760 f i libvcruntimed:std_type_info.obj
 0001:0002f780       ??1?$__crt_unique_heap_ptr@XU__crt_internal_free_policy@@@@QAE@XZ 10030780 f i libvcruntimed:std_type_info.obj
 0001:0002f7a0       ??B?$__crt_unique_heap_ptr@DU__crt_internal_free_policy@@@@QBE_NXZ 100307a0 f i libvcruntimed:std_type_info.obj
 0001:0002f7c0       ??B?$__crt_unique_heap_ptr@XU__crt_internal_free_policy@@@@QBE_NXZ 100307c0 f i libvcruntimed:std_type_info.obj
 0001:0002f7e0       ??B_Closure_wrapper_b3626920_1@@QBEP6APAXI@ZXZ 100307e0 f i libvcruntimed:std_type_info.obj
 0001:0002f7f0       ??B_Closure_wrapper_b3626920_2@@QBEP6AXQAX@ZXZ 100307f0 f i libvcruntimed:std_type_info.obj
 0001:0002f850       ?detach@?$__crt_unique_heap_ptr@XU__crt_internal_free_policy@@@@QAEPAXXZ 10030850 f i libvcruntimed:std_type_info.obj
 0001:0002f880       ?get@?$__crt_unique_heap_ptr@DU__crt_internal_free_policy@@@@QBEPADXZ 10030880 f i libvcruntimed:std_type_info.obj
 0001:0002f890       ?get@?$__crt_unique_heap_ptr@XU__crt_internal_free_policy@@@@QBEPAXXZ 10030890 f i libvcruntimed:std_type_info.obj
 0001:0002f8a0       ?is_valid@?$__crt_unique_heap_ptr@DU__crt_internal_free_policy@@@@QBE_NXZ 100308a0 f i libvcruntimed:std_type_info.obj
 0001:0002f8d0       ?is_valid@?$__crt_unique_heap_ptr@XU__crt_internal_free_policy@@@@QBE_NXZ 100308d0 f i libvcruntimed:std_type_info.obj
 0001:0002f900       ?release@?$__crt_unique_heap_ptr@DU__crt_internal_free_policy@@@@QAEXXZ 10030900 f i libvcruntimed:std_type_info.obj
 0001:0002f930       ?release@?$__crt_unique_heap_ptr@XU__crt_internal_free_policy@@@@QAEXXZ 10030930 f i libvcruntimed:std_type_info.obj
 0001:0002f960       ___std_type_info_compare   10030960 f   libvcruntimed:std_type_info.obj
 0001:0002f990       ___std_type_info_destroy_list 10030990 f   libvcruntimed:std_type_info.obj
 0001:0002f9d0       ___std_type_info_hash      100309d0 f   libvcruntimed:std_type_info.obj
 0001:0002fa30       ___std_type_info_name      10030a30 f   libvcruntimed:std_type_info.obj
 0001:0002fc10       ___vcrt_GetModuleFileNameW 10030c10 f   libvcruntimed:winapi_thunks.obj
 0001:0002fc30       ___vcrt_GetModuleHandleW   10030c30 f   libvcruntimed:winapi_thunks.obj
 0001:0002fc40       ___vcrt_LoadLibraryExW     10030c40 f   libvcruntimed:winapi_thunks.obj
 0001:0002fc60       ??$?RD@__crt_public_free_policy@@QBEXQBD@Z 10030c60 f i libvcruntimed:std_exception.obj
 0001:0002fc80       ??0?$__crt_unique_heap_ptr@DU__crt_public_free_policy@@@@QAE@QAD@Z 10030c80 f i libvcruntimed:std_exception.obj
 0001:0002fca0       ??1?$__crt_unique_heap_ptr@DU__crt_public_free_policy@@@@QAE@XZ 10030ca0 f i libvcruntimed:std_exception.obj
 0001:0002fcc0       ??B?$__crt_unique_heap_ptr@DU__crt_public_free_policy@@@@QBE_NXZ 10030cc0 f i libvcruntimed:std_exception.obj
 0001:0002fce0       ?detach@?$__crt_unique_heap_ptr@DU__crt_public_free_policy@@@@QAEPADXZ 10030ce0 f i libvcruntimed:std_exception.obj
 0001:0002fd10       ?get@?$__crt_unique_heap_ptr@DU__crt_public_free_policy@@@@QBEPADXZ 10030d10 f i libvcruntimed:std_exception.obj
 0001:0002fd20       ?is_valid@?$__crt_unique_heap_ptr@DU__crt_public_free_policy@@@@QBE_NXZ 10030d20 f i libvcruntimed:std_exception.obj
 0001:0002fd50       ?release@?$__crt_unique_heap_ptr@DU__crt_public_free_policy@@@@QAEXXZ 10030d50 f i libvcruntimed:std_exception.obj
 0001:0002fd80       ___std_exception_copy      10030d80 f   libvcruntimed:std_exception.obj
 0001:0002fe70       ___std_exception_destroy   10030e70 f   libvcruntimed:std_exception.obj
 0001:0002fea0       __CxxThrowException@8      10030ea0 f   libvcruntimed:throw.obj
 0001:0002ff60       _memmove                   10030f60 f   libvcruntimed:memmove.obj
 0001:000304e0       __local_unwind4            100314e0 f   libvcruntimed:exsup4.obj
 0001:000305b8       __seh_longjmp_unwind4@4    100315b8 f   libvcruntimed:exsup4.obj
 0001:000305e0       @_EH4_CallFilterFunc@8     100315e0 f   libvcruntimed:exsup4.obj
 0001:000305f8       @_EH4_TransferToHandler@8  100315f8 f   libvcruntimed:exsup4.obj
 0001:00030614       @_EH4_GlobalUnwind2@8      10031614 f   libvcruntimed:exsup4.obj
 0001:00030630       @_EH4_LocalUnwind@16       10031630 f   libvcruntimed:exsup4.obj
 0001:00030660       ___except_validate_context_record 10031660 f   libvcruntimed:jbcxrval.obj
 0001:000306b0       ___except_validate_jump_buffer 100316b0 f   libvcruntimed:jbcxrval.obj
 0001:000306d0       ___except_validate_jump_buffer_common 100316d0 f i libvcruntimed:jbcxrval.obj
 0001:00030730       ??$?RU__vcrt_ptd@@@__crt_internal_free_policy@@QBEXQBU__vcrt_ptd@@@Z 10031730 f i libvcruntimed:per_thread_data.obj
 0001:00030750       ??0?$__crt_unique_heap_ptr@U__vcrt_ptd@@U__crt_internal_free_policy@@@@QAE@QAU__vcrt_ptd@@@Z 10031750 f i libvcruntimed:per_thread_data.obj
 0001:00030790       ??1?$__crt_unique_heap_ptr@U__vcrt_ptd@@U__crt_internal_free_policy@@@@QAE@XZ 10031790 f i libvcruntimed:per_thread_data.obj
 0001:000307d0       ??B?$__crt_unique_heap_ptr@U__vcrt_ptd@@U__crt_internal_free_policy@@@@QBE_NXZ 100317d0 f i libvcruntimed:per_thread_data.obj
 0001:000307f0       ?detach@?$__crt_unique_heap_ptr@U__vcrt_ptd@@U__crt_internal_free_policy@@@@QAEPAU__vcrt_ptd@@XZ 100317f0 f i libvcruntimed:per_thread_data.obj
 0001:00030820       ?get@?$__crt_unique_heap_ptr@U__vcrt_ptd@@U__crt_internal_free_policy@@@@QBEPAU__vcrt_ptd@@XZ 10031820 f i libvcruntimed:per_thread_data.obj
 0001:00030830       ?is_valid@?$__crt_unique_heap_ptr@U__vcrt_ptd@@U__crt_internal_free_policy@@@@QBE_NXZ 10031830 f i libvcruntimed:per_thread_data.obj
 0001:00030860       ?release@?$__crt_unique_heap_ptr@U__vcrt_ptd@@U__crt_internal_free_policy@@@@QAEXXZ 10031860 f i libvcruntimed:per_thread_data.obj
 0001:000308c0       ___vcrt_freefls@4          100318c0 f   libvcruntimed:per_thread_data.obj
 0001:000308f0       ___vcrt_freeptd            100318f0 f   libvcruntimed:per_thread_data.obj
 0001:00030950       ___vcrt_getptd             10031950 f   libvcruntimed:per_thread_data.obj
 0001:00030970       ___vcrt_getptd_noexit      10031970 f   libvcruntimed:per_thread_data.obj
 0001:00030ad0       ___vcrt_getptd_noinit      10031ad0 f   libvcruntimed:per_thread_data.obj
 0001:00030b30       ___vcrt_initialize_ptd     10031b30 f   libvcruntimed:per_thread_data.obj
 0001:00030b80       ___vcrt_uninitialize_ptd   10031b80 f   libvcruntimed:per_thread_data.obj
 0001:00030bb0       ___vcrt_initialize_locks   10031bb0 f   libvcruntimed:locks.obj
 0001:00030c10       ___vcrt_lock               10031c10 f   libvcruntimed:locks.obj
 0001:00030c30       ___vcrt_uninitialize_locks 10031c30 f   libvcruntimed:locks.obj
 0001:00030c80       ___vcrt_unlock             10031c80 f   libvcruntimed:locks.obj
 0001:000318b0       ??$TypeMatchHelper@V__FrameHandler3@@@@YAHPBU_s_HandlerType@@PBU_s_CatchableType@@PBU_s_ThrowInfo@@@Z 100328b0 f i libvcruntimed:frame.obj
 0001:00031990       ??$__InternalCxxFrameHandler@V__FrameHandler3@@@@YA?AW4_EXCEPTION_DISPOSITION@@PAUEHExceptionRecord@@PAUEHRegistrationNode@@PAU_CONTEXT@@PAXPBU_s_FuncInfo@@H1E@Z 10032990 f i libvcruntimed:frame.obj
 0001:00031b70       ??0HandlerMap@__FrameHandler3@@QAE@PBU_s_TryBlockMapEntry@@II@Z 10032b70 f i libvcruntimed:frame.obj
 0001:00031ba0       ??0TryBlockMap@__FrameHandler3@@QAE@PBU_s_FuncInfo@@I@Z 10032ba0 f i libvcruntimed:frame.obj
 0001:00031bd0       ??0bad_exception@std@@QAE@ABV01@@Z 10032bd0 f i libvcruntimed:frame.obj
 0001:00031c00       ??0bad_exception@std@@QAE@XZ 10032c00 f i libvcruntimed:frame.obj
 0001:00031c30       ??0iterator@HandlerMap@__FrameHandler3@@QAE@AAV12@I@Z 10032c30 f i libvcruntimed:frame.obj
 0001:00031c60       ??1bad_exception@std@@UAE@XZ 10032c60 f i libvcruntimed:frame.obj
 0001:00031c80       ??8iterator@HandlerMap@__FrameHandler3@@QBE_NABV012@@Z 10032c80 f i libvcruntimed:frame.obj
 0001:00031cb0       ??8type_info@@QBE_NABV0@@Z 10032cb0 f i libvcruntimed:frame.obj
 0001:00031cf0       ??9iterator@HandlerMap@__FrameHandler3@@QBE_NABV012@@Z 10032cf0 f i libvcruntimed:frame.obj
 0001:00031d30       ??Diterator@HandlerMap@__FrameHandler3@@QAE?BU_s_HandlerType@@XZ 10032d30 f i libvcruntimed:frame.obj
 0001:00031d70       ??Diterator@TryBlockMap@__FrameHandler3@@QAE?BU_s_TryBlockMapEntry@@XZ 10032d70 f i libvcruntimed:frame.obj
 0001:00031dc0       ??Eiterator@HandlerMap@__FrameHandler3@@QAEAAV012@XZ 10032dc0 f i libvcruntimed:frame.obj
 0001:00031de0       ??Eiterator@TryBlockMap@__FrameHandler3@@QAEAAV012@XZ 10032de0 f i libvcruntimed:frame.obj
 0001:00031e00       ??Miterator@TryBlockMap@__FrameHandler3@@QBE_NABV012@@Z 10032e00 f i libvcruntimed:frame.obj
 0001:00031e30       ??_Gbad_exception@std@@UAEPAXI@Z 10032e30 f i libvcruntimed:frame.obj
 0001:00031e30       ??_Ebad_exception@std@@UAEPAXI@Z 10032e30 f i libvcruntimed:frame.obj
 0001:00031e60       ?BuildCatchObject@__FrameHandler3@@SAXPAUEHExceptionRecord@@PAXPBU_s_HandlerType@@PBU_s_CatchableType@@@Z 10032e60 f   libvcruntimed:frame.obj
 0001:00031e80       ?BuildCatchObjectHelper@__FrameHandler3@@SAHPAUEHExceptionRecord@@PAXPBU_s_HandlerType@@PBU_s_CatchableType@@@Z 10032e80 f   libvcruntimed:frame.obj
 0001:00032220       ?FrameUnwindToEmptyState@__FrameHandler3@@SAXPAUEHRegistrationNode@@PAXPBU_s_FuncInfo@@@Z 10033220 f   libvcruntimed:frame.obj
 0001:00032240       ?FrameUnwindToState@__FrameHandler3@@SAXPAUEHRegistrationNode@@PAXPBU_s_FuncInfo@@H@Z 10033240 f   libvcruntimed:frame.obj
 0001:000323c0       ?GetMaxState@__FrameHandler3@@SAHPAXPBU_s_FuncInfo@@@Z 100333c0 f i libvcruntimed:frame.obj
 0001:000324f0       ?TypeMatch@__FrameHandler3@@SAHPBU_s_HandlerType@@PBU_s_CatchableType@@PBU_s_ThrowInfo@@@Z 100334f0 f   libvcruntimed:frame.obj
 0001:00032510       ?_CallMemberFunction1@@YGXQAX00@Z 10033510 f i libvcruntimed:frame.obj
 0001:00032540       ?_CallMemberFunction2@@YGXQAX00H@Z 10033540 f i libvcruntimed:frame.obj
 0001:00032570       ?_ValidateExecute@@YA_NP6GHXZ@Z 10033570 f i libvcruntimed:frame.obj
 0001:00032590       ?_ValidateRead@@YA_NPBXI@Z 10033590 f i libvcruntimed:frame.obj
 0001:000325b0       ?_ValidateWrite@@YA_NPAXI@Z 100335b0 f i libvcruntimed:frame.obj
 0001:000325d0       ?begin@HandlerMap@__FrameHandler3@@QAE?AViterator@12@XZ 100335d0 f i libvcruntimed:frame.obj
 0001:000325f0       ?end@HandlerMap@__FrameHandler3@@QAE?AViterator@12@XZ 100335f0 f i libvcruntimed:frame.obj
 0001:00032620       ?getESTypes@__FrameHandler3@@SAPBU_s_ESTypeList@@PBU_s_FuncInfo@@@Z 10033620 f i libvcruntimed:frame.obj
 0001:00032630       ?getLastEntry@HandlerMap@__FrameHandler3@@QAEPBU_s_HandlerType@@XZ 10033630 f i libvcruntimed:frame.obj
 0001:00032650       ?getMagicNum@__FrameHandler3@@SAIPBU_s_FuncInfo@@@Z 10033650 f i libvcruntimed:frame.obj
 0001:00032660       ?getNumTryBlocks@TryBlockMap@__FrameHandler3@@QAEIXZ 10033660 f i libvcruntimed:frame.obj
 0001:00032680       ?isEHs@__FrameHandler3@@SA_NPBU_s_FuncInfo@@@Z 10033680 f i libvcruntimed:frame.obj
 0001:000326b0       ?isNoExcept@__FrameHandler3@@SA_NPBU_s_FuncInfo@@@Z 100336b0 f i libvcruntimed:frame.obj
 0001:000326e0       ___BuildCatchObject        100336e0 f   libvcruntimed:frame.obj
 0001:00032700       ___BuildCatchObjectHelper  10033700 f   libvcruntimed:frame.obj
 0001:00032720       ___TypeMatch               10033720 f   libvcruntimed:frame.obj
 0001:00032740       ___vcrt_EncodePointer      10033740 f i libvcruntimed:frame.obj
 0001:00032750       __CallSettingFrame@12      10033750 f   libvcruntimed:lowhelpr.obj
 0001:00032777       __NLG_Return               10033777     libvcruntimed:lowhelpr.obj
 0001:000327a0       ??0Block@_HeapManager@@QAE@XZ 100337a0 f i libvcruntimed:undname.obj
 0001:000327c0       ??0DName@@QAE@AAPBDD@Z     100337c0 f   libvcruntimed:undname.obj
 0001:000329f0       ??0DName@@QAE@ABV0@@Z      100339f0 f i libvcruntimed:undname.obj
 0001:00032a20       ??0DName@@QAE@D@Z          10033a20 f   libvcruntimed:undname.obj
 0001:00032a60       ??0DName@@QAE@PAV0@@Z      10033a60 f   libvcruntimed:undname.obj
 0001:00032b10       ??0DName@@QAE@PBD@Z        10033b10 f   libvcruntimed:undname.obj
 0001:00032b60       ??0DName@@QAE@W4DNameStatus@@@Z 10033b60 f   libvcruntimed:undname.obj
 0001:00032c00       ??0DName@@QAE@XZ           10033c00 f i libvcruntimed:undname.obj
 0001:00032c30       ??0DName@@QAE@_J@Z         10033c30 f   libvcruntimed:undname.obj
 0001:00032d20       ??0DName@@QAE@_K@Z         10033d20 f   libvcruntimed:undname.obj
 0001:00032dd0       ??0DNameNode@@IAE@XZ       10033dd0 f i libvcruntimed:undname.obj
 0001:00032df0       ??0Replicator@@QAE@XZ      10033df0 f i libvcruntimed:undname.obj
 0001:00032e30       ??0UnDecorator@@QAE@PBDP6APADJ@ZK@Z 10033e30 f i libvcruntimed:undname.obj
 0001:00032eb0       ??0charNode@@QAE@D@Z       10033eb0 f i libvcruntimed:undname.obj
 0001:00032ee0       ??0pDNameNode@@QAE@PAVDName@@@Z 10033ee0 f   libvcruntimed:undname.obj
 0001:00032f40       ??0pairNode@@QAE@PBVDNameNode@@0@Z 10033f40 f i libvcruntimed:undname.obj
 0001:00032f80       ??0pcharNode@@QAE@PBDH@Z   10033f80 f   libvcruntimed:undname.obj
 0001:00033040       ??2@YAPAXIAAV_HeapManager@@H@Z 10034040 f i libvcruntimed:undname.obj
 0001:00033060       ??4DName@@QAEAAV0@ABV0@@Z  10034060 f   libvcruntimed:undname.obj
 0001:00033090       ??4DName@@QAEAAV0@D@Z      10034090 f i libvcruntimed:undname.obj
 0001:000330d0       ??4DName@@QAEAAV0@PAV0@@Z  100340d0 f   libvcruntimed:undname.obj
 0001:00033170       ??4DName@@QAEAAV0@PBD@Z    10034170 f   libvcruntimed:undname.obj
 0001:000331b0       ??4DName@@QAEAAV0@W4DNameStatus@@@Z 100341b0 f   libvcruntimed:undname.obj
 0001:00033230       ??AReplicator@@QBE?AVDName@@H@Z 10034230 f   libvcruntimed:undname.obj
 0001:000332a0       ??H@YA?AVDName@@DABV0@@Z   100342a0 f i libvcruntimed:undname.obj
 0001:000332d0       ??H@YA?AVDName@@PBDABV0@@Z 100342d0 f i libvcruntimed:undname.obj
 0001:00033300       ??H@YA?AVDName@@W4DNameStatus@@ABV0@@Z 10034300 f i libvcruntimed:undname.obj
 0001:00033330       ??HDName@@QBE?AV0@ABV0@@Z  10034330 f   libvcruntimed:undname.obj
 0001:00033370       ??HDName@@QBE?AV0@D@Z      10034370 f   libvcruntimed:undname.obj
 0001:000333b0       ??HDName@@QBE?AV0@PAV0@@Z  100343b0 f   libvcruntimed:undname.obj
 0001:000333f0       ??HDName@@QBE?AV0@PBD@Z    100343f0 f   libvcruntimed:undname.obj
 0001:00033430       ??HDName@@QBE?AV0@W4DNameStatus@@@Z 10034430 f   libvcruntimed:undname.obj
 0001:00033470       ??YDName@@QAEAAV0@ABV0@@Z  10034470 f   libvcruntimed:undname.obj
 0001:000334e0       ??YDName@@QAEAAV0@D@Z      100344e0 f   libvcruntimed:undname.obj
 0001:00033560       ??YDName@@QAEAAV0@PAV0@@Z  10034560 f   libvcruntimed:undname.obj
 0001:00033610       ??YDName@@QAEAAV0@PBD@Z    10034610 f   libvcruntimed:undname.obj
 0001:000336b0       ??YDName@@QAEAAV0@W4DNameStatus@@@Z 100346b0 f   libvcruntimed:undname.obj
 0001:00033710       ??YReplicator@@QAEAAV0@ABVDName@@@Z 10034710 f   libvcruntimed:undname.obj
 0001:000337a0       ??_5DName@@QAEAAV0@ABV0@@Z 100347a0 f   libvcruntimed:undname.obj
 0001:00033800       ?Constructor@_HeapManager@@QAEXP6APAXI@ZP6AXPAX@Z@Z 10034800 f i libvcruntimed:undname.obj
 0001:00033840       ?Destructor@_HeapManager@@QAEXXZ 10034840 f i libvcruntimed:undname.obj
 0001:000338a0       ?UScore@UnDecorator@@SAPBDW4Tokens@@@Z 100348a0 f   libvcruntimed:undname.obj
 0001:000338d0       ?append@DName@@AAEXPBVDNameNode@@@Z 100348d0 f   libvcruntimed:undname.obj
 0001:00033960       ?composeDeclaration@UnDecorator@@CA?AVDName@@ABV2@@Z 10034960 f i libvcruntimed:undname.obj
 0001:000356e0       ?dbGetString@DName@@QBEPADXZ 100366e0 f   libvcruntimed:undname.obj
 0001:00035700       ?doAccessSpecifiers@UnDecorator@@SAHXZ 10036700 f i libvcruntimed:undname.obj
 0001:00035730       ?doAllocationLanguage@UnDecorator@@SAHXZ 10036730 f i libvcruntimed:undname.obj
 0001:00035760       ?doAllocationModel@UnDecorator@@SAHXZ 10036760 f i libvcruntimed:undname.obj
 0001:00035790       ?doEcsu@UnDecorator@@SAHXZ 10036790 f i libvcruntimed:undname.obj
 0001:000357c0       ?doEllipsis@UnDecorator@@SAHXZ 100367c0 f i libvcruntimed:undname.obj
 0001:000357f0       ?doFunctionReturns@UnDecorator@@SAHXZ 100367f0 f i libvcruntimed:undname.obj
 0001:00035820       ?doMSKeywords@UnDecorator@@SAHXZ 10036820 f i libvcruntimed:undname.obj
 0001:00035850       ?doMemberTypes@UnDecorator@@SAHXZ 10036850 f i libvcruntimed:undname.obj
 0001:00035880       ?doNameOnly@UnDecorator@@SAHXZ 10036880 f i libvcruntimed:undname.obj
 0001:00035890       ?doNoIdentCharCheck@UnDecorator@@SAHXZ 10036890 f i libvcruntimed:undname.obj
 0001:000358a0       ?doPchar@DName@@AAEXPBDH@Z 100368a0 f   libvcruntimed:undname.obj
 0001:000359e0       ?doPtr64@UnDecorator@@SAHXZ 100369e0 f i libvcruntimed:undname.obj
 0001:00035a10       ?doRestrictionSpec@UnDecorator@@SAHXZ 10036a10 f i libvcruntimed:undname.obj
 0001:00035a40       ?doThisTypes@UnDecorator@@SAHXZ 10036a40 f i libvcruntimed:undname.obj
 0001:00035a70       ?doThrowTypes@UnDecorator@@SAHXZ 10036a70 f i libvcruntimed:undname.obj
 0001:00035aa0       ?doTypeOnly@UnDecorator@@SAHXZ 10036aa0 f i libvcruntimed:undname.obj
 0001:00035ab0       ?doUnderScore@UnDecorator@@SAHXZ 10036ab0 f i libvcruntimed:undname.obj
 0001:00035ae0       ?getArgumentList@UnDecorator@@CA?AVDName@@XZ 10036ae0 f   libvcruntimed:undname.obj
 0001:00035c30       ?getArgumentTypes@UnDecorator@@CA?AVDName@@XZ 10036c30 f   libvcruntimed:undname.obj
 0001:00035d80       ?getArrayType@UnDecorator@@CA?AVDName@@ABV2@@Z 10036d80 f i libvcruntimed:undname.obj
 0001:00035ff0       ?getBasedType@UnDecorator@@CA?AVDName@@XZ 10036ff0 f   libvcruntimed:undname.obj
 0001:000360b0       ?getBasicDataType@UnDecorator@@CA?AVDName@@ABV2@@Z 100370b0 f   libvcruntimed:undname.obj
 0001:000366b0       ?getCHPEName@UnDecorator@@QAEPADPADH@Z 100376b0 f i libvcruntimed:undname.obj
 0001:00036810       ?getCallIndex@UnDecorator@@CA?AVDName@@XZ 10037810 f i libvcruntimed:undname.obj
 0001:00036830       ?getCallingConvention@UnDecorator@@CA?AVDName@@XZ 10037830 f   libvcruntimed:undname.obj
 0001:00036a10       ?getDataIndirectType@UnDecorator@@CA?AVDName@@ABV2@PBD0H@Z 10037a10 f   libvcruntimed:undname.obj
 0001:00037230       ?getDataIndirectType@UnDecorator@@CA?AVDName@@XZ 10038230 f i libvcruntimed:undname.obj
 0001:00037280       ?getDataType@UnDecorator@@CA?AVDName@@PAV2@@Z 10038280 f   libvcruntimed:undname.obj
 0001:000373a0       ?getDecoratedName@UnDecorator@@CA?AVDName@@XZ 100383a0 f   libvcruntimed:undname.obj
 0001:000377a0       ?getDimension@UnDecorator@@CA?AVDName@@_N@Z 100387a0 f   libvcruntimed:undname.obj
 0001:00037a50       ?getDispatchTarget@UnDecorator@@CA?AVDName@@XZ 10038a50 f   libvcruntimed:undname.obj
 0001:00037af0       ?getDisplacement@UnDecorator@@CA?AVDName@@XZ 10038af0 f i libvcruntimed:undname.obj
 0001:00037b10       ?getECSUDataType@UnDecorator@@CA?AVDName@@XZ 10038b10 f   libvcruntimed:undname.obj
 0001:00037ce0       ?getECSUName@UnDecorator@@CA?AVDName@@XZ 10038ce0 f i libvcruntimed:undname.obj
 0001:00037d00       ?getEnumType@UnDecorator@@CA?AVDName@@XZ 10038d00 f i libvcruntimed:undname.obj
 0001:00037e50       ?getExtendedDataIndirectType@UnDecorator@@CA?AVDName@@AAPBDAA_NH@Z 10038e50 f   libvcruntimed:undname.obj
 0001:000380a0       ?getExternalDataType@UnDecorator@@CA?AVDName@@ABV2@@Z 100390a0 f i libvcruntimed:undname.obj
 0001:00038140       ?getFunctionIndirectType@UnDecorator@@CA?AVDName@@ABV2@@Z 10039140 f   libvcruntimed:undname.obj
 0001:00038610       ?getGuardNumber@UnDecorator@@CA?AVDName@@XZ 10039610 f i libvcruntimed:undname.obj
 0001:00038630       ?getLastChar@DName@@QBEDXZ 10039630 f i libvcruntimed:undname.obj
 0001:00038670       ?getLastChar@DNameStatusNode@@UBEDXZ 10039670 f i libvcruntimed:undname.obj
 0001:000386a0       ?getLastChar@charNode@@UBEDXZ 100396a0 f i libvcruntimed:undname.obj
 0001:000386c0       ?getLastChar@pDNameNode@@UBEDXZ 100396c0 f i libvcruntimed:undname.obj
 0001:000386f0       ?getLastChar@pairNode@@UBEDXZ 100396f0 f i libvcruntimed:undname.obj
 0001:00038760       ?getLastChar@pcharNode@@UBEDXZ 10039760 f i libvcruntimed:undname.obj
 0001:000387a0       ?getLexicalFrame@UnDecorator@@CA?AVDName@@XZ 100397a0 f i libvcruntimed:undname.obj
 0001:000387e0       ?getMemory@_HeapManager@@QAEPAXIH@Z 100397e0 f   libvcruntimed:undname.obj
 0001:00038900       ?getNoexcept@UnDecorator@@CA?AVDName@@XZ 10039900 f   libvcruntimed:undname.obj
 0001:00038970       ?getNumberOfDimensions@UnDecorator@@CAHXZ 10039970 f   libvcruntimed:undname.obj
 0001:00038a70       ?getOperatorName@UnDecorator@@CA?AVDName@@_NPA_N@Z 10039a70 f i libvcruntimed:undname.obj
 0001:000394e0       ?getPointerType@UnDecorator@@CA?AVDName@@ABV2@0@Z 1003a4e0 f i libvcruntimed:undname.obj
 0001:00039510       ?getPointerTypeArray@UnDecorator@@CA?AVDName@@ABV2@0@Z 1003a510 f i libvcruntimed:undname.obj
 0001:00039540       ?getPrimaryDataType@UnDecorator@@CA?AVDName@@ABV2@@Z 1003a540 f   libvcruntimed:undname.obj
 0001:00039940       ?getPtrRefDataType@UnDecorator@@CA?AVDName@@ABV2@H@Z 1003a940 f   libvcruntimed:undname.obj
 0001:00039b70       ?getPtrRefType@UnDecorator@@CA?AVDName@@ABV2@0PBD@Z 1003ab70 f   libvcruntimed:undname.obj
 0001:00039ce0       ?getReferenceType@UnDecorator@@CA?AVDName@@ABV2@0PBD@Z 1003ace0 f i libvcruntimed:undname.obj
 0001:00039d00       ?getRestrictionSpec@UnDecorator@@CA?AVDName@@XZ 1003ad00 f   libvcruntimed:undname.obj
 0001:00039e70       ?getReturnType@UnDecorator@@CA?AVDName@@PAV2@@Z 1003ae70 f   libvcruntimed:undname.obj
 0001:00039ec0       ?getScope@UnDecorator@@CA?AVDName@@XZ 1003aec0 f   libvcruntimed:undname.obj
 0001:0003a3f0       ?getScopedName@UnDecorator@@CA?AVDName@@XZ 1003b3f0 f   libvcruntimed:undname.obj
 0001:0003a520       ?getSignedDimension@UnDecorator@@CA?AVDName@@XZ 1003b520 f   libvcruntimed:undname.obj
 0001:0003a5a0       ?getStorageConvention@UnDecorator@@CA?AVDName@@XZ 1003b5a0 f i libvcruntimed:undname.obj
 0001:0003a5c0       ?getString@DName@@QBEPADPAD0@Z 1003b5c0 f i libvcruntimed:undname.obj
 0001:0003a620       ?getString@DName@@QBEPADPADH@Z 1003b620 f i libvcruntimed:undname.obj
 0001:0003a6b0       ?getString@DNameStatusNode@@UBEPADPAD0@Z 1003b6b0 f i libvcruntimed:undname.obj
 0001:0003a6f0       ?getString@charNode@@UBEPADPAD0@Z 1003b6f0 f i libvcruntimed:undname.obj
 0001:0003a720       ?getString@pDNameNode@@UBEPADPAD0@Z 1003b720 f i libvcruntimed:undname.obj
 0001:0003a760       ?getString@pairNode@@UBEPADPAD0@Z 1003b760 f i libvcruntimed:undname.obj
 0001:0003a7f0       ?getString@pcharNode@@UBEPADPAD0@Z 1003b7f0 f i libvcruntimed:undname.obj
 0001:0003a820       ?getStringEncoding@UnDecorator@@CA?AVDName@@PBDH@Z 1003b820 f   libvcruntimed:undname.obj
 0001:0003a930       ?getStringHelper@@YAPADPADPBD1H@Z 1003b930 f i libvcruntimed:undname.obj
 0001:0003a970       ?getSymbolName@UnDecorator@@CA?AVDName@@XZ 1003b970 f i libvcruntimed:undname.obj
 0001:0003aa00       ?getTemplateArgumentList@UnDecorator@@CA?AVDName@@XZ 1003ba00 f   libvcruntimed:undname.obj
 0001:0003acc0       ?getTemplateName@UnDecorator@@CA?AVDName@@_N@Z 1003bcc0 f   libvcruntimed:undname.obj
 0001:0003ae90       ?getTemplateNonTypeArgument@UnDecorator@@CA?AVDName@@XZ 1003be90 f   libvcruntimed:undname.obj
 0001:0003b4c0       ?getTemplateTypeArgument@UnDecorator@@CA?AVDName@@XZ 1003c4c0 f   libvcruntimed:undname.obj
 0001:0003b620       ?getThisType@UnDecorator@@CA?AVDName@@XZ 1003c620 f i libvcruntimed:undname.obj
 0001:0003b670       ?getThrowTypes@UnDecorator@@CA?AVDName@@XZ 1003c670 f   libvcruntimed:undname.obj
 0001:0003b6b0       ?getTypeEncoding@UnDecorator@@CAHXZ 1003c6b0 f i libvcruntimed:undname.obj
 0001:0003c140       ?getUndecoratedName@UnDecorator@@QAEPADPADH@Z 1003d140 f i libvcruntimed:undname.obj
 0001:0003c290       ?getVCallThunkType@UnDecorator@@CA?AVDName@@XZ 1003d290 f i libvcruntimed:undname.obj
 0001:0003c2f0       ?getVbTableType@UnDecorator@@CA?AVDName@@ABV2@@Z 1003d2f0 f i libvcruntimed:undname.obj
 0001:0003c310       ?getVdispMapType@UnDecorator@@CA?AVDName@@ABV2@@Z 1003d310 f i libvcruntimed:undname.obj
 0001:0003c380       ?getVfTableType@UnDecorator@@CA?AVDName@@ABV2@@Z 1003d380 f i libvcruntimed:undname.obj
 0001:0003c550       ?getZName@UnDecorator@@CA?AVDName@@_N0@Z 1003d550 f   libvcruntimed:undname.obj
 0001:0003c830       ?haveTemplateParameters@UnDecorator@@SAHXZ 1003d830 f i libvcruntimed:undname.obj
 0001:0003c840       ?isArray@DName@@QBEHXZ     1003d840 f i libvcruntimed:undname.obj
 0001:0003c860       ?isComArray@DName@@QBEHXZ  1003d860 f i libvcruntimed:undname.obj
 0001:0003c880       ?isEmpty@DName@@QBEHXZ     1003d880 f i libvcruntimed:undname.obj
 0001:0003c8b0       ?isFull@Replicator@@QBEHXZ 1003d8b0 f i libvcruntimed:undname.obj
 0001:0003c8e0       ?isNoTE@DName@@QBEHXZ      1003d8e0 f i libvcruntimed:undname.obj
 0001:0003c900       ?isPinPtr@DName@@QBEHXZ    1003d900 f i libvcruntimed:undname.obj
 0001:0003c920       ?isPtrRef@DName@@QBEHXZ    1003d920 f i libvcruntimed:undname.obj
 0001:0003c940       ?isUDC@DName@@QBEHXZ       1003d940 f i libvcruntimed:undname.obj
 0001:0003c980       ?isUDTThunk@DName@@QBEHXZ  1003d980 f i libvcruntimed:undname.obj
 0001:0003c9c0       ?isVCallThunk@DName@@QBEHXZ 1003d9c0 f i libvcruntimed:undname.obj
 0001:0003c9e0       ?isValid@DName@@QBEHXZ     1003d9e0 f i libvcruntimed:undname.obj
 0001:0003ca20       ?length@DName@@QBEHXZ      1003da20 f i libvcruntimed:undname.obj
 0001:0003ca60       ?length@DNameStatusNode@@UBEHXZ 1003da60 f i libvcruntimed:undname.obj
 0001:0003ca80       ?length@charNode@@UBEHXZ   1003da80 f i libvcruntimed:undname.obj
 0001:0003ca90       ?length@pDNameNode@@UBEHXZ 1003da90 f i libvcruntimed:undname.obj
 0001:0003cac0       ?length@pairNode@@UBEHXZ   1003dac0 f i libvcruntimed:undname.obj
 0001:0003cb30       ?length@pcharNode@@UBEHXZ  1003db30 f i libvcruntimed:undname.obj
 0001:0003cb50       ?make@DNameStatusNode@@SAPBV1@W4DNameStatus@@@Z 1003db50 f i libvcruntimed:undname.obj
 0001:0003cb80       ?parseDecoratedName@UnDecorator@@CA?AVDName@@XZ 1003db80 f   libvcruntimed:undname.obj
 0001:0003cd00       ?setIsArray@DName@@QAEXXZ  1003dd00 f i libvcruntimed:undname.obj
 0001:0003cd20       ?setIsComArray@DName@@QAEXXZ 1003dd20 f i libvcruntimed:undname.obj
 0001:0003cd40       ?setIsNoTE@DName@@QAEXXZ   1003dd40 f i libvcruntimed:undname.obj
 0001:0003cd60       ?setIsPinPtr@DName@@QAEXXZ 1003dd60 f i libvcruntimed:undname.obj
 0001:0003cd80       ?setIsUDC@DName@@QAEXXZ    1003dd80 f i libvcruntimed:undname.obj
 0001:0003cdb0       ?setIsVCallThunk@DName@@QAEXXZ 1003ddb0 f i libvcruntimed:undname.obj
 0001:0003cdd0       ?setPtrRef@DName@@QAEAAV1@XZ 1003ddd0 f i libvcruntimed:undname.obj
 0001:0003cdf0       ?status@DName@@QBE?AW4DNameStatus@@XZ 1003ddf0 f i libvcruntimed:undname.obj
 0001:0003cef0       ___unDName                 1003def0 f   libvcruntimed:undname.obj
 0001:0003cf20       ___unDNameEx               1003df20 f   libvcruntimed:undname.obj
 0001:0003cff0       _unDNameGenerateCHPE       1003dff0 f   libvcruntimed:undname.obj
 0001:0003d050       __global_unwind2           1003e050 f   libvcruntimed:exsup.obj
 0001:0003d0b6       __local_unwind2            1003e0b6 f   libvcruntimed:exsup.obj
 0001:0003d13a       __abnormal_termination     1003e13a f   libvcruntimed:exsup.obj
 0001:0003d160       __NLG_Notify1              1003e160 f   libvcruntimed:exsup.obj
 0001:0003d16c       __NLG_Notify               1003e16c f   libvcruntimed:exsup.obj
 0001:0003d183       __NLG_Dispatch             1003e183     libvcruntimed:exsup.obj
 0001:0003d183       __NLG_Dispatch2            1003e183     libvcruntimed:exsup.obj
 0001:0003d18b       __NLG_Call                 1003e18b f   libvcruntimed:exsup.obj
 0001:0003d18d       __NLG_Return2              1003e18d     libvcruntimed:exsup.obj
 0001:0003d190       ??$__crt_interlocked_exchange_pointer@UHINSTANCE__@@PAU1@@@YAPAUHINSTANCE__@@PDSAU0@QAU0@@Z 1003e190 f i libvcruntimed:winapi_downlevel.obj
 0001:0003d1a0       ??$__crt_interlocked_exchange_pointer@UHINSTANCE__@@PAX@@YAPAUHINSTANCE__@@PDSAU0@QAX@Z 1003e1a0 f i libvcruntimed:winapi_downlevel.obj
 0001:0003d1b0       ??$__crt_interlocked_exchange_pointer@XPAX@@YAPAXPDSAXQAX@Z 1003e1b0 f i libvcruntimed:winapi_downlevel.obj
 0001:0003d1c0       ??$__crt_interlocked_read_pointer@UHINSTANCE__@@@@YAPAUHINSTANCE__@@PDSAU0@@Z 1003e1c0 f i libvcruntimed:winapi_downlevel.obj
 0001:0003d1e0       ??$__crt_interlocked_read_pointer@X@@YAPAXPDSAX@Z 1003e1e0 f i libvcruntimed:winapi_downlevel.obj
 0001:0003d5b0       ___vcrt_FlsAlloc           1003e5b0 f   libvcruntimed:winapi_downlevel.obj
 0001:0003d5f0       ___vcrt_FlsFree            1003e5f0 f   libvcruntimed:winapi_downlevel.obj
 0001:0003d630       ___vcrt_FlsGetValue        1003e630 f   libvcruntimed:winapi_downlevel.obj
 0001:0003d670       ___vcrt_FlsSetValue        1003e670 f   libvcruntimed:winapi_downlevel.obj
 0001:0003d6c0       ___vcrt_InitializeCriticalSectionEx 1003e6c0 f   libvcruntimed:winapi_downlevel.obj
 0001:0003d740       __get_unexpected           1003e740 f   libvcruntimed:unexpected.obj
 0001:0003d760       _set_unexpected            1003e760 f   libvcruntimed:unexpected.obj
 0001:0003d790       _unexpected                1003e790 f   libvcruntimed:unexpected.obj
 0001:0003d7d0       ?GetCurrentState@__FrameHandler3@@SAHPAUEHRegistrationNode@@PAXPBU_s_FuncInfo@@@Z 1003e7d0 f   libvcruntimed:ehstate.obj
 0001:0003d800       ?SetState@__FrameHandler3@@SAXPAUEHRegistrationNode@@PBU_s_FuncInfo@@H@Z 1003e800 f   libvcruntimed:ehstate.obj
 0001:0003d810       ___DestructExceptionObject 1003e810 f   libvcruntimed:ehhelpers.obj
 0001:0003d940       ?_CallMemberFunction0@@YGXQAX0@Z 1003e940 f i libvcruntimed:ehhelpers.obj
 0001:0003d960       ?raw_name@type_info@@QBEPBDXZ 1003e960 f i libvcruntimed:ehhelpers.obj
 0001:0003d980       __IsExceptionObjectToBeDestroyed 1003e980 f   libvcruntimed:ehhelpers.obj
 0001:0003d9c0       __SetWinRTOutOfMemoryExceptionCallback 1003e9c0 f   libvcruntimed:ehhelpers.obj
 0001:0003d9d0       ___AdjustPointer           1003e9d0 f   libvcruntimed:ehhelpers.obj
 0001:0003da20       ___FrameUnwindFilter       1003ea20 f   libvcruntimed:ehhelpers.obj
 0001:0003daa0       ___GetPlatformExceptionInfo 1003eaa0 f   libvcruntimed:ehhelpers.obj
 0001:0003db20       ___current_exception       1003eb20 f   libvcruntimed:ehhelpers.obj
 0001:0003db30       ___current_exception_context 1003eb30 f   libvcruntimed:ehhelpers.obj
 0001:0003db40       ___processing_throw        1003eb40 f   libvcruntimed:ehhelpers.obj
 0001:0003db50       ___std_terminate           1003eb50 f   libvcruntimed:ehhelpers.obj
 0001:0003db60       __is_exception_typeof      1003eb60 f   libvcruntimed:ehhelpers.obj
 0001:0003dc40       ??$?0ABV?$stream_output_adapter@D@__crt_stdio_output@@AB_KABQBDABQAU__crt_locale_pointers@@ABQAD@?$format_validation_base@DV?$stream_output_adapter@D@__crt_stdio_output@@@__crt_stdio_output@@IAE@ABV?$stream_output_adapter@D@1@AB_KABQBDABQAU__crt_locale_pointers@@ABQAD@Z 1003ec40 f i libucrtd:output.obj
 0001:0003dc70       ??$?0ABV?$stream_output_adapter@D@__crt_stdio_output@@AB_KABQBDABQAU__crt_locale_pointers@@ABQAD@?$positional_parameter_base@DV?$stream_output_adapter@D@__crt_stdio_output@@@__crt_stdio_output@@IAE@ABV?$stream_output_adapter@D@1@AB_KABQBDABQAU__crt_locale_pointers@@ABQAD@Z 1003ec70 f i libucrtd:output.obj
 0001:0003dcf0       ??$?0ABV?$stream_output_adapter@D@__crt_stdio_output@@AB_KABQBDABQAU__crt_locale_pointers@@ABQAD@?$standard_base@DV?$stream_output_adapter@D@__crt_stdio_output@@@__crt_stdio_output@@IAE@ABV?$stream_output_adapter@D@1@AB_KABQBDABQAU__crt_locale_pointers@@ABQAD@Z 1003ecf0 f i libucrtd:output.obj
 0001:0003dd40       ??$?0ABV?$stream_output_adapter@_W@__crt_stdio_output@@AB_KABQB_WABQAU__crt_locale_pointers@@ABQAD@?$format_validation_base@_WV?$stream_output_adapter@_W@__crt_stdio_output@@@__crt_stdio_output@@IAE@ABV?$stream_output_adapter@_W@1@AB_KABQB_WABQAU__crt_locale_pointers@@ABQAD@Z 1003ed40 f i libucrtd:output.obj
 0001:0003dd70       ??$?0ABV?$stream_output_adapter@_W@__crt_stdio_output@@AB_KABQB_WABQAU__crt_locale_pointers@@ABQAD@?$positional_parameter_base@_WV?$stream_output_adapter@_W@__crt_stdio_output@@@__crt_stdio_output@@IAE@ABV?$stream_output_adapter@_W@1@AB_KABQB_WABQAU__crt_locale_pointers@@ABQAD@Z 1003ed70 f i libucrtd:output.obj
 0001:0003ddf0       ??$?0ABV?$stream_output_adapter@_W@__crt_stdio_output@@AB_KABQB_WABQAU__crt_locale_pointers@@ABQAD@?$standard_base@_WV?$stream_output_adapter@_W@__crt_stdio_output@@@__crt_stdio_output@@IAE@ABV?$stream_output_adapter@_W@1@AB_KABQB_WABQAU__crt_locale_pointers@@ABQAD@Z 1003edf0 f i libucrtd:output.obj
 0001:0003de40       ??$?0ABV?$string_output_adapter@D@__crt_stdio_output@@AB_KABQBDABQAU__crt_locale_pointers@@ABQAD@?$format_validation_base@DV?$string_output_adapter@D@__crt_stdio_output@@@__crt_stdio_output@@IAE@ABV?$string_output_adapter@D@1@AB_KABQBDABQAU__crt_locale_pointers@@ABQAD@Z 1003ee40 f i libucrtd:output.obj
 0001:0003de70       ??$?0ABV?$string_output_adapter@D@__crt_stdio_output@@AB_KABQBDABQAU__crt_locale_pointers@@ABQAD@?$positional_parameter_base@DV?$string_output_adapter@D@__crt_stdio_output@@@__crt_stdio_output@@IAE@ABV?$string_output_adapter@D@1@AB_KABQBDABQAU__crt_locale_pointers@@ABQAD@Z 1003ee70 f i libucrtd:output.obj
 0001:0003def0       ??$?0ABV?$string_output_adapter@D@__crt_stdio_output@@AB_KABQBDABQAU__crt_locale_pointers@@ABQAD@?$standard_base@DV?$string_output_adapter@D@__crt_stdio_output@@@__crt_stdio_output@@IAE@ABV?$string_output_adapter@D@1@AB_KABQBDABQAU__crt_locale_pointers@@ABQAD@Z 1003eef0 f i libucrtd:output.obj
 0001:0003df40       ??$?0ABV?$string_output_adapter@_W@__crt_stdio_output@@AB_KABQB_WABQAU__crt_locale_pointers@@ABQAD@?$format_validation_base@_WV?$string_output_adapter@_W@__crt_stdio_output@@@__crt_stdio_output@@IAE@ABV?$string_output_adapter@_W@1@AB_KABQB_WABQAU__crt_locale_pointers@@ABQAD@Z 1003ef40 f i libucrtd:output.obj
 0001:0003df70       ??$?0ABV?$string_output_adapter@_W@__crt_stdio_output@@AB_KABQB_WABQAU__crt_locale_pointers@@ABQAD@?$positional_parameter_base@_WV?$string_output_adapter@_W@__crt_stdio_output@@@__crt_stdio_output@@IAE@ABV?$string_output_adapter@_W@1@AB_KABQB_WABQAU__crt_locale_pointers@@ABQAD@Z 1003ef70 f i libucrtd:output.obj
 0001:0003dff0       ??$?0ABV?$string_output_adapter@_W@__crt_stdio_output@@AB_KABQB_WABQAU__crt_locale_pointers@@ABQAD@?$standard_base@_WV?$string_output_adapter@_W@__crt_stdio_output@@@__crt_stdio_output@@IAE@ABV?$string_output_adapter@_W@1@AB_KABQB_WABQAU__crt_locale_pointers@@ABQAD@Z 1003eff0 f i libucrtd:output.obj
 0001:0003e520       ??$__crt_interlocked_read@J@@YAJPDJ@Z 1003f520 f i libucrtd:output.obj
 0001:000412c0       ??$count@D@formatting_buffer@__crt_stdio_output@@QBEIXZ 100422c0 f i libucrtd:output.obj
 0001:00041300       ??$count@_W@formatting_buffer@__crt_stdio_output@@QBEIXZ 10042300 f i libucrtd:output.obj
 0001:00041340       ??$data@D@formatting_buffer@__crt_stdio_output@@QAEPADXZ 10042340 f i libucrtd:output.obj
 0001:00041380       ??$data@_W@formatting_buffer@__crt_stdio_output@@QAEPA_WXZ 10042380 f i libucrtd:output.obj
 0001:000413c0       ??$ensure_buffer_is_big_enough@D@formatting_buffer@__crt_stdio_output@@QAE_NI@Z 100423c0 f i libucrtd:output.obj
 0001:000414a0       ??$ensure_buffer_is_big_enough@_W@formatting_buffer@__crt_stdio_output@@QAE_NI@Z 100424a0 f i libucrtd:output.obj
 0001:00041590       ??$extract_argument_from_va_list@C_J@?$positional_parameter_base@DV?$stream_output_adapter@D@__crt_stdio_output@@@__crt_stdio_output@@IAE_NAA_J@Z 10042590 f i libucrtd:output.obj
 0001:000416d0       ??$extract_argument_from_va_list@C_J@?$positional_parameter_base@DV?$string_output_adapter@D@__crt_stdio_output@@@__crt_stdio_output@@IAE_NAA_J@Z 100426d0 f i libucrtd:output.obj
 0001:00041810       ??$extract_argument_from_va_list@C_J@?$positional_parameter_base@_WV?$stream_output_adapter@_W@__crt_stdio_output@@@__crt_stdio_output@@IAE_NAA_J@Z 10042810 f i libucrtd:output.obj
 0001:00041950       ??$extract_argument_from_va_list@C_J@?$positional_parameter_base@_WV?$string_output_adapter@_W@__crt_stdio_output@@@__crt_stdio_output@@IAE_NAA_J@Z 10042950 f i libucrtd:output.obj
 0001:00041a90       ??$extract_argument_from_va_list@C_J@?$standard_base@DV?$stream_output_adapter@D@__crt_stdio_output@@@__crt_stdio_output@@IAE_NAA_J@Z 10042a90 f i libucrtd:output.obj
 0001:00041ac0       ??$extract_argument_from_va_list@C_J@?$standard_base@DV?$string_output_adapter@D@__crt_stdio_output@@@__crt_stdio_output@@IAE_NAA_J@Z 10042ac0 f i libucrtd:output.obj
 0001:00041af0       ??$extract_argument_from_va_list@C_J@?$standard_base@_WV?$stream_output_adapter@_W@__crt_stdio_output@@@__crt_stdio_output@@IAE_NAA_J@Z 10042af0 f i libucrtd:output.obj
 0001:00041b20       ??$extract_argument_from_va_list@C_J@?$standard_base@_WV?$string_output_adapter@_W@__crt_stdio_output@@@__crt_stdio_output@@IAE_NAA_J@Z 10042b20 f i libucrtd:output.obj
 0001:00041b50       ??$extract_argument_from_va_list@E_J@?$positional_parameter_base@DV?$stream_output_adapter@D@__crt_stdio_output@@@__crt_stdio_output@@IAE_NAA_J@Z 10042b50 f i libucrtd:output.obj
 0001:00041c90       ??$extract_argument_from_va_list@E_J@?$positional_parameter_base@DV?$string_output_adapter@D@__crt_stdio_output@@@__crt_stdio_output@@IAE_NAA_J@Z 10042c90 f i libucrtd:output.obj
 0001:00041dd0       ??$extract_argument_from_va_list@E_J@?$positional_parameter_base@_WV?$stream_output_adapter@_W@__crt_stdio_output@@@__crt_stdio_output@@IAE_NAA_J@Z 10042dd0 f i libucrtd:output.obj
 0001:00041f10       ??$extract_argument_from_va_list@E_J@?$positional_parameter_base@_WV?$string_output_adapter@_W@__crt_stdio_output@@@__crt_stdio_output@@IAE_NAA_J@Z 10042f10 f i libucrtd:output.obj
 0001:00042050       ??$extract_argument_from_va_list@E_J@?$standard_base@DV?$stream_output_adapter@D@__crt_stdio_output@@@__crt_stdio_output@@IAE_NAA_J@Z 10043050 f i libucrtd:output.obj
 0001:00042080       ??$extract_argument_from_va_list@E_J@?$standard_base@DV?$string_output_adapter@D@__crt_stdio_output@@@__crt_stdio_output@@IAE_NAA_J@Z 10043080 f i libucrtd:output.obj
 0001:000420b0       ??$extract_argument_from_va_list@E_J@?$standard_base@_WV?$stream_output_adapter@_W@__crt_stdio_output@@@__crt_stdio_output@@IAE_NAA_J@Z 100430b0 f i libucrtd:output.obj
 0001:000420e0       ??$extract_argument_from_va_list@E_J@?$standard_base@_WV?$string_output_adapter@_W@__crt_stdio_output@@@__crt_stdio_output@@IAE_NAA_J@Z 100430e0 f i libucrtd:output.obj
 0001:00042110       ??$extract_argument_from_va_list@F_J@?$positional_parameter_base@DV?$stream_output_adapter@D@__crt_stdio_output@@@__crt_stdio_output@@IAE_NAA_J@Z 10043110 f i libucrtd:output.obj
 0001:00042240       ??$extract_argument_from_va_list@F_J@?$positional_parameter_base@DV?$string_output_adapter@D@__crt_stdio_output@@@__crt_stdio_output@@IAE_NAA_J@Z 10043240 f i libucrtd:output.obj
 0001:00042370       ??$extract_argument_from_va_list@F_J@?$positional_parameter_base@_WV?$stream_output_adapter@_W@__crt_stdio_output@@@__crt_stdio_output@@IAE_NAA_J@Z 10043370 f i libucrtd:output.obj
 0001:000424a0       ??$extract_argument_from_va_list@F_J@?$positional_parameter_base@_WV?$string_output_adapter@_W@__crt_stdio_output@@@__crt_stdio_output@@IAE_NAA_J@Z 100434a0 f i libucrtd:output.obj
 0001:000425d0       ??$extract_argument_from_va_list@F_J@?$standard_base@DV?$stream_output_adapter@D@__crt_stdio_output@@@__crt_stdio_output@@IAE_NAA_J@Z 100435d0 f i libucrtd:output.obj
 0001:00042600       ??$extract_argument_from_va_list@F_J@?$standard_base@DV?$string_output_adapter@D@__crt_stdio_output@@@__crt_stdio_output@@IAE_NAA_J@Z 10043600 f i libucrtd:output.obj
 0001:00042630       ??$extract_argument_from_va_list@F_J@?$standard_base@_WV?$stream_output_adapter@_W@__crt_stdio_output@@@__crt_stdio_output@@IAE_NAA_J@Z 10043630 f i libucrtd:output.obj
 0001:00042660       ??$extract_argument_from_va_list@F_J@?$standard_base@_WV?$string_output_adapter@_W@__crt_stdio_output@@@__crt_stdio_output@@IAE_NAA_J@Z 10043660 f i libucrtd:output.obj
 0001:00042690       ??$extract_argument_from_va_list@GD@?$positional_parameter_base@DV?$stream_output_adapter@D@__crt_stdio_output@@@__crt_stdio_output@@IAE_NAAD@Z 10043690 f i libucrtd:output.obj
 0001:000427c0       ??$extract_argument_from_va_list@GD@?$positional_parameter_base@DV?$string_output_adapter@D@__crt_stdio_output@@@__crt_stdio_output@@IAE_NAAD@Z 100437c0 f i libucrtd:output.obj
 0001:000428f0       ??$extract_argument_from_va_list@GD@?$standard_base@DV?$stream_output_adapter@D@__crt_stdio_output@@@__crt_stdio_output@@IAE_NAAD@Z 100438f0 f i libucrtd:output.obj
 0001:00042920       ??$extract_argument_from_va_list@GD@?$standard_base@DV?$string_output_adapter@D@__crt_stdio_output@@@__crt_stdio_output@@IAE_NAAD@Z 10043920 f i libucrtd:output.obj
 0001:00042950       ??$extract_argument_from_va_list@G_J@?$positional_parameter_base@DV?$stream_output_adapter@D@__crt_stdio_output@@@__crt_stdio_output@@IAE_NAA_J@Z 10043950 f i libucrtd:output.obj
 0001:00042a90       ??$extract_argument_from_va_list@G_J@?$positional_parameter_base@DV?$string_output_adapter@D@__crt_stdio_output@@@__crt_stdio_output@@IAE_NAA_J@Z 10043a90 f i libucrtd:output.obj
 0001:00042bd0       ??$extract_argument_from_va_list@G_J@?$positional_parameter_base@_WV?$stream_output_adapter@_W@__crt_stdio_output@@@__crt_stdio_output@@IAE_NAA_J@Z 10043bd0 f i libucrtd:output.obj
 0001:00042d10       ??$extract_argument_from_va_list@G_J@?$positional_parameter_base@_WV?$string_output_adapter@_W@__crt_stdio_output@@@__crt_stdio_output@@IAE_NAA_J@Z 10043d10 f i libucrtd:output.obj
 0001:00042e50       ??$extract_argument_from_va_list@G_J@?$standard_base@DV?$stream_output_adapter@D@__crt_stdio_output@@@__crt_stdio_output@@IAE_NAA_J@Z 10043e50 f i libucrtd:output.obj
 0001:00042e80       ??$extract_argument_from_va_list@G_J@?$standard_base@DV?$string_output_adapter@D@__crt_stdio_output@@@__crt_stdio_output@@IAE_NAA_J@Z 10043e80 f i libucrtd:output.obj
 0001:00042eb0       ??$extract_argument_from_va_list@G_J@?$standard_base@_WV?$stream_output_adapter@_W@__crt_stdio_output@@@__crt_stdio_output@@IAE_NAA_J@Z 10043eb0 f i libucrtd:output.obj
 0001:00042ee0       ??$extract_argument_from_va_list@G_J@?$standard_base@_WV?$string_output_adapter@_W@__crt_stdio_output@@@__crt_stdio_output@@IAE_NAA_J@Z 10043ee0 f i libucrtd:output.obj
 0001:00042f10       ??$extract_argument_from_va_list@H_J@?$positional_parameter_base@DV?$stream_output_adapter@D@__crt_stdio_output@@@__crt_stdio_output@@IAE_NAA_J@Z 10043f10 f i libucrtd:output.obj
 0001:00043040       ??$extract_argument_from_va_list@H_J@?$positional_parameter_base@DV?$string_output_adapter@D@__crt_stdio_output@@@__crt_stdio_output@@IAE_NAA_J@Z 10044040 f i libucrtd:output.obj
 0001:00043170       ??$extract_argument_from_va_list@H_J@?$positional_parameter_base@_WV?$stream_output_adapter@_W@__crt_stdio_output@@@__crt_stdio_output@@IAE_NAA_J@Z 10044170 f i libucrtd:output.obj
 0001:000432a0       ??$extract_argument_from_va_list@H_J@?$positional_parameter_base@_WV?$string_output_adapter@_W@__crt_stdio_output@@@__crt_stdio_output@@IAE_NAA_J@Z 100442a0 f i libucrtd:output.obj
 0001:000433d0       ??$extract_argument_from_va_list@H_J@?$standard_base@DV?$stream_output_adapter@D@__crt_stdio_output@@@__crt_stdio_output@@IAE_NAA_J@Z 100443d0 f i libucrtd:output.obj
 0001:00043400       ??$extract_argument_from_va_list@H_J@?$standard_base@DV?$string_output_adapter@D@__crt_stdio_output@@@__crt_stdio_output@@IAE_NAA_J@Z 10044400 f i libucrtd:output.obj
 0001:00043430       ??$extract_argument_from_va_list@H_J@?$standard_base@_WV?$stream_output_adapter@_W@__crt_stdio_output@@@__crt_stdio_output@@IAE_NAA_J@Z 10044430 f i libucrtd:output.obj
 0001:00043460       ??$extract_argument_from_va_list@H_J@?$standard_base@_WV?$string_output_adapter@_W@__crt_stdio_output@@@__crt_stdio_output@@IAE_NAA_J@Z 10044460 f i libucrtd:output.obj
 0001:00043490       ??$extract_argument_from_va_list@I_J@?$positional_parameter_base@DV?$stream_output_adapter@D@__crt_stdio_output@@@__crt_stdio_output@@IAE_NAA_J@Z 10044490 f i libucrtd:output.obj
 0001:000435c0       ??$extract_argument_from_va_list@I_J@?$positional_parameter_base@DV?$string_output_adapter@D@__crt_stdio_output@@@__crt_stdio_output@@IAE_NAA_J@Z 100445c0 f i libucrtd:output.obj
 0001:000436f0       ??$extract_argument_from_va_list@I_J@?$positional_parameter_base@_WV?$stream_output_adapter@_W@__crt_stdio_output@@@__crt_stdio_output@@IAE_NAA_J@Z 100446f0 f i libucrtd:output.obj
 0001:00043820       ??$extract_argument_from_va_list@I_J@?$positional_parameter_base@_WV?$string_output_adapter@_W@__crt_stdio_output@@@__crt_stdio_output@@IAE_NAA_J@Z 10044820 f i libucrtd:output.obj
 0001:00043950       ??$extract_argument_from_va_list@I_J@?$standard_base@DV?$stream_output_adapter@D@__crt_stdio_output@@@__crt_stdio_output@@IAE_NAA_J@Z 10044950 f i libucrtd:output.obj
 0001:00043980       ??$extract_argument_from_va_list@I_J@?$standard_base@DV?$string_output_adapter@D@__crt_stdio_output@@@__crt_stdio_output@@IAE_NAA_J@Z 10044980 f i libucrtd:output.obj
 0001:000439b0       ??$extract_argument_from_va_list@I_J@?$standard_base@_WV?$stream_output_adapter@_W@__crt_stdio_output@@@__crt_stdio_output@@IAE_NAA_J@Z 100449b0 f i libucrtd:output.obj
 0001:000439e0       ??$extract_argument_from_va_list@I_J@?$standard_base@_WV?$string_output_adapter@_W@__crt_stdio_output@@@__crt_stdio_output@@IAE_NAA_J@Z 100449e0 f i libucrtd:output.obj
 0001:00043a10       ??$extract_argument_from_va_list@PADPAD@?$positional_parameter_base@DV?$stream_output_adapter@D@__crt_stdio_output@@@__crt_stdio_output@@IAE_NAAPAD@Z 10044a10 f i libucrtd:output.obj
 0001:00043b40       ??$extract_argument_from_va_list@PADPAD@?$positional_parameter_base@DV?$string_output_adapter@D@__crt_stdio_output@@@__crt_stdio_output@@IAE_NAAPAD@Z 10044b40 f i libucrtd:output.obj
 0001:00043c70       ??$extract_argument_from_va_list@PADPAD@?$positional_parameter_base@_WV?$stream_output_adapter@_W@__crt_stdio_output@@@__crt_stdio_output@@IAE_NAAPAD@Z 10044c70 f i libucrtd:output.obj
 0001:00043da0       ??$extract_argument_from_va_list@PADPAD@?$positional_parameter_base@_WV?$string_output_adapter@_W@__crt_stdio_output@@@__crt_stdio_output@@IAE_NAAPAD@Z 10044da0 f i libucrtd:output.obj
 0001:00043ed0       ??$extract_argument_from_va_list@PADPAD@?$standard_base@DV?$stream_output_adapter@D@__crt_stdio_output@@@__crt_stdio_output@@IAE_NAAPAD@Z 10044ed0 f i libucrtd:output.obj
 0001:00043f00       ??$extract_argument_from_va_list@PADPAD@?$standard_base@DV?$string_output_adapter@D@__crt_stdio_output@@@__crt_stdio_output@@IAE_NAAPAD@Z 10044f00 f i libucrtd:output.obj
 0001:00043f30       ??$extract_argument_from_va_list@PADPAD@?$standard_base@_WV?$stream_output_adapter@_W@__crt_stdio_output@@@__crt_stdio_output@@IAE_NAAPAD@Z 10044f30 f i libucrtd:output.obj
 0001:00043f60       ??$extract_argument_from_va_list@PADPAD@?$standard_base@_WV?$string_output_adapter@_W@__crt_stdio_output@@@__crt_stdio_output@@IAE_NAAPAD@Z 10044f60 f i libucrtd:output.obj
 0001:00044690       ??$extract_argument_from_va_list@PAXPAX@?$positional_parameter_base@DV?$stream_output_adapter@D@__crt_stdio_output@@@__crt_stdio_output@@IAE_NAAPAX@Z 10045690 f i libucrtd:output.obj
 0001:000447c0       ??$extract_argument_from_va_list@PAXPAX@?$positional_parameter_base@DV?$string_output_adapter@D@__crt_stdio_output@@@__crt_stdio_output@@IAE_NAAPAX@Z 100457c0 f i libucrtd:output.obj
 0001:000448f0       ??$extract_argument_from_va_list@PAXPAX@?$positional_parameter_base@_WV?$stream_output_adapter@_W@__crt_stdio_output@@@__crt_stdio_output@@IAE_NAAPAX@Z 100458f0 f i libucrtd:output.obj
 0001:00044a20       ??$extract_argument_from_va_list@PAXPAX@?$positional_parameter_base@_WV?$string_output_adapter@_W@__crt_stdio_output@@@__crt_stdio_output@@IAE_NAAPAX@Z 10045a20 f i libucrtd:output.obj
 0001:00044b50       ??$extract_argument_from_va_list@PAXPAX@?$standard_base@DV?$stream_output_adapter@D@__crt_stdio_output@@@__crt_stdio_output@@IAE_NAAPAX@Z 10045b50 f i libucrtd:output.obj
 0001:00044b80       ??$extract_argument_from_va_list@PAXPAX@?$standard_base@DV?$string_output_adapter@D@__crt_stdio_output@@@__crt_stdio_output@@IAE_NAAPAX@Z 10045b80 f i libucrtd:output.obj
 0001:00044bb0       ??$extract_argument_from_va_list@PAXPAX@?$standard_base@_WV?$stream_output_adapter@_W@__crt_stdio_output@@@__crt_stdio_output@@IAE_NAAPAX@Z 10045bb0 f i libucrtd:output.obj
 0001:00044be0       ??$extract_argument_from_va_list@PAXPAX@?$standard_base@_WV?$string_output_adapter@_W@__crt_stdio_output@@@__crt_stdio_output@@IAE_NAAPAX@Z 10045be0 f i libucrtd:output.obj
 0001:00044c10       ??$extract_argument_from_va_list@U_CRT_DOUBLE@@U1@@?$positional_parameter_base@DV?$stream_output_adapter@D@__crt_stdio_output@@@__crt_stdio_output@@IAE_NAAU_CRT_DOUBLE@@@Z 10045c10 f i libucrtd:output.obj
 0001:00044d70       ??$extract_argument_from_va_list@U_CRT_DOUBLE@@U1@@?$positional_parameter_base@DV?$string_output_adapter@D@__crt_stdio_output@@@__crt_stdio_output@@IAE_NAAU_CRT_DOUBLE@@@Z 10045d70 f i libucrtd:output.obj
 0001:00044ed0       ??$extract_argument_from_va_list@U_CRT_DOUBLE@@U1@@?$positional_parameter_base@_WV?$stream_output_adapter@_W@__crt_stdio_output@@@__crt_stdio_output@@IAE_NAAU_CRT_DOUBLE@@@Z 10045ed0 f i libucrtd:output.obj
 0001:00045030       ??$extract_argument_from_va_list@U_CRT_DOUBLE@@U1@@?$positional_parameter_base@_WV?$string_output_adapter@_W@__crt_stdio_output@@@__crt_stdio_output@@IAE_NAAU_CRT_DOUBLE@@@Z 10046030 f i libucrtd:output.obj
 0001:00045190       ??$extract_argument_from_va_list@U_CRT_DOUBLE@@U1@@?$standard_base@DV?$stream_output_adapter@D@__crt_stdio_output@@@__crt_stdio_output@@IAE_NAAU_CRT_DOUBLE@@@Z 10046190 f i libucrtd:output.obj
 0001:000451e0       ??$extract_argument_from_va_list@U_CRT_DOUBLE@@U1@@?$standard_base@DV?$string_output_adapter@D@__crt_stdio_output@@@__crt_stdio_output@@IAE_NAAU_CRT_DOUBLE@@@Z 100461e0 f i libucrtd:output.obj
 0001:00045230       ??$extract_argument_from_va_list@U_CRT_DOUBLE@@U1@@?$standard_base@_WV?$stream_output_adapter@_W@__crt_stdio_output@@@__crt_stdio_output@@IAE_NAAU_CRT_DOUBLE@@@Z 10046230 f i libucrtd:output.obj
 0001:00045280       ??$extract_argument_from_va_list@U_CRT_DOUBLE@@U1@@?$standard_base@_WV?$string_output_adapter@_W@__crt_stdio_output@@@__crt_stdio_output@@IAE_NAAU_CRT_DOUBLE@@@Z 10046280 f i libucrtd:output.obj
 0001:000452d0       ??$extract_argument_from_va_list@_J_J@?$positional_parameter_base@DV?$stream_output_adapter@D@__crt_stdio_output@@@__crt_stdio_output@@IAE_NAA_J@Z 100462d0 f i libucrtd:output.obj
 0001:00045400       ??$extract_argument_from_va_list@_J_J@?$positional_parameter_base@DV?$string_output_adapter@D@__crt_stdio_output@@@__crt_stdio_output@@IAE_NAA_J@Z 10046400 f i libucrtd:output.obj
 0001:00045530       ??$extract_argument_from_va_list@_J_J@?$positional_parameter_base@_WV?$stream_output_adapter@_W@__crt_stdio_output@@@__crt_stdio_output@@IAE_NAA_J@Z 10046530 f i libucrtd:output.obj
 0001:00045660       ??$extract_argument_from_va_list@_J_J@?$positional_parameter_base@_WV?$string_output_adapter@_W@__crt_stdio_output@@@__crt_stdio_output@@IAE_NAA_J@Z 10046660 f i libucrtd:output.obj
 0001:00045790       ??$extract_argument_from_va_list@_J_J@?$standard_base@DV?$stream_output_adapter@D@__crt_stdio_output@@@__crt_stdio_output@@IAE_NAA_J@Z 10046790 f i libucrtd:output.obj
 0001:000457c0       ??$extract_argument_from_va_list@_J_J@?$standard_base@DV?$string_output_adapter@D@__crt_stdio_output@@@__crt_stdio_output@@IAE_NAA_J@Z 100467c0 f i libucrtd:output.obj
 0001:000457f0       ??$extract_argument_from_va_list@_J_J@?$standard_base@_WV?$stream_output_adapter@_W@__crt_stdio_output@@@__crt_stdio_output@@IAE_NAA_J@Z 100467f0 f i libucrtd:output.obj
 0001:00045820       ??$extract_argument_from_va_list@_J_J@?$standard_base@_WV?$string_output_adapter@_W@__crt_stdio_output@@@__crt_stdio_output@@IAE_NAA_J@Z 10046820 f i libucrtd:output.obj
 0001:00045850       ??$extract_argument_from_va_list@_K_J@?$positional_parameter_base@DV?$stream_output_adapter@D@__crt_stdio_output@@@__crt_stdio_output@@IAE_NAA_J@Z 10046850 f i libucrtd:output.obj
 0001:00045980       ??$extract_argument_from_va_list@_K_J@?$positional_parameter_base@DV?$string_output_adapter@D@__crt_stdio_output@@@__crt_stdio_output@@IAE_NAA_J@Z 10046980 f i libucrtd:output.obj
 0001:00045ab0       ??$extract_argument_from_va_list@_K_J@?$positional_parameter_base@_WV?$stream_output_adapter@_W@__crt_stdio_output@@@__crt_stdio_output@@IAE_NAA_J@Z 10046ab0 f i libucrtd:output.obj
 0001:00045be0       ??$extract_argument_from_va_list@_K_J@?$positional_parameter_base@_WV?$string_output_adapter@_W@__crt_stdio_output@@@__crt_stdio_output@@IAE_NAA_J@Z 10046be0 f i libucrtd:output.obj
 0001:00045d10       ??$extract_argument_from_va_list@_K_J@?$standard_base@DV?$stream_output_adapter@D@__crt_stdio_output@@@__crt_stdio_output@@IAE_NAA_J@Z 10046d10 f i libucrtd:output.obj
 0001:00045d40       ??$extract_argument_from_va_list@_K_J@?$standard_base@DV?$string_output_adapter@D@__crt_stdio_output@@@__crt_stdio_output@@IAE_NAA_J@Z 10046d40 f i libucrtd:output.obj
 0001:00045d70       ??$extract_argument_from_va_list@_K_J@?$standard_base@_WV?$stream_output_adapter@_W@__crt_stdio_output@@@__crt_stdio_output@@IAE_NAA_J@Z 10046d70 f i libucrtd:output.obj
 0001:00045da0       ??$extract_argument_from_va_list@_K_J@?$standard_base@_WV?$string_output_adapter@_W@__crt_stdio_output@@@__crt_stdio_output@@IAE_NAA_J@Z 10046da0 f i libucrtd:output.obj
 0001:00045dd0       ??$extract_argument_from_va_list@_W_W@?$positional_parameter_base@DV?$stream_output_adapter@D@__crt_stdio_output@@@__crt_stdio_output@@IAE_NAA_W@Z 10046dd0 f i libucrtd:output.obj
 0001:00045f00       ??$extract_argument_from_va_list@_W_W@?$positional_parameter_base@DV?$string_output_adapter@D@__crt_stdio_output@@@__crt_stdio_output@@IAE_NAA_W@Z 10046f00 f i libucrtd:output.obj
 0001:00046030       ??$extract_argument_from_va_list@_W_W@?$positional_parameter_base@_WV?$stream_output_adapter@_W@__crt_stdio_output@@@__crt_stdio_output@@IAE_NAA_W@Z 10047030 f i libucrtd:output.obj
 0001:00046160       ??$extract_argument_from_va_list@_W_W@?$positional_parameter_base@_WV?$string_output_adapter@_W@__crt_stdio_output@@@__crt_stdio_output@@IAE_NAA_W@Z 10047160 f i libucrtd:output.obj
 0001:00046290       ??$extract_argument_from_va_list@_W_W@?$standard_base@DV?$stream_output_adapter@D@__crt_stdio_output@@@__crt_stdio_output@@IAE_NAA_W@Z 10047290 f i libucrtd:output.obj
 0001:000462c0       ??$extract_argument_from_va_list@_W_W@?$standard_base@DV?$string_output_adapter@D@__crt_stdio_output@@@__crt_stdio_output@@IAE_NAA_W@Z 100472c0 f i libucrtd:output.obj
 0001:000462f0       ??$extract_argument_from_va_list@_W_W@?$standard_base@_WV?$stream_output_adapter@_W@__crt_stdio_output@@@__crt_stdio_output@@IAE_NAA_W@Z 100472f0 f i libucrtd:output.obj
 0001:00046320       ??$extract_argument_from_va_list@_W_W@?$standard_base@_WV?$string_output_adapter@_W@__crt_stdio_output@@@__crt_stdio_output@@IAE_NAA_W@Z 10047320 f i libucrtd:output.obj
 0001:00046350       ??$get_parameter_type@D@?$positional_parameter_base@DV?$stream_output_adapter@D@__crt_stdio_output@@@__crt_stdio_output@@CA?AW4parameter_type@01@PAD@Z 10047350 f i libucrtd:output.obj
 0001:00046360       ??$get_parameter_type@D@?$positional_parameter_base@DV?$string_output_adapter@D@__crt_stdio_output@@@__crt_stdio_output@@CA?AW4parameter_type@01@PAD@Z 10047360 f i libucrtd:output.obj
 0001:00046370       ??$get_parameter_type@D@?$positional_parameter_base@_WV?$stream_output_adapter@_W@__crt_stdio_output@@@__crt_stdio_output@@CA?AW4parameter_type@01@PAD@Z 10047370 f i libucrtd:output.obj
 0001:00046380       ??$get_parameter_type@D@?$positional_parameter_base@_WV?$string_output_adapter@_W@__crt_stdio_output@@@__crt_stdio_output@@CA?AW4parameter_type@01@PAD@Z 10047380 f i libucrtd:output.obj
 0001:000463d0       ??$get_parameter_type@X@?$positional_parameter_base@DV?$stream_output_adapter@D@__crt_stdio_output@@@__crt_stdio_output@@CA?AW4parameter_type@01@PAX@Z 100473d0 f i libucrtd:output.obj
 0001:000463e0       ??$get_parameter_type@X@?$positional_parameter_base@DV?$string_output_adapter@D@__crt_stdio_output@@@__crt_stdio_output@@CA?AW4parameter_type@01@PAX@Z 100473e0 f i libucrtd:output.obj
 0001:000463f0       ??$get_parameter_type@X@?$positional_parameter_base@_WV?$stream_output_adapter@_W@__crt_stdio_output@@@__crt_stdio_output@@CA?AW4parameter_type@01@PAX@Z 100473f0 f i libucrtd:output.obj
 0001:00046400       ??$get_parameter_type@X@?$positional_parameter_base@_WV?$string_output_adapter@_W@__crt_stdio_output@@@__crt_stdio_output@@CA?AW4parameter_type@01@PAX@Z 10047400 f i libucrtd:output.obj
 0001:00046410       ??$is_character_specifier@D@?$positional_parameter_base@DV?$stream_output_adapter@D@__crt_stdio_output@@@__crt_stdio_output@@CA_ND@Z 10047410 f i libucrtd:output.obj
 0001:00046440       ??$is_character_specifier@D@?$positional_parameter_base@DV?$string_output_adapter@D@__crt_stdio_output@@@__crt_stdio_output@@CA_ND@Z 10047440 f i libucrtd:output.obj
 0001:00046470       ??$is_character_specifier@_W@?$positional_parameter_base@_WV?$stream_output_adapter@_W@__crt_stdio_output@@@__crt_stdio_output@@CA_N_W@Z 10047470 f i libucrtd:output.obj
 0001:000464a0       ??$is_character_specifier@_W@?$positional_parameter_base@_WV?$string_output_adapter@_W@__crt_stdio_output@@@__crt_stdio_output@@CA_N_W@Z 100474a0 f i libucrtd:output.obj
 0001:000464d0       ??$is_integral_specifier@D@?$positional_parameter_base@DV?$stream_output_adapter@D@__crt_stdio_output@@@__crt_stdio_output@@CA_ND@Z 100474d0 f i libucrtd:output.obj
 0001:00046530       ??$is_integral_specifier@D@?$positional_parameter_base@DV?$string_output_adapter@D@__crt_stdio_output@@@__crt_stdio_output@@CA_ND@Z 10047530 f i libucrtd:output.obj
 0001:00046590       ??$is_integral_specifier@_W@?$positional_parameter_base@_WV?$stream_output_adapter@_W@__crt_stdio_output@@@__crt_stdio_output@@CA_N_W@Z 10047590 f i libucrtd:output.obj
 0001:000465f0       ??$is_integral_specifier@_W@?$positional_parameter_base@_WV?$string_output_adapter@_W@__crt_stdio_output@@@__crt_stdio_output@@CA_N_W@Z 100475f0 f i libucrtd:output.obj
 0001:00046650       ??$is_pointer_specifier@D@?$positional_parameter_base@DV?$stream_output_adapter@D@__crt_stdio_output@@@__crt_stdio_output@@CA_ND@Z 10047650 f i libucrtd:output.obj
 0001:00046680       ??$is_pointer_specifier@D@?$positional_parameter_base@DV?$string_output_adapter@D@__crt_stdio_output@@@__crt_stdio_output@@CA_ND@Z 10047680 f i libucrtd:output.obj
 0001:000466b0       ??$is_pointer_specifier@_W@?$positional_parameter_base@_WV?$stream_output_adapter@_W@__crt_stdio_output@@@__crt_stdio_output@@CA_N_W@Z 100476b0 f i libucrtd:output.obj
 0001:000466e0       ??$is_pointer_specifier@_W@?$positional_parameter_base@_WV?$string_output_adapter@_W@__crt_stdio_output@@@__crt_stdio_output@@CA_N_W@Z 100476e0 f i libucrtd:output.obj
 0001:00046710       ??$is_string_specifier@D@?$positional_parameter_base@DV?$stream_output_adapter@D@__crt_stdio_output@@@__crt_stdio_output@@CA_ND@Z 10047710 f i libucrtd:output.obj
 0001:00046740       ??$is_string_specifier@D@?$positional_parameter_base@DV?$string_output_adapter@D@__crt_stdio_output@@@__crt_stdio_output@@CA_ND@Z 10047740 f i libucrtd:output.obj
 0001:00046770       ??$is_string_specifier@_W@?$positional_parameter_base@_WV?$stream_output_adapter@_W@__crt_stdio_output@@@__crt_stdio_output@@CA_N_W@Z 10047770 f i libucrtd:output.obj
 0001:000467a0       ??$is_string_specifier@_W@?$positional_parameter_base@_WV?$string_output_adapter@_W@__crt_stdio_output@@@__crt_stdio_output@@CA_N_W@Z 100477a0 f i libucrtd:output.obj
 0001:000467d0       ??$is_wide_character_specifier@D@__crt_stdio_output@@YA_N_KDW4length_modifier@0@@Z 100477d0 f i libucrtd:output.obj
 0001:00046850       ??$is_wide_character_specifier@_W@__crt_stdio_output@@YA_N_K_WW4length_modifier@0@@Z 10047850 f i libucrtd:output.obj
 0001:00046910       ??$peek_va_arg@C@__crt_stdio_output@@YACPAD@Z 10047910 f i libucrtd:output.obj
 0001:00046930       ??$peek_va_arg@E@__crt_stdio_output@@YAEPAD@Z 10047930 f i libucrtd:output.obj
 0001:00046950       ??$peek_va_arg@F@__crt_stdio_output@@YAFPAD@Z 10047950 f i libucrtd:output.obj
 0001:00046970       ??$peek_va_arg@G@__crt_stdio_output@@YAGPAD@Z 10047970 f i libucrtd:output.obj
 0001:00046990       ??$peek_va_arg@H@__crt_stdio_output@@YAHPAD@Z 10047990 f i libucrtd:output.obj
 0001:000469b0       ??$peek_va_arg@I@__crt_stdio_output@@YAIPAD@Z 100479b0 f i libucrtd:output.obj
 0001:000469d0       ??$peek_va_arg@PAD@__crt_stdio_output@@YAPADPAD@Z 100479d0 f i libucrtd:output.obj
 0001:00046a70       ??$peek_va_arg@PAX@__crt_stdio_output@@YAPAXPAD@Z 10047a70 f i libucrtd:output.obj
 0001:00046a90       ??$peek_va_arg@U_CRT_DOUBLE@@@__crt_stdio_output@@YA?AU_CRT_DOUBLE@@PAD@Z 10047a90 f i libucrtd:output.obj
 0001:00046ab0       ??$peek_va_arg@_J@__crt_stdio_output@@YA_JPAD@Z 10047ab0 f i libucrtd:output.obj
 0001:00046ad0       ??$peek_va_arg@_K@__crt_stdio_output@@YA_KPAD@Z 10047ad0 f i libucrtd:output.obj
 0001:00046af0       ??$peek_va_arg@_W@__crt_stdio_output@@YA_WPAD@Z 10047af0 f i libucrtd:output.obj
 0001:00046b10       ??$puttc_nolock@ABDPAU_iobuf@@@?$__crt_char_traits@D@@SAHABD$$QAPAU_iobuf@@@Z 10047b10 f i libucrtd:output.obj
 0001:00046b30       ??$puttc_nolock@AB_WPAU_iobuf@@@?$__crt_char_traits@_W@@SAGAB_W$$QAPAU_iobuf@@@Z 10047b30 f i libucrtd:output.obj
 0001:00046b50       ??$read_va_arg@C@__crt_stdio_output@@YACAAPAD@Z 10047b50 f i libucrtd:output.obj
 0001:00046b70       ??$read_va_arg@E@__crt_stdio_output@@YAEAAPAD@Z 10047b70 f i libucrtd:output.obj
 0001:00046b90       ??$read_va_arg@F@__crt_stdio_output@@YAFAAPAD@Z 10047b90 f i libucrtd:output.obj
 0001:00046bb0       ??$read_va_arg@G@__crt_stdio_output@@YAGAAPAD@Z 10047bb0 f i libucrtd:output.obj
 0001:00046bd0       ??$read_va_arg@H@__crt_stdio_output@@YAHAAPAD@Z 10047bd0 f i libucrtd:output.obj
 0001:00046bf0       ??$read_va_arg@I@__crt_stdio_output@@YAIAAPAD@Z 10047bf0 f i libucrtd:output.obj
 0001:00046c10       ??$read_va_arg@PAD@__crt_stdio_output@@YAPADAAPAD@Z 10047c10 f i libucrtd:output.obj
 0001:00046db0       ??$read_va_arg@PAX@__crt_stdio_output@@YAPAXAAPAD@Z 10047db0 f i libucrtd:output.obj
 0001:00046dd0       ??$read_va_arg@U_CRT_DOUBLE@@@__crt_stdio_output@@YA?AU_CRT_DOUBLE@@AAPAD@Z 10047dd0 f i libucrtd:output.obj
 0001:00046df0       ??$read_va_arg@_J@__crt_stdio_output@@YA_JAAPAD@Z 10047df0 f i libucrtd:output.obj
 0001:00046e10       ??$read_va_arg@_K@__crt_stdio_output@@YA_KAAPAD@Z 10047e10 f i libucrtd:output.obj
 0001:00046e30       ??$read_va_arg@_W@__crt_stdio_output@@YA_WAAPAD@Z 10047e30 f i libucrtd:output.obj
 0001:00046e50       ??$scratch_count@D@formatting_buffer@__crt_stdio_output@@QBEIXZ 10047e50 f i libucrtd:output.obj
 0001:00046e70       ??$scratch_data@D@formatting_buffer@__crt_stdio_output@@QAEPADXZ 10047e70 f i libucrtd:output.obj
 0001:00046ec0       ??$tcstol@AAPBDPAPADH@?$__crt_char_traits@D@@SAJAAPBD$$QAPAPAD$$QAH@Z 10047ec0 f i libucrtd:output.obj
 0001:00046ef0       ??$tcstol@AAPB_WPAPA_WH@?$__crt_char_traits@_W@@SAJAAPB_W$$QAPAPA_W$$QAH@Z 10047ef0 f i libucrtd:output.obj
 0001:00046f20       ??$tcstol@PBDPAPADH@?$__crt_char_traits@D@@SAJ$$QAPBD$$QAPAPAD$$QAH@Z 10047f20 f i libucrtd:output.obj
 0001:00046f50       ??$tcstol@PB_WPAPA_WH@?$__crt_char_traits@_W@@SAJ$$QAPB_W$$QAPAPA_W$$QAH@Z 10047f50 f i libucrtd:output.obj
 0001:00046f80       ??$type_case_integer_parse_into_buffer@I@?$output_processor@DV?$stream_output_adapter@D@__crt_stdio_output@@V?$format_validation_base@DV?$stream_output_adapter@D@__crt_stdio_output@@@2@@__crt_stdio_output@@AAEXII_N@Z 10047f80 f i libucrtd:output.obj
 0001:00047050       ??$type_case_integer_parse_into_buffer@I@?$output_processor@DV?$stream_output_adapter@D@__crt_stdio_output@@V?$positional_parameter_base@DV?$stream_output_adapter@D@__crt_stdio_output@@@2@@__crt_stdio_output@@AAEXII_N@Z 10048050 f i libucrtd:output.obj
 0001:00047120       ??$type_case_integer_parse_into_buffer@I@?$output_processor@DV?$stream_output_adapter@D@__crt_stdio_output@@V?$standard_base@DV?$stream_output_adapter@D@__crt_stdio_output@@@2@@__crt_stdio_output@@AAEXII_N@Z 10048120 f i libucrtd:output.obj
 0001:000471f0       ??$type_case_integer_parse_into_buffer@I@?$output_processor@DV?$string_output_adapter@D@__crt_stdio_output@@V?$format_validation_base@DV?$string_output_adapter@D@__crt_stdio_output@@@2@@__crt_stdio_output@@AAEXII_N@Z 100481f0 f i libucrtd:output.obj
 0001:000472c0       ??$type_case_integer_parse_into_buffer@I@?$output_processor@DV?$string_output_adapter@D@__crt_stdio_output@@V?$positional_parameter_base@DV?$string_output_adapter@D@__crt_stdio_output@@@2@@__crt_stdio_output@@AAEXII_N@Z 100482c0 f i libucrtd:output.obj
 0001:00047390       ??$type_case_integer_parse_into_buffer@I@?$output_processor@DV?$string_output_adapter@D@__crt_stdio_output@@V?$standard_base@DV?$string_output_adapter@D@__crt_stdio_output@@@2@@__crt_stdio_output@@AAEXII_N@Z 10048390 f i libucrtd:output.obj
 0001:00047460       ??$type_case_integer_parse_into_buffer@I@?$output_processor@_WV?$stream_output_adapter@_W@__crt_stdio_output@@V?$format_validation_base@_WV?$stream_output_adapter@_W@__crt_stdio_output@@@2@@__crt_stdio_output@@AAEXII_N@Z 10048460 f i libucrtd:output.obj
 0001:00047540       ??$type_case_integer_parse_into_buffer@I@?$output_processor@_WV?$stream_output_adapter@_W@__crt_stdio_output@@V?$positional_parameter_base@_WV?$stream_output_adapter@_W@__crt_stdio_output@@@2@@__crt_stdio_output@@AAEXII_N@Z 10048540 f i libucrtd:output.obj
 0001:00047620       ??$type_case_integer_parse_into_buffer@I@?$output_processor@_WV?$stream_output_adapter@_W@__crt_stdio_output@@V?$standard_base@_WV?$stream_output_adapter@_W@__crt_stdio_output@@@2@@__crt_stdio_output@@AAEXII_N@Z 10048620 f i libucrtd:output.obj
 0001:00047700       ??$type_case_integer_parse_into_buffer@I@?$output_processor@_WV?$string_output_adapter@_W@__crt_stdio_output@@V?$format_validation_base@_WV?$string_output_adapter@_W@__crt_stdio_output@@@2@@__crt_stdio_output@@AAEXII_N@Z 10048700 f i libucrtd:output.obj
 0001:000477e0       ??$type_case_integer_parse_into_buffer@I@?$output_processor@_WV?$string_output_adapter@_W@__crt_stdio_output@@V?$positional_parameter_base@_WV?$string_output_adapter@_W@__crt_stdio_output@@@2@@__crt_stdio_output@@AAEXII_N@Z 100487e0 f i libucrtd:output.obj
 0001:000478c0       ??$type_case_integer_parse_into_buffer@I@?$output_processor@_WV?$string_output_adapter@_W@__crt_stdio_output@@V?$standard_base@_WV?$string_output_adapter@_W@__crt_stdio_output@@@2@@__crt_stdio_output@@AAEXII_N@Z 100488c0 f i libucrtd:output.obj
 0001:000479a0       ??$type_case_integer_parse_into_buffer@_K@?$output_processor@DV?$stream_output_adapter@D@__crt_stdio_output@@V?$format_validation_base@DV?$stream_output_adapter@D@__crt_stdio_output@@@2@@__crt_stdio_output@@AAEX_KI_N@Z 100489a0 f i libucrtd:output.obj
 0001:00047a90       ??$type_case_integer_parse_into_buffer@_K@?$output_processor@DV?$stream_output_adapter@D@__crt_stdio_output@@V?$positional_parameter_base@DV?$stream_output_adapter@D@__crt_stdio_output@@@2@@__crt_stdio_output@@AAEX_KI_N@Z 10048a90 f i libucrtd:output.obj
 0001:00047b80       ??$type_case_integer_parse_into_buffer@_K@?$output_processor@DV?$stream_output_adapter@D@__crt_stdio_output@@V?$standard_base@DV?$stream_output_adapter@D@__crt_stdio_output@@@2@@__crt_stdio_output@@AAEX_KI_N@Z 10048b80 f i libucrtd:output.obj
 0001:00047c70       ??$type_case_integer_parse_into_buffer@_K@?$output_processor@DV?$string_output_adapter@D@__crt_stdio_output@@V?$format_validation_base@DV?$string_output_adapter@D@__crt_stdio_output@@@2@@__crt_stdio_output@@AAEX_KI_N@Z 10048c70 f i libucrtd:output.obj
 0001:00047d60       ??$type_case_integer_parse_into_buffer@_K@?$output_processor@DV?$string_output_adapter@D@__crt_stdio_output@@V?$positional_parameter_base@DV?$string_output_adapter@D@__crt_stdio_output@@@2@@__crt_stdio_output@@AAEX_KI_N@Z 10048d60 f i libucrtd:output.obj
 0001:00047e50       ??$type_case_integer_parse_into_buffer@_K@?$output_processor@DV?$string_output_adapter@D@__crt_stdio_output@@V?$standard_base@DV?$string_output_adapter@D@__crt_stdio_output@@@2@@__crt_stdio_output@@AAEX_KI_N@Z 10048e50 f i libucrtd:output.obj
 0001:00047f40       ??$type_case_integer_parse_into_buffer@_K@?$output_processor@_WV?$stream_output_adapter@_W@__crt_stdio_output@@V?$format_validation_base@_WV?$stream_output_adapter@_W@__crt_stdio_output@@@2@@__crt_stdio_output@@AAEX_KI_N@Z 10048f40 f i libucrtd:output.obj
 0001:00048040       ??$type_case_integer_parse_into_buffer@_K@?$output_processor@_WV?$stream_output_adapter@_W@__crt_stdio_output@@V?$positional_parameter_base@_WV?$stream_output_adapter@_W@__crt_stdio_output@@@2@@__crt_stdio_output@@AAEX_KI_N@Z 10049040 f i libucrtd:output.obj
 0001:00048140       ??$type_case_integer_parse_into_buffer@_K@?$output_processor@_WV?$stream_output_adapter@_W@__crt_stdio_output@@V?$standard_base@_WV?$stream_output_adapter@_W@__crt_stdio_output@@@2@@__crt_stdio_output@@AAEX_KI_N@Z 10049140 f i libucrtd:output.obj
 0001:00048240       ??$type_case_integer_parse_into_buffer@_K@?$output_processor@_WV?$string_output_adapter@_W@__crt_stdio_output@@V?$format_validation_base@_WV?$string_output_adapter@_W@__crt_stdio_output@@@2@@__crt_stdio_output@@AAEX_KI_N@Z 10049240 f i libucrtd:output.obj
 0001:00048340       ??$type_case_integer_parse_into_buffer@_K@?$output_processor@_WV?$string_output_adapter@_W@__crt_stdio_output@@V?$positional_parameter_base@_WV?$string_output_adapter@_W@__crt_stdio_output@@@2@@__crt_stdio_output@@AAEX_KI_N@Z 10049340 f i libucrtd:output.obj
 0001:00048440       ??$type_case_integer_parse_into_buffer@_K@?$output_processor@_WV?$string_output_adapter@_W@__crt_stdio_output@@V?$standard_base@_WV?$string_output_adapter@_W@__crt_stdio_output@@@2@@__crt_stdio_output@@AAEX_KI_N@Z 10049440 f i libucrtd:output.obj
 0001:00048540       ??$write_multiple_characters@V?$stream_output_adapter@D@__crt_stdio_output@@D@__crt_stdio_output@@YAXABV?$stream_output_adapter@D@0@DHQAH@Z 10049540 f i libucrtd:output.obj
 0001:00048590       ??$write_multiple_characters@V?$stream_output_adapter@_W@__crt_stdio_output@@D@__crt_stdio_output@@YAXABV?$stream_output_adapter@_W@0@DHQAH@Z 10049590 f i libucrtd:output.obj
 0001:000485e0       ??$write_multiple_characters@V?$string_output_adapter@D@__crt_stdio_output@@D@__crt_stdio_output@@YAXABV?$string_output_adapter@D@0@DHQAH@Z 100495e0 f i libucrtd:output.obj
 0001:00048630       ??$write_multiple_characters@V?$string_output_adapter@_W@__crt_stdio_output@@D@__crt_stdio_output@@YAXABV?$string_output_adapter@_W@0@DHQAH@Z 10049630 f i libucrtd:output.obj
 0001:00048980       ??0?$common_data@D@__crt_stdio_output@@IAE@XZ 10049980 f i libucrtd:output.obj
 0001:00048a30       ??0?$common_data@_W@__crt_stdio_output@@IAE@XZ 10049a30 f i libucrtd:output.obj
 0001:00048ae0       ??0?$output_adapter_data@DV?$stream_output_adapter@D@__crt_stdio_output@@@__crt_stdio_output@@IAE@ABV?$stream_output_adapter@D@1@_KQBDQAU__crt_locale_pointers@@QAD@Z 10049ae0 f i libucrtd:output.obj
 0001:00048b40       ??0?$output_adapter_data@DV?$string_output_adapter@D@__crt_stdio_output@@@__crt_stdio_output@@IAE@ABV?$string_output_adapter@D@1@_KQBDQAU__crt_locale_pointers@@QAD@Z 10049b40 f i libucrtd:output.obj
 0001:00048ba0       ??0?$output_adapter_data@_WV?$stream_output_adapter@_W@__crt_stdio_output@@@__crt_stdio_output@@IAE@ABV?$stream_output_adapter@_W@1@_KQB_WQAU__crt_locale_pointers@@QAD@Z 10049ba0 f i libucrtd:output.obj
 0001:00048c00       ??0?$output_adapter_data@_WV?$string_output_adapter@_W@__crt_stdio_output@@@__crt_stdio_output@@IAE@ABV?$string_output_adapter@_W@1@_KQB_WQAU__crt_locale_pointers@@QAD@Z 10049c00 f i libucrtd:output.obj
 0001:00048c60       ??0?$output_processor@DV?$stream_output_adapter@D@__crt_stdio_output@@V?$format_validation_base@DV?$stream_output_adapter@D@__crt_stdio_output@@@2@@__crt_stdio_output@@QAE@ABV?$stream_output_adapter@D@1@_KQBDQAU__crt_locale_pointers@@QAD@Z 10049c60 f i libucrtd:output.obj
 0001:00048c90       ??0?$output_processor@DV?$stream_output_adapter@D@__crt_stdio_output@@V?$positional_parameter_base@DV?$stream_output_adapter@D@__crt_stdio_output@@@2@@__crt_stdio_output@@QAE@ABV?$stream_output_adapter@D@1@_KQBDQAU__crt_locale_pointers@@QAD@Z 10049c90 f i libucrtd:output.obj
 0001:00048cc0       ??0?$output_processor@DV?$stream_output_adapter@D@__crt_stdio_output@@V?$standard_base@DV?$stream_output_adapter@D@__crt_stdio_output@@@2@@__crt_stdio_output@@QAE@ABV?$stream_output_adapter@D@1@_KQBDQAU__crt_locale_pointers@@QAD@Z 10049cc0 f i libucrtd:output.obj
 0001:00048cf0       ??0?$output_processor@DV?$string_output_adapter@D@__crt_stdio_output@@V?$format_validation_base@DV?$string_output_adapter@D@__crt_stdio_output@@@2@@__crt_stdio_output@@QAE@ABV?$string_output_adapter@D@1@_KQBDQAU__crt_locale_pointers@@QAD@Z 10049cf0 f i libucrtd:output.obj
 0001:00048d20       ??0?$output_processor@DV?$string_output_adapter@D@__crt_stdio_output@@V?$positional_parameter_base@DV?$string_output_adapter@D@__crt_stdio_output@@@2@@__crt_stdio_output@@QAE@ABV?$string_output_adapter@D@1@_KQBDQAU__crt_locale_pointers@@QAD@Z 10049d20 f i libucrtd:output.obj
 0001:00048d50       ??0?$output_processor@DV?$string_output_adapter@D@__crt_stdio_output@@V?$standard_base@DV?$string_output_adapter@D@__crt_stdio_output@@@2@@__crt_stdio_output@@QAE@ABV?$string_output_adapter@D@1@_KQBDQAU__crt_locale_pointers@@QAD@Z 10049d50 f i libucrtd:output.obj
 0001:00048d80       ??0?$output_processor@_WV?$stream_output_adapter@_W@__crt_stdio_output@@V?$format_validation_base@_WV?$stream_output_adapter@_W@__crt_stdio_output@@@2@@__crt_stdio_output@@QAE@ABV?$stream_output_adapter@_W@1@_KQB_WQAU__crt_locale_pointers@@QAD@Z 10049d80 f i libucrtd:output.obj
 0001:00048db0       ??0?$output_processor@_WV?$stream_output_adapter@_W@__crt_stdio_output@@V?$positional_parameter_base@_WV?$stream_output_adapter@_W@__crt_stdio_output@@@2@@__crt_stdio_output@@QAE@ABV?$stream_output_adapter@_W@1@_KQB_WQAU__crt_locale_pointers@@QAD@Z 10049db0 f i libucrtd:output.obj
 0001:00048de0       ??0?$output_processor@_WV?$stream_output_adapter@_W@__crt_stdio_output@@V?$standard_base@_WV?$stream_output_adapter@_W@__crt_stdio_output@@@2@@__crt_stdio_output@@QAE@ABV?$stream_output_adapter@_W@1@_KQB_WQAU__crt_locale_pointers@@QAD@Z 10049de0 f i libucrtd:output.obj
 0001:00048e10       ??0?$output_processor@_WV?$string_output_adapter@_W@__crt_stdio_output@@V?$format_validation_base@_WV?$string_output_adapter@_W@__crt_stdio_output@@@2@@__crt_stdio_output@@QAE@ABV?$string_output_adapter@_W@1@_KQB_WQAU__crt_locale_pointers@@QAD@Z 10049e10 f i libucrtd:output.obj
 0001:00048e40       ??0?$output_processor@_WV?$string_output_adapter@_W@__crt_stdio_output@@V?$positional_parameter_base@_WV?$string_output_adapter@_W@__crt_stdio_output@@@2@@__crt_stdio_output@@QAE@ABV?$string_output_adapter@_W@1@_KQB_WQAU__crt_locale_pointers@@QAD@Z 10049e40 f i libucrtd:output.obj
 0001:00048e70       ??0?$output_processor@_WV?$string_output_adapter@_W@__crt_stdio_output@@V?$standard_base@_WV?$string_output_adapter@_W@__crt_stdio_output@@@2@@__crt_stdio_output@@QAE@ABV?$string_output_adapter@_W@1@_KQB_WQAU__crt_locale_pointers@@QAD@Z 10049e70 f i libucrtd:output.obj
 0001:00048ea0       ??0?$stream_output_adapter@D@__crt_stdio_output@@QAE@QAU_iobuf@@@Z 10049ea0 f i libucrtd:output.obj
 0001:00048ec0       ??0?$stream_output_adapter@_W@__crt_stdio_output@@QAE@QAU_iobuf@@@Z 10049ec0 f i libucrtd:output.obj
 0001:00048ee0       ??0?$string_output_adapter@D@__crt_stdio_output@@QAE@QAU?$string_output_adapter_context@D@1@@Z 10049ee0 f i libucrtd:output.obj
 0001:00048f00       ??0?$string_output_adapter@_W@__crt_stdio_output@@QAE@QAU?$string_output_adapter_context@_W@1@@Z 10049f00 f i libucrtd:output.obj
 0001:00048f20       ??0_LocaleUpdate@@QAE@QAU__crt_locale_pointers@@@Z 10049f20 f i libucrtd:output.obj
 0001:00049000       ??0__acrt_stdio_temporary_buffering_guard@@QAE@QAU_iobuf@@@Z 1004a000 f i libucrtd:output.obj
 0001:00049030       ??0__crt_deferred_errno_cache@@QAE@XZ 1004a030 f i libucrtd:output.obj
 0001:00049050       ??0__crt_errno_guard@@QAE@QAH@Z 1004a050 f i libucrtd:output.obj
 0001:00049080       ??0__crt_stdio_stream@@QAE@QAU_iobuf@@@Z 1004a080 f i libucrtd:output.obj
 0001:000490a0       ??0formatting_buffer@__crt_stdio_output@@QAE@XZ 1004a0a0 f i libucrtd:output.obj
 0001:000490d0       ??1?$common_data@D@__crt_stdio_output@@QAE@XZ 1004a0d0 f i libucrtd:output.obj
 0001:000490f0       ??1?$common_data@_W@__crt_stdio_output@@QAE@XZ 1004a0f0 f i libucrtd:output.obj
 0001:00049110       ??1?$format_validation_base@DV?$stream_output_adapter@D@__crt_stdio_output@@@__crt_stdio_output@@QAE@XZ 1004a110 f i libucrtd:output.obj
 0001:00049130       ??1?$format_validation_base@DV?$string_output_adapter@D@__crt_stdio_output@@@__crt_stdio_output@@QAE@XZ 1004a130 f i libucrtd:output.obj
 0001:00049150       ??1?$format_validation_base@_WV?$stream_output_adapter@_W@__crt_stdio_output@@@__crt_stdio_output@@QAE@XZ 1004a150 f i libucrtd:output.obj
 0001:00049170       ??1?$format_validation_base@_WV?$string_output_adapter@_W@__crt_stdio_output@@@__crt_stdio_output@@QAE@XZ 1004a170 f i libucrtd:output.obj
 0001:00049190       ??1?$output_adapter_data@DV?$stream_output_adapter@D@__crt_stdio_output@@@__crt_stdio_output@@QAE@XZ 1004a190 f i libucrtd:output.obj
 0001:000491b0       ??1?$output_adapter_data@DV?$string_output_adapter@D@__crt_stdio_output@@@__crt_stdio_output@@QAE@XZ 1004a1b0 f i libucrtd:output.obj
 0001:000491d0       ??1?$output_adapter_data@_WV?$stream_output_adapter@_W@__crt_stdio_output@@@__crt_stdio_output@@QAE@XZ 1004a1d0 f i libucrtd:output.obj
 0001:000491f0       ??1?$output_adapter_data@_WV?$string_output_adapter@_W@__crt_stdio_output@@@__crt_stdio_output@@QAE@XZ 1004a1f0 f i libucrtd:output.obj
 0001:00049210       ??1?$output_processor@DV?$stream_output_adapter@D@__crt_stdio_output@@V?$format_validation_base@DV?$stream_output_adapter@D@__crt_stdio_output@@@2@@__crt_stdio_output@@QAE@XZ 1004a210 f i libucrtd:output.obj
 0001:00049230       ??1?$output_processor@DV?$stream_output_adapter@D@__crt_stdio_output@@V?$positional_parameter_base@DV?$stream_output_adapter@D@__crt_stdio_output@@@2@@__crt_stdio_output@@QAE@XZ 1004a230 f i libucrtd:output.obj
 0001:00049250       ??1?$output_processor@DV?$stream_output_adapter@D@__crt_stdio_output@@V?$standard_base@DV?$stream_output_adapter@D@__crt_stdio_output@@@2@@__crt_stdio_output@@QAE@XZ 1004a250 f i libucrtd:output.obj
 0001:00049270       ??1?$output_processor@DV?$string_output_adapter@D@__crt_stdio_output@@V?$format_validation_base@DV?$string_output_adapter@D@__crt_stdio_output@@@2@@__crt_stdio_output@@QAE@XZ 1004a270 f i libucrtd:output.obj
 0001:00049290       ??1?$output_processor@DV?$string_output_adapter@D@__crt_stdio_output@@V?$positional_parameter_base@DV?$string_output_adapter@D@__crt_stdio_output@@@2@@__crt_stdio_output@@QAE@XZ 1004a290 f i libucrtd:output.obj
 0001:000492b0       ??1?$output_processor@DV?$string_output_adapter@D@__crt_stdio_output@@V?$standard_base@DV?$string_output_adapter@D@__crt_stdio_output@@@2@@__crt_stdio_output@@QAE@XZ 1004a2b0 f i libucrtd:output.obj
 0001:000492d0       ??1?$output_processor@_WV?$stream_output_adapter@_W@__crt_stdio_output@@V?$format_validation_base@_WV?$stream_output_adapter@_W@__crt_stdio_output@@@2@@__crt_stdio_output@@QAE@XZ 1004a2d0 f i libucrtd:output.obj
 0001:000492f0       ??1?$output_processor@_WV?$stream_output_adapter@_W@__crt_stdio_output@@V?$positional_parameter_base@_WV?$stream_output_adapter@_W@__crt_stdio_output@@@2@@__crt_stdio_output@@QAE@XZ 1004a2f0 f i libucrtd:output.obj
 0001:00049310       ??1?$output_processor@_WV?$stream_output_adapter@_W@__crt_stdio_output@@V?$standard_base@_WV?$stream_output_adapter@_W@__crt_stdio_output@@@2@@__crt_stdio_output@@QAE@XZ 1004a310 f i libucrtd:output.obj
 0001:00049330       ??1?$output_processor@_WV?$string_output_adapter@_W@__crt_stdio_output@@V?$format_validation_base@_WV?$string_output_adapter@_W@__crt_stdio_output@@@2@@__crt_stdio_output@@QAE@XZ 1004a330 f i libucrtd:output.obj
 0001:00049350       ??1?$output_processor@_WV?$string_output_adapter@_W@__crt_stdio_output@@V?$positional_parameter_base@_WV?$string_output_adapter@_W@__crt_stdio_output@@@2@@__crt_stdio_output@@QAE@XZ 1004a350 f i libucrtd:output.obj
 0001:00049370       ??1?$output_processor@_WV?$string_output_adapter@_W@__crt_stdio_output@@V?$standard_base@_WV?$string_output_adapter@_W@__crt_stdio_output@@@2@@__crt_stdio_output@@QAE@XZ 1004a370 f i libucrtd:output.obj
 0001:00049390       ??1?$positional_parameter_base@DV?$stream_output_adapter@D@__crt_stdio_output@@@__crt_stdio_output@@QAE@XZ 1004a390 f i libucrtd:output.obj
 0001:000493b0       ??1?$positional_parameter_base@DV?$string_output_adapter@D@__crt_stdio_output@@@__crt_stdio_output@@QAE@XZ 1004a3b0 f i libucrtd:output.obj
 0001:000493d0       ??1?$positional_parameter_base@_WV?$stream_output_adapter@_W@__crt_stdio_output@@@__crt_stdio_output@@QAE@XZ 1004a3d0 f i libucrtd:output.obj
 0001:000493f0       ??1?$positional_parameter_base@_WV?$string_output_adapter@_W@__crt_stdio_output@@@__crt_stdio_output@@QAE@XZ 1004a3f0 f i libucrtd:output.obj
 0001:00049410       ??1?$standard_base@DV?$stream_output_adapter@D@__crt_stdio_output@@@__crt_stdio_output@@QAE@XZ 1004a410 f i libucrtd:output.obj
 0001:00049430       ??1?$standard_base@DV?$string_output_adapter@D@__crt_stdio_output@@@__crt_stdio_output@@QAE@XZ 1004a430 f i libucrtd:output.obj
 0001:00049450       ??1?$standard_base@_WV?$stream_output_adapter@_W@__crt_stdio_output@@@__crt_stdio_output@@QAE@XZ 1004a450 f i libucrtd:output.obj
 0001:00049470       ??1?$standard_base@_WV?$string_output_adapter@_W@__crt_stdio_output@@@__crt_stdio_output@@QAE@XZ 1004a470 f i libucrtd:output.obj
 0001:00049490       ??1_LocaleUpdate@@QAE@XZ   1004a490 f i libucrtd:output.obj
 0001:000494d0       ??1__acrt_stdio_temporary_buffering_guard@@QAE@XZ 1004a4d0 f i libucrtd:output.obj
 0001:00049500       ??1__crt_errno_guard@@QAE@XZ 1004a500 f i libucrtd:output.obj
 0001:00049530       ??1formatting_buffer@__crt_stdio_output@@QAE@XZ 1004a530 f i libucrtd:output.obj
 0001:00049550       ??4?$__crt_unique_heap_ptr@DU__crt_internal_free_policy@@@@QAEAAV0@$$QAV0@@Z 1004a550 f i libucrtd:output.obj
 0001:00049580       ??C__crt_stdio_stream@@QBEPAU__crt_stdio_stream_data@@XZ 1004a580 f i libucrtd:output.obj
 0001:00049cc0       ?GetLocaleT@_LocaleUpdate@@QAEPAU__crt_locale_pointers@@XZ 1004acc0 f i libucrtd:output.obj
 0001:00049ce0       ?adjust_hexit@?$output_processor@DV?$stream_output_adapter@D@__crt_stdio_output@@V?$format_validation_base@DV?$stream_output_adapter@D@__crt_stdio_output@@@2@@__crt_stdio_output@@CADH_N@Z 1004ace0 f i libucrtd:output.obj
 0001:00049d20       ?adjust_hexit@?$output_processor@DV?$stream_output_adapter@D@__crt_stdio_output@@V?$positional_parameter_base@DV?$stream_output_adapter@D@__crt_stdio_output@@@2@@__crt_stdio_output@@CADH_N@Z 1004ad20 f i libucrtd:output.obj
 0001:00049d60       ?adjust_hexit@?$output_processor@DV?$stream_output_adapter@D@__crt_stdio_output@@V?$standard_base@DV?$stream_output_adapter@D@__crt_stdio_output@@@2@@__crt_stdio_output@@CADH_N@Z 1004ad60 f i libucrtd:output.obj
 0001:00049da0       ?adjust_hexit@?$output_processor@DV?$string_output_adapter@D@__crt_stdio_output@@V?$format_validation_base@DV?$string_output_adapter@D@__crt_stdio_output@@@2@@__crt_stdio_output@@CADH_N@Z 1004ada0 f i libucrtd:output.obj
 0001:00049de0       ?adjust_hexit@?$output_processor@DV?$string_output_adapter@D@__crt_stdio_output@@V?$positional_parameter_base@DV?$string_output_adapter@D@__crt_stdio_output@@@2@@__crt_stdio_output@@CADH_N@Z 1004ade0 f i libucrtd:output.obj
 0001:00049e20       ?adjust_hexit@?$output_processor@DV?$string_output_adapter@D@__crt_stdio_output@@V?$standard_base@DV?$string_output_adapter@D@__crt_stdio_output@@@2@@__crt_stdio_output@@CADH_N@Z 1004ae20 f i libucrtd:output.obj
 0001:00049e60       ?adjust_hexit@?$output_processor@_WV?$stream_output_adapter@_W@__crt_stdio_output@@V?$format_validation_base@_WV?$stream_output_adapter@_W@__crt_stdio_output@@@2@@__crt_stdio_output@@CADH_N@Z 1004ae60 f i libucrtd:output.obj
 0001:00049ea0       ?adjust_hexit@?$output_processor@_WV?$stream_output_adapter@_W@__crt_stdio_output@@V?$positional_parameter_base@_WV?$stream_output_adapter@_W@__crt_stdio_output@@@2@@__crt_stdio_output@@CADH_N@Z 1004aea0 f i libucrtd:output.obj
 0001:00049ee0       ?adjust_hexit@?$output_processor@_WV?$stream_output_adapter@_W@__crt_stdio_output@@V?$standard_base@_WV?$stream_output_adapter@_W@__crt_stdio_output@@@2@@__crt_stdio_output@@CADH_N@Z 1004aee0 f i libucrtd:output.obj
 0001:00049f20       ?adjust_hexit@?$output_processor@_WV?$string_output_adapter@_W@__crt_stdio_output@@V?$format_validation_base@_WV?$string_output_adapter@_W@__crt_stdio_output@@@2@@__crt_stdio_output@@CADH_N@Z 1004af20 f i libucrtd:output.obj
 0001:00049f60       ?adjust_hexit@?$output_processor@_WV?$string_output_adapter@_W@__crt_stdio_output@@V?$positional_parameter_base@_WV?$string_output_adapter@_W@__crt_stdio_output@@@2@@__crt_stdio_output@@CADH_N@Z 1004af60 f i libucrtd:output.obj
 0001:00049fa0       ?adjust_hexit@?$output_processor@_WV?$string_output_adapter@_W@__crt_stdio_output@@V?$standard_base@_WV?$string_output_adapter@_W@__crt_stdio_output@@@2@@__crt_stdio_output@@CADH_N@Z 1004afa0 f i libucrtd:output.obj
 0001:00049fe0       ?advance_to_next_pass@?$positional_parameter_base@DV?$stream_output_adapter@D@__crt_stdio_output@@@__crt_stdio_output@@IAE_NXZ 1004afe0 f i libucrtd:output.obj
 0001:0004a080       ?advance_to_next_pass@?$positional_parameter_base@DV?$string_output_adapter@D@__crt_stdio_output@@@__crt_stdio_output@@IAE_NXZ 1004b080 f i libucrtd:output.obj
 0001:0004a120       ?advance_to_next_pass@?$positional_parameter_base@_WV?$stream_output_adapter@_W@__crt_stdio_output@@@__crt_stdio_output@@IAE_NXZ 1004b120 f i libucrtd:output.obj
 0001:0004a1c0       ?advance_to_next_pass@?$positional_parameter_base@_WV?$string_output_adapter@_W@__crt_stdio_output@@@__crt_stdio_output@@IAE_NXZ 1004b1c0 f i libucrtd:output.obj
 0001:0004a260       ?advance_to_next_pass@?$standard_base@DV?$stream_output_adapter@D@__crt_stdio_output@@@__crt_stdio_output@@IAE_NXZ 1004b260 f i libucrtd:output.obj
 0001:0004a2b0       ?advance_to_next_pass@?$standard_base@DV?$string_output_adapter@D@__crt_stdio_output@@@__crt_stdio_output@@IAE_NXZ 1004b2b0 f i libucrtd:output.obj
 0001:0004a300       ?advance_to_next_pass@?$standard_base@_WV?$stream_output_adapter@_W@__crt_stdio_output@@@__crt_stdio_output@@IAE_NXZ 1004b300 f i libucrtd:output.obj
 0001:0004a350       ?advance_to_next_pass@?$standard_base@_WV?$string_output_adapter@_W@__crt_stdio_output@@@__crt_stdio_output@@IAE_NXZ 1004b350 f i libucrtd:output.obj
 0001:0004a3a0       ?crop_zeroes@__crt_stdio_output@@YAXPADQAU__crt_locale_pointers@@@Z 1004b3a0 f i libucrtd:output.obj
 0001:0004a4a0       ?find_next_state@?$output_processor@DV?$stream_output_adapter@D@__crt_stdio_output@@V?$format_validation_base@DV?$stream_output_adapter@D@__crt_stdio_output@@@2@@__crt_stdio_output@@ABE?AW4state@2@DW432@@Z 1004b4a0 f i libucrtd:output.obj
 0001:0004a520       ?find_next_state@?$output_processor@DV?$stream_output_adapter@D@__crt_stdio_output@@V?$positional_parameter_base@DV?$stream_output_adapter@D@__crt_stdio_output@@@2@@__crt_stdio_output@@ABE?AW4state@2@DW432@@Z 1004b520 f i libucrtd:output.obj
 0001:0004a5a0       ?find_next_state@?$output_processor@DV?$stream_output_adapter@D@__crt_stdio_output@@V?$standard_base@DV?$stream_output_adapter@D@__crt_stdio_output@@@2@@__crt_stdio_output@@ABE?AW4state@2@DW432@@Z 1004b5a0 f i libucrtd:output.obj
 0001:0004a620       ?find_next_state@?$output_processor@DV?$string_output_adapter@D@__crt_stdio_output@@V?$format_validation_base@DV?$string_output_adapter@D@__crt_stdio_output@@@2@@__crt_stdio_output@@ABE?AW4state@2@DW432@@Z 1004b620 f i libucrtd:output.obj
 0001:0004a6a0       ?find_next_state@?$output_processor@DV?$string_output_adapter@D@__crt_stdio_output@@V?$positional_parameter_base@DV?$string_output_adapter@D@__crt_stdio_output@@@2@@__crt_stdio_output@@ABE?AW4state@2@DW432@@Z 1004b6a0 f i libucrtd:output.obj
 0001:0004a720       ?find_next_state@?$output_processor@DV?$string_output_adapter@D@__crt_stdio_output@@V?$standard_base@DV?$string_output_adapter@D@__crt_stdio_output@@@2@@__crt_stdio_output@@ABE?AW4state@2@DW432@@Z 1004b720 f i libucrtd:output.obj
 0001:0004a7a0       ?find_next_state@?$output_processor@_WV?$stream_output_adapter@_W@__crt_stdio_output@@V?$format_validation_base@_WV?$stream_output_adapter@_W@__crt_stdio_output@@@2@@__crt_stdio_output@@ABE?AW4state@2@_WW432@@Z 1004b7a0 f i libucrtd:output.obj
 0001:0004a820       ?find_next_state@?$output_processor@_WV?$stream_output_adapter@_W@__crt_stdio_output@@V?$positional_parameter_base@_WV?$stream_output_adapter@_W@__crt_stdio_output@@@2@@__crt_stdio_output@@ABE?AW4state@2@_WW432@@Z 1004b820 f i libucrtd:output.obj
 0001:0004a8a0       ?find_next_state@?$output_processor@_WV?$stream_output_adapter@_W@__crt_stdio_output@@V?$standard_base@_WV?$stream_output_adapter@_W@__crt_stdio_output@@@2@@__crt_stdio_output@@ABE?AW4state@2@_WW432@@Z 1004b8a0 f i libucrtd:output.obj
 0001:0004a920       ?find_next_state@?$output_processor@_WV?$string_output_adapter@_W@__crt_stdio_output@@V?$format_validation_base@_WV?$string_output_adapter@_W@__crt_stdio_output@@@2@@__crt_stdio_output@@ABE?AW4state@2@_WW432@@Z 1004b920 f i libucrtd:output.obj
 0001:0004a9a0       ?find_next_state@?$output_processor@_WV?$string_output_adapter@_W@__crt_stdio_output@@V?$positional_parameter_base@_WV?$string_output_adapter@_W@__crt_stdio_output@@@2@@__crt_stdio_output@@ABE?AW4state@2@_WW432@@Z 1004b9a0 f i libucrtd:output.obj
 0001:0004aa20       ?find_next_state@?$output_processor@_WV?$string_output_adapter@_W@__crt_stdio_output@@V?$standard_base@_WV?$string_output_adapter@_W@__crt_stdio_output@@@2@@__crt_stdio_output@@ABE?AW4state@2@_WW432@@Z 1004ba20 f i libucrtd:output.obj
 0001:0004aaa0       ?force_decimal_point@__crt_stdio_output@@YAXPADQAU__crt_locale_pointers@@@Z 1004baa0 f i libucrtd:output.obj
 0001:0004ab70       ?get@__crt_deferred_errno_cache@@QAEAAHXZ 1004bb70 f i libucrtd:output.obj
 0001:0004aba0       ?get_flags@__crt_stdio_stream@@QBEJXZ 1004bba0 f i libucrtd:output.obj
 0001:0004abc0       ?get_parameter_type@?$positional_parameter_base@DV?$stream_output_adapter@D@__crt_stdio_output@@@__crt_stdio_output@@CA?AW4parameter_type@12@F@Z 1004bbc0 f i libucrtd:output.obj
 0001:0004abd0       ?get_parameter_type@?$positional_parameter_base@DV?$stream_output_adapter@D@__crt_stdio_output@@@__crt_stdio_output@@CA?AW4parameter_type@12@G@Z 1004bbd0 f i libucrtd:output.obj
 0001:0004abe0       ?get_parameter_type@?$positional_parameter_base@DV?$stream_output_adapter@D@__crt_stdio_output@@@__crt_stdio_output@@CA?AW4parameter_type@12@H@Z 1004bbe0 f i libucrtd:output.obj
 0001:0004abf0       ?get_parameter_type@?$positional_parameter_base@DV?$stream_output_adapter@D@__crt_stdio_output@@@__crt_stdio_output@@CA?AW4parameter_type@12@I@Z 1004bbf0 f i libucrtd:output.obj
 0001:0004ac00       ?get_parameter_type@?$positional_parameter_base@DV?$stream_output_adapter@D@__crt_stdio_output@@@__crt_stdio_output@@CA?AW4parameter_type@12@U_CRT_DOUBLE@@@Z 1004bc00 f i libucrtd:output.obj
 0001:0004ac10       ?get_parameter_type@?$positional_parameter_base@DV?$stream_output_adapter@D@__crt_stdio_output@@@__crt_stdio_output@@CA?AW4parameter_type@12@_J@Z 1004bc10 f i libucrtd:output.obj
 0001:0004ac20       ?get_parameter_type@?$positional_parameter_base@DV?$stream_output_adapter@D@__crt_stdio_output@@@__crt_stdio_output@@CA?AW4parameter_type@12@_K@Z 1004bc20 f i libucrtd:output.obj
 0001:0004ac30       ?get_parameter_type@?$positional_parameter_base@DV?$stream_output_adapter@D@__crt_stdio_output@@@__crt_stdio_output@@CA?AW4parameter_type@12@_W@Z 1004bc30 f i libucrtd:output.obj
 0001:0004ac40       ?get_parameter_type@?$positional_parameter_base@DV?$string_output_adapter@D@__crt_stdio_output@@@__crt_stdio_output@@CA?AW4parameter_type@12@F@Z 1004bc40 f i libucrtd:output.obj
 0001:0004ac50       ?get_parameter_type@?$positional_parameter_base@DV?$string_output_adapter@D@__crt_stdio_output@@@__crt_stdio_output@@CA?AW4parameter_type@12@G@Z 1004bc50 f i libucrtd:output.obj
 0001:0004ac60       ?get_parameter_type@?$positional_parameter_base@DV?$string_output_adapter@D@__crt_stdio_output@@@__crt_stdio_output@@CA?AW4parameter_type@12@H@Z 1004bc60 f i libucrtd:output.obj
 0001:0004ac70       ?get_parameter_type@?$positional_parameter_base@DV?$string_output_adapter@D@__crt_stdio_output@@@__crt_stdio_output@@CA?AW4parameter_type@12@I@Z 1004bc70 f i libucrtd:output.obj
 0001:0004ac80       ?get_parameter_type@?$positional_parameter_base@DV?$string_output_adapter@D@__crt_stdio_output@@@__crt_stdio_output@@CA?AW4parameter_type@12@U_CRT_DOUBLE@@@Z 1004bc80 f i libucrtd:output.obj
 0001:0004ac90       ?get_parameter_type@?$positional_parameter_base@DV?$string_output_adapter@D@__crt_stdio_output@@@__crt_stdio_output@@CA?AW4parameter_type@12@_J@Z 1004bc90 f i libucrtd:output.obj
 0001:0004aca0       ?get_parameter_type@?$positional_parameter_base@DV?$string_output_adapter@D@__crt_stdio_output@@@__crt_stdio_output@@CA?AW4parameter_type@12@_K@Z 1004bca0 f i libucrtd:output.obj
 0001:0004acb0       ?get_parameter_type@?$positional_parameter_base@DV?$string_output_adapter@D@__crt_stdio_output@@@__crt_stdio_output@@CA?AW4parameter_type@12@_W@Z 1004bcb0 f i libucrtd:output.obj
 0001:0004acc0       ?get_parameter_type@?$positional_parameter_base@_WV?$stream_output_adapter@_W@__crt_stdio_output@@@__crt_stdio_output@@CA?AW4parameter_type@12@F@Z 1004bcc0 f i libucrtd:output.obj
 0001:0004acd0       ?get_parameter_type@?$positional_parameter_base@_WV?$stream_output_adapter@_W@__crt_stdio_output@@@__crt_stdio_output@@CA?AW4parameter_type@12@G@Z 1004bcd0 f i libucrtd:output.obj
 0001:0004ace0       ?get_parameter_type@?$positional_parameter_base@_WV?$stream_output_adapter@_W@__crt_stdio_output@@@__crt_stdio_output@@CA?AW4parameter_type@12@H@Z 1004bce0 f i libucrtd:output.obj
 0001:0004acf0       ?get_parameter_type@?$positional_parameter_base@_WV?$stream_output_adapter@_W@__crt_stdio_output@@@__crt_stdio_output@@CA?AW4parameter_type@12@I@Z 1004bcf0 f i libucrtd:output.obj
 0001:0004ad00       ?get_parameter_type@?$positional_parameter_base@_WV?$stream_output_adapter@_W@__crt_stdio_output@@@__crt_stdio_output@@CA?AW4parameter_type@12@U_CRT_DOUBLE@@@Z 1004bd00 f i libucrtd:output.obj
 0001:0004ad10       ?get_parameter_type@?$positional_parameter_base@_WV?$stream_output_adapter@_W@__crt_stdio_output@@@__crt_stdio_output@@CA?AW4parameter_type@12@_J@Z 1004bd10 f i libucrtd:output.obj
 0001:0004ad20       ?get_parameter_type@?$positional_parameter_base@_WV?$stream_output_adapter@_W@__crt_stdio_output@@@__crt_stdio_output@@CA?AW4parameter_type@12@_K@Z 1004bd20 f i libucrtd:output.obj
 0001:0004ad30       ?get_parameter_type@?$positional_parameter_base@_WV?$stream_output_adapter@_W@__crt_stdio_output@@@__crt_stdio_output@@CA?AW4parameter_type@12@_W@Z 1004bd30 f i libucrtd:output.obj
 0001:0004ad40       ?get_parameter_type@?$positional_parameter_base@_WV?$string_output_adapter@_W@__crt_stdio_output@@@__crt_stdio_output@@CA?AW4parameter_type@12@F@Z 1004bd40 f i libucrtd:output.obj
 0001:0004ad50       ?get_parameter_type@?$positional_parameter_base@_WV?$string_output_adapter@_W@__crt_stdio_output@@@__crt_stdio_output@@CA?AW4parameter_type@12@G@Z 1004bd50 f i libucrtd:output.obj
 0001:0004ad60       ?get_parameter_type@?$positional_parameter_base@_WV?$string_output_adapter@_W@__crt_stdio_output@@@__crt_stdio_output@@CA?AW4parameter_type@12@H@Z 1004bd60 f i libucrtd:output.obj
 0001:0004ad70       ?get_parameter_type@?$positional_parameter_base@_WV?$string_output_adapter@_W@__crt_stdio_output@@@__crt_stdio_output@@CA?AW4parameter_type@12@I@Z 1004bd70 f i libucrtd:output.obj
 0001:0004ad80       ?get_parameter_type@?$positional_parameter_base@_WV?$string_output_adapter@_W@__crt_stdio_output@@@__crt_stdio_output@@CA?AW4parameter_type@12@U_CRT_DOUBLE@@@Z 1004bd80 f i libucrtd:output.obj
 0001:0004ad90       ?get_parameter_type@?$positional_parameter_base@_WV?$string_output_adapter@_W@__crt_stdio_output@@@__crt_stdio_output@@CA?AW4parameter_type@12@_J@Z 1004bd90 f i libucrtd:output.obj
 0001:0004ada0       ?get_parameter_type@?$positional_parameter_base@_WV?$string_output_adapter@_W@__crt_stdio_output@@@__crt_stdio_output@@CA?AW4parameter_type@12@_K@Z 1004bda0 f i libucrtd:output.obj
 0001:0004adb0       ?get_parameter_type@?$positional_parameter_base@_WV?$string_output_adapter@_W@__crt_stdio_output@@@__crt_stdio_output@@CA?AW4parameter_type@12@_W@Z 1004bdb0 f i libucrtd:output.obj
 0001:0004adc0       ?has_flag@?$output_processor@DV?$stream_output_adapter@D@__crt_stdio_output@@V?$format_validation_base@DV?$stream_output_adapter@D@__crt_stdio_output@@@2@@__crt_stdio_output@@ABE_NI@Z 1004bdc0 f i libucrtd:output.obj
 0001:0004adf0       ?has_flag@?$output_processor@DV?$stream_output_adapter@D@__crt_stdio_output@@V?$positional_parameter_base@DV?$stream_output_adapter@D@__crt_stdio_output@@@2@@__crt_stdio_output@@ABE_NI@Z 1004bdf0 f i libucrtd:output.obj
 0001:0004ae20       ?has_flag@?$output_processor@DV?$stream_output_adapter@D@__crt_stdio_output@@V?$standard_base@DV?$stream_output_adapter@D@__crt_stdio_output@@@2@@__crt_stdio_output@@ABE_NI@Z 1004be20 f i libucrtd:output.obj
 0001:0004ae50       ?has_flag@?$output_processor@DV?$string_output_adapter@D@__crt_stdio_output@@V?$format_validation_base@DV?$string_output_adapter@D@__crt_stdio_output@@@2@@__crt_stdio_output@@ABE_NI@Z 1004be50 f i libucrtd:output.obj
 0001:0004ae80       ?has_flag@?$output_processor@DV?$string_output_adapter@D@__crt_stdio_output@@V?$positional_parameter_base@DV?$string_output_adapter@D@__crt_stdio_output@@@2@@__crt_stdio_output@@ABE_NI@Z 1004be80 f i libucrtd:output.obj
 0001:0004aeb0       ?has_flag@?$output_processor@DV?$string_output_adapter@D@__crt_stdio_output@@V?$standard_base@DV?$string_output_adapter@D@__crt_stdio_output@@@2@@__crt_stdio_output@@ABE_NI@Z 1004beb0 f i libucrtd:output.obj
 0001:0004aee0       ?has_flag@?$output_processor@_WV?$stream_output_adapter@_W@__crt_stdio_output@@V?$format_validation_base@_WV?$stream_output_adapter@_W@__crt_stdio_output@@@2@@__crt_stdio_output@@ABE_NI@Z 1004bee0 f i libucrtd:output.obj
 0001:0004af10       ?has_flag@?$output_processor@_WV?$stream_output_adapter@_W@__crt_stdio_output@@V?$positional_parameter_base@_WV?$stream_output_adapter@_W@__crt_stdio_output@@@2@@__crt_stdio_output@@ABE_NI@Z 1004bf10 f i libucrtd:output.obj
 0001:0004af40       ?has_flag@?$output_processor@_WV?$stream_output_adapter@_W@__crt_stdio_output@@V?$standard_base@_WV?$stream_output_adapter@_W@__crt_stdio_output@@@2@@__crt_stdio_output@@ABE_NI@Z 1004bf40 f i libucrtd:output.obj
 0001:0004af70       ?has_flag@?$output_processor@_WV?$string_output_adapter@_W@__crt_stdio_output@@V?$format_validation_base@_WV?$string_output_adapter@_W@__crt_stdio_output@@@2@@__crt_stdio_output@@ABE_NI@Z 1004bf70 f i libucrtd:output.obj
 0001:0004afa0       ?has_flag@?$output_processor@_WV?$string_output_adapter@_W@__crt_stdio_output@@V?$positional_parameter_base@_WV?$string_output_adapter@_W@__crt_stdio_output@@@2@@__crt_stdio_output@@ABE_NI@Z 1004bfa0 f i libucrtd:output.obj
 0001:0004afd0       ?has_flag@?$output_processor@_WV?$string_output_adapter@_W@__crt_stdio_output@@V?$standard_base@_WV?$string_output_adapter@_W@__crt_stdio_output@@@2@@__crt_stdio_output@@ABE_NI@Z 1004bfd0 f i libucrtd:output.obj
 0001:0004b000       ?is_positional_parameter_reappearance_consistent@?$positional_parameter_base@DV?$stream_output_adapter@D@__crt_stdio_output@@@__crt_stdio_output@@AAE_NABUparameter_data@12@W4parameter_type@12@DW4length_modifier@2@@Z 1004c000 f i libucrtd:output.obj
 0001:0004b230       ?is_positional_parameter_reappearance_consistent@?$positional_parameter_base@DV?$string_output_adapter@D@__crt_stdio_output@@@__crt_stdio_output@@AAE_NABUparameter_data@12@W4parameter_type@12@DW4length_modifier@2@@Z 1004c230 f i libucrtd:output.obj
 0001:0004b460       ?is_positional_parameter_reappearance_consistent@?$positional_parameter_base@_WV?$stream_output_adapter@_W@__crt_stdio_output@@@__crt_stdio_output@@AAE_NABUparameter_data@12@W4parameter_type@12@_WW4length_modifier@2@@Z 1004c460 f i libucrtd:output.obj
 0001:0004b690       ?is_positional_parameter_reappearance_consistent@?$positional_parameter_base@_WV?$string_output_adapter@_W@__crt_stdio_output@@@__crt_stdio_output@@AAE_NABUparameter_data@12@W4parameter_type@12@_WW4length_modifier@2@@Z 1004c690 f i libucrtd:output.obj
 0001:0004b8c0       ?is_string_backed@__crt_stdio_stream@@QBE_NXZ 1004c8c0 f i libucrtd:output.obj
 0001:0004b900       ?narrow_null_string@?$output_processor@DV?$stream_output_adapter@D@__crt_stdio_output@@V?$format_validation_base@DV?$stream_output_adapter@D@__crt_stdio_output@@@2@@__crt_stdio_output@@CAPADXZ 1004c900 f i libucrtd:output.obj
 0001:0004b910       ?narrow_null_string@?$output_processor@DV?$stream_output_adapter@D@__crt_stdio_output@@V?$positional_parameter_base@DV?$stream_output_adapter@D@__crt_stdio_output@@@2@@__crt_stdio_output@@CAPADXZ 1004c910 f i libucrtd:output.obj
 0001:0004b920       ?narrow_null_string@?$output_processor@DV?$stream_output_adapter@D@__crt_stdio_output@@V?$standard_base@DV?$stream_output_adapter@D@__crt_stdio_output@@@2@@__crt_stdio_output@@CAPADXZ 1004c920 f i libucrtd:output.obj
 0001:0004b930       ?narrow_null_string@?$output_processor@DV?$string_output_adapter@D@__crt_stdio_output@@V?$format_validation_base@DV?$string_output_adapter@D@__crt_stdio_output@@@2@@__crt_stdio_output@@CAPADXZ 1004c930 f i libucrtd:output.obj
 0001:0004b940       ?narrow_null_string@?$output_processor@DV?$string_output_adapter@D@__crt_stdio_output@@V?$positional_parameter_base@DV?$string_output_adapter@D@__crt_stdio_output@@@2@@__crt_stdio_output@@CAPADXZ 1004c940 f i libucrtd:output.obj
 0001:0004b950       ?narrow_null_string@?$output_processor@DV?$string_output_adapter@D@__crt_stdio_output@@V?$standard_base@DV?$string_output_adapter@D@__crt_stdio_output@@@2@@__crt_stdio_output@@CAPADXZ 1004c950 f i libucrtd:output.obj
 0001:0004b960       ?narrow_null_string@?$output_processor@_WV?$stream_output_adapter@_W@__crt_stdio_output@@V?$format_validation_base@_WV?$stream_output_adapter@_W@__crt_stdio_output@@@2@@__crt_stdio_output@@CAPADXZ 1004c960 f i libucrtd:output.obj
 0001:0004b970       ?narrow_null_string@?$output_processor@_WV?$stream_output_adapter@_W@__crt_stdio_output@@V?$positional_parameter_base@_WV?$stream_output_adapter@_W@__crt_stdio_output@@@2@@__crt_stdio_output@@CAPADXZ 1004c970 f i libucrtd:output.obj
 0001:0004b980       ?narrow_null_string@?$output_processor@_WV?$stream_output_adapter@_W@__crt_stdio_output@@V?$standard_base@_WV?$stream_output_adapter@_W@__crt_stdio_output@@@2@@__crt_stdio_output@@CAPADXZ 1004c980 f i libucrtd:output.obj
 0001:0004b990       ?narrow_null_string@?$output_processor@_WV?$string_output_adapter@_W@__crt_stdio_output@@V?$format_validation_base@_WV?$string_output_adapter@_W@__crt_stdio_output@@@2@@__crt_stdio_output@@CAPADXZ 1004c990 f i libucrtd:output.obj
 0001:0004b9a0       ?narrow_null_string@?$output_processor@_WV?$string_output_adapter@_W@__crt_stdio_output@@V?$positional_parameter_base@_WV?$string_output_adapter@_W@__crt_stdio_output@@@2@@__crt_stdio_output@@CAPADXZ 1004c9a0 f i libucrtd:output.obj
 0001:0004b9b0       ?narrow_null_string@?$output_processor@_WV?$string_output_adapter@_W@__crt_stdio_output@@V?$standard_base@_WV?$string_output_adapter@_W@__crt_stdio_output@@@2@@__crt_stdio_output@@CAPADXZ 1004c9b0 f i libucrtd:output.obj
 0001:0004b9c0       ?parse_int_from_format_string@?$output_processor@DV?$stream_output_adapter@D@__crt_stdio_output@@V?$format_validation_base@DV?$stream_output_adapter@D@__crt_stdio_output@@@2@@__crt_stdio_output@@AAE_NQAH@Z 1004c9c0 f i libucrtd:output.obj
 0001:0004ba80       ?parse_int_from_format_string@?$output_processor@DV?$stream_output_adapter@D@__crt_stdio_output@@V?$positional_parameter_base@DV?$stream_output_adapter@D@__crt_stdio_output@@@2@@__crt_stdio_output@@AAE_NQAH@Z 1004ca80 f i libucrtd:output.obj
 0001:0004bb40       ?parse_int_from_format_string@?$output_processor@DV?$stream_output_adapter@D@__crt_stdio_output@@V?$standard_base@DV?$stream_output_adapter@D@__crt_stdio_output@@@2@@__crt_stdio_output@@AAE_NQAH@Z 1004cb40 f i libucrtd:output.obj
 0001:0004bc00       ?parse_int_from_format_string@?$output_processor@DV?$string_output_adapter@D@__crt_stdio_output@@V?$format_validation_base@DV?$string_output_adapter@D@__crt_stdio_output@@@2@@__crt_stdio_output@@AAE_NQAH@Z 1004cc00 f i libucrtd:output.obj
 0001:0004bcc0       ?parse_int_from_format_string@?$output_processor@DV?$string_output_adapter@D@__crt_stdio_output@@V?$positional_parameter_base@DV?$string_output_adapter@D@__crt_stdio_output@@@2@@__crt_stdio_output@@AAE_NQAH@Z 1004ccc0 f i libucrtd:output.obj
 0001:0004bd80       ?parse_int_from_format_string@?$output_processor@DV?$string_output_adapter@D@__crt_stdio_output@@V?$standard_base@DV?$string_output_adapter@D@__crt_stdio_output@@@2@@__crt_stdio_output@@AAE_NQAH@Z 1004cd80 f i libucrtd:output.obj
 0001:0004be40       ?parse_int_from_format_string@?$output_processor@_WV?$stream_output_adapter@_W@__crt_stdio_output@@V?$format_validation_base@_WV?$stream_output_adapter@_W@__crt_stdio_output@@@2@@__crt_stdio_output@@AAE_NQAH@Z 1004ce40 f i libucrtd:output.obj
 0001:0004bf00       ?parse_int_from_format_string@?$output_processor@_WV?$stream_output_adapter@_W@__crt_stdio_output@@V?$positional_parameter_base@_WV?$stream_output_adapter@_W@__crt_stdio_output@@@2@@__crt_stdio_output@@AAE_NQAH@Z 1004cf00 f i libucrtd:output.obj
 0001:0004bfc0       ?parse_int_from_format_string@?$output_processor@_WV?$stream_output_adapter@_W@__crt_stdio_output@@V?$standard_base@_WV?$stream_output_adapter@_W@__crt_stdio_output@@@2@@__crt_stdio_output@@AAE_NQAH@Z 1004cfc0 f i libucrtd:output.obj
 0001:0004c080       ?parse_int_from_format_string@?$output_processor@_WV?$string_output_adapter@_W@__crt_stdio_output@@V?$format_validation_base@_WV?$string_output_adapter@_W@__crt_stdio_output@@@2@@__crt_stdio_output@@AAE_NQAH@Z 1004d080 f i libucrtd:output.obj
 0001:0004c140       ?parse_int_from_format_string@?$output_processor@_WV?$string_output_adapter@_W@__crt_stdio_output@@V?$positional_parameter_base@_WV?$string_output_adapter@_W@__crt_stdio_output@@@2@@__crt_stdio_output@@AAE_NQAH@Z 1004d140 f i libucrtd:output.obj
 0001:0004c200       ?parse_int_from_format_string@?$output_processor@_WV?$string_output_adapter@_W@__crt_stdio_output@@V?$standard_base@_WV?$string_output_adapter@_W@__crt_stdio_output@@@2@@__crt_stdio_output@@AAE_NQAH@Z 1004d200 f i libucrtd:output.obj
 0001:0004c2c0       ?process@?$output_processor@DV?$stream_output_adapter@D@__crt_stdio_output@@V?$format_validation_base@DV?$stream_output_adapter@D@__crt_stdio_output@@@2@@__crt_stdio_output@@QAEHXZ 1004d2c0 f i libucrtd:output.obj
 0001:0004c570       ?process@?$output_processor@DV?$stream_output_adapter@D@__crt_stdio_output@@V?$positional_parameter_base@DV?$stream_output_adapter@D@__crt_stdio_output@@@2@@__crt_stdio_output@@QAEHXZ 1004d570 f i libucrtd:output.obj
 0001:0004c820       ?process@?$output_processor@DV?$stream_output_adapter@D@__crt_stdio_output@@V?$standard_base@DV?$stream_output_adapter@D@__crt_stdio_output@@@2@@__crt_stdio_output@@QAEHXZ 1004d820 f i libucrtd:output.obj
 0001:0004cad0       ?process@?$output_processor@DV?$string_output_adapter@D@__crt_stdio_output@@V?$format_validation_base@DV?$string_output_adapter@D@__crt_stdio_output@@@2@@__crt_stdio_output@@QAEHXZ 1004dad0 f i libucrtd:output.obj
 0001:0004cd80       ?process@?$output_processor@DV?$string_output_adapter@D@__crt_stdio_output@@V?$positional_parameter_base@DV?$string_output_adapter@D@__crt_stdio_output@@@2@@__crt_stdio_output@@QAEHXZ 1004dd80 f i libucrtd:output.obj
 0001:0004d030       ?process@?$output_processor@DV?$string_output_adapter@D@__crt_stdio_output@@V?$standard_base@DV?$string_output_adapter@D@__crt_stdio_output@@@2@@__crt_stdio_output@@QAEHXZ 1004e030 f i libucrtd:output.obj
 0001:0004d2e0       ?process@?$output_processor@_WV?$stream_output_adapter@_W@__crt_stdio_output@@V?$format_validation_base@_WV?$stream_output_adapter@_W@__crt_stdio_output@@@2@@__crt_stdio_output@@QAEHXZ 1004e2e0 f i libucrtd:output.obj
 0001:0004d590       ?process@?$output_processor@_WV?$stream_output_adapter@_W@__crt_stdio_output@@V?$positional_parameter_base@_WV?$stream_output_adapter@_W@__crt_stdio_output@@@2@@__crt_stdio_output@@QAEHXZ 1004e590 f i libucrtd:output.obj
 0001:0004d840       ?process@?$output_processor@_WV?$stream_output_adapter@_W@__crt_stdio_output@@V?$standard_base@_WV?$stream_output_adapter@_W@__crt_stdio_output@@@2@@__crt_stdio_output@@QAEHXZ 1004e840 f i libucrtd:output.obj
 0001:0004daf0       ?process@?$output_processor@_WV?$string_output_adapter@_W@__crt_stdio_output@@V?$format_validation_base@_WV?$string_output_adapter@_W@__crt_stdio_output@@@2@@__crt_stdio_output@@QAEHXZ 1004eaf0 f i libucrtd:output.obj
 0001:0004dda0       ?process@?$output_processor@_WV?$string_output_adapter@_W@__crt_stdio_output@@V?$positional_parameter_base@_WV?$string_output_adapter@_W@__crt_stdio_output@@@2@@__crt_stdio_output@@QAEHXZ 1004eda0 f i libucrtd:output.obj
 0001:0004e050       ?process@?$output_processor@_WV?$string_output_adapter@_W@__crt_stdio_output@@V?$standard_base@_WV?$string_output_adapter@_W@__crt_stdio_output@@@2@@__crt_stdio_output@@QAEHXZ 1004f050 f i libucrtd:output.obj
 0001:0004e300       ?public_stream@__crt_stdio_stream@@QBEPAU_iobuf@@XZ 1004f300 f i libucrtd:output.obj
 0001:0004e320       ?set_flag@?$output_processor@DV?$stream_output_adapter@D@__crt_stdio_output@@V?$format_validation_base@DV?$stream_output_adapter@D@__crt_stdio_output@@@2@@__crt_stdio_output@@AAEXI@Z 1004f320 f i libucrtd:output.obj
 0001:0004e340       ?set_flag@?$output_processor@DV?$stream_output_adapter@D@__crt_stdio_output@@V?$positional_parameter_base@DV?$stream_output_adapter@D@__crt_stdio_output@@@2@@__crt_stdio_output@@AAEXI@Z 1004f340 f i libucrtd:output.obj
 0001:0004e360       ?set_flag@?$output_processor@DV?$stream_output_adapter@D@__crt_stdio_output@@V?$standard_base@DV?$stream_output_adapter@D@__crt_stdio_output@@@2@@__crt_stdio_output@@AAEXI@Z 1004f360 f i libucrtd:output.obj
 0001:0004e380       ?set_flag@?$output_processor@DV?$string_output_adapter@D@__crt_stdio_output@@V?$format_validation_base@DV?$string_output_adapter@D@__crt_stdio_output@@@2@@__crt_stdio_output@@AAEXI@Z 1004f380 f i libucrtd:output.obj
 0001:0004e3a0       ?set_flag@?$output_processor@DV?$string_output_adapter@D@__crt_stdio_output@@V?$positional_parameter_base@DV?$string_output_adapter@D@__crt_stdio_output@@@2@@__crt_stdio_output@@AAEXI@Z 1004f3a0 f i libucrtd:output.obj
 0001:0004e3c0       ?set_flag@?$output_processor@DV?$string_output_adapter@D@__crt_stdio_output@@V?$standard_base@DV?$string_output_adapter@D@__crt_stdio_output@@@2@@__crt_stdio_output@@AAEXI@Z 1004f3c0 f i libucrtd:output.obj
 0001:0004e3e0       ?set_flag@?$output_processor@_WV?$stream_output_adapter@_W@__crt_stdio_output@@V?$format_validation_base@_WV?$stream_output_adapter@_W@__crt_stdio_output@@@2@@__crt_stdio_output@@AAEXI@Z 1004f3e0 f i libucrtd:output.obj
 0001:0004e400       ?set_flag@?$output_processor@_WV?$stream_output_adapter@_W@__crt_stdio_output@@V?$positional_parameter_base@_WV?$stream_output_adapter@_W@__crt_stdio_output@@@2@@__crt_stdio_output@@AAEXI@Z 1004f400 f i libucrtd:output.obj
 0001:0004e420       ?set_flag@?$output_processor@_WV?$stream_output_adapter@_W@__crt_stdio_output@@V?$standard_base@_WV?$stream_output_adapter@_W@__crt_stdio_output@@@2@@__crt_stdio_output@@AAEXI@Z 1004f420 f i libucrtd:output.obj
 0001:0004e440       ?set_flag@?$output_processor@_WV?$string_output_adapter@_W@__crt_stdio_output@@V?$format_validation_base@_WV?$string_output_adapter@_W@__crt_stdio_output@@@2@@__crt_stdio_output@@AAEXI@Z 1004f440 f i libucrtd:output.obj
 0001:0004e460       ?set_flag@?$output_processor@_WV?$string_output_adapter@_W@__crt_stdio_output@@V?$positional_parameter_base@_WV?$string_output_adapter@_W@__crt_stdio_output@@@2@@__crt_stdio_output@@AAEXI@Z 1004f460 f i libucrtd:output.obj
 0001:0004e480       ?set_flag@?$output_processor@_WV?$string_output_adapter@_W@__crt_stdio_output@@V?$standard_base@_WV?$string_output_adapter@_W@__crt_stdio_output@@@2@@__crt_stdio_output@@AAEXI@Z 1004f480 f i libucrtd:output.obj
 0001:0004e4a0       ?should_format@?$positional_parameter_base@DV?$stream_output_adapter@D@__crt_stdio_output@@@__crt_stdio_output@@IAE_NXZ 1004f4a0 f i libucrtd:output.obj
 0001:0004e4e0       ?should_format@?$positional_parameter_base@DV?$string_output_adapter@D@__crt_stdio_output@@@__crt_stdio_output@@IAE_NXZ 1004f4e0 f i libucrtd:output.obj
 0001:0004e520       ?should_format@?$positional_parameter_base@_WV?$stream_output_adapter@_W@__crt_stdio_output@@@__crt_stdio_output@@IAE_NXZ 1004f520 f i libucrtd:output.obj
 0001:0004e560       ?should_format@?$positional_parameter_base@_WV?$string_output_adapter@_W@__crt_stdio_output@@@__crt_stdio_output@@IAE_NXZ 1004f560 f i libucrtd:output.obj
 0001:0004e5a0       ?should_format@?$standard_base@DV?$stream_output_adapter@D@__crt_stdio_output@@@__crt_stdio_output@@IAE_NXZ 1004f5a0 f i libucrtd:output.obj
 0001:0004e5b0       ?should_format@?$standard_base@DV?$string_output_adapter@D@__crt_stdio_output@@@__crt_stdio_output@@IAE_NXZ 1004f5b0 f i libucrtd:output.obj
 0001:0004e5c0       ?should_format@?$standard_base@_WV?$stream_output_adapter@_W@__crt_stdio_output@@@__crt_stdio_output@@IAE_NXZ 1004f5c0 f i libucrtd:output.obj
 0001:0004e5d0       ?should_format@?$standard_base@_WV?$string_output_adapter@_W@__crt_stdio_output@@@__crt_stdio_output@@IAE_NXZ 1004f5d0 f i libucrtd:output.obj
 0001:0004e5e0       ?should_skip_normal_state_processing@?$positional_parameter_base@DV?$stream_output_adapter@D@__crt_stdio_output@@@__crt_stdio_output@@IAE_NXZ 1004f5e0 f i libucrtd:output.obj
 0001:0004e630       ?should_skip_normal_state_processing@?$positional_parameter_base@DV?$string_output_adapter@D@__crt_stdio_output@@@__crt_stdio_output@@IAE_NXZ 1004f630 f i libucrtd:output.obj
 0001:0004e680       ?should_skip_normal_state_processing@?$positional_parameter_base@_WV?$stream_output_adapter@_W@__crt_stdio_output@@@__crt_stdio_output@@IAE_NXZ 1004f680 f i libucrtd:output.obj
 0001:0004e6d0       ?should_skip_normal_state_processing@?$positional_parameter_base@_WV?$string_output_adapter@_W@__crt_stdio_output@@@__crt_stdio_output@@IAE_NXZ 1004f6d0 f i libucrtd:output.obj
 0001:0004e720       ?should_skip_normal_state_processing@?$standard_base@DV?$stream_output_adapter@D@__crt_stdio_output@@@__crt_stdio_output@@IAE_NXZ 1004f720 f i libucrtd:output.obj
 0001:0004e730       ?should_skip_normal_state_processing@?$standard_base@DV?$string_output_adapter@D@__crt_stdio_output@@@__crt_stdio_output@@IAE_NXZ 1004f730 f i libucrtd:output.obj
 0001:0004e740       ?should_skip_normal_state_processing@?$standard_base@_WV?$stream_output_adapter@_W@__crt_stdio_output@@@__crt_stdio_output@@IAE_NXZ 1004f740 f i libucrtd:output.obj
 0001:0004e750       ?should_skip_normal_state_processing@?$standard_base@_WV?$string_output_adapter@_W@__crt_stdio_output@@@__crt_stdio_output@@IAE_NXZ 1004f750 f i libucrtd:output.obj
 0001:0004e760       ?should_skip_type_state_output@?$positional_parameter_base@DV?$stream_output_adapter@D@__crt_stdio_output@@@__crt_stdio_output@@IBE_NXZ 1004f760 f i libucrtd:output.obj
 0001:0004e7a0       ?should_skip_type_state_output@?$positional_parameter_base@DV?$string_output_adapter@D@__crt_stdio_output@@@__crt_stdio_output@@IBE_NXZ 1004f7a0 f i libucrtd:output.obj
 0001:0004e7e0       ?should_skip_type_state_output@?$positional_parameter_base@_WV?$stream_output_adapter@_W@__crt_stdio_output@@@__crt_stdio_output@@IBE_NXZ 1004f7e0 f i libucrtd:output.obj
 0001:0004e820       ?should_skip_type_state_output@?$positional_parameter_base@_WV?$string_output_adapter@_W@__crt_stdio_output@@@__crt_stdio_output@@IBE_NXZ 1004f820 f i libucrtd:output.obj
 0001:0004e860       ?should_skip_type_state_output@?$standard_base@DV?$stream_output_adapter@D@__crt_stdio_output@@@__crt_stdio_output@@IBE_NXZ 1004f860 f i libucrtd:output.obj
 0001:0004e870       ?should_skip_type_state_output@?$standard_base@DV?$string_output_adapter@D@__crt_stdio_output@@@__crt_stdio_output@@IBE_NXZ 1004f870 f i libucrtd:output.obj
 0001:0004e880       ?should_skip_type_state_output@?$standard_base@_WV?$stream_output_adapter@_W@__crt_stdio_output@@@__crt_stdio_output@@IBE_NXZ 1004f880 f i libucrtd:output.obj
 0001:0004e890       ?should_skip_type_state_output@?$standard_base@_WV?$string_output_adapter@_W@__crt_stdio_output@@@__crt_stdio_output@@IBE_NXZ 1004f890 f i libucrtd:output.obj
 0001:0004e8a0       ?state_case_dot@?$output_processor@DV?$stream_output_adapter@D@__crt_stdio_output@@V?$format_validation_base@DV?$stream_output_adapter@D@__crt_stdio_output@@@2@@__crt_stdio_output@@AAE_NXZ 1004f8a0 f i libucrtd:output.obj
 0001:0004e8c0       ?state_case_dot@?$output_processor@DV?$stream_output_adapter@D@__crt_stdio_output@@V?$positional_parameter_base@DV?$stream_output_adapter@D@__crt_stdio_output@@@2@@__crt_stdio_output@@AAE_NXZ 1004f8c0 f i libucrtd:output.obj
 0001:0004e8e0       ?state_case_dot@?$output_processor@DV?$stream_output_adapter@D@__crt_stdio_output@@V?$standard_base@DV?$stream_output_adapter@D@__crt_stdio_output@@@2@@__crt_stdio_output@@AAE_NXZ 1004f8e0 f i libucrtd:output.obj
 0001:0004e900       ?state_case_dot@?$output_processor@DV?$string_output_adapter@D@__crt_stdio_output@@V?$format_validation_base@DV?$string_output_adapter@D@__crt_stdio_output@@@2@@__crt_stdio_output@@AAE_NXZ 1004f900 f i libucrtd:output.obj
 0001:0004e920       ?state_case_dot@?$output_processor@DV?$string_output_adapter@D@__crt_stdio_output@@V?$positional_parameter_base@DV?$string_output_adapter@D@__crt_stdio_output@@@2@@__crt_stdio_output@@AAE_NXZ 1004f920 f i libucrtd:output.obj
 0001:0004e940       ?state_case_dot@?$output_processor@DV?$string_output_adapter@D@__crt_stdio_output@@V?$standard_base@DV?$string_output_adapter@D@__crt_stdio_output@@@2@@__crt_stdio_output@@AAE_NXZ 1004f940 f i libucrtd:output.obj
 0001:0004e960       ?state_case_dot@?$output_processor@_WV?$stream_output_adapter@_W@__crt_stdio_output@@V?$format_validation_base@_WV?$stream_output_adapter@_W@__crt_stdio_output@@@2@@__crt_stdio_output@@AAE_NXZ 1004f960 f i libucrtd:output.obj
 0001:0004e980       ?state_case_dot@?$output_processor@_WV?$stream_output_adapter@_W@__crt_stdio_output@@V?$positional_parameter_base@_WV?$stream_output_adapter@_W@__crt_stdio_output@@@2@@__crt_stdio_output@@AAE_NXZ 1004f980 f i libucrtd:output.obj
 0001:0004e9a0       ?state_case_dot@?$output_processor@_WV?$stream_output_adapter@_W@__crt_stdio_output@@V?$standard_base@_WV?$stream_output_adapter@_W@__crt_stdio_output@@@2@@__crt_stdio_output@@AAE_NXZ 1004f9a0 f i libucrtd:output.obj
 0001:0004e9c0       ?state_case_dot@?$output_processor@_WV?$string_output_adapter@_W@__crt_stdio_output@@V?$format_validation_base@_WV?$string_output_adapter@_W@__crt_stdio_output@@@2@@__crt_stdio_output@@AAE_NXZ 1004f9c0 f i libucrtd:output.obj
 0001:0004e9e0       ?state_case_dot@?$output_processor@_WV?$string_output_adapter@_W@__crt_stdio_output@@V?$positional_parameter_base@_WV?$string_output_adapter@_W@__crt_stdio_output@@@2@@__crt_stdio_output@@AAE_NXZ 1004f9e0 f i libucrtd:output.obj
 0001:0004ea00       ?state_case_dot@?$output_processor@_WV?$string_output_adapter@_W@__crt_stdio_output@@V?$standard_base@_WV?$string_output_adapter@_W@__crt_stdio_output@@@2@@__crt_stdio_output@@AAE_NXZ 1004fa00 f i libucrtd:output.obj
 0001:0004ea20       ?state_case_flag@?$output_processor@DV?$stream_output_adapter@D@__crt_stdio_output@@V?$format_validation_base@DV?$stream_output_adapter@D@__crt_stdio_output@@@2@@__crt_stdio_output@@AAE_NXZ 1004fa20 f i libucrtd:output.obj
 0001:0004ead0       ?state_case_flag@?$output_processor@DV?$stream_output_adapter@D@__crt_stdio_output@@V?$positional_parameter_base@DV?$stream_output_adapter@D@__crt_stdio_output@@@2@@__crt_stdio_output@@AAE_NXZ 1004fad0 f i libucrtd:output.obj
 0001:0004eb80       ?state_case_flag@?$output_processor@DV?$stream_output_adapter@D@__crt_stdio_output@@V?$standard_base@DV?$stream_output_adapter@D@__crt_stdio_output@@@2@@__crt_stdio_output@@AAE_NXZ 1004fb80 f i libucrtd:output.obj
 0001:0004ec30       ?state_case_flag@?$output_processor@DV?$string_output_adapter@D@__crt_stdio_output@@V?$format_validation_base@DV?$string_output_adapter@D@__crt_stdio_output@@@2@@__crt_stdio_output@@AAE_NXZ 1004fc30 f i libucrtd:output.obj
 0001:0004ece0       ?state_case_flag@?$output_processor@DV?$string_output_adapter@D@__crt_stdio_output@@V?$positional_parameter_base@DV?$string_output_adapter@D@__crt_stdio_output@@@2@@__crt_stdio_output@@AAE_NXZ 1004fce0 f i libucrtd:output.obj
 0001:0004ed90       ?state_case_flag@?$output_processor@DV?$string_output_adapter@D@__crt_stdio_output@@V?$standard_base@DV?$string_output_adapter@D@__crt_stdio_output@@@2@@__crt_stdio_output@@AAE_NXZ 1004fd90 f i libucrtd:output.obj
 0001:0004ee40       ?state_case_flag@?$output_processor@_WV?$stream_output_adapter@_W@__crt_stdio_output@@V?$format_validation_base@_WV?$stream_output_adapter@_W@__crt_stdio_output@@@2@@__crt_stdio_output@@AAE_NXZ 1004fe40 f i libucrtd:output.obj
 0001:0004eef0       ?state_case_flag@?$output_processor@_WV?$stream_output_adapter@_W@__crt_stdio_output@@V?$positional_parameter_base@_WV?$stream_output_adapter@_W@__crt_stdio_output@@@2@@__crt_stdio_output@@AAE_NXZ 1004fef0 f i libucrtd:output.obj
 0001:0004efa0       ?state_case_flag@?$output_processor@_WV?$stream_output_adapter@_W@__crt_stdio_output@@V?$standard_base@_WV?$stream_output_adapter@_W@__crt_stdio_output@@@2@@__crt_stdio_output@@AAE_NXZ 1004ffa0 f i libucrtd:output.obj
 0001:0004f050       ?state_case_flag@?$output_processor@_WV?$string_output_adapter@_W@__crt_stdio_output@@V?$format_validation_base@_WV?$string_output_adapter@_W@__crt_stdio_output@@@2@@__crt_stdio_output@@AAE_NXZ 10050050 f i libucrtd:output.obj
 0001:0004f100       ?state_case_flag@?$output_processor@_WV?$string_output_adapter@_W@__crt_stdio_output@@V?$positional_parameter_base@_WV?$string_output_adapter@_W@__crt_stdio_output@@@2@@__crt_stdio_output@@AAE_NXZ 10050100 f i libucrtd:output.obj
 0001:0004f1b0       ?state_case_flag@?$output_processor@_WV?$string_output_adapter@_W@__crt_stdio_output@@V?$standard_base@_WV?$string_output_adapter@_W@__crt_stdio_output@@@2@@__crt_stdio_output@@AAE_NXZ 100501b0 f i libucrtd:output.obj
 0001:0004f260       ?state_case_normal@?$output_processor@DV?$stream_output_adapter@D@__crt_stdio_output@@V?$format_validation_base@DV?$stream_output_adapter@D@__crt_stdio_output@@@2@@__crt_stdio_output@@AAE_NXZ 10050260 f i libucrtd:output.obj
 0001:0004f310       ?state_case_normal@?$output_processor@DV?$stream_output_adapter@D@__crt_stdio_output@@V?$positional_parameter_base@DV?$stream_output_adapter@D@__crt_stdio_output@@@2@@__crt_stdio_output@@AAE_NXZ 10050310 f i libucrtd:output.obj
 0001:0004f3c0       ?state_case_normal@?$output_processor@DV?$stream_output_adapter@D@__crt_stdio_output@@V?$standard_base@DV?$stream_output_adapter@D@__crt_stdio_output@@@2@@__crt_stdio_output@@AAE_NXZ 100503c0 f i libucrtd:output.obj
 0001:0004f470       ?state_case_normal@?$output_processor@DV?$string_output_adapter@D@__crt_stdio_output@@V?$format_validation_base@DV?$string_output_adapter@D@__crt_stdio_output@@@2@@__crt_stdio_output@@AAE_NXZ 10050470 f i libucrtd:output.obj
 0001:0004f520       ?state_case_normal@?$output_processor@DV?$string_output_adapter@D@__crt_stdio_output@@V?$positional_parameter_base@DV?$string_output_adapter@D@__crt_stdio_output@@@2@@__crt_stdio_output@@AAE_NXZ 10050520 f i libucrtd:output.obj
 0001:0004f5d0       ?state_case_normal@?$output_processor@DV?$string_output_adapter@D@__crt_stdio_output@@V?$standard_base@DV?$string_output_adapter@D@__crt_stdio_output@@@2@@__crt_stdio_output@@AAE_NXZ 100505d0 f i libucrtd:output.obj
 0001:0004f680       ?state_case_normal@?$output_processor@_WV?$stream_output_adapter@_W@__crt_stdio_output@@V?$format_validation_base@_WV?$stream_output_adapter@_W@__crt_stdio_output@@@2@@__crt_stdio_output@@AAE_NXZ 10050680 f i libucrtd:output.obj
 0001:0004f730       ?state_case_normal@?$output_processor@_WV?$stream_output_adapter@_W@__crt_stdio_output@@V?$positional_parameter_base@_WV?$stream_output_adapter@_W@__crt_stdio_output@@@2@@__crt_stdio_output@@AAE_NXZ 10050730 f i libucrtd:output.obj
 0001:0004f7e0       ?state_case_normal@?$output_processor@_WV?$stream_output_adapter@_W@__crt_stdio_output@@V?$standard_base@_WV?$stream_output_adapter@_W@__crt_stdio_output@@@2@@__crt_stdio_output@@AAE_NXZ 100507e0 f i libucrtd:output.obj
 0001:0004f890       ?state_case_normal@?$output_processor@_WV?$string_output_adapter@_W@__crt_stdio_output@@V?$format_validation_base@_WV?$string_output_adapter@_W@__crt_stdio_output@@@2@@__crt_stdio_output@@AAE_NXZ 10050890 f i libucrtd:output.obj
 0001:0004f940       ?state_case_normal@?$output_processor@_WV?$string_output_adapter@_W@__crt_stdio_output@@V?$positional_parameter_base@_WV?$string_output_adapter@_W@__crt_stdio_output@@@2@@__crt_stdio_output@@AAE_NXZ 10050940 f i libucrtd:output.obj
 0001:0004f9f0       ?state_case_normal@?$output_processor@_WV?$string_output_adapter@_W@__crt_stdio_output@@V?$standard_base@_WV?$string_output_adapter@_W@__crt_stdio_output@@@2@@__crt_stdio_output@@AAE_NXZ 100509f0 f i libucrtd:output.obj
 0001:0004faa0       ?state_case_normal_common@?$output_processor@DV?$stream_output_adapter@D@__crt_stdio_output@@V?$format_validation_base@DV?$stream_output_adapter@D@__crt_stdio_output@@@2@@__crt_stdio_output@@AAE_NXZ 10050aa0 f i libucrtd:output.obj
 0001:0004faf0       ?state_case_normal_common@?$output_processor@DV?$stream_output_adapter@D@__crt_stdio_output@@V?$positional_parameter_base@DV?$stream_output_adapter@D@__crt_stdio_output@@@2@@__crt_stdio_output@@AAE_NXZ 10050af0 f i libucrtd:output.obj
 0001:0004fb40       ?state_case_normal_common@?$output_processor@DV?$stream_output_adapter@D@__crt_stdio_output@@V?$standard_base@DV?$stream_output_adapter@D@__crt_stdio_output@@@2@@__crt_stdio_output@@AAE_NXZ 10050b40 f i libucrtd:output.obj
 0001:0004fb90       ?state_case_normal_common@?$output_processor@DV?$string_output_adapter@D@__crt_stdio_output@@V?$format_validation_base@DV?$string_output_adapter@D@__crt_stdio_output@@@2@@__crt_stdio_output@@AAE_NXZ 10050b90 f i libucrtd:output.obj
 0001:0004fbe0       ?state_case_normal_common@?$output_processor@DV?$string_output_adapter@D@__crt_stdio_output@@V?$positional_parameter_base@DV?$string_output_adapter@D@__crt_stdio_output@@@2@@__crt_stdio_output@@AAE_NXZ 10050be0 f i libucrtd:output.obj
 0001:0004fc30       ?state_case_normal_common@?$output_processor@DV?$string_output_adapter@D@__crt_stdio_output@@V?$standard_base@DV?$string_output_adapter@D@__crt_stdio_output@@@2@@__crt_stdio_output@@AAE_NXZ 10050c30 f i libucrtd:output.obj
 0001:0004fc80       ?state_case_normal_common@?$output_processor@_WV?$stream_output_adapter@_W@__crt_stdio_output@@V?$format_validation_base@_WV?$stream_output_adapter@_W@__crt_stdio_output@@@2@@__crt_stdio_output@@AAE_NXZ 10050c80 f i libucrtd:output.obj
 0001:0004fcd0       ?state_case_normal_common@?$output_processor@_WV?$stream_output_adapter@_W@__crt_stdio_output@@V?$positional_parameter_base@_WV?$stream_output_adapter@_W@__crt_stdio_output@@@2@@__crt_stdio_output@@AAE_NXZ 10050cd0 f i libucrtd:output.obj
 0001:0004fd20       ?state_case_normal_common@?$output_processor@_WV?$stream_output_adapter@_W@__crt_stdio_output@@V?$standard_base@_WV?$stream_output_adapter@_W@__crt_stdio_output@@@2@@__crt_stdio_output@@AAE_NXZ 10050d20 f i libucrtd:output.obj
 0001:0004fd70       ?state_case_normal_common@?$output_processor@_WV?$string_output_adapter@_W@__crt_stdio_output@@V?$format_validation_base@_WV?$string_output_adapter@_W@__crt_stdio_output@@@2@@__crt_stdio_output@@AAE_NXZ 10050d70 f i libucrtd:output.obj
 0001:0004fdc0       ?state_case_normal_common@?$output_processor@_WV?$string_output_adapter@_W@__crt_stdio_output@@V?$positional_parameter_base@_WV?$string_output_adapter@_W@__crt_stdio_output@@@2@@__crt_stdio_output@@AAE_NXZ 10050dc0 f i libucrtd:output.obj
 0001:0004fe10       ?state_case_normal_common@?$output_processor@_WV?$string_output_adapter@_W@__crt_stdio_output@@V?$standard_base@_WV?$string_output_adapter@_W@__crt_stdio_output@@@2@@__crt_stdio_output@@AAE_NXZ 10050e10 f i libucrtd:output.obj
 0001:0004fe60       ?state_case_normal_tchar@?$output_processor@DV?$stream_output_adapter@D@__crt_stdio_output@@V?$format_validation_base@DV?$stream_output_adapter@D@__crt_stdio_output@@@2@@__crt_stdio_output@@AAE_ND@Z 10050e60 f i libucrtd:output.obj
 0001:0004ff60       ?state_case_normal_tchar@?$output_processor@DV?$stream_output_adapter@D@__crt_stdio_output@@V?$positional_parameter_base@DV?$stream_output_adapter@D@__crt_stdio_output@@@2@@__crt_stdio_output@@AAE_ND@Z 10050f60 f i libucrtd:output.obj
 0001:00050060       ?state_case_normal_tchar@?$output_processor@DV?$stream_output_adapter@D@__crt_stdio_output@@V?$standard_base@DV?$stream_output_adapter@D@__crt_stdio_output@@@2@@__crt_stdio_output@@AAE_ND@Z 10051060 f i libucrtd:output.obj
 0001:00050160       ?state_case_normal_tchar@?$output_processor@DV?$string_output_adapter@D@__crt_stdio_output@@V?$format_validation_base@DV?$string_output_adapter@D@__crt_stdio_output@@@2@@__crt_stdio_output@@AAE_ND@Z 10051160 f i libucrtd:output.obj
 0001:00050260       ?state_case_normal_tchar@?$output_processor@DV?$string_output_adapter@D@__crt_stdio_output@@V?$positional_parameter_base@DV?$string_output_adapter@D@__crt_stdio_output@@@2@@__crt_stdio_output@@AAE_ND@Z 10051260 f i libucrtd:output.obj
 0001:00050360       ?state_case_normal_tchar@?$output_processor@DV?$string_output_adapter@D@__crt_stdio_output@@V?$standard_base@DV?$string_output_adapter@D@__crt_stdio_output@@@2@@__crt_stdio_output@@AAE_ND@Z 10051360 f i libucrtd:output.obj
 0001:00050460       ?state_case_normal_tchar@?$output_processor@_WV?$stream_output_adapter@_W@__crt_stdio_output@@V?$format_validation_base@_WV?$stream_output_adapter@_W@__crt_stdio_output@@@2@@__crt_stdio_output@@AAE_N_W@Z 10051460 f i libucrtd:output.obj
 0001:00050480       ?state_case_normal_tchar@?$output_processor@_WV?$stream_output_adapter@_W@__crt_stdio_output@@V?$positional_parameter_base@_WV?$stream_output_adapter@_W@__crt_stdio_output@@@2@@__crt_stdio_output@@AAE_N_W@Z 10051480 f i libucrtd:output.obj
 0001:000504a0       ?state_case_normal_tchar@?$output_processor@_WV?$stream_output_adapter@_W@__crt_stdio_output@@V?$standard_base@_WV?$stream_output_adapter@_W@__crt_stdio_output@@@2@@__crt_stdio_output@@AAE_N_W@Z 100514a0 f i libucrtd:output.obj
 0001:000504c0       ?state_case_normal_tchar@?$output_processor@_WV?$string_output_adapter@_W@__crt_stdio_output@@V?$format_validation_base@_WV?$string_output_adapter@_W@__crt_stdio_output@@@2@@__crt_stdio_output@@AAE_N_W@Z 100514c0 f i libucrtd:output.obj
 0001:000504e0       ?state_case_normal_tchar@?$output_processor@_WV?$string_output_adapter@_W@__crt_stdio_output@@V?$positional_parameter_base@_WV?$string_output_adapter@_W@__crt_stdio_output@@@2@@__crt_stdio_output@@AAE_N_W@Z 100514e0 f i libucrtd:output.obj
 0001:00050500       ?state_case_normal_tchar@?$output_processor@_WV?$string_output_adapter@_W@__crt_stdio_output@@V?$standard_base@_WV?$string_output_adapter@_W@__crt_stdio_output@@@2@@__crt_stdio_output@@AAE_N_W@Z 10051500 f i libucrtd:output.obj
 0001:00050520       ?state_case_percent@?$output_processor@DV?$stream_output_adapter@D@__crt_stdio_output@@V?$format_validation_base@DV?$stream_output_adapter@D@__crt_stdio_output@@@2@@__crt_stdio_output@@AAE_NXZ 10051520 f i libucrtd:output.obj
 0001:00050570       ?state_case_percent@?$output_processor@DV?$stream_output_adapter@D@__crt_stdio_output@@V?$positional_parameter_base@DV?$stream_output_adapter@D@__crt_stdio_output@@@2@@__crt_stdio_output@@AAE_NXZ 10051570 f i libucrtd:output.obj
 0001:000505c0       ?state_case_percent@?$output_processor@DV?$stream_output_adapter@D@__crt_stdio_output@@V?$standard_base@DV?$stream_output_adapter@D@__crt_stdio_output@@@2@@__crt_stdio_output@@AAE_NXZ 100515c0 f i libucrtd:output.obj
 0001:00050610       ?state_case_percent@?$output_processor@DV?$string_output_adapter@D@__crt_stdio_output@@V?$format_validation_base@DV?$string_output_adapter@D@__crt_stdio_output@@@2@@__crt_stdio_output@@AAE_NXZ 10051610 f i libucrtd:output.obj
 0001:00050660       ?state_case_percent@?$output_processor@DV?$string_output_adapter@D@__crt_stdio_output@@V?$positional_parameter_base@DV?$string_output_adapter@D@__crt_stdio_output@@@2@@__crt_stdio_output@@AAE_NXZ 10051660 f i libucrtd:output.obj
 0001:000506b0       ?state_case_percent@?$output_processor@DV?$string_output_adapter@D@__crt_stdio_output@@V?$standard_base@DV?$string_output_adapter@D@__crt_stdio_output@@@2@@__crt_stdio_output@@AAE_NXZ 100516b0 f i libucrtd:output.obj
 0001:00050700       ?state_case_percent@?$output_processor@_WV?$stream_output_adapter@_W@__crt_stdio_output@@V?$format_validation_base@_WV?$stream_output_adapter@_W@__crt_stdio_output@@@2@@__crt_stdio_output@@AAE_NXZ 10051700 f i libucrtd:output.obj
 0001:00050750       ?state_case_percent@?$output_processor@_WV?$stream_output_adapter@_W@__crt_stdio_output@@V?$positional_parameter_base@_WV?$stream_output_adapter@_W@__crt_stdio_output@@@2@@__crt_stdio_output@@AAE_NXZ 10051750 f i libucrtd:output.obj
 0001:000507a0       ?state_case_percent@?$output_processor@_WV?$stream_output_adapter@_W@__crt_stdio_output@@V?$standard_base@_WV?$stream_output_adapter@_W@__crt_stdio_output@@@2@@__crt_stdio_output@@AAE_NXZ 100517a0 f i libucrtd:output.obj
 0001:000507f0       ?state_case_percent@?$output_processor@_WV?$string_output_adapter@_W@__crt_stdio_output@@V?$format_validation_base@_WV?$string_output_adapter@_W@__crt_stdio_output@@@2@@__crt_stdio_output@@AAE_NXZ 100517f0 f i libucrtd:output.obj
 0001:00050840       ?state_case_percent@?$output_processor@_WV?$string_output_adapter@_W@__crt_stdio_output@@V?$positional_parameter_base@_WV?$string_output_adapter@_W@__crt_stdio_output@@@2@@__crt_stdio_output@@AAE_NXZ 10051840 f i libucrtd:output.obj
 0001:00050890       ?state_case_percent@?$output_processor@_WV?$string_output_adapter@_W@__crt_stdio_output@@V?$standard_base@_WV?$string_output_adapter@_W@__crt_stdio_output@@@2@@__crt_stdio_output@@AAE_NXZ 10051890 f i libucrtd:output.obj
 0001:000508e0       ?state_case_precision@?$output_processor@DV?$stream_output_adapter@D@__crt_stdio_output@@V?$format_validation_base@DV?$stream_output_adapter@D@__crt_stdio_output@@@2@@__crt_stdio_output@@AAE_NXZ 100518e0 f i libucrtd:output.obj
 0001:00050950       ?state_case_precision@?$output_processor@DV?$stream_output_adapter@D@__crt_stdio_output@@V?$positional_parameter_base@DV?$stream_output_adapter@D@__crt_stdio_output@@@2@@__crt_stdio_output@@AAE_NXZ 10051950 f i libucrtd:output.obj
 0001:000509c0       ?state_case_precision@?$output_processor@DV?$stream_output_adapter@D@__crt_stdio_output@@V?$standard_base@DV?$stream_output_adapter@D@__crt_stdio_output@@@2@@__crt_stdio_output@@AAE_NXZ 100519c0 f i libucrtd:output.obj
 0001:00050a30       ?state_case_precision@?$output_processor@DV?$string_output_adapter@D@__crt_stdio_output@@V?$format_validation_base@DV?$string_output_adapter@D@__crt_stdio_output@@@2@@__crt_stdio_output@@AAE_NXZ 10051a30 f i libucrtd:output.obj
 0001:00050aa0       ?state_case_precision@?$output_processor@DV?$string_output_adapter@D@__crt_stdio_output@@V?$positional_parameter_base@DV?$string_output_adapter@D@__crt_stdio_output@@@2@@__crt_stdio_output@@AAE_NXZ 10051aa0 f i libucrtd:output.obj
 0001:00050b10       ?state_case_precision@?$output_processor@DV?$string_output_adapter@D@__crt_stdio_output@@V?$standard_base@DV?$string_output_adapter@D@__crt_stdio_output@@@2@@__crt_stdio_output@@AAE_NXZ 10051b10 f i libucrtd:output.obj
 0001:00050b80       ?state_case_precision@?$output_processor@_WV?$stream_output_adapter@_W@__crt_stdio_output@@V?$format_validation_base@_WV?$stream_output_adapter@_W@__crt_stdio_output@@@2@@__crt_stdio_output@@AAE_NXZ 10051b80 f i libucrtd:output.obj
 0001:00050bf0       ?state_case_precision@?$output_processor@_WV?$stream_output_adapter@_W@__crt_stdio_output@@V?$positional_parameter_base@_WV?$stream_output_adapter@_W@__crt_stdio_output@@@2@@__crt_stdio_output@@AAE_NXZ 10051bf0 f i libucrtd:output.obj
 0001:00050c60       ?state_case_precision@?$output_processor@_WV?$stream_output_adapter@_W@__crt_stdio_output@@V?$standard_base@_WV?$stream_output_adapter@_W@__crt_stdio_output@@@2@@__crt_stdio_output@@AAE_NXZ 10051c60 f i libucrtd:output.obj
 0001:00050cd0       ?state_case_precision@?$output_processor@_WV?$string_output_adapter@_W@__crt_stdio_output@@V?$format_validation_base@_WV?$string_output_adapter@_W@__crt_stdio_output@@@2@@__crt_stdio_output@@AAE_NXZ 10051cd0 f i libucrtd:output.obj
 0001:00050d40       ?state_case_precision@?$output_processor@_WV?$string_output_adapter@_W@__crt_stdio_output@@V?$positional_parameter_base@_WV?$string_output_adapter@_W@__crt_stdio_output@@@2@@__crt_stdio_output@@AAE_NXZ 10051d40 f i libucrtd:output.obj
 0001:00050db0       ?state_case_precision@?$output_processor@_WV?$string_output_adapter@_W@__crt_stdio_output@@V?$standard_base@_WV?$string_output_adapter@_W@__crt_stdio_output@@@2@@__crt_stdio_output@@AAE_NXZ 10051db0 f i libucrtd:output.obj
 0001:00050e20       ?state_case_size@?$output_processor@DV?$stream_output_adapter@D@__crt_stdio_output@@V?$format_validation_base@DV?$stream_output_adapter@D@__crt_stdio_output@@@2@@__crt_stdio_output@@AAE_NXZ 10051e20 f i libucrtd:output.obj
 0001:000511f0       ?state_case_size@?$output_processor@DV?$stream_output_adapter@D@__crt_stdio_output@@V?$positional_parameter_base@DV?$stream_output_adapter@D@__crt_stdio_output@@@2@@__crt_stdio_output@@AAE_NXZ 100521f0 f i libucrtd:output.obj
 0001:000515c0       ?state_case_size@?$output_processor@DV?$stream_output_adapter@D@__crt_stdio_output@@V?$standard_base@DV?$stream_output_adapter@D@__crt_stdio_output@@@2@@__crt_stdio_output@@AAE_NXZ 100525c0 f i libucrtd:output.obj
 0001:00051990       ?state_case_size@?$output_processor@DV?$string_output_adapter@D@__crt_stdio_output@@V?$format_validation_base@DV?$string_output_adapter@D@__crt_stdio_output@@@2@@__crt_stdio_output@@AAE_NXZ 10052990 f i libucrtd:output.obj
 0001:00051d60       ?state_case_size@?$output_processor@DV?$string_output_adapter@D@__crt_stdio_output@@V?$positional_parameter_base@DV?$string_output_adapter@D@__crt_stdio_output@@@2@@__crt_stdio_output@@AAE_NXZ 10052d60 f i libucrtd:output.obj
 0001:00052130       ?state_case_size@?$output_processor@DV?$string_output_adapter@D@__crt_stdio_output@@V?$standard_base@DV?$string_output_adapter@D@__crt_stdio_output@@@2@@__crt_stdio_output@@AAE_NXZ 10053130 f i libucrtd:output.obj
 0001:00052500       ?state_case_size@?$output_processor@_WV?$stream_output_adapter@_W@__crt_stdio_output@@V?$format_validation_base@_WV?$stream_output_adapter@_W@__crt_stdio_output@@@2@@__crt_stdio_output@@AAE_NXZ 10053500 f i libucrtd:output.obj
 0001:000528d0       ?state_case_size@?$output_processor@_WV?$stream_output_adapter@_W@__crt_stdio_output@@V?$positional_parameter_base@_WV?$stream_output_adapter@_W@__crt_stdio_output@@@2@@__crt_stdio_output@@AAE_NXZ 100538d0 f i libucrtd:output.obj
 0001:00052ca0       ?state_case_size@?$output_processor@_WV?$stream_output_adapter@_W@__crt_stdio_output@@V?$standard_base@_WV?$stream_output_adapter@_W@__crt_stdio_output@@@2@@__crt_stdio_output@@AAE_NXZ 10053ca0 f i libucrtd:output.obj
 0001:00053070       ?state_case_size@?$output_processor@_WV?$string_output_adapter@_W@__crt_stdio_output@@V?$format_validation_base@_WV?$string_output_adapter@_W@__crt_stdio_output@@@2@@__crt_stdio_output@@AAE_NXZ 10054070 f i libucrtd:output.obj
 0001:00053440       ?state_case_size@?$output_processor@_WV?$string_output_adapter@_W@__crt_stdio_output@@V?$positional_parameter_base@_WV?$string_output_adapter@_W@__crt_stdio_output@@@2@@__crt_stdio_output@@AAE_NXZ 10054440 f i libucrtd:output.obj
 0001:00053810       ?state_case_size@?$output_processor@_WV?$string_output_adapter@_W@__crt_stdio_output@@V?$standard_base@_WV?$string_output_adapter@_W@__crt_stdio_output@@@2@@__crt_stdio_output@@AAE_NXZ 10054810 f i libucrtd:output.obj
 0001:00053be0       ?state_case_type@?$output_processor@DV?$stream_output_adapter@D@__crt_stdio_output@@V?$format_validation_base@DV?$stream_output_adapter@D@__crt_stdio_output@@@2@@__crt_stdio_output@@AAE_NXZ 10054be0 f i libucrtd:output.obj
 0001:00053f90       ?state_case_type@?$output_processor@DV?$stream_output_adapter@D@__crt_stdio_output@@V?$positional_parameter_base@DV?$stream_output_adapter@D@__crt_stdio_output@@@2@@__crt_stdio_output@@AAE_NXZ 10054f90 f i libucrtd:output.obj
 0001:00054340       ?state_case_type@?$output_processor@DV?$stream_output_adapter@D@__crt_stdio_output@@V?$standard_base@DV?$stream_output_adapter@D@__crt_stdio_output@@@2@@__crt_stdio_output@@AAE_NXZ 10055340 f i libucrtd:output.obj
 0001:000546f0       ?state_case_type@?$output_processor@DV?$string_output_adapter@D@__crt_stdio_output@@V?$format_validation_base@DV?$string_output_adapter@D@__crt_stdio_output@@@2@@__crt_stdio_output@@AAE_NXZ 100556f0 f i libucrtd:output.obj
 0001:00054aa0       ?state_case_type@?$output_processor@DV?$string_output_adapter@D@__crt_stdio_output@@V?$positional_parameter_base@DV?$string_output_adapter@D@__crt_stdio_output@@@2@@__crt_stdio_output@@AAE_NXZ 10055aa0 f i libucrtd:output.obj
 0001:00054e50       ?state_case_type@?$output_processor@DV?$string_output_adapter@D@__crt_stdio_output@@V?$standard_base@DV?$string_output_adapter@D@__crt_stdio_output@@@2@@__crt_stdio_output@@AAE_NXZ 10055e50 f i libucrtd:output.obj
 0001:00055200       ?state_case_type@?$output_processor@_WV?$stream_output_adapter@_W@__crt_stdio_output@@V?$format_validation_base@_WV?$stream_output_adapter@_W@__crt_stdio_output@@@2@@__crt_stdio_output@@AAE_NXZ 10056200 f i libucrtd:output.obj
 0001:000555e0       ?state_case_type@?$output_processor@_WV?$stream_output_adapter@_W@__crt_stdio_output@@V?$positional_parameter_base@_WV?$stream_output_adapter@_W@__crt_stdio_output@@@2@@__crt_stdio_output@@AAE_NXZ 100565e0 f i libucrtd:output.obj
 0001:000559c0       ?state_case_type@?$output_processor@_WV?$stream_output_adapter@_W@__crt_stdio_output@@V?$standard_base@_WV?$stream_output_adapter@_W@__crt_stdio_output@@@2@@__crt_stdio_output@@AAE_NXZ 100569c0 f i libucrtd:output.obj
 0001:00055da0       ?state_case_type@?$output_processor@_WV?$string_output_adapter@_W@__crt_stdio_output@@V?$format_validation_base@_WV?$string_output_adapter@_W@__crt_stdio_output@@@2@@__crt_stdio_output@@AAE_NXZ 10056da0 f i libucrtd:output.obj
 0001:00056180       ?state_case_type@?$output_processor@_WV?$string_output_adapter@_W@__crt_stdio_output@@V?$positional_parameter_base@_WV?$string_output_adapter@_W@__crt_stdio_output@@@2@@__crt_stdio_output@@AAE_NXZ 10057180 f i libucrtd:output.obj
 0001:00056560       ?state_case_type@?$output_processor@_WV?$string_output_adapter@_W@__crt_stdio_output@@V?$standard_base@_WV?$string_output_adapter@_W@__crt_stdio_output@@@2@@__crt_stdio_output@@AAE_NXZ 10057560 f i libucrtd:output.obj
 0001:00056940       ?state_case_width@?$output_processor@DV?$stream_output_adapter@D@__crt_stdio_output@@V?$format_validation_base@DV?$stream_output_adapter@D@__crt_stdio_output@@@2@@__crt_stdio_output@@AAE_NXZ 10057940 f i libucrtd:output.obj
 0001:000569c0       ?state_case_width@?$output_processor@DV?$stream_output_adapter@D@__crt_stdio_output@@V?$positional_parameter_base@DV?$stream_output_adapter@D@__crt_stdio_output@@@2@@__crt_stdio_output@@AAE_NXZ 100579c0 f i libucrtd:output.obj
 0001:00056a40       ?state_case_width@?$output_processor@DV?$stream_output_adapter@D@__crt_stdio_output@@V?$standard_base@DV?$stream_output_adapter@D@__crt_stdio_output@@@2@@__crt_stdio_output@@AAE_NXZ 10057a40 f i libucrtd:output.obj
 0001:00056ac0       ?state_case_width@?$output_processor@DV?$string_output_adapter@D@__crt_stdio_output@@V?$format_validation_base@DV?$string_output_adapter@D@__crt_stdio_output@@@2@@__crt_stdio_output@@AAE_NXZ 10057ac0 f i libucrtd:output.obj
 0001:00056b40       ?state_case_width@?$output_processor@DV?$string_output_adapter@D@__crt_stdio_output@@V?$positional_parameter_base@DV?$string_output_adapter@D@__crt_stdio_output@@@2@@__crt_stdio_output@@AAE_NXZ 10057b40 f i libucrtd:output.obj
 0001:00056bc0       ?state_case_width@?$output_processor@DV?$string_output_adapter@D@__crt_stdio_output@@V?$standard_base@DV?$string_output_adapter@D@__crt_stdio_output@@@2@@__crt_stdio_output@@AAE_NXZ 10057bc0 f i libucrtd:output.obj
 0001:00056c40       ?state_case_width@?$output_processor@_WV?$stream_output_adapter@_W@__crt_stdio_output@@V?$format_validation_base@_WV?$stream_output_adapter@_W@__crt_stdio_output@@@2@@__crt_stdio_output@@AAE_NXZ 10057c40 f i libucrtd:output.obj
 0001:00056cc0       ?state_case_width@?$output_processor@_WV?$stream_output_adapter@_W@__crt_stdio_output@@V?$positional_parameter_base@_WV?$stream_output_adapter@_W@__crt_stdio_output@@@2@@__crt_stdio_output@@AAE_NXZ 10057cc0 f i libucrtd:output.obj
 0001:00056d40       ?state_case_width@?$output_processor@_WV?$stream_output_adapter@_W@__crt_stdio_output@@V?$standard_base@_WV?$stream_output_adapter@_W@__crt_stdio_output@@@2@@__crt_stdio_output@@AAE_NXZ 10057d40 f i libucrtd:output.obj
 0001:00056dc0       ?state_case_width@?$output_processor@_WV?$string_output_adapter@_W@__crt_stdio_output@@V?$format_validation_base@_WV?$string_output_adapter@_W@__crt_stdio_output@@@2@@__crt_stdio_output@@AAE_NXZ 10057dc0 f i libucrtd:output.obj
 0001:00056e40       ?state_case_width@?$output_processor@_WV?$string_output_adapter@_W@__crt_stdio_output@@V?$positional_parameter_base@_WV?$string_output_adapter@_W@__crt_stdio_output@@@2@@__crt_stdio_output@@AAE_NXZ 10057e40 f i libucrtd:output.obj
 0001:00056ec0       ?state_case_width@?$output_processor@_WV?$string_output_adapter@_W@__crt_stdio_output@@V?$standard_base@_WV?$string_output_adapter@_W@__crt_stdio_output@@@2@@__crt_stdio_output@@AAE_NXZ 10057ec0 f i libucrtd:output.obj
 0001:00056f40       ?state_count@?$format_validation_base@DV?$stream_output_adapter@D@__crt_stdio_output@@@__crt_stdio_output@@KAIXZ 10057f40 f i libucrtd:output.obj
 0001:00056f50       ?state_count@?$format_validation_base@DV?$string_output_adapter@D@__crt_stdio_output@@@__crt_stdio_output@@KAIXZ 10057f50 f i libucrtd:output.obj
 0001:00056f60       ?state_count@?$format_validation_base@_WV?$stream_output_adapter@_W@__crt_stdio_output@@@__crt_stdio_output@@KAIXZ 10057f60 f i libucrtd:output.obj
 0001:00056f70       ?state_count@?$format_validation_base@_WV?$string_output_adapter@_W@__crt_stdio_output@@@__crt_stdio_output@@KAIXZ 10057f70 f i libucrtd:output.obj
 0001:00056f80       ?state_count@?$standard_base@DV?$stream_output_adapter@D@__crt_stdio_output@@@__crt_stdio_output@@KAIXZ 10057f80 f i libucrtd:output.obj
 0001:00056f90       ?state_count@?$standard_base@DV?$string_output_adapter@D@__crt_stdio_output@@@__crt_stdio_output@@KAIXZ 10057f90 f i libucrtd:output.obj
 0001:00056fa0       ?state_count@?$standard_base@_WV?$stream_output_adapter@_W@__crt_stdio_output@@@__crt_stdio_output@@KAIXZ 10057fa0 f i libucrtd:output.obj
 0001:00056fb0       ?state_count@?$standard_base@_WV?$string_output_adapter@_W@__crt_stdio_output@@@__crt_stdio_output@@KAIXZ 10057fb0 f i libucrtd:output.obj
 0001:00056fc0       ?state_transition_table@?$format_validation_base@DV?$stream_output_adapter@D@__crt_stdio_output@@@__crt_stdio_output@@KAPBEXZ 10057fc0 f i libucrtd:output.obj
 0001:00056fd0       ?state_transition_table@?$format_validation_base@DV?$string_output_adapter@D@__crt_stdio_output@@@__crt_stdio_output@@KAPBEXZ 10057fd0 f i libucrtd:output.obj
 0001:00056fe0       ?state_transition_table@?$format_validation_base@_WV?$stream_output_adapter@_W@__crt_stdio_output@@@__crt_stdio_output@@KAPBEXZ 10057fe0 f i libucrtd:output.obj
 0001:00056ff0       ?state_transition_table@?$format_validation_base@_WV?$string_output_adapter@_W@__crt_stdio_output@@@__crt_stdio_output@@KAPBEXZ 10057ff0 f i libucrtd:output.obj
 0001:00057000       ?state_transition_table@?$standard_base@DV?$stream_output_adapter@D@__crt_stdio_output@@@__crt_stdio_output@@KAPBEXZ 10058000 f i libucrtd:output.obj
 0001:00057010       ?state_transition_table@?$standard_base@DV?$string_output_adapter@D@__crt_stdio_output@@@__crt_stdio_output@@KAPBEXZ 10058010 f i libucrtd:output.obj
 0001:00057020       ?state_transition_table@?$standard_base@_WV?$stream_output_adapter@_W@__crt_stdio_output@@@__crt_stdio_output@@KAPBEXZ 10058020 f i libucrtd:output.obj
 0001:00057030       ?state_transition_table@?$standard_base@_WV?$string_output_adapter@_W@__crt_stdio_output@@@__crt_stdio_output@@KAPBEXZ 10058030 f i libucrtd:output.obj
 0001:00057040       ?tchar_string@?$common_data@D@__crt_stdio_output@@IAEAAPADD@Z 10058040 f i libucrtd:output.obj
 0001:00057060       ?tchar_string@?$common_data@D@__crt_stdio_output@@IAEAAPADXZ 10058060 f i libucrtd:output.obj
 0001:00057080       ?tchar_string@?$common_data@_W@__crt_stdio_output@@IAEAAPA_WXZ 10058080 f i libucrtd:output.obj
 0001:000570a0       ?tchar_string@?$common_data@_W@__crt_stdio_output@@IAEAAPA_W_W@Z 100580a0 f i libucrtd:output.obj
 0001:000570c0       ?to_integer_size@__crt_stdio_output@@YAIW4length_modifier@1@@Z 100580c0 f i libucrtd:output.obj
 0001:00057160       ?type_case_X@?$output_processor@DV?$stream_output_adapter@D@__crt_stdio_output@@V?$format_validation_base@DV?$stream_output_adapter@D@__crt_stdio_output@@@2@@__crt_stdio_output@@AAE_NXZ 10058160 f i libucrtd:output.obj
 0001:00057180       ?type_case_X@?$output_processor@DV?$stream_output_adapter@D@__crt_stdio_output@@V?$positional_parameter_base@DV?$stream_output_adapter@D@__crt_stdio_output@@@2@@__crt_stdio_output@@AAE_NXZ 10058180 f i libucrtd:output.obj
 0001:000571a0       ?type_case_X@?$output_processor@DV?$stream_output_adapter@D@__crt_stdio_output@@V?$standard_base@DV?$stream_output_adapter@D@__crt_stdio_output@@@2@@__crt_stdio_output@@AAE_NXZ 100581a0 f i libucrtd:output.obj
 0001:000571c0       ?type_case_X@?$output_processor@DV?$string_output_adapter@D@__crt_stdio_output@@V?$format_validation_base@DV?$string_output_adapter@D@__crt_stdio_output@@@2@@__crt_stdio_output@@AAE_NXZ 100581c0 f i libucrtd:output.obj
 0001:000571e0       ?type_case_X@?$output_processor@DV?$string_output_adapter@D@__crt_stdio_output@@V?$positional_parameter_base@DV?$string_output_adapter@D@__crt_stdio_output@@@2@@__crt_stdio_output@@AAE_NXZ 100581e0 f i libucrtd:output.obj
 0001:00057200       ?type_case_X@?$output_processor@DV?$string_output_adapter@D@__crt_stdio_output@@V?$standard_base@DV?$string_output_adapter@D@__crt_stdio_output@@@2@@__crt_stdio_output@@AAE_NXZ 10058200 f i libucrtd:output.obj
 0001:00057220       ?type_case_X@?$output_processor@_WV?$stream_output_adapter@_W@__crt_stdio_output@@V?$format_validation_base@_WV?$stream_output_adapter@_W@__crt_stdio_output@@@2@@__crt_stdio_output@@AAE_NXZ 10058220 f i libucrtd:output.obj
 0001:00057240       ?type_case_X@?$output_processor@_WV?$stream_output_adapter@_W@__crt_stdio_output@@V?$positional_parameter_base@_WV?$stream_output_adapter@_W@__crt_stdio_output@@@2@@__crt_stdio_output@@AAE_NXZ 10058240 f i libucrtd:output.obj
 0001:00057260       ?type_case_X@?$output_processor@_WV?$stream_output_adapter@_W@__crt_stdio_output@@V?$standard_base@_WV?$stream_output_adapter@_W@__crt_stdio_output@@@2@@__crt_stdio_output@@AAE_NXZ 10058260 f i libucrtd:output.obj
 0001:00057280       ?type_case_X@?$output_processor@_WV?$string_output_adapter@_W@__crt_stdio_output@@V?$format_validation_base@_WV?$string_output_adapter@_W@__crt_stdio_output@@@2@@__crt_stdio_output@@AAE_NXZ 10058280 f i libucrtd:output.obj
 0001:000572a0       ?type_case_X@?$output_processor@_WV?$string_output_adapter@_W@__crt_stdio_output@@V?$positional_parameter_base@_WV?$string_output_adapter@_W@__crt_stdio_output@@@2@@__crt_stdio_output@@AAE_NXZ 100582a0 f i libucrtd:output.obj
 0001:000572c0       ?type_case_X@?$output_processor@_WV?$string_output_adapter@_W@__crt_stdio_output@@V?$standard_base@_WV?$string_output_adapter@_W@__crt_stdio_output@@@2@@__crt_stdio_output@@AAE_NXZ 100582c0 f i libucrtd:output.obj
 0001:000572e0       ?type_case_Z@?$output_processor@DV?$stream_output_adapter@D@__crt_stdio_output@@V?$format_validation_base@DV?$stream_output_adapter@D@__crt_stdio_output@@@2@@__crt_stdio_output@@AAE_NXZ 100582e0 f i libucrtd:output.obj
 0001:000573d0       ?type_case_Z@?$output_processor@DV?$stream_output_adapter@D@__crt_stdio_output@@V?$positional_parameter_base@DV?$stream_output_adapter@D@__crt_stdio_output@@@2@@__crt_stdio_output@@AAE_NXZ 100583d0 f i libucrtd:output.obj
 0001:000574c0       ?type_case_Z@?$output_processor@DV?$stream_output_adapter@D@__crt_stdio_output@@V?$standard_base@DV?$stream_output_adapter@D@__crt_stdio_output@@@2@@__crt_stdio_output@@AAE_NXZ 100584c0 f i libucrtd:output.obj
 0001:000575b0       ?type_case_Z@?$output_processor@DV?$string_output_adapter@D@__crt_stdio_output@@V?$format_validation_base@DV?$string_output_adapter@D@__crt_stdio_output@@@2@@__crt_stdio_output@@AAE_NXZ 100585b0 f i libucrtd:output.obj
 0001:000576a0       ?type_case_Z@?$output_processor@DV?$string_output_adapter@D@__crt_stdio_output@@V?$positional_parameter_base@DV?$string_output_adapter@D@__crt_stdio_output@@@2@@__crt_stdio_output@@AAE_NXZ 100586a0 f i libucrtd:output.obj
 0001:00057790       ?type_case_Z@?$output_processor@DV?$string_output_adapter@D@__crt_stdio_output@@V?$standard_base@DV?$string_output_adapter@D@__crt_stdio_output@@@2@@__crt_stdio_output@@AAE_NXZ 10058790 f i libucrtd:output.obj
 0001:00057880       ?type_case_Z@?$output_processor@_WV?$stream_output_adapter@_W@__crt_stdio_output@@V?$format_validation_base@_WV?$stream_output_adapter@_W@__crt_stdio_output@@@2@@__crt_stdio_output@@AAE_NXZ 10058880 f i libucrtd:output.obj
 0001:00057970       ?type_case_Z@?$output_processor@_WV?$stream_output_adapter@_W@__crt_stdio_output@@V?$positional_parameter_base@_WV?$stream_output_adapter@_W@__crt_stdio_output@@@2@@__crt_stdio_output@@AAE_NXZ 10058970 f i libucrtd:output.obj
 0001:00057a60       ?type_case_Z@?$output_processor@_WV?$stream_output_adapter@_W@__crt_stdio_output@@V?$standard_base@_WV?$stream_output_adapter@_W@__crt_stdio_output@@@2@@__crt_stdio_output@@AAE_NXZ 10058a60 f i libucrtd:output.obj
 0001:00057b50       ?type_case_Z@?$output_processor@_WV?$string_output_adapter@_W@__crt_stdio_output@@V?$format_validation_base@_WV?$string_output_adapter@_W@__crt_stdio_output@@@2@@__crt_stdio_output@@AAE_NXZ 10058b50 f i libucrtd:output.obj
 0001:00057c40       ?type_case_Z@?$output_processor@_WV?$string_output_adapter@_W@__crt_stdio_output@@V?$positional_parameter_base@_WV?$string_output_adapter@_W@__crt_stdio_output@@@2@@__crt_stdio_output@@AAE_NXZ 10058c40 f i libucrtd:output.obj
 0001:00057d30       ?type_case_Z@?$output_processor@_WV?$string_output_adapter@_W@__crt_stdio_output@@V?$standard_base@_WV?$string_output_adapter@_W@__crt_stdio_output@@@2@@__crt_stdio_output@@AAE_NXZ 10058d30 f i libucrtd:output.obj
 0001:00057e20       ?type_case_a@?$output_processor@DV?$stream_output_adapter@D@__crt_stdio_output@@V?$format_validation_base@DV?$stream_output_adapter@D@__crt_stdio_output@@@2@@__crt_stdio_output@@AAE_NXZ 10058e20 f i libucrtd:output.obj
 0001:00058090       ?type_case_a@?$output_processor@DV?$stream_output_adapter@D@__crt_stdio_output@@V?$positional_parameter_base@DV?$stream_output_adapter@D@__crt_stdio_output@@@2@@__crt_stdio_output@@AAE_NXZ 10059090 f i libucrtd:output.obj
 0001:00058300       ?type_case_a@?$output_processor@DV?$stream_output_adapter@D@__crt_stdio_output@@V?$standard_base@DV?$stream_output_adapter@D@__crt_stdio_output@@@2@@__crt_stdio_output@@AAE_NXZ 10059300 f i libucrtd:output.obj
 0001:00058570       ?type_case_a@?$output_processor@DV?$string_output_adapter@D@__crt_stdio_output@@V?$format_validation_base@DV?$string_output_adapter@D@__crt_stdio_output@@@2@@__crt_stdio_output@@AAE_NXZ 10059570 f i libucrtd:output.obj
 0001:000587e0       ?type_case_a@?$output_processor@DV?$string_output_adapter@D@__crt_stdio_output@@V?$positional_parameter_base@DV?$string_output_adapter@D@__crt_stdio_output@@@2@@__crt_stdio_output@@AAE_NXZ 100597e0 f i libucrtd:output.obj
 0001:00058a50       ?type_case_a@?$output_processor@DV?$string_output_adapter@D@__crt_stdio_output@@V?$standard_base@DV?$string_output_adapter@D@__crt_stdio_output@@@2@@__crt_stdio_output@@AAE_NXZ 10059a50 f i libucrtd:output.obj
 0001:00058cc0       ?type_case_a@?$output_processor@_WV?$stream_output_adapter@_W@__crt_stdio_output@@V?$format_validation_base@_WV?$stream_output_adapter@_W@__crt_stdio_output@@@2@@__crt_stdio_output@@AAE_NXZ 10059cc0 f i libucrtd:output.obj
 0001:00058f30       ?type_case_a@?$output_processor@_WV?$stream_output_adapter@_W@__crt_stdio_output@@V?$positional_parameter_base@_WV?$stream_output_adapter@_W@__crt_stdio_output@@@2@@__crt_stdio_output@@AAE_NXZ 10059f30 f i libucrtd:output.obj
 0001:000591a0       ?type_case_a@?$output_processor@_WV?$stream_output_adapter@_W@__crt_stdio_output@@V?$standard_base@_WV?$stream_output_adapter@_W@__crt_stdio_output@@@2@@__crt_stdio_output@@AAE_NXZ 1005a1a0 f i libucrtd:output.obj
 0001:00059410       ?type_case_a@?$output_processor@_WV?$string_output_adapter@_W@__crt_stdio_output@@V?$format_validation_base@_WV?$string_output_adapter@_W@__crt_stdio_output@@@2@@__crt_stdio_output@@AAE_NXZ 1005a410 f i libucrtd:output.obj
 0001:00059680       ?type_case_a@?$output_processor@_WV?$string_output_adapter@_W@__crt_stdio_output@@V?$positional_parameter_base@_WV?$string_output_adapter@_W@__crt_stdio_output@@@2@@__crt_stdio_output@@AAE_NXZ 1005a680 f i libucrtd:output.obj
 0001:000598f0       ?type_case_a@?$output_processor@_WV?$string_output_adapter@_W@__crt_stdio_output@@V?$standard_base@_WV?$string_output_adapter@_W@__crt_stdio_output@@@2@@__crt_stdio_output@@AAE_NXZ 1005a8f0 f i libucrtd:output.obj
 0001:00059b60       ?type_case_c@?$output_processor@DV?$stream_output_adapter@D@__crt_stdio_output@@V?$format_validation_base@DV?$stream_output_adapter@D@__crt_stdio_output@@@2@@__crt_stdio_output@@AAE_NXZ 1005ab60 f i libucrtd:output.obj
 0001:00059b80       ?type_case_c@?$output_processor@DV?$stream_output_adapter@D@__crt_stdio_output@@V?$positional_parameter_base@DV?$stream_output_adapter@D@__crt_stdio_output@@@2@@__crt_stdio_output@@AAE_NXZ 1005ab80 f i libucrtd:output.obj
 0001:00059ba0       ?type_case_c@?$output_processor@DV?$stream_output_adapter@D@__crt_stdio_output@@V?$standard_base@DV?$stream_output_adapter@D@__crt_stdio_output@@@2@@__crt_stdio_output@@AAE_NXZ 1005aba0 f i libucrtd:output.obj
 0001:00059bc0       ?type_case_c@?$output_processor@DV?$string_output_adapter@D@__crt_stdio_output@@V?$format_validation_base@DV?$string_output_adapter@D@__crt_stdio_output@@@2@@__crt_stdio_output@@AAE_NXZ 1005abc0 f i libucrtd:output.obj
 0001:00059be0       ?type_case_c@?$output_processor@DV?$string_output_adapter@D@__crt_stdio_output@@V?$positional_parameter_base@DV?$string_output_adapter@D@__crt_stdio_output@@@2@@__crt_stdio_output@@AAE_NXZ 1005abe0 f i libucrtd:output.obj
 0001:00059c00       ?type_case_c@?$output_processor@DV?$string_output_adapter@D@__crt_stdio_output@@V?$standard_base@DV?$string_output_adapter@D@__crt_stdio_output@@@2@@__crt_stdio_output@@AAE_NXZ 1005ac00 f i libucrtd:output.obj
 0001:00059c20       ?type_case_c@?$output_processor@_WV?$stream_output_adapter@_W@__crt_stdio_output@@V?$format_validation_base@_WV?$stream_output_adapter@_W@__crt_stdio_output@@@2@@__crt_stdio_output@@AAE_NXZ 1005ac20 f i libucrtd:output.obj
 0001:00059c40       ?type_case_c@?$output_processor@_WV?$stream_output_adapter@_W@__crt_stdio_output@@V?$positional_parameter_base@_WV?$stream_output_adapter@_W@__crt_stdio_output@@@2@@__crt_stdio_output@@AAE_NXZ 1005ac40 f i libucrtd:output.obj
 0001:00059c60       ?type_case_c@?$output_processor@_WV?$stream_output_adapter@_W@__crt_stdio_output@@V?$standard_base@_WV?$stream_output_adapter@_W@__crt_stdio_output@@@2@@__crt_stdio_output@@AAE_NXZ 1005ac60 f i libucrtd:output.obj
 0001:00059c80       ?type_case_c@?$output_processor@_WV?$string_output_adapter@_W@__crt_stdio_output@@V?$format_validation_base@_WV?$string_output_adapter@_W@__crt_stdio_output@@@2@@__crt_stdio_output@@AAE_NXZ 1005ac80 f i libucrtd:output.obj
 0001:00059ca0       ?type_case_c@?$output_processor@_WV?$string_output_adapter@_W@__crt_stdio_output@@V?$positional_parameter_base@_WV?$string_output_adapter@_W@__crt_stdio_output@@@2@@__crt_stdio_output@@AAE_NXZ 1005aca0 f i libucrtd:output.obj
 0001:00059cc0       ?type_case_c@?$output_processor@_WV?$string_output_adapter@_W@__crt_stdio_output@@V?$standard_base@_WV?$string_output_adapter@_W@__crt_stdio_output@@@2@@__crt_stdio_output@@AAE_NXZ 1005acc0 f i libucrtd:output.obj
 0001:00059ce0       ?type_case_c_tchar@?$output_processor@DV?$stream_output_adapter@D@__crt_stdio_output@@V?$format_validation_base@DV?$stream_output_adapter@D@__crt_stdio_output@@@2@@__crt_stdio_output@@AAE_ND@Z 1005ace0 f i libucrtd:output.obj
 0001:00059df0       ?type_case_c_tchar@?$output_processor@DV?$stream_output_adapter@D@__crt_stdio_output@@V?$positional_parameter_base@DV?$stream_output_adapter@D@__crt_stdio_output@@@2@@__crt_stdio_output@@AAE_ND@Z 1005adf0 f i libucrtd:output.obj
 0001:00059f00       ?type_case_c_tchar@?$output_processor@DV?$stream_output_adapter@D@__crt_stdio_output@@V?$standard_base@DV?$stream_output_adapter@D@__crt_stdio_output@@@2@@__crt_stdio_output@@AAE_ND@Z 1005af00 f i libucrtd:output.obj
 0001:0005a010       ?type_case_c_tchar@?$output_processor@DV?$string_output_adapter@D@__crt_stdio_output@@V?$format_validation_base@DV?$string_output_adapter@D@__crt_stdio_output@@@2@@__crt_stdio_output@@AAE_ND@Z 1005b010 f i libucrtd:output.obj
 0001:0005a120       ?type_case_c_tchar@?$output_processor@DV?$string_output_adapter@D@__crt_stdio_output@@V?$positional_parameter_base@DV?$string_output_adapter@D@__crt_stdio_output@@@2@@__crt_stdio_output@@AAE_ND@Z 1005b120 f i libucrtd:output.obj
 0001:0005a230       ?type_case_c_tchar@?$output_processor@DV?$string_output_adapter@D@__crt_stdio_output@@V?$standard_base@DV?$string_output_adapter@D@__crt_stdio_output@@@2@@__crt_stdio_output@@AAE_ND@Z 1005b230 f i libucrtd:output.obj
 0001:0005a340       ?type_case_c_tchar@?$output_processor@_WV?$stream_output_adapter@_W@__crt_stdio_output@@V?$format_validation_base@_WV?$stream_output_adapter@_W@__crt_stdio_output@@@2@@__crt_stdio_output@@AAE_N_W@Z 1005b340 f i libucrtd:output.obj
 0001:0005a440       ?type_case_c_tchar@?$output_processor@_WV?$stream_output_adapter@_W@__crt_stdio_output@@V?$positional_parameter_base@_WV?$stream_output_adapter@_W@__crt_stdio_output@@@2@@__crt_stdio_output@@AAE_N_W@Z 1005b440 f i libucrtd:output.obj
 0001:0005a540       ?type_case_c_tchar@?$output_processor@_WV?$stream_output_adapter@_W@__crt_stdio_output@@V?$standard_base@_WV?$stream_output_adapter@_W@__crt_stdio_output@@@2@@__crt_stdio_output@@AAE_N_W@Z 1005b540 f i libucrtd:output.obj
 0001:0005a640       ?type_case_c_tchar@?$output_processor@_WV?$string_output_adapter@_W@__crt_stdio_output@@V?$format_validation_base@_WV?$string_output_adapter@_W@__crt_stdio_output@@@2@@__crt_stdio_output@@AAE_N_W@Z 1005b640 f i libucrtd:output.obj
 0001:0005a740       ?type_case_c_tchar@?$output_processor@_WV?$string_output_adapter@_W@__crt_stdio_output@@V?$positional_parameter_base@_WV?$string_output_adapter@_W@__crt_stdio_output@@@2@@__crt_stdio_output@@AAE_N_W@Z 1005b740 f i libucrtd:output.obj
 0001:0005a840       ?type_case_c_tchar@?$output_processor@_WV?$string_output_adapter@_W@__crt_stdio_output@@V?$standard_base@_WV?$string_output_adapter@_W@__crt_stdio_output@@@2@@__crt_stdio_output@@AAE_N_W@Z 1005b840 f i libucrtd:output.obj
 0001:0005a940       ?type_case_d@?$output_processor@DV?$stream_output_adapter@D@__crt_stdio_output@@V?$format_validation_base@DV?$stream_output_adapter@D@__crt_stdio_output@@@2@@__crt_stdio_output@@AAE_NXZ 1005b940 f i libucrtd:output.obj
 0001:0005a970       ?type_case_d@?$output_processor@DV?$stream_output_adapter@D@__crt_stdio_output@@V?$positional_parameter_base@DV?$stream_output_adapter@D@__crt_stdio_output@@@2@@__crt_stdio_output@@AAE_NXZ 1005b970 f i libucrtd:output.obj
 0001:0005a9a0       ?type_case_d@?$output_processor@DV?$stream_output_adapter@D@__crt_stdio_output@@V?$standard_base@DV?$stream_output_adapter@D@__crt_stdio_output@@@2@@__crt_stdio_output@@AAE_NXZ 1005b9a0 f i libucrtd:output.obj
 0001:0005a9d0       ?type_case_d@?$output_processor@DV?$string_output_adapter@D@__crt_stdio_output@@V?$format_validation_base@DV?$string_output_adapter@D@__crt_stdio_output@@@2@@__crt_stdio_output@@AAE_NXZ 1005b9d0 f i libucrtd:output.obj
 0001:0005aa00       ?type_case_d@?$output_processor@DV?$string_output_adapter@D@__crt_stdio_output@@V?$positional_parameter_base@DV?$string_output_adapter@D@__crt_stdio_output@@@2@@__crt_stdio_output@@AAE_NXZ 1005ba00 f i libucrtd:output.obj
 0001:0005aa30       ?type_case_d@?$output_processor@DV?$string_output_adapter@D@__crt_stdio_output@@V?$standard_base@DV?$string_output_adapter@D@__crt_stdio_output@@@2@@__crt_stdio_output@@AAE_NXZ 1005ba30 f i libucrtd:output.obj
 0001:0005aa60       ?type_case_d@?$output_processor@_WV?$stream_output_adapter@_W@__crt_stdio_output@@V?$format_validation_base@_WV?$stream_output_adapter@_W@__crt_stdio_output@@@2@@__crt_stdio_output@@AAE_NXZ 1005ba60 f i libucrtd:output.obj
 0001:0005aa90       ?type_case_d@?$output_processor@_WV?$stream_output_adapter@_W@__crt_stdio_output@@V?$positional_parameter_base@_WV?$stream_output_adapter@_W@__crt_stdio_output@@@2@@__crt_stdio_output@@AAE_NXZ 1005ba90 f i libucrtd:output.obj
 0001:0005aac0       ?type_case_d@?$output_processor@_WV?$stream_output_adapter@_W@__crt_stdio_output@@V?$standard_base@_WV?$stream_output_adapter@_W@__crt_stdio_output@@@2@@__crt_stdio_output@@AAE_NXZ 1005bac0 f i libucrtd:output.obj
 0001:0005aaf0       ?type_case_d@?$output_processor@_WV?$string_output_adapter@_W@__crt_stdio_output@@V?$format_validation_base@_WV?$string_output_adapter@_W@__crt_stdio_output@@@2@@__crt_stdio_output@@AAE_NXZ 1005baf0 f i libucrtd:output.obj
 0001:0005ab20       ?type_case_d@?$output_processor@_WV?$string_output_adapter@_W@__crt_stdio_output@@V?$positional_parameter_base@_WV?$string_output_adapter@_W@__crt_stdio_output@@@2@@__crt_stdio_output@@AAE_NXZ 1005bb20 f i libucrtd:output.obj
 0001:0005ab50       ?type_case_d@?$output_processor@_WV?$string_output_adapter@_W@__crt_stdio_output@@V?$standard_base@_WV?$string_output_adapter@_W@__crt_stdio_output@@@2@@__crt_stdio_output@@AAE_NXZ 1005bb50 f i libucrtd:output.obj
 0001:0005ab80       ?type_case_integer@?$output_processor@DV?$stream_output_adapter@D@__crt_stdio_output@@V?$format_validation_base@DV?$stream_output_adapter@D@__crt_stdio_output@@@2@@__crt_stdio_output@@AAE_NI_N@Z 1005bb80 f i libucrtd:output.obj
 0001:0005aed0       ?type_case_integer@?$output_processor@DV?$stream_output_adapter@D@__crt_stdio_output@@V?$positional_parameter_base@DV?$stream_output_adapter@D@__crt_stdio_output@@@2@@__crt_stdio_output@@AAE_NI_N@Z 1005bed0 f i libucrtd:output.obj
 0001:0005b220       ?type_case_integer@?$output_processor@DV?$stream_output_adapter@D@__crt_stdio_output@@V?$standard_base@DV?$stream_output_adapter@D@__crt_stdio_output@@@2@@__crt_stdio_output@@AAE_NI_N@Z 1005c220 f i libucrtd:output.obj
 0001:0005b570       ?type_case_integer@?$output_processor@DV?$string_output_adapter@D@__crt_stdio_output@@V?$format_validation_base@DV?$string_output_adapter@D@__crt_stdio_output@@@2@@__crt_stdio_output@@AAE_NI_N@Z 1005c570 f i libucrtd:output.obj
 0001:0005b8c0       ?type_case_integer@?$output_processor@DV?$string_output_adapter@D@__crt_stdio_output@@V?$positional_parameter_base@DV?$string_output_adapter@D@__crt_stdio_output@@@2@@__crt_stdio_output@@AAE_NI_N@Z 1005c8c0 f i libucrtd:output.obj
 0001:0005bc10       ?type_case_integer@?$output_processor@DV?$string_output_adapter@D@__crt_stdio_output@@V?$standard_base@DV?$string_output_adapter@D@__crt_stdio_output@@@2@@__crt_stdio_output@@AAE_NI_N@Z 1005cc10 f i libucrtd:output.obj
 0001:0005bf60       ?type_case_integer@?$output_processor@_WV?$stream_output_adapter@_W@__crt_stdio_output@@V?$format_validation_base@_WV?$stream_output_adapter@_W@__crt_stdio_output@@@2@@__crt_stdio_output@@AAE_NI_N@Z 1005cf60 f i libucrtd:output.obj
 0001:0005c2b0       ?type_case_integer@?$output_processor@_WV?$stream_output_adapter@_W@__crt_stdio_output@@V?$positional_parameter_base@_WV?$stream_output_adapter@_W@__crt_stdio_output@@@2@@__crt_stdio_output@@AAE_NI_N@Z 1005d2b0 f i libucrtd:output.obj
 0001:0005c600       ?type_case_integer@?$output_processor@_WV?$stream_output_adapter@_W@__crt_stdio_output@@V?$standard_base@_WV?$stream_output_adapter@_W@__crt_stdio_output@@@2@@__crt_stdio_output@@AAE_NI_N@Z 1005d600 f i libucrtd:output.obj
 0001:0005c950       ?type_case_integer@?$output_processor@_WV?$string_output_adapter@_W@__crt_stdio_output@@V?$format_validation_base@_WV?$string_output_adapter@_W@__crt_stdio_output@@@2@@__crt_stdio_output@@AAE_NI_N@Z 1005d950 f i libucrtd:output.obj
 0001:0005cca0       ?type_case_integer@?$output_processor@_WV?$string_output_adapter@_W@__crt_stdio_output@@V?$positional_parameter_base@_WV?$string_output_adapter@_W@__crt_stdio_output@@@2@@__crt_stdio_output@@AAE_NI_N@Z 1005dca0 f i libucrtd:output.obj
 0001:0005cff0       ?type_case_integer@?$output_processor@_WV?$string_output_adapter@_W@__crt_stdio_output@@V?$standard_base@_WV?$string_output_adapter@_W@__crt_stdio_output@@@2@@__crt_stdio_output@@AAE_NI_N@Z 1005dff0 f i libucrtd:output.obj
 0001:0005d340       ?type_case_n@?$output_processor@DV?$stream_output_adapter@D@__crt_stdio_output@@V?$format_validation_base@DV?$stream_output_adapter@D@__crt_stdio_output@@@2@@__crt_stdio_output@@AAE_NXZ 1005e340 f i libucrtd:output.obj
 0001:0005d530       ?type_case_n@?$output_processor@DV?$stream_output_adapter@D@__crt_stdio_output@@V?$positional_parameter_base@DV?$stream_output_adapter@D@__crt_stdio_output@@@2@@__crt_stdio_output@@AAE_NXZ 1005e530 f i libucrtd:output.obj
 0001:0005d720       ?type_case_n@?$output_processor@DV?$stream_output_adapter@D@__crt_stdio_output@@V?$standard_base@DV?$stream_output_adapter@D@__crt_stdio_output@@@2@@__crt_stdio_output@@AAE_NXZ 1005e720 f i libucrtd:output.obj
 0001:0005d910       ?type_case_n@?$output_processor@DV?$string_output_adapter@D@__crt_stdio_output@@V?$format_validation_base@DV?$string_output_adapter@D@__crt_stdio_output@@@2@@__crt_stdio_output@@AAE_NXZ 1005e910 f i libucrtd:output.obj
 0001:0005db00       ?type_case_n@?$output_processor@DV?$string_output_adapter@D@__crt_stdio_output@@V?$positional_parameter_base@DV?$string_output_adapter@D@__crt_stdio_output@@@2@@__crt_stdio_output@@AAE_NXZ 1005eb00 f i libucrtd:output.obj
 0001:0005dcf0       ?type_case_n@?$output_processor@DV?$string_output_adapter@D@__crt_stdio_output@@V?$standard_base@DV?$string_output_adapter@D@__crt_stdio_output@@@2@@__crt_stdio_output@@AAE_NXZ 1005ecf0 f i libucrtd:output.obj
 0001:0005dee0       ?type_case_n@?$output_processor@_WV?$stream_output_adapter@_W@__crt_stdio_output@@V?$format_validation_base@_WV?$stream_output_adapter@_W@__crt_stdio_output@@@2@@__crt_stdio_output@@AAE_NXZ 1005eee0 f i libucrtd:output.obj
 0001:0005e0d0       ?type_case_n@?$output_processor@_WV?$stream_output_adapter@_W@__crt_stdio_output@@V?$positional_parameter_base@_WV?$stream_output_adapter@_W@__crt_stdio_output@@@2@@__crt_stdio_output@@AAE_NXZ 1005f0d0 f i libucrtd:output.obj
 0001:0005e2c0       ?type_case_n@?$output_processor@_WV?$stream_output_adapter@_W@__crt_stdio_output@@V?$standard_base@_WV?$stream_output_adapter@_W@__crt_stdio_output@@@2@@__crt_stdio_output@@AAE_NXZ 1005f2c0 f i libucrtd:output.obj
 0001:0005e4b0       ?type_case_n@?$output_processor@_WV?$string_output_adapter@_W@__crt_stdio_output@@V?$format_validation_base@_WV?$string_output_adapter@_W@__crt_stdio_output@@@2@@__crt_stdio_output@@AAE_NXZ 1005f4b0 f i libucrtd:output.obj
 0001:0005e6a0       ?type_case_n@?$output_processor@_WV?$string_output_adapter@_W@__crt_stdio_output@@V?$positional_parameter_base@_WV?$string_output_adapter@_W@__crt_stdio_output@@@2@@__crt_stdio_output@@AAE_NXZ 1005f6a0 f i libucrtd:output.obj
 0001:0005e890       ?type_case_n@?$output_processor@_WV?$string_output_adapter@_W@__crt_stdio_output@@V?$standard_base@_WV?$string_output_adapter@_W@__crt_stdio_output@@@2@@__crt_stdio_output@@AAE_NXZ 1005f890 f i libucrtd:output.obj
 0001:0005ea80       ?type_case_o@?$output_processor@DV?$stream_output_adapter@D@__crt_stdio_output@@V?$format_validation_base@DV?$stream_output_adapter@D@__crt_stdio_output@@@2@@__crt_stdio_output@@AAE_NXZ 1005fa80 f i libucrtd:output.obj
 0001:0005eac0       ?type_case_o@?$output_processor@DV?$stream_output_adapter@D@__crt_stdio_output@@V?$positional_parameter_base@DV?$stream_output_adapter@D@__crt_stdio_output@@@2@@__crt_stdio_output@@AAE_NXZ 1005fac0 f i libucrtd:output.obj
 0001:0005eb00       ?type_case_o@?$output_processor@DV?$stream_output_adapter@D@__crt_stdio_output@@V?$standard_base@DV?$stream_output_adapter@D@__crt_stdio_output@@@2@@__crt_stdio_output@@AAE_NXZ 1005fb00 f i libucrtd:output.obj
 0001:0005eb40       ?type_case_o@?$output_processor@DV?$string_output_adapter@D@__crt_stdio_output@@V?$format_validation_base@DV?$string_output_adapter@D@__crt_stdio_output@@@2@@__crt_stdio_output@@AAE_NXZ 1005fb40 f i libucrtd:output.obj
 0001:0005eb80       ?type_case_o@?$output_processor@DV?$string_output_adapter@D@__crt_stdio_output@@V?$positional_parameter_base@DV?$string_output_adapter@D@__crt_stdio_output@@@2@@__crt_stdio_output@@AAE_NXZ 1005fb80 f i libucrtd:output.obj
 0001:0005ebc0       ?type_case_o@?$output_processor@DV?$string_output_adapter@D@__crt_stdio_output@@V?$standard_base@DV?$string_output_adapter@D@__crt_stdio_output@@@2@@__crt_stdio_output@@AAE_NXZ 1005fbc0 f i libucrtd:output.obj
 0001:0005ec00       ?type_case_o@?$output_processor@_WV?$stream_output_adapter@_W@__crt_stdio_output@@V?$format_validation_base@_WV?$stream_output_adapter@_W@__crt_stdio_output@@@2@@__crt_stdio_output@@AAE_NXZ 1005fc00 f i libucrtd:output.obj
 0001:0005ec40       ?type_case_o@?$output_processor@_WV?$stream_output_adapter@_W@__crt_stdio_output@@V?$positional_parameter_base@_WV?$stream_output_adapter@_W@__crt_stdio_output@@@2@@__crt_stdio_output@@AAE_NXZ 1005fc40 f i libucrtd:output.obj
 0001:0005ec80       ?type_case_o@?$output_processor@_WV?$stream_output_adapter@_W@__crt_stdio_output@@V?$standard_base@_WV?$stream_output_adapter@_W@__crt_stdio_output@@@2@@__crt_stdio_output@@AAE_NXZ 1005fc80 f i libucrtd:output.obj
 0001:0005ecc0       ?type_case_o@?$output_processor@_WV?$string_output_adapter@_W@__crt_stdio_output@@V?$format_validation_base@_WV?$string_output_adapter@_W@__crt_stdio_output@@@2@@__crt_stdio_output@@AAE_NXZ 1005fcc0 f i libucrtd:output.obj
 0001:0005ed00       ?type_case_o@?$output_processor@_WV?$string_output_adapter@_W@__crt_stdio_output@@V?$positional_parameter_base@_WV?$string_output_adapter@_W@__crt_stdio_output@@@2@@__crt_stdio_output@@AAE_NXZ 1005fd00 f i libucrtd:output.obj
 0001:0005ed40       ?type_case_o@?$output_processor@_WV?$string_output_adapter@_W@__crt_stdio_output@@V?$standard_base@_WV?$string_output_adapter@_W@__crt_stdio_output@@@2@@__crt_stdio_output@@AAE_NXZ 1005fd40 f i libucrtd:output.obj
 0001:0005ed80       ?type_case_p@?$output_processor@DV?$stream_output_adapter@D@__crt_stdio_output@@V?$format_validation_base@DV?$stream_output_adapter@D@__crt_stdio_output@@@2@@__crt_stdio_output@@AAE_NXZ 1005fd80 f i libucrtd:output.obj
 0001:0005edb0       ?type_case_p@?$output_processor@DV?$stream_output_adapter@D@__crt_stdio_output@@V?$positional_parameter_base@DV?$stream_output_adapter@D@__crt_stdio_output@@@2@@__crt_stdio_output@@AAE_NXZ 1005fdb0 f i libucrtd:output.obj
 0001:0005ede0       ?type_case_p@?$output_processor@DV?$stream_output_adapter@D@__crt_stdio_output@@V?$standard_base@DV?$stream_output_adapter@D@__crt_stdio_output@@@2@@__crt_stdio_output@@AAE_NXZ 1005fde0 f i libucrtd:output.obj
 0001:0005ee10       ?type_case_p@?$output_processor@DV?$string_output_adapter@D@__crt_stdio_output@@V?$format_validation_base@DV?$string_output_adapter@D@__crt_stdio_output@@@2@@__crt_stdio_output@@AAE_NXZ 1005fe10 f i libucrtd:output.obj
 0001:0005ee40       ?type_case_p@?$output_processor@DV?$string_output_adapter@D@__crt_stdio_output@@V?$positional_parameter_base@DV?$string_output_adapter@D@__crt_stdio_output@@@2@@__crt_stdio_output@@AAE_NXZ 1005fe40 f i libucrtd:output.obj
 0001:0005ee70       ?type_case_p@?$output_processor@DV?$string_output_adapter@D@__crt_stdio_output@@V?$standard_base@DV?$string_output_adapter@D@__crt_stdio_output@@@2@@__crt_stdio_output@@AAE_NXZ 1005fe70 f i libucrtd:output.obj
 0001:0005eea0       ?type_case_p@?$output_processor@_WV?$stream_output_adapter@_W@__crt_stdio_output@@V?$format_validation_base@_WV?$stream_output_adapter@_W@__crt_stdio_output@@@2@@__crt_stdio_output@@AAE_NXZ 1005fea0 f i libucrtd:output.obj
 0001:0005eed0       ?type_case_p@?$output_processor@_WV?$stream_output_adapter@_W@__crt_stdio_output@@V?$positional_parameter_base@_WV?$stream_output_adapter@_W@__crt_stdio_output@@@2@@__crt_stdio_output@@AAE_NXZ 1005fed0 f i libucrtd:output.obj
 0001:0005ef00       ?type_case_p@?$output_processor@_WV?$stream_output_adapter@_W@__crt_stdio_output@@V?$standard_base@_WV?$stream_output_adapter@_W@__crt_stdio_output@@@2@@__crt_stdio_output@@AAE_NXZ 1005ff00 f i libucrtd:output.obj
 0001:0005ef30       ?type_case_p@?$output_processor@_WV?$string_output_adapter@_W@__crt_stdio_output@@V?$format_validation_base@_WV?$string_output_adapter@_W@__crt_stdio_output@@@2@@__crt_stdio_output@@AAE_NXZ 1005ff30 f i libucrtd:output.obj
 0001:0005ef60       ?type_case_p@?$output_processor@_WV?$string_output_adapter@_W@__crt_stdio_output@@V?$positional_parameter_base@_WV?$string_output_adapter@_W@__crt_stdio_output@@@2@@__crt_stdio_output@@AAE_NXZ 1005ff60 f i libucrtd:output.obj
 0001:0005ef90       ?type_case_p@?$output_processor@_WV?$string_output_adapter@_W@__crt_stdio_output@@V?$standard_base@_WV?$string_output_adapter@_W@__crt_stdio_output@@@2@@__crt_stdio_output@@AAE_NXZ 1005ff90 f i libucrtd:output.obj
 0001:0005efc0       ?type_case_s@?$output_processor@DV?$stream_output_adapter@D@__crt_stdio_output@@V?$format_validation_base@DV?$stream_output_adapter@D@__crt_stdio_output@@@2@@__crt_stdio_output@@AAE_NXZ 1005ffc0 f i libucrtd:output.obj
 0001:0005f0b0       ?type_case_s@?$output_processor@DV?$stream_output_adapter@D@__crt_stdio_output@@V?$positional_parameter_base@DV?$stream_output_adapter@D@__crt_stdio_output@@@2@@__crt_stdio_output@@AAE_NXZ 100600b0 f i libucrtd:output.obj
 0001:0005f1a0       ?type_case_s@?$output_processor@DV?$stream_output_adapter@D@__crt_stdio_output@@V?$standard_base@DV?$stream_output_adapter@D@__crt_stdio_output@@@2@@__crt_stdio_output@@AAE_NXZ 100601a0 f i libucrtd:output.obj
 0001:0005f290       ?type_case_s@?$output_processor@DV?$string_output_adapter@D@__crt_stdio_output@@V?$format_validation_base@DV?$string_output_adapter@D@__crt_stdio_output@@@2@@__crt_stdio_output@@AAE_NXZ 10060290 f i libucrtd:output.obj
 0001:0005f380       ?type_case_s@?$output_processor@DV?$string_output_adapter@D@__crt_stdio_output@@V?$positional_parameter_base@DV?$string_output_adapter@D@__crt_stdio_output@@@2@@__crt_stdio_output@@AAE_NXZ 10060380 f i libucrtd:output.obj
 0001:0005f470       ?type_case_s@?$output_processor@DV?$string_output_adapter@D@__crt_stdio_output@@V?$standard_base@DV?$string_output_adapter@D@__crt_stdio_output@@@2@@__crt_stdio_output@@AAE_NXZ 10060470 f i libucrtd:output.obj
 0001:0005f560       ?type_case_s@?$output_processor@_WV?$stream_output_adapter@_W@__crt_stdio_output@@V?$format_validation_base@_WV?$stream_output_adapter@_W@__crt_stdio_output@@@2@@__crt_stdio_output@@AAE_NXZ 10060560 f i libucrtd:output.obj
 0001:0005f650       ?type_case_s@?$output_processor@_WV?$stream_output_adapter@_W@__crt_stdio_output@@V?$positional_parameter_base@_WV?$stream_output_adapter@_W@__crt_stdio_output@@@2@@__crt_stdio_output@@AAE_NXZ 10060650 f i libucrtd:output.obj
 0001:0005f740       ?type_case_s@?$output_processor@_WV?$stream_output_adapter@_W@__crt_stdio_output@@V?$standard_base@_WV?$stream_output_adapter@_W@__crt_stdio_output@@@2@@__crt_stdio_output@@AAE_NXZ 10060740 f i libucrtd:output.obj
 0001:0005f830       ?type_case_s@?$output_processor@_WV?$string_output_adapter@_W@__crt_stdio_output@@V?$format_validation_base@_WV?$string_output_adapter@_W@__crt_stdio_output@@@2@@__crt_stdio_output@@AAE_NXZ 10060830 f i libucrtd:output.obj
 0001:0005f920       ?type_case_s@?$output_processor@_WV?$string_output_adapter@_W@__crt_stdio_output@@V?$positional_parameter_base@_WV?$string_output_adapter@_W@__crt_stdio_output@@@2@@__crt_stdio_output@@AAE_NXZ 10060920 f i libucrtd:output.obj
 0001:0005fa10       ?type_case_s@?$output_processor@_WV?$string_output_adapter@_W@__crt_stdio_output@@V?$standard_base@_WV?$string_output_adapter@_W@__crt_stdio_output@@@2@@__crt_stdio_output@@AAE_NXZ 10060a10 f i libucrtd:output.obj
 0001:0005fb00       ?type_case_s_compute_narrow_string_length@?$output_processor@DV?$stream_output_adapter@D@__crt_stdio_output@@V?$format_validation_base@DV?$stream_output_adapter@D@__crt_stdio_output@@@2@@__crt_stdio_output@@ABEHHD@Z 10060b00 f i libucrtd:output.obj
 0001:0005fb30       ?type_case_s_compute_narrow_string_length@?$output_processor@DV?$stream_output_adapter@D@__crt_stdio_output@@V?$positional_parameter_base@DV?$stream_output_adapter@D@__crt_stdio_output@@@2@@__crt_stdio_output@@ABEHHD@Z 10060b30 f i libucrtd:output.obj
 0001:0005fb60       ?type_case_s_compute_narrow_string_length@?$output_processor@DV?$stream_output_adapter@D@__crt_stdio_output@@V?$standard_base@DV?$stream_output_adapter@D@__crt_stdio_output@@@2@@__crt_stdio_output@@ABEHHD@Z 10060b60 f i libucrtd:output.obj
 0001:0005fb90       ?type_case_s_compute_narrow_string_length@?$output_processor@DV?$string_output_adapter@D@__crt_stdio_output@@V?$format_validation_base@DV?$string_output_adapter@D@__crt_stdio_output@@@2@@__crt_stdio_output@@ABEHHD@Z 10060b90 f i libucrtd:output.obj
 0001:0005fbc0       ?type_case_s_compute_narrow_string_length@?$output_processor@DV?$string_output_adapter@D@__crt_stdio_output@@V?$positional_parameter_base@DV?$string_output_adapter@D@__crt_stdio_output@@@2@@__crt_stdio_output@@ABEHHD@Z 10060bc0 f i libucrtd:output.obj
 0001:0005fbf0       ?type_case_s_compute_narrow_string_length@?$output_processor@DV?$string_output_adapter@D@__crt_stdio_output@@V?$standard_base@DV?$string_output_adapter@D@__crt_stdio_output@@@2@@__crt_stdio_output@@ABEHHD@Z 10060bf0 f i libucrtd:output.obj
 0001:0005fc20       ?type_case_s_compute_narrow_string_length@?$output_processor@_WV?$stream_output_adapter@_W@__crt_stdio_output@@V?$format_validation_base@_WV?$stream_output_adapter@_W@__crt_stdio_output@@@2@@__crt_stdio_output@@ABEHH_W@Z 10060c20 f i libucrtd:output.obj
 0001:0005fc90       ?type_case_s_compute_narrow_string_length@?$output_processor@_WV?$stream_output_adapter@_W@__crt_stdio_output@@V?$positional_parameter_base@_WV?$stream_output_adapter@_W@__crt_stdio_output@@@2@@__crt_stdio_output@@ABEHH_W@Z 10060c90 f i libucrtd:output.obj
 0001:0005fd00       ?type_case_s_compute_narrow_string_length@?$output_processor@_WV?$stream_output_adapter@_W@__crt_stdio_output@@V?$standard_base@_WV?$stream_output_adapter@_W@__crt_stdio_output@@@2@@__crt_stdio_output@@ABEHH_W@Z 10060d00 f i libucrtd:output.obj
 0001:0005fd70       ?type_case_s_compute_narrow_string_length@?$output_processor@_WV?$string_output_adapter@_W@__crt_stdio_output@@V?$format_validation_base@_WV?$string_output_adapter@_W@__crt_stdio_output@@@2@@__crt_stdio_output@@ABEHH_W@Z 10060d70 f i libucrtd:output.obj
 0001:0005fde0       ?type_case_s_compute_narrow_string_length@?$output_processor@_WV?$string_output_adapter@_W@__crt_stdio_output@@V?$positional_parameter_base@_WV?$string_output_adapter@_W@__crt_stdio_output@@@2@@__crt_stdio_output@@ABEHH_W@Z 10060de0 f i libucrtd:output.obj
 0001:0005fe50       ?type_case_s_compute_narrow_string_length@?$output_processor@_WV?$string_output_adapter@_W@__crt_stdio_output@@V?$standard_base@_WV?$string_output_adapter@_W@__crt_stdio_output@@@2@@__crt_stdio_output@@ABEHH_W@Z 10060e50 f i libucrtd:output.obj
 0001:0005fec0       ?type_case_u@?$output_processor@DV?$stream_output_adapter@D@__crt_stdio_output@@V?$format_validation_base@DV?$stream_output_adapter@D@__crt_stdio_output@@@2@@__crt_stdio_output@@AAE_NXZ 10060ec0 f i libucrtd:output.obj
 0001:0005fee0       ?type_case_u@?$output_processor@DV?$stream_output_adapter@D@__crt_stdio_output@@V?$positional_parameter_base@DV?$stream_output_adapter@D@__crt_stdio_output@@@2@@__crt_stdio_output@@AAE_NXZ 10060ee0 f i libucrtd:output.obj
 0001:0005ff00       ?type_case_u@?$output_processor@DV?$stream_output_adapter@D@__crt_stdio_output@@V?$standard_base@DV?$stream_output_adapter@D@__crt_stdio_output@@@2@@__crt_stdio_output@@AAE_NXZ 10060f00 f i libucrtd:output.obj
 0001:0005ff20       ?type_case_u@?$output_processor@DV?$string_output_adapter@D@__crt_stdio_output@@V?$format_validation_base@DV?$string_output_adapter@D@__crt_stdio_output@@@2@@__crt_stdio_output@@AAE_NXZ 10060f20 f i libucrtd:output.obj
 0001:0005ff40       ?type_case_u@?$output_processor@DV?$string_output_adapter@D@__crt_stdio_output@@V?$positional_parameter_base@DV?$string_output_adapter@D@__crt_stdio_output@@@2@@__crt_stdio_output@@AAE_NXZ 10060f40 f i libucrtd:output.obj
 0001:0005ff60       ?type_case_u@?$output_processor@DV?$string_output_adapter@D@__crt_stdio_output@@V?$standard_base@DV?$string_output_adapter@D@__crt_stdio_output@@@2@@__crt_stdio_output@@AAE_NXZ 10060f60 f i libucrtd:output.obj
 0001:0005ff80       ?type_case_u@?$output_processor@_WV?$stream_output_adapter@_W@__crt_stdio_output@@V?$format_validation_base@_WV?$stream_output_adapter@_W@__crt_stdio_output@@@2@@__crt_stdio_output@@AAE_NXZ 10060f80 f i libucrtd:output.obj
 0001:0005ffa0       ?type_case_u@?$output_processor@_WV?$stream_output_adapter@_W@__crt_stdio_output@@V?$positional_parameter_base@_WV?$stream_output_adapter@_W@__crt_stdio_output@@@2@@__crt_stdio_output@@AAE_NXZ 10060fa0 f i libucrtd:output.obj
 0001:0005ffc0       ?type_case_u@?$output_processor@_WV?$stream_output_adapter@_W@__crt_stdio_output@@V?$standard_base@_WV?$stream_output_adapter@_W@__crt_stdio_output@@@2@@__crt_stdio_output@@AAE_NXZ 10060fc0 f i libucrtd:output.obj
 0001:0005ffe0       ?type_case_u@?$output_processor@_WV?$string_output_adapter@_W@__crt_stdio_output@@V?$format_validation_base@_WV?$string_output_adapter@_W@__crt_stdio_output@@@2@@__crt_stdio_output@@AAE_NXZ 10060fe0 f i libucrtd:output.obj
 0001:00060000       ?type_case_u@?$output_processor@_WV?$string_output_adapter@_W@__crt_stdio_output@@V?$positional_parameter_base@_WV?$string_output_adapter@_W@__crt_stdio_output@@@2@@__crt_stdio_output@@AAE_NXZ 10061000 f i libucrtd:output.obj
 0001:00060020       ?type_case_u@?$output_processor@_WV?$string_output_adapter@_W@__crt_stdio_output@@V?$standard_base@_WV?$string_output_adapter@_W@__crt_stdio_output@@@2@@__crt_stdio_output@@AAE_NXZ 10061020 f i libucrtd:output.obj
 0001:00060040       ?type_case_x@?$output_processor@DV?$stream_output_adapter@D@__crt_stdio_output@@V?$format_validation_base@DV?$stream_output_adapter@D@__crt_stdio_output@@@2@@__crt_stdio_output@@AAE_NXZ 10061040 f i libucrtd:output.obj
 0001:00060060       ?type_case_x@?$output_processor@DV?$stream_output_adapter@D@__crt_stdio_output@@V?$positional_parameter_base@DV?$stream_output_adapter@D@__crt_stdio_output@@@2@@__crt_stdio_output@@AAE_NXZ 10061060 f i libucrtd:output.obj
 0001:00060080       ?type_case_x@?$output_processor@DV?$stream_output_adapter@D@__crt_stdio_output@@V?$standard_base@DV?$stream_output_adapter@D@__crt_stdio_output@@@2@@__crt_stdio_output@@AAE_NXZ 10061080 f i libucrtd:output.obj
 0001:000600a0       ?type_case_x@?$output_processor@DV?$string_output_adapter@D@__crt_stdio_output@@V?$format_validation_base@DV?$string_output_adapter@D@__crt_stdio_output@@@2@@__crt_stdio_output@@AAE_NXZ 100610a0 f i libucrtd:output.obj
 0001:000600c0       ?type_case_x@?$output_processor@DV?$string_output_adapter@D@__crt_stdio_output@@V?$positional_parameter_base@DV?$string_output_adapter@D@__crt_stdio_output@@@2@@__crt_stdio_output@@AAE_NXZ 100610c0 f i libucrtd:output.obj
 0001:000600e0       ?type_case_x@?$output_processor@DV?$string_output_adapter@D@__crt_stdio_output@@V?$standard_base@DV?$string_output_adapter@D@__crt_stdio_output@@@2@@__crt_stdio_output@@AAE_NXZ 100610e0 f i libucrtd:output.obj
 0001:00060100       ?type_case_x@?$output_processor@_WV?$stream_output_adapter@_W@__crt_stdio_output@@V?$format_validation_base@_WV?$stream_output_adapter@_W@__crt_stdio_output@@@2@@__crt_stdio_output@@AAE_NXZ 10061100 f i libucrtd:output.obj
 0001:00060120       ?type_case_x@?$output_processor@_WV?$stream_output_adapter@_W@__crt_stdio_output@@V?$positional_parameter_base@_WV?$stream_output_adapter@_W@__crt_stdio_output@@@2@@__crt_stdio_output@@AAE_NXZ 10061120 f i libucrtd:output.obj
 0001:00060140       ?type_case_x@?$output_processor@_WV?$stream_output_adapter@_W@__crt_stdio_output@@V?$standard_base@_WV?$stream_output_adapter@_W@__crt_stdio_output@@@2@@__crt_stdio_output@@AAE_NXZ 10061140 f i libucrtd:output.obj
 0001:00060160       ?type_case_x@?$output_processor@_WV?$string_output_adapter@_W@__crt_stdio_output@@V?$format_validation_base@_WV?$string_output_adapter@_W@__crt_stdio_output@@@2@@__crt_stdio_output@@AAE_NXZ 10061160 f i libucrtd:output.obj
 0001:00060180       ?type_case_x@?$output_processor@_WV?$string_output_adapter@_W@__crt_stdio_output@@V?$positional_parameter_base@_WV?$string_output_adapter@_W@__crt_stdio_output@@@2@@__crt_stdio_output@@AAE_NXZ 10061180 f i libucrtd:output.obj
 0001:000601a0       ?type_case_x@?$output_processor@_WV?$string_output_adapter@_W@__crt_stdio_output@@V?$standard_base@_WV?$string_output_adapter@_W@__crt_stdio_output@@@2@@__crt_stdio_output@@AAE_NXZ 100611a0 f i libucrtd:output.obj
 0001:000601c0       ?unset_flag@?$output_processor@DV?$stream_output_adapter@D@__crt_stdio_output@@V?$format_validation_base@DV?$stream_output_adapter@D@__crt_stdio_output@@@2@@__crt_stdio_output@@AAEXI@Z 100611c0 f i libucrtd:output.obj
 0001:000601e0       ?unset_flag@?$output_processor@DV?$stream_output_adapter@D@__crt_stdio_output@@V?$positional_parameter_base@DV?$stream_output_adapter@D@__crt_stdio_output@@@2@@__crt_stdio_output@@AAEXI@Z 100611e0 f i libucrtd:output.obj
 0001:00060200       ?unset_flag@?$output_processor@DV?$stream_output_adapter@D@__crt_stdio_output@@V?$standard_base@DV?$stream_output_adapter@D@__crt_stdio_output@@@2@@__crt_stdio_output@@AAEXI@Z 10061200 f i libucrtd:output.obj
 0001:00060220       ?unset_flag@?$output_processor@DV?$string_output_adapter@D@__crt_stdio_output@@V?$format_validation_base@DV?$string_output_adapter@D@__crt_stdio_output@@@2@@__crt_stdio_output@@AAEXI@Z 10061220 f i libucrtd:output.obj
 0001:00060240       ?unset_flag@?$output_processor@DV?$string_output_adapter@D@__crt_stdio_output@@V?$positional_parameter_base@DV?$string_output_adapter@D@__crt_stdio_output@@@2@@__crt_stdio_output@@AAEXI@Z 10061240 f i libucrtd:output.obj
 0001:00060260       ?unset_flag@?$output_processor@DV?$string_output_adapter@D@__crt_stdio_output@@V?$standard_base@DV?$string_output_adapter@D@__crt_stdio_output@@@2@@__crt_stdio_output@@AAEXI@Z 10061260 f i libucrtd:output.obj
 0001:00060280       ?unset_flag@?$output_processor@_WV?$stream_output_adapter@_W@__crt_stdio_output@@V?$format_validation_base@_WV?$stream_output_adapter@_W@__crt_stdio_output@@@2@@__crt_stdio_output@@AAEXI@Z 10061280 f i libucrtd:output.obj
 0001:000602a0       ?unset_flag@?$output_processor@_WV?$stream_output_adapter@_W@__crt_stdio_output@@V?$positional_parameter_base@_WV?$stream_output_adapter@_W@__crt_stdio_output@@@2@@__crt_stdio_output@@AAEXI@Z 100612a0 f i libucrtd:output.obj
 0001:000602c0       ?unset_flag@?$output_processor@_WV?$stream_output_adapter@_W@__crt_stdio_output@@V?$standard_base@_WV?$stream_output_adapter@_W@__crt_stdio_output@@@2@@__crt_stdio_output@@AAEXI@Z 100612c0 f i libucrtd:output.obj
 0001:000602e0       ?unset_flag@?$output_processor@_WV?$string_output_adapter@_W@__crt_stdio_output@@V?$format_validation_base@_WV?$string_output_adapter@_W@__crt_stdio_output@@@2@@__crt_stdio_output@@AAEXI@Z 100612e0 f i libucrtd:output.obj
 0001:00060300       ?unset_flag@?$output_processor@_WV?$string_output_adapter@_W@__crt_stdio_output@@V?$positional_parameter_base@_WV?$string_output_adapter@_W@__crt_stdio_output@@@2@@__crt_stdio_output@@AAEXI@Z 10061300 f i libucrtd:output.obj
 0001:00060320       ?unset_flag@?$output_processor@_WV?$string_output_adapter@_W@__crt_stdio_output@@V?$standard_base@_WV?$string_output_adapter@_W@__crt_stdio_output@@@2@@__crt_stdio_output@@AAEXI@Z 10061320 f i libucrtd:output.obj
 0001:00060340       ?update_field_width@?$positional_parameter_base@DV?$stream_output_adapter@D@__crt_stdio_output@@@__crt_stdio_output@@IAE_NXZ 10061340 f i libucrtd:output.obj
 0001:000604c0       ?update_field_width@?$positional_parameter_base@DV?$string_output_adapter@D@__crt_stdio_output@@@__crt_stdio_output@@IAE_NXZ 100614c0 f i libucrtd:output.obj
 0001:00060640       ?update_field_width@?$positional_parameter_base@_WV?$stream_output_adapter@_W@__crt_stdio_output@@@__crt_stdio_output@@IAE_NXZ 10061640 f i libucrtd:output.obj
 0001:000607c0       ?update_field_width@?$positional_parameter_base@_WV?$string_output_adapter@_W@__crt_stdio_output@@@__crt_stdio_output@@IAE_NXZ 100617c0 f i libucrtd:output.obj
 0001:00060940       ?update_field_width@?$standard_base@DV?$stream_output_adapter@D@__crt_stdio_output@@@__crt_stdio_output@@IAE_NXZ 10061940 f i libucrtd:output.obj
 0001:00060970       ?update_field_width@?$standard_base@DV?$string_output_adapter@D@__crt_stdio_output@@@__crt_stdio_output@@IAE_NXZ 10061970 f i libucrtd:output.obj
 0001:000609a0       ?update_field_width@?$standard_base@_WV?$stream_output_adapter@_W@__crt_stdio_output@@@__crt_stdio_output@@IAE_NXZ 100619a0 f i libucrtd:output.obj
 0001:000609d0       ?update_field_width@?$standard_base@_WV?$string_output_adapter@_W@__crt_stdio_output@@@__crt_stdio_output@@IAE_NXZ 100619d0 f i libucrtd:output.obj
 0001:00060a00       ?update_precision@?$positional_parameter_base@DV?$stream_output_adapter@D@__crt_stdio_output@@@__crt_stdio_output@@IAE_NXZ 10061a00 f i libucrtd:output.obj
 0001:00060b80       ?update_precision@?$positional_parameter_base@DV?$string_output_adapter@D@__crt_stdio_output@@@__crt_stdio_output@@IAE_NXZ 10061b80 f i libucrtd:output.obj
 0001:00060d00       ?update_precision@?$positional_parameter_base@_WV?$stream_output_adapter@_W@__crt_stdio_output@@@__crt_stdio_output@@IAE_NXZ 10061d00 f i libucrtd:output.obj
 0001:00060e80       ?update_precision@?$positional_parameter_base@_WV?$string_output_adapter@_W@__crt_stdio_output@@@__crt_stdio_output@@IAE_NXZ 10061e80 f i libucrtd:output.obj
 0001:00061000       ?update_precision@?$standard_base@DV?$stream_output_adapter@D@__crt_stdio_output@@@__crt_stdio_output@@IAE_NXZ 10062000 f i libucrtd:output.obj
 0001:00061030       ?update_precision@?$standard_base@DV?$string_output_adapter@D@__crt_stdio_output@@@__crt_stdio_output@@IAE_NXZ 10062030 f i libucrtd:output.obj
 0001:00061060       ?update_precision@?$standard_base@_WV?$stream_output_adapter@_W@__crt_stdio_output@@@__crt_stdio_output@@IAE_NXZ 10062060 f i libucrtd:output.obj
 0001:00061090       ?update_precision@?$standard_base@_WV?$string_output_adapter@_W@__crt_stdio_output@@@__crt_stdio_output@@IAE_NXZ 10062090 f i libucrtd:output.obj
 0001:000610c0       ?valid@__crt_stdio_stream@@QBE_NXZ 100620c0 f i libucrtd:output.obj
 0001:000610f0       ?validate@?$stream_output_adapter@D@__crt_stdio_output@@QBE_NXZ 100620f0 f i libucrtd:output.obj
 0001:000611a0       ?validate@?$stream_output_adapter@_W@__crt_stdio_output@@QBE_NXZ 100621a0 f i libucrtd:output.obj
 0001:00061250       ?validate@?$string_output_adapter@D@__crt_stdio_output@@QBE_NXZ 10062250 f i libucrtd:output.obj
 0001:000612e0       ?validate@?$string_output_adapter@_W@__crt_stdio_output@@QBE_NXZ 100622e0 f i libucrtd:output.obj
 0001:00061370       ?validate_and_store_parameter_data@?$positional_parameter_base@DV?$stream_output_adapter@D@__crt_stdio_output@@@__crt_stdio_output@@AAE_NAAUparameter_data@12@W4parameter_type@12@DW4length_modifier@2@@Z 10062370 f i libucrtd:output.obj
 0001:00061440       ?validate_and_store_parameter_data@?$positional_parameter_base@DV?$string_output_adapter@D@__crt_stdio_output@@@__crt_stdio_output@@AAE_NAAUparameter_data@12@W4parameter_type@12@DW4length_modifier@2@@Z 10062440 f i libucrtd:output.obj
 0001:00061510       ?validate_and_store_parameter_data@?$positional_parameter_base@_WV?$stream_output_adapter@_W@__crt_stdio_output@@@__crt_stdio_output@@AAE_NAAUparameter_data@12@W4parameter_type@12@_WW4length_modifier@2@@Z 10062510 f i libucrtd:output.obj
 0001:000615f0       ?validate_and_store_parameter_data@?$positional_parameter_base@_WV?$string_output_adapter@_W@__crt_stdio_output@@@__crt_stdio_output@@AAE_NAAUparameter_data@12@W4parameter_type@12@_WW4length_modifier@2@@Z 100625f0 f i libucrtd:output.obj
 0001:000616d0       ?validate_and_update_state_at_beginning_of_format_character@?$positional_parameter_base@DV?$stream_output_adapter@D@__crt_stdio_output@@@__crt_stdio_output@@IAE_NXZ 100626d0 f i libucrtd:output.obj
 0001:000618f0       ?validate_and_update_state_at_beginning_of_format_character@?$positional_parameter_base@DV?$string_output_adapter@D@__crt_stdio_output@@@__crt_stdio_output@@IAE_NXZ 100628f0 f i libucrtd:output.obj
 0001:00061b10       ?validate_and_update_state_at_beginning_of_format_character@?$positional_parameter_base@_WV?$stream_output_adapter@_W@__crt_stdio_output@@@__crt_stdio_output@@IAE_NXZ 10062b10 f i libucrtd:output.obj
 0001:00061d30       ?validate_and_update_state_at_beginning_of_format_character@?$positional_parameter_base@_WV?$string_output_adapter@_W@__crt_stdio_output@@@__crt_stdio_output@@IAE_NXZ 10062d30 f i libucrtd:output.obj
 0001:00061f50       ?validate_and_update_state_at_beginning_of_format_character@?$standard_base@DV?$stream_output_adapter@D@__crt_stdio_output@@@__crt_stdio_output@@IAE_NXZ 10062f50 f i libucrtd:output.obj
 0001:00061f60       ?validate_and_update_state_at_beginning_of_format_character@?$standard_base@DV?$string_output_adapter@D@__crt_stdio_output@@@__crt_stdio_output@@IAE_NXZ 10062f60 f i libucrtd:output.obj
 0001:00061f70       ?validate_and_update_state_at_beginning_of_format_character@?$standard_base@_WV?$stream_output_adapter@_W@__crt_stdio_output@@@__crt_stdio_output@@IAE_NXZ 10062f70 f i libucrtd:output.obj
 0001:00061f80       ?validate_and_update_state_at_beginning_of_format_character@?$standard_base@_WV?$string_output_adapter@_W@__crt_stdio_output@@@__crt_stdio_output@@IAE_NXZ 10062f80 f i libucrtd:output.obj
 0001:00061f90       ?validate_and_update_state_at_end_of_format_string@?$format_validation_base@DV?$stream_output_adapter@D@__crt_stdio_output@@@__crt_stdio_output@@IBE_NXZ 10062f90 f i libucrtd:output.obj
 0001:00062030       ?validate_and_update_state_at_end_of_format_string@?$format_validation_base@DV?$string_output_adapter@D@__crt_stdio_output@@@__crt_stdio_output@@IBE_NXZ 10063030 f i libucrtd:output.obj
 0001:000620d0       ?validate_and_update_state_at_end_of_format_string@?$format_validation_base@_WV?$stream_output_adapter@_W@__crt_stdio_output@@@__crt_stdio_output@@IBE_NXZ 100630d0 f i libucrtd:output.obj
 0001:00062170       ?validate_and_update_state_at_end_of_format_string@?$format_validation_base@_WV?$string_output_adapter@_W@__crt_stdio_output@@@__crt_stdio_output@@IBE_NXZ 10063170 f i libucrtd:output.obj
 0001:00062210       ?validate_and_update_state_at_end_of_format_string@?$positional_parameter_base@DV?$stream_output_adapter@D@__crt_stdio_output@@@__crt_stdio_output@@IAE_NXZ 10063210 f i libucrtd:output.obj
 0001:000623b0       ?validate_and_update_state_at_end_of_format_string@?$positional_parameter_base@DV?$string_output_adapter@D@__crt_stdio_output@@@__crt_stdio_output@@IAE_NXZ 100633b0 f i libucrtd:output.obj
 0001:00062550       ?validate_and_update_state_at_end_of_format_string@?$positional_parameter_base@_WV?$stream_output_adapter@_W@__crt_stdio_output@@@__crt_stdio_output@@IAE_NXZ 10063550 f i libucrtd:output.obj
 0001:000626f0       ?validate_and_update_state_at_end_of_format_string@?$positional_parameter_base@_WV?$string_output_adapter@_W@__crt_stdio_output@@@__crt_stdio_output@@IAE_NXZ 100636f0 f i libucrtd:output.obj
 0001:00062890       ?validate_and_update_state_at_end_of_format_string@?$standard_base@DV?$stream_output_adapter@D@__crt_stdio_output@@@__crt_stdio_output@@IBE_NXZ 10063890 f i libucrtd:output.obj
 0001:000628a0       ?validate_and_update_state_at_end_of_format_string@?$standard_base@DV?$string_output_adapter@D@__crt_stdio_output@@@__crt_stdio_output@@IBE_NXZ 100638a0 f i libucrtd:output.obj
 0001:000628b0       ?validate_and_update_state_at_end_of_format_string@?$standard_base@_WV?$stream_output_adapter@_W@__crt_stdio_output@@@__crt_stdio_output@@IBE_NXZ 100638b0 f i libucrtd:output.obj
 0001:000628c0       ?validate_and_update_state_at_end_of_format_string@?$standard_base@_WV?$string_output_adapter@_W@__crt_stdio_output@@@__crt_stdio_output@@IBE_NXZ 100638c0 f i libucrtd:output.obj
 0001:000628d0       ?validate_state_for_type_case_a@?$positional_parameter_base@DV?$stream_output_adapter@D@__crt_stdio_output@@@__crt_stdio_output@@IAE_NXZ 100638d0 f i libucrtd:output.obj
 0001:000629c0       ?validate_state_for_type_case_a@?$positional_parameter_base@DV?$string_output_adapter@D@__crt_stdio_output@@@__crt_stdio_output@@IAE_NXZ 100639c0 f i libucrtd:output.obj
 0001:00062ab0       ?validate_state_for_type_case_a@?$positional_parameter_base@_WV?$stream_output_adapter@_W@__crt_stdio_output@@@__crt_stdio_output@@IAE_NXZ 10063ab0 f i libucrtd:output.obj
 0001:00062ba0       ?validate_state_for_type_case_a@?$positional_parameter_base@_WV?$string_output_adapter@_W@__crt_stdio_output@@@__crt_stdio_output@@IAE_NXZ 10063ba0 f i libucrtd:output.obj
 0001:00062c90       ?validate_state_for_type_case_a@?$standard_base@DV?$stream_output_adapter@D@__crt_stdio_output@@@__crt_stdio_output@@IBE_NXZ 10063c90 f i libucrtd:output.obj
 0001:00062ca0       ?validate_state_for_type_case_a@?$standard_base@DV?$string_output_adapter@D@__crt_stdio_output@@@__crt_stdio_output@@IBE_NXZ 10063ca0 f i libucrtd:output.obj
 0001:00062cb0       ?validate_state_for_type_case_a@?$standard_base@_WV?$stream_output_adapter@_W@__crt_stdio_output@@@__crt_stdio_output@@IBE_NXZ 10063cb0 f i libucrtd:output.obj
 0001:00062cc0       ?validate_state_for_type_case_a@?$standard_base@_WV?$string_output_adapter@_W@__crt_stdio_output@@@__crt_stdio_output@@IBE_NXZ 10063cc0 f i libucrtd:output.obj
 0001:00062cd0       ?validate_stream_is_ansi_if_required@?$__acrt_stdio_char_traits@D@@SA_NQAU_iobuf@@@Z 10063cd0 f i libucrtd:output.obj
 0001:00062e00       ?validate_stream_is_ansi_if_required@?$__acrt_stdio_char_traits@_W@@SA_NQAU_iobuf@@@Z 10063e00 f i libucrtd:output.obj
 0001:00062e10       ?wide_null_string@?$output_processor@DV?$stream_output_adapter@D@__crt_stdio_output@@V?$format_validation_base@DV?$stream_output_adapter@D@__crt_stdio_output@@@2@@__crt_stdio_output@@CAPA_WXZ 10063e10 f i libucrtd:output.obj
 0001:00062e20       ?wide_null_string@?$output_processor@DV?$stream_output_adapter@D@__crt_stdio_output@@V?$positional_parameter_base@DV?$stream_output_adapter@D@__crt_stdio_output@@@2@@__crt_stdio_output@@CAPA_WXZ 10063e20 f i libucrtd:output.obj
 0001:00062e30       ?wide_null_string@?$output_processor@DV?$stream_output_adapter@D@__crt_stdio_output@@V?$standard_base@DV?$stream_output_adapter@D@__crt_stdio_output@@@2@@__crt_stdio_output@@CAPA_WXZ 10063e30 f i libucrtd:output.obj
 0001:00062e40       ?wide_null_string@?$output_processor@DV?$string_output_adapter@D@__crt_stdio_output@@V?$format_validation_base@DV?$string_output_adapter@D@__crt_stdio_output@@@2@@__crt_stdio_output@@CAPA_WXZ 10063e40 f i libucrtd:output.obj
 0001:00062e50       ?wide_null_string@?$output_processor@DV?$string_output_adapter@D@__crt_stdio_output@@V?$positional_parameter_base@DV?$string_output_adapter@D@__crt_stdio_output@@@2@@__crt_stdio_output@@CAPA_WXZ 10063e50 f i libucrtd:output.obj
 0001:00062e60       ?wide_null_string@?$output_processor@DV?$string_output_adapter@D@__crt_stdio_output@@V?$standard_base@DV?$string_output_adapter@D@__crt_stdio_output@@@2@@__crt_stdio_output@@CAPA_WXZ 10063e60 f i libucrtd:output.obj
 0001:00062e70       ?wide_null_string@?$output_processor@_WV?$stream_output_adapter@_W@__crt_stdio_output@@V?$format_validation_base@_WV?$stream_output_adapter@_W@__crt_stdio_output@@@2@@__crt_stdio_output@@CAPA_WXZ 10063e70 f i libucrtd:output.obj
 0001:00062e80       ?wide_null_string@?$output_processor@_WV?$stream_output_adapter@_W@__crt_stdio_output@@V?$positional_parameter_base@_WV?$stream_output_adapter@_W@__crt_stdio_output@@@2@@__crt_stdio_output@@CAPA_WXZ 10063e80 f i libucrtd:output.obj
 0001:00062e90       ?wide_null_string@?$output_processor@_WV?$stream_output_adapter@_W@__crt_stdio_output@@V?$standard_base@_WV?$stream_output_adapter@_W@__crt_stdio_output@@@2@@__crt_stdio_output@@CAPA_WXZ 10063e90 f i libucrtd:output.obj
 0001:00062ea0       ?wide_null_string@?$output_processor@_WV?$string_output_adapter@_W@__crt_stdio_output@@V?$format_validation_base@_WV?$string_output_adapter@_W@__crt_stdio_output@@@2@@__crt_stdio_output@@CAPA_WXZ 10063ea0 f i libucrtd:output.obj
 0001:00062eb0       ?wide_null_string@?$output_processor@_WV?$string_output_adapter@_W@__crt_stdio_output@@V?$positional_parameter_base@_WV?$string_output_adapter@_W@__crt_stdio_output@@@2@@__crt_stdio_output@@CAPA_WXZ 10063eb0 f i libucrtd:output.obj
 0001:00062ec0       ?wide_null_string@?$output_processor@_WV?$string_output_adapter@_W@__crt_stdio_output@@V?$standard_base@_WV?$string_output_adapter@_W@__crt_stdio_output@@@2@@__crt_stdio_output@@CAPA_WXZ 10063ec0 f i libucrtd:output.obj
 0001:00062ed0       ?write_character@?$output_adapter_common@DV?$stream_output_adapter@D@__crt_stdio_output@@@__crt_stdio_output@@QBEXDQAH@Z 10063ed0 f i libucrtd:output.obj
 0001:00062f10       ?write_character@?$output_adapter_common@_WV?$stream_output_adapter@_W@__crt_stdio_output@@@__crt_stdio_output@@QBEX_WQAH@Z 10063f10 f i libucrtd:output.obj
 0001:00062f50       ?write_character@?$string_output_adapter@D@__crt_stdio_output@@QBE_NDQAH@Z 10063f50 f i libucrtd:output.obj
 0001:00062fe0       ?write_character@?$string_output_adapter@_W@__crt_stdio_output@@QBE_N_WQAH@Z 10063fe0 f i libucrtd:output.obj
 0001:00063080       ?write_character_without_count_update@?$stream_output_adapter@D@__crt_stdio_output@@QBE_ND@Z 10064080 f i libucrtd:output.obj
 0001:000630f0       ?write_character_without_count_update@?$stream_output_adapter@_W@__crt_stdio_output@@QBE_N_W@Z 100640f0 f i libucrtd:output.obj
 0001:00063160       ?write_stored_string_tchar@?$output_processor@DV?$stream_output_adapter@D@__crt_stdio_output@@V?$format_validation_base@DV?$stream_output_adapter@D@__crt_stdio_output@@@2@@__crt_stdio_output@@AAE_ND@Z 10064160 f i libucrtd:output.obj
 0001:00063270       ?write_stored_string_tchar@?$output_processor@DV?$stream_output_adapter@D@__crt_stdio_output@@V?$positional_parameter_base@DV?$stream_output_adapter@D@__crt_stdio_output@@@2@@__crt_stdio_output@@AAE_ND@Z 10064270 f i libucrtd:output.obj
 0001:00063380       ?write_stored_string_tchar@?$output_processor@DV?$stream_output_adapter@D@__crt_stdio_output@@V?$standard_base@DV?$stream_output_adapter@D@__crt_stdio_output@@@2@@__crt_stdio_output@@AAE_ND@Z 10064380 f i libucrtd:output.obj
 0001:00063490       ?write_stored_string_tchar@?$output_processor@DV?$string_output_adapter@D@__crt_stdio_output@@V?$format_validation_base@DV?$string_output_adapter@D@__crt_stdio_output@@@2@@__crt_stdio_output@@AAE_ND@Z 10064490 f i libucrtd:output.obj
 0001:000635a0       ?write_stored_string_tchar@?$output_processor@DV?$string_output_adapter@D@__crt_stdio_output@@V?$positional_parameter_base@DV?$string_output_adapter@D@__crt_stdio_output@@@2@@__crt_stdio_output@@AAE_ND@Z 100645a0 f i libucrtd:output.obj
 0001:000636b0       ?write_stored_string_tchar@?$output_processor@DV?$string_output_adapter@D@__crt_stdio_output@@V?$standard_base@DV?$string_output_adapter@D@__crt_stdio_output@@@2@@__crt_stdio_output@@AAE_ND@Z 100646b0 f i libucrtd:output.obj
 0001:000637c0       ?write_stored_string_tchar@?$output_processor@_WV?$stream_output_adapter@_W@__crt_stdio_output@@V?$format_validation_base@_WV?$stream_output_adapter@_W@__crt_stdio_output@@@2@@__crt_stdio_output@@AAE_N_W@Z 100647c0 f i libucrtd:output.obj
 0001:000638b0       ?write_stored_string_tchar@?$output_processor@_WV?$stream_output_adapter@_W@__crt_stdio_output@@V?$positional_parameter_base@_WV?$stream_output_adapter@_W@__crt_stdio_output@@@2@@__crt_stdio_output@@AAE_N_W@Z 100648b0 f i libucrtd:output.obj
 0001:000639a0       ?write_stored_string_tchar@?$output_processor@_WV?$stream_output_adapter@_W@__crt_stdio_output@@V?$standard_base@_WV?$stream_output_adapter@_W@__crt_stdio_output@@@2@@__crt_stdio_output@@AAE_N_W@Z 100649a0 f i libucrtd:output.obj
 0001:00063a90       ?write_stored_string_tchar@?$output_processor@_WV?$string_output_adapter@_W@__crt_stdio_output@@V?$format_validation_base@_WV?$string_output_adapter@_W@__crt_stdio_output@@@2@@__crt_stdio_output@@AAE_N_W@Z 10064a90 f i libucrtd:output.obj
 0001:00063b80       ?write_stored_string_tchar@?$output_processor@_WV?$string_output_adapter@_W@__crt_stdio_output@@V?$positional_parameter_base@_WV?$string_output_adapter@_W@__crt_stdio_output@@@2@@__crt_stdio_output@@AAE_N_W@Z 10064b80 f i libucrtd:output.obj
 0001:00063c70       ?write_stored_string_tchar@?$output_processor@_WV?$string_output_adapter@_W@__crt_stdio_output@@V?$standard_base@_WV?$string_output_adapter@_W@__crt_stdio_output@@@2@@__crt_stdio_output@@AAE_N_W@Z 10064c70 f i libucrtd:output.obj
 0001:00063d60       ?write_string@?$stream_output_adapter@D@__crt_stdio_output@@QBEXQBDHQAHAAV__crt_deferred_errno_cache@@@Z 10064d60 f i libucrtd:output.obj
 0001:00063dc0       ?write_string@?$stream_output_adapter@_W@__crt_stdio_output@@QBEXQB_WHQAHAAV__crt_deferred_errno_cache@@@Z 10064dc0 f i libucrtd:output.obj
 0001:00063e20       ?write_string@?$string_output_adapter@D@__crt_stdio_output@@QBEXQBDHQAHAAV__crt_deferred_errno_cache@@@Z 10064e20 f i libucrtd:output.obj
 0001:00063f20       ?write_string@?$string_output_adapter@_W@__crt_stdio_output@@QBEXQB_WHQAHAAV__crt_deferred_errno_cache@@@Z 10064f20 f i libucrtd:output.obj
 0001:00064030       ?write_string_impl@?$output_adapter_common@DV?$stream_output_adapter@D@__crt_stdio_output@@@__crt_stdio_output@@IBEXQBDHQAHAAV__crt_deferred_errno_cache@@@Z 10065030 f i libucrtd:output.obj
 0001:000640d0       ?write_string_impl@?$output_adapter_common@_WV?$stream_output_adapter@_W@__crt_stdio_output@@@__crt_stdio_output@@IBEXQB_WHQAHAAV__crt_deferred_errno_cache@@@Z 100650d0 f i libucrtd:output.obj
 0001:00064170       ___acrt_isleadbyte_l_noupdate 10065170 f i libucrtd:output.obj
 0001:00064190       ___acrt_locale_changed     10065190 f i libucrtd:output.obj
 0001:000641c0       ___acrt_locale_get_ctype_array_value 100651c0 f i libucrtd:output.obj
 0001:000641f0       ___stdio_common_vfprintf   100651f0 f   libucrtd:output.obj
 0001:00064220       ___stdio_common_vfprintf_p 10065220 f   libucrtd:output.obj
 0001:00064250       ___stdio_common_vfprintf_s 10065250 f   libucrtd:output.obj
 0001:00064280       ___stdio_common_vfwprintf  10065280 f   libucrtd:output.obj
 0001:000642b0       ___stdio_common_vfwprintf_p 100652b0 f   libucrtd:output.obj
 0001:000642e0       ___stdio_common_vfwprintf_s 100652e0 f   libucrtd:output.obj
 0001:00064310       ___stdio_common_vsnprintf_s 10065310 f   libucrtd:output.obj
 0001:00064340       ___stdio_common_vsnwprintf_s 10065340 f   libucrtd:output.obj
 0001:00064370       ___stdio_common_vsprintf   10065370 f   libucrtd:output.obj
 0001:000643a0       ___stdio_common_vsprintf_p 100653a0 f   libucrtd:output.obj
 0001:000643d0       ___stdio_common_vsprintf_s 100653d0 f   libucrtd:output.obj
 0001:00064400       ___stdio_common_vswprintf  10065400 f   libucrtd:output.obj
 0001:00064430       ___stdio_common_vswprintf_p 10065430 f   libucrtd:output.obj
 0001:00064460       ___stdio_common_vswprintf_s 10065460 f   libucrtd:output.obj
 0001:00064490       __ctype_fast_check_internal 10065490 f i libucrtd:output.obj
 0001:000644b0       __isdigit_fast_internal    100654b0 f i libucrtd:output.obj
 0001:000644d0       __tolower_fast_internal    100654d0 f i libucrtd:output.obj
 0001:000644f0       _free                      100654f0 f   libucrtd:free.obj
 0001:00064520       _malloc                    10065520 f   libucrtd:malloc.obj
 0001:00064540       ??$?RU?$__crt_report_hook_node@D@@@__crt_internal_free_policy@@QBEXQBU?$__crt_report_hook_node@D@@@Z 10065540 f i libucrtd:dbgrpt.obj
 0001:00064560       ??$?RU?$__crt_report_hook_node@_W@@@__crt_internal_free_policy@@QBEXQBU?$__crt_report_hook_node@_W@@@Z 10065560 f i libucrtd:dbgrpt.obj
 0001:00065350       ??$get_module_file_name@AAPAUHINSTANCE__@@AAY0BAF@DK@?$__crt_char_traits@D@@SAKAAPAUHINSTANCE__@@AAY0BAF@D$$QAK@Z 10066350 f i libucrtd:dbgrpt.obj
 0001:00065370       ??$get_module_file_name@AAPAUHINSTANCE__@@AAY0BAF@_WK@?$__crt_char_traits@_W@@SAKAAPAUHINSTANCE__@@AAY0BAF@_W$$QAK@Z 10066370 f i libucrtd:dbgrpt.obj
 0001:00065390       ??$tcscpy_s@AAY0BAF@DIPBD@?$__crt_char_traits@D@@SAHAAY0BAF@D$$QAI$$QAPBD@Z 10066390 f i libucrtd:dbgrpt.obj
 0001:000653b0       ??$tcscpy_s@AAY0BAF@_WIPB_W@?$__crt_char_traits@_W@@SAHAAY0BAF@_W$$QAI$$QAPB_W@Z 100663b0 f i libucrtd:dbgrpt.obj
 0001:000653d0       ??$tcslen@AAY0BAF@D@?$__crt_char_traits@D@@SAIAAY0BAF@D@Z 100663d0 f i libucrtd:dbgrpt.obj
 0001:000653f0       ??$tcslen@AAY0BAF@_W@?$__crt_char_traits@_W@@SAIAAY0BAF@_W@Z 100663f0 f i libucrtd:dbgrpt.obj
 0001:00065410       ??$tcslen@ABQBD@?$__crt_char_traits@D@@SAIABQBD@Z 10066410 f i libucrtd:dbgrpt.obj
 0001:00065430       ??$tcslen@ABQB_W@?$__crt_char_traits@_W@@SAIABQB_W@Z 10066430 f i libucrtd:dbgrpt.obj
 0001:00065530       ??0?$__crt_unique_heap_ptr@U?$__crt_report_hook_node@D@@U__crt_internal_free_policy@@@@QAE@QAU?$__crt_report_hook_node@D@@@Z 10066530 f i libucrtd:dbgrpt.obj
 0001:00065550       ??0?$__crt_unique_heap_ptr@U?$__crt_report_hook_node@_W@@U__crt_internal_free_policy@@@@QAE@QAU?$__crt_report_hook_node@_W@@@Z 10066550 f i libucrtd:dbgrpt.obj
 0001:00065570       ??1?$__crt_unique_heap_ptr@U?$__crt_report_hook_node@D@@U__crt_internal_free_policy@@@@QAE@XZ 10066570 f i libucrtd:dbgrpt.obj
 0001:00065590       ??1?$__crt_unique_heap_ptr@U?$__crt_report_hook_node@_W@@U__crt_internal_free_policy@@@@QAE@XZ 10066590 f i libucrtd:dbgrpt.obj
 0001:000655b0       ??B?$__crt_unique_heap_ptr@U?$__crt_report_hook_node@D@@U__crt_internal_free_policy@@@@QBE_NXZ 100665b0 f i libucrtd:dbgrpt.obj
 0001:000655d0       ??B?$__crt_unique_heap_ptr@U?$__crt_report_hook_node@_W@@U__crt_internal_free_policy@@@@QBE_NXZ 100665d0 f i libucrtd:dbgrpt.obj
 0001:00065b10       ?detach@?$__crt_unique_heap_ptr@U?$__crt_report_hook_node@D@@U__crt_internal_free_policy@@@@QAEPAU?$__crt_report_hook_node@D@@XZ 10066b10 f i libucrtd:dbgrpt.obj
 0001:00065b40       ?detach@?$__crt_unique_heap_ptr@U?$__crt_report_hook_node@_W@@U__crt_internal_free_policy@@@@QAEPAU?$__crt_report_hook_node@_W@@XZ 10066b40 f i libucrtd:dbgrpt.obj
 0001:00065b70       ?get@?$__crt_unique_heap_ptr@U?$__crt_report_hook_node@D@@U__crt_internal_free_policy@@@@QBEPAU?$__crt_report_hook_node@D@@XZ 10066b70 f i libucrtd:dbgrpt.obj
 0001:00065b90       ?get@?$__crt_unique_heap_ptr@U?$__crt_report_hook_node@_W@@U__crt_internal_free_policy@@@@QBEPAU?$__crt_report_hook_node@_W@@XZ 10066b90 f i libucrtd:dbgrpt.obj
 0001:00065c10       ?is_valid@?$__crt_unique_heap_ptr@U?$__crt_report_hook_node@D@@U__crt_internal_free_policy@@@@QBE_NXZ 10066c10 f i libucrtd:dbgrpt.obj
 0001:00065c40       ?is_valid@?$__crt_unique_heap_ptr@U?$__crt_report_hook_node@_W@@U__crt_internal_free_policy@@@@QBE_NXZ 10066c40 f i libucrtd:dbgrpt.obj
 0001:00065c70       ?release@?$__crt_unique_heap_ptr@U?$__crt_report_hook_node@D@@U__crt_internal_free_policy@@@@QAEXXZ 10066c70 f i libucrtd:dbgrpt.obj
 0001:00065ca0       ?release@?$__crt_unique_heap_ptr@U?$__crt_report_hook_node@_W@@U__crt_internal_free_policy@@@@QAEXXZ 10066ca0 f i libucrtd:dbgrpt.obj
 0001:00065cd0       __CrtDbgReport             10066cd0 f   libucrtd:dbgrpt.obj
 0001:00065d20       __CrtDbgReportW            10066d20 f   libucrtd:dbgrpt.obj
 0001:00065d70       __CrtSetReportHook2        10066d70 f   libucrtd:dbgrpt.obj
 0001:00065d90       __CrtSetReportHookW2       10066d90 f   libucrtd:dbgrpt.obj
 0001:00065db0       ___acrt_MessageWindowA     10066db0 f   libucrtd:dbgrpt.obj
 0001:00065de0       ___acrt_MessageWindowW     10066de0 f   libucrtd:dbgrpt.obj
 0001:00065e10       __invoke_watson_if_error   10066e10 f i libucrtd:dbgrpt.obj
 0001:00065e40       __invoke_watson_if_oneof   10066e40 f i libucrtd:dbgrpt.obj
 0001:00065e80       __snwprintf_s              10066e80 f i libucrtd:dbgrpt.obj
 0001:00065ec0       __vsnwprintf_s_l           10066ec0 f i libucrtd:dbgrpt.obj
 0001:00066240       _wcscpy_s                  10067240 f   libucrtd:wcscpy_s.obj
 0001:00066f60       ??1?$__crt_simd_cleanup_guard@$00@@QAE@XZ 10067f60 f i libucrtd:strnlen.obj
 0001:00066f70       ??1?$__crt_simd_cleanup_guard@$0A@@@QAE@XZ 10067f70 f i libucrtd:strnlen.obj
 0001:00066f80       ?compare_equals@?$__crt_simd_traits@$00E@@SA?AT__m256i@@T2@0@Z 10067f80 f i libucrtd:strnlen.obj
 0001:00066fc0       ?compare_equals@?$__crt_simd_traits@$00G@@SA?AT__m256i@@T2@0@Z 10067fc0 f i libucrtd:strnlen.obj
 0001:00067000       ?compare_equals@?$__crt_simd_traits@$0A@E@@SA?AT__m128i@@T2@0@Z 10068000 f i libucrtd:strnlen.obj
 0001:00067040       ?compare_equals@?$__crt_simd_traits@$0A@G@@SA?AT__m128i@@T2@0@Z 10068040 f i libucrtd:strnlen.obj
 0001:00067080       ?compute_byte_mask@?$__crt_simd_pack_traits@$00@@SAHT__m256i@@@Z 10068080 f i libucrtd:strnlen.obj
 0001:000670b0       ?compute_byte_mask@?$__crt_simd_pack_traits@$0A@@@SAHT__m128i@@@Z 100680b0 f i libucrtd:strnlen.obj
 0001:000670e0       ?get_zero_pack@?$__crt_simd_pack_traits@$00@@SA?AT__m256i@@XZ 100680e0 f i libucrtd:strnlen.obj
 0001:00067110       ?get_zero_pack@?$__crt_simd_pack_traits@$0A@@@SA?AT__m128i@@XZ 10068110 f i libucrtd:strnlen.obj
 0001:00067140       _strnlen                   10068140 f   libucrtd:strnlen.obj
 0001:00067160       _wcslen                    10068160 f   libucrtd:strnlen.obj
 0001:00067180       _wcsnlen                   10068180 f   libucrtd:strnlen.obj
 0001:000671a0       ??$__crt_fast_decode_pointer@P6AXPB_W00II@Z@@YAP6AXPB_W00II@ZQ6AX000II@Z@Z 100681a0 f i libucrtd:invalid_parameter.obj
 0001:000671d0       ??$__crt_fast_encode_pointer@P6AXPB_W00II@Z@@YAP6AXPB_W00II@ZQ6AX000II@Z@Z 100681d0 f i libucrtd:invalid_parameter.obj
 0001:00067200       ??$initialize_from_array@$$BY00Q6AXPB_W00II@Z@?$dual_state_global@P6AXPB_W00II@Z@__crt_state_management@@QAAXAAY00Q6AXPB_W00II@Z@Z 10068200 f i libucrtd:invalid_parameter.obj
 0001:00067250       ?__crt_rotate_pointer_value@@YAIIH@Z 10068250 f i libucrtd:invalid_parameter.obj
 0001:00067260       ?dangerous_get_state_array@?$dual_state_global@P6AXPB_W00II@Z@__crt_state_management@@QAEPAP6AXPB_W00II@ZXZ 10068260 f i libucrtd:invalid_parameter.obj
 0001:00067270       ?get_current_state_index@__crt_state_management@@YAIXZ 10068270 f i libucrtd:invalid_parameter.obj
 0001:00067280       ?value@?$dual_state_global@P6AXPB_W00II@Z@__crt_state_management@@QAEAAP6AXPB_W00II@ZXZ 10068280 f i libucrtd:invalid_parameter.obj
 0001:000672a0       ___acrt_call_reportfault   100682a0 f   libucrtd:invalid_parameter.obj
 0001:00067400       ___acrt_initialize_invalid_parameter_handler 10068400 f   libucrtd:invalid_parameter.obj
 0001:00067430       __get_invalid_parameter_handler 10068430 f   libucrtd:invalid_parameter.obj
 0001:00067450       __get_thread_local_invalid_parameter_handler 10068450 f   libucrtd:invalid_parameter.obj
 0001:00067480       __invalid_parameter        10068480 f   libucrtd:invalid_parameter.obj
 0001:00067540       __invalid_parameter_noinfo 10068540 f   libucrtd:invalid_parameter.obj
 0001:00067560       __invalid_parameter_noinfo_noreturn 10068560 f   libucrtd:invalid_parameter.obj
 0001:00067590       __invoke_watson            10068590 f   libucrtd:invalid_parameter.obj
 0001:000675d0       __set_invalid_parameter_handler 100685d0 f   libucrtd:invalid_parameter.obj
 0001:00067620       __set_thread_local_invalid_parameter_handler 10068620 f   libucrtd:invalid_parameter.obj
 0001:00067650       ___acrt_errno_from_os_error 10068650 f   libucrtd:errno.obj
 0001:000676d0       ___acrt_errno_map_os_error 100686d0 f   libucrtd:errno.obj
 0001:00067700       ___doserrno                10068700 f   libucrtd:errno.obj
 0001:00067730       __errno                    10068730 f   libucrtd:errno.obj
 0001:00067760       __get_doserrno             10068760 f   libucrtd:errno.obj
 0001:000677f0       __get_errno                100687f0 f   libucrtd:errno.obj
 0001:00067880       __set_doserrno             10068880 f   libucrtd:errno.obj
 0001:000678b0       __set_errno                100688b0 f   libucrtd:errno.obj
 0001:000678e0       _calloc                    100688e0 f   libucrtd:calloc.obj
 0001:00067900       __recalloc                 10068900 f   libucrtd:recalloc.obj
 0001:00067930       __recalloc_base            10068930 f   libucrtd:recalloc.obj
 0001:000679ca       __resetstkoflw             100689ca f   libucrtd:resetstk.obj
 0001:00067eb0       _wcscat_s                  10068eb0 f   libucrtd:wcscat_s.obj
 0001:00068300       _wcsncpy_s                 10069300 f   libucrtd:wcsncpy_s.obj
 0001:00068340       ___acrt_get_locale_data_prefix 10069340 f i libucrtd:_ctype.obj
 0001:00068360       ___isascii                 10069360 f i libucrtd:_ctype.obj
 0001:00068390       ___iscsym                  10069390 f i libucrtd:_ctype.obj
 0001:000683d0       ___iscsymf                 100693d0 f i libucrtd:_ctype.obj
 0001:00068410       ___toascii                 10069410 f i libucrtd:_ctype.obj
 0001:00068420       __chvalidchk_l             10069420 f i libucrtd:_ctype.obj
 0001:00068440       __isalnum_l                10069440 f i libucrtd:_ctype.obj
 0001:00068480       __isalpha_l                10069480 f i libucrtd:_ctype.obj
 0001:000684c0       __isblank_l                100694c0 f i libucrtd:_ctype.obj
 0001:00068520       __ischartype_l             10069520 f i libucrtd:_ctype.obj
 0001:000685a0       __iscntrl_l                100695a0 f i libucrtd:_ctype.obj
 0001:000685e0       __iscsym_l                 100695e0 f i libucrtd:_ctype.obj
 0001:00068620       __iscsymf_l                10069620 f i libucrtd:_ctype.obj
 0001:00068660       __isdigit_l                10069660 f i libucrtd:_ctype.obj
 0001:000686a0       __isgraph_l                100696a0 f i libucrtd:_ctype.obj
 0001:000686e0       __islower_l                100696e0 f i libucrtd:_ctype.obj
 0001:00068720       __isprint_l                10069720 f i libucrtd:_ctype.obj
 0001:00068760       __ispunct_l                10069760 f i libucrtd:_ctype.obj
 0001:000687a0       __isspace_l                100697a0 f i libucrtd:_ctype.obj
 0001:000687e0       __isupper_l                100697e0 f i libucrtd:_ctype.obj
 0001:00068820       __isxdigit_l               10069820 f i libucrtd:_ctype.obj
 0001:00068860       _isalnum                   10069860 f i libucrtd:_ctype.obj
 0001:000688a0       _isalpha                   100698a0 f i libucrtd:_ctype.obj
 0001:000688e0       _isblank                   100698e0 f i libucrtd:_ctype.obj
 0001:00068940       _iscntrl                   10069940 f i libucrtd:_ctype.obj
 0001:00068980       _isdigit                   10069980 f i libucrtd:_ctype.obj
 0001:000689c0       _isgraph                   100699c0 f i libucrtd:_ctype.obj
 0001:00068a00       _islower                   10069a00 f i libucrtd:_ctype.obj
 0001:00068a40       _isprint                   10069a40 f i libucrtd:_ctype.obj
 0001:00068a80       _ispunct                   10069a80 f i libucrtd:_ctype.obj
 0001:00068ac0       _isspace                   10069ac0 f i libucrtd:_ctype.obj
 0001:00068b00       _isupper                   10069b00 f i libucrtd:_ctype.obj
 0001:00068b40       _isxdigit                  10069b40 f i libucrtd:_ctype.obj
 0001:00068b80       _wcscat                    10069b80 f   libucrtd:wcscat.obj
 0001:00068be0       _wcscpy                    10069be0 f   libucrtd:wcscpy.obj
 0001:00069270       ??$open_file@ABQBDABQBDABHPAU_iobuf@@@?$__crt_char_traits@D@@SAPAU_iobuf@@ABQBD0ABH$$QAPAU1@@Z 1006a270 f i libucrtd:fopen.obj
 0001:000692a0       ??$open_file@ABQB_WABQB_WABHPAU_iobuf@@@?$__crt_char_traits@_W@@SAPAU_iobuf@@ABQB_W0ABH$$QAPAU1@@Z 1006a2a0 f i libucrtd:fopen.obj
 0001:000692d0       ?unlock@__crt_stdio_stream@@QBEXXZ 1006a2d0 f i libucrtd:fopen.obj
 0001:000692f0       __fsopen                   1006a2f0 f   libucrtd:fopen.obj
 0001:00069310       __wfopen                   1006a310 f   libucrtd:fopen.obj
 0001:00069330       __wfopen_s                 1006a330 f   libucrtd:fopen.obj
 0001:00069350       __wfsopen                  1006a350 f   libucrtd:fopen.obj
 0001:00069370       _fopen                     1006a370 f   libucrtd:fopen.obj
 0001:00069390       _fopen_s                   1006a390 f   libucrtd:fopen.obj
 0001:000693b0       ?is_in_use@__crt_stdio_stream@@QBE_NXZ 1006a3b0 f i libucrtd:fclose.obj
 0001:000693f0       __fclose_nolock            1006a3f0 f   libucrtd:fclose.obj
 0001:00069530       _fclose                    1006a530 f   libucrtd:fclose.obj
 0001:00069680       __fputc_nolock             1006a680 f   libucrtd:fputc.obj
 0001:00069710       __fputchar                 1006a710 f   libucrtd:fputc.obj
 0001:00069730       __putc_nolock              1006a730 f   libucrtd:fputc.obj
 0001:00069750       _fputc                     1006a750 f   libucrtd:fputc.obj
 0001:00069990       _putc                      1006a990 f   libucrtd:fputc.obj
 0001:000699b0       _putchar                   1006a9b0 f   libucrtd:fputc.obj
 0001:00069a20       __seh_filter_dll           1006aa20 f   libucrtd:exception_filter.obj
 0001:00069a50       __seh_filter_exe           1006aa50 f   libucrtd:exception_filter.obj
 0001:00069c60       ??$?B$$A6GXPAXK0@Z@__crt_fast_encoded_nullptr_t@@QBEP6GXPAXK0@ZXZ 1006ac60 f i libucrtd:exit.obj
 0001:00069d40       ??$__crt_fast_decode_pointer@P6GXPAXK0@Z@@YAP6GXPAXK0@ZQ6GX0K0@Z@Z 1006ad40 f i libucrtd:exit.obj
 0001:00069d70       ??$__crt_fast_encode_pointer@P6GXPAXK0@Z@@YAP6GXPAXK0@ZQ6GX0K0@Z@Z 1006ad70 f i libucrtd:exit.obj
 0001:00069da0       ??$__crt_get_proc_address@P6GXI@Z@@YAP6GXI@ZQAUHINSTANCE__@@QBD@Z 1006ada0 f i libucrtd:exit.obj
 0001:00069e30       ??0?$__crt_unique_handle_t@U__crt_hmodule_traits@@@@QAE@QAUHINSTANCE__@@@Z 1006ae30 f i libucrtd:exit.obj
 0001:00069e50       ??1?$__crt_unique_handle_t@U__crt_hmodule_traits@@@@QAE@XZ 1006ae50 f i libucrtd:exit.obj
 0001:0006a010       ?__acrt_select_exit_lock@@YA?AW4__acrt_lock_id@@XZ 1006b010 f i libucrtd:exit.obj
 0001:0006a020       ?__crt_fast_encode_pointer@@YA?AU__crt_fast_encoded_nullptr_t@@$$T@Z 1006b020 f i libucrtd:exit.obj
 0001:0006a050       ?close@?$__crt_unique_handle_t@U__crt_hmodule_traits@@@@QAEXXZ 1006b050 f i libucrtd:exit.obj
 0001:0006a090       ?close@__crt_hmodule_traits@@SA_NPAUHINSTANCE__@@@Z 1006b090 f i libucrtd:exit.obj
 0001:0006a180       ?get@?$__crt_unique_handle_t@U__crt_hmodule_traits@@@@QBEPAUHINSTANCE__@@XZ 1006b180 f i libucrtd:exit.obj
 0001:0006a1a0       ?get_address_of@?$__crt_unique_handle_t@U__crt_hmodule_traits@@@@QAEPAPAUHINSTANCE__@@XZ 1006b1a0 f i libucrtd:exit.obj
 0001:0006a1b0       ?get_invalid_value@__crt_hmodule_traits@@SAPAUHINSTANCE__@@XZ 1006b1b0 f i libucrtd:exit.obj
 0001:0006a330       __Exit                     1006b330 f   libucrtd:exit.obj
 0001:0006a350       ___acrt_initialize_thread_local_exit_callback 1006b350 f   libucrtd:exit.obj
 0001:0006a360       __c_exit                   1006b360 f   libucrtd:exit.obj
 0001:0006a380       __cexit                    1006b380 f   libucrtd:exit.obj
 0001:0006a3a0       __exit                     1006b3a0 f   libucrtd:exit.obj
 0001:0006a3c0       __is_c_termination_complete 1006b3c0 f   libucrtd:exit.obj
 0001:0006a3e0       __register_thread_local_exe_atexit_callback 1006b3e0 f   libucrtd:exit.obj
 0001:0006a420       _exit                      1006b420 f   libucrtd:exit.obj
 0001:0006a440       _quick_exit                1006b440 f   libucrtd:exit.obj
 0001:0006a460       ??$?RE@__crt_internal_free_policy@@QBEXQBE@Z 1006b460 f i libucrtd:argv_parsing.obj
 0001:0006a480       ??$?RPAD@__crt_internal_free_policy@@QBEXQBQAD@Z 1006b480 f i libucrtd:argv_parsing.obj
 0001:0006a4a0       ??$?RPA_W@__crt_internal_free_policy@@QBEXQBQA_W@Z 1006b4a0 f i libucrtd:argv_parsing.obj
 0001:0006aa00       ??$get_module_file_name@$$TAAY0BAF@DH@?$__crt_char_traits@D@@SAK$$QA$$TAAY0BAF@D$$QAH@Z 1006ba00 f i libucrtd:argv_parsing.obj
 0001:0006aa20       ??$get_module_file_name@$$TAAY0BAF@_WH@?$__crt_char_traits@_W@@SAK$$QA$$TAAY0BAF@_W$$QAH@Z 1006ba20 f i libucrtd:argv_parsing.obj
 0001:0006b140       ??$set_program_name@PAD@?$__crt_char_traits@D@@SAX$$QAPAD@Z 1006c140 f i libucrtd:argv_parsing.obj
 0001:0006b160       ??$set_program_name@PA_W@?$__crt_char_traits@_W@@SAX$$QAPA_W@Z 1006c160 f i libucrtd:argv_parsing.obj
 0001:0006b1c0       ??0?$__crt_unique_heap_ptr@EU__crt_internal_free_policy@@@@QAE@QAE@Z 1006c1c0 f i libucrtd:argv_parsing.obj
 0001:0006b1e0       ??0?$__crt_unique_heap_ptr@PADU__crt_internal_free_policy@@@@QAE@QAPAD@Z 1006c1e0 f i libucrtd:argv_parsing.obj
 0001:0006b200       ??0?$__crt_unique_heap_ptr@PA_WU__crt_internal_free_policy@@@@QAE@QAPA_W@Z 1006c200 f i libucrtd:argv_parsing.obj
 0001:0006b220       ??1?$__crt_unique_heap_ptr@EU__crt_internal_free_policy@@@@QAE@XZ 1006c220 f i libucrtd:argv_parsing.obj
 0001:0006b240       ??1?$__crt_unique_heap_ptr@PADU__crt_internal_free_policy@@@@QAE@XZ 1006c240 f i libucrtd:argv_parsing.obj
 0001:0006b260       ??1?$__crt_unique_heap_ptr@PA_WU__crt_internal_free_policy@@@@QAE@XZ 1006c260 f i libucrtd:argv_parsing.obj
 0001:0006b280       ??B?$__crt_unique_heap_ptr@EU__crt_internal_free_policy@@@@QBE_NXZ 1006c280 f i libucrtd:argv_parsing.obj
 0001:0006b340       ?detach@?$__crt_unique_heap_ptr@EU__crt_internal_free_policy@@@@QAEPAEXZ 1006c340 f i libucrtd:argv_parsing.obj
 0001:0006b370       ?detach@?$__crt_unique_heap_ptr@PADU__crt_internal_free_policy@@@@QAEPAPADXZ 1006c370 f i libucrtd:argv_parsing.obj
 0001:0006b3a0       ?detach@?$__crt_unique_heap_ptr@PA_WU__crt_internal_free_policy@@@@QAEPAPA_WXZ 1006c3a0 f i libucrtd:argv_parsing.obj
 0001:0006b430       ?get@?$__crt_unique_heap_ptr@EU__crt_internal_free_policy@@@@QBEPAEXZ 1006c430 f i libucrtd:argv_parsing.obj
 0001:0006b450       ?get@?$__crt_unique_heap_ptr@PADU__crt_internal_free_policy@@@@QBEPAPADXZ 1006c450 f i libucrtd:argv_parsing.obj
 0001:0006b470       ?get@?$__crt_unique_heap_ptr@PA_WU__crt_internal_free_policy@@@@QBEPAPA_WXZ 1006c470 f i libucrtd:argv_parsing.obj
 0001:0006b490       ?get_address_of@?$__crt_unique_heap_ptr@PADU__crt_internal_free_policy@@@@QAEPAPAPADXZ 1006c490 f i libucrtd:argv_parsing.obj
 0001:0006b4a0       ?get_address_of@?$__crt_unique_heap_ptr@PA_WU__crt_internal_free_policy@@@@QAEPAPAPA_WXZ 1006c4a0 f i libucrtd:argv_parsing.obj
 0001:0006b4f0       ?is_valid@?$__crt_unique_heap_ptr@EU__crt_internal_free_policy@@@@QBE_NXZ 1006c4f0 f i libucrtd:argv_parsing.obj
 0001:0006b520       ?release@?$__crt_unique_heap_ptr@EU__crt_internal_free_policy@@@@QAEXXZ 1006c520 f i libucrtd:argv_parsing.obj
 0001:0006b550       ?release@?$__crt_unique_heap_ptr@PADU__crt_internal_free_policy@@@@QAEXXZ 1006c550 f i libucrtd:argv_parsing.obj
 0001:0006b580       ?release@?$__crt_unique_heap_ptr@PA_WU__crt_internal_free_policy@@@@QAEXXZ 1006c580 f i libucrtd:argv_parsing.obj
 0001:0006b5f0       ___acrt_allocate_buffer_for_argv 1006c5f0 f   libucrtd:argv_parsing.obj
 0001:0006b6b0       __configure_narrow_argv    1006c6b0 f   libucrtd:argv_parsing.obj
 0001:0006b6d0       __configure_wide_argv      1006c6d0 f   libucrtd:argv_parsing.obj
 0001:0006b6f0       __set_pgmptr               1006c6f0 f i libucrtd:argv_parsing.obj
 0001:0006b700       __set_wpgmptr              1006c700 f i libucrtd:argv_parsing.obj
 0001:0006b70f       ??$?R_W@__crt_internal_free_policy@@QBEXQB_W@Z 1006c70f f i libucrtd:environment_initialization.obj
 0001:0006bb78       ??$get_environment_from_os@$$V@?$__crt_char_traits@D@@SAPADXZ 1006cb78 f i libucrtd:environment_initialization.obj
 0001:0006bb7d       ??$get_environment_from_os@$$V@?$__crt_char_traits@_W@@SAPA_WXZ 1006cb7d f i libucrtd:environment_initialization.obj
 0001:0006bca6       ??$set_variable_in_environment_nolock@PADH@?$__crt_char_traits@D@@SAH$$QAPAD$$QAH@Z 1006cca6 f i libucrtd:environment_initialization.obj
 0001:0006bcbe       ??$set_variable_in_environment_nolock@PA_WH@?$__crt_char_traits@_W@@SAH$$QAPA_W$$QAH@Z 1006ccbe f i libucrtd:environment_initialization.obj
 0001:0006bcd6       ??$tcscpy_s@PADABIAAPAD@?$__crt_char_traits@D@@SAH$$QAPADABIAAPAD@Z 1006ccd6 f i libucrtd:environment_initialization.obj
 0001:0006bcf4       ??$tcscpy_s@PA_WABIAAPA_W@?$__crt_char_traits@_W@@SAH$$QAPA_WABIAAPA_W@Z 1006ccf4 f i libucrtd:environment_initialization.obj
 0001:0006bd12       ??$tcslen@AAPAD@?$__crt_char_traits@D@@SAIAAPAD@Z 1006cd12 f i libucrtd:environment_initialization.obj
 0001:0006bd2a       ??$tcslen@AAPA_W@?$__crt_char_traits@_W@@SAIAAPA_W@Z 1006cd2a f i libucrtd:environment_initialization.obj
 0001:0006bd48       ??$uninitialize@A6AXAAPAPAD@Z@?$dual_state_global@PAPAD@__crt_state_management@@QAEXA6AXAAPAPAD@Z@Z 1006cd48 f i libucrtd:environment_initialization.obj
 0001:0006bd71       ??$uninitialize@A6AXAAPAPA_W@Z@?$dual_state_global@PAPA_W@__crt_state_management@@QAEXA6AXAAPAPA_W@Z@Z 1006cd71 f i libucrtd:environment_initialization.obj
 0001:0006bdd0       ??0?$__crt_unique_heap_ptr@_WU__crt_internal_free_policy@@@@QAE@QA_W@Z 1006cdd0 f i libucrtd:environment_initialization.obj
 0001:0006bde0       ??1?$__crt_unique_heap_ptr@_WU__crt_internal_free_policy@@@@QAE@XZ 1006cde0 f i libucrtd:environment_initialization.obj
 0001:0006bdf5       ??B?$__crt_unique_heap_ptr@PADU__crt_internal_free_policy@@@@QBE_NXZ 1006cdf5 f i libucrtd:environment_initialization.obj
 0001:0006bdfc       ??B?$__crt_unique_heap_ptr@PA_WU__crt_internal_free_policy@@@@QBE_NXZ 1006cdfc f i libucrtd:environment_initialization.obj
 0001:0006be03       ??B?$__crt_unique_heap_ptr@_WU__crt_internal_free_policy@@@@QBE_NXZ 1006ce03 f i libucrtd:environment_initialization.obj
 0001:0006be0a       ?__crt_compute_required_transform_buffer_count@@YAIIQBD@Z 1006ce0a f i libucrtd:environment_initialization.obj
 0001:0006be26       ?__crt_compute_required_transform_buffer_count@@YAIIQB_W@Z 1006ce26 f i libucrtd:environment_initialization.obj
 0001:0006be44       ?__crt_transform_string@@YAIIQBDQA_WI@Z 1006ce44 f i libucrtd:environment_initialization.obj
 0001:0006be63       ?__crt_transform_string@@YAIIQB_WQADI@Z 1006ce63 f i libucrtd:environment_initialization.obj
 0001:0006be85       ?detach@?$__crt_unique_heap_ptr@DU__crt_internal_free_policy@@@@QAEPADXZ 1006ce85 f i libucrtd:environment_initialization.obj
 0001:0006be8b       ?detach@?$__crt_unique_heap_ptr@_WU__crt_internal_free_policy@@@@QAEPA_WXZ 1006ce8b f i libucrtd:environment_initialization.obj
 0001:0006be91       ?get@?$__crt_unique_heap_ptr@_WU__crt_internal_free_policy@@@@QBEPA_WXZ 1006ce91 f i libucrtd:environment_initialization.obj
 0001:0006beb8       ?initialize@?$dual_state_global@PAPAD@__crt_state_management@@QAEXQAPAD@Z 1006ceb8 f i libucrtd:environment_initialization.obj
 0001:0006bede       ?initialize@?$dual_state_global@PAPA_W@__crt_state_management@@QAEXQAPA_W@Z 1006cede f i libucrtd:environment_initialization.obj
 0001:0006bf04       ?is_valid@?$__crt_unique_heap_ptr@PADU__crt_internal_free_policy@@@@QBE_NXZ 1006cf04 f i libucrtd:environment_initialization.obj
 0001:0006bf0b       ?is_valid@?$__crt_unique_heap_ptr@PA_WU__crt_internal_free_policy@@@@QBE_NXZ 1006cf0b f i libucrtd:environment_initialization.obj
 0001:0006bf12       ?is_valid@?$__crt_unique_heap_ptr@_WU__crt_internal_free_policy@@@@QBE_NXZ 1006cf12 f i libucrtd:environment_initialization.obj
 0001:0006bf21       ?release@?$__crt_unique_heap_ptr@_WU__crt_internal_free_policy@@@@QAEXXZ 1006cf21 f i libucrtd:environment_initialization.obj
 0001:0006bf36       ?value@?$dual_state_global@PAPAD@__crt_state_management@@QAEAAPAPADXZ 1006cf36 f i libucrtd:environment_initialization.obj
 0001:0006bf39       ?value@?$dual_state_global@PAPA_W@__crt_state_management@@QAEAAPAPA_WXZ 1006cf39 f i libucrtd:environment_initialization.obj
 0001:0006bf3c       ___dcrt_get_or_create_narrow_environment_nolock 1006cf3c f   libucrtd:environment_initialization.obj
 0001:0006bf41       ___dcrt_get_or_create_wide_environment_nolock 1006cf41 f   libucrtd:environment_initialization.obj
 0001:0006bf46       ___dcrt_uninitialize_environments_nolock 1006cf46 f   libucrtd:environment_initialization.obj
 0001:0006bf7d       ___p__environ              1006cf7d f   libucrtd:environment_initialization.obj
 0001:0006bf83       ___p__wenviron             1006cf83 f   libucrtd:environment_initialization.obj
 0001:0006bf89       __get_initial_narrow_environment 1006cf89 f   libucrtd:environment_initialization.obj
 0001:0006bf9d       __get_initial_wide_environment 1006cf9d f   libucrtd:environment_initialization.obj
 0001:0006bfb1       __initialize_narrow_environment 1006cfb1 f   libucrtd:environment_initialization.obj
 0001:0006bfb6       __initialize_wide_environment 1006cfb6 f   libucrtd:environment_initialization.obj
 0001:0006bfc0       ??$?B$$A6AXXZ@__crt_fast_encoded_nullptr_t@@QBEP6AXXZXZ 1006cfc0 f i libucrtd:onexit.obj
 0001:0006bfe0       ??$?BP6AXXZ@__crt_fast_encoded_nullptr_t@@QBEPAP6AXXZXZ 1006cfe0 f i libucrtd:onexit.obj
 0001:0006c000       ??$?RP6AXXZ@__crt_internal_free_policy@@QBEXQBQ6AXXZ@Z 1006d000 f i libucrtd:onexit.obj
 0001:0006c1c0       ??$__crt_fast_decode_pointer@P6AXXZ@@YAP6AXXZQ6AXXZ@Z 1006d1c0 f i libucrtd:onexit.obj
 0001:0006c1f0       ??$__crt_fast_decode_pointer@PAP6AXXZ@@YAPAP6AXXZQAP6AXXZ@Z 1006d1f0 f i libucrtd:onexit.obj
 0001:0006c220       ??$__crt_fast_encode_pointer@P6AHXZ@@YAP6AHXZQ6AHXZ@Z 1006d220 f i libucrtd:onexit.obj
 0001:0006c250       ??$__crt_fast_encode_pointer@P6AXXZ@@YAP6AXXZQ6AXXZ@Z 1006d250 f i libucrtd:onexit.obj
 0001:0006c280       ??$__crt_fast_encode_pointer@PAP6AXXZ@@YAPAP6AXXZQAP6AXXZ@Z 1006d280 f i libucrtd:onexit.obj
 0001:0006c380       ??0?$__crt_unique_heap_ptr@P6AXXZU__crt_internal_free_policy@@@@QAE@QAP6AXXZ@Z 1006d380 f i libucrtd:onexit.obj
 0001:0006c3a0       ??1?$__crt_unique_heap_ptr@P6AXXZU__crt_internal_free_policy@@@@QAE@XZ 1006d3a0 f i libucrtd:onexit.obj
 0001:0006c3c0       ??1scoped_global_state_reset@__crt_state_management@@QAE@XZ 1006d3c0 f i libucrtd:onexit.obj
 0001:0006c830       ?detach@?$__crt_unique_heap_ptr@P6AXXZU__crt_internal_free_policy@@@@QAEPAP6AXXZXZ 1006d830 f i libucrtd:onexit.obj
 0001:0006c860       ?release@?$__crt_unique_heap_ptr@P6AXXZU__crt_internal_free_policy@@@@QAEXXZ 1006d860 f i libucrtd:onexit.obj
 0001:0006c890       __crt_at_quick_exit        1006d890 f   libucrtd:onexit.obj
 0001:0006c8b0       __crt_atexit               1006d8b0 f   libucrtd:onexit.obj
 0001:0006c8d0       __execute_onexit_table     1006d8d0 f   libucrtd:onexit.obj
 0001:0006c900       __initialize_onexit_table  1006d900 f   libucrtd:onexit.obj
 0001:0006c960       __register_onexit_function 1006d960 f   libucrtd:onexit.obj
 0001:0006cba0       ??$?BX@__crt_fast_encoded_nullptr_t@@QBEPAXXZ 1006dba0 f i libucrtd:initialization.obj
 0001:0006cbc0       ??$__crt_fast_encode_pointer@PAX@@YAPAXQAX@Z 1006dbc0 f i libucrtd:initialization.obj
 0001:0006cc80       ?initialize@?$dual_state_global@PAU__crt_locale_data@@@__crt_state_management@@QAEXQAU__crt_locale_data@@@Z 1006dc80 f i libucrtd:initialization.obj
 0001:0006ccc0       ___acrt_initialize         1006dcc0 f   libucrtd:initialization.obj
 0001:0006cce0       ___acrt_thread_attach      1006dce0 f   libucrtd:initialization.obj
 0001:0006cd00       ___acrt_thread_detach      1006dd00 f   libucrtd:initialization.obj
 0001:0006cd10       ___acrt_uninitialize       1006dd10 f   libucrtd:initialization.obj
 0001:0006cd30       ___acrt_uninitialize_critical 1006dd30 f   libucrtd:initialization.obj
 0001:0006e5a0       __CrtCheckMemory           1006f5a0 f   libucrtd:debug_heap.obj
 0001:0006e730       __CrtDoForAllClientObjects 1006f730 f   libucrtd:debug_heap.obj
 0001:0006e880       __CrtDumpMemoryLeaks       1006f880 f   libucrtd:debug_heap.obj
 0001:0006e920       __CrtGetAllocHook          1006f920 f   libucrtd:debug_heap.obj
 0001:0006e930       __CrtGetDumpClient         1006f930 f   libucrtd:debug_heap.obj
 0001:0006e940       __CrtIsMemoryBlock         1006f940 f   libucrtd:debug_heap.obj
 0001:0006ea90       __CrtIsValidHeapPointer    1006fa90 f   libucrtd:debug_heap.obj
 0001:0006eac0       __CrtIsValidPointer        1006fac0 f   libucrtd:debug_heap.obj
 0001:0006eaf0       __CrtMemCheckpoint         1006faf0 f   libucrtd:debug_heap.obj
 0001:0006ed20       __CrtMemDifference         1006fd20 f   libucrtd:debug_heap.obj
 0001:0006ef90       __CrtMemDumpAllObjectsSince 1006ff90 f   libucrtd:debug_heap.obj
 0001:0006f030       __CrtMemDumpStatistics     10070030 f   libucrtd:debug_heap.obj
 0001:0006f160       __CrtReportBlockType       10070160 f   libucrtd:debug_heap.obj
 0001:0006f190       __CrtSetAllocHook          10070190 f   libucrtd:debug_heap.obj
 0001:0006f1b0       __CrtSetBreakAlloc         100701b0 f   libucrtd:debug_heap.obj
 0001:0006f1d0       __CrtSetDbgBlockType       100701d0 f   libucrtd:debug_heap.obj
 0001:0006f2b0       __CrtSetDbgFlag            100702b0 f   libucrtd:debug_heap.obj
 0001:0006f420       __CrtSetDumpClient         10070420 f   libucrtd:debug_heap.obj
 0001:0006f440       ___p__crtBreakAlloc        10070440 f   libucrtd:debug_heap.obj
 0001:0006f450       ___p__crtDbgFlag           10070450 f   libucrtd:debug_heap.obj
 0001:0006f460       __aligned_free_dbg         10070460 f   libucrtd:debug_heap.obj
 0001:0006f510       __aligned_malloc_dbg       10070510 f   libucrtd:debug_heap.obj
 0001:0006f540       __aligned_msize_dbg        10070540 f   libucrtd:debug_heap.obj
 0001:0006f670       __aligned_offset_malloc_dbg 10070670 f   libucrtd:debug_heap.obj
 0001:0006f850       __aligned_offset_realloc_dbg 10070850 f   libucrtd:debug_heap.obj
 0001:0006fb60       __aligned_offset_recalloc_dbg 10070b60 f   libucrtd:debug_heap.obj
 0001:0006fc20       __aligned_realloc_dbg      10070c20 f   libucrtd:debug_heap.obj
 0001:0006fc50       __aligned_recalloc_dbg     10070c50 f   libucrtd:debug_heap.obj
 0001:0006fc80       __calloc_dbg               10070c80 f   libucrtd:debug_heap.obj
 0001:0006fcf0       __expand_dbg               10070cf0 f   libucrtd:debug_heap.obj
 0001:0006fe20       __free_dbg                 10070e20 f   libucrtd:debug_heap.obj
 0001:0006fed0       __malloc_dbg               10070ed0 f   libucrtd:debug_heap.obj
 0001:0006fef0       __msize_dbg                10070ef0 f   libucrtd:debug_heap.obj
 0001:00070080       __realloc_dbg              10071080 f   libucrtd:debug_heap.obj
 0001:00070120       __recalloc_dbg             10071120 f   libucrtd:debug_heap.obj
 0001:000701d0       __initterm                 100711d0 f   libucrtd:initterm.obj
 0001:00070220       __initterm_e               10071220 f   libucrtd:initterm.obj
 0001:00070590       _strcpy_s                  10071590 f   libucrtd:strcpy_s.obj
 0001:000709c0       _strcat_s                  100719c0 f   libucrtd:strcat_s.obj
 0001:000709e0       ??$?B$$A6AHI@Z@__crt_fast_encoded_nullptr_t@@QBEP6AHI@ZXZ 100719e0 f i libucrtd:new_handler.obj
 0001:00070a00       ??$__crt_fast_decode_pointer@P6AHI@Z@@YAP6AHI@ZQ6AHI@Z@Z 10071a00 f i libucrtd:new_handler.obj
 0001:00070a30       ??$__crt_fast_encode_pointer@P6AHI@Z@@YAP6AHI@ZQ6AHI@Z@Z 10071a30 f i libucrtd:new_handler.obj
 0001:00070a60       ?_set_new_handler@@YAP6AHI@ZH@Z 10071a60 f   libucrtd:new_handler.obj
 0001:00070ac0       ?initialize@?$dual_state_global@P6AHI@Z@__crt_state_management@@QAEXQ6AHI@Z@Z 10071ac0 f i libucrtd:new_handler.obj
 0001:00070b00       ?value@?$dual_state_global@P6AHI@Z@__crt_state_management@@QAEAAP6AHI@ZXZ 10071b00 f i libucrtd:new_handler.obj
 0001:00070b20       ___acrt_initialize_new_handler 10071b20 f   libucrtd:new_handler.obj
 0001:00070b40       __callnewh                 10071b40 f   libucrtd:new_handler.obj
 0001:00070b80       __query_new_handler        10071b80 f   libucrtd:new_handler.obj
 0001:00070c10       __set_new_handler          10071c10 f   libucrtd:new_handler.obj
 0001:00070cf0       __get_terminate            10071cf0 f   libucrtd:terminate.obj
 0001:00070d10       _set_terminate             10071d10 f   libucrtd:terminate.obj
 0001:00070d40       _terminate                 10071d40 f   libucrtd:terminate.obj
 0001:00071710       __makepath                 10072710 f   libucrtd:makepath.obj
 0001:00071740       __makepath_s               10072740 f   libucrtd:makepath.obj
 0001:00071770       __wmakepath                10072770 f   libucrtd:makepath.obj
 0001:000717a0       __wmakepath_s              100727a0 f   libucrtd:makepath.obj
 0001:000730f0       ??$tcsncpy_s@AAPADIAAPBDABI@?$__crt_char_traits@D@@SAHAAPAD$$QAIAAPBDABI@Z 100740f0 f i libucrtd:splitpath.obj
 0001:00073120       ??$tcsncpy_s@AAPADIAAPBDH@?$__crt_char_traits@D@@SAHAAPAD$$QAIAAPBD$$QAH@Z 10074120 f i libucrtd:splitpath.obj
 0001:00073150       ??$tcsncpy_s@AAPA_WIAAPB_WABI@?$__crt_char_traits@_W@@SAHAAPA_W$$QAIAAPB_WABI@Z 10074150 f i libucrtd:splitpath.obj
 0001:00073180       ??$tcsncpy_s@AAPA_WIAAPB_WH@?$__crt_char_traits@_W@@SAHAAPA_W$$QAIAAPB_W$$QAH@Z 10074180 f i libucrtd:splitpath.obj
 0001:000733c0       __splitpath                100743c0 f   libucrtd:splitpath.obj
 0001:000733f0       __splitpath_s              100743f0 f   libucrtd:splitpath.obj
 0001:00073440       __wsplitpath               10074440 f   libucrtd:splitpath.obj
 0001:00073470       __wsplitpath_s             10074470 f   libucrtd:splitpath.obj
 0001:000734c0       __set_abort_behavior       100744c0 f   libucrtd:abort.obj
 0001:000734f0       _abort                     100744f0 f   libucrtd:abort.obj
 0001:00073560       _strcmp                    10074560 f   libucrtd:strcmp.obj
 0001:000735f0       _strlen                    100745f0 f   libucrtd:strlen.obj
 0001:00073680       ??$is_overflow_condition@K@__crt_strtox@@YA_NIK@Z 10074680 f i libucrtd:atox.obj
 0001:000736e0       ??$is_overflow_condition@_K@__crt_strtox@@YA_NI_K@Z 100746e0 f i libucrtd:atox.obj
 0001:00073770       ??$make_c_string_character_source@D$$T@__crt_strtox@@YA?AV?$c_string_character_source@D@0@QBD$$T@Z 10074770 f i libucrtd:atox.obj
 0001:00073790       ??$make_c_string_character_source@_W$$T@__crt_strtox@@YA?AV?$c_string_character_source@_W@0@QB_W$$T@Z 10074790 f i libucrtd:atox.obj
 0001:000737b0       ??$parse_integer@KV?$c_string_character_source@D@__crt_strtox@@@__crt_strtox@@YAKQAU__crt_locale_pointers@@V?$c_string_character_source@D@0@H_N@Z 100747b0 f i libucrtd:atox.obj
 0001:00073b20       ??$parse_integer@KV?$c_string_character_source@_W@__crt_strtox@@@__crt_strtox@@YAKQAU__crt_locale_pointers@@V?$c_string_character_source@_W@0@H_N@Z 10074b20 f i libucrtd:atox.obj
 0001:00073e90       ??$parse_integer@_KV?$c_string_character_source@D@__crt_strtox@@@__crt_strtox@@YA_KQAU__crt_locale_pointers@@V?$c_string_character_source@D@0@H_N@Z 10074e90 f i libucrtd:atox.obj
 0001:000742b0       ??$parse_integer@_KV?$c_string_character_source@_W@__crt_strtox@@@__crt_strtox@@YA_KQAU__crt_locale_pointers@@V?$c_string_character_source@_W@0@H_N@Z 100752b0 f i libucrtd:atox.obj
 0001:000746e0       ??$parse_integer_from_string@JD$$T@__crt_strtox@@YAJQBD$$THQAU__crt_locale_pointers@@@Z 100756e0 f i libucrtd:atox.obj
 0001:00074720       ??$parse_integer_from_string@J_W$$T@__crt_strtox@@YAJQB_W$$THQAU__crt_locale_pointers@@@Z 10075720 f i libucrtd:atox.obj
 0001:00074760       ??$parse_integer_from_string@_JD$$T@__crt_strtox@@YA_JQBD$$THQAU__crt_locale_pointers@@@Z 10075760 f i libucrtd:atox.obj
 0001:000747a0       ??$parse_integer_from_string@_J_W$$T@__crt_strtox@@YA_JQB_W$$THQAU__crt_locale_pointers@@@Z 100757a0 f i libucrtd:atox.obj
 0001:000747e0       ??0?$c_string_character_source@D@__crt_strtox@@QAE@QBDQAPBD@Z 100757e0 f i libucrtd:atox.obj
 0001:00074820       ??0?$c_string_character_source@_W@__crt_strtox@@QAE@QB_WQAPB_W@Z 10075820 f i libucrtd:atox.obj
 0001:00074860       ??1?$c_string_character_source@D@__crt_strtox@@QAE@XZ 10075860 f i libucrtd:atox.obj
 0001:00074890       ??1?$c_string_character_source@_W@__crt_strtox@@QAE@XZ 10075890 f i libucrtd:atox.obj
 0001:000748c0       ?get@?$c_string_character_source@D@__crt_strtox@@QAEDXZ 100758c0 f i libucrtd:atox.obj
 0001:000748f0       ?get@?$c_string_character_source@_W@__crt_strtox@@QAE_WXZ 100758f0 f i libucrtd:atox.obj
 0001:00074920       ?is_space@__crt_strtox@@YA_NDQAU__crt_locale_pointers@@@Z 10075920 f i libucrtd:atox.obj
 0001:00074960       ?is_space@__crt_strtox@@YA_N_WPAU__crt_locale_pointers@@@Z 10075960 f i libucrtd:atox.obj
 0001:00074990       ?maximum_signed_value@__crt_strtox@@YAJK@Z 10075990 f i libucrtd:atox.obj
 0001:000749a0       ?maximum_signed_value@__crt_strtox@@YA_J_K@Z 100759a0 f i libucrtd:atox.obj
 0001:000749b0       ?minimum_signed_value@__crt_strtox@@YAJK@Z 100759b0 f i libucrtd:atox.obj
 0001:000749c0       ?minimum_signed_value@__crt_strtox@@YA_J_K@Z 100759c0 f i libucrtd:atox.obj
 0001:000749d0       ?parse_digit@__crt_strtox@@YAID@Z 100759d0 f i libucrtd:atox.obj
 0001:00074a30       ?parse_digit@__crt_strtox@@YAI_W@Z 10075a30 f i libucrtd:atox.obj
 0001:00074a80       ?restore_state@?$c_string_character_source@D@__crt_strtox@@QAE_NQBD@Z 10075a80 f i libucrtd:atox.obj
 0001:00074aa0       ?restore_state@?$c_string_character_source@_W@__crt_strtox@@QAE_NQB_W@Z 10075aa0 f i libucrtd:atox.obj
 0001:00074ac0       ?save_state@?$c_string_character_source@D@__crt_strtox@@QBEPBDXZ 10075ac0 f i libucrtd:atox.obj
 0001:00074ae0       ?save_state@?$c_string_character_source@_W@__crt_strtox@@QBEPB_WXZ 10075ae0 f i libucrtd:atox.obj
 0001:00074b00       ?unget@?$c_string_character_source@D@__crt_strtox@@QAEXD@Z 10075b00 f i libucrtd:atox.obj
 0001:00074bb0       ?unget@?$c_string_character_source@_W@__crt_strtox@@QAEX_W@Z 10075bb0 f i libucrtd:atox.obj
 0001:00074c60       ?validate@?$c_string_character_source@D@__crt_strtox@@QBE_NXZ 10075c60 f i libucrtd:atox.obj
 0001:00074cf0       ?validate@?$c_string_character_source@_W@__crt_strtox@@QBE_NXZ 10075cf0 f i libucrtd:atox.obj
 0001:00074d80       ?wide_character_to_digit@__crt_strtox@@YAH_W@Z 10075d80 f i libucrtd:atox.obj
 0001:000750b0       ___ascii_iswalpha          100760b0 f i libucrtd:atox.obj
 0001:000750f0       ___ascii_toupper           100760f0 f i libucrtd:atox.obj
 0001:00075110       ___ascii_towupper          10076110 f i libucrtd:atox.obj
 0001:00075130       __atoi64                   10076130 f   libucrtd:atox.obj
 0001:00075150       __atoi64_l                 10076150 f   libucrtd:atox.obj
 0001:00075170       __atoi_l                   10076170 f   libucrtd:atox.obj
 0001:00075190       __atol_l                   10076190 f   libucrtd:atox.obj
 0001:000751b0       __atoll_l                  100761b0 f   libucrtd:atox.obj
 0001:000751d0       __wtoi                     100761d0 f   libucrtd:atox.obj
 0001:000751f0       __wtoi64                   100761f0 f   libucrtd:atox.obj
 0001:00075210       __wtoi64_l                 10076210 f   libucrtd:atox.obj
 0001:00075230       __wtoi_l                   10076230 f   libucrtd:atox.obj
 0001:00075250       __wtol                     10076250 f   libucrtd:atox.obj
 0001:00075270       __wtol_l                   10076270 f   libucrtd:atox.obj
 0001:00075290       __wtoll                    10076290 f   libucrtd:atox.obj
 0001:000752b0       __wtoll_l                  100762b0 f   libucrtd:atox.obj
 0001:000752d0       _atoi                      100762d0 f   libucrtd:atox.obj
 0001:000752f0       _atol                      100762f0 f   libucrtd:atox.obj
 0001:00075310       _atoll                     10076310 f   libucrtd:atox.obj
 0001:00075330       _strncmp                   10076330 f   libucrtd:strncmp.obj
 0001:000753b0       _wcsncmp                   100763b0 f   libucrtd:wcsncmp.obj
 0001:00075410       __CrtGetDebugFillThreshold 10076410 f   libucrtd:debug_fill_threshold.obj
 0001:00075420       __CrtSetDebugFillThreshold 10076420 f   libucrtd:debug_fill_threshold.obj
 0001:00075440       ??$make_c_string_character_source@DPAPAD@__crt_strtox@@YA?AV?$c_string_character_source@D@0@QBDQAPAD@Z 10076440 f i libucrtd:strtox.obj
 0001:00075460       ??$make_c_string_character_source@_WPAPA_W@__crt_strtox@@YA?AV?$c_string_character_source@_W@0@QB_WQAPA_W@Z 10076460 f i libucrtd:strtox.obj
 0001:00075480       ??$parse_integer_from_string@JDPAPAD@__crt_strtox@@YAJQBDQAPADHQAU__crt_locale_pointers@@@Z 10076480 f i libucrtd:strtox.obj
 0001:000754c0       ??$parse_integer_from_string@J_WPAPA_W@__crt_strtox@@YAJQB_WQAPA_WHQAU__crt_locale_pointers@@@Z 100764c0 f i libucrtd:strtox.obj
 0001:00075500       ??$parse_integer_from_string@KDPAPAD@__crt_strtox@@YAKQBDQAPADHQAU__crt_locale_pointers@@@Z 10076500 f i libucrtd:strtox.obj
 0001:00075540       ??$parse_integer_from_string@K_WPAPA_W@__crt_strtox@@YAKQB_WQAPA_WHQAU__crt_locale_pointers@@@Z 10076540 f i libucrtd:strtox.obj
 0001:00075580       ??$parse_integer_from_string@_JDPAPAD@__crt_strtox@@YA_JQBDQAPADHQAU__crt_locale_pointers@@@Z 10076580 f i libucrtd:strtox.obj
 0001:000755c0       ??$parse_integer_from_string@_J_WPAPA_W@__crt_strtox@@YA_JQB_WQAPA_WHQAU__crt_locale_pointers@@@Z 100765c0 f i libucrtd:strtox.obj
 0001:00075600       ??$parse_integer_from_string@_KDPAPAD@__crt_strtox@@YA_KQBDQAPADHQAU__crt_locale_pointers@@@Z 10076600 f i libucrtd:strtox.obj
 0001:00075640       ??$parse_integer_from_string@_K_WPAPA_W@__crt_strtox@@YA_KQB_WQAPA_WHQAU__crt_locale_pointers@@@Z 10076640 f i libucrtd:strtox.obj
 0001:00075680       __strtoi64                 10076680 f   libucrtd:strtox.obj
 0001:000756a0       __strtoi64_l               100766a0 f   libucrtd:strtox.obj
 0001:000756c0       __strtoimax_l              100766c0 f   libucrtd:strtox.obj
 0001:000756e0       __strtol_l                 100766e0 f   libucrtd:strtox.obj
 0001:00075700       __strtoll_l                10076700 f   libucrtd:strtox.obj
 0001:00075720       __strtoui64                10076720 f   libucrtd:strtox.obj
 0001:00075740       __strtoui64_l              10076740 f   libucrtd:strtox.obj
 0001:00075760       __strtoul_l                10076760 f   libucrtd:strtox.obj
 0001:00075780       __strtoull_l               10076780 f   libucrtd:strtox.obj
 0001:000757a0       __strtoumax_l              100767a0 f   libucrtd:strtox.obj
 0001:000757c0       __wcstoi64                 100767c0 f   libucrtd:strtox.obj
 0001:000757e0       __wcstoi64_l               100767e0 f   libucrtd:strtox.obj
 0001:00075800       __wcstoimax_l              10076800 f   libucrtd:strtox.obj
 0001:00075820       __wcstol_l                 10076820 f   libucrtd:strtox.obj
 0001:00075840       __wcstoll_l                10076840 f   libucrtd:strtox.obj
 0001:00075860       __wcstoui64                10076860 f   libucrtd:strtox.obj
 0001:00075880       __wcstoui64_l              10076880 f   libucrtd:strtox.obj
 0001:000758a0       __wcstoul_l                100768a0 f   libucrtd:strtox.obj
 0001:000758c0       __wcstoull_l               100768c0 f   libucrtd:strtox.obj
 0001:000758e0       __wcstoumax_l              100768e0 f   libucrtd:strtox.obj
 0001:00075900       _strtoimax                 10076900 f   libucrtd:strtox.obj
 0001:00075920       _strtol                    10076920 f   libucrtd:strtox.obj
 0001:00075940       _strtoll                   10076940 f   libucrtd:strtox.obj
 0001:00075960       _strtoul                   10076960 f   libucrtd:strtox.obj
 0001:00075980       _strtoull                  10076980 f   libucrtd:strtox.obj
 0001:000759a0       _strtoumax                 100769a0 f   libucrtd:strtox.obj
 0001:000759c0       _wcstoimax                 100769c0 f   libucrtd:strtox.obj
 0001:000759e0       _wcstol                    100769e0 f   libucrtd:strtox.obj
 0001:00075a00       _wcstoll                   10076a00 f   libucrtd:strtox.obj
 0001:00075a20       _wcstoul                   10076a20 f   libucrtd:strtox.obj
 0001:00075a40       _wcstoull                  10076a40 f   libucrtd:strtox.obj
 0001:00075a60       _wcstoumax                 10076a60 f   libucrtd:strtox.obj
 0001:00075a80       __mbtowc_l                 10076a80 f   libucrtd:mbtowc.obj
 0001:00075da0       _mbtowc                    10076da0 f   libucrtd:mbtowc.obj
 0001:00075dc0       __wctomb_l                 10076dc0 f   libucrtd:wctomb.obj
 0001:00075e40       __wctomb_s_l               10076e40 f   libucrtd:wctomb.obj
 0001:00076200       _wctomb                    10077200 f   libucrtd:wctomb.obj
 0001:00076250       _wctomb_s                  10077250 f   libucrtd:wctomb.obj
 0001:00076280       ??$?RU__acrt_ptd@@@__crt_internal_free_policy@@QBEXQBU__acrt_ptd@@@Z 10077280 f i libucrtd:per_thread_data.obj
 0001:00076730       ??0?$__crt_unique_heap_ptr@U__acrt_ptd@@U__crt_internal_free_policy@@@@QAE@QAU__acrt_ptd@@@Z 10077730 f i libucrtd:per_thread_data.obj
 0001:00076750       ??0__crt_scoped_get_last_error_reset@@QAE@XZ 10077750 f i libucrtd:per_thread_data.obj
 0001:00076770       ??1?$__crt_unique_heap_ptr@U__acrt_ptd@@U__crt_internal_free_policy@@@@QAE@XZ 10077770 f i libucrtd:per_thread_data.obj
 0001:00076790       ??1__crt_scoped_get_last_error_reset@@QAE@XZ 10077790 f i libucrtd:per_thread_data.obj
 0001:000767b0       ??B?$__crt_unique_heap_ptr@U__acrt_ptd@@U__crt_internal_free_policy@@@@QBE_NXZ 100777b0 f i libucrtd:per_thread_data.obj
 0001:00076a90       ?dangerous_get_state_array@?$dual_state_global@PAU__crt_locale_data@@@__crt_state_management@@QAEPAPAU__crt_locale_data@@XZ 10077a90 f i libucrtd:per_thread_data.obj
 0001:00076c10       ?detach@?$__crt_unique_heap_ptr@U__acrt_ptd@@U__crt_internal_free_policy@@@@QAEPAU__acrt_ptd@@XZ 10077c10 f i libucrtd:per_thread_data.obj
 0001:00076c40       ?get@?$__crt_unique_heap_ptr@U__acrt_ptd@@U__crt_internal_free_policy@@@@QBEPAU__acrt_ptd@@XZ 10077c40 f i libucrtd:per_thread_data.obj
 0001:00076c60       ?get_current_state_index@__crt_state_management@@YAIABV__crt_scoped_get_last_error_reset@@@Z 10077c60 f i libucrtd:per_thread_data.obj
 0001:00076dd0       ?is_valid@?$__crt_unique_heap_ptr@U__acrt_ptd@@U__crt_internal_free_policy@@@@QBE_NXZ 10077dd0 f i libucrtd:per_thread_data.obj
 0001:00076e00       ?release@?$__crt_unique_heap_ptr@U__acrt_ptd@@U__crt_internal_free_policy@@@@QAEXXZ 10077e00 f i libucrtd:per_thread_data.obj
 0001:00076ef0       ?value@?$dual_state_global@PAU__crt_locale_data@@@__crt_state_management@@QAEAAPAU__crt_locale_data@@XZ 10077ef0 f i libucrtd:per_thread_data.obj
 0001:00076f10       ___acrt_freeptd            10077f10 f   libucrtd:per_thread_data.obj
 0001:00076f40       ___acrt_getptd             10077f40 f   libucrtd:per_thread_data.obj
 0001:00076f60       ___acrt_getptd_head        10077f60 f   libucrtd:per_thread_data.obj
 0001:00076f80       ___acrt_getptd_noexit      10077f80 f   libucrtd:per_thread_data.obj
 0001:00076f90       ___acrt_initialize_ptd     10077f90 f   libucrtd:per_thread_data.obj
 0001:00076fd0       ___acrt_uninitialize_ptd   10077fd0 f   libucrtd:per_thread_data.obj
 0001:00077000       ___threadhandle            10078000 f   libucrtd:per_thread_data.obj
 0001:00077010       ___threadid                10078010 f   libucrtd:per_thread_data.obj
 0001:00077020       ?value@?$dual_state_global@PAU__crt_multibyte_data@@@__crt_state_management@@QAEAAPAU__crt_multibyte_data@@XZ 10078020 f i libucrtd:locale_update.obj
 0001:00077040       ___acrt_update_locale_info 10078040 f   libucrtd:locale_update.obj
 0001:00077080       ___acrt_update_multibyte_info 10078080 f   libucrtd:locale_update.obj
 0001:000770c0       ?__acrt_fp_classify@@YA?AW4__acrt_fp_class@@ABN@Z 100780c0 f i libucrtd:cvt.obj
 0001:000771e0       ?__acrt_fp_is_negative@@YA_NABN@Z 100781e0 f i libucrtd:cvt.obj
 0001:00078230       ?strrchr@@YAPADQADH@Z      10079230 f i libucrtd:cvt.obj
 0001:00078250       ___acrt_fp_format          10079250 f   libucrtd:cvt.obj
 0001:000786e0       __fputwc_nolock            100796e0 f   libucrtd:fputwc.obj
 0001:000788d0       __fputwchar                100798d0 f   libucrtd:fputwc.obj
 0001:000788f0       __putwc_nolock             100798f0 f   libucrtd:fputwc.obj
 0001:00078910       _fputwc                    10079910 f   libucrtd:fputwc.obj
 0001:00078a20       _putwc                     10079a20 f   libucrtd:fputwc.obj
 0001:00078a40       _putwchar                  10079a40 f   libucrtd:fputwc.obj
 0001:00078a60       ?lowio_handle@__crt_stdio_stream@@QBEHXZ 10079a60 f i libucrtd:fileno.obj
 0001:00078a80       __fileno                   10079a80 f   libucrtd:fileno.obj
 0001:00078b20       ??$?RPAU__crt_stdio_stream_data@@@__crt_internal_free_policy@@QBEXQBQAU__crt_stdio_stream_data@@@Z 10079b20 f i libucrtd:_file.obj
 0001:00078b40       ??0?$__crt_unique_heap_ptr@PAU__crt_stdio_stream_data@@U__crt_internal_free_policy@@@@QAE@QAPAU__crt_stdio_stream_data@@@Z 10079b40 f i libucrtd:_file.obj
 0001:00078b60       ??1?$__crt_unique_heap_ptr@PAU__crt_stdio_stream_data@@U__crt_internal_free_policy@@@@QAE@XZ 10079b60 f i libucrtd:_file.obj
 0001:00078b80       ?detach@?$__crt_unique_heap_ptr@PAU__crt_stdio_stream_data@@U__crt_internal_free_policy@@@@QAEPAPAU__crt_stdio_stream_data@@XZ 10079b80 f i libucrtd:_file.obj
 0001:00078bb0       ?release@?$__crt_unique_heap_ptr@PAU__crt_stdio_stream_data@@U__crt_internal_free_policy@@@@QAEXXZ 10079bb0 f i libucrtd:_file.obj
 0001:00078be0       ___acrt_initialize_stdio   10079be0 f   libucrtd:_file.obj
 0001:00078d50       ___acrt_iob_func           10079d50 f   libucrtd:_file.obj
 0001:00078d60       ___acrt_uninitialize_stdio 10079d60 f   libucrtd:_file.obj
 0001:00078de0       __get_stream_buffer_pointers 10079de0 f   libucrtd:_file.obj
 0001:00078ec0       __lock_file                10079ec0 f   libucrtd:_file.obj
 0001:00078ef0       __unlock_file              10079ef0 f   libucrtd:_file.obj
 0001:00078f20       __get_printf_count_output  10079f20 f   libucrtd:printf_count_output.obj
 0001:00078f50       __set_printf_count_output  10079f50 f   libucrtd:printf_count_output.obj
 0001:00078fb0       ?has_any_buffer@__crt_stdio_stream@@QBE_NXZ 10079fb0 f i libucrtd:_sftbuf.obj
 0001:00078fd0       ?has_any_of@__crt_stdio_stream@@QBE_NJ@Z 10079fd0 f i libucrtd:_sftbuf.obj
 0001:00079010       ?has_temporary_buffer@__crt_stdio_stream@@QBE_NXZ 1007a010 f i libucrtd:_sftbuf.obj
 0001:00079030       ?set_flags@__crt_stdio_stream@@QBE_NJ@Z 1007a030 f i libucrtd:_sftbuf.obj
 0001:00079080       ?unset_flags@__crt_stdio_stream@@QBE_NJ@Z 1007a080 f i libucrtd:_sftbuf.obj
 0001:000790d0       ___acrt_stdio_begin_temporary_buffering_nolock 1007a0d0 f   libucrtd:_sftbuf.obj
 0001:00079290       ___acrt_stdio_end_temporary_buffering_nolock 1007a290 f   libucrtd:_sftbuf.obj
 0001:00079320       ??$?RU__crt_locale_data@@@__crt_internal_free_policy@@QBEXQBU__crt_locale_data@@@Z 1007a320 f i libucrtd:wsetlocale.obj
 0001:00079340       ??$?RU__crt_locale_pointers@@@__crt_internal_free_policy@@QBEXQBU__crt_locale_pointers@@@Z 1007a340 f i libucrtd:wsetlocale.obj
 0001:00079360       ??$?RU__crt_multibyte_data@@@__crt_internal_free_policy@@QBEXQBU__crt_multibyte_data@@@Z 1007a360 f i libucrtd:wsetlocale.obj
 0001:00079950       ??0?$__crt_unique_heap_ptr@U__crt_locale_data@@U__crt_internal_free_policy@@@@QAE@QAU__crt_locale_data@@@Z 1007a950 f i libucrtd:wsetlocale.obj
 0001:00079970       ??0?$__crt_unique_heap_ptr@U__crt_locale_pointers@@U__crt_internal_free_policy@@@@QAE@QAU__crt_locale_pointers@@@Z 1007a970 f i libucrtd:wsetlocale.obj
 0001:00079990       ??0?$__crt_unique_heap_ptr@U__crt_multibyte_data@@U__crt_internal_free_policy@@@@QAE@QAU__crt_multibyte_data@@@Z 1007a990 f i libucrtd:wsetlocale.obj
 0001:000799b0       ??0_expandlocale_locale_name_cache@@QAE@QA_WIQAU__crt_qualified_locale_data@@@Z 1007a9b0 f i libucrtd:wsetlocale.obj
 0001:00079a20       ??1?$__crt_unique_heap_ptr@U__crt_locale_data@@U__crt_internal_free_policy@@@@QAE@XZ 1007aa20 f i libucrtd:wsetlocale.obj
 0001:00079a40       ??1?$__crt_unique_heap_ptr@U__crt_locale_pointers@@U__crt_internal_free_policy@@@@QAE@XZ 1007aa40 f i libucrtd:wsetlocale.obj
 0001:00079a60       ??1?$__crt_unique_heap_ptr@U__crt_multibyte_data@@U__crt_internal_free_policy@@@@QAE@XZ 1007aa60 f i libucrtd:wsetlocale.obj
 0001:00079a80       ??1_expandlocale_locale_name_cache@@QAE@XZ 1007aa80 f i libucrtd:wsetlocale.obj
 0001:00079ae0       ??B?$__crt_unique_heap_ptr@U__crt_locale_data@@U__crt_internal_free_policy@@@@QBE_NXZ 1007aae0 f i libucrtd:wsetlocale.obj
 0001:00079b00       ??B?$__crt_unique_heap_ptr@U__crt_locale_pointers@@U__crt_internal_free_policy@@@@QBE_NXZ 1007ab00 f i libucrtd:wsetlocale.obj
 0001:00079b20       ??B?$__crt_unique_heap_ptr@U__crt_multibyte_data@@U__crt_internal_free_policy@@@@QBE_NXZ 1007ab20 f i libucrtd:wsetlocale.obj
 0001:00079f10       ?commit_locale_name@_expandlocale_locale_name_cache@@QAEXQB_WI@Z 1007af10 f i libucrtd:wsetlocale.obj
 0001:00079f70       ?commit_locale_name_cache_already_updated@_expandlocale_locale_name_cache@@QAEXQB_WI@Z 1007af70 f i libucrtd:wsetlocale.obj
 0001:00079fd0       ?detach@?$__crt_unique_heap_ptr@U__crt_locale_data@@U__crt_internal_free_policy@@@@QAEPAU__crt_locale_data@@XZ 1007afd0 f i libucrtd:wsetlocale.obj
 0001:0007a000       ?detach@?$__crt_unique_heap_ptr@U__crt_locale_pointers@@U__crt_internal_free_policy@@@@QAEPAU__crt_locale_pointers@@XZ 1007b000 f i libucrtd:wsetlocale.obj
 0001:0007a030       ?detach@?$__crt_unique_heap_ptr@U__crt_multibyte_data@@U__crt_internal_free_policy@@@@QAEPAU__crt_multibyte_data@@XZ 1007b030 f i libucrtd:wsetlocale.obj
 0001:0007a060       ?get@?$__crt_unique_heap_ptr@U__crt_locale_data@@U__crt_internal_free_policy@@@@QBEPAU__crt_locale_data@@XZ 1007b060 f i libucrtd:wsetlocale.obj
 0001:0007a080       ?get@?$__crt_unique_heap_ptr@U__crt_locale_pointers@@U__crt_internal_free_policy@@@@QBEPAU__crt_locale_pointers@@XZ 1007b080 f i libucrtd:wsetlocale.obj
 0001:0007a0a0       ?get@?$__crt_unique_heap_ptr@U__crt_multibyte_data@@U__crt_internal_free_policy@@@@QBEPAU__crt_multibyte_data@@XZ 1007b0a0 f i libucrtd:wsetlocale.obj
 0001:0007a0c0       ?is_valid@?$__crt_unique_heap_ptr@U__crt_locale_data@@U__crt_internal_free_policy@@@@QBE_NXZ 1007b0c0 f i libucrtd:wsetlocale.obj
 0001:0007a0f0       ?is_valid@?$__crt_unique_heap_ptr@U__crt_locale_pointers@@U__crt_internal_free_policy@@@@QBE_NXZ 1007b0f0 f i libucrtd:wsetlocale.obj
 0001:0007a120       ?is_valid@?$__crt_unique_heap_ptr@U__crt_multibyte_data@@U__crt_internal_free_policy@@@@QBE_NXZ 1007b120 f i libucrtd:wsetlocale.obj
 0001:0007a150       ?release@?$__crt_unique_heap_ptr@U__crt_locale_data@@U__crt_internal_free_policy@@@@QAEXXZ 1007b150 f i libucrtd:wsetlocale.obj
 0001:0007a180       ?release@?$__crt_unique_heap_ptr@U__crt_locale_pointers@@U__crt_internal_free_policy@@@@QAEXXZ 1007b180 f i libucrtd:wsetlocale.obj
 0001:0007a1b0       ?release@?$__crt_unique_heap_ptr@U__crt_multibyte_data@@U__crt_internal_free_policy@@@@QAEXXZ 1007b1b0 f i libucrtd:wsetlocale.obj
 0001:0007a1e0       ___acrt_copy_locale_name   1007b1e0 f   libucrtd:wsetlocale.obj
 0001:0007a280       ___acrt_set_locale_changed 1007b280 f   libucrtd:wsetlocale.obj
 0001:0007a2a0       ___acrt_uninitialize_locale 1007b2a0 f   libucrtd:wsetlocale.obj
 0001:0007a2c0       ___ascii_tolower           1007b2c0 f i libucrtd:wsetlocale.obj
 0001:0007a2e0       ___ascii_towlower          1007b2e0 f i libucrtd:wsetlocale.obj
 0001:0007a300       ___lc_lctowcs              1007b300 f   libucrtd:wsetlocale.obj
 0001:0007a3b0       ___lc_wcstolc              1007b3b0 f   libucrtd:wsetlocale.obj
 0001:0007a5e0       __configthreadlocale       1007b5e0 f   libucrtd:wsetlocale.obj
 0001:0007a760       __create_locale            1007b760 f   libucrtd:wsetlocale.obj
 0001:0007ada0       __free_locale              1007bda0 f   libucrtd:wsetlocale.obj
 0001:0007aed0       __get_current_locale       1007bed0 f   libucrtd:wsetlocale.obj
 0001:0007afa0       __wcreate_locale           1007bfa0 f   libucrtd:wsetlocale.obj
 0001:0007b1e0       __wcscats                  1007c1e0 f   libucrtd:wsetlocale.obj
 0001:0007b260       __wsetlocale               1007c260 f   libucrtd:wsetlocale.obj
 0001:0007c960       ___p___mb_cur_max          1007d960 f   libucrtd:nlsdata.obj
 0001:0007cc60       ___acrt_initialize_lowio   1007dc60 f   libucrtd:ioinit.obj
 0001:0007cd00       ___acrt_uninitialize_lowio 1007dd00 f   libucrtd:ioinit.obj
 0001:0007cd60       __CrtGetReportHook         1007dd60 f   libucrtd:dbgrptt.obj
 0001:0007cd70       __CrtSetReportFile         1007dd70 f   libucrtd:dbgrptt.obj
 0001:0007ce70       __CrtSetReportHook         1007de70 f   libucrtd:dbgrptt.obj
 0001:0007ce90       __CrtSetReportMode         1007de90 f   libucrtd:dbgrptt.obj
 0001:0007cfd0       __VCrtDbgReportA           1007dfd0 f   libucrtd:dbgrptt.obj
 0001:0007d850       __VCrtDbgReportW           1007e850 f   libucrtd:dbgrptt.obj
 0001:0007e200       __snprintf_s               1007f200 f i libucrtd:dbgrptt.obj
 0001:0007e240       __vsnprintf_s              1007f240 f i libucrtd:dbgrptt.obj
 0001:0007e270       __vsnprintf_s_l            1007f270 f i libucrtd:dbgrptt.obj
 0001:0007e400       ??$__acrt_wcs_to_mbs_cp@U__crt_win32_buffer_no_resizing@@@@YAHQB_WAAV?$__crt_win32_buffer@DU__crt_win32_buffer_no_resizing@@@@I@Z 1007f400 f i libucrtd:getmodulefilenamea.obj
 0001:0007e430       ??0?$__crt_win32_buffer@DU__crt_win32_buffer_no_resizing@@@@QAE@QADI@Z 1007f430 f i libucrtd:getmodulefilenamea.obj
 0001:0007e480       ??1?$__crt_win32_buffer@DU__crt_win32_buffer_no_resizing@@@@QAE@XZ 1007f480 f i libucrtd:getmodulefilenamea.obj
 0001:0007e4f0       ?__acrt_get_utf8_acp_compatibility_codepage@@YAIXZ 1007f4f0 f i libucrtd:getmodulefilenamea.obj
 0001:0007e580       ?_deallocate@?$__crt_win32_buffer@DU__crt_win32_buffer_no_resizing@@@@AAEXXZ 1007f580 f i libucrtd:getmodulefilenamea.obj
 0001:0007e5c0       ?allocate@?$__crt_win32_buffer@DU__crt_win32_buffer_no_resizing@@@@QAEHI@Z 1007f5c0 f i libucrtd:getmodulefilenamea.obj
 0001:0007e630       ?allocate@__crt_win32_buffer_no_resizing@@SAHQAPAXIABV__crt_win32_buffer_empty_debug_info@@@Z 1007f630 f i libucrtd:getmodulefilenamea.obj
 0001:0007e650       ?capacity@?$__crt_win32_buffer@DU__crt_win32_buffer_no_resizing@@@@QBEIXZ 1007f650 f i libucrtd:getmodulefilenamea.obj
 0001:0007e670       ?data@?$__crt_win32_buffer@DU__crt_win32_buffer_no_resizing@@@@QAEPADXZ 1007f670 f i libucrtd:getmodulefilenamea.obj
 0001:0007e690       ?deallocate@__crt_win32_buffer_no_resizing@@SAXQAXABV__crt_win32_buffer_empty_debug_info@@@Z 1007f690 f i libucrtd:getmodulefilenamea.obj
 0001:0007e6a0       ?debug_info@?$__crt_win32_buffer@DU__crt_win32_buffer_no_resizing@@@@QBEABV__crt_win32_buffer_empty_debug_info@@XZ 1007f6a0 f i libucrtd:getmodulefilenamea.obj
 0001:0007e6b0       ?set_to_nullptr@?$__crt_win32_buffer@DU__crt_win32_buffer_no_resizing@@@@QAEXXZ 1007f6b0 f i libucrtd:getmodulefilenamea.obj
 0001:0007e6f0       ?size@?$__crt_win32_buffer@DU__crt_win32_buffer_no_resizing@@@@QAEXI@Z 1007f6f0 f i libucrtd:getmodulefilenamea.obj
 0001:0007e710       ?size@?$__crt_win32_buffer@DU__crt_win32_buffer_no_resizing@@@@QBEIXZ 1007f710 f i libucrtd:getmodulefilenamea.obj
 0001:0007e730       ___acrt_GetModuleFileNameA 1007f730 f   libucrtd:getmodulefilenamea.obj
 0001:0007ea10       ??$message_box@$$TABQBDABQBDK@?$__crt_char_traits@D@@SAH$$QA$$TABQBD1$$QAK@Z 1007fa10 f i libucrtd:crtmbox.obj
 0001:0007ea40       ??$message_box@$$TABQB_WABQB_WK@?$__crt_char_traits@_W@@SAH$$QA$$TABQB_W1$$QAK@Z 1007fa40 f i libucrtd:crtmbox.obj
 0001:0007ea70       ??$message_box@PAUHWND__@@ABQBDABQBDABI@?$__crt_char_traits@D@@SAH$$QAPAUHWND__@@ABQBD1ABI@Z 1007fa70 f i libucrtd:crtmbox.obj
 0001:0007eaa0       ??$message_box@PAUHWND__@@ABQB_WABQB_WABI@?$__crt_char_traits@_W@@SAH$$QAPAUHWND__@@ABQB_W1ABI@Z 1007faa0 f i libucrtd:crtmbox.obj
 0001:0007ead0       ??$output_debug_string@ABQBD@?$__crt_char_traits@D@@SAXABQBD@Z 1007fad0 f i libucrtd:crtmbox.obj
 0001:0007eaf0       ??$output_debug_string@ABQB_W@?$__crt_char_traits@_W@@SAXABQB_W@Z 1007faf0 f i libucrtd:crtmbox.obj
 0001:0007eb10       ___acrt_show_narrow_message_box 1007fb10 f   libucrtd:crtmbox.obj
 0001:0007eb30       ___acrt_show_wide_message_box 1007fb30 f   libucrtd:crtmbox.obj
 0001:0007eb50       ___acrt_initialize_locks   1007fb50 f   libucrtd:locks.obj
 0001:0007ebb0       ___acrt_lock               1007fbb0 f   libucrtd:locks.obj
 0001:0007ebd0       ___acrt_uninitialize_locks 1007fbd0 f   libucrtd:locks.obj
 0001:0007ec20       ___acrt_unlock             1007fc20 f   libucrtd:locks.obj
 0001:0007ec40       __lock_locales             1007fc40 f   libucrtd:locks.obj
 0001:0007ec60       __unlock_locales           1007fc60 f   libucrtd:locks.obj
 0001:0007ec80       ??$?B$$A6AXH@Z@__crt_fast_encoded_nullptr_t@@QBEP6AXH@ZXZ 1007fc80 f i libucrtd:signal.obj
 0001:0007ed70       ??$__crt_fast_decode_pointer@P6AXH@Z@@YAP6AXH@ZQ6AXH@Z@Z 1007fd70 f i libucrtd:signal.obj
 0001:0007eda0       ??$__crt_fast_encode_pointer@P6AXH@Z@@YAP6AXH@ZQ6AXH@Z@Z 1007fda0 f i libucrtd:signal.obj
 0001:0007f050       ?initialize@?$dual_state_global@P6AXH@Z@__crt_state_management@@QAEXQ6AXH@Z@Z 10080050 f i libucrtd:signal.obj
 0001:0007f190       ?value@?$dual_state_global@P6AXH@Z@__crt_state_management@@QAEAAP6AXH@ZXZ 10080190 f i libucrtd:signal.obj
 0001:0007f1b0       ___acrt_get_sigabrt_handler 100801b0 f   libucrtd:signal.obj
 0001:0007f1d0       ___acrt_initialize_signal_handlers 100801d0 f   libucrtd:signal.obj
 0001:0007f210       ___fpecode                 10080210 f   libucrtd:signal.obj
 0001:0007f220       ___pxcptinfoptrs           10080220 f   libucrtd:signal.obj
 0001:0007f230       _raise                     10080230 f   libucrtd:signal.obj
 0001:0007f600       _signal                    10080600 f   libucrtd:signal.obj
 0001:0007f880       __msize                    10080880 f   libucrtd:msize.obj
 0001:0007f8a0       __msize_base               100808a0 f   libucrtd:msize.obj
 0001:0007f940       __realloc_base             10080940 f   libucrtd:realloc_base.obj
 0001:0007fa00       ??$?B$$A6GHPA_WKJ@Z@__crt_fast_encoded_nullptr_t@@QBEP6GHPA_WKJ@ZXZ 10080a00 f i libucrtd:winapi_thunks.obj
 0001:0007faf0       ??$__crt_fast_decode_pointer@P6GHPA_WKJ@Z@@YAP6GHPA_WKJ@ZQ6GH0KJ@Z@Z 10080af0 f i libucrtd:winapi_thunks.obj
 0001:0007fb20       ??$__crt_fast_decode_pointer@PAX@@YAPAXQAX@Z 10080b20 f i libucrtd:winapi_thunks.obj
 0001:0007fb50       ??$__crt_fast_encode_pointer@P6GHPA_WKJ@Z@@YAP6GHPA_WKJ@ZQ6GH0KJ@Z@Z 10080b50 f i libucrtd:winapi_thunks.obj
 0001:000804b0       _GetCurrentThreadEffectiveToken 100814b0 f i libucrtd:winapi_thunks.obj
 0001:000804c0       ___acrt_AppPolicyGetProcessTerminationMethodInternal@4 100814c0 f   libucrtd:winapi_thunks.obj
 0001:00080500       ___acrt_AppPolicyGetShowDeveloperDiagnosticInternal@4 10081500 f   libucrtd:winapi_thunks.obj
 0001:00080540       ___acrt_AppPolicyGetThreadInitializationTypeInternal@4 10081540 f   libucrtd:winapi_thunks.obj
 0001:00080580       ___acrt_AppPolicyGetWindowingModelInternal@4 10081580 f   libucrtd:winapi_thunks.obj
 0001:000805c0       ___acrt_AreFileApisANSI@0  100815c0 f   libucrtd:winapi_thunks.obj
 0001:00080600       ___acrt_CompareStringEx@36 10081600 f   libucrtd:winapi_thunks.obj
 0001:00080680       ___acrt_EnumSystemLocalesEx@16 10081680 f   libucrtd:winapi_thunks.obj
 0001:000806e0       ___acrt_FlsAlloc@4         100816e0 f   libucrtd:winapi_thunks.obj
 0001:00080720       ___acrt_FlsFree@4          10081720 f   libucrtd:winapi_thunks.obj
 0001:00080760       ___acrt_FlsGetValue@4      10081760 f   libucrtd:winapi_thunks.obj
 0001:000807a0       ___acrt_FlsSetValue@8      100817a0 f   libucrtd:winapi_thunks.obj
 0001:000807f0       ___acrt_GetDateFormatEx@28 100817f0 f   libucrtd:winapi_thunks.obj
 0001:00080870       ___acrt_GetEnabledXStateFeatures@0 10081870 f   libucrtd:winapi_thunks.obj
 0001:000808b0       ___acrt_GetLocaleInfoEx@16 100818b0 f   libucrtd:winapi_thunks.obj
 0001:00080910       ___acrt_GetSystemTimePreciseAsFileTime@4 10081910 f   libucrtd:winapi_thunks.obj
 0001:00080950       ___acrt_GetTimeFormatEx@24 10081950 f   libucrtd:winapi_thunks.obj
 0001:000809c0       ___acrt_GetUserDefaultLocaleName@8 100819c0 f   libucrtd:winapi_thunks.obj
 0001:00080a10       ___acrt_GetXStateFeaturesMask@8 10081a10 f   libucrtd:winapi_thunks.obj
 0001:00080a50       ___acrt_InitializeCriticalSectionEx@12 10081a50 f   libucrtd:winapi_thunks.obj
 0001:00080aa0       ___acrt_IsValidLocaleName@4 10081aa0 f   libucrtd:winapi_thunks.obj
 0001:00080af0       ___acrt_LCIDToLocaleName@16 10081af0 f   libucrtd:winapi_thunks.obj
 0001:00080b50       ___acrt_LCMapStringEx@36   10081b50 f   libucrtd:winapi_thunks.obj
 0001:00080bd0       ___acrt_LocaleNameToLCID@8 10081bd0 f   libucrtd:winapi_thunks.obj
 0001:00080c20       ___acrt_LocateXStateFeature@12 10081c20 f   libucrtd:winapi_thunks.obj
 0001:00080c70       ___acrt_MessageBoxA@16     10081c70 f   libucrtd:winapi_thunks.obj
 0001:00080cc0       ___acrt_MessageBoxW@16     10081cc0 f   libucrtd:winapi_thunks.obj
 0001:00080d10       ___acrt_RoInitialize@4     10081d10 f   libucrtd:winapi_thunks.obj
 0001:00080d50       ___acrt_RoUninitialize@0   10081d50 f   libucrtd:winapi_thunks.obj
 0001:00080d80       ___acrt_RtlGenRandom@8     10081d80 f   libucrtd:winapi_thunks.obj
 0001:00080dc0       ___acrt_SetThreadStackGuarantee@4 10081dc0 f   libucrtd:winapi_thunks.obj
 0001:00080e00       ___acrt_can_show_message_box 10081e00 f   libucrtd:winapi_thunks.obj
 0001:00080e40       ___acrt_can_use_vista_locale_apis 10081e40 f   libucrtd:winapi_thunks.obj
 0001:00080e70       ___acrt_can_use_xstate_apis 10081e70 f   libucrtd:winapi_thunks.obj
 0001:00080ea0       ___acrt_eagerly_load_locale_apis 10081ea0 f   libucrtd:winapi_thunks.obj
 0001:00080ee0       ___acrt_get_parent_window  10081ee0 f   libucrtd:winapi_thunks.obj
 0001:00080f50       ___acrt_initialize_winapi_thunks 10081f50 f   libucrtd:winapi_thunks.obj
 0001:00080fc0       ___acrt_is_interactive     10081fc0 f   libucrtd:winapi_thunks.obj
 0001:00081070       ___acrt_uninitialize_winapi_thunks 10082070 f   libucrtd:winapi_thunks.obj
 0001:000810e0       __chvalidator              100820e0 f   libucrtd:isctype.obj
 0001:00081130       __chvalidator_l            10082130 f   libucrtd:isctype.obj
 0001:000811b0       __isctype                  100821b0 f   libucrtd:isctype.obj
 0001:000811f0       __isctype_l                100821f0 f   libucrtd:isctype.obj
 0001:00081370       __isleadbyte_fast_internal 10082370 f i libucrtd:isctype.obj
 0001:00081390       ??$?RU__crt_stdio_stream_data@@@__crt_internal_free_policy@@QBEXQBU__crt_stdio_stream_data@@@Z 10082390 f i libucrtd:stream.obj
 0001:000813b0       ??0?$__crt_unique_heap_ptr@U__crt_stdio_stream_data@@U__crt_internal_free_policy@@@@QAE@QAU__crt_stdio_stream_data@@@Z 100823b0 f i libucrtd:stream.obj
 0001:000813d0       ??0__crt_stdio_stream@@QAE@QAU__crt_stdio_stream_data@@@Z 100823d0 f i libucrtd:stream.obj
 0001:000813f0       ??0__crt_stdio_stream@@QAE@XZ 100823f0 f i libucrtd:stream.obj
 0001:00081410       ??1?$__crt_unique_heap_ptr@U__crt_stdio_stream_data@@U__crt_internal_free_policy@@@@QAE@XZ 10082410 f i libucrtd:stream.obj
 0001:00081430       ?__acrt_stdio_allocate_stream@@YA?AV__crt_stdio_stream@@XZ 10082430 f   libucrtd:stream.obj
 0001:00081520       ?__acrt_stdio_free_stream@@YAXV__crt_stdio_stream@@@Z 10082520 f   libucrtd:stream.obj
 0001:000815a0       ?deallocate@__crt_stdio_stream@@QAEXXZ 100825a0 f i libucrtd:stream.obj
 0001:000815c0       ?detach@?$__crt_unique_heap_ptr@U__crt_stdio_stream_data@@U__crt_internal_free_policy@@@@QAEPAU__crt_stdio_stream_data@@XZ 100825c0 f i libucrtd:stream.obj
 0001:00081730       ?lock@__crt_stdio_stream@@QBEXXZ 10082730 f i libucrtd:stream.obj
 0001:00081750       ?release@?$__crt_unique_heap_ptr@U__crt_stdio_stream_data@@U__crt_internal_free_policy@@@@QAEXXZ 10082750 f i libucrtd:stream.obj
 0001:00081780       ?try_allocate@__crt_stdio_stream@@QAE_NXZ 10082780 f i libucrtd:stream.obj
 0001:000817d0       ??$__acrt_stdio_parse_mode@D@@YA?AU__acrt_stdio_stream_mode@@QBD@Z 100827d0 f i libucrtd:openfile.obj
 0001:00082040       ??$__acrt_stdio_parse_mode@_W@@YA?AU__acrt_stdio_stream_mode@@QB_W@Z 10083040 f i libucrtd:openfile.obj
 0001:00082bd0       ??$tcsncmp@AAPBDAAY02$$CBDI@?$__crt_char_traits@D@@SAHAAPBDAAY02$$CBD$$QAI@Z 10083bd0 f i libucrtd:openfile.obj
 0001:00082bf0       ??$tcsncmp@AAPB_WAAY02$$CB_WI@?$__crt_char_traits@_W@@SAHAAPB_WAAY02$$CB_W$$QAI@Z 10083bf0 f i libucrtd:openfile.obj
 0001:00082c10       ??$tcsnicmp@AAPBDAAY04$$CBDI@?$__crt_char_traits@D@@SAHAAPBDAAY04$$CBD$$QAI@Z 10083c10 f i libucrtd:openfile.obj
 0001:00082c30       ??$tcsnicmp@AAPBDAAY06$$CBDI@?$__crt_char_traits@D@@SAHAAPBDAAY06$$CBD$$QAI@Z 10083c30 f i libucrtd:openfile.obj
 0001:00082c50       ??$tcsnicmp@AAPBDAAY07$$CBDI@?$__crt_char_traits@D@@SAHAAPBDAAY07$$CBD$$QAI@Z 10083c50 f i libucrtd:openfile.obj
 0001:00082c70       ??$tcsnicmp@AAPB_WAAY04$$CB_WI@?$__crt_char_traits@_W@@SAHAAPB_WAAY04$$CB_W$$QAI@Z 10083c70 f i libucrtd:openfile.obj
 0001:00082c90       ??$tcsnicmp@AAPB_WAAY06$$CB_WI@?$__crt_char_traits@_W@@SAHAAPB_WAAY06$$CB_W$$QAI@Z 10083c90 f i libucrtd:openfile.obj
 0001:00082cb0       ??$tcsnicmp@AAPB_WAAY07$$CB_WI@?$__crt_char_traits@_W@@SAHAAPB_WAAY07$$CB_W$$QAI@Z 10083cb0 f i libucrtd:openfile.obj
 0001:00082cd0       ??$tsopen_s@PAHABQBDABHABHH@?$__crt_char_traits@D@@SAH$$QAPAHABQBDABH2$$QAH@Z 10083cd0 f i libucrtd:openfile.obj
 0001:00082d00       ??$tsopen_s@PAHABQB_WABHABHH@?$__crt_char_traits@_W@@SAH$$QAPAHABQB_WABH2$$QAH@Z 10083d00 f i libucrtd:openfile.obj
 0001:00082d30       ?__acrt_stdio_parse_mode_D@@YA_NAAU__acrt_stdio_stream_mode@@@Z 10083d30 f i libucrtd:openfile.obj
 0001:00082d60       ?__acrt_stdio_parse_mode_N@@YA_NAAU__acrt_stdio_stream_mode@@@Z 10083d60 f i libucrtd:openfile.obj
 0001:00082d80       ?__acrt_stdio_parse_mode_R@@YA_NAAU__acrt_stdio_stream_mode@@AA_N@Z 10083d80 f i libucrtd:openfile.obj
 0001:00082db0       ?__acrt_stdio_parse_mode_S@@YA_NAAU__acrt_stdio_stream_mode@@AA_N@Z 10083db0 f i libucrtd:openfile.obj
 0001:00082de0       ?__acrt_stdio_parse_mode_T@@YA_NAAU__acrt_stdio_stream_mode@@@Z 10083de0 f i libucrtd:openfile.obj
 0001:00082e10       ?__acrt_stdio_parse_mode_b@@YA_NAAU__acrt_stdio_stream_mode@@@Z 10083e10 f i libucrtd:openfile.obj
 0001:00082e40       ?__acrt_stdio_parse_mode_c@@YA_NAAU__acrt_stdio_stream_mode@@AA_N@Z 10083e40 f i libucrtd:openfile.obj
 0001:00082e70       ?__acrt_stdio_parse_mode_n@@YA_NAAU__acrt_stdio_stream_mode@@AA_N@Z 10083e70 f i libucrtd:openfile.obj
 0001:00082ea0       ?__acrt_stdio_parse_mode_plus@@YA_NAAU__acrt_stdio_stream_mode@@AA_N@Z 10083ea0 f i libucrtd:openfile.obj
 0001:00082f10       ?__acrt_stdio_parse_mode_t@@YA_NAAU__acrt_stdio_stream_mode@@@Z 10083f10 f i libucrtd:openfile.obj
 0001:00082f40       ?__acrt_stdio_parse_mode_x@@YA_NAAU__acrt_stdio_stream_mode@@@Z 10083f40 f i libucrtd:openfile.obj
 0001:00082f70       __openfile                 10083f70 f   libucrtd:openfile.obj
 0001:00082fa0       __wopenfile                10083fa0 f   libucrtd:openfile.obj
 0001:00083280       __close                    10084280 f   libucrtd:close.obj
 0001:00083400       __close_nolock             10084400 f   libucrtd:close.obj
 0001:00083460       ?has_crt_buffer@__crt_stdio_stream@@QBE_NXZ 10084460 f i libucrtd:_freebuf.obj
 0001:00083480       ___acrt_stdio_free_buffer_nolock 10084480 f   libucrtd:_freebuf.obj
 0001:00083ae0       ?__acrt_stdio_reset_buffer@@YAXV__crt_stdio_stream@@@Z 10084ae0 f i libucrtd:fflush.obj
 0001:00083be0       ?has_all_of@__crt_stdio_stream@@QBE_NJ@Z 10084be0 f i libucrtd:fflush.obj
 0001:00083cb0       ___acrt_stdio_flush_nolock 10084cb0 f   libucrtd:fflush.obj
 0001:00083d80       __fflush_nolock            10084d80 f   libucrtd:fflush.obj
 0001:00083e00       __flushall                 10084e00 f   libucrtd:fflush.obj
 0001:00083e20       _fflush                    10084e20 f   libucrtd:fflush.obj
 0001:000845d0       ?has_big_buffer@__crt_stdio_stream@@QBE_NXZ 100855d0 f i libucrtd:_flsbuf.obj
 0001:000846d0       ___acrt_stdio_flush_and_write_narrow_nolock 100856d0 f   libucrtd:_flsbuf.obj
 0001:00084700       ___acrt_stdio_flush_and_write_wide_nolock 10085700 f   libucrtd:_flsbuf.obj
 0001:00084a30       ___acrt_get_begin_thread_init_policy 10085a30 f   libucrtd:win_policies.obj
 0001:00084a50       ___acrt_get_developer_information_policy 10085a50 f   libucrtd:win_policies.obj
 0001:00084a70       ___acrt_get_process_end_policy 10085a70 f   libucrtd:win_policies.obj
 0001:00084a90       ___acrt_get_windowing_model_policy 10085a90 f   libucrtd:win_policies.obj
 0001:00084d60       ??$__acrt_mbs_to_wcs_cp@U__crt_win32_buffer_internal_dynamic_resizing@@@@YAHQBDAAV?$__crt_win32_buffer@_WU__crt_win32_buffer_internal_dynamic_resizing@@@@I@Z 10085d60 f i libucrtd:argv_wildcards.obj
 0001:00084d90       ??$__acrt_wcs_to_mbs_cp@U__crt_win32_buffer_internal_dynamic_resizing@@@@YAHQB_WAAV?$__crt_win32_buffer@DU__crt_win32_buffer_internal_dynamic_resizing@@@@I@Z 10085d90 f i libucrtd:argv_wildcards.obj
 0001:00085ce0       ??$tcsncpy_s@AAPADIAAPADABI@?$__crt_char_traits@D@@SAHAAPAD$$QAI0ABI@Z 10086ce0 f i libucrtd:argv_wildcards.obj
 0001:00085d10       ??$tcsncpy_s@AAPA_WIAAPA_WABI@?$__crt_char_traits@_W@@SAHAAPA_W$$QAI0ABI@Z 10086d10 f i libucrtd:argv_wildcards.obj
 0001:00085d40       ??$tcsncpy_s@PADABIABQBDABI@?$__crt_char_traits@D@@SAH$$QAPADABIABQBD1@Z 10086d40 f i libucrtd:argv_wildcards.obj
 0001:00085d70       ??$tcsncpy_s@PADIABQBDABI@?$__crt_char_traits@D@@SAH$$QAPAD$$QAIABQBDABI@Z 10086d70 f i libucrtd:argv_wildcards.obj
 0001:00085da0       ??$tcsncpy_s@PA_WABIABQB_WABI@?$__crt_char_traits@_W@@SAH$$QAPA_WABIABQB_W1@Z 10086da0 f i libucrtd:argv_wildcards.obj
 0001:00085dd0       ??$tcsncpy_s@PA_WIABQB_WABI@?$__crt_char_traits@_W@@SAH$$QAPA_W$$QAIABQB_WABI@Z 10086dd0 f i libucrtd:argv_wildcards.obj
 0001:00085e00       ??$tcspbrk@AAPADAAY02$$CBD@?$__crt_char_traits@D@@SAPADAAPADAAY02$$CBD@Z 10086e00 f i libucrtd:argv_wildcards.obj
 0001:00085e20       ??$tcspbrk@AAPA_WAAY02$$CB_W@?$__crt_char_traits@_W@@SAPA_WAAPA_WAAY02$$CB_W@Z 10086e20 f i libucrtd:argv_wildcards.obj
 0001:00085e40       ??0?$__crt_unique_handle_t@U__crt_findfile_traits@@@@QAE@QAX@Z 10086e40 f i libucrtd:argv_wildcards.obj
 0001:00085e60       ??0?$__crt_win32_buffer@DU__crt_win32_buffer_internal_dynamic_resizing@@@@QAE@XZ 10086e60 f i libucrtd:argv_wildcards.obj
 0001:00085eb0       ??0?$__crt_win32_buffer@_WU__crt_win32_buffer_internal_dynamic_resizing@@@@QAE@XZ 10086eb0 f i libucrtd:argv_wildcards.obj
 0001:00085f60       ??1?$__crt_unique_handle_t@U__crt_findfile_traits@@@@QAE@XZ 10086f60 f i libucrtd:argv_wildcards.obj
 0001:00085f80       ??1?$__crt_win32_buffer@DU__crt_win32_buffer_internal_dynamic_resizing@@@@QAE@XZ 10086f80 f i libucrtd:argv_wildcards.obj
 0001:00085fc0       ??1?$__crt_win32_buffer@_WU__crt_win32_buffer_internal_dynamic_resizing@@@@QAE@XZ 10086fc0 f i libucrtd:argv_wildcards.obj
 0001:00086220       ?_deallocate@?$__crt_win32_buffer@DU__crt_win32_buffer_internal_dynamic_resizing@@@@AAEXXZ 10087220 f i libucrtd:argv_wildcards.obj
 0001:00086260       ?_deallocate@?$__crt_win32_buffer@_WU__crt_win32_buffer_internal_dynamic_resizing@@@@AAEXXZ 10087260 f i libucrtd:argv_wildcards.obj
 0001:000862a0       ?allocate@?$__crt_win32_buffer@DU__crt_win32_buffer_internal_dynamic_resizing@@@@QAEHI@Z 100872a0 f i libucrtd:argv_wildcards.obj
 0001:00086310       ?allocate@?$__crt_win32_buffer@_WU__crt_win32_buffer_internal_dynamic_resizing@@@@QAEHI@Z 10087310 f i libucrtd:argv_wildcards.obj
 0001:00086380       ?allocate@__crt_win32_buffer_internal_dynamic_resizing@@SAHQAPAXIABV__crt_win32_buffer_empty_debug_info@@@Z 10087380 f i libucrtd:argv_wildcards.obj
 0001:000864c0       ?capacity@?$__crt_win32_buffer@DU__crt_win32_buffer_internal_dynamic_resizing@@@@QBEIXZ 100874c0 f i libucrtd:argv_wildcards.obj
 0001:000864e0       ?capacity@?$__crt_win32_buffer@_WU__crt_win32_buffer_internal_dynamic_resizing@@@@QBEIXZ 100874e0 f i libucrtd:argv_wildcards.obj
 0001:00086500       ?close@?$__crt_unique_handle_t@U__crt_findfile_traits@@@@QAEXXZ 10087500 f i libucrtd:argv_wildcards.obj
 0001:00086540       ?close@__crt_findfile_traits@@SA_NPAX@Z 10087540 f i libucrtd:argv_wildcards.obj
 0001:00086570       ?data@?$__crt_win32_buffer@DU__crt_win32_buffer_internal_dynamic_resizing@@@@QAEPADXZ 10087570 f i libucrtd:argv_wildcards.obj
 0001:00086590       ?data@?$__crt_win32_buffer@_WU__crt_win32_buffer_internal_dynamic_resizing@@@@QAEPA_WXZ 10087590 f i libucrtd:argv_wildcards.obj
 0001:000865b0       ?deallocate@__crt_win32_buffer_internal_dynamic_resizing@@SAXQAXABV__crt_win32_buffer_empty_debug_info@@@Z 100875b0 f i libucrtd:argv_wildcards.obj
 0001:000865d0       ?debug_info@?$__crt_win32_buffer@DU__crt_win32_buffer_internal_dynamic_resizing@@@@QBEABV__crt_win32_buffer_empty_debug_info@@XZ 100875d0 f i libucrtd:argv_wildcards.obj
 0001:000865e0       ?debug_info@?$__crt_win32_buffer@_WU__crt_win32_buffer_internal_dynamic_resizing@@@@QBEABV__crt_win32_buffer_empty_debug_info@@XZ 100875e0 f i libucrtd:argv_wildcards.obj
 0001:000868f0       ?get@?$__crt_unique_handle_t@U__crt_findfile_traits@@@@QBEPAXXZ 100878f0 f i libucrtd:argv_wildcards.obj
 0001:00086960       ?get_invalid_value@__crt_findfile_traits@@SAPAXXZ 10087960 f i libucrtd:argv_wildcards.obj
 0001:000869f0       ?set_to_nullptr@?$__crt_win32_buffer@DU__crt_win32_buffer_internal_dynamic_resizing@@@@QAEXXZ 100879f0 f i libucrtd:argv_wildcards.obj
 0001:00086a30       ?set_to_nullptr@?$__crt_win32_buffer@_WU__crt_win32_buffer_internal_dynamic_resizing@@@@QAEXXZ 10087a30 f i libucrtd:argv_wildcards.obj
 0001:00086a70       ?size@?$__crt_win32_buffer@DU__crt_win32_buffer_internal_dynamic_resizing@@@@QAEXI@Z 10087a70 f i libucrtd:argv_wildcards.obj
 0001:00086a90       ?size@?$__crt_win32_buffer@_WU__crt_win32_buffer_internal_dynamic_resizing@@@@QAEXI@Z 10087a90 f i libucrtd:argv_wildcards.obj
 0001:00086af0       ?strpbrk@@YAPADQADQBD@Z    10087af0 f i libucrtd:argv_wildcards.obj
 0001:00086b10       ?wcspbrk@@YAPA_WPA_WPB_W@Z 10087b10 f i libucrtd:argv_wildcards.obj
 0001:00086b30       ___acrt_expand_narrow_argv_wildcards 10087b30 f   libucrtd:argv_wildcards.obj
 0001:00086b50       ___acrt_expand_wide_argv_wildcards 10087b50 f   libucrtd:argv_wildcards.obj
 0001:00086c30       ??$initialize_from_array@$$BY10BAA@E@?$dual_state_global@PAE@__crt_state_management@@QAAXAAY10BAA@E@Z 10087c30 f i libucrtd:mbctype.obj
 0001:00086c80       ??$initialize_from_array@$$BY10BAB@E@?$dual_state_global@PAE@__crt_state_management@@QAAXAAY10BAB@E@Z 10087c80 f i libucrtd:mbctype.obj
 0001:00086ef0       ?dangerous_get_state_array@?$dual_state_global@PAE@__crt_state_management@@QAEPAPAEXZ 10087ef0 f i libucrtd:mbctype.obj
 0001:00086f00       ?dangerous_get_state_array@?$dual_state_global@PAU__crt_multibyte_data@@@__crt_state_management@@QAEPAPAU__crt_multibyte_data@@XZ 10087f00 f i libucrtd:mbctype.obj
 0001:00086fd0       ?initialize@?$dual_state_global@PAU__crt_multibyte_data@@@__crt_state_management@@QAEXQAU__crt_multibyte_data@@@Z 10087fd0 f i libucrtd:mbctype.obj
 0001:00087730       ?value@?$dual_state_global@PAE@__crt_state_management@@QAEAAPAEXZ 10088730 f i libucrtd:mbctype.obj
 0001:00087750       ___acrt_initialize_multibyte 10088750 f   libucrtd:mbctype.obj
 0001:00087800       ___acrt_update_thread_multibyte_data 10088800 f   libucrtd:mbctype.obj
 0001:00087820       ___p__mbcasemap            10088820 f   libucrtd:mbctype.obj
 0001:00087840       ___p__mbctype              10088840 f   libucrtd:mbctype.obj
 0001:00087860       __getmbcp                  10088860 f   libucrtd:mbctype.obj
 0001:000878d0       __setmbcp                  100888d0 f   libucrtd:mbctype.obj
 0001:00087900       __setmbcp_nolock           10088900 f   libucrtd:mbctype.obj
 0001:00087e71       __ismbbalnum               10088e71 f   libucrtd:ismbbyte.obj
 0001:00087e8c       __ismbbalnum_l             10088e8c f   libucrtd:ismbbyte.obj
 0001:00087ea8       __ismbbalpha               10088ea8 f   libucrtd:ismbbyte.obj
 0001:00087ec3       __ismbbalpha_l             10088ec3 f   libucrtd:ismbbyte.obj
 0001:00087edf       __ismbbblank               10088edf f   libucrtd:ismbbyte.obj
 0001:00087f02       __ismbbblank_l             10088f02 f   libucrtd:ismbbyte.obj
 0001:00087f26       __ismbbgraph               10088f26 f   libucrtd:ismbbyte.obj
 0001:00087f41       __ismbbgraph_l             10088f41 f   libucrtd:ismbbyte.obj
 0001:00087f5d       __ismbbkalnum              10088f5d f   libucrtd:ismbbyte.obj
 0001:00087f75       __ismbbkalnum_l            10088f75 f   libucrtd:ismbbyte.obj
 0001:00087f8e       __ismbbkana                10088f8e f   libucrtd:ismbbyte.obj
 0001:00087fa1       __ismbbkana_l              10088fa1 f   libucrtd:ismbbyte.obj
 0001:00087ff0       __ismbbkprint              10088ff0 f   libucrtd:ismbbyte.obj
 0001:00088008       __ismbbkprint_l            10089008 f   libucrtd:ismbbyte.obj
 0001:00088021       __ismbbkpunct              10089021 f   libucrtd:ismbbyte.obj
 0001:00088039       __ismbbkpunct_l            10089039 f   libucrtd:ismbbyte.obj
 0001:00088052       __ismbblead                10089052 f   libucrtd:ismbbyte.obj
 0001:0008806a       __ismbblead_l              1008906a f   libucrtd:ismbbyte.obj
 0001:00088083       __ismbbprint               10089083 f   libucrtd:ismbbyte.obj
 0001:0008809e       __ismbbprint_l             1008909e f   libucrtd:ismbbyte.obj
 0001:000880ba       __ismbbpunct               100890ba f   libucrtd:ismbbyte.obj
 0001:000880d2       __ismbbpunct_l             100890d2 f   libucrtd:ismbbyte.obj
 0001:000880eb       __ismbbtrail               100890eb f   libucrtd:ismbbyte.obj
 0001:00088103       __ismbbtrail_l             10089103 f   libucrtd:ismbbyte.obj
 0001:00088120       ___acrt_initialize_command_line 10089120 f   libucrtd:argv_data.obj
 0001:00088140       ___acrt_uninitialize_command_line 10089140 f   libucrtd:argv_data.obj
 0001:00088150       ___p___argc                10089150 f   libucrtd:argv_data.obj
 0001:00088160       ___p___argv                10089160 f   libucrtd:argv_data.obj
 0001:00088170       ___p___wargv               10089170 f   libucrtd:argv_data.obj
 0001:00088180       ___p__acmdln               10089180 f   libucrtd:argv_data.obj
 0001:00088190       ___p__pgmptr               10089190 f   libucrtd:argv_data.obj
 0001:000881a0       ___p__wcmdln               100891a0 f   libucrtd:argv_data.obj
 0001:000881b0       ___p__wpgmptr              100891b0 f   libucrtd:argv_data.obj
 0001:000881c0       __get_pgmptr               100891c0 f   libucrtd:argv_data.obj
 0001:000882d0       __get_wpgmptr              100892d0 f   libucrtd:argv_data.obj
 0001:00088490       ___acrt_MultiByteToWideChar 10089490 f   libucrtd:multibytetowidechar.obj
 0001:00088590       ___acrt_WideCharToMultiByte 10089590 f   libucrtd:widechartomultibyte.obj
 0001:000886d2       ___dcrt_get_narrow_environment_from_os 100896d2 f   libucrtd:get_environment_from_os.obj
 0001:00088764       ___dcrt_get_wide_environment_from_os 10089764 f   libucrtd:get_environment_from_os.obj
 0001:000890f9       ??$get_or_create_environment_nolock@$$V@?$__crt_char_traits@D@@SAPAPADXZ 1008a0f9 f i libucrtd:setenv.obj
 0001:000890fe       ??$get_or_create_environment_nolock@$$V@?$__crt_char_traits@_W@@SAPAPA_WXZ 1008a0fe f i libucrtd:setenv.obj
 0001:00089103       ??$set_environment_variable@ABQADQAD@?$__crt_char_traits@D@@SAHABQAD$$QBQAD@Z 1008a103 f i libucrtd:setenv.obj
 0001:0008911b       ??$set_environment_variable@ABQA_WQA_W@?$__crt_char_traits@_W@@SAHABQA_W$$QBQA_W@Z 1008a11b f i libucrtd:setenv.obj
 0001:00089132       ??$tcschr@ABQADD@?$__crt_char_traits@D@@SAPADABQAD$$QAD@Z 1008a132 f i libucrtd:setenv.obj
 0001:0008914c       ??$tcschr@ABQA_WD@?$__crt_char_traits@_W@@SAPA_WABQA_W$$QAD@Z 1008a14c f i libucrtd:setenv.obj
 0001:0008916a       ??$tcscpy_s@AAPADABIAAPAD@?$__crt_char_traits@D@@SAHAAPADABI0@Z 1008a16a f i libucrtd:setenv.obj
 0001:00089188       ??$tcscpy_s@AAPA_WABIAAPA_W@?$__crt_char_traits@_W@@SAHAAPA_WABI0@Z 1008a188 f i libucrtd:setenv.obj
 0001:000891a6       ??$tcscpy_s@ABQADABIABQAD@?$__crt_char_traits@D@@SAHABQADABI0@Z 1008a1a6 f i libucrtd:setenv.obj
 0001:000891c4       ??$tcscpy_s@ABQA_WABIABQA_W@?$__crt_char_traits@_W@@SAHABQA_WABI0@Z 1008a1c4 f i libucrtd:setenv.obj
 0001:000891e2       ??$tcslen@ABQAD@?$__crt_char_traits@D@@SAIABQAD@Z 1008a1e2 f i libucrtd:setenv.obj
 0001:000891fa       ??$tcslen@ABQA_W@?$__crt_char_traits@_W@@SAIABQA_W@Z 1008a1fa f i libucrtd:setenv.obj
 0001:00089218       ??$tcsnicoll@ABQBDAAPADABI@?$__crt_char_traits@D@@SAHABQBDAAPADABI@Z 1008a218 f i libucrtd:setenv.obj
 0001:00089236       ??$tcsnicoll@ABQB_WAAPA_WABI@?$__crt_char_traits@_W@@SAHABQB_WAAPA_WABI@Z 1008a236 f i libucrtd:setenv.obj
 0001:00089254       ??$tcsnlen@PADH@?$__crt_char_traits@D@@SAI$$QAPAD$$QAH@Z 1008a254 f i libucrtd:setenv.obj
 0001:0008926c       ??$tcsnlen@PA_WH@?$__crt_char_traits@_W@@SAI$$QAPA_W$$QAH@Z 1008a26c f i libucrtd:setenv.obj
 0001:000892a8       ?strchr@@YAPADQADH@Z       1008a2a8 f i libucrtd:setenv.obj
 0001:000892b3       ?wcschr@@YAPA_WPA_W_W@Z    1008a2b3 f i libucrtd:setenv.obj
 0001:000892be       ___dcrt_set_variable_in_narrow_environment_nolock 1008a2be f   libucrtd:setenv.obj
 0001:000892c9       ___dcrt_set_variable_in_wide_environment_nolock 1008a2c9 f   libucrtd:setenv.obj
 0001:000892e0       ___acrt_getheap            1008a2e0 f   libucrtd:heap_handle.obj
 0001:00089320       ___acrt_initialize_heap    1008a320 f   libucrtd:heap_handle.obj
 0001:00089350       ___acrt_uninitialize_heap  1008a350 f   libucrtd:heap_handle.obj
 0001:00089370       __get_heap_handle          1008a370 f   libucrtd:heap_handle.obj
 0001:000893b0       ___acrt_execute_initializers 1008a3b0 f   libucrtd:shared_initialization.obj
 0001:00089460       ___acrt_execute_uninitializers 1008a460 f   libucrtd:shared_initialization.obj
 0001:000894c0       ??$__crt_fast_decode_pointer@P6AHPAU_exception@@@Z@@YAP6AHPAU_exception@@@ZQ6AH0@Z@Z 1008a4c0 f i libucrtd:matherr.obj
 0001:000894f0       ??$__crt_fast_encode_pointer@P6AHPAU_exception@@@Z@@YAP6AHPAU_exception@@@ZQ6AH0@Z@Z 1008a4f0 f i libucrtd:matherr.obj
 0001:00089520       ?initialize@?$dual_state_global@P6AHPAU_exception@@@Z@__crt_state_management@@QAEXQ6AHPAU_exception@@@Z@Z 1008a520 f i libucrtd:matherr.obj
 0001:00089560       ?value@?$dual_state_global@P6AHPAU_exception@@@Z@__crt_state_management@@QAEAAP6AHPAU_exception@@@ZXZ 1008a560 f i libucrtd:matherr.obj
 0001:00089580       ___acrt_has_user_matherr   1008a580 f   libucrtd:matherr.obj
 0001:000895c0       ___acrt_initialize_user_matherr 1008a5c0 f   libucrtd:matherr.obj
 0001:000895e0       ___acrt_invoke_user_matherr 1008a5e0 f   libucrtd:matherr.obj
 0001:00089630       ___setusermatherr          1008a630 f   libucrtd:matherr.obj
 0001:00089670       __free_base                1008a670 f   libucrtd:free_base.obj
 0001:00089720       __expand                   1008a720 f   libucrtd:expand.obj
 0001:00089740       __expand_base              1008a740 f   libucrtd:expand.obj
 0001:00089870       ?value@?$dual_state_global@J@__crt_state_management@@QAEAAJXZ 1008a870 f i libucrtd:new_mode.obj
 0001:00089890       __query_new_mode           1008a890 f   libucrtd:new_mode.obj
 0001:000898b0       __set_new_mode             1008a8b0 f   libucrtd:new_mode.obj
 0001:00089950       __CrtDefaultAllocHook      1008a950 f   libucrtd:debug_heap_hook.obj
 0001:0008995c       __mbsdec                   1008a95c f   libucrtd:mbsdec.obj
 0001:00089973       __mbsdec_l                 1008a973 f   libucrtd:mbsdec.obj
 0001:00089e60       _strncpy_s                 1008ae60 f   libucrtd:strncpy_s.obj
 0001:0008a030       ___acrt_report_runtime_error 1008b030 f   libucrtd:report_runtime_error.obj
 0001:0008a220       __query_app_type           1008b220 f   libucrtd:report_runtime_error.obj
 0001:0008a230       __set_app_type             1008b230 f   libucrtd:report_runtime_error.obj
 0001:0008a240       __iswctype_l               1008b240 f   libucrtd:iswctype.obj
 0001:0008a260       _iswctype                  1008b260 f   libucrtd:iswctype.obj
 0001:0008a2d0       ___iswcsym                 1008b2d0 f i libucrtd:_wctype.obj
 0001:0008a310       ___iswcsymf                1008b310 f i libucrtd:_wctype.obj
 0001:0008a350       __isleadbyte_l             1008b350 f i libucrtd:_wctype.obj
 0001:0008a3a0       __iswalnum_l               1008b3a0 f i libucrtd:_wctype.obj
 0001:0008a3c0       __iswalpha_l               1008b3c0 f i libucrtd:_wctype.obj
 0001:0008a3e0       __iswblank_l               1008b3e0 f i libucrtd:_wctype.obj
 0001:0008a420       __iswcntrl_l               1008b420 f i libucrtd:_wctype.obj
 0001:0008a440       __iswcsym_l                1008b440 f i libucrtd:_wctype.obj
 0001:0008a480       __iswcsymf_l               1008b480 f i libucrtd:_wctype.obj
 0001:0008a4c0       __iswdigit_l               1008b4c0 f i libucrtd:_wctype.obj
 0001:0008a4e0       __iswgraph_l               1008b4e0 f i libucrtd:_wctype.obj
 0001:0008a500       __iswlower_l               1008b500 f i libucrtd:_wctype.obj
 0001:0008a520       __iswprint_l               1008b520 f i libucrtd:_wctype.obj
 0001:0008a540       __iswpunct_l               1008b540 f i libucrtd:_wctype.obj
 0001:0008a560       __iswspace_l               1008b560 f i libucrtd:_wctype.obj
 0001:0008a580       __iswupper_l               1008b580 f i libucrtd:_wctype.obj
 0001:0008a5a0       __iswxdigit_l              1008b5a0 f i libucrtd:_wctype.obj
 0001:0008a5c0       _isleadbyte                1008b5c0 f i libucrtd:_wctype.obj
 0001:0008a5e0       _iswalnum                  1008b5e0 f i libucrtd:_wctype.obj
 0001:0008a600       _iswalpha                  1008b600 f i libucrtd:_wctype.obj
 0001:0008a620       _iswascii                  1008b620 f i libucrtd:_wctype.obj
 0001:0008a650       _iswblank                  1008b650 f i libucrtd:_wctype.obj
 0001:0008a690       _iswcntrl                  1008b690 f i libucrtd:_wctype.obj
 0001:0008a6b0       _iswdigit                  1008b6b0 f i libucrtd:_wctype.obj
 0001:0008a6d0       _iswgraph                  1008b6d0 f i libucrtd:_wctype.obj
 0001:0008a6f0       _iswlower                  1008b6f0 f i libucrtd:_wctype.obj
 0001:0008a710       _iswprint                  1008b710 f i libucrtd:_wctype.obj
 0001:0008a730       _iswpunct                  1008b730 f i libucrtd:_wctype.obj
 0001:0008a750       _iswspace                  1008b750 f i libucrtd:_wctype.obj
 0001:0008a770       _iswupper                  1008b770 f i libucrtd:_wctype.obj
 0001:0008a790       _iswxdigit                 1008b790 f i libucrtd:_wctype.obj
 0001:0008a820       ?__mbrtowc_utf8@__crt_mbstring@@YAIPA_WPBDIPAU_Mbstatet@@@Z 1008b820 f   libucrtd:mbrtowc.obj
 0001:0008a870       ?__mbsrtowcs_utf8@__crt_mbstring@@YAIPA_WPAPBDIPAU_Mbstatet@@@Z 1008b870 f   libucrtd:mbrtowc.obj
 0001:0008b0e0       _btowc                     1008c0e0 f   libucrtd:mbrtowc.obj
 0001:0008b150       _mbrlen                    1008c150 f   libucrtd:mbrtowc.obj
 0001:0008b1a0       _mbrtowc                   1008c1a0 f   libucrtd:mbrtowc.obj
 0001:0008b230       _mbsrtowcs                 1008c230 f   libucrtd:mbrtowc.obj
 0001:0008b250       _mbsrtowcs_s               1008c250 f   libucrtd:mbrtowc.obj
 0001:0008b5a0       ??$?RG@__crt_internal_free_policy@@QBEXQBG@Z 1008c5a0 f i libucrtd:initctype.obj
 0001:0008b5c0       ??$?RJ@__crt_internal_free_policy@@QBEXQBJ@Z 1008c5c0 f i libucrtd:initctype.obj
 0001:0008b5e0       ??0?$__crt_unique_heap_ptr@GU__crt_internal_free_policy@@@@QAE@QAG@Z 1008c5e0 f i libucrtd:initctype.obj
 0001:0008b600       ??0?$__crt_unique_heap_ptr@JU__crt_internal_free_policy@@@@QAE@QAJ@Z 1008c600 f i libucrtd:initctype.obj
 0001:0008b620       ??1?$__crt_unique_heap_ptr@GU__crt_internal_free_policy@@@@QAE@XZ 1008c620 f i libucrtd:initctype.obj
 0001:0008b640       ??1?$__crt_unique_heap_ptr@JU__crt_internal_free_policy@@@@QAE@XZ 1008c640 f i libucrtd:initctype.obj
 0001:0008b660       ?detach@?$__crt_unique_heap_ptr@GU__crt_internal_free_policy@@@@QAEPAGXZ 1008c660 f i libucrtd:initctype.obj
 0001:0008b690       ?detach@?$__crt_unique_heap_ptr@JU__crt_internal_free_policy@@@@QAEPAJXZ 1008c690 f i libucrtd:initctype.obj
 0001:0008b6c0       ?release@?$__crt_unique_heap_ptr@GU__crt_internal_free_policy@@@@QAEXXZ 1008c6c0 f i libucrtd:initctype.obj
 0001:0008b6f0       ?release@?$__crt_unique_heap_ptr@JU__crt_internal_free_policy@@@@QAEXXZ 1008c6f0 f i libucrtd:initctype.obj
 0001:0008b720       ____lc_codepage_func       1008c720 f   libucrtd:initctype.obj
 0001:0008b760       ____lc_collate_cp_func     1008c760 f   libucrtd:initctype.obj
 0001:0008b7a0       ____lc_locale_name_func    1008c7a0 f   libucrtd:initctype.obj
 0001:0008b7e0       ____mb_cur_max_func        1008c7e0 f   libucrtd:initctype.obj
 0001:0008b820       ____mb_cur_max_l_func      1008c820 f   libucrtd:initctype.obj
 0001:0008b850       ___acrt_locale_initialize_ctype 1008c850 f   libucrtd:initctype.obj
 0001:0008bfd0       ?__c32rtomb_utf8@__crt_mbstring@@YAIPAD_UPAU_Mbstatet@@@Z 1008cfd0 f   libucrtd:c32rtomb.obj
 0001:0008c1b0       ?reset_and_return@__crt_mbstring@@YAIIPAU_Mbstatet@@@Z 1008d1b0 f i libucrtd:c32rtomb.obj
 0001:0008c1e0       ?return_illegal_sequence@__crt_mbstring@@YAIPAU_Mbstatet@@@Z 1008d1e0 f i libucrtd:c32rtomb.obj
 0001:0008c210       _c32rtomb                  1008d210 f   libucrtd:c32rtomb.obj
 0001:0008c230       ___acrt_add_locale_ref     1008d230 f   libucrtd:locale_refcounting.obj
 0001:0008c340       ___acrt_free_locale        1008d340 f   libucrtd:locale_refcounting.obj
 0001:0008c610       ___acrt_locale_add_lc_time_reference 1008d610 f   libucrtd:locale_refcounting.obj
 0001:0008c650       ___acrt_locale_free_lc_time_if_unreferenced 1008d650 f   libucrtd:locale_refcounting.obj
 0001:0008c6a0       ___acrt_locale_release_lc_time_reference 1008d6a0 f   libucrtd:locale_refcounting.obj
 0001:0008c6d0       ___acrt_release_locale_ref 1008d6d0 f   libucrtd:locale_refcounting.obj
 0001:0008c7e0       ___acrt_update_thread_locale_data 1008d7e0 f   libucrtd:locale_refcounting.obj
 0001:0008c8b0       __updatetlocinfoEx_nolock  1008d8b0 f   libucrtd:locale_refcounting.obj
 0001:0008c930       ___acrt_fp_strflt_to_string 1008d930 f   libucrtd:_fptostr.obj
 0001:0008d270       ??0big_integer@__crt_strtox@@QAE@ABU01@@Z 1008e270 f i libucrtd:cfout.obj
 0001:0008d2b0       ??0big_integer@__crt_strtox@@QAE@XZ 1008e2b0 f i libucrtd:cfout.obj
 0001:0008d370       ??4big_integer@__crt_strtox@@QAEAAU01@ABU01@@Z 1008e370 f i libucrtd:cfout.obj
 0001:0008d3b0       ??8__crt_strtox@@YA_NABUbig_integer@0@0@Z 1008e3b0 f i libucrtd:cfout.obj
 0001:0008d410       ??9__crt_strtox@@YA_NABUbig_integer@0@0@Z 1008e410 f i libucrtd:cfout.obj
 0001:0008d450       ?add_carry@__crt_strtox@@YAIAAIII@Z 1008e450 f i libucrtd:cfout.obj
 0001:0008d490       ?add_multiply_carry@__crt_strtox@@YAIAAIIII@Z 1008e490 f i libucrtd:cfout.obj
 0001:0008d4d0       ?bit_scan_reverse@__crt_strtox@@YAII@Z 1008e4d0 f i libucrtd:cfout.obj
 0001:0008d500       ?count_sequential_high_zeroes@__crt_strtox@@YAII@Z 1008e500 f i libucrtd:cfout.obj
 0001:0008d540       ?divide@__crt_strtox@@YA_KAAUbig_integer@1@ABU21@@Z 1008e540 f i libucrtd:cfout.obj
 0001:0008dfc0       ?is_zero@__crt_strtox@@YA_NABUbig_integer@1@@Z 1008efc0 f i libucrtd:cfout.obj
 0001:0008dff0       ?make_big_integer@__crt_strtox@@YA?AUbig_integer@1@_K@Z 1008eff0 f i libucrtd:cfout.obj
 0001:0008e0a0       ?make_big_integer_power_of_two@__crt_strtox@@YA?AUbig_integer@1@I@Z 1008f0a0 f i libucrtd:cfout.obj
 0001:0008e150       ?multiply@__crt_strtox@@YA_NAAUbig_integer@1@ABU21@@Z 1008f150 f i libucrtd:cfout.obj
 0001:0008e4d0       ?multiply@__crt_strtox@@YA_NAAUbig_integer@1@I@Z 1008f4d0 f i libucrtd:cfout.obj
 0001:0008e5a0       ?multiply_64_32@__crt_strtox@@YA_K_KI@Z 1008f5a0 f i libucrtd:cfout.obj
 0001:0008e5c0       ?multiply_by_power_of_ten@__crt_strtox@@YA_NAAUbig_integer@1@I@Z 1008f5c0 f i libucrtd:cfout.obj
 0001:0008e760       ?multiply_core@__crt_strtox@@YAIQAIII@Z 1008f760 f i libucrtd:cfout.obj
 0001:0008e7d0       ?shift_left@__crt_strtox@@YA_NAAUbig_integer@1@I@Z 1008f7d0 f i libucrtd:cfout.obj
 0001:0008eb20       ___acrt_fltout             1008fb20 f   libucrtd:cfout.obj
 0001:0008eed0       __fcloseall                1008fed0 f   libucrtd:closeall.obj
 0001:0008f000       __isatty                   10090000 f   libucrtd:isatty.obj
 0001:0008f0d0       ??$?RUlconv@@@__crt_internal_free_policy@@QBEXQBUlconv@@@Z 100900d0 f i libucrtd:initmon.obj
 0001:0008f0f0       ??0?$__crt_unique_heap_ptr@Ulconv@@U__crt_internal_free_policy@@@@QAE@QAUlconv@@@Z 100900f0 f i libucrtd:initmon.obj
 0001:0008f110       ??1?$__crt_unique_heap_ptr@Ulconv@@U__crt_internal_free_policy@@@@QAE@XZ 10090110 f i libucrtd:initmon.obj
 0001:0008f130       ?detach@?$__crt_unique_heap_ptr@Ulconv@@U__crt_internal_free_policy@@@@QAEPAUlconv@@XZ 10090130 f i libucrtd:initmon.obj
 0001:0008f160       ?release@?$__crt_unique_heap_ptr@Ulconv@@U__crt_internal_free_policy@@@@QAEXXZ 10090160 f i libucrtd:initmon.obj
 0001:0008f190       ___acrt_locale_free_monetary 10090190 f   libucrtd:initmon.obj
 0001:0008f340       ___acrt_locale_initialize_monetary 10090340 f   libucrtd:initmon.obj
 0001:0008f9e0       ___acrt_locale_free_numeric 100909e0 f   libucrtd:initnum.obj
 0001:0008fa90       ___acrt_locale_initialize_numeric 10090a90 f   libucrtd:initnum.obj
 0001:0008fee0       ??$?RU__crt_lc_time_data@@@__crt_internal_free_policy@@QBEXQBU__crt_lc_time_data@@@Z 10090ee0 f i libucrtd:inittime.obj
 0001:0008ffc0       ??0?$__crt_unique_heap_ptr@U__crt_lc_time_data@@U__crt_internal_free_policy@@@@QAE@QAU__crt_lc_time_data@@@Z 10090fc0 f i libucrtd:inittime.obj
 0001:0008ffe0       ??1?$__crt_unique_heap_ptr@U__crt_lc_time_data@@U__crt_internal_free_policy@@@@QAE@XZ 10090fe0 f i libucrtd:inittime.obj
 0001:00090000       ??B?$__crt_unique_heap_ptr@U__crt_lc_time_data@@U__crt_internal_free_policy@@@@QBE_NXZ 10091000 f i libucrtd:inittime.obj
 0001:00090020       ?detach@?$__crt_unique_heap_ptr@U__crt_lc_time_data@@U__crt_internal_free_policy@@@@QAEPAU__crt_lc_time_data@@XZ 10091020 f i libucrtd:inittime.obj
 0001:00090090       ?get@?$__crt_unique_heap_ptr@U__crt_lc_time_data@@U__crt_internal_free_policy@@@@QBEPAU__crt_lc_time_data@@XZ 10091090 f i libucrtd:inittime.obj
 0001:00090560       ?is_valid@?$__crt_unique_heap_ptr@U__crt_lc_time_data@@U__crt_internal_free_policy@@@@QBE_NXZ 10091560 f i libucrtd:inittime.obj
 0001:00090590       ?release@?$__crt_unique_heap_ptr@U__crt_lc_time_data@@U__crt_internal_free_policy@@@@QAEXXZ 10091590 f i libucrtd:inittime.obj
 0001:000905c0       ___acrt_locale_free_time   100915c0 f   libucrtd:inittime.obj
 0001:00090710       ___acrt_locale_initialize_time 10091710 f   libucrtd:inittime.obj
 0001:00090790       ___pctype_func             10091790 f   libucrtd:ctype.obj
 0001:000907d0       ___pwctype_func            100917d0 f   libucrtd:ctype.obj
 0001:00090cb0       _wcsncat_s                 10091cb0 f   libucrtd:wcsncat_s.obj
 0001:00090cd0       _wcscmp                    10091cd0 f   libucrtd:wcscmp.obj
 0001:00090d50       _wcscspn                   10091d50 f   libucrtd:wcscspn.obj
 0001:00090dc0       _wcspbrk                   10091dc0 f   libucrtd:wcspbrk.obj
 0001:00090e20       ??0?$__crt_scoped_stack_ptr@_W@@QAE@U?$__crt_scoped_stack_ptr_tag@_W@@@Z 10091e20 f i libucrtd:getstringtypea.obj
 0001:00090e40       ??0?$__crt_scoped_stack_ptr_tag@_W@@QAE@QA_W@Z 10091e40 f i libucrtd:getstringtypea.obj
 0001:00090e60       ??1?$__crt_scoped_stack_ptr@_W@@QAE@XZ 10091e60 f i libucrtd:getstringtypea.obj
 0001:00090e80       ?get@?$__crt_scoped_stack_ptr@_W@@QBEPA_WXZ 10091e80 f i libucrtd:getstringtypea.obj
 0001:00090ea0       __MallocaComputeSize       10091ea0 f i libucrtd:getstringtypea.obj
 0001:00090ed0       __MarkAllocaS              10091ed0 f i libucrtd:getstringtypea.obj
 0001:00090f00       ___acrt_GetStringTypeA     10091f00 f   libucrtd:getstringtypea.obj
 0001:000910b0       __freea_crt                100920b0 f i libucrtd:getstringtypea.obj
 0001:00091c80       ___acrt_get_qualified_locale 10092c80 f   libucrtd:get_qualified_locale.obj
 0001:00092c90       ___acrt_get_qualified_locale_downlevel 10093c90 f   libucrtd:getqloc_downlevel.obj
 0001:00092f30       _localeconv                10093f30 f   libucrtd:localeconv.obj
 0001:00092f70       ??$?RU__crt_lowio_handle_data@@@__crt_internal_free_policy@@QBEXQBU__crt_lowio_handle_data@@@Z 10093f70 f i libucrtd:osfinfo.obj
 0001:00092f90       ??0?$__crt_unique_heap_ptr@U__crt_lowio_handle_data@@U__crt_internal_free_policy@@@@QAE@QAU__crt_lowio_handle_data@@@Z 10093f90 f i libucrtd:osfinfo.obj
 0001:00092fb0       ??1?$__crt_unique_heap_ptr@U__crt_lowio_handle_data@@U__crt_internal_free_policy@@@@QAE@XZ 10093fb0 f i libucrtd:osfinfo.obj
 0001:00092fd0       ??B?$__crt_unique_heap_ptr@U__crt_lowio_handle_data@@U__crt_internal_free_policy@@@@QBE_NXZ 10093fd0 f i libucrtd:osfinfo.obj
 0001:00092ff0       ?detach@?$__crt_unique_heap_ptr@U__crt_lowio_handle_data@@U__crt_internal_free_policy@@@@QAEPAU__crt_lowio_handle_data@@XZ 10093ff0 f i libucrtd:osfinfo.obj
 0001:00093020       ?get@?$__crt_unique_heap_ptr@U__crt_lowio_handle_data@@U__crt_internal_free_policy@@@@QBEPAU__crt_lowio_handle_data@@XZ 10094020 f i libucrtd:osfinfo.obj
 0001:00093040       ?is_valid@?$__crt_unique_heap_ptr@U__crt_lowio_handle_data@@U__crt_internal_free_policy@@@@QBE_NXZ 10094040 f i libucrtd:osfinfo.obj
 0001:00093070       ?release@?$__crt_unique_heap_ptr@U__crt_lowio_handle_data@@U__crt_internal_free_policy@@@@QAEXXZ 10094070 f i libucrtd:osfinfo.obj
 0001:000930a0       ___acrt_lowio_create_handle_array 100940a0 f   libucrtd:osfinfo.obj
 0001:00093200       ___acrt_lowio_destroy_handle_array 10094200 f   libucrtd:osfinfo.obj
 0001:00093260       ___acrt_lowio_ensure_fh_exists 10094260 f   libucrtd:osfinfo.obj
 0001:000933c0       ___acrt_lowio_lock_fh      100943c0 f   libucrtd:osfinfo.obj
 0001:000933f0       ___acrt_lowio_set_os_handle 100943f0 f   libucrtd:osfinfo.obj
 0001:000934c0       ___acrt_lowio_unlock_fh    100944c0 f   libucrtd:osfinfo.obj
 0001:000934f0       __alloc_osfhnd             100944f0 f   libucrtd:osfinfo.obj
 0001:000936d0       __free_osfhnd              100946d0 f   libucrtd:osfinfo.obj
 0001:000937c0       __get_osfhandle            100947c0 f   libucrtd:osfinfo.obj
 0001:00093940       __open_osfhandle           10094940 f   libucrtd:osfinfo.obj
 0001:00094c50       __i64toa                   10095c50 f   libucrtd:xtoa.obj
 0001:00094ca0       __i64toa_s                 10095ca0 f   libucrtd:xtoa.obj
 0001:00094cf0       __i64tow                   10095cf0 f   libucrtd:xtoa.obj
 0001:00094d40       __i64tow_s                 10095d40 f   libucrtd:xtoa.obj
 0001:00094d90       __itoa                     10095d90 f   libucrtd:xtoa.obj
 0001:00094de0       __itoa_s                   10095de0 f   libucrtd:xtoa.obj
 0001:00094e30       __itow                     10095e30 f   libucrtd:xtoa.obj
 0001:00094e80       __itow_s                   10095e80 f   libucrtd:xtoa.obj
 0001:00094ed0       __ltoa                     10095ed0 f   libucrtd:xtoa.obj
 0001:00094f20       __ltoa_s                   10095f20 f   libucrtd:xtoa.obj
 0001:00094f70       __ltow                     10095f70 f   libucrtd:xtoa.obj
 0001:00094fc0       __ltow_s                   10095fc0 f   libucrtd:xtoa.obj
 0001:00095010       __ui64toa                  10096010 f   libucrtd:xtoa.obj
 0001:00095040       __ui64toa_s                10096040 f   libucrtd:xtoa.obj
 0001:00095070       __ui64tow                  10096070 f   libucrtd:xtoa.obj
 0001:000950a0       __ui64tow_s                100960a0 f   libucrtd:xtoa.obj
 0001:000950d0       __ultoa                    100960d0 f   libucrtd:xtoa.obj
 0001:00095100       __ultoa_s                  10096100 f   libucrtd:xtoa.obj
 0001:00095130       __ultow                    10096130 f   libucrtd:xtoa.obj
 0001:00095160       __ultow_s                  10096160 f   libucrtd:xtoa.obj
 0001:00095570       __mbstowcs_l               10096570 f   libucrtd:mbstowcs.obj
 0001:00095590       __mbstowcs_s_l             10096590 f   libucrtd:mbstowcs.obj
 0001:00095950       _mbstowcs                  10096950 f   libucrtd:mbstowcs.obj
 0001:000959a0       _mbstowcs_s                100969a0 f   libucrtd:mbstowcs.obj
 0001:00096090       __wcstombs_l               10097090 f   libucrtd:wcstombs.obj
 0001:000960b0       __wcstombs_s_l             100970b0 f   libucrtd:wcstombs.obj
 0001:00096420       _wcstombs                  10097420 f   libucrtd:wcstombs.obj
 0001:00096440       _wcstombs_s                10097440 f   libucrtd:wcstombs.obj
 0001:00096470       ___acrt_OutputDebugStringA@4 10097470 f   libucrtd:outputdebugstringa.obj
 0001:00096500       __malloc_base              10097500 f   libucrtd:malloc_base.obj
 0001:00096690       ___acrt_DownlevelLCIDToLocaleName 10097690 f   libucrtd:lcidtoname_downlevel.obj
 0001:00096760       ___acrt_DownlevelLocaleNameToLCID 10097760 f   libucrtd:lcidtoname_downlevel.obj
 0001:000967a0       ___ascii_wcsnicmp          100977a0 f   libucrtd:wcsnicmp.obj
 0001:00096830       __towlower_fast_internal   10097830 f i libucrtd:wcsnicmp.obj
 0001:00096870       __towlower_internal        10097870 f i libucrtd:wcsnicmp.obj
 0001:000968b0       __wcsnicmp                 100978b0 f   libucrtd:wcsnicmp.obj
 0001:000969f0       __wcsnicmp_l               100979f0 f   libucrtd:wcsnicmp.obj
 0001:00096bf0       __strnicmp                 10097bf0 f   libucrtd:strnicmp.obj
 0001:00096db0       __strnicmp_l               10097db0 f   libucrtd:strnicmp.obj
 0001:000979b0       ??$tsopen_nolock@PAHABQAHABQBDABHABHABHABH@?$__crt_char_traits@D@@SAH$$QAPAHABQAHABQBDABH333@Z 100989b0 f i libucrtd:open.obj
 0001:000979f0       ??$tsopen_nolock@PAHABQAHABQB_WABHABHABHABH@?$__crt_char_traits@_W@@SAH$$QAPAHABQAHABQB_WABH333@Z 100989f0 f i libucrtd:open.obj
 0001:00097a30       ??$tsopen_nolock@PAHPAHABQBDABHHABHH@?$__crt_char_traits@D@@SAH$$QAPAH0ABQBDABH$$QAH23@Z 10098a30 f i libucrtd:open.obj
 0001:00097a70       ??$tsopen_nolock@PAHPAHABQB_WABHHABHH@?$__crt_char_traits@_W@@SAH$$QAPAH0ABQB_WABH$$QAH23@Z 10098a70 f i libucrtd:open.obj
 0001:00098610       __open                     10099610 f   libucrtd:open.obj
