 OPOSSmartCardRW

 Timestamp is 61a75c09 (Wed Dec  1 20:27:05 2021)

 Preferred load address is 10000000

 Start         Length     Name                   Class
 0001:00000000 00000d90H .text$di                CODE
 0001:00000d90 000b72e0H .text$mn                CODE
 0001:000b8070 00000cb0H .text$x                 CODE
 0001:000b8d20 00000120H .text$yd                CODE
 0002:00000000 00000358H .idata$5                DATA
 0002:00000358 0000000cH .00cfg                  DATA
 0002:00000364 00000004H .CRT$XCA                DATA
 0002:00000368 00000004H .CRT$XCL                DATA
 0002:0000036c 0000006cH .CRT$XCU                DATA
 0002:000003d8 00000004H .CRT$XCZ                DATA
 0002:000003dc 00000004H .CRT$XIA                DATA
 0002:000003e0 00000014H .CRT$XIC                DATA
 0002:000003f4 00000004H .CRT$XIZ                DATA
 0002:000003f8 00000004H .CRT$XLA                DATA
 0002:000003fc 00000004H .CRT$XLZ                DATA
 0002:00000400 00000004H .CRT$XPA                DATA
 0002:00000404 00000008H .CRT$XPX                DATA
 0002:0000040c 00000004H .CRT$XPXA               DATA
 0002:00000410 00000004H .CRT$XPZ                DATA
 0002:00000414 00000004H .CRT$XTA                DATA
 0002:00000418 00000008H .CRT$XTZ                DATA
 0002:0000041c 00000000H .gfids$y                DATA
 0002:00000420 0002f760H .rdata                  DATA
 0002:0002fb80 00000040H .rdata$CastGuardVftablesA DATA
 0002:0002fbc0 00000040H .rdata$CastGuardVftablesC DATA
 0002:0002fc00 00000018H .rdata$T                DATA
 0002:0002fc18 0000033cH .rdata$r                DATA
 0002:0002ff54 000001a0H .rdata$sxdata           DATA
 0002:000300f4 00000178H .rdata$voltmd           DATA
 0002:0003026c 00000478H .rdata$zzzdbg           DATA
 0002:000306e4 00000004H .rtc$IAA                DATA
 0002:000306e8 00000018H .rtc$IMZ                DATA
 0002:00030700 00000004H .rtc$IZZ                DATA
 0002:00030704 00000004H .rtc$TAA                DATA
 0002:00030708 00000018H .rtc$TMZ                DATA
 0002:00030720 00000004H .rtc$TZZ                DATA
 0002:00030724 00000004H .tls                    DATA
 0002:00030728 00000004H .tls$                   DATA
 0002:0003072c 00000004H .tls$ZZZ                DATA
 0002:00030730 00001a4cH .xdata$x                DATA
 0002:0003217c 00000004H ATL$__a                 DATA
 0002:00032180 00000010H ATL$__z                 DATA
 0002:00032190 000000acH .edata                  DATA
 0002:0003223c 00000078H .idata$2                DATA
 0002:000322b4 00000014H .idata$3                DATA
 0002:000322c8 00000358H .idata$4                DATA
 0002:00032620 00000d56H .idata$6                DATA
 0003:00000000 00000bc0H .data                   DATA
 0003:00000bc0 00000080H .data$r                 DATA
 0003:00000c40 000000b8H .data$rs                DATA
 0003:00000cf8 00003580H .bss                    DATA
 0004:00000000 00000220H .rsrc$01                DATA
 0004:00000220 00004400H .rsrc$02                DATA

  Address         Publics by Value              Rva+Base       Lib:Object

 0000:00000000       ___guard_eh_cont_count     00000000     <absolute>
 0000:00000000       ___guard_iat_count         00000000     <absolute>
 0000:00000000       ___guard_longjmp_count     00000000     <absolute>
 0000:00000000       ___arm64x_native_entrypoint 00000000     <absolute>
 0000:00000000       ___guard_check_icall_a64n_fptr 00000000     <absolute>
 0000:00000000       ___enclave_config          00000000     <absolute>
 0000:00000000       ___hybrid_code_map_count   00000000     <absolute>
 0000:00000000       ___arm64x_redirection_metadata_count 00000000     <absolute>
 0000:00000000       ___arm64x_extra_rfe_table_size 00000000     <absolute>
 0000:00000000       ___AbsoluteZero            00000000     <absolute>
 0000:00000000       ___guard_fids_count        00000000     <absolute>
 0000:00000000       ___guard_eh_cont_table     00000000     <absolute>
 0000:00000000       ___guard_fids_table        00000000     <absolute>
 0000:00000000       ___guard_longjmp_table     00000000     <absolute>
 0000:00000000       ___x64_code_ranges_to_entry_points 00000000     <absolute>
 0000:00000000       ___hybrid_auxiliary_iat    00000000     <absolute>
 0000:00000000       ___hybrid_code_map         00000000     <absolute>
 0000:00000000       ___hybrid_auxiliary_iat_copy 00000000     <absolute>
 0000:00000000       ___arm64x_redirection_metadata 00000000     <absolute>
 0000:00000000       ___dynamic_value_reloc_table 00000000     <absolute>
 0000:00000000       ___guard_iat_table         00000000     <absolute>
 0000:00000000       __except_list              00000000     <absolute>
 0000:00000000       ___arm64x_extra_rfe_table  00000000     <absolute>
 0000:00000000       ___x64_code_ranges_to_entry_points_count 00000000     <absolute>
 0000:0000002c       __tls_array                0000002c     <absolute>
 0000:00000068       ___safe_se_handler_count   00000068     <absolute>
 0000:00000100       ___guard_flags             00000100     <absolute>
 0000:00000000       ___ImageBase               10000000     <linker-defined>
 0001:00000d90       ?_assert@@YAXPB_W0I@Z      10001d90 f   Assert.obj
 0001:00000ec0       ___local_stdio_printf_options 10001ec0 f i Assert.obj
 0001:00000ed0       ___vswprintf_l             10001ed0 f i Assert.obj
 0001:00000f00       __swprintf                 10001f00 f i Assert.obj
 0001:00000f60       __vswprintf_c_l            10001f60 f i Assert.obj
 0001:00000fd0       __vswprintf_l              10001fd0 f i Assert.obj
 0001:00001000       ?cw_memcpy@@YGHPADPB_WH@Z  10002000 f   CWString.obj
 0001:00001060       ?cw_memcpy@@YGHPA_WPBDH@Z  10002060 f   CWString.obj
 0001:000010c0       ?cw_memcpy@@YGHPADPBDH@Z   100020c0 f   CWString.obj
 0001:00001110       ?cw_memcpy@@YGHPA_WPB_WH@Z 10002110 f   CWString.obj
 0001:00001150       ?cw_memset@@YAXPADDH@Z     10002150 f   CWString.obj
 0001:00001170       ?cw_memset@@YAXPA_W_WH@Z   10002170 f   CWString.obj
 0001:00001190       ?cw_strlen@@YAHPBD@Z       10002190 f   CWString.obj
 0001:000011d0       ?cw_strlen@@YAHPB_W@Z      100021d0 f   CWString.obj
 0001:00001210       ?cw_strcpy@@YAHPADPB_W@Z   10002210 f   CWString.obj
 0001:00001230       ?cw_strcpy@@YAHPA_WPBD@Z   10002230 f   CWString.obj
 0001:00001250       ?cw_strcpy@@YAHPADPBD@Z    10002250 f   CWString.obj
 0001:00001270       ?cw_strcpy@@YAHPA_WPB_W@Z  10002270 f   CWString.obj
 0001:00001290       ?cw_strcat@@YAHPADPB_W@Z   10002290 f   CWString.obj
 0001:000012c0       ?cw_strcat@@YAHPA_WPBD@Z   100022c0 f   CWString.obj
 0001:000012f0       ?cw_strcat@@YAHPADPBD@Z    100022f0 f   CWString.obj
 0001:00001320       ?cw_strcat@@YAHPA_WPB_W@Z  10002320 f   CWString.obj
 0001:00001350       ?cw_dup@@YGXPBDAAHAAPA_W1@Z 10002350 f   CWString.obj
 0001:00001410       ?cw_dup@@YGXPB_WAAHAAPAD1@Z 10002410 f   CWString.obj
 0001:000014c0       ?DupChar@_CW@@AAEXXZ       100024c0 f   CWString.obj
 0001:00001510       ?DupWide@_CW@@AAEXXZ       10002510 f   CWString.obj
 0001:00001560       ?GetCharsMbcs@_CW@@QAEHXZ  10002560 f   CWString.obj
 0001:000015c0       ?GetCharsWide@_CW@@QAEHXZ  100025c0 f   CWString.obj
 0001:00001620       ?SetVARIANT_BOOL@OposVariant@@QAEXF@Z 10002620 f   OposVariant.obj
 0001:00001680       ?SetVARIANT_BOOL_Ptr@OposVariant@@QAEXPAFAAJ@Z 10002680 f   OposVariant.obj
 0001:000016d0       ?GetLONG@OposVariant@@QAEJXZ 100026d0 f   OposVariant.obj
 0001:00001760       ?ChangeLONG@OposVariant@@QAEXPAJAAJ@Z 10002760 f   OposVariant.obj
 0001:00001820       ?SetLONG@OposVariant@@QAEXJ@Z 10002820 f   OposVariant.obj
 0001:00001860       ?SetLONG_Ptr@OposVariant@@QAEXPAJAAJ@Z 10002860 f   OposVariant.obj
 0001:000018b0       ?ChangeCURRENCY@OposVariant@@QAEXPATtagCY@@AAJ@Z 100028b0 f   OposVariant.obj
 0001:00001970       ?SetCURRENCY@OposVariant@@QAEXTtagCY@@@Z 10002970 f   OposVariant.obj
 0001:000019b0       ?SetCURRENCY_Ptr@OposVariant@@QAEXPATtagCY@@AAJ@Z 100029b0 f   OposVariant.obj
 0001:00001a00       ?ChangeBSTR@OposVariant@@QAEXPAPA_WAAJ@Z 10002a00 f   OposVariant.obj
 0001:00001ac0       ?SetBSTR@OposVariant@@QAEXPA_WAAJ@Z 10002ac0 f   OposVariant.obj
 0001:00001b10       ?SetBSTR_Copy@OposVariant@@QAEXPA_WAAJ@Z 10002b10 f   OposVariant.obj
 0001:00001bb0       ?SetBSTR_OutPtr@OposVariant@@QAE_NPAPA_WAAJ@Z 10002bb0 f   OposVariant.obj
 0001:00001c00       ?SetBSTR_InOutPtr@OposVariant@@QAE_NPAPA_WAAJ@Z 10002c00 f   OposVariant.obj
 0001:00001c50       ?SetVARIANT@OposVariant@@QAEXAAUtagVARIANT@@GAAJ@Z 10002c50 f   OposVariant.obj
 0001:00001cd0       ?SetVARIANT_Ptr@OposVariant@@QAEXAAPAUtagVARIANT@@GAAJ@Z 10002cd0 f   OposVariant.obj
 0001:00001d70       ?SetString@OposVariant@@QAEXPB_WAAJ@Z 10002d70 f   OposVariant.obj
 0001:00001e00       ?SetDispatch_Ptr@OposVariant@@QAEXPAUIDispatch@@AAJ@Z 10002e00 f   OposVariant.obj
 0001:00001e70       ??0OposDispParms@@QAE@PAVOposVariant@@H@Z 10002e70 f   OposVariant.obj
 0001:00001f40       ??1OposDispParms@@QAE@XZ   10002f40 f   OposVariant.obj
 0001:00001f90       ??$AtlMultiply@I@ATL@@YAJPAIII@Z 10002f90 f i OposVariant.obj
 0001:00001ff0       ??0?$CHeapPtr@_WVCCRTAllocator@ATL@@@ATL@@QAE@XZ 10002ff0 f i OposVariant.obj
 0001:00002020       ??0?$CHeapPtrBase@_WVCCRTAllocator@ATL@@@ATL@@IAE@XZ 10003020 f i OposVariant.obj
 0001:00002040       ??0?$CSimpleArray@GV?$CSimpleArrayEqualHelper@G@ATL@@@ATL@@QAE@XZ 10003040 f i OposVariant.obj
 0001:00002070       ??0?$CTraceCategoryEx@$00$0A@@ATL@@QAE@PB_W@Z 10003070 f i OposVariant.obj
 0001:000020a0       ??0?$CTraceCategoryEx@$01$0A@@ATL@@QAE@PB_W@Z 100030a0 f i OposVariant.obj
 0001:000020d0       ??0?$CTraceCategoryEx@$03$0A@@ATL@@QAE@PB_W@Z 100030d0 f i OposVariant.obj
 0001:00002100       ??0?$CTraceCategoryEx@$07$0A@@ATL@@QAE@PB_W@Z 10003100 f i OposVariant.obj
 0001:00002130       ??0?$CTraceCategoryEx@$0BA@$0A@@ATL@@QAE@PB_W@Z 10003130 f i OposVariant.obj
 0001:00002160       ??0?$CTraceCategoryEx@$0BAA@$0A@@ATL@@QAE@PB_W@Z 10003160 f i OposVariant.obj
 0001:000021a0       ??0?$CTraceCategoryEx@$0BAAA@$0A@@ATL@@QAE@PB_W@Z 100031a0 f i OposVariant.obj
 0001:000021e0       ??0?$CTraceCategoryEx@$0BAAAA@$0A@@ATL@@QAE@PB_W@Z 100031e0 f i OposVariant.obj
 0001:00002220       ??0?$CTraceCategoryEx@$0BAAAAA@$0A@@ATL@@QAE@PB_W@Z 10003220 f i OposVariant.obj
 0001:00002260       ??0?$CTraceCategoryEx@$0CA@$0A@@ATL@@QAE@PB_W@Z 10003260 f i OposVariant.obj
 0001:00002290       ??0?$CTraceCategoryEx@$0CAA@$0A@@ATL@@QAE@PB_W@Z 10003290 f i OposVariant.obj
 0001:000022d0       ??0?$CTraceCategoryEx@$0CAAA@$0A@@ATL@@QAE@PB_W@Z 100032d0 f i OposVariant.obj
 0001:00002310       ??0?$CTraceCategoryEx@$0CAAAA@$0A@@ATL@@QAE@PB_W@Z 10003310 f i OposVariant.obj
 0001:00002350       ??0?$CTraceCategoryEx@$0CAAAAA@$0A@@ATL@@QAE@PB_W@Z 10003350 f i OposVariant.obj
 0001:00002390       ??0?$CTraceCategoryEx@$0EA@$0A@@ATL@@QAE@PB_W@Z 10003390 f i OposVariant.obj
 0001:000023c0       ??0?$CTraceCategoryEx@$0EAA@$0A@@ATL@@QAE@PB_W@Z 100033c0 f i OposVariant.obj
 0001:00002400       ??0?$CTraceCategoryEx@$0EAAA@$0A@@ATL@@QAE@PB_W@Z 10003400 f i OposVariant.obj
 0001:00002440       ??0?$CTraceCategoryEx@$0EAAAA@$0A@@ATL@@QAE@PB_W@Z 10003440 f i OposVariant.obj
 0001:00002480       ??0?$CTraceCategoryEx@$0EAAAAA@$0A@@ATL@@QAE@PB_W@Z 10003480 f i OposVariant.obj
 0001:000024c0       ??0?$CTraceCategoryEx@$0IA@$0A@@ATL@@QAE@PB_W@Z 100034c0 f i OposVariant.obj
 0001:00002500       ??0?$CTraceCategoryEx@$0IAA@$0A@@ATL@@QAE@PB_W@Z 10003500 f i OposVariant.obj
 0001:00002540       ??0?$CTraceCategoryEx@$0IAAA@$0A@@ATL@@QAE@PB_W@Z 10003540 f i OposVariant.obj
 0001:00002580       ??0?$CTraceCategoryEx@$0IAAAA@$0A@@ATL@@QAE@PB_W@Z 10003580 f i OposVariant.obj
 0001:000025c0       ??0CAtlComModule@ATL@@QAE@XZ 100035c0 f i OposVariant.obj
 0001:000026a0       ??0CAtlWinModule@ATL@@QAE@XZ 100036a0 f i OposVariant.obj
 0001:00002730       ??0CComCriticalSection@ATL@@QAE@XZ 10003730 f i OposVariant.obj
 0001:00002760       ??0CPreserveLastError@ATL@@QAE@XZ 10003760 f i OposVariant.obj
 0001:000027a0       ??0CTraceFileAndLineInfo@ATL@@QAE@PBDH@Z 100037a0 f i OposVariant.obj
 0001:000027d0       ??0_ATL_COM_MODULE70@ATL@@QAE@XZ 100037d0 f i OposVariant.obj
 0001:00002800       ??0_ATL_WIN_MODULE70@ATL@@QAE@XZ 10003800 f i OposVariant.obj
 0001:00002840       ??1?$CHeapPtr@_WVCCRTAllocator@ATL@@@ATL@@QAE@XZ 10003840 f i OposVariant.obj
 0001:00002870       ??1?$CHeapPtrBase@_WVCCRTAllocator@ATL@@@ATL@@QAE@XZ 10003870 f i OposVariant.obj
 0001:000028a0       ??1?$CSimpleArray@GV?$CSimpleArrayEqualHelper@G@ATL@@@ATL@@QAE@XZ 100038a0 f i OposVariant.obj
 0001:000028d0       ??1CAtlComModule@ATL@@QAE@XZ 100038d0 f i OposVariant.obj
 0001:00002900       ??1CAtlWinModule@ATL@@QAE@XZ 10003900 f i OposVariant.obj
 0001:00002930       ??1CComBSTR@ATL@@QAE@XZ    10003930 f i OposVariant.obj
 0001:00002970       ??1CComCriticalSection@ATL@@QAE@XZ 10003970 f i OposVariant.obj
 0001:00002980       ??1CPreserveLastError@ATL@@QAE@XZ 10003980 f i OposVariant.obj
 0001:000029c0       ??1_ATL_COM_MODULE70@ATL@@QAE@XZ 100039c0 f i OposVariant.obj
 0001:000029f0       ??1_ATL_WIN_MODULE70@ATL@@QAE@XZ 100039f0 f i OposVariant.obj
 0001:00002a30       ??1stringdispid@CComTypeInfoHolder@ATL@@QAE@XZ 10003a30 f i OposVariant.obj
 0001:00002a60       ??A?$CSimpleArray@GV?$CSimpleArrayEqualHelper@G@ATL@@@ATL@@QAEAAGH@Z 10003a60 f i OposVariant.obj
 0001:00002ae0       ??B?$CHeapPtrBase@_WVCCRTAllocator@ATL@@@ATL@@QBEPA_WXZ 10003ae0 f i OposVariant.obj
 0001:00002af0       ??B?$CTraceCategoryEx@$01$0A@@ATL@@QAEIXZ 10003af0 f i OposVariant.obj
 0001:00002b00       ??B?$CTraceCategoryEx@$0CA@$0A@@ATL@@QAEIXZ 10003b00 f i OposVariant.obj
 0001:00002b10       ??RCTraceFileAndLineInfo@ATL@@QBAXHIPB_WZZ 10003b10 f i OposVariant.obj
 0001:00002bb0       ??_Estringdispid@CComTypeInfoHolder@ATL@@QAEPAXI@Z 10003bb0 f i OposVariant.obj
 0001:00002c40       ??_H@YGXPAXIIP6EPAX0@Z@Z   10003c40 f i OposVariant.obj
 0001:00002cb0       ??_I@YGXPAXIIP6EX0@Z@Z     10003cb0 f i OposVariant.obj
 0001:00002d30       ?Allocate@?$CHeapPtr@_WVCCRTAllocator@ATL@@@ATL@@QAE_NI@Z 10003d30 f i OposVariant.obj
 0001:00002dc0       ?Allocate@CCRTAllocator@ATL@@SAPAXI@Z 10003dc0 f i OposVariant.obj
 0001:00002de0       ?AllocateBytes@?$CHeapPtrBase@_WVCCRTAllocator@ATL@@@ATL@@QAE_NI@Z 10003de0 f i OposVariant.obj
 0001:00002e50       ?AtlWinModuleInit@ATL@@YGJPAU_ATL_WIN_MODULE70@1@@Z 10003e50 f i OposVariant.obj
 0001:00002f20       ?AtlWinModuleTerm@ATL@@YGJPAU_ATL_WIN_MODULE70@1@PAUHINSTANCE__@@@Z 10003f20 f i OposVariant.obj
 0001:00002fe0       ?Clear@OposVariant@@QAEJXZ 10003fe0 f i OposVariant.obj
 0001:00003020       ?Free@?$CHeapPtrBase@_WVCCRTAllocator@ATL@@@ATL@@QAEXXZ 10004020 f i OposVariant.obj
 0001:00003060       ?Free@CCRTAllocator@ATL@@SAXPAX@Z 10004060 f i OposVariant.obj
 0001:00003080       ?GetCategoryName@CTrace@ATL@@CAPA_WI@Z 10004080 f i OposVariant.obj
 0001:000030d0       ?GetModuleInstance@CAtlBaseModule@ATL@@QAEPAUHINSTANCE__@@XZ 100040d0 f i OposVariant.obj
 0001:000030f0       ?GetSize@?$CSimpleArray@GV?$CSimpleArrayEqualHelper@G@ATL@@@ATL@@QBEHXZ 100040f0 f i OposVariant.obj
 0001:00003110       ?Init@CComCriticalSection@ATL@@QAEJXZ 10004110 f i OposVariant.obj
 0001:00003170       ?RegisterCategory@CTrace@ATL@@SAXPB_WI@Z 10004170 f i OposVariant.obj
 0001:00003200       ?RemoveAll@?$CSimpleArray@GV?$CSimpleArrayEqualHelper@G@ATL@@@ATL@@QAEXXZ 10004200 f i OposVariant.obj
 0001:00003280       ?Term@CAtlComModule@ATL@@QAEXXZ 10004280 f i OposVariant.obj
 0001:00003340       ?Term@CAtlWinModule@ATL@@QAEXXZ 10004340 f i OposVariant.obj
 0001:00003370       ?Term@CComCriticalSection@ATL@@QAEJXZ 10004370 f i OposVariant.obj
 0001:000033b0       ?TraceV@CTrace@ATL@@CAXPBDHIIPB_W@Z 100043b0 f i OposVariant.obj
 0001:00003630       ?TraceV@CTrace@ATL@@SAXPBDHIIPB_WPAD@Z 10004630 f i OposVariant.obj
 0001:00003770       ?_AtlInitializeCriticalSectionEx@ATL@@YAHPAU_RTL_CRITICAL_SECTION@@KK@Z 10004770 f i OposVariant.obj
 0001:000037a0       ?_AtlRaiseException@ATL@@YAXKK@Z 100047a0 f i OposVariant.obj
 0001:000037d0       _HRESULT_FROM_WIN32        100047d0 f i OposVariant.obj
 0001:00003810       __vswprintf_s_l            10004810 f i OposVariant.obj
 0001:00003880       _swprintf_s                10004880 f i OposVariant.obj
 0001:000038e0       ?ObjectMain@CComObjectRootBase@ATL@@SGX_N@Z 100048e0 f i SmartCardRW.obj
 0001:000038f0       ?GetCategoryMap@CComObjectRootBase@ATL@@SAPBU_ATL_CATMAP_ENTRY@2@XZ 100048f0 f i SmartCardRW.obj
 0001:00003900       ?GetObjectDescription@?$CComCoClass@VCOPOSSmartCardRW@@$1?CLSID_OPOSSmartCardRW@@3U_GUID@@B@ATL@@SGPB_WXZ 10004900 f i SmartCardRW.obj
 0001:00003910       ?UpdateRegistry@COPOSSmartCardRW@@SGJH@Z 10004910 f i SmartCardRW.obj
 0001:00003930       ?CreateInstance@?$CComCreator@V?$CComObjectCached@VCComClassFactory@ATL@@@ATL@@@ATL@@SGJPAXABU_GUID@@PAPAX@Z 10004930 f i SmartCardRW.obj
 0001:00003ab0       ?CreateInstance@?$CComCreator2@V?$CComCreator@V?$CComObject@VCOPOSSmartCardRW@@@ATL@@@ATL@@V?$CComCreator@V?$CComAggObject@VCOPOSSmartCardRW@@@ATL@@@2@@ATL@@SGJPAXABU_GUID@@PAPAX@Z 10004ab0 f i SmartCardRW.obj
 0001:00003c60       _DllGetClassObject@12      10004c60 f   SmartCardRW.obj
 0001:00003c90       _DllCanUnloadNow@0         10004c90 f   SmartCardRW.obj
 0001:00003cd0       _DllRegisterServer@0       10004cd0 f   SmartCardRW.obj
 0001:00003cf0       _DllUnregisterServer@0     10004cf0 f   SmartCardRW.obj
 0001:00003e80       _DllMain@12                10004e80 f   SmartCardRW.obj
 0001:00003ee0       ??$?2G@Wrapper@?$CSimpleArray@GV?$CSimpleArrayEqualHelper@G@ATL@@@ATL@@SAPAXIPAG@Z 10004ee0 f i SmartCardRW.obj
 0001:00003ef0       ??$?2PA_W@?$Wrapper@PA_W@?$CSimpleMap@PA_WPA_WVCExpansionVectorEqualHelper@ATL@@@ATL@@SAPAXIPAPA_W@Z 10004ef0 f i SmartCardRW.obj
 0001:00003f00       ??$?4UITypeInfo2@@@?$CComPtr@UITypeInfo@@@ATL@@QAEPAUITypeInfo@@ABV?$CComPtr@UITypeInfo2@@@1@@Z 10004f00 f i SmartCardRW.obj
 0001:00003f60       ??$AtlAdd@K@ATL@@YAJPAKKK@Z 10004f60 f i SmartCardRW.obj
 0001:00003fa0       ??$AtlAdd@_K@ATL@@YAJPA_K_K1@Z 10004fa0 f i SmartCardRW.obj
 0001:00004010       ??$AtlAddThrow@K@ATL@@YAKKK@Z 10005010 f i SmartCardRW.obj
 0001:00004090       ??$AtlModuleRegisterWndClassInfoT@VAtlModuleRegisterWndClassInfoParamW@ATL@@@ATL@@YAGPAU_ATL_BASE_MODULE70@0@PAU_ATL_WIN_MODULE70@0@PAU_ATL_WNDCLASSINFOW@0@PAP6GJPAUHWND__@@IIJ@ZVAtlModuleRegisterWndClassInfoParamW@0@@Z 10005090 f i SmartCardRW.obj
 0001:000044a0       ??$AtlMultiply@H@ATL@@YAJPAHHH@Z 100054a0 f i SmartCardRW.obj
 0001:00004520       ??$AtlMultiply@K@ATL@@YAJPAKKK@Z 10005520 f i SmartCardRW.obj
 0001:00004580       ??$AtlMultiplyThrow@I@ATL@@YAIII@Z 10005580 f i SmartCardRW.obj
 0001:00004600       ??$QueryInterface@UIPersistStream@@@IUnknown@@QAGJPAPAUIPersistStream@@@Z 10005600 f i SmartCardRW.obj
 0001:00004630       ??$QueryInterface@UITypeInfo2@@@IUnknown@@QAGJPAPAUITypeInfo2@@@Z 10005630 f i SmartCardRW.obj
 0001:00004660       ??0?$CAtlModuleT@VCComModule@ATL@@@ATL@@QAE@XZ 10005660 f i SmartCardRW.obj
 0001:00004690       ??0?$CAtlSafeAllocBufferManager@VCCRTAllocator@ATL@@@_ATL_SAFE_ALLOCA_IMPL@ATL@@QAE@XZ 10005690 f i SmartCardRW.obj
 0001:000046b0       ??0?$CAutoVectorPtr@_W@ATL@@QAE@XZ 100056b0 f i SmartCardRW.obj
 0001:000046d0       ??0?$CComAggObject@VCOPOSSmartCardRW@@@ATL@@QAE@PAX@Z 100056d0 f i SmartCardRW.obj
 0001:00004740       ??0?$CComContainedObject@VCOPOSSmartCardRW@@@ATL@@QAE@PAX@Z 10005740 f i SmartCardRW.obj
 0001:00004850       ??0?$CComCritSecLock@VCComCriticalSection@ATL@@@ATL@@QAE@AAVCComCriticalSection@1@_N@Z 10005850 f i SmartCardRW.obj
 0001:000048b0       ??0?$CComEnum@UIEnumConnectionPoints@@$1?_GUID_b196b285_bab4_101a_b69c_00aa00341d07@@3U__s_GUID@@BPAUIConnectionPoint@@V?$_CopyInterface@UIConnectionPoint@@@ATL@@VCComSingleThreadModel@6@@ATL@@QAE@XZ 100058b0 f i SmartCardRW.obj
 0001:000048f0       ??0?$CComEnum@UIEnumConnections@@$1?_GUID_b196b287_bab4_101a_b69c_00aa00341d07@@3U__s_GUID@@BUtagCONNECTDATA@@V?$_Copy@UtagCONNECTDATA@@@ATL@@VCComSingleThreadModel@6@@ATL@@QAE@XZ 100058f0 f i SmartCardRW.obj
 0001:00004930       ??0?$CComEnumImpl@UIEnumConnectionPoints@@$1?_GUID_b196b285_bab4_101a_b69c_00aa00341d07@@3U__s_GUID@@BPAUIConnectionPoint@@V?$_CopyInterface@UIConnectionPoint@@@ATL@@@ATL@@QAE@XZ 10005930 f i SmartCardRW.obj
 0001:00004990       ??0?$CComEnumImpl@UIEnumConnections@@$1?_GUID_b196b287_bab4_101a_b69c_00aa00341d07@@3U__s_GUID@@BUtagCONNECTDATA@@V?$_Copy@UtagCONNECTDATA@@@ATL@@@ATL@@QAE@XZ 10005990 f i SmartCardRW.obj
 0001:000049f0       ??0?$CComObject@V?$CComEnum@UIEnumConnectionPoints@@$1?_GUID_b196b285_bab4_101a_b69c_00aa00341d07@@3U__s_GUID@@BPAUIConnectionPoint@@V?$_CopyInterface@UIConnectionPoint@@@ATL@@VCComSingleThreadModel@6@@ATL@@@ATL@@QAE@PAX@Z 100059f0 f i SmartCardRW.obj
 0001:00004a40       ??0?$CComObject@V?$CComEnum@UIEnumConnections@@$1?_GUID_b196b287_bab4_101a_b69c_00aa00341d07@@3U__s_GUID@@BUtagCONNECTDATA@@V?$_Copy@UtagCONNECTDATA@@@ATL@@VCComSingleThreadModel@6@@ATL@@@ATL@@QAE@PAX@Z 10005a40 f i SmartCardRW.obj
 0001:00004a90       ??0?$CComObject@VCOPOSSmartCardRW@@@ATL@@QAE@PAX@Z 10005a90 f i SmartCardRW.obj
 0001:00004bb0       ??0?$CComObjectCached@VCComClassFactory@ATL@@@ATL@@QAE@PAX@Z 10005bb0 f i SmartCardRW.obj
 0001:00004bf0       ??0?$CComObjectRootEx@VCComMultiThreadModel@ATL@@@ATL@@QAE@XZ 10005bf0 f i SmartCardRW.obj
 0001:00004c30       ??0?$CComObjectRootEx@VCComSingleThreadModel@ATL@@@ATL@@QAE@XZ 10005c30 f i SmartCardRW.obj
 0001:00004c60       ??0?$CComPtr@UIAdviseSink@@@ATL@@QAE@PAUIAdviseSink@@@Z 10005c60 f i SmartCardRW.obj
 0001:00004c90       ??0?$CComPtr@UICatRegister@@@ATL@@QAE@XZ 10005c90 f i SmartCardRW.obj
 0001:00004cc0       ??0?$CComPtr@UIConnectionPoint@@@ATL@@QAE@XZ 10005cc0 f i SmartCardRW.obj
 0001:00004cf0       ??0?$CComPtr@UIConnectionPointContainer@@@ATL@@QAE@XZ 10005cf0 f i SmartCardRW.obj
 0001:00004d20       ??0?$CComPtr@UIDataObject@@@ATL@@QAE@XZ 10005d20 f i SmartCardRW.obj
 0001:00004d50       ??0?$CComPtr@UIDispatch@@@ATL@@QAE@XZ 10005d50 f i SmartCardRW.obj
 0001:00004d80       ??0?$CComPtr@UIOleClientSite@@@ATL@@QAE@PAUIOleClientSite@@@Z 10005d80 f i SmartCardRW.obj
 0001:00004db0       ??0?$CComPtr@UIOleControlSite@@@ATL@@QAE@XZ 10005db0 f i SmartCardRW.obj
 0001:00004de0       ??0?$CComPtr@UIOleInPlaceActiveObject@@@ATL@@QAE@XZ 10005de0 f i SmartCardRW.obj
 0001:00004e10       ??0?$CComPtr@UIOleInPlaceFrame@@@ATL@@QAE@XZ 10005e10 f i SmartCardRW.obj
 0001:00004e40       ??0?$CComPtr@UIOleInPlaceObject@@@ATL@@QAE@XZ 10005e40 f i SmartCardRW.obj
 0001:00004e70       ??0?$CComPtr@UIOleInPlaceUIWindow@@@ATL@@QAE@XZ 10005e70 f i SmartCardRW.obj
 0001:00004ea0       ??0?$CComPtr@UIOleObject@@@ATL@@QAE@XZ 10005ea0 f i SmartCardRW.obj
 0001:00004ed0       ??0?$CComPtr@UIPersistStream@@@ATL@@QAE@XZ 10005ed0 f i SmartCardRW.obj
 0001:00004f00       ??0?$CComPtr@UIPersistStreamInit@@@ATL@@QAE@XZ 10005f00 f i SmartCardRW.obj
 0001:00004f30       ??0?$CComPtr@UIPointerInactive@@@ATL@@QAE@XZ 10005f30 f i SmartCardRW.obj
 0001:00004f60       ??0?$CComPtr@UIProvideClassInfo2@@@ATL@@QAE@XZ 10005f60 f i SmartCardRW.obj
 0001:00004f90       ??0?$CComPtr@UISpecifyPropertyPages@@@ATL@@QAE@XZ 10005f90 f i SmartCardRW.obj
 0001:00004fc0       ??0?$CComPtr@UIStream@@@ATL@@QAE@XZ 10005fc0 f i SmartCardRW.obj
 0001:00004ff0       ??0?$CComPtr@UITypeInfo2@@@ATL@@QAE@XZ 10005ff0 f i SmartCardRW.obj
 0001:00005020       ??0?$CComPtr@UITypeInfo@@@ATL@@QAE@ABV01@@Z 10006020 f i SmartCardRW.obj
 0001:00005050       ??0?$CComPtr@UITypeInfo@@@ATL@@QAE@XZ 10006050 f i SmartCardRW.obj
 0001:00005080       ??0?$CComPtr@UITypeLib@@@ATL@@QAE@XZ 10006080 f i SmartCardRW.obj
 0001:000050b0       ??0?$CComPtr@UIUnknown@@@ATL@@QAE@ABV01@@Z 100060b0 f i SmartCardRW.obj
 0001:000050e0       ??0?$CComPtr@UIUnknown@@@ATL@@QAE@PAUIUnknown@@@Z 100060e0 f i SmartCardRW.obj
 0001:00005110       ??0?$CComPtr@UIUnknown@@@ATL@@QAE@XZ 10006110 f i SmartCardRW.obj
 0001:00005140       ??0?$CComPtr@UIViewObjectEx@@@ATL@@QAE@XZ 10006140 f i SmartCardRW.obj
 0001:00005170       ??0?$CComPtrBase@UIAdviseSink@@@ATL@@IAE@PAUIAdviseSink@@@Z 10006170 f i SmartCardRW.obj
 0001:000051c0       ??0?$CComPtrBase@UICatRegister@@@ATL@@IAE@XZ 100061c0 f i SmartCardRW.obj
 0001:000051e0       ??0?$CComPtrBase@UIConnectionPoint@@@ATL@@IAE@XZ 100061e0 f i SmartCardRW.obj
 0001:00005200       ??0?$CComPtrBase@UIConnectionPointContainer@@@ATL@@IAE@XZ 10006200 f i SmartCardRW.obj
 0001:00005220       ??0?$CComPtrBase@UIDataObject@@@ATL@@IAE@XZ 10006220 f i SmartCardRW.obj
 0001:00005240       ??0?$CComPtrBase@UIDispatch@@@ATL@@IAE@XZ 10006240 f i SmartCardRW.obj
 0001:00005260       ??0?$CComPtrBase@UIOleClientSite@@@ATL@@IAE@PAUIOleClientSite@@@Z 10006260 f i SmartCardRW.obj
 0001:000052b0       ??0?$CComPtrBase@UIOleControlSite@@@ATL@@IAE@XZ 100062b0 f i SmartCardRW.obj
 0001:000052d0       ??0?$CComPtrBase@UIOleInPlaceActiveObject@@@ATL@@IAE@XZ 100062d0 f i SmartCardRW.obj
 0001:000052f0       ??0?$CComPtrBase@UIOleInPlaceFrame@@@ATL@@IAE@XZ 100062f0 f i SmartCardRW.obj
 0001:00005310       ??0?$CComPtrBase@UIOleInPlaceObject@@@ATL@@IAE@XZ 10006310 f i SmartCardRW.obj
 0001:00005330       ??0?$CComPtrBase@UIOleInPlaceUIWindow@@@ATL@@IAE@XZ 10006330 f i SmartCardRW.obj
 0001:00005350       ??0?$CComPtrBase@UIOleObject@@@ATL@@IAE@XZ 10006350 f i SmartCardRW.obj
 0001:00005370       ??0?$CComPtrBase@UIPersistStream@@@ATL@@IAE@XZ 10006370 f i SmartCardRW.obj
 0001:00005390       ??0?$CComPtrBase@UIPersistStreamInit@@@ATL@@IAE@XZ 10006390 f i SmartCardRW.obj
 0001:000053b0       ??0?$CComPtrBase@UIPointerInactive@@@ATL@@IAE@XZ 100063b0 f i SmartCardRW.obj
 0001:000053d0       ??0?$CComPtrBase@UIProvideClassInfo2@@@ATL@@IAE@XZ 100063d0 f i SmartCardRW.obj
 0001:000053f0       ??0?$CComPtrBase@UISpecifyPropertyPages@@@ATL@@IAE@XZ 100063f0 f i SmartCardRW.obj
 0001:00005410       ??0?$CComPtrBase@UIStream@@@ATL@@IAE@XZ 10006410 f i SmartCardRW.obj
 0001:00005430       ??0?$CComPtrBase@UITypeInfo2@@@ATL@@IAE@XZ 10006430 f i SmartCardRW.obj
 0001:00005450       ??0?$CComPtrBase@UITypeInfo@@@ATL@@IAE@PAUITypeInfo@@@Z 10006450 f i SmartCardRW.obj
 0001:000054a0       ??0?$CComPtrBase@UITypeInfo@@@ATL@@IAE@XZ 100064a0 f i SmartCardRW.obj
 0001:000054c0       ??0?$CComPtrBase@UITypeLib@@@ATL@@IAE@XZ 100064c0 f i SmartCardRW.obj
 0001:000054e0       ??0?$CComPtrBase@UIUnknown@@@ATL@@IAE@PAUIUnknown@@@Z 100064e0 f i SmartCardRW.obj
 0001:00005530       ??0?$CComPtrBase@UIUnknown@@@ATL@@IAE@XZ 10006530 f i SmartCardRW.obj
 0001:00005550       ??0?$CComPtrBase@UIViewObjectEx@@@ATL@@IAE@XZ 10006550 f i SmartCardRW.obj
 0001:00005570       ??0?$CComQIPtr@UIOleControlSite@@$1?_GUID_b196b289_bab4_101a_b69c_00aa00341d07@@3U__s_GUID@@B@ATL@@QAE@PAUIUnknown@@@Z 10006570 f i SmartCardRW.obj
 0001:000055d0       ??0?$CComQIPtr@UIOleObject@@$1?_GUID_00000112_0000_0000_c000_000000000046@@3U__s_GUID@@B@ATL@@QAE@XZ 100065d0 f i SmartCardRW.obj
 0001:00005600       ??0?$CComQIPtr@UISpecifyPropertyPages@@$1?_GUID_b196b28b_bab4_101a_b69c_00aa00341d07@@3U__s_GUID@@B@ATL@@QAE@XZ 10006600 f i SmartCardRW.obj
 0001:00005630       ??0?$CSimpleMap@PA_WPA_WVCExpansionVectorEqualHelper@ATL@@@ATL@@QAE@XZ 10006630 f i SmartCardRW.obj
 0001:00005660       ??0?$CTempBuffer@E$0BAA@VCCRTAllocator@ATL@@@ATL@@QAE@XZ 10006660 f i SmartCardRW.obj
 0001:00005680       ??0?$CTempBuffer@_W$0BAA@VCCRTAllocator@ATL@@@ATL@@QAE@XZ 10006680 f i SmartCardRW.obj
 0001:000056a0       ??0?$CTempBuffer@_W$0EAA@VCCRTAllocator@ATL@@@ATL@@QAE@XZ 100066a0 f i SmartCardRW.obj
 0001:000056c0       ??0?$Wrapper@PA_W@?$CSimpleMap@PA_WPA_WVCExpansionVectorEqualHelper@ATL@@@ATL@@QAE@ABQA_W@Z 100066c0 f i SmartCardRW.obj
 0001:000056e0       ??0CAtlModule@ATL@@QAE@XZ  100066e0 f i SmartCardRW.obj
 0001:00005800       ??0CComAutoDeleteCriticalSection@ATL@@QAE@XZ 10006800 f i SmartCardRW.obj
 0001:00005830       ??0CComBSTR@ATL@@QAE@XZ    10006830 f i SmartCardRW.obj
 0001:00005850       ??0CComClassFactory@ATL@@QAE@XZ 10006850 f i SmartCardRW.obj
 0001:00005890       ??0CComModule@ATL@@QAE@XZ  10006890 f i SmartCardRW.obj
 0001:00005900       ??0CComObjectRootBase@ATL@@QAE@XZ 10006900 f i SmartCardRW.obj
 0001:00005920       ??0CComSafeDeleteCriticalSection@ATL@@QAE@XZ 10006920 f i SmartCardRW.obj
 0001:00005950       ??0CComVariant@ATL@@QAE@XZ 10006950 f i SmartCardRW.obj
 0001:000059a0       ??0CExpansionVector@ATL@@QAE@XZ 100069a0 f i SmartCardRW.obj
 0001:000059d0       ??0CParseBuffer@CRegParser@ATL@@QAE@H@Z 100069d0 f i SmartCardRW.obj
 0001:00005a40       ??0CRegKey@ATL@@QAE@PAUHKEY__@@@Z 10006a40 f i SmartCardRW.obj
 0001:00005a70       ??0CRegKey@ATL@@QAE@PAVCAtlTransactionManager@1@@Z 10006a70 f i SmartCardRW.obj
 0001:00005aa0       ??0CRegObject@ATL@@QAE@XZ  10006aa0 f i SmartCardRW.obj
 0001:00005ae0       ??0CRegParser@ATL@@QAE@PAVCRegObject@1@@Z 10006ae0 f i SmartCardRW.obj
 0001:00005b10       ??0IClassFactory@@QAE@XZ   10006b10 f i SmartCardRW.obj
 0001:00005b40       ??0IEnumConnectionPoints@@QAE@XZ 10006b40 f i SmartCardRW.obj
 0001:00005b70       ??0IEnumConnections@@QAE@XZ 10006b70 f i SmartCardRW.obj
 0001:00005ba0       ??0IRegistrarBase@@QAE@XZ  10006ba0 f i SmartCardRW.obj
 0001:00005bd0       ??0IUnknown@@QAE@XZ        10006bd0 f i SmartCardRW.obj
 0001:00005be0       ??0ModuleLockHelper@ATL@@QAE@XZ 10006be0 f i SmartCardRW.obj
 0001:00005c20       ??0OposVariant@@QAE@XZ     10006c20 f i SmartCardRW.obj
 0001:00005c40       ??0Wrapper@?$CSimpleArray@GV?$CSimpleArrayEqualHelper@G@ATL@@@ATL@@QAE@ABG@Z 10006c40 f i SmartCardRW.obj
 0001:00005c60       ??0_ATL_MODULE70@ATL@@QAE@XZ 10006c60 f i SmartCardRW.obj
 0001:00005c90       ??0_ATL_MSG@ATL@@QAE@PAUHWND__@@IIJH@Z 10006c90 f i SmartCardRW.obj
 0001:00005d00       ??0_U_MENUorID@ATL@@QAE@I@Z 10006d00 f i SmartCardRW.obj
 0001:00005d20       ??0_U_RECT@ATL@@QAE@AAUtagRECT@@@Z 10006d20 f i SmartCardRW.obj
 0001:00005d40       ??0stringdispid@CComTypeInfoHolder@ATL@@QAE@XZ 10006d40 f i SmartCardRW.obj
 0001:00005d80       ??1?$CAtlModuleT@VCComModule@ATL@@@ATL@@UAE@XZ 10006d80 f i SmartCardRW.obj
 0001:00005db0       ??1?$CAtlSafeAllocBufferManager@VCCRTAllocator@ATL@@@_ATL_SAFE_ALLOCA_IMPL@ATL@@QAE@XZ 10006db0 f i SmartCardRW.obj
 0001:00005e00       ??1?$CAutoVectorPtr@_W@ATL@@QAE@XZ 10006e00 f i SmartCardRW.obj
 0001:00005e30       ??1?$CComAggObject@VCOPOSSmartCardRW@@@ATL@@UAE@XZ 10006e30 f i SmartCardRW.obj
 0001:00005ea0       ??1?$CComContainedObject@VCOPOSSmartCardRW@@@ATL@@UAE@XZ 10006ea0 f i SmartCardRW.obj
 0001:00005ed0       ??1?$CComCritSecLock@VCComCriticalSection@ATL@@@ATL@@QAE@XZ 10006ed0 f i SmartCardRW.obj
 0001:00005f00       ??1?$CComEnum@UIEnumConnectionPoints@@$1?_GUID_b196b285_bab4_101a_b69c_00aa00341d07@@3U__s_GUID@@BPAUIConnectionPoint@@V?$_CopyInterface@UIConnectionPoint@@@ATL@@VCComSingleThreadModel@6@@ATL@@UAE@XZ 10006f00 f i SmartCardRW.obj
 0001:00005f30       ??1?$CComEnum@UIEnumConnections@@$1?_GUID_b196b287_bab4_101a_b69c_00aa00341d07@@3U__s_GUID@@BUtagCONNECTDATA@@V?$_Copy@UtagCONNECTDATA@@@ATL@@VCComSingleThreadModel@6@@ATL@@UAE@XZ 10006f30 f i SmartCardRW.obj
 0001:00005f60       ??1?$CComEnumImpl@UIEnumConnectionPoints@@$1?_GUID_b196b285_bab4_101a_b69c_00aa00341d07@@3U__s_GUID@@BPAUIConnectionPoint@@V?$_CopyInterface@UIConnectionPoint@@@ATL@@@ATL@@UAE@XZ 10006f60 f i SmartCardRW.obj
 0001:00005ff0       ??1?$CComEnumImpl@UIEnumConnections@@$1?_GUID_b196b287_bab4_101a_b69c_00aa00341d07@@3U__s_GUID@@BUtagCONNECTDATA@@V?$_Copy@UtagCONNECTDATA@@@ATL@@@ATL@@UAE@XZ 10006ff0 f i SmartCardRW.obj
 0001:00006080       ??1?$CComObject@V?$CComEnum@UIEnumConnectionPoints@@$1?_GUID_b196b285_bab4_101a_b69c_00aa00341d07@@3U__s_GUID@@BPAUIConnectionPoint@@V?$_CopyInterface@UIConnectionPoint@@@ATL@@VCComSingleThreadModel@6@@ATL@@@ATL@@UAE@XZ 10007080 f i SmartCardRW.obj
 0001:000060e0       ??1?$CComObject@V?$CComEnum@UIEnumConnections@@$1?_GUID_b196b287_bab4_101a_b69c_00aa00341d07@@3U__s_GUID@@BUtagCONNECTDATA@@V?$_Copy@UtagCONNECTDATA@@@ATL@@VCComSingleThreadModel@6@@ATL@@@ATL@@UAE@XZ 100070e0 f i SmartCardRW.obj
 0001:00006140       ??1?$CComObject@VCOPOSSmartCardRW@@@ATL@@UAE@XZ 10007140 f i SmartCardRW.obj
 0001:00006280       ??1?$CComObjectCached@VCComClassFactory@ATL@@@ATL@@UAE@XZ 10007280 f i SmartCardRW.obj
 0001:000062d0       ??1?$CComObjectRootEx@VCComMultiThreadModel@ATL@@@ATL@@QAE@XZ 100072d0 f i SmartCardRW.obj
 0001:00006300       ??1?$CComObjectRootEx@VCComSingleThreadModel@ATL@@@ATL@@QAE@XZ 10007300 f i SmartCardRW.obj
 0001:00006330       ??1?$CComPtr@UIAdviseSink@@@ATL@@QAE@XZ 10007330 f i SmartCardRW.obj
 0001:00006360       ??1?$CComPtr@UICatRegister@@@ATL@@QAE@XZ 10007360 f i SmartCardRW.obj
 0001:00006390       ??1?$CComPtr@UIConnectionPoint@@@ATL@@QAE@XZ 10007390 f i SmartCardRW.obj
 0001:000063c0       ??1?$CComPtr@UIConnectionPointContainer@@@ATL@@QAE@XZ 100073c0 f i SmartCardRW.obj
 0001:000063f0       ??1?$CComPtr@UIDataObject@@@ATL@@QAE@XZ 100073f0 f i SmartCardRW.obj
 0001:00006420       ??1?$CComPtr@UIDispatch@@@ATL@@QAE@XZ 10007420 f i SmartCardRW.obj
 0001:00006450       ??1?$CComPtr@UIOleClientSite@@@ATL@@QAE@XZ 10007450 f i SmartCardRW.obj
 0001:00006480       ??1?$CComPtr@UIOleControlSite@@@ATL@@QAE@XZ 10007480 f i SmartCardRW.obj
 0001:000064b0       ??1?$CComPtr@UIOleInPlaceActiveObject@@@ATL@@QAE@XZ 100074b0 f i SmartCardRW.obj
 0001:000064e0       ??1?$CComPtr@UIOleInPlaceFrame@@@ATL@@QAE@XZ 100074e0 f i SmartCardRW.obj
 0001:00006510       ??1?$CComPtr@UIOleInPlaceObject@@@ATL@@QAE@XZ 10007510 f i SmartCardRW.obj
 0001:00006540       ??1?$CComPtr@UIOleInPlaceUIWindow@@@ATL@@QAE@XZ 10007540 f i SmartCardRW.obj
 0001:00006570       ??1?$CComPtr@UIOleObject@@@ATL@@QAE@XZ 10007570 f i SmartCardRW.obj
 0001:000065a0       ??1?$CComPtr@UIPersistStream@@@ATL@@QAE@XZ 100075a0 f i SmartCardRW.obj
 0001:000065d0       ??1?$CComPtr@UIPersistStreamInit@@@ATL@@QAE@XZ 100075d0 f i SmartCardRW.obj
 0001:00006600       ??1?$CComPtr@UIPointerInactive@@@ATL@@QAE@XZ 10007600 f i SmartCardRW.obj
 0001:00006630       ??1?$CComPtr@UIProvideClassInfo2@@@ATL@@QAE@XZ 10007630 f i SmartCardRW.obj
 0001:00006660       ??1?$CComPtr@UISpecifyPropertyPages@@@ATL@@QAE@XZ 10007660 f i SmartCardRW.obj
 0001:00006690       ??1?$CComPtr@UIStream@@@ATL@@QAE@XZ 10007690 f i SmartCardRW.obj
 0001:000066c0       ??1?$CComPtr@UITypeInfo2@@@ATL@@QAE@XZ 100076c0 f i SmartCardRW.obj
 0001:000066f0       ??1?$CComPtr@UITypeInfo@@@ATL@@QAE@XZ 100076f0 f i SmartCardRW.obj
 0001:00006720       ??1?$CComPtr@UITypeLib@@@ATL@@QAE@XZ 10007720 f i SmartCardRW.obj
 0001:00006750       ??1?$CComPtr@UIUnknown@@@ATL@@QAE@XZ 10007750 f i SmartCardRW.obj
 0001:00006780       ??1?$CComPtr@UIViewObjectEx@@@ATL@@QAE@XZ 10007780 f i SmartCardRW.obj
 0001:000067b0       ??1?$CComPtrBase@UIAdviseSink@@@ATL@@QAE@XZ 100077b0 f i SmartCardRW.obj
 0001:00006800       ??1?$CComPtrBase@UICatRegister@@@ATL@@QAE@XZ 10007800 f i SmartCardRW.obj
 0001:00006850       ??1?$CComPtrBase@UIConnectionPoint@@@ATL@@QAE@XZ 10007850 f i SmartCardRW.obj
 0001:000068a0       ??1?$CComPtrBase@UIConnectionPointContainer@@@ATL@@QAE@XZ 100078a0 f i SmartCardRW.obj
 0001:000068f0       ??1?$CComPtrBase@UIDataObject@@@ATL@@QAE@XZ 100078f0 f i SmartCardRW.obj
 0001:00006940       ??1?$CComPtrBase@UIDispatch@@@ATL@@QAE@XZ 10007940 f i SmartCardRW.obj
 0001:00006990       ??1?$CComPtrBase@UIOleClientSite@@@ATL@@QAE@XZ 10007990 f i SmartCardRW.obj
 0001:000069e0       ??1?$CComPtrBase@UIOleControlSite@@@ATL@@QAE@XZ 100079e0 f i SmartCardRW.obj
 0001:00006a30       ??1?$CComPtrBase@UIOleInPlaceActiveObject@@@ATL@@QAE@XZ 10007a30 f i SmartCardRW.obj
 0001:00006a80       ??1?$CComPtrBase@UIOleInPlaceFrame@@@ATL@@QAE@XZ 10007a80 f i SmartCardRW.obj
 0001:00006ad0       ??1?$CComPtrBase@UIOleInPlaceObject@@@ATL@@QAE@XZ 10007ad0 f i SmartCardRW.obj
 0001:00006b20       ??1?$CComPtrBase@UIOleInPlaceUIWindow@@@ATL@@QAE@XZ 10007b20 f i SmartCardRW.obj
 0001:00006b70       ??1?$CComPtrBase@UIOleObject@@@ATL@@QAE@XZ 10007b70 f i SmartCardRW.obj
 0001:00006bc0       ??1?$CComPtrBase@UIPersistStream@@@ATL@@QAE@XZ 10007bc0 f i SmartCardRW.obj
 0001:00006c10       ??1?$CComPtrBase@UIPersistStreamInit@@@ATL@@QAE@XZ 10007c10 f i SmartCardRW.obj
 0001:00006c60       ??1?$CComPtrBase@UIPointerInactive@@@ATL@@QAE@XZ 10007c60 f i SmartCardRW.obj
 0001:00006cb0       ??1?$CComPtrBase@UIProvideClassInfo2@@@ATL@@QAE@XZ 10007cb0 f i SmartCardRW.obj
 0001:00006d00       ??1?$CComPtrBase@UISpecifyPropertyPages@@@ATL@@QAE@XZ 10007d00 f i SmartCardRW.obj
 0001:00006d50       ??1?$CComPtrBase@UIStream@@@ATL@@QAE@XZ 10007d50 f i SmartCardRW.obj
 0001:00006da0       ??1?$CComPtrBase@UITypeInfo2@@@ATL@@QAE@XZ 10007da0 f i SmartCardRW.obj
 0001:00006df0       ??1?$CComPtrBase@UITypeInfo@@@ATL@@QAE@XZ 10007df0 f i SmartCardRW.obj
 0001:00006e40       ??1?$CComPtrBase@UITypeLib@@@ATL@@QAE@XZ 10007e40 f i SmartCardRW.obj
 0001:00006e90       ??1?$CComPtrBase@UIUnknown@@@ATL@@QAE@XZ 10007e90 f i SmartCardRW.obj
 0001:00006ee0       ??1?$CComPtrBase@UIViewObjectEx@@@ATL@@QAE@XZ 10007ee0 f i SmartCardRW.obj
 0001:00006f30       ??1?$CComQIPtr@UIOleControlSite@@$1?_GUID_b196b289_bab4_101a_b69c_00aa00341d07@@3U__s_GUID@@B@ATL@@QAE@XZ 10007f30 f i SmartCardRW.obj
 0001:00006f60       ??1?$CComQIPtr@UIOleObject@@$1?_GUID_00000112_0000_0000_c000_000000000046@@3U__s_GUID@@B@ATL@@QAE@XZ 10007f60 f i SmartCardRW.obj
 0001:00006f90       ??1?$CComQIPtr@UISpecifyPropertyPages@@$1?_GUID_b196b28b_bab4_101a_b69c_00aa00341d07@@3U__s_GUID@@B@ATL@@QAE@XZ 10007f90 f i SmartCardRW.obj
 0001:00006fc0       ??1?$CSimpleMap@PA_WPA_WVCExpansionVectorEqualHelper@ATL@@@ATL@@QAE@XZ 10007fc0 f i SmartCardRW.obj
 0001:00006ff0       ??1?$CTempBuffer@E$0BAA@VCCRTAllocator@ATL@@@ATL@@QAE@XZ 10007ff0 f i SmartCardRW.obj
 0001:00007030       ??1?$CTempBuffer@_W$0BAA@VCCRTAllocator@ATL@@@ATL@@QAE@XZ 10008030 f i SmartCardRW.obj
 0001:00007070       ??1?$CTempBuffer@_W$0EAA@VCCRTAllocator@ATL@@@ATL@@QAE@XZ 10008070 f i SmartCardRW.obj
 0001:000070b0       ??1CAtlModule@ATL@@UAE@XZ  100080b0 f i SmartCardRW.obj
 0001:000070e0       ??1CComAutoDeleteCriticalSection@ATL@@QAE@XZ 100080e0 f i SmartCardRW.obj
 0001:00007110       ??1CComClassFactory@ATL@@UAE@XZ 10008110 f i SmartCardRW.obj
 0001:00007140       ??1CComModule@ATL@@UAE@XZ  10008140 f i SmartCardRW.obj
 0001:00007170       ??1CComObjectRootBase@ATL@@QAE@XZ 10008170 f i SmartCardRW.obj
 0001:00007180       ??1CComSafeDeleteCriticalSection@ATL@@QAE@XZ 10008180 f i SmartCardRW.obj
 0001:000071c0       ??1CComVariant@ATL@@QAE@XZ 100081c0 f i SmartCardRW.obj
 0001:00007220       ??1CExpansionVector@ATL@@QAE@XZ 10008220 f i SmartCardRW.obj
 0001:00007250       ??1CParseBuffer@CRegParser@ATL@@QAE@XZ 10008250 f i SmartCardRW.obj
 0001:00007290       ??1CRegKey@ATL@@QAE@XZ     10008290 f i SmartCardRW.obj
 0001:000072c0       ??1CRegObject@ATL@@UAE@XZ  100082c0 f i SmartCardRW.obj
 0001:00007300       ??1ModuleLockHelper@ATL@@QAE@XZ 10008300 f i SmartCardRW.obj
 0001:00007340       ??1OposVariant@@QAE@XZ     10008340 f i SmartCardRW.obj
 0001:00007370       ??1_ATL_MODULE70@ATL@@QAE@XZ 10008370 f i SmartCardRW.obj
 0001:000073a0       ??4?$CComPtr@UIAdviseSink@@@ATL@@QAEPAUIAdviseSink@@PAU2@@Z 100083a0 f i SmartCardRW.obj
 0001:00007400       ??4?$CComPtr@UIOleClientSite@@@ATL@@QAEPAUIOleClientSite@@PAU2@@Z 10008400 f i SmartCardRW.obj
 0001:00007460       ??4?$CComPtr@UIUnknown@@@ATL@@QAEPAUIUnknown@@PAU2@@Z 10008460 f i SmartCardRW.obj
 0001:000074c0       ??4?$CComQIPtr@UIOleObject@@$1?_GUID_00000112_0000_0000_c000_000000000046@@3U__s_GUID@@B@ATL@@QAEPAUIOleObject@@PAUIUnknown@@@Z 100084c0 f i SmartCardRW.obj
 0001:00007510       ??4?$CComQIPtr@UISpecifyPropertyPages@@$1?_GUID_b196b28b_bab4_101a_b69c_00aa00341d07@@3U__s_GUID@@B@ATL@@QAEPAUISpecifyPropertyPages@@PAUIUnknown@@@Z 10008510 f i SmartCardRW.obj
 0001:00007560       ??7?$CComPtrBase@UIOleClientSite@@@ATL@@QBE_NXZ 10008560 f i SmartCardRW.obj
 0001:00007590       ??7?$CComPtrBase@UIOleInPlaceSiteWindowless@@@ATL@@QBE_NXZ 10008590 f i SmartCardRW.obj
 0001:000075c0       ??7CComBSTR@ATL@@QBE_NXZ   100085c0 f i SmartCardRW.obj
 0001:000075f0       ??8?$CComPtrBase@UIConnectionPointContainer@@@ATL@@QBE_NPAUIConnectionPointContainer@@@Z 100085f0 f i SmartCardRW.obj
 0001:00007620       ??8?$CComPtrBase@UIDataAdviseHolder@@@ATL@@QBE_NPAUIDataAdviseHolder@@@Z 10008620 f i SmartCardRW.obj
 0001:00007650       ??8?$CComPtrBase@UIOleAdviseHolder@@@ATL@@QBE_NPAUIOleAdviseHolder@@@Z 10008650 f i SmartCardRW.obj
 0001:00007680       ??8?$CComPtrBase@UIOleClientSite@@@ATL@@QBE_NPAUIOleClientSite@@@Z 10008680 f i SmartCardRW.obj
 0001:000076b0       ??8?$CComPtrBase@UIOleControlSite@@@ATL@@QBE_NPAUIOleControlSite@@@Z 100086b0 f i SmartCardRW.obj
 0001:000076e0       ??8?$CComPtrBase@UIOleInPlaceObject@@@ATL@@QBE_NPAUIOleInPlaceObject@@@Z 100086e0 f i SmartCardRW.obj
 0001:00007710       ??8?$CComPtrBase@UIOleInPlaceSiteWindowless@@@ATL@@QBE_NPAUIOleInPlaceSiteWindowless@@@Z 10008710 f i SmartCardRW.obj
 0001:00007740       ??8?$CComPtrBase@UIOleObject@@@ATL@@QBE_NPAUIOleObject@@@Z 10008740 f i SmartCardRW.obj
 0001:00007770       ??8?$CComPtrBase@UIPersistStream@@@ATL@@QBE_NPAUIPersistStream@@@Z 10008770 f i SmartCardRW.obj
 0001:000077a0       ??8?$CComPtrBase@UIPersistStreamInit@@@ATL@@QBE_NPAUIPersistStreamInit@@@Z 100087a0 f i SmartCardRW.obj
 0001:000077d0       ??8?$CComPtrBase@UIPointerInactive@@@ATL@@QBE_NPAUIPointerInactive@@@Z 100087d0 f i SmartCardRW.obj
 0001:00007800       ??8?$CComPtrBase@UIUnknown@@@ATL@@QBE_NPAUIUnknown@@@Z 10008800 f i SmartCardRW.obj
 0001:00007830       ??8?$CComPtrBase@UIViewObjectEx@@@ATL@@QBE_NPAUIViewObjectEx@@@Z 10008830 f i SmartCardRW.obj
 0001:00007860       ??8CComBSTR@ATL@@QBE_NH@Z  10008860 f i SmartCardRW.obj
 0001:000078c0       ??9?$CComPtrBase@UIConnectionPointContainer@@@ATL@@QBE_NPAUIConnectionPointContainer@@@Z 100088c0 f i SmartCardRW.obj
 0001:00007910       ??9?$CComPtrBase@UIDataAdviseHolder@@@ATL@@QBE_NPAUIDataAdviseHolder@@@Z 10008910 f i SmartCardRW.obj
 0001:00007960       ??9?$CComPtrBase@UIOleAdviseHolder@@@ATL@@QBE_NPAUIOleAdviseHolder@@@Z 10008960 f i SmartCardRW.obj
 0001:000079b0       ??9?$CComPtrBase@UIOleClientSite@@@ATL@@QBE_NPAUIOleClientSite@@@Z 100089b0 f i SmartCardRW.obj
 0001:00007a00       ??9?$CComPtrBase@UIOleControlSite@@@ATL@@QBE_NPAUIOleControlSite@@@Z 10008a00 f i SmartCardRW.obj
 0001:00007a50       ??9?$CComPtrBase@UIOleInPlaceObject@@@ATL@@QBE_NPAUIOleInPlaceObject@@@Z 10008a50 f i SmartCardRW.obj
 0001:00007aa0       ??9?$CComPtrBase@UIOleInPlaceSiteWindowless@@@ATL@@QBE_NPAUIOleInPlaceSiteWindowless@@@Z 10008aa0 f i SmartCardRW.obj
 0001:00007af0       ??9?$CComPtrBase@UIOleObject@@@ATL@@QBE_NPAUIOleObject@@@Z 10008af0 f i SmartCardRW.obj
 0001:00007b40       ??9?$CComPtrBase@UIPersistStream@@@ATL@@QBE_NPAUIPersistStream@@@Z 10008b40 f i SmartCardRW.obj
 0001:00007b90       ??9?$CComPtrBase@UIPersistStreamInit@@@ATL@@QBE_NPAUIPersistStreamInit@@@Z 10008b90 f i SmartCardRW.obj
 0001:00007be0       ??9?$CComPtrBase@UIPointerInactive@@@ATL@@QBE_NPAUIPointerInactive@@@Z 10008be0 f i SmartCardRW.obj
 0001:00007c30       ??9?$CComPtrBase@UIUnknown@@@ATL@@QBE_NPAUIUnknown@@@Z 10008c30 f i SmartCardRW.obj
 0001:00007c80       ??9?$CComPtrBase@UIViewObjectEx@@@ATL@@QBE_NPAUIViewObjectEx@@@Z 10008c80 f i SmartCardRW.obj
 0001:00007cd0       ??9CComBSTR@ATL@@QBE_NH@Z  10008cd0 f i SmartCardRW.obj
 0001:00007d20       ??B?$CComPtrBase@UIAdviseSink@@@ATL@@QBEPAUIAdviseSink@@XZ 10008d20 f i SmartCardRW.obj
 0001:00007d30       ??B?$CComPtrBase@UIDataAdviseHolder@@@ATL@@QBEPAUIDataAdviseHolder@@XZ 10008d30 f i SmartCardRW.obj
 0001:00007d40       ??B?$CComPtrBase@UIDataObject@@@ATL@@QBEPAUIDataObject@@XZ 10008d40 f i SmartCardRW.obj
 0001:00007d50       ??B?$CComPtrBase@UIOleAdviseHolder@@@ATL@@QBEPAUIOleAdviseHolder@@XZ 10008d50 f i SmartCardRW.obj
 0001:00007d60       ??B?$CComPtrBase@UIOleClientSite@@@ATL@@QBEPAUIOleClientSite@@XZ 10008d60 f i SmartCardRW.obj
 0001:00007d70       ??B?$CComPtrBase@UIOleControlSite@@@ATL@@QBEPAUIOleControlSite@@XZ 10008d70 f i SmartCardRW.obj
 0001:00007d80       ??B?$CComPtrBase@UIOleInPlaceActiveObject@@@ATL@@QBEPAUIOleInPlaceActiveObject@@XZ 10008d80 f i SmartCardRW.obj
 0001:00007d90       ??B?$CComPtrBase@UIOleInPlaceFrame@@@ATL@@QBEPAUIOleInPlaceFrame@@XZ 10008d90 f i SmartCardRW.obj
 0001:00007da0       ??B?$CComPtrBase@UIOleInPlaceSiteWindowless@@@ATL@@QBEPAUIOleInPlaceSiteWindowless@@XZ 10008da0 f i SmartCardRW.obj
 0001:00007db0       ??B?$CComPtrBase@UIOleInPlaceUIWindow@@@ATL@@QBEPAUIOleInPlaceUIWindow@@XZ 10008db0 f i SmartCardRW.obj
 0001:00007dc0       ??B?$CComPtrBase@UIOleObject@@@ATL@@QBEPAUIOleObject@@XZ 10008dc0 f i SmartCardRW.obj
 0001:00007dd0       ??B?$CComPtrBase@UIPersistStream@@@ATL@@QBEPAUIPersistStream@@XZ 10008dd0 f i SmartCardRW.obj
 0001:00007de0       ??B?$CComPtrBase@UIProvideClassInfo2@@@ATL@@QBEPAUIProvideClassInfo2@@XZ 10008de0 f i SmartCardRW.obj
 0001:00007df0       ??B?$CComPtrBase@UISpecifyPropertyPages@@@ATL@@QBEPAUISpecifyPropertyPages@@XZ 10008df0 f i SmartCardRW.obj
 0001:00007e00       ??B?$CComPtrBase@UIStream@@@ATL@@QBEPAUIStream@@XZ 10008e00 f i SmartCardRW.obj
 0001:00007e10       ??B?$CComPtrBase@UITypeInfo2@@@ATL@@QBEPAUITypeInfo2@@XZ 10008e10 f i SmartCardRW.obj
 0001:00007e20       ??B?$CComPtrBase@UITypeInfo@@@ATL@@QBEPAUITypeInfo@@XZ 10008e20 f i SmartCardRW.obj
 0001:00007e30       ??B?$CComPtrBase@UITypeLib@@@ATL@@QBEPAUITypeLib@@XZ 10008e30 f i SmartCardRW.obj
 0001:00007e40       ??B?$CComPtrBase@UIUnknown@@@ATL@@QBEPAUIUnknown@@XZ 10008e40 f i SmartCardRW.obj
 0001:00007e50       ??B?$CTempBuffer@E$0BAA@VCCRTAllocator@ATL@@@ATL@@QBEPAEXZ 10008e50 f i SmartCardRW.obj
 0001:00007e60       ??B?$CTempBuffer@_W$0BAA@VCCRTAllocator@ATL@@@ATL@@QBEPA_WXZ 10008e60 f i SmartCardRW.obj
 0001:00007e70       ??B?$CTempBuffer@_W$0EAA@VCCRTAllocator@ATL@@@ATL@@QBEPA_WXZ 10008e70 f i SmartCardRW.obj
 0001:00007e80       ??B?$CTraceCategoryEx@$00$0A@@ATL@@QAEIXZ 10008e80 f i SmartCardRW.obj
 0001:00007e90       ??B?$CTraceCategoryEx@$07$0A@@ATL@@QAEIXZ 10008e90 f i SmartCardRW.obj
 0001:00007ea0       ??B?$CTraceCategoryEx@$0CAAA@$0A@@ATL@@QAEIXZ 10008ea0 f i SmartCardRW.obj
 0001:00007eb0       ??B?$CTraceCategoryEx@$0EA@$0A@@ATL@@QAEIXZ 10008eb0 f i SmartCardRW.obj
 0001:00007ec0       ??B?$CTraceCategoryEx@$0IAA@$0A@@ATL@@QAEIXZ 10008ec0 f i SmartCardRW.obj
 0001:00007ed0       ??BCComBSTR@ATL@@QBEPA_WXZ 10008ed0 f i SmartCardRW.obj
 0001:00007ee0       ??BCRegKey@ATL@@QBEPAUHKEY__@@XZ 10008ee0 f i SmartCardRW.obj
 0001:00007ef0       ??C?$CComPtrBase@UIAdviseSink@@@ATL@@QBEPAV?$_NoAddRefReleaseOnCComPtr@UIAdviseSink@@@1@XZ 10008ef0 f i SmartCardRW.obj
 0001:00007f40       ??C?$CComPtrBase@UICatRegister@@@ATL@@QBEPAV?$_NoAddRefReleaseOnCComPtr@UICatRegister@@@1@XZ 10008f40 f i SmartCardRW.obj
 0001:00007f90       ??C?$CComPtrBase@UIConnectionPoint@@@ATL@@QBEPAV?$_NoAddRefReleaseOnCComPtr@UIConnectionPoint@@@1@XZ 10008f90 f i SmartCardRW.obj
 0001:00007fe0       ??C?$CComPtrBase@UIConnectionPointContainer@@@ATL@@QBEPAV?$_NoAddRefReleaseOnCComPtr@UIConnectionPointContainer@@@1@XZ 10008fe0 f i SmartCardRW.obj
 0001:00008030       ??C?$CComPtrBase@UIDataAdviseHolder@@@ATL@@QBEPAV?$_NoAddRefReleaseOnCComPtr@UIDataAdviseHolder@@@1@XZ 10009030 f i SmartCardRW.obj
 0001:00008080       ??C?$CComPtrBase@UIOleAdviseHolder@@@ATL@@QBEPAV?$_NoAddRefReleaseOnCComPtr@UIOleAdviseHolder@@@1@XZ 10009080 f i SmartCardRW.obj
 0001:000080d0       ??C?$CComPtrBase@UIOleClientSite@@@ATL@@QBEPAV?$_NoAddRefReleaseOnCComPtr@UIOleClientSite@@@1@XZ 100090d0 f i SmartCardRW.obj
 0001:00008120       ??C?$CComPtrBase@UIOleControlSite@@@ATL@@QBEPAV?$_NoAddRefReleaseOnCComPtr@UIOleControlSite@@@1@XZ 10009120 f i SmartCardRW.obj
 0001:00008170       ??C?$CComPtrBase@UIOleInPlaceFrame@@@ATL@@QBEPAV?$_NoAddRefReleaseOnCComPtr@UIOleInPlaceFrame@@@1@XZ 10009170 f i SmartCardRW.obj
 0001:000081c0       ??C?$CComPtrBase@UIOleInPlaceObject@@@ATL@@QBEPAV?$_NoAddRefReleaseOnCComPtr@UIOleInPlaceObject@@@1@XZ 100091c0 f i SmartCardRW.obj
 0001:00008210       ??C?$CComPtrBase@UIOleInPlaceSiteWindowless@@@ATL@@QBEPAV?$_NoAddRefReleaseOnCComPtr@UIOleInPlaceSiteWindowless@@@1@XZ 10009210 f i SmartCardRW.obj
 0001:00008260       ??C?$CComPtrBase@UIOleInPlaceUIWindow@@@ATL@@QBEPAV?$_NoAddRefReleaseOnCComPtr@UIOleInPlaceUIWindow@@@1@XZ 10009260 f i SmartCardRW.obj
 0001:000082b0       ??C?$CComPtrBase@UIOleObject@@@ATL@@QBEPAV?$_NoAddRefReleaseOnCComPtr@UIOleObject@@@1@XZ 100092b0 f i SmartCardRW.obj
 0001:00008300       ??C?$CComPtrBase@UIPersistStream@@@ATL@@QBEPAV?$_NoAddRefReleaseOnCComPtr@UIPersistStream@@@1@XZ 10009300 f i SmartCardRW.obj
 0001:00008350       ??C?$CComPtrBase@UIPersistStreamInit@@@ATL@@QBEPAV?$_NoAddRefReleaseOnCComPtr@UIPersistStreamInit@@@1@XZ 10009350 f i SmartCardRW.obj
 0001:000083a0       ??C?$CComPtrBase@UIPointerInactive@@@ATL@@QBEPAV?$_NoAddRefReleaseOnCComPtr@UIPointerInactive@@@1@XZ 100093a0 f i SmartCardRW.obj
 0001:000083f0       ??C?$CComPtrBase@UIProvideClassInfo2@@@ATL@@QBEPAV?$_NoAddRefReleaseOnCComPtr@UIProvideClassInfo2@@@1@XZ 100093f0 f i SmartCardRW.obj
 0001:00008440       ??C?$CComPtrBase@UISpecifyPropertyPages@@@ATL@@QBEPAV?$_NoAddRefReleaseOnCComPtr@UISpecifyPropertyPages@@@1@XZ 10009440 f i SmartCardRW.obj
 0001:00008490       ??C?$CComPtrBase@UITypeInfo@@@ATL@@QBEPAV?$_NoAddRefReleaseOnCComPtr@UITypeInfo@@@1@XZ 10009490 f i SmartCardRW.obj
 0001:000084e0       ??C?$CComPtrBase@UITypeLib@@@ATL@@QBEPAV?$_NoAddRefReleaseOnCComPtr@UITypeLib@@@1@XZ 100094e0 f i SmartCardRW.obj
 0001:00008530       ??C?$CComPtrBase@UIUnknown@@@ATL@@QBEPAV?$_NoAddRefReleaseOnCComPtr@UIUnknown@@@1@XZ 10009530 f i SmartCardRW.obj
 0001:00008580       ??C?$CComPtrBase@UIViewObjectEx@@@ATL@@QBEPAV?$_NoAddRefReleaseOnCComPtr@UIViewObjectEx@@@1@XZ 10009580 f i SmartCardRW.obj
 0001:000085d0       ??I?$CComPtrBase@UICatRegister@@@ATL@@QAEPAPAUICatRegister@@XZ 100095d0 f i SmartCardRW.obj
 0001:00008620       ??I?$CComPtrBase@UIConnectionPoint@@@ATL@@QAEPAPAUIConnectionPoint@@XZ 10009620 f i SmartCardRW.obj
 0001:00008670       ??I?$CComPtrBase@UIConnectionPointContainer@@@ATL@@QAEPAPAUIConnectionPointContainer@@XZ 10009670 f i SmartCardRW.obj
 0001:000086c0       ??I?$CComPtrBase@UIDataAdviseHolder@@@ATL@@QAEPAPAUIDataAdviseHolder@@XZ 100096c0 f i SmartCardRW.obj
 0001:00008710       ??I?$CComPtrBase@UIDataObject@@@ATL@@QAEPAPAUIDataObject@@XZ 10009710 f i SmartCardRW.obj
 0001:00008760       ??I?$CComPtrBase@UIDispatch@@@ATL@@QAEPAPAUIDispatch@@XZ 10009760 f i SmartCardRW.obj
 0001:000087b0       ??I?$CComPtrBase@UIOleAdviseHolder@@@ATL@@QAEPAPAUIOleAdviseHolder@@XZ 100097b0 f i SmartCardRW.obj
 0001:00008800       ??I?$CComPtrBase@UIOleControlSite@@@ATL@@QAEPAPAUIOleControlSite@@XZ 10009800 f i SmartCardRW.obj
 0001:00008850       ??I?$CComPtrBase@UIOleInPlaceActiveObject@@@ATL@@QAEPAPAUIOleInPlaceActiveObject@@XZ 10009850 f i SmartCardRW.obj
 0001:000088a0       ??I?$CComPtrBase@UIOleInPlaceFrame@@@ATL@@QAEPAPAUIOleInPlaceFrame@@XZ 100098a0 f i SmartCardRW.obj
 0001:000088f0       ??I?$CComPtrBase@UIOleInPlaceObject@@@ATL@@QAEPAPAUIOleInPlaceObject@@XZ 100098f0 f i SmartCardRW.obj
 0001:00008940       ??I?$CComPtrBase@UIOleInPlaceSiteWindowless@@@ATL@@QAEPAPAUIOleInPlaceSiteWindowless@@XZ 10009940 f i SmartCardRW.obj
 0001:00008990       ??I?$CComPtrBase@UIOleInPlaceUIWindow@@@ATL@@QAEPAPAUIOleInPlaceUIWindow@@XZ 10009990 f i SmartCardRW.obj
 0001:000089e0       ??I?$CComPtrBase@UIOleObject@@@ATL@@QAEPAPAUIOleObject@@XZ 100099e0 f i SmartCardRW.obj
 0001:00008a30       ??I?$CComPtrBase@UIPersistStream@@@ATL@@QAEPAPAUIPersistStream@@XZ 10009a30 f i SmartCardRW.obj
 0001:00008a80       ??I?$CComPtrBase@UIPointerInactive@@@ATL@@QAEPAPAUIPointerInactive@@XZ 10009a80 f i SmartCardRW.obj
 0001:00008ad0       ??I?$CComPtrBase@UIProvideClassInfo2@@@ATL@@QAEPAPAUIProvideClassInfo2@@XZ 10009ad0 f i SmartCardRW.obj
 0001:00008b20       ??I?$CComPtrBase@UIStream@@@ATL@@QAEPAPAUIStream@@XZ 10009b20 f i SmartCardRW.obj
 0001:00008b70       ??I?$CComPtrBase@UITypeInfo2@@@ATL@@QAEPAPAUITypeInfo2@@XZ 10009b70 f i SmartCardRW.obj
 0001:00008bc0       ??I?$CComPtrBase@UITypeInfo@@@ATL@@QAEPAPAUITypeInfo@@XZ 10009bc0 f i SmartCardRW.obj
 0001:00008c10       ??I?$CComPtrBase@UITypeLib@@@ATL@@QAEPAPAUITypeLib@@XZ 10009c10 f i SmartCardRW.obj
 0001:00008c60       ??I?$CComPtrBase@UIUnknown@@@ATL@@QAEPAPAUIUnknown@@XZ 10009c60 f i SmartCardRW.obj
 0001:00008cb0       ??I?$CComPtrBase@UIViewObjectEx@@@ATL@@QAEPAPAUIViewObjectEx@@XZ 10009cb0 f i SmartCardRW.obj
 0001:00008d00       ??ICComBSTR@ATL@@QAEPAPA_WXZ 10009d00 f i SmartCardRW.obj
 0001:00008d0e       ??_E?$CComContainedObject@VCOPOSSmartCardRW@@@ATL@@W3AEPAXI@Z 10009d0e f i SmartCardRW.obj
 0001:00008d16       ??_E?$CComContainedObject@VCOPOSSmartCardRW@@@ATL@@WEM@AEPAXI@Z 10009d16 f i SmartCardRW.obj
 0001:00008d1e       ??_E?$CComObject@VCOPOSSmartCardRW@@@ATL@@W3AEPAXI@Z 10009d1e f i SmartCardRW.obj
 0001:00008d26       ??_E?$CComObject@VCOPOSSmartCardRW@@@ATL@@WEM@AEPAXI@Z 10009d26 f i SmartCardRW.obj
 0001:00008d30       ??_E?$CComAggObject@VCOPOSSmartCardRW@@@ATL@@UAEPAXI@Z 10009d30 f i SmartCardRW.obj
 0001:00008d30       ??_G?$CComAggObject@VCOPOSSmartCardRW@@@ATL@@UAEPAXI@Z 10009d30 f i SmartCardRW.obj
 0001:00008d80       ??_E?$CComContainedObject@VCOPOSSmartCardRW@@@ATL@@UAEPAXI@Z 10009d80 f i SmartCardRW.obj
 0001:00008d80       ??_G?$CComContainedObject@VCOPOSSmartCardRW@@@ATL@@UAEPAXI@Z 10009d80 f i SmartCardRW.obj
 0001:00008dd0       ??_E?$CComObject@V?$CComEnum@UIEnumConnectionPoints@@$1?_GUID_b196b285_bab4_101a_b69c_00aa00341d07@@3U__s_GUID@@BPAUIConnectionPoint@@V?$_CopyInterface@UIConnectionPoint@@@ATL@@VCComSingleThreadModel@6@@ATL@@@ATL@@UAEPAXI@Z 10009dd0 f i SmartCardRW.obj
 0001:00008dd0       ??_G?$CComObject@V?$CComEnum@UIEnumConnectionPoints@@$1?_GUID_b196b285_bab4_101a_b69c_00aa00341d07@@3U__s_GUID@@BPAUIConnectionPoint@@V?$_CopyInterface@UIConnectionPoint@@@ATL@@VCComSingleThreadModel@6@@ATL@@@ATL@@UAEPAXI@Z 10009dd0 f i SmartCardRW.obj
 0001:00008e10       ??_G?$CComObject@V?$CComEnum@UIEnumConnections@@$1?_GUID_b196b287_bab4_101a_b69c_00aa00341d07@@3U__s_GUID@@BUtagCONNECTDATA@@V?$_Copy@UtagCONNECTDATA@@@ATL@@VCComSingleThreadModel@6@@ATL@@@ATL@@UAEPAXI@Z 10009e10 f i SmartCardRW.obj
 0001:00008e10       ??_E?$CComObject@V?$CComEnum@UIEnumConnections@@$1?_GUID_b196b287_bab4_101a_b69c_00aa00341d07@@3U__s_GUID@@BUtagCONNECTDATA@@V?$_Copy@UtagCONNECTDATA@@@ATL@@VCComSingleThreadModel@6@@ATL@@@ATL@@UAEPAXI@Z 10009e10 f i SmartCardRW.obj
 0001:00008e50       ??_G?$CComObject@VCOPOSSmartCardRW@@@ATL@@UAEPAXI@Z 10009e50 f i SmartCardRW.obj
 0001:00008e50       ??_E?$CComObject@VCOPOSSmartCardRW@@@ATL@@UAEPAXI@Z 10009e50 f i SmartCardRW.obj
 0001:00008ea0       ??_E?$CComObjectCached@VCComClassFactory@ATL@@@ATL@@UAEPAXI@Z 10009ea0 f i SmartCardRW.obj
 0001:00008ea0       ??_G?$CComObjectCached@VCComClassFactory@ATL@@@ATL@@UAEPAXI@Z 10009ea0 f i SmartCardRW.obj
 0001:00008ee0       ??_GCComClassFactory@ATL@@UAEPAXI@Z 10009ee0 f i SmartCardRW.obj
 0001:00008ee0       ??_ECComClassFactory@ATL@@UAEPAXI@Z 10009ee0 f i SmartCardRW.obj
 0001:00008f20       ??_ECComModule@ATL@@UAEPAXI@Z 10009f20 f i SmartCardRW.obj
 0001:00008f20       ??_GCComModule@ATL@@UAEPAXI@Z 10009f20 f i SmartCardRW.obj
 0001:00008f60       ??_ECRegObject@ATL@@UAEPAXI@Z 10009f60 f i SmartCardRW.obj
 0001:00008f60       ??_GCRegObject@ATL@@UAEPAXI@Z 10009f60 f i SmartCardRW.obj
 0001:00008fa0       ?Add@?$CSimpleArray@GV?$CSimpleArrayEqualHelper@G@ATL@@@ATL@@QAEHABG@Z 10009fa0 f i SmartCardRW.obj
 0001:000090f0       ?Add@?$CSimpleMap@PA_WPA_WVCExpansionVectorEqualHelper@ATL@@@ATL@@QAEHABQA_W0@Z 1000a0f0 f i SmartCardRW.obj
 0001:000091b0       ?Add@CComDynamicUnkArray@ATL@@QAEKPAUIUnknown@@@Z 1000a1b0 f i SmartCardRW.obj
 0001:00009350       ?Add@CExpansionVector@ATL@@QAEHPB_W0@Z 1000a350 f i SmartCardRW.obj
 0001:000095e0       ?AddChar@CParseBuffer@CRegParser@ATL@@QAEHPB_W@Z 1000a5e0 f i SmartCardRW.obj
 0001:00009620       ?AddCommonRGSReplacements@?$CAtlModuleT@VCComModule@ATL@@@ATL@@UAEJPAUIRegistrarBase@@@Z 1000a620 f i SmartCardRW.obj
 0001:00009670       ?AddCreateWndData@CAtlWinModule@ATL@@QAEXPAU_AtlCreateWndData@2@PAX@Z 1000a670 f i SmartCardRW.obj
 0001:000096a0       ?AddRef@?$CComAggObject@VCOPOSSmartCardRW@@@ATL@@UAGKXZ 1000a6a0 f i SmartCardRW.obj
 0001:000096c0       ?AddRef@?$CComContainedObject@VCOPOSSmartCardRW@@@ATL@@UAGKXZ 1000a6c0 f i SmartCardRW.obj
 0001:000096dc       ?AddRef@?$CComContainedObject@VCOPOSSmartCardRW@@@ATL@@WHA@AGKXZ 1000a6dc f i SmartCardRW.obj
 0001:000096e6       ?AddRef@?$CComContainedObject@VCOPOSSmartCardRW@@@ATL@@WHE@AGKXZ 1000a6e6 f i SmartCardRW.obj
 0001:000096f0       ?AddRef@?$CComContainedObject@VCOPOSSmartCardRW@@@ATL@@WHI@AGKXZ 1000a6f0 f i SmartCardRW.obj
 0001:000096fa       ?AddRef@?$CComContainedObject@VCOPOSSmartCardRW@@@ATL@@WHM@AGKXZ 1000a6fa f i SmartCardRW.obj
 0001:00009704       ?AddRef@?$CComContainedObject@VCOPOSSmartCardRW@@@ATL@@WIA@AGKXZ 1000a704 f i SmartCardRW.obj
 0001:00009711       ?AddRef@?$CComContainedObject@VCOPOSSmartCardRW@@@ATL@@WIE@AGKXZ 1000a711 f i SmartCardRW.obj
 0001:0000971e       ?AddRef@?$CComContainedObject@VCOPOSSmartCardRW@@@ATL@@WII@AGKXZ 1000a71e f i SmartCardRW.obj
 0001:0000972b       ?AddRef@?$CComContainedObject@VCOPOSSmartCardRW@@@ATL@@WIM@AGKXZ 1000a72b f i SmartCardRW.obj
 0001:00009738       ?AddRef@?$CComContainedObject@VCOPOSSmartCardRW@@@ATL@@WJA@AGKXZ 1000a738 f i SmartCardRW.obj
 0001:00009745       ?AddRef@?$CComContainedObject@VCOPOSSmartCardRW@@@ATL@@WJE@AGKXZ 1000a745 f i SmartCardRW.obj
 0001:00009752       ?AddRef@?$CComContainedObject@VCOPOSSmartCardRW@@@ATL@@WJI@AGKXZ 1000a752 f i SmartCardRW.obj
 0001:0000975f       ?AddRef@?$CComContainedObject@VCOPOSSmartCardRW@@@ATL@@WJM@AGKXZ 1000a75f f i SmartCardRW.obj
 0001:0000976c       ?AddRef@?$CComContainedObject@VCOPOSSmartCardRW@@@ATL@@WKA@AGKXZ 1000a76c f i SmartCardRW.obj
 0001:00009779       ?AddRef@?$CComContainedObject@VCOPOSSmartCardRW@@@ATL@@WKI@AGKXZ 1000a779 f i SmartCardRW.obj
 0001:00009786       ?AddRef@?$CComContainedObject@VCOPOSSmartCardRW@@@ATL@@WLE@AGKXZ 1000a786 f i SmartCardRW.obj
 0001:000097a0       ?AddRef@?$CComObject@V?$CComEnum@UIEnumConnectionPoints@@$1?_GUID_b196b285_bab4_101a_b69c_00aa00341d07@@3U__s_GUID@@BPAUIConnectionPoint@@V?$_CopyInterface@UIConnectionPoint@@@ATL@@VCComSingleThreadModel@6@@ATL@@@ATL@@UAGKXZ 1000a7a0 f i SmartCardRW.obj
 0001:000097c0       ?AddRef@?$CComObject@V?$CComEnum@UIEnumConnections@@$1?_GUID_b196b287_bab4_101a_b69c_00aa00341d07@@3U__s_GUID@@BUtagCONNECTDATA@@V?$_Copy@UtagCONNECTDATA@@@ATL@@VCComSingleThreadModel@6@@ATL@@@ATL@@UAGKXZ 1000a7c0 f i SmartCardRW.obj
 0001:000097e0       ?AddRef@?$CComObject@VCOPOSSmartCardRW@@@ATL@@UAGKXZ 1000a7e0 f i SmartCardRW.obj
 0001:000097fc       ?AddRef@?$CComObject@VCOPOSSmartCardRW@@@ATL@@WHA@AGKXZ 1000a7fc f i SmartCardRW.obj
 0001:00009806       ?AddRef@?$CComObject@VCOPOSSmartCardRW@@@ATL@@WHE@AGKXZ 1000a806 f i SmartCardRW.obj
 0001:00009810       ?AddRef@?$CComObject@VCOPOSSmartCardRW@@@ATL@@WHI@AGKXZ 1000a810 f i SmartCardRW.obj
 0001:0000981a       ?AddRef@?$CComObject@VCOPOSSmartCardRW@@@ATL@@WHM@AGKXZ 1000a81a f i SmartCardRW.obj
 0001:00009824       ?AddRef@?$CComObject@VCOPOSSmartCardRW@@@ATL@@WIA@AGKXZ 1000a824 f i SmartCardRW.obj
 0001:00009831       ?AddRef@?$CComObject@VCOPOSSmartCardRW@@@ATL@@WIE@AGKXZ 1000a831 f i SmartCardRW.obj
 0001:0000983e       ?AddRef@?$CComObject@VCOPOSSmartCardRW@@@ATL@@WII@AGKXZ 1000a83e f i SmartCardRW.obj
 0001:0000984b       ?AddRef@?$CComObject@VCOPOSSmartCardRW@@@ATL@@WIM@AGKXZ 1000a84b f i SmartCardRW.obj
 0001:00009858       ?AddRef@?$CComObject@VCOPOSSmartCardRW@@@ATL@@WJA@AGKXZ 1000a858 f i SmartCardRW.obj
 0001:00009865       ?AddRef@?$CComObject@VCOPOSSmartCardRW@@@ATL@@WJE@AGKXZ 1000a865 f i SmartCardRW.obj
 0001:00009872       ?AddRef@?$CComObject@VCOPOSSmartCardRW@@@ATL@@WJI@AGKXZ 1000a872 f i SmartCardRW.obj
 0001:0000987f       ?AddRef@?$CComObject@VCOPOSSmartCardRW@@@ATL@@WJM@AGKXZ 1000a87f f i SmartCardRW.obj
 0001:0000988c       ?AddRef@?$CComObject@VCOPOSSmartCardRW@@@ATL@@WKA@AGKXZ 1000a88c f i SmartCardRW.obj
 0001:00009899       ?AddRef@?$CComObject@VCOPOSSmartCardRW@@@ATL@@WKI@AGKXZ 1000a899 f i SmartCardRW.obj
 0001:000098a6       ?AddRef@?$CComObject@VCOPOSSmartCardRW@@@ATL@@WLE@AGKXZ 1000a8a6 f i SmartCardRW.obj
 0001:000098c0       ?AddRef@?$CComObjectCached@VCComClassFactory@ATL@@@ATL@@UAGKXZ 1000a8c0 f i SmartCardRW.obj
 0001:00009910       ?AddRef@CRegObject@ATL@@UAGKXZ 1000a910 f i SmartCardRW.obj
 0001:00009960       ?AddReplacement@CRegObject@ATL@@UAGJPB_W0@Z 1000a960 f i SmartCardRW.obj
 0001:00009a70       ?AddString@CParseBuffer@CRegParser@ATL@@QAEHPB_W@Z 1000aa70 f i SmartCardRW.obj
 0001:00009b60       ?AddTermFunc@CAtlModule@ATL@@QAEJP6GXK@ZK@Z 1000ab60 f i SmartCardRW.obj
 0001:00009bb0       ?AddValue@CRegParser@ATL@@IAEJAAVCRegKey@2@PB_WPA_W@Z 1000abb0 f i SmartCardRW.obj
 0001:0000a340       ?Advise@?$CProxy_IOPOSEvents@VCOPOSSmartCardRW@@@@UAGJPAUIUnknown@@PAK@Z 1000b340 f i SmartCardRW.obj
 0001:0000a390       ?Advise@?$IConnectionPointImpl@VCOPOSSmartCardRW@@$1?DIID__IOPOSSmartCardRWEvents@@3U_GUID@@BVCComDynamicUnkArray@ATL@@@ATL@@UAGJPAUIUnknown@@PAK@Z 1000b390 f i SmartCardRW.obj
 0001:0000a530       ?Advise@?$IConnectionPointImpl@VCOPOSSmartCardRW@@$1?IID_IPropertyNotifySink@@3U_GUID@@BVCComDynamicUnkArray@ATL@@@ATL@@UAGJPAUIUnknown@@PAK@Z 1000b530 f i SmartCardRW.obj
 0001:0000a6d0       ?Advise@?$IOleObjectImpl@VCOPOSSmartCardRW@@@ATL@@UAGJPAUIAdviseSink@@PAK@Z 1000b6d0 f i SmartCardRW.obj
 0001:0000a760       ?Allocate@?$CAtlSafeAllocBufferManager@VCCRTAllocator@ATL@@@_ATL_SAFE_ALLOCA_IMPL@ATL@@QAEPAXK@Z 1000b760 f i SmartCardRW.obj
 0001:0000a7d0       ?Allocate@?$CTempBuffer@E$0BAA@VCCRTAllocator@ATL@@@ATL@@QAEPAEI@Z 1000b7d0 f i SmartCardRW.obj
 0001:0000a810       ?Allocate@?$CTempBuffer@_W$0BAA@VCCRTAllocator@ATL@@@ATL@@QAEPA_WI@Z 1000b810 f i SmartCardRW.obj
 0001:0000a850       ?Allocate@?$CTempBuffer@_W$0EAA@VCCRTAllocator@ATL@@@ATL@@QAEPA_WI@Z 1000b850 f i SmartCardRW.obj
 0001:0000a890       ?AllocateBytes@?$CTempBuffer@E$0BAA@VCCRTAllocator@ATL@@@ATL@@QAEPAEI@Z 1000b890 f i SmartCardRW.obj
 0001:0000a910       ?AllocateBytes@?$CTempBuffer@_W$0BAA@VCCRTAllocator@ATL@@@ATL@@QAEPA_WI@Z 1000b910 f i SmartCardRW.obj
 0001:0000a990       ?AllocateBytes@?$CTempBuffer@_W$0EAA@VCCRTAllocator@ATL@@@ATL@@QAEPA_WI@Z 1000b990 f i SmartCardRW.obj
 0001:0000aa10       ?AllocateHeap@?$CTempBuffer@E$0BAA@VCCRTAllocator@ATL@@@ATL@@AAEXI@Z 1000ba10 f i SmartCardRW.obj
 0001:0000aa60       ?AllocateHeap@?$CTempBuffer@_W$0BAA@VCCRTAllocator@ATL@@@ATL@@AAEXI@Z 1000ba60 f i SmartCardRW.obj
 0001:0000aab0       ?AllocateHeap@?$CTempBuffer@_W$0EAA@VCCRTAllocator@ATL@@@ATL@@AAEXI@Z 1000bab0 f i SmartCardRW.obj
 0001:0000ab00       ?Append@CParseBuffer@CRegParser@ATL@@QAEHPB_WH@Z 1000bb00 f i SmartCardRW.obj
 0001:0000aca0       ?AtlCallTermFunc@ATL@@YGXPAU_ATL_MODULE70@1@@Z 1000bca0 f i SmartCardRW.obj
 0001:0000ad40       ?AtlCoTaskMemCAlloc@ATL@@YAPAXKK@Z 1000bd40 f i SmartCardRW.obj
 0001:0000add0       ?AtlCoTaskMemRecalloc@ATL@@YAPAXPAXKK@Z 1000bdd0 f i SmartCardRW.obj
 0001:0000ae70       ?AtlComModuleGetClassObject@ATL@@YGJPAU_ATL_COM_MODULE70@1@ABU_GUID@@1PAPAX@Z 1000be70 f i SmartCardRW.obj
 0001:0000b100       ?AtlComModuleRegisterServer@ATL@@YGJPAU_ATL_COM_MODULE70@1@HPBU_GUID@@@Z 1000c100 f i SmartCardRW.obj
 0001:0000b290       ?AtlComModuleUnregisterServer@ATL@@YGJPAU_ATL_COM_MODULE70@1@HPBU_GUID@@@Z 1000c290 f i SmartCardRW.obj
 0001:0000b3c0       ?AtlComQIPtrAssign2@ATL@@YAXPAPAUIUnknown@@PAU2@ABU_GUID@@@Z 1000c3c0 f i SmartCardRW.obj
 0001:0000b440       ?AtlCreateTargetDC@ATL@@YGPAUHDC__@@PAU2@PAUtagDVTARGETDEVICE@@@Z 1000c440 f i SmartCardRW.obj
 0001:0000b5e0       ?AtlCrtErrorCheck@ATL@@YAHH@Z 1000c5e0 f i SmartCardRW.obj
 0001:0000b6b0       ?AtlGetPerUserRegistration@ATL@@YGJPA_N@Z 1000c6b0 f i SmartCardRW.obj
 0001:0000b6e0       ?AtlHiMetricToPixel@ATL@@YGXPBUtagSIZE@@PAU2@@Z 1000c6e0 f i SmartCardRW.obj
 0001:0000b8b0       ?AtlHresultFromLastError@ATL@@YAJXZ 1000c8b0 f i SmartCardRW.obj
 0001:0000b8f0       ?AtlHresultFromWin32@ATL@@YAJK@Z 1000c8f0 f i SmartCardRW.obj
 0001:0000b910       ?AtlIPersistStreamInit_Load@ATL@@YGJPAUIStream@@PBUATL_PROPMAP_ENTRY@1@PAXPAUIUnknown@@@Z 1000c910 f i SmartCardRW.obj
 0001:0000bd70       ?AtlIPersistStreamInit_Save@ATL@@YGJPAUIStream@@HPBUATL_PROPMAP_ENTRY@1@PAXPAUIUnknown@@@Z 1000cd70 f i SmartCardRW.obj
 0001:0000c150       ?AtlInternalOleLoadFromStream@ATL@@YAJPAUIStream@@ABU_GUID@@PAPAXTClassesAllowedInStream@1@K@Z 1000d150 f i SmartCardRW.obj
 0001:0000c3f0       ?AtlInternalQueryInterface@ATL@@YGJPAXPBU_ATL_INTMAP_ENTRY@1@ABU_GUID@@PAPAX@Z 1000d3f0 f i SmartCardRW.obj
 0001:0000c620       ?AtlLoadTypeLib@ATL@@YGJPAUHINSTANCE__@@PB_WPAPA_WPAPAUITypeLib@@@Z 1000d620 f i SmartCardRW.obj
 0001:0000ca80       ?AtlModuleAddTermFunc@ATL@@YGJPAU_ATL_MODULE70@1@P6GXK@ZK@Z 1000da80 f i SmartCardRW.obj
 0001:0000cbe0       ?AtlRegisterClassCategoriesHelper@ATL@@YGJABU_GUID@@PBU_ATL_CATMAP_ENTRY@1@H@Z 1000dbe0 f i SmartCardRW.obj
 0001:0000d2c0       ?AtlRegisterTypeLib@ATL@@YGJPAUHINSTANCE__@@PB_W@Z 1000e2c0 f i SmartCardRW.obj
 0001:0000d600       ?AtlThrowImpl@ATL@@YGXJ@Z  1000e600 f i SmartCardRW.obj
 0001:0000d6b0       ?AtlUnRegisterTypeLib@ATL@@YGJPAUHINSTANCE__@@PB_W@Z 1000e6b0 f i SmartCardRW.obj
 0001:0000d8c0       ?AtlWinModuleAddCreateWndData@ATL@@YGXPAU_ATL_WIN_MODULE70@1@PAU_AtlCreateWndData@1@PAX@Z 1000e8c0 f i SmartCardRW.obj
 0001:0000da30       ?AtlWinModuleExtractCreateWndData@ATL@@YGPAXPAU_ATL_WIN_MODULE70@1@@Z 1000ea30 f i SmartCardRW.obj
 0001:0000dbb0       ?AtlWinModuleRegisterClassExW@ATL@@YGGPAU_ATL_WIN_MODULE70@1@PBUtagWNDCLASSEXW@@@Z 1000ebb0 f i SmartCardRW.obj
 0001:0000dc80       ?AtlWinModuleRegisterWndClassInfoW@ATL@@YGGPAU_ATL_WIN_MODULE70@1@PAU_ATL_BASE_MODULE70@1@PAU_ATL_WNDCLASSINFOW@1@PAP6GJPAUHWND__@@IIJ@Z@Z 1000ec80 f i SmartCardRW.obj
 0001:0000dd10       ?Attach@?$CAutoVectorPtr@_W@ATL@@QAEXPA_W@Z 1000ed10 f i SmartCardRW.obj
 0001:0000dd70       ?Attach@CComBSTR@ATL@@QAEXPA_W@Z 1000ed70 f i SmartCardRW.obj
 0001:0000ddc0       ?Attach@CRegKey@ATL@@QAEXPAUHKEY__@@@Z 1000edc0 f i SmartCardRW.obj
 0001:0000de30       ?CanForceRemoveKey@CRegParser@ATL@@IAEHPB_W@Z 1000ee30 f i SmartCardRW.obj
 0001:0000dea0       ?ChToByte@CRegParser@ATL@@KAE_W@Z 1000eea0 f i SmartCardRW.obj
 0001:0000dfc0       ?ChangeType@CComVariant@ATL@@QAEJGPBUtagVARIANT@@@Z 1000efc0 f i SmartCardRW.obj
 0001:0000e020       ?Cleanup@CComTypeInfoHolder@ATL@@SGXK@Z 1000f020 f i SmartCardRW.obj
 0001:0000e0f0       ?Clear@CComVariant@ATL@@QAEJXZ 1000f0f0 f i SmartCardRW.obj
 0001:0000e130       ?ClearReplacements@CExpansionVector@ATL@@QAEJXZ 1000f130 f i SmartCardRW.obj
 0001:0000e1c0       ?ClearReplacements@CRegObject@ATL@@UAGJXZ 1000f1c0 f i SmartCardRW.obj
 0001:0000e210       ?Clone@?$CComEnumImpl@UIEnumConnectionPoints@@$1?_GUID_b196b285_bab4_101a_b69c_00aa00341d07@@3U__s_GUID@@BPAUIConnectionPoint@@V?$_CopyInterface@UIConnectionPoint@@@ATL@@@ATL@@UAGJPAPAUIEnumConnectionPoints@@@Z 1000f210 f i SmartCardRW.obj
 0001:0000e380       ?Clone@?$CComEnumImpl@UIEnumConnections@@$1?_GUID_b196b287_bab4_101a_b69c_00aa00341d07@@3U__s_GUID@@BUtagCONNECTDATA@@V?$_Copy@UtagCONNECTDATA@@@ATL@@@ATL@@UAGJPAPAUIEnumConnections@@@Z 1000f380 f i SmartCardRW.obj
 0001:0000e4f0       ?Close@?$IOleObjectImpl@VCOPOSSmartCardRW@@@ATL@@UAGJK@Z 1000f4f0 f i SmartCardRW.obj
 0001:0000e580       ?Close@CRegKey@ATL@@QAEJXZ 1000f580 f i SmartCardRW.obj
 0001:0000e5f0       ?ContextSensitiveHelp@?$IOleInPlaceActiveObjectImpl@VCOPOSSmartCardRW@@@ATL@@UAGJH@Z 1000f5f0 f i SmartCardRW.obj
 0001:0000e660       ?ContextSensitiveHelp@?$IOleInPlaceObjectWindowlessImpl@VCOPOSSmartCardRW@@@ATL@@UAGJH@Z 1000f660 f i SmartCardRW.obj
 0001:0000e6d0       ?ControlQueryInterface@?$CComControl@VCOPOSSmartCardRW@@V?$CWindowImpl@VCOPOSSmartCardRW@@VCWindow@ATL@@V?$CWinTraits@$0FGAAAAAA@$0A@@3@@ATL@@@ATL@@UAEJABU_GUID@@PAPAX@Z 1000f6d0 f i SmartCardRW.obj
 0001:0000e750       ?CreateControlWindow@?$CComControl@VCOPOSSmartCardRW@@V?$CWindowImpl@VCOPOSSmartCardRW@@VCWindow@ATL@@V?$CWinTraits@$0FGAAAAAA@$0A@@3@@ATL@@@ATL@@UAEPAUHWND__@@PAU3@AAUtagRECT@@@Z 1000f750 f i SmartCardRW.obj
 0001:0000e7d0       ?CreateInstance@?$CComCreator@V?$CComAggObject@VCOPOSSmartCardRW@@@ATL@@@ATL@@SGJPAXABU_GUID@@PAPAX@Z 1000f7d0 f i SmartCardRW.obj
 0001:0000e950       ?CreateInstance@?$CComCreator@V?$CComObject@VCOPOSSmartCardRW@@@ATL@@@ATL@@SGJPAXABU_GUID@@PAPAX@Z 1000f950 f i SmartCardRW.obj
 0001:0000eae0       ?CreateInstance@?$CComObject@V?$CComEnum@UIEnumConnectionPoints@@$1?_GUID_b196b285_bab4_101a_b69c_00aa00341d07@@3U__s_GUID@@BPAUIConnectionPoint@@V?$_CopyInterface@UIConnectionPoint@@@ATL@@VCComSingleThreadModel@6@@ATL@@@ATL@@SGJPAPAV12@@Z 1000fae0 f i SmartCardRW.obj
 0001:0000ec50       ?CreateInstance@?$CComObject@V?$CComEnum@UIEnumConnections@@$1?_GUID_b196b287_bab4_101a_b69c_00aa00341d07@@3U__s_GUID@@BUtagCONNECTDATA@@V?$_Copy@UtagCONNECTDATA@@@ATL@@VCComSingleThreadModel@6@@ATL@@@ATL@@SGJPAPAV12@@Z 1000fc50 f i SmartCardRW.obj
 0001:0000edc0       ?CreateInstance@CComClassFactory@ATL@@UAGJPAUIUnknown@@ABU_GUID@@PAPAX@Z 1000fdc0 f i SmartCardRW.obj
 0001:0000eeb0       ?DAdvise@?$IDataObjectImpl@VCOPOSSmartCardRW@@@ATL@@UAGJPAUtagFORMATETC@@KPAUIAdviseSink@@PAK@Z 1000feb0 f i SmartCardRW.obj
 0001:0000efb0       ?DEVMODEOLE2T_EX@@YAPAU_devicemodeW@@PAU1@@Z 1000ffb0 f i SmartCardRW.obj
 0001:0000efc0       ?DUnadvise@?$IDataObjectImpl@VCOPOSSmartCardRW@@@ATL@@UAGJK@Z 1000ffc0 f i SmartCardRW.obj
 0001:0000f090       ?Decrement@CComMultiThreadModel@ATL@@SGKPAJ@Z 10010090 f i SmartCardRW.obj
 0001:0000f0b0       ?Decrement@CComSingleThreadModel@ATL@@SGKPAJ@Z 100100b0 f i SmartCardRW.obj
 0001:0000f0d0       ?DefWindowProcW@?$CWindowImplBaseT@VCWindow@ATL@@V?$CWinTraits@$0FGAAAAAA@$0A@@2@@ATL@@QAEJIIJ@Z 100100d0 f i SmartCardRW.obj
 0001:0000f120       ?DefaultReflectionHandler@?$CWindowImplRoot@VCWindow@ATL@@@ATL@@SAHPAUHWND__@@IIJAAJ@Z 10010120 f i SmartCardRW.obj
 0001:0000f3b0       ?DeleteSubKey@CRegKey@ATL@@QAEJPB_W@Z 100103b0 f i SmartCardRW.obj
 0001:0000f4c0       ?DeleteValue@CRegKey@ATL@@QAEJPB_W@Z 100104c0 f i SmartCardRW.obj
 0001:0000f530       ?Detach@?$CAutoVectorPtr@_W@ATL@@QAEPA_WXZ 10010530 f i SmartCardRW.obj
 0001:0000f560       ?Detach@?$CComPtrBase@UIPersistStream@@@ATL@@QAEPAUIPersistStream@@XZ 10010560 f i SmartCardRW.obj
 0001:0000f590       ?Detach@?$CComPtrBase@UITypeInfo@@@ATL@@QAEPAUITypeInfo@@XZ 10010590 f i SmartCardRW.obj
 0001:0000f5c0       ?Detach@?$CComPtrBase@UIUnknown@@@ATL@@QAEPAUIUnknown@@XZ 100105c0 f i SmartCardRW.obj
 0001:0000f5f0       ?Detach@CComBSTR@ATL@@QAEPA_WXZ 100105f0 f i SmartCardRW.obj
 0001:0000f620       ?Detach@CParseBuffer@CRegParser@ATL@@QAEPA_WXZ 10010620 f i SmartCardRW.obj
 0001:0000f660       ?Detach@CRegKey@ATL@@QAEPAUHKEY__@@XZ 10010660 f i SmartCardRW.obj
 0001:0000f6a0       ?DoEvent@COPOSSmartCardRW@@IAEXIIJ@Z 100106a0 f i SmartCardRW.obj
 0001:0000f7e0       ?DoVerb@?$IOleObjectImpl@VCOPOSSmartCardRW@@@ATL@@UAGJJPAUtagMSG@@PAUIOleClientSite@@JPAUHWND__@@PBUtagRECT@@@Z 100107e0 f i SmartCardRW.obj
 0001:0000f9f0       ?DoVerbDiscardUndo@?$IOleObjectImpl@VCOPOSSmartCardRW@@@ATL@@QAEJPBUtagRECT@@PAUHWND__@@@Z 100109f0 f i SmartCardRW.obj
 0001:0000fa60       ?DoVerbHide@?$IOleObjectImpl@VCOPOSSmartCardRW@@@ATL@@QAEJPBUtagRECT@@PAUHWND__@@@Z 10010a60 f i SmartCardRW.obj
 0001:0000fb10       ?DoVerbInPlaceActivate@?$IOleObjectImpl@VCOPOSSmartCardRW@@@ATL@@QAEJPBUtagRECT@@PAUHWND__@@@Z 10010b10 f i SmartCardRW.obj
 0001:0000fbb0       ?DoVerbOpen@?$IOleObjectImpl@VCOPOSSmartCardRW@@@ATL@@QAEJPBUtagRECT@@PAUHWND__@@@Z 10010bb0 f i SmartCardRW.obj
 0001:0000fc20       ?DoVerbPrimary@?$IOleObjectImpl@VCOPOSSmartCardRW@@@ATL@@QAEJPBUtagRECT@@PAUHWND__@@@Z 10010c20 f i SmartCardRW.obj
 0001:0000fd30       ?DoVerbProperties@CComControlBase@ATL@@QAEJPBUtagRECT@@PAUHWND__@@@Z 10010d30 f i SmartCardRW.obj
 0001:00010050       ?DoVerbShow@?$IOleObjectImpl@VCOPOSSmartCardRW@@@ATL@@QAEJPBUtagRECT@@PAUHWND__@@@Z 10011050 f i SmartCardRW.obj
 0001:000100e0       ?DoVerbUIActivate@?$IOleObjectImpl@VCOPOSSmartCardRW@@@ATL@@QAEJPBUtagRECT@@PAUHWND__@@@Z 100110e0 f i SmartCardRW.obj
 0001:00010180       ?DoesVerbActivate@CComControlBase@ATL@@QAEHJ@Z 10011180 f i SmartCardRW.obj
 0001:000101e0       ?DoesVerbUIActivate@CComControlBase@ATL@@QAEHJ@Z 100111e0 f i SmartCardRW.obj
 0001:00010260       ?Draw@?$IViewObjectExImpl@VCOPOSSmartCardRW@@@ATL@@UAGJKJPAXPAUtagDVTARGETDEVICE@@PAUHDC__@@2PBU_RECTL@@3P6GHK@ZK@Z 10011260 f i SmartCardRW.obj
 0001:00010300       ?Empty@CComBSTR@ATL@@QAEXXZ 10011300 f i SmartCardRW.obj
 0001:00010340       ?EnableModeless@?$IOleInPlaceActiveObjectImpl@VCOPOSSmartCardRW@@@ATL@@UAGJH@Z 10011340 f i SmartCardRW.obj
 0001:000103a0       ?EndOfVar@CRegParser@ATL@@IAEHXZ 100113a0 f i SmartCardRW.obj
 0001:00010410       ?EnsureTI@CComTypeInfoHolder@ATL@@QAEJK@Z 10011410 f i SmartCardRW.obj
 0001:00010470       ?EnumAdvise@?$IOleObjectImpl@VCOPOSSmartCardRW@@@ATL@@UAGJPAPAUIEnumSTATDATA@@@Z 10011470 f i SmartCardRW.obj
 0001:00010580       ?EnumConnectionPoints@?$IConnectionPointContainerImpl@VCOPOSSmartCardRW@@@ATL@@UAGJPAPAUIEnumConnectionPoints@@@Z 10011580 f i SmartCardRW.obj
 0001:000109b0       ?EnumConnections@?$IConnectionPointImpl@VCOPOSSmartCardRW@@$1?DIID__IOPOSSmartCardRWEvents@@3U_GUID@@BVCComDynamicUnkArray@ATL@@@ATL@@UAGJPAPAUIEnumConnections@@@Z 100119b0 f i SmartCardRW.obj
 0001:00010c00       ?EnumConnections@?$IConnectionPointImpl@VCOPOSSmartCardRW@@$1?IID_IPropertyNotifySink@@3U_GUID@@BVCComDynamicUnkArray@ATL@@@ATL@@UAGJPAPAUIEnumConnections@@@Z 10011c00 f i SmartCardRW.obj
 0001:00010e50       ?EnumDAdvise@?$IDataObjectImpl@VCOPOSSmartCardRW@@@ATL@@UAGJPAPAUIEnumSTATDATA@@@Z 10011e50 f i SmartCardRW.obj
 0001:00010f50       ?EnumFormatEtc@?$IDataObjectImpl@VCOPOSSmartCardRW@@@ATL@@UAGJKPAPAUIEnumFORMATETC@@@Z 10011f50 f i SmartCardRW.obj
 0001:00010fc0       ?EnumVerbs@?$IOleObjectImpl@VCOPOSSmartCardRW@@@ATL@@UAGJPAPAUIEnumOLEVERB@@@Z 10011fc0 f i SmartCardRW.obj
 0001:00011070       ?EscapeSingleQuote@CAtlModule@ATL@@SAXPA_WIPB_W@Z 10012070 f i SmartCardRW.obj
 0001:00011110       ?ExtractCreateWndData@CAtlWinModule@ATL@@QAEPAXXZ 10012110 f i SmartCardRW.obj
 0001:00011140       ?FAccessAllowed@?$IObjectSafetyImpl@VCOPOSSmartCardRW@@$02@ATL@@MAEHXZ 10012140 f i SmartCardRW.obj
 0001:00011150       ?FinalConstruct@?$CComAggObject@VCOPOSSmartCardRW@@@ATL@@QAEJXZ 10012150 f i SmartCardRW.obj
 0001:00011190       ?FinalConstruct@CComObjectRootBase@ATL@@QAEJXZ 10012190 f i SmartCardRW.obj
 0001:000111a0       ?FinalConstruct@CRegObject@ATL@@QAEJXZ 100121a0 f i SmartCardRW.obj
 0001:000111d0       ?FinalRelease@?$CComAggObject@VCOPOSSmartCardRW@@@ATL@@QAEXXZ 100121d0 f i SmartCardRW.obj
 0001:00011210       ?FinalRelease@CComObjectRootBase@ATL@@QAEXXZ 10012210 f i SmartCardRW.obj
 0001:00011220       ?FindConnectionPoint@?$IConnectionPointContainerImpl@VCOPOSSmartCardRW@@@ATL@@UAGJABU_GUID@@PAPAUIConnectionPoint@@@Z 10012220 f i SmartCardRW.obj
 0001:00011370       ?FindKey@?$CSimpleMap@PA_WPA_WVCExpansionVectorEqualHelper@ATL@@@ATL@@QBEHABQA_W@Z 10012370 f i SmartCardRW.obj
 0001:000113e0       ?FireTheEvent@?$CProxy_IOPOSEvents@VCOPOSSmartCardRW@@@@IAEXPAUIUnknown@@PAVOposVariant@@IAAJPB_WJ@Z 100123e0 f i SmartCardRW.obj
 0001:00011550       ?FireViewChange@CComControlBase@ATL@@QAEJXZ 10012550 f i SmartCardRW.obj
 0001:00011610       ?Fire_DataEvent@?$CProxy_IOPOSEvents@VCOPOSSmartCardRW@@@@QAEXJ@Z 10012610 f i SmartCardRW.obj
 0001:00011770       ?Fire_DirectIOEvent@?$CProxy_IOPOSEvents@VCOPOSSmartCardRW@@@@QAEXJPAJPAPA_W@Z 10012770 f i SmartCardRW.obj
 0001:00011940       ?Fire_ErrorEvent@?$CProxy_IOPOSEvents@VCOPOSSmartCardRW@@@@QAEXJJJPAJ@Z 10012940 f i SmartCardRW.obj
 0001:00011b30       ?Fire_OutputCompleteEvent@?$CProxy_IOPOSEvents@VCOPOSSmartCardRW@@@@QAEXJ@Z 10012b30 f i SmartCardRW.obj
 0001:00011c90       ?Fire_StatusUpdateEvent@?$CProxy_IOPOSEvents@VCOPOSSmartCardRW@@@@QAEXJ@Z 10012c90 f i SmartCardRW.obj
 0001:00011df0       ?FormatWindowClassName@AtlModuleRegisterWndClassInfoParamW@ATL@@SAXPA_WKPAX@Z 10012df0 f i SmartCardRW.obj
 0001:00011e20       ?Free@?$CAutoVectorPtr@_W@ATL@@QAEXXZ 10012e20 f i SmartCardRW.obj
 0001:00011e70       ?FreeHeap@?$CTempBuffer@E$0BAA@VCCRTAllocator@ATL@@@ATL@@AAEXXZ 10012e70 f i SmartCardRW.obj
 0001:00011ea0       ?FreeHeap@?$CTempBuffer@_W$0BAA@VCCRTAllocator@ATL@@@ATL@@AAEXXZ 10012ea0 f i SmartCardRW.obj
 0001:00011ed0       ?FreeHeap@?$CTempBuffer@_W$0EAA@VCCRTAllocator@ATL@@@ATL@@AAEXXZ 10012ed0 f i SmartCardRW.obj
 0001:00011f00       ?Freeze@?$IViewObjectExImpl@VCOPOSSmartCardRW@@@ATL@@UAGJKJPAXPAK@Z 10012f00 f i SmartCardRW.obj
 0001:00011f70       ?GenerateError@CRegParser@ATL@@IAEJI@Z 10012f70 f i SmartCardRW.obj
 0001:00011f90       ?GetAdvise@?$IViewObjectExImpl@VCOPOSSmartCardRW@@@ATL@@UAGJPAK0PAPAUIAdviseSink@@@Z 10012f90 f i SmartCardRW.obj
 0001:00012090       ?GetAmbientLocaleID@CComControlBase@ATL@@QAEJAAK@Z 10013090 f i SmartCardRW.obj
 0001:00012170       ?GetAmbientProperty@CComControlBase@ATL@@QAEJJAAUtagVARIANT@@@Z 10013170 f i SmartCardRW.obj
 0001:000121c0       ?GetAmbientUserMode@CComControlBase@ATL@@QAEJAAH@Z 100131c0 f i SmartCardRW.obj
 0001:000122c0       ?GetAppId@?$CAtlModuleT@VCComModule@ATL@@@ATL@@SAPB_WXZ 100132c0 f i SmartCardRW.obj
 0001:000122d0       ?GetAt@CComDynamicUnkArray@ATL@@QAEPAUIUnknown@@H@Z 100132d0 f i SmartCardRW.obj
 0001:00012350       ?GetCanonicalFormatEtc@?$IDataObjectImpl@VCOPOSSmartCardRW@@@ATL@@UAGJPAUtagFORMATETC@@0@Z 10013350 f i SmartCardRW.obj
 0001:000123c0       ?GetClassID@?$IPersistStorageImpl@VCOPOSSmartCardRW@@@ATL@@UAGJPAU_GUID@@@Z 100133c0 f i SmartCardRW.obj
 0001:00012440       ?GetClassID@?$IPersistStreamInitImpl@VCOPOSSmartCardRW@@@ATL@@UAGJPAU_GUID@@@Z 10013440 f i SmartCardRW.obj
 0001:000124c0       ?GetClassInfoExW@AtlModuleRegisterWndClassInfoParamW@ATL@@SAHPAUHINSTANCE__@@PB_WPAUtagWNDCLASSEXW@@@Z 100134c0 f i SmartCardRW.obj
 0001:000124f0       ?GetClassInfoW@?$IProvideClassInfo2Impl@$1?CLSID_OPOSSmartCardRW@@3U_GUID@@B$1?DIID__IOPOSSmartCardRWEvents@@3U2@B$1?LIBID_OposSmartCardRW_CCO@@3U2@B$00$0A@VCComTypeInfoHolder@ATL@@@ATL@@UAGJPAPAUITypeInfo@@@Z 100134f0 f i SmartCardRW.obj
 0001:00012510       ?GetClassObject@CComModule@ATL@@QAEJABU_GUID@@0PAPAX@Z 10013510 f i SmartCardRW.obj
 0001:00012710       ?GetClientSite@?$IOleObjectImpl@VCOPOSSmartCardRW@@@ATL@@UAGJPAPAUIOleClientSite@@@Z 10013710 f i SmartCardRW.obj
 0001:000127a0       ?GetClipboardData@?$IOleObjectImpl@VCOPOSSmartCardRW@@@ATL@@UAGJKPAPAUIDataObject@@@Z 100137a0 f i SmartCardRW.obj
 0001:00012810       ?GetCodeAddress@CDynamicStdCallThunk2@ATL@@QAEPAXXZ 10013810 f i SmartCardRW.obj
 0001:00012840       ?GetColorSet@?$IViewObjectExImpl@VCOPOSSmartCardRW@@@ATL@@UAGJKJPAXPAUtagDVTARGETDEVICE@@PAUHDC__@@PAPAUtagLOGPALETTE@@@Z 10013840 f i SmartCardRW.obj
 0001:000128b0       ?GetConnMap@COPOSSmartCardRW@@SAPBU_ATL_CONNMAP_ENTRY@ATL@@PAH@Z 100138b0 f i SmartCardRW.obj
 0001:000129f0       ?GetConnectionInterface@?$IConnectionPointImpl@VCOPOSSmartCardRW@@$1?DIID__IOPOSSmartCardRWEvents@@3U_GUID@@BVCComDynamicUnkArray@ATL@@@ATL@@UAGJPAU_GUID@@@Z 100139f0 f i SmartCardRW.obj
 0001:00012a30       ?GetConnectionInterface@?$IConnectionPointImpl@VCOPOSSmartCardRW@@$1?IID_IPropertyNotifySink@@3U_GUID@@BVCComDynamicUnkArray@ATL@@@ATL@@UAGJPAU_GUID@@@Z 10013a30 f i SmartCardRW.obj
 0001:00012a70       ?GetConnectionPointContainer@?$IConnectionPointImpl@VCOPOSSmartCardRW@@$1?DIID__IOPOSSmartCardRWEvents@@3U_GUID@@BVCComDynamicUnkArray@ATL@@@ATL@@UAGJPAPAUIConnectionPointContainer@@@Z 10013a70 f i SmartCardRW.obj
 0001:00012ae0       ?GetConnectionPointContainer@?$IConnectionPointImpl@VCOPOSSmartCardRW@@$1?IID_IPropertyNotifySink@@3U_GUID@@BVCComDynamicUnkArray@ATL@@@ATL@@UAGJPAPAUIConnectionPointContainer@@@Z 10013ae0 f i SmartCardRW.obj
 0001:00012b50       ?GetContentExtent@?$IQuickActivateImpl@VCOPOSSmartCardRW@@@ATL@@UAGJPAUtagSIZE@@@Z 10013b50 f i SmartCardRW.obj
 0001:00012be0       ?GetControlInfo@?$IOleControlImpl@VCOPOSSmartCardRW@@@ATL@@UAGJPAUtagCONTROLINFO@@@Z 10013be0 f i SmartCardRW.obj
 0001:00012c50       ?GetCookie@CComDynamicUnkArray@ATL@@QAGKPAPAUIUnknown@@@Z 10013c50 f i SmartCardRW.obj
 0001:00012d10       ?GetData@?$IDataObjectImpl@VCOPOSSmartCardRW@@@ATL@@UAGJPAUtagFORMATETC@@PAUtagSTGMEDIUM@@@Z 10013d10 f i SmartCardRW.obj
 0001:00012da0       ?GetData@CAtlSafeAllocBufferNode@?$CAtlSafeAllocBufferManager@VCCRTAllocator@ATL@@@_ATL_SAFE_ALLOCA_IMPL@ATL@@QAEPAXXZ 10013da0 f i SmartCardRW.obj
 0001:00012dc0       ?GetDataHere@?$IDataObjectImpl@VCOPOSSmartCardRW@@@ATL@@UAGJPAUtagFORMATETC@@PAUtagSTGMEDIUM@@@Z 10013dc0 f i SmartCardRW.obj
 0001:00012e30       ?GetDropTarget@?$IOleInPlaceObjectWindowlessImpl@VCOPOSSmartCardRW@@@ATL@@UAGJPAPAUIDropTarget@@@Z 10013e30 f i SmartCardRW.obj
 0001:00012ea0       ?GetExtent@?$IOleObjectImpl@VCOPOSSmartCardRW@@@ATL@@UAGJKPAUtagSIZE@@@Z 10013ea0 f i SmartCardRW.obj
 0001:00012f40       ?GetExtent@?$IViewObjectExImpl@VCOPOSSmartCardRW@@@ATL@@UAGJKJPAUtagDVTARGETDEVICE@@PAUtagSIZE@@@Z 10013f40 f i SmartCardRW.obj
 0001:00013010       ?GetGITPtr@CAtlModule@ATL@@UAEJPAPAUIGlobalInterfaceTable@@@Z 10014010 f i SmartCardRW.obj
 0001:00013110       ?GetGUID@?$IProvideClassInfo2Impl@$1?CLSID_OPOSSmartCardRW@@3U_GUID@@B$1?DIID__IOPOSSmartCardRWEvents@@3U2@B$1?LIBID_OposSmartCardRW_CCO@@3U2@B$00$0A@VCComTypeInfoHolder@ATL@@@ATL@@UAGJKPAU_GUID@@@Z 10014110 f i SmartCardRW.obj
 0001:00013190       ?GetIDsOfNames@?$IDispatchImpl@UIOPOSSmartCardRW@@$1?IID_IOPOSSmartCardRW@@3U_GUID@@B$1?LIBID_OposSmartCardRW_CCO@@3U3@B$00$0A@VCComTypeInfoHolder@ATL@@@ATL@@UAGJABU_GUID@@PAPA_WIKPAJ@Z 10014190 f i SmartCardRW.obj
 0001:000131c0       ?GetIDsOfNames@CComTypeInfoHolder@ATL@@QAEJABU_GUID@@PAPA_WIKPAJ@Z 100141c0 f i SmartCardRW.obj
 0001:00013370       ?GetInterfaceSafetyOptions@?$IObjectSafetyImpl@VCOPOSSmartCardRW@@$02@ATL@@UAGJABU_GUID@@PAK1@Z 10014370 f i SmartCardRW.obj
 0001:000134e0       ?GetKeyAt@?$CSimpleMap@PA_WPA_WVCExpansionVectorEqualHelper@ATL@@@ATL@@QBEAAPA_WH@Z 100144e0 f i SmartCardRW.obj
 0001:00013560       ?GetLockCount@CAtlModule@ATL@@UAEJXZ 10014560 f i SmartCardRW.obj
 0001:00013580       ?GetMiscStatus@?$IOleObjectImpl@VCOPOSSmartCardRW@@@ATL@@UAGJKPAK@Z 10014580 f i SmartCardRW.obj
 0001:000135f0       ?GetMoniker@?$IOleObjectImpl@VCOPOSSmartCardRW@@@ATL@@UAGJKKPAPAUIMoniker@@@Z 100145f0 f i SmartCardRW.obj
 0001:00013660       ?GetNaturalExtent@?$IViewObjectExImpl@VCOPOSSmartCardRW@@@ATL@@UAGJKJPAUtagDVTARGETDEVICE@@PAUHDC__@@PAUtagExtentInfo@@PAUtagSIZE@@@Z 10014660 f i SmartCardRW.obj
 0001:00013780       ?GetObjectCLSID@?$CComCoClass@VCOPOSSmartCardRW@@$1?CLSID_OPOSSmartCardRW@@3U_GUID@@B@ATL@@SGABU_GUID@@XZ 10014780 f i SmartCardRW.obj
 0001:00013790       ?GetPages@?$ISpecifyPropertyPagesImpl@VCOPOSSmartCardRW@@@ATL@@UAGJPAUtagCAUUID@@@Z 10014790 f i SmartCardRW.obj
 0001:00013800       ?GetPagesHelper@?$ISpecifyPropertyPagesImpl@VCOPOSSmartCardRW@@@ATL@@IAEJPAUtagCAUUID@@PBUATL_PROPMAP_ENTRY@2@@Z 10014800 f i SmartCardRW.obj
 0001:00013a00       ?GetProperty@?$CComPtr@UIDispatch@@@ATL@@QAEJJPAUtagVARIANT@@@Z 10014a00 f i SmartCardRW.obj
 0001:00013a40       ?GetProperty@?$CComPtr@UIDispatch@@@ATL@@SAJPAUIDispatch@@JPAUtagVARIANT@@@Z 10014a40 f i SmartCardRW.obj
 0001:00013ba0       ?GetPropertyMap@COPOSSmartCardRW@@SAPBUATL_PROPMAP_ENTRY@ATL@@XZ 10014ba0 f i SmartCardRW.obj
 0001:00013bb0       ?GetRect@?$IViewObjectExImpl@VCOPOSSmartCardRW@@@ATL@@UAGJKPAU_RECTL@@@Z 10014bb0 f i SmartCardRW.obj
 0001:00013c20       ?GetSize@?$CSimpleMap@PA_WPA_WVCExpansionVectorEqualHelper@ATL@@@ATL@@QBEHXZ 10014c20 f i SmartCardRW.obj
 0001:00013c40       ?GetSize@CComDynamicUnkArray@ATL@@QBEHXZ 10014c40 f i SmartCardRW.obj
 0001:00013c60       ?GetSizeMax@?$IPersistStreamInitImpl@VCOPOSSmartCardRW@@@ATL@@UAGJPAT_ULARGE_INTEGER@@@Z 10014c60 f i SmartCardRW.obj
 0001:000141d0       ?GetSizeMax@CComVariant@ATL@@QBEJPAT_ULARGE_INTEGER@@@Z 100151d0 f i SmartCardRW.obj
 0001:00014550       ?GetStreamSize@CComBSTR@ATL@@SAKPA_W@Z 10015550 f i SmartCardRW.obj
 0001:000145a0       ?GetTI@CComTypeInfoHolder@ATL@@QAEJK@Z 100155a0 f i SmartCardRW.obj
 0001:00014db0       ?GetTI@CComTypeInfoHolder@ATL@@QAEJKPAPAUITypeInfo@@@Z 10015db0 f i SmartCardRW.obj
 0001:00014e70       ?GetTypeInfo@?$IDispatchImpl@UIOPOSSmartCardRW@@$1?IID_IOPOSSmartCardRW@@3U_GUID@@B$1?LIBID_OposSmartCardRW_CCO@@3U3@B$00$0A@VCComTypeInfoHolder@ATL@@@ATL@@UAGJIKPAPAUITypeInfo@@@Z 10015e70 f i SmartCardRW.obj
 0001:00014ea0       ?GetTypeInfo@CComTypeInfoHolder@ATL@@QAEJIKPAPAUITypeInfo@@@Z 10015ea0 f i SmartCardRW.obj
 0001:00014ee0       ?GetTypeInfoCount@?$IDispatchImpl@UIOPOSSmartCardRW@@$1?IID_IOPOSSmartCardRW@@3U_GUID@@B$1?LIBID_OposSmartCardRW_CCO@@3U3@B$00$0A@VCComTypeInfoHolder@ATL@@@ATL@@UAGJPAI@Z 10015ee0 f i SmartCardRW.obj
 0001:00014f00       ?GetUnknown@CComDynamicUnkArray@ATL@@QAGPAUIUnknown@@K@Z 10015f00 f i SmartCardRW.obj
 0001:00014f70       ?GetUnknown@COPOSSmartCardRW@@QAEPAUIUnknown@@XZ 10015f70 f i SmartCardRW.obj
 0001:00014fa0       ?GetUserClassID@?$IOleObjectImpl@VCOPOSSmartCardRW@@@ATL@@UAGJPAU_GUID@@@Z 10015fa0 f i SmartCardRW.obj
 0001:00015050       ?GetUserType@?$IOleObjectImpl@VCOPOSSmartCardRW@@@ATL@@UAGJKPAPA_W@Z 10016050 f i SmartCardRW.obj
 0001:000150c0       ?GetValueAt@?$CSimpleMap@PA_WPA_WVCExpansionVectorEqualHelper@ATL@@@ATL@@QBEAAPA_WH@Z 100160c0 f i SmartCardRW.obj
 0001:00015140       ?GetViewStatus@?$IViewObjectExImpl@VCOPOSSmartCardRW@@@ATL@@UAGJPAK@Z 10016140 f i SmartCardRW.obj
 0001:00015200       ?GetWNDPROC@CWndProcThunk@ATL@@QAEP6GJPAUHWND__@@IIJ@ZXZ 10016200 f i SmartCardRW.obj
 0001:00015230       ?GetWindow@?$IOleInPlaceActiveObjectImpl@VCOPOSSmartCardRW@@@ATL@@UAGJPAPAUHWND__@@@Z 10016230 f i SmartCardRW.obj
 0001:00015300       ?GetWindow@?$IOleInPlaceObjectWindowlessImpl@VCOPOSSmartCardRW@@@ATL@@UAGJPAPAUHWND__@@@Z 10016300 f i SmartCardRW.obj
 0001:000153d0       ?GetWindowLongPtrW@@YAJPAUHWND__@@H@Z 100163d0 f i SmartCardRW.obj
 0001:00015400       ?GetWindowProc@?$CWindowImplBaseT@VCWindow@ATL@@V?$CWinTraits@$0FGAAAAAA@$0A@@2@@ATL@@UAEP6GJPAUHWND__@@IIJ@ZXZ 10016400 f i SmartCardRW.obj
 0001:00015410       ?GetWndCaption@?$CWindowImpl@VCOPOSSmartCardRW@@VCWindow@ATL@@V?$CWinTraits@$0FGAAAAAA@$0A@@3@@ATL@@SAPB_WXZ 10016410 f i SmartCardRW.obj
 0001:00015420       ?GetWndClassInfo@?$CWindowImpl@VCOPOSSmartCardRW@@VCWindow@ATL@@V?$CWinTraits@$0FGAAAAAA@$0A@@3@@ATL@@SAAAU_ATL_WNDCLASSINFOW@2@XZ 10016420 f i SmartCardRW.obj
 0001:00015430       ?GetWndClassName@CWindow@ATL@@SAPB_WXZ 10016430 f i SmartCardRW.obj
 0001:00015440       ?GetWndExStyle@?$CWinTraits@$0FGAAAAAA@$0A@@ATL@@SAKK@Z 10016440 f i SmartCardRW.obj
 0001:00015460       ?GetWndExStyle@?$CWindowImplBaseT@VCWindow@ATL@@V?$CWinTraits@$0FGAAAAAA@$0A@@2@@ATL@@SAKK@Z 10016460 f i SmartCardRW.obj
 0001:00015480       ?GetWndStyle@?$CWinTraits@$0FGAAAAAA@$0A@@ATL@@SAKK@Z 10016480 f i SmartCardRW.obj
 0001:000154a0       ?GetWndStyle@?$CWindowImplBaseT@VCWindow@ATL@@V?$CWinTraits@$0FGAAAAAA@$0A@@2@@ATL@@SAKK@Z 100164a0 f i SmartCardRW.obj
 0001:000154c0       ?GetZoomInfo@CComControlBase@ATL@@QAEXAAUATL_DRAWINFO@@@Z 100164c0 f i SmartCardRW.obj
 0001:00015630       ?HKeyFromString@CRegParser@ATL@@KAPAUHKEY__@@PA_W@Z 10016630 f i SmartCardRW.obj
 0001:000156a0       ?HandsOffStorage@?$IPersistStorageImpl@VCOPOSSmartCardRW@@@ATL@@UAGJXZ 100166a0 f i SmartCardRW.obj
 0001:00015700       ?HasSubKeys@CRegParser@ATL@@IAEHPAUHKEY__@@@Z 10016700 f i SmartCardRW.obj
 0001:00015810       ?IDataObject_GetData@CComControlBase@ATL@@QAEJPAUtagFORMATETC@@PAUtagSTGMEDIUM@@@Z 10016810 f i SmartCardRW.obj
 0001:00015c30       ?IOleInPlaceObject_InPlaceDeactivate@CComControlBase@ATL@@QAEJXZ 10016c30 f i SmartCardRW.obj
 0001:00015e30       ?IOleInPlaceObject_SetObjectRects@CComControlBase@ATL@@QAEJPBUtagRECT@@0@Z 10016e30 f i SmartCardRW.obj
 0001:00015ff0       ?IOleInPlaceObject_UIDeactivate@CComControlBase@ATL@@QAEJXZ 10016ff0 f i SmartCardRW.obj
 0001:00016260       ?IOleObject_Advise@CComControlBase@ATL@@QAEJPAUIAdviseSink@@PAK@Z 10017260 f i SmartCardRW.obj
 0001:00016310       ?IOleObject_Close@CComControlBase@ATL@@QAEJK@Z 10017310 f i SmartCardRW.obj
 0001:000165c0       ?IOleObject_GetClientSite@CComControlBase@ATL@@QAEJPAPAUIOleClientSite@@@Z 100175c0 f i SmartCardRW.obj
 0001:00016660       ?IOleObject_SetClientSite@CComControlBase@ATL@@QAEJPAUIOleClientSite@@@Z 10017660 f i SmartCardRW.obj
 0001:00016730       ?IOleObject_SetExtent@CComControlBase@ATL@@QAEJKPAUtagSIZE@@@Z 10017730 f i SmartCardRW.obj
 0001:00016870       ?IPSI_GetIPersistStreamInit@?$IPersistStorageImpl@VCOPOSSmartCardRW@@@ATL@@AAEPAUIPersistStreamInit@@XZ 10017870 f i SmartCardRW.obj
 0001:00016940       ?IPersistStreamInit_Load@?$IPersistStreamInitImpl@VCOPOSSmartCardRW@@@ATL@@QAEJPAUIStream@@PBUATL_PROPMAP_ENTRY@2@@Z 10017940 f i SmartCardRW.obj
 0001:000169c0       ?IPersistStreamInit_Save@?$IPersistStreamInitImpl@VCOPOSSmartCardRW@@@ATL@@QAEJPAUIStream@@HPBUATL_PROPMAP_ENTRY@2@@Z 100179c0 f i SmartCardRW.obj
 0001:00016a50       ?IQuickActivate_QuickActivate@CComControlBase@ATL@@QAEJPAUtagQACONTAINER@@PAUtagQACONTROL@@@Z 10017a50 f i SmartCardRW.obj
 0001:000170a0       ?IViewObject_Draw@CComControlBase@ATL@@QAEJKJPAXPAUtagDVTARGETDEVICE@@PAUHDC__@@2PBU_RECTL@@3@Z 100180a0 f i SmartCardRW.obj
 0001:00017340       ?InPlaceActivate@CComControlBase@ATL@@QAEJJPBUtagRECT@@@Z 10018340 f i SmartCardRW.obj
 0001:00017cd0       ?InPlaceDeactivate@?$IOleInPlaceObjectWindowlessImpl@VCOPOSSmartCardRW@@@ATL@@UAGJXZ 10018cd0 f i SmartCardRW.obj
 0001:00017d50       ?Increment@CComMultiThreadModel@ATL@@SGKPAJ@Z 10018d50 f i SmartCardRW.obj
 0001:00017d70       ?Increment@CComSingleThreadModel@ATL@@SGKPAJ@Z 10018d70 f i SmartCardRW.obj
 0001:00017d90       ?Init@?$CComEnumImpl@UIEnumConnectionPoints@@$1?_GUID_b196b285_bab4_101a_b69c_00aa00341d07@@3U__s_GUID@@BPAUIConnectionPoint@@V?$_CopyInterface@UIConnectionPoint@@@ATL@@@ATL@@QAEJPAPAUIConnectionPoint@@0PAUIUnknown@@W4CComEnumFlags@2@@Z 10018d90 f i SmartCardRW.obj
 0001:00017f70       ?Init@?$CComEnumImpl@UIEnumConnections@@$1?_GUID_b196b287_bab4_101a_b69c_00aa00341d07@@3U__s_GUID@@BUtagCONNECTDATA@@V?$_Copy@UtagCONNECTDATA@@@ATL@@@ATL@@QAEJPAUtagCONNECTDATA@@0PAUIUnknown@@W4CComEnumFlags@2@@Z 10018f70 f i SmartCardRW.obj
 0001:00018150       ?Init@CComFakeCriticalSection@ATL@@QAEJXZ 10019150 f i SmartCardRW.obj
 0001:00018160       ?Init@CComModule@ATL@@QAEJPAU_ATL_OBJMAP_ENTRY30@2@PAUHINSTANCE__@@PBU_GUID@@@Z 10019160 f i SmartCardRW.obj
 0001:00018250       ?Init@CComSafeDeleteCriticalSection@ATL@@QAEJXZ 10019250 f i SmartCardRW.obj
 0001:000182d0       ?Init@CDynamicStdCallThunk2@ATL@@QAEHKPAX@Z 100192d0 f i SmartCardRW.obj
 0001:00018330       ?Init@CWndProcThunk@ATL@@QAEHP6GJPAUHWND__@@IIJ@ZPAX@Z 10019330 f i SmartCardRW.obj
 0001:00018370       ?InitFromData@?$IOleObjectImpl@VCOPOSSmartCardRW@@@ATL@@UAGJPAUIDataObject@@HK@Z 10019370 f i SmartCardRW.obj
 0001:000183e0       ?InitLibId@?$CAtlModuleT@VCComModule@ATL@@@ATL@@SAXXZ 100193e0 f i SmartCardRW.obj
 0001:000183f0       ?InitNew@?$IPersistStorageImpl@VCOPOSSmartCardRW@@@ATL@@UAGJPAUIStorage@@@Z 100193f0 f i SmartCardRW.obj
 0001:000184e0       ?InitNew@?$IPersistStreamInitImpl@VCOPOSSmartCardRW@@@ATL@@UAGJXZ 100194e0 f i SmartCardRW.obj
 0001:00018570       ?InlineIsEqualUnknown@ATL@@YGHABU_GUID@@@Z 10019570 f i SmartCardRW.obj
 0001:000185e0       ?InternalAddRef@?$CComObjectRootEx@VCComMultiThreadModel@ATL@@@ATL@@QAEKXZ 100195e0 f i SmartCardRW.obj
 0001:00018640       ?InternalAddRef@?$CComObjectRootEx@VCComSingleThreadModel@ATL@@@ATL@@QAEKXZ 10019640 f i SmartCardRW.obj
 0001:000186a0       ?InternalFinalConstructAddRef@CComObjectRootBase@ATL@@QAEXXZ 100196a0 f i SmartCardRW.obj
 0001:000186b0       ?InternalFinalConstructAddRef@COPOSSmartCardRW@@QAEXXZ 100196b0 f i SmartCardRW.obj
 0001:000186e0       ?InternalFinalConstructRelease@CComObjectRootBase@ATL@@QAEXXZ 100196e0 f i SmartCardRW.obj
 0001:00018730       ?InternalFinalConstructRelease@COPOSSmartCardRW@@QAEXXZ 10019730 f i SmartCardRW.obj
 0001:00018760       ?InternalGetSite@CComControlBase@ATL@@QAEJABU_GUID@@PAPAX@Z 10019760 f i SmartCardRW.obj
 0001:00018820       ?InternalQueryInterface@CComObjectRootBase@ATL@@SGJPAXPBU_ATL_INTMAP_ENTRY@2@ABU_GUID@@PAPAX@Z 10019820 f i SmartCardRW.obj
 0001:000188e0       ?InternalRelease@?$CComObjectRootEx@VCComMultiThreadModel@ATL@@@ATL@@QAEKXZ 100198e0 f i SmartCardRW.obj
 0001:00018950       ?InternalRelease@?$CComObjectRootEx@VCComSingleThreadModel@ATL@@@ATL@@QAEKXZ 10019950 f i SmartCardRW.obj
 0001:000189c0       ?InternalSetAtIndex@?$CSimpleArray@GV?$CSimpleArrayEqualHelper@G@ATL@@@ATL@@QAEXHABG@Z 100199c0 f i SmartCardRW.obj
 0001:00018a30       ?InternalSetAtIndex@?$CSimpleMap@PA_WPA_WVCExpansionVectorEqualHelper@ATL@@@ATL@@QAEXHABQA_W0@Z 10019a30 f i SmartCardRW.obj
 0001:00018ad0       ?Invoke@?$IDispatchImpl@UIOPOSSmartCardRW@@$1?IID_IOPOSSmartCardRW@@3U_GUID@@B$1?LIBID_OposSmartCardRW_CCO@@3U3@B$00$0A@VCComTypeInfoHolder@ATL@@@ATL@@UAGJJABU_GUID@@KGPAUtagDISPPARAMS@@PAUtagVARIANT@@PAUtagEXCEPINFO@@PAI@Z 10019ad0 f i SmartCardRW.obj
 0001:00018b10       ?Invoke@CComTypeInfoHolder@ATL@@QAEJPAUIDispatch@@JABU_GUID@@KGPAUtagDISPPARAMS@@PAUtagVARIANT@@PAUtagEXCEPINFO@@PAI@Z 10019b10 f i SmartCardRW.obj
 0001:00018ba0       ?IsDirty@?$IPersistStorageImpl@VCOPOSSmartCardRW@@@ATL@@UAGJXZ 10019ba0 f i SmartCardRW.obj
 0001:00018c90       ?IsDirty@?$IPersistStreamInitImpl@VCOPOSSmartCardRW@@@ATL@@UAGJXZ 10019c90 f i SmartCardRW.obj
 0001:00018d30       ?IsEqualKey@CExpansionVectorEqualHelper@ATL@@SA_NQA_W0@Z 10019d30 f i SmartCardRW.obj
 0001:00018d60       ?IsEqualObject@?$CComPtrBase@UIOleClientSite@@@ATL@@QAE_NPAUIUnknown@@@Z 10019d60 f i SmartCardRW.obj
 0001:00018e90       ?IsEqualObject@?$CComPtrBase@UITypeInfo@@@ATL@@QAE_NPAUIUnknown@@@Z 10019e90 f i SmartCardRW.obj
 0001:00018fc0       ?IsSpace@CRegParser@ATL@@IAEH_W@Z 10019fc0 f i SmartCardRW.obj
 0001:00019020       ?IsUpToDate@?$IOleObjectImpl@VCOPOSSmartCardRW@@@ATL@@UAGJXZ 1001a020 f i SmartCardRW.obj
 0001:00019080       ?Length@CComBSTR@ATL@@QBEIXZ 1001a080 f i SmartCardRW.obj
 0001:000190c0       ?Load@?$IPersistStorageImpl@VCOPOSSmartCardRW@@@ATL@@UAGJPAUIStorage@@@Z 1001a0c0 f i SmartCardRW.obj
 0001:00019220       ?Load@?$IPersistStreamInitImpl@VCOPOSSmartCardRW@@@ATL@@UAGJPAUIStream@@@Z 1001a220 f i SmartCardRW.obj
 0001:000192b0       ?LoadCursorW@AtlModuleRegisterWndClassInfoParamW@ATL@@SAPAUHICON__@@PAUHINSTANCE__@@PB_W@Z 1001a2b0 f i SmartCardRW.obj
 0001:000192e0       ?LoadNameCache@CComTypeInfoHolder@ATL@@QAEJPAUITypeInfo@@@Z 1001a2e0 f i SmartCardRW.obj
 0001:00019570       ?Lock@?$CComCritSecLock@VCComCriticalSection@ATL@@@ATL@@QAEJXZ 1001a570 f i SmartCardRW.obj
 0001:00019620       ?Lock@?$CComObjectRootEx@VCComSingleThreadModel@ATL@@@ATL@@QAEXXZ 1001a620 f i SmartCardRW.obj
 0001:00019630       ?Lock@CAtlModule@ATL@@UAEJXZ 1001a630 f i SmartCardRW.obj
 0001:00019660       ?Lock@CComCriticalSection@ATL@@QAEJXZ 1001a660 f i SmartCardRW.obj
 0001:000196a0       ?Lock@CComFakeCriticalSection@ATL@@QAEJXZ 1001a6a0 f i SmartCardRW.obj
 0001:000196b0       ?LockServer@CComClassFactory@ATL@@UAGJH@Z 1001a6b0 f i SmartCardRW.obj
 0001:00019710       ?Lookup@?$CSimpleMap@PA_WPA_WVCExpansionVectorEqualHelper@ATL@@@ATL@@QBEPA_WABQA_W@Z 1001a710 f i SmartCardRW.obj
 0001:00019760       ?Next@?$CComEnumImpl@UIEnumConnectionPoints@@$1?_GUID_b196b285_bab4_101a_b69c_00aa00341d07@@3U__s_GUID@@BPAUIConnectionPoint@@V?$_CopyInterface@UIConnectionPoint@@@ATL@@@ATL@@UAGJKPAPAUIConnectionPoint@@PAK@Z 1001a760 f i SmartCardRW.obj
 0001:000198d0       ?Next@?$CComEnumImpl@UIEnumConnections@@$1?_GUID_b196b287_bab4_101a_b69c_00aa00341d07@@3U__s_GUID@@BUtagCONNECTDATA@@V?$_Copy@UtagCONNECTDATA@@@ATL@@@ATL@@UAGJKPAUtagCONNECTDATA@@PAK@Z 1001a8d0 f i SmartCardRW.obj
 0001:00019a40       ?NextToken@CRegParser@ATL@@IAEJPA_W@Z 1001aa40 f i SmartCardRW.obj
 0001:00019ce0       ?OLE2CT_EX@@YAPB_WPB_WI@Z  1001ace0 f i SmartCardRW.obj
 0001:00019cf0       ?OLE2CT_EX_DEF@@YAPB_WPB_W@Z 1001acf0 f i SmartCardRW.obj
 0001:00019d00       ?OLE2T_EX@@YAPA_WPA_WI@Z   1001ad00 f i SmartCardRW.obj
 0001:00019d10       ?OnAmbientPropertyChange@?$IOleControlImpl@VCOPOSSmartCardRW@@@ATL@@UAGJJ@Z 1001ad10 f i SmartCardRW.obj
 0001:00019da0       ?OnDocWindowActivate@?$IOleInPlaceActiveObjectImpl@VCOPOSSmartCardRW@@@ATL@@UAGJH@Z 1001ada0 f i SmartCardRW.obj
 0001:00019e30       ?OnDrawAdvanced@CComControlBase@ATL@@UAEJAAUATL_DRAWINFO@@@Z 1001ae30 f i SmartCardRW.obj
 0001:0001a050       ?OnFinalMessage@?$CWindowImplBaseT@VCWindow@ATL@@V?$CWinTraits@$0FGAAAAAA@$0A@@2@@ATL@@UAEXPAUHWND__@@@Z 1001b050 f i SmartCardRW.obj
 0001:0001a060       ?OnFrameWindowActivate@?$IOleInPlaceActiveObjectImpl@VCOPOSSmartCardRW@@@ATL@@UAGJH@Z 1001b060 f i SmartCardRW.obj
 0001:0001a0c0       ?OnKillFocus@CComControlBase@ATL@@QAEJIIJAAH@Z 1001b0c0 f i SmartCardRW.obj
 0001:0001a1c0       ?OnMnemonic@?$IOleControlImpl@VCOPOSSmartCardRW@@@ATL@@UAGJPAUtagMSG@@@Z 1001b1c0 f i SmartCardRW.obj
 0001:0001a230       ?OnMouseActivate@CComControlBase@ATL@@QAEJIIJAAH@Z 1001b230 f i SmartCardRW.obj
 0001:0001a380       ?OnPaint@CComControlBase@ATL@@QAEJIIJAAH@Z 1001b380 f i SmartCardRW.obj
 0001:0001a500       ?OnPostVerbDiscardUndo@?$IOleObjectImpl@VCOPOSSmartCardRW@@@ATL@@QAEJXZ 1001b500 f i SmartCardRW.obj
 0001:0001a510       ?OnPostVerbHide@?$IOleObjectImpl@VCOPOSSmartCardRW@@@ATL@@QAEJXZ 1001b510 f i SmartCardRW.obj
 0001:0001a520       ?OnPostVerbInPlaceActivate@?$IOleObjectImpl@VCOPOSSmartCardRW@@@ATL@@QAEJXZ 1001b520 f i SmartCardRW.obj
 0001:0001a530       ?OnPostVerbOpen@?$IOleObjectImpl@VCOPOSSmartCardRW@@@ATL@@QAEJXZ 1001b530 f i SmartCardRW.obj
 0001:0001a540       ?OnPostVerbShow@?$IOleObjectImpl@VCOPOSSmartCardRW@@@ATL@@QAEJXZ 1001b540 f i SmartCardRW.obj
 0001:0001a550       ?OnPostVerbUIActivate@?$IOleObjectImpl@VCOPOSSmartCardRW@@@ATL@@QAEJXZ 1001b550 f i SmartCardRW.obj
 0001:0001a560       ?OnPreVerbDiscardUndo@?$IOleObjectImpl@VCOPOSSmartCardRW@@@ATL@@QAEJXZ 1001b560 f i SmartCardRW.obj
 0001:0001a570       ?OnPreVerbHide@?$IOleObjectImpl@VCOPOSSmartCardRW@@@ATL@@QAEJXZ 1001b570 f i SmartCardRW.obj
 0001:0001a580       ?OnPreVerbInPlaceActivate@?$IOleObjectImpl@VCOPOSSmartCardRW@@@ATL@@QAEJXZ 1001b580 f i SmartCardRW.obj
 0001:0001a590       ?OnPreVerbOpen@?$IOleObjectImpl@VCOPOSSmartCardRW@@@ATL@@QAEJXZ 1001b590 f i SmartCardRW.obj
 0001:0001a5a0       ?OnPreVerbShow@?$IOleObjectImpl@VCOPOSSmartCardRW@@@ATL@@QAEJXZ 1001b5a0 f i SmartCardRW.obj
 0001:0001a5b0       ?OnPreVerbUIActivate@?$IOleObjectImpl@VCOPOSSmartCardRW@@@ATL@@QAEJXZ 1001b5b0 f i SmartCardRW.obj
 0001:0001a5c0       ?OnSetFocus@CComControlBase@ATL@@QAEJIIJAAH@Z 1001b5c0 f i SmartCardRW.obj
 0001:0001a750       ?OnWindowMessage@?$IOleInPlaceObjectWindowlessImpl@VCOPOSSmartCardRW@@@ATL@@UAGJIIJPAJ@Z 1001b750 f i SmartCardRW.obj
 0001:0001a8b0       ?Open@CRegKey@ATL@@QAEJPAUHKEY__@@PB_WK@Z 1001b8b0 f i SmartCardRW.obj
 0001:0001aa00       ?OuterAddRef@CComObjectRootBase@ATL@@QAEKXZ 1001ba00 f i SmartCardRW.obj
 0001:0001aa40       ?OuterQueryInterface@CComObjectRootBase@ATL@@QAEJABU_GUID@@PAPAX@Z 1001ba40 f i SmartCardRW.obj
 0001:0001aa90       ?OuterRelease@CComObjectRootBase@ATL@@QAEKXZ 1001ba90 f i SmartCardRW.obj
 0001:0001aad0       ?PreProcessBuffer@CRegParser@ATL@@QAEJPA_WPAPA_W@Z 1001bad0 f i SmartCardRW.obj
 0001:0001b010       ?PreTranslateAccelerator@CComControlBase@ATL@@QAEHPAUtagMSG@@AAJ@Z 1001c010 f i SmartCardRW.obj
 0001:0001b020       ?ProcessWindowMessage@?$CComControl@VCOPOSSmartCardRW@@V?$CWindowImpl@VCOPOSSmartCardRW@@VCWindow@ATL@@V?$CWinTraits@$0FGAAAAAA@$0A@@3@@ATL@@@ATL@@UAEHPAUHWND__@@IIJAAJK@Z 1001c020 f i SmartCardRW.obj
 0001:0001b1f0       ?ProcessWindowMessage@COPOSSmartCardRW@@UAEHPAUHWND__@@IIJAAJK@Z 1001c1f0 f i SmartCardRW.obj
 0001:0001b2f0       ?PutProperty@?$CComPtr@UIDispatch@@@ATL@@QAEJJPAUtagVARIANT@@@Z 1001c2f0 f i SmartCardRW.obj
 0001:0001b330       ?PutProperty@?$CComPtr@UIDispatch@@@ATL@@SAJPAUIDispatch@@JPAUtagVARIANT@@@Z 1001c330 f i SmartCardRW.obj
 0001:0001b520       ?QueryGetData@?$IDataObjectImpl@VCOPOSSmartCardRW@@@ATL@@UAGJPAUtagFORMATETC@@@Z 1001c520 f i SmartCardRW.obj
 0001:0001b590       ?QueryHitPoint@?$IViewObjectExImpl@VCOPOSSmartCardRW@@@ATL@@UAGJKPBUtagRECT@@UtagPOINT@@JPAK@Z 1001c590 f i SmartCardRW.obj
 0001:0001b6a0       ?QueryHitRect@?$IViewObjectExImpl@VCOPOSSmartCardRW@@@ATL@@UAGJKPBUtagRECT@@0JPAK@Z 1001c6a0 f i SmartCardRW.obj
 0001:0001b7f0       ?QueryInterface@?$CComAggObject@VCOPOSSmartCardRW@@@ATL@@UAGJABU_GUID@@PAPAX@Z 1001c7f0 f i SmartCardRW.obj
 0001:0001b8a0       ?QueryInterface@?$CComContainedObject@VCOPOSSmartCardRW@@@ATL@@UAGJABU_GUID@@PAPAX@Z 1001c8a0 f i SmartCardRW.obj
 0001:0001b8c4       ?QueryInterface@?$CComContainedObject@VCOPOSSmartCardRW@@@ATL@@WHA@AGJABU_GUID@@PAPAX@Z 1001c8c4 f i SmartCardRW.obj
 0001:0001b8ce       ?QueryInterface@?$CComContainedObject@VCOPOSSmartCardRW@@@ATL@@WHE@AGJABU_GUID@@PAPAX@Z 1001c8ce f i SmartCardRW.obj
 0001:0001b8d8       ?QueryInterface@?$CComContainedObject@VCOPOSSmartCardRW@@@ATL@@WHI@AGJABU_GUID@@PAPAX@Z 1001c8d8 f i SmartCardRW.obj
 0001:0001b8e2       ?QueryInterface@?$CComContainedObject@VCOPOSSmartCardRW@@@ATL@@WHM@AGJABU_GUID@@PAPAX@Z 1001c8e2 f i SmartCardRW.obj
 0001:0001b8ec       ?QueryInterface@?$CComContainedObject@VCOPOSSmartCardRW@@@ATL@@WIA@AGJABU_GUID@@PAPAX@Z 1001c8ec f i SmartCardRW.obj
 0001:0001b8f9       ?QueryInterface@?$CComContainedObject@VCOPOSSmartCardRW@@@ATL@@WIE@AGJABU_GUID@@PAPAX@Z 1001c8f9 f i SmartCardRW.obj
 0001:0001b906       ?QueryInterface@?$CComContainedObject@VCOPOSSmartCardRW@@@ATL@@WII@AGJABU_GUID@@PAPAX@Z 1001c906 f i SmartCardRW.obj
 0001:0001b913       ?QueryInterface@?$CComContainedObject@VCOPOSSmartCardRW@@@ATL@@WIM@AGJABU_GUID@@PAPAX@Z 1001c913 f i SmartCardRW.obj
 0001:0001b920       ?QueryInterface@?$CComContainedObject@VCOPOSSmartCardRW@@@ATL@@WJA@AGJABU_GUID@@PAPAX@Z 1001c920 f i SmartCardRW.obj
 0001:0001b92d       ?QueryInterface@?$CComContainedObject@VCOPOSSmartCardRW@@@ATL@@WJE@AGJABU_GUID@@PAPAX@Z 1001c92d f i SmartCardRW.obj
 0001:0001b93a       ?QueryInterface@?$CComContainedObject@VCOPOSSmartCardRW@@@ATL@@WJI@AGJABU_GUID@@PAPAX@Z 1001c93a f i SmartCardRW.obj
 0001:0001b947       ?QueryInterface@?$CComContainedObject@VCOPOSSmartCardRW@@@ATL@@WJM@AGJABU_GUID@@PAPAX@Z 1001c947 f i SmartCardRW.obj
 0001:0001b954       ?QueryInterface@?$CComContainedObject@VCOPOSSmartCardRW@@@ATL@@WKA@AGJABU_GUID@@PAPAX@Z 1001c954 f i SmartCardRW.obj
 0001:0001b970       ?QueryInterface@?$CComObject@V?$CComEnum@UIEnumConnectionPoints@@$1?_GUID_b196b285_bab4_101a_b69c_00aa00341d07@@3U__s_GUID@@BPAUIConnectionPoint@@V?$_CopyInterface@UIConnectionPoint@@@ATL@@VCComSingleThreadModel@6@@ATL@@@ATL@@UAGJABU_GUID@@PAPAX@Z 1001c970 f i SmartCardRW.obj
 0001:0001b990       ?QueryInterface@?$CComObject@V?$CComEnum@UIEnumConnections@@$1?_GUID_b196b287_bab4_101a_b69c_00aa00341d07@@3U__s_GUID@@BUtagCONNECTDATA@@V?$_Copy@UtagCONNECTDATA@@@ATL@@VCComSingleThreadModel@6@@ATL@@@ATL@@UAGJABU_GUID@@PAPAX@Z 1001c990 f i SmartCardRW.obj
 0001:0001b9b0       ?QueryInterface@?$CComObject@VCOPOSSmartCardRW@@@ATL@@UAGJABU_GUID@@PAPAX@Z 1001c9b0 f i SmartCardRW.obj
 0001:0001b9ce       ?QueryInterface@?$CComObject@VCOPOSSmartCardRW@@@ATL@@WHA@AGJABU_GUID@@PAPAX@Z 1001c9ce f i SmartCardRW.obj
 0001:0001b9d8       ?QueryInterface@?$CComObject@VCOPOSSmartCardRW@@@ATL@@WHE@AGJABU_GUID@@PAPAX@Z 1001c9d8 f i SmartCardRW.obj
 0001:0001b9e2       ?QueryInterface@?$CComObject@VCOPOSSmartCardRW@@@ATL@@WHI@AGJABU_GUID@@PAPAX@Z 1001c9e2 f i SmartCardRW.obj
 0001:0001b9ec       ?QueryInterface@?$CComObject@VCOPOSSmartCardRW@@@ATL@@WHM@AGJABU_GUID@@PAPAX@Z 1001c9ec f i SmartCardRW.obj
 0001:0001b9f6       ?QueryInterface@?$CComObject@VCOPOSSmartCardRW@@@ATL@@WIA@AGJABU_GUID@@PAPAX@Z 1001c9f6 f i SmartCardRW.obj
 0001:0001ba03       ?QueryInterface@?$CComObject@VCOPOSSmartCardRW@@@ATL@@WIE@AGJABU_GUID@@PAPAX@Z 1001ca03 f i SmartCardRW.obj
 0001:0001ba10       ?QueryInterface@?$CComObject@VCOPOSSmartCardRW@@@ATL@@WII@AGJABU_GUID@@PAPAX@Z 1001ca10 f i SmartCardRW.obj
 0001:0001ba1d       ?QueryInterface@?$CComObject@VCOPOSSmartCardRW@@@ATL@@WIM@AGJABU_GUID@@PAPAX@Z 1001ca1d f i SmartCardRW.obj
 0001:0001ba2a       ?QueryInterface@?$CComObject@VCOPOSSmartCardRW@@@ATL@@WJA@AGJABU_GUID@@PAPAX@Z 1001ca2a f i SmartCardRW.obj
 0001:0001ba37       ?QueryInterface@?$CComObject@VCOPOSSmartCardRW@@@ATL@@WJE@AGJABU_GUID@@PAPAX@Z 1001ca37 f i SmartCardRW.obj
 0001:0001ba44       ?QueryInterface@?$CComObject@VCOPOSSmartCardRW@@@ATL@@WJI@AGJABU_GUID@@PAPAX@Z 1001ca44 f i SmartCardRW.obj
 0001:0001ba51       ?QueryInterface@?$CComObject@VCOPOSSmartCardRW@@@ATL@@WJM@AGJABU_GUID@@PAPAX@Z 1001ca51 f i SmartCardRW.obj
 0001:0001ba5e       ?QueryInterface@?$CComObject@VCOPOSSmartCardRW@@@ATL@@WKA@AGJABU_GUID@@PAPAX@Z 1001ca5e f i SmartCardRW.obj
 0001:0001ba70       ?QueryInterface@?$CComObjectCached@VCComClassFactory@ATL@@@ATL@@UAGJABU_GUID@@PAPAX@Z 1001ca70 f i SmartCardRW.obj
 0001:0001ba90       ?QueryInterface@CRegObject@ATL@@UAGJABU_GUID@@PAPAX@Z 1001ca90 f i SmartCardRW.obj
 0001:0001bae0       ?QuickActivate@?$IQuickActivateImpl@VCOPOSSmartCardRW@@@ATL@@UAGJPAUtagQACONTAINER@@PAUtagQACONTROL@@@Z 1001cae0 f i SmartCardRW.obj
 0001:0001bb70       ?ReactivateAndUndo@?$IOleInPlaceObjectWindowlessImpl@VCOPOSSmartCardRW@@@ATL@@UAGJXZ 1001cb70 f i SmartCardRW.obj
 0001:0001bbe0       ?ReadFromStream@CComBSTR@ATL@@QAEJPAUIStream@@@Z 1001cbe0 f i SmartCardRW.obj
 0001:0001bfe0       ?ReadFromStream@CComVariant@ATL@@QAEJPAUIStream@@GTClassesAllowedInStream@2@K@Z 1001cfe0 f i SmartCardRW.obj
 0001:0001c360       ?RecurseDeleteKey@CRegKey@ATL@@QAEJPB_W@Z 1001d360 f i SmartCardRW.obj
 0001:0001c540       ?RegCreateKeyExW@CAtlTransactionManager@ATL@@QAEJPAUHKEY__@@PB_WKPA_WKKQAU_SECURITY_ATTRIBUTES@@PAPAU3@PAK@Z 1001d540 f i SmartCardRW.obj
 0001:0001c670       ?RegDeleteKeyW@CAtlTransactionManager@ATL@@QAEJPAUHKEY__@@PB_W@Z 1001d670 f i SmartCardRW.obj
 0001:0001c770       ?RegOpenKeyExW@CAtlTransactionManager@ATL@@QAEJPAUHKEY__@@PB_WKKPAPAU3@@Z 1001d770 f i SmartCardRW.obj
 0001:0001c880       ?Register@_ATL_WNDCLASSINFOW@ATL@@QAEGPAP6GJPAUHWND__@@IIJ@Z@Z 1001d880 f i SmartCardRW.obj
 0001:0001c8c0       ?RegisterBuffer@CRegParser@ATL@@QAEJPA_WH@Z 1001d8c0 f i SmartCardRW.obj
 0001:0001cbf0       ?RegisterClassExW@AtlModuleRegisterWndClassInfoParamW@ATL@@SAGPAU_ATL_WIN_MODULE70@2@PBUtagWNDCLASSEXW@@@Z 1001dbf0 f i SmartCardRW.obj
 0001:0001cc10       ?RegisterFromResource@CRegObject@ATL@@IAEJPB_W00H@Z 1001dc10 f i SmartCardRW.obj
 0001:0001cfa0       ?RegisterServer@?$CAtlModuleT@VCComModule@ATL@@@ATL@@QAEJHPBU_GUID@@@Z 1001dfa0 f i SmartCardRW.obj
 0001:0001d020       ?RegisterServer@CAtlComModule@ATL@@QAEJHPBU_GUID@@@Z 1001e020 f i SmartCardRW.obj
 0001:0001d050       ?RegisterServer@CComModule@ATL@@QAEJHPBU_GUID@@@Z 1001e050 f i SmartCardRW.obj
 0001:0001d130       ?RegisterSubkeys@CRegParser@ATL@@IAEJPA_WPAUHKEY__@@HH@Z 1001e130 f i SmartCardRW.obj
 0001:0001dc50       ?Release@?$CComAggObject@VCOPOSSmartCardRW@@@ATL@@UAGKXZ 1001ec50 f i SmartCardRW.obj
 0001:0001dd10       ?Release@?$CComContainedObject@VCOPOSSmartCardRW@@@ATL@@UAGKXZ 1001ed10 f i SmartCardRW.obj
 0001:0001dd2c       ?Release@?$CComContainedObject@VCOPOSSmartCardRW@@@ATL@@WHA@AGKXZ 1001ed2c f i SmartCardRW.obj
 0001:0001dd36       ?Release@?$CComContainedObject@VCOPOSSmartCardRW@@@ATL@@WHE@AGKXZ 1001ed36 f i SmartCardRW.obj
 0001:0001dd40       ?Release@?$CComContainedObject@VCOPOSSmartCardRW@@@ATL@@WHI@AGKXZ 1001ed40 f i SmartCardRW.obj
 0001:0001dd4a       ?Release@?$CComContainedObject@VCOPOSSmartCardRW@@@ATL@@WHM@AGKXZ 1001ed4a f i SmartCardRW.obj
 0001:0001dd54       ?Release@?$CComContainedObject@VCOPOSSmartCardRW@@@ATL@@WIA@AGKXZ 1001ed54 f i SmartCardRW.obj
 0001:0001dd61       ?Release@?$CComContainedObject@VCOPOSSmartCardRW@@@ATL@@WIE@AGKXZ 1001ed61 f i SmartCardRW.obj
 0001:0001dd6e       ?Release@?$CComContainedObject@VCOPOSSmartCardRW@@@ATL@@WII@AGKXZ 1001ed6e f i SmartCardRW.obj
 0001:0001dd7b       ?Release@?$CComContainedObject@VCOPOSSmartCardRW@@@ATL@@WIM@AGKXZ 1001ed7b f i SmartCardRW.obj
 0001:0001dd88       ?Release@?$CComContainedObject@VCOPOSSmartCardRW@@@ATL@@WJA@AGKXZ 1001ed88 f i SmartCardRW.obj
 0001:0001dd95       ?Release@?$CComContainedObject@VCOPOSSmartCardRW@@@ATL@@WJE@AGKXZ 1001ed95 f i SmartCardRW.obj
 0001:0001dda2       ?Release@?$CComContainedObject@VCOPOSSmartCardRW@@@ATL@@WJI@AGKXZ 1001eda2 f i SmartCardRW.obj
 0001:0001ddaf       ?Release@?$CComContainedObject@VCOPOSSmartCardRW@@@ATL@@WJM@AGKXZ 1001edaf f i SmartCardRW.obj
 0001:0001ddbc       ?Release@?$CComContainedObject@VCOPOSSmartCardRW@@@ATL@@WKA@AGKXZ 1001edbc f i SmartCardRW.obj
 0001:0001ddc9       ?Release@?$CComContainedObject@VCOPOSSmartCardRW@@@ATL@@WKI@AGKXZ 1001edc9 f i SmartCardRW.obj
 0001:0001ddd6       ?Release@?$CComContainedObject@VCOPOSSmartCardRW@@@ATL@@WLE@AGKXZ 1001edd6 f i SmartCardRW.obj
 0001:0001ddf0       ?Release@?$CComObject@V?$CComEnum@UIEnumConnectionPoints@@$1?_GUID_b196b285_bab4_101a_b69c_00aa00341d07@@3U__s_GUID@@BPAUIConnectionPoint@@V?$_CopyInterface@UIConnectionPoint@@@ATL@@VCComSingleThreadModel@6@@ATL@@@ATL@@UAGKXZ 1001edf0 f i SmartCardRW.obj
 0001:0001deb0       ?Release@?$CComObject@V?$CComEnum@UIEnumConnections@@$1?_GUID_b196b287_bab4_101a_b69c_00aa00341d07@@3U__s_GUID@@BUtagCONNECTDATA@@V?$_Copy@UtagCONNECTDATA@@@ATL@@VCComSingleThreadModel@6@@ATL@@@ATL@@UAGKXZ 1001eeb0 f i SmartCardRW.obj
 0001:0001df70       ?Release@?$CComObject@VCOPOSSmartCardRW@@@ATL@@UAGKXZ 1001ef70 f i SmartCardRW.obj
 0001:0001e029       ?Release@?$CComObject@VCOPOSSmartCardRW@@@ATL@@WHA@AGKXZ 1001f029 f i SmartCardRW.obj
 0001:0001e033       ?Release@?$CComObject@VCOPOSSmartCardRW@@@ATL@@WHE@AGKXZ 1001f033 f i SmartCardRW.obj
 0001:0001e03d       ?Release@?$CComObject@VCOPOSSmartCardRW@@@ATL@@WHI@AGKXZ 1001f03d f i SmartCardRW.obj
 0001:0001e047       ?Release@?$CComObject@VCOPOSSmartCardRW@@@ATL@@WHM@AGKXZ 1001f047 f i SmartCardRW.obj
 0001:0001e051       ?Release@?$CComObject@VCOPOSSmartCardRW@@@ATL@@WIA@AGKXZ 1001f051 f i SmartCardRW.obj
 0001:0001e05e       ?Release@?$CComObject@VCOPOSSmartCardRW@@@ATL@@WIE@AGKXZ 1001f05e f i SmartCardRW.obj
 0001:0001e06b       ?Release@?$CComObject@VCOPOSSmartCardRW@@@ATL@@WII@AGKXZ 1001f06b f i SmartCardRW.obj
 0001:0001e078       ?Release@?$CComObject@VCOPOSSmartCardRW@@@ATL@@WIM@AGKXZ 1001f078 f i SmartCardRW.obj
 0001:0001e085       ?Release@?$CComObject@VCOPOSSmartCardRW@@@ATL@@WJA@AGKXZ 1001f085 f i SmartCardRW.obj
 0001:0001e092       ?Release@?$CComObject@VCOPOSSmartCardRW@@@ATL@@WJE@AGKXZ 1001f092 f i SmartCardRW.obj
 0001:0001e09f       ?Release@?$CComObject@VCOPOSSmartCardRW@@@ATL@@WJI@AGKXZ 1001f09f f i SmartCardRW.obj
 0001:0001e0ac       ?Release@?$CComObject@VCOPOSSmartCardRW@@@ATL@@WJM@AGKXZ 1001f0ac f i SmartCardRW.obj
 0001:0001e0b9       ?Release@?$CComObject@VCOPOSSmartCardRW@@@ATL@@WKA@AGKXZ 1001f0b9 f i SmartCardRW.obj
 0001:0001e0c6       ?Release@?$CComObject@VCOPOSSmartCardRW@@@ATL@@WKI@AGKXZ 1001f0c6 f i SmartCardRW.obj
 0001:0001e0d3       ?Release@?$CComObject@VCOPOSSmartCardRW@@@ATL@@WLE@AGKXZ 1001f0d3 f i SmartCardRW.obj
 0001:0001e0e0       ?Release@?$CComObjectCached@VCComClassFactory@ATL@@@ATL@@UAGKXZ 1001f0e0 f i SmartCardRW.obj
 0001:0001e180       ?Release@?$CComPtrBase@UIAdviseSink@@@ATL@@QAEXXZ 1001f180 f i SmartCardRW.obj
 0001:0001e1e0       ?Release@?$CComPtrBase@UIDispatch@@@ATL@@QAEXXZ 1001f1e0 f i SmartCardRW.obj
 0001:0001e240       ?Release@?$CComPtrBase@UIOleInPlaceSiteWindowless@@@ATL@@QAEXXZ 1001f240 f i SmartCardRW.obj
 0001:0001e2a0       ?Release@CRegObject@ATL@@UAGKXZ 1001f2a0 f i SmartCardRW.obj
 0001:0001e2e0       ?Remove@CComDynamicUnkArray@ATL@@QAEHK@Z 1001f2e0 f i SmartCardRW.obj
 0001:0001e390       ?RemoveAll@?$CSimpleMap@PA_WPA_WVCExpansionVectorEqualHelper@ATL@@@ATL@@QAEXXZ 1001f390 f i SmartCardRW.obj
 0001:0001e420       ?Reset@?$CComEnumImpl@UIEnumConnectionPoints@@$1?_GUID_b196b285_bab4_101a_b69c_00aa00341d07@@3U__s_GUID@@BPAUIConnectionPoint@@V?$_CopyInterface@UIConnectionPoint@@@ATL@@@ATL@@UAGJXZ 1001f420 f i SmartCardRW.obj
 0001:0001e440       ?Reset@?$CComEnumImpl@UIEnumConnections@@$1?_GUID_b196b287_bab4_101a_b69c_00aa00341d07@@3U__s_GUID@@BUtagCONNECTDATA@@V?$_Copy@UtagCONNECTDATA@@@ATL@@@ATL@@UAGJXZ 1001f440 f i SmartCardRW.obj
 0001:0001e460       ?ResizeBorder@?$IOleInPlaceActiveObjectImpl@VCOPOSSmartCardRW@@@ATL@@UAGJPBUtagRECT@@PAUIOleInPlaceUIWindow@@H@Z 1001f460 f i SmartCardRW.obj
 0001:0001e4c0       ?ResourceRegister@CRegObject@ATL@@QAGJPB_WI0@Z 1001f4c0 f i SmartCardRW.obj
 0001:0001e5a0       ?ResourceRegisterSz@CRegObject@ATL@@QAGJPB_W00@Z 1001f5a0 f i SmartCardRW.obj
 0001:0001e6a0       ?ResourceUnregister@CRegObject@ATL@@QAGJPB_WI0@Z 1001f6a0 f i SmartCardRW.obj
 0001:0001e780       ?ResourceUnregisterSz@CRegObject@ATL@@QAGJPB_W00@Z 1001f780 f i SmartCardRW.obj
 0001:0001e880       ?SOData@COPOSSmartCardRW@@MAGJJ@Z 1001f880 f i SmartCardRW.obj
 0001:0001e900       ?SODirectIO@COPOSSmartCardRW@@MAGJJPAJPAPA_W@Z 1001f900 f i SmartCardRW.obj
 0001:0001eac0       ?SOError@COPOSSmartCardRW@@MAGJJJJPAJ@Z 1001fac0 f i SmartCardRW.obj
 0001:0001eb80       ?SOOutputComplete@COPOSSmartCardRW@@MAGJJ@Z 1001fb80 f i SmartCardRW.obj
 0001:0001ec00       ?SOStatusUpdate@COPOSSmartCardRW@@MAGJJ@Z 1001fc00 f i SmartCardRW.obj
 0001:0001ec80       ?Save@?$IPersistStorageImpl@VCOPOSSmartCardRW@@@ATL@@UAGJPAUIStorage@@H@Z 1001fc80 f i SmartCardRW.obj
 0001:0001ede0       ?Save@?$IPersistStreamInitImpl@VCOPOSSmartCardRW@@@ATL@@UAGJPAUIStream@@H@Z 1001fde0 f i SmartCardRW.obj
 0001:0001ee70       ?SaveCompleted@?$IPersistStorageImpl@VCOPOSSmartCardRW@@@ATL@@UAGJPAUIStorage@@@Z 1001fe70 f i SmartCardRW.obj
 0001:0001eed0       ?SendOnDataChange@CComControlBase@ATL@@QAEJK@Z 1001fed0 f i SmartCardRW.obj
 0001:0001efc0       ?SendOnSave@CComControlBase@ATL@@QAEJXZ 1001ffc0 f i SmartCardRW.obj
 0001:0001f030       ?SendOnViewChange@CComControlBase@ATL@@QAEJKJ@Z 10020030 f i SmartCardRW.obj
 0001:0001f0a0       ?SetAdvise@?$IViewObjectExImpl@VCOPOSSmartCardRW@@@ATL@@UAGJKKPAUIAdviseSink@@@Z 100200a0 f i SmartCardRW.obj
 0001:0001f130       ?SetClientSite@?$IOleObjectImpl@VCOPOSSmartCardRW@@@ATL@@UAGJPAUIOleClientSite@@@Z 10020130 f i SmartCardRW.obj
 0001:0001f1c0       ?SetColorScheme@?$IOleObjectImpl@VCOPOSSmartCardRW@@@ATL@@UAGJPAUtagLOGPALETTE@@@Z 100201c0 f i SmartCardRW.obj
 0001:0001f230       ?SetContentExtent@?$IQuickActivateImpl@VCOPOSSmartCardRW@@@ATL@@UAGJPAUtagSIZE@@@Z 10020230 f i SmartCardRW.obj
 0001:0001f2c0       ?SetControlFocus@CComControlBase@ATL@@QAEHH@Z 100202c0 f i SmartCardRW.obj
 0001:0001f440       ?SetDWORDValue@CRegKey@ATL@@QAEJPB_WK@Z 10020440 f i SmartCardRW.obj
 0001:0001f4c0       ?SetData@?$IDataObjectImpl@VCOPOSSmartCardRW@@@ATL@@UAGJPAUtagFORMATETC@@PAUtagSTGMEDIUM@@H@Z 100204c0 f i SmartCardRW.obj
 0001:0001f530       ?SetExtent@?$IOleObjectImpl@VCOPOSSmartCardRW@@@ATL@@UAGJKPAUtagSIZE@@@Z 10020530 f i SmartCardRW.obj
 0001:0001f5c0       ?SetHostNames@?$IOleObjectImpl@VCOPOSSmartCardRW@@@ATL@@UAGJPB_W0@Z 100205c0 f i SmartCardRW.obj
 0001:0001f620       ?SetInterfaceSafetyOptions@?$IObjectSafetyImpl@VCOPOSSmartCardRW@@$02@ATL@@UAGJABU_GUID@@KK@Z 10020620 f i SmartCardRW.obj
 0001:0001f790       ?SetMoniker@?$IOleObjectImpl@VCOPOSSmartCardRW@@@ATL@@UAGJKPAUIMoniker@@@Z 10020790 f i SmartCardRW.obj
 0001:0001f800       ?SetMultiStringValue@CRegKey@ATL@@QAEJPB_W0@Z 10020800 f i SmartCardRW.obj
 0001:0001f920       ?SetObjectRects@?$IOleInPlaceObjectWindowlessImpl@VCOPOSSmartCardRW@@@ATL@@UAGJPBUtagRECT@@0@Z 10020920 f i SmartCardRW.obj
 0001:0001f9b0       ?SetStringValue@CRegKey@ATL@@QAEJPB_W0K@Z 100209b0 f i SmartCardRW.obj
 0001:0001fae0       ?SetVoid@CComClassFactory@ATL@@QAEXPAX@Z 10020ae0 f i SmartCardRW.obj
 0001:0001fb00       ?SetVoid@CComObjectRootBase@ATL@@QAEXPAX@Z 10020b00 f i SmartCardRW.obj
 0001:0001fb10       ?SetWindowLongPtrW@@YAJPAUHWND__@@HJ@Z 10020b10 f i SmartCardRW.obj
 0001:0001fb40       ?ShowWindow@CWindow@ATL@@QAEHH@Z 10020b40 f i SmartCardRW.obj
 0001:0001fbc0       ?Skip@?$CComEnumImpl@UIEnumConnectionPoints@@$1?_GUID_b196b285_bab4_101a_b69c_00aa00341d07@@3U__s_GUID@@BPAUIConnectionPoint@@V?$_CopyInterface@UIConnectionPoint@@@ATL@@@ATL@@UAGJK@Z 10020bc0 f i SmartCardRW.obj
 0001:0001fc30       ?Skip@?$CComEnumImpl@UIEnumConnections@@$1?_GUID_b196b287_bab4_101a_b69c_00aa00341d07@@3U__s_GUID@@BUtagCONNECTDATA@@V?$_Copy@UtagCONNECTDATA@@@ATL@@@ATL@@UAGJK@Z 10020c30 f i SmartCardRW.obj
 0001:0001fca0       ?SkipAssignment@CRegParser@ATL@@IAEJPA_W@Z 10020ca0 f i SmartCardRW.obj
 0001:0001fd80       ?SkipWhiteSpace@CRegParser@ATL@@IAEXXZ 10020d80 f i SmartCardRW.obj
 0001:0001fdd0       ?StartWindowProc@?$CWindowImplBaseT@VCWindow@ATL@@V?$CWinTraits@$0FGAAAAAA@$0A@@2@@ATL@@SGJPAUHWND__@@IIJ@Z 10020dd0 f i SmartCardRW.obj
 0001:0001fef0       ?StrChrW@CRegParser@ATL@@KAPA_WPA_W_W@Z 10020ef0 f i SmartCardRW.obj
 0001:0001ff60       ?StrFromMap@CRegObject@ATL@@QAEPB_WPA_W@Z 10020f60 f i SmartCardRW.obj
 0001:0001fff0       ?Swap@?$CComPtrBase@UIAdviseSink@@@ATL@@IAEXAAV12@@Z 10020ff0 f i SmartCardRW.obj
 0001:00020020       ?Swap@?$CComPtrBase@UIOleClientSite@@@ATL@@IAEXAAV12@@Z 10021020 f i SmartCardRW.obj
 0001:00020050       ?Swap@?$CComPtrBase@UIUnknown@@@ATL@@IAEXAAV12@@Z 10021050 f i SmartCardRW.obj
 0001:00020080       ?T2COLE_EX@@YAPB_WPB_WI@Z  10021080 f i SmartCardRW.obj
 0001:00020090       ?T2OLE_EX@@YAPA_WPA_WI@Z   10021090 f i SmartCardRW.obj
 0001:000200a0       ?Term@CAtlModule@ATL@@QAEXXZ 100210a0 f i SmartCardRW.obj
 0001:00020150       ?Term@CComModule@ATL@@QAEXXZ 10021150 f i SmartCardRW.obj
 0001:00020240       ?TranslateAcceleratorW@?$IOleInPlaceActiveObjectImpl@VCOPOSSmartCardRW@@@ATL@@UAGJPAUtagMSG@@@Z 10021240 f i SmartCardRW.obj
 0001:00020440       ?UIDeactivate@?$IOleInPlaceObjectWindowlessImpl@VCOPOSSmartCardRW@@@ATL@@UAGJXZ 10021440 f i SmartCardRW.obj
 0001:000204c0       ?Unadvise@?$CProxy_IOPOSEvents@VCOPOSSmartCardRW@@@@UAGJK@Z 100214c0 f i SmartCardRW.obj
 0001:00020500       ?Unadvise@?$IConnectionPointImpl@VCOPOSSmartCardRW@@$1?DIID__IOPOSSmartCardRWEvents@@3U_GUID@@BVCComDynamicUnkArray@ATL@@@ATL@@UAGJK@Z 10021500 f i SmartCardRW.obj
 0001:000205d0       ?Unadvise@?$IConnectionPointImpl@VCOPOSSmartCardRW@@$1?IID_IPropertyNotifySink@@3U_GUID@@BVCComDynamicUnkArray@ATL@@@ATL@@UAGJK@Z 100215d0 f i SmartCardRW.obj
 0001:000206a0       ?Unadvise@?$IOleObjectImpl@VCOPOSSmartCardRW@@@ATL@@UAGJK@Z 100216a0 f i SmartCardRW.obj
 0001:00020770       ?Unfreeze@?$IViewObjectExImpl@VCOPOSSmartCardRW@@@ATL@@UAGJK@Z 10021770 f i SmartCardRW.obj
 0001:000207e0       ?Unlock@?$CComCritSecLock@VCComCriticalSection@ATL@@@ATL@@QAEXXZ 100217e0 f i SmartCardRW.obj
 0001:00020850       ?Unlock@?$CComObjectRootEx@VCComSingleThreadModel@ATL@@@ATL@@QAEXXZ 10021850 f i SmartCardRW.obj
 0001:00020860       ?Unlock@CAtlModule@ATL@@UAEJXZ 10021860 f i SmartCardRW.obj
 0001:00020890       ?Unlock@CComCriticalSection@ATL@@QAEJXZ 10021890 f i SmartCardRW.obj
 0001:000208d0       ?Unlock@CComFakeCriticalSection@ATL@@QAEJXZ 100218d0 f i SmartCardRW.obj
 0001:000208e0       ?UnregisterServer@?$CAtlModuleT@VCComModule@ATL@@@ATL@@QAEJHPBU_GUID@@@Z 100218e0 f i SmartCardRW.obj
 0001:00020950       ?UnregisterServer@CAtlComModule@ATL@@QAEJHPBU_GUID@@@Z 10021950 f i SmartCardRW.obj
 0001:00020980       ?UnregisterServer@CComModule@ATL@@QAEJHPBU_GUID@@@Z 10021980 f i SmartCardRW.obj
 0001:00020a60       ?Update@?$IOleObjectImpl@VCOPOSSmartCardRW@@@ATL@@UAGJXZ 10021a60 f i SmartCardRW.obj
 0001:00020ac0       ?UpdateRegistryFromResource@CAtlModule@ATL@@QAGJIHPAU_ATL_REGMAP_ENTRY@2@@Z 10021ac0 f i SmartCardRW.obj
 0001:00020f90       ?UpdateRegistryFromResource@CAtlModule@ATL@@QAGJPB_WHPAU_ATL_REGMAP_ENTRY@2@@Z 10021f90 f i SmartCardRW.obj
 0001:00021480       ?UpdateRegistryFromResource@CComModule@ATL@@UAGJIHPAU_ATL_REGMAP_ENTRY@2@@Z 10022480 f i SmartCardRW.obj
 0001:000214b0       ?UpdateRegistryFromResource@CComModule@ATL@@UAGJPB_WHPAU_ATL_REGMAP_ENTRY@2@@Z 100224b0 f i SmartCardRW.obj
 0001:000214e0       ?UpdateRegistryFromResourceD@CComModule@ATL@@UAGJIHPAU_ATL_REGMAP_ENTRY@2@@Z 100224e0 f i SmartCardRW.obj
 0001:000214f0       ?UpdateRegistryFromResourceD@CComModule@ATL@@UAGJPB_WHPAU_ATL_REGMAP_ENTRY@2@@Z 100224f0 f i SmartCardRW.obj
 0001:00021500       ?VTFromRegType@CRegParser@ATL@@KAHPB_WAAG@Z 10022500 f i SmartCardRW.obj
 0001:000215e0       ?WindowProc@?$CWindowImplBaseT@VCWindow@ATL@@V?$CWinTraits@$0FGAAAAAA@$0A@@2@@ATL@@SGJPAUHWND__@@IIJ@Z 100225e0 f i SmartCardRW.obj
 0001:000217f0       ?WriteToStream@CComBSTR@ATL@@QAEJPAUIStream@@@Z 100227f0 f i SmartCardRW.obj
 0001:00021950       ?WriteToStream@CComVariant@ATL@@QAEJPAUIStream@@@Z 10022950 f i SmartCardRW.obj
 0001:00021cb0       ?WriteToStream@CComVariant@ATL@@QAEJPAUIStream@@G@Z 10022cb0 f i SmartCardRW.obj
 0001:00021d80       ?_AtlFinalConstruct@CComObjectRootBase@ATL@@QAEJXZ 10022d80 f i SmartCardRW.obj
 0001:00021d90       ?_AtlGetConversionACP@ATL@@YGIXZ 10022d90 f i SmartCardRW.obj
 0001:00021da0       ?_AtlInitialConstruct@?$CComAggObject@VCOPOSSmartCardRW@@@ATL@@QAEJXZ 10022da0 f i SmartCardRW.obj
 0001:00021df0       ?_AtlInitialConstruct@?$CComObjectRootEx@VCComMultiThreadModel@ATL@@@ATL@@QAEJXZ 10022df0 f i SmartCardRW.obj
 0001:00021e20       ?_AtlInitialConstruct@?$CComObjectRootEx@VCComSingleThreadModel@ATL@@@ATL@@QAEJXZ 10022e20 f i SmartCardRW.obj
 0001:00021e30       ?_AtlVerifyStackAvailable@_ATL_SAFE_ALLOCA_IMPL@ATL@@YA_NK@Z 10022e30 f i SmartCardRW.obj
 0001:00021fe0       ?_GetEntries@?$CComEnum@UIEnumConnectionPoints@@$1?_GUID_b196b285_bab4_101a_b69c_00aa00341d07@@3U__s_GUID@@BPAUIConnectionPoint@@V?$_CopyInterface@UIConnectionPoint@@@ATL@@VCComSingleThreadModel@6@@ATL@@SGPBU_ATL_INTMAP_ENTRY@2@XZ 10022fe0 f i SmartCardRW.obj
 0001:00022000       ?_GetEntries@?$CComEnum@UIEnumConnections@@$1?_GUID_b196b287_bab4_101a_b69c_00aa00341d07@@3U__s_GUID@@BUtagCONNECTDATA@@V?$_Copy@UtagCONNECTDATA@@@ATL@@VCComSingleThreadModel@6@@ATL@@SGPBU_ATL_INTMAP_ENTRY@2@XZ 10023000 f i SmartCardRW.obj
 0001:00022020       ?_GetEntries@CComClassFactory@ATL@@SGPBU_ATL_INTMAP_ENTRY@2@XZ 10023020 f i SmartCardRW.obj
 0001:00022040       ?_GetEntries@COPOSSmartCardRW@@SGPBU_ATL_INTMAP_ENTRY@ATL@@XZ 10023040 f i SmartCardRW.obj
 0001:00022060       ?_GetRawUnknown@COPOSSmartCardRW@@QAEPAUIUnknown@@XZ 10023060 f i SmartCardRW.obj
 0001:000220d0       ?_GetViewStatus@COPOSSmartCardRW@@QAEKXZ 100230d0 f i SmartCardRW.obj
 0001:000220e0       ?_InternalQueryInterface@?$CComEnum@UIEnumConnectionPoints@@$1?_GUID_b196b285_bab4_101a_b69c_00aa00341d07@@3U__s_GUID@@BPAUIConnectionPoint@@V?$_CopyInterface@UIConnectionPoint@@@ATL@@VCComSingleThreadModel@6@@ATL@@QAEJABU_GUID@@PAPAX@Z 100230e0 f i SmartCardRW.obj
 0001:00022120       ?_InternalQueryInterface@?$CComEnum@UIEnumConnections@@$1?_GUID_b196b287_bab4_101a_b69c_00aa00341d07@@3U__s_GUID@@BUtagCONNECTDATA@@V?$_Copy@UtagCONNECTDATA@@@ATL@@VCComSingleThreadModel@6@@ATL@@QAEJABU_GUID@@PAPAX@Z 10023120 f i SmartCardRW.obj
 0001:00022160       ?_InternalQueryInterface@CComClassFactory@ATL@@QAEJABU_GUID@@PAPAX@Z 10023160 f i SmartCardRW.obj
 0001:000221a0       ?_InternalQueryInterface@COPOSSmartCardRW@@QAEJABU_GUID@@PAPAX@Z 100231a0 f i SmartCardRW.obj
 0001:000221e0       ?_LocCPQueryInterface@?$IConnectionPointImpl@VCOPOSSmartCardRW@@$1?DIID__IOPOSSmartCardRWEvents@@3U_GUID@@BVCComDynamicUnkArray@ATL@@@ATL@@UAGJABU_GUID@@PAPAX@Z 100231e0 f i SmartCardRW.obj
 0001:00022280       ?_LocCPQueryInterface@?$IConnectionPointImpl@VCOPOSSmartCardRW@@$1?IID_IPropertyNotifySink@@3U_GUID@@BVCComDynamicUnkArray@ATL@@@ATL@@UAGJABU_GUID@@PAPAX@Z 10023280 f i SmartCardRW.obj
 0001:00022320       ?atlCreate@?$CWindowImpl@VCOPOSSmartCardRW@@VCWindow@ATL@@V?$CWinTraits@$0FGAAAAAA@$0A@@3@@ATL@@QAEPAUHWND__@@PAU3@V_U_RECT@2@PB_WKKV_U_MENUorID@2@PAX@Z 10023320 f i SmartCardRW.obj
 0001:000223d0       ?atlCreate@?$CWindowImplBaseT@VCWindow@ATL@@V?$CWinTraits@$0FGAAAAAA@$0A@@2@@ATL@@QAEPAUHWND__@@PAU3@V_U_RECT@2@PB_WKKV_U_MENUorID@2@GPAX@Z 100233d0 f i SmartCardRW.obj
 0001:00022550       ?atlCreate@CRegKey@ATL@@QAEJPAUHKEY__@@PB_WPA_WKKPAU_SECURITY_ATTRIBUTES@@PAK@Z 10023550 f i SmartCardRW.obj
 0001:000226b0       ?begin@CComDynamicUnkArray@ATL@@QAEPAPAUIUnknown@@XZ 100236b0 f i SmartCardRW.obj
 0001:000226c0       ?copy@?$_Copy@UtagCONNECTDATA@@@ATL@@SAJPAUtagCONNECTDATA@@PBU3@@Z 100236c0 f i SmartCardRW.obj
 0001:00022780       ?copy@?$_CopyInterface@UIConnectionPoint@@@ATL@@SAJPAPAUIConnectionPoint@@PBQAU3@@Z 10023780 f i SmartCardRW.obj
 0001:00022840       ?destroy@?$_Copy@UtagCONNECTDATA@@@ATL@@SAXPAUtagCONNECTDATA@@@Z 10023840 f i SmartCardRW.obj
 0001:00022880       ?destroy@?$_CopyInterface@UIConnectionPoint@@@ATL@@SAXPAPAUIConnectionPoint@@@Z 10023880 f i SmartCardRW.obj
 0001:000228c0       ?end@CComDynamicUnkArray@ATL@@QAEPAPAUIUnknown@@XZ 100238c0 f i SmartCardRW.obj
 0001:000228e0       ?init@?$_Copy@UtagCONNECTDATA@@@ATL@@SAXPAUtagCONNECTDATA@@@Z 100238e0 f i SmartCardRW.obj
 0001:000228f0       ?init@?$_CopyInterface@UIConnectionPoint@@@ATL@@SAXPAPAUIConnectionPoint@@@Z 100238f0 f i SmartCardRW.obj
 0001:00022900       ?memcpy_s@Checked@ATL@@YAXPAXIPBXI@Z 10023900 f i SmartCardRW.obj
 0001:00022930       ?ocscpy_s@@YA_NPA_WIPB_W@Z 10023930 f i SmartCardRW.obj
 0001:00022990       ?ocslen@@YAHPB_W@Z         10023990 f i SmartCardRW.obj
 0001:000229c0       ?tcsncpy_s@Checked@ATL@@YAHPA_WIPB_WI@Z 100239c0 f i SmartCardRW.obj
 0001:000229f0       ?wcscat_s@Checked@ATL@@YAXPA_WIPB_W@Z 100239f0 f i SmartCardRW.obj
 0001:00022a20       ?wcscpy_s@Checked@ATL@@YAXPA_WIPB_W@Z 10023a20 f i SmartCardRW.obj
 0001:00022a50       ?wcsncpy_s@Checked@ATL@@YAHPA_WIPB_WI@Z 10023a50 f i SmartCardRW.obj
 0001:00022a80       ?wcsstr@@YAPA_WPA_WPB_W@Z  10023a80 f i SmartCardRW.obj
 0001:00022aa0       _InlineIsEqualGUID         10023aa0 f i SmartCardRW.obj
 0001:00022b40       _IsEqualGUID               10023b40 f i SmartCardRW.obj
 0001:00022b90       ??0COPOSSmartCardRW@@QAE@XZ 10023b90 f   SmartCardRWImpl.obj
 0001:00022ca0       ?FinalConstruct@COPOSSmartCardRW@@QAEJXZ 10023ca0 f   SmartCardRWImpl.obj
 0001:00022d70       ??1COPOSSmartCardRW@@UAE@XZ 10023d70 f   SmartCardRWImpl.obj
 0001:00022e50       ?WriteTrace@COPOSSmartCardRW@@QAAXPB_WZZ 10023e50 f   SmartCardRWImpl.obj
 0001:00022f00       ?WriteTraceString@COPOSSmartCardRW@@QAEXPB_WPA_W@Z 10023f00 f   SmartCardRWImpl.obj
 0001:00023270       ?WriteTraceString@COPOSSmartCardRW@@QAAXPAXHHHPB_WZZ 10024270 f   SmartCardRWImpl.obj
 0001:000234a0       ?WriteTraceError@COPOSSmartCardRW@@QAEXPB_WK@Z 100244a0 f   SmartCardRWImpl.obj
 0001:00023590       ?WriteTraceMethods@COPOSSmartCardRW@@QAEXPAJH@Z 10024590 f   SmartCardRWImpl.obj
 0001:00023600       ?GetOposProp@COPOSSmartCardRW@@IAEJPBDJPAJJ@Z 10024600 f   SmartCardRWImpl.obj
 0001:00023870       ?SetOposProp@COPOSSmartCardRW@@IAEJPBDJJJ@Z 10024870 f   SmartCardRWImpl.obj
 0001:00023b00       ?GetOposProp@COPOSSmartCardRW@@IAEJPBDJPAFJ@Z 10024b00 f   SmartCardRWImpl.obj
 0001:00023ba0       ?SetOposProp@COPOSSmartCardRW@@IAEJPBDJFJ@Z 10024ba0 f   SmartCardRWImpl.obj
 0001:00023c00       ?GetOposProp@COPOSSmartCardRW@@IAEJPBDJPAPA_WJ@Z 10024c00 f   SmartCardRWImpl.obj
 0001:00023e80       ?SetOposProp@COPOSSmartCardRW@@IAEJPBDJPA_WJ@Z 10024e80 f   SmartCardRWImpl.obj
 0001:000241c0       ?DoInvoke@COPOSSmartCardRW@@IAEJPBDJPAVOposVariant@@IHPAJ_N@Z 100251c0 f   SmartCardRWImpl.obj
 0001:00024af0       ?SetCOFreezeEvents@COPOSSmartCardRW@@IAEXF@Z 10025af0 f   SmartCardRWImpl.obj
 0001:00024c30       ?FreezeEvents@COPOSSmartCardRW@@MAGJH@Z 10025c30 f   SmartCardRWImpl.obj
 0001:00024d10       ?OnDraw@COPOSSmartCardRW@@MAEJAAUATL_DRAWINFO@@@Z 10025d10 f   SmartCardRWImpl.obj
 0001:00024eb0       ?SOProcessID@COPOSSmartCardRW@@UAGJPAJ@Z 10025eb0 f   SmartCardRWImpl.obj
 0001:00024ef0       ?get_OpenResult@COPOSSmartCardRW@@UAGJPAJ@Z 10025ef0 f   SmartCardRWImpl.obj
 0001:00024f30       ?get_BinaryConversion@COPOSSmartCardRW@@UAGJPAJ@Z 10025f30 f   SmartCardRWImpl.obj
 0001:00024f60       ?put_BinaryConversion@COPOSSmartCardRW@@UAGJJ@Z 10025f60 f   SmartCardRWImpl.obj
 0001:00024f90       ?get_CapPowerReporting@COPOSSmartCardRW@@UAGJPAJ@Z 10025f90 f   SmartCardRWImpl.obj
 0001:00024fc0       ?get_CheckHealthText@COPOSSmartCardRW@@UAGJPAPA_W@Z 10025fc0 f   SmartCardRWImpl.obj
 0001:00024ff0       ?get_Claimed@COPOSSmartCardRW@@UAGJPAF@Z 10025ff0 f   SmartCardRWImpl.obj
 0001:00025020       ?get_DataCount@COPOSSmartCardRW@@UAGJPAJ@Z 10026020 f   SmartCardRWImpl.obj
 0001:00025050       ?get_DataEventEnabled@COPOSSmartCardRW@@UAGJPAF@Z 10026050 f   SmartCardRWImpl.obj
 0001:00025080       ?put_DataEventEnabled@COPOSSmartCardRW@@UAGJF@Z 10026080 f   SmartCardRWImpl.obj
 0001:000250b0       ?get_DeviceEnabled@COPOSSmartCardRW@@UAGJPAF@Z 100260b0 f   SmartCardRWImpl.obj
 0001:000250e0       ?put_DeviceEnabled@COPOSSmartCardRW@@UAGJF@Z 100260e0 f   SmartCardRWImpl.obj
 0001:00025110       ?get_FreezeEvents@COPOSSmartCardRW@@UAGJPAF@Z 10026110 f   SmartCardRWImpl.obj
 0001:00025140       ?put_FreezeEvents@COPOSSmartCardRW@@UAGJF@Z 10026140 f   SmartCardRWImpl.obj
 0001:000251d0       ?get_OutputID@COPOSSmartCardRW@@UAGJPAJ@Z 100261d0 f   SmartCardRWImpl.obj
 0001:00025200       ?get_PowerNotify@COPOSSmartCardRW@@UAGJPAJ@Z 10026200 f   SmartCardRWImpl.obj
 0001:00025230       ?put_PowerNotify@COPOSSmartCardRW@@UAGJJ@Z 10026230 f   SmartCardRWImpl.obj
 0001:00025260       ?get_PowerState@COPOSSmartCardRW@@UAGJPAJ@Z 10026260 f   SmartCardRWImpl.obj
 0001:00025290       ?get_ResultCode@COPOSSmartCardRW@@UAGJPAJ@Z 10026290 f   SmartCardRWImpl.obj
 0001:00025320       ?get_ResultCodeExtended@COPOSSmartCardRW@@UAGJPAJ@Z 10026320 f   SmartCardRWImpl.obj
 0001:00025350       ?get_State@COPOSSmartCardRW@@UAGJPAJ@Z 10026350 f   SmartCardRWImpl.obj
 0001:000253a0       ?get_ControlObjectDescription@COPOSSmartCardRW@@UAGJPAPA_W@Z 100263a0 f   SmartCardRWImpl.obj
 0001:00025420       ?get_ControlObjectVersion@COPOSSmartCardRW@@UAGJPAJ@Z 10026420 f   SmartCardRWImpl.obj
 0001:00025460       ?get_ServiceObjectDescription@COPOSSmartCardRW@@UAGJPAPA_W@Z 10026460 f   SmartCardRWImpl.obj
 0001:00025490       ?get_ServiceObjectVersion@COPOSSmartCardRW@@UAGJPAJ@Z 10026490 f   SmartCardRWImpl.obj
 0001:000254c0       ?get_DeviceDescription@COPOSSmartCardRW@@UAGJPAPA_W@Z 100264c0 f   SmartCardRWImpl.obj
 0001:000254f0       ?get_DeviceName@COPOSSmartCardRW@@UAGJPAPA_W@Z 100264f0 f   SmartCardRWImpl.obj
 0001:00025520       ?get_CapStatisticsReporting@COPOSSmartCardRW@@UAGJPAF@Z 10026520 f   SmartCardRWImpl.obj
 0001:00025550       ?get_CapUpdateStatistics@COPOSSmartCardRW@@UAGJPAF@Z 10026550 f   SmartCardRWImpl.obj
 0001:00025580       ?CheckHealth@COPOSSmartCardRW@@UAGJJPAJ@Z 10026580 f   SmartCardRWImpl.obj
 0001:00025620       ?ClaimDevice@COPOSSmartCardRW@@UAGJJPAJ@Z 10026620 f   SmartCardRWImpl.obj
 0001:00025700       ?ClearInput@COPOSSmartCardRW@@UAGJPAJ@Z 10026700 f   SmartCardRWImpl.obj
 0001:00025730       ?ClearOutput@COPOSSmartCardRW@@UAGJPAJ@Z 10026730 f   SmartCardRWImpl.obj
 0001:00025760       ?Close@COPOSSmartCardRW@@UAGJPAJ@Z 10026760 f   SmartCardRWImpl.obj
 0001:00025830       ?DirectIO@COPOSSmartCardRW@@UAGJJPAJPAPA_W0@Z 10026830 f   SmartCardRWImpl.obj
 0001:00025940       ?Open@COPOSSmartCardRW@@UAGJPA_WPAJ@Z 10026940 f   SmartCardRWImpl.obj
 0001:00026b30       ?ReleaseDevice@COPOSSmartCardRW@@UAGJPAJ@Z 10027b30 f   SmartCardRWImpl.obj
 0001:00026ba0       ?ResetStatistics@COPOSSmartCardRW@@UAGJPA_WPAJ@Z 10027ba0 f   SmartCardRWImpl.obj
 0001:00026c50       ?RetrieveStatistics@COPOSSmartCardRW@@UAGJPAPA_WPAJ@Z 10027c50 f   SmartCardRWImpl.obj
 0001:00026d00       ?UpdateStatistics@COPOSSmartCardRW@@UAGJPA_WPAJ@Z 10027d00 f   SmartCardRWImpl.obj
 0001:00026db0       ?get_CapCardErrorDetection@COPOSSmartCardRW@@UAGJPAF@Z 10027db0 f   SmartCardRWImpl.obj
 0001:00026de0       ?get_CapInterfaceMode@COPOSSmartCardRW@@UAGJPAJ@Z 10027de0 f   SmartCardRWImpl.obj
 0001:00026e10       ?get_CapIsoEmvMode@COPOSSmartCardRW@@UAGJPAJ@Z 10027e10 f   SmartCardRWImpl.obj
 0001:00026e40       ?get_CapSCPresentSensor@COPOSSmartCardRW@@UAGJPAJ@Z 10027e40 f   SmartCardRWImpl.obj
 0001:00026e70       ?get_CapSCSlots@COPOSSmartCardRW@@UAGJPAJ@Z 10027e70 f   SmartCardRWImpl.obj
 0001:00026ea0       ?get_CapTransmissionProtocol@COPOSSmartCardRW@@UAGJPAJ@Z 10027ea0 f   SmartCardRWImpl.obj
 0001:00026ed0       ?get_InterfaceMode@COPOSSmartCardRW@@UAGJPAJ@Z 10027ed0 f   SmartCardRWImpl.obj
 0001:00026f00       ?put_InterfaceMode@COPOSSmartCardRW@@UAGJJ@Z 10027f00 f   SmartCardRWImpl.obj
 0001:00026f30       ?get_IsoEmvMode@COPOSSmartCardRW@@UAGJPAJ@Z 10027f30 f   SmartCardRWImpl.obj
 0001:00026f60       ?put_IsoEmvMode@COPOSSmartCardRW@@UAGJJ@Z 10027f60 f   SmartCardRWImpl.obj
 0001:00026f90       ?get_SCPresentSensor@COPOSSmartCardRW@@UAGJPAJ@Z 10027f90 f   SmartCardRWImpl.obj
 0001:00026fc0       ?get_SCSlot@COPOSSmartCardRW@@UAGJPAJ@Z 10027fc0 f   SmartCardRWImpl.obj
 0001:00026ff0       ?put_SCSlot@COPOSSmartCardRW@@UAGJJ@Z 10027ff0 f   SmartCardRWImpl.obj
 0001:00027020       ?get_TransactionInProgress@COPOSSmartCardRW@@UAGJPAF@Z 10028020 f   SmartCardRWImpl.obj
 0001:00027050       ?get_TransmissionProtocol@COPOSSmartCardRW@@UAGJPAJ@Z 10028050 f   SmartCardRWImpl.obj
 0001:00027080       ?BeginInsertion@COPOSSmartCardRW@@UAGJJPAJ@Z 10028080 f   SmartCardRWImpl.obj
 0001:00027120       ?BeginRemoval@COPOSSmartCardRW@@UAGJJPAJ@Z 10028120 f   SmartCardRWImpl.obj
 0001:000271c0       ?EndInsertion@COPOSSmartCardRW@@UAGJPAJ@Z 100281c0 f   SmartCardRWImpl.obj
 0001:000271f0       ?EndRemoval@COPOSSmartCardRW@@UAGJPAJ@Z 100281f0 f   SmartCardRWImpl.obj
 0001:00027220       ?ReadData@COPOSSmartCardRW@@UAGJJPAJPAPA_W0@Z 10028220 f   SmartCardRWImpl.obj
 0001:00027330       ?WriteData@COPOSSmartCardRW@@UAGJJJPA_WPAJ@Z 10028330 f   SmartCardRWImpl.obj
 0001:00027440       ?get_CapCompareFirmwareVersion@COPOSSmartCardRW@@UAGJPAF@Z 10028440 f   SmartCardRWImpl.obj
 0001:00027470       ?get_CapUpdateFirmware@COPOSSmartCardRW@@UAGJPAF@Z 10028470 f   SmartCardRWImpl.obj
 0001:000274a0       ?CompareFirmwareVersion@COPOSSmartCardRW@@UAGJPA_WPAJ1@Z 100284a0 f   SmartCardRWImpl.obj
 0001:00027590       ?UpdateFirmware@COPOSSmartCardRW@@UAGJPA_WPAJ@Z 10028590 f   SmartCardRWImpl.obj
 0001:00027640       ?ClearInputProperties@COPOSSmartCardRW@@UAGJPAJ@Z 10028640 f   SmartCardRWImpl.obj
 0001:00027670       ??0?$CComControl@VCOPOSSmartCardRW@@V?$CWindowImpl@VCOPOSSmartCardRW@@VCWindow@ATL@@V?$CWinTraits@$0FGAAAAAA@$0A@@3@@ATL@@@ATL@@QAE@XZ 10028670 f i SmartCardRWImpl.obj
 0001:000276b0       ??0?$CComPtr@UIAdviseSink@@@ATL@@QAE@XZ 100286b0 f i SmartCardRWImpl.obj
 0001:000276e0       ??0?$CComPtr@UIDataAdviseHolder@@@ATL@@QAE@XZ 100286e0 f i SmartCardRWImpl.obj
 0001:00027710       ??0?$CComPtr@UIOleAdviseHolder@@@ATL@@QAE@XZ 10028710 f i SmartCardRWImpl.obj
 0001:00027740       ??0?$CComPtr@UIOleClientSite@@@ATL@@QAE@XZ 10028740 f i SmartCardRWImpl.obj
 0001:00027770       ??0?$CComPtr@UIOleInPlaceSiteWindowless@@@ATL@@QAE@XZ 10028770 f i SmartCardRWImpl.obj
 0001:000277a0       ??0?$CComPtrBase@UIAdviseSink@@@ATL@@IAE@XZ 100287a0 f i SmartCardRWImpl.obj
 0001:000277c0       ??0?$CComPtrBase@UIDataAdviseHolder@@@ATL@@IAE@XZ 100287c0 f i SmartCardRWImpl.obj
 0001:000277e0       ??0?$CComPtrBase@UIOleAdviseHolder@@@ATL@@IAE@XZ 100287e0 f i SmartCardRWImpl.obj
 0001:00027800       ??0?$CComPtrBase@UIOleClientSite@@@ATL@@IAE@XZ 10028800 f i SmartCardRWImpl.obj
 0001:00027820       ??0?$CComPtrBase@UIOleInPlaceSiteWindowless@@@ATL@@IAE@XZ 10028820 f i SmartCardRWImpl.obj
 0001:00027840       ??0?$CComQIPtr@UIDispatch@@$1?_GUID_00020400_0000_0000_c000_000000000046@@3U__s_GUID@@B@ATL@@QAE@XZ 10028840 f i SmartCardRWImpl.obj
 0001:00027870       ??0?$CProxy_IOPOSEvents@VCOPOSSmartCardRW@@@@QAE@PAVCOPOSSmartCardRW@@@Z 10028870 f i SmartCardRWImpl.obj
 0001:000278e0       ??0?$CWindowImpl@VCOPOSSmartCardRW@@VCWindow@ATL@@V?$CWinTraits@$0FGAAAAAA@$0A@@3@@ATL@@QAE@XZ 100288e0 f i SmartCardRWImpl.obj
 0001:00027910       ??0?$CWindowImplBaseT@VCWindow@ATL@@V?$CWinTraits@$0FGAAAAAA@$0A@@2@@ATL@@QAE@XZ 10028910 f i SmartCardRWImpl.obj
 0001:00027950       ??0?$CWindowImplRoot@VCWindow@ATL@@@ATL@@QAE@XZ 10028950 f i SmartCardRWImpl.obj
 0001:000279b0       ??0?$IConnectionPointContainerImpl@VCOPOSSmartCardRW@@@ATL@@QAE@XZ 100289b0 f i SmartCardRWImpl.obj
 0001:000279e0       ??0?$IConnectionPointImpl@VCOPOSSmartCardRW@@$1?DIID__IOPOSSmartCardRWEvents@@3U_GUID@@BVCComDynamicUnkArray@ATL@@@ATL@@QAE@XZ 100289e0 f i SmartCardRWImpl.obj
 0001:00027a20       ??0?$IConnectionPointImpl@VCOPOSSmartCardRW@@$1?IID_IPropertyNotifySink@@3U_GUID@@BVCComDynamicUnkArray@ATL@@@ATL@@QAE@XZ 10028a20 f i SmartCardRWImpl.obj
 0001:00027a60       ??0?$IDataObjectImpl@VCOPOSSmartCardRW@@@ATL@@QAE@XZ 10028a60 f i SmartCardRWImpl.obj
 0001:00027a90       ??0?$IDispatchImpl@UIOPOSSmartCardRW@@$1?IID_IOPOSSmartCardRW@@3U_GUID@@B$1?LIBID_OposSmartCardRW_CCO@@3U3@B$00$0A@VCComTypeInfoHolder@ATL@@@ATL@@QAE@XZ 10028a90 f i SmartCardRWImpl.obj
 0001:00027ac0       ??0?$IObjectSafetyImpl@VCOPOSSmartCardRW@@$02@ATL@@QAE@XZ 10028ac0 f i SmartCardRWImpl.obj
 0001:00027b00       ??0?$IOleControlImpl@VCOPOSSmartCardRW@@@ATL@@QAE@XZ 10028b00 f i SmartCardRWImpl.obj
 0001:00027b30       ??0?$IOleInPlaceActiveObjectImpl@VCOPOSSmartCardRW@@@ATL@@QAE@XZ 10028b30 f i SmartCardRWImpl.obj
 0001:00027b60       ??0?$IOleInPlaceObjectWindowlessImpl@VCOPOSSmartCardRW@@@ATL@@QAE@XZ 10028b60 f i SmartCardRWImpl.obj
 0001:00027b90       ??0?$IOleObjectImpl@VCOPOSSmartCardRW@@@ATL@@QAE@XZ 10028b90 f i SmartCardRWImpl.obj
 0001:00027bc0       ??0?$IPersistStorageImpl@VCOPOSSmartCardRW@@@ATL@@QAE@XZ 10028bc0 f i SmartCardRWImpl.obj
 0001:00027bf0       ??0?$IPersistStreamInitImpl@VCOPOSSmartCardRW@@@ATL@@QAE@XZ 10028bf0 f i SmartCardRWImpl.obj
 0001:00027c20       ??0?$IPropertyNotifySinkCP@VCOPOSSmartCardRW@@VCComDynamicUnkArray@ATL@@@ATL@@QAE@XZ 10028c20 f i SmartCardRWImpl.obj
 0001:00027c50       ??0?$IProvideClassInfo2Impl@$1?CLSID_OPOSSmartCardRW@@3U_GUID@@B$1?DIID__IOPOSSmartCardRWEvents@@3U2@B$1?LIBID_OposSmartCardRW_CCO@@3U2@B$00$0A@VCComTypeInfoHolder@ATL@@@ATL@@QAE@XZ 10028c50 f i SmartCardRWImpl.obj
 0001:00027c80       ??0?$IQuickActivateImpl@VCOPOSSmartCardRW@@@ATL@@QAE@XZ 10028c80 f i SmartCardRWImpl.obj
 0001:00027cb0       ??0?$ISpecifyPropertyPagesImpl@VCOPOSSmartCardRW@@@ATL@@QAE@XZ 10028cb0 f i SmartCardRWImpl.obj
 0001:00027ce0       ??0?$IViewObjectExImpl@VCOPOSSmartCardRW@@@ATL@@QAE@XZ 10028ce0 f i SmartCardRWImpl.obj
 0001:00027d10       ??0?$_ICPLocator@$1?DIID__IOPOSSmartCardRWEvents@@3U_GUID@@B@ATL@@QAE@XZ 10028d10 f i SmartCardRWImpl.obj
 0001:00027d20       ??0?$_ICPLocator@$1?IID_IPropertyNotifySink@@3U_GUID@@B@ATL@@QAE@XZ 10028d20 f i SmartCardRWImpl.obj
 0001:00027d30       ??0CComControlBase@ATL@@QAE@AAPAUHWND__@@@Z 10028d30 f i SmartCardRWImpl.obj
 0001:00027ee0       ??0CComDynamicUnkArray@ATL@@QAE@XZ 10028ee0 f i SmartCardRWImpl.obj
 0001:00027f10       ??0CDynamicStdCallThunk2@ATL@@QAE@XZ 10028f10 f i SmartCardRWImpl.obj
 0001:00027f30       ??0CMessageMap@ATL@@QAE@XZ 10028f30 f i SmartCardRWImpl.obj
 0001:00027f40       ??0CWindow@ATL@@QAE@PAUHWND__@@@Z 10028f40 f i SmartCardRWImpl.obj
 0001:00027f60       ??0CWndProcThunk@ATL@@QAE@XZ 10028f60 f i SmartCardRWImpl.obj
 0001:00027f90       ??0IConnectionPointContainer@@QAE@XZ 10028f90 f i SmartCardRWImpl.obj
 0001:00027fc0       ??0IDataObject@@QAE@XZ     10028fc0 f i SmartCardRWImpl.obj
 0001:00027ff0       ??0IDispatch@@QAE@XZ       10028ff0 f i SmartCardRWImpl.obj
 0001:00028020       ??0IOPOSSmartCardRW@@QAE@XZ 10029020 f i SmartCardRWImpl.obj
 0001:00028050       ??0IOPOSSmartCardRW_1_10@@QAE@XZ 10029050 f i SmartCardRWImpl.obj
 0001:00028080       ??0IOPOSSmartCardRW_1_8@@QAE@XZ 10029080 f i SmartCardRWImpl.obj
 0001:000280b0       ??0IOPOSSmartCardRW_1_9@@QAE@XZ 100290b0 f i SmartCardRWImpl.obj
 0001:000280e0       ??0IObjectSafety@@QAE@XZ   100290e0 f i SmartCardRWImpl.obj
 0001:00028110       ??0IOleControl@@QAE@XZ     10029110 f i SmartCardRWImpl.obj
 0001:00028140       ??0IOleInPlaceActiveObject@@QAE@XZ 10029140 f i SmartCardRWImpl.obj
 0001:00028170       ??0IOleInPlaceObject@@QAE@XZ 10029170 f i SmartCardRWImpl.obj
 0001:000281a0       ??0IOleInPlaceObjectWindowless@@QAE@XZ 100291a0 f i SmartCardRWImpl.obj
 0001:000281d0       ??0IOleObject@@QAE@XZ      100291d0 f i SmartCardRWImpl.obj
 0001:00028200       ??0IOleWindow@@QAE@XZ      10029200 f i SmartCardRWImpl.obj
 0001:00028230       ??0IPersist@@QAE@XZ        10029230 f i SmartCardRWImpl.obj
 0001:00028260       ??0IPersistStorage@@QAE@XZ 10029260 f i SmartCardRWImpl.obj
 0001:00028290       ??0IPersistStreamInit@@QAE@XZ 10029290 f i SmartCardRWImpl.obj
 0001:000282c0       ??0IProvideClassInfo2@@QAE@XZ 100292c0 f i SmartCardRWImpl.obj
 0001:000282f0       ??0IProvideClassInfo@@QAE@XZ 100292f0 f i SmartCardRWImpl.obj
 0001:00028320       ??0IQuickActivate@@QAE@XZ  10029320 f i SmartCardRWImpl.obj
 0001:00028350       ??0ISpecifyPropertyPages@@QAE@XZ 10029350 f i SmartCardRWImpl.obj
 0001:00028380       ??0IViewObject2@@QAE@XZ    10029380 f i SmartCardRWImpl.obj
 0001:000283b0       ??0IViewObject@@QAE@XZ     100293b0 f i SmartCardRWImpl.obj
 0001:000283e0       ??0IViewObjectEx@@QAE@XZ   100293e0 f i SmartCardRWImpl.obj
 0001:00028410       ??0OposVariantResult@@QAE@XZ 10029410 f i SmartCardRWImpl.obj
 0001:00028440       ??0_CW@@QAE@PBD@Z          10029440 f i SmartCardRWImpl.obj
 0001:00028480       ??0_CW@@QAE@PB_W@Z         10029480 f i SmartCardRWImpl.obj
 0001:000284c0       ??0_CWNCC@@QAE@PBD@Z       100294c0 f i SmartCardRWImpl.obj
 0001:000284f0       ??1?$CComControl@VCOPOSSmartCardRW@@V?$CWindowImpl@VCOPOSSmartCardRW@@VCWindow@ATL@@V?$CWinTraits@$0FGAAAAAA@$0A@@3@@ATL@@@ATL@@UAE@XZ 100294f0 f i SmartCardRWImpl.obj
 0001:00028520       ??1?$CComPtr@UIDataAdviseHolder@@@ATL@@QAE@XZ 10029520 f i SmartCardRWImpl.obj
 0001:00028550       ??1?$CComPtr@UIOleAdviseHolder@@@ATL@@QAE@XZ 10029550 f i SmartCardRWImpl.obj
 0001:00028580       ??1?$CComPtr@UIOleInPlaceSiteWindowless@@@ATL@@QAE@XZ 10029580 f i SmartCardRWImpl.obj
 0001:000285b0       ??1?$CComPtrBase@UIDataAdviseHolder@@@ATL@@QAE@XZ 100295b0 f i SmartCardRWImpl.obj
 0001:00028600       ??1?$CComPtrBase@UIOleAdviseHolder@@@ATL@@QAE@XZ 10029600 f i SmartCardRWImpl.obj
 0001:00028650       ??1?$CComPtrBase@UIOleInPlaceSiteWindowless@@@ATL@@QAE@XZ 10029650 f i SmartCardRWImpl.obj
 0001:000286a0       ??1?$CComQIPtr@UIDispatch@@$1?_GUID_00020400_0000_0000_c000_000000000046@@3U__s_GUID@@B@ATL@@QAE@XZ 100296a0 f i SmartCardRWImpl.obj
 0001:000286d0       ??1?$CProxy_IOPOSEvents@VCOPOSSmartCardRW@@@@QAE@XZ 100296d0 f i SmartCardRWImpl.obj
 0001:00028700       ??1?$CWindowImpl@VCOPOSSmartCardRW@@VCWindow@ATL@@V?$CWinTraits@$0FGAAAAAA@$0A@@3@@ATL@@UAE@XZ 10029700 f i SmartCardRWImpl.obj
 0001:00028730       ??1?$CWindowImplBaseT@VCWindow@ATL@@V?$CWinTraits@$0FGAAAAAA@$0A@@2@@ATL@@UAE@XZ 10029730 f i SmartCardRWImpl.obj
 0001:00028760       ??1?$CWindowImplRoot@VCWindow@ATL@@@ATL@@UAE@XZ 10029760 f i SmartCardRWImpl.obj
 0001:00028800       ??1?$IConnectionPointImpl@VCOPOSSmartCardRW@@$1?DIID__IOPOSSmartCardRWEvents@@3U_GUID@@BVCComDynamicUnkArray@ATL@@@ATL@@QAE@XZ 10029800 f i SmartCardRWImpl.obj
 0001:00028880       ??1?$IConnectionPointImpl@VCOPOSSmartCardRW@@$1?IID_IPropertyNotifySink@@3U_GUID@@BVCComDynamicUnkArray@ATL@@@ATL@@QAE@XZ 10029880 f i SmartCardRWImpl.obj
 0001:00028900       ??1?$IPropertyNotifySinkCP@VCOPOSSmartCardRW@@VCComDynamicUnkArray@ATL@@@ATL@@QAE@XZ 10029900 f i SmartCardRWImpl.obj
 0001:00028930       ??1CComControlBase@ATL@@UAE@XZ 10029930 f i SmartCardRWImpl.obj
 0001:000289f0       ??1CComDynamicUnkArray@ATL@@QAE@XZ 100299f0 f i SmartCardRWImpl.obj
 0001:00028a30       ??1CDynamicStdCallThunk2@ATL@@QAE@XZ 10029a30 f i SmartCardRWImpl.obj
 0001:00028a60       ??1CWndProcThunk@ATL@@QAE@XZ 10029a60 f i SmartCardRWImpl.obj
 0001:00028a90       ??1OposVariantResult@@QAE@XZ 10029a90 f i SmartCardRWImpl.obj
 0001:00028ac0       ??1_CW@@QAE@XZ             10029ac0 f i SmartCardRWImpl.obj
 0001:00028b30       ??1_CWNCC@@QAE@XZ          10029b30 f i SmartCardRWImpl.obj
 0001:00028b60       ??B_CW@@QAEPB_WXZ          10029b60 f i SmartCardRWImpl.obj
 0001:00028ba0       ??B_CWNCC@@QAEPA_WXZ       10029ba0 f i SmartCardRWImpl.obj
 0001:00028bd0       ??_EOposVariant@@QAEPAXI@Z 10029bd0 f i SmartCardRWImpl.obj
 0001:00028c60       ?EventClaim@COPOSSmartCardRW@@IAEXXZ 10029c60 f i SmartCardRWImpl.obj
 0001:00028ca0       ?EventClose@COPOSSmartCardRW@@IAEXXZ 10029ca0 f i SmartCardRWImpl.obj
 0001:00028d40       ?EventInit@COPOSSmartCardRW@@IAEJXZ 10029d40 f i SmartCardRWImpl.obj
 0001:00028f70       ?EventOpen@COPOSSmartCardRW@@IAEXXZ 10029f70 f i SmartCardRWImpl.obj
 0001:00028fb0       ?EventPreCloseRelease@COPOSSmartCardRW@@IAEXXZ 10029fb0 f i SmartCardRWImpl.obj
 0001:00029030       ?EventUninit@COPOSSmartCardRW@@IAEXXZ 1002a030 f i SmartCardRWImpl.obj
 0001:00029160       ?EventWindowProc@COPOSSmartCardRW@@IAGJIIJ@Z 1002a160 f i SmartCardRWImpl.obj
 0001:00029330       ?FireEventCleanup@COPOSSmartCardRW@@IAEXXZ 1002a330 f i SmartCardRWImpl.obj
 0001:00029380       ?FireEventSetup@COPOSSmartCardRW@@IAE_NXZ 1002a380 f i SmartCardRWImpl.obj
 0001:000293f0       ?GetModuleInstance@CComModule@ATL@@QAEPAUHINSTANCE__@@XZ 1002a3f0 f i SmartCardRWImpl.obj
 0001:00029400       ?SetRC@COPOSSmartCardRW@@IAEJJ@Z 1002a400 f i SmartCardRWImpl.obj
 0001:00029420       ?s_EventWindowProc@COPOSSmartCardRW@@KGJPAUHWND__@@IIJ@Z 1002a420 f i SmartCardRWImpl.obj
 0001:000294c0       __snwprintf                1002a4c0 f i SmartCardRWImpl.obj
 0001:00029520       __vfwprintf_l              1002a520 f i SmartCardRWImpl.obj
 0001:00029550       __vsnwprintf               1002a550 f i SmartCardRWImpl.obj
 0001:00029580       __vsnwprintf_l             1002a580 f i SmartCardRWImpl.obj
 0001:000295f0       _vfwprintf                 1002a5f0 f i SmartCardRWImpl.obj
 0001:00029612       _DebugBreak@0              1002a612 f   kernel32:KERNEL32.dll
 0001:00029618       _Sleep@4                   1002a618 f   kernel32:KERNEL32.dll
 0001:0002961e       _GetCurrentProcess@0       1002a61e f   kernel32:KERNEL32.dll
 0001:00029624       _TerminateProcess@8        1002a624 f   kernel32:KERNEL32.dll
 0001:0002962a       _MultiByteToWideChar@24    1002a62a f   kernel32:KERNEL32.dll
 0001:00029630       _WideCharToMultiByte@32    1002a630 f   kernel32:KERNEL32.dll
 0001:00029636       _DecodePointer@4           1002a636 f   kernel32:KERNEL32.dll
 0001:0002963c       _RaiseException@16         1002a63c f   kernel32:KERNEL32.dll
 0001:00029642       _GetLastError@0            1002a642 f   kernel32:KERNEL32.dll
 0001:00029648       _SetLastError@4            1002a648 f   kernel32:KERNEL32.dll
 0001:0002964e       _InitializeCriticalSectionEx@12 1002a64e f   kernel32:KERNEL32.dll
 0001:00029654       _DeleteCriticalSection@4   1002a654 f   kernel32:KERNEL32.dll
 0001:0002965a       _EncodePointer@4           1002a65a f   kernel32:KERNEL32.dll
 0001:00029660       _EnterCriticalSection@4    1002a660 f   kernel32:KERNEL32.dll
 0001:00029666       _LeaveCriticalSection@4    1002a666 f   kernel32:KERNEL32.dll
 0001:0002966c       _ResetEvent@4              1002a66c f   kernel32:KERNEL32.dll
 0001:00029672       _ReleaseMutex@4            1002a672 f   kernel32:KERNEL32.dll
 0001:00029678       _WaitForSingleObject@8     1002a678 f   kernel32:KERNEL32.dll
 0001:0002967e       _GetCurrentThreadId@0      1002a67e f   kernel32:KERNEL32.dll
 0001:00029684       _DisableThreadLibraryCalls@4 1002a684 f   kernel32:KERNEL32.dll
 0001:0002968a       _FreeLibrary@4             1002a68a f   kernel32:KERNEL32.dll
 0001:00029690       _GetModuleFileNameW@12     1002a690 f   kernel32:KERNEL32.dll
 0001:00029696       _GetModuleHandleW@4        1002a696 f   kernel32:KERNEL32.dll
 0001:0002969c       _GetProcAddress@8          1002a69c f   kernel32:KERNEL32.dll
 0001:000296a2       _LoadLibraryExW@12         1002a6a2 f   kernel32:KERNEL32.dll
 0001:000296a8       _LoadResource@8            1002a6a8 f   kernel32:KERNEL32.dll
 0001:000296ae       _SizeofResource@8          1002a6ae f   kernel32:KERNEL32.dll
 0001:000296b4       _FindResourceW@12          1002a6b4 f   kernel32:KERNEL32.dll
 0001:000296ba       _GlobalAlloc@8             1002a6ba f   kernel32:KERNEL32.dll
 0001:000296c0       _GlobalUnlock@4            1002a6c0 f   kernel32:KERNEL32.dll
 0001:000296c6       _GlobalLock@4              1002a6c6 f   kernel32:KERNEL32.dll
 0001:000296cc       _MulDiv@12                 1002a6cc f   kernel32:KERNEL32.dll
 0001:000296d2       _lstrcmpiW@8               1002a6d2 f   kernel32:KERNEL32.dll
 0001:000296d8       _DeleteFileW@4             1002a6d8 f   kernel32:KERNEL32.dll
 0001:000296de       _CloseHandle@4             1002a6de f   kernel32:KERNEL32.dll
 0001:000296e4       _SetEvent@4                1002a6e4 f   kernel32:KERNEL32.dll
 0001:000296ea       _CreateMutexW@12           1002a6ea f   kernel32:KERNEL32.dll
 0001:000296f0       _CreateEventW@16           1002a6f0 f   kernel32:KERNEL32.dll
 0001:000296f6       _GetCurrentProcessId@0     1002a6f6 f   kernel32:KERNEL32.dll
 0001:000296fc       _LocalFree@4               1002a6fc f   kernel32:KERNEL32.dll
 0001:00029702       _FormatMessageW@28         1002a702 f   kernel32:KERNEL32.dll
 0001:00029708       _GetActiveWindow@0         1002a708 f   user32:USER32.dll
 0001:0002970e       _MessageBoxW@16            1002a70e f   user32:USER32.dll
 0001:00029714       _UnregisterClassW@8        1002a714 f   user32:USER32.dll
 0001:0002971a       _PostMessageW@16           1002a71a f   user32:USER32.dll
 0001:00029720       _DefWindowProcW@16         1002a720 f   user32:USER32.dll
 0001:00029726       _CallWindowProcW@20        1002a726 f   user32:USER32.dll
 0001:0002972c       _RegisterClassExW@4        1002a72c f   user32:USER32.dll
 0001:00029732       _GetClassInfoExW@12        1002a732 f   user32:USER32.dll
 0001:00029738       _CreateWindowExW@48        1002a738 f   user32:USER32.dll
 0001:0002973e       _IsWindow@4                1002a73e f   user32:USER32.dll
 0001:00029744       _IsChild@8                 1002a744 f   user32:USER32.dll
 0001:0002974a       _DestroyWindow@4           1002a74a f   user32:USER32.dll
 0001:00029750       _ShowWindow@8              1002a750 f   user32:USER32.dll
 0001:00029756       _SetWindowPos@28           1002a756 f   user32:USER32.dll
 0001:0002975c       _CharNextW@4               1002a75c f   user32:USER32.dll
 0001:00029762       _SetFocus@4                1002a762 f   user32:USER32.dll
 0001:00029768       _GetFocus@0                1002a768 f   user32:USER32.dll
 0001:0002976e       _GetKeyState@4             1002a76e f   user32:USER32.dll
 0001:00029774       _GetDC@4                   1002a774 f   user32:USER32.dll
 0001:0002977a       _ReleaseDC@8               1002a77a f   user32:USER32.dll
 0001:00029780       _BeginPaint@8              1002a780 f   user32:USER32.dll
 0001:00029786       _EndPaint@8                1002a786 f   user32:USER32.dll
 0001:0002978c       _SetWindowRgn@12           1002a78c f   user32:USER32.dll
 0001:00029792       _InvalidateRect@12         1002a792 f   user32:USER32.dll
 0001:00029798       _GetClientRect@8           1002a798 f   user32:USER32.dll
 0001:0002979e       _IntersectRect@12          1002a79e f   user32:USER32.dll
 0001:000297a4       _UnionRect@12              1002a7a4 f   user32:USER32.dll
 0001:000297aa       _OffsetRect@12             1002a7aa f   user32:USER32.dll
 0001:000297b0       _EqualRect@8               1002a7b0 f   user32:USER32.dll
 0001:000297b6       _PtInRect@12               1002a7b6 f   user32:USER32.dll
 0001:000297bc       _GetWindowLongW@8          1002a7bc f   user32:USER32.dll
 0001:000297c2       _SetWindowLongW@12         1002a7c2 f   user32:USER32.dll
 0001:000297c8       _GetParent@4               1002a7c8 f   user32:USER32.dll
 0001:000297ce       _LoadCursorW@8             1002a7ce f   user32:USER32.dll
 0001:000297d4       _PeekMessageW@20           1002a7d4 f   user32:USER32.dll
 0001:000297da       _RegisterClassW@4          1002a7da f   user32:USER32.dll
 0001:000297e0       _LoadBitmapW@8             1002a7e0 f   user32:USER32.dll
 0001:000297e6       _CloseMetaFile@4           1002a7e6 f   gdi32:GDI32.dll
 0001:000297ec       _CreateDCW@16              1002a7ec f   gdi32:GDI32.dll
 0001:000297f2       _CreateMetaFileW@4         1002a7f2 f   gdi32:GDI32.dll
 0001:000297f8       _CreateRectRgnIndirect@4   1002a7f8 f   gdi32:GDI32.dll
 0001:000297fe       _DeleteDC@4                1002a7fe f   gdi32:GDI32.dll
 0001:00029804       _DeleteMetaFile@4          1002a804 f   gdi32:GDI32.dll
 0001:0002980a       _GetDeviceCaps@8           1002a80a f   gdi32:GDI32.dll
 0001:00029810       _RestoreDC@8               1002a810 f   gdi32:GDI32.dll
 0001:00029816       _SaveDC@4                  1002a816 f   gdi32:GDI32.dll
 0001:0002981c       _SetMapMode@8              1002a81c f   gdi32:GDI32.dll
 0001:00029822       _LPtoDP@12                 1002a822 f   gdi32:GDI32.dll
 0001:00029828       _SetViewportOrgEx@16       1002a828 f   gdi32:GDI32.dll
 0001:0002982e       _SetWindowExtEx@16         1002a82e f   gdi32:GDI32.dll
 0001:00029834       _SetWindowOrgEx@16         1002a834 f   gdi32:GDI32.dll
 0001:0002983a       _BitBlt@36                 1002a83a f   gdi32:GDI32.dll
 0001:00029840       _CreateCompatibleDC@4      1002a840 f   gdi32:GDI32.dll
 0001:00029846       _DeleteObject@4            1002a846 f   gdi32:GDI32.dll
 0001:0002984c       _SelectObject@8            1002a84c f   gdi32:GDI32.dll
 0001:00029852       _GetObjectW@12             1002a852 f   gdi32:GDI32.dll
 0001:00029858       _RegCloseKey@4             1002a858 f   advapi32:ADVAPI32.dll
 0001:0002985e       _RegCreateKeyExW@36        1002a85e f   advapi32:ADVAPI32.dll
 0001:00029864       _RegDeleteKeyW@8           1002a864 f   advapi32:ADVAPI32.dll
 0001:0002986a       _RegDeleteValueW@8         1002a86a f   advapi32:ADVAPI32.dll
 0001:00029870       _RegEnumKeyExW@32          1002a870 f   advapi32:ADVAPI32.dll
 0001:00029876       _RegOpenKeyExW@20          1002a876 f   advapi32:ADVAPI32.dll
 0001:0002987c       _RegQueryInfoKeyW@48       1002a87c f   advapi32:ADVAPI32.dll
 0001:00029882       _RegSetValueExW@24         1002a882 f   advapi32:ADVAPI32.dll
 0001:00029888       _RegQueryValueExW@24       1002a888 f   advapi32:ADVAPI32.dll
 0001:0002988e       _CoCreateInstance@20       1002a88e f   ole32:ole32.dll
 0001:00029894       _StringFromGUID2@12        1002a894 f   ole32:ole32.dll
 0001:0002989a       _CoTaskMemAlloc@4          1002a89a f   ole32:ole32.dll
 0001:000298a0       _CoTaskMemRealloc@8        1002a8a0 f   ole32:ole32.dll
 0001:000298a6       _CoTaskMemFree@4           1002a8a6 f   ole32:ole32.dll
 0001:000298ac       _ReadClassStm@8            1002a8ac f   ole32:ole32.dll
 0001:000298b2       _WriteClassStm@8           1002a8b2 f   ole32:ole32.dll
 0001:000298b8       _CreateDataAdviseHolder@4  1002a8b8 f   ole32:ole32.dll
 0001:000298be       _OleSaveToStream@8         1002a8be f   ole32:ole32.dll
 0001:000298c4       _CreateOleAdviseHolder@4   1002a8c4 f   ole32:ole32.dll
 0001:000298ca       _OleRegGetUserType@12      1002a8ca f   ole32:ole32.dll
 0001:000298d0       _OleRegGetMiscStatus@12    1002a8d0 f   ole32:ole32.dll
 0001:000298d6       _OleRegEnumVerbs@8         1002a8d6 f   ole32:ole32.dll
 0001:000298dc       _CLSIDFromProgID@8         1002a8dc f   ole32:ole32.dll
 0001:000298e2       _SysAllocString@4          1002a8e2 f   oleaut32:OLEAUT32.dll
 0001:000298e8       _SysAllocStringLen@8       1002a8e8 f   oleaut32:OLEAUT32.dll
 0001:000298ee       _SysFreeString@4           1002a8ee f   oleaut32:OLEAUT32.dll
 0001:000298f4       _SysStringLen@4            1002a8f4 f   oleaut32:OLEAUT32.dll
 0001:000298fa       _VariantClear@4            1002a8fa f   oleaut32:OLEAUT32.dll
 0001:00029900       _VariantCopyInd@8          1002a900 f   oleaut32:OLEAUT32.dll
 0001:00029906       _VariantChangeType@16      1002a906 f   oleaut32:OLEAUT32.dll
 0001:0002990c       _SysStringByteLen@4        1002a90c f   oleaut32:OLEAUT32.dll
 0001:00029912       _SysAllocStringByteLen@8   1002a912 f   oleaut32:OLEAUT32.dll
 0001:00029918       _VariantInit@4             1002a918 f   oleaut32:OLEAUT32.dll
 0001:0002991e       _VarUI4FromStr@16          1002a91e f   oleaut32:OLEAUT32.dll
 0001:00029924       _LoadTypeLib@8             1002a924 f   oleaut32:OLEAUT32.dll
 0001:0002992a       _LoadRegTypeLib@20         1002a92a f   oleaut32:OLEAUT32.dll
 0001:00029930       _RegisterTypeLib@12        1002a930 f   oleaut32:OLEAUT32.dll
 0001:00029936       _UnRegisterTypeLib@20      1002a936 f   oleaut32:OLEAUT32.dll
 0001:0002993c       _OleCreatePropertyFrame@44 1002a93c f   oleaut32:OLEAUT32.dll
 0001:00029950       @_RTC_AllocaHelper@12      1002a950 f   LIBCMTD:stack.obj
 0001:00029990       @_RTC_CheckStackVars2@12   1002a990 f   LIBCMTD:stack.obj
 0001:00029a70       @_RTC_CheckStackVars@8     1002aa70 f   LIBCMTD:stack.obj
 0001:00029ad0       __RTC_CheckEsp             1002aad0 f   LIBCMTD:stack.obj
 0001:00029b00       @__security_check_cookie@4 1002ab00 f   LIBCMTD:secchk.obj
 0001:00029b10       __CRT_RTC_INIT             1002ab10 f   LIBCMTD:init.obj
 0001:00029b20       __CRT_RTC_INITW            1002ab20 f   LIBCMTD:init.obj
 0001:00029b30       __RTC_InitBase             1002ab30 f   LIBCMTD:init.obj
 0001:00029b60       __RTC_Shutdown             1002ab60 f   LIBCMTD:init.obj
 0001:00029b80       ??_U@YAPAXI@Z              1002ab80 f   LIBCMTD:new_array.obj
 0001:00029ba0       ??3@YAXPAXI@Z              1002aba0 f   LIBCMTD:delete_scalar_size.obj
 0001:00029bc0       ??_V@YAXPAX@Z              1002abc0 f   LIBCMTD:delete_array.obj
 0001:00029be0       ??_V@YAXPAXI@Z             1002abe0 f   LIBCMTD:delete_array_size.obj
 0001:00029c00       ?configure_argv@__scrt_narrow_argv_policy@@SAHXZ 1002ac00 f i LIBCMTD:utility.obj
 0001:00029cb0       ?initialize_environment@__scrt_narrow_environment_policy@@SAHXZ 1002acb0 f i LIBCMTD:utility.obj
 0001:00029d30       _NtCurrentTeb              1002ad30 f i LIBCMTD:utility.obj
 0001:00029d40       ___scrt_acquire_startup_lock 1002ad40 f   LIBCMTD:utility.obj
 0001:00029d90       ___scrt_dllmain_after_initialize_c 1002ad90 f   LIBCMTD:utility.obj
 0001:00029dc0       ___scrt_dllmain_before_initialize_c 1002adc0 f   LIBCMTD:utility.obj
 0001:00029de0       ___scrt_dllmain_crt_thread_attach 1002ade0 f   LIBCMTD:utility.obj
 0001:00029e10       ___scrt_dllmain_crt_thread_detach 1002ae10 f   LIBCMTD:utility.obj
 0001:00029e30       ___scrt_dllmain_exception_filter 1002ae30 f   LIBCMTD:utility.obj
 0001:00029e80       ___scrt_dllmain_uninitialize_c 1002ae80 f   LIBCMTD:utility.obj
 0001:00029eb0       ___scrt_dllmain_uninitialize_critical 1002aeb0 f   LIBCMTD:utility.obj
 0001:00029ed0       ___scrt_initialize_crt     1002aed0 f   LIBCMTD:utility.obj
 0001:00029f20       ___scrt_initialize_onexit_tables 1002af20 f   LIBCMTD:utility.obj
 0001:0002a000       ___scrt_is_nonwritable_in_current_image 1002b000 f   LIBCMTD:utility.obj
 0001:0002a130       ___scrt_release_startup_lock 1002b130 f   LIBCMTD:utility.obj
 0001:0002a160       ___scrt_uninitialize_crt   1002b160 f   LIBCMTD:utility.obj
 0001:0002a1a0       __onexit                   1002b1a0 f   LIBCMTD:utility.obj
 0001:0002a210       _at_quick_exit             1002b210 f   LIBCMTD:utility.obj
 0001:0002a250       _atexit                    1002b250 f   LIBCMTD:utility.obj
 0001:0002a280       ??3@YAXPAX@Z               1002b280 f   LIBCMTD:delete_scalar.obj
 0001:0002a2a0       ___raise_securityfailure   1002b2a0 f   LIBCMTD:gs_report.obj
 0001:0002a2d0       ___report_gsfailure        1002b2d0 f   LIBCMTD:gs_report.obj
 0001:0002a3e0       ___report_rangecheckfailure 1002b3e0 f   LIBCMTD:gs_report.obj
 0001:0002a3f0       ___report_securityfailure  1002b3f0 f   LIBCMTD:gs_report.obj
 0001:0002a4d0       ___report_securityfailureEx 1002b4d0 f   LIBCMTD:gs_report.obj
 0001:0002a720       __Init_thread_abort        1002b720 f   LIBCMTD:thread_safe_statics.obj
 0001:0002a740       __Init_thread_footer       1002b740 f   LIBCMTD:thread_safe_statics.obj
 0001:0002a790       __Init_thread_header       1002b790 f   LIBCMTD:thread_safe_statics.obj
 0001:0002a800       __Init_thread_lock         1002b800 f   LIBCMTD:thread_safe_statics.obj
 0001:0002a810       __Init_thread_notify       1002b810 f   LIBCMTD:thread_safe_statics.obj
 0001:0002a860       __Init_thread_unlock       1002b860 f   LIBCMTD:thread_safe_statics.obj
 0001:0002a870       __Init_thread_wait         1002b870 f   LIBCMTD:thread_safe_statics.obj
 0001:0002a900       ??2@YAPAXIABUnothrow_t@std@@@Z 1002b900 f   LIBCMTD:new_scalar_nothrow.obj
 0001:0002a990       ??_U@YAPAXIABUnothrow_t@std@@@Z 1002b990 f   LIBCMTD:new_array_nothrow.obj
 0001:0002a9b0       __allmul                   1002b9b0 f   LIBCMTD:llmul.obj
 0001:0002a9f0       __alloca_probe_16          1002b9f0 f   LIBCMTD:alloca16.obj
 0001:0002aa06       __alloca_probe_8           1002ba06     LIBCMTD:alloca16.obj
 0001:0002aa20       __alloca_probe             1002ba20 f   LIBCMTD:chkstk.obj
 0001:0002aa20       __chkstk                   1002ba20 f   LIBCMTD:chkstk.obj
 0001:0002af20       __CRT_INIT@12              1002bf20 f   LIBCMTD:dll_dllmain.obj
 0001:0002af40       __DllMainCRTStartup@12     1002bf40 f   LIBCMTD:dll_dllmain.obj
 0001:0002b000       ?_RTC_AllocaFailure@@YAXPAXPAU_RTC_ALLOCA_NODE@@H@Z 1002c000 f   LIBCMTD:error.obj
 0001:0002b0f0       ?_RTC_Failure@@YAXPAXH@Z   1002c0f0 f   LIBCMTD:error.obj
 0001:0002b140       ?_RTC_StackFailure@@YAXPAXPBD@Z 1002c140 f   LIBCMTD:error.obj
 0001:0002b500       __RTC_UninitUse            1002c500 f   LIBCMTD:error.obj
 0001:0002b5b0       __vsprintf_s_l             1002c5b0 f i LIBCMTD:error.obj
 0001:0002b5e0       _sprintf_s                 1002c5e0 f i LIBCMTD:error.obj
 0001:0002b600       ?_RTC_GetErrorFunc@@YAP6AHHPBDH00ZZPBX@Z 1002c600 f   LIBCMTD:userapi.obj
 0001:0002b610       ?_RTC_GetErrorFuncW@@YAP6AHHPB_WH00ZZPBX@Z 1002c610 f   LIBCMTD:userapi.obj
 0001:0002b620       __RTC_GetErrDesc           1002c620 f   LIBCMTD:userapi.obj
 0001:0002b640       __RTC_NumErrors            1002c640 f   LIBCMTD:userapi.obj
 0001:0002b650       __RTC_SetErrorFunc         1002c650 f   LIBCMTD:userapi.obj
 0001:0002b670       __RTC_SetErrorFuncW        1002c670 f   LIBCMTD:userapi.obj
 0001:0002b690       __RTC_SetErrorType         1002c690 f   LIBCMTD:userapi.obj
 0001:0002b6c0       ??2@YAPAXI@Z               1002c6c0 f   LIBCMTD:new_scalar.obj
 0001:0002b710       ___isa_available_init      1002c710 f   LIBCMTD:cpu_disp.obj
 0001:0002ba50       __get_startup_argv_mode    1002ca50 f   LIBCMTD:argv_mode.obj
 0001:0002ba60       ___scrt_is_ucrt_dll_in_use 1002ca60 f   LIBCMTD:ucrt_detection.obj
 0001:0002ba90       ___scrt_fastfail           1002ca90 f   LIBCMTD:utility_desktop.obj
 0001:0002bbd0       ___scrt_get_show_window_mode 1002cbd0 f   LIBCMTD:utility_desktop.obj
 0001:0002bc10       ___scrt_initialize_mta     1002cc10 f   LIBCMTD:utility_desktop.obj
 0001:0002bc20       ___scrt_initialize_winrt   1002cc20 f   LIBCMTD:utility_desktop.obj
 0001:0002bc30       ___scrt_is_managed_app     1002cc30 f   LIBCMTD:utility_desktop.obj
 0001:0002bcc0       ___scrt_set_unhandled_exception_filter 1002ccc0 f   LIBCMTD:utility_desktop.obj
 0001:0002bcd0       ___scrt_exe_initialize_mta 1002ccd0 f   LIBCMTD:utility_desktop.obj
 0001:0002bcd0       ___scrt_stub_for_initialize_mta 1002ccd0 f   LIBCMTD:utility_desktop.obj
 0001:0002bce0       ___scrt_unhandled_exception_filter@4 1002cce0 f   LIBCMTD:utility_desktop.obj
 0001:0002bd60       __crt_debugger_hook        1002cd60 f   LIBCMTD:utility_desktop.obj
 0001:0002bd70       @_guard_check_icall_nop@4  1002cd70 f i LIBCMTD:guard_support.obj
 0001:0002bd80       _ReadNoFence               1002cd80 f i LIBCMTD:guard_support.obj
 0001:0002bda0       _ReadPointerNoFence        1002cda0 f i LIBCMTD:guard_support.obj
 0001:0002bdc0       ___castguard_check_failure_debugbreak 1002cdc0 f i LIBCMTD:guard_support.obj
 0001:0002bde0       ___castguard_check_failure_fastfail 1002cde0 f i LIBCMTD:guard_support.obj
 0001:0002be00       ___castguard_check_failure_nop 1002ce00 f i LIBCMTD:guard_support.obj
 0001:0002be10       ___castguard_check_failure_os_handled 1002ce10 f i LIBCMTD:guard_support.obj
 0001:0002bea0       ___castguard_slow_path_check_debugbreak 1002cea0 f i LIBCMTD:guard_support.obj
 0001:0002bed0       ___castguard_slow_path_check_fastfail 1002ced0 f i LIBCMTD:guard_support.obj
 0001:0002bf10       ___castguard_slow_path_check_nop 1002cf10 f i LIBCMTD:guard_support.obj
 0001:0002bf20       ___castguard_slow_path_check_os_handled 1002cf20 f i LIBCMTD:guard_support.obj
 0001:0002bfa0       __guard_icall_checks_enforced 1002cfa0 f i LIBCMTD:guard_support.obj
 0001:0002c040       ___security_init_cookie    1002d040 f   LIBCMTD:gs_support.obj
 0001:0002c0c0       ?__scrt_initialize_type_info@@YAXXZ 1002d0c0 f   LIBCMTD:tncleanup.obj
 0001:0002c0d0       ?__scrt_uninitialize_type_info@@YAXXZ 1002d0d0 f   LIBCMTD:tncleanup.obj
 0001:0002c0f0       ___local_stdio_scanf_options 1002d0f0 f i LIBCMTD:default_local_stdio_options.obj
 0001:0002c100       ___scrt_initialize_default_local_stdio_options 1002d100 f   LIBCMTD:default_local_stdio_options.obj
 0001:0002c140       ___scrt_get_dyn_tls_init_callback 1002d140 f   LIBCMTD:dyn_tls_init.obj
 0001:0002c150       __RTC_Initialize           1002d150 f   LIBCMTD:initsect.obj
 0001:0002c180       __RTC_Terminate            1002d180 f   LIBCMTD:initsect.obj
 0001:0002c630       ?_RTC_GetSrcLine@@YAHPAEPA_WKPAH1K@Z 1002d630 f   LIBCMTD:pdblkup.obj
 0001:0002c9b0       __except_handler4_noexcept 1002d9b0 f   LIBCMTD:chandler4_noexcept.obj
 0001:0002ca10       ??0bad_alloc@std@@AAE@QBD@Z 1002da10 f i LIBCMTD:throw_bad_alloc.obj
 0001:0002ca40       ??0bad_alloc@std@@QAE@ABV01@@Z 1002da40 f i LIBCMTD:throw_bad_alloc.obj
 0001:0002ca70       ??0bad_alloc@std@@QAE@XZ   1002da70 f i LIBCMTD:throw_bad_alloc.obj
 0001:0002caa0       ??0bad_array_new_length@std@@QAE@ABV01@@Z 1002daa0 f i LIBCMTD:throw_bad_alloc.obj
 0001:0002cad0       ??0bad_array_new_length@std@@QAE@XZ 1002dad0 f i LIBCMTD:throw_bad_alloc.obj
 0001:0002cb00       ??0exception@std@@QAE@ABV01@@Z 1002db00 f i LIBCMTD:throw_bad_alloc.obj
 0001:0002cb40       ??0exception@std@@QAE@QBDH@Z 1002db40 f i LIBCMTD:throw_bad_alloc.obj
 0001:0002cb70       ??1bad_alloc@std@@UAE@XZ   1002db70 f i LIBCMTD:throw_bad_alloc.obj
 0001:0002cb90       ??1bad_array_new_length@std@@UAE@XZ 1002db90 f i LIBCMTD:throw_bad_alloc.obj
 0001:0002cbb0       ??1exception@std@@UAE@XZ   1002dbb0 f i LIBCMTD:throw_bad_alloc.obj
 0001:0002cbe0       ??_Gbad_alloc@std@@UAEPAXI@Z 1002dbe0 f i LIBCMTD:throw_bad_alloc.obj
 0001:0002cbe0       ??_Ebad_alloc@std@@UAEPAXI@Z 1002dbe0 f i LIBCMTD:throw_bad_alloc.obj
 0001:0002cc10       ??_Ebad_array_new_length@std@@UAEPAXI@Z 1002dc10 f i LIBCMTD:throw_bad_alloc.obj
 0001:0002cc10       ??_Gbad_array_new_length@std@@UAEPAXI@Z 1002dc10 f i LIBCMTD:throw_bad_alloc.obj
 0001:0002cc40       ??_Gexception@std@@UAEPAXI@Z 1002dc40 f i LIBCMTD:throw_bad_alloc.obj
 0001:0002cc40       ??_Eexception@std@@UAEPAXI@Z 1002dc40 f i LIBCMTD:throw_bad_alloc.obj
 0001:0002cc70       ?__scrt_throw_std_bad_alloc@@YAXXZ 1002dc70 f   LIBCMTD:throw_bad_alloc.obj
 0001:0002cc90       ?__scrt_throw_std_bad_array_new_length@@YAXXZ 1002dc90 f   LIBCMTD:throw_bad_alloc.obj
 0001:0002ccb0       ?what@exception@std@@UBEPBDXZ 1002dcb0 f i LIBCMTD:throw_bad_alloc.obj
 0001:0002cce0       ??1type_info@@UAE@XZ       1002dce0 f   LIBCMTD:std_type_info_static.obj
 0001:0002cd00       ??_Gtype_info@@UAEPAXI@Z   1002dd00 f i LIBCMTD:std_type_info_static.obj
 0001:0002cd00       ??_Etype_info@@UAEPAXI@Z   1002dd00 f i LIBCMTD:std_type_info_static.obj
 0001:0002cd2e       ??$?2PAUHINSTANCE__@@@Wrapper@?$CSimpleArray@PAUHINSTANCE__@@V?$CSimpleArrayEqualHelper@PAUHINSTANCE__@@@ATL@@@ATL@@SAPAXIPAPAUHINSTANCE__@@@Z 1002dd2e f i atls:atlbase.obj
 0001:0002cd36       ??0?$CSimpleArray@PAUHINSTANCE__@@V?$CSimpleArrayEqualHelper@PAUHINSTANCE__@@@ATL@@@ATL@@QAE@XZ 1002dd36 f i atls:atlbase.obj
 0001:0002cd43       ??0CAtlBaseModule@ATL@@QAE@XZ 1002dd43 f   atls:atlbase.obj
 0001:0002cd96       ??0Wrapper@?$CSimpleArray@PAUHINSTANCE__@@V?$CSimpleArrayEqualHelper@PAUHINSTANCE__@@@ATL@@@ATL@@QAE@ABQAUHINSTANCE__@@@Z 1002dd96 f i atls:atlbase.obj
 0001:0002cda6       ??0_ATL_BASE_MODULE70@ATL@@QAE@XZ 1002dda6 f i atls:atlbase.obj
 0001:0002cdc9       ??1?$CSimpleArray@PAUHINSTANCE__@@V?$CSimpleArrayEqualHelper@PAUHINSTANCE__@@@ATL@@@ATL@@QAE@XZ 1002ddc9 f i atls:atlbase.obj
 0001:0002cdce       ??1CAtlBaseModule@ATL@@QAE@XZ 1002ddce f   atls:atlbase.obj
 0001:0002cde4       ??1_ATL_BASE_MODULE70@ATL@@QAE@XZ 1002dde4 f i atls:atlbase.obj
 0001:0002cdec       ??A?$CSimpleArray@PAUHINSTANCE__@@V?$CSimpleArrayEqualHelper@PAUHINSTANCE__@@@ATL@@@ATL@@QAEAAPAUHINSTANCE__@@H@Z 1002ddec f i atls:atlbase.obj
 0001:0002ce11       ?Add@?$CSimpleArray@PAUHINSTANCE__@@V?$CSimpleArrayEqualHelper@PAUHINSTANCE__@@@ATL@@@ATL@@QAEHABQAUHINSTANCE__@@@Z 1002de11 f i atls:atlbase.obj
 0001:0002ce89       ?AddResourceInstance@CAtlBaseModule@ATL@@QAE_NPAUHINSTANCE__@@@Z 1002de89 f   atls:atlbase.obj
 0001:0002cebc       ?GetHInstanceAt@CAtlBaseModule@ATL@@QAEPAUHINSTANCE__@@H@Z 1002debc f   atls:atlbase.obj
 0001:0002cf01       ?GetSize@?$CSimpleArray@PAUHINSTANCE__@@V?$CSimpleArrayEqualHelper@PAUHINSTANCE__@@@ATL@@@ATL@@QBEHXZ 1002df01 f i atls:atlbase.obj
 0001:0002cf05       ?InternalSetAtIndex@?$CSimpleArray@PAUHINSTANCE__@@V?$CSimpleArrayEqualHelper@PAUHINSTANCE__@@@ATL@@@ATL@@QAEXHABQAUHINSTANCE__@@@Z 1002df05 f i atls:atlbase.obj
 0001:0002cf1f       ?RemoveAll@?$CSimpleArray@PAUHINSTANCE__@@V?$CSimpleArrayEqualHelper@PAUHINSTANCE__@@@ATL@@@ATL@@QAEXXZ 1002df1f f i atls:atlbase.obj
 0001:0002cf3c       ?RemoveAt@?$CSimpleArray@PAUHINSTANCE__@@V?$CSimpleArrayEqualHelper@PAUHINSTANCE__@@@ATL@@@ATL@@QAEHH@Z 1002df3c f i atls:atlbase.obj
 0001:0002cf84       ?RemoveResourceInstance@CAtlBaseModule@ATL@@QAE_NPAUHINSTANCE__@@@Z 1002df84 f   atls:atlbase.obj
 0001:0002cfe1       ?memmove_s@Checked@ATL@@YAXPAXIPBXI@Z 1002dfe1 f i atls:atlbase.obj
 0001:0002d33e       ?GetCodeAddress@_stdcallthunk@ATL@@QAEPAXXZ 1002e33e f i atls:atlthunk.obj
 0001:0002d368       ?Init@_stdcallthunk@ATL@@QAEHKPAX@Z 1002e368 f i atls:atlthunk.obj
 0001:0002d39d       ?__AllocStdCallThunk@@YGPAXXZ 1002e39d f   atls:atlthunk.obj
 0001:0002d3a2       ?__AllocStdCallThunk@ATL@@YGPAXXZ 1002e3a2 f   atls:atlthunk.obj
 0001:0002d3a7       ?__AllocStdCallThunk_cmn@@YAPAXXZ 1002e3a7 f   atls:atlthunk.obj
 0001:0002d46d       ?__FreeStdCallThunk@@YGXPAX@Z 1002e46d f   atls:atlthunk.obj
 0001:0002d47d       ?__FreeStdCallThunk@ATL@@YGXPAX@Z 1002e47d f   atls:atlthunk.obj
 0001:0002d48d       ?__FreeStdCallThunk_cmn@@YAXPAX@Z 1002e48d f   atls:atlthunk.obj
 0001:0002d529       _AtlThunk_AllocateData@0   1002e529 f   atls:atlthunk.obj
 0001:0002d58e       _AtlThunk_DataToCode@4     1002e58e f   atls:atlthunk.obj
 0001:0002d5d5       _AtlThunk_FreeData@4       1002e5d5 f   atls:atlthunk.obj
 0001:0002d62b       _AtlThunk_InitData@12      1002e62b f   atls:atlthunk.obj
 0001:0002d67a       _MemoryBarrier             1002e67a f i atls:atlthunk.obj
 0001:0002d688       __InlineInterlockedCompareExchangePointer 1002e688 f i atls:atlthunk.obj
 0001:0002d6a0       _memset                    1002e6a0 f   libvcruntimed:memset.obj
 0001:0002d800       ??$__crt_interlocked_exchange_pointer@$$A6AXXZP6AXXZ@@YAP6AXXZPDS6AXXZQ6AXXZ@Z 1002e800 f i libvcruntimed:purevirt.obj
 0001:0002d810       ??$__crt_interlocked_read_pointer@$$A6AXXZ@@YAP6AXXZPDS6AXXZ@Z 1002e810 f i libvcruntimed:purevirt.obj
 0001:0002d830       ?__crt_interlocked_read_32@@YAHPDH@Z 1002e830 f i libvcruntimed:purevirt.obj
 0001:0002d850       __get_purecall_handler     1002e850 f   libvcruntimed:purevirt.obj
 0001:0002d870       __purecall                 1002e870 f   libvcruntimed:purevirt.obj
 0001:0002d8a0       __set_purecall_handler     1002e8a0 f   libvcruntimed:purevirt.obj
 0001:0002da70       _memcmp                    1002ea70 f   libvcruntimed:memcmp.obj
 0001:0002e340       _memcpy                    1002f340 f   libvcruntimed:memcpy.obj
 0001:0002e8c0       _wcsstr                    1002f8c0 f   libvcruntimed:wcsstr.obj
 0001:0002edf0       __except_handler4          1002fdf0 f   libvcruntimed:chandler4.obj
 0001:0002efe0       ___vcrt_initialize         1002ffe0 f   libvcruntimed:initialization.obj
 0001:0002f020       ___vcrt_thread_attach      10030020 f   libvcruntimed:initialization.obj
 0001:0002f040       ___vcrt_thread_detach      10030040 f   libvcruntimed:initialization.obj
 0001:0002f060       ___vcrt_uninitialize       10030060 f   libvcruntimed:initialization.obj
 0001:0002f080       ___vcrt_uninitialize_critical 10030080 f   libvcruntimed:initialization.obj
 0001:0002f0a0       ??$?0AAViterator@TryBlockMap@__FrameHandler3@@AAV012@$0A@@?$pair@Viterator@TryBlockMap@__FrameHandler3@@V123@@std@@QAE@AAViterator@TryBlockMap@__FrameHandler3@@0@Z 100300a0 f i libvcruntimed:trnsctrl.obj
 0001:0002f0f0       ??$forward@AAViterator@TryBlockMap@__FrameHandler3@@@std@@YAAAViterator@TryBlockMap@__FrameHandler3@@AAV123@@Z 100300f0 f i libvcruntimed:trnsctrl.obj
 0001:0002f100       ??0iterator@TryBlockMap@__FrameHandler3@@QAE@AAV12@I@Z 10030100 f i libvcruntimed:trnsctrl.obj
 0001:0002f130       ?GetRangeOfTrysToCheck@__FrameHandler3@@SA?AU?$pair@Viterator@TryBlockMap@__FrameHandler3@@V123@@std@@AAVTryBlockMap@1@HPAXPBU_s_FuncInfo@@H@Z 10030130 f   libvcruntimed:trnsctrl.obj
 0001:0002f210       ?_CallCatchBlock2@@YAPAXPAUEHRegistrationNode@@PBU_s_FuncInfo@@PAXHK@Z 10030210 f   libvcruntimed:trnsctrl.obj
 0001:0002f280       ?_CallSETranslator@@YAHPAUEHExceptionRecord@@PAUEHRegistrationNode@@PAX2PBU_s_FuncInfo@@H1@Z 10030280 f   libvcruntimed:trnsctrl.obj
 0001:0002f390       ?_JumpToContinuation@@YGXPAXPAUEHRegistrationNode@@@Z 10030390 f   libvcruntimed:trnsctrl.obj
 0001:0002f3d0       ?_UnwindNestedFrames@@YGXPAUEHRegistrationNode@@PAUEHExceptionRecord@@@Z 100303d0 f   libvcruntimed:trnsctrl.obj
 0001:0002f430       __CatchGuardHandler        10030430 f   libvcruntimed:trnsctrl.obj
 0001:0002f480       __CreateFrameInfo          10030480 f   libvcruntimed:trnsctrl.obj
 0001:0002f4b0       __FindAndUnlinkFrame       100304b0 f   libvcruntimed:trnsctrl.obj
 0001:0002f520       __TranslatorGuardHandler   10030520 f   libvcruntimed:trnsctrl.obj
 0001:0002f5d0       ___CxxFrameHandler         100305d0 f   libvcruntimed:trnsctrl.obj
 0001:0002f610       ___CxxFrameHandler2        10030610 f   libvcruntimed:trnsctrl.obj
 0001:0002f650       ___CxxFrameHandler3        10030650 f   libvcruntimed:trnsctrl.obj
 0001:0002f690       ___CxxLongjmpUnwind@4      10030690 f   libvcruntimed:trnsctrl.obj
 0001:0002f6d0       ___DestructExceptionObject 100306d0 f   libvcruntimed:ehhelpers.obj
 0001:0002f7f0       ?_CallMemberFunction0@@YGXQAX0@Z 100307f0 f i libvcruntimed:ehhelpers.obj
 0001:0002f890       ?raw_name@type_info@@QBEPBDXZ 10030890 f i libvcruntimed:ehhelpers.obj
 0001:0002f8b0       __IsExceptionObjectToBeDestroyed 100308b0 f   libvcruntimed:ehhelpers.obj
 0001:0002f8f0       __SetWinRTOutOfMemoryExceptionCallback 100308f0 f   libvcruntimed:ehhelpers.obj
 0001:0002f900       ___AdjustPointer           10030900 f   libvcruntimed:ehhelpers.obj
 0001:0002f950       ___FrameUnwindFilter       10030950 f   libvcruntimed:ehhelpers.obj
 0001:0002f9e0       ___GetPlatformExceptionInfo 100309e0 f   libvcruntimed:ehhelpers.obj
 0001:0002fa60       ___current_exception       10030a60 f   libvcruntimed:ehhelpers.obj
 0001:0002fa70       ___current_exception_context 10030a70 f   libvcruntimed:ehhelpers.obj
 0001:0002fa80       ___processing_throw        10030a80 f   libvcruntimed:ehhelpers.obj
 0001:0002fa90       ___std_terminate           10030a90 f   libvcruntimed:ehhelpers.obj
 0001:0002faa0       __is_exception_typeof      10030aa0 f   libvcruntimed:ehhelpers.obj
 0001:0002fba0       ??$?RD@__crt_internal_free_policy@@QBEXQBD@Z 10030ba0 f i libvcruntimed:std_type_info.obj
 0001:0002fbc0       ??$?RX@__crt_internal_free_policy@@QBEXQBX@Z 10030bc0 f i libvcruntimed:std_type_info.obj
 0001:0002fbe0       ??$__crt_interlocked_compare_exchange_pointer@$$CBDPAD$$T@@YAPBDPDSBDQAD$$T@Z 10030be0 f i libvcruntimed:std_type_info.obj
 0001:0002fc00       ??$__crt_interlocked_read_pointer@$$CBD@@YAPBDPDSBD@Z 10030c00 f i libvcruntimed:std_type_info.obj
 0001:0002fc20       ??0?$__crt_unique_heap_ptr@DU__crt_internal_free_policy@@@@QAE@QAD@Z 10030c20 f i libvcruntimed:std_type_info.obj
 0001:0002fc40       ??0?$__crt_unique_heap_ptr@XU__crt_internal_free_policy@@@@QAE@QAX@Z 10030c40 f i libvcruntimed:std_type_info.obj
 0001:0002fc60       ??1?$__crt_unique_heap_ptr@DU__crt_internal_free_policy@@@@QAE@XZ 10030c60 f i libvcruntimed:std_type_info.obj
 0001:0002fc80       ??1?$__crt_unique_heap_ptr@XU__crt_internal_free_policy@@@@QAE@XZ 10030c80 f i libvcruntimed:std_type_info.obj
 0001:0002fca0       ??B?$__crt_unique_heap_ptr@DU__crt_internal_free_policy@@@@QBE_NXZ 10030ca0 f i libvcruntimed:std_type_info.obj
 0001:0002fcc0       ??B?$__crt_unique_heap_ptr@XU__crt_internal_free_policy@@@@QBE_NXZ 10030cc0 f i libvcruntimed:std_type_info.obj
 0001:0002fd50       ?detach@?$__crt_unique_heap_ptr@XU__crt_internal_free_policy@@@@QAEPAXXZ 10030d50 f i libvcruntimed:std_type_info.obj
 0001:0002fd80       ?get@?$__crt_unique_heap_ptr@DU__crt_internal_free_policy@@@@QBEPADXZ 10030d80 f i libvcruntimed:std_type_info.obj
 0001:0002fd90       ?get@?$__crt_unique_heap_ptr@XU__crt_internal_free_policy@@@@QBEPAXXZ 10030d90 f i libvcruntimed:std_type_info.obj
 0001:0002fda0       ?is_valid@?$__crt_unique_heap_ptr@DU__crt_internal_free_policy@@@@QBE_NXZ 10030da0 f i libvcruntimed:std_type_info.obj
 0001:0002fdd0       ?is_valid@?$__crt_unique_heap_ptr@XU__crt_internal_free_policy@@@@QBE_NXZ 10030dd0 f i libvcruntimed:std_type_info.obj
 0001:0002fe00       ?release@?$__crt_unique_heap_ptr@DU__crt_internal_free_policy@@@@QAEXXZ 10030e00 f i libvcruntimed:std_type_info.obj
 0001:0002fe30       ?release@?$__crt_unique_heap_ptr@XU__crt_internal_free_policy@@@@QAEXXZ 10030e30 f i libvcruntimed:std_type_info.obj
 0001:0002fe60       ___std_type_info_compare   10030e60 f   libvcruntimed:std_type_info.obj
 0001:0002fe90       ___std_type_info_destroy_list 10030e90 f   libvcruntimed:std_type_info.obj
 0001:0002fed0       ___std_type_info_hash      10030ed0 f   libvcruntimed:std_type_info.obj
 0001:0002ff30       ___std_type_info_name      10030f30 f   libvcruntimed:std_type_info.obj
 0001:00030110       ___vcrt_GetModuleFileNameW 10031110 f   libvcruntimed:winapi_thunks.obj
 0001:00030130       ___vcrt_GetModuleHandleW   10031130 f   libvcruntimed:winapi_thunks.obj
 0001:00030140       ___vcrt_LoadLibraryExW     10031140 f   libvcruntimed:winapi_thunks.obj
 0001:00030160       ??$?RD@__crt_public_free_policy@@QBEXQBD@Z 10031160 f i libvcruntimed:std_exception.obj
 0001:00030180       ??0?$__crt_unique_heap_ptr@DU__crt_public_free_policy@@@@QAE@QAD@Z 10031180 f i libvcruntimed:std_exception.obj
 0001:000301a0       ??1?$__crt_unique_heap_ptr@DU__crt_public_free_policy@@@@QAE@XZ 100311a0 f i libvcruntimed:std_exception.obj
 0001:000301c0       ??B?$__crt_unique_heap_ptr@DU__crt_public_free_policy@@@@QBE_NXZ 100311c0 f i libvcruntimed:std_exception.obj
 0001:000301e0       ?detach@?$__crt_unique_heap_ptr@DU__crt_public_free_policy@@@@QAEPADXZ 100311e0 f i libvcruntimed:std_exception.obj
 0001:00030210       ?get@?$__crt_unique_heap_ptr@DU__crt_public_free_policy@@@@QBEPADXZ 10031210 f i libvcruntimed:std_exception.obj
 0001:00030220       ?is_valid@?$__crt_unique_heap_ptr@DU__crt_public_free_policy@@@@QBE_NXZ 10031220 f i libvcruntimed:std_exception.obj
 0001:00030250       ?release@?$__crt_unique_heap_ptr@DU__crt_public_free_policy@@@@QAEXXZ 10031250 f i libvcruntimed:std_exception.obj
 0001:00030280       ___std_exception_copy      10031280 f   libvcruntimed:std_exception.obj
 0001:00030370       ___std_exception_destroy   10031370 f   libvcruntimed:std_exception.obj
 0001:000303a0       __CxxThrowException@8      100313a0 f   libvcruntimed:throw.obj
 0001:00030450       _memmove                   10031450 f   libvcruntimed:memmove.obj
 0001:000309d0       __local_unwind4            100319d0 f   libvcruntimed:exsup4.obj
 0001:00030ac0       __seh_longjmp_unwind4@4    10031ac0 f   libvcruntimed:exsup4.obj
 0001:00030af0       @_EH4_CallFilterFunc@8     10031af0 f   libvcruntimed:exsup4.obj
 0001:00030b10       @_EH4_TransferToHandler@8  10031b10 f   libvcruntimed:exsup4.obj
 0001:00030b30       @_EH4_GlobalUnwind2@8      10031b30 f   libvcruntimed:exsup4.obj
 0001:00030b50       @_EH4_LocalUnwind@16       10031b50 f   libvcruntimed:exsup4.obj
 0001:00030b80       ___except_validate_context_record 10031b80 f   libvcruntimed:jbcxrval.obj
 0001:00030bd0       ___except_validate_jump_buffer 10031bd0 f   libvcruntimed:jbcxrval.obj
 0001:00030bf0       ___except_validate_jump_buffer_common 10031bf0 f i libvcruntimed:jbcxrval.obj
 0001:00030c50       ??$?RU__vcrt_ptd@@@__crt_internal_free_policy@@QBEXQBU__vcrt_ptd@@@Z 10031c50 f i libvcruntimed:per_thread_data.obj
 0001:00030c70       ??0?$__crt_unique_heap_ptr@U__vcrt_ptd@@U__crt_internal_free_policy@@@@QAE@QAU__vcrt_ptd@@@Z 10031c70 f i libvcruntimed:per_thread_data.obj
 0001:00030cb0       ??1?$__crt_unique_heap_ptr@U__vcrt_ptd@@U__crt_internal_free_policy@@@@QAE@XZ 10031cb0 f i libvcruntimed:per_thread_data.obj
 0001:00030cf0       ??B?$__crt_unique_heap_ptr@U__vcrt_ptd@@U__crt_internal_free_policy@@@@QBE_NXZ 10031cf0 f i libvcruntimed:per_thread_data.obj
 0001:00030d10       ?detach@?$__crt_unique_heap_ptr@U__vcrt_ptd@@U__crt_internal_free_policy@@@@QAEPAU__vcrt_ptd@@XZ 10031d10 f i libvcruntimed:per_thread_data.obj
 0001:00030d40       ?get@?$__crt_unique_heap_ptr@U__vcrt_ptd@@U__crt_internal_free_policy@@@@QBEPAU__vcrt_ptd@@XZ 10031d40 f i libvcruntimed:per_thread_data.obj
 0001:00030d50       ?is_valid@?$__crt_unique_heap_ptr@U__vcrt_ptd@@U__crt_internal_free_policy@@@@QBE_NXZ 10031d50 f i libvcruntimed:per_thread_data.obj
 0001:00030d80       ?release@?$__crt_unique_heap_ptr@U__vcrt_ptd@@U__crt_internal_free_policy@@@@QAEXXZ 10031d80 f i libvcruntimed:per_thread_data.obj
 0001:00030de0       ___vcrt_freefls@4          10031de0 f   libvcruntimed:per_thread_data.obj
 0001:00030e10       ___vcrt_freeptd            10031e10 f   libvcruntimed:per_thread_data.obj
 0001:00030e70       ___vcrt_getptd             10031e70 f   libvcruntimed:per_thread_data.obj
 0001:00030e90       ___vcrt_getptd_noexit      10031e90 f   libvcruntimed:per_thread_data.obj
 0001:00030ff0       ___vcrt_getptd_noinit      10031ff0 f   libvcruntimed:per_thread_data.obj
 0001:00031050       ___vcrt_initialize_ptd     10032050 f   libvcruntimed:per_thread_data.obj
 0001:000310a0       ___vcrt_uninitialize_ptd   100320a0 f   libvcruntimed:per_thread_data.obj
 0001:000310d0       ___vcrt_initialize_locks   100320d0 f   libvcruntimed:locks.obj
 0001:00031130       ___vcrt_lock               10032130 f   libvcruntimed:locks.obj
 0001:00031150       ___vcrt_uninitialize_locks 10032150 f   libvcruntimed:locks.obj
 0001:000311a0       ___vcrt_unlock             100321a0 f   libvcruntimed:locks.obj
 0001:00031d10       ??$TypeMatchHelper@V__FrameHandler3@@@@YAHPBU_s_HandlerType@@PBU_s_CatchableType@@PBU_s_ThrowInfo@@@Z 10032d10 f i libvcruntimed:frame.obj
 0001:00031df0       ??$__InternalCxxFrameHandler@V__FrameHandler3@@@@YA?AW4_EXCEPTION_DISPOSITION@@PAUEHExceptionRecord@@PAUEHRegistrationNode@@PAU_CONTEXT@@PAXPBU_s_FuncInfo@@H1E@Z 10032df0 f i libvcruntimed:frame.obj
 0001:00031fb0       ??0HandlerMap@__FrameHandler3@@QAE@PBU_s_TryBlockMapEntry@@II@Z 10032fb0 f i libvcruntimed:frame.obj
 0001:00031fe0       ??0TryBlockMap@__FrameHandler3@@QAE@PBU_s_FuncInfo@@I@Z 10032fe0 f i libvcruntimed:frame.obj
 0001:00032010       ??0bad_exception@std@@QAE@ABV01@@Z 10033010 f i libvcruntimed:frame.obj
 0001:00032040       ??0bad_exception@std@@QAE@XZ 10033040 f i libvcruntimed:frame.obj
 0001:00032070       ??0iterator@HandlerMap@__FrameHandler3@@QAE@AAV12@I@Z 10033070 f i libvcruntimed:frame.obj
 0001:000320a0       ??1bad_exception@std@@UAE@XZ 100330a0 f i libvcruntimed:frame.obj
 0001:000320c0       ??8iterator@HandlerMap@__FrameHandler3@@QBE_NABV012@@Z 100330c0 f i libvcruntimed:frame.obj
 0001:000320f0       ??8type_info@@QBE_NABV0@@Z 100330f0 f i libvcruntimed:frame.obj
 0001:00032130       ??9iterator@HandlerMap@__FrameHandler3@@QBE_NABV012@@Z 10033130 f i libvcruntimed:frame.obj
 0001:00032170       ??Diterator@HandlerMap@__FrameHandler3@@QAE?BU_s_HandlerType@@XZ 10033170 f i libvcruntimed:frame.obj
 0001:000321b0       ??Diterator@TryBlockMap@__FrameHandler3@@QAE?BU_s_TryBlockMapEntry@@XZ 100331b0 f i libvcruntimed:frame.obj
 0001:00032200       ??Eiterator@HandlerMap@__FrameHandler3@@QAEAAV012@XZ 10033200 f i libvcruntimed:frame.obj
 0001:00032220       ??Eiterator@TryBlockMap@__FrameHandler3@@QAEAAV012@XZ 10033220 f i libvcruntimed:frame.obj
 0001:00032240       ??Miterator@TryBlockMap@__FrameHandler3@@QBE_NABV012@@Z 10033240 f i libvcruntimed:frame.obj
 0001:00032270       ??_Gbad_exception@std@@UAEPAXI@Z 10033270 f i libvcruntimed:frame.obj
 0001:00032270       ??_Ebad_exception@std@@UAEPAXI@Z 10033270 f i libvcruntimed:frame.obj
 0001:000322a0       ?BuildCatchObject@__FrameHandler3@@SAXPAUEHExceptionRecord@@PAXPBU_s_HandlerType@@PBU_s_CatchableType@@@Z 100332a0 f   libvcruntimed:frame.obj
 0001:000322c0       ?BuildCatchObjectHelper@__FrameHandler3@@SAHPAUEHExceptionRecord@@PAXPBU_s_HandlerType@@PBU_s_CatchableType@@@Z 100332c0 f   libvcruntimed:frame.obj
 0001:00032660       ?FrameUnwindToEmptyState@__FrameHandler3@@SAXPAUEHRegistrationNode@@PAXPBU_s_FuncInfo@@@Z 10033660 f   libvcruntimed:frame.obj
 0001:00032680       ?FrameUnwindToState@__FrameHandler3@@SAXPAUEHRegistrationNode@@PAXPBU_s_FuncInfo@@H@Z 10033680 f   libvcruntimed:frame.obj
 0001:00032800       ?GetMaxState@__FrameHandler3@@SAHPAXPBU_s_FuncInfo@@@Z 10033800 f i libvcruntimed:frame.obj
 0001:00032920       ?TypeMatch@__FrameHandler3@@SAHPBU_s_HandlerType@@PBU_s_CatchableType@@PBU_s_ThrowInfo@@@Z 10033920 f   libvcruntimed:frame.obj
 0001:00032940       ?_CallMemberFunction1@@YGXQAX00@Z 10033940 f i libvcruntimed:frame.obj
 0001:00032970       ?_CallMemberFunction2@@YGXQAX00H@Z 10033970 f i libvcruntimed:frame.obj
 0001:000329a0       ?begin@HandlerMap@__FrameHandler3@@QAE?AViterator@12@XZ 100339a0 f i libvcruntimed:frame.obj
 0001:000329c0       ?end@HandlerMap@__FrameHandler3@@QAE?AViterator@12@XZ 100339c0 f i libvcruntimed:frame.obj
 0001:000329f0       ?getESTypes@__FrameHandler3@@SAPBU_s_ESTypeList@@PBU_s_FuncInfo@@@Z 100339f0 f i libvcruntimed:frame.obj
 0001:00032a00       ?getLastEntry@HandlerMap@__FrameHandler3@@QAEPBU_s_HandlerType@@XZ 10033a00 f i libvcruntimed:frame.obj
 0001:00032a20       ?getMagicNum@__FrameHandler3@@SAIPBU_s_FuncInfo@@@Z 10033a20 f i libvcruntimed:frame.obj
 0001:00032a30       ?getNumTryBlocks@TryBlockMap@__FrameHandler3@@QAEIXZ 10033a30 f i libvcruntimed:frame.obj
 0001:00032a50       ?isEHs@__FrameHandler3@@SA_NPBU_s_FuncInfo@@@Z 10033a50 f i libvcruntimed:frame.obj
 0001:00032a80       ?isNoExcept@__FrameHandler3@@SA_NPBU_s_FuncInfo@@@Z 10033a80 f i libvcruntimed:frame.obj
 0001:00032ab0       ___BuildCatchObject        10033ab0 f   libvcruntimed:frame.obj
 0001:00032ad0       ___BuildCatchObjectHelper  10033ad0 f   libvcruntimed:frame.obj
 0001:00032af0       ___TypeMatch               10033af0 f   libvcruntimed:frame.obj
 0001:00032b10       ___vcrt_EncodePointer      10033b10 f i libvcruntimed:frame.obj
 0001:00032b20       __CallSettingFrame@12      10033b20 f   libvcruntimed:lowhelpr.obj
 0001:00032b47       __NLG_Return               10033b47     libvcruntimed:lowhelpr.obj
 0001:00032b70       ??$?0$00@DName@@QAE@PBDU?$StringLifeSelector@$00@@@Z 10033b70 f i libvcruntimed:undname.obj
 0001:00032bc0       ??$?0$00@pcharNode@@QAE@PBDHU?$StringLifeSelector@$00@@@Z 10033bc0 f i libvcruntimed:undname.obj
 0001:00032c00       ??$?0$01@DName@@QAE@PBDU?$StringLifeSelector@$01@@@Z 10033c00 f i libvcruntimed:undname.obj
 0001:00032c50       ??$?0$01@pcharNode@@QAE@PBDHU?$StringLifeSelector@$01@@@Z 10033c50 f i libvcruntimed:undname.obj
 0001:00032cd0       ??$?0$0A@@DName@@QAE@PBDU?$StringLifeSelector@$0A@@@@Z 10033cd0 f i libvcruntimed:undname.obj
 0001:00032d20       ??$?0$0A@@pcharNode@@QAE@PBDHU?$StringLifeSelector@$0A@@@@Z 10033d20 f i libvcruntimed:undname.obj
 0001:00032da0       ??$?0_K$0A@@?$optional@_K@std@@QAE@$$QA_K@Z 10033da0 f i libvcruntimed:undname.obj
 0001:00032de0       ??$?0_K@?$_Optional_construct_base@_K@std@@QAE@Uin_place_t@1@$$QA_K@Z 10033de0 f i libvcruntimed:undname.obj
 0001:00032e10       ??$?0_K@?$_Optional_destruct_base@_K$00@std@@QAE@Uin_place_t@1@$$QA_K@Z 10033e10 f i libvcruntimed:undname.obj
 0001:00032e40       ??$append@VDNameNode@@@DName@@AAEXPBVDNameNode@@@Z 10033e40 f i libvcruntimed:undname.obj
 0001:00032ed0       ??$append@VDNameStatusNode@@@DName@@AAEXPBVDNameStatusNode@@@Z 10033ed0 f i libvcruntimed:undname.obj
 0001:00032f60       ??$append@VcharNode@@@DName@@AAEXPBVcharNode@@@Z 10033f60 f i libvcruntimed:undname.obj
 0001:00032ff0       ??$append@VpDNameNode@@@DName@@AAEXPBVpDNameNode@@@Z 10033ff0 f i libvcruntimed:undname.obj
 0001:00033080       ??$append@VpcharNode@@@DName@@AAEXPBVpcharNode@@@Z 10034080 f i libvcruntimed:undname.obj
 0001:00033110       ??$doPchar@$00@DName@@AAEXPBDH@Z 10034110 f i libvcruntimed:undname.obj
 0001:00033220       ??$doPchar@$01@DName@@AAEXPBDH@Z 10034220 f i libvcruntimed:undname.obj
 0001:00033330       ??$doPchar@$0A@@DName@@AAEXPBDH@Z 10034330 f i libvcruntimed:undname.obj
 0001:00033440       ??$forward@_K@std@@YA$$QA_KAA_K@Z 10034440 f i libvcruntimed:undname.obj
 0001:00033450       ??$size@D$04@std@@YAIAAY04$$CBD@Z 10034450 f i libvcruntimed:undname.obj
 0001:00033460       ??$size@D$0EB@@std@@YAIAAY0EB@$$CBD@Z 10034460 f i libvcruntimed:undname.obj
 0001:00033470       ??0?$_Optional_construct_base@_K@std@@QAE@XZ 10034470 f i libvcruntimed:undname.obj
 0001:00033490       ??0?$_Optional_destruct_base@_K$00@std@@QAE@XZ 10034490 f i libvcruntimed:undname.obj
 0001:000334b0       ??0?$optional@_K@std@@QAE@XZ 100344b0 f i libvcruntimed:undname.obj
 0001:000334d0       ??0Block@_HeapManager@@QAE@XZ 100344d0 f i libvcruntimed:undname.obj
 0001:000334f0       ??0DName@@QAE@AAPBDD@Z     100344f0 f   libvcruntimed:undname.obj
 0001:00033660       ??0DName@@QAE@ABUStringLiteral@@@Z 10034660 f   libvcruntimed:undname.obj
 0001:000336b0       ??0DName@@QAE@ABV0@@Z      100346b0 f i libvcruntimed:undname.obj
 0001:000336e0       ??0DName@@QAE@D@Z          100346e0 f   libvcruntimed:undname.obj
 0001:00033710       ??0DName@@QAE@PAV0@@Z      10034710 f   libvcruntimed:undname.obj
 0001:000337c0       ??0DName@@QAE@W4DNameStatus@@@Z 100347c0 f   libvcruntimed:undname.obj
 0001:00033860       ??0DName@@QAE@XZ           10034860 f i libvcruntimed:undname.obj
 0001:00033890       ??0DName@@QAE@_J@Z         10034890 f   libvcruntimed:undname.obj
 0001:00033980       ??0DName@@QAE@_K@Z         10034980 f   libvcruntimed:undname.obj
 0001:00033a30       ??0DNameNode@@IAE@XZ       10034a30 f i libvcruntimed:undname.obj
 0001:00033a50       ??0Replicator@@QAE@XZ      10034a50 f i libvcruntimed:undname.obj
 0001:00033a90       ??0UnDecorator@@QAE@PBDP6APADJ@ZK@Z 10034a90 f i libvcruntimed:undname.obj
 0001:00033b10       ??0_Nontrivial_dummy_type@std@@QAE@XZ 10034b10 f i libvcruntimed:undname.obj
 0001:00033b20       ??0charNode@@QAE@D@Z       10034b20 f i libvcruntimed:undname.obj
 0001:00033b50       ??0pDNameNode@@QAE@PAVDName@@@Z 10034b50 f   libvcruntimed:undname.obj
 0001:00033bb0       ??0pairNode@@QAE@PBVDNameNode@@0@Z 10034bb0 f i libvcruntimed:undname.obj
 0001:00033c10       ??2@YAPAXIAAV_HeapManager@@H@Z 10034c10 f   libvcruntimed:undname.obj
 0001:00033c50       ??4DName@@QAEAAV0@ABUStringLiteral@@@Z 10034c50 f   libvcruntimed:undname.obj
 0001:00033c90       ??4DName@@QAEAAV0@ABV0@@Z  10034c90 f   libvcruntimed:undname.obj
 0001:00033cc0       ??4DName@@QAEAAV0@D@Z      10034cc0 f i libvcruntimed:undname.obj
 0001:00033cf0       ??4DName@@QAEAAV0@PAV0@@Z  10034cf0 f   libvcruntimed:undname.obj
 0001:00033d90       ??4DName@@QAEAAV0@W4DNameStatus@@@Z 10034d90 f   libvcruntimed:undname.obj
 0001:00033e10       ??AReplicator@@QBE?AVDName@@H@Z 10034e10 f   libvcruntimed:undname.obj
 0001:00033e80       ??B?$optional@_K@std@@QBE_NXZ 10034e80 f i libvcruntimed:undname.obj
 0001:00033ea0       ??D?$optional@_K@std@@QGAEAA_KXZ 10034ea0 f i libvcruntimed:undname.obj
 0001:00033f10       ??H@YA?AVDName@@ABUStringLiteral@@ABV0@@Z 10034f10 f i libvcruntimed:undname.obj
 0001:00033f40       ??H@YA?AVDName@@DABV0@@Z   10034f40 f i libvcruntimed:undname.obj
 0001:00033f70       ??H@YA?AVDName@@W4DNameStatus@@ABV0@@Z 10034f70 f i libvcruntimed:undname.obj
 0001:00033fa0       ??HDName@@QBE?AV0@ABUStringLiteral@@@Z 10034fa0 f   libvcruntimed:undname.obj
 0001:00033fe0       ??HDName@@QBE?AV0@ABV0@@Z  10034fe0 f   libvcruntimed:undname.obj
 0001:00034020       ??HDName@@QBE?AV0@D@Z      10035020 f   libvcruntimed:undname.obj
 0001:00034060       ??HDName@@QBE?AV0@PAV0@@Z  10035060 f   libvcruntimed:undname.obj
 0001:000340a0       ??HDName@@QBE?AV0@W4DNameStatus@@@Z 100350a0 f   libvcruntimed:undname.obj
 0001:000340e0       ??HStringLiteral@@QBE?AU0@H@Z 100350e0 f i libvcruntimed:undname.obj
 0001:00034110       ??YDName@@QAEAAV0@ABUStringLiteral@@@Z 10035110 f   libvcruntimed:undname.obj
 0001:000341b0       ??YDName@@QAEAAV0@ABV0@@Z  100351b0 f   libvcruntimed:undname.obj
 0001:00034250       ??YDName@@QAEAAV0@D@Z      10035250 f   libvcruntimed:undname.obj
 0001:000342d0       ??YDName@@QAEAAV0@PAV0@@Z  100352d0 f   libvcruntimed:undname.obj
 0001:00034380       ??YDName@@QAEAAV0@W4DNameStatus@@@Z 10035380 f   libvcruntimed:undname.obj
 0001:000343e0       ??YReplicator@@QAEAAV0@ABVDName@@@Z 100353e0 f   libvcruntimed:undname.obj
 0001:00034470       ??_5DName@@QAEAAV0@ABV0@@Z 10035470 f   libvcruntimed:undname.obj
 0001:000344d0       ??__K_l@@YA?AUStringLiteral@@PBDI@Z 100354d0 f i libvcruntimed:undname.obj
 0001:000344f0       ?Constructor@_HeapManager@@QAEXP6APAXI@ZP6AXPAX@Z@Z 100354f0 f i libvcruntimed:undname.obj
 0001:00034530       ?Destructor@_HeapManager@@QAEXXZ 10035530 f i libvcruntimed:undname.obj
 0001:000345a0       ?UScore@UnDecorator@@SA?AUStringLiteral@@W4Tokens@@@Z 100355a0 f   libvcruntimed:undname.obj
 0001:000345f0       ?composeDeclaration@UnDecorator@@CA?AVDName@@ABV2@@Z 100355f0 f i libvcruntimed:undname.obj
 0001:00036560       ?dbGetString@DName@@QBEPADXZ 10037560 f   libvcruntimed:undname.obj
 0001:00036580       ?doAccessSpecifiers@UnDecorator@@SAHXZ 10037580 f i libvcruntimed:undname.obj
 0001:000365b0       ?doAllocationLanguage@UnDecorator@@SAHXZ 100375b0 f i libvcruntimed:undname.obj
 0001:000365e0       ?doAllocationModel@UnDecorator@@SAHXZ 100375e0 f i libvcruntimed:undname.obj
 0001:00036610       ?doEcsu@UnDecorator@@SAHXZ 10037610 f i libvcruntimed:undname.obj
 0001:00036640       ?doEllipsis@UnDecorator@@SAHXZ 10037640 f i libvcruntimed:undname.obj
 0001:00036670       ?doFunctionReturns@UnDecorator@@SAHXZ 10037670 f i libvcruntimed:undname.obj
 0001:000366a0       ?doMSKeywords@UnDecorator@@SAHXZ 100376a0 f i libvcruntimed:undname.obj
 0001:000366d0       ?doMemberTypes@UnDecorator@@SAHXZ 100376d0 f i libvcruntimed:undname.obj
 0001:00036700       ?doNameOnly@UnDecorator@@SAHXZ 10037700 f i libvcruntimed:undname.obj
 0001:00036710       ?doNoIdentCharCheck@UnDecorator@@SAHXZ 10037710 f i libvcruntimed:undname.obj
 0001:00036720       ?doPchar@DName@@AAEXD@Z    10037720 f   libvcruntimed:undname.obj
 0001:00036790       ?doPtr64@UnDecorator@@SAHXZ 10037790 f i libvcruntimed:undname.obj
 0001:000367c0       ?doRestrictionSpec@UnDecorator@@SAHXZ 100377c0 f i libvcruntimed:undname.obj
 0001:000367f0       ?doThisTypes@UnDecorator@@SAHXZ 100377f0 f i libvcruntimed:undname.obj
 0001:00036820       ?doThrowTypes@UnDecorator@@SAHXZ 10037820 f i libvcruntimed:undname.obj
 0001:00036850       ?doTypeOnly@UnDecorator@@SAHXZ 10037850 f i libvcruntimed:undname.obj
 0001:00036860       ?doUnderScore@UnDecorator@@SAHXZ 10037860 f i libvcruntimed:undname.obj
 0001:00036890       ?getAddressOf@UnDecorator@@CA?AVDName@@XZ 10037890 f   libvcruntimed:undname.obj
 0001:00036910       ?getArgumentList@UnDecorator@@CA?AVDName@@XZ 10037910 f   libvcruntimed:undname.obj
 0001:00036a60       ?getArgumentTypes@UnDecorator@@CA?AVDName@@XZ 10037a60 f   libvcruntimed:undname.obj
 0001:00036c30       ?getArrayAccess@UnDecorator@@CA?AVDName@@XZ 10037c30 f   libvcruntimed:undname.obj
 0001:00036cd0       ?getArrayObject@UnDecorator@@CA?AVDName@@XZ 10037cd0 f   libvcruntimed:undname.obj
 0001:00036db0       ?getArrayType@UnDecorator@@CA?AVDName@@ABV2@@Z 10037db0 f i libvcruntimed:undname.obj
 0001:00037050       ?getBasedType@UnDecorator@@CA?AVDName@@XZ 10038050 f   libvcruntimed:undname.obj
 0001:00037140       ?getBasicDataType@UnDecorator@@CA?AVDName@@ABV2@@Z 10038140 f   libvcruntimed:undname.obj
 0001:00037ab0       ?getCHPEName@UnDecorator@@QAEPADPADH@Z 10038ab0 f i libvcruntimed:undname.obj
 0001:00037c10       ?getCallIndex@UnDecorator@@CA?AVDName@@XZ 10038c10 f i libvcruntimed:undname.obj
 0001:00037c30       ?getCallingConvention@UnDecorator@@CA?AVDName@@XZ 10038c30 f   libvcruntimed:undname.obj
 0001:00037e90       ?getDataIndirectType@UnDecorator@@CA?AVDName@@ABV2@W4IndirectionKind@@0H@Z 10038e90 f   libvcruntimed:undname.obj
 0001:000387b0       ?getDataIndirectType@UnDecorator@@CA?AVDName@@XZ 100397b0 f i libvcruntimed:undname.obj
 0001:000387f0       ?getDataType@UnDecorator@@CA?AVDName@@PAV2@@Z 100397f0 f   libvcruntimed:undname.obj
 0001:00038930       ?getDecoratedName@UnDecorator@@CA?AVDName@@XZ 10039930 f   libvcruntimed:undname.obj
 0001:00038d70       ?getDimension@UnDecorator@@CA?AVDName@@_N@Z 10039d70 f   libvcruntimed:undname.obj
 0001:00038fd0       ?getDispatchTarget@UnDecorator@@CA?AVDName@@XZ 10039fd0 f   libvcruntimed:undname.obj
 0001:00039070       ?getDisplacement@UnDecorator@@CA?AVDName@@XZ 1003a070 f i libvcruntimed:undname.obj
 0001:00039090       ?getECSUDataType@UnDecorator@@CA?AVDName@@XZ 1003a090 f   libvcruntimed:undname.obj
 0001:000392f0       ?getECSUName@UnDecorator@@CA?AVDName@@XZ 1003a2f0 f i libvcruntimed:undname.obj
 0001:00039310       ?getEnumType@UnDecorator@@CA?AVDName@@XZ 1003a310 f i libvcruntimed:undname.obj
 0001:000394d0       ?getExtendedDataIndirectType@UnDecorator@@CA?AVDName@@AAW4IndirectionKind@@AA_NH@Z 1003a4d0 f   libvcruntimed:undname.obj
 0001:00039720       ?getExternalDataType@UnDecorator@@CA?AVDName@@ABV2@@Z 1003a720 f i libvcruntimed:undname.obj
 0001:000397c0       ?getFloatingPoint@UnDecorator@@CA?AVDName@@H@Z 1003a7c0 f   libvcruntimed:undname.obj
 0001:00039980       ?getFunctionIndirectType@UnDecorator@@CA?AVDName@@ABV2@@Z 1003a980 f   libvcruntimed:undname.obj
 0001:00039e60       ?getGuardNumber@UnDecorator@@CA?AVDName@@XZ 1003ae60 f i libvcruntimed:undname.obj
 0001:00039e80       ?getLastChar@DName@@QBEDXZ 1003ae80 f i libvcruntimed:undname.obj
 0001:00039ec0       ?getLastChar@DNameStatusNode@@UBEDXZ 1003aec0 f i libvcruntimed:undname.obj
 0001:00039ef0       ?getLastChar@charNode@@UBEDXZ 1003aef0 f i libvcruntimed:undname.obj
 0001:00039f10       ?getLastChar@pDNameNode@@UBEDXZ 1003af10 f i libvcruntimed:undname.obj
 0001:00039f40       ?getLastChar@pairNode@@UBEDXZ 1003af40 f i libvcruntimed:undname.obj
 0001:00039fb0       ?getLastChar@pcharNode@@UBEDXZ 1003afb0 f i libvcruntimed:undname.obj
 0001:00039ff0       ?getLexicalFrame@UnDecorator@@CA?AVDName@@XZ 1003aff0 f i libvcruntimed:undname.obj
 0001:0003a030       ?getMemberAccess@UnDecorator@@CA?AVDName@@XZ 1003b030 f   libvcruntimed:undname.obj
 0001:0003a0c0       ?getMemoryWithBuffer@_HeapManager@@QAEPAXI@Z 1003b0c0 f   libvcruntimed:undname.obj
 0001:0003a1b0       ?getMemoryWithoutBuffer@_HeapManager@@QAEPAXI@Z 1003b1b0 f   libvcruntimed:undname.obj
 0001:0003a1f0       ?getNoexcept@UnDecorator@@CA?AVDName@@XZ 1003b1f0 f   libvcruntimed:undname.obj
 0001:0003a270       ?getNumberOfDimensions@UnDecorator@@CAHXZ 1003b270 f   libvcruntimed:undname.obj
 0001:0003a370       ?getOperatorName@UnDecorator@@CA?AVDName@@_NPA_N@Z 1003b370 f i libvcruntimed:undname.obj
 0001:0003ae70       ?getPointerToMember@UnDecorator@@CA?AVDName@@XZ 1003be70 f   libvcruntimed:undname.obj
 0001:0003af60       ?getPointerType@UnDecorator@@CA?AVDName@@ABV2@0@Z 1003bf60 f i libvcruntimed:undname.obj
 0001:0003af80       ?getPointerTypeArray@UnDecorator@@CA?AVDName@@ABV2@0@Z 1003bf80 f i libvcruntimed:undname.obj
 0001:0003afa0       ?getPrimaryDataType@UnDecorator@@CA?AVDName@@ABV2@@Z 1003bfa0 f   libvcruntimed:undname.obj
 0001:0003b430       ?getPtrRefDataType@UnDecorator@@CA?AVDName@@ABV2@H@Z 1003c430 f   libvcruntimed:undname.obj
 0001:0003b6e0       ?getPtrRefType@UnDecorator@@CA?AVDName@@ABV2@0W4IndirectionKind@@@Z 1003c6e0 f   libvcruntimed:undname.obj
 0001:0003b860       ?getReferenceType@UnDecorator@@CA?AVDName@@ABV2@0W4IndirectionKind@@@Z 1003c860 f i libvcruntimed:undname.obj
 0001:0003b880       ?getRestrictionSpec@UnDecorator@@CA?AVDName@@XZ 1003c880 f   libvcruntimed:undname.obj
 0001:0003ba40       ?getReturnType@UnDecorator@@CA?AVDName@@PAV2@@Z 1003ca40 f   libvcruntimed:undname.obj
 0001:0003ba90       ?getScope@UnDecorator@@CA?AVDName@@XZ 1003ca90 f   libvcruntimed:undname.obj
 0001:0003c020       ?getScopedName@UnDecorator@@CA?AVDName@@XZ 1003d020 f   libvcruntimed:undname.obj
 0001:0003c170       ?getSignedDimension@UnDecorator@@CA?AVDName@@XZ 1003d170 f   libvcruntimed:undname.obj
 0001:0003c1f0       ?getStorageConvention@UnDecorator@@CA?AVDName@@XZ 1003d1f0 f i libvcruntimed:undname.obj
 0001:0003c210       ?getString@DName@@QBEPADPAD0@Z 1003d210 f i libvcruntimed:undname.obj
 0001:0003c270       ?getString@DName@@QBEPADPADH@Z 1003d270 f i libvcruntimed:undname.obj
 0001:0003c300       ?getString@DNameStatusNode@@UBEPADPAD0@Z 1003d300 f i libvcruntimed:undname.obj
 0001:0003c340       ?getString@charNode@@UBEPADPAD0@Z 1003d340 f i libvcruntimed:undname.obj
 0001:0003c370       ?getString@pDNameNode@@UBEPADPAD0@Z 1003d370 f i libvcruntimed:undname.obj
 0001:0003c3b0       ?getString@pairNode@@UBEPADPAD0@Z 1003d3b0 f i libvcruntimed:undname.obj
 0001:0003c440       ?getString@pcharNode@@UBEPADPAD0@Z 1003d440 f i libvcruntimed:undname.obj
 0001:0003c470       ?getStringEncoding@UnDecorator@@CA?AVDName@@W4PrefixKind@@H@Z 1003d470 f   libvcruntimed:undname.obj
 0001:0003c580       ?getStringHelper@@YAPADPADPBD1H@Z 1003d580 f i libvcruntimed:undname.obj
 0001:0003c5c0       ?getStringObject@UnDecorator@@CA?AVDName@@XZ 1003d5c0 f   libvcruntimed:undname.obj
 0001:0003c670       ?getSymbolName@UnDecorator@@CA?AVDName@@XZ 1003d670 f i libvcruntimed:undname.obj
 0001:0003c700       ?getTemplateArgumentList@UnDecorator@@CA?AVDName@@XZ 1003d700 f   libvcruntimed:undname.obj
 0001:0003c9f0       ?getTemplateName@UnDecorator@@CA?AVDName@@_N@Z 1003d9f0 f   libvcruntimed:undname.obj
 0001:0003cbb0       ?getTemplateNonTypeArgument@UnDecorator@@CA?AVDName@@XZ 1003dbb0 f   libvcruntimed:undname.obj
 0001:0003d1f0       ?getTemplateTypeArgument@UnDecorator@@CA?AVDName@@XZ 1003e1f0 f   libvcruntimed:undname.obj
 0001:0003d390       ?getThisType@UnDecorator@@CA?AVDName@@XZ 1003e390 f i libvcruntimed:undname.obj
 0001:0003d3d0       ?getThrowTypes@UnDecorator@@CA?AVDName@@XZ 1003e3d0 f   libvcruntimed:undname.obj
 0001:0003d410       ?getTypeEncoding@UnDecorator@@CAHXZ 1003e410 f i libvcruntimed:undname.obj
 0001:0003ded0       ?getUndecoratedName@UnDecorator@@QAEPADPADH@Z 1003eed0 f i libvcruntimed:undname.obj
 0001:0003e030       ?getUnionObject@UnDecorator@@CA?AVDName@@XZ 1003f030 f   libvcruntimed:undname.obj
 0001:0003e100       ?getVCallThunkType@UnDecorator@@CA?AVDName@@XZ 1003f100 f i libvcruntimed:undname.obj
 0001:0003e180       ?getValue@UnDecorator@@CA?AV?$optional@_K@std@@XZ 1003f180 f   libvcruntimed:undname.obj
 0001:0003e240       ?getValueObject@UnDecorator@@CA?AVDName@@XZ 1003f240 f   libvcruntimed:undname.obj
 0001:0003e420       ?getVbTableType@UnDecorator@@CA?AVDName@@ABV2@@Z 1003f420 f i libvcruntimed:undname.obj
 0001:0003e440       ?getVdispMapType@UnDecorator@@CA?AVDName@@ABV2@@Z 1003f440 f i libvcruntimed:undname.obj
 0001:0003e4d0       ?getVfTableType@UnDecorator@@CA?AVDName@@ABV2@@Z 1003f4d0 f i libvcruntimed:undname.obj
 0001:0003e6d0       ?getZName@UnDecorator@@CA?AVDName@@_N0@Z 1003f6d0 f   libvcruntimed:undname.obj
 0001:0003ea00       ?haveTemplateParameters@UnDecorator@@SAHXZ 1003fa00 f i libvcruntimed:undname.obj
 0001:0003ea10       ?isArray@DName@@QBEHXZ     1003fa10 f i libvcruntimed:undname.obj
 0001:0003ea30       ?isComArray@DName@@QBEHXZ  1003fa30 f i libvcruntimed:undname.obj
 0001:0003ea50       ?isEmpty@DName@@QBEHXZ     1003fa50 f i libvcruntimed:undname.obj
 0001:0003ea80       ?isFull@Replicator@@QBEHXZ 1003fa80 f i libvcruntimed:undname.obj
 0001:0003eab0       ?isNoTE@DName@@QBEHXZ      1003fab0 f i libvcruntimed:undname.obj
 0001:0003ead0       ?isPinPtr@DName@@QBEHXZ    1003fad0 f i libvcruntimed:undname.obj
 0001:0003eaf0       ?isPtrRef@DName@@QBEHXZ    1003faf0 f i libvcruntimed:undname.obj
 0001:0003eb10       ?isUDC@DName@@QBEHXZ       1003fb10 f i libvcruntimed:undname.obj
 0001:0003eb50       ?isUDTThunk@DName@@QBEHXZ  1003fb50 f i libvcruntimed:undname.obj
 0001:0003eb90       ?isVCallThunk@DName@@QBEHXZ 1003fb90 f i libvcruntimed:undname.obj
 0001:0003ebb0       ?isValid@DName@@QBEHXZ     1003fbb0 f i libvcruntimed:undname.obj
 0001:0003ebf0       ?length@DName@@QBEHXZ      1003fbf0 f i libvcruntimed:undname.obj
 0001:0003ec30       ?length@DNameStatusNode@@UBEHXZ 1003fc30 f i libvcruntimed:undname.obj
 0001:0003ec50       ?length@charNode@@UBEHXZ   1003fc50 f i libvcruntimed:undname.obj
 0001:0003ec60       ?length@pDNameNode@@UBEHXZ 1003fc60 f i libvcruntimed:undname.obj
 0001:0003ec90       ?length@pairNode@@UBEHXZ   1003fc90 f i libvcruntimed:undname.obj
 0001:0003ed00       ?length@pcharNode@@UBEHXZ  1003fd00 f i libvcruntimed:undname.obj
 0001:0003ed20       ?make@DNameStatusNode@@SAPBV1@W4DNameStatus@@@Z 1003fd20 f i libvcruntimed:undname.obj
 0001:0003ed50       ?parseDecoratedName@UnDecorator@@CA?AVDName@@XZ 1003fd50 f   libvcruntimed:undname.obj
 0001:0003eee0       ?raw_length@DNameStatusNode@@UBEHXZ 1003fee0 f i libvcruntimed:undname.obj
 0001:0003ef00       ?raw_length@charNode@@UBEHXZ 1003ff00 f i libvcruntimed:undname.obj
 0001:0003ef20       ?raw_length@pDNameNode@@UBEHXZ 1003ff20 f i libvcruntimed:undname.obj
 0001:0003ef30       ?raw_length@pairNode@@UBEHXZ 1003ff30 f i libvcruntimed:undname.obj
 0001:0003ef50       ?raw_length@pcharNode@@UBEHXZ 1003ff50 f i libvcruntimed:undname.obj
 0001:0003ef70       ?setIsArray@DName@@QAEXXZ  1003ff70 f i libvcruntimed:undname.obj
 0001:0003ef90       ?setIsComArray@DName@@QAEXXZ 1003ff90 f i libvcruntimed:undname.obj
 0001:0003efb0       ?setIsNoTE@DName@@QAEXXZ   1003ffb0 f i libvcruntimed:undname.obj
 0001:0003efd0       ?setIsPinPtr@DName@@QAEXXZ 1003ffd0 f i libvcruntimed:undname.obj
 0001:0003eff0       ?setIsUDC@DName@@QAEXXZ    1003fff0 f i libvcruntimed:undname.obj
 0001:0003f020       ?setIsVCallThunk@DName@@QAEXXZ 10040020 f i libvcruntimed:undname.obj
 0001:0003f040       ?setPtrRef@DName@@QAEAAV1@XZ 10040040 f i libvcruntimed:undname.obj
 0001:0003f060       ?status@DName@@QBE?AW4DNameStatus@@XZ 10040060 f i libvcruntimed:undname.obj
 0001:0003f160       ___unDName                 10040160 f   libvcruntimed:undname.obj
 0001:0003f190       ___unDNameEx               10040190 f   libvcruntimed:undname.obj
 0001:0003f260       _unDNameGenerateCHPE       10040260 f   libvcruntimed:undname.obj
 0001:0003f2c0       __global_unwind2           100402c0 f   libvcruntimed:exsup.obj
 0001:0003f340       __local_unwind2            10040340 f   libvcruntimed:exsup.obj
 0001:0003f3e0       __abnormal_termination     100403e0 f   libvcruntimed:exsup.obj
 0001:0003f410       __NLG_Notify1              10040410 f   libvcruntimed:exsup.obj
 0001:0003f420       __NLG_Notify               10040420 f   libvcruntimed:exsup.obj
 0001:0003f437       __NLG_Dispatch2            10040437     libvcruntimed:exsup.obj
 0001:0003f437       __NLG_Dispatch             10040437     libvcruntimed:exsup.obj
 0001:0003f440       __NLG_Call                 10040440 f   libvcruntimed:exsup.obj
 0001:0003f442       __NLG_Return2              10040442     libvcruntimed:exsup.obj
 0001:0003f450       ??$__crt_interlocked_exchange_pointer@UHINSTANCE__@@PAU1@@@YAPAUHINSTANCE__@@PDSAU0@QAU0@@Z 10040450 f i libvcruntimed:winapi_downlevel.obj
 0001:0003f460       ??$__crt_interlocked_exchange_pointer@UHINSTANCE__@@PAX@@YAPAUHINSTANCE__@@PDSAU0@QAX@Z 10040460 f i libvcruntimed:winapi_downlevel.obj
 0001:0003f470       ??$__crt_interlocked_exchange_pointer@XPAX@@YAPAXPDSAXQAX@Z 10040470 f i libvcruntimed:winapi_downlevel.obj
 0001:0003f480       ??$__crt_interlocked_read_pointer@UHINSTANCE__@@@@YAPAUHINSTANCE__@@PDSAU0@@Z 10040480 f i libvcruntimed:winapi_downlevel.obj
 0001:0003f4a0       ??$__crt_interlocked_read_pointer@X@@YAPAXPDSAX@Z 100404a0 f i libvcruntimed:winapi_downlevel.obj
 0001:0003f870       ___vcrt_FlsAlloc           10040870 f   libvcruntimed:winapi_downlevel.obj
 0001:0003f8b0       ___vcrt_FlsFree            100408b0 f   libvcruntimed:winapi_downlevel.obj
 0001:0003f8f0       ___vcrt_FlsGetValue        100408f0 f   libvcruntimed:winapi_downlevel.obj
 0001:0003f930       ___vcrt_FlsSetValue        10040930 f   libvcruntimed:winapi_downlevel.obj
 0001:0003f980       ___vcrt_InitializeCriticalSectionEx 10040980 f   libvcruntimed:winapi_downlevel.obj
 0001:0003fa00       __get_unexpected           10040a00 f   libvcruntimed:unexpected.obj
 0001:0003fa20       _set_unexpected            10040a20 f   libvcruntimed:unexpected.obj
 0001:0003fa50       _unexpected                10040a50 f   libvcruntimed:unexpected.obj
 0001:0003fa90       ?GetCurrentState@__FrameHandler3@@SAHPAUEHRegistrationNode@@PAXPBU_s_FuncInfo@@@Z 10040a90 f   libvcruntimed:ehstate.obj
 0001:0003fac0       ?SetState@__FrameHandler3@@SAXPAUEHRegistrationNode@@PBU_s_FuncInfo@@H@Z 10040ac0 f   libvcruntimed:ehstate.obj
 0001:0003fad0       ??$?0ABV?$stream_output_adapter@D@__crt_stdio_output@@AB_KABQBDAAV__crt_cached_ptd_host@@ABQAD@?$format_validation_base@DV?$stream_output_adapter@D@__crt_stdio_output@@@__crt_stdio_output@@IAE@ABV?$stream_output_adapter@D@1@AB_KABQBDAAV__crt_cached_ptd_host@@ABQAD@Z 10040ad0 f i libucrtd:output.obj
 0001:0003fb00       ??$?0ABV?$stream_output_adapter@D@__crt_stdio_output@@AB_KABQBDAAV__crt_cached_ptd_host@@ABQAD@?$positional_parameter_base@DV?$stream_output_adapter@D@__crt_stdio_output@@@__crt_stdio_output@@IAE@ABV?$stream_output_adapter@D@1@AB_KABQBDAAV__crt_cached_ptd_host@@ABQAD@Z 10040b00 f i libucrtd:output.obj
 0001:0003fb80       ??$?0ABV?$stream_output_adapter@D@__crt_stdio_output@@AB_KABQBDAAV__crt_cached_ptd_host@@ABQAD@?$standard_base@DV?$stream_output_adapter@D@__crt_stdio_output@@@__crt_stdio_output@@IAE@ABV?$stream_output_adapter@D@1@AB_KABQBDAAV__crt_cached_ptd_host@@ABQAD@Z 10040b80 f i libucrtd:output.obj
 0001:0003fbd0       ??$?0ABV?$stream_output_adapter@_W@__crt_stdio_output@@AB_KABQB_WAAV__crt_cached_ptd_host@@ABQAD@?$format_validation_base@_WV?$stream_output_adapter@_W@__crt_stdio_output@@@__crt_stdio_output@@IAE@ABV?$stream_output_adapter@_W@1@AB_KABQB_WAAV__crt_cached_ptd_host@@ABQAD@Z 10040bd0 f i libucrtd:output.obj
 0001:0003fc00       ??$?0ABV?$stream_output_adapter@_W@__crt_stdio_output@@AB_KABQB_WAAV__crt_cached_ptd_host@@ABQAD@?$positional_parameter_base@_WV?$stream_output_adapter@_W@__crt_stdio_output@@@__crt_stdio_output@@IAE@ABV?$stream_output_adapter@_W@1@AB_KABQB_WAAV__crt_cached_ptd_host@@ABQAD@Z 10040c00 f i libucrtd:output.obj
 0001:0003fc80       ??$?0ABV?$stream_output_adapter@_W@__crt_stdio_output@@AB_KABQB_WAAV__crt_cached_ptd_host@@ABQAD@?$standard_base@_WV?$stream_output_adapter@_W@__crt_stdio_output@@@__crt_stdio_output@@IAE@ABV?$stream_output_adapter@_W@1@AB_KABQB_WAAV__crt_cached_ptd_host@@ABQAD@Z 10040c80 f i libucrtd:output.obj
 0001:0003fcd0       ??$?0ABV?$string_output_adapter@D@__crt_stdio_output@@AB_KABQBDAAV__crt_cached_ptd_host@@ABQAD@?$format_validation_base@DV?$string_output_adapter@D@__crt_stdio_output@@@__crt_stdio_output@@IAE@ABV?$string_output_adapter@D@1@AB_KABQBDAAV__crt_cached_ptd_host@@ABQAD@Z 10040cd0 f i libucrtd:output.obj
 0001:0003fd00       ??$?0ABV?$string_output_adapter@D@__crt_stdio_output@@AB_KABQBDAAV__crt_cached_ptd_host@@ABQAD@?$positional_parameter_base@DV?$string_output_adapter@D@__crt_stdio_output@@@__crt_stdio_output@@IAE@ABV?$string_output_adapter@D@1@AB_KABQBDAAV__crt_cached_ptd_host@@ABQAD@Z 10040d00 f i libucrtd:output.obj
 0001:0003fd80       ??$?0ABV?$string_output_adapter@D@__crt_stdio_output@@AB_KABQBDAAV__crt_cached_ptd_host@@ABQAD@?$standard_base@DV?$string_output_adapter@D@__crt_stdio_output@@@__crt_stdio_output@@IAE@ABV?$string_output_adapter@D@1@AB_KABQBDAAV__crt_cached_ptd_host@@ABQAD@Z 10040d80 f i libucrtd:output.obj
 0001:0003fdd0       ??$?0ABV?$string_output_adapter@_W@__crt_stdio_output@@AB_KABQB_WAAV__crt_cached_ptd_host@@ABQAD@?$format_validation_base@_WV?$string_output_adapter@_W@__crt_stdio_output@@@__crt_stdio_output@@IAE@ABV?$string_output_adapter@_W@1@AB_KABQB_WAAV__crt_cached_ptd_host@@ABQAD@Z 10040dd0 f i libucrtd:output.obj
 0001:0003fe00       ??$?0ABV?$string_output_adapter@_W@__crt_stdio_output@@AB_KABQB_WAAV__crt_cached_ptd_host@@ABQAD@?$positional_parameter_base@_WV?$string_output_adapter@_W@__crt_stdio_output@@@__crt_stdio_output@@IAE@ABV?$string_output_adapter@_W@1@AB_KABQB_WAAV__crt_cached_ptd_host@@ABQAD@Z 10040e00 f i libucrtd:output.obj
 0001:0003fe80       ??$?0ABV?$string_output_adapter@_W@__crt_stdio_output@@AB_KABQB_WAAV__crt_cached_ptd_host@@ABQAD@?$standard_base@_WV?$string_output_adapter@_W@__crt_stdio_output@@@__crt_stdio_output@@IAE@ABV?$string_output_adapter@_W@1@AB_KABQB_WAAV__crt_cached_ptd_host@@ABQAD@Z 10040e80 f i libucrtd:output.obj
 0001:000404d0       ??$__crt_interlocked_read@J@@YAJPDJ@Z 100414d0 f i libucrtd:output.obj
 0001:000404f0       ??$_tcstol_internal@DPAPAD$0A@@@YAJAAV__crt_cached_ptd_host@@QBDQAPADH@Z 100414f0 f i libucrtd:output.obj
 0001:00040530       ??$_tcstol_internal@_WPAPA_W$0A@@@YAJAAV__crt_cached_ptd_host@@QB_WQAPA_WH@Z 10041530 f i libucrtd:output.obj
 0001:000434d0       ??$count@D@formatting_buffer@__crt_stdio_output@@QBEIXZ 100444d0 f i libucrtd:output.obj
 0001:00043510       ??$count@_W@formatting_buffer@__crt_stdio_output@@QBEIXZ 10044510 f i libucrtd:output.obj
 0001:00043550       ??$data@D@formatting_buffer@__crt_stdio_output@@QAEPADXZ 10044550 f i libucrtd:output.obj
 0001:00043590       ??$data@_W@formatting_buffer@__crt_stdio_output@@QAEPA_WXZ 10044590 f i libucrtd:output.obj
 0001:000435d0       ??$ensure_buffer_is_big_enough@D@formatting_buffer@__crt_stdio_output@@QAE_NIAAV__crt_cached_ptd_host@@@Z 100445d0 f i libucrtd:output.obj
 0001:000436c0       ??$ensure_buffer_is_big_enough@_W@formatting_buffer@__crt_stdio_output@@QAE_NIAAV__crt_cached_ptd_host@@@Z 100446c0 f i libucrtd:output.obj
 0001:000437b0       ??$extract_argument_from_va_list@C_J@?$positional_parameter_base@DV?$stream_output_adapter@D@__crt_stdio_output@@@__crt_stdio_output@@IAE_NAA_J@Z 100447b0 f i libucrtd:output.obj
 0001:00043910       ??$extract_argument_from_va_list@C_J@?$positional_parameter_base@DV?$string_output_adapter@D@__crt_stdio_output@@@__crt_stdio_output@@IAE_NAA_J@Z 10044910 f i libucrtd:output.obj
 0001:00043a70       ??$extract_argument_from_va_list@C_J@?$positional_parameter_base@_WV?$stream_output_adapter@_W@__crt_stdio_output@@@__crt_stdio_output@@IAE_NAA_J@Z 10044a70 f i libucrtd:output.obj
 0001:00043be0       ??$extract_argument_from_va_list@C_J@?$positional_parameter_base@_WV?$string_output_adapter@_W@__crt_stdio_output@@@__crt_stdio_output@@IAE_NAA_J@Z 10044be0 f i libucrtd:output.obj
 0001:00043d50       ??$extract_argument_from_va_list@C_J@?$standard_base@DV?$stream_output_adapter@D@__crt_stdio_output@@@__crt_stdio_output@@IAE_NAA_J@Z 10044d50 f i libucrtd:output.obj
 0001:00043d80       ??$extract_argument_from_va_list@C_J@?$standard_base@DV?$string_output_adapter@D@__crt_stdio_output@@@__crt_stdio_output@@IAE_NAA_J@Z 10044d80 f i libucrtd:output.obj
 0001:00043db0       ??$extract_argument_from_va_list@C_J@?$standard_base@_WV?$stream_output_adapter@_W@__crt_stdio_output@@@__crt_stdio_output@@IAE_NAA_J@Z 10044db0 f i libucrtd:output.obj
 0001:00043de0       ??$extract_argument_from_va_list@C_J@?$standard_base@_WV?$string_output_adapter@_W@__crt_stdio_output@@@__crt_stdio_output@@IAE_NAA_J@Z 10044de0 f i libucrtd:output.obj
 0001:00043e10       ??$extract_argument_from_va_list@E_J@?$positional_parameter_base@DV?$stream_output_adapter@D@__crt_stdio_output@@@__crt_stdio_output@@IAE_NAA_J@Z 10044e10 f i libucrtd:output.obj
 0001:00043f70       ??$extract_argument_from_va_list@E_J@?$positional_parameter_base@DV?$string_output_adapter@D@__crt_stdio_output@@@__crt_stdio_output@@IAE_NAA_J@Z 10044f70 f i libucrtd:output.obj
 0001:000440d0       ??$extract_argument_from_va_list@E_J@?$positional_parameter_base@_WV?$stream_output_adapter@_W@__crt_stdio_output@@@__crt_stdio_output@@IAE_NAA_J@Z 100450d0 f i libucrtd:output.obj
 0001:00044240       ??$extract_argument_from_va_list@E_J@?$positional_parameter_base@_WV?$string_output_adapter@_W@__crt_stdio_output@@@__crt_stdio_output@@IAE_NAA_J@Z 10045240 f i libucrtd:output.obj
 0001:000443b0       ??$extract_argument_from_va_list@E_J@?$standard_base@DV?$stream_output_adapter@D@__crt_stdio_output@@@__crt_stdio_output@@IAE_NAA_J@Z 100453b0 f i libucrtd:output.obj
 0001:000443e0       ??$extract_argument_from_va_list@E_J@?$standard_base@DV?$string_output_adapter@D@__crt_stdio_output@@@__crt_stdio_output@@IAE_NAA_J@Z 100453e0 f i libucrtd:output.obj
 0001:00044410       ??$extract_argument_from_va_list@E_J@?$standard_base@_WV?$stream_output_adapter@_W@__crt_stdio_output@@@__crt_stdio_output@@IAE_NAA_J@Z 10045410 f i libucrtd:output.obj
 0001:00044440       ??$extract_argument_from_va_list@E_J@?$standard_base@_WV?$string_output_adapter@_W@__crt_stdio_output@@@__crt_stdio_output@@IAE_NAA_J@Z 10045440 f i libucrtd:output.obj
 0001:00044470       ??$extract_argument_from_va_list@F_J@?$positional_parameter_base@DV?$stream_output_adapter@D@__crt_stdio_output@@@__crt_stdio_output@@IAE_NAA_J@Z 10045470 f i libucrtd:output.obj
 0001:000445d0       ??$extract_argument_from_va_list@F_J@?$positional_parameter_base@DV?$string_output_adapter@D@__crt_stdio_output@@@__crt_stdio_output@@IAE_NAA_J@Z 100455d0 f i libucrtd:output.obj
 0001:00044730       ??$extract_argument_from_va_list@F_J@?$positional_parameter_base@_WV?$stream_output_adapter@_W@__crt_stdio_output@@@__crt_stdio_output@@IAE_NAA_J@Z 10045730 f i libucrtd:output.obj
 0001:00044890       ??$extract_argument_from_va_list@F_J@?$positional_parameter_base@_WV?$string_output_adapter@_W@__crt_stdio_output@@@__crt_stdio_output@@IAE_NAA_J@Z 10045890 f i libucrtd:output.obj
 0001:000449f0       ??$extract_argument_from_va_list@F_J@?$standard_base@DV?$stream_output_adapter@D@__crt_stdio_output@@@__crt_stdio_output@@IAE_NAA_J@Z 100459f0 f i libucrtd:output.obj
 0001:00044a20       ??$extract_argument_from_va_list@F_J@?$standard_base@DV?$string_output_adapter@D@__crt_stdio_output@@@__crt_stdio_output@@IAE_NAA_J@Z 10045a20 f i libucrtd:output.obj
 0001:00044a50       ??$extract_argument_from_va_list@F_J@?$standard_base@_WV?$stream_output_adapter@_W@__crt_stdio_output@@@__crt_stdio_output@@IAE_NAA_J@Z 10045a50 f i libucrtd:output.obj
 0001:00044a80       ??$extract_argument_from_va_list@F_J@?$standard_base@_WV?$string_output_adapter@_W@__crt_stdio_output@@@__crt_stdio_output@@IAE_NAA_J@Z 10045a80 f i libucrtd:output.obj
 0001:00044ab0       ??$extract_argument_from_va_list@GD@?$positional_parameter_base@DV?$stream_output_adapter@D@__crt_stdio_output@@@__crt_stdio_output@@IAE_NAAD@Z 10045ab0 f i libucrtd:output.obj
 0001:00044c10       ??$extract_argument_from_va_list@GD@?$positional_parameter_base@DV?$string_output_adapter@D@__crt_stdio_output@@@__crt_stdio_output@@IAE_NAAD@Z 10045c10 f i libucrtd:output.obj
 0001:00044d70       ??$extract_argument_from_va_list@GD@?$standard_base@DV?$stream_output_adapter@D@__crt_stdio_output@@@__crt_stdio_output@@IAE_NAAD@Z 10045d70 f i libucrtd:output.obj
 0001:00044da0       ??$extract_argument_from_va_list@GD@?$standard_base@DV?$string_output_adapter@D@__crt_stdio_output@@@__crt_stdio_output@@IAE_NAAD@Z 10045da0 f i libucrtd:output.obj
 0001:00044dd0       ??$extract_argument_from_va_list@G_J@?$positional_parameter_base@DV?$stream_output_adapter@D@__crt_stdio_output@@@__crt_stdio_output@@IAE_NAA_J@Z 10045dd0 f i libucrtd:output.obj
 0001:00044f30       ??$extract_argument_from_va_list@G_J@?$positional_parameter_base@DV?$string_output_adapter@D@__crt_stdio_output@@@__crt_stdio_output@@IAE_NAA_J@Z 10045f30 f i libucrtd:output.obj
 0001:00045090       ??$extract_argument_from_va_list@G_J@?$positional_parameter_base@_WV?$stream_output_adapter@_W@__crt_stdio_output@@@__crt_stdio_output@@IAE_NAA_J@Z 10046090 f i libucrtd:output.obj
 0001:00045200       ??$extract_argument_from_va_list@G_J@?$positional_parameter_base@_WV?$string_output_adapter@_W@__crt_stdio_output@@@__crt_stdio_output@@IAE_NAA_J@Z 10046200 f i libucrtd:output.obj
 0001:00045370       ??$extract_argument_from_va_list@G_J@?$standard_base@DV?$stream_output_adapter@D@__crt_stdio_output@@@__crt_stdio_output@@IAE_NAA_J@Z 10046370 f i libucrtd:output.obj
 0001:000453a0       ??$extract_argument_from_va_list@G_J@?$standard_base@DV?$string_output_adapter@D@__crt_stdio_output@@@__crt_stdio_output@@IAE_NAA_J@Z 100463a0 f i libucrtd:output.obj
 0001:000453d0       ??$extract_argument_from_va_list@G_J@?$standard_base@_WV?$stream_output_adapter@_W@__crt_stdio_output@@@__crt_stdio_output@@IAE_NAA_J@Z 100463d0 f i libucrtd:output.obj
 0001:00045400       ??$extract_argument_from_va_list@G_J@?$standard_base@_WV?$string_output_adapter@_W@__crt_stdio_output@@@__crt_stdio_output@@IAE_NAA_J@Z 10046400 f i libucrtd:output.obj
 0001:00045430       ??$extract_argument_from_va_list@H_J@?$positional_parameter_base@DV?$stream_output_adapter@D@__crt_stdio_output@@@__crt_stdio_output@@IAE_NAA_J@Z 10046430 f i libucrtd:output.obj
 0001:00045590       ??$extract_argument_from_va_list@H_J@?$positional_parameter_base@DV?$string_output_adapter@D@__crt_stdio_output@@@__crt_stdio_output@@IAE_NAA_J@Z 10046590 f i libucrtd:output.obj
 0001:000456f0       ??$extract_argument_from_va_list@H_J@?$positional_parameter_base@_WV?$stream_output_adapter@_W@__crt_stdio_output@@@__crt_stdio_output@@IAE_NAA_J@Z 100466f0 f i libucrtd:output.obj
 0001:00045850       ??$extract_argument_from_va_list@H_J@?$positional_parameter_base@_WV?$string_output_adapter@_W@__crt_stdio_output@@@__crt_stdio_output@@IAE_NAA_J@Z 10046850 f i libucrtd:output.obj
 0001:000459b0       ??$extract_argument_from_va_list@H_J@?$standard_base@DV?$stream_output_adapter@D@__crt_stdio_output@@@__crt_stdio_output@@IAE_NAA_J@Z 100469b0 f i libucrtd:output.obj
 0001:000459e0       ??$extract_argument_from_va_list@H_J@?$standard_base@DV?$string_output_adapter@D@__crt_stdio_output@@@__crt_stdio_output@@IAE_NAA_J@Z 100469e0 f i libucrtd:output.obj
 0001:00045a10       ??$extract_argument_from_va_list@H_J@?$standard_base@_WV?$stream_output_adapter@_W@__crt_stdio_output@@@__crt_stdio_output@@IAE_NAA_J@Z 10046a10 f i libucrtd:output.obj
 0001:00045a40       ??$extract_argument_from_va_list@H_J@?$standard_base@_WV?$string_output_adapter@_W@__crt_stdio_output@@@__crt_stdio_output@@IAE_NAA_J@Z 10046a40 f i libucrtd:output.obj
 0001:00045a70       ??$extract_argument_from_va_list@I_J@?$positional_parameter_base@DV?$stream_output_adapter@D@__crt_stdio_output@@@__crt_stdio_output@@IAE_NAA_J@Z 10046a70 f i libucrtd:output.obj
 0001:00045bd0       ??$extract_argument_from_va_list@I_J@?$positional_parameter_base@DV?$string_output_adapter@D@__crt_stdio_output@@@__crt_stdio_output@@IAE_NAA_J@Z 10046bd0 f i libucrtd:output.obj
 0001:00045d30       ??$extract_argument_from_va_list@I_J@?$positional_parameter_base@_WV?$stream_output_adapter@_W@__crt_stdio_output@@@__crt_stdio_output@@IAE_NAA_J@Z 10046d30 f i libucrtd:output.obj
 0001:00045e90       ??$extract_argument_from_va_list@I_J@?$positional_parameter_base@_WV?$string_output_adapter@_W@__crt_stdio_output@@@__crt_stdio_output@@IAE_NAA_J@Z 10046e90 f i libucrtd:output.obj
 0001:00045ff0       ??$extract_argument_from_va_list@I_J@?$standard_base@DV?$stream_output_adapter@D@__crt_stdio_output@@@__crt_stdio_output@@IAE_NAA_J@Z 10046ff0 f i libucrtd:output.obj
 0001:00046020       ??$extract_argument_from_va_list@I_J@?$standard_base@DV?$string_output_adapter@D@__crt_stdio_output@@@__crt_stdio_output@@IAE_NAA_J@Z 10047020 f i libucrtd:output.obj
 0001:00046050       ??$extract_argument_from_va_list@I_J@?$standard_base@_WV?$stream_output_adapter@_W@__crt_stdio_output@@@__crt_stdio_output@@IAE_NAA_J@Z 10047050 f i libucrtd:output.obj
 0001:00046080       ??$extract_argument_from_va_list@I_J@?$standard_base@_WV?$string_output_adapter@_W@__crt_stdio_output@@@__crt_stdio_output@@IAE_NAA_J@Z 10047080 f i libucrtd:output.obj
 0001:000460b0       ??$extract_argument_from_va_list@PADPAD@?$positional_parameter_base@DV?$stream_output_adapter@D@__crt_stdio_output@@@__crt_stdio_output@@IAE_NAAPAD@Z 100470b0 f i libucrtd:output.obj
 0001:00046210       ??$extract_argument_from_va_list@PADPAD@?$positional_parameter_base@DV?$string_output_adapter@D@__crt_stdio_output@@@__crt_stdio_output@@IAE_NAAPAD@Z 10047210 f i libucrtd:output.obj
 0001:00046370       ??$extract_argument_from_va_list@PADPAD@?$positional_parameter_base@_WV?$stream_output_adapter@_W@__crt_stdio_output@@@__crt_stdio_output@@IAE_NAAPAD@Z 10047370 f i libucrtd:output.obj
 0001:000464d0       ??$extract_argument_from_va_list@PADPAD@?$positional_parameter_base@_WV?$string_output_adapter@_W@__crt_stdio_output@@@__crt_stdio_output@@IAE_NAAPAD@Z 100474d0 f i libucrtd:output.obj
 0001:00046630       ??$extract_argument_from_va_list@PADPAD@?$standard_base@DV?$stream_output_adapter@D@__crt_stdio_output@@@__crt_stdio_output@@IAE_NAAPAD@Z 10047630 f i libucrtd:output.obj
 0001:00046660       ??$extract_argument_from_va_list@PADPAD@?$standard_base@DV?$string_output_adapter@D@__crt_stdio_output@@@__crt_stdio_output@@IAE_NAAPAD@Z 10047660 f i libucrtd:output.obj
 0001:00046690       ??$extract_argument_from_va_list@PADPAD@?$standard_base@_WV?$stream_output_adapter@_W@__crt_stdio_output@@@__crt_stdio_output@@IAE_NAAPAD@Z 10047690 f i libucrtd:output.obj
 0001:000466c0       ??$extract_argument_from_va_list@PADPAD@?$standard_base@_WV?$string_output_adapter@_W@__crt_stdio_output@@@__crt_stdio_output@@IAE_NAAPAD@Z 100476c0 f i libucrtd:output.obj
 0001:000466f0       ??$extract_argument_from_va_list@PAUansi_string@?1??type_case_Z@?$output_processor@DV?$stream_output_adapter@D@__crt_stdio_output@@V?$format_validation_base@DV?$stream_output_adapter@D@__crt_stdio_output@@@2@@__crt_stdio_output@@AAE_NXZ@PAU1?1??234@AAE_NXZ@@?$standard_base@DV?$stream_output_adapter@D@__crt_stdio_output@@@__crt_stdio_output@@IAE_NAAPAUansi_string@?1??type_case_Z@?$output_processor@DV?$stream_output_adapter@D@__crt_stdio_output@@V?$format_validation_base@DV?$stream_output_adapter@D@__crt_stdio_output@@@2@@1@AAE_NXZ@@Z 100476f0 f i libucrtd:output.obj
 0001:00046720       ??$extract_argument_from_va_list@PAUansi_string@?1??type_case_Z@?$output_processor@DV?$stream_output_adapter@D@__crt_stdio_output@@V?$positional_parameter_base@DV?$stream_output_adapter@D@__crt_stdio_output@@@2@@__crt_stdio_output@@AAE_NXZ@PAU1?1??234@AAE_NXZ@@?$positional_parameter_base@DV?$stream_output_adapter@D@__crt_stdio_output@@@__crt_stdio_output@@IAE_NAAPAUansi_string@?1??type_case_Z@?$output_processor@DV?$stream_output_adapter@D@__crt_stdio_output@@V?$positional_parameter_base@DV?$stream_output_adapter@D@__crt_stdio_output@@@2@@1@AAE_NXZ@@Z 10047720 f i libucrtd:output.obj
 0001:00046880       ??$extract_argument_from_va_list@PAUansi_string@?1??type_case_Z@?$output_processor@DV?$stream_output_adapter@D@__crt_stdio_output@@V?$positional_parameter_base@DV?$stream_output_adapter@D@__crt_stdio_output@@@2@@__crt_stdio_output@@AAE_NXZ@PAU1?1??234@AAE_NXZ@@?$standard_base@DV?$stream_output_adapter@D@__crt_stdio_output@@@__crt_stdio_output@@IAE_NAAPAUansi_string@?1??type_case_Z@?$output_processor@DV?$stream_output_adapter@D@__crt_stdio_output@@V?$positional_parameter_base@DV?$stream_output_adapter@D@__crt_stdio_output@@@2@@1@AAE_NXZ@@Z 10047880 f i libucrtd:output.obj
 0001:000468b0       ??$extract_argument_from_va_list@PAUansi_string@?1??type_case_Z@?$output_processor@DV?$stream_output_adapter@D@__crt_stdio_output@@V?$standard_base@DV?$stream_output_adapter@D@__crt_stdio_output@@@2@@__crt_stdio_output@@AAE_NXZ@PAU1?1??234@AAE_NXZ@@?$standard_base@DV?$stream_output_adapter@D@__crt_stdio_output@@@__crt_stdio_output@@IAE_NAAPAUansi_string@?1??type_case_Z@?$output_processor@DV?$stream_output_adapter@D@__crt_stdio_output@@V?$standard_base@DV?$stream_output_adapter@D@__crt_stdio_output@@@2@@1@AAE_NXZ@@Z 100478b0 f i libucrtd:output.obj
 0001:000468e0       ??$extract_argument_from_va_list@PAUansi_string@?1??type_case_Z@?$output_processor@DV?$string_output_adapter@D@__crt_stdio_output@@V?$format_validation_base@DV?$string_output_adapter@D@__crt_stdio_output@@@2@@__crt_stdio_output@@AAE_NXZ@PAU1?1??234@AAE_NXZ@@?$standard_base@DV?$string_output_adapter@D@__crt_stdio_output@@@__crt_stdio_output@@IAE_NAAPAUansi_string@?1??type_case_Z@?$output_processor@DV?$string_output_adapter@D@__crt_stdio_output@@V?$format_validation_base@DV?$string_output_adapter@D@__crt_stdio_output@@@2@@1@AAE_NXZ@@Z 100478e0 f i libucrtd:output.obj
 0001:00046910       ??$extract_argument_from_va_list@PAUansi_string@?1??type_case_Z@?$output_processor@DV?$string_output_adapter@D@__crt_stdio_output@@V?$positional_parameter_base@DV?$string_output_adapter@D@__crt_stdio_output@@@2@@__crt_stdio_output@@AAE_NXZ@PAU1?1??234@AAE_NXZ@@?$positional_parameter_base@DV?$string_output_adapter@D@__crt_stdio_output@@@__crt_stdio_output@@IAE_NAAPAUansi_string@?1??type_case_Z@?$output_processor@DV?$string_output_adapter@D@__crt_stdio_output@@V?$positional_parameter_base@DV?$string_output_adapter@D@__crt_stdio_output@@@2@@1@AAE_NXZ@@Z 10047910 f i libucrtd:output.obj
 0001:00046a70       ??$extract_argument_from_va_list@PAUansi_string@?1??type_case_Z@?$output_processor@DV?$string_output_adapter@D@__crt_stdio_output@@V?$positional_parameter_base@DV?$string_output_adapter@D@__crt_stdio_output@@@2@@__crt_stdio_output@@AAE_NXZ@PAU1?1??234@AAE_NXZ@@?$standard_base@DV?$string_output_adapter@D@__crt_stdio_output@@@__crt_stdio_output@@IAE_NAAPAUansi_string@?1??type_case_Z@?$output_processor@DV?$string_output_adapter@D@__crt_stdio_output@@V?$positional_parameter_base@DV?$string_output_adapter@D@__crt_stdio_output@@@2@@1@AAE_NXZ@@Z 10047a70 f i libucrtd:output.obj
 0001:00046aa0       ??$extract_argument_from_va_list@PAUansi_string@?1??type_case_Z@?$output_processor@DV?$string_output_adapter@D@__crt_stdio_output@@V?$standard_base@DV?$string_output_adapter@D@__crt_stdio_output@@@2@@__crt_stdio_output@@AAE_NXZ@PAU1?1??234@AAE_NXZ@@?$standard_base@DV?$string_output_adapter@D@__crt_stdio_output@@@__crt_stdio_output@@IAE_NAAPAUansi_string@?1??type_case_Z@?$output_processor@DV?$string_output_adapter@D@__crt_stdio_output@@V?$standard_base@DV?$string_output_adapter@D@__crt_stdio_output@@@2@@1@AAE_NXZ@@Z 10047aa0 f i libucrtd:output.obj
 0001:00046ad0       ??$extract_argument_from_va_list@PAUansi_string@?1??type_case_Z@?$output_processor@_WV?$stream_output_adapter@_W@__crt_stdio_output@@V?$format_validation_base@_WV?$stream_output_adapter@_W@__crt_stdio_output@@@2@@__crt_stdio_output@@AAE_NXZ@PAU1?1??234@AAE_NXZ@@?$standard_base@_WV?$stream_output_adapter@_W@__crt_stdio_output@@@__crt_stdio_output@@IAE_NAAPAUansi_string@?1??type_case_Z@?$output_processor@_WV?$stream_output_adapter@_W@__crt_stdio_output@@V?$format_validation_base@_WV?$stream_output_adapter@_W@__crt_stdio_output@@@2@@1@AAE_NXZ@@Z 10047ad0 f i libucrtd:output.obj
 0001:00046b00       ??$extract_argument_from_va_list@PAUansi_string@?1??type_case_Z@?$output_processor@_WV?$stream_output_adapter@_W@__crt_stdio_output@@V?$positional_parameter_base@_WV?$stream_output_adapter@_W@__crt_stdio_output@@@2@@__crt_stdio_output@@AAE_NXZ@PAU1?1??234@AAE_NXZ@@?$positional_parameter_base@_WV?$stream_output_adapter@_W@__crt_stdio_output@@@__crt_stdio_output@@IAE_NAAPAUansi_string@?1??type_case_Z@?$output_processor@_WV?$stream_output_adapter@_W@__crt_stdio_output@@V?$positional_parameter_base@_WV?$stream_output_adapter@_W@__crt_stdio_output@@@2@@1@AAE_NXZ@@Z 10047b00 f i libucrtd:output.obj
 0001:00046c60       ??$extract_argument_from_va_list@PAUansi_string@?1??type_case_Z@?$output_processor@_WV?$stream_output_adapter@_W@__crt_stdio_output@@V?$positional_parameter_base@_WV?$stream_output_adapter@_W@__crt_stdio_output@@@2@@__crt_stdio_output@@AAE_NXZ@PAU1?1??234@AAE_NXZ@@?$standard_base@_WV?$stream_output_adapter@_W@__crt_stdio_output@@@__crt_stdio_output@@IAE_NAAPAUansi_string@?1??type_case_Z@?$output_processor@_WV?$stream_output_adapter@_W@__crt_stdio_output@@V?$positional_parameter_base@_WV?$stream_output_adapter@_W@__crt_stdio_output@@@2@@1@AAE_NXZ@@Z 10047c60 f i libucrtd:output.obj
 0001:00046c90       ??$extract_argument_from_va_list@PAUansi_string@?1??type_case_Z@?$output_processor@_WV?$stream_output_adapter@_W@__crt_stdio_output@@V?$standard_base@_WV?$stream_output_adapter@_W@__crt_stdio_output@@@2@@__crt_stdio_output@@AAE_NXZ@PAU1?1??234@AAE_NXZ@@?$standard_base@_WV?$stream_output_adapter@_W@__crt_stdio_output@@@__crt_stdio_output@@IAE_NAAPAUansi_string@?1??type_case_Z@?$output_processor@_WV?$stream_output_adapter@_W@__crt_stdio_output@@V?$standard_base@_WV?$stream_output_adapter@_W@__crt_stdio_output@@@2@@1@AAE_NXZ@@Z 10047c90 f i libucrtd:output.obj
 0001:00046cc0       ??$extract_argument_from_va_list@PAUansi_string@?1??type_case_Z@?$output_processor@_WV?$string_output_adapter@_W@__crt_stdio_output@@V?$format_validation_base@_WV?$string_output_adapter@_W@__crt_stdio_output@@@2@@__crt_stdio_output@@AAE_NXZ@PAU1?1??234@AAE_NXZ@@?$standard_base@_WV?$string_output_adapter@_W@__crt_stdio_output@@@__crt_stdio_output@@IAE_NAAPAUansi_string@?1??type_case_Z@?$output_processor@_WV?$string_output_adapter@_W@__crt_stdio_output@@V?$format_validation_base@_WV?$string_output_adapter@_W@__crt_stdio_output@@@2@@1@AAE_NXZ@@Z 10047cc0 f i libucrtd:output.obj
 0001:00046cf0       ??$extract_argument_from_va_list@PAUansi_string@?1??type_case_Z@?$output_processor@_WV?$string_output_adapter@_W@__crt_stdio_output@@V?$positional_parameter_base@_WV?$string_output_adapter@_W@__crt_stdio_output@@@2@@__crt_stdio_output@@AAE_NXZ@PAU1?1??234@AAE_NXZ@@?$positional_parameter_base@_WV?$string_output_adapter@_W@__crt_stdio_output@@@__crt_stdio_output@@IAE_NAAPAUansi_string@?1??type_case_Z@?$output_processor@_WV?$string_output_adapter@_W@__crt_stdio_output@@V?$positional_parameter_base@_WV?$string_output_adapter@_W@__crt_stdio_output@@@2@@1@AAE_NXZ@@Z 10047cf0 f i libucrtd:output.obj
 0001:00046e50       ??$extract_argument_from_va_list@PAUansi_string@?1??type_case_Z@?$output_processor@_WV?$string_output_adapter@_W@__crt_stdio_output@@V?$positional_parameter_base@_WV?$string_output_adapter@_W@__crt_stdio_output@@@2@@__crt_stdio_output@@AAE_NXZ@PAU1?1??234@AAE_NXZ@@?$standard_base@_WV?$string_output_adapter@_W@__crt_stdio_output@@@__crt_stdio_output@@IAE_NAAPAUansi_string@?1??type_case_Z@?$output_processor@_WV?$string_output_adapter@_W@__crt_stdio_output@@V?$positional_parameter_base@_WV?$string_output_adapter@_W@__crt_stdio_output@@@2@@1@AAE_NXZ@@Z 10047e50 f i libucrtd:output.obj
 0001:00046e80       ??$extract_argument_from_va_list@PAUansi_string@?1??type_case_Z@?$output_processor@_WV?$string_output_adapter@_W@__crt_stdio_output@@V?$standard_base@_WV?$string_output_adapter@_W@__crt_stdio_output@@@2@@__crt_stdio_output@@AAE_NXZ@PAU1?1??234@AAE_NXZ@@?$standard_base@_WV?$string_output_adapter@_W@__crt_stdio_output@@@__crt_stdio_output@@IAE_NAAPAUansi_string@?1??type_case_Z@?$output_processor@_WV?$string_output_adapter@_W@__crt_stdio_output@@V?$standard_base@_WV?$string_output_adapter@_W@__crt_stdio_output@@@2@@1@AAE_NXZ@@Z 10047e80 f i libucrtd:output.obj
 0001:00046eb0       ??$extract_argument_from_va_list@PAXPAX@?$positional_parameter_base@DV?$stream_output_adapter@D@__crt_stdio_output@@@__crt_stdio_output@@IAE_NAAPAX@Z 10047eb0 f i libucrtd:output.obj
 0001:00047010       ??$extract_argument_from_va_list@PAXPAX@?$positional_parameter_base@DV?$string_output_adapter@D@__crt_stdio_output@@@__crt_stdio_output@@IAE_NAAPAX@Z 10048010 f i libucrtd:output.obj
 0001:00047170       ??$extract_argument_from_va_list@PAXPAX@?$positional_parameter_base@_WV?$stream_output_adapter@_W@__crt_stdio_output@@@__crt_stdio_output@@IAE_NAAPAX@Z 10048170 f i libucrtd:output.obj
 0001:000472d0       ??$extract_argument_from_va_list@PAXPAX@?$positional_parameter_base@_WV?$string_output_adapter@_W@__crt_stdio_output@@@__crt_stdio_output@@IAE_NAAPAX@Z 100482d0 f i libucrtd:output.obj
 0001:00047430       ??$extract_argument_from_va_list@PAXPAX@?$standard_base@DV?$stream_output_adapter@D@__crt_stdio_output@@@__crt_stdio_output@@IAE_NAAPAX@Z 10048430 f i libucrtd:output.obj
 0001:00047460       ??$extract_argument_from_va_list@PAXPAX@?$standard_base@DV?$string_output_adapter@D@__crt_stdio_output@@@__crt_stdio_output@@IAE_NAAPAX@Z 10048460 f i libucrtd:output.obj
 0001:00047490       ??$extract_argument_from_va_list@PAXPAX@?$standard_base@_WV?$stream_output_adapter@_W@__crt_stdio_output@@@__crt_stdio_output@@IAE_NAAPAX@Z 10048490 f i libucrtd:output.obj
 0001:000474c0       ??$extract_argument_from_va_list@PAXPAX@?$standard_base@_WV?$string_output_adapter@_W@__crt_stdio_output@@@__crt_stdio_output@@IAE_NAAPAX@Z 100484c0 f i libucrtd:output.obj
 0001:000474f0       ??$extract_argument_from_va_list@U_CRT_DOUBLE@@U1@@?$positional_parameter_base@DV?$stream_output_adapter@D@__crt_stdio_output@@@__crt_stdio_output@@IAE_NAAU_CRT_DOUBLE@@@Z 100484f0 f i libucrtd:output.obj
 0001:00047680       ??$extract_argument_from_va_list@U_CRT_DOUBLE@@U1@@?$positional_parameter_base@DV?$string_output_adapter@D@__crt_stdio_output@@@__crt_stdio_output@@IAE_NAAU_CRT_DOUBLE@@@Z 10048680 f i libucrtd:output.obj
 0001:00047810       ??$extract_argument_from_va_list@U_CRT_DOUBLE@@U1@@?$positional_parameter_base@_WV?$stream_output_adapter@_W@__crt_stdio_output@@@__crt_stdio_output@@IAE_NAAU_CRT_DOUBLE@@@Z 10048810 f i libucrtd:output.obj
 0001:000479a0       ??$extract_argument_from_va_list@U_CRT_DOUBLE@@U1@@?$positional_parameter_base@_WV?$string_output_adapter@_W@__crt_stdio_output@@@__crt_stdio_output@@IAE_NAAU_CRT_DOUBLE@@@Z 100489a0 f i libucrtd:output.obj
 0001:00047b30       ??$extract_argument_from_va_list@U_CRT_DOUBLE@@U1@@?$standard_base@DV?$stream_output_adapter@D@__crt_stdio_output@@@__crt_stdio_output@@IAE_NAAU_CRT_DOUBLE@@@Z 10048b30 f i libucrtd:output.obj
 0001:00047b80       ??$extract_argument_from_va_list@U_CRT_DOUBLE@@U1@@?$standard_base@DV?$string_output_adapter@D@__crt_stdio_output@@@__crt_stdio_output@@IAE_NAAU_CRT_DOUBLE@@@Z 10048b80 f i libucrtd:output.obj
 0001:00047bd0       ??$extract_argument_from_va_list@U_CRT_DOUBLE@@U1@@?$standard_base@_WV?$stream_output_adapter@_W@__crt_stdio_output@@@__crt_stdio_output@@IAE_NAAU_CRT_DOUBLE@@@Z 10048bd0 f i libucrtd:output.obj
 0001:00047c20       ??$extract_argument_from_va_list@U_CRT_DOUBLE@@U1@@?$standard_base@_WV?$string_output_adapter@_W@__crt_stdio_output@@@__crt_stdio_output@@IAE_NAAU_CRT_DOUBLE@@@Z 10048c20 f i libucrtd:output.obj
 0001:00047c70       ??$extract_argument_from_va_list@_J_J@?$positional_parameter_base@DV?$stream_output_adapter@D@__crt_stdio_output@@@__crt_stdio_output@@IAE_NAA_J@Z 10048c70 f i libucrtd:output.obj
 0001:00047dd0       ??$extract_argument_from_va_list@_J_J@?$positional_parameter_base@DV?$string_output_adapter@D@__crt_stdio_output@@@__crt_stdio_output@@IAE_NAA_J@Z 10048dd0 f i libucrtd:output.obj
 0001:00047f30       ??$extract_argument_from_va_list@_J_J@?$positional_parameter_base@_WV?$stream_output_adapter@_W@__crt_stdio_output@@@__crt_stdio_output@@IAE_NAA_J@Z 10048f30 f i libucrtd:output.obj
 0001:00048090       ??$extract_argument_from_va_list@_J_J@?$positional_parameter_base@_WV?$string_output_adapter@_W@__crt_stdio_output@@@__crt_stdio_output@@IAE_NAA_J@Z 10049090 f i libucrtd:output.obj
 0001:000481f0       ??$extract_argument_from_va_list@_J_J@?$standard_base@DV?$stream_output_adapter@D@__crt_stdio_output@@@__crt_stdio_output@@IAE_NAA_J@Z 100491f0 f i libucrtd:output.obj
 0001:00048220       ??$extract_argument_from_va_list@_J_J@?$standard_base@DV?$string_output_adapter@D@__crt_stdio_output@@@__crt_stdio_output@@IAE_NAA_J@Z 10049220 f i libucrtd:output.obj
 0001:00048250       ??$extract_argument_from_va_list@_J_J@?$standard_base@_WV?$stream_output_adapter@_W@__crt_stdio_output@@@__crt_stdio_output@@IAE_NAA_J@Z 10049250 f i libucrtd:output.obj
 0001:00048280       ??$extract_argument_from_va_list@_J_J@?$standard_base@_WV?$string_output_adapter@_W@__crt_stdio_output@@@__crt_stdio_output@@IAE_NAA_J@Z 10049280 f i libucrtd:output.obj
 0001:000482b0       ??$extract_argument_from_va_list@_K_J@?$positional_parameter_base@DV?$stream_output_adapter@D@__crt_stdio_output@@@__crt_stdio_output@@IAE_NAA_J@Z 100492b0 f i libucrtd:output.obj
 0001:00048410       ??$extract_argument_from_va_list@_K_J@?$positional_parameter_base@DV?$string_output_adapter@D@__crt_stdio_output@@@__crt_stdio_output@@IAE_NAA_J@Z 10049410 f i libucrtd:output.obj
 0001:00048570       ??$extract_argument_from_va_list@_K_J@?$positional_parameter_base@_WV?$stream_output_adapter@_W@__crt_stdio_output@@@__crt_stdio_output@@IAE_NAA_J@Z 10049570 f i libucrtd:output.obj
 0001:000486d0       ??$extract_argument_from_va_list@_K_J@?$positional_parameter_base@_WV?$string_output_adapter@_W@__crt_stdio_output@@@__crt_stdio_output@@IAE_NAA_J@Z 100496d0 f i libucrtd:output.obj
 0001:00048830       ??$extract_argument_from_va_list@_K_J@?$standard_base@DV?$stream_output_adapter@D@__crt_stdio_output@@@__crt_stdio_output@@IAE_NAA_J@Z 10049830 f i libucrtd:output.obj
 0001:00048860       ??$extract_argument_from_va_list@_K_J@?$standard_base@DV?$string_output_adapter@D@__crt_stdio_output@@@__crt_stdio_output@@IAE_NAA_J@Z 10049860 f i libucrtd:output.obj
 0001:00048890       ??$extract_argument_from_va_list@_K_J@?$standard_base@_WV?$stream_output_adapter@_W@__crt_stdio_output@@@__crt_stdio_output@@IAE_NAA_J@Z 10049890 f i libucrtd:output.obj
 0001:000488c0       ??$extract_argument_from_va_list@_K_J@?$standard_base@_WV?$string_output_adapter@_W@__crt_stdio_output@@@__crt_stdio_output@@IAE_NAA_J@Z 100498c0 f i libucrtd:output.obj
 0001:000488f0       ??$extract_argument_from_va_list@_W_W@?$positional_parameter_base@DV?$stream_output_adapter@D@__crt_stdio_output@@@__crt_stdio_output@@IAE_NAA_W@Z 100498f0 f i libucrtd:output.obj
 0001:00048a50       ??$extract_argument_from_va_list@_W_W@?$positional_parameter_base@DV?$string_output_adapter@D@__crt_stdio_output@@@__crt_stdio_output@@IAE_NAA_W@Z 10049a50 f i libucrtd:output.obj
 0001:00048bb0       ??$extract_argument_from_va_list@_W_W@?$positional_parameter_base@_WV?$stream_output_adapter@_W@__crt_stdio_output@@@__crt_stdio_output@@IAE_NAA_W@Z 10049bb0 f i libucrtd:output.obj
 0001:00048d10       ??$extract_argument_from_va_list@_W_W@?$positional_parameter_base@_WV?$string_output_adapter@_W@__crt_stdio_output@@@__crt_stdio_output@@IAE_NAA_W@Z 10049d10 f i libucrtd:output.obj
 0001:00048e70       ??$extract_argument_from_va_list@_W_W@?$standard_base@DV?$stream_output_adapter@D@__crt_stdio_output@@@__crt_stdio_output@@IAE_NAA_W@Z 10049e70 f i libucrtd:output.obj
 0001:00048ea0       ??$extract_argument_from_va_list@_W_W@?$standard_base@DV?$string_output_adapter@D@__crt_stdio_output@@@__crt_stdio_output@@IAE_NAA_W@Z 10049ea0 f i libucrtd:output.obj
 0001:00048ed0       ??$extract_argument_from_va_list@_W_W@?$standard_base@_WV?$stream_output_adapter@_W@__crt_stdio_output@@@__crt_stdio_output@@IAE_NAA_W@Z 10049ed0 f i libucrtd:output.obj
 0001:00048f00       ??$extract_argument_from_va_list@_W_W@?$standard_base@_WV?$string_output_adapter@_W@__crt_stdio_output@@@__crt_stdio_output@@IAE_NAA_W@Z 10049f00 f i libucrtd:output.obj
 0001:00048f30       ??$get_parameter_type@D@?$positional_parameter_base@DV?$stream_output_adapter@D@__crt_stdio_output@@@__crt_stdio_output@@CA?AW4parameter_type@01@PAD@Z 10049f30 f i libucrtd:output.obj
 0001:00048f40       ??$get_parameter_type@D@?$positional_parameter_base@DV?$string_output_adapter@D@__crt_stdio_output@@@__crt_stdio_output@@CA?AW4parameter_type@01@PAD@Z 10049f40 f i libucrtd:output.obj
 0001:00048f50       ??$get_parameter_type@D@?$positional_parameter_base@_WV?$stream_output_adapter@_W@__crt_stdio_output@@@__crt_stdio_output@@CA?AW4parameter_type@01@PAD@Z 10049f50 f i libucrtd:output.obj
 0001:00048f60       ??$get_parameter_type@D@?$positional_parameter_base@_WV?$string_output_adapter@_W@__crt_stdio_output@@@__crt_stdio_output@@CA?AW4parameter_type@01@PAD@Z 10049f60 f i libucrtd:output.obj
 0001:00048f70       ??$get_parameter_type@Uansi_string@?1??type_case_Z@?$output_processor@DV?$stream_output_adapter@D@__crt_stdio_output@@V?$positional_parameter_base@DV?$stream_output_adapter@D@__crt_stdio_output@@@2@@__crt_stdio_output@@AAE_NXZ@@?$positional_parameter_base@DV?$stream_output_adapter@D@__crt_stdio_output@@@__crt_stdio_output@@CA?AW4parameter_type@01@PAUansi_string@?1??type_case_Z@?$output_processor@DV?$stream_output_adapter@D@__crt_stdio_output@@V?$positional_parameter_base@DV?$stream_output_adapter@D@__crt_stdio_output@@@2@@1@AAE_NXZ@@Z 10049f70 f i libucrtd:output.obj
 0001:00048f80       ??$get_parameter_type@Uansi_string@?1??type_case_Z@?$output_processor@DV?$string_output_adapter@D@__crt_stdio_output@@V?$positional_parameter_base@DV?$string_output_adapter@D@__crt_stdio_output@@@2@@__crt_stdio_output@@AAE_NXZ@@?$positional_parameter_base@DV?$string_output_adapter@D@__crt_stdio_output@@@__crt_stdio_output@@CA?AW4parameter_type@01@PAUansi_string@?1??type_case_Z@?$output_processor@DV?$string_output_adapter@D@__crt_stdio_output@@V?$positional_parameter_base@DV?$string_output_adapter@D@__crt_stdio_output@@@2@@1@AAE_NXZ@@Z 10049f80 f i libucrtd:output.obj
 0001:00048f90       ??$get_parameter_type@Uansi_string@?1??type_case_Z@?$output_processor@_WV?$stream_output_adapter@_W@__crt_stdio_output@@V?$positional_parameter_base@_WV?$stream_output_adapter@_W@__crt_stdio_output@@@2@@__crt_stdio_output@@AAE_NXZ@@?$positional_parameter_base@_WV?$stream_output_adapter@_W@__crt_stdio_output@@@__crt_stdio_output@@CA?AW4parameter_type@01@PAUansi_string@?1??type_case_Z@?$output_processor@_WV?$stream_output_adapter@_W@__crt_stdio_output@@V?$positional_parameter_base@_WV?$stream_output_adapter@_W@__crt_stdio_output@@@2@@1@AAE_NXZ@@Z 10049f90 f i libucrtd:output.obj
 0001:00048fa0       ??$get_parameter_type@Uansi_string@?1??type_case_Z@?$output_processor@_WV?$string_output_adapter@_W@__crt_stdio_output@@V?$positional_parameter_base@_WV?$string_output_adapter@_W@__crt_stdio_output@@@2@@__crt_stdio_output@@AAE_NXZ@@?$positional_parameter_base@_WV?$string_output_adapter@_W@__crt_stdio_output@@@__crt_stdio_output@@CA?AW4parameter_type@01@PAUansi_string@?1??type_case_Z@?$output_processor@_WV?$string_output_adapter@_W@__crt_stdio_output@@V?$positional_parameter_base@_WV?$string_output_adapter@_W@__crt_stdio_output@@@2@@1@AAE_NXZ@@Z 10049fa0 f i libucrtd:output.obj
 0001:00048fb0       ??$get_parameter_type@X@?$positional_parameter_base@DV?$stream_output_adapter@D@__crt_stdio_output@@@__crt_stdio_output@@CA?AW4parameter_type@01@PAX@Z 10049fb0 f i libucrtd:output.obj
 0001:00048fc0       ??$get_parameter_type@X@?$positional_parameter_base@DV?$string_output_adapter@D@__crt_stdio_output@@@__crt_stdio_output@@CA?AW4parameter_type@01@PAX@Z 10049fc0 f i libucrtd:output.obj
 0001:00048fd0       ??$get_parameter_type@X@?$positional_parameter_base@_WV?$stream_output_adapter@_W@__crt_stdio_output@@@__crt_stdio_output@@CA?AW4parameter_type@01@PAX@Z 10049fd0 f i libucrtd:output.obj
 0001:00048fe0       ??$get_parameter_type@X@?$positional_parameter_base@_WV?$string_output_adapter@_W@__crt_stdio_output@@@__crt_stdio_output@@CA?AW4parameter_type@01@PAX@Z 10049fe0 f i libucrtd:output.obj
 0001:00048ff0       ??$is_character_specifier@D@?$positional_parameter_base@DV?$stream_output_adapter@D@__crt_stdio_output@@@__crt_stdio_output@@CA_ND@Z 10049ff0 f i libucrtd:output.obj
 0001:00049020       ??$is_character_specifier@D@?$positional_parameter_base@DV?$string_output_adapter@D@__crt_stdio_output@@@__crt_stdio_output@@CA_ND@Z 1004a020 f i libucrtd:output.obj
 0001:00049050       ??$is_character_specifier@_W@?$positional_parameter_base@_WV?$stream_output_adapter@_W@__crt_stdio_output@@@__crt_stdio_output@@CA_N_W@Z 1004a050 f i libucrtd:output.obj
 0001:00049080       ??$is_character_specifier@_W@?$positional_parameter_base@_WV?$string_output_adapter@_W@__crt_stdio_output@@@__crt_stdio_output@@CA_N_W@Z 1004a080 f i libucrtd:output.obj
 0001:000490b0       ??$is_integral_specifier@D@?$positional_parameter_base@DV?$stream_output_adapter@D@__crt_stdio_output@@@__crt_stdio_output@@CA_ND@Z 1004a0b0 f i libucrtd:output.obj
 0001:00049110       ??$is_integral_specifier@D@?$positional_parameter_base@DV?$string_output_adapter@D@__crt_stdio_output@@@__crt_stdio_output@@CA_ND@Z 1004a110 f i libucrtd:output.obj
 0001:00049170       ??$is_integral_specifier@_W@?$positional_parameter_base@_WV?$stream_output_adapter@_W@__crt_stdio_output@@@__crt_stdio_output@@CA_N_W@Z 1004a170 f i libucrtd:output.obj
 0001:000491d0       ??$is_integral_specifier@_W@?$positional_parameter_base@_WV?$string_output_adapter@_W@__crt_stdio_output@@@__crt_stdio_output@@CA_N_W@Z 1004a1d0 f i libucrtd:output.obj
 0001:00049230       ??$is_overflow_condition@K@__crt_strtox@@YA_NIK@Z 1004a230 f i libucrtd:output.obj
 0001:00049290       ??$is_pointer_specifier@D@?$positional_parameter_base@DV?$stream_output_adapter@D@__crt_stdio_output@@@__crt_stdio_output@@CA_ND@Z 1004a290 f i libucrtd:output.obj
 0001:000492c0       ??$is_pointer_specifier@D@?$positional_parameter_base@DV?$string_output_adapter@D@__crt_stdio_output@@@__crt_stdio_output@@CA_ND@Z 1004a2c0 f i libucrtd:output.obj
 0001:000492f0       ??$is_pointer_specifier@_W@?$positional_parameter_base@_WV?$stream_output_adapter@_W@__crt_stdio_output@@@__crt_stdio_output@@CA_N_W@Z 1004a2f0 f i libucrtd:output.obj
 0001:00049320       ??$is_pointer_specifier@_W@?$positional_parameter_base@_WV?$string_output_adapter@_W@__crt_stdio_output@@@__crt_stdio_output@@CA_N_W@Z 1004a320 f i libucrtd:output.obj
 0001:00049350       ??$is_string_specifier@D@?$positional_parameter_base@DV?$stream_output_adapter@D@__crt_stdio_output@@@__crt_stdio_output@@CA_ND@Z 1004a350 f i libucrtd:output.obj
 0001:00049380       ??$is_string_specifier@D@?$positional_parameter_base@DV?$string_output_adapter@D@__crt_stdio_output@@@__crt_stdio_output@@CA_ND@Z 1004a380 f i libucrtd:output.obj
 0001:000493b0       ??$is_string_specifier@_W@?$positional_parameter_base@_WV?$stream_output_adapter@_W@__crt_stdio_output@@@__crt_stdio_output@@CA_N_W@Z 1004a3b0 f i libucrtd:output.obj
 0001:000493e0       ??$is_string_specifier@_W@?$positional_parameter_base@_WV?$string_output_adapter@_W@__crt_stdio_output@@@__crt_stdio_output@@CA_N_W@Z 1004a3e0 f i libucrtd:output.obj
 0001:00049410       ??$is_wide_character_specifier@D@__crt_stdio_output@@YA_N_KDW4length_modifier@0@@Z 1004a410 f i libucrtd:output.obj
 0001:00049490       ??$is_wide_character_specifier@_W@__crt_stdio_output@@YA_N_K_WW4length_modifier@0@@Z 1004a490 f i libucrtd:output.obj
 0001:00049550       ??$make_c_string_character_source@DPAPAD@__crt_strtox@@YA?AV?$c_string_character_source@D@0@QBDQAPAD@Z 1004a550 f i libucrtd:output.obj
 0001:00049570       ??$make_c_string_character_source@_WPAPA_W@__crt_strtox@@YA?AV?$c_string_character_source@_W@0@QB_WQAPA_W@Z 1004a570 f i libucrtd:output.obj
 0001:00049590       ??$parse_integer@KV?$c_string_character_source@D@__crt_strtox@@$0A@@__crt_strtox@@YAKAAV__crt_cached_ptd_host@@V?$c_string_character_source@D@0@H_N@Z 1004a590 f i libucrtd:output.obj
 0001:000498c0       ??$parse_integer@KV?$c_string_character_source@_W@__crt_strtox@@$0A@@__crt_strtox@@YAKAAV__crt_cached_ptd_host@@V?$c_string_character_source@_W@0@H_N@Z 1004a8c0 f i libucrtd:output.obj
 0001:00049c00       ??$peek_va_arg@C@__crt_stdio_output@@YACPAD@Z 1004ac00 f i libucrtd:output.obj
 0001:00049c20       ??$peek_va_arg@E@__crt_stdio_output@@YAEPAD@Z 1004ac20 f i libucrtd:output.obj
 0001:00049c40       ??$peek_va_arg@F@__crt_stdio_output@@YAFPAD@Z 1004ac40 f i libucrtd:output.obj
 0001:00049c60       ??$peek_va_arg@G@__crt_stdio_output@@YAGPAD@Z 1004ac60 f i libucrtd:output.obj
 0001:00049c80       ??$peek_va_arg@H@__crt_stdio_output@@YAHPAD@Z 1004ac80 f i libucrtd:output.obj
 0001:00049ca0       ??$peek_va_arg@I@__crt_stdio_output@@YAIPAD@Z 1004aca0 f i libucrtd:output.obj
 0001:00049cc0       ??$peek_va_arg@PAD@__crt_stdio_output@@YAPADPAD@Z 1004acc0 f i libucrtd:output.obj
 0001:00049ce0       ??$peek_va_arg@PAUansi_string@?1??type_case_Z@?$output_processor@DV?$stream_output_adapter@D@__crt_stdio_output@@V?$positional_parameter_base@DV?$stream_output_adapter@D@__crt_stdio_output@@@2@@__crt_stdio_output@@AAE_NXZ@@__crt_stdio_output@@YAPAUansi_string@?1??type_case_Z@?$output_processor@DV?$stream_output_adapter@D@__crt_stdio_output@@V?$positional_parameter_base@DV?$stream_output_adapter@D@__crt_stdio_output@@@2@@0@AAE_NXZ@PAD@Z 1004ace0 f i libucrtd:output.obj
 0001:00049d00       ??$peek_va_arg@PAUansi_string@?1??type_case_Z@?$output_processor@DV?$string_output_adapter@D@__crt_stdio_output@@V?$positional_parameter_base@DV?$string_output_adapter@D@__crt_stdio_output@@@2@@__crt_stdio_output@@AAE_NXZ@@__crt_stdio_output@@YAPAUansi_string@?1??type_case_Z@?$output_processor@DV?$string_output_adapter@D@__crt_stdio_output@@V?$positional_parameter_base@DV?$string_output_adapter@D@__crt_stdio_output@@@2@@0@AAE_NXZ@PAD@Z 1004ad00 f i libucrtd:output.obj
 0001:00049d20       ??$peek_va_arg@PAUansi_string@?1??type_case_Z@?$output_processor@_WV?$stream_output_adapter@_W@__crt_stdio_output@@V?$positional_parameter_base@_WV?$stream_output_adapter@_W@__crt_stdio_output@@@2@@__crt_stdio_output@@AAE_NXZ@@__crt_stdio_output@@YAPAUansi_string@?1??type_case_Z@?$output_processor@_WV?$stream_output_adapter@_W@__crt_stdio_output@@V?$positional_parameter_base@_WV?$stream_output_adapter@_W@__crt_stdio_output@@@2@@0@AAE_NXZ@PAD@Z 1004ad20 f i libucrtd:output.obj
 0001:00049d40       ??$peek_va_arg@PAUansi_string@?1??type_case_Z@?$output_processor@_WV?$string_output_adapter@_W@__crt_stdio_output@@V?$positional_parameter_base@_WV?$string_output_adapter@_W@__crt_stdio_output@@@2@@__crt_stdio_output@@AAE_NXZ@@__crt_stdio_output@@YAPAUansi_string@?1??type_case_Z@?$output_processor@_WV?$string_output_adapter@_W@__crt_stdio_output@@V?$positional_parameter_base@_WV?$string_output_adapter@_W@__crt_stdio_output@@@2@@0@AAE_NXZ@PAD@Z 1004ad40 f i libucrtd:output.obj
 0001:00049d60       ??$peek_va_arg@PAX@__crt_stdio_output@@YAPAXPAD@Z 1004ad60 f i libucrtd:output.obj
 0001:00049d80       ??$peek_va_arg@U_CRT_DOUBLE@@@__crt_stdio_output@@YA?AU_CRT_DOUBLE@@PAD@Z 1004ad80 f i libucrtd:output.obj
 0001:00049da0       ??$peek_va_arg@_J@__crt_stdio_output@@YA_JPAD@Z 1004ada0 f i libucrtd:output.obj
 0001:00049dc0       ??$peek_va_arg@_K@__crt_stdio_output@@YA_KPAD@Z 1004adc0 f i libucrtd:output.obj
 0001:00049de0       ??$peek_va_arg@_W@__crt_stdio_output@@YA_WPAD@Z 1004ade0 f i libucrtd:output.obj
 0001:00049e00       ??$puttc_nolock_internal@ABDPAU_iobuf@@AAV__crt_cached_ptd_host@@@?$__crt_char_traits@D@@SAHABD$$QAPAU_iobuf@@AAV__crt_cached_ptd_host@@@Z 1004ae00 f i libucrtd:output.obj
 0001:00049e20       ??$puttc_nolock_internal@AB_WPAU_iobuf@@AAV__crt_cached_ptd_host@@@?$__crt_char_traits@_W@@SAGAB_W$$QAPAU_iobuf@@AAV__crt_cached_ptd_host@@@Z 1004ae20 f i libucrtd:output.obj
 0001:00049e40       ??$read_va_arg@C@__crt_stdio_output@@YACAAPAD@Z 1004ae40 f i libucrtd:output.obj
 0001:00049e60       ??$read_va_arg@E@__crt_stdio_output@@YAEAAPAD@Z 1004ae60 f i libucrtd:output.obj
 0001:00049e80       ??$read_va_arg@F@__crt_stdio_output@@YAFAAPAD@Z 1004ae80 f i libucrtd:output.obj
 0001:00049ea0       ??$read_va_arg@G@__crt_stdio_output@@YAGAAPAD@Z 1004aea0 f i libucrtd:output.obj
 0001:00049ec0       ??$read_va_arg@H@__crt_stdio_output@@YAHAAPAD@Z 1004aec0 f i libucrtd:output.obj
 0001:00049ee0       ??$read_va_arg@I@__crt_stdio_output@@YAIAAPAD@Z 1004aee0 f i libucrtd:output.obj
 0001:00049f00       ??$read_va_arg@PAD@__crt_stdio_output@@YAPADAAPAD@Z 1004af00 f i libucrtd:output.obj
 0001:00049f20       ??$read_va_arg@PAUansi_string@?1??type_case_Z@?$output_processor@DV?$stream_output_adapter@D@__crt_stdio_output@@V?$format_validation_base@DV?$stream_output_adapter@D@__crt_stdio_output@@@2@@__crt_stdio_output@@AAE_NXZ@@__crt_stdio_output@@YAPAUansi_string@?1??type_case_Z@?$output_processor@DV?$stream_output_adapter@D@__crt_stdio_output@@V?$format_validation_base@DV?$stream_output_adapter@D@__crt_stdio_output@@@2@@0@AAE_NXZ@AAPAD@Z 1004af20 f i libucrtd:output.obj
 0001:00049f40       ??$read_va_arg@PAUansi_string@?1??type_case_Z@?$output_processor@DV?$stream_output_adapter@D@__crt_stdio_output@@V?$positional_parameter_base@DV?$stream_output_adapter@D@__crt_stdio_output@@@2@@__crt_stdio_output@@AAE_NXZ@@__crt_stdio_output@@YAPAUansi_string@?1??type_case_Z@?$output_processor@DV?$stream_output_adapter@D@__crt_stdio_output@@V?$positional_parameter_base@DV?$stream_output_adapter@D@__crt_stdio_output@@@2@@0@AAE_NXZ@AAPAD@Z 1004af40 f i libucrtd:output.obj
 0001:00049f60       ??$read_va_arg@PAUansi_string@?1??type_case_Z@?$output_processor@DV?$stream_output_adapter@D@__crt_stdio_output@@V?$standard_base@DV?$stream_output_adapter@D@__crt_stdio_output@@@2@@__crt_stdio_output@@AAE_NXZ@@__crt_stdio_output@@YAPAUansi_string@?1??type_case_Z@?$output_processor@DV?$stream_output_adapter@D@__crt_stdio_output@@V?$standard_base@DV?$stream_output_adapter@D@__crt_stdio_output@@@2@@0@AAE_NXZ@AAPAD@Z 1004af60 f i libucrtd:output.obj
 0001:00049f80       ??$read_va_arg@PAUansi_string@?1??type_case_Z@?$output_processor@DV?$string_output_adapter@D@__crt_stdio_output@@V?$format_validation_base@DV?$string_output_adapter@D@__crt_stdio_output@@@2@@__crt_stdio_output@@AAE_NXZ@@__crt_stdio_output@@YAPAUansi_string@?1??type_case_Z@?$output_processor@DV?$string_output_adapter@D@__crt_stdio_output@@V?$format_validation_base@DV?$string_output_adapter@D@__crt_stdio_output@@@2@@0@AAE_NXZ@AAPAD@Z 1004af80 f i libucrtd:output.obj
 0001:00049fa0       ??$read_va_arg@PAUansi_string@?1??type_case_Z@?$output_processor@DV?$string_output_adapter@D@__crt_stdio_output@@V?$positional_parameter_base@DV?$string_output_adapter@D@__crt_stdio_output@@@2@@__crt_stdio_output@@AAE_NXZ@@__crt_stdio_output@@YAPAUansi_string@?1??type_case_Z@?$output_processor@DV?$string_output_adapter@D@__crt_stdio_output@@V?$positional_parameter_base@DV?$string_output_adapter@D@__crt_stdio_output@@@2@@0@AAE_NXZ@AAPAD@Z 1004afa0 f i libucrtd:output.obj
 0001:00049fc0       ??$read_va_arg@PAUansi_string@?1??type_case_Z@?$output_processor@DV?$string_output_adapter@D@__crt_stdio_output@@V?$standard_base@DV?$string_output_adapter@D@__crt_stdio_output@@@2@@__crt_stdio_output@@AAE_NXZ@@__crt_stdio_output@@YAPAUansi_string@?1??type_case_Z@?$output_processor@DV?$string_output_adapter@D@__crt_stdio_output@@V?$standard_base@DV?$string_output_adapter@D@__crt_stdio_output@@@2@@0@AAE_NXZ@AAPAD@Z 1004afc0 f i libucrtd:output.obj
 0001:00049fe0       ??$read_va_arg@PAUansi_string@?1??type_case_Z@?$output_processor@_WV?$stream_output_adapter@_W@__crt_stdio_output@@V?$format_validation_base@_WV?$stream_output_adapter@_W@__crt_stdio_output@@@2@@__crt_stdio_output@@AAE_NXZ@@__crt_stdio_output@@YAPAUansi_string@?1??type_case_Z@?$output_processor@_WV?$stream_output_adapter@_W@__crt_stdio_output@@V?$format_validation_base@_WV?$stream_output_adapter@_W@__crt_stdio_output@@@2@@0@AAE_NXZ@AAPAD@Z 1004afe0 f i libucrtd:output.obj
 0001:0004a000       ??$read_va_arg@PAUansi_string@?1??type_case_Z@?$output_processor@_WV?$stream_output_adapter@_W@__crt_stdio_output@@V?$positional_parameter_base@_WV?$stream_output_adapter@_W@__crt_stdio_output@@@2@@__crt_stdio_output@@AAE_NXZ@@__crt_stdio_output@@YAPAUansi_string@?1??type_case_Z@?$output_processor@_WV?$stream_output_adapter@_W@__crt_stdio_output@@V?$positional_parameter_base@_WV?$stream_output_adapter@_W@__crt_stdio_output@@@2@@0@AAE_NXZ@AAPAD@Z 1004b000 f i libucrtd:output.obj
 0001:0004a020       ??$read_va_arg@PAUansi_string@?1??type_case_Z@?$output_processor@_WV?$stream_output_adapter@_W@__crt_stdio_output@@V?$standard_base@_WV?$stream_output_adapter@_W@__crt_stdio_output@@@2@@__crt_stdio_output@@AAE_NXZ@@__crt_stdio_output@@YAPAUansi_string@?1??type_case_Z@?$output_processor@_WV?$stream_output_adapter@_W@__crt_stdio_output@@V?$standard_base@_WV?$stream_output_adapter@_W@__crt_stdio_output@@@2@@0@AAE_NXZ@AAPAD@Z 1004b020 f i libucrtd:output.obj
 0001:0004a040       ??$read_va_arg@PAUansi_string@?1??type_case_Z@?$output_processor@_WV?$string_output_adapter@_W@__crt_stdio_output@@V?$format_validation_base@_WV?$string_output_adapter@_W@__crt_stdio_output@@@2@@__crt_stdio_output@@AAE_NXZ@@__crt_stdio_output@@YAPAUansi_string@?1??type_case_Z@?$output_processor@_WV?$string_output_adapter@_W@__crt_stdio_output@@V?$format_validation_base@_WV?$string_output_adapter@_W@__crt_stdio_output@@@2@@0@AAE_NXZ@AAPAD@Z 1004b040 f i libucrtd:output.obj
 0001:0004a060       ??$read_va_arg@PAUansi_string@?1??type_case_Z@?$output_processor@_WV?$string_output_adapter@_W@__crt_stdio_output@@V?$positional_parameter_base@_WV?$string_output_adapter@_W@__crt_stdio_output@@@2@@__crt_stdio_output@@AAE_NXZ@@__crt_stdio_output@@YAPAUansi_string@?1??type_case_Z@?$output_processor@_WV?$string_output_adapter@_W@__crt_stdio_output@@V?$positional_parameter_base@_WV?$string_output_adapter@_W@__crt_stdio_output@@@2@@0@AAE_NXZ@AAPAD@Z 1004b060 f i libucrtd:output.obj
 0001:0004a080       ??$read_va_arg@PAUansi_string@?1??type_case_Z@?$output_processor@_WV?$string_output_adapter@_W@__crt_stdio_output@@V?$standard_base@_WV?$string_output_adapter@_W@__crt_stdio_output@@@2@@__crt_stdio_output@@AAE_NXZ@@__crt_stdio_output@@YAPAUansi_string@?1??type_case_Z@?$output_processor@_WV?$string_output_adapter@_W@__crt_stdio_output@@V?$standard_base@_WV?$string_output_adapter@_W@__crt_stdio_output@@@2@@0@AAE_NXZ@AAPAD@Z 1004b080 f i libucrtd:output.obj
 0001:0004a0a0       ??$read_va_arg@PAX@__crt_stdio_output@@YAPAXAAPAD@Z 1004b0a0 f i libucrtd:output.obj
 0001:0004a0c0       ??$read_va_arg@U_CRT_DOUBLE@@@__crt_stdio_output@@YA?AU_CRT_DOUBLE@@AAPAD@Z 1004b0c0 f i libucrtd:output.obj
 0001:0004a0e0       ??$read_va_arg@_J@__crt_stdio_output@@YA_JAAPAD@Z 1004b0e0 f i libucrtd:output.obj
 0001:0004a100       ??$read_va_arg@_K@__crt_stdio_output@@YA_KAAPAD@Z 1004b100 f i libucrtd:output.obj
 0001:0004a120       ??$read_va_arg@_W@__crt_stdio_output@@YA_WAAPAD@Z 1004b120 f i libucrtd:output.obj
 0001:0004a140       ??$scratch_count@D@formatting_buffer@__crt_stdio_output@@QBEIXZ 1004b140 f i libucrtd:output.obj
 0001:0004a160       ??$scratch_data@D@formatting_buffer@__crt_stdio_output@@QAEPADXZ 1004b160 f i libucrtd:output.obj
 0001:0004a1b0       ??$type_case_integer@$07@?$output_processor@DV?$stream_output_adapter@D@__crt_stdio_output@@V?$format_validation_base@DV?$stream_output_adapter@D@__crt_stdio_output@@@2@@__crt_stdio_output@@AAE_N_N@Z 1004b1b0 f i libucrtd:output.obj
 0001:0004a510       ??$type_case_integer@$07@?$output_processor@DV?$stream_output_adapter@D@__crt_stdio_output@@V?$positional_parameter_base@DV?$stream_output_adapter@D@__crt_stdio_output@@@2@@__crt_stdio_output@@AAE_N_N@Z 1004b510 f i libucrtd:output.obj
 0001:0004a870       ??$type_case_integer@$07@?$output_processor@DV?$stream_output_adapter@D@__crt_stdio_output@@V?$standard_base@DV?$stream_output_adapter@D@__crt_stdio_output@@@2@@__crt_stdio_output@@AAE_N_N@Z 1004b870 f i libucrtd:output.obj
 0001:0004abd0       ??$type_case_integer@$07@?$output_processor@DV?$string_output_adapter@D@__crt_stdio_output@@V?$format_validation_base@DV?$string_output_adapter@D@__crt_stdio_output@@@2@@__crt_stdio_output@@AAE_N_N@Z 1004bbd0 f i libucrtd:output.obj
 0001:0004af30       ??$type_case_integer@$07@?$output_processor@DV?$string_output_adapter@D@__crt_stdio_output@@V?$positional_parameter_base@DV?$string_output_adapter@D@__crt_stdio_output@@@2@@__crt_stdio_output@@AAE_N_N@Z 1004bf30 f i libucrtd:output.obj
 0001:0004b290       ??$type_case_integer@$07@?$output_processor@DV?$string_output_adapter@D@__crt_stdio_output@@V?$standard_base@DV?$string_output_adapter@D@__crt_stdio_output@@@2@@__crt_stdio_output@@AAE_N_N@Z 1004c290 f i libucrtd:output.obj
 0001:0004b5f0       ??$type_case_integer@$07@?$output_processor@_WV?$stream_output_adapter@_W@__crt_stdio_output@@V?$format_validation_base@_WV?$stream_output_adapter@_W@__crt_stdio_output@@@2@@__crt_stdio_output@@AAE_N_N@Z 1004c5f0 f i libucrtd:output.obj
 0001:0004b950       ??$type_case_integer@$07@?$output_processor@_WV?$stream_output_adapter@_W@__crt_stdio_output@@V?$positional_parameter_base@_WV?$stream_output_adapter@_W@__crt_stdio_output@@@2@@__crt_stdio_output@@AAE_N_N@Z 1004c950 f i libucrtd:output.obj
 0001:0004bcb0       ??$type_case_integer@$07@?$output_processor@_WV?$stream_output_adapter@_W@__crt_stdio_output@@V?$standard_base@_WV?$stream_output_adapter@_W@__crt_stdio_output@@@2@@__crt_stdio_output@@AAE_N_N@Z 1004ccb0 f i libucrtd:output.obj
 0001:0004c010       ??$type_case_integer@$07@?$output_processor@_WV?$string_output_adapter@_W@__crt_stdio_output@@V?$format_validation_base@_WV?$string_output_adapter@_W@__crt_stdio_output@@@2@@__crt_stdio_output@@AAE_N_N@Z 1004d010 f i libucrtd:output.obj
 0001:0004c370       ??$type_case_integer@$07@?$output_processor@_WV?$string_output_adapter@_W@__crt_stdio_output@@V?$positional_parameter_base@_WV?$string_output_adapter@_W@__crt_stdio_output@@@2@@__crt_stdio_output@@AAE_N_N@Z 1004d370 f i libucrtd:output.obj
 0001:0004c6d0       ??$type_case_integer@$07@?$output_processor@_WV?$string_output_adapter@_W@__crt_stdio_output@@V?$standard_base@_WV?$string_output_adapter@_W@__crt_stdio_output@@@2@@__crt_stdio_output@@AAE_N_N@Z 1004d6d0 f i libucrtd:output.obj
 0001:0004ca30       ??$type_case_integer@$09@?$output_processor@DV?$stream_output_adapter@D@__crt_stdio_output@@V?$format_validation_base@DV?$stream_output_adapter@D@__crt_stdio_output@@@2@@__crt_stdio_output@@AAE_N_N@Z 1004da30 f i libucrtd:output.obj
 0001:0004cd90       ??$type_case_integer@$09@?$output_processor@DV?$stream_output_adapter@D@__crt_stdio_output@@V?$positional_parameter_base@DV?$stream_output_adapter@D@__crt_stdio_output@@@2@@__crt_stdio_output@@AAE_N_N@Z 1004dd90 f i libucrtd:output.obj
 0001:0004d0f0       ??$type_case_integer@$09@?$output_processor@DV?$stream_output_adapter@D@__crt_stdio_output@@V?$standard_base@DV?$stream_output_adapter@D@__crt_stdio_output@@@2@@__crt_stdio_output@@AAE_N_N@Z 1004e0f0 f i libucrtd:output.obj
 0001:0004d450       ??$type_case_integer@$09@?$output_processor@DV?$string_output_adapter@D@__crt_stdio_output@@V?$format_validation_base@DV?$string_output_adapter@D@__crt_stdio_output@@@2@@__crt_stdio_output@@AAE_N_N@Z 1004e450 f i libucrtd:output.obj
 0001:0004d7b0       ??$type_case_integer@$09@?$output_processor@DV?$string_output_adapter@D@__crt_stdio_output@@V?$positional_parameter_base@DV?$string_output_adapter@D@__crt_stdio_output@@@2@@__crt_stdio_output@@AAE_N_N@Z 1004e7b0 f i libucrtd:output.obj
 0001:0004db10       ??$type_case_integer@$09@?$output_processor@DV?$string_output_adapter@D@__crt_stdio_output@@V?$standard_base@DV?$string_output_adapter@D@__crt_stdio_output@@@2@@__crt_stdio_output@@AAE_N_N@Z 1004eb10 f i libucrtd:output.obj
 0001:0004de70       ??$type_case_integer@$09@?$output_processor@_WV?$stream_output_adapter@_W@__crt_stdio_output@@V?$format_validation_base@_WV?$stream_output_adapter@_W@__crt_stdio_output@@@2@@__crt_stdio_output@@AAE_N_N@Z 1004ee70 f i libucrtd:output.obj
 0001:0004e1d0       ??$type_case_integer@$09@?$output_processor@_WV?$stream_output_adapter@_W@__crt_stdio_output@@V?$positional_parameter_base@_WV?$stream_output_adapter@_W@__crt_stdio_output@@@2@@__crt_stdio_output@@AAE_N_N@Z 1004f1d0 f i libucrtd:output.obj
 0001:0004e530       ??$type_case_integer@$09@?$output_processor@_WV?$stream_output_adapter@_W@__crt_stdio_output@@V?$standard_base@_WV?$stream_output_adapter@_W@__crt_stdio_output@@@2@@__crt_stdio_output@@AAE_N_N@Z 1004f530 f i libucrtd:output.obj
 0001:0004e890       ??$type_case_integer@$09@?$output_processor@_WV?$string_output_adapter@_W@__crt_stdio_output@@V?$format_validation_base@_WV?$string_output_adapter@_W@__crt_stdio_output@@@2@@__crt_stdio_output@@AAE_N_N@Z 1004f890 f i libucrtd:output.obj
 0001:0004ebf0       ??$type_case_integer@$09@?$output_processor@_WV?$string_output_adapter@_W@__crt_stdio_output@@V?$positional_parameter_base@_WV?$string_output_adapter@_W@__crt_stdio_output@@@2@@__crt_stdio_output@@AAE_N_N@Z 1004fbf0 f i libucrtd:output.obj
 0001:0004ef50       ??$type_case_integer@$09@?$output_processor@_WV?$string_output_adapter@_W@__crt_stdio_output@@V?$standard_base@_WV?$string_output_adapter@_W@__crt_stdio_output@@@2@@__crt_stdio_output@@AAE_N_N@Z 1004ff50 f i libucrtd:output.obj
 0001:0004f2b0       ??$type_case_integer@$0BA@@?$output_processor@DV?$stream_output_adapter@D@__crt_stdio_output@@V?$format_validation_base@DV?$stream_output_adapter@D@__crt_stdio_output@@@2@@__crt_stdio_output@@AAE_N_N@Z 100502b0 f i libucrtd:output.obj
 0001:0004f610       ??$type_case_integer@$0BA@@?$output_processor@DV?$stream_output_adapter@D@__crt_stdio_output@@V?$positional_parameter_base@DV?$stream_output_adapter@D@__crt_stdio_output@@@2@@__crt_stdio_output@@AAE_N_N@Z 10050610 f i libucrtd:output.obj
 0001:0004f970       ??$type_case_integer@$0BA@@?$output_processor@DV?$stream_output_adapter@D@__crt_stdio_output@@V?$standard_base@DV?$stream_output_adapter@D@__crt_stdio_output@@@2@@__crt_stdio_output@@AAE_N_N@Z 10050970 f i libucrtd:output.obj
 0001:0004fcd0       ??$type_case_integer@$0BA@@?$output_processor@DV?$string_output_adapter@D@__crt_stdio_output@@V?$format_validation_base@DV?$string_output_adapter@D@__crt_stdio_output@@@2@@__crt_stdio_output@@AAE_N_N@Z 10050cd0 f i libucrtd:output.obj
 0001:00050030       ??$type_case_integer@$0BA@@?$output_processor@DV?$string_output_adapter@D@__crt_stdio_output@@V?$positional_parameter_base@DV?$string_output_adapter@D@__crt_stdio_output@@@2@@__crt_stdio_output@@AAE_N_N@Z 10051030 f i libucrtd:output.obj
 0001:00050390       ??$type_case_integer@$0BA@@?$output_processor@DV?$string_output_adapter@D@__crt_stdio_output@@V?$standard_base@DV?$string_output_adapter@D@__crt_stdio_output@@@2@@__crt_stdio_output@@AAE_N_N@Z 10051390 f i libucrtd:output.obj
 0001:000506f0       ??$type_case_integer@$0BA@@?$output_processor@_WV?$stream_output_adapter@_W@__crt_stdio_output@@V?$format_validation_base@_WV?$stream_output_adapter@_W@__crt_stdio_output@@@2@@__crt_stdio_output@@AAE_N_N@Z 100516f0 f i libucrtd:output.obj
 0001:00050a50       ??$type_case_integer@$0BA@@?$output_processor@_WV?$stream_output_adapter@_W@__crt_stdio_output@@V?$positional_parameter_base@_WV?$stream_output_adapter@_W@__crt_stdio_output@@@2@@__crt_stdio_output@@AAE_N_N@Z 10051a50 f i libucrtd:output.obj
 0001:00050db0       ??$type_case_integer@$0BA@@?$output_processor@_WV?$stream_output_adapter@_W@__crt_stdio_output@@V?$standard_base@_WV?$stream_output_adapter@_W@__crt_stdio_output@@@2@@__crt_stdio_output@@AAE_N_N@Z 10051db0 f i libucrtd:output.obj
 0001:00051110       ??$type_case_integer@$0BA@@?$output_processor@_WV?$string_output_adapter@_W@__crt_stdio_output@@V?$format_validation_base@_WV?$string_output_adapter@_W@__crt_stdio_output@@@2@@__crt_stdio_output@@AAE_N_N@Z 10052110 f i libucrtd:output.obj
 0001:00051470       ??$type_case_integer@$0BA@@?$output_processor@_WV?$string_output_adapter@_W@__crt_stdio_output@@V?$positional_parameter_base@_WV?$string_output_adapter@_W@__crt_stdio_output@@@2@@__crt_stdio_output@@AAE_N_N@Z 10052470 f i libucrtd:output.obj
 0001:000517d0       ??$type_case_integer@$0BA@@?$output_processor@_WV?$string_output_adapter@_W@__crt_stdio_output@@V?$standard_base@_WV?$string_output_adapter@_W@__crt_stdio_output@@@2@@__crt_stdio_output@@AAE_N_N@Z 100527d0 f i libucrtd:output.obj
 0001:00051b30       ??$type_case_integer_parse_into_buffer@I$07@?$output_processor@DV?$stream_output_adapter@D@__crt_stdio_output@@V?$format_validation_base@DV?$stream_output_adapter@D@__crt_stdio_output@@@2@@__crt_stdio_output@@AAEXI_N@Z 10052b30 f i libucrtd:output.obj
 0001:00051c00       ??$type_case_integer_parse_into_buffer@I$07@?$output_processor@DV?$stream_output_adapter@D@__crt_stdio_output@@V?$positional_parameter_base@DV?$stream_output_adapter@D@__crt_stdio_output@@@2@@__crt_stdio_output@@AAEXI_N@Z 10052c00 f i libucrtd:output.obj
 0001:00051cd0       ??$type_case_integer_parse_into_buffer@I$07@?$output_processor@DV?$stream_output_adapter@D@__crt_stdio_output@@V?$standard_base@DV?$stream_output_adapter@D@__crt_stdio_output@@@2@@__crt_stdio_output@@AAEXI_N@Z 10052cd0 f i libucrtd:output.obj
 0001:00051da0       ??$type_case_integer_parse_into_buffer@I$07@?$output_processor@DV?$string_output_adapter@D@__crt_stdio_output@@V?$format_validation_base@DV?$string_output_adapter@D@__crt_stdio_output@@@2@@__crt_stdio_output@@AAEXI_N@Z 10052da0 f i libucrtd:output.obj
 0001:00051e70       ??$type_case_integer_parse_into_buffer@I$07@?$output_processor@DV?$string_output_adapter@D@__crt_stdio_output@@V?$positional_parameter_base@DV?$string_output_adapter@D@__crt_stdio_output@@@2@@__crt_stdio_output@@AAEXI_N@Z 10052e70 f i libucrtd:output.obj
 0001:00051f40       ??$type_case_integer_parse_into_buffer@I$07@?$output_processor@DV?$string_output_adapter@D@__crt_stdio_output@@V?$standard_base@DV?$string_output_adapter@D@__crt_stdio_output@@@2@@__crt_stdio_output@@AAEXI_N@Z 10052f40 f i libucrtd:output.obj
 0001:00052010       ??$type_case_integer_parse_into_buffer@I$07@?$output_processor@_WV?$stream_output_adapter@_W@__crt_stdio_output@@V?$format_validation_base@_WV?$stream_output_adapter@_W@__crt_stdio_output@@@2@@__crt_stdio_output@@AAEXI_N@Z 10053010 f i libucrtd:output.obj
 0001:000520f0       ??$type_case_integer_parse_into_buffer@I$07@?$output_processor@_WV?$stream_output_adapter@_W@__crt_stdio_output@@V?$positional_parameter_base@_WV?$stream_output_adapter@_W@__crt_stdio_output@@@2@@__crt_stdio_output@@AAEXI_N@Z 100530f0 f i libucrtd:output.obj
 0001:000521d0       ??$type_case_integer_parse_into_buffer@I$07@?$output_processor@_WV?$stream_output_adapter@_W@__crt_stdio_output@@V?$standard_base@_WV?$stream_output_adapter@_W@__crt_stdio_output@@@2@@__crt_stdio_output@@AAEXI_N@Z 100531d0 f i libucrtd:output.obj
 0001:000522b0       ??$type_case_integer_parse_into_buffer@I$07@?$output_processor@_WV?$string_output_adapter@_W@__crt_stdio_output@@V?$format_validation_base@_WV?$string_output_adapter@_W@__crt_stdio_output@@@2@@__crt_stdio_output@@AAEXI_N@Z 100532b0 f i libucrtd:output.obj
 0001:00052390       ??$type_case_integer_parse_into_buffer@I$07@?$output_processor@_WV?$string_output_adapter@_W@__crt_stdio_output@@V?$positional_parameter_base@_WV?$string_output_adapter@_W@__crt_stdio_output@@@2@@__crt_stdio_output@@AAEXI_N@Z 10053390 f i libucrtd:output.obj
 0001:00052470       ??$type_case_integer_parse_into_buffer@I$07@?$output_processor@_WV?$string_output_adapter@_W@__crt_stdio_output@@V?$standard_base@_WV?$string_output_adapter@_W@__crt_stdio_output@@@2@@__crt_stdio_output@@AAEXI_N@Z 10053470 f i libucrtd:output.obj
 0001:00052550       ??$type_case_integer_parse_into_buffer@I$09@?$output_processor@DV?$stream_output_adapter@D@__crt_stdio_output@@V?$format_validation_base@DV?$stream_output_adapter@D@__crt_stdio_output@@@2@@__crt_stdio_output@@AAEXI_N@Z 10053550 f i libucrtd:output.obj
 0001:00052630       ??$type_case_integer_parse_into_buffer@I$09@?$output_processor@DV?$stream_output_adapter@D@__crt_stdio_output@@V?$positional_parameter_base@DV?$stream_output_adapter@D@__crt_stdio_output@@@2@@__crt_stdio_output@@AAEXI_N@Z 10053630 f i libucrtd:output.obj
 0001:00052710       ??$type_case_integer_parse_into_buffer@I$09@?$output_processor@DV?$stream_output_adapter@D@__crt_stdio_output@@V?$standard_base@DV?$stream_output_adapter@D@__crt_stdio_output@@@2@@__crt_stdio_output@@AAEXI_N@Z 10053710 f i libucrtd:output.obj
 0001:000527f0       ??$type_case_integer_parse_into_buffer@I$09@?$output_processor@DV?$string_output_adapter@D@__crt_stdio_output@@V?$format_validation_base@DV?$string_output_adapter@D@__crt_stdio_output@@@2@@__crt_stdio_output@@AAEXI_N@Z 100537f0 f i libucrtd:output.obj
 0001:000528d0       ??$type_case_integer_parse_into_buffer@I$09@?$output_processor@DV?$string_output_adapter@D@__crt_stdio_output@@V?$positional_parameter_base@DV?$string_output_adapter@D@__crt_stdio_output@@@2@@__crt_stdio_output@@AAEXI_N@Z 100538d0 f i libucrtd:output.obj
 0001:000529b0       ??$type_case_integer_parse_into_buffer@I$09@?$output_processor@DV?$string_output_adapter@D@__crt_stdio_output@@V?$standard_base@DV?$string_output_adapter@D@__crt_stdio_output@@@2@@__crt_stdio_output@@AAEXI_N@Z 100539b0 f i libucrtd:output.obj
 0001:00052a90       ??$type_case_integer_parse_into_buffer@I$09@?$output_processor@_WV?$stream_output_adapter@_W@__crt_stdio_output@@V?$format_validation_base@_WV?$stream_output_adapter@_W@__crt_stdio_output@@@2@@__crt_stdio_output@@AAEXI_N@Z 10053a90 f i libucrtd:output.obj
 0001:00052b80       ??$type_case_integer_parse_into_buffer@I$09@?$output_processor@_WV?$stream_output_adapter@_W@__crt_stdio_output@@V?$positional_parameter_base@_WV?$stream_output_adapter@_W@__crt_stdio_output@@@2@@__crt_stdio_output@@AAEXI_N@Z 10053b80 f i libucrtd:output.obj
 0001:00052c70       ??$type_case_integer_parse_into_buffer@I$09@?$output_processor@_WV?$stream_output_adapter@_W@__crt_stdio_output@@V?$standard_base@_WV?$stream_output_adapter@_W@__crt_stdio_output@@@2@@__crt_stdio_output@@AAEXI_N@Z 10053c70 f i libucrtd:output.obj
 0001:00052d60       ??$type_case_integer_parse_into_buffer@I$09@?$output_processor@_WV?$string_output_adapter@_W@__crt_stdio_output@@V?$format_validation_base@_WV?$string_output_adapter@_W@__crt_stdio_output@@@2@@__crt_stdio_output@@AAEXI_N@Z 10053d60 f i libucrtd:output.obj
 0001:00052e50       ??$type_case_integer_parse_into_buffer@I$09@?$output_processor@_WV?$string_output_adapter@_W@__crt_stdio_output@@V?$positional_parameter_base@_WV?$string_output_adapter@_W@__crt_stdio_output@@@2@@__crt_stdio_output@@AAEXI_N@Z 10053e50 f i libucrtd:output.obj
 0001:00052f40       ??$type_case_integer_parse_into_buffer@I$09@?$output_processor@_WV?$string_output_adapter@_W@__crt_stdio_output@@V?$standard_base@_WV?$string_output_adapter@_W@__crt_stdio_output@@@2@@__crt_stdio_output@@AAEXI_N@Z 10053f40 f i libucrtd:output.obj
 0001:00053030       ??$type_case_integer_parse_into_buffer@I$0BA@@?$output_processor@DV?$stream_output_adapter@D@__crt_stdio_output@@V?$format_validation_base@DV?$stream_output_adapter@D@__crt_stdio_output@@@2@@__crt_stdio_output@@AAEXI_N@Z 10054030 f i libucrtd:output.obj
 0001:00053100       ??$type_case_integer_parse_into_buffer@I$0BA@@?$output_processor@DV?$stream_output_adapter@D@__crt_stdio_output@@V?$positional_parameter_base@DV?$stream_output_adapter@D@__crt_stdio_output@@@2@@__crt_stdio_output@@AAEXI_N@Z 10054100 f i libucrtd:output.obj
 0001:000531d0       ??$type_case_integer_parse_into_buffer@I$0BA@@?$output_processor@DV?$stream_output_adapter@D@__crt_stdio_output@@V?$standard_base@DV?$stream_output_adapter@D@__crt_stdio_output@@@2@@__crt_stdio_output@@AAEXI_N@Z 100541d0 f i libucrtd:output.obj
 0001:000532a0       ??$type_case_integer_parse_into_buffer@I$0BA@@?$output_processor@DV?$string_output_adapter@D@__crt_stdio_output@@V?$format_validation_base@DV?$string_output_adapter@D@__crt_stdio_output@@@2@@__crt_stdio_output@@AAEXI_N@Z 100542a0 f i libucrtd:output.obj
 0001:00053370       ??$type_case_integer_parse_into_buffer@I$0BA@@?$output_processor@DV?$string_output_adapter@D@__crt_stdio_output@@V?$positional_parameter_base@DV?$string_output_adapter@D@__crt_stdio_output@@@2@@__crt_stdio_output@@AAEXI_N@Z 10054370 f i libucrtd:output.obj
 0001:00053440       ??$type_case_integer_parse_into_buffer@I$0BA@@?$output_processor@DV?$string_output_adapter@D@__crt_stdio_output@@V?$standard_base@DV?$string_output_adapter@D@__crt_stdio_output@@@2@@__crt_stdio_output@@AAEXI_N@Z 10054440 f i libucrtd:output.obj
 0001:00053510       ??$type_case_integer_parse_into_buffer@I$0BA@@?$output_processor@_WV?$stream_output_adapter@_W@__crt_stdio_output@@V?$format_validation_base@_WV?$stream_output_adapter@_W@__crt_stdio_output@@@2@@__crt_stdio_output@@AAEXI_N@Z 10054510 f i libucrtd:output.obj
 0001:000535f0       ??$type_case_integer_parse_into_buffer@I$0BA@@?$output_processor@_WV?$stream_output_adapter@_W@__crt_stdio_output@@V?$positional_parameter_base@_WV?$stream_output_adapter@_W@__crt_stdio_output@@@2@@__crt_stdio_output@@AAEXI_N@Z 100545f0 f i libucrtd:output.obj
 0001:000536d0       ??$type_case_integer_parse_into_buffer@I$0BA@@?$output_processor@_WV?$stream_output_adapter@_W@__crt_stdio_output@@V?$standard_base@_WV?$stream_output_adapter@_W@__crt_stdio_output@@@2@@__crt_stdio_output@@AAEXI_N@Z 100546d0 f i libucrtd:output.obj
 0001:000537b0       ??$type_case_integer_parse_into_buffer@I$0BA@@?$output_processor@_WV?$string_output_adapter@_W@__crt_stdio_output@@V?$format_validation_base@_WV?$string_output_adapter@_W@__crt_stdio_output@@@2@@__crt_stdio_output@@AAEXI_N@Z 100547b0 f i libucrtd:output.obj
 0001:00053890       ??$type_case_integer_parse_into_buffer@I$0BA@@?$output_processor@_WV?$string_output_adapter@_W@__crt_stdio_output@@V?$positional_parameter_base@_WV?$string_output_adapter@_W@__crt_stdio_output@@@2@@__crt_stdio_output@@AAEXI_N@Z 10054890 f i libucrtd:output.obj
 0001:00053970       ??$type_case_integer_parse_into_buffer@I$0BA@@?$output_processor@_WV?$string_output_adapter@_W@__crt_stdio_output@@V?$standard_base@_WV?$string_output_adapter@_W@__crt_stdio_output@@@2@@__crt_stdio_output@@AAEXI_N@Z 10054970 f i libucrtd:output.obj
 0001:00053a50       ??$type_case_integer_parse_into_buffer@_K$07@?$output_processor@DV?$stream_output_adapter@D@__crt_stdio_output@@V?$format_validation_base@DV?$stream_output_adapter@D@__crt_stdio_output@@@2@@__crt_stdio_output@@AAEX_K_N@Z 10054a50 f i libucrtd:output.obj
 0001:00053b40       ??$type_case_integer_parse_into_buffer@_K$07@?$output_processor@DV?$stream_output_adapter@D@__crt_stdio_output@@V?$positional_parameter_base@DV?$stream_output_adapter@D@__crt_stdio_output@@@2@@__crt_stdio_output@@AAEX_K_N@Z 10054b40 f i libucrtd:output.obj
 0001:00053c30       ??$type_case_integer_parse_into_buffer@_K$07@?$output_processor@DV?$stream_output_adapter@D@__crt_stdio_output@@V?$standard_base@DV?$stream_output_adapter@D@__crt_stdio_output@@@2@@__crt_stdio_output@@AAEX_K_N@Z 10054c30 f i libucrtd:output.obj
 0001:00053d20       ??$type_case_integer_parse_into_buffer@_K$07@?$output_processor@DV?$string_output_adapter@D@__crt_stdio_output@@V?$format_validation_base@DV?$string_output_adapter@D@__crt_stdio_output@@@2@@__crt_stdio_output@@AAEX_K_N@Z 10054d20 f i libucrtd:output.obj
 0001:00053e10       ??$type_case_integer_parse_into_buffer@_K$07@?$output_processor@DV?$string_output_adapter@D@__crt_stdio_output@@V?$positional_parameter_base@DV?$string_output_adapter@D@__crt_stdio_output@@@2@@__crt_stdio_output@@AAEX_K_N@Z 10054e10 f i libucrtd:output.obj
 0001:00053f00       ??$type_case_integer_parse_into_buffer@_K$07@?$output_processor@DV?$string_output_adapter@D@__crt_stdio_output@@V?$standard_base@DV?$string_output_adapter@D@__crt_stdio_output@@@2@@__crt_stdio_output@@AAEX_K_N@Z 10054f00 f i libucrtd:output.obj
 0001:00053ff0       ??$type_case_integer_parse_into_buffer@_K$07@?$output_processor@_WV?$stream_output_adapter@_W@__crt_stdio_output@@V?$format_validation_base@_WV?$stream_output_adapter@_W@__crt_stdio_output@@@2@@__crt_stdio_output@@AAEX_K_N@Z 10054ff0 f i libucrtd:output.obj
 0001:000540f0       ??$type_case_integer_parse_into_buffer@_K$07@?$output_processor@_WV?$stream_output_adapter@_W@__crt_stdio_output@@V?$positional_parameter_base@_WV?$stream_output_adapter@_W@__crt_stdio_output@@@2@@__crt_stdio_output@@AAEX_K_N@Z 100550f0 f i libucrtd:output.obj
 0001:000541f0       ??$type_case_integer_parse_into_buffer@_K$07@?$output_processor@_WV?$stream_output_adapter@_W@__crt_stdio_output@@V?$standard_base@_WV?$stream_output_adapter@_W@__crt_stdio_output@@@2@@__crt_stdio_output@@AAEX_K_N@Z 100551f0 f i libucrtd:output.obj
 0001:000542f0       ??$type_case_integer_parse_into_buffer@_K$07@?$output_processor@_WV?$string_output_adapter@_W@__crt_stdio_output@@V?$format_validation_base@_WV?$string_output_adapter@_W@__crt_stdio_output@@@2@@__crt_stdio_output@@AAEX_K_N@Z 100552f0 f i libucrtd:output.obj
 0001:000543f0       ??$type_case_integer_parse_into_buffer@_K$07@?$output_processor@_WV?$string_output_adapter@_W@__crt_stdio_output@@V?$positional_parameter_base@_WV?$string_output_adapter@_W@__crt_stdio_output@@@2@@__crt_stdio_output@@AAEX_K_N@Z 100553f0 f i libucrtd:output.obj
 0001:000544f0       ??$type_case_integer_parse_into_buffer@_K$07@?$output_processor@_WV?$string_output_adapter@_W@__crt_stdio_output@@V?$standard_base@_WV?$string_output_adapter@_W@__crt_stdio_output@@@2@@__crt_stdio_output@@AAEX_K_N@Z 100554f0 f i libucrtd:output.obj
 0001:000545f0       ??$type_case_integer_parse_into_buffer@_K$09@?$output_processor@DV?$stream_output_adapter@D@__crt_stdio_output@@V?$format_validation_base@DV?$stream_output_adapter@D@__crt_stdio_output@@@2@@__crt_stdio_output@@AAEX_K_N@Z 100555f0 f i libucrtd:output.obj
 0001:000546e0       ??$type_case_integer_parse_into_buffer@_K$09@?$output_processor@DV?$stream_output_adapter@D@__crt_stdio_output@@V?$positional_parameter_base@DV?$stream_output_adapter@D@__crt_stdio_output@@@2@@__crt_stdio_output@@AAEX_K_N@Z 100556e0 f i libucrtd:output.obj
 0001:000547d0       ??$type_case_integer_parse_into_buffer@_K$09@?$output_processor@DV?$stream_output_adapter@D@__crt_stdio_output@@V?$standard_base@DV?$stream_output_adapter@D@__crt_stdio_output@@@2@@__crt_stdio_output@@AAEX_K_N@Z 100557d0 f i libucrtd:output.obj
 0001:000548c0       ??$type_case_integer_parse_into_buffer@_K$09@?$output_processor@DV?$string_output_adapter@D@__crt_stdio_output@@V?$format_validation_base@DV?$string_output_adapter@D@__crt_stdio_output@@@2@@__crt_stdio_output@@AAEX_K_N@Z 100558c0 f i libucrtd:output.obj
 0001:000549b0       ??$type_case_integer_parse_into_buffer@_K$09@?$output_processor@DV?$string_output_adapter@D@__crt_stdio_output@@V?$positional_parameter_base@DV?$string_output_adapter@D@__crt_stdio_output@@@2@@__crt_stdio_output@@AAEX_K_N@Z 100559b0 f i libucrtd:output.obj
 0001:00054aa0       ??$type_case_integer_parse_into_buffer@_K$09@?$output_processor@DV?$string_output_adapter@D@__crt_stdio_output@@V?$standard_base@DV?$string_output_adapter@D@__crt_stdio_output@@@2@@__crt_stdio_output@@AAEX_K_N@Z 10055aa0 f i libucrtd:output.obj
 0001:00054b90       ??$type_case_integer_parse_into_buffer@_K$09@?$output_processor@_WV?$stream_output_adapter@_W@__crt_stdio_output@@V?$format_validation_base@_WV?$stream_output_adapter@_W@__crt_stdio_output@@@2@@__crt_stdio_output@@AAEX_K_N@Z 10055b90 f i libucrtd:output.obj
 0001:00054c90       ??$type_case_integer_parse_into_buffer@_K$09@?$output_processor@_WV?$stream_output_adapter@_W@__crt_stdio_output@@V?$positional_parameter_base@_WV?$stream_output_adapter@_W@__crt_stdio_output@@@2@@__crt_stdio_output@@AAEX_K_N@Z 10055c90 f i libucrtd:output.obj
 0001:00054d90       ??$type_case_integer_parse_into_buffer@_K$09@?$output_processor@_WV?$stream_output_adapter@_W@__crt_stdio_output@@V?$standard_base@_WV?$stream_output_adapter@_W@__crt_stdio_output@@@2@@__crt_stdio_output@@AAEX_K_N@Z 10055d90 f i libucrtd:output.obj
 0001:00054e90       ??$type_case_integer_parse_into_buffer@_K$09@?$output_processor@_WV?$string_output_adapter@_W@__crt_stdio_output@@V?$format_validation_base@_WV?$string_output_adapter@_W@__crt_stdio_output@@@2@@__crt_stdio_output@@AAEX_K_N@Z 10055e90 f i libucrtd:output.obj
 0001:00054f90       ??$type_case_integer_parse_into_buffer@_K$09@?$output_processor@_WV?$string_output_adapter@_W@__crt_stdio_output@@V?$positional_parameter_base@_WV?$string_output_adapter@_W@__crt_stdio_output@@@2@@__crt_stdio_output@@AAEX_K_N@Z 10055f90 f i libucrtd:output.obj
 0001:00055090       ??$type_case_integer_parse_into_buffer@_K$09@?$output_processor@_WV?$string_output_adapter@_W@__crt_stdio_output@@V?$standard_base@_WV?$string_output_adapter@_W@__crt_stdio_output@@@2@@__crt_stdio_output@@AAEX_K_N@Z 10056090 f i libucrtd:output.obj
 0001:00055190       ??$type_case_integer_parse_into_buffer@_K$0BA@@?$output_processor@DV?$stream_output_adapter@D@__crt_stdio_output@@V?$format_validation_base@DV?$stream_output_adapter@D@__crt_stdio_output@@@2@@__crt_stdio_output@@AAEX_K_N@Z 10056190 f i libucrtd:output.obj
 0001:00055280       ??$type_case_integer_parse_into_buffer@_K$0BA@@?$output_processor@DV?$stream_output_adapter@D@__crt_stdio_output@@V?$positional_parameter_base@DV?$stream_output_adapter@D@__crt_stdio_output@@@2@@__crt_stdio_output@@AAEX_K_N@Z 10056280 f i libucrtd:output.obj
 0001:00055370       ??$type_case_integer_parse_into_buffer@_K$0BA@@?$output_processor@DV?$stream_output_adapter@D@__crt_stdio_output@@V?$standard_base@DV?$stream_output_adapter@D@__crt_stdio_output@@@2@@__crt_stdio_output@@AAEX_K_N@Z 10056370 f i libucrtd:output.obj
 0001:00055460       ??$type_case_integer_parse_into_buffer@_K$0BA@@?$output_processor@DV?$string_output_adapter@D@__crt_stdio_output@@V?$format_validation_base@DV?$string_output_adapter@D@__crt_stdio_output@@@2@@__crt_stdio_output@@AAEX_K_N@Z 10056460 f i libucrtd:output.obj
 0001:00055550       ??$type_case_integer_parse_into_buffer@_K$0BA@@?$output_processor@DV?$string_output_adapter@D@__crt_stdio_output@@V?$positional_parameter_base@DV?$string_output_adapter@D@__crt_stdio_output@@@2@@__crt_stdio_output@@AAEX_K_N@Z 10056550 f i libucrtd:output.obj
 0001:00055640       ??$type_case_integer_parse_into_buffer@_K$0BA@@?$output_processor@DV?$string_output_adapter@D@__crt_stdio_output@@V?$standard_base@DV?$string_output_adapter@D@__crt_stdio_output@@@2@@__crt_stdio_output@@AAEX_K_N@Z 10056640 f i libucrtd:output.obj
 0001:00055730       ??$type_case_integer_parse_into_buffer@_K$0BA@@?$output_processor@_WV?$stream_output_adapter@_W@__crt_stdio_output@@V?$format_validation_base@_WV?$stream_output_adapter@_W@__crt_stdio_output@@@2@@__crt_stdio_output@@AAEX_K_N@Z 10056730 f i libucrtd:output.obj
 0001:00055830       ??$type_case_integer_parse_into_buffer@_K$0BA@@?$output_processor@_WV?$stream_output_adapter@_W@__crt_stdio_output@@V?$positional_parameter_base@_WV?$stream_output_adapter@_W@__crt_stdio_output@@@2@@__crt_stdio_output@@AAEX_K_N@Z 10056830 f i libucrtd:output.obj
 0001:00055930       ??$type_case_integer_parse_into_buffer@_K$0BA@@?$output_processor@_WV?$stream_output_adapter@_W@__crt_stdio_output@@V?$standard_base@_WV?$stream_output_adapter@_W@__crt_stdio_output@@@2@@__crt_stdio_output@@AAEX_K_N@Z 10056930 f i libucrtd:output.obj
 0001:00055a30       ??$type_case_integer_parse_into_buffer@_K$0BA@@?$output_processor@_WV?$string_output_adapter@_W@__crt_stdio_output@@V?$format_validation_base@_WV?$string_output_adapter@_W@__crt_stdio_output@@@2@@__crt_stdio_output@@AAEX_K_N@Z 10056a30 f i libucrtd:output.obj
 0001:00055b30       ??$type_case_integer_parse_into_buffer@_K$0BA@@?$output_processor@_WV?$string_output_adapter@_W@__crt_stdio_output@@V?$positional_parameter_base@_WV?$string_output_adapter@_W@__crt_stdio_output@@@2@@__crt_stdio_output@@AAEX_K_N@Z 10056b30 f i libucrtd:output.obj
 0001:00055c30       ??$type_case_integer_parse_into_buffer@_K$0BA@@?$output_processor@_WV?$string_output_adapter@_W@__crt_stdio_output@@V?$standard_base@_WV?$string_output_adapter@_W@__crt_stdio_output@@@2@@__crt_stdio_output@@AAEX_K_N@Z 10056c30 f i libucrtd:output.obj
 0001:00055d30       ??$write_multiple_characters@V?$stream_output_adapter@D@__crt_stdio_output@@D@__crt_stdio_output@@YAXABV?$stream_output_adapter@D@0@DHQAHAAV__crt_cached_ptd_host@@@Z 10056d30 f i libucrtd:output.obj
 0001:00055d80       ??$write_multiple_characters@V?$stream_output_adapter@_W@__crt_stdio_output@@D@__crt_stdio_output@@YAXABV?$stream_output_adapter@_W@0@DHQAHAAV__crt_cached_ptd_host@@@Z 10056d80 f i libucrtd:output.obj
 0001:00055dd0       ??$write_multiple_characters@V?$string_output_adapter@D@__crt_stdio_output@@D@__crt_stdio_output@@YAXABV?$string_output_adapter@D@0@DHQAHAAV__crt_cached_ptd_host@@@Z 10056dd0 f i libucrtd:output.obj
 0001:00055e20       ??$write_multiple_characters@V?$string_output_adapter@_W@__crt_stdio_output@@D@__crt_stdio_output@@YAXABV?$string_output_adapter@_W@0@DHQAHAAV__crt_cached_ptd_host@@@Z 10056e20 f i libucrtd:output.obj
 0001:00056170       ??0?$c_string_character_source@D@__crt_strtox@@QAE@QBDQAPBD@Z 10057170 f i libucrtd:output.obj
 0001:000561b0       ??0?$c_string_character_source@_W@__crt_strtox@@QAE@QB_WQAPB_W@Z 100571b0 f i libucrtd:output.obj
 0001:000561f0       ??0?$cached@H@__crt_cached_ptd_host@@QAE@XZ 100571f0 f i libucrtd:output.obj
 0001:00056210       ??0?$cached@K@__crt_cached_ptd_host@@QAE@XZ 10057210 f i libucrtd:output.obj
 0001:00056230       ??0?$common_data@D@__crt_stdio_output@@IAE@AAV__crt_cached_ptd_host@@@Z 10057230 f i libucrtd:output.obj
 0001:000562d0       ??0?$common_data@_W@__crt_stdio_output@@IAE@AAV__crt_cached_ptd_host@@@Z 100572d0 f i libucrtd:output.obj
 0001:00056370       ??0?$output_adapter_data@DV?$stream_output_adapter@D@__crt_stdio_output@@@__crt_stdio_output@@IAE@ABV?$stream_output_adapter@D@1@_KQBDAAV__crt_cached_ptd_host@@QAD@Z 10057370 f i libucrtd:output.obj
 0001:000563f0       ??0?$output_adapter_data@DV?$string_output_adapter@D@__crt_stdio_output@@@__crt_stdio_output@@IAE@ABV?$string_output_adapter@D@1@_KQBDAAV__crt_cached_ptd_host@@QAD@Z 100573f0 f i libucrtd:output.obj
 0001:00056470       ??0?$output_adapter_data@_WV?$stream_output_adapter@_W@__crt_stdio_output@@@__crt_stdio_output@@IAE@ABV?$stream_output_adapter@_W@1@_KQB_WAAV__crt_cached_ptd_host@@QAD@Z 10057470 f i libucrtd:output.obj
 0001:000564f0       ??0?$output_adapter_data@_WV?$string_output_adapter@_W@__crt_stdio_output@@@__crt_stdio_output@@IAE@ABV?$string_output_adapter@_W@1@_KQB_WAAV__crt_cached_ptd_host@@QAD@Z 100574f0 f i libucrtd:output.obj
 0001:00056570       ??0?$output_processor@DV?$stream_output_adapter@D@__crt_stdio_output@@V?$format_validation_base@DV?$stream_output_adapter@D@__crt_stdio_output@@@2@@__crt_stdio_output@@QAE@ABV?$stream_output_adapter@D@1@_KQBDAAV__crt_cached_ptd_host@@QAD@Z 10057570 f i libucrtd:output.obj
 0001:000565a0       ??0?$output_processor@DV?$stream_output_adapter@D@__crt_stdio_output@@V?$positional_parameter_base@DV?$stream_output_adapter@D@__crt_stdio_output@@@2@@__crt_stdio_output@@QAE@ABV?$stream_output_adapter@D@1@_KQBDAAV__crt_cached_ptd_host@@QAD@Z 100575a0 f i libucrtd:output.obj
 0001:000565d0       ??0?$output_processor@DV?$stream_output_adapter@D@__crt_stdio_output@@V?$standard_base@DV?$stream_output_adapter@D@__crt_stdio_output@@@2@@__crt_stdio_output@@QAE@ABV?$stream_output_adapter@D@1@_KQBDAAV__crt_cached_ptd_host@@QAD@Z 100575d0 f i libucrtd:output.obj
 0001:00056600       ??0?$output_processor@DV?$string_output_adapter@D@__crt_stdio_output@@V?$format_validation_base@DV?$string_output_adapter@D@__crt_stdio_output@@@2@@__crt_stdio_output@@QAE@ABV?$string_output_adapter@D@1@_KQBDAAV__crt_cached_ptd_host@@QAD@Z 10057600 f i libucrtd:output.obj
 0001:00056630       ??0?$output_processor@DV?$string_output_adapter@D@__crt_stdio_output@@V?$positional_parameter_base@DV?$string_output_adapter@D@__crt_stdio_output@@@2@@__crt_stdio_output@@QAE@ABV?$string_output_adapter@D@1@_KQBDAAV__crt_cached_ptd_host@@QAD@Z 10057630 f i libucrtd:output.obj
 0001:00056660       ??0?$output_processor@DV?$string_output_adapter@D@__crt_stdio_output@@V?$standard_base@DV?$string_output_adapter@D@__crt_stdio_output@@@2@@__crt_stdio_output@@QAE@ABV?$string_output_adapter@D@1@_KQBDAAV__crt_cached_ptd_host@@QAD@Z 10057660 f i libucrtd:output.obj
 0001:00056690       ??0?$output_processor@_WV?$stream_output_adapter@_W@__crt_stdio_output@@V?$format_validation_base@_WV?$stream_output_adapter@_W@__crt_stdio_output@@@2@@__crt_stdio_output@@QAE@ABV?$stream_output_adapter@_W@1@_KQB_WAAV__crt_cached_ptd_host@@QAD@Z 10057690 f i libucrtd:output.obj
 0001:000566c0       ??0?$output_processor@_WV?$stream_output_adapter@_W@__crt_stdio_output@@V?$positional_parameter_base@_WV?$stream_output_adapter@_W@__crt_stdio_output@@@2@@__crt_stdio_output@@QAE@ABV?$stream_output_adapter@_W@1@_KQB_WAAV__crt_cached_ptd_host@@QAD@Z 100576c0 f i libucrtd:output.obj
 0001:000566f0       ??0?$output_processor@_WV?$stream_output_adapter@_W@__crt_stdio_output@@V?$standard_base@_WV?$stream_output_adapter@_W@__crt_stdio_output@@@2@@__crt_stdio_output@@QAE@ABV?$stream_output_adapter@_W@1@_KQB_WAAV__crt_cached_ptd_host@@QAD@Z 100576f0 f i libucrtd:output.obj
 0001:00056720       ??0?$output_processor@_WV?$string_output_adapter@_W@__crt_stdio_output@@V?$format_validation_base@_WV?$string_output_adapter@_W@__crt_stdio_output@@@2@@__crt_stdio_output@@QAE@ABV?$string_output_adapter@_W@1@_KQB_WAAV__crt_cached_ptd_host@@QAD@Z 10057720 f i libucrtd:output.obj
 0001:00056750       ??0?$output_processor@_WV?$string_output_adapter@_W@__crt_stdio_output@@V?$positional_parameter_base@_WV?$string_output_adapter@_W@__crt_stdio_output@@@2@@__crt_stdio_output@@QAE@ABV?$string_output_adapter@_W@1@_KQB_WAAV__crt_cached_ptd_host@@QAD@Z 10057750 f i libucrtd:output.obj
 0001:00056780       ??0?$output_processor@_WV?$string_output_adapter@_W@__crt_stdio_output@@V?$standard_base@_WV?$string_output_adapter@_W@__crt_stdio_output@@@2@@__crt_stdio_output@@QAE@ABV?$string_output_adapter@_W@1@_KQB_WAAV__crt_cached_ptd_host@@QAD@Z 10057780 f i libucrtd:output.obj
 0001:000567b0       ??0?$stream_output_adapter@D@__crt_stdio_output@@QAE@QAU_iobuf@@@Z 100577b0 f i libucrtd:output.obj
 0001:000567e0       ??0?$stream_output_adapter@_W@__crt_stdio_output@@QAE@QAU_iobuf@@@Z 100577e0 f i libucrtd:output.obj
 0001:00056810       ??0?$string_output_adapter@D@__crt_stdio_output@@QAE@QAU?$string_output_adapter_context@D@1@@Z 10057810 f i libucrtd:output.obj
 0001:00056830       ??0?$string_output_adapter@_W@__crt_stdio_output@@QAE@QAU?$string_output_adapter_context@_W@1@@Z 10057830 f i libucrtd:output.obj
 0001:00056850       ??0__acrt_stdio_temporary_buffering_guard@@QAE@QAU_iobuf@@AAV__crt_cached_ptd_host@@@Z 10057850 f i libucrtd:output.obj
 0001:00056890       ??0__crt_cached_ptd_host@@QAE@QAU__crt_locale_pointers@@@Z 10057890 f i libucrtd:output.obj
 0001:00056920       ??0__crt_scoped_get_last_error_reset@@QAE@XZ 10057920 f i libucrtd:output.obj
 0001:00056940       ??0__crt_stdio_stream@@QAE@QAU_iobuf@@@Z 10057940 f i libucrtd:output.obj
 0001:00056960       ??0formatting_buffer@__crt_stdio_output@@QAE@XZ 10057960 f i libucrtd:output.obj
 0001:000569a0       ??0guard@?$cached@H@__crt_cached_ptd_host@@QAE@AAU12@@Z 100579a0 f i libucrtd:output.obj
 0001:000569e0       ??1?$c_string_character_source@D@__crt_strtox@@QAE@XZ 100579e0 f i libucrtd:output.obj
 0001:00056a10       ??1?$c_string_character_source@_W@__crt_strtox@@QAE@XZ 10057a10 f i libucrtd:output.obj
 0001:00056a40       ??1?$common_data@D@__crt_stdio_output@@QAE@XZ 10057a40 f i libucrtd:output.obj
 0001:00056a60       ??1?$common_data@_W@__crt_stdio_output@@QAE@XZ 10057a60 f i libucrtd:output.obj
 0001:00056a80       ??1?$format_validation_base@DV?$stream_output_adapter@D@__crt_stdio_output@@@__crt_stdio_output@@QAE@XZ 10057a80 f i libucrtd:output.obj
 0001:00056aa0       ??1?$format_validation_base@DV?$string_output_adapter@D@__crt_stdio_output@@@__crt_stdio_output@@QAE@XZ 10057aa0 f i libucrtd:output.obj
 0001:00056ac0       ??1?$format_validation_base@_WV?$stream_output_adapter@_W@__crt_stdio_output@@@__crt_stdio_output@@QAE@XZ 10057ac0 f i libucrtd:output.obj
 0001:00056ae0       ??1?$format_validation_base@_WV?$string_output_adapter@_W@__crt_stdio_output@@@__crt_stdio_output@@QAE@XZ 10057ae0 f i libucrtd:output.obj
 0001:00056b00       ??1?$output_adapter_data@DV?$stream_output_adapter@D@__crt_stdio_output@@@__crt_stdio_output@@QAE@XZ 10057b00 f i libucrtd:output.obj
 0001:00056b20       ??1?$output_adapter_data@DV?$string_output_adapter@D@__crt_stdio_output@@@__crt_stdio_output@@QAE@XZ 10057b20 f i libucrtd:output.obj
 0001:00056b40       ??1?$output_adapter_data@_WV?$stream_output_adapter@_W@__crt_stdio_output@@@__crt_stdio_output@@QAE@XZ 10057b40 f i libucrtd:output.obj
 0001:00056b60       ??1?$output_adapter_data@_WV?$string_output_adapter@_W@__crt_stdio_output@@@__crt_stdio_output@@QAE@XZ 10057b60 f i libucrtd:output.obj
 0001:00056b80       ??1?$output_processor@DV?$stream_output_adapter@D@__crt_stdio_output@@V?$format_validation_base@DV?$stream_output_adapter@D@__crt_stdio_output@@@2@@__crt_stdio_output@@QAE@XZ 10057b80 f i libucrtd:output.obj
 0001:00056ba0       ??1?$output_processor@DV?$stream_output_adapter@D@__crt_stdio_output@@V?$positional_parameter_base@DV?$stream_output_adapter@D@__crt_stdio_output@@@2@@__crt_stdio_output@@QAE@XZ 10057ba0 f i libucrtd:output.obj
 0001:00056bc0       ??1?$output_processor@DV?$stream_output_adapter@D@__crt_stdio_output@@V?$standard_base@DV?$stream_output_adapter@D@__crt_stdio_output@@@2@@__crt_stdio_output@@QAE@XZ 10057bc0 f i libucrtd:output.obj
 0001:00056be0       ??1?$output_processor@DV?$string_output_adapter@D@__crt_stdio_output@@V?$format_validation_base@DV?$string_output_adapter@D@__crt_stdio_output@@@2@@__crt_stdio_output@@QAE@XZ 10057be0 f i libucrtd:output.obj
 0001:00056c00       ??1?$output_processor@DV?$string_output_adapter@D@__crt_stdio_output@@V?$positional_parameter_base@DV?$string_output_adapter@D@__crt_stdio_output@@@2@@__crt_stdio_output@@QAE@XZ 10057c00 f i libucrtd:output.obj
 0001:00056c20       ??1?$output_processor@DV?$string_output_adapter@D@__crt_stdio_output@@V?$standard_base@DV?$string_output_adapter@D@__crt_stdio_output@@@2@@__crt_stdio_output@@QAE@XZ 10057c20 f i libucrtd:output.obj
 0001:00056c40       ??1?$output_processor@_WV?$stream_output_adapter@_W@__crt_stdio_output@@V?$format_validation_base@_WV?$stream_output_adapter@_W@__crt_stdio_output@@@2@@__crt_stdio_output@@QAE@XZ 10057c40 f i libucrtd:output.obj
 0001:00056c60       ??1?$output_processor@_WV?$stream_output_adapter@_W@__crt_stdio_output@@V?$positional_parameter_base@_WV?$stream_output_adapter@_W@__crt_stdio_output@@@2@@__crt_stdio_output@@QAE@XZ 10057c60 f i libucrtd:output.obj
 0001:00056c80       ??1?$output_processor@_WV?$stream_output_adapter@_W@__crt_stdio_output@@V?$standard_base@_WV?$stream_output_adapter@_W@__crt_stdio_output@@@2@@__crt_stdio_output@@QAE@XZ 10057c80 f i libucrtd:output.obj
 0001:00056ca0       ??1?$output_processor@_WV?$string_output_adapter@_W@__crt_stdio_output@@V?$format_validation_base@_WV?$string_output_adapter@_W@__crt_stdio_output@@@2@@__crt_stdio_output@@QAE@XZ 10057ca0 f i libucrtd:output.obj
 0001:00056cc0       ??1?$output_processor@_WV?$string_output_adapter@_W@__crt_stdio_output@@V?$positional_parameter_base@_WV?$string_output_adapter@_W@__crt_stdio_output@@@2@@__crt_stdio_output@@QAE@XZ 10057cc0 f i libucrtd:output.obj
 0001:00056ce0       ??1?$output_processor@_WV?$string_output_adapter@_W@__crt_stdio_output@@V?$standard_base@_WV?$string_output_adapter@_W@__crt_stdio_output@@@2@@__crt_stdio_output@@QAE@XZ 10057ce0 f i libucrtd:output.obj
 0001:00056d00       ??1?$positional_parameter_base@DV?$stream_output_adapter@D@__crt_stdio_output@@@__crt_stdio_output@@QAE@XZ 10057d00 f i libucrtd:output.obj
 0001:00056d20       ??1?$positional_parameter_base@DV?$string_output_adapter@D@__crt_stdio_output@@@__crt_stdio_output@@QAE@XZ 10057d20 f i libucrtd:output.obj
 0001:00056d40       ??1?$positional_parameter_base@_WV?$stream_output_adapter@_W@__crt_stdio_output@@@__crt_stdio_output@@QAE@XZ 10057d40 f i libucrtd:output.obj
 0001:00056d60       ??1?$positional_parameter_base@_WV?$string_output_adapter@_W@__crt_stdio_output@@@__crt_stdio_output@@QAE@XZ 10057d60 f i libucrtd:output.obj
 0001:00056d80       ??1?$standard_base@DV?$stream_output_adapter@D@__crt_stdio_output@@@__crt_stdio_output@@QAE@XZ 10057d80 f i libucrtd:output.obj
 0001:00056da0       ??1?$standard_base@DV?$string_output_adapter@D@__crt_stdio_output@@@__crt_stdio_output@@QAE@XZ 10057da0 f i libucrtd:output.obj
 0001:00056dc0       ??1?$standard_base@_WV?$stream_output_adapter@_W@__crt_stdio_output@@@__crt_stdio_output@@QAE@XZ 10057dc0 f i libucrtd:output.obj
 0001:00056de0       ??1?$standard_base@_WV?$string_output_adapter@_W@__crt_stdio_output@@@__crt_stdio_output@@QAE@XZ 10057de0 f i libucrtd:output.obj
 0001:00056e00       ??1__acrt_stdio_temporary_buffering_guard@@QAE@XZ 10057e00 f i libucrtd:output.obj
 0001:00056e30       ??1__crt_cached_ptd_host@@QAE@XZ 10057e30 f i libucrtd:output.obj
 0001:00056ec0       ??1__crt_scoped_get_last_error_reset@@QAE@XZ 10057ec0 f i libucrtd:output.obj
 0001:00056ee0       ??1formatting_buffer@__crt_stdio_output@@QAE@XZ 10057ee0 f i libucrtd:output.obj
 0001:00056f00       ??1guard@?$cached@H@__crt_cached_ptd_host@@QAE@XZ 10057f00 f i libucrtd:output.obj
 0001:00056f30       ??4?$__crt_unique_heap_ptr@DU__crt_internal_free_policy@@@@QAEAAV0@$$QAV0@@Z 10057f30 f i libucrtd:output.obj
 0001:00056f60       ??A?$spectre_mitigated_lookup_table@Ustate_transition_pair@__crt_stdio_output@@$0IA@@__crt_stdio_output@@QBEABUstate_transition_pair@1@I@Z 10057f60 f i libucrtd:output.obj
 0001:00056f80       ??C__crt_stdio_stream@@QBEPAU__crt_stdio_stream_data@@XZ 10057f80 f i libucrtd:output.obj
 0001:000577e0       ?adjust_hexit@?$output_processor@DV?$stream_output_adapter@D@__crt_stdio_output@@V?$format_validation_base@DV?$stream_output_adapter@D@__crt_stdio_output@@@2@@__crt_stdio_output@@CADH_N@Z 100587e0 f i libucrtd:output.obj
 0001:00057820       ?adjust_hexit@?$output_processor@DV?$stream_output_adapter@D@__crt_stdio_output@@V?$positional_parameter_base@DV?$stream_output_adapter@D@__crt_stdio_output@@@2@@__crt_stdio_output@@CADH_N@Z 10058820 f i libucrtd:output.obj
 0001:00057860       ?adjust_hexit@?$output_processor@DV?$stream_output_adapter@D@__crt_stdio_output@@V?$standard_base@DV?$stream_output_adapter@D@__crt_stdio_output@@@2@@__crt_stdio_output@@CADH_N@Z 10058860 f i libucrtd:output.obj
 0001:000578a0       ?adjust_hexit@?$output_processor@DV?$string_output_adapter@D@__crt_stdio_output@@V?$format_validation_base@DV?$string_output_adapter@D@__crt_stdio_output@@@2@@__crt_stdio_output@@CADH_N@Z 100588a0 f i libucrtd:output.obj
 0001:000578e0       ?adjust_hexit@?$output_processor@DV?$string_output_adapter@D@__crt_stdio_output@@V?$positional_parameter_base@DV?$string_output_adapter@D@__crt_stdio_output@@@2@@__crt_stdio_output@@CADH_N@Z 100588e0 f i libucrtd:output.obj
 0001:00057920       ?adjust_hexit@?$output_processor@DV?$string_output_adapter@D@__crt_stdio_output@@V?$standard_base@DV?$string_output_adapter@D@__crt_stdio_output@@@2@@__crt_stdio_output@@CADH_N@Z 10058920 f i libucrtd:output.obj
 0001:00057960       ?adjust_hexit@?$output_processor@_WV?$stream_output_adapter@_W@__crt_stdio_output@@V?$format_validation_base@_WV?$stream_output_adapter@_W@__crt_stdio_output@@@2@@__crt_stdio_output@@CADH_N@Z 10058960 f i libucrtd:output.obj
 0001:000579a0       ?adjust_hexit@?$output_processor@_WV?$stream_output_adapter@_W@__crt_stdio_output@@V?$positional_parameter_base@_WV?$stream_output_adapter@_W@__crt_stdio_output@@@2@@__crt_stdio_output@@CADH_N@Z 100589a0 f i libucrtd:output.obj
 0001:000579e0       ?adjust_hexit@?$output_processor@_WV?$stream_output_adapter@_W@__crt_stdio_output@@V?$standard_base@_WV?$stream_output_adapter@_W@__crt_stdio_output@@@2@@__crt_stdio_output@@CADH_N@Z 100589e0 f i libucrtd:output.obj
 0001:00057a20       ?adjust_hexit@?$output_processor@_WV?$string_output_adapter@_W@__crt_stdio_output@@V?$format_validation_base@_WV?$string_output_adapter@_W@__crt_stdio_output@@@2@@__crt_stdio_output@@CADH_N@Z 10058a20 f i libucrtd:output.obj
 0001:00057a60       ?adjust_hexit@?$output_processor@_WV?$string_output_adapter@_W@__crt_stdio_output@@V?$positional_parameter_base@_WV?$string_output_adapter@_W@__crt_stdio_output@@@2@@__crt_stdio_output@@CADH_N@Z 10058a60 f i libucrtd:output.obj
 0001:00057aa0       ?adjust_hexit@?$output_processor@_WV?$string_output_adapter@_W@__crt_stdio_output@@V?$standard_base@_WV?$string_output_adapter@_W@__crt_stdio_output@@@2@@__crt_stdio_output@@CADH_N@Z 10058aa0 f i libucrtd:output.obj
 0001:00057ae0       ?advance_to_next_pass@?$positional_parameter_base@DV?$stream_output_adapter@D@__crt_stdio_output@@@__crt_stdio_output@@IAE_NXZ 10058ae0 f i libucrtd:output.obj
 0001:00057b80       ?advance_to_next_pass@?$positional_parameter_base@DV?$string_output_adapter@D@__crt_stdio_output@@@__crt_stdio_output@@IAE_NXZ 10058b80 f i libucrtd:output.obj
 0001:00057c20       ?advance_to_next_pass@?$positional_parameter_base@_WV?$stream_output_adapter@_W@__crt_stdio_output@@@__crt_stdio_output@@IAE_NXZ 10058c20 f i libucrtd:output.obj
 0001:00057cc0       ?advance_to_next_pass@?$positional_parameter_base@_WV?$string_output_adapter@_W@__crt_stdio_output@@@__crt_stdio_output@@IAE_NXZ 10058cc0 f i libucrtd:output.obj
 0001:00057d60       ?advance_to_next_pass@?$standard_base@DV?$stream_output_adapter@D@__crt_stdio_output@@@__crt_stdio_output@@IAE_NXZ 10058d60 f i libucrtd:output.obj
 0001:00057db0       ?advance_to_next_pass@?$standard_base@DV?$string_output_adapter@D@__crt_stdio_output@@@__crt_stdio_output@@IAE_NXZ 10058db0 f i libucrtd:output.obj
 0001:00057e00       ?advance_to_next_pass@?$standard_base@_WV?$stream_output_adapter@_W@__crt_stdio_output@@@__crt_stdio_output@@IAE_NXZ 10058e00 f i libucrtd:output.obj
 0001:00057e50       ?advance_to_next_pass@?$standard_base@_WV?$string_output_adapter@_W@__crt_stdio_output@@@__crt_stdio_output@@IAE_NXZ 10058e50 f i libucrtd:output.obj
 0001:00057ea0       ?check@?$cached@H@__crt_cached_ptd_host@@QBE_NH@Z 10058ea0 f i libucrtd:output.obj
 0001:00057ee0       ?check_synchronize_global_state_index@__crt_cached_ptd_host@@AAEIABV__crt_scoped_get_last_error_reset@@@Z 10058ee0 f i libucrtd:output.obj
 0001:00057f10       ?check_synchronize_per_thread_data@__crt_cached_ptd_host@@AAEPAU__acrt_ptd@@XZ 10058f10 f i libucrtd:output.obj
 0001:00057f40       ?create_guard@?$cached@H@__crt_cached_ptd_host@@QAE?AVguard@12@XZ 10058f40 f i libucrtd:output.obj
 0001:00057f60       ?crop_zeroes@__crt_stdio_output@@YAXPADQAU__crt_locale_pointers@@@Z 10058f60 f i libucrtd:output.obj
 0001:00058060       ?disable@guard@?$cached@H@__crt_cached_ptd_host@@QAEXXZ 10059060 f i libucrtd:output.obj
 0001:00058080       ?enable@guard@?$cached@H@__crt_cached_ptd_host@@QAEXXZ 10059080 f i libucrtd:output.obj
 0001:000580a0       ?find_next_state@?$output_processor@DV?$stream_output_adapter@D@__crt_stdio_output@@V?$format_validation_base@DV?$stream_output_adapter@D@__crt_stdio_output@@@2@@__crt_stdio_output@@ABE?AW4state@2@DW432@@Z 100590a0 f i libucrtd:output.obj
 0001:00058140       ?find_next_state@?$output_processor@DV?$stream_output_adapter@D@__crt_stdio_output@@V?$positional_parameter_base@DV?$stream_output_adapter@D@__crt_stdio_output@@@2@@__crt_stdio_output@@ABE?AW4state@2@DW432@@Z 10059140 f i libucrtd:output.obj
 0001:000581e0       ?find_next_state@?$output_processor@DV?$stream_output_adapter@D@__crt_stdio_output@@V?$standard_base@DV?$stream_output_adapter@D@__crt_stdio_output@@@2@@__crt_stdio_output@@ABE?AW4state@2@DW432@@Z 100591e0 f i libucrtd:output.obj
 0001:00058280       ?find_next_state@?$output_processor@DV?$string_output_adapter@D@__crt_stdio_output@@V?$format_validation_base@DV?$string_output_adapter@D@__crt_stdio_output@@@2@@__crt_stdio_output@@ABE?AW4state@2@DW432@@Z 10059280 f i libucrtd:output.obj
 0001:00058320       ?find_next_state@?$output_processor@DV?$string_output_adapter@D@__crt_stdio_output@@V?$positional_parameter_base@DV?$string_output_adapter@D@__crt_stdio_output@@@2@@__crt_stdio_output@@ABE?AW4state@2@DW432@@Z 10059320 f i libucrtd:output.obj
 0001:000583c0       ?find_next_state@?$output_processor@DV?$string_output_adapter@D@__crt_stdio_output@@V?$standard_base@DV?$string_output_adapter@D@__crt_stdio_output@@@2@@__crt_stdio_output@@ABE?AW4state@2@DW432@@Z 100593c0 f i libucrtd:output.obj
 0001:00058460       ?find_next_state@?$output_processor@_WV?$stream_output_adapter@_W@__crt_stdio_output@@V?$format_validation_base@_WV?$stream_output_adapter@_W@__crt_stdio_output@@@2@@__crt_stdio_output@@ABE?AW4state@2@_WW432@@Z 10059460 f i libucrtd:output.obj
 0001:00058500       ?find_next_state@?$output_processor@_WV?$stream_output_adapter@_W@__crt_stdio_output@@V?$positional_parameter_base@_WV?$stream_output_adapter@_W@__crt_stdio_output@@@2@@__crt_stdio_output@@ABE?AW4state@2@_WW432@@Z 10059500 f i libucrtd:output.obj
 0001:000585a0       ?find_next_state@?$output_processor@_WV?$stream_output_adapter@_W@__crt_stdio_output@@V?$standard_base@_WV?$stream_output_adapter@_W@__crt_stdio_output@@@2@@__crt_stdio_output@@ABE?AW4state@2@_WW432@@Z 100595a0 f i libucrtd:output.obj
 0001:00058640       ?find_next_state@?$output_processor@_WV?$string_output_adapter@_W@__crt_stdio_output@@V?$format_validation_base@_WV?$string_output_adapter@_W@__crt_stdio_output@@@2@@__crt_stdio_output@@ABE?AW4state@2@_WW432@@Z 10059640 f i libucrtd:output.obj
 0001:000586e0       ?find_next_state@?$output_processor@_WV?$string_output_adapter@_W@__crt_stdio_output@@V?$positional_parameter_base@_WV?$string_output_adapter@_W@__crt_stdio_output@@@2@@__crt_stdio_output@@ABE?AW4state@2@_WW432@@Z 100596e0 f i libucrtd:output.obj
 0001:00058780       ?find_next_state@?$output_processor@_WV?$string_output_adapter@_W@__crt_stdio_output@@V?$standard_base@_WV?$string_output_adapter@_W@__crt_stdio_output@@@2@@__crt_stdio_output@@ABE?AW4state@2@_WW432@@Z 10059780 f i libucrtd:output.obj
 0001:00058820       ?force_decimal_point@__crt_stdio_output@@YAXPADQAU__crt_locale_pointers@@@Z 10059820 f i libucrtd:output.obj
 0001:000588f0       ?force_synchronize_global_state_index@__crt_cached_ptd_host@@AAEIABV__crt_scoped_get_last_error_reset@@@Z 100598f0 f i libucrtd:output.obj
 0001:00058920       ?force_synchronize_per_thread_data@__crt_cached_ptd_host@@AAEPAU__acrt_ptd@@XZ 10059920 f i libucrtd:output.obj
 0001:00058970       ?get@?$c_string_character_source@D@__crt_strtox@@QAEDXZ 10059970 f i libucrtd:output.obj
 0001:000589a0       ?get@?$c_string_character_source@_W@__crt_strtox@@QAE_WXZ 100599a0 f i libucrtd:output.obj
 0001:000589d0       ?get_current_state_index@__crt_state_management@@YAIABV__crt_scoped_get_last_error_reset@@@Z 100599d0 f i libucrtd:output.obj
 0001:000589e0       ?get_errno@__crt_cached_ptd_host@@QAEAAU?$cached@H@1@XZ 100599e0 f i libucrtd:output.obj
 0001:00058a00       ?get_flags@__crt_stdio_stream@@QBEJXZ 10059a00 f i libucrtd:output.obj
 0001:00058a20       ?get_locale@__crt_cached_ptd_host@@QAEPAU__crt_locale_pointers@@XZ 10059a20 f i libucrtd:output.obj
 0001:00058a40       ?get_parameter_type@?$positional_parameter_base@DV?$stream_output_adapter@D@__crt_stdio_output@@@__crt_stdio_output@@CA?AW4parameter_type@12@F@Z 10059a40 f i libucrtd:output.obj
 0001:00058a50       ?get_parameter_type@?$positional_parameter_base@DV?$stream_output_adapter@D@__crt_stdio_output@@@__crt_stdio_output@@CA?AW4parameter_type@12@G@Z 10059a50 f i libucrtd:output.obj
 0001:00058a60       ?get_parameter_type@?$positional_parameter_base@DV?$stream_output_adapter@D@__crt_stdio_output@@@__crt_stdio_output@@CA?AW4parameter_type@12@H@Z 10059a60 f i libucrtd:output.obj
 0001:00058a70       ?get_parameter_type@?$positional_parameter_base@DV?$stream_output_adapter@D@__crt_stdio_output@@@__crt_stdio_output@@CA?AW4parameter_type@12@I@Z 10059a70 f i libucrtd:output.obj
 0001:00058a80       ?get_parameter_type@?$positional_parameter_base@DV?$stream_output_adapter@D@__crt_stdio_output@@@__crt_stdio_output@@CA?AW4parameter_type@12@U_CRT_DOUBLE@@@Z 10059a80 f i libucrtd:output.obj
 0001:00058a90       ?get_parameter_type@?$positional_parameter_base@DV?$stream_output_adapter@D@__crt_stdio_output@@@__crt_stdio_output@@CA?AW4parameter_type@12@_J@Z 10059a90 f i libucrtd:output.obj
 0001:00058aa0       ?get_parameter_type@?$positional_parameter_base@DV?$stream_output_adapter@D@__crt_stdio_output@@@__crt_stdio_output@@CA?AW4parameter_type@12@_K@Z 10059aa0 f i libucrtd:output.obj
 0001:00058ab0       ?get_parameter_type@?$positional_parameter_base@DV?$stream_output_adapter@D@__crt_stdio_output@@@__crt_stdio_output@@CA?AW4parameter_type@12@_W@Z 10059ab0 f i libucrtd:output.obj
 0001:00058ac0       ?get_parameter_type@?$positional_parameter_base@DV?$string_output_adapter@D@__crt_stdio_output@@@__crt_stdio_output@@CA?AW4parameter_type@12@F@Z 10059ac0 f i libucrtd:output.obj
 0001:00058ad0       ?get_parameter_type@?$positional_parameter_base@DV?$string_output_adapter@D@__crt_stdio_output@@@__crt_stdio_output@@CA?AW4parameter_type@12@G@Z 10059ad0 f i libucrtd:output.obj
 0001:00058ae0       ?get_parameter_type@?$positional_parameter_base@DV?$string_output_adapter@D@__crt_stdio_output@@@__crt_stdio_output@@CA?AW4parameter_type@12@H@Z 10059ae0 f i libucrtd:output.obj
 0001:00058af0       ?get_parameter_type@?$positional_parameter_base@DV?$string_output_adapter@D@__crt_stdio_output@@@__crt_stdio_output@@CA?AW4parameter_type@12@I@Z 10059af0 f i libucrtd:output.obj
 0001:00058b00       ?get_parameter_type@?$positional_parameter_base@DV?$string_output_adapter@D@__crt_stdio_output@@@__crt_stdio_output@@CA?AW4parameter_type@12@U_CRT_DOUBLE@@@Z 10059b00 f i libucrtd:output.obj
 0001:00058b10       ?get_parameter_type@?$positional_parameter_base@DV?$string_output_adapter@D@__crt_stdio_output@@@__crt_stdio_output@@CA?AW4parameter_type@12@_J@Z 10059b10 f i libucrtd:output.obj
 0001:00058b20       ?get_parameter_type@?$positional_parameter_base@DV?$string_output_adapter@D@__crt_stdio_output@@@__crt_stdio_output@@CA?AW4parameter_type@12@_K@Z 10059b20 f i libucrtd:output.obj
 0001:00058b30       ?get_parameter_type@?$positional_parameter_base@DV?$string_output_adapter@D@__crt_stdio_output@@@__crt_stdio_output@@CA?AW4parameter_type@12@_W@Z 10059b30 f i libucrtd:output.obj
 0001:00058b40       ?get_parameter_type@?$positional_parameter_base@_WV?$stream_output_adapter@_W@__crt_stdio_output@@@__crt_stdio_output@@CA?AW4parameter_type@12@F@Z 10059b40 f i libucrtd:output.obj
 0001:00058b50       ?get_parameter_type@?$positional_parameter_base@_WV?$stream_output_adapter@_W@__crt_stdio_output@@@__crt_stdio_output@@CA?AW4parameter_type@12@G@Z 10059b50 f i libucrtd:output.obj
 0001:00058b60       ?get_parameter_type@?$positional_parameter_base@_WV?$stream_output_adapter@_W@__crt_stdio_output@@@__crt_stdio_output@@CA?AW4parameter_type@12@H@Z 10059b60 f i libucrtd:output.obj
 0001:00058b70       ?get_parameter_type@?$positional_parameter_base@_WV?$stream_output_adapter@_W@__crt_stdio_output@@@__crt_stdio_output@@CA?AW4parameter_type@12@I@Z 10059b70 f i libucrtd:output.obj
 0001:00058b80       ?get_parameter_type@?$positional_parameter_base@_WV?$stream_output_adapter@_W@__crt_stdio_output@@@__crt_stdio_output@@CA?AW4parameter_type@12@U_CRT_DOUBLE@@@Z 10059b80 f i libucrtd:output.obj
 0001:00058b90       ?get_parameter_type@?$positional_parameter_base@_WV?$stream_output_adapter@_W@__crt_stdio_output@@@__crt_stdio_output@@CA?AW4parameter_type@12@_J@Z 10059b90 f i libucrtd:output.obj
 0001:00058ba0       ?get_parameter_type@?$positional_parameter_base@_WV?$stream_output_adapter@_W@__crt_stdio_output@@@__crt_stdio_output@@CA?AW4parameter_type@12@_K@Z 10059ba0 f i libucrtd:output.obj
 0001:00058bb0       ?get_parameter_type@?$positional_parameter_base@_WV?$stream_output_adapter@_W@__crt_stdio_output@@@__crt_stdio_output@@CA?AW4parameter_type@12@_W@Z 10059bb0 f i libucrtd:output.obj
 0001:00058bc0       ?get_parameter_type@?$positional_parameter_base@_WV?$string_output_adapter@_W@__crt_stdio_output@@@__crt_stdio_output@@CA?AW4parameter_type@12@F@Z 10059bc0 f i libucrtd:output.obj
 0001:00058bd0       ?get_parameter_type@?$positional_parameter_base@_WV?$string_output_adapter@_W@__crt_stdio_output@@@__crt_stdio_output@@CA?AW4parameter_type@12@G@Z 10059bd0 f i libucrtd:output.obj
 0001:00058be0       ?get_parameter_type@?$positional_parameter_base@_WV?$string_output_adapter@_W@__crt_stdio_output@@@__crt_stdio_output@@CA?AW4parameter_type@12@H@Z 10059be0 f i libucrtd:output.obj
 0001:00058bf0       ?get_parameter_type@?$positional_parameter_base@_WV?$string_output_adapter@_W@__crt_stdio_output@@@__crt_stdio_output@@CA?AW4parameter_type@12@I@Z 10059bf0 f i libucrtd:output.obj
 0001:00058c00       ?get_parameter_type@?$positional_parameter_base@_WV?$string_output_adapter@_W@__crt_stdio_output@@@__crt_stdio_output@@CA?AW4parameter_type@12@U_CRT_DOUBLE@@@Z 10059c00 f i libucrtd:output.obj
 0001:00058c10       ?get_parameter_type@?$positional_parameter_base@_WV?$string_output_adapter@_W@__crt_stdio_output@@@__crt_stdio_output@@CA?AW4parameter_type@12@_J@Z 10059c10 f i libucrtd:output.obj
 0001:00058c20       ?get_parameter_type@?$positional_parameter_base@_WV?$string_output_adapter@_W@__crt_stdio_output@@@__crt_stdio_output@@CA?AW4parameter_type@12@_K@Z 10059c20 f i libucrtd:output.obj
 0001:00058c30       ?get_parameter_type@?$positional_parameter_base@_WV?$string_output_adapter@_W@__crt_stdio_output@@@__crt_stdio_output@@CA?AW4parameter_type@12@_W@Z 10059c30 f i libucrtd:output.obj
 0001:00058c40       ?get_raw_ptd@__crt_cached_ptd_host@@QAEPAU__acrt_ptd@@XZ 10059c40 f i libucrtd:output.obj
 0001:00058c60       ?has_flag@?$output_processor@DV?$stream_output_adapter@D@__crt_stdio_output@@V?$format_validation_base@DV?$stream_output_adapter@D@__crt_stdio_output@@@2@@__crt_stdio_output@@ABE_NI@Z 10059c60 f i libucrtd:output.obj
 0001:00058c90       ?has_flag@?$output_processor@DV?$stream_output_adapter@D@__crt_stdio_output@@V?$positional_parameter_base@DV?$stream_output_adapter@D@__crt_stdio_output@@@2@@__crt_stdio_output@@ABE_NI@Z 10059c90 f i libucrtd:output.obj
 0001:00058cc0       ?has_flag@?$output_processor@DV?$stream_output_adapter@D@__crt_stdio_output@@V?$standard_base@DV?$stream_output_adapter@D@__crt_stdio_output@@@2@@__crt_stdio_output@@ABE_NI@Z 10059cc0 f i libucrtd:output.obj
 0001:00058cf0       ?has_flag@?$output_processor@DV?$string_output_adapter@D@__crt_stdio_output@@V?$format_validation_base@DV?$string_output_adapter@D@__crt_stdio_output@@@2@@__crt_stdio_output@@ABE_NI@Z 10059cf0 f i libucrtd:output.obj
 0001:00058d20       ?has_flag@?$output_processor@DV?$string_output_adapter@D@__crt_stdio_output@@V?$positional_parameter_base@DV?$string_output_adapter@D@__crt_stdio_output@@@2@@__crt_stdio_output@@ABE_NI@Z 10059d20 f i libucrtd:output.obj
 0001:00058d50       ?has_flag@?$output_processor@DV?$string_output_adapter@D@__crt_stdio_output@@V?$standard_base@DV?$string_output_adapter@D@__crt_stdio_output@@@2@@__crt_stdio_output@@ABE_NI@Z 10059d50 f i libucrtd:output.obj
 0001:00058d80       ?has_flag@?$output_processor@_WV?$stream_output_adapter@_W@__crt_stdio_output@@V?$format_validation_base@_WV?$stream_output_adapter@_W@__crt_stdio_output@@@2@@__crt_stdio_output@@ABE_NI@Z 10059d80 f i libucrtd:output.obj
 0001:00058db0       ?has_flag@?$output_processor@_WV?$stream_output_adapter@_W@__crt_stdio_output@@V?$positional_parameter_base@_WV?$stream_output_adapter@_W@__crt_stdio_output@@@2@@__crt_stdio_output@@ABE_NI@Z 10059db0 f i libucrtd:output.obj
 0001:00058de0       ?has_flag@?$output_processor@_WV?$stream_output_adapter@_W@__crt_stdio_output@@V?$standard_base@_WV?$stream_output_adapter@_W@__crt_stdio_output@@@2@@__crt_stdio_output@@ABE_NI@Z 10059de0 f i libucrtd:output.obj
 0001:00058e10       ?has_flag@?$output_processor@_WV?$string_output_adapter@_W@__crt_stdio_output@@V?$format_validation_base@_WV?$string_output_adapter@_W@__crt_stdio_output@@@2@@__crt_stdio_output@@ABE_NI@Z 10059e10 f i libucrtd:output.obj
 0001:00058e40       ?has_flag@?$output_processor@_WV?$string_output_adapter@_W@__crt_stdio_output@@V?$positional_parameter_base@_WV?$string_output_adapter@_W@__crt_stdio_output@@@2@@__crt_stdio_output@@ABE_NI@Z 10059e40 f i libucrtd:output.obj
 0001:00058e70       ?has_flag@?$output_processor@_WV?$string_output_adapter@_W@__crt_stdio_output@@V?$standard_base@_WV?$string_output_adapter@_W@__crt_stdio_output@@@2@@__crt_stdio_output@@ABE_NI@Z 10059e70 f i libucrtd:output.obj
 0001:00058ea0       ?is_positional_parameter_reappearance_consistent@?$positional_parameter_base@DV?$stream_output_adapter@D@__crt_stdio_output@@@__crt_stdio_output@@AAE_NABUparameter_data@12@W4parameter_type@12@DW4length_modifier@2@@Z 10059ea0 f i libucrtd:output.obj
 0001:000590d0       ?is_positional_parameter_reappearance_consistent@?$positional_parameter_base@DV?$string_output_adapter@D@__crt_stdio_output@@@__crt_stdio_output@@AAE_NABUparameter_data@12@W4parameter_type@12@DW4length_modifier@2@@Z 1005a0d0 f i libucrtd:output.obj
 0001:00059300       ?is_positional_parameter_reappearance_consistent@?$positional_parameter_base@_WV?$stream_output_adapter@_W@__crt_stdio_output@@@__crt_stdio_output@@AAE_NABUparameter_data@12@W4parameter_type@12@_WW4length_modifier@2@@Z 1005a300 f i libucrtd:output.obj
 0001:00059530       ?is_positional_parameter_reappearance_consistent@?$positional_parameter_base@_WV?$string_output_adapter@_W@__crt_stdio_output@@@__crt_stdio_output@@AAE_NABUparameter_data@12@W4parameter_type@12@_WW4length_modifier@2@@Z 1005a530 f i libucrtd:output.obj
 0001:00059760       ?is_string_backed@__crt_stdio_stream@@QBE_NXZ 1005a760 f i libucrtd:output.obj
 0001:000597a0       ?maximum_signed_value@__crt_strtox@@YAJK@Z 1005a7a0 f i libucrtd:output.obj
 0001:000597b0       ?minimum_signed_value@__crt_strtox@@YAJK@Z 1005a7b0 f i libucrtd:output.obj
 0001:000597c0       ?narrow_null_string@?$output_processor@DV?$stream_output_adapter@D@__crt_stdio_output@@V?$format_validation_base@DV?$stream_output_adapter@D@__crt_stdio_output@@@2@@__crt_stdio_output@@CAPADXZ 1005a7c0 f i libucrtd:output.obj
 0001:000597d0       ?narrow_null_string@?$output_processor@DV?$stream_output_adapter@D@__crt_stdio_output@@V?$positional_parameter_base@DV?$stream_output_adapter@D@__crt_stdio_output@@@2@@__crt_stdio_output@@CAPADXZ 1005a7d0 f i libucrtd:output.obj
 0001:000597e0       ?narrow_null_string@?$output_processor@DV?$stream_output_adapter@D@__crt_stdio_output@@V?$standard_base@DV?$stream_output_adapter@D@__crt_stdio_output@@@2@@__crt_stdio_output@@CAPADXZ 1005a7e0 f i libucrtd:output.obj
 0001:000597f0       ?narrow_null_string@?$output_processor@DV?$string_output_adapter@D@__crt_stdio_output@@V?$format_validation_base@DV?$string_output_adapter@D@__crt_stdio_output@@@2@@__crt_stdio_output@@CAPADXZ 1005a7f0 f i libucrtd:output.obj
 0001:00059800       ?narrow_null_string@?$output_processor@DV?$string_output_adapter@D@__crt_stdio_output@@V?$positional_parameter_base@DV?$string_output_adapter@D@__crt_stdio_output@@@2@@__crt_stdio_output@@CAPADXZ 1005a800 f i libucrtd:output.obj
 0001:00059810       ?narrow_null_string@?$output_processor@DV?$string_output_adapter@D@__crt_stdio_output@@V?$standard_base@DV?$string_output_adapter@D@__crt_stdio_output@@@2@@__crt_stdio_output@@CAPADXZ 1005a810 f i libucrtd:output.obj
 0001:00059820       ?narrow_null_string@?$output_processor@_WV?$stream_output_adapter@_W@__crt_stdio_output@@V?$format_validation_base@_WV?$stream_output_adapter@_W@__crt_stdio_output@@@2@@__crt_stdio_output@@CAPADXZ 1005a820 f i libucrtd:output.obj
 0001:00059830       ?narrow_null_string@?$output_processor@_WV?$stream_output_adapter@_W@__crt_stdio_output@@V?$positional_parameter_base@_WV?$stream_output_adapter@_W@__crt_stdio_output@@@2@@__crt_stdio_output@@CAPADXZ 1005a830 f i libucrtd:output.obj
 0001:00059840       ?narrow_null_string@?$output_processor@_WV?$stream_output_adapter@_W@__crt_stdio_output@@V?$standard_base@_WV?$stream_output_adapter@_W@__crt_stdio_output@@@2@@__crt_stdio_output@@CAPADXZ 1005a840 f i libucrtd:output.obj
 0001:00059850       ?narrow_null_string@?$output_processor@_WV?$string_output_adapter@_W@__crt_stdio_output@@V?$format_validation_base@_WV?$string_output_adapter@_W@__crt_stdio_output@@@2@@__crt_stdio_output@@CAPADXZ 1005a850 f i libucrtd:output.obj
 0001:00059860       ?narrow_null_string@?$output_processor@_WV?$string_output_adapter@_W@__crt_stdio_output@@V?$positional_parameter_base@_WV?$string_output_adapter@_W@__crt_stdio_output@@@2@@__crt_stdio_output@@CAPADXZ 1005a860 f i libucrtd:output.obj
 0001:00059870       ?narrow_null_string@?$output_processor@_WV?$string_output_adapter@_W@__crt_stdio_output@@V?$standard_base@_WV?$string_output_adapter@_W@__crt_stdio_output@@@2@@__crt_stdio_output@@CAPADXZ 1005a870 f i libucrtd:output.obj
 0001:00059880       ?parse_digit@__crt_strtox@@YAID@Z 1005a880 f i libucrtd:output.obj
 0001:000598e0       ?parse_digit@__crt_strtox@@YAI_W@Z 1005a8e0 f i libucrtd:output.obj
 0001:00059930       ?parse_int_from_format_string@?$output_processor@DV?$stream_output_adapter@D@__crt_stdio_output@@V?$format_validation_base@DV?$stream_output_adapter@D@__crt_stdio_output@@@2@@__crt_stdio_output@@AAE_NQAH@Z 1005a930 f i libucrtd:output.obj
 0001:000599f0       ?parse_int_from_format_string@?$output_processor@DV?$stream_output_adapter@D@__crt_stdio_output@@V?$positional_parameter_base@DV?$stream_output_adapter@D@__crt_stdio_output@@@2@@__crt_stdio_output@@AAE_NQAH@Z 1005a9f0 f i libucrtd:output.obj
 0001:00059ab0       ?parse_int_from_format_string@?$output_processor@DV?$stream_output_adapter@D@__crt_stdio_output@@V?$standard_base@DV?$stream_output_adapter@D@__crt_stdio_output@@@2@@__crt_stdio_output@@AAE_NQAH@Z 1005aab0 f i libucrtd:output.obj
 0001:00059b70       ?parse_int_from_format_string@?$output_processor@DV?$string_output_adapter@D@__crt_stdio_output@@V?$format_validation_base@DV?$string_output_adapter@D@__crt_stdio_output@@@2@@__crt_stdio_output@@AAE_NQAH@Z 1005ab70 f i libucrtd:output.obj
 0001:00059c30       ?parse_int_from_format_string@?$output_processor@DV?$string_output_adapter@D@__crt_stdio_output@@V?$positional_parameter_base@DV?$string_output_adapter@D@__crt_stdio_output@@@2@@__crt_stdio_output@@AAE_NQAH@Z 1005ac30 f i libucrtd:output.obj
 0001:00059cf0       ?parse_int_from_format_string@?$output_processor@DV?$string_output_adapter@D@__crt_stdio_output@@V?$standard_base@DV?$string_output_adapter@D@__crt_stdio_output@@@2@@__crt_stdio_output@@AAE_NQAH@Z 1005acf0 f i libucrtd:output.obj
 0001:00059db0       ?parse_int_from_format_string@?$output_processor@_WV?$stream_output_adapter@_W@__crt_stdio_output@@V?$format_validation_base@_WV?$stream_output_adapter@_W@__crt_stdio_output@@@2@@__crt_stdio_output@@AAE_NQAH@Z 1005adb0 f i libucrtd:output.obj
 0001:00059e70       ?parse_int_from_format_string@?$output_processor@_WV?$stream_output_adapter@_W@__crt_stdio_output@@V?$positional_parameter_base@_WV?$stream_output_adapter@_W@__crt_stdio_output@@@2@@__crt_stdio_output@@AAE_NQAH@Z 1005ae70 f i libucrtd:output.obj
 0001:00059f30       ?parse_int_from_format_string@?$output_processor@_WV?$stream_output_adapter@_W@__crt_stdio_output@@V?$standard_base@_WV?$stream_output_adapter@_W@__crt_stdio_output@@@2@@__crt_stdio_output@@AAE_NQAH@Z 1005af30 f i libucrtd:output.obj
 0001:00059ff0       ?parse_int_from_format_string@?$output_processor@_WV?$string_output_adapter@_W@__crt_stdio_output@@V?$format_validation_base@_WV?$string_output_adapter@_W@__crt_stdio_output@@@2@@__crt_stdio_output@@AAE_NQAH@Z 1005aff0 f i libucrtd:output.obj
 0001:0005a0b0       ?parse_int_from_format_string@?$output_processor@_WV?$string_output_adapter@_W@__crt_stdio_output@@V?$positional_parameter_base@_WV?$string_output_adapter@_W@__crt_stdio_output@@@2@@__crt_stdio_output@@AAE_NQAH@Z 1005b0b0 f i libucrtd:output.obj
 0001:0005a170       ?parse_int_from_format_string@?$output_processor@_WV?$string_output_adapter@_W@__crt_stdio_output@@V?$standard_base@_WV?$string_output_adapter@_W@__crt_stdio_output@@@2@@__crt_stdio_output@@AAE_NQAH@Z 1005b170 f i libucrtd:output.obj
 0001:0005a230       ?process@?$output_processor@DV?$stream_output_adapter@D@__crt_stdio_output@@V?$format_validation_base@DV?$stream_output_adapter@D@__crt_stdio_output@@@2@@__crt_stdio_output@@QAEHXZ 1005b230 f i libucrtd:output.obj
 0001:0005a510       ?process@?$output_processor@DV?$stream_output_adapter@D@__crt_stdio_output@@V?$positional_parameter_base@DV?$stream_output_adapter@D@__crt_stdio_output@@@2@@__crt_stdio_output@@QAEHXZ 1005b510 f i libucrtd:output.obj
 0001:0005a7f0       ?process@?$output_processor@DV?$stream_output_adapter@D@__crt_stdio_output@@V?$standard_base@DV?$stream_output_adapter@D@__crt_stdio_output@@@2@@__crt_stdio_output@@QAEHXZ 1005b7f0 f i libucrtd:output.obj
 0001:0005aad0       ?process@?$output_processor@DV?$string_output_adapter@D@__crt_stdio_output@@V?$format_validation_base@DV?$string_output_adapter@D@__crt_stdio_output@@@2@@__crt_stdio_output@@QAEHXZ 1005bad0 f i libucrtd:output.obj
 0001:0005adb0       ?process@?$output_processor@DV?$string_output_adapter@D@__crt_stdio_output@@V?$positional_parameter_base@DV?$string_output_adapter@D@__crt_stdio_output@@@2@@__crt_stdio_output@@QAEHXZ 1005bdb0 f i libucrtd:output.obj
 0001:0005b090       ?process@?$output_processor@DV?$string_output_adapter@D@__crt_stdio_output@@V?$standard_base@DV?$string_output_adapter@D@__crt_stdio_output@@@2@@__crt_stdio_output@@QAEHXZ 1005c090 f i libucrtd:output.obj
 0001:0005b370       ?process@?$output_processor@_WV?$stream_output_adapter@_W@__crt_stdio_output@@V?$format_validation_base@_WV?$stream_output_adapter@_W@__crt_stdio_output@@@2@@__crt_stdio_output@@QAEHXZ 1005c370 f i libucrtd:output.obj
 0001:0005b650       ?process@?$output_processor@_WV?$stream_output_adapter@_W@__crt_stdio_output@@V?$positional_parameter_base@_WV?$stream_output_adapter@_W@__crt_stdio_output@@@2@@__crt_stdio_output@@QAEHXZ 1005c650 f i libucrtd:output.obj
 0001:0005b930       ?process@?$output_processor@_WV?$stream_output_adapter@_W@__crt_stdio_output@@V?$standard_base@_WV?$stream_output_adapter@_W@__crt_stdio_output@@@2@@__crt_stdio_output@@QAEHXZ 1005c930 f i libucrtd:output.obj
 0001:0005bc10       ?process@?$output_processor@_WV?$string_output_adapter@_W@__crt_stdio_output@@V?$format_validation_base@_WV?$string_output_adapter@_W@__crt_stdio_output@@@2@@__crt_stdio_output@@QAEHXZ 1005cc10 f i libucrtd:output.obj
 0001:0005bef0       ?process@?$output_processor@_WV?$string_output_adapter@_W@__crt_stdio_output@@V?$positional_parameter_base@_WV?$string_output_adapter@_W@__crt_stdio_output@@@2@@__crt_stdio_output@@QAEHXZ 1005cef0 f i libucrtd:output.obj
 0001:0005c1d0       ?process@?$output_processor@_WV?$string_output_adapter@_W@__crt_stdio_output@@V?$standard_base@_WV?$string_output_adapter@_W@__crt_stdio_output@@@2@@__crt_stdio_output@@QAEHXZ 1005d1d0 f i libucrtd:output.obj
 0001:0005c4b0       ?public_stream@__crt_stdio_stream@@QBEPAU_iobuf@@XZ 1005d4b0 f i libucrtd:output.obj
 0001:0005c4d0       ?restore_state@?$c_string_character_source@D@__crt_strtox@@QAE_NQBD@Z 1005d4d0 f i libucrtd:output.obj
 0001:0005c4f0       ?restore_state@?$c_string_character_source@_W@__crt_strtox@@QAE_NQB_W@Z 1005d4f0 f i libucrtd:output.obj
 0001:0005c510       ?save_state@?$c_string_character_source@D@__crt_strtox@@QBEPBDXZ 1005d510 f i libucrtd:output.obj
 0001:0005c530       ?save_state@?$c_string_character_source@_W@__crt_strtox@@QBEPB_WXZ 1005d530 f i libucrtd:output.obj
 0001:0005c550       ?set@?$cached@H@__crt_cached_ptd_host@@QAEHH@Z 1005d550 f i libucrtd:output.obj
 0001:0005c580       ?set_flag@?$output_processor@DV?$stream_output_adapter@D@__crt_stdio_output@@V?$format_validation_base@DV?$stream_output_adapter@D@__crt_stdio_output@@@2@@__crt_stdio_output@@AAEXI@Z 1005d580 f i libucrtd:output.obj
 0001:0005c5a0       ?set_flag@?$output_processor@DV?$stream_output_adapter@D@__crt_stdio_output@@V?$positional_parameter_base@DV?$stream_output_adapter@D@__crt_stdio_output@@@2@@__crt_stdio_output@@AAEXI@Z 1005d5a0 f i libucrtd:output.obj
 0001:0005c5c0       ?set_flag@?$output_processor@DV?$stream_output_adapter@D@__crt_stdio_output@@V?$standard_base@DV?$stream_output_adapter@D@__crt_stdio_output@@@2@@__crt_stdio_output@@AAEXI@Z 1005d5c0 f i libucrtd:output.obj
 0001:0005c5e0       ?set_flag@?$output_processor@DV?$string_output_adapter@D@__crt_stdio_output@@V?$format_validation_base@DV?$string_output_adapter@D@__crt_stdio_output@@@2@@__crt_stdio_output@@AAEXI@Z 1005d5e0 f i libucrtd:output.obj
 0001:0005c600       ?set_flag@?$output_processor@DV?$string_output_adapter@D@__crt_stdio_output@@V?$positional_parameter_base@DV?$string_output_adapter@D@__crt_stdio_output@@@2@@__crt_stdio_output@@AAEXI@Z 1005d600 f i libucrtd:output.obj
 0001:0005c620       ?set_flag@?$output_processor@DV?$string_output_adapter@D@__crt_stdio_output@@V?$standard_base@DV?$string_output_adapter@D@__crt_stdio_output@@@2@@__crt_stdio_output@@AAEXI@Z 1005d620 f i libucrtd:output.obj
 0001:0005c640       ?set_flag@?$output_processor@_WV?$stream_output_adapter@_W@__crt_stdio_output@@V?$format_validation_base@_WV?$stream_output_adapter@_W@__crt_stdio_output@@@2@@__crt_stdio_output@@AAEXI@Z 1005d640 f i libucrtd:output.obj
 0001:0005c660       ?set_flag@?$output_processor@_WV?$stream_output_adapter@_W@__crt_stdio_output@@V?$positional_parameter_base@_WV?$stream_output_adapter@_W@__crt_stdio_output@@@2@@__crt_stdio_output@@AAEXI@Z 1005d660 f i libucrtd:output.obj
 0001:0005c680       ?set_flag@?$output_processor@_WV?$stream_output_adapter@_W@__crt_stdio_output@@V?$standard_base@_WV?$stream_output_adapter@_W@__crt_stdio_output@@@2@@__crt_stdio_output@@AAEXI@Z 1005d680 f i libucrtd:output.obj
 0001:0005c6a0       ?set_flag@?$output_processor@_WV?$string_output_adapter@_W@__crt_stdio_output@@V?$format_validation_base@_WV?$string_output_adapter@_W@__crt_stdio_output@@@2@@__crt_stdio_output@@AAEXI@Z 1005d6a0 f i libucrtd:output.obj
 0001:0005c6c0       ?set_flag@?$output_processor@_WV?$string_output_adapter@_W@__crt_stdio_output@@V?$positional_parameter_base@_WV?$string_output_adapter@_W@__crt_stdio_output@@@2@@__crt_stdio_output@@AAEXI@Z 1005d6c0 f i libucrtd:output.obj
 0001:0005c6e0       ?set_flag@?$output_processor@_WV?$string_output_adapter@_W@__crt_stdio_output@@V?$standard_base@_WV?$string_output_adapter@_W@__crt_stdio_output@@@2@@__crt_stdio_output@@AAEXI@Z 1005d6e0 f i libucrtd:output.obj
 0001:0005c700       ?should_format@?$positional_parameter_base@DV?$stream_output_adapter@D@__crt_stdio_output@@@__crt_stdio_output@@IAE_NXZ 1005d700 f i libucrtd:output.obj
 0001:0005c740       ?should_format@?$positional_parameter_base@DV?$string_output_adapter@D@__crt_stdio_output@@@__crt_stdio_output@@IAE_NXZ 1005d740 f i libucrtd:output.obj
 0001:0005c780       ?should_format@?$positional_parameter_base@_WV?$stream_output_adapter@_W@__crt_stdio_output@@@__crt_stdio_output@@IAE_NXZ 1005d780 f i libucrtd:output.obj
 0001:0005c7c0       ?should_format@?$positional_parameter_base@_WV?$string_output_adapter@_W@__crt_stdio_output@@@__crt_stdio_output@@IAE_NXZ 1005d7c0 f i libucrtd:output.obj
 0001:0005c800       ?should_format@?$standard_base@DV?$stream_output_adapter@D@__crt_stdio_output@@@__crt_stdio_output@@IAE_NXZ 1005d800 f i libucrtd:output.obj
 0001:0005c810       ?should_format@?$standard_base@DV?$string_output_adapter@D@__crt_stdio_output@@@__crt_stdio_output@@IAE_NXZ 1005d810 f i libucrtd:output.obj
 0001:0005c820       ?should_format@?$standard_base@_WV?$stream_output_adapter@_W@__crt_stdio_output@@@__crt_stdio_output@@IAE_NXZ 1005d820 f i libucrtd:output.obj
 0001:0005c830       ?should_format@?$standard_base@_WV?$string_output_adapter@_W@__crt_stdio_output@@@__crt_stdio_output@@IAE_NXZ 1005d830 f i libucrtd:output.obj
 0001:0005c840       ?should_skip_normal_state_processing@?$positional_parameter_base@DV?$stream_output_adapter@D@__crt_stdio_output@@@__crt_stdio_output@@IAE_NXZ 1005d840 f i libucrtd:output.obj
 0001:0005c890       ?should_skip_normal_state_processing@?$positional_parameter_base@DV?$string_output_adapter@D@__crt_stdio_output@@@__crt_stdio_output@@IAE_NXZ 1005d890 f i libucrtd:output.obj
 0001:0005c8e0       ?should_skip_normal_state_processing@?$positional_parameter_base@_WV?$stream_output_adapter@_W@__crt_stdio_output@@@__crt_stdio_output@@IAE_NXZ 1005d8e0 f i libucrtd:output.obj
 0001:0005c930       ?should_skip_normal_state_processing@?$positional_parameter_base@_WV?$string_output_adapter@_W@__crt_stdio_output@@@__crt_stdio_output@@IAE_NXZ 1005d930 f i libucrtd:output.obj
 0001:0005c980       ?should_skip_normal_state_processing@?$standard_base@DV?$stream_output_adapter@D@__crt_stdio_output@@@__crt_stdio_output@@IAE_NXZ 1005d980 f i libucrtd:output.obj
 0001:0005c990       ?should_skip_normal_state_processing@?$standard_base@DV?$string_output_adapter@D@__crt_stdio_output@@@__crt_stdio_output@@IAE_NXZ 1005d990 f i libucrtd:output.obj
 0001:0005c9a0       ?should_skip_normal_state_processing@?$standard_base@_WV?$stream_output_adapter@_W@__crt_stdio_output@@@__crt_stdio_output@@IAE_NXZ 1005d9a0 f i libucrtd:output.obj
 0001:0005c9b0       ?should_skip_normal_state_processing@?$standard_base@_WV?$string_output_adapter@_W@__crt_stdio_output@@@__crt_stdio_output@@IAE_NXZ 1005d9b0 f i libucrtd:output.obj
 0001:0005c9c0       ?should_skip_type_state_output@?$positional_parameter_base@DV?$stream_output_adapter@D@__crt_stdio_output@@@__crt_stdio_output@@IBE_NXZ 1005d9c0 f i libucrtd:output.obj
 0001:0005ca00       ?should_skip_type_state_output@?$positional_parameter_base@DV?$string_output_adapter@D@__crt_stdio_output@@@__crt_stdio_output@@IBE_NXZ 1005da00 f i libucrtd:output.obj
 0001:0005ca40       ?should_skip_type_state_output@?$positional_parameter_base@_WV?$stream_output_adapter@_W@__crt_stdio_output@@@__crt_stdio_output@@IBE_NXZ 1005da40 f i libucrtd:output.obj
 0001:0005ca80       ?should_skip_type_state_output@?$positional_parameter_base@_WV?$string_output_adapter@_W@__crt_stdio_output@@@__crt_stdio_output@@IBE_NXZ 1005da80 f i libucrtd:output.obj
 0001:0005cac0       ?should_skip_type_state_output@?$standard_base@DV?$stream_output_adapter@D@__crt_stdio_output@@@__crt_stdio_output@@IBE_NXZ 1005dac0 f i libucrtd:output.obj
 0001:0005cad0       ?should_skip_type_state_output@?$standard_base@DV?$string_output_adapter@D@__crt_stdio_output@@@__crt_stdio_output@@IBE_NXZ 1005dad0 f i libucrtd:output.obj
 0001:0005cae0       ?should_skip_type_state_output@?$standard_base@_WV?$stream_output_adapter@_W@__crt_stdio_output@@@__crt_stdio_output@@IBE_NXZ 1005dae0 f i libucrtd:output.obj
 0001:0005caf0       ?should_skip_type_state_output@?$standard_base@_WV?$string_output_adapter@_W@__crt_stdio_output@@@__crt_stdio_output@@IBE_NXZ 1005daf0 f i libucrtd:output.obj
 0001:0005cb00       ?state_case_dot@?$output_processor@DV?$stream_output_adapter@D@__crt_stdio_output@@V?$format_validation_base@DV?$stream_output_adapter@D@__crt_stdio_output@@@2@@__crt_stdio_output@@AAE_NXZ 1005db00 f i libucrtd:output.obj
 0001:0005cb20       ?state_case_dot@?$output_processor@DV?$stream_output_adapter@D@__crt_stdio_output@@V?$positional_parameter_base@DV?$stream_output_adapter@D@__crt_stdio_output@@@2@@__crt_stdio_output@@AAE_NXZ 1005db20 f i libucrtd:output.obj
 0001:0005cb40       ?state_case_dot@?$output_processor@DV?$stream_output_adapter@D@__crt_stdio_output@@V?$standard_base@DV?$stream_output_adapter@D@__crt_stdio_output@@@2@@__crt_stdio_output@@AAE_NXZ 1005db40 f i libucrtd:output.obj
 0001:0005cb60       ?state_case_dot@?$output_processor@DV?$string_output_adapter@D@__crt_stdio_output@@V?$format_validation_base@DV?$string_output_adapter@D@__crt_stdio_output@@@2@@__crt_stdio_output@@AAE_NXZ 1005db60 f i libucrtd:output.obj
 0001:0005cb80       ?state_case_dot@?$output_processor@DV?$string_output_adapter@D@__crt_stdio_output@@V?$positional_parameter_base@DV?$string_output_adapter@D@__crt_stdio_output@@@2@@__crt_stdio_output@@AAE_NXZ 1005db80 f i libucrtd:output.obj
 0001:0005cba0       ?state_case_dot@?$output_processor@DV?$string_output_adapter@D@__crt_stdio_output@@V?$standard_base@DV?$string_output_adapter@D@__crt_stdio_output@@@2@@__crt_stdio_output@@AAE_NXZ 1005dba0 f i libucrtd:output.obj
 0001:0005cbc0       ?state_case_dot@?$output_processor@_WV?$stream_output_adapter@_W@__crt_stdio_output@@V?$format_validation_base@_WV?$stream_output_adapter@_W@__crt_stdio_output@@@2@@__crt_stdio_output@@AAE_NXZ 1005dbc0 f i libucrtd:output.obj
 0001:0005cbe0       ?state_case_dot@?$output_processor@_WV?$stream_output_adapter@_W@__crt_stdio_output@@V?$positional_parameter_base@_WV?$stream_output_adapter@_W@__crt_stdio_output@@@2@@__crt_stdio_output@@AAE_NXZ 1005dbe0 f i libucrtd:output.obj
 0001:0005cc00       ?state_case_dot@?$output_processor@_WV?$stream_output_adapter@_W@__crt_stdio_output@@V?$standard_base@_WV?$stream_output_adapter@_W@__crt_stdio_output@@@2@@__crt_stdio_output@@AAE_NXZ 1005dc00 f i libucrtd:output.obj
 0001:0005cc20       ?state_case_dot@?$output_processor@_WV?$string_output_adapter@_W@__crt_stdio_output@@V?$format_validation_base@_WV?$string_output_adapter@_W@__crt_stdio_output@@@2@@__crt_stdio_output@@AAE_NXZ 1005dc20 f i libucrtd:output.obj
 0001:0005cc40       ?state_case_dot@?$output_processor@_WV?$string_output_adapter@_W@__crt_stdio_output@@V?$positional_parameter_base@_WV?$string_output_adapter@_W@__crt_stdio_output@@@2@@__crt_stdio_output@@AAE_NXZ 1005dc40 f i libucrtd:output.obj
 0001:0005cc60       ?state_case_dot@?$output_processor@_WV?$string_output_adapter@_W@__crt_stdio_output@@V?$standard_base@_WV?$string_output_adapter@_W@__crt_stdio_output@@@2@@__crt_stdio_output@@AAE_NXZ 1005dc60 f i libucrtd:output.obj
 0001:0005cc80       ?state_case_flag@?$output_processor@DV?$stream_output_adapter@D@__crt_stdio_output@@V?$format_validation_base@DV?$stream_output_adapter@D@__crt_stdio_output@@@2@@__crt_stdio_output@@AAE_NXZ 1005dc80 f i libucrtd:output.obj
 0001:0005cd30       ?state_case_flag@?$output_processor@DV?$stream_output_adapter@D@__crt_stdio_output@@V?$positional_parameter_base@DV?$stream_output_adapter@D@__crt_stdio_output@@@2@@__crt_stdio_output@@AAE_NXZ 1005dd30 f i libucrtd:output.obj
 0001:0005cde0       ?state_case_flag@?$output_processor@DV?$stream_output_adapter@D@__crt_stdio_output@@V?$standard_base@DV?$stream_output_adapter@D@__crt_stdio_output@@@2@@__crt_stdio_output@@AAE_NXZ 1005dde0 f i libucrtd:output.obj
 0001:0005ce90       ?state_case_flag@?$output_processor@DV?$string_output_adapter@D@__crt_stdio_output@@V?$format_validation_base@DV?$string_output_adapter@D@__crt_stdio_output@@@2@@__crt_stdio_output@@AAE_NXZ 1005de90 f i libucrtd:output.obj
 0001:0005cf40       ?state_case_flag@?$output_processor@DV?$string_output_adapter@D@__crt_stdio_output@@V?$positional_parameter_base@DV?$string_output_adapter@D@__crt_stdio_output@@@2@@__crt_stdio_output@@AAE_NXZ 1005df40 f i libucrtd:output.obj
 0001:0005cff0       ?state_case_flag@?$output_processor@DV?$string_output_adapter@D@__crt_stdio_output@@V?$standard_base@DV?$string_output_adapter@D@__crt_stdio_output@@@2@@__crt_stdio_output@@AAE_NXZ 1005dff0 f i libucrtd:output.obj
 0001:0005d0a0       ?state_case_flag@?$output_processor@_WV?$stream_output_adapter@_W@__crt_stdio_output@@V?$format_validation_base@_WV?$stream_output_adapter@_W@__crt_stdio_output@@@2@@__crt_stdio_output@@AAE_NXZ 1005e0a0 f i libucrtd:output.obj
 0001:0005d150       ?state_case_flag@?$output_processor@_WV?$stream_output_adapter@_W@__crt_stdio_output@@V?$positional_parameter_base@_WV?$stream_output_adapter@_W@__crt_stdio_output@@@2@@__crt_stdio_output@@AAE_NXZ 1005e150 f i libucrtd:output.obj
 0001:0005d200       ?state_case_flag@?$output_processor@_WV?$stream_output_adapter@_W@__crt_stdio_output@@V?$standard_base@_WV?$stream_output_adapter@_W@__crt_stdio_output@@@2@@__crt_stdio_output@@AAE_NXZ 1005e200 f i libucrtd:output.obj
 0001:0005d2b0       ?state_case_flag@?$output_processor@_WV?$string_output_adapter@_W@__crt_stdio_output@@V?$format_validation_base@_WV?$string_output_adapter@_W@__crt_stdio_output@@@2@@__crt_stdio_output@@AAE_NXZ 1005e2b0 f i libucrtd:output.obj
 0001:0005d360       ?state_case_flag@?$output_processor@_WV?$string_output_adapter@_W@__crt_stdio_output@@V?$positional_parameter_base@_WV?$string_output_adapter@_W@__crt_stdio_output@@@2@@__crt_stdio_output@@AAE_NXZ 1005e360 f i libucrtd:output.obj
 0001:0005d410       ?state_case_flag@?$output_processor@_WV?$string_output_adapter@_W@__crt_stdio_output@@V?$standard_base@_WV?$string_output_adapter@_W@__crt_stdio_output@@@2@@__crt_stdio_output@@AAE_NXZ 1005e410 f i libucrtd:output.obj
 0001:0005d4c0       ?state_case_normal@?$output_processor@DV?$stream_output_adapter@D@__crt_stdio_output@@V?$format_validation_base@DV?$stream_output_adapter@D@__crt_stdio_output@@@2@@__crt_stdio_output@@AAE_NXZ 1005e4c0 f i libucrtd:output.obj
 0001:0005d580       ?state_case_normal@?$output_processor@DV?$stream_output_adapter@D@__crt_stdio_output@@V?$positional_parameter_base@DV?$stream_output_adapter@D@__crt_stdio_output@@@2@@__crt_stdio_output@@AAE_NXZ 1005e580 f i libucrtd:output.obj
 0001:0005d640       ?state_case_normal@?$output_processor@DV?$stream_output_adapter@D@__crt_stdio_output@@V?$standard_base@DV?$stream_output_adapter@D@__crt_stdio_output@@@2@@__crt_stdio_output@@AAE_NXZ 1005e640 f i libucrtd:output.obj
 0001:0005d700       ?state_case_normal@?$output_processor@DV?$string_output_adapter@D@__crt_stdio_output@@V?$format_validation_base@DV?$string_output_adapter@D@__crt_stdio_output@@@2@@__crt_stdio_output@@AAE_NXZ 1005e700 f i libucrtd:output.obj
 0001:0005d7c0       ?state_case_normal@?$output_processor@DV?$string_output_adapter@D@__crt_stdio_output@@V?$positional_parameter_base@DV?$string_output_adapter@D@__crt_stdio_output@@@2@@__crt_stdio_output@@AAE_NXZ 1005e7c0 f i libucrtd:output.obj
 0001:0005d880       ?state_case_normal@?$output_processor@DV?$string_output_adapter@D@__crt_stdio_output@@V?$standard_base@DV?$string_output_adapter@D@__crt_stdio_output@@@2@@__crt_stdio_output@@AAE_NXZ 1005e880 f i libucrtd:output.obj
 0001:0005d940       ?state_case_normal@?$output_processor@_WV?$stream_output_adapter@_W@__crt_stdio_output@@V?$format_validation_base@_WV?$stream_output_adapter@_W@__crt_stdio_output@@@2@@__crt_stdio_output@@AAE_NXZ 1005e940 f i libucrtd:output.obj
 0001:0005da00       ?state_case_normal@?$output_processor@_WV?$stream_output_adapter@_W@__crt_stdio_output@@V?$positional_parameter_base@_WV?$stream_output_adapter@_W@__crt_stdio_output@@@2@@__crt_stdio_output@@AAE_NXZ 1005ea00 f i libucrtd:output.obj
 0001:0005dac0       ?state_case_normal@?$output_processor@_WV?$stream_output_adapter@_W@__crt_stdio_output@@V?$standard_base@_WV?$stream_output_adapter@_W@__crt_stdio_output@@@2@@__crt_stdio_output@@AAE_NXZ 1005eac0 f i libucrtd:output.obj
 0001:0005db80       ?state_case_normal@?$output_processor@_WV?$string_output_adapter@_W@__crt_stdio_output@@V?$format_validation_base@_WV?$string_output_adapter@_W@__crt_stdio_output@@@2@@__crt_stdio_output@@AAE_NXZ 1005eb80 f i libucrtd:output.obj
 0001:0005dc40       ?state_case_normal@?$output_processor@_WV?$string_output_adapter@_W@__crt_stdio_output@@V?$positional_parameter_base@_WV?$string_output_adapter@_W@__crt_stdio_output@@@2@@__crt_stdio_output@@AAE_NXZ 1005ec40 f i libucrtd:output.obj
 0001:0005dd00       ?state_case_normal@?$output_processor@_WV?$string_output_adapter@_W@__crt_stdio_output@@V?$standard_base@_WV?$string_output_adapter@_W@__crt_stdio_output@@@2@@__crt_stdio_output@@AAE_NXZ 1005ed00 f i libucrtd:output.obj
 0001:0005ddc0       ?state_case_normal_common@?$output_processor@DV?$stream_output_adapter@D@__crt_stdio_output@@V?$format_validation_base@DV?$stream_output_adapter@D@__crt_stdio_output@@@2@@__crt_stdio_output@@AAE_NXZ 1005edc0 f i libucrtd:output.obj
 0001:0005de10       ?state_case_normal_common@?$output_processor@DV?$stream_output_adapter@D@__crt_stdio_output@@V?$positional_parameter_base@DV?$stream_output_adapter@D@__crt_stdio_output@@@2@@__crt_stdio_output@@AAE_NXZ 1005ee10 f i libucrtd:output.obj
 0001:0005de60       ?state_case_normal_common@?$output_processor@DV?$stream_output_adapter@D@__crt_stdio_output@@V?$standard_base@DV?$stream_output_adapter@D@__crt_stdio_output@@@2@@__crt_stdio_output@@AAE_NXZ 1005ee60 f i libucrtd:output.obj
 0001:0005deb0       ?state_case_normal_common@?$output_processor@DV?$string_output_adapter@D@__crt_stdio_output@@V?$format_validation_base@DV?$string_output_adapter@D@__crt_stdio_output@@@2@@__crt_stdio_output@@AAE_NXZ 1005eeb0 f i libucrtd:output.obj
 0001:0005df00       ?state_case_normal_common@?$output_processor@DV?$string_output_adapter@D@__crt_stdio_output@@V?$positional_parameter_base@DV?$string_output_adapter@D@__crt_stdio_output@@@2@@__crt_stdio_output@@AAE_NXZ 1005ef00 f i libucrtd:output.obj
 0001:0005df50       ?state_case_normal_common@?$output_processor@DV?$string_output_adapter@D@__crt_stdio_output@@V?$standard_base@DV?$string_output_adapter@D@__crt_stdio_output@@@2@@__crt_stdio_output@@AAE_NXZ 1005ef50 f i libucrtd:output.obj
 0001:0005dfa0       ?state_case_normal_common@?$output_processor@_WV?$stream_output_adapter@_W@__crt_stdio_output@@V?$format_validation_base@_WV?$stream_output_adapter@_W@__crt_stdio_output@@@2@@__crt_stdio_output@@AAE_NXZ 1005efa0 f i libucrtd:output.obj
 0001:0005dff0       ?state_case_normal_common@?$output_processor@_WV?$stream_output_adapter@_W@__crt_stdio_output@@V?$positional_parameter_base@_WV?$stream_output_adapter@_W@__crt_stdio_output@@@2@@__crt_stdio_output@@AAE_NXZ 1005eff0 f i libucrtd:output.obj
 0001:0005e040       ?state_case_normal_common@?$output_processor@_WV?$stream_output_adapter@_W@__crt_stdio_output@@V?$standard_base@_WV?$stream_output_adapter@_W@__crt_stdio_output@@@2@@__crt_stdio_output@@AAE_NXZ 1005f040 f i libucrtd:output.obj
 0001:0005e090       ?state_case_normal_common@?$output_processor@_WV?$string_output_adapter@_W@__crt_stdio_output@@V?$format_validation_base@_WV?$string_output_adapter@_W@__crt_stdio_output@@@2@@__crt_stdio_output@@AAE_NXZ 1005f090 f i libucrtd:output.obj
 0001:0005e0e0       ?state_case_normal_common@?$output_processor@_WV?$string_output_adapter@_W@__crt_stdio_output@@V?$positional_parameter_base@_WV?$string_output_adapter@_W@__crt_stdio_output@@@2@@__crt_stdio_output@@AAE_NXZ 1005f0e0 f i libucrtd:output.obj
 0001:0005e130       ?state_case_normal_common@?$output_processor@_WV?$string_output_adapter@_W@__crt_stdio_output@@V?$standard_base@_WV?$string_output_adapter@_W@__crt_stdio_output@@@2@@__crt_stdio_output@@AAE_NXZ 1005f130 f i libucrtd:output.obj
 0001:0005e180       ?state_case_normal_tchar@?$output_processor@DV?$stream_output_adapter@D@__crt_stdio_output@@V?$format_validation_base@DV?$stream_output_adapter@D@__crt_stdio_output@@@2@@__crt_stdio_output@@AAE_ND@Z 1005f180 f i libucrtd:output.obj
 0001:0005e2b0       ?state_case_normal_tchar@?$output_processor@DV?$stream_output_adapter@D@__crt_stdio_output@@V?$positional_parameter_base@DV?$stream_output_adapter@D@__crt_stdio_output@@@2@@__crt_stdio_output@@AAE_ND@Z 1005f2b0 f i libucrtd:output.obj
 0001:0005e3e0       ?state_case_normal_tchar@?$output_processor@DV?$stream_output_adapter@D@__crt_stdio_output@@V?$standard_base@DV?$stream_output_adapter@D@__crt_stdio_output@@@2@@__crt_stdio_output@@AAE_ND@Z 1005f3e0 f i libucrtd:output.obj
 0001:0005e510       ?state_case_normal_tchar@?$output_processor@DV?$string_output_adapter@D@__crt_stdio_output@@V?$format_validation_base@DV?$string_output_adapter@D@__crt_stdio_output@@@2@@__crt_stdio_output@@AAE_ND@Z 1005f510 f i libucrtd:output.obj
 0001:0005e640       ?state_case_normal_tchar@?$output_processor@DV?$string_output_adapter@D@__crt_stdio_output@@V?$positional_parameter_base@DV?$string_output_adapter@D@__crt_stdio_output@@@2@@__crt_stdio_output@@AAE_ND@Z 1005f640 f i libucrtd:output.obj
 0001:0005e770       ?state_case_normal_tchar@?$output_processor@DV?$string_output_adapter@D@__crt_stdio_output@@V?$standard_base@DV?$string_output_adapter@D@__crt_stdio_output@@@2@@__crt_stdio_output@@AAE_ND@Z 1005f770 f i libucrtd:output.obj
 0001:0005e8a0       ?state_case_normal_tchar@?$output_processor@_WV?$stream_output_adapter@_W@__crt_stdio_output@@V?$format_validation_base@_WV?$stream_output_adapter@_W@__crt_stdio_output@@@2@@__crt_stdio_output@@AAE_N_W@Z 1005f8a0 f i libucrtd:output.obj
 0001:0005e8c0       ?state_case_normal_tchar@?$output_processor@_WV?$stream_output_adapter@_W@__crt_stdio_output@@V?$positional_parameter_base@_WV?$stream_output_adapter@_W@__crt_stdio_output@@@2@@__crt_stdio_output@@AAE_N_W@Z 1005f8c0 f i libucrtd:output.obj
 0001:0005e8e0       ?state_case_normal_tchar@?$output_processor@_WV?$stream_output_adapter@_W@__crt_stdio_output@@V?$standard_base@_WV?$stream_output_adapter@_W@__crt_stdio_output@@@2@@__crt_stdio_output@@AAE_N_W@Z 1005f8e0 f i libucrtd:output.obj
 0001:0005e900       ?state_case_normal_tchar@?$output_processor@_WV?$string_output_adapter@_W@__crt_stdio_output@@V?$format_validation_base@_WV?$string_output_adapter@_W@__crt_stdio_output@@@2@@__crt_stdio_output@@AAE_N_W@Z 1005f900 f i libucrtd:output.obj
 0001:0005e920       ?state_case_normal_tchar@?$output_processor@_WV?$string_output_adapter@_W@__crt_stdio_output@@V?$positional_parameter_base@_WV?$string_output_adapter@_W@__crt_stdio_output@@@2@@__crt_stdio_output@@AAE_N_W@Z 1005f920 f i libucrtd:output.obj
 0001:0005e940       ?state_case_normal_tchar@?$output_processor@_WV?$string_output_adapter@_W@__crt_stdio_output@@V?$standard_base@_WV?$string_output_adapter@_W@__crt_stdio_output@@@2@@__crt_stdio_output@@AAE_N_W@Z 1005f940 f i libucrtd:output.obj
 0001:0005e960       ?state_case_percent@?$output_processor@DV?$stream_output_adapter@D@__crt_stdio_output@@V?$format_validation_base@DV?$stream_output_adapter@D@__crt_stdio_output@@@2@@__crt_stdio_output@@AAE_NXZ 1005f960 f i libucrtd:output.obj
 0001:0005e9b0       ?state_case_percent@?$output_processor@DV?$stream_output_adapter@D@__crt_stdio_output@@V?$positional_parameter_base@DV?$stream_output_adapter@D@__crt_stdio_output@@@2@@__crt_stdio_output@@AAE_NXZ 1005f9b0 f i libucrtd:output.obj
 0001:0005ea00       ?state_case_percent@?$output_processor@DV?$stream_output_adapter@D@__crt_stdio_output@@V?$standard_base@DV?$stream_output_adapter@D@__crt_stdio_output@@@2@@__crt_stdio_output@@AAE_NXZ 1005fa00 f i libucrtd:output.obj
 0001:0005ea50       ?state_case_percent@?$output_processor@DV?$string_output_adapter@D@__crt_stdio_output@@V?$format_validation_base@DV?$string_output_adapter@D@__crt_stdio_output@@@2@@__crt_stdio_output@@AAE_NXZ 1005fa50 f i libucrtd:output.obj
 0001:0005eaa0       ?state_case_percent@?$output_processor@DV?$string_output_adapter@D@__crt_stdio_output@@V?$positional_parameter_base@DV?$string_output_adapter@D@__crt_stdio_output@@@2@@__crt_stdio_output@@AAE_NXZ 1005faa0 f i libucrtd:output.obj
 0001:0005eaf0       ?state_case_percent@?$output_processor@DV?$string_output_adapter@D@__crt_stdio_output@@V?$standard_base@DV?$string_output_adapter@D@__crt_stdio_output@@@2@@__crt_stdio_output@@AAE_NXZ 1005faf0 f i libucrtd:output.obj
 0001:0005eb40       ?state_case_percent@?$output_processor@_WV?$stream_output_adapter@_W@__crt_stdio_output@@V?$format_validation_base@_WV?$stream_output_adapter@_W@__crt_stdio_output@@@2@@__crt_stdio_output@@AAE_NXZ 1005fb40 f i libucrtd:output.obj
 0001:0005eb90       ?state_case_percent@?$output_processor@_WV?$stream_output_adapter@_W@__crt_stdio_output@@V?$positional_parameter_base@_WV?$stream_output_adapter@_W@__crt_stdio_output@@@2@@__crt_stdio_output@@AAE_NXZ 1005fb90 f i libucrtd:output.obj
 0001:0005ebe0       ?state_case_percent@?$output_processor@_WV?$stream_output_adapter@_W@__crt_stdio_output@@V?$standard_base@_WV?$stream_output_adapter@_W@__crt_stdio_output@@@2@@__crt_stdio_output@@AAE_NXZ 1005fbe0 f i libucrtd:output.obj
 0001:0005ec30       ?state_case_percent@?$output_processor@_WV?$string_output_adapter@_W@__crt_stdio_output@@V?$format_validation_base@_WV?$string_output_adapter@_W@__crt_stdio_output@@@2@@__crt_stdio_output@@AAE_NXZ 1005fc30 f i libucrtd:output.obj
 0001:0005ec80       ?state_case_percent@?$output_processor@_WV?$string_output_adapter@_W@__crt_stdio_output@@V?$positional_parameter_base@_WV?$string_output_adapter@_W@__crt_stdio_output@@@2@@__crt_stdio_output@@AAE_NXZ 1005fc80 f i libucrtd:output.obj
 0001:0005ecd0       ?state_case_percent@?$output_processor@_WV?$string_output_adapter@_W@__crt_stdio_output@@V?$standard_base@_WV?$string_output_adapter@_W@__crt_stdio_output@@@2@@__crt_stdio_output@@AAE_NXZ 1005fcd0 f i libucrtd:output.obj
 0001:0005ed20       ?state_case_precision@?$output_processor@DV?$stream_output_adapter@D@__crt_stdio_output@@V?$format_validation_base@DV?$stream_output_adapter@D@__crt_stdio_output@@@2@@__crt_stdio_output@@AAE_NXZ 1005fd20 f i libucrtd:output.obj
 0001:0005ed90       ?state_case_precision@?$output_processor@DV?$stream_output_adapter@D@__crt_stdio_output@@V?$positional_parameter_base@DV?$stream_output_adapter@D@__crt_stdio_output@@@2@@__crt_stdio_output@@AAE_NXZ 1005fd90 f i libucrtd:output.obj
 0001:0005ee00       ?state_case_precision@?$output_processor@DV?$stream_output_adapter@D@__crt_stdio_output@@V?$standard_base@DV?$stream_output_adapter@D@__crt_stdio_output@@@2@@__crt_stdio_output@@AAE_NXZ 1005fe00 f i libucrtd:output.obj
 0001:0005ee70       ?state_case_precision@?$output_processor@DV?$string_output_adapter@D@__crt_stdio_output@@V?$format_validation_base@DV?$string_output_adapter@D@__crt_stdio_output@@@2@@__crt_stdio_output@@AAE_NXZ 1005fe70 f i libucrtd:output.obj
 0001:0005eee0       ?state_case_precision@?$output_processor@DV?$string_output_adapter@D@__crt_stdio_output@@V?$positional_parameter_base@DV?$string_output_adapter@D@__crt_stdio_output@@@2@@__crt_stdio_output@@AAE_NXZ 1005fee0 f i libucrtd:output.obj
 0001:0005ef50       ?state_case_precision@?$output_processor@DV?$string_output_adapter@D@__crt_stdio_output@@V?$standard_base@DV?$string_output_adapter@D@__crt_stdio_output@@@2@@__crt_stdio_output@@AAE_NXZ 1005ff50 f i libucrtd:output.obj
 0001:0005efc0       ?state_case_precision@?$output_processor@_WV?$stream_output_adapter@_W@__crt_stdio_output@@V?$format_validation_base@_WV?$stream_output_adapter@_W@__crt_stdio_output@@@2@@__crt_stdio_output@@AAE_NXZ 1005ffc0 f i libucrtd:output.obj
 0001:0005f030       ?state_case_precision@?$output_processor@_WV?$stream_output_adapter@_W@__crt_stdio_output@@V?$positional_parameter_base@_WV?$stream_output_adapter@_W@__crt_stdio_output@@@2@@__crt_stdio_output@@AAE_NXZ 10060030 f i libucrtd:output.obj
 0001:0005f0a0       ?state_case_precision@?$output_processor@_WV?$stream_output_adapter@_W@__crt_stdio_output@@V?$standard_base@_WV?$stream_output_adapter@_W@__crt_stdio_output@@@2@@__crt_stdio_output@@AAE_NXZ 100600a0 f i libucrtd:output.obj
 0001:0005f110       ?state_case_precision@?$output_processor@_WV?$string_output_adapter@_W@__crt_stdio_output@@V?$format_validation_base@_WV?$string_output_adapter@_W@__crt_stdio_output@@@2@@__crt_stdio_output@@AAE_NXZ 10060110 f i libucrtd:output.obj
 0001:0005f180       ?state_case_precision@?$output_processor@_WV?$string_output_adapter@_W@__crt_stdio_output@@V?$positional_parameter_base@_WV?$string_output_adapter@_W@__crt_stdio_output@@@2@@__crt_stdio_output@@AAE_NXZ 10060180 f i libucrtd:output.obj
 0001:0005f1f0       ?state_case_precision@?$output_processor@_WV?$string_output_adapter@_W@__crt_stdio_output@@V?$standard_base@_WV?$string_output_adapter@_W@__crt_stdio_output@@@2@@__crt_stdio_output@@AAE_NXZ 100601f0 f i libucrtd:output.obj
 0001:0005f260       ?state_case_size@?$output_processor@DV?$stream_output_adapter@D@__crt_stdio_output@@V?$format_validation_base@DV?$stream_output_adapter@D@__crt_stdio_output@@@2@@__crt_stdio_output@@AAE_NXZ 10060260 f i libucrtd:output.obj
 0001:0005f650       ?state_case_size@?$output_processor@DV?$stream_output_adapter@D@__crt_stdio_output@@V?$positional_parameter_base@DV?$stream_output_adapter@D@__crt_stdio_output@@@2@@__crt_stdio_output@@AAE_NXZ 10060650 f i libucrtd:output.obj
 0001:0005fa40       ?state_case_size@?$output_processor@DV?$stream_output_adapter@D@__crt_stdio_output@@V?$standard_base@DV?$stream_output_adapter@D@__crt_stdio_output@@@2@@__crt_stdio_output@@AAE_NXZ 10060a40 f i libucrtd:output.obj
 0001:0005fe30       ?state_case_size@?$output_processor@DV?$string_output_adapter@D@__crt_stdio_output@@V?$format_validation_base@DV?$string_output_adapter@D@__crt_stdio_output@@@2@@__crt_stdio_output@@AAE_NXZ 10060e30 f i libucrtd:output.obj
 0001:00060220       ?state_case_size@?$output_processor@DV?$string_output_adapter@D@__crt_stdio_output@@V?$positional_parameter_base@DV?$string_output_adapter@D@__crt_stdio_output@@@2@@__crt_stdio_output@@AAE_NXZ 10061220 f i libucrtd:output.obj
 0001:00060610       ?state_case_size@?$output_processor@DV?$string_output_adapter@D@__crt_stdio_output@@V?$standard_base@DV?$string_output_adapter@D@__crt_stdio_output@@@2@@__crt_stdio_output@@AAE_NXZ 10061610 f i libucrtd:output.obj
 0001:00060a00       ?state_case_size@?$output_processor@_WV?$stream_output_adapter@_W@__crt_stdio_output@@V?$format_validation_base@_WV?$stream_output_adapter@_W@__crt_stdio_output@@@2@@__crt_stdio_output@@AAE_NXZ 10061a00 f i libucrtd:output.obj
 0001:00060df0       ?state_case_size@?$output_processor@_WV?$stream_output_adapter@_W@__crt_stdio_output@@V?$positional_parameter_base@_WV?$stream_output_adapter@_W@__crt_stdio_output@@@2@@__crt_stdio_output@@AAE_NXZ 10061df0 f i libucrtd:output.obj
 0001:000611e0       ?state_case_size@?$output_processor@_WV?$stream_output_adapter@_W@__crt_stdio_output@@V?$standard_base@_WV?$stream_output_adapter@_W@__crt_stdio_output@@@2@@__crt_stdio_output@@AAE_NXZ 100621e0 f i libucrtd:output.obj
 0001:000615d0       ?state_case_size@?$output_processor@_WV?$string_output_adapter@_W@__crt_stdio_output@@V?$format_validation_base@_WV?$string_output_adapter@_W@__crt_stdio_output@@@2@@__crt_stdio_output@@AAE_NXZ 100625d0 f i libucrtd:output.obj
 0001:000619c0       ?state_case_size@?$output_processor@_WV?$string_output_adapter@_W@__crt_stdio_output@@V?$positional_parameter_base@_WV?$string_output_adapter@_W@__crt_stdio_output@@@2@@__crt_stdio_output@@AAE_NXZ 100629c0 f i libucrtd:output.obj
 0001:00061db0       ?state_case_size@?$output_processor@_WV?$string_output_adapter@_W@__crt_stdio_output@@V?$standard_base@_WV?$string_output_adapter@_W@__crt_stdio_output@@@2@@__crt_stdio_output@@AAE_NXZ 10062db0 f i libucrtd:output.obj
 0001:000621a0       ?state_case_type@?$output_processor@DV?$stream_output_adapter@D@__crt_stdio_output@@V?$format_validation_base@DV?$stream_output_adapter@D@__crt_stdio_output@@@2@@__crt_stdio_output@@AAE_NXZ 100631a0 f i libucrtd:output.obj
 0001:00062570       ?state_case_type@?$output_processor@DV?$stream_output_adapter@D@__crt_stdio_output@@V?$positional_parameter_base@DV?$stream_output_adapter@D@__crt_stdio_output@@@2@@__crt_stdio_output@@AAE_NXZ 10063570 f i libucrtd:output.obj
 0001:00062940       ?state_case_type@?$output_processor@DV?$stream_output_adapter@D@__crt_stdio_output@@V?$standard_base@DV?$stream_output_adapter@D@__crt_stdio_output@@@2@@__crt_stdio_output@@AAE_NXZ 10063940 f i libucrtd:output.obj
 0001:00062d10       ?state_case_type@?$output_processor@DV?$string_output_adapter@D@__crt_stdio_output@@V?$format_validation_base@DV?$string_output_adapter@D@__crt_stdio_output@@@2@@__crt_stdio_output@@AAE_NXZ 10063d10 f i libucrtd:output.obj
 0001:000630e0       ?state_case_type@?$output_processor@DV?$string_output_adapter@D@__crt_stdio_output@@V?$positional_parameter_base@DV?$string_output_adapter@D@__crt_stdio_output@@@2@@__crt_stdio_output@@AAE_NXZ 100640e0 f i libucrtd:output.obj
 0001:000634b0       ?state_case_type@?$output_processor@DV?$string_output_adapter@D@__crt_stdio_output@@V?$standard_base@DV?$string_output_adapter@D@__crt_stdio_output@@@2@@__crt_stdio_output@@AAE_NXZ 100644b0 f i libucrtd:output.obj
 0001:00063880       ?state_case_type@?$output_processor@_WV?$stream_output_adapter@_W@__crt_stdio_output@@V?$format_validation_base@_WV?$stream_output_adapter@_W@__crt_stdio_output@@@2@@__crt_stdio_output@@AAE_NXZ 10064880 f i libucrtd:output.obj
 0001:00063c80       ?state_case_type@?$output_processor@_WV?$stream_output_adapter@_W@__crt_stdio_output@@V?$positional_parameter_base@_WV?$stream_output_adapter@_W@__crt_stdio_output@@@2@@__crt_stdio_output@@AAE_NXZ 10064c80 f i libucrtd:output.obj
 0001:00064080       ?state_case_type@?$output_processor@_WV?$stream_output_adapter@_W@__crt_stdio_output@@V?$standard_base@_WV?$stream_output_adapter@_W@__crt_stdio_output@@@2@@__crt_stdio_output@@AAE_NXZ 10065080 f i libucrtd:output.obj
 0001:00064480       ?state_case_type@?$output_processor@_WV?$string_output_adapter@_W@__crt_stdio_output@@V?$format_validation_base@_WV?$string_output_adapter@_W@__crt_stdio_output@@@2@@__crt_stdio_output@@AAE_NXZ 10065480 f i libucrtd:output.obj
 0001:00064880       ?state_case_type@?$output_processor@_WV?$string_output_adapter@_W@__crt_stdio_output@@V?$positional_parameter_base@_WV?$string_output_adapter@_W@__crt_stdio_output@@@2@@__crt_stdio_output@@AAE_NXZ 10065880 f i libucrtd:output.obj
 0001:00064c80       ?state_case_type@?$output_processor@_WV?$string_output_adapter@_W@__crt_stdio_output@@V?$standard_base@_WV?$string_output_adapter@_W@__crt_stdio_output@@@2@@__crt_stdio_output@@AAE_NXZ 10065c80 f i libucrtd:output.obj
 0001:00065080       ?state_case_width@?$output_processor@DV?$stream_output_adapter@D@__crt_stdio_output@@V?$format_validation_base@DV?$stream_output_adapter@D@__crt_stdio_output@@@2@@__crt_stdio_output@@AAE_NXZ 10066080 f i libucrtd:output.obj
 0001:00065100       ?state_case_width@?$output_processor@DV?$stream_output_adapter@D@__crt_stdio_output@@V?$positional_parameter_base@DV?$stream_output_adapter@D@__crt_stdio_output@@@2@@__crt_stdio_output@@AAE_NXZ 10066100 f i libucrtd:output.obj
 0001:00065180       ?state_case_width@?$output_processor@DV?$stream_output_adapter@D@__crt_stdio_output@@V?$standard_base@DV?$stream_output_adapter@D@__crt_stdio_output@@@2@@__crt_stdio_output@@AAE_NXZ 10066180 f i libucrtd:output.obj
 0001:00065200       ?state_case_width@?$output_processor@DV?$string_output_adapter@D@__crt_stdio_output@@V?$format_validation_base@DV?$string_output_adapter@D@__crt_stdio_output@@@2@@__crt_stdio_output@@AAE_NXZ 10066200 f i libucrtd:output.obj
 0001:00065280       ?state_case_width@?$output_processor@DV?$string_output_adapter@D@__crt_stdio_output@@V?$positional_parameter_base@DV?$string_output_adapter@D@__crt_stdio_output@@@2@@__crt_stdio_output@@AAE_NXZ 10066280 f i libucrtd:output.obj
 0001:00065300       ?state_case_width@?$output_processor@DV?$string_output_adapter@D@__crt_stdio_output@@V?$standard_base@DV?$string_output_adapter@D@__crt_stdio_output@@@2@@__crt_stdio_output@@AAE_NXZ 10066300 f i libucrtd:output.obj
 0001:00065380       ?state_case_width@?$output_processor@_WV?$stream_output_adapter@_W@__crt_stdio_output@@V?$format_validation_base@_WV?$stream_output_adapter@_W@__crt_stdio_output@@@2@@__crt_stdio_output@@AAE_NXZ 10066380 f i libucrtd:output.obj
 0001:00065400       ?state_case_width@?$output_processor@_WV?$stream_output_adapter@_W@__crt_stdio_output@@V?$positional_parameter_base@_WV?$stream_output_adapter@_W@__crt_stdio_output@@@2@@__crt_stdio_output@@AAE_NXZ 10066400 f i libucrtd:output.obj
 0001:00065480       ?state_case_width@?$output_processor@_WV?$stream_output_adapter@_W@__crt_stdio_output@@V?$standard_base@_WV?$stream_output_adapter@_W@__crt_stdio_output@@@2@@__crt_stdio_output@@AAE_NXZ 10066480 f i libucrtd:output.obj
 0001:00065500       ?state_case_width@?$output_processor@_WV?$string_output_adapter@_W@__crt_stdio_output@@V?$format_validation_base@_WV?$string_output_adapter@_W@__crt_stdio_output@@@2@@__crt_stdio_output@@AAE_NXZ 10066500 f i libucrtd:output.obj
 0001:00065580       ?state_case_width@?$output_processor@_WV?$string_output_adapter@_W@__crt_stdio_output@@V?$positional_parameter_base@_WV?$string_output_adapter@_W@__crt_stdio_output@@@2@@__crt_stdio_output@@AAE_NXZ 10066580 f i libucrtd:output.obj
 0001:00065600       ?state_case_width@?$output_processor@_WV?$string_output_adapter@_W@__crt_stdio_output@@V?$standard_base@_WV?$string_output_adapter@_W@__crt_stdio_output@@@2@@__crt_stdio_output@@AAE_NXZ 10066600 f i libucrtd:output.obj
 0001:00065680       ?state_count@?$format_validation_base@DV?$stream_output_adapter@D@__crt_stdio_output@@@__crt_stdio_output@@KAIXZ 10066680 f i libucrtd:output.obj
 0001:00065690       ?state_count@?$format_validation_base@DV?$string_output_adapter@D@__crt_stdio_output@@@__crt_stdio_output@@KAIXZ 10066690 f i libucrtd:output.obj
 0001:000656a0       ?state_count@?$format_validation_base@_WV?$stream_output_adapter@_W@__crt_stdio_output@@@__crt_stdio_output@@KAIXZ 100666a0 f i libucrtd:output.obj
 0001:000656b0       ?state_count@?$format_validation_base@_WV?$string_output_adapter@_W@__crt_stdio_output@@@__crt_stdio_output@@KAIXZ 100666b0 f i libucrtd:output.obj
 0001:000656c0       ?state_count@?$standard_base@DV?$stream_output_adapter@D@__crt_stdio_output@@@__crt_stdio_output@@KAIXZ 100666c0 f i libucrtd:output.obj
 0001:000656d0       ?state_count@?$standard_base@DV?$string_output_adapter@D@__crt_stdio_output@@@__crt_stdio_output@@KAIXZ 100666d0 f i libucrtd:output.obj
 0001:000656e0       ?state_count@?$standard_base@_WV?$stream_output_adapter@_W@__crt_stdio_output@@@__crt_stdio_output@@KAIXZ 100666e0 f i libucrtd:output.obj
 0001:000656f0       ?state_count@?$standard_base@_WV?$string_output_adapter@_W@__crt_stdio_output@@@__crt_stdio_output@@KAIXZ 100666f0 f i libucrtd:output.obj
 0001:00065700       ?state_transition_table@?$format_validation_base@DV?$stream_output_adapter@D@__crt_stdio_output@@@__crt_stdio_output@@KAABV?$spectre_mitigated_lookup_table@Ustate_transition_pair@__crt_stdio_output@@$0IA@@2@XZ 10066700 f i libucrtd:output.obj
 0001:00065710       ?state_transition_table@?$format_validation_base@DV?$string_output_adapter@D@__crt_stdio_output@@@__crt_stdio_output@@KAABV?$spectre_mitigated_lookup_table@Ustate_transition_pair@__crt_stdio_output@@$0IA@@2@XZ 10066710 f i libucrtd:output.obj
 0001:00065720       ?state_transition_table@?$format_validation_base@_WV?$stream_output_adapter@_W@__crt_stdio_output@@@__crt_stdio_output@@KAABV?$spectre_mitigated_lookup_table@Ustate_transition_pair@__crt_stdio_output@@$0IA@@2@XZ 10066720 f i libucrtd:output.obj
 0001:00065730       ?state_transition_table@?$format_validation_base@_WV?$string_output_adapter@_W@__crt_stdio_output@@@__crt_stdio_output@@KAABV?$spectre_mitigated_lookup_table@Ustate_transition_pair@__crt_stdio_output@@$0IA@@2@XZ 10066730 f i libucrtd:output.obj
 0001:00065740       ?state_transition_table@?$standard_base@DV?$stream_output_adapter@D@__crt_stdio_output@@@__crt_stdio_output@@KAABV?$spectre_mitigated_lookup_table@Ustate_transition_pair@__crt_stdio_output@@$0IA@@2@XZ 10066740 f i libucrtd:output.obj
 0001:00065750       ?state_transition_table@?$standard_base@DV?$string_output_adapter@D@__crt_stdio_output@@@__crt_stdio_output@@KAABV?$spectre_mitigated_lookup_table@Ustate_transition_pair@__crt_stdio_output@@$0IA@@2@XZ 10066750 f i libucrtd:output.obj
 0001:00065760       ?state_transition_table@?$standard_base@_WV?$stream_output_adapter@_W@__crt_stdio_output@@@__crt_stdio_output@@KAABV?$spectre_mitigated_lookup_table@Ustate_transition_pair@__crt_stdio_output@@$0IA@@2@XZ 10066760 f i libucrtd:output.obj
 0001:00065770       ?state_transition_table@?$standard_base@_WV?$string_output_adapter@_W@__crt_stdio_output@@@__crt_stdio_output@@KAABV?$spectre_mitigated_lookup_table@Ustate_transition_pair@__crt_stdio_output@@$0IA@@2@XZ 10066770 f i libucrtd:output.obj
 0001:00065780       ?tchar_string@?$common_data@D@__crt_stdio_output@@IAEAAPADD@Z 10066780 f i libucrtd:output.obj
 0001:000657a0       ?tchar_string@?$common_data@D@__crt_stdio_output@@IAEAAPADXZ 100667a0 f i libucrtd:output.obj
 0001:000657c0       ?tchar_string@?$common_data@_W@__crt_stdio_output@@IAEAAPA_WXZ 100667c0 f i libucrtd:output.obj
 0001:000657e0       ?tchar_string@?$common_data@_W@__crt_stdio_output@@IAEAAPA_W_W@Z 100667e0 f i libucrtd:output.obj
 0001:00065800       ?to_integer_size@__crt_stdio_output@@YAIW4length_modifier@1@@Z 10066800 f i libucrtd:output.obj
 0001:000658a0       ?type_case_X@?$output_processor@DV?$stream_output_adapter@D@__crt_stdio_output@@V?$format_validation_base@DV?$stream_output_adapter@D@__crt_stdio_output@@@2@@__crt_stdio_output@@AAE_NXZ 100668a0 f i libucrtd:output.obj
 0001:000658c0       ?type_case_X@?$output_processor@DV?$stream_output_adapter@D@__crt_stdio_output@@V?$positional_parameter_base@DV?$stream_output_adapter@D@__crt_stdio_output@@@2@@__crt_stdio_output@@AAE_NXZ 100668c0 f i libucrtd:output.obj
 0001:000658e0       ?type_case_X@?$output_processor@DV?$stream_output_adapter@D@__crt_stdio_output@@V?$standard_base@DV?$stream_output_adapter@D@__crt_stdio_output@@@2@@__crt_stdio_output@@AAE_NXZ 100668e0 f i libucrtd:output.obj
 0001:00065900       ?type_case_X@?$output_processor@DV?$string_output_adapter@D@__crt_stdio_output@@V?$format_validation_base@DV?$string_output_adapter@D@__crt_stdio_output@@@2@@__crt_stdio_output@@AAE_NXZ 10066900 f i libucrtd:output.obj
 0001:00065920       ?type_case_X@?$output_processor@DV?$string_output_adapter@D@__crt_stdio_output@@V?$positional_parameter_base@DV?$string_output_adapter@D@__crt_stdio_output@@@2@@__crt_stdio_output@@AAE_NXZ 10066920 f i libucrtd:output.obj
 0001:00065940       ?type_case_X@?$output_processor@DV?$string_output_adapter@D@__crt_stdio_output@@V?$standard_base@DV?$string_output_adapter@D@__crt_stdio_output@@@2@@__crt_stdio_output@@AAE_NXZ 10066940 f i libucrtd:output.obj
 0001:00065960       ?type_case_X@?$output_processor@_WV?$stream_output_adapter@_W@__crt_stdio_output@@V?$format_validation_base@_WV?$stream_output_adapter@_W@__crt_stdio_output@@@2@@__crt_stdio_output@@AAE_NXZ 10066960 f i libucrtd:output.obj
 0001:00065980       ?type_case_X@?$output_processor@_WV?$stream_output_adapter@_W@__crt_stdio_output@@V?$positional_parameter_base@_WV?$stream_output_adapter@_W@__crt_stdio_output@@@2@@__crt_stdio_output@@AAE_NXZ 10066980 f i libucrtd:output.obj
 0001:000659a0       ?type_case_X@?$output_processor@_WV?$stream_output_adapter@_W@__crt_stdio_output@@V?$standard_base@_WV?$stream_output_adapter@_W@__crt_stdio_output@@@2@@__crt_stdio_output@@AAE_NXZ 100669a0 f i libucrtd:output.obj
 0001:000659c0       ?type_case_X@?$output_processor@_WV?$string_output_adapter@_W@__crt_stdio_output@@V?$format_validation_base@_WV?$string_output_adapter@_W@__crt_stdio_output@@@2@@__crt_stdio_output@@AAE_NXZ 100669c0 f i libucrtd:output.obj
 0001:000659e0       ?type_case_X@?$output_processor@_WV?$string_output_adapter@_W@__crt_stdio_output@@V?$positional_parameter_base@_WV?$string_output_adapter@_W@__crt_stdio_output@@@2@@__crt_stdio_output@@AAE_NXZ 100669e0 f i libucrtd:output.obj
 0001:00065a00       ?type_case_X@?$output_processor@_WV?$string_output_adapter@_W@__crt_stdio_output@@V?$standard_base@_WV?$string_output_adapter@_W@__crt_stdio_output@@@2@@__crt_stdio_output@@AAE_NXZ 10066a00 f i libucrtd:output.obj
 0001:00065a20       ?type_case_Z@?$output_processor@DV?$stream_output_adapter@D@__crt_stdio_output@@V?$format_validation_base@DV?$stream_output_adapter@D@__crt_stdio_output@@@2@@__crt_stdio_output@@AAE_NXZ 10066a20 f i libucrtd:output.obj
 0001:00065b10       ?type_case_Z@?$output_processor@DV?$stream_output_adapter@D@__crt_stdio_output@@V?$positional_parameter_base@DV?$stream_output_adapter@D@__crt_stdio_output@@@2@@__crt_stdio_output@@AAE_NXZ 10066b10 f i libucrtd:output.obj
 0001:00065c00       ?type_case_Z@?$output_processor@DV?$stream_output_adapter@D@__crt_stdio_output@@V?$standard_base@DV?$stream_output_adapter@D@__crt_stdio_output@@@2@@__crt_stdio_output@@AAE_NXZ 10066c00 f i libucrtd:output.obj
 0001:00065cf0       ?type_case_Z@?$output_processor@DV?$string_output_adapter@D@__crt_stdio_output@@V?$format_validation_base@DV?$string_output_adapter@D@__crt_stdio_output@@@2@@__crt_stdio_output@@AAE_NXZ 10066cf0 f i libucrtd:output.obj
 0001:00065de0       ?type_case_Z@?$output_processor@DV?$string_output_adapter@D@__crt_stdio_output@@V?$positional_parameter_base@DV?$string_output_adapter@D@__crt_stdio_output@@@2@@__crt_stdio_output@@AAE_NXZ 10066de0 f i libucrtd:output.obj
 0001:00065ed0       ?type_case_Z@?$output_processor@DV?$string_output_adapter@D@__crt_stdio_output@@V?$standard_base@DV?$string_output_adapter@D@__crt_stdio_output@@@2@@__crt_stdio_output@@AAE_NXZ 10066ed0 f i libucrtd:output.obj
 0001:00065fc0       ?type_case_Z@?$output_processor@_WV?$stream_output_adapter@_W@__crt_stdio_output@@V?$format_validation_base@_WV?$stream_output_adapter@_W@__crt_stdio_output@@@2@@__crt_stdio_output@@AAE_NXZ 10066fc0 f i libucrtd:output.obj
 0001:000660b0       ?type_case_Z@?$output_processor@_WV?$stream_output_adapter@_W@__crt_stdio_output@@V?$positional_parameter_base@_WV?$stream_output_adapter@_W@__crt_stdio_output@@@2@@__crt_stdio_output@@AAE_NXZ 100670b0 f i libucrtd:output.obj
 0001:000661a0       ?type_case_Z@?$output_processor@_WV?$stream_output_adapter@_W@__crt_stdio_output@@V?$standard_base@_WV?$stream_output_adapter@_W@__crt_stdio_output@@@2@@__crt_stdio_output@@AAE_NXZ 100671a0 f i libucrtd:output.obj
 0001:00066290       ?type_case_Z@?$output_processor@_WV?$string_output_adapter@_W@__crt_stdio_output@@V?$format_validation_base@_WV?$string_output_adapter@_W@__crt_stdio_output@@@2@@__crt_stdio_output@@AAE_NXZ 10067290 f i libucrtd:output.obj
 0001:00066380       ?type_case_Z@?$output_processor@_WV?$string_output_adapter@_W@__crt_stdio_output@@V?$positional_parameter_base@_WV?$string_output_adapter@_W@__crt_stdio_output@@@2@@__crt_stdio_output@@AAE_NXZ 10067380 f i libucrtd:output.obj
 0001:00066470       ?type_case_Z@?$output_processor@_WV?$string_output_adapter@_W@__crt_stdio_output@@V?$standard_base@_WV?$string_output_adapter@_W@__crt_stdio_output@@@2@@__crt_stdio_output@@AAE_NXZ 10067470 f i libucrtd:output.obj
 0001:00066560       ?type_case_a@?$output_processor@DV?$stream_output_adapter@D@__crt_stdio_output@@V?$format_validation_base@DV?$stream_output_adapter@D@__crt_stdio_output@@@2@@__crt_stdio_output@@AAE_NXZ 10067560 f i libucrtd:output.obj
 0001:00066830       ?type_case_a@?$output_processor@DV?$stream_output_adapter@D@__crt_stdio_output@@V?$positional_parameter_base@DV?$stream_output_adapter@D@__crt_stdio_output@@@2@@__crt_stdio_output@@AAE_NXZ 10067830 f i libucrtd:output.obj
 0001:00066b00       ?type_case_a@?$output_processor@DV?$stream_output_adapter@D@__crt_stdio_output@@V?$standard_base@DV?$stream_output_adapter@D@__crt_stdio_output@@@2@@__crt_stdio_output@@AAE_NXZ 10067b00 f i libucrtd:output.obj
 0001:00066dd0       ?type_case_a@?$output_processor@DV?$string_output_adapter@D@__crt_stdio_output@@V?$format_validation_base@DV?$string_output_adapter@D@__crt_stdio_output@@@2@@__crt_stdio_output@@AAE_NXZ 10067dd0 f i libucrtd:output.obj
 0001:000670a0       ?type_case_a@?$output_processor@DV?$string_output_adapter@D@__crt_stdio_output@@V?$positional_parameter_base@DV?$string_output_adapter@D@__crt_stdio_output@@@2@@__crt_stdio_output@@AAE_NXZ 100680a0 f i libucrtd:output.obj
 0001:00067370       ?type_case_a@?$output_processor@DV?$string_output_adapter@D@__crt_stdio_output@@V?$standard_base@DV?$string_output_adapter@D@__crt_stdio_output@@@2@@__crt_stdio_output@@AAE_NXZ 10068370 f i libucrtd:output.obj
 0001:00067640       ?type_case_a@?$output_processor@_WV?$stream_output_adapter@_W@__crt_stdio_output@@V?$format_validation_base@_WV?$stream_output_adapter@_W@__crt_stdio_output@@@2@@__crt_stdio_output@@AAE_NXZ 10068640 f i libucrtd:output.obj
 0001:00067910       ?type_case_a@?$output_processor@_WV?$stream_output_adapter@_W@__crt_stdio_output@@V?$positional_parameter_base@_WV?$stream_output_adapter@_W@__crt_stdio_output@@@2@@__crt_stdio_output@@AAE_NXZ 10068910 f i libucrtd:output.obj
 0001:00067be0       ?type_case_a@?$output_processor@_WV?$stream_output_adapter@_W@__crt_stdio_output@@V?$standard_base@_WV?$stream_output_adapter@_W@__crt_stdio_output@@@2@@__crt_stdio_output@@AAE_NXZ 10068be0 f i libucrtd:output.obj
 0001:00067eb0       ?type_case_a@?$output_processor@_WV?$string_output_adapter@_W@__crt_stdio_output@@V?$format_validation_base@_WV?$string_output_adapter@_W@__crt_stdio_output@@@2@@__crt_stdio_output@@AAE_NXZ 10068eb0 f i libucrtd:output.obj
 0001:00068180       ?type_case_a@?$output_processor@_WV?$string_output_adapter@_W@__crt_stdio_output@@V?$positional_parameter_base@_WV?$string_output_adapter@_W@__crt_stdio_output@@@2@@__crt_stdio_output@@AAE_NXZ 10069180 f i libucrtd:output.obj
 0001:00068450       ?type_case_a@?$output_processor@_WV?$string_output_adapter@_W@__crt_stdio_output@@V?$standard_base@_WV?$string_output_adapter@_W@__crt_stdio_output@@@2@@__crt_stdio_output@@AAE_NXZ 10069450 f i libucrtd:output.obj
 0001:00068720       ?type_case_c@?$output_processor@DV?$stream_output_adapter@D@__crt_stdio_output@@V?$format_validation_base@DV?$stream_output_adapter@D@__crt_stdio_output@@@2@@__crt_stdio_output@@AAE_NXZ 10069720 f i libucrtd:output.obj
 0001:00068740       ?type_case_c@?$output_processor@DV?$stream_output_adapter@D@__crt_stdio_output@@V?$positional_parameter_base@DV?$stream_output_adapter@D@__crt_stdio_output@@@2@@__crt_stdio_output@@AAE_NXZ 10069740 f i libucrtd:output.obj
 0001:00068760       ?type_case_c@?$output_processor@DV?$stream_output_adapter@D@__crt_stdio_output@@V?$standard_base@DV?$stream_output_adapter@D@__crt_stdio_output@@@2@@__crt_stdio_output@@AAE_NXZ 10069760 f i libucrtd:output.obj
 0001:00068780       ?type_case_c@?$output_processor@DV?$string_output_adapter@D@__crt_stdio_output@@V?$format_validation_base@DV?$string_output_adapter@D@__crt_stdio_output@@@2@@__crt_stdio_output@@AAE_NXZ 10069780 f i libucrtd:output.obj
 0001:000687a0       ?type_case_c@?$output_processor@DV?$string_output_adapter@D@__crt_stdio_output@@V?$positional_parameter_base@DV?$string_output_adapter@D@__crt_stdio_output@@@2@@__crt_stdio_output@@AAE_NXZ 100697a0 f i libucrtd:output.obj
 0001:000687c0       ?type_case_c@?$output_processor@DV?$string_output_adapter@D@__crt_stdio_output@@V?$standard_base@DV?$string_output_adapter@D@__crt_stdio_output@@@2@@__crt_stdio_output@@AAE_NXZ 100697c0 f i libucrtd:output.obj
 0001:000687e0       ?type_case_c@?$output_processor@_WV?$stream_output_adapter@_W@__crt_stdio_output@@V?$format_validation_base@_WV?$stream_output_adapter@_W@__crt_stdio_output@@@2@@__crt_stdio_output@@AAE_NXZ 100697e0 f i libucrtd:output.obj
 0001:00068800       ?type_case_c@?$output_processor@_WV?$stream_output_adapter@_W@__crt_stdio_output@@V?$positional_parameter_base@_WV?$stream_output_adapter@_W@__crt_stdio_output@@@2@@__crt_stdio_output@@AAE_NXZ 10069800 f i libucrtd:output.obj
 0001:00068820       ?type_case_c@?$output_processor@_WV?$stream_output_adapter@_W@__crt_stdio_output@@V?$standard_base@_WV?$stream_output_adapter@_W@__crt_stdio_output@@@2@@__crt_stdio_output@@AAE_NXZ 10069820 f i libucrtd:output.obj
 0001:00068840       ?type_case_c@?$output_processor@_WV?$string_output_adapter@_W@__crt_stdio_output@@V?$format_validation_base@_WV?$string_output_adapter@_W@__crt_stdio_output@@@2@@__crt_stdio_output@@AAE_NXZ 10069840 f i libucrtd:output.obj
 0001:00068860       ?type_case_c@?$output_processor@_WV?$string_output_adapter@_W@__crt_stdio_output@@V?$positional_parameter_base@_WV?$string_output_adapter@_W@__crt_stdio_output@@@2@@__crt_stdio_output@@AAE_NXZ 10069860 f i libucrtd:output.obj
 0001:00068880       ?type_case_c@?$output_processor@_WV?$string_output_adapter@_W@__crt_stdio_output@@V?$standard_base@_WV?$string_output_adapter@_W@__crt_stdio_output@@@2@@__crt_stdio_output@@AAE_NXZ 10069880 f i libucrtd:output.obj
 0001:000688a0       ?type_case_c_tchar@?$output_processor@DV?$stream_output_adapter@D@__crt_stdio_output@@V?$format_validation_base@DV?$stream_output_adapter@D@__crt_stdio_output@@@2@@__crt_stdio_output@@AAE_ND@Z 100698a0 f i libucrtd:output.obj
 0001:000689d0       ?type_case_c_tchar@?$output_processor@DV?$stream_output_adapter@D@__crt_stdio_output@@V?$positional_parameter_base@DV?$stream_output_adapter@D@__crt_stdio_output@@@2@@__crt_stdio_output@@AAE_ND@Z 100699d0 f i libucrtd:output.obj
 0001:00068b00       ?type_case_c_tchar@?$output_processor@DV?$stream_output_adapter@D@__crt_stdio_output@@V?$standard_base@DV?$stream_output_adapter@D@__crt_stdio_output@@@2@@__crt_stdio_output@@AAE_ND@Z 10069b00 f i libucrtd:output.obj
 0001:00068c30       ?type_case_c_tchar@?$output_processor@DV?$string_output_adapter@D@__crt_stdio_output@@V?$format_validation_base@DV?$string_output_adapter@D@__crt_stdio_output@@@2@@__crt_stdio_output@@AAE_ND@Z 10069c30 f i libucrtd:output.obj
 0001:00068d60       ?type_case_c_tchar@?$output_processor@DV?$string_output_adapter@D@__crt_stdio_output@@V?$positional_parameter_base@DV?$string_output_adapter@D@__crt_stdio_output@@@2@@__crt_stdio_output@@AAE_ND@Z 10069d60 f i libucrtd:output.obj
 0001:00068e90       ?type_case_c_tchar@?$output_processor@DV?$string_output_adapter@D@__crt_stdio_output@@V?$standard_base@DV?$string_output_adapter@D@__crt_stdio_output@@@2@@__crt_stdio_output@@AAE_ND@Z 10069e90 f i libucrtd:output.obj
 0001:00068fc0       ?type_case_c_tchar@?$output_processor@_WV?$stream_output_adapter@_W@__crt_stdio_output@@V?$format_validation_base@_WV?$stream_output_adapter@_W@__crt_stdio_output@@@2@@__crt_stdio_output@@AAE_N_W@Z 10069fc0 f i libucrtd:output.obj
 0001:000690e0       ?type_case_c_tchar@?$output_processor@_WV?$stream_output_adapter@_W@__crt_stdio_output@@V?$positional_parameter_base@_WV?$stream_output_adapter@_W@__crt_stdio_output@@@2@@__crt_stdio_output@@AAE_N_W@Z 1006a0e0 f i libucrtd:output.obj
 0001:00069200       ?type_case_c_tchar@?$output_processor@_WV?$stream_output_adapter@_W@__crt_stdio_output@@V?$standard_base@_WV?$stream_output_adapter@_W@__crt_stdio_output@@@2@@__crt_stdio_output@@AAE_N_W@Z 1006a200 f i libucrtd:output.obj
 0001:00069320       ?type_case_c_tchar@?$output_processor@_WV?$string_output_adapter@_W@__crt_stdio_output@@V?$format_validation_base@_WV?$string_output_adapter@_W@__crt_stdio_output@@@2@@__crt_stdio_output@@AAE_N_W@Z 1006a320 f i libucrtd:output.obj
 0001:00069440       ?type_case_c_tchar@?$output_processor@_WV?$string_output_adapter@_W@__crt_stdio_output@@V?$positional_parameter_base@_WV?$string_output_adapter@_W@__crt_stdio_output@@@2@@__crt_stdio_output@@AAE_N_W@Z 1006a440 f i libucrtd:output.obj
 0001:00069560       ?type_case_c_tchar@?$output_processor@_WV?$string_output_adapter@_W@__crt_stdio_output@@V?$standard_base@_WV?$string_output_adapter@_W@__crt_stdio_output@@@2@@__crt_stdio_output@@AAE_N_W@Z 1006a560 f i libucrtd:output.obj
 0001:00069680       ?type_case_d@?$output_processor@DV?$stream_output_adapter@D@__crt_stdio_output@@V?$format_validation_base@DV?$stream_output_adapter@D@__crt_stdio_output@@@2@@__crt_stdio_output@@AAE_NXZ 1006a680 f i libucrtd:output.obj
 0001:000696b0       ?type_case_d@?$output_processor@DV?$stream_output_adapter@D@__crt_stdio_output@@V?$positional_parameter_base@DV?$stream_output_adapter@D@__crt_stdio_output@@@2@@__crt_stdio_output@@AAE_NXZ 1006a6b0 f i libucrtd:output.obj
 0001:000696e0       ?type_case_d@?$output_processor@DV?$stream_output_adapter@D@__crt_stdio_output@@V?$standard_base@DV?$stream_output_adapter@D@__crt_stdio_output@@@2@@__crt_stdio_output@@AAE_NXZ 1006a6e0 f i libucrtd:output.obj
 0001:00069710       ?type_case_d@?$output_processor@DV?$string_output_adapter@D@__crt_stdio_output@@V?$format_validation_base@DV?$string_output_adapter@D@__crt_stdio_output@@@2@@__crt_stdio_output@@AAE_NXZ 1006a710 f i libucrtd:output.obj
 0001:00069740       ?type_case_d@?$output_processor@DV?$string_output_adapter@D@__crt_stdio_output@@V?$positional_parameter_base@DV?$string_output_adapter@D@__crt_stdio_output@@@2@@__crt_stdio_output@@AAE_NXZ 1006a740 f i libucrtd:output.obj
 0001:00069770       ?type_case_d@?$output_processor@DV?$string_output_adapter@D@__crt_stdio_output@@V?$standard_base@DV?$string_output_adapter@D@__crt_stdio_output@@@2@@__crt_stdio_output@@AAE_NXZ 1006a770 f i libucrtd:output.obj
 0001:000697a0       ?type_case_d@?$output_processor@_WV?$stream_output_adapter@_W@__crt_stdio_output@@V?$format_validation_base@_WV?$stream_output_adapter@_W@__crt_stdio_output@@@2@@__crt_stdio_output@@AAE_NXZ 1006a7a0 f i libucrtd:output.obj
 0001:000697d0       ?type_case_d@?$output_processor@_WV?$stream_output_adapter@_W@__crt_stdio_output@@V?$positional_parameter_base@_WV?$stream_output_adapter@_W@__crt_stdio_output@@@2@@__crt_stdio_output@@AAE_NXZ 1006a7d0 f i libucrtd:output.obj
 0001:00069800       ?type_case_d@?$output_processor@_WV?$stream_output_adapter@_W@__crt_stdio_output@@V?$standard_base@_WV?$stream_output_adapter@_W@__crt_stdio_output@@@2@@__crt_stdio_output@@AAE_NXZ 1006a800 f i libucrtd:output.obj
 0001:00069830       ?type_case_d@?$output_processor@_WV?$string_output_adapter@_W@__crt_stdio_output@@V?$format_validation_base@_WV?$string_output_adapter@_W@__crt_stdio_output@@@2@@__crt_stdio_output@@AAE_NXZ 1006a830 f i libucrtd:output.obj
 0001:00069860       ?type_case_d@?$output_processor@_WV?$string_output_adapter@_W@__crt_stdio_output@@V?$positional_parameter_base@_WV?$string_output_adapter@_W@__crt_stdio_output@@@2@@__crt_stdio_output@@AAE_NXZ 1006a860 f i libucrtd:output.obj
 0001:00069890       ?type_case_d@?$output_processor@_WV?$string_output_adapter@_W@__crt_stdio_output@@V?$standard_base@_WV?$string_output_adapter@_W@__crt_stdio_output@@@2@@__crt_stdio_output@@AAE_NXZ 1006a890 f i libucrtd:output.obj
 0001:000698c0       ?type_case_n@?$output_processor@DV?$stream_output_adapter@D@__crt_stdio_output@@V?$format_validation_base@DV?$stream_output_adapter@D@__crt_stdio_output@@@2@@__crt_stdio_output@@AAE_NXZ 1006a8c0 f i libucrtd:output.obj
 0001:00069ae0       ?type_case_n@?$output_processor@DV?$stream_output_adapter@D@__crt_stdio_output@@V?$positional_parameter_base@DV?$stream_output_adapter@D@__crt_stdio_output@@@2@@__crt_stdio_output@@AAE_NXZ 1006aae0 f i libucrtd:output.obj
 0001:00069d00       ?type_case_n@?$output_processor@DV?$stream_output_adapter@D@__crt_stdio_output@@V?$standard_base@DV?$stream_output_adapter@D@__crt_stdio_output@@@2@@__crt_stdio_output@@AAE_NXZ 1006ad00 f i libucrtd:output.obj
 0001:00069f20       ?type_case_n@?$output_processor@DV?$string_output_adapter@D@__crt_stdio_output@@V?$format_validation_base@DV?$string_output_adapter@D@__crt_stdio_output@@@2@@__crt_stdio_output@@AAE_NXZ 1006af20 f i libucrtd:output.obj
 0001:0006a140       ?type_case_n@?$output_processor@DV?$string_output_adapter@D@__crt_stdio_output@@V?$positional_parameter_base@DV?$string_output_adapter@D@__crt_stdio_output@@@2@@__crt_stdio_output@@AAE_NXZ 1006b140 f i libucrtd:output.obj
 0001:0006a360       ?type_case_n@?$output_processor@DV?$string_output_adapter@D@__crt_stdio_output@@V?$standard_base@DV?$string_output_adapter@D@__crt_stdio_output@@@2@@__crt_stdio_output@@AAE_NXZ 1006b360 f i libucrtd:output.obj
 0001:0006a580       ?type_case_n@?$output_processor@_WV?$stream_output_adapter@_W@__crt_stdio_output@@V?$format_validation_base@_WV?$stream_output_adapter@_W@__crt_stdio_output@@@2@@__crt_stdio_output@@AAE_NXZ 1006b580 f i libucrtd:output.obj
 0001:0006a7a0       ?type_case_n@?$output_processor@_WV?$stream_output_adapter@_W@__crt_stdio_output@@V?$positional_parameter_base@_WV?$stream_output_adapter@_W@__crt_stdio_output@@@2@@__crt_stdio_output@@AAE_NXZ 1006b7a0 f i libucrtd:output.obj
 0001:0006a9c0       ?type_case_n@?$output_processor@_WV?$stream_output_adapter@_W@__crt_stdio_output@@V?$standard_base@_WV?$stream_output_adapter@_W@__crt_stdio_output@@@2@@__crt_stdio_output@@AAE_NXZ 1006b9c0 f i libucrtd:output.obj
 0001:0006abe0       ?type_case_n@?$output_processor@_WV?$string_output_adapter@_W@__crt_stdio_output@@V?$format_validation_base@_WV?$string_output_adapter@_W@__crt_stdio_output@@@2@@__crt_stdio_output@@AAE_NXZ 1006bbe0 f i libucrtd:output.obj
 0001:0006ae00       ?type_case_n@?$output_processor@_WV?$string_output_adapter@_W@__crt_stdio_output@@V?$positional_parameter_base@_WV?$string_output_adapter@_W@__crt_stdio_output@@@2@@__crt_stdio_output@@AAE_NXZ 1006be00 f i libucrtd:output.obj
 0001:0006b020       ?type_case_n@?$output_processor@_WV?$string_output_adapter@_W@__crt_stdio_output@@V?$standard_base@_WV?$string_output_adapter@_W@__crt_stdio_output@@@2@@__crt_stdio_output@@AAE_NXZ 1006c020 f i libucrtd:output.obj
 0001:0006b240       ?type_case_o@?$output_processor@DV?$stream_output_adapter@D@__crt_stdio_output@@V?$format_validation_base@DV?$stream_output_adapter@D@__crt_stdio_output@@@2@@__crt_stdio_output@@AAE_NXZ 1006c240 f i libucrtd:output.obj
 0001:0006b280       ?type_case_o@?$output_processor@DV?$stream_output_adapter@D@__crt_stdio_output@@V?$positional_parameter_base@DV?$stream_output_adapter@D@__crt_stdio_output@@@2@@__crt_stdio_output@@AAE_NXZ 1006c280 f i libucrtd:output.obj
 0001:0006b2c0       ?type_case_o@?$output_processor@DV?$stream_output_adapter@D@__crt_stdio_output@@V?$standard_base@DV?$stream_output_adapter@D@__crt_stdio_output@@@2@@__crt_stdio_output@@AAE_NXZ 1006c2c0 f i libucrtd:output.obj
 0001:0006b300       ?type_case_o@?$output_processor@DV?$string_output_adapter@D@__crt_stdio_output@@V?$format_validation_base@DV?$string_output_adapter@D@__crt_stdio_output@@@2@@__crt_stdio_output@@AAE_NXZ 1006c300 f i libucrtd:output.obj
 0001:0006b340       ?type_case_o@?$output_processor@DV?$string_output_adapter@D@__crt_stdio_output@@V?$positional_parameter_base@DV?$string_output_adapter@D@__crt_stdio_output@@@2@@__crt_stdio_output@@AAE_NXZ 1006c340 f i libucrtd:output.obj
 0001:0006b380       ?type_case_o@?$output_processor@DV?$string_output_adapter@D@__crt_stdio_output@@V?$standard_base@DV?$string_output_adapter@D@__crt_stdio_output@@@2@@__crt_stdio_output@@AAE_NXZ 1006c380 f i libucrtd:output.obj
 0001:0006b3c0       ?type_case_o@?$output_processor@_WV?$stream_output_adapter@_W@__crt_stdio_output@@V?$format_validation_base@_WV?$stream_output_adapter@_W@__crt_stdio_output@@@2@@__crt_stdio_output@@AAE_NXZ 1006c3c0 f i libucrtd:output.obj
 0001:0006b400       ?type_case_o@?$output_processor@_WV?$stream_output_adapter@_W@__crt_stdio_output@@V?$positional_parameter_base@_WV?$stream_output_adapter@_W@__crt_stdio_output@@@2@@__crt_stdio_output@@AAE_NXZ 1006c400 f i libucrtd:output.obj
 0001:0006b440       ?type_case_o@?$output_processor@_WV?$stream_output_adapter@_W@__crt_stdio_output@@V?$standard_base@_WV?$stream_output_adapter@_W@__crt_stdio_output@@@2@@__crt_stdio_output@@AAE_NXZ 1006c440 f i libucrtd:output.obj
 0001:0006b480       ?type_case_o@?$output_processor@_WV?$string_output_adapter@_W@__crt_stdio_output@@V?$format_validation_base@_WV?$string_output_adapter@_W@__crt_stdio_output@@@2@@__crt_stdio_output@@AAE_NXZ 1006c480 f i libucrtd:output.obj
 0001:0006b4c0       ?type_case_o@?$output_processor@_WV?$string_output_adapter@_W@__crt_stdio_output@@V?$positional_parameter_base@_WV?$string_output_adapter@_W@__crt_stdio_output@@@2@@__crt_stdio_output@@AAE_NXZ 1006c4c0 f i libucrtd:output.obj
 0001:0006b500       ?type_case_o@?$output_processor@_WV?$string_output_adapter@_W@__crt_stdio_output@@V?$standard_base@_WV?$string_output_adapter@_W@__crt_stdio_output@@@2@@__crt_stdio_output@@AAE_NXZ 1006c500 f i libucrtd:output.obj
 0001:0006b540       ?type_case_p@?$output_processor@DV?$stream_output_adapter@D@__crt_stdio_output@@V?$format_validation_base@DV?$stream_output_adapter@D@__crt_stdio_output@@@2@@__crt_stdio_output@@AAE_NXZ 1006c540 f i libucrtd:output.obj
 0001:0006b570       ?type_case_p@?$output_processor@DV?$stream_output_adapter@D@__crt_stdio_output@@V?$positional_parameter_base@DV?$stream_output_adapter@D@__crt_stdio_output@@@2@@__crt_stdio_output@@AAE_NXZ 1006c570 f i libucrtd:output.obj
 0001:0006b5a0       ?type_case_p@?$output_processor@DV?$stream_output_adapter@D@__crt_stdio_output@@V?$standard_base@DV?$stream_output_adapter@D@__crt_stdio_output@@@2@@__crt_stdio_output@@AAE_NXZ 1006c5a0 f i libucrtd:output.obj
 0001:0006b5d0       ?type_case_p@?$output_processor@DV?$string_output_adapter@D@__crt_stdio_output@@V?$format_validation_base@DV?$string_output_adapter@D@__crt_stdio_output@@@2@@__crt_stdio_output@@AAE_NXZ 1006c5d0 f i libucrtd:output.obj
 0001:0006b600       ?type_case_p@?$output_processor@DV?$string_output_adapter@D@__crt_stdio_output@@V?$positional_parameter_base@DV?$string_output_adapter@D@__crt_stdio_output@@@2@@__crt_stdio_output@@AAE_NXZ 1006c600 f i libucrtd:output.obj
 0001:0006b630       ?type_case_p@?$output_processor@DV?$string_output_adapter@D@__crt_stdio_output@@V?$standard_base@DV?$string_output_adapter@D@__crt_stdio_output@@@2@@__crt_stdio_output@@AAE_NXZ 1006c630 f i libucrtd:output.obj
 0001:0006b660       ?type_case_p@?$output_processor@_WV?$stream_output_adapter@_W@__crt_stdio_output@@V?$format_validation_base@_WV?$stream_output_adapter@_W@__crt_stdio_output@@@2@@__crt_stdio_output@@AAE_NXZ 1006c660 f i libucrtd:output.obj
 0001:0006b690       ?type_case_p@?$output_processor@_WV?$stream_output_adapter@_W@__crt_stdio_output@@V?$positional_parameter_base@_WV?$stream_output_adapter@_W@__crt_stdio_output@@@2@@__crt_stdio_output@@AAE_NXZ 1006c690 f i libucrtd:output.obj
 0001:0006b6c0       ?type_case_p@?$output_processor@_WV?$stream_output_adapter@_W@__crt_stdio_output@@V?$standard_base@_WV?$stream_output_adapter@_W@__crt_stdio_output@@@2@@__crt_stdio_output@@AAE_NXZ 1006c6c0 f i libucrtd:output.obj
 0001:0006b6f0       ?type_case_p@?$output_processor@_WV?$string_output_adapter@_W@__crt_stdio_output@@V?$format_validation_base@_WV?$string_output_adapter@_W@__crt_stdio_output@@@2@@__crt_stdio_output@@AAE_NXZ 1006c6f0 f i libucrtd:output.obj
 0001:0006b720       ?type_case_p@?$output_processor@_WV?$string_output_adapter@_W@__crt_stdio_output@@V?$positional_parameter_base@_WV?$string_output_adapter@_W@__crt_stdio_output@@@2@@__crt_stdio_output@@AAE_NXZ 1006c720 f i libucrtd:output.obj
 0001:0006b750       ?type_case_p@?$output_processor@_WV?$string_output_adapter@_W@__crt_stdio_output@@V?$standard_base@_WV?$string_output_adapter@_W@__crt_stdio_output@@@2@@__crt_stdio_output@@AAE_NXZ 1006c750 f i libucrtd:output.obj
 0001:0006b780       ?type_case_s@?$output_processor@DV?$stream_output_adapter@D@__crt_stdio_output@@V?$format_validation_base@DV?$stream_output_adapter@D@__crt_stdio_output@@@2@@__crt_stdio_output@@AAE_NXZ 1006c780 f i libucrtd:output.obj
 0001:0006b870       ?type_case_s@?$output_processor@DV?$stream_output_adapter@D@__crt_stdio_output@@V?$positional_parameter_base@DV?$stream_output_adapter@D@__crt_stdio_output@@@2@@__crt_stdio_output@@AAE_NXZ 1006c870 f i libucrtd:output.obj
 0001:0006b960       ?type_case_s@?$output_processor@DV?$stream_output_adapter@D@__crt_stdio_output@@V?$standard_base@DV?$stream_output_adapter@D@__crt_stdio_output@@@2@@__crt_stdio_output@@AAE_NXZ 1006c960 f i libucrtd:output.obj
 0001:0006ba50       ?type_case_s@?$output_processor@DV?$string_output_adapter@D@__crt_stdio_output@@V?$format_validation_base@DV?$string_output_adapter@D@__crt_stdio_output@@@2@@__crt_stdio_output@@AAE_NXZ 1006ca50 f i libucrtd:output.obj
 0001:0006bb40       ?type_case_s@?$output_processor@DV?$string_output_adapter@D@__crt_stdio_output@@V?$positional_parameter_base@DV?$string_output_adapter@D@__crt_stdio_output@@@2@@__crt_stdio_output@@AAE_NXZ 1006cb40 f i libucrtd:output.obj
 0001:0006bc30       ?type_case_s@?$output_processor@DV?$string_output_adapter@D@__crt_stdio_output@@V?$standard_base@DV?$string_output_adapter@D@__crt_stdio_output@@@2@@__crt_stdio_output@@AAE_NXZ 1006cc30 f i libucrtd:output.obj
 0001:0006bd20       ?type_case_s@?$output_processor@_WV?$stream_output_adapter@_W@__crt_stdio_output@@V?$format_validation_base@_WV?$stream_output_adapter@_W@__crt_stdio_output@@@2@@__crt_stdio_output@@AAE_NXZ 1006cd20 f i libucrtd:output.obj
 0001:0006be10       ?type_case_s@?$output_processor@_WV?$stream_output_adapter@_W@__crt_stdio_output@@V?$positional_parameter_base@_WV?$stream_output_adapter@_W@__crt_stdio_output@@@2@@__crt_stdio_output@@AAE_NXZ 1006ce10 f i libucrtd:output.obj
 0001:0006bf00       ?type_case_s@?$output_processor@_WV?$stream_output_adapter@_W@__crt_stdio_output@@V?$standard_base@_WV?$stream_output_adapter@_W@__crt_stdio_output@@@2@@__crt_stdio_output@@AAE_NXZ 1006cf00 f i libucrtd:output.obj
 0001:0006bff0       ?type_case_s@?$output_processor@_WV?$string_output_adapter@_W@__crt_stdio_output@@V?$format_validation_base@_WV?$string_output_adapter@_W@__crt_stdio_output@@@2@@__crt_stdio_output@@AAE_NXZ 1006cff0 f i libucrtd:output.obj
 0001:0006c0e0       ?type_case_s@?$output_processor@_WV?$string_output_adapter@_W@__crt_stdio_output@@V?$positional_parameter_base@_WV?$string_output_adapter@_W@__crt_stdio_output@@@2@@__crt_stdio_output@@AAE_NXZ 1006d0e0 f i libucrtd:output.obj
 0001:0006c1d0       ?type_case_s@?$output_processor@_WV?$string_output_adapter@_W@__crt_stdio_output@@V?$standard_base@_WV?$string_output_adapter@_W@__crt_stdio_output@@@2@@__crt_stdio_output@@AAE_NXZ 1006d1d0 f i libucrtd:output.obj
 0001:0006c2c0       ?type_case_s_compute_narrow_string_length@?$output_processor@DV?$stream_output_adapter@D@__crt_stdio_output@@V?$format_validation_base@DV?$stream_output_adapter@D@__crt_stdio_output@@@2@@__crt_stdio_output@@AAEHHD@Z 1006d2c0 f i libucrtd:output.obj
 0001:0006c2f0       ?type_case_s_compute_narrow_string_length@?$output_processor@DV?$stream_output_adapter@D@__crt_stdio_output@@V?$positional_parameter_base@DV?$stream_output_adapter@D@__crt_stdio_output@@@2@@__crt_stdio_output@@AAEHHD@Z 1006d2f0 f i libucrtd:output.obj
 0001:0006c320       ?type_case_s_compute_narrow_string_length@?$output_processor@DV?$stream_output_adapter@D@__crt_stdio_output@@V?$standard_base@DV?$stream_output_adapter@D@__crt_stdio_output@@@2@@__crt_stdio_output@@AAEHHD@Z 1006d320 f i libucrtd:output.obj
 0001:0006c350       ?type_case_s_compute_narrow_string_length@?$output_processor@DV?$string_output_adapter@D@__crt_stdio_output@@V?$format_validation_base@DV?$string_output_adapter@D@__crt_stdio_output@@@2@@__crt_stdio_output@@AAEHHD@Z 1006d350 f i libucrtd:output.obj
 0001:0006c380       ?type_case_s_compute_narrow_string_length@?$output_processor@DV?$string_output_adapter@D@__crt_stdio_output@@V?$positional_parameter_base@DV?$string_output_adapter@D@__crt_stdio_output@@@2@@__crt_stdio_output@@AAEHHD@Z 1006d380 f i libucrtd:output.obj
 0001:0006c3b0       ?type_case_s_compute_narrow_string_length@?$output_processor@DV?$string_output_adapter@D@__crt_stdio_output@@V?$standard_base@DV?$string_output_adapter@D@__crt_stdio_output@@@2@@__crt_stdio_output@@AAEHHD@Z 1006d3b0 f i libucrtd:output.obj
 0001:0006c3e0       ?type_case_s_compute_narrow_string_length@?$output_processor@_WV?$stream_output_adapter@_W@__crt_stdio_output@@V?$format_validation_base@_WV?$stream_output_adapter@_W@__crt_stdio_output@@@2@@__crt_stdio_output@@AAEHH_W@Z 1006d3e0 f i libucrtd:output.obj
 0001:0006c460       ?type_case_s_compute_narrow_string_length@?$output_processor@_WV?$stream_output_adapter@_W@__crt_stdio_output@@V?$positional_parameter_base@_WV?$stream_output_adapter@_W@__crt_stdio_output@@@2@@__crt_stdio_output@@AAEHH_W@Z 1006d460 f i libucrtd:output.obj
 0001:0006c4e0       ?type_case_s_compute_narrow_string_length@?$output_processor@_WV?$stream_output_adapter@_W@__crt_stdio_output@@V?$standard_base@_WV?$stream_output_adapter@_W@__crt_stdio_output@@@2@@__crt_stdio_output@@AAEHH_W@Z 1006d4e0 f i libucrtd:output.obj
 0001:0006c560       ?type_case_s_compute_narrow_string_length@?$output_processor@_WV?$string_output_adapter@_W@__crt_stdio_output@@V?$format_validation_base@_WV?$string_output_adapter@_W@__crt_stdio_output@@@2@@__crt_stdio_output@@AAEHH_W@Z 1006d560 f i libucrtd:output.obj
 0001:0006c5e0       ?type_case_s_compute_narrow_string_length@?$output_processor@_WV?$string_output_adapter@_W@__crt_stdio_output@@V?$positional_parameter_base@_WV?$string_output_adapter@_W@__crt_stdio_output@@@2@@__crt_stdio_output@@AAEHH_W@Z 1006d5e0 f i libucrtd:output.obj
 0001:0006c660       ?type_case_s_compute_narrow_string_length@?$output_processor@_WV?$string_output_adapter@_W@__crt_stdio_output@@V?$standard_base@_WV?$string_output_adapter@_W@__crt_stdio_output@@@2@@__crt_stdio_output@@AAEHH_W@Z 1006d660 f i libucrtd:output.obj
 0001:0006c6e0       ?type_case_u@?$output_processor@DV?$stream_output_adapter@D@__crt_stdio_output@@V?$format_validation_base@DV?$stream_output_adapter@D@__crt_stdio_output@@@2@@__crt_stdio_output@@AAE_NXZ 1006d6e0 f i libucrtd:output.obj
 0001:0006c700       ?type_case_u@?$output_processor@DV?$stream_output_adapter@D@__crt_stdio_output@@V?$positional_parameter_base@DV?$stream_output_adapter@D@__crt_stdio_output@@@2@@__crt_stdio_output@@AAE_NXZ 1006d700 f i libucrtd:output.obj
 0001:0006c720       ?type_case_u@?$output_processor@DV?$stream_output_adapter@D@__crt_stdio_output@@V?$standard_base@DV?$stream_output_adapter@D@__crt_stdio_output@@@2@@__crt_stdio_output@@AAE_NXZ 1006d720 f i libucrtd:output.obj
 0001:0006c740       ?type_case_u@?$output_processor@DV?$string_output_adapter@D@__crt_stdio_output@@V?$format_validation_base@DV?$string_output_adapter@D@__crt_stdio_output@@@2@@__crt_stdio_output@@AAE_NXZ 1006d740 f i libucrtd:output.obj
 0001:0006c760       ?type_case_u@?$output_processor@DV?$string_output_adapter@D@__crt_stdio_output@@V?$positional_parameter_base@DV?$string_output_adapter@D@__crt_stdio_output@@@2@@__crt_stdio_output@@AAE_NXZ 1006d760 f i libucrtd:output.obj
 0001:0006c780       ?type_case_u@?$output_processor@DV?$string_output_adapter@D@__crt_stdio_output@@V?$standard_base@DV?$string_output_adapter@D@__crt_stdio_output@@@2@@__crt_stdio_output@@AAE_NXZ 1006d780 f i libucrtd:output.obj
 0001:0006c7a0       ?type_case_u@?$output_processor@_WV?$stream_output_adapter@_W@__crt_stdio_output@@V?$format_validation_base@_WV?$stream_output_adapter@_W@__crt_stdio_output@@@2@@__crt_stdio_output@@AAE_NXZ 1006d7a0 f i libucrtd:output.obj
 0001:0006c7c0       ?type_case_u@?$output_processor@_WV?$stream_output_adapter@_W@__crt_stdio_output@@V?$positional_parameter_base@_WV?$stream_output_adapter@_W@__crt_stdio_output@@@2@@__crt_stdio_output@@AAE_NXZ 1006d7c0 f i libucrtd:output.obj
 0001:0006c7e0       ?type_case_u@?$output_processor@_WV?$stream_output_adapter@_W@__crt_stdio_output@@V?$standard_base@_WV?$stream_output_adapter@_W@__crt_stdio_output@@@2@@__crt_stdio_output@@AAE_NXZ 1006d7e0 f i libucrtd:output.obj
 0001:0006c800       ?type_case_u@?$output_processor@_WV?$string_output_adapter@_W@__crt_stdio_output@@V?$format_validation_base@_WV?$string_output_adapter@_W@__crt_stdio_output@@@2@@__crt_stdio_output@@AAE_NXZ 1006d800 f i libucrtd:output.obj
 0001:0006c820       ?type_case_u@?$output_processor@_WV?$string_output_adapter@_W@__crt_stdio_output@@V?$positional_parameter_base@_WV?$string_output_adapter@_W@__crt_stdio_output@@@2@@__crt_stdio_output@@AAE_NXZ 1006d820 f i libucrtd:output.obj
 0001:0006c840       ?type_case_u@?$output_processor@_WV?$string_output_adapter@_W@__crt_stdio_output@@V?$standard_base@_WV?$string_output_adapter@_W@__crt_stdio_output@@@2@@__crt_stdio_output@@AAE_NXZ 1006d840 f i libucrtd:output.obj
 0001:0006c860       ?type_case_x@?$output_processor@DV?$stream_output_adapter@D@__crt_stdio_output@@V?$format_validation_base@DV?$stream_output_adapter@D@__crt_stdio_output@@@2@@__crt_stdio_output@@AAE_NXZ 1006d860 f i libucrtd:output.obj
 0001:0006c880       ?type_case_x@?$output_processor@DV?$stream_output_adapter@D@__crt_stdio_output@@V?$positional_parameter_base@DV?$stream_output_adapter@D@__crt_stdio_output@@@2@@__crt_stdio_output@@AAE_NXZ 1006d880 f i libucrtd:output.obj
 0001:0006c8a0       ?type_case_x@?$output_processor@DV?$stream_output_adapter@D@__crt_stdio_output@@V?$standard_base@DV?$stream_output_adapter@D@__crt_stdio_output@@@2@@__crt_stdio_output@@AAE_NXZ 1006d8a0 f i libucrtd:output.obj
 0001:0006c8c0       ?type_case_x@?$output_processor@DV?$string_output_adapter@D@__crt_stdio_output@@V?$format_validation_base@DV?$string_output_adapter@D@__crt_stdio_output@@@2@@__crt_stdio_output@@AAE_NXZ 1006d8c0 f i libucrtd:output.obj
 0001:0006c8e0       ?type_case_x@?$output_processor@DV?$string_output_adapter@D@__crt_stdio_output@@V?$positional_parameter_base@DV?$string_output_adapter@D@__crt_stdio_output@@@2@@__crt_stdio_output@@AAE_NXZ 1006d8e0 f i libucrtd:output.obj
 0001:0006c900       ?type_case_x@?$output_processor@DV?$string_output_adapter@D@__crt_stdio_output@@V?$standard_base@DV?$string_output_adapter@D@__crt_stdio_output@@@2@@__crt_stdio_output@@AAE_NXZ 1006d900 f i libucrtd:output.obj
 0001:0006c920       ?type_case_x@?$output_processor@_WV?$stream_output_adapter@_W@__crt_stdio_output@@V?$format_validation_base@_WV?$stream_output_adapter@_W@__crt_stdio_output@@@2@@__crt_stdio_output@@AAE_NXZ 1006d920 f i libucrtd:output.obj
 0001:0006c940       ?type_case_x@?$output_processor@_WV?$stream_output_adapter@_W@__crt_stdio_output@@V?$positional_parameter_base@_WV?$stream_output_adapter@_W@__crt_stdio_output@@@2@@__crt_stdio_output@@AAE_NXZ 1006d940 f i libucrtd:output.obj
 0001:0006c960       ?type_case_x@?$output_processor@_WV?$stream_output_adapter@_W@__crt_stdio_output@@V?$standard_base@_WV?$stream_output_adapter@_W@__crt_stdio_output@@@2@@__crt_stdio_output@@AAE_NXZ 1006d960 f i libucrtd:output.obj
 0001:0006c980       ?type_case_x@?$output_processor@_WV?$string_output_adapter@_W@__crt_stdio_output@@V?$format_validation_base@_WV?$string_output_adapter@_W@__crt_stdio_output@@@2@@__crt_stdio_output@@AAE_NXZ 1006d980 f i libucrtd:output.obj
 0001:0006c9a0       ?type_case_x@?$output_processor@_WV?$string_output_adapter@_W@__crt_stdio_output@@V?$positional_parameter_base@_WV?$string_output_adapter@_W@__crt_stdio_output@@@2@@__crt_stdio_output@@AAE_NXZ 1006d9a0 f i libucrtd:output.obj
 0001:0006c9c0       ?type_case_x@?$output_processor@_WV?$string_output_adapter@_W@__crt_stdio_output@@V?$standard_base@_WV?$string_output_adapter@_W@__crt_stdio_output@@@2@@__crt_stdio_output@@AAE_NXZ 1006d9c0 f i libucrtd:output.obj
 0001:0006c9e0       ?unget@?$c_string_character_source@D@__crt_strtox@@QAEXD@Z 1006d9e0 f i libucrtd:output.obj
 0001:0006ca90       ?unget@?$c_string_character_source@_W@__crt_strtox@@QAEX_W@Z 1006da90 f i libucrtd:output.obj
 0001:0006cb40       ?unsafe_value@?$cached@H@__crt_cached_ptd_host@@QAEHXZ 1006db40 f i libucrtd:output.obj
 0001:0006cb60       ?unsafe_value@?$cached@K@__crt_cached_ptd_host@@QAEKXZ 1006db60 f i libucrtd:output.obj
 0001:0006cb80       ?unset_flag@?$output_processor@DV?$stream_output_adapter@D@__crt_stdio_output@@V?$format_validation_base@DV?$stream_output_adapter@D@__crt_stdio_output@@@2@@__crt_stdio_output@@AAEXI@Z 1006db80 f i libucrtd:output.obj
 0001:0006cba0       ?unset_flag@?$output_processor@DV?$stream_output_adapter@D@__crt_stdio_output@@V?$positional_parameter_base@DV?$stream_output_adapter@D@__crt_stdio_output@@@2@@__crt_stdio_output@@AAEXI@Z 1006dba0 f i libucrtd:output.obj
 0001:0006cbc0       ?unset_flag@?$output_processor@DV?$stream_output_adapter@D@__crt_stdio_output@@V?$standard_base@DV?$stream_output_adapter@D@__crt_stdio_output@@@2@@__crt_stdio_output@@AAEXI@Z 1006dbc0 f i libucrtd:output.obj
 0001:0006cbe0       ?unset_flag@?$output_processor@DV?$string_output_adapter@D@__crt_stdio_output@@V?$format_validation_base@DV?$string_output_adapter@D@__crt_stdio_output@@@2@@__crt_stdio_output@@AAEXI@Z 1006dbe0 f i libucrtd:output.obj
 0001:0006cc00       ?unset_flag@?$output_processor@DV?$string_output_adapter@D@__crt_stdio_output@@V?$positional_parameter_base@DV?$string_output_adapter@D@__crt_stdio_output@@@2@@__crt_stdio_output@@AAEXI@Z 1006dc00 f i libucrtd:output.obj
 0001:0006cc20       ?unset_flag@?$output_processor@DV?$string_output_adapter@D@__crt_stdio_output@@V?$standard_base@DV?$string_output_adapter@D@__crt_stdio_output@@@2@@__crt_stdio_output@@AAEXI@Z 1006dc20 f i libucrtd:output.obj
 0001:0006cc40       ?unset_flag@?$output_processor@_WV?$stream_output_adapter@_W@__crt_stdio_output@@V?$format_validation_base@_WV?$stream_output_adapter@_W@__crt_stdio_output@@@2@@__crt_stdio_output@@AAEXI@Z 1006dc40 f i libucrtd:output.obj
 0001:0006cc60       ?unset_flag@?$output_processor@_WV?$stream_output_adapter@_W@__crt_stdio_output@@V?$positional_parameter_base@_WV?$stream_output_adapter@_W@__crt_stdio_output@@@2@@__crt_stdio_output@@AAEXI@Z 1006dc60 f i libucrtd:output.obj
 0001:0006cc80       ?unset_flag@?$output_processor@_WV?$stream_output_adapter@_W@__crt_stdio_output@@V?$standard_base@_WV?$stream_output_adapter@_W@__crt_stdio_output@@@2@@__crt_stdio_output@@AAEXI@Z 1006dc80 f i libucrtd:output.obj
 0001:0006cca0       ?unset_flag@?$output_processor@_WV?$string_output_adapter@_W@__crt_stdio_output@@V?$format_validation_base@_WV?$string_output_adapter@_W@__crt_stdio_output@@@2@@__crt_stdio_output@@AAEXI@Z 1006dca0 f i libucrtd:output.obj
 0001:0006ccc0       ?unset_flag@?$output_processor@_WV?$string_output_adapter@_W@__crt_stdio_output@@V?$positional_parameter_base@_WV?$string_output_adapter@_W@__crt_stdio_output@@@2@@__crt_stdio_output@@AAEXI@Z 1006dcc0 f i libucrtd:output.obj
 0001:0006cce0       ?unset_flag@?$output_processor@_WV?$string_output_adapter@_W@__crt_stdio_output@@V?$standard_base@_WV?$string_output_adapter@_W@__crt_stdio_output@@@2@@__crt_stdio_output@@AAEXI@Z 1006dce0 f i libucrtd:output.obj
 0001:0006cd00       ?update_field_width@?$positional_parameter_base@DV?$stream_output_adapter@D@__crt_stdio_output@@@__crt_stdio_output@@IAE_NXZ 1006dd00 f i libucrtd:output.obj
 0001:0006ce90       ?update_field_width@?$positional_parameter_base@DV?$string_output_adapter@D@__crt_stdio_output@@@__crt_stdio_output@@IAE_NXZ 1006de90 f i libucrtd:output.obj
 0001:0006d020       ?update_field_width@?$positional_parameter_base@_WV?$stream_output_adapter@_W@__crt_stdio_output@@@__crt_stdio_output@@IAE_NXZ 1006e020 f i libucrtd:output.obj
 0001:0006d1b0       ?update_field_width@?$positional_parameter_base@_WV?$string_output_adapter@_W@__crt_stdio_output@@@__crt_stdio_output@@IAE_NXZ 1006e1b0 f i libucrtd:output.obj
 0001:0006d340       ?update_field_width@?$standard_base@DV?$stream_output_adapter@D@__crt_stdio_output@@@__crt_stdio_output@@IAE_NXZ 1006e340 f i libucrtd:output.obj
 0001:0006d370       ?update_field_width@?$standard_base@DV?$string_output_adapter@D@__crt_stdio_output@@@__crt_stdio_output@@IAE_NXZ 1006e370 f i libucrtd:output.obj
 0001:0006d3a0       ?update_field_width@?$standard_base@_WV?$stream_output_adapter@_W@__crt_stdio_output@@@__crt_stdio_output@@IAE_NXZ 1006e3a0 f i libucrtd:output.obj
 0001:0006d3d0       ?update_field_width@?$standard_base@_WV?$string_output_adapter@_W@__crt_stdio_output@@@__crt_stdio_output@@IAE_NXZ 1006e3d0 f i libucrtd:output.obj
 0001:0006d400       ?update_locale@__crt_cached_ptd_host@@AAEXXZ 1006e400 f i libucrtd:output.obj
 0001:0006d420       ?update_locale_slow@__crt_cached_ptd_host@@AAEXXZ 1006e420 f i libucrtd:output.obj
 0001:0006d4b0       ?update_precision@?$positional_parameter_base@DV?$stream_output_adapter@D@__crt_stdio_output@@@__crt_stdio_output@@IAE_NXZ 1006e4b0 f i libucrtd:output.obj
 0001:0006d640       ?update_precision@?$positional_parameter_base@DV?$string_output_adapter@D@__crt_stdio_output@@@__crt_stdio_output@@IAE_NXZ 1006e640 f i libucrtd:output.obj
 0001:0006d7d0       ?update_precision@?$positional_parameter_base@_WV?$stream_output_adapter@_W@__crt_stdio_output@@@__crt_stdio_output@@IAE_NXZ 1006e7d0 f i libucrtd:output.obj
 0001:0006d960       ?update_precision@?$positional_parameter_base@_WV?$string_output_adapter@_W@__crt_stdio_output@@@__crt_stdio_output@@IAE_NXZ 1006e960 f i libucrtd:output.obj
 0001:0006daf0       ?update_precision@?$standard_base@DV?$stream_output_adapter@D@__crt_stdio_output@@@__crt_stdio_output@@IAE_NXZ 1006eaf0 f i libucrtd:output.obj
 0001:0006db20       ?update_precision@?$standard_base@DV?$string_output_adapter@D@__crt_stdio_output@@@__crt_stdio_output@@IAE_NXZ 1006eb20 f i libucrtd:output.obj
 0001:0006db50       ?update_precision@?$standard_base@_WV?$stream_output_adapter@_W@__crt_stdio_output@@@__crt_stdio_output@@IAE_NXZ 1006eb50 f i libucrtd:output.obj
 0001:0006db80       ?update_precision@?$standard_base@_WV?$string_output_adapter@_W@__crt_stdio_output@@@__crt_stdio_output@@IAE_NXZ 1006eb80 f i libucrtd:output.obj
 0001:0006dbb0       ?valid@?$cached@H@__crt_cached_ptd_host@@QBE_NXZ 1006ebb0 f i libucrtd:output.obj
 0001:0006dbd0       ?valid@?$cached@K@__crt_cached_ptd_host@@QBE_NXZ 1006ebd0 f i libucrtd:output.obj
 0001:0006dbf0       ?valid@__crt_stdio_stream@@QBE_NXZ 1006ebf0 f i libucrtd:output.obj
 0001:0006dc20       ?validate@?$c_string_character_source@D@__crt_strtox@@QBE_NXZ 1006ec20 f i libucrtd:output.obj
 0001:0006dcb0       ?validate@?$c_string_character_source@_W@__crt_strtox@@QBE_NXZ 1006ecb0 f i libucrtd:output.obj
 0001:0006dd40       ?validate@?$stream_output_adapter@D@__crt_stdio_output@@QBE_NAAV__crt_cached_ptd_host@@@Z 1006ed40 f i libucrtd:output.obj
 0001:0006de00       ?validate@?$stream_output_adapter@_W@__crt_stdio_output@@QBE_NAAV__crt_cached_ptd_host@@@Z 1006ee00 f i libucrtd:output.obj
 0001:0006dec0       ?validate@?$string_output_adapter@D@__crt_stdio_output@@QBE_NAAV__crt_cached_ptd_host@@@Z 1006eec0 f i libucrtd:output.obj
 0001:0006df60       ?validate@?$string_output_adapter@_W@__crt_stdio_output@@QBE_NAAV__crt_cached_ptd_host@@@Z 1006ef60 f i libucrtd:output.obj
 0001:0006e000       ?validate_and_store_parameter_data@?$positional_parameter_base@DV?$stream_output_adapter@D@__crt_stdio_output@@@__crt_stdio_output@@AAE_NAAUparameter_data@12@W4parameter_type@12@DW4length_modifier@2@@Z 1006f000 f i libucrtd:output.obj
 0001:0006e0f0       ?validate_and_store_parameter_data@?$positional_parameter_base@DV?$string_output_adapter@D@__crt_stdio_output@@@__crt_stdio_output@@AAE_NAAUparameter_data@12@W4parameter_type@12@DW4length_modifier@2@@Z 1006f0f0 f i libucrtd:output.obj
 0001:0006e1e0       ?validate_and_store_parameter_data@?$positional_parameter_base@_WV?$stream_output_adapter@_W@__crt_stdio_output@@@__crt_stdio_output@@AAE_NAAUparameter_data@12@W4parameter_type@12@_WW4length_modifier@2@@Z 1006f1e0 f i libucrtd:output.obj
 0001:0006e2d0       ?validate_and_store_parameter_data@?$positional_parameter_base@_WV?$string_output_adapter@_W@__crt_stdio_output@@@__crt_stdio_output@@AAE_NAAUparameter_data@12@W4parameter_type@12@_WW4length_modifier@2@@Z 1006f2d0 f i libucrtd:output.obj
 0001:0006e3c0       ?validate_and_update_state_at_beginning_of_format_character@?$positional_parameter_base@DV?$stream_output_adapter@D@__crt_stdio_output@@@__crt_stdio_output@@IAE_NXZ 1006f3c0 f i libucrtd:output.obj
 0001:0006e5f0       ?validate_and_update_state_at_beginning_of_format_character@?$positional_parameter_base@DV?$string_output_adapter@D@__crt_stdio_output@@@__crt_stdio_output@@IAE_NXZ 1006f5f0 f i libucrtd:output.obj
 0001:0006e820       ?validate_and_update_state_at_beginning_of_format_character@?$positional_parameter_base@_WV?$stream_output_adapter@_W@__crt_stdio_output@@@__crt_stdio_output@@IAE_NXZ 1006f820 f i libucrtd:output.obj
 0001:0006ea50       ?validate_and_update_state_at_beginning_of_format_character@?$positional_parameter_base@_WV?$string_output_adapter@_W@__crt_stdio_output@@@__crt_stdio_output@@IAE_NXZ 1006fa50 f i libucrtd:output.obj
 0001:0006ec80       ?validate_and_update_state_at_beginning_of_format_character@?$standard_base@DV?$stream_output_adapter@D@__crt_stdio_output@@@__crt_stdio_output@@IAE_NXZ 1006fc80 f i libucrtd:output.obj
 0001:0006ec90       ?validate_and_update_state_at_beginning_of_format_character@?$standard_base@DV?$string_output_adapter@D@__crt_stdio_output@@@__crt_stdio_output@@IAE_NXZ 1006fc90 f i libucrtd:output.obj
 0001:0006eca0       ?validate_and_update_state_at_beginning_of_format_character@?$standard_base@_WV?$stream_output_adapter@_W@__crt_stdio_output@@@__crt_stdio_output@@IAE_NXZ 1006fca0 f i libucrtd:output.obj
 0001:0006ecb0       ?validate_and_update_state_at_beginning_of_format_character@?$standard_base@_WV?$string_output_adapter@_W@__crt_stdio_output@@@__crt_stdio_output@@IAE_NXZ 1006fcb0 f i libucrtd:output.obj
 0001:0006ecc0       ?validate_and_update_state_at_end_of_format_string@?$format_validation_base@DV?$stream_output_adapter@D@__crt_stdio_output@@@__crt_stdio_output@@IAE_NXZ 1006fcc0 f i libucrtd:output.obj
 0001:0006ed70       ?validate_and_update_state_at_end_of_format_string@?$format_validation_base@DV?$string_output_adapter@D@__crt_stdio_output@@@__crt_stdio_output@@IAE_NXZ 1006fd70 f i libucrtd:output.obj
 0001:0006ee20       ?validate_and_update_state_at_end_of_format_string@?$format_validation_base@_WV?$stream_output_adapter@_W@__crt_stdio_output@@@__crt_stdio_output@@IAE_NXZ 1006fe20 f i libucrtd:output.obj
 0001:0006eed0       ?validate_and_update_state_at_end_of_format_string@?$format_validation_base@_WV?$string_output_adapter@_W@__crt_stdio_output@@@__crt_stdio_output@@IAE_NXZ 1006fed0 f i libucrtd:output.obj
 0001:0006ef80       ?validate_and_update_state_at_end_of_format_string@?$positional_parameter_base@DV?$stream_output_adapter@D@__crt_stdio_output@@@__crt_stdio_output@@IAE_NXZ 1006ff80 f i libucrtd:output.obj
 0001:0006f130       ?validate_and_update_state_at_end_of_format_string@?$positional_parameter_base@DV?$string_output_adapter@D@__crt_stdio_output@@@__crt_stdio_output@@IAE_NXZ 10070130 f i libucrtd:output.obj
 0001:0006f2e0       ?validate_and_update_state_at_end_of_format_string@?$positional_parameter_base@_WV?$stream_output_adapter@_W@__crt_stdio_output@@@__crt_stdio_output@@IAE_NXZ 100702e0 f i libucrtd:output.obj
 0001:0006f490       ?validate_and_update_state_at_end_of_format_string@?$positional_parameter_base@_WV?$string_output_adapter@_W@__crt_stdio_output@@@__crt_stdio_output@@IAE_NXZ 10070490 f i libucrtd:output.obj
 0001:0006f640       ?validate_and_update_state_at_end_of_format_string@?$standard_base@DV?$stream_output_adapter@D@__crt_stdio_output@@@__crt_stdio_output@@IBE_NXZ 10070640 f i libucrtd:output.obj
 0001:0006f650       ?validate_and_update_state_at_end_of_format_string@?$standard_base@DV?$string_output_adapter@D@__crt_stdio_output@@@__crt_stdio_output@@IBE_NXZ 10070650 f i libucrtd:output.obj
 0001:0006f660       ?validate_and_update_state_at_end_of_format_string@?$standard_base@_WV?$stream_output_adapter@_W@__crt_stdio_output@@@__crt_stdio_output@@IBE_NXZ 10070660 f i libucrtd:output.obj
 0001:0006f670       ?validate_and_update_state_at_end_of_format_string@?$standard_base@_WV?$string_output_adapter@_W@__crt_stdio_output@@@__crt_stdio_output@@IBE_NXZ 10070670 f i libucrtd:output.obj
 0001:0006f680       ?validate_state_for_type_case_a@?$positional_parameter_base@DV?$stream_output_adapter@D@__crt_stdio_output@@@__crt_stdio_output@@IAE_NXZ 10070680 f i libucrtd:output.obj
 0001:0006f790       ?validate_state_for_type_case_a@?$positional_parameter_base@DV?$string_output_adapter@D@__crt_stdio_output@@@__crt_stdio_output@@IAE_NXZ 10070790 f i libucrtd:output.obj
 0001:0006f8a0       ?validate_state_for_type_case_a@?$positional_parameter_base@_WV?$stream_output_adapter@_W@__crt_stdio_output@@@__crt_stdio_output@@IAE_NXZ 100708a0 f i libucrtd:output.obj
 0001:0006f9b0       ?validate_state_for_type_case_a@?$positional_parameter_base@_WV?$string_output_adapter@_W@__crt_stdio_output@@@__crt_stdio_output@@IAE_NXZ 100709b0 f i libucrtd:output.obj
 0001:0006fac0       ?validate_state_for_type_case_a@?$standard_base@DV?$stream_output_adapter@D@__crt_stdio_output@@@__crt_stdio_output@@IBE_NXZ 10070ac0 f i libucrtd:output.obj
 0001:0006fad0       ?validate_state_for_type_case_a@?$standard_base@DV?$string_output_adapter@D@__crt_stdio_output@@@__crt_stdio_output@@IBE_NXZ 10070ad0 f i libucrtd:output.obj
 0001:0006fae0       ?validate_state_for_type_case_a@?$standard_base@_WV?$stream_output_adapter@_W@__crt_stdio_output@@@__crt_stdio_output@@IBE_NXZ 10070ae0 f i libucrtd:output.obj
 0001:0006faf0       ?validate_state_for_type_case_a@?$standard_base@_WV?$string_output_adapter@_W@__crt_stdio_output@@@__crt_stdio_output@@IBE_NXZ 10070af0 f i libucrtd:output.obj
 0001:0006fb00       ?validate_stream_is_ansi_if_required@?$__acrt_stdio_char_traits@D@@SA_NQAU_iobuf@@@Z 10070b00 f i libucrtd:output.obj
 0001:0006fc30       ?validate_stream_is_ansi_if_required@?$__acrt_stdio_char_traits@_W@@SA_NQAU_iobuf@@@Z 10070c30 f i libucrtd:output.obj
 0001:0006fc40       ?wide_character_to_digit@__crt_strtox@@YAH_W@Z 10070c40 f i libucrtd:output.obj
 0001:0006ff70       ?wide_null_string@?$output_processor@DV?$stream_output_adapter@D@__crt_stdio_output@@V?$format_validation_base@DV?$stream_output_adapter@D@__crt_stdio_output@@@2@@__crt_stdio_output@@CAPA_WXZ 10070f70 f i libucrtd:output.obj
 0001:0006ff80       ?wide_null_string@?$output_processor@DV?$stream_output_adapter@D@__crt_stdio_output@@V?$positional_parameter_base@DV?$stream_output_adapter@D@__crt_stdio_output@@@2@@__crt_stdio_output@@CAPA_WXZ 10070f80 f i libucrtd:output.obj
 0001:0006ff90       ?wide_null_string@?$output_processor@DV?$stream_output_adapter@D@__crt_stdio_output@@V?$standard_base@DV?$stream_output_adapter@D@__crt_stdio_output@@@2@@__crt_stdio_output@@CAPA_WXZ 10070f90 f i libucrtd:output.obj
 0001:0006ffa0       ?wide_null_string@?$output_processor@DV?$string_output_adapter@D@__crt_stdio_output@@V?$format_validation_base@DV?$string_output_adapter@D@__crt_stdio_output@@@2@@__crt_stdio_output@@CAPA_WXZ 10070fa0 f i libucrtd:output.obj
 0001:0006ffb0       ?wide_null_string@?$output_processor@DV?$string_output_adapter@D@__crt_stdio_output@@V?$positional_parameter_base@DV?$string_output_adapter@D@__crt_stdio_output@@@2@@__crt_stdio_output@@CAPA_WXZ 10070fb0 f i libucrtd:output.obj
 0001:0006ffc0       ?wide_null_string@?$output_processor@DV?$string_output_adapter@D@__crt_stdio_output@@V?$standard_base@DV?$string_output_adapter@D@__crt_stdio_output@@@2@@__crt_stdio_output@@CAPA_WXZ 10070fc0 f i libucrtd:output.obj
 0001:0006ffd0       ?wide_null_string@?$output_processor@_WV?$stream_output_adapter@_W@__crt_stdio_output@@V?$format_validation_base@_WV?$stream_output_adapter@_W@__crt_stdio_output@@@2@@__crt_stdio_output@@CAPA_WXZ 10070fd0 f i libucrtd:output.obj
 0001:0006ffe0       ?wide_null_string@?$output_processor@_WV?$stream_output_adapter@_W@__crt_stdio_output@@V?$positional_parameter_base@_WV?$stream_output_adapter@_W@__crt_stdio_output@@@2@@__crt_stdio_output@@CAPA_WXZ 10070fe0 f i libucrtd:output.obj
 0001:0006fff0       ?wide_null_string@?$output_processor@_WV?$stream_output_adapter@_W@__crt_stdio_output@@V?$standard_base@_WV?$stream_output_adapter@_W@__crt_stdio_output@@@2@@__crt_stdio_output@@CAPA_WXZ 10070ff0 f i libucrtd:output.obj
 0001:00070000       ?wide_null_string@?$output_processor@_WV?$string_output_adapter@_W@__crt_stdio_output@@V?$format_validation_base@_WV?$string_output_adapter@_W@__crt_stdio_output@@@2@@__crt_stdio_output@@CAPA_WXZ 10071000 f i libucrtd:output.obj
 0001:00070010       ?wide_null_string@?$output_processor@_WV?$string_output_adapter@_W@__crt_stdio_output@@V?$positional_parameter_base@_WV?$string_output_adapter@_W@__crt_stdio_output@@@2@@__crt_stdio_output@@CAPA_WXZ 10071010 f i libucrtd:output.obj
 0001:00070020       ?wide_null_string@?$output_processor@_WV?$string_output_adapter@_W@__crt_stdio_output@@V?$standard_base@_WV?$string_output_adapter@_W@__crt_stdio_output@@@2@@__crt_stdio_output@@CAPA_WXZ 10071020 f i libucrtd:output.obj
 0001:00070030       ?write_character@?$output_adapter_common@DV?$stream_output_adapter@D@__crt_stdio_output@@@__crt_stdio_output@@QBEXDQAHAAV__crt_cached_ptd_host@@@Z 10071030 f i libucrtd:output.obj
 0001:00070070       ?write_character@?$output_adapter_common@_WV?$stream_output_adapter@_W@__crt_stdio_output@@@__crt_stdio_output@@QBEX_WQAHAAV__crt_cached_ptd_host@@@Z 10071070 f i libucrtd:output.obj
 0001:000700b0       ?write_character@?$string_output_adapter@D@__crt_stdio_output@@QBE_NDQAHAAV__crt_cached_ptd_host@@@Z 100710b0 f i libucrtd:output.obj
 0001:00070140       ?write_character@?$string_output_adapter@_W@__crt_stdio_output@@QBE_N_WQAHAAV__crt_cached_ptd_host@@@Z 10071140 f i libucrtd:output.obj
 0001:000701e0       ?write_character_without_count_update@?$stream_output_adapter@D@__crt_stdio_output@@QBE_NDAAV__crt_cached_ptd_host@@@Z 100711e0 f i libucrtd:output.obj
 0001:00070250       ?write_character_without_count_update@?$stream_output_adapter@_W@__crt_stdio_output@@QBE_N_WAAV__crt_cached_ptd_host@@@Z 10071250 f i libucrtd:output.obj
 0001:000702c0       ?write_stored_string_tchar@?$output_processor@DV?$stream_output_adapter@D@__crt_stdio_output@@V?$format_validation_base@DV?$stream_output_adapter@D@__crt_stdio_output@@@2@@__crt_stdio_output@@AAE_ND@Z 100712c0 f i libucrtd:output.obj
 0001:000703e0       ?write_stored_string_tchar@?$output_processor@DV?$stream_output_adapter@D@__crt_stdio_output@@V?$positional_parameter_base@DV?$stream_output_adapter@D@__crt_stdio_output@@@2@@__crt_stdio_output@@AAE_ND@Z 100713e0 f i libucrtd:output.obj
 0001:00070500       ?write_stored_string_tchar@?$output_processor@DV?$stream_output_adapter@D@__crt_stdio_output@@V?$standard_base@DV?$stream_output_adapter@D@__crt_stdio_output@@@2@@__crt_stdio_output@@AAE_ND@Z 10071500 f i libucrtd:output.obj
 0001:00070620       ?write_stored_string_tchar@?$output_processor@DV?$string_output_adapter@D@__crt_stdio_output@@V?$format_validation_base@DV?$string_output_adapter@D@__crt_stdio_output@@@2@@__crt_stdio_output@@AAE_ND@Z 10071620 f i libucrtd:output.obj
 0001:00070740       ?write_stored_string_tchar@?$output_processor@DV?$string_output_adapter@D@__crt_stdio_output@@V?$positional_parameter_base@DV?$string_output_adapter@D@__crt_stdio_output@@@2@@__crt_stdio_output@@AAE_ND@Z 10071740 f i libucrtd:output.obj
 0001:00070860       ?write_stored_string_tchar@?$output_processor@DV?$string_output_adapter@D@__crt_stdio_output@@V?$standard_base@DV?$string_output_adapter@D@__crt_stdio_output@@@2@@__crt_stdio_output@@AAE_ND@Z 10071860 f i libucrtd:output.obj
 0001:00070980       ?write_stored_string_tchar@?$output_processor@_WV?$stream_output_adapter@_W@__crt_stdio_output@@V?$format_validation_base@_WV?$stream_output_adapter@_W@__crt_stdio_output@@@2@@__crt_stdio_output@@AAE_N_W@Z 10071980 f i libucrtd:output.obj
 0001:00070a90       ?write_stored_string_tchar@?$output_processor@_WV?$stream_output_adapter@_W@__crt_stdio_output@@V?$positional_parameter_base@_WV?$stream_output_adapter@_W@__crt_stdio_output@@@2@@__crt_stdio_output@@AAE_N_W@Z 10071a90 f i libucrtd:output.obj
 0001:00070ba0       ?write_stored_string_tchar@?$output_processor@_WV?$stream_output_adapter@_W@__crt_stdio_output@@V?$standard_base@_WV?$stream_output_adapter@_W@__crt_stdio_output@@@2@@__crt_stdio_output@@AAE_N_W@Z 10071ba0 f i libucrtd:output.obj
 0001:00070cb0       ?write_stored_string_tchar@?$output_processor@_WV?$string_output_adapter@_W@__crt_stdio_output@@V?$format_validation_base@_WV?$string_output_adapter@_W@__crt_stdio_output@@@2@@__crt_stdio_output@@AAE_N_W@Z 10071cb0 f i libucrtd:output.obj
 0001:00070dc0       ?write_stored_string_tchar@?$output_processor@_WV?$string_output_adapter@_W@__crt_stdio_output@@V?$positional_parameter_base@_WV?$string_output_adapter@_W@__crt_stdio_output@@@2@@__crt_stdio_output@@AAE_N_W@Z 10071dc0 f i libucrtd:output.obj
 0001:00070ed0       ?write_stored_string_tchar@?$output_processor@_WV?$string_output_adapter@_W@__crt_stdio_output@@V?$standard_base@_WV?$string_output_adapter@_W@__crt_stdio_output@@@2@@__crt_stdio_output@@AAE_N_W@Z 10071ed0 f i libucrtd:output.obj
 0001:00070fe0       ?write_string@?$stream_output_adapter@D@__crt_stdio_output@@QBEXQBDHQAHAAV__crt_cached_ptd_host@@@Z 10071fe0 f i libucrtd:output.obj
 0001:00071040       ?write_string@?$stream_output_adapter@_W@__crt_stdio_output@@QBEXQB_WHQAHAAV__crt_cached_ptd_host@@@Z 10072040 f i libucrtd:output.obj
 0001:000710a0       ?write_string@?$string_output_adapter@D@__crt_stdio_output@@QBEXQBDHQAHAAV__crt_cached_ptd_host@@@Z 100720a0 f i libucrtd:output.obj
 0001:000711a0       ?write_string@?$string_output_adapter@_W@__crt_stdio_output@@QBEXQB_WHQAHAAV__crt_cached_ptd_host@@@Z 100721a0 f i libucrtd:output.obj
 0001:000712b0       ?write_string_impl@?$output_adapter_common@DV?$stream_output_adapter@D@__crt_stdio_output@@@__crt_stdio_output@@IBEXQBDHQAHAAV__crt_cached_ptd_host@@@Z 100722b0 f i libucrtd:output.obj
 0001:00071370       ?write_string_impl@?$output_adapter_common@_WV?$stream_output_adapter@_W@__crt_stdio_output@@@__crt_stdio_output@@IBEXQB_WHQAHAAV__crt_cached_ptd_host@@@Z 10072370 f i libucrtd:output.obj
 0001:00071430       ___acrt_disable_global_locale_sync 10072430 f i libucrtd:output.obj
 0001:00071450       ___acrt_enable_global_locale_sync 10072450 f i libucrtd:output.obj
 0001:00071470       ___acrt_isleadbyte_l_noupdate 10072470 f i libucrtd:output.obj
 0001:00071490       ___acrt_locale_changed     10072490 f i libucrtd:output.obj
 0001:000714c0       ___acrt_locale_get_ctype_array_value 100724c0 f i libucrtd:output.obj
 0001:000714f0       ___ascii_iswalpha          100724f0 f i libucrtd:output.obj
 0001:00071530       ___ascii_toupper           10072530 f i libucrtd:output.obj
 0001:00071550       ___ascii_towupper          10072550 f i libucrtd:output.obj
 0001:00071570       ___stdio_common_vfprintf   10072570 f   libucrtd:output.obj
 0001:000715c0       ___stdio_common_vfprintf_p 100725c0 f   libucrtd:output.obj
 0001:00071610       ___stdio_common_vfprintf_s 10072610 f   libucrtd:output.obj
 0001:00071660       ___stdio_common_vfwprintf  10072660 f   libucrtd:output.obj
 0001:000716b0       ___stdio_common_vfwprintf_p 100726b0 f   libucrtd:output.obj
 0001:00071700       ___stdio_common_vfwprintf_s 10072700 f   libucrtd:output.obj
 0001:00071750       ___stdio_common_vsnprintf_s 10072750 f   libucrtd:output.obj
 0001:000717a0       ___stdio_common_vsnwprintf_s 100727a0 f   libucrtd:output.obj
 0001:000717f0       ___stdio_common_vsprintf   100727f0 f   libucrtd:output.obj
 0001:00071840       ___stdio_common_vsprintf_p 10072840 f   libucrtd:output.obj
 0001:00071890       ___stdio_common_vsprintf_s 10072890 f   libucrtd:output.obj
 0001:000718e0       ___stdio_common_vswprintf  100728e0 f   libucrtd:output.obj
 0001:00071930       ___stdio_common_vswprintf_p 10072930 f   libucrtd:output.obj
 0001:00071980       ___stdio_common_vswprintf_s 10072980 f   libucrtd:output.obj
 0001:000719d0       __ctype_fast_check_internal 100729d0 f i libucrtd:output.obj
 0001:000719f0       __isdigit_fast_internal    100729f0 f i libucrtd:output.obj
 0001:00071a10       __tolower_fast_internal    10072a10 f i libucrtd:output.obj
 0001:00071a30       _free                      10072a30 f   libucrtd:free.obj
 0001:00071a60       _malloc                    10072a60 f   libucrtd:malloc.obj
 0001:00071a80       ??$?RU?$__crt_report_hook_node@D@@@__crt_internal_free_policy@@QBEXQBU?$__crt_report_hook_node@D@@@Z 10072a80 f i libucrtd:dbgrpt.obj
 0001:00071aa0       ??$?RU?$__crt_report_hook_node@_W@@@__crt_internal_free_policy@@QBEXQBU?$__crt_report_hook_node@_W@@@Z 10072aa0 f i libucrtd:dbgrpt.obj
 0001:00072970       ??$get_module_file_name@AAPAUHINSTANCE__@@AAY0BAF@DK@?$__crt_char_traits@D@@SAKAAPAUHINSTANCE__@@AAY0BAF@D$$QAK@Z 10073970 f i libucrtd:dbgrpt.obj
 0001:00072990       ??$get_module_file_name@AAPAUHINSTANCE__@@AAY0BAF@_WK@?$__crt_char_traits@_W@@SAKAAPAUHINSTANCE__@@AAY0BAF@_W$$QAK@Z 10073990 f i libucrtd:dbgrpt.obj
 0001:000729b0       ??$tcscpy_s@AAY0BAF@DIPBD@?$__crt_char_traits@D@@SAHAAY0BAF@D$$QAI$$QAPBD@Z 100739b0 f i libucrtd:dbgrpt.obj
 0001:000729d0       ??$tcscpy_s@AAY0BAF@_WIPB_W@?$__crt_char_traits@_W@@SAHAAY0BAF@_W$$QAI$$QAPB_W@Z 100739d0 f i libucrtd:dbgrpt.obj
 0001:000729f0       ??$tcslen@AAY0BAF@D@?$__crt_char_traits@D@@SAIAAY0BAF@D@Z 100739f0 f i libucrtd:dbgrpt.obj
 0001:00072a10       ??$tcslen@AAY0BAF@_W@?$__crt_char_traits@_W@@SAIAAY0BAF@_W@Z 10073a10 f i libucrtd:dbgrpt.obj
 0001:00072a30       ??$tcslen@ABQBD@?$__crt_char_traits@D@@SAIABQBD@Z 10073a30 f i libucrtd:dbgrpt.obj
 0001:00072a50       ??$tcslen@ABQB_W@?$__crt_char_traits@_W@@SAIABQB_W@Z 10073a50 f i libucrtd:dbgrpt.obj
 0001:00072b50       ??0?$__crt_unique_heap_ptr@U?$__crt_report_hook_node@D@@U__crt_internal_free_policy@@@@QAE@QAU?$__crt_report_hook_node@D@@@Z 10073b50 f i libucrtd:dbgrpt.obj
 0001:00072b70       ??0?$__crt_unique_heap_ptr@U?$__crt_report_hook_node@_W@@U__crt_internal_free_policy@@@@QAE@QAU?$__crt_report_hook_node@_W@@@Z 10073b70 f i libucrtd:dbgrpt.obj
 0001:00072b90       ??1?$__crt_unique_heap_ptr@U?$__crt_report_hook_node@D@@U__crt_internal_free_policy@@@@QAE@XZ 10073b90 f i libucrtd:dbgrpt.obj
 0001:00072bb0       ??1?$__crt_unique_heap_ptr@U?$__crt_report_hook_node@_W@@U__crt_internal_free_policy@@@@QAE@XZ 10073bb0 f i libucrtd:dbgrpt.obj
 0001:00072bd0       ??B?$__crt_unique_heap_ptr@U?$__crt_report_hook_node@D@@U__crt_internal_free_policy@@@@QBE_NXZ 10073bd0 f i libucrtd:dbgrpt.obj
 0001:00072bf0       ??B?$__crt_unique_heap_ptr@U?$__crt_report_hook_node@_W@@U__crt_internal_free_policy@@@@QBE_NXZ 10073bf0 f i libucrtd:dbgrpt.obj
 0001:00073150       ?detach@?$__crt_unique_heap_ptr@U?$__crt_report_hook_node@D@@U__crt_internal_free_policy@@@@QAEPAU?$__crt_report_hook_node@D@@XZ 10074150 f i libucrtd:dbgrpt.obj
 0001:00073180       ?detach@?$__crt_unique_heap_ptr@U?$__crt_report_hook_node@_W@@U__crt_internal_free_policy@@@@QAEPAU?$__crt_report_hook_node@_W@@XZ 10074180 f i libucrtd:dbgrpt.obj
 0001:000731b0       ?get@?$__crt_unique_heap_ptr@U?$__crt_report_hook_node@D@@U__crt_internal_free_policy@@@@QBEPAU?$__crt_report_hook_node@D@@XZ 100741b0 f i libucrtd:dbgrpt.obj
 0001:000731d0       ?get@?$__crt_unique_heap_ptr@U?$__crt_report_hook_node@_W@@U__crt_internal_free_policy@@@@QBEPAU?$__crt_report_hook_node@_W@@XZ 100741d0 f i libucrtd:dbgrpt.obj
 0001:00073250       ?is_valid@?$__crt_unique_heap_ptr@U?$__crt_report_hook_node@D@@U__crt_internal_free_policy@@@@QBE_NXZ 10074250 f i libucrtd:dbgrpt.obj
 0001:00073280       ?is_valid@?$__crt_unique_heap_ptr@U?$__crt_report_hook_node@_W@@U__crt_internal_free_policy@@@@QBE_NXZ 10074280 f i libucrtd:dbgrpt.obj
 0001:000732b0       ?release@?$__crt_unique_heap_ptr@U?$__crt_report_hook_node@D@@U__crt_internal_free_policy@@@@QAEXXZ 100742b0 f i libucrtd:dbgrpt.obj
 0001:000732e0       ?release@?$__crt_unique_heap_ptr@U?$__crt_report_hook_node@_W@@U__crt_internal_free_policy@@@@QAEXXZ 100742e0 f i libucrtd:dbgrpt.obj
 0001:00073310       __CrtDbgReport             10074310 f   libucrtd:dbgrpt.obj
 0001:00073360       __CrtDbgReportW            10074360 f   libucrtd:dbgrpt.obj
 0001:000733b0       __CrtSetReportHook2        100743b0 f   libucrtd:dbgrpt.obj
 0001:000733d0       __CrtSetReportHookW2       100743d0 f   libucrtd:dbgrpt.obj
 0001:000733f0       ___acrt_MessageWindowA     100743f0 f   libucrtd:dbgrpt.obj
 0001:00073420       ___acrt_MessageWindowW     10074420 f   libucrtd:dbgrpt.obj
 0001:00073450       __invoke_watson_if_error   10074450 f i libucrtd:dbgrpt.obj
 0001:00073480       __invoke_watson_if_oneof   10074480 f i libucrtd:dbgrpt.obj
 0001:000734c0       __snwprintf_s              100744c0 f i libucrtd:dbgrpt.obj
 0001:00073500       __vsnwprintf_s_l           10074500 f i libucrtd:dbgrpt.obj
 0001:00073880       _wcscpy_s                  10074880 f   libucrtd:wcscpy_s.obj
 0001:000745a0       ??1?$__crt_simd_cleanup_guard@$00@@QAE@XZ 100755a0 f i libucrtd:strnlen.obj
 0001:000745b0       ??1?$__crt_simd_cleanup_guard@$0A@@@QAE@XZ 100755b0 f i libucrtd:strnlen.obj
 0001:000745c0       ?compare_equals@?$__crt_simd_traits@$00E@@SA?AT__m256i@@T2@0@Z 100755c0 f i libucrtd:strnlen.obj
 0001:00074600       ?compare_equals@?$__crt_simd_traits@$00G@@SA?AT__m256i@@T2@0@Z 10075600 f i libucrtd:strnlen.obj
 0001:00074640       ?compare_equals@?$__crt_simd_traits@$0A@E@@SA?AT__m128i@@T2@0@Z 10075640 f i libucrtd:strnlen.obj
 0001:00074680       ?compare_equals@?$__crt_simd_traits@$0A@G@@SA?AT__m128i@@T2@0@Z 10075680 f i libucrtd:strnlen.obj
 0001:000746c0       ?compute_byte_mask@?$__crt_simd_pack_traits@$00@@SAHT__m256i@@@Z 100756c0 f i libucrtd:strnlen.obj
 0001:000746f0       ?compute_byte_mask@?$__crt_simd_pack_traits@$0A@@@SAHT__m128i@@@Z 100756f0 f i libucrtd:strnlen.obj
 0001:00074720       ?get_zero_pack@?$__crt_simd_pack_traits@$00@@SA?AT__m256i@@XZ 10075720 f i libucrtd:strnlen.obj
 0001:00074750       ?get_zero_pack@?$__crt_simd_pack_traits@$0A@@@SA?AT__m128i@@XZ 10075750 f i libucrtd:strnlen.obj
 0001:00074780       _strnlen                   10075780 f   libucrtd:strnlen.obj
 0001:000747a0       _wcslen                    100757a0 f   libucrtd:strnlen.obj
 0001:000747c0       _wcsnlen                   100757c0 f   libucrtd:strnlen.obj
 0001:000747e0       ??$__crt_fast_decode_pointer@P6AXPB_W00II@Z@@YAP6AXPB_W00II@ZQ6AX000II@Z@Z 100757e0 f i libucrtd:invalid_parameter.obj
 0001:00074810       ??$__crt_fast_encode_pointer@P6AXPB_W00II@Z@@YAP6AXPB_W00II@ZQ6AX000II@Z@Z 10075810 f i libucrtd:invalid_parameter.obj
 0001:00074840       ??$initialize_from_array@$$BY00Q6AXPB_W00II@Z@?$dual_state_global@P6AXPB_W00II@Z@__crt_state_management@@QAAXAAY00Q6AXPB_W00II@Z@Z 10075840 f i libucrtd:invalid_parameter.obj
 0001:00074890       ?__crt_rotate_pointer_value@@YAIIH@Z 10075890 f i libucrtd:invalid_parameter.obj
 0001:000748a0       ?check_synchronize_global_state_index@__crt_cached_ptd_host@@AAEIXZ 100758a0 f i libucrtd:invalid_parameter.obj
 0001:000748f0       ?dangerous_get_state_array@?$dual_state_global@P6AXPB_W00II@Z@__crt_state_management@@QAEPAP6AXPB_W00II@ZXZ 100758f0 f i libucrtd:invalid_parameter.obj
 0001:00074900       ?get_current_global_state_index@__crt_cached_ptd_host@@QAEIXZ 10075900 f i libucrtd:invalid_parameter.obj
 0001:00074920       ?get_current_state_index@__crt_state_management@@YAIXZ 10075920 f i libucrtd:invalid_parameter.obj
 0001:00074930       ?get_raw_ptd_noexit@__crt_cached_ptd_host@@QAEPAU__acrt_ptd@@XZ 10075930 f i libucrtd:invalid_parameter.obj
 0001:00074950       ?try_synchronize_per_thread_data@__crt_cached_ptd_host@@AAEPAU__acrt_ptd@@XZ 10075950 f i libucrtd:invalid_parameter.obj
 0001:00074980       ?value@?$dual_state_global@P6AXPB_W00II@Z@__crt_state_management@@QAEAAP6AXPB_W00II@ZAAV__crt_cached_ptd_host@@@Z 10075980 f i libucrtd:invalid_parameter.obj
 0001:000749a0       ?value@?$dual_state_global@P6AXPB_W00II@Z@__crt_state_management@@QAEAAP6AXPB_W00II@ZXZ 100759a0 f i libucrtd:invalid_parameter.obj
 0001:000749c0       ___acrt_call_reportfault   100759c0 f   libucrtd:invalid_parameter.obj
 0001:00074b20       ___acrt_initialize_invalid_parameter_handler 10075b20 f   libucrtd:invalid_parameter.obj
 0001:00074b50       __get_invalid_parameter_handler 10075b50 f   libucrtd:invalid_parameter.obj
 0001:00074b70       __get_thread_local_invalid_parameter_handler 10075b70 f   libucrtd:invalid_parameter.obj
 0001:00074ba0       __invalid_parameter        10075ba0 f   libucrtd:invalid_parameter.obj
 0001:00074be0       __invalid_parameter_internal 10075be0 f   libucrtd:invalid_parameter.obj
 0001:00074cb0       __invalid_parameter_noinfo 10075cb0 f   libucrtd:invalid_parameter.obj
 0001:00074cd0       __invalid_parameter_noinfo_noreturn 10075cd0 f   libucrtd:invalid_parameter.obj
 0001:00074d00       __invoke_watson            10075d00 f   libucrtd:invalid_parameter.obj
 0001:00074d40       __set_invalid_parameter_handler 10075d40 f   libucrtd:invalid_parameter.obj
 0001:00074d90       __set_thread_local_invalid_parameter_handler 10075d90 f   libucrtd:invalid_parameter.obj
 0001:00074dc0       ?get_doserrno@__crt_cached_ptd_host@@QAEAAU?$cached@K@1@XZ 10075dc0 f i libucrtd:errno.obj
 0001:00074de0       ?set@?$cached@K@__crt_cached_ptd_host@@QAEKK@Z 10075de0 f i libucrtd:errno.obj
 0001:00074e10       ___acrt_errno_from_os_error 10075e10 f   libucrtd:errno.obj
 0001:00074e90       ___acrt_errno_map_os_error 10075e90 f   libucrtd:errno.obj
 0001:00074ec0       ___acrt_errno_map_os_error_ptd 10075ec0 f   libucrtd:errno.obj
 0001:00074f10       ___doserrno                10075f10 f   libucrtd:errno.obj
 0001:00074f40       __errno                    10075f40 f   libucrtd:errno.obj
 0001:00074f70       __get_doserrno             10075f70 f   libucrtd:errno.obj
 0001:00075000       __get_errno                10076000 f   libucrtd:errno.obj
 0001:00075090       __set_doserrno             10076090 f   libucrtd:errno.obj
 0001:000750c0       __set_errno                100760c0 f   libucrtd:errno.obj
 0001:000750f0       _calloc                    100760f0 f   libucrtd:calloc.obj
 0001:00075110       __recalloc                 10076110 f   libucrtd:recalloc.obj
 0001:00075140       __recalloc_base            10076140 f   libucrtd:recalloc.obj
 0001:000751e0       __resetstkoflw             100761e0 f   libucrtd:resetstk.obj
 0001:00075740       _wcscat_s                  10076740 f   libucrtd:wcscat_s.obj
 0001:00075b90       _wcsncpy_s                 10076b90 f   libucrtd:wcsncpy_s.obj
 0001:00075cd0       ___isascii                 10076cd0 f   libucrtd:_ctype.obj
 0001:00075d00       ___iscsym                  10076d00 f   libucrtd:_ctype.obj
 0001:00075d40       ___iscsymf                 10076d40 f   libucrtd:_ctype.obj
 0001:00075d80       ___toascii                 10076d80 f   libucrtd:_ctype.obj
 0001:00075d90       __isalnum_l                10076d90 f   libucrtd:_ctype.obj
 0001:00075db0       __isalpha_l                10076db0 f   libucrtd:_ctype.obj
 0001:00075dd0       __isblank_l                10076dd0 f   libucrtd:_ctype.obj
 0001:00075df0       __iscntrl_l                10076df0 f   libucrtd:_ctype.obj
 0001:00075e10       __iscsym_l                 10076e10 f   libucrtd:_ctype.obj
 0001:00075e50       __iscsymf_l                10076e50 f   libucrtd:_ctype.obj
 0001:00075e90       __isdigit_l                10076e90 f   libucrtd:_ctype.obj
 0001:00075eb0       __isgraph_l                10076eb0 f   libucrtd:_ctype.obj
 0001:00075ed0       __islower_l                10076ed0 f   libucrtd:_ctype.obj
 0001:00075ef0       __isprint_l                10076ef0 f   libucrtd:_ctype.obj
 0001:00075f10       __ispunct_l                10076f10 f   libucrtd:_ctype.obj
 0001:00075f30       __isspace_l                10076f30 f   libucrtd:_ctype.obj
 0001:00075f50       __isupper_l                10076f50 f   libucrtd:_ctype.obj
 0001:00075f70       __isxdigit_l               10076f70 f   libucrtd:_ctype.obj
 0001:00075f90       _isalnum                   10076f90 f   libucrtd:_ctype.obj
 0001:00075fb0       _isalpha                   10076fb0 f   libucrtd:_ctype.obj
 0001:00075fd0       _isblank                   10076fd0 f   libucrtd:_ctype.obj
 0001:00076000       _iscntrl                   10077000 f   libucrtd:_ctype.obj
 0001:00076020       _isdigit                   10077020 f   libucrtd:_ctype.obj
 0001:00076040       _isgraph                   10077040 f   libucrtd:_ctype.obj
 0001:00076060       _islower                   10077060 f   libucrtd:_ctype.obj
 0001:00076080       _isprint                   10077080 f   libucrtd:_ctype.obj
 0001:000760a0       _ispunct                   100770a0 f   libucrtd:_ctype.obj
 0001:000760c0       _isspace                   100770c0 f   libucrtd:_ctype.obj
 0001:000760e0       _isupper                   100770e0 f   libucrtd:_ctype.obj
 0001:00076100       _isxdigit                  10077100 f   libucrtd:_ctype.obj
 0001:00076120       _wcscat                    10077120 f   libucrtd:wcscat.obj
 0001:00076180       _wcscpy                    10077180 f   libucrtd:wcscpy.obj
 0001:00076810       ??$open_file@ABQBDABQBDABHPAU_iobuf@@@?$__crt_char_traits@D@@SAPAU_iobuf@@ABQBD0ABH$$QAPAU1@@Z 10077810 f i libucrtd:fopen.obj
 0001:00076840       ??$open_file@ABQB_WABQB_WABHPAU_iobuf@@@?$__crt_char_traits@_W@@SAPAU_iobuf@@ABQB_W0ABH$$QAPAU1@@Z 10077840 f i libucrtd:fopen.obj
 0001:00076870       ?unlock@__crt_stdio_stream@@QBEXXZ 10077870 f i libucrtd:fopen.obj
 0001:00076890       __fsopen                   10077890 f   libucrtd:fopen.obj
 0001:000768b0       __wfopen                   100778b0 f   libucrtd:fopen.obj
 0001:000768d0       __wfopen_s                 100778d0 f   libucrtd:fopen.obj
 0001:000768f0       __wfsopen                  100778f0 f   libucrtd:fopen.obj
 0001:00076910       _fopen                     10077910 f   libucrtd:fopen.obj
 0001:00076930       _fopen_s                   10077930 f   libucrtd:fopen.obj
 0001:00076c10       ?is_in_use@__crt_stdio_stream@@QBE_NXZ 10077c10 f i libucrtd:fclose.obj
 0001:00076c50       __fclose_nolock            10077c50 f   libucrtd:fclose.obj
 0001:00076c90       _fclose                    10077c90 f   libucrtd:fclose.obj
 0001:00076f30       __fputc_nolock             10077f30 f   libucrtd:fputc.obj
 0001:00076f70       __fputc_nolock_internal    10077f70 f   libucrtd:fputc.obj
 0001:00077000       __fputchar                 10078000 f   libucrtd:fputc.obj
 0001:00077020       __putc_nolock              10078020 f   libucrtd:fputc.obj
 0001:00077040       _fputc                     10078040 f   libucrtd:fputc.obj
 0001:00077080       _putc                      10078080 f   libucrtd:fputc.obj
 0001:000770a0       _putchar                   100780a0 f   libucrtd:fputc.obj
 0001:00077110       __seh_filter_dll           10078110 f   libucrtd:exception_filter.obj
 0001:00077140       __seh_filter_exe           10078140 f   libucrtd:exception_filter.obj
 0001:00077360       ??$?B$$A6GXPAXK0@Z@__crt_fast_encoded_nullptr_t@@QBEP6GXPAXK0@ZXZ 10078360 f i libucrtd:exit.obj
 0001:00077470       ??$__crt_fast_decode_pointer@P6GXPAXK0@Z@@YAP6GXPAXK0@ZQ6GX0K0@Z@Z 10078470 f i libucrtd:exit.obj
 0001:000774a0       ??$__crt_fast_encode_pointer@P6GXPAXK0@Z@@YAP6GXPAXK0@ZQ6GX0K0@Z@Z 100784a0 f i libucrtd:exit.obj
 0001:000774d0       ??$__crt_get_proc_address@P6GXI@Z@@YAP6GXI@ZQAUHINSTANCE__@@QBD@Z 100784d0 f i libucrtd:exit.obj
 0001:00077560       ??0?$__crt_unique_handle_t@U__crt_hmodule_traits@@@@QAE@QAUHINSTANCE__@@@Z 10078560 f i libucrtd:exit.obj
 0001:00077580       ??1?$__crt_unique_handle_t@U__crt_hmodule_traits@@@@QAE@XZ 10078580 f i libucrtd:exit.obj
 0001:00077740       ?__acrt_select_exit_lock@@YA?AW4__acrt_lock_id@@XZ 10078740 f i libucrtd:exit.obj
 0001:00077750       ?__crt_fast_encode_pointer@@YA?AU__crt_fast_encoded_nullptr_t@@$$T@Z 10078750 f i libucrtd:exit.obj
 0001:00077780       ?close@?$__crt_unique_handle_t@U__crt_hmodule_traits@@@@QAEXXZ 10078780 f i libucrtd:exit.obj
 0001:000777c0       ?close@__crt_hmodule_traits@@SA_NPAUHINSTANCE__@@@Z 100787c0 f i libucrtd:exit.obj
 0001:000778f0       ?get@?$__crt_unique_handle_t@U__crt_hmodule_traits@@@@QBEPAUHINSTANCE__@@XZ 100788f0 f i libucrtd:exit.obj
 0001:00077910       ?get_address_of@?$__crt_unique_handle_t@U__crt_hmodule_traits@@@@QAEPAPAUHINSTANCE__@@XZ 10078910 f i libucrtd:exit.obj
 0001:00077920       ?get_invalid_value@__crt_hmodule_traits@@SAPAUHINSTANCE__@@XZ 10078920 f i libucrtd:exit.obj
 0001:00077ad0       __Exit                     10078ad0 f   libucrtd:exit.obj
 0001:00077af0       ___acrt_initialize_thread_local_exit_callback 10078af0 f   libucrtd:exit.obj
 0001:00077b00       __c_exit                   10078b00 f   libucrtd:exit.obj
 0001:00077b20       __cexit                    10078b20 f   libucrtd:exit.obj
 0001:00077b40       __exit                     10078b40 f   libucrtd:exit.obj
 0001:00077b60       __is_c_termination_complete 10078b60 f   libucrtd:exit.obj
 0001:00077b80       __register_thread_local_exe_atexit_callback 10078b80 f   libucrtd:exit.obj
 0001:00077bc0       _exit                      10078bc0 f   libucrtd:exit.obj
 0001:00077be0       _quick_exit                10078be0 f   libucrtd:exit.obj
 0001:00077c00       ??$?RE@__crt_internal_free_policy@@QBEXQBE@Z 10078c00 f i libucrtd:argv_parsing.obj
 0001:00077c20       ??$?RPAD@__crt_internal_free_policy@@QBEXQBQAD@Z 10078c20 f i libucrtd:argv_parsing.obj
 0001:00077c40       ??$?RPA_W@__crt_internal_free_policy@@QBEXQBQA_W@Z 10078c40 f i libucrtd:argv_parsing.obj
 0001:00078200       ??$get_module_file_name@$$TAAY0BAF@DH@?$__crt_char_traits@D@@SAK$$QA$$TAAY0BAF@D$$QAH@Z 10079200 f i libucrtd:argv_parsing.obj
 0001:00078220       ??$get_module_file_name@$$TAAY0BAF@_WH@?$__crt_char_traits@_W@@SAK$$QA$$TAAY0BAF@_W$$QAH@Z 10079220 f i libucrtd:argv_parsing.obj
 0001:00078960       ??$set_program_name@PAD@?$__crt_char_traits@D@@SAX$$QAPAD@Z 10079960 f i libucrtd:argv_parsing.obj
 0001:00078980       ??$set_program_name@PA_W@?$__crt_char_traits@_W@@SAX$$QAPA_W@Z 10079980 f i libucrtd:argv_parsing.obj
 0001:000789e0       ??0?$__crt_unique_heap_ptr@EU__crt_internal_free_policy@@@@QAE@QAE@Z 100799e0 f i libucrtd:argv_parsing.obj
 0001:00078a00       ??0?$__crt_unique_heap_ptr@PADU__crt_internal_free_policy@@@@QAE@QAPAD@Z 10079a00 f i libucrtd:argv_parsing.obj
 0001:00078a20       ??0?$__crt_unique_heap_ptr@PA_WU__crt_internal_free_policy@@@@QAE@QAPA_W@Z 10079a20 f i libucrtd:argv_parsing.obj
 0001:00078a40       ??1?$__crt_unique_heap_ptr@EU__crt_internal_free_policy@@@@QAE@XZ 10079a40 f i libucrtd:argv_parsing.obj
 0001:00078a60       ??1?$__crt_unique_heap_ptr@PADU__crt_internal_free_policy@@@@QAE@XZ 10079a60 f i libucrtd:argv_parsing.obj
 0001:00078a80       ??1?$__crt_unique_heap_ptr@PA_WU__crt_internal_free_policy@@@@QAE@XZ 10079a80 f i libucrtd:argv_parsing.obj
 0001:00078aa0       ??B?$__crt_unique_heap_ptr@EU__crt_internal_free_policy@@@@QBE_NXZ 10079aa0 f i libucrtd:argv_parsing.obj
 0001:00078b60       ?detach@?$__crt_unique_heap_ptr@EU__crt_internal_free_policy@@@@QAEPAEXZ 10079b60 f i libucrtd:argv_parsing.obj
 0001:00078b90       ?detach@?$__crt_unique_heap_ptr@PADU__crt_internal_free_policy@@@@QAEPAPADXZ 10079b90 f i libucrtd:argv_parsing.obj
 0001:00078bc0       ?detach@?$__crt_unique_heap_ptr@PA_WU__crt_internal_free_policy@@@@QAEPAPA_WXZ 10079bc0 f i libucrtd:argv_parsing.obj
 0001:00078c50       ?get@?$__crt_unique_heap_ptr@EU__crt_internal_free_policy@@@@QBEPAEXZ 10079c50 f i libucrtd:argv_parsing.obj
 0001:00078c70       ?get@?$__crt_unique_heap_ptr@PADU__crt_internal_free_policy@@@@QBEPAPADXZ 10079c70 f i libucrtd:argv_parsing.obj
 0001:00078c90       ?get@?$__crt_unique_heap_ptr@PA_WU__crt_internal_free_policy@@@@QBEPAPA_WXZ 10079c90 f i libucrtd:argv_parsing.obj
 0001:00078cb0       ?get_address_of@?$__crt_unique_heap_ptr@PADU__crt_internal_free_policy@@@@QAEPAPAPADXZ 10079cb0 f i libucrtd:argv_parsing.obj
 0001:00078cc0       ?get_address_of@?$__crt_unique_heap_ptr@PA_WU__crt_internal_free_policy@@@@QAEPAPAPA_WXZ 10079cc0 f i libucrtd:argv_parsing.obj
 0001:00078d10       ?is_valid@?$__crt_unique_heap_ptr@EU__crt_internal_free_policy@@@@QBE_NXZ 10079d10 f i libucrtd:argv_parsing.obj
 0001:00078d40       ?release@?$__crt_unique_heap_ptr@EU__crt_internal_free_policy@@@@QAEXXZ 10079d40 f i libucrtd:argv_parsing.obj
 0001:00078d70       ?release@?$__crt_unique_heap_ptr@PADU__crt_internal_free_policy@@@@QAEXXZ 10079d70 f i libucrtd:argv_parsing.obj
 0001:00078da0       ?release@?$__crt_unique_heap_ptr@PA_WU__crt_internal_free_policy@@@@QAEXXZ 10079da0 f i libucrtd:argv_parsing.obj
 0001:00078e10       ___acrt_allocate_buffer_for_argv 10079e10 f   libucrtd:argv_parsing.obj
 0001:00078ed0       __configure_narrow_argv    10079ed0 f   libucrtd:argv_parsing.obj
 0001:00078ef0       __configure_wide_argv      10079ef0 f   libucrtd:argv_parsing.obj
 0001:00078f10       __set_pgmptr               10079f10 f i libucrtd:argv_parsing.obj
 0001:00078f20       __set_wpgmptr              10079f20 f i libucrtd:argv_parsing.obj
 0001:00078f30       ??$?R_W@__crt_internal_free_policy@@QBEXQB_W@Z 10079f30 f i libucrtd:environment_initialization.obj
 0001:00079710       ??$get_environment_from_os@$$V@?$__crt_char_traits@D@@SAPADXZ 1007a710 f i libucrtd:environment_initialization.obj
 0001:00079720       ??$get_environment_from_os@$$V@?$__crt_char_traits@_W@@SAPA_WXZ 1007a720 f i libucrtd:environment_initialization.obj
 0001:000799f0       ??$set_variable_in_environment_nolock@PADH@?$__crt_char_traits@D@@SAH$$QAPAD$$QAH@Z 1007a9f0 f i libucrtd:environment_initialization.obj
 0001:00079a10       ??$set_variable_in_environment_nolock@PA_WH@?$__crt_char_traits@_W@@SAH$$QAPA_W$$QAH@Z 1007aa10 f i libucrtd:environment_initialization.obj
 0001:00079a30       ??$tcscpy_s@PADABIAAPAD@?$__crt_char_traits@D@@SAH$$QAPADABIAAPAD@Z 1007aa30 f i libucrtd:environment_initialization.obj
 0001:00079a60       ??$tcscpy_s@PA_WABIAAPA_W@?$__crt_char_traits@_W@@SAH$$QAPA_WABIAAPA_W@Z 1007aa60 f i libucrtd:environment_initialization.obj
 0001:00079a90       ??$tcslen@AAPAD@?$__crt_char_traits@D@@SAIAAPAD@Z 1007aa90 f i libucrtd:environment_initialization.obj
 0001:00079ab0       ??$tcslen@AAPA_W@?$__crt_char_traits@_W@@SAIAAPA_W@Z 1007aab0 f i libucrtd:environment_initialization.obj
 0001:00079ad0       ??$uninitialize@A6AXAAPAPAD@_E@?$dual_state_global@PAPAD@__crt_state_management@@QAEXA6AXAAPAPAD@_E@Z 1007aad0 f i libucrtd:environment_initialization.obj
 0001:00079b50       ??$uninitialize@A6AXAAPAPA_W@_E@?$dual_state_global@PAPA_W@__crt_state_management@@QAEXA6AXAAPAPA_W@_E@Z 1007ab50 f i libucrtd:environment_initialization.obj
 0001:00079c30       ??0?$__crt_unique_heap_ptr@_WU__crt_internal_free_policy@@@@QAE@QA_W@Z 1007ac30 f i libucrtd:environment_initialization.obj
 0001:00079c50       ??1?$__crt_unique_heap_ptr@_WU__crt_internal_free_policy@@@@QAE@XZ 1007ac50 f i libucrtd:environment_initialization.obj
 0001:00079c70       ??B?$__crt_unique_heap_ptr@PADU__crt_internal_free_policy@@@@QBE_NXZ 1007ac70 f i libucrtd:environment_initialization.obj
 0001:00079c90       ??B?$__crt_unique_heap_ptr@PA_WU__crt_internal_free_policy@@@@QBE_NXZ 1007ac90 f i libucrtd:environment_initialization.obj
 0001:00079cb0       ??B?$__crt_unique_heap_ptr@_WU__crt_internal_free_policy@@@@QBE_NXZ 1007acb0 f i libucrtd:environment_initialization.obj
 0001:00079cd0       ?__crt_compute_required_transform_buffer_count@@YAIIQBD@Z 1007acd0 f i libucrtd:environment_initialization.obj
 0001:00079cf0       ?__crt_compute_required_transform_buffer_count@@YAIIQB_W@Z 1007acf0 f i libucrtd:environment_initialization.obj
 0001:00079d20       ?__crt_transform_string@@YAIIQBDQA_WI@Z 1007ad20 f i libucrtd:environment_initialization.obj
 0001:00079d50       ?__crt_transform_string@@YAIIQB_WQADI@Z 1007ad50 f i libucrtd:environment_initialization.obj
 0001:00079d80       ?detach@?$__crt_unique_heap_ptr@DU__crt_internal_free_policy@@@@QAEPADXZ 1007ad80 f i libucrtd:environment_initialization.obj
 0001:00079db0       ?detach@?$__crt_unique_heap_ptr@_WU__crt_internal_free_policy@@@@QAEPA_WXZ 1007adb0 f i libucrtd:environment_initialization.obj
 0001:00079de0       ?get@?$__crt_unique_heap_ptr@_WU__crt_internal_free_policy@@@@QBEPA_WXZ 1007ade0 f i libucrtd:environment_initialization.obj
 0001:00079e80       ?initialize@?$dual_state_global@PAPAD@__crt_state_management@@QAEXQAPAD@Z 1007ae80 f i libucrtd:environment_initialization.obj
 0001:00079ec0       ?initialize@?$dual_state_global@PAPA_W@__crt_state_management@@QAEXQAPA_W@Z 1007aec0 f i libucrtd:environment_initialization.obj
 0001:00079f00       ?is_valid@?$__crt_unique_heap_ptr@PADU__crt_internal_free_policy@@@@QBE_NXZ 1007af00 f i libucrtd:environment_initialization.obj
 0001:00079f30       ?is_valid@?$__crt_unique_heap_ptr@PA_WU__crt_internal_free_policy@@@@QBE_NXZ 1007af30 f i libucrtd:environment_initialization.obj
 0001:00079f60       ?is_valid@?$__crt_unique_heap_ptr@_WU__crt_internal_free_policy@@@@QBE_NXZ 1007af60 f i libucrtd:environment_initialization.obj
 0001:00079fb0       ?release@?$__crt_unique_heap_ptr@_WU__crt_internal_free_policy@@@@QAEXXZ 1007afb0 f i libucrtd:environment_initialization.obj
 0001:00079fe0       ?value@?$dual_state_global@PAPAD@__crt_state_management@@QAEAAPAPADXZ 1007afe0 f i libucrtd:environment_initialization.obj
 0001:0007a000       ?value@?$dual_state_global@PAPA_W@__crt_state_management@@QAEAAPAPA_WXZ 1007b000 f i libucrtd:environment_initialization.obj
 0001:0007a020       ___dcrt_get_or_create_narrow_environment_nolock 1007b020 f   libucrtd:environment_initialization.obj
 0001:0007a030       ___dcrt_get_or_create_wide_environment_nolock 1007b030 f   libucrtd:environment_initialization.obj
 0001:0007a040       ___dcrt_uninitialize_environments_nolock 1007b040 f   libucrtd:environment_initialization.obj
 0001:0007a090       ___p__environ              1007b090 f   libucrtd:environment_initialization.obj
 0001:0007a0b0       ___p__wenviron             1007b0b0 f   libucrtd:environment_initialization.obj
 0001:0007a0d0       __get_initial_narrow_environment 1007b0d0 f   libucrtd:environment_initialization.obj
 0001:0007a0e0       __get_initial_wide_environment 1007b0e0 f   libucrtd:environment_initialization.obj
 0001:0007a0f0       __initialize_narrow_environment 1007b0f0 f   libucrtd:environment_initialization.obj
 0001:0007a100       __initialize_wide_environment 1007b100 f   libucrtd:environment_initialization.obj
 0001:0007a110       ??$?B$$A6AXXZ@__crt_fast_encoded_nullptr_t@@QBEP6AXXZXZ 1007b110 f i libucrtd:onexit.obj
 0001:0007a130       ??$?BP6AXXZ@__crt_fast_encoded_nullptr_t@@QBEPAP6AXXZXZ 1007b130 f i libucrtd:onexit.obj
 0001:0007a150       ??$?RP6AXXZ@__crt_internal_free_policy@@QBEXQBQ6AXXZ@Z 1007b150 f i libucrtd:onexit.obj
 0001:0007a370       ??$__crt_fast_decode_pointer@P6AXXZ@@YAP6AXXZQ6AXXZ@Z 1007b370 f i libucrtd:onexit.obj
 0001:0007a3a0       ??$__crt_fast_decode_pointer@PAP6AXXZ@@YAPAP6AXXZQAP6AXXZ@Z 1007b3a0 f i libucrtd:onexit.obj
 0001:0007a3d0       ??$__crt_fast_encode_pointer@P6AHXZ@@YAP6AHXZQ6AHXZ@Z 1007b3d0 f i libucrtd:onexit.obj
 0001:0007a400       ??$__crt_fast_encode_pointer@P6AXXZ@@YAP6AXXZQ6AXXZ@Z 1007b400 f i libucrtd:onexit.obj
 0001:0007a430       ??$__crt_fast_encode_pointer@PAP6AXXZ@@YAPAP6AXXZQAP6AXXZ@Z 1007b430 f i libucrtd:onexit.obj
 0001:0007a530       ??0?$__crt_unique_heap_ptr@P6AXXZU__crt_internal_free_policy@@@@QAE@QAP6AXXZ@Z 1007b530 f i libucrtd:onexit.obj
 0001:0007a550       ??1?$__crt_unique_heap_ptr@P6AXXZU__crt_internal_free_policy@@@@QAE@XZ 1007b550 f i libucrtd:onexit.obj
 0001:0007a570       ??1scoped_global_state_reset@__crt_state_management@@QAE@XZ 1007b570 f i libucrtd:onexit.obj
 0001:0007a9f0       ?detach@?$__crt_unique_heap_ptr@P6AXXZU__crt_internal_free_policy@@@@QAEPAP6AXXZXZ 1007b9f0 f i libucrtd:onexit.obj
 0001:0007aa20       ?release@?$__crt_unique_heap_ptr@P6AXXZU__crt_internal_free_policy@@@@QAEXXZ 1007ba20 f i libucrtd:onexit.obj
 0001:0007aa50       __crt_at_quick_exit        1007ba50 f   libucrtd:onexit.obj
 0001:0007aa70       __crt_atexit               1007ba70 f   libucrtd:onexit.obj
 0001:0007aa90       __execute_onexit_table     1007ba90 f   libucrtd:onexit.obj
 0001:0007aad0       __initialize_onexit_table  1007bad0 f   libucrtd:onexit.obj
 0001:0007ab30       __register_onexit_function 1007bb30 f   libucrtd:onexit.obj
 0001:0007ad80       ??$?BX@__crt_fast_encoded_nullptr_t@@QBEPAXXZ 1007bd80 f i libucrtd:initialization.obj
 0001:0007ada0       ??$__crt_fast_encode_pointer@PAX@@YAPAXQAX@Z 1007bda0 f i libucrtd:initialization.obj
 0001:0007ae90       ?initialize@?$dual_state_global@PAU__crt_locale_data@@@__crt_state_management@@QAEXQAU__crt_locale_data@@@Z 1007be90 f i libucrtd:initialization.obj
 0001:0007aed0       ___acrt_initialize         1007bed0 f   libucrtd:initialization.obj
 0001:0007aef0       ___acrt_thread_attach      1007bef0 f   libucrtd:initialization.obj
 0001:0007af10       ___acrt_thread_detach      1007bf10 f   libucrtd:initialization.obj
 0001:0007af20       ___acrt_uninitialize       1007bf20 f   libucrtd:initialization.obj
 0001:0007af40       ___acrt_uninitialize_critical 1007bf40 f   libucrtd:initialization.obj
 0001:0007af60       ??0_LocaleUpdate@@QAE@QAU__crt_locale_pointers@@@Z 1007bf60 f i libucrtd:debug_heap.obj
 0001:0007b030       ??1_LocaleUpdate@@QAE@XZ   1007c030 f i libucrtd:debug_heap.obj
 0001:0007b060       ?GetLocaleT@_LocaleUpdate@@QAEPAU__crt_locale_pointers@@XZ 1007c060 f i libucrtd:debug_heap.obj
 0001:0007cab0       __CrtCheckMemory           1007dab0 f   libucrtd:debug_heap.obj
 0001:0007cc40       __CrtDoForAllClientObjects 1007dc40 f   libucrtd:debug_heap.obj
 0001:0007cda0       __CrtDumpMemoryLeaks       1007dda0 f   libucrtd:debug_heap.obj
 0001:0007ce40       __CrtGetAllocHook          1007de40 f   libucrtd:debug_heap.obj
 0001:0007ce50       __CrtGetDumpClient         1007de50 f   libucrtd:debug_heap.obj
 0001:0007ce60       __CrtIsMemoryBlock         1007de60 f   libucrtd:debug_heap.obj
 0001:0007cfb0       __CrtIsValidHeapPointer    1007dfb0 f   libucrtd:debug_heap.obj
 0001:0007cff0       __CrtIsValidPointer        1007dff0 f   libucrtd:debug_heap.obj
 0001:0007d020       __CrtMemCheckpoint         1007e020 f   libucrtd:debug_heap.obj
 0001:0007d250       __CrtMemDifference         1007e250 f   libucrtd:debug_heap.obj
 0001:0007d4c0       __CrtMemDumpAllObjectsSince 1007e4c0 f   libucrtd:debug_heap.obj
 0001:0007d560       __CrtMemDumpStatistics     1007e560 f   libucrtd:debug_heap.obj
 0001:0007d690       __CrtReportBlockType       1007e690 f   libucrtd:debug_heap.obj
 0001:0007d6c0       __CrtSetAllocHook          1007e6c0 f   libucrtd:debug_heap.obj
 0001:0007d6e0       __CrtSetBreakAlloc         1007e6e0 f   libucrtd:debug_heap.obj
 0001:0007d700       __CrtSetDbgBlockType       1007e700 f   libucrtd:debug_heap.obj
 0001:0007d7e0       __CrtSetDbgFlag            1007e7e0 f   libucrtd:debug_heap.obj
 0001:0007d950       __CrtSetDumpClient         1007e950 f   libucrtd:debug_heap.obj
 0001:0007d970       ___acrt_get_locale_data_prefix 1007e970 f i libucrtd:debug_heap.obj
 0001:0007d990       ___p__crtBreakAlloc        1007e990 f   libucrtd:debug_heap.obj
 0001:0007d9a0       ___p__crtDbgFlag           1007e9a0 f   libucrtd:debug_heap.obj
 0001:0007d9b0       __aligned_free_dbg         1007e9b0 f   libucrtd:debug_heap.obj
 0001:0007da60       __aligned_malloc_dbg       1007ea60 f   libucrtd:debug_heap.obj
 0001:0007da90       __aligned_msize_dbg        1007ea90 f   libucrtd:debug_heap.obj
 0001:0007dbc0       __aligned_offset_malloc_dbg 1007ebc0 f   libucrtd:debug_heap.obj
 0001:0007dda0       __aligned_offset_realloc_dbg 1007eda0 f   libucrtd:debug_heap.obj
 0001:0007e0b0       __aligned_offset_recalloc_dbg 1007f0b0 f   libucrtd:debug_heap.obj
 0001:0007e170       __aligned_realloc_dbg      1007f170 f   libucrtd:debug_heap.obj
 0001:0007e1a0       __aligned_recalloc_dbg     1007f1a0 f   libucrtd:debug_heap.obj
 0001:0007e1d0       __calloc_dbg               1007f1d0 f   libucrtd:debug_heap.obj
 0001:0007e240       __chvalidchk_l             1007f240 f i libucrtd:debug_heap.obj
 0001:0007e260       __expand_dbg               1007f260 f   libucrtd:debug_heap.obj
 0001:0007e390       __free_dbg                 1007f390 f   libucrtd:debug_heap.obj
 0001:0007e440       __ischartype_l             1007f440 f i libucrtd:debug_heap.obj
 0001:0007e4c0       __malloc_dbg               1007f4c0 f   libucrtd:debug_heap.obj
 0001:0007e4e0       __msize_dbg                1007f4e0 f   libucrtd:debug_heap.obj
 0001:0007e670       __realloc_dbg              1007f670 f   libucrtd:debug_heap.obj
 0001:0007e710       __recalloc_dbg             1007f710 f   libucrtd:debug_heap.obj
 0001:0007e7c0       __initterm                 1007f7c0 f   libucrtd:initterm.obj
 0001:0007e810       __initterm_e               1007f810 f   libucrtd:initterm.obj
 0001:0007eb80       _strcpy_s                  1007fb80 f   libucrtd:strcpy_s.obj
 0001:0007efb0       _strcat_s                  1007ffb0 f   libucrtd:strcat_s.obj
 0001:0007efd0       ??$?B$$A6AHI@Z@__crt_fast_encoded_nullptr_t@@QBEP6AHI@ZXZ 1007ffd0 f i libucrtd:new_handler.obj
 0001:0007eff0       ??$__crt_fast_decode_pointer@P6AHI@Z@@YAP6AHI@ZQ6AHI@Z@Z 1007fff0 f i libucrtd:new_handler.obj
 0001:0007f020       ??$__crt_fast_encode_pointer@P6AHI@Z@@YAP6AHI@ZQ6AHI@Z@Z 10080020 f i libucrtd:new_handler.obj
 0001:0007f050       ?_set_new_handler@@YAP6AHI@ZH@Z 10080050 f   libucrtd:new_handler.obj
 0001:0007f0b0       ?initialize@?$dual_state_global@P6AHI@Z@__crt_state_management@@QAEXQ6AHI@Z@Z 100800b0 f i libucrtd:new_handler.obj
 0001:0007f0f0       ?value@?$dual_state_global@P6AHI@Z@__crt_state_management@@QAEAAP6AHI@ZXZ 100800f0 f i libucrtd:new_handler.obj
 0001:0007f110       ___acrt_initialize_new_handler 10080110 f   libucrtd:new_handler.obj
 0001:0007f130       __callnewh                 10080130 f   libucrtd:new_handler.obj
 0001:0007f180       __query_new_handler        10080180 f   libucrtd:new_handler.obj
 0001:0007f210       __set_new_handler          10080210 f   libucrtd:new_handler.obj
 0001:0007f2f0       __get_terminate            100802f0 f   libucrtd:terminate.obj
 0001:0007f310       _set_terminate             10080310 f   libucrtd:terminate.obj
 0001:0007f340       _terminate                 10080340 f   libucrtd:terminate.obj
 0001:0007fd40       __makepath                 10080d40 f   libucrtd:makepath.obj
 0001:0007fd70       __makepath_s               10080d70 f   libucrtd:makepath.obj
 0001:0007fda0       __wmakepath                10080da0 f   libucrtd:makepath.obj
 0001:0007fdd0       __wmakepath_s              10080dd0 f   libucrtd:makepath.obj
 0001:000818a0       ??$tcsncpy_s@AAPADIAAPBDABI@?$__crt_char_traits@D@@SAHAAPAD$$QAIAAPBDABI@Z 100828a0 f i libucrtd:splitpath.obj
 0001:000818d0       ??$tcsncpy_s@AAPADIAAPBDH@?$__crt_char_traits@D@@SAHAAPAD$$QAIAAPBD$$QAH@Z 100828d0 f i libucrtd:splitpath.obj
 0001:00081900       ??$tcsncpy_s@AAPA_WIAAPB_WABI@?$__crt_char_traits@_W@@SAHAAPA_W$$QAIAAPB_WABI@Z 10082900 f i libucrtd:splitpath.obj
 0001:00081930       ??$tcsncpy_s@AAPA_WIAAPB_WH@?$__crt_char_traits@_W@@SAHAAPA_W$$QAIAAPB_W$$QAH@Z 10082930 f i libucrtd:splitpath.obj
 0001:00081b70       __splitpath                10082b70 f   libucrtd:splitpath.obj
 0001:00081ba0       __splitpath_s              10082ba0 f   libucrtd:splitpath.obj
 0001:00081bf0       __wsplitpath               10082bf0 f   libucrtd:splitpath.obj
 0001:00081c20       __wsplitpath_s             10082c20 f   libucrtd:splitpath.obj
 0001:00081c70       __set_abort_behavior       10082c70 f   libucrtd:abort.obj
 0001:00081ca0       _abort                     10082ca0 f   libucrtd:abort.obj
 0001:00081d10       _strcmp                    10082d10 f   libucrtd:strcmp.obj
 0001:00081da0       _strlen                    10082da0 f   libucrtd:strlen.obj
 0001:00081e30       ??$is_overflow_condition@_K@__crt_strtox@@YA_NI_K@Z 10082e30 f i libucrtd:atox.obj
 0001:00081ec0       ??$make_c_string_character_source@D$$T@__crt_strtox@@YA?AV?$c_string_character_source@D@0@QBD$$T@Z 10082ec0 f i libucrtd:atox.obj
 0001:00081ee0       ??$make_c_string_character_source@_W$$T@__crt_strtox@@YA?AV?$c_string_character_source@_W@0@QB_W$$T@Z 10082ee0 f i libucrtd:atox.obj
 0001:00081f00       ??$parse_integer@KV?$c_string_character_source@D@__crt_strtox@@$00@__crt_strtox@@YAKAAV__crt_cached_ptd_host@@V?$c_string_character_source@D@0@H_N@Z 10082f00 f i libucrtd:atox.obj
 0001:00082260       ??$parse_integer@KV?$c_string_character_source@_W@__crt_strtox@@$00@__crt_strtox@@YAKAAV__crt_cached_ptd_host@@V?$c_string_character_source@_W@0@H_N@Z 10083260 f i libucrtd:atox.obj
 0001:000825d0       ??$parse_integer@_KV?$c_string_character_source@D@__crt_strtox@@$00@__crt_strtox@@YA_KAAV__crt_cached_ptd_host@@V?$c_string_character_source@D@0@H_N@Z 100835d0 f i libucrtd:atox.obj
 0001:000829c0       ??$parse_integer@_KV?$c_string_character_source@_W@__crt_strtox@@$00@__crt_strtox@@YA_KAAV__crt_cached_ptd_host@@V?$c_string_character_source@_W@0@H_N@Z 100839c0 f i libucrtd:atox.obj
 0001:00082db0       ??$parse_integer_from_string@JD$$T@__crt_strtox@@YAJQBD$$THQAU__crt_locale_pointers@@@Z 10083db0 f i libucrtd:atox.obj
 0001:00082e10       ??$parse_integer_from_string@J_W$$T@__crt_strtox@@YAJQB_W$$THQAU__crt_locale_pointers@@@Z 10083e10 f i libucrtd:atox.obj
 0001:00082e70       ??$parse_integer_from_string@_JD$$T@__crt_strtox@@YA_JQBD$$THQAU__crt_locale_pointers@@@Z 10083e70 f i libucrtd:atox.obj
 0001:00082ed0       ??$parse_integer_from_string@_J_W$$T@__crt_strtox@@YA_JQB_W$$THQAU__crt_locale_pointers@@@Z 10083ed0 f i libucrtd:atox.obj
 0001:00082f30       ?is_space@__crt_strtox@@YA_NDQAU__crt_locale_pointers@@@Z 10083f30 f i libucrtd:atox.obj
 0001:00082f70       ?is_space@__crt_strtox@@YA_N_WPAU__crt_locale_pointers@@@Z 10083f70 f i libucrtd:atox.obj
 0001:00082fa0       ?maximum_signed_value@__crt_strtox@@YA_J_K@Z 10083fa0 f i libucrtd:atox.obj
 0001:00082fb0       ?minimum_signed_value@__crt_strtox@@YA_J_K@Z 10083fb0 f i libucrtd:atox.obj
 0001:00082fc0       __atoi64                   10083fc0 f   libucrtd:atox.obj
 0001:00082fe0       __atoi64_l                 10083fe0 f   libucrtd:atox.obj
 0001:00083000       __atoi_l                   10084000 f   libucrtd:atox.obj
 0001:00083020       __atol_l                   10084020 f   libucrtd:atox.obj
 0001:00083040       __atoll_l                  10084040 f   libucrtd:atox.obj
 0001:00083060       __wtoi                     10084060 f   libucrtd:atox.obj
 0001:00083080       __wtoi64                   10084080 f   libucrtd:atox.obj
 0001:000830a0       __wtoi64_l                 100840a0 f   libucrtd:atox.obj
 0001:000830c0       __wtoi_l                   100840c0 f   libucrtd:atox.obj
 0001:000830e0       __wtol                     100840e0 f   libucrtd:atox.obj
 0001:00083100       __wtol_l                   10084100 f   libucrtd:atox.obj
 0001:00083120       __wtoll                    10084120 f   libucrtd:atox.obj
 0001:00083140       __wtoll_l                  10084140 f   libucrtd:atox.obj
 0001:00083160       _atoi                      10084160 f   libucrtd:atox.obj
 0001:00083180       _atol                      10084180 f   libucrtd:atox.obj
 0001:000831a0       _atoll                     100841a0 f   libucrtd:atox.obj
 0001:000831c0       _strncmp                   100841c0 f   libucrtd:strncmp.obj
 0001:00083240       _wcsncmp                   10084240 f   libucrtd:wcsncmp.obj
 0001:000832a0       __CrtGetDebugFillThreshold 100842a0 f   libucrtd:debug_fill_threshold.obj
 0001:000832b0       __CrtSetDebugFillThreshold 100842b0 f   libucrtd:debug_fill_threshold.obj
 0001:000832d0       ?value@?$dual_state_global@PAU__crt_locale_data@@@__crt_state_management@@QAEAAPAU__crt_locale_data@@XZ 100842d0 f i libucrtd:locale_update.obj
 0001:000832f0       ?value@?$dual_state_global@PAU__crt_multibyte_data@@@__crt_state_management@@QAEAAPAU__crt_multibyte_data@@XZ 100842f0 f i libucrtd:locale_update.obj
 0001:00083310       ?value_explicit@?$dual_state_global@PAU__crt_locale_data@@@__crt_state_management@@QAEAAPAU__crt_locale_data@@I@Z 10084310 f i libucrtd:locale_update.obj
 0001:00083330       ?value_explicit@?$dual_state_global@PAU__crt_multibyte_data@@@__crt_state_management@@QAEAAPAU__crt_multibyte_data@@I@Z 10084330 f i libucrtd:locale_update.obj
 0001:00083350       ___acrt_should_sync_with_global_locale 10084350 f i libucrtd:locale_update.obj
 0001:00083380       ___acrt_update_locale_info 10084380 f   libucrtd:locale_update.obj
 0001:000833c0       ___acrt_update_locale_info_explicit 100843c0 f   libucrtd:locale_update.obj
 0001:00083400       ___acrt_update_multibyte_info 10084400 f   libucrtd:locale_update.obj
 0001:00083440       ___acrt_update_multibyte_info_explicit 10084440 f   libucrtd:locale_update.obj
 0001:00083480       ?__acrt_fp_classify@@YA?AW4__acrt_fp_class@@ABN@Z 10084480 f i libucrtd:cvt.obj
 0001:000835a0       ?__acrt_fp_is_negative@@YA_NABN@Z 100845a0 f i libucrtd:cvt.obj
 0001:000847b0       ?strrchr@@YAPADQADH@Z      100857b0 f i libucrtd:cvt.obj
 0001:000847d0       ___acrt_fp_format          100857d0 f   libucrtd:cvt.obj
 0001:00084c50       ?value_or@?$cached@H@__crt_cached_ptd_host@@QBEHH@Z 10085c50 f i libucrtd:wctomb.obj
 0001:00084c80       __wctomb_internal          10085c80 f   libucrtd:wctomb.obj
 0001:00085000       __wctomb_l                 10086000 f   libucrtd:wctomb.obj
 0001:00085080       __wctomb_s_l               10086080 f   libucrtd:wctomb.obj
 0001:000850d0       _wctomb                    100860d0 f   libucrtd:wctomb.obj
 0001:00085140       _wctomb_s                  10086140 f   libucrtd:wctomb.obj
 0001:00085190       __isleadbyte_fast_internal 10086190 f i libucrtd:mbtowc.obj
 0001:000851b0       __mbtowc_internal          100861b0 f   libucrtd:mbtowc.obj
 0001:00085440       __mbtowc_l                 10086440 f   libucrtd:mbtowc.obj
 0001:00085480       _mbtowc                    10086480 f   libucrtd:mbtowc.obj
 0001:000854c0       ?lowio_handle@__crt_stdio_stream@@QBEHXZ 100864c0 f i libucrtd:fileno.obj
 0001:000854e0       __fileno                   100864e0 f   libucrtd:fileno.obj
 0001:00085580       ??$?RPAU__crt_stdio_stream_data@@@__crt_internal_free_policy@@QBEXQBQAU__crt_stdio_stream_data@@@Z 10086580 f i libucrtd:_file.obj
 0001:000855a0       ??0?$__crt_unique_heap_ptr@PAU__crt_stdio_stream_data@@U__crt_internal_free_policy@@@@QAE@QAPAU__crt_stdio_stream_data@@@Z 100865a0 f i libucrtd:_file.obj
 0001:000855c0       ??1?$__crt_unique_heap_ptr@PAU__crt_stdio_stream_data@@U__crt_internal_free_policy@@@@QAE@XZ 100865c0 f i libucrtd:_file.obj
 0001:000855e0       ?detach@?$__crt_unique_heap_ptr@PAU__crt_stdio_stream_data@@U__crt_internal_free_policy@@@@QAEPAPAU__crt_stdio_stream_data@@XZ 100865e0 f i libucrtd:_file.obj
 0001:00085610       ?release@?$__crt_unique_heap_ptr@PAU__crt_stdio_stream_data@@U__crt_internal_free_policy@@@@QAEXXZ 10086610 f i libucrtd:_file.obj
 0001:00085640       ___acrt_initialize_stdio   10086640 f   libucrtd:_file.obj
 0001:000857b0       ___acrt_iob_func           100867b0 f   libucrtd:_file.obj
 0001:000857c0       ___acrt_uninitialize_stdio 100867c0 f   libucrtd:_file.obj
 0001:00085840       __get_stream_buffer_pointers 10086840 f   libucrtd:_file.obj
 0001:00085920       __lock_file                10086920 f   libucrtd:_file.obj
 0001:00085950       __unlock_file              10086950 f   libucrtd:_file.obj
 0001:00085980       __get_printf_count_output  10086980 f   libucrtd:printf_count_output.obj
 0001:000859b0       __set_printf_count_output  100869b0 f   libucrtd:printf_count_output.obj
 0001:00085bb0       __fputwc_nolock            10086bb0 f   libucrtd:fputwc.obj
 0001:00085bf0       __fputwc_nolock_internal   10086bf0 f   libucrtd:fputwc.obj
 0001:00085e00       __fputwchar                10086e00 f   libucrtd:fputwc.obj
 0001:00085e20       __putwc_nolock             10086e20 f   libucrtd:fputwc.obj
 0001:00085e40       _fputwc                    10086e40 f   libucrtd:fputwc.obj
 0001:00085e80       _putwc                     10086e80 f   libucrtd:fputwc.obj
 0001:00085ea0       _putwchar                  10086ea0 f   libucrtd:fputwc.obj
 0001:00085ec0       ?has_any_buffer@__crt_stdio_stream@@QBE_NXZ 10086ec0 f i libucrtd:_sftbuf.obj
 0001:00085ee0       ?has_any_of@__crt_stdio_stream@@QBE_NJ@Z 10086ee0 f i libucrtd:_sftbuf.obj
 0001:00085f20       ?has_temporary_buffer@__crt_stdio_stream@@QBE_NXZ 10086f20 f i libucrtd:_sftbuf.obj
 0001:00085f40       ?set_flags@__crt_stdio_stream@@QBE_NJ@Z 10086f40 f i libucrtd:_sftbuf.obj
 0001:00085f90       ?unset_flags@__crt_stdio_stream@@QBE_NJ@Z 10086f90 f i libucrtd:_sftbuf.obj
 0001:00085fe0       ___acrt_should_use_temporary_buffer 10086fe0 f   libucrtd:_sftbuf.obj
 0001:00086030       ___acrt_stdio_begin_temporary_buffering_nolock 10087030 f   libucrtd:_sftbuf.obj
 0001:00086200       ___acrt_stdio_end_temporary_buffering_nolock 10087200 f   libucrtd:_sftbuf.obj
 0001:00086280       ??$?RU__acrt_ptd@@@__crt_internal_free_policy@@QBEXQBU__acrt_ptd@@@Z 10087280 f i libucrtd:per_thread_data.obj
 0001:000867f0       ??0?$__crt_unique_heap_ptr@U__acrt_ptd@@U__crt_internal_free_policy@@@@QAE@QAU__acrt_ptd@@@Z 100877f0 f i libucrtd:per_thread_data.obj
 0001:00086810       ??1?$__crt_unique_heap_ptr@U__acrt_ptd@@U__crt_internal_free_policy@@@@QAE@XZ 10087810 f i libucrtd:per_thread_data.obj
 0001:00086830       ??B?$__crt_unique_heap_ptr@U__acrt_ptd@@U__crt_internal_free_policy@@@@QBE_NXZ 10087830 f i libucrtd:per_thread_data.obj
 0001:00086b40       ?dangerous_get_state_array@?$dual_state_global@PAU__crt_locale_data@@@__crt_state_management@@QAEPAPAU__crt_locale_data@@XZ 10087b40 f i libucrtd:per_thread_data.obj
 0001:00086ce0       ?detach@?$__crt_unique_heap_ptr@U__acrt_ptd@@U__crt_internal_free_policy@@@@QAEPAU__acrt_ptd@@XZ 10087ce0 f i libucrtd:per_thread_data.obj
 0001:00086d10       ?get@?$__crt_unique_heap_ptr@U__acrt_ptd@@U__crt_internal_free_policy@@@@QBEPAU__acrt_ptd@@XZ 10087d10 f i libucrtd:per_thread_data.obj
 0001:00086eb0       ?is_valid@?$__crt_unique_heap_ptr@U__acrt_ptd@@U__crt_internal_free_policy@@@@QBE_NXZ 10087eb0 f i libucrtd:per_thread_data.obj
 0001:00086ee0       ?release@?$__crt_unique_heap_ptr@U__acrt_ptd@@U__crt_internal_free_policy@@@@QAEXXZ 10087ee0 f i libucrtd:per_thread_data.obj
 0001:00086fd0       ___acrt_freeptd            10087fd0 f   libucrtd:per_thread_data.obj
 0001:00087000       ___acrt_getptd             10088000 f   libucrtd:per_thread_data.obj
 0001:00087020       ___acrt_getptd_head        10088020 f   libucrtd:per_thread_data.obj
 0001:00087040       ___acrt_getptd_noexit      10088040 f   libucrtd:per_thread_data.obj
 0001:00087050       ___acrt_getptd_noexit_explicit 10088050 f   libucrtd:per_thread_data.obj
 0001:00087070       ___acrt_initialize_ptd     10088070 f   libucrtd:per_thread_data.obj
 0001:000870b0       ___acrt_uninitialize_ptd   100880b0 f   libucrtd:per_thread_data.obj
 0001:000870e0       ___threadhandle            100880e0 f   libucrtd:per_thread_data.obj
 0001:000870f0       ___threadid                100880f0 f   libucrtd:per_thread_data.obj
 0001:00087110       ??$?RU__crt_locale_data@@@__crt_internal_free_policy@@QBEXQBU__crt_locale_data@@@Z 10088110 f i libucrtd:wsetlocale.obj
 0001:00087130       ??$?RU__crt_locale_pointers@@@__crt_internal_free_policy@@QBEXQBU__crt_locale_pointers@@@Z 10088130 f i libucrtd:wsetlocale.obj
 0001:00087150       ??$?RU__crt_multibyte_data@@@__crt_internal_free_policy@@QBEXQBU__crt_multibyte_data@@@Z 10088150 f i libucrtd:wsetlocale.obj
 0001:00087830       ??0?$__crt_unique_heap_ptr@U__crt_locale_data@@U__crt_internal_free_policy@@@@QAE@QAU__crt_locale_data@@@Z 10088830 f i libucrtd:wsetlocale.obj
 0001:00087850       ??0?$__crt_unique_heap_ptr@U__crt_locale_pointers@@U__crt_internal_free_policy@@@@QAE@QAU__crt_locale_pointers@@@Z 10088850 f i libucrtd:wsetlocale.obj
 0001:00087870       ??0?$__crt_unique_heap_ptr@U__crt_multibyte_data@@U__crt_internal_free_policy@@@@QAE@QAU__crt_multibyte_data@@@Z 10088870 f i libucrtd:wsetlocale.obj
 0001:00087890       ??0_expandlocale_locale_name_cache@@QAE@QA_WIQAU__crt_qualified_locale_data@@@Z 10088890 f i libucrtd:wsetlocale.obj
 0001:00087900       ??1?$__crt_unique_heap_ptr@U__crt_locale_data@@U__crt_internal_free_policy@@@@QAE@XZ 10088900 f i libucrtd:wsetlocale.obj
 0001:00087920       ??1?$__crt_unique_heap_ptr@U__crt_locale_pointers@@U__crt_internal_free_policy@@@@QAE@XZ 10088920 f i libucrtd:wsetlocale.obj
 0001:00087940       ??1?$__crt_unique_heap_ptr@U__crt_multibyte_data@@U__crt_internal_free_policy@@@@QAE@XZ 10088940 f i libucrtd:wsetlocale.obj
 0001:00087960       ??1_expandlocale_locale_name_cache@@QAE@XZ 10088960 f i libucrtd:wsetlocale.obj
 0001:000879c0       ??B?$__crt_unique_heap_ptr@U__crt_locale_data@@U__crt_internal_free_policy@@@@QBE_NXZ 100889c0 f i libucrtd:wsetlocale.obj
 0001:000879e0       ??B?$__crt_unique_heap_ptr@U__crt_locale_pointers@@U__crt_internal_free_policy@@@@QBE_NXZ 100889e0 f i libucrtd:wsetlocale.obj
 0001:00087a00       ??B?$__crt_unique_heap_ptr@U__crt_multibyte_data@@U__crt_internal_free_policy@@@@QBE_NXZ 10088a00 f i libucrtd:wsetlocale.obj
 0001:00087df0       ?commit_locale_name@_expandlocale_locale_name_cache@@QAEXQB_WI@Z 10088df0 f i libucrtd:wsetlocale.obj
 0001:00087e50       ?commit_locale_name_cache_already_updated@_expandlocale_locale_name_cache@@QAEXQB_WI@Z 10088e50 f i libucrtd:wsetlocale.obj
 0001:00087eb0       ?detach@?$__crt_unique_heap_ptr@U__crt_locale_data@@U__crt_internal_free_policy@@@@QAEPAU__crt_locale_data@@XZ 10088eb0 f i libucrtd:wsetlocale.obj
 0001:00087ee0       ?detach@?$__crt_unique_heap_ptr@U__crt_locale_pointers@@U__crt_internal_free_policy@@@@QAEPAU__crt_locale_pointers@@XZ 10088ee0 f i libucrtd:wsetlocale.obj
 0001:00087f10       ?detach@?$__crt_unique_heap_ptr@U__crt_multibyte_data@@U__crt_internal_free_policy@@@@QAEPAU__crt_multibyte_data@@XZ 10088f10 f i libucrtd:wsetlocale.obj
 0001:00087f40       ?get@?$__crt_unique_heap_ptr@U__crt_locale_data@@U__crt_internal_free_policy@@@@QBEPAU__crt_locale_data@@XZ 10088f40 f i libucrtd:wsetlocale.obj
 0001:00087f60       ?get@?$__crt_unique_heap_ptr@U__crt_locale_pointers@@U__crt_internal_free_policy@@@@QBEPAU__crt_locale_pointers@@XZ 10088f60 f i libucrtd:wsetlocale.obj
 0001:00087f80       ?get@?$__crt_unique_heap_ptr@U__crt_multibyte_data@@U__crt_internal_free_policy@@@@QBEPAU__crt_multibyte_data@@XZ 10088f80 f i libucrtd:wsetlocale.obj
 0001:00087fa0       ?is_valid@?$__crt_unique_heap_ptr@U__crt_locale_data@@U__crt_internal_free_policy@@@@QBE_NXZ 10088fa0 f i libucrtd:wsetlocale.obj
 0001:00087fd0       ?is_valid@?$__crt_unique_heap_ptr@U__crt_locale_pointers@@U__crt_internal_free_policy@@@@QBE_NXZ 10088fd0 f i libucrtd:wsetlocale.obj
 0001:00088000       ?is_valid@?$__crt_unique_heap_ptr@U__crt_multibyte_data@@U__crt_internal_free_policy@@@@QBE_NXZ 10089000 f i libucrtd:wsetlocale.obj
 0001:00088030       ?release@?$__crt_unique_heap_ptr@U__crt_locale_data@@U__crt_internal_free_policy@@@@QAEXXZ 10089030 f i libucrtd:wsetlocale.obj
 0001:00088060       ?release@?$__crt_unique_heap_ptr@U__crt_locale_pointers@@U__crt_internal_free_policy@@@@QAEXXZ 10089060 f i libucrtd:wsetlocale.obj
 0001:00088090       ?release@?$__crt_unique_heap_ptr@U__crt_multibyte_data@@U__crt_internal_free_policy@@@@QAEXXZ 10089090 f i libucrtd:wsetlocale.obj
 0001:000880c0       ___acrt_copy_locale_name   100890c0 f   libucrtd:wsetlocale.obj
 0001:00088160       ___acrt_set_locale_changed 10089160 f   libucrtd:wsetlocale.obj
 0001:00088180       ___acrt_uninitialize_locale 10089180 f   libucrtd:wsetlocale.obj
 0001:000881a0       ___ascii_tolower           100891a0 f i libucrtd:wsetlocale.obj
 0001:000881c0       ___ascii_towlower          100891c0 f i libucrtd:wsetlocale.obj
 0001:000881e0       ___lc_lctowcs              100891e0 f   libucrtd:wsetlocale.obj
 0001:00088290       ___lc_wcstolc              10089290 f   libucrtd:wsetlocale.obj
 0001:000884c0       __configthreadlocale       100894c0 f   libucrtd:wsetlocale.obj
 0001:00088640       __create_locale            10089640 f   libucrtd:wsetlocale.obj
 0001:00088c80       __free_locale              10089c80 f   libucrtd:wsetlocale.obj
 0001:00088db0       __get_current_locale       10089db0 f   libucrtd:wsetlocale.obj
 0001:00088e90       __wcreate_locale           10089e90 f   libucrtd:wsetlocale.obj
 0001:000890e0       __wcscats                  1008a0e0 f   libucrtd:wsetlocale.obj
 0001:00089160       __wsetlocale               1008a160 f   libucrtd:wsetlocale.obj
 0001:0008a870       ___p___mb_cur_max          1008b870 f   libucrtd:nlsdata.obj
 0001:0008ab70       ___acrt_initialize_lowio   1008bb70 f   libucrtd:ioinit.obj
 0001:0008ac10       ___acrt_uninitialize_lowio 1008bc10 f   libucrtd:ioinit.obj
 0001:0008ac70       __CrtGetReportHook         1008bc70 f   libucrtd:dbgrptt.obj
 0001:0008ac80       __CrtSetReportFile         1008bc80 f   libucrtd:dbgrptt.obj
 0001:0008ad80       __CrtSetReportHook         1008bd80 f   libucrtd:dbgrptt.obj
 0001:0008ada0       __CrtSetReportMode         1008bda0 f   libucrtd:dbgrptt.obj
 0001:0008aee0       __VCrtDbgReportA           1008bee0 f   libucrtd:dbgrptt.obj
 0001:0008b7b0       __VCrtDbgReportW           1008c7b0 f   libucrtd:dbgrptt.obj
 0001:0008c1d0       __snprintf_s               1008d1d0 f i libucrtd:dbgrptt.obj
 0001:0008c210       __vsnprintf_s              1008d210 f i libucrtd:dbgrptt.obj
 0001:0008c240       __vsnprintf_s_l            1008d240 f i libucrtd:dbgrptt.obj
 0001:0008c2a0       ??$__acrt_convert_wcs_mbs_cp@_WDV<lambda_0fec1a7b3f42a53036604e18c2d5e07e>@@U__crt_win32_buffer_no_resizing@@@@YAHQB_WAAV?$__crt_win32_buffer@DU__crt_win32_buffer_no_resizing@@@@ABV<lambda_0fec1a7b3f42a53036604e18c2d5e07e>@@I@Z 1008d2a0 f i libucrtd:getmodulefilenamea.obj
 0001:0008c3e0       ??$__acrt_wcs_to_mbs_cp@U__crt_win32_buffer_no_resizing@@@@YAHQB_WAAV?$__crt_win32_buffer@DU__crt_win32_buffer_no_resizing@@@@I@Z 1008d3e0 f i libucrtd:getmodulefilenamea.obj
 0001:0008c410       ??0?$__crt_win32_buffer@DU__crt_win32_buffer_no_resizing@@@@QAE@QADI@Z 1008d410 f i libucrtd:getmodulefilenamea.obj
 0001:0008c460       ??1?$__crt_win32_buffer@DU__crt_win32_buffer_no_resizing@@@@QAE@XZ 1008d460 f i libucrtd:getmodulefilenamea.obj
 0001:0008c4b0       ??R<lambda_0fec1a7b3f42a53036604e18c2d5e07e>@@QBEHIQB_WQADI@Z 1008d4b0 f i libucrtd:getmodulefilenamea.obj
 0001:0008c4e0       ?__acrt_get_utf8_acp_compatibility_codepage@@YAIXZ 1008d4e0 f i libucrtd:getmodulefilenamea.obj
 0001:0008c570       ?_deallocate@?$__crt_win32_buffer@DU__crt_win32_buffer_no_resizing@@@@AAEXXZ 1008d570 f i libucrtd:getmodulefilenamea.obj
 0001:0008c5c0       ?allocate@?$__crt_win32_buffer@DU__crt_win32_buffer_no_resizing@@@@QAEHI@Z 1008d5c0 f i libucrtd:getmodulefilenamea.obj
 0001:0008c630       ?allocate@__crt_win32_buffer_no_resizing@@SAHQAPAXIABV__crt_win32_buffer_empty_debug_info@@@Z 1008d630 f i libucrtd:getmodulefilenamea.obj
 0001:0008c650       ?capacity@?$__crt_win32_buffer@DU__crt_win32_buffer_no_resizing@@@@QBEIXZ 1008d650 f i libucrtd:getmodulefilenamea.obj
 0001:0008c670       ?data@?$__crt_win32_buffer@DU__crt_win32_buffer_no_resizing@@@@QAEPADXZ 1008d670 f i libucrtd:getmodulefilenamea.obj
 0001:0008c690       ?deallocate@__crt_win32_buffer_no_resizing@@SAXQAXABV__crt_win32_buffer_empty_debug_info@@@Z 1008d690 f i libucrtd:getmodulefilenamea.obj
 0001:0008c6a0       ?debug_info@?$__crt_win32_buffer@DU__crt_win32_buffer_no_resizing@@@@QBEABV__crt_win32_buffer_empty_debug_info@@XZ 1008d6a0 f i libucrtd:getmodulefilenamea.obj
 0001:0008c6b0       ?set_to_nullptr@?$__crt_win32_buffer@DU__crt_win32_buffer_no_resizing@@@@QAEXXZ 1008d6b0 f i libucrtd:getmodulefilenamea.obj
 0001:0008c6f0       ?size@?$__crt_win32_buffer@DU__crt_win32_buffer_no_resizing@@@@QAEXI@Z 1008d6f0 f i libucrtd:getmodulefilenamea.obj
 0001:0008c710       ?size@?$__crt_win32_buffer@DU__crt_win32_buffer_no_resizing@@@@QBEIXZ 1008d710 f i libucrtd:getmodulefilenamea.obj
 0001:0008c730       ___acrt_GetModuleFileNameA 1008d730 f   libucrtd:getmodulefilenamea.obj
 0001:0008ca10       ??$message_box@$$TABQBDABQBDK@?$__crt_char_traits@D@@SAH$$QA$$TABQBD1$$QAK@Z 1008da10 f i libucrtd:crtmbox.obj
 0001:0008ca40       ??$message_box@$$TABQB_WABQB_WK@?$__crt_char_traits@_W@@SAH$$QA$$TABQB_W1$$QAK@Z 1008da40 f i libucrtd:crtmbox.obj
 0001:0008ca70       ??$message_box@PAUHWND__@@ABQBDABQBDABI@?$__crt_char_traits@D@@SAH$$QAPAUHWND__@@ABQBD1ABI@Z 1008da70 f i libucrtd:crtmbox.obj
 0001:0008caa0       ??$message_box@PAUHWND__@@ABQB_WABQB_WABI@?$__crt_char_traits@_W@@SAH$$QAPAUHWND__@@ABQB_W1ABI@Z 1008daa0 f i libucrtd:crtmbox.obj
 0001:0008cad0       ??$output_debug_string@ABQBD@?$__crt_char_traits@D@@SAXABQBD@Z 1008dad0 f i libucrtd:crtmbox.obj
 0001:0008caf0       ??$output_debug_string@ABQB_W@?$__crt_char_traits@_W@@SAXABQB_W@Z 1008daf0 f i libucrtd:crtmbox.obj
 0001:0008cb10       ___acrt_show_narrow_message_box 1008db10 f   libucrtd:crtmbox.obj
 0001:0008cb30       ___acrt_show_wide_message_box 1008db30 f   libucrtd:crtmbox.obj
 0001:0008cb50       ___acrt_initialize_locks   1008db50 f   libucrtd:locks.obj
 0001:0008cbb0       ___acrt_lock               1008dbb0 f   libucrtd:locks.obj
 0001:0008cbd0       ___acrt_uninitialize_locks 1008dbd0 f   libucrtd:locks.obj
 0001:0008cc20       ___acrt_unlock             1008dc20 f   libucrtd:locks.obj
 0001:0008cc40       __lock_locales             1008dc40 f   libucrtd:locks.obj
 0001:0008cc60       __unlock_locales           1008dc60 f   libucrtd:locks.obj
 0001:0008cc80       ??$?B$$A6AXH@Z@__crt_fast_encoded_nullptr_t@@QBEP6AXH@ZXZ 1008dc80 f i libucrtd:signal.obj
 0001:0008cda0       ??$__crt_fast_decode_pointer@P6AXH@Z@@YAP6AXH@ZQ6AXH@Z@Z 1008dda0 f i libucrtd:signal.obj
 0001:0008cdd0       ??$__crt_fast_encode_pointer@P6AXH@Z@@YAP6AXH@ZQ6AXH@Z@Z 1008ddd0 f i libucrtd:signal.obj
 0001:0008d080       ?initialize@?$dual_state_global@P6AXH@Z@__crt_state_management@@QAEXQ6AXH@Z@Z 1008e080 f i libucrtd:signal.obj
 0001:0008d1c0       ?value@?$dual_state_global@P6AXH@Z@__crt_state_management@@QAEAAP6AXH@ZXZ 1008e1c0 f i libucrtd:signal.obj
 0001:0008d1e0       ___acrt_get_sigabrt_handler 1008e1e0 f   libucrtd:signal.obj
 0001:0008d200       ___acrt_initialize_signal_handlers 1008e200 f   libucrtd:signal.obj
 0001:0008d240       ___fpecode                 1008e240 f   libucrtd:signal.obj
 0001:0008d250       ___pxcptinfoptrs           1008e250 f   libucrtd:signal.obj
