 OPOSDeviceMonitor

 Timestamp is 61a75be8 (Wed Dec  1 20:26:32 2021)

 Preferred load address is 10000000

 Start         Length     Name                   Class
 0001:00000000 00000d90H .text$di                CODE
 0001:00000d90 000b6d90H .text$mn                CODE
 0001:000b7b20 00000cb0H .text$x                 CODE
 0001:000b87d0 00000120H .text$yd                CODE
 0002:00000000 00000358H .idata$5                DATA
 0002:00000358 0000000cH .00cfg                  DATA
 0002:00000364 00000004H .CRT$XCA                DATA
 0002:00000368 00000004H .CRT$XCL                DATA
 0002:0000036c 0000006cH .CRT$XCU                DATA
 0002:000003d8 00000004H .CRT$XCZ                DATA
 0002:000003dc 00000004H .CRT$XIA                DATA
 0002:000003e0 00000014H .CRT$XIC                DATA
 0002:000003f4 00000004H .CRT$XIZ                DATA
 0002:000003f8 00000004H .CRT$XLA                DATA
 0002:000003fc 00000004H .CRT$XLZ                DATA
 0002:00000400 00000004H .CRT$XPA                DATA
 0002:00000404 00000008H .CRT$XPX                DATA
 0002:0000040c 00000004H .CRT$XPXA               DATA
 0002:00000410 00000004H .CRT$XPZ                DATA
 0002:00000414 00000004H .CRT$XTA                DATA
 0002:00000418 00000008H .CRT$XTZ                DATA
 0002:0000041c 00000000H .gfids$y                DATA
 0002:00000420 0002f520H .rdata                  DATA
 0002:0002f940 00000040H .rdata$CastGuardVftablesA DATA
 0002:0002f980 00000040H .rdata$CastGuardVftablesC DATA
 0002:0002f9c0 00000018H .rdata$T                DATA
 0002:0002f9d8 0000033cH .rdata$r                DATA
 0002:0002fd14 000001a0H .rdata$sxdata           DATA
 0002:0002feb4 00000170H .rdata$voltmd           DATA
 0002:00030024 0000047cH .rdata$zzzdbg           DATA
 0002:000304a0 00000004H .rtc$IAA                DATA
 0002:000304a4 00000018H .rtc$IMZ                DATA
 0002:000304bc 00000004H .rtc$IZZ                DATA
 0002:000304c0 00000004H .rtc$TAA                DATA
 0002:000304c4 00000018H .rtc$TMZ                DATA
 0002:000304dc 00000004H .rtc$TZZ                DATA
 0002:000304e0 00000004H .tls                    DATA
 0002:000304e4 00000004H .tls$                   DATA
 0002:000304e8 00000008H .tls$ZZZ                DATA
 0002:000304f0 00001a4cH .xdata$x                DATA
 0002:00031f3c 00000004H ATL$__a                 DATA
 0002:00031f40 00000010H ATL$__z                 DATA
 0002:00031f50 000000b0H .edata                  DATA
 0002:00032000 00000078H .idata$2                DATA
 0002:00032078 00000014H .idata$3                DATA
 0002:0003208c 00000358H .idata$4                DATA
 0002:000323e4 00000d56H .idata$6                DATA
 0003:00000000 00000ba0H .data                   DATA
 0003:00000ba0 00000080H .data$r                 DATA
 0003:00000c20 000000b8H .data$rs                DATA
 0003:00000cd8 00003580H .bss                    DATA
 0004:00000000 00000220H .rsrc$01                DATA
 0004:00000220 00003b58H .rsrc$02                DATA

  Address         Publics by Value              Rva+Base       Lib:Object

 0000:00000000       ___x64_code_ranges_to_entry_points 00000000     <absolute>
 0000:00000000       ___hybrid_code_map         00000000     <absolute>
 0000:00000000       ___guard_iat_count         00000000     <absolute>
 0000:00000000       ___guard_eh_cont_table     00000000     <absolute>
 0000:00000000       ___guard_fids_table        00000000     <absolute>
 0000:00000000       ___guard_iat_table         00000000     <absolute>
 0000:00000000       ___AbsoluteZero            00000000     <absolute>
 0000:00000000       ___hybrid_code_map_count   00000000     <absolute>
 0000:00000000       ___enclave_config          00000000     <absolute>
 0000:00000000       ___arm64x_redirection_metadata_count 00000000     <absolute>
 0000:00000000       ___guard_check_icall_a64n_fptr 00000000     <absolute>
 0000:00000000       ___arm64x_redirection_metadata 00000000     <absolute>
 0000:00000000       ___guard_fids_count        00000000     <absolute>
 0000:00000000       ___arm64x_extra_rfe_table  00000000     <absolute>
 0000:00000000       __except_list              00000000     <absolute>
 0000:00000000       ___hybrid_auxiliary_iat_copy 00000000     <absolute>
 0000:00000000       ___x64_code_ranges_to_entry_points_count 00000000     <absolute>
 0000:00000000       ___arm64x_native_entrypoint 00000000     <absolute>
 0000:00000000       ___guard_eh_cont_count     00000000     <absolute>
 0000:00000000       ___hybrid_auxiliary_iat    00000000     <absolute>
 0000:00000000       ___guard_longjmp_count     00000000     <absolute>
 0000:00000000       ___arm64x_extra_rfe_table_size 00000000     <absolute>
 0000:00000000       ___guard_longjmp_table     00000000     <absolute>
 0000:00000000       ___dynamic_value_reloc_table 00000000     <absolute>
 0000:0000002c       __tls_array                0000002c     <absolute>
 0000:00000068       ___safe_se_handler_count   00000068     <absolute>
 0000:00000100       ___guard_flags             00000100     <absolute>
 0000:00000000       ___ImageBase               10000000     <linker-defined>
 0001:00000d90       ?_assert@@YAXPB_W0I@Z      10001d90 f   Assert.obj
 0001:00000ec0       ___local_stdio_printf_options 10001ec0 f i Assert.obj
 0001:00000ed0       ___vswprintf_l             10001ed0 f i Assert.obj
 0001:00000f00       __swprintf                 10001f00 f i Assert.obj
 0001:00000f60       __vswprintf_c_l            10001f60 f i Assert.obj
 0001:00000fd0       __vswprintf_l              10001fd0 f i Assert.obj
 0001:00001000       ?cw_memcpy@@YGHPADPB_WH@Z  10002000 f   CWString.obj
 0001:00001060       ?cw_memcpy@@YGHPA_WPBDH@Z  10002060 f   CWString.obj
 0001:000010c0       ?cw_memcpy@@YGHPADPBDH@Z   100020c0 f   CWString.obj
 0001:00001110       ?cw_memcpy@@YGHPA_WPB_WH@Z 10002110 f   CWString.obj
 0001:00001150       ?cw_memset@@YAXPADDH@Z     10002150 f   CWString.obj
 0001:00001170       ?cw_memset@@YAXPA_W_WH@Z   10002170 f   CWString.obj
 0001:00001190       ?cw_strlen@@YAHPBD@Z       10002190 f   CWString.obj
 0001:000011d0       ?cw_strlen@@YAHPB_W@Z      100021d0 f   CWString.obj
 0001:00001210       ?cw_strcpy@@YAHPADPB_W@Z   10002210 f   CWString.obj
 0001:00001230       ?cw_strcpy@@YAHPA_WPBD@Z   10002230 f   CWString.obj
 0001:00001250       ?cw_strcpy@@YAHPADPBD@Z    10002250 f   CWString.obj
 0001:00001270       ?cw_strcpy@@YAHPA_WPB_W@Z  10002270 f   CWString.obj
 0001:00001290       ?cw_strcat@@YAHPADPB_W@Z   10002290 f   CWString.obj
 0001:000012c0       ?cw_strcat@@YAHPA_WPBD@Z   100022c0 f   CWString.obj
 0001:000012f0       ?cw_strcat@@YAHPADPBD@Z    100022f0 f   CWString.obj
 0001:00001320       ?cw_strcat@@YAHPA_WPB_W@Z  10002320 f   CWString.obj
 0001:00001350       ?cw_dup@@YGXPBDAAHAAPA_W1@Z 10002350 f   CWString.obj
 0001:00001410       ?cw_dup@@YGXPB_WAAHAAPAD1@Z 10002410 f   CWString.obj
 0001:000014c0       ?DupChar@_CW@@AAEXXZ       100024c0 f   CWString.obj
 0001:00001510       ?DupWide@_CW@@AAEXXZ       10002510 f   CWString.obj
 0001:00001560       ?GetCharsMbcs@_CW@@QAEHXZ  10002560 f   CWString.obj
 0001:000015c0       ?GetCharsWide@_CW@@QAEHXZ  100025c0 f   CWString.obj
 0001:00001620       ?SetVARIANT_BOOL@OposVariant@@QAEXF@Z 10002620 f   OposVariant.obj
 0001:00001680       ?SetVARIANT_BOOL_Ptr@OposVariant@@QAEXPAFAAJ@Z 10002680 f   OposVariant.obj
 0001:000016d0       ?GetLONG@OposVariant@@QAEJXZ 100026d0 f   OposVariant.obj
 0001:00001760       ?ChangeLONG@OposVariant@@QAEXPAJAAJ@Z 10002760 f   OposVariant.obj
 0001:00001820       ?SetLONG@OposVariant@@QAEXJ@Z 10002820 f   OposVariant.obj
 0001:00001860       ?SetLONG_Ptr@OposVariant@@QAEXPAJAAJ@Z 10002860 f   OposVariant.obj
 0001:000018b0       ?ChangeCURRENCY@OposVariant@@QAEXPATtagCY@@AAJ@Z 100028b0 f   OposVariant.obj
 0001:00001970       ?SetCURRENCY@OposVariant@@QAEXTtagCY@@@Z 10002970 f   OposVariant.obj
 0001:000019b0       ?SetCURRENCY_Ptr@OposVariant@@QAEXPATtagCY@@AAJ@Z 100029b0 f   OposVariant.obj
 0001:00001a00       ?ChangeBSTR@OposVariant@@QAEXPAPA_WAAJ@Z 10002a00 f   OposVariant.obj
 0001:00001ac0       ?SetBSTR@OposVariant@@QAEXPA_WAAJ@Z 10002ac0 f   OposVariant.obj
 0001:00001b10       ?SetBSTR_Copy@OposVariant@@QAEXPA_WAAJ@Z 10002b10 f   OposVariant.obj
 0001:00001bb0       ?SetBSTR_OutPtr@OposVariant@@QAE_NPAPA_WAAJ@Z 10002bb0 f   OposVariant.obj
 0001:00001c00       ?SetBSTR_InOutPtr@OposVariant@@QAE_NPAPA_WAAJ@Z 10002c00 f   OposVariant.obj
 0001:00001c50       ?SetVARIANT@OposVariant@@QAEXAAUtagVARIANT@@GAAJ@Z 10002c50 f   OposVariant.obj
 0001:00001cd0       ?SetVARIANT_Ptr@OposVariant@@QAEXAAPAUtagVARIANT@@GAAJ@Z 10002cd0 f   OposVariant.obj
 0001:00001d70       ?SetString@OposVariant@@QAEXPB_WAAJ@Z 10002d70 f   OposVariant.obj
 0001:00001e00       ?SetDispatch_Ptr@OposVariant@@QAEXPAUIDispatch@@AAJ@Z 10002e00 f   OposVariant.obj
 0001:00001e70       ??0OposDispParms@@QAE@PAVOposVariant@@H@Z 10002e70 f   OposVariant.obj
 0001:00001f40       ??1OposDispParms@@QAE@XZ   10002f40 f   OposVariant.obj
 0001:00001f90       ??$AtlMultiply@I@ATL@@YAJPAIII@Z 10002f90 f i OposVariant.obj
 0001:00001ff0       ??0?$CHeapPtr@_WVCCRTAllocator@ATL@@@ATL@@QAE@XZ 10002ff0 f i OposVariant.obj
 0001:00002020       ??0?$CHeapPtrBase@_WVCCRTAllocator@ATL@@@ATL@@IAE@XZ 10003020 f i OposVariant.obj
 0001:00002040       ??0?$CSimpleArray@GV?$CSimpleArrayEqualHelper@G@ATL@@@ATL@@QAE@XZ 10003040 f i OposVariant.obj
 0001:00002070       ??0?$CTraceCategoryEx@$00$0A@@ATL@@QAE@PB_W@Z 10003070 f i OposVariant.obj
 0001:000020a0       ??0?$CTraceCategoryEx@$01$0A@@ATL@@QAE@PB_W@Z 100030a0 f i OposVariant.obj
 0001:000020d0       ??0?$CTraceCategoryEx@$03$0A@@ATL@@QAE@PB_W@Z 100030d0 f i OposVariant.obj
 0001:00002100       ??0?$CTraceCategoryEx@$07$0A@@ATL@@QAE@PB_W@Z 10003100 f i OposVariant.obj
 0001:00002130       ??0?$CTraceCategoryEx@$0BA@$0A@@ATL@@QAE@PB_W@Z 10003130 f i OposVariant.obj
 0001:00002160       ??0?$CTraceCategoryEx@$0BAA@$0A@@ATL@@QAE@PB_W@Z 10003160 f i OposVariant.obj
 0001:000021a0       ??0?$CTraceCategoryEx@$0BAAA@$0A@@ATL@@QAE@PB_W@Z 100031a0 f i OposVariant.obj
 0001:000021e0       ??0?$CTraceCategoryEx@$0BAAAA@$0A@@ATL@@QAE@PB_W@Z 100031e0 f i OposVariant.obj
 0001:00002220       ??0?$CTraceCategoryEx@$0BAAAAA@$0A@@ATL@@QAE@PB_W@Z 10003220 f i OposVariant.obj
 0001:00002260       ??0?$CTraceCategoryEx@$0CA@$0A@@ATL@@QAE@PB_W@Z 10003260 f i OposVariant.obj
 0001:00002290       ??0?$CTraceCategoryEx@$0CAA@$0A@@ATL@@QAE@PB_W@Z 10003290 f i OposVariant.obj
 0001:000022d0       ??0?$CTraceCategoryEx@$0CAAA@$0A@@ATL@@QAE@PB_W@Z 100032d0 f i OposVariant.obj
 0001:00002310       ??0?$CTraceCategoryEx@$0CAAAA@$0A@@ATL@@QAE@PB_W@Z 10003310 f i OposVariant.obj
 0001:00002350       ??0?$CTraceCategoryEx@$0CAAAAA@$0A@@ATL@@QAE@PB_W@Z 10003350 f i OposVariant.obj
 0001:00002390       ??0?$CTraceCategoryEx@$0EA@$0A@@ATL@@QAE@PB_W@Z 10003390 f i OposVariant.obj
 0001:000023c0       ??0?$CTraceCategoryEx@$0EAA@$0A@@ATL@@QAE@PB_W@Z 100033c0 f i OposVariant.obj
 0001:00002400       ??0?$CTraceCategoryEx@$0EAAA@$0A@@ATL@@QAE@PB_W@Z 10003400 f i OposVariant.obj
 0001:00002440       ??0?$CTraceCategoryEx@$0EAAAA@$0A@@ATL@@QAE@PB_W@Z 10003440 f i OposVariant.obj
 0001:00002480       ??0?$CTraceCategoryEx@$0EAAAAA@$0A@@ATL@@QAE@PB_W@Z 10003480 f i OposVariant.obj
 0001:000024c0       ??0?$CTraceCategoryEx@$0IA@$0A@@ATL@@QAE@PB_W@Z 100034c0 f i OposVariant.obj
 0001:00002500       ??0?$CTraceCategoryEx@$0IAA@$0A@@ATL@@QAE@PB_W@Z 10003500 f i OposVariant.obj
 0001:00002540       ??0?$CTraceCategoryEx@$0IAAA@$0A@@ATL@@QAE@PB_W@Z 10003540 f i OposVariant.obj
 0001:00002580       ??0?$CTraceCategoryEx@$0IAAAA@$0A@@ATL@@QAE@PB_W@Z 10003580 f i OposVariant.obj
 0001:000025c0       ??0CAtlComModule@ATL@@QAE@XZ 100035c0 f i OposVariant.obj
 0001:000026a0       ??0CAtlWinModule@ATL@@QAE@XZ 100036a0 f i OposVariant.obj
 0001:00002730       ??0CComCriticalSection@ATL@@QAE@XZ 10003730 f i OposVariant.obj
 0001:00002760       ??0CPreserveLastError@ATL@@QAE@XZ 10003760 f i OposVariant.obj
 0001:000027a0       ??0CTraceFileAndLineInfo@ATL@@QAE@PBDH@Z 100037a0 f i OposVariant.obj
 0001:000027d0       ??0_ATL_COM_MODULE70@ATL@@QAE@XZ 100037d0 f i OposVariant.obj
 0001:00002800       ??0_ATL_WIN_MODULE70@ATL@@QAE@XZ 10003800 f i OposVariant.obj
 0001:00002840       ??1?$CHeapPtr@_WVCCRTAllocator@ATL@@@ATL@@QAE@XZ 10003840 f i OposVariant.obj
 0001:00002870       ??1?$CHeapPtrBase@_WVCCRTAllocator@ATL@@@ATL@@QAE@XZ 10003870 f i OposVariant.obj
 0001:000028a0       ??1?$CSimpleArray@GV?$CSimpleArrayEqualHelper@G@ATL@@@ATL@@QAE@XZ 100038a0 f i OposVariant.obj
 0001:000028d0       ??1CAtlComModule@ATL@@QAE@XZ 100038d0 f i OposVariant.obj
 0001:00002900       ??1CAtlWinModule@ATL@@QAE@XZ 10003900 f i OposVariant.obj
 0001:00002930       ??1CComBSTR@ATL@@QAE@XZ    10003930 f i OposVariant.obj
 0001:00002970       ??1CComCriticalSection@ATL@@QAE@XZ 10003970 f i OposVariant.obj
 0001:00002980       ??1CPreserveLastError@ATL@@QAE@XZ 10003980 f i OposVariant.obj
 0001:000029c0       ??1_ATL_COM_MODULE70@ATL@@QAE@XZ 100039c0 f i OposVariant.obj
 0001:000029f0       ??1_ATL_WIN_MODULE70@ATL@@QAE@XZ 100039f0 f i OposVariant.obj
 0001:00002a30       ??1stringdispid@CComTypeInfoHolder@ATL@@QAE@XZ 10003a30 f i OposVariant.obj
 0001:00002a60       ??A?$CSimpleArray@GV?$CSimpleArrayEqualHelper@G@ATL@@@ATL@@QAEAAGH@Z 10003a60 f i OposVariant.obj
 0001:00002ae0       ??B?$CHeapPtrBase@_WVCCRTAllocator@ATL@@@ATL@@QBEPA_WXZ 10003ae0 f i OposVariant.obj
 0001:00002af0       ??B?$CTraceCategoryEx@$01$0A@@ATL@@QAEIXZ 10003af0 f i OposVariant.obj
 0001:00002b00       ??B?$CTraceCategoryEx@$0CA@$0A@@ATL@@QAEIXZ 10003b00 f i OposVariant.obj
 0001:00002b10       ??RCTraceFileAndLineInfo@ATL@@QBAXHIPB_WZZ 10003b10 f i OposVariant.obj
 0001:00002bb0       ??_Estringdispid@CComTypeInfoHolder@ATL@@QAEPAXI@Z 10003bb0 f i OposVariant.obj
 0001:00002c40       ??_H@YGXPAXIIP6EPAX0@Z@Z   10003c40 f i OposVariant.obj
 0001:00002cb0       ??_I@YGXPAXIIP6EX0@Z@Z     10003cb0 f i OposVariant.obj
 0001:00002d30       ?Allocate@?$CHeapPtr@_WVCCRTAllocator@ATL@@@ATL@@QAE_NI@Z 10003d30 f i OposVariant.obj
 0001:00002dc0       ?Allocate@CCRTAllocator@ATL@@SAPAXI@Z 10003dc0 f i OposVariant.obj
 0001:00002de0       ?AllocateBytes@?$CHeapPtrBase@_WVCCRTAllocator@ATL@@@ATL@@QAE_NI@Z 10003de0 f i OposVariant.obj
 0001:00002e50       ?AtlWinModuleInit@ATL@@YGJPAU_ATL_WIN_MODULE70@1@@Z 10003e50 f i OposVariant.obj
 0001:00002f20       ?AtlWinModuleTerm@ATL@@YGJPAU_ATL_WIN_MODULE70@1@PAUHINSTANCE__@@@Z 10003f20 f i OposVariant.obj
 0001:00002fe0       ?Clear@OposVariant@@QAEJXZ 10003fe0 f i OposVariant.obj
 0001:00003020       ?Free@?$CHeapPtrBase@_WVCCRTAllocator@ATL@@@ATL@@QAEXXZ 10004020 f i OposVariant.obj
 0001:00003060       ?Free@CCRTAllocator@ATL@@SAXPAX@Z 10004060 f i OposVariant.obj
 0001:00003080       ?GetCategoryName@CTrace@ATL@@CAPA_WI@Z 10004080 f i OposVariant.obj
 0001:000030d0       ?GetModuleInstance@CAtlBaseModule@ATL@@QAEPAUHINSTANCE__@@XZ 100040d0 f i OposVariant.obj
 0001:000030f0       ?GetSize@?$CSimpleArray@GV?$CSimpleArrayEqualHelper@G@ATL@@@ATL@@QBEHXZ 100040f0 f i OposVariant.obj
 0001:00003110       ?Init@CComCriticalSection@ATL@@QAEJXZ 10004110 f i OposVariant.obj
 0001:00003170       ?RegisterCategory@CTrace@ATL@@SAXPB_WI@Z 10004170 f i OposVariant.obj
 0001:00003200       ?RemoveAll@?$CSimpleArray@GV?$CSimpleArrayEqualHelper@G@ATL@@@ATL@@QAEXXZ 10004200 f i OposVariant.obj
 0001:00003280       ?Term@CAtlComModule@ATL@@QAEXXZ 10004280 f i OposVariant.obj
 0001:00003340       ?Term@CAtlWinModule@ATL@@QAEXXZ 10004340 f i OposVariant.obj
 0001:00003370       ?Term@CComCriticalSection@ATL@@QAEJXZ 10004370 f i OposVariant.obj
 0001:000033b0       ?TraceV@CTrace@ATL@@CAXPBDHIIPB_W@Z 100043b0 f i OposVariant.obj
 0001:00003630       ?TraceV@CTrace@ATL@@SAXPBDHIIPB_WPAD@Z 10004630 f i OposVariant.obj
 0001:00003770       ?_AtlInitializeCriticalSectionEx@ATL@@YAHPAU_RTL_CRITICAL_SECTION@@KK@Z 10004770 f i OposVariant.obj
 0001:000037a0       ?_AtlRaiseException@ATL@@YAXKK@Z 100047a0 f i OposVariant.obj
 0001:000037d0       _HRESULT_FROM_WIN32        100047d0 f i OposVariant.obj
 0001:00003810       __vswprintf_s_l            10004810 f i OposVariant.obj
 0001:00003880       _swprintf_s                10004880 f i OposVariant.obj
 0001:000038e0       ?ObjectMain@CComObjectRootBase@ATL@@SGX_N@Z 100048e0 f i DeviceMonitor.obj
 0001:000038f0       ?GetCategoryMap@CComObjectRootBase@ATL@@SAPBU_ATL_CATMAP_ENTRY@2@XZ 100048f0 f i DeviceMonitor.obj
 0001:00003900       ?GetObjectDescription@?$CComCoClass@VCOPOSDeviceMonitor@@$1?CLSID_OPOSDeviceMonitor@@3U_GUID@@B@ATL@@SGPB_WXZ 10004900 f i DeviceMonitor.obj
 0001:00003910       ?UpdateRegistry@COPOSDeviceMonitor@@SGJH@Z 10004910 f i DeviceMonitor.obj
 0001:00003930       ?CreateInstance@?$CComCreator@V?$CComObjectCached@VCComClassFactory@ATL@@@ATL@@@ATL@@SGJPAXABU_GUID@@PAPAX@Z 10004930 f i DeviceMonitor.obj
 0001:00003ab0       ?CreateInstance@?$CComCreator2@V?$CComCreator@V?$CComObject@VCOPOSDeviceMonitor@@@ATL@@@ATL@@V?$CComCreator@V?$CComAggObject@VCOPOSDeviceMonitor@@@ATL@@@2@@ATL@@SGJPAXABU_GUID@@PAPAX@Z 10004ab0 f i DeviceMonitor.obj
 0001:00003c60       _DllGetClassObject@12      10004c60 f   DeviceMonitor.obj
 0001:00003c90       _DllCanUnloadNow@0         10004c90 f   DeviceMonitor.obj
 0001:00003cd0       _DllRegisterServer@0       10004cd0 f   DeviceMonitor.obj
 0001:00003cf0       _DllUnregisterServer@0     10004cf0 f   DeviceMonitor.obj
 0001:00003e80       _DllMain@12                10004e80 f   DeviceMonitor.obj
 0001:00003ee0       ??$?2G@Wrapper@?$CSimpleArray@GV?$CSimpleArrayEqualHelper@G@ATL@@@ATL@@SAPAXIPAG@Z 10004ee0 f i DeviceMonitor.obj
 0001:00003ef0       ??$?2PA_W@?$Wrapper@PA_W@?$CSimpleMap@PA_WPA_WVCExpansionVectorEqualHelper@ATL@@@ATL@@SAPAXIPAPA_W@Z 10004ef0 f i DeviceMonitor.obj
 0001:00003f00       ??$?4UITypeInfo2@@@?$CComPtr@UITypeInfo@@@ATL@@QAEPAUITypeInfo@@ABV?$CComPtr@UITypeInfo2@@@1@@Z 10004f00 f i DeviceMonitor.obj
 0001:00003f60       ??$AtlAdd@K@ATL@@YAJPAKKK@Z 10004f60 f i DeviceMonitor.obj
 0001:00003fa0       ??$AtlAdd@_K@ATL@@YAJPA_K_K1@Z 10004fa0 f i DeviceMonitor.obj
 0001:00004010       ??$AtlAddThrow@K@ATL@@YAKKK@Z 10005010 f i DeviceMonitor.obj
 0001:00004090       ??$AtlModuleRegisterWndClassInfoT@VAtlModuleRegisterWndClassInfoParamW@ATL@@@ATL@@YAGPAU_ATL_BASE_MODULE70@0@PAU_ATL_WIN_MODULE70@0@PAU_ATL_WNDCLASSINFOW@0@PAP6GJPAUHWND__@@IIJ@ZVAtlModuleRegisterWndClassInfoParamW@0@@Z 10005090 f i DeviceMonitor.obj
 0001:000044a0       ??$AtlMultiply@H@ATL@@YAJPAHHH@Z 100054a0 f i DeviceMonitor.obj
 0001:00004520       ??$AtlMultiply@K@ATL@@YAJPAKKK@Z 10005520 f i DeviceMonitor.obj
 0001:00004580       ??$AtlMultiplyThrow@I@ATL@@YAIII@Z 10005580 f i DeviceMonitor.obj
 0001:00004600       ??$QueryInterface@UIPersistStream@@@IUnknown@@QAGJPAPAUIPersistStream@@@Z 10005600 f i DeviceMonitor.obj
 0001:00004630       ??$QueryInterface@UITypeInfo2@@@IUnknown@@QAGJPAPAUITypeInfo2@@@Z 10005630 f i DeviceMonitor.obj
 0001:00004660       ??0?$CAtlModuleT@VCComModule@ATL@@@ATL@@QAE@XZ 10005660 f i DeviceMonitor.obj
 0001:00004690       ??0?$CAtlSafeAllocBufferManager@VCCRTAllocator@ATL@@@_ATL_SAFE_ALLOCA_IMPL@ATL@@QAE@XZ 10005690 f i DeviceMonitor.obj
 0001:000046b0       ??0?$CAutoVectorPtr@_W@ATL@@QAE@XZ 100056b0 f i DeviceMonitor.obj
 0001:000046d0       ??0?$CComAggObject@VCOPOSDeviceMonitor@@@ATL@@QAE@PAX@Z 100056d0 f i DeviceMonitor.obj
 0001:00004740       ??0?$CComContainedObject@VCOPOSDeviceMonitor@@@ATL@@QAE@PAX@Z 10005740 f i DeviceMonitor.obj
 0001:00004850       ??0?$CComCritSecLock@VCComCriticalSection@ATL@@@ATL@@QAE@AAVCComCriticalSection@1@_N@Z 10005850 f i DeviceMonitor.obj
 0001:000048b0       ??0?$CComEnum@UIEnumConnectionPoints@@$1?_GUID_b196b285_bab4_101a_b69c_00aa00341d07@@3U__s_GUID@@BPAUIConnectionPoint@@V?$_CopyInterface@UIConnectionPoint@@@ATL@@VCComSingleThreadModel@6@@ATL@@QAE@XZ 100058b0 f i DeviceMonitor.obj
 0001:000048f0       ??0?$CComEnum@UIEnumConnections@@$1?_GUID_b196b287_bab4_101a_b69c_00aa00341d07@@3U__s_GUID@@BUtagCONNECTDATA@@V?$_Copy@UtagCONNECTDATA@@@ATL@@VCComSingleThreadModel@6@@ATL@@QAE@XZ 100058f0 f i DeviceMonitor.obj
 0001:00004930       ??0?$CComEnumImpl@UIEnumConnectionPoints@@$1?_GUID_b196b285_bab4_101a_b69c_00aa00341d07@@3U__s_GUID@@BPAUIConnectionPoint@@V?$_CopyInterface@UIConnectionPoint@@@ATL@@@ATL@@QAE@XZ 10005930 f i DeviceMonitor.obj
 0001:00004990       ??0?$CComEnumImpl@UIEnumConnections@@$1?_GUID_b196b287_bab4_101a_b69c_00aa00341d07@@3U__s_GUID@@BUtagCONNECTDATA@@V?$_Copy@UtagCONNECTDATA@@@ATL@@@ATL@@QAE@XZ 10005990 f i DeviceMonitor.obj
 0001:000049f0       ??0?$CComObject@V?$CComEnum@UIEnumConnectionPoints@@$1?_GUID_b196b285_bab4_101a_b69c_00aa00341d07@@3U__s_GUID@@BPAUIConnectionPoint@@V?$_CopyInterface@UIConnectionPoint@@@ATL@@VCComSingleThreadModel@6@@ATL@@@ATL@@QAE@PAX@Z 100059f0 f i DeviceMonitor.obj
 0001:00004a40       ??0?$CComObject@V?$CComEnum@UIEnumConnections@@$1?_GUID_b196b287_bab4_101a_b69c_00aa00341d07@@3U__s_GUID@@BUtagCONNECTDATA@@V?$_Copy@UtagCONNECTDATA@@@ATL@@VCComSingleThreadModel@6@@ATL@@@ATL@@QAE@PAX@Z 10005a40 f i DeviceMonitor.obj
 0001:00004a90       ??0?$CComObject@VCOPOSDeviceMonitor@@@ATL@@QAE@PAX@Z 10005a90 f i DeviceMonitor.obj
 0001:00004bb0       ??0?$CComObjectCached@VCComClassFactory@ATL@@@ATL@@QAE@PAX@Z 10005bb0 f i DeviceMonitor.obj
 0001:00004bf0       ??0?$CComObjectRootEx@VCComMultiThreadModel@ATL@@@ATL@@QAE@XZ 10005bf0 f i DeviceMonitor.obj
 0001:00004c30       ??0?$CComObjectRootEx@VCComSingleThreadModel@ATL@@@ATL@@QAE@XZ 10005c30 f i DeviceMonitor.obj
 0001:00004c60       ??0?$CComPtr@UIAdviseSink@@@ATL@@QAE@PAUIAdviseSink@@@Z 10005c60 f i DeviceMonitor.obj
 0001:00004c90       ??0?$CComPtr@UICatRegister@@@ATL@@QAE@XZ 10005c90 f i DeviceMonitor.obj
 0001:00004cc0       ??0?$CComPtr@UIConnectionPoint@@@ATL@@QAE@XZ 10005cc0 f i DeviceMonitor.obj
 0001:00004cf0       ??0?$CComPtr@UIConnectionPointContainer@@@ATL@@QAE@XZ 10005cf0 f i DeviceMonitor.obj
 0001:00004d20       ??0?$CComPtr@UIDataObject@@@ATL@@QAE@XZ 10005d20 f i DeviceMonitor.obj
 0001:00004d50       ??0?$CComPtr@UIDispatch@@@ATL@@QAE@XZ 10005d50 f i DeviceMonitor.obj
 0001:00004d80       ??0?$CComPtr@UIOleClientSite@@@ATL@@QAE@PAUIOleClientSite@@@Z 10005d80 f i DeviceMonitor.obj
 0001:00004db0       ??0?$CComPtr@UIOleControlSite@@@ATL@@QAE@XZ 10005db0 f i DeviceMonitor.obj
 0001:00004de0       ??0?$CComPtr@UIOleInPlaceActiveObject@@@ATL@@QAE@XZ 10005de0 f i DeviceMonitor.obj
 0001:00004e10       ??0?$CComPtr@UIOleInPlaceFrame@@@ATL@@QAE@XZ 10005e10 f i DeviceMonitor.obj
 0001:00004e40       ??0?$CComPtr@UIOleInPlaceObject@@@ATL@@QAE@XZ 10005e40 f i DeviceMonitor.obj
 0001:00004e70       ??0?$CComPtr@UIOleInPlaceUIWindow@@@ATL@@QAE@XZ 10005e70 f i DeviceMonitor.obj
 0001:00004ea0       ??0?$CComPtr@UIOleObject@@@ATL@@QAE@XZ 10005ea0 f i DeviceMonitor.obj
 0001:00004ed0       ??0?$CComPtr@UIPersistStream@@@ATL@@QAE@XZ 10005ed0 f i DeviceMonitor.obj
 0001:00004f00       ??0?$CComPtr@UIPersistStreamInit@@@ATL@@QAE@XZ 10005f00 f i DeviceMonitor.obj
 0001:00004f30       ??0?$CComPtr@UIPointerInactive@@@ATL@@QAE@XZ 10005f30 f i DeviceMonitor.obj
 0001:00004f60       ??0?$CComPtr@UIProvideClassInfo2@@@ATL@@QAE@XZ 10005f60 f i DeviceMonitor.obj
 0001:00004f90       ??0?$CComPtr@UISpecifyPropertyPages@@@ATL@@QAE@XZ 10005f90 f i DeviceMonitor.obj
 0001:00004fc0       ??0?$CComPtr@UIStream@@@ATL@@QAE@XZ 10005fc0 f i DeviceMonitor.obj
 0001:00004ff0       ??0?$CComPtr@UITypeInfo2@@@ATL@@QAE@XZ 10005ff0 f i DeviceMonitor.obj
 0001:00005020       ??0?$CComPtr@UITypeInfo@@@ATL@@QAE@ABV01@@Z 10006020 f i DeviceMonitor.obj
 0001:00005050       ??0?$CComPtr@UITypeInfo@@@ATL@@QAE@XZ 10006050 f i DeviceMonitor.obj
 0001:00005080       ??0?$CComPtr@UITypeLib@@@ATL@@QAE@XZ 10006080 f i DeviceMonitor.obj
 0001:000050b0       ??0?$CComPtr@UIUnknown@@@ATL@@QAE@ABV01@@Z 100060b0 f i DeviceMonitor.obj
 0001:000050e0       ??0?$CComPtr@UIUnknown@@@ATL@@QAE@PAUIUnknown@@@Z 100060e0 f i DeviceMonitor.obj
 0001:00005110       ??0?$CComPtr@UIUnknown@@@ATL@@QAE@XZ 10006110 f i DeviceMonitor.obj
 0001:00005140       ??0?$CComPtr@UIViewObjectEx@@@ATL@@QAE@XZ 10006140 f i DeviceMonitor.obj
 0001:00005170       ??0?$CComPtrBase@UIAdviseSink@@@ATL@@IAE@PAUIAdviseSink@@@Z 10006170 f i DeviceMonitor.obj
 0001:000051c0       ??0?$CComPtrBase@UICatRegister@@@ATL@@IAE@XZ 100061c0 f i DeviceMonitor.obj
 0001:000051e0       ??0?$CComPtrBase@UIConnectionPoint@@@ATL@@IAE@XZ 100061e0 f i DeviceMonitor.obj
 0001:00005200       ??0?$CComPtrBase@UIConnectionPointContainer@@@ATL@@IAE@XZ 10006200 f i DeviceMonitor.obj
 0001:00005220       ??0?$CComPtrBase@UIDataObject@@@ATL@@IAE@XZ 10006220 f i DeviceMonitor.obj
 0001:00005240       ??0?$CComPtrBase@UIDispatch@@@ATL@@IAE@XZ 10006240 f i DeviceMonitor.obj
 0001:00005260       ??0?$CComPtrBase@UIOleClientSite@@@ATL@@IAE@PAUIOleClientSite@@@Z 10006260 f i DeviceMonitor.obj
 0001:000052b0       ??0?$CComPtrBase@UIOleControlSite@@@ATL@@IAE@XZ 100062b0 f i DeviceMonitor.obj
 0001:000052d0       ??0?$CComPtrBase@UIOleInPlaceActiveObject@@@ATL@@IAE@XZ 100062d0 f i DeviceMonitor.obj
 0001:000052f0       ??0?$CComPtrBase@UIOleInPlaceFrame@@@ATL@@IAE@XZ 100062f0 f i DeviceMonitor.obj
 0001:00005310       ??0?$CComPtrBase@UIOleInPlaceObject@@@ATL@@IAE@XZ 10006310 f i DeviceMonitor.obj
 0001:00005330       ??0?$CComPtrBase@UIOleInPlaceUIWindow@@@ATL@@IAE@XZ 10006330 f i DeviceMonitor.obj
 0001:00005350       ??0?$CComPtrBase@UIOleObject@@@ATL@@IAE@XZ 10006350 f i DeviceMonitor.obj
 0001:00005370       ??0?$CComPtrBase@UIPersistStream@@@ATL@@IAE@XZ 10006370 f i DeviceMonitor.obj
 0001:00005390       ??0?$CComPtrBase@UIPersistStreamInit@@@ATL@@IAE@XZ 10006390 f i DeviceMonitor.obj
 0001:000053b0       ??0?$CComPtrBase@UIPointerInactive@@@ATL@@IAE@XZ 100063b0 f i DeviceMonitor.obj
 0001:000053d0       ??0?$CComPtrBase@UIProvideClassInfo2@@@ATL@@IAE@XZ 100063d0 f i DeviceMonitor.obj
 0001:000053f0       ??0?$CComPtrBase@UISpecifyPropertyPages@@@ATL@@IAE@XZ 100063f0 f i DeviceMonitor.obj
 0001:00005410       ??0?$CComPtrBase@UIStream@@@ATL@@IAE@XZ 10006410 f i DeviceMonitor.obj
 0001:00005430       ??0?$CComPtrBase@UITypeInfo2@@@ATL@@IAE@XZ 10006430 f i DeviceMonitor.obj
 0001:00005450       ??0?$CComPtrBase@UITypeInfo@@@ATL@@IAE@PAUITypeInfo@@@Z 10006450 f i DeviceMonitor.obj
 0001:000054a0       ??0?$CComPtrBase@UITypeInfo@@@ATL@@IAE@XZ 100064a0 f i DeviceMonitor.obj
 0001:000054c0       ??0?$CComPtrBase@UITypeLib@@@ATL@@IAE@XZ 100064c0 f i DeviceMonitor.obj
 0001:000054e0       ??0?$CComPtrBase@UIUnknown@@@ATL@@IAE@PAUIUnknown@@@Z 100064e0 f i DeviceMonitor.obj
 0001:00005530       ??0?$CComPtrBase@UIUnknown@@@ATL@@IAE@XZ 10006530 f i DeviceMonitor.obj
 0001:00005550       ??0?$CComPtrBase@UIViewObjectEx@@@ATL@@IAE@XZ 10006550 f i DeviceMonitor.obj
 0001:00005570       ??0?$CComQIPtr@UIOleControlSite@@$1?_GUID_b196b289_bab4_101a_b69c_00aa00341d07@@3U__s_GUID@@B@ATL@@QAE@PAUIUnknown@@@Z 10006570 f i DeviceMonitor.obj
 0001:000055d0       ??0?$CComQIPtr@UIOleObject@@$1?_GUID_00000112_0000_0000_c000_000000000046@@3U__s_GUID@@B@ATL@@QAE@XZ 100065d0 f i DeviceMonitor.obj
 0001:00005600       ??0?$CComQIPtr@UISpecifyPropertyPages@@$1?_GUID_b196b28b_bab4_101a_b69c_00aa00341d07@@3U__s_GUID@@B@ATL@@QAE@XZ 10006600 f i DeviceMonitor.obj
 0001:00005630       ??0?$CSimpleMap@PA_WPA_WVCExpansionVectorEqualHelper@ATL@@@ATL@@QAE@XZ 10006630 f i DeviceMonitor.obj
 0001:00005660       ??0?$CTempBuffer@E$0BAA@VCCRTAllocator@ATL@@@ATL@@QAE@XZ 10006660 f i DeviceMonitor.obj
 0001:00005680       ??0?$CTempBuffer@_W$0BAA@VCCRTAllocator@ATL@@@ATL@@QAE@XZ 10006680 f i DeviceMonitor.obj
 0001:000056a0       ??0?$CTempBuffer@_W$0EAA@VCCRTAllocator@ATL@@@ATL@@QAE@XZ 100066a0 f i DeviceMonitor.obj
 0001:000056c0       ??0?$Wrapper@PA_W@?$CSimpleMap@PA_WPA_WVCExpansionVectorEqualHelper@ATL@@@ATL@@QAE@ABQA_W@Z 100066c0 f i DeviceMonitor.obj
 0001:000056e0       ??0CAtlModule@ATL@@QAE@XZ  100066e0 f i DeviceMonitor.obj
 0001:00005800       ??0CComAutoDeleteCriticalSection@ATL@@QAE@XZ 10006800 f i DeviceMonitor.obj
 0001:00005830       ??0CComBSTR@ATL@@QAE@XZ    10006830 f i DeviceMonitor.obj
 0001:00005850       ??0CComClassFactory@ATL@@QAE@XZ 10006850 f i DeviceMonitor.obj
 0001:00005890       ??0CComModule@ATL@@QAE@XZ  10006890 f i DeviceMonitor.obj
 0001:00005900       ??0CComObjectRootBase@ATL@@QAE@XZ 10006900 f i DeviceMonitor.obj
 0001:00005920       ??0CComSafeDeleteCriticalSection@ATL@@QAE@XZ 10006920 f i DeviceMonitor.obj
 0001:00005950       ??0CComVariant@ATL@@QAE@XZ 10006950 f i DeviceMonitor.obj
 0001:000059a0       ??0CExpansionVector@ATL@@QAE@XZ 100069a0 f i DeviceMonitor.obj
 0001:000059d0       ??0CParseBuffer@CRegParser@ATL@@QAE@H@Z 100069d0 f i DeviceMonitor.obj
 0001:00005a40       ??0CRegKey@ATL@@QAE@PAUHKEY__@@@Z 10006a40 f i DeviceMonitor.obj
 0001:00005a70       ??0CRegKey@ATL@@QAE@PAVCAtlTransactionManager@1@@Z 10006a70 f i DeviceMonitor.obj
 0001:00005aa0       ??0CRegObject@ATL@@QAE@XZ  10006aa0 f i DeviceMonitor.obj
 0001:00005ae0       ??0CRegParser@ATL@@QAE@PAVCRegObject@1@@Z 10006ae0 f i DeviceMonitor.obj
 0001:00005b10       ??0IClassFactory@@QAE@XZ   10006b10 f i DeviceMonitor.obj
 0001:00005b40       ??0IEnumConnectionPoints@@QAE@XZ 10006b40 f i DeviceMonitor.obj
 0001:00005b70       ??0IEnumConnections@@QAE@XZ 10006b70 f i DeviceMonitor.obj
 0001:00005ba0       ??0IRegistrarBase@@QAE@XZ  10006ba0 f i DeviceMonitor.obj
 0001:00005bd0       ??0IUnknown@@QAE@XZ        10006bd0 f i DeviceMonitor.obj
 0001:00005be0       ??0ModuleLockHelper@ATL@@QAE@XZ 10006be0 f i DeviceMonitor.obj
 0001:00005c20       ??0OposVariant@@QAE@XZ     10006c20 f i DeviceMonitor.obj
 0001:00005c40       ??0Wrapper@?$CSimpleArray@GV?$CSimpleArrayEqualHelper@G@ATL@@@ATL@@QAE@ABG@Z 10006c40 f i DeviceMonitor.obj
 0001:00005c60       ??0_ATL_MODULE70@ATL@@QAE@XZ 10006c60 f i DeviceMonitor.obj
 0001:00005c90       ??0_ATL_MSG@ATL@@QAE@PAUHWND__@@IIJH@Z 10006c90 f i DeviceMonitor.obj
 0001:00005d00       ??0_U_MENUorID@ATL@@QAE@I@Z 10006d00 f i DeviceMonitor.obj
 0001:00005d20       ??0_U_RECT@ATL@@QAE@AAUtagRECT@@@Z 10006d20 f i DeviceMonitor.obj
 0001:00005d40       ??0stringdispid@CComTypeInfoHolder@ATL@@QAE@XZ 10006d40 f i DeviceMonitor.obj
 0001:00005d80       ??1?$CAtlModuleT@VCComModule@ATL@@@ATL@@UAE@XZ 10006d80 f i DeviceMonitor.obj
 0001:00005db0       ??1?$CAtlSafeAllocBufferManager@VCCRTAllocator@ATL@@@_ATL_SAFE_ALLOCA_IMPL@ATL@@QAE@XZ 10006db0 f i DeviceMonitor.obj
 0001:00005e00       ??1?$CAutoVectorPtr@_W@ATL@@QAE@XZ 10006e00 f i DeviceMonitor.obj
 0001:00005e30       ??1?$CComAggObject@VCOPOSDeviceMonitor@@@ATL@@UAE@XZ 10006e30 f i DeviceMonitor.obj
 0001:00005ea0       ??1?$CComContainedObject@VCOPOSDeviceMonitor@@@ATL@@UAE@XZ 10006ea0 f i DeviceMonitor.obj
 0001:00005ed0       ??1?$CComCritSecLock@VCComCriticalSection@ATL@@@ATL@@QAE@XZ 10006ed0 f i DeviceMonitor.obj
 0001:00005f00       ??1?$CComEnum@UIEnumConnectionPoints@@$1?_GUID_b196b285_bab4_101a_b69c_00aa00341d07@@3U__s_GUID@@BPAUIConnectionPoint@@V?$_CopyInterface@UIConnectionPoint@@@ATL@@VCComSingleThreadModel@6@@ATL@@UAE@XZ 10006f00 f i DeviceMonitor.obj
 0001:00005f30       ??1?$CComEnum@UIEnumConnections@@$1?_GUID_b196b287_bab4_101a_b69c_00aa00341d07@@3U__s_GUID@@BUtagCONNECTDATA@@V?$_Copy@UtagCONNECTDATA@@@ATL@@VCComSingleThreadModel@6@@ATL@@UAE@XZ 10006f30 f i DeviceMonitor.obj
 0001:00005f60       ??1?$CComEnumImpl@UIEnumConnectionPoints@@$1?_GUID_b196b285_bab4_101a_b69c_00aa00341d07@@3U__s_GUID@@BPAUIConnectionPoint@@V?$_CopyInterface@UIConnectionPoint@@@ATL@@@ATL@@UAE@XZ 10006f60 f i DeviceMonitor.obj
 0001:00005ff0       ??1?$CComEnumImpl@UIEnumConnections@@$1?_GUID_b196b287_bab4_101a_b69c_00aa00341d07@@3U__s_GUID@@BUtagCONNECTDATA@@V?$_Copy@UtagCONNECTDATA@@@ATL@@@ATL@@UAE@XZ 10006ff0 f i DeviceMonitor.obj
 0001:00006080       ??1?$CComObject@V?$CComEnum@UIEnumConnectionPoints@@$1?_GUID_b196b285_bab4_101a_b69c_00aa00341d07@@3U__s_GUID@@BPAUIConnectionPoint@@V?$_CopyInterface@UIConnectionPoint@@@ATL@@VCComSingleThreadModel@6@@ATL@@@ATL@@UAE@XZ 10007080 f i DeviceMonitor.obj
 0001:000060e0       ??1?$CComObject@V?$CComEnum@UIEnumConnections@@$1?_GUID_b196b287_bab4_101a_b69c_00aa00341d07@@3U__s_GUID@@BUtagCONNECTDATA@@V?$_Copy@UtagCONNECTDATA@@@ATL@@VCComSingleThreadModel@6@@ATL@@@ATL@@UAE@XZ 100070e0 f i DeviceMonitor.obj
 0001:00006140       ??1?$CComObject@VCOPOSDeviceMonitor@@@ATL@@UAE@XZ 10007140 f i DeviceMonitor.obj
 0001:00006280       ??1?$CComObjectCached@VCComClassFactory@ATL@@@ATL@@UAE@XZ 10007280 f i DeviceMonitor.obj
 0001:000062d0       ??1?$CComObjectRootEx@VCComMultiThreadModel@ATL@@@ATL@@QAE@XZ 100072d0 f i DeviceMonitor.obj
 0001:00006300       ??1?$CComObjectRootEx@VCComSingleThreadModel@ATL@@@ATL@@QAE@XZ 10007300 f i DeviceMonitor.obj
 0001:00006330       ??1?$CComPtr@UIAdviseSink@@@ATL@@QAE@XZ 10007330 f i DeviceMonitor.obj
 0001:00006360       ??1?$CComPtr@UICatRegister@@@ATL@@QAE@XZ 10007360 f i DeviceMonitor.obj
 0001:00006390       ??1?$CComPtr@UIConnectionPoint@@@ATL@@QAE@XZ 10007390 f i DeviceMonitor.obj
 0001:000063c0       ??1?$CComPtr@UIConnectionPointContainer@@@ATL@@QAE@XZ 100073c0 f i DeviceMonitor.obj
 0001:000063f0       ??1?$CComPtr@UIDataObject@@@ATL@@QAE@XZ 100073f0 f i DeviceMonitor.obj
 0001:00006420       ??1?$CComPtr@UIDispatch@@@ATL@@QAE@XZ 10007420 f i DeviceMonitor.obj
 0001:00006450       ??1?$CComPtr@UIOleClientSite@@@ATL@@QAE@XZ 10007450 f i DeviceMonitor.obj
 0001:00006480       ??1?$CComPtr@UIOleControlSite@@@ATL@@QAE@XZ 10007480 f i DeviceMonitor.obj
 0001:000064b0       ??1?$CComPtr@UIOleInPlaceActiveObject@@@ATL@@QAE@XZ 100074b0 f i DeviceMonitor.obj
 0001:000064e0       ??1?$CComPtr@UIOleInPlaceFrame@@@ATL@@QAE@XZ 100074e0 f i DeviceMonitor.obj
 0001:00006510       ??1?$CComPtr@UIOleInPlaceObject@@@ATL@@QAE@XZ 10007510 f i DeviceMonitor.obj
 0001:00006540       ??1?$CComPtr@UIOleInPlaceUIWindow@@@ATL@@QAE@XZ 10007540 f i DeviceMonitor.obj
 0001:00006570       ??1?$CComPtr@UIOleObject@@@ATL@@QAE@XZ 10007570 f i DeviceMonitor.obj
 0001:000065a0       ??1?$CComPtr@UIPersistStream@@@ATL@@QAE@XZ 100075a0 f i DeviceMonitor.obj
 0001:000065d0       ??1?$CComPtr@UIPersistStreamInit@@@ATL@@QAE@XZ 100075d0 f i DeviceMonitor.obj
 0001:00006600       ??1?$CComPtr@UIPointerInactive@@@ATL@@QAE@XZ 10007600 f i DeviceMonitor.obj
 0001:00006630       ??1?$CComPtr@UIProvideClassInfo2@@@ATL@@QAE@XZ 10007630 f i DeviceMonitor.obj
 0001:00006660       ??1?$CComPtr@UISpecifyPropertyPages@@@ATL@@QAE@XZ 10007660 f i DeviceMonitor.obj
 0001:00006690       ??1?$CComPtr@UIStream@@@ATL@@QAE@XZ 10007690 f i DeviceMonitor.obj
 0001:000066c0       ??1?$CComPtr@UITypeInfo2@@@ATL@@QAE@XZ 100076c0 f i DeviceMonitor.obj
 0001:000066f0       ??1?$CComPtr@UITypeInfo@@@ATL@@QAE@XZ 100076f0 f i DeviceMonitor.obj
 0001:00006720       ??1?$CComPtr@UITypeLib@@@ATL@@QAE@XZ 10007720 f i DeviceMonitor.obj
 0001:00006750       ??1?$CComPtr@UIUnknown@@@ATL@@QAE@XZ 10007750 f i DeviceMonitor.obj
 0001:00006780       ??1?$CComPtr@UIViewObjectEx@@@ATL@@QAE@XZ 10007780 f i DeviceMonitor.obj
 0001:000067b0       ??1?$CComPtrBase@UIAdviseSink@@@ATL@@QAE@XZ 100077b0 f i DeviceMonitor.obj
 0001:00006800       ??1?$CComPtrBase@UICatRegister@@@ATL@@QAE@XZ 10007800 f i DeviceMonitor.obj
 0001:00006850       ??1?$CComPtrBase@UIConnectionPoint@@@ATL@@QAE@XZ 10007850 f i DeviceMonitor.obj
 0001:000068a0       ??1?$CComPtrBase@UIConnectionPointContainer@@@ATL@@QAE@XZ 100078a0 f i DeviceMonitor.obj
 0001:000068f0       ??1?$CComPtrBase@UIDataObject@@@ATL@@QAE@XZ 100078f0 f i DeviceMonitor.obj
 0001:00006940       ??1?$CComPtrBase@UIDispatch@@@ATL@@QAE@XZ 10007940 f i DeviceMonitor.obj
 0001:00006990       ??1?$CComPtrBase@UIOleClientSite@@@ATL@@QAE@XZ 10007990 f i DeviceMonitor.obj
 0001:000069e0       ??1?$CComPtrBase@UIOleControlSite@@@ATL@@QAE@XZ 100079e0 f i DeviceMonitor.obj
 0001:00006a30       ??1?$CComPtrBase@UIOleInPlaceActiveObject@@@ATL@@QAE@XZ 10007a30 f i DeviceMonitor.obj
 0001:00006a80       ??1?$CComPtrBase@UIOleInPlaceFrame@@@ATL@@QAE@XZ 10007a80 f i DeviceMonitor.obj
 0001:00006ad0       ??1?$CComPtrBase@UIOleInPlaceObject@@@ATL@@QAE@XZ 10007ad0 f i DeviceMonitor.obj
 0001:00006b20       ??1?$CComPtrBase@UIOleInPlaceUIWindow@@@ATL@@QAE@XZ 10007b20 f i DeviceMonitor.obj
 0001:00006b70       ??1?$CComPtrBase@UIOleObject@@@ATL@@QAE@XZ 10007b70 f i DeviceMonitor.obj
 0001:00006bc0       ??1?$CComPtrBase@UIPersistStream@@@ATL@@QAE@XZ 10007bc0 f i DeviceMonitor.obj
 0001:00006c10       ??1?$CComPtrBase@UIPersistStreamInit@@@ATL@@QAE@XZ 10007c10 f i DeviceMonitor.obj
 0001:00006c60       ??1?$CComPtrBase@UIPointerInactive@@@ATL@@QAE@XZ 10007c60 f i DeviceMonitor.obj
 0001:00006cb0       ??1?$CComPtrBase@UIProvideClassInfo2@@@ATL@@QAE@XZ 10007cb0 f i DeviceMonitor.obj
 0001:00006d00       ??1?$CComPtrBase@UISpecifyPropertyPages@@@ATL@@QAE@XZ 10007d00 f i DeviceMonitor.obj
 0001:00006d50       ??1?$CComPtrBase@UIStream@@@ATL@@QAE@XZ 10007d50 f i DeviceMonitor.obj
 0001:00006da0       ??1?$CComPtrBase@UITypeInfo2@@@ATL@@QAE@XZ 10007da0 f i DeviceMonitor.obj
 0001:00006df0       ??1?$CComPtrBase@UITypeInfo@@@ATL@@QAE@XZ 10007df0 f i DeviceMonitor.obj
 0001:00006e40       ??1?$CComPtrBase@UITypeLib@@@ATL@@QAE@XZ 10007e40 f i DeviceMonitor.obj
 0001:00006e90       ??1?$CComPtrBase@UIUnknown@@@ATL@@QAE@XZ 10007e90 f i DeviceMonitor.obj
 0001:00006ee0       ??1?$CComPtrBase@UIViewObjectEx@@@ATL@@QAE@XZ 10007ee0 f i DeviceMonitor.obj
 0001:00006f30       ??1?$CComQIPtr@UIOleControlSite@@$1?_GUID_b196b289_bab4_101a_b69c_00aa00341d07@@3U__s_GUID@@B@ATL@@QAE@XZ 10007f30 f i DeviceMonitor.obj
 0001:00006f60       ??1?$CComQIPtr@UIOleObject@@$1?_GUID_00000112_0000_0000_c000_000000000046@@3U__s_GUID@@B@ATL@@QAE@XZ 10007f60 f i DeviceMonitor.obj
 0001:00006f90       ??1?$CComQIPtr@UISpecifyPropertyPages@@$1?_GUID_b196b28b_bab4_101a_b69c_00aa00341d07@@3U__s_GUID@@B@ATL@@QAE@XZ 10007f90 f i DeviceMonitor.obj
 0001:00006fc0       ??1?$CSimpleMap@PA_WPA_WVCExpansionVectorEqualHelper@ATL@@@ATL@@QAE@XZ 10007fc0 f i DeviceMonitor.obj
 0001:00006ff0       ??1?$CTempBuffer@E$0BAA@VCCRTAllocator@ATL@@@ATL@@QAE@XZ 10007ff0 f i DeviceMonitor.obj
 0001:00007030       ??1?$CTempBuffer@_W$0BAA@VCCRTAllocator@ATL@@@ATL@@QAE@XZ 10008030 f i DeviceMonitor.obj
 0001:00007070       ??1?$CTempBuffer@_W$0EAA@VCCRTAllocator@ATL@@@ATL@@QAE@XZ 10008070 f i DeviceMonitor.obj
 0001:000070b0       ??1CAtlModule@ATL@@UAE@XZ  100080b0 f i DeviceMonitor.obj
 0001:000070e0       ??1CComAutoDeleteCriticalSection@ATL@@QAE@XZ 100080e0 f i DeviceMonitor.obj
 0001:00007110       ??1CComClassFactory@ATL@@UAE@XZ 10008110 f i DeviceMonitor.obj
 0001:00007140       ??1CComModule@ATL@@UAE@XZ  10008140 f i DeviceMonitor.obj
 0001:00007170       ??1CComObjectRootBase@ATL@@QAE@XZ 10008170 f i DeviceMonitor.obj
 0001:00007180       ??1CComSafeDeleteCriticalSection@ATL@@QAE@XZ 10008180 f i DeviceMonitor.obj
 0001:000071c0       ??1CComVariant@ATL@@QAE@XZ 100081c0 f i DeviceMonitor.obj
 0001:00007220       ??1CExpansionVector@ATL@@QAE@XZ 10008220 f i DeviceMonitor.obj
 0001:00007250       ??1CParseBuffer@CRegParser@ATL@@QAE@XZ 10008250 f i DeviceMonitor.obj
 0001:00007290       ??1CRegKey@ATL@@QAE@XZ     10008290 f i DeviceMonitor.obj
 0001:000072c0       ??1CRegObject@ATL@@UAE@XZ  100082c0 f i DeviceMonitor.obj
 0001:00007300       ??1ModuleLockHelper@ATL@@QAE@XZ 10008300 f i DeviceMonitor.obj
 0001:00007340       ??1OposVariant@@QAE@XZ     10008340 f i DeviceMonitor.obj
 0001:00007370       ??1_ATL_MODULE70@ATL@@QAE@XZ 10008370 f i DeviceMonitor.obj
 0001:000073a0       ??4?$CComPtr@UIAdviseSink@@@ATL@@QAEPAUIAdviseSink@@PAU2@@Z 100083a0 f i DeviceMonitor.obj
 0001:00007400       ??4?$CComPtr@UIOleClientSite@@@ATL@@QAEPAUIOleClientSite@@PAU2@@Z 10008400 f i DeviceMonitor.obj
 0001:00007460       ??4?$CComPtr@UIUnknown@@@ATL@@QAEPAUIUnknown@@PAU2@@Z 10008460 f i DeviceMonitor.obj
 0001:000074c0       ??4?$CComQIPtr@UIOleObject@@$1?_GUID_00000112_0000_0000_c000_000000000046@@3U__s_GUID@@B@ATL@@QAEPAUIOleObject@@PAUIUnknown@@@Z 100084c0 f i DeviceMonitor.obj
 0001:00007510       ??4?$CComQIPtr@UISpecifyPropertyPages@@$1?_GUID_b196b28b_bab4_101a_b69c_00aa00341d07@@3U__s_GUID@@B@ATL@@QAEPAUISpecifyPropertyPages@@PAUIUnknown@@@Z 10008510 f i DeviceMonitor.obj
 0001:00007560       ??7?$CComPtrBase@UIOleClientSite@@@ATL@@QBE_NXZ 10008560 f i DeviceMonitor.obj
 0001:00007590       ??7?$CComPtrBase@UIOleInPlaceSiteWindowless@@@ATL@@QBE_NXZ 10008590 f i DeviceMonitor.obj
 0001:000075c0       ??7CComBSTR@ATL@@QBE_NXZ   100085c0 f i DeviceMonitor.obj
 0001:000075f0       ??8?$CComPtrBase@UIConnectionPointContainer@@@ATL@@QBE_NPAUIConnectionPointContainer@@@Z 100085f0 f i DeviceMonitor.obj
 0001:00007620       ??8?$CComPtrBase@UIDataAdviseHolder@@@ATL@@QBE_NPAUIDataAdviseHolder@@@Z 10008620 f i DeviceMonitor.obj
 0001:00007650       ??8?$CComPtrBase@UIOleAdviseHolder@@@ATL@@QBE_NPAUIOleAdviseHolder@@@Z 10008650 f i DeviceMonitor.obj
 0001:00007680       ??8?$CComPtrBase@UIOleClientSite@@@ATL@@QBE_NPAUIOleClientSite@@@Z 10008680 f i DeviceMonitor.obj
 0001:000076b0       ??8?$CComPtrBase@UIOleControlSite@@@ATL@@QBE_NPAUIOleControlSite@@@Z 100086b0 f i DeviceMonitor.obj
 0001:000076e0       ??8?$CComPtrBase@UIOleInPlaceObject@@@ATL@@QBE_NPAUIOleInPlaceObject@@@Z 100086e0 f i DeviceMonitor.obj
 0001:00007710       ??8?$CComPtrBase@UIOleInPlaceSiteWindowless@@@ATL@@QBE_NPAUIOleInPlaceSiteWindowless@@@Z 10008710 f i DeviceMonitor.obj
 0001:00007740       ??8?$CComPtrBase@UIOleObject@@@ATL@@QBE_NPAUIOleObject@@@Z 10008740 f i DeviceMonitor.obj
 0001:00007770       ??8?$CComPtrBase@UIPersistStream@@@ATL@@QBE_NPAUIPersistStream@@@Z 10008770 f i DeviceMonitor.obj
 0001:000077a0       ??8?$CComPtrBase@UIPersistStreamInit@@@ATL@@QBE_NPAUIPersistStreamInit@@@Z 100087a0 f i DeviceMonitor.obj
 0001:000077d0       ??8?$CComPtrBase@UIPointerInactive@@@ATL@@QBE_NPAUIPointerInactive@@@Z 100087d0 f i DeviceMonitor.obj
 0001:00007800       ??8?$CComPtrBase@UIUnknown@@@ATL@@QBE_NPAUIUnknown@@@Z 10008800 f i DeviceMonitor.obj
 0001:00007830       ??8?$CComPtrBase@UIViewObjectEx@@@ATL@@QBE_NPAUIViewObjectEx@@@Z 10008830 f i DeviceMonitor.obj
 0001:00007860       ??8CComBSTR@ATL@@QBE_NH@Z  10008860 f i DeviceMonitor.obj
 0001:000078c0       ??9?$CComPtrBase@UIConnectionPointContainer@@@ATL@@QBE_NPAUIConnectionPointContainer@@@Z 100088c0 f i DeviceMonitor.obj
 0001:00007910       ??9?$CComPtrBase@UIDataAdviseHolder@@@ATL@@QBE_NPAUIDataAdviseHolder@@@Z 10008910 f i DeviceMonitor.obj
 0001:00007960       ??9?$CComPtrBase@UIOleAdviseHolder@@@ATL@@QBE_NPAUIOleAdviseHolder@@@Z 10008960 f i DeviceMonitor.obj
 0001:000079b0       ??9?$CComPtrBase@UIOleClientSite@@@ATL@@QBE_NPAUIOleClientSite@@@Z 100089b0 f i DeviceMonitor.obj
 0001:00007a00       ??9?$CComPtrBase@UIOleControlSite@@@ATL@@QBE_NPAUIOleControlSite@@@Z 10008a00 f i DeviceMonitor.obj
 0001:00007a50       ??9?$CComPtrBase@UIOleInPlaceObject@@@ATL@@QBE_NPAUIOleInPlaceObject@@@Z 10008a50 f i DeviceMonitor.obj
 0001:00007aa0       ??9?$CComPtrBase@UIOleInPlaceSiteWindowless@@@ATL@@QBE_NPAUIOleInPlaceSiteWindowless@@@Z 10008aa0 f i DeviceMonitor.obj
 0001:00007af0       ??9?$CComPtrBase@UIOleObject@@@ATL@@QBE_NPAUIOleObject@@@Z 10008af0 f i DeviceMonitor.obj
 0001:00007b40       ??9?$CComPtrBase@UIPersistStream@@@ATL@@QBE_NPAUIPersistStream@@@Z 10008b40 f i DeviceMonitor.obj
 0001:00007b90       ??9?$CComPtrBase@UIPersistStreamInit@@@ATL@@QBE_NPAUIPersistStreamInit@@@Z 10008b90 f i DeviceMonitor.obj
 0001:00007be0       ??9?$CComPtrBase@UIPointerInactive@@@ATL@@QBE_NPAUIPointerInactive@@@Z 10008be0 f i DeviceMonitor.obj
 0001:00007c30       ??9?$CComPtrBase@UIUnknown@@@ATL@@QBE_NPAUIUnknown@@@Z 10008c30 f i DeviceMonitor.obj
 0001:00007c80       ??9?$CComPtrBase@UIViewObjectEx@@@ATL@@QBE_NPAUIViewObjectEx@@@Z 10008c80 f i DeviceMonitor.obj
 0001:00007cd0       ??9CComBSTR@ATL@@QBE_NH@Z  10008cd0 f i DeviceMonitor.obj
 0001:00007d20       ??B?$CComPtrBase@UIAdviseSink@@@ATL@@QBEPAUIAdviseSink@@XZ 10008d20 f i DeviceMonitor.obj
 0001:00007d30       ??B?$CComPtrBase@UIDataAdviseHolder@@@ATL@@QBEPAUIDataAdviseHolder@@XZ 10008d30 f i DeviceMonitor.obj
 0001:00007d40       ??B?$CComPtrBase@UIDataObject@@@ATL@@QBEPAUIDataObject@@XZ 10008d40 f i DeviceMonitor.obj
 0001:00007d50       ??B?$CComPtrBase@UIOleAdviseHolder@@@ATL@@QBEPAUIOleAdviseHolder@@XZ 10008d50 f i DeviceMonitor.obj
 0001:00007d60       ??B?$CComPtrBase@UIOleClientSite@@@ATL@@QBEPAUIOleClientSite@@XZ 10008d60 f i DeviceMonitor.obj
 0001:00007d70       ??B?$CComPtrBase@UIOleControlSite@@@ATL@@QBEPAUIOleControlSite@@XZ 10008d70 f i DeviceMonitor.obj
 0001:00007d80       ??B?$CComPtrBase@UIOleInPlaceActiveObject@@@ATL@@QBEPAUIOleInPlaceActiveObject@@XZ 10008d80 f i DeviceMonitor.obj
 0001:00007d90       ??B?$CComPtrBase@UIOleInPlaceFrame@@@ATL@@QBEPAUIOleInPlaceFrame@@XZ 10008d90 f i DeviceMonitor.obj
 0001:00007da0       ??B?$CComPtrBase@UIOleInPlaceSiteWindowless@@@ATL@@QBEPAUIOleInPlaceSiteWindowless@@XZ 10008da0 f i DeviceMonitor.obj
 0001:00007db0       ??B?$CComPtrBase@UIOleInPlaceUIWindow@@@ATL@@QBEPAUIOleInPlaceUIWindow@@XZ 10008db0 f i DeviceMonitor.obj
 0001:00007dc0       ??B?$CComPtrBase@UIOleObject@@@ATL@@QBEPAUIOleObject@@XZ 10008dc0 f i DeviceMonitor.obj
 0001:00007dd0       ??B?$CComPtrBase@UIPersistStream@@@ATL@@QBEPAUIPersistStream@@XZ 10008dd0 f i DeviceMonitor.obj
 0001:00007de0       ??B?$CComPtrBase@UIProvideClassInfo2@@@ATL@@QBEPAUIProvideClassInfo2@@XZ 10008de0 f i DeviceMonitor.obj
 0001:00007df0       ??B?$CComPtrBase@UISpecifyPropertyPages@@@ATL@@QBEPAUISpecifyPropertyPages@@XZ 10008df0 f i DeviceMonitor.obj
 0001:00007e00       ??B?$CComPtrBase@UIStream@@@ATL@@QBEPAUIStream@@XZ 10008e00 f i DeviceMonitor.obj
 0001:00007e10       ??B?$CComPtrBase@UITypeInfo2@@@ATL@@QBEPAUITypeInfo2@@XZ 10008e10 f i DeviceMonitor.obj
 0001:00007e20       ??B?$CComPtrBase@UITypeInfo@@@ATL@@QBEPAUITypeInfo@@XZ 10008e20 f i DeviceMonitor.obj
 0001:00007e30       ??B?$CComPtrBase@UITypeLib@@@ATL@@QBEPAUITypeLib@@XZ 10008e30 f i DeviceMonitor.obj
 0001:00007e40       ??B?$CComPtrBase@UIUnknown@@@ATL@@QBEPAUIUnknown@@XZ 10008e40 f i DeviceMonitor.obj
 0001:00007e50       ??B?$CTempBuffer@E$0BAA@VCCRTAllocator@ATL@@@ATL@@QBEPAEXZ 10008e50 f i DeviceMonitor.obj
 0001:00007e60       ??B?$CTempBuffer@_W$0BAA@VCCRTAllocator@ATL@@@ATL@@QBEPA_WXZ 10008e60 f i DeviceMonitor.obj
 0001:00007e70       ??B?$CTempBuffer@_W$0EAA@VCCRTAllocator@ATL@@@ATL@@QBEPA_WXZ 10008e70 f i DeviceMonitor.obj
 0001:00007e80       ??B?$CTraceCategoryEx@$00$0A@@ATL@@QAEIXZ 10008e80 f i DeviceMonitor.obj
 0001:00007e90       ??B?$CTraceCategoryEx@$07$0A@@ATL@@QAEIXZ 10008e90 f i DeviceMonitor.obj
 0001:00007ea0       ??B?$CTraceCategoryEx@$0CAAA@$0A@@ATL@@QAEIXZ 10008ea0 f i DeviceMonitor.obj
 0001:00007eb0       ??B?$CTraceCategoryEx@$0EA@$0A@@ATL@@QAEIXZ 10008eb0 f i DeviceMonitor.obj
 0001:00007ec0       ??B?$CTraceCategoryEx@$0IAA@$0A@@ATL@@QAEIXZ 10008ec0 f i DeviceMonitor.obj
 0001:00007ed0       ??BCComBSTR@ATL@@QBEPA_WXZ 10008ed0 f i DeviceMonitor.obj
 0001:00007ee0       ??BCRegKey@ATL@@QBEPAUHKEY__@@XZ 10008ee0 f i DeviceMonitor.obj
 0001:00007ef0       ??C?$CComPtrBase@UIAdviseSink@@@ATL@@QBEPAV?$_NoAddRefReleaseOnCComPtr@UIAdviseSink@@@1@XZ 10008ef0 f i DeviceMonitor.obj
 0001:00007f40       ??C?$CComPtrBase@UICatRegister@@@ATL@@QBEPAV?$_NoAddRefReleaseOnCComPtr@UICatRegister@@@1@XZ 10008f40 f i DeviceMonitor.obj
 0001:00007f90       ??C?$CComPtrBase@UIConnectionPoint@@@ATL@@QBEPAV?$_NoAddRefReleaseOnCComPtr@UIConnectionPoint@@@1@XZ 10008f90 f i DeviceMonitor.obj
 0001:00007fe0       ??C?$CComPtrBase@UIConnectionPointContainer@@@ATL@@QBEPAV?$_NoAddRefReleaseOnCComPtr@UIConnectionPointContainer@@@1@XZ 10008fe0 f i DeviceMonitor.obj
 0001:00008030       ??C?$CComPtrBase@UIDataAdviseHolder@@@ATL@@QBEPAV?$_NoAddRefReleaseOnCComPtr@UIDataAdviseHolder@@@1@XZ 10009030 f i DeviceMonitor.obj
 0001:00008080       ??C?$CComPtrBase@UIOleAdviseHolder@@@ATL@@QBEPAV?$_NoAddRefReleaseOnCComPtr@UIOleAdviseHolder@@@1@XZ 10009080 f i DeviceMonitor.obj
 0001:000080d0       ??C?$CComPtrBase@UIOleClientSite@@@ATL@@QBEPAV?$_NoAddRefReleaseOnCComPtr@UIOleClientSite@@@1@XZ 100090d0 f i DeviceMonitor.obj
 0001:00008120       ??C?$CComPtrBase@UIOleControlSite@@@ATL@@QBEPAV?$_NoAddRefReleaseOnCComPtr@UIOleControlSite@@@1@XZ 10009120 f i DeviceMonitor.obj
 0001:00008170       ??C?$CComPtrBase@UIOleInPlaceFrame@@@ATL@@QBEPAV?$_NoAddRefReleaseOnCComPtr@UIOleInPlaceFrame@@@1@XZ 10009170 f i DeviceMonitor.obj
 0001:000081c0       ??C?$CComPtrBase@UIOleInPlaceObject@@@ATL@@QBEPAV?$_NoAddRefReleaseOnCComPtr@UIOleInPlaceObject@@@1@XZ 100091c0 f i DeviceMonitor.obj
 0001:00008210       ??C?$CComPtrBase@UIOleInPlaceSiteWindowless@@@ATL@@QBEPAV?$_NoAddRefReleaseOnCComPtr@UIOleInPlaceSiteWindowless@@@1@XZ 10009210 f i DeviceMonitor.obj
 0001:00008260       ??C?$CComPtrBase@UIOleInPlaceUIWindow@@@ATL@@QBEPAV?$_NoAddRefReleaseOnCComPtr@UIOleInPlaceUIWindow@@@1@XZ 10009260 f i DeviceMonitor.obj
 0001:000082b0       ??C?$CComPtrBase@UIOleObject@@@ATL@@QBEPAV?$_NoAddRefReleaseOnCComPtr@UIOleObject@@@1@XZ 100092b0 f i DeviceMonitor.obj
 0001:00008300       ??C?$CComPtrBase@UIPersistStream@@@ATL@@QBEPAV?$_NoAddRefReleaseOnCComPtr@UIPersistStream@@@1@XZ 10009300 f i DeviceMonitor.obj
 0001:00008350       ??C?$CComPtrBase@UIPersistStreamInit@@@ATL@@QBEPAV?$_NoAddRefReleaseOnCComPtr@UIPersistStreamInit@@@1@XZ 10009350 f i DeviceMonitor.obj
 0001:000083a0       ??C?$CComPtrBase@UIPointerInactive@@@ATL@@QBEPAV?$_NoAddRefReleaseOnCComPtr@UIPointerInactive@@@1@XZ 100093a0 f i DeviceMonitor.obj
 0001:000083f0       ??C?$CComPtrBase@UIProvideClassInfo2@@@ATL@@QBEPAV?$_NoAddRefReleaseOnCComPtr@UIProvideClassInfo2@@@1@XZ 100093f0 f i DeviceMonitor.obj
 0001:00008440       ??C?$CComPtrBase@UISpecifyPropertyPages@@@ATL@@QBEPAV?$_NoAddRefReleaseOnCComPtr@UISpecifyPropertyPages@@@1@XZ 10009440 f i DeviceMonitor.obj
 0001:00008490       ??C?$CComPtrBase@UITypeInfo@@@ATL@@QBEPAV?$_NoAddRefReleaseOnCComPtr@UITypeInfo@@@1@XZ 10009490 f i DeviceMonitor.obj
 0001:000084e0       ??C?$CComPtrBase@UITypeLib@@@ATL@@QBEPAV?$_NoAddRefReleaseOnCComPtr@UITypeLib@@@1@XZ 100094e0 f i DeviceMonitor.obj
 0001:00008530       ??C?$CComPtrBase@UIUnknown@@@ATL@@QBEPAV?$_NoAddRefReleaseOnCComPtr@UIUnknown@@@1@XZ 10009530 f i DeviceMonitor.obj
 0001:00008580       ??C?$CComPtrBase@UIViewObjectEx@@@ATL@@QBEPAV?$_NoAddRefReleaseOnCComPtr@UIViewObjectEx@@@1@XZ 10009580 f i DeviceMonitor.obj
 0001:000085d0       ??I?$CComPtrBase@UICatRegister@@@ATL@@QAEPAPAUICatRegister@@XZ 100095d0 f i DeviceMonitor.obj
 0001:00008620       ??I?$CComPtrBase@UIConnectionPoint@@@ATL@@QAEPAPAUIConnectionPoint@@XZ 10009620 f i DeviceMonitor.obj
 0001:00008670       ??I?$CComPtrBase@UIConnectionPointContainer@@@ATL@@QAEPAPAUIConnectionPointContainer@@XZ 10009670 f i DeviceMonitor.obj
 0001:000086c0       ??I?$CComPtrBase@UIDataAdviseHolder@@@ATL@@QAEPAPAUIDataAdviseHolder@@XZ 100096c0 f i DeviceMonitor.obj
 0001:00008710       ??I?$CComPtrBase@UIDataObject@@@ATL@@QAEPAPAUIDataObject@@XZ 10009710 f i DeviceMonitor.obj
 0001:00008760       ??I?$CComPtrBase@UIDispatch@@@ATL@@QAEPAPAUIDispatch@@XZ 10009760 f i DeviceMonitor.obj
 0001:000087b0       ??I?$CComPtrBase@UIOleAdviseHolder@@@ATL@@QAEPAPAUIOleAdviseHolder@@XZ 100097b0 f i DeviceMonitor.obj
 0001:00008800       ??I?$CComPtrBase@UIOleControlSite@@@ATL@@QAEPAPAUIOleControlSite@@XZ 10009800 f i DeviceMonitor.obj
 0001:00008850       ??I?$CComPtrBase@UIOleInPlaceActiveObject@@@ATL@@QAEPAPAUIOleInPlaceActiveObject@@XZ 10009850 f i DeviceMonitor.obj
 0001:000088a0       ??I?$CComPtrBase@UIOleInPlaceFrame@@@ATL@@QAEPAPAUIOleInPlaceFrame@@XZ 100098a0 f i DeviceMonitor.obj
 0001:000088f0       ??I?$CComPtrBase@UIOleInPlaceObject@@@ATL@@QAEPAPAUIOleInPlaceObject@@XZ 100098f0 f i DeviceMonitor.obj
 0001:00008940       ??I?$CComPtrBase@UIOleInPlaceSiteWindowless@@@ATL@@QAEPAPAUIOleInPlaceSiteWindowless@@XZ 10009940 f i DeviceMonitor.obj
 0001:00008990       ??I?$CComPtrBase@UIOleInPlaceUIWindow@@@ATL@@QAEPAPAUIOleInPlaceUIWindow@@XZ 10009990 f i DeviceMonitor.obj
 0001:000089e0       ??I?$CComPtrBase@UIOleObject@@@ATL@@QAEPAPAUIOleObject@@XZ 100099e0 f i DeviceMonitor.obj
 0001:00008a30       ??I?$CComPtrBase@UIPersistStream@@@ATL@@QAEPAPAUIPersistStream@@XZ 10009a30 f i DeviceMonitor.obj
 0001:00008a80       ??I?$CComPtrBase@UIPointerInactive@@@ATL@@QAEPAPAUIPointerInactive@@XZ 10009a80 f i DeviceMonitor.obj
 0001:00008ad0       ??I?$CComPtrBase@UIProvideClassInfo2@@@ATL@@QAEPAPAUIProvideClassInfo2@@XZ 10009ad0 f i DeviceMonitor.obj
 0001:00008b20       ??I?$CComPtrBase@UIStream@@@ATL@@QAEPAPAUIStream@@XZ 10009b20 f i DeviceMonitor.obj
 0001:00008b70       ??I?$CComPtrBase@UITypeInfo2@@@ATL@@QAEPAPAUITypeInfo2@@XZ 10009b70 f i DeviceMonitor.obj
 0001:00008bc0       ??I?$CComPtrBase@UITypeInfo@@@ATL@@QAEPAPAUITypeInfo@@XZ 10009bc0 f i DeviceMonitor.obj
 0001:00008c10       ??I?$CComPtrBase@UITypeLib@@@ATL@@QAEPAPAUITypeLib@@XZ 10009c10 f i DeviceMonitor.obj
 0001:00008c60       ??I?$CComPtrBase@UIUnknown@@@ATL@@QAEPAPAUIUnknown@@XZ 10009c60 f i DeviceMonitor.obj
 0001:00008cb0       ??I?$CComPtrBase@UIViewObjectEx@@@ATL@@QAEPAPAUIViewObjectEx@@XZ 10009cb0 f i DeviceMonitor.obj
 0001:00008d00       ??ICComBSTR@ATL@@QAEPAPA_WXZ 10009d00 f i DeviceMonitor.obj
 0001:00008d0e       ??_E?$CComContainedObject@VCOPOSDeviceMonitor@@@ATL@@W3AEPAXI@Z 10009d0e f i DeviceMonitor.obj
 0001:00008d16       ??_E?$CComContainedObject@VCOPOSDeviceMonitor@@@ATL@@WEM@AEPAXI@Z 10009d16 f i DeviceMonitor.obj
 0001:00008d1e       ??_E?$CComObject@VCOPOSDeviceMonitor@@@ATL@@W3AEPAXI@Z 10009d1e f i DeviceMonitor.obj
 0001:00008d26       ??_E?$CComObject@VCOPOSDeviceMonitor@@@ATL@@WEM@AEPAXI@Z 10009d26 f i DeviceMonitor.obj
 0001:00008d30       ??_E?$CComAggObject@VCOPOSDeviceMonitor@@@ATL@@UAEPAXI@Z 10009d30 f i DeviceMonitor.obj
 0001:00008d30       ??_G?$CComAggObject@VCOPOSDeviceMonitor@@@ATL@@UAEPAXI@Z 10009d30 f i DeviceMonitor.obj
 0001:00008d80       ??_G?$CComContainedObject@VCOPOSDeviceMonitor@@@ATL@@UAEPAXI@Z 10009d80 f i DeviceMonitor.obj
 0001:00008d80       ??_E?$CComContainedObject@VCOPOSDeviceMonitor@@@ATL@@UAEPAXI@Z 10009d80 f i DeviceMonitor.obj
 0001:00008dd0       ??_G?$CComObject@V?$CComEnum@UIEnumConnectionPoints@@$1?_GUID_b196b285_bab4_101a_b69c_00aa00341d07@@3U__s_GUID@@BPAUIConnectionPoint@@V?$_CopyInterface@UIConnectionPoint@@@ATL@@VCComSingleThreadModel@6@@ATL@@@ATL@@UAEPAXI@Z 10009dd0 f i DeviceMonitor.obj
 0001:00008dd0       ??_E?$CComObject@V?$CComEnum@UIEnumConnectionPoints@@$1?_GUID_b196b285_bab4_101a_b69c_00aa00341d07@@3U__s_GUID@@BPAUIConnectionPoint@@V?$_CopyInterface@UIConnectionPoint@@@ATL@@VCComSingleThreadModel@6@@ATL@@@ATL@@UAEPAXI@Z 10009dd0 f i DeviceMonitor.obj
 0001:00008e10       ??_E?$CComObject@V?$CComEnum@UIEnumConnections@@$1?_GUID_b196b287_bab4_101a_b69c_00aa00341d07@@3U__s_GUID@@BUtagCONNECTDATA@@V?$_Copy@UtagCONNECTDATA@@@ATL@@VCComSingleThreadModel@6@@ATL@@@ATL@@UAEPAXI@Z 10009e10 f i DeviceMonitor.obj
 0001:00008e10       ??_G?$CComObject@V?$CComEnum@UIEnumConnections@@$1?_GUID_b196b287_bab4_101a_b69c_00aa00341d07@@3U__s_GUID@@BUtagCONNECTDATA@@V?$_Copy@UtagCONNECTDATA@@@ATL@@VCComSingleThreadModel@6@@ATL@@@ATL@@UAEPAXI@Z 10009e10 f i DeviceMonitor.obj
 0001:00008e50       ??_E?$CComObject@VCOPOSDeviceMonitor@@@ATL@@UAEPAXI@Z 10009e50 f i DeviceMonitor.obj
 0001:00008e50       ??_G?$CComObject@VCOPOSDeviceMonitor@@@ATL@@UAEPAXI@Z 10009e50 f i DeviceMonitor.obj
 0001:00008ea0       ??_E?$CComObjectCached@VCComClassFactory@ATL@@@ATL@@UAEPAXI@Z 10009ea0 f i DeviceMonitor.obj
 0001:00008ea0       ??_G?$CComObjectCached@VCComClassFactory@ATL@@@ATL@@UAEPAXI@Z 10009ea0 f i DeviceMonitor.obj
 0001:00008ee0       ??_ECComClassFactory@ATL@@UAEPAXI@Z 10009ee0 f i DeviceMonitor.obj
 0001:00008ee0       ??_GCComClassFactory@ATL@@UAEPAXI@Z 10009ee0 f i DeviceMonitor.obj
 0001:00008f20       ??_ECComModule@ATL@@UAEPAXI@Z 10009f20 f i DeviceMonitor.obj
 0001:00008f20       ??_GCComModule@ATL@@UAEPAXI@Z 10009f20 f i DeviceMonitor.obj
 0001:00008f60       ??_ECRegObject@ATL@@UAEPAXI@Z 10009f60 f i DeviceMonitor.obj
 0001:00008f60       ??_GCRegObject@ATL@@UAEPAXI@Z 10009f60 f i DeviceMonitor.obj
 0001:00008fa0       ?Add@?$CSimpleArray@GV?$CSimpleArrayEqualHelper@G@ATL@@@ATL@@QAEHABG@Z 10009fa0 f i DeviceMonitor.obj
 0001:000090f0       ?Add@?$CSimpleMap@PA_WPA_WVCExpansionVectorEqualHelper@ATL@@@ATL@@QAEHABQA_W0@Z 1000a0f0 f i DeviceMonitor.obj
 0001:000091b0       ?Add@CComDynamicUnkArray@ATL@@QAEKPAUIUnknown@@@Z 1000a1b0 f i DeviceMonitor.obj
 0001:00009350       ?Add@CExpansionVector@ATL@@QAEHPB_W0@Z 1000a350 f i DeviceMonitor.obj
 0001:000095e0       ?AddChar@CParseBuffer@CRegParser@ATL@@QAEHPB_W@Z 1000a5e0 f i DeviceMonitor.obj
 0001:00009620       ?AddCommonRGSReplacements@?$CAtlModuleT@VCComModule@ATL@@@ATL@@UAEJPAUIRegistrarBase@@@Z 1000a620 f i DeviceMonitor.obj
 0001:00009670       ?AddCreateWndData@CAtlWinModule@ATL@@QAEXPAU_AtlCreateWndData@2@PAX@Z 1000a670 f i DeviceMonitor.obj
 0001:000096a0       ?AddRef@?$CComAggObject@VCOPOSDeviceMonitor@@@ATL@@UAGKXZ 1000a6a0 f i DeviceMonitor.obj
 0001:000096c0       ?AddRef@?$CComContainedObject@VCOPOSDeviceMonitor@@@ATL@@UAGKXZ 1000a6c0 f i DeviceMonitor.obj
 0001:000096dc       ?AddRef@?$CComContainedObject@VCOPOSDeviceMonitor@@@ATL@@WHA@AGKXZ 1000a6dc f i DeviceMonitor.obj
 0001:000096e6       ?AddRef@?$CComContainedObject@VCOPOSDeviceMonitor@@@ATL@@WHE@AGKXZ 1000a6e6 f i DeviceMonitor.obj
 0001:000096f0       ?AddRef@?$CComContainedObject@VCOPOSDeviceMonitor@@@ATL@@WHI@AGKXZ 1000a6f0 f i DeviceMonitor.obj
 0001:000096fa       ?AddRef@?$CComContainedObject@VCOPOSDeviceMonitor@@@ATL@@WHM@AGKXZ 1000a6fa f i DeviceMonitor.obj
 0001:00009704       ?AddRef@?$CComContainedObject@VCOPOSDeviceMonitor@@@ATL@@WIA@AGKXZ 1000a704 f i DeviceMonitor.obj
 0001:00009711       ?AddRef@?$CComContainedObject@VCOPOSDeviceMonitor@@@ATL@@WIE@AGKXZ 1000a711 f i DeviceMonitor.obj
 0001:0000971e       ?AddRef@?$CComContainedObject@VCOPOSDeviceMonitor@@@ATL@@WII@AGKXZ 1000a71e f i DeviceMonitor.obj
 0001:0000972b       ?AddRef@?$CComContainedObject@VCOPOSDeviceMonitor@@@ATL@@WIM@AGKXZ 1000a72b f i DeviceMonitor.obj
 0001:00009738       ?AddRef@?$CComContainedObject@VCOPOSDeviceMonitor@@@ATL@@WJA@AGKXZ 1000a738 f i DeviceMonitor.obj
 0001:00009745       ?AddRef@?$CComContainedObject@VCOPOSDeviceMonitor@@@ATL@@WJE@AGKXZ 1000a745 f i DeviceMonitor.obj
 0001:00009752       ?AddRef@?$CComContainedObject@VCOPOSDeviceMonitor@@@ATL@@WJI@AGKXZ 1000a752 f i DeviceMonitor.obj
 0001:0000975f       ?AddRef@?$CComContainedObject@VCOPOSDeviceMonitor@@@ATL@@WJM@AGKXZ 1000a75f f i DeviceMonitor.obj
 0001:0000976c       ?AddRef@?$CComContainedObject@VCOPOSDeviceMonitor@@@ATL@@WKA@AGKXZ 1000a76c f i DeviceMonitor.obj
 0001:00009779       ?AddRef@?$CComContainedObject@VCOPOSDeviceMonitor@@@ATL@@WKI@AGKXZ 1000a779 f i DeviceMonitor.obj
 0001:00009786       ?AddRef@?$CComContainedObject@VCOPOSDeviceMonitor@@@ATL@@WLE@AGKXZ 1000a786 f i DeviceMonitor.obj
 0001:000097a0       ?AddRef@?$CComObject@V?$CComEnum@UIEnumConnectionPoints@@$1?_GUID_b196b285_bab4_101a_b69c_00aa00341d07@@3U__s_GUID@@BPAUIConnectionPoint@@V?$_CopyInterface@UIConnectionPoint@@@ATL@@VCComSingleThreadModel@6@@ATL@@@ATL@@UAGKXZ 1000a7a0 f i DeviceMonitor.obj
 0001:000097c0       ?AddRef@?$CComObject@V?$CComEnum@UIEnumConnections@@$1?_GUID_b196b287_bab4_101a_b69c_00aa00341d07@@3U__s_GUID@@BUtagCONNECTDATA@@V?$_Copy@UtagCONNECTDATA@@@ATL@@VCComSingleThreadModel@6@@ATL@@@ATL@@UAGKXZ 1000a7c0 f i DeviceMonitor.obj
 0001:000097e0       ?AddRef@?$CComObject@VCOPOSDeviceMonitor@@@ATL@@UAGKXZ 1000a7e0 f i DeviceMonitor.obj
 0001:000097fc       ?AddRef@?$CComObject@VCOPOSDeviceMonitor@@@ATL@@WHA@AGKXZ 1000a7fc f i DeviceMonitor.obj
 0001:00009806       ?AddRef@?$CComObject@VCOPOSDeviceMonitor@@@ATL@@WHE@AGKXZ 1000a806 f i DeviceMonitor.obj
 0001:00009810       ?AddRef@?$CComObject@VCOPOSDeviceMonitor@@@ATL@@WHI@AGKXZ 1000a810 f i DeviceMonitor.obj
 0001:0000981a       ?AddRef@?$CComObject@VCOPOSDeviceMonitor@@@ATL@@WHM@AGKXZ 1000a81a f i DeviceMonitor.obj
 0001:00009824       ?AddRef@?$CComObject@VCOPOSDeviceMonitor@@@ATL@@WIA@AGKXZ 1000a824 f i DeviceMonitor.obj
 0001:00009831       ?AddRef@?$CComObject@VCOPOSDeviceMonitor@@@ATL@@WIE@AGKXZ 1000a831 f i DeviceMonitor.obj
 0001:0000983e       ?AddRef@?$CComObject@VCOPOSDeviceMonitor@@@ATL@@WII@AGKXZ 1000a83e f i DeviceMonitor.obj
 0001:0000984b       ?AddRef@?$CComObject@VCOPOSDeviceMonitor@@@ATL@@WIM@AGKXZ 1000a84b f i DeviceMonitor.obj
 0001:00009858       ?AddRef@?$CComObject@VCOPOSDeviceMonitor@@@ATL@@WJA@AGKXZ 1000a858 f i DeviceMonitor.obj
 0001:00009865       ?AddRef@?$CComObject@VCOPOSDeviceMonitor@@@ATL@@WJE@AGKXZ 1000a865 f i DeviceMonitor.obj
 0001:00009872       ?AddRef@?$CComObject@VCOPOSDeviceMonitor@@@ATL@@WJI@AGKXZ 1000a872 f i DeviceMonitor.obj
 0001:0000987f       ?AddRef@?$CComObject@VCOPOSDeviceMonitor@@@ATL@@WJM@AGKXZ 1000a87f f i DeviceMonitor.obj
 0001:0000988c       ?AddRef@?$CComObject@VCOPOSDeviceMonitor@@@ATL@@WKA@AGKXZ 1000a88c f i DeviceMonitor.obj
 0001:00009899       ?AddRef@?$CComObject@VCOPOSDeviceMonitor@@@ATL@@WKI@AGKXZ 1000a899 f i DeviceMonitor.obj
 0001:000098a6       ?AddRef@?$CComObject@VCOPOSDeviceMonitor@@@ATL@@WLE@AGKXZ 1000a8a6 f i DeviceMonitor.obj
 0001:000098c0       ?AddRef@?$CComObjectCached@VCComClassFactory@ATL@@@ATL@@UAGKXZ 1000a8c0 f i DeviceMonitor.obj
 0001:00009910       ?AddRef@CRegObject@ATL@@UAGKXZ 1000a910 f i DeviceMonitor.obj
 0001:00009960       ?AddReplacement@CRegObject@ATL@@UAGJPB_W0@Z 1000a960 f i DeviceMonitor.obj
 0001:00009a70       ?AddString@CParseBuffer@CRegParser@ATL@@QAEHPB_W@Z 1000aa70 f i DeviceMonitor.obj
 0001:00009b60       ?AddTermFunc@CAtlModule@ATL@@QAEJP6GXK@ZK@Z 1000ab60 f i DeviceMonitor.obj
 0001:00009bb0       ?AddValue@CRegParser@ATL@@IAEJAAVCRegKey@2@PB_WPA_W@Z 1000abb0 f i DeviceMonitor.obj
 0001:0000a340       ?Advise@?$CProxy_IOPOSEvents@VCOPOSDeviceMonitor@@@@UAGJPAUIUnknown@@PAK@Z 1000b340 f i DeviceMonitor.obj
 0001:0000a390       ?Advise@?$IConnectionPointImpl@VCOPOSDeviceMonitor@@$1?DIID__IOPOSDeviceMonitorEvents@@3U_GUID@@BVCComDynamicUnkArray@ATL@@@ATL@@UAGJPAUIUnknown@@PAK@Z 1000b390 f i DeviceMonitor.obj
 0001:0000a530       ?Advise@?$IConnectionPointImpl@VCOPOSDeviceMonitor@@$1?IID_IPropertyNotifySink@@3U_GUID@@BVCComDynamicUnkArray@ATL@@@ATL@@UAGJPAUIUnknown@@PAK@Z 1000b530 f i DeviceMonitor.obj
 0001:0000a6d0       ?Advise@?$IOleObjectImpl@VCOPOSDeviceMonitor@@@ATL@@UAGJPAUIAdviseSink@@PAK@Z 1000b6d0 f i DeviceMonitor.obj
 0001:0000a760       ?Allocate@?$CAtlSafeAllocBufferManager@VCCRTAllocator@ATL@@@_ATL_SAFE_ALLOCA_IMPL@ATL@@QAEPAXK@Z 1000b760 f i DeviceMonitor.obj
 0001:0000a7d0       ?Allocate@?$CTempBuffer@E$0BAA@VCCRTAllocator@ATL@@@ATL@@QAEPAEI@Z 1000b7d0 f i DeviceMonitor.obj
 0001:0000a810       ?Allocate@?$CTempBuffer@_W$0BAA@VCCRTAllocator@ATL@@@ATL@@QAEPA_WI@Z 1000b810 f i DeviceMonitor.obj
 0001:0000a850       ?Allocate@?$CTempBuffer@_W$0EAA@VCCRTAllocator@ATL@@@ATL@@QAEPA_WI@Z 1000b850 f i DeviceMonitor.obj
 0001:0000a890       ?AllocateBytes@?$CTempBuffer@E$0BAA@VCCRTAllocator@ATL@@@ATL@@QAEPAEI@Z 1000b890 f i DeviceMonitor.obj
 0001:0000a910       ?AllocateBytes@?$CTempBuffer@_W$0BAA@VCCRTAllocator@ATL@@@ATL@@QAEPA_WI@Z 1000b910 f i DeviceMonitor.obj
 0001:0000a990       ?AllocateBytes@?$CTempBuffer@_W$0EAA@VCCRTAllocator@ATL@@@ATL@@QAEPA_WI@Z 1000b990 f i DeviceMonitor.obj
 0001:0000aa10       ?AllocateHeap@?$CTempBuffer@E$0BAA@VCCRTAllocator@ATL@@@ATL@@AAEXI@Z 1000ba10 f i DeviceMonitor.obj
 0001:0000aa60       ?AllocateHeap@?$CTempBuffer@_W$0BAA@VCCRTAllocator@ATL@@@ATL@@AAEXI@Z 1000ba60 f i DeviceMonitor.obj
 0001:0000aab0       ?AllocateHeap@?$CTempBuffer@_W$0EAA@VCCRTAllocator@ATL@@@ATL@@AAEXI@Z 1000bab0 f i DeviceMonitor.obj
 0001:0000ab00       ?Append@CParseBuffer@CRegParser@ATL@@QAEHPB_WH@Z 1000bb00 f i DeviceMonitor.obj
 0001:0000aca0       ?AtlCallTermFunc@ATL@@YGXPAU_ATL_MODULE70@1@@Z 1000bca0 f i DeviceMonitor.obj
 0001:0000ad40       ?AtlCoTaskMemCAlloc@ATL@@YAPAXKK@Z 1000bd40 f i DeviceMonitor.obj
 0001:0000add0       ?AtlCoTaskMemRecalloc@ATL@@YAPAXPAXKK@Z 1000bdd0 f i DeviceMonitor.obj
 0001:0000ae70       ?AtlComModuleGetClassObject@ATL@@YGJPAU_ATL_COM_MODULE70@1@ABU_GUID@@1PAPAX@Z 1000be70 f i DeviceMonitor.obj
 0001:0000b100       ?AtlComModuleRegisterServer@ATL@@YGJPAU_ATL_COM_MODULE70@1@HPBU_GUID@@@Z 1000c100 f i DeviceMonitor.obj
 0001:0000b290       ?AtlComModuleUnregisterServer@ATL@@YGJPAU_ATL_COM_MODULE70@1@HPBU_GUID@@@Z 1000c290 f i DeviceMonitor.obj
 0001:0000b3c0       ?AtlComQIPtrAssign2@ATL@@YAXPAPAUIUnknown@@PAU2@ABU_GUID@@@Z 1000c3c0 f i DeviceMonitor.obj
 0001:0000b440       ?AtlCreateTargetDC@ATL@@YGPAUHDC__@@PAU2@PAUtagDVTARGETDEVICE@@@Z 1000c440 f i DeviceMonitor.obj
 0001:0000b5e0       ?AtlCrtErrorCheck@ATL@@YAHH@Z 1000c5e0 f i DeviceMonitor.obj
 0001:0000b6b0       ?AtlGetPerUserRegistration@ATL@@YGJPA_N@Z 1000c6b0 f i DeviceMonitor.obj
 0001:0000b6e0       ?AtlHiMetricToPixel@ATL@@YGXPBUtagSIZE@@PAU2@@Z 1000c6e0 f i DeviceMonitor.obj
 0001:0000b8b0       ?AtlHresultFromLastError@ATL@@YAJXZ 1000c8b0 f i DeviceMonitor.obj
 0001:0000b8f0       ?AtlHresultFromWin32@ATL@@YAJK@Z 1000c8f0 f i DeviceMonitor.obj
 0001:0000b910       ?AtlIPersistStreamInit_Load@ATL@@YGJPAUIStream@@PBUATL_PROPMAP_ENTRY@1@PAXPAUIUnknown@@@Z 1000c910 f i DeviceMonitor.obj
 0001:0000bd70       ?AtlIPersistStreamInit_Save@ATL@@YGJPAUIStream@@HPBUATL_PROPMAP_ENTRY@1@PAXPAUIUnknown@@@Z 1000cd70 f i DeviceMonitor.obj
 0001:0000c150       ?AtlInternalOleLoadFromStream@ATL@@YAJPAUIStream@@ABU_GUID@@PAPAXTClassesAllowedInStream@1@K@Z 1000d150 f i DeviceMonitor.obj
 0001:0000c3f0       ?AtlInternalQueryInterface@ATL@@YGJPAXPBU_ATL_INTMAP_ENTRY@1@ABU_GUID@@PAPAX@Z 1000d3f0 f i DeviceMonitor.obj
 0001:0000c620       ?AtlLoadTypeLib@ATL@@YGJPAUHINSTANCE__@@PB_WPAPA_WPAPAUITypeLib@@@Z 1000d620 f i DeviceMonitor.obj
 0001:0000ca80       ?AtlModuleAddTermFunc@ATL@@YGJPAU_ATL_MODULE70@1@P6GXK@ZK@Z 1000da80 f i DeviceMonitor.obj
 0001:0000cbe0       ?AtlRegisterClassCategoriesHelper@ATL@@YGJABU_GUID@@PBU_ATL_CATMAP_ENTRY@1@H@Z 1000dbe0 f i DeviceMonitor.obj
 0001:0000d2c0       ?AtlRegisterTypeLib@ATL@@YGJPAUHINSTANCE__@@PB_W@Z 1000e2c0 f i DeviceMonitor.obj
 0001:0000d600       ?AtlThrowImpl@ATL@@YGXJ@Z  1000e600 f i DeviceMonitor.obj
 0001:0000d6b0       ?AtlUnRegisterTypeLib@ATL@@YGJPAUHINSTANCE__@@PB_W@Z 1000e6b0 f i DeviceMonitor.obj
 0001:0000d8c0       ?AtlWinModuleAddCreateWndData@ATL@@YGXPAU_ATL_WIN_MODULE70@1@PAU_AtlCreateWndData@1@PAX@Z 1000e8c0 f i DeviceMonitor.obj
 0001:0000da30       ?AtlWinModuleExtractCreateWndData@ATL@@YGPAXPAU_ATL_WIN_MODULE70@1@@Z 1000ea30 f i DeviceMonitor.obj
 0001:0000dbb0       ?AtlWinModuleRegisterClassExW@ATL@@YGGPAU_ATL_WIN_MODULE70@1@PBUtagWNDCLASSEXW@@@Z 1000ebb0 f i DeviceMonitor.obj
 0001:0000dc80       ?AtlWinModuleRegisterWndClassInfoW@ATL@@YGGPAU_ATL_WIN_MODULE70@1@PAU_ATL_BASE_MODULE70@1@PAU_ATL_WNDCLASSINFOW@1@PAP6GJPAUHWND__@@IIJ@Z@Z 1000ec80 f i DeviceMonitor.obj
 0001:0000dd10       ?Attach@?$CAutoVectorPtr@_W@ATL@@QAEXPA_W@Z 1000ed10 f i DeviceMonitor.obj
 0001:0000dd70       ?Attach@CComBSTR@ATL@@QAEXPA_W@Z 1000ed70 f i DeviceMonitor.obj
 0001:0000ddc0       ?Attach@CRegKey@ATL@@QAEXPAUHKEY__@@@Z 1000edc0 f i DeviceMonitor.obj
 0001:0000de30       ?CanForceRemoveKey@CRegParser@ATL@@IAEHPB_W@Z 1000ee30 f i DeviceMonitor.obj
 0001:0000dea0       ?ChToByte@CRegParser@ATL@@KAE_W@Z 1000eea0 f i DeviceMonitor.obj
 0001:0000dfc0       ?ChangeType@CComVariant@ATL@@QAEJGPBUtagVARIANT@@@Z 1000efc0 f i DeviceMonitor.obj
 0001:0000e020       ?Cleanup@CComTypeInfoHolder@ATL@@SGXK@Z 1000f020 f i DeviceMonitor.obj
 0001:0000e0f0       ?Clear@CComVariant@ATL@@QAEJXZ 1000f0f0 f i DeviceMonitor.obj
 0001:0000e130       ?ClearReplacements@CExpansionVector@ATL@@QAEJXZ 1000f130 f i DeviceMonitor.obj
 0001:0000e1c0       ?ClearReplacements@CRegObject@ATL@@UAGJXZ 1000f1c0 f i DeviceMonitor.obj
 0001:0000e210       ?Clone@?$CComEnumImpl@UIEnumConnectionPoints@@$1?_GUID_b196b285_bab4_101a_b69c_00aa00341d07@@3U__s_GUID@@BPAUIConnectionPoint@@V?$_CopyInterface@UIConnectionPoint@@@ATL@@@ATL@@UAGJPAPAUIEnumConnectionPoints@@@Z 1000f210 f i DeviceMonitor.obj
 0001:0000e380       ?Clone@?$CComEnumImpl@UIEnumConnections@@$1?_GUID_b196b287_bab4_101a_b69c_00aa00341d07@@3U__s_GUID@@BUtagCONNECTDATA@@V?$_Copy@UtagCONNECTDATA@@@ATL@@@ATL@@UAGJPAPAUIEnumConnections@@@Z 1000f380 f i DeviceMonitor.obj
 0001:0000e4f0       ?Close@?$IOleObjectImpl@VCOPOSDeviceMonitor@@@ATL@@UAGJK@Z 1000f4f0 f i DeviceMonitor.obj
 0001:0000e580       ?Close@CRegKey@ATL@@QAEJXZ 1000f580 f i DeviceMonitor.obj
 0001:0000e5f0       ?ContextSensitiveHelp@?$IOleInPlaceActiveObjectImpl@VCOPOSDeviceMonitor@@@ATL@@UAGJH@Z 1000f5f0 f i DeviceMonitor.obj
 0001:0000e660       ?ContextSensitiveHelp@?$IOleInPlaceObjectWindowlessImpl@VCOPOSDeviceMonitor@@@ATL@@UAGJH@Z 1000f660 f i DeviceMonitor.obj
 0001:0000e6d0       ?ControlQueryInterface@?$CComControl@VCOPOSDeviceMonitor@@V?$CWindowImpl@VCOPOSDeviceMonitor@@VCWindow@ATL@@V?$CWinTraits@$0FGAAAAAA@$0A@@3@@ATL@@@ATL@@UAEJABU_GUID@@PAPAX@Z 1000f6d0 f i DeviceMonitor.obj
 0001:0000e750       ?CreateControlWindow@?$CComControl@VCOPOSDeviceMonitor@@V?$CWindowImpl@VCOPOSDeviceMonitor@@VCWindow@ATL@@V?$CWinTraits@$0FGAAAAAA@$0A@@3@@ATL@@@ATL@@UAEPAUHWND__@@PAU3@AAUtagRECT@@@Z 1000f750 f i DeviceMonitor.obj
 0001:0000e7d0       ?CreateInstance@?$CComCreator@V?$CComAggObject@VCOPOSDeviceMonitor@@@ATL@@@ATL@@SGJPAXABU_GUID@@PAPAX@Z 1000f7d0 f i DeviceMonitor.obj
 0001:0000e950       ?CreateInstance@?$CComCreator@V?$CComObject@VCOPOSDeviceMonitor@@@ATL@@@ATL@@SGJPAXABU_GUID@@PAPAX@Z 1000f950 f i DeviceMonitor.obj
 0001:0000eae0       ?CreateInstance@?$CComObject@V?$CComEnum@UIEnumConnectionPoints@@$1?_GUID_b196b285_bab4_101a_b69c_00aa00341d07@@3U__s_GUID@@BPAUIConnectionPoint@@V?$_CopyInterface@UIConnectionPoint@@@ATL@@VCComSingleThreadModel@6@@ATL@@@ATL@@SGJPAPAV12@@Z 1000fae0 f i DeviceMonitor.obj
 0001:0000ec50       ?CreateInstance@?$CComObject@V?$CComEnum@UIEnumConnections@@$1?_GUID_b196b287_bab4_101a_b69c_00aa00341d07@@3U__s_GUID@@BUtagCONNECTDATA@@V?$_Copy@UtagCONNECTDATA@@@ATL@@VCComSingleThreadModel@6@@ATL@@@ATL@@SGJPAPAV12@@Z 1000fc50 f i DeviceMonitor.obj
 0001:0000edc0       ?CreateInstance@CComClassFactory@ATL@@UAGJPAUIUnknown@@ABU_GUID@@PAPAX@Z 1000fdc0 f i DeviceMonitor.obj
 0001:0000eeb0       ?DAdvise@?$IDataObjectImpl@VCOPOSDeviceMonitor@@@ATL@@UAGJPAUtagFORMATETC@@KPAUIAdviseSink@@PAK@Z 1000feb0 f i DeviceMonitor.obj
 0001:0000efb0       ?DEVMODEOLE2T_EX@@YAPAU_devicemodeW@@PAU1@@Z 1000ffb0 f i DeviceMonitor.obj
 0001:0000efc0       ?DUnadvise@?$IDataObjectImpl@VCOPOSDeviceMonitor@@@ATL@@UAGJK@Z 1000ffc0 f i DeviceMonitor.obj
 0001:0000f090       ?Decrement@CComMultiThreadModel@ATL@@SGKPAJ@Z 10010090 f i DeviceMonitor.obj
 0001:0000f0b0       ?Decrement@CComSingleThreadModel@ATL@@SGKPAJ@Z 100100b0 f i DeviceMonitor.obj
 0001:0000f0d0       ?DefWindowProcW@?$CWindowImplBaseT@VCWindow@ATL@@V?$CWinTraits@$0FGAAAAAA@$0A@@2@@ATL@@QAEJIIJ@Z 100100d0 f i DeviceMonitor.obj
 0001:0000f120       ?DefaultReflectionHandler@?$CWindowImplRoot@VCWindow@ATL@@@ATL@@SAHPAUHWND__@@IIJAAJ@Z 10010120 f i DeviceMonitor.obj
 0001:0000f3b0       ?DeleteSubKey@CRegKey@ATL@@QAEJPB_W@Z 100103b0 f i DeviceMonitor.obj
 0001:0000f4c0       ?DeleteValue@CRegKey@ATL@@QAEJPB_W@Z 100104c0 f i DeviceMonitor.obj
 0001:0000f530       ?Detach@?$CAutoVectorPtr@_W@ATL@@QAEPA_WXZ 10010530 f i DeviceMonitor.obj
 0001:0000f560       ?Detach@?$CComPtrBase@UIPersistStream@@@ATL@@QAEPAUIPersistStream@@XZ 10010560 f i DeviceMonitor.obj
 0001:0000f590       ?Detach@?$CComPtrBase@UITypeInfo@@@ATL@@QAEPAUITypeInfo@@XZ 10010590 f i DeviceMonitor.obj
 0001:0000f5c0       ?Detach@?$CComPtrBase@UIUnknown@@@ATL@@QAEPAUIUnknown@@XZ 100105c0 f i DeviceMonitor.obj
 0001:0000f5f0       ?Detach@CComBSTR@ATL@@QAEPA_WXZ 100105f0 f i DeviceMonitor.obj
 0001:0000f620       ?Detach@CParseBuffer@CRegParser@ATL@@QAEPA_WXZ 10010620 f i DeviceMonitor.obj
 0001:0000f660       ?Detach@CRegKey@ATL@@QAEPAUHKEY__@@XZ 10010660 f i DeviceMonitor.obj
 0001:0000f6a0       ?DoEvent@COPOSDeviceMonitor@@IAEXIIJ@Z 100106a0 f i DeviceMonitor.obj
 0001:0000f7e0       ?DoVerb@?$IOleObjectImpl@VCOPOSDeviceMonitor@@@ATL@@UAGJJPAUtagMSG@@PAUIOleClientSite@@JPAUHWND__@@PBUtagRECT@@@Z 100107e0 f i DeviceMonitor.obj
 0001:0000f9f0       ?DoVerbDiscardUndo@?$IOleObjectImpl@VCOPOSDeviceMonitor@@@ATL@@QAEJPBUtagRECT@@PAUHWND__@@@Z 100109f0 f i DeviceMonitor.obj
 0001:0000fa60       ?DoVerbHide@?$IOleObjectImpl@VCOPOSDeviceMonitor@@@ATL@@QAEJPBUtagRECT@@PAUHWND__@@@Z 10010a60 f i DeviceMonitor.obj
 0001:0000fb10       ?DoVerbInPlaceActivate@?$IOleObjectImpl@VCOPOSDeviceMonitor@@@ATL@@QAEJPBUtagRECT@@PAUHWND__@@@Z 10010b10 f i DeviceMonitor.obj
 0001:0000fbb0       ?DoVerbOpen@?$IOleObjectImpl@VCOPOSDeviceMonitor@@@ATL@@QAEJPBUtagRECT@@PAUHWND__@@@Z 10010bb0 f i DeviceMonitor.obj
 0001:0000fc20       ?DoVerbPrimary@?$IOleObjectImpl@VCOPOSDeviceMonitor@@@ATL@@QAEJPBUtagRECT@@PAUHWND__@@@Z 10010c20 f i DeviceMonitor.obj
 0001:0000fd30       ?DoVerbProperties@CComControlBase@ATL@@QAEJPBUtagRECT@@PAUHWND__@@@Z 10010d30 f i DeviceMonitor.obj
 0001:00010050       ?DoVerbShow@?$IOleObjectImpl@VCOPOSDeviceMonitor@@@ATL@@QAEJPBUtagRECT@@PAUHWND__@@@Z 10011050 f i DeviceMonitor.obj
 0001:000100e0       ?DoVerbUIActivate@?$IOleObjectImpl@VCOPOSDeviceMonitor@@@ATL@@QAEJPBUtagRECT@@PAUHWND__@@@Z 100110e0 f i DeviceMonitor.obj
 0001:00010180       ?DoesVerbActivate@CComControlBase@ATL@@QAEHJ@Z 10011180 f i DeviceMonitor.obj
 0001:000101e0       ?DoesVerbUIActivate@CComControlBase@ATL@@QAEHJ@Z 100111e0 f i DeviceMonitor.obj
 0001:00010260       ?Draw@?$IViewObjectExImpl@VCOPOSDeviceMonitor@@@ATL@@UAGJKJPAXPAUtagDVTARGETDEVICE@@PAUHDC__@@2PBU_RECTL@@3P6GHK@ZK@Z 10011260 f i DeviceMonitor.obj
 0001:00010300       ?Empty@CComBSTR@ATL@@QAEXXZ 10011300 f i DeviceMonitor.obj
 0001:00010340       ?EnableModeless@?$IOleInPlaceActiveObjectImpl@VCOPOSDeviceMonitor@@@ATL@@UAGJH@Z 10011340 f i DeviceMonitor.obj
 0001:000103a0       ?EndOfVar@CRegParser@ATL@@IAEHXZ 100113a0 f i DeviceMonitor.obj
 0001:00010410       ?EnsureTI@CComTypeInfoHolder@ATL@@QAEJK@Z 10011410 f i DeviceMonitor.obj
 0001:00010470       ?EnumAdvise@?$IOleObjectImpl@VCOPOSDeviceMonitor@@@ATL@@UAGJPAPAUIEnumSTATDATA@@@Z 10011470 f i DeviceMonitor.obj
 0001:00010580       ?EnumConnectionPoints@?$IConnectionPointContainerImpl@VCOPOSDeviceMonitor@@@ATL@@UAGJPAPAUIEnumConnectionPoints@@@Z 10011580 f i DeviceMonitor.obj
 0001:000109b0       ?EnumConnections@?$IConnectionPointImpl@VCOPOSDeviceMonitor@@$1?DIID__IOPOSDeviceMonitorEvents@@3U_GUID@@BVCComDynamicUnkArray@ATL@@@ATL@@UAGJPAPAUIEnumConnections@@@Z 100119b0 f i DeviceMonitor.obj
 0001:00010c00       ?EnumConnections@?$IConnectionPointImpl@VCOPOSDeviceMonitor@@$1?IID_IPropertyNotifySink@@3U_GUID@@BVCComDynamicUnkArray@ATL@@@ATL@@UAGJPAPAUIEnumConnections@@@Z 10011c00 f i DeviceMonitor.obj
 0001:00010e50       ?EnumDAdvise@?$IDataObjectImpl@VCOPOSDeviceMonitor@@@ATL@@UAGJPAPAUIEnumSTATDATA@@@Z 10011e50 f i DeviceMonitor.obj
 0001:00010f50       ?EnumFormatEtc@?$IDataObjectImpl@VCOPOSDeviceMonitor@@@ATL@@UAGJKPAPAUIEnumFORMATETC@@@Z 10011f50 f i DeviceMonitor.obj
 0001:00010fc0       ?EnumVerbs@?$IOleObjectImpl@VCOPOSDeviceMonitor@@@ATL@@UAGJPAPAUIEnumOLEVERB@@@Z 10011fc0 f i DeviceMonitor.obj
 0001:00011070       ?EscapeSingleQuote@CAtlModule@ATL@@SAXPA_WIPB_W@Z 10012070 f i DeviceMonitor.obj
 0001:00011110       ?ExtractCreateWndData@CAtlWinModule@ATL@@QAEPAXXZ 10012110 f i DeviceMonitor.obj
 0001:00011140       ?FAccessAllowed@?$IObjectSafetyImpl@VCOPOSDeviceMonitor@@$02@ATL@@MAEHXZ 10012140 f i DeviceMonitor.obj
 0001:00011150       ?FinalConstruct@?$CComAggObject@VCOPOSDeviceMonitor@@@ATL@@QAEJXZ 10012150 f i DeviceMonitor.obj
 0001:00011190       ?FinalConstruct@CComObjectRootBase@ATL@@QAEJXZ 10012190 f i DeviceMonitor.obj
 0001:000111a0       ?FinalConstruct@CRegObject@ATL@@QAEJXZ 100121a0 f i DeviceMonitor.obj
 0001:000111d0       ?FinalRelease@?$CComAggObject@VCOPOSDeviceMonitor@@@ATL@@QAEXXZ 100121d0 f i DeviceMonitor.obj
 0001:00011210       ?FinalRelease@CComObjectRootBase@ATL@@QAEXXZ 10012210 f i DeviceMonitor.obj
 0001:00011220       ?FindConnectionPoint@?$IConnectionPointContainerImpl@VCOPOSDeviceMonitor@@@ATL@@UAGJABU_GUID@@PAPAUIConnectionPoint@@@Z 10012220 f i DeviceMonitor.obj
 0001:00011370       ?FindKey@?$CSimpleMap@PA_WPA_WVCExpansionVectorEqualHelper@ATL@@@ATL@@QBEHABQA_W@Z 10012370 f i DeviceMonitor.obj
 0001:000113e0       ?FireTheEvent@?$CProxy_IOPOSEvents@VCOPOSDeviceMonitor@@@@IAEXPAUIUnknown@@PAVOposVariant@@IAAJPB_WJ@Z 100123e0 f i DeviceMonitor.obj
 0001:00011550       ?FireViewChange@CComControlBase@ATL@@QAEJXZ 10012550 f i DeviceMonitor.obj
 0001:00011610       ?Fire_DataEvent@?$CProxy_IOPOSEvents@VCOPOSDeviceMonitor@@@@QAEXJ@Z 10012610 f i DeviceMonitor.obj
 0001:00011770       ?Fire_DirectIOEvent@?$CProxy_IOPOSEvents@VCOPOSDeviceMonitor@@@@QAEXJPAJPAPA_W@Z 10012770 f i DeviceMonitor.obj
 0001:00011940       ?Fire_ErrorEvent@?$CProxy_IOPOSEvents@VCOPOSDeviceMonitor@@@@QAEXJJJPAJ@Z 10012940 f i DeviceMonitor.obj
 0001:00011b30       ?Fire_StatusUpdateEvent@?$CProxy_IOPOSEvents@VCOPOSDeviceMonitor@@@@QAEXJ@Z 10012b30 f i DeviceMonitor.obj
 0001:00011c90       ?FormatWindowClassName@AtlModuleRegisterWndClassInfoParamW@ATL@@SAXPA_WKPAX@Z 10012c90 f i DeviceMonitor.obj
 0001:00011cc0       ?Free@?$CAutoVectorPtr@_W@ATL@@QAEXXZ 10012cc0 f i DeviceMonitor.obj
 0001:00011d10       ?FreeHeap@?$CTempBuffer@E$0BAA@VCCRTAllocator@ATL@@@ATL@@AAEXXZ 10012d10 f i DeviceMonitor.obj
 0001:00011d40       ?FreeHeap@?$CTempBuffer@_W$0BAA@VCCRTAllocator@ATL@@@ATL@@AAEXXZ 10012d40 f i DeviceMonitor.obj
 0001:00011d70       ?FreeHeap@?$CTempBuffer@_W$0EAA@VCCRTAllocator@ATL@@@ATL@@AAEXXZ 10012d70 f i DeviceMonitor.obj
 0001:00011da0       ?Freeze@?$IViewObjectExImpl@VCOPOSDeviceMonitor@@@ATL@@UAGJKJPAXPAK@Z 10012da0 f i DeviceMonitor.obj
 0001:00011e10       ?GenerateError@CRegParser@ATL@@IAEJI@Z 10012e10 f i DeviceMonitor.obj
 0001:00011e30       ?GetAdvise@?$IViewObjectExImpl@VCOPOSDeviceMonitor@@@ATL@@UAGJPAK0PAPAUIAdviseSink@@@Z 10012e30 f i DeviceMonitor.obj
 0001:00011f30       ?GetAmbientLocaleID@CComControlBase@ATL@@QAEJAAK@Z 10012f30 f i DeviceMonitor.obj
 0001:00012010       ?GetAmbientProperty@CComControlBase@ATL@@QAEJJAAUtagVARIANT@@@Z 10013010 f i DeviceMonitor.obj
 0001:00012060       ?GetAmbientUserMode@CComControlBase@ATL@@QAEJAAH@Z 10013060 f i DeviceMonitor.obj
 0001:00012160       ?GetAppId@?$CAtlModuleT@VCComModule@ATL@@@ATL@@SAPB_WXZ 10013160 f i DeviceMonitor.obj
 0001:00012170       ?GetAt@CComDynamicUnkArray@ATL@@QAEPAUIUnknown@@H@Z 10013170 f i DeviceMonitor.obj
 0001:000121f0       ?GetCanonicalFormatEtc@?$IDataObjectImpl@VCOPOSDeviceMonitor@@@ATL@@UAGJPAUtagFORMATETC@@0@Z 100131f0 f i DeviceMonitor.obj
 0001:00012260       ?GetClassID@?$IPersistStorageImpl@VCOPOSDeviceMonitor@@@ATL@@UAGJPAU_GUID@@@Z 10013260 f i DeviceMonitor.obj
 0001:000122e0       ?GetClassID@?$IPersistStreamInitImpl@VCOPOSDeviceMonitor@@@ATL@@UAGJPAU_GUID@@@Z 100132e0 f i DeviceMonitor.obj
 0001:00012360       ?GetClassInfoExW@AtlModuleRegisterWndClassInfoParamW@ATL@@SAHPAUHINSTANCE__@@PB_WPAUtagWNDCLASSEXW@@@Z 10013360 f i DeviceMonitor.obj
 0001:00012390       ?GetClassInfoW@?$IProvideClassInfo2Impl@$1?CLSID_OPOSDeviceMonitor@@3U_GUID@@B$1?DIID__IOPOSDeviceMonitorEvents@@3U2@B$1?LIBID_OposDeviceMonitor_CCO@@3U2@B$00$0A@VCComTypeInfoHolder@ATL@@@ATL@@UAGJPAPAUITypeInfo@@@Z 10013390 f i DeviceMonitor.obj
 0001:000123b0       ?GetClassObject@CComModule@ATL@@QAEJABU_GUID@@0PAPAX@Z 100133b0 f i DeviceMonitor.obj
 0001:000125b0       ?GetClientSite@?$IOleObjectImpl@VCOPOSDeviceMonitor@@@ATL@@UAGJPAPAUIOleClientSite@@@Z 100135b0 f i DeviceMonitor.obj
 0001:00012640       ?GetClipboardData@?$IOleObjectImpl@VCOPOSDeviceMonitor@@@ATL@@UAGJKPAPAUIDataObject@@@Z 10013640 f i DeviceMonitor.obj
 0001:000126b0       ?GetCodeAddress@CDynamicStdCallThunk2@ATL@@QAEPAXXZ 100136b0 f i DeviceMonitor.obj
 0001:000126e0       ?GetColorSet@?$IViewObjectExImpl@VCOPOSDeviceMonitor@@@ATL@@UAGJKJPAXPAUtagDVTARGETDEVICE@@PAUHDC__@@PAPAUtagLOGPALETTE@@@Z 100136e0 f i DeviceMonitor.obj
 0001:00012750       ?GetConnMap@COPOSDeviceMonitor@@SAPBU_ATL_CONNMAP_ENTRY@ATL@@PAH@Z 10013750 f i DeviceMonitor.obj
 0001:00012890       ?GetConnectionInterface@?$IConnectionPointImpl@VCOPOSDeviceMonitor@@$1?DIID__IOPOSDeviceMonitorEvents@@3U_GUID@@BVCComDynamicUnkArray@ATL@@@ATL@@UAGJPAU_GUID@@@Z 10013890 f i DeviceMonitor.obj
 0001:000128d0       ?GetConnectionInterface@?$IConnectionPointImpl@VCOPOSDeviceMonitor@@$1?IID_IPropertyNotifySink@@3U_GUID@@BVCComDynamicUnkArray@ATL@@@ATL@@UAGJPAU_GUID@@@Z 100138d0 f i DeviceMonitor.obj
 0001:00012910       ?GetConnectionPointContainer@?$IConnectionPointImpl@VCOPOSDeviceMonitor@@$1?DIID__IOPOSDeviceMonitorEvents@@3U_GUID@@BVCComDynamicUnkArray@ATL@@@ATL@@UAGJPAPAUIConnectionPointContainer@@@Z 10013910 f i DeviceMonitor.obj
 0001:00012980       ?GetConnectionPointContainer@?$IConnectionPointImpl@VCOPOSDeviceMonitor@@$1?IID_IPropertyNotifySink@@3U_GUID@@BVCComDynamicUnkArray@ATL@@@ATL@@UAGJPAPAUIConnectionPointContainer@@@Z 10013980 f i DeviceMonitor.obj
 0001:000129f0       ?GetContentExtent@?$IQuickActivateImpl@VCOPOSDeviceMonitor@@@ATL@@UAGJPAUtagSIZE@@@Z 100139f0 f i DeviceMonitor.obj
 0001:00012a80       ?GetControlInfo@?$IOleControlImpl@VCOPOSDeviceMonitor@@@ATL@@UAGJPAUtagCONTROLINFO@@@Z 10013a80 f i DeviceMonitor.obj
 0001:00012af0       ?GetCookie@CComDynamicUnkArray@ATL@@QAGKPAPAUIUnknown@@@Z 10013af0 f i DeviceMonitor.obj
 0001:00012bb0       ?GetData@?$IDataObjectImpl@VCOPOSDeviceMonitor@@@ATL@@UAGJPAUtagFORMATETC@@PAUtagSTGMEDIUM@@@Z 10013bb0 f i DeviceMonitor.obj
 0001:00012c40       ?GetData@CAtlSafeAllocBufferNode@?$CAtlSafeAllocBufferManager@VCCRTAllocator@ATL@@@_ATL_SAFE_ALLOCA_IMPL@ATL@@QAEPAXXZ 10013c40 f i DeviceMonitor.obj
 0001:00012c60       ?GetDataHere@?$IDataObjectImpl@VCOPOSDeviceMonitor@@@ATL@@UAGJPAUtagFORMATETC@@PAUtagSTGMEDIUM@@@Z 10013c60 f i DeviceMonitor.obj
 0001:00012cd0       ?GetDropTarget@?$IOleInPlaceObjectWindowlessImpl@VCOPOSDeviceMonitor@@@ATL@@UAGJPAPAUIDropTarget@@@Z 10013cd0 f i DeviceMonitor.obj
 0001:00012d40       ?GetExtent@?$IOleObjectImpl@VCOPOSDeviceMonitor@@@ATL@@UAGJKPAUtagSIZE@@@Z 10013d40 f i DeviceMonitor.obj
 0001:00012de0       ?GetExtent@?$IViewObjectExImpl@VCOPOSDeviceMonitor@@@ATL@@UAGJKJPAUtagDVTARGETDEVICE@@PAUtagSIZE@@@Z 10013de0 f i DeviceMonitor.obj
 0001:00012eb0       ?GetGITPtr@CAtlModule@ATL@@UAEJPAPAUIGlobalInterfaceTable@@@Z 10013eb0 f i DeviceMonitor.obj
 0001:00012fb0       ?GetGUID@?$IProvideClassInfo2Impl@$1?CLSID_OPOSDeviceMonitor@@3U_GUID@@B$1?DIID__IOPOSDeviceMonitorEvents@@3U2@B$1?LIBID_OposDeviceMonitor_CCO@@3U2@B$00$0A@VCComTypeInfoHolder@ATL@@@ATL@@UAGJKPAU_GUID@@@Z 10013fb0 f i DeviceMonitor.obj
 0001:00013030       ?GetIDsOfNames@?$IDispatchImpl@UIOPOSDeviceMonitor@@$1?IID_IOPOSDeviceMonitor@@3U_GUID@@B$1?LIBID_OposDeviceMonitor_CCO@@3U3@B$00$0A@VCComTypeInfoHolder@ATL@@@ATL@@UAGJABU_GUID@@PAPA_WIKPAJ@Z 10014030 f i DeviceMonitor.obj
 0001:00013060       ?GetIDsOfNames@CComTypeInfoHolder@ATL@@QAEJABU_GUID@@PAPA_WIKPAJ@Z 10014060 f i DeviceMonitor.obj
 0001:00013210       ?GetInterfaceSafetyOptions@?$IObjectSafetyImpl@VCOPOSDeviceMonitor@@$02@ATL@@UAGJABU_GUID@@PAK1@Z 10014210 f i DeviceMonitor.obj
 0001:00013380       ?GetKeyAt@?$CSimpleMap@PA_WPA_WVCExpansionVectorEqualHelper@ATL@@@ATL@@QBEAAPA_WH@Z 10014380 f i DeviceMonitor.obj
 0001:00013400       ?GetLockCount@CAtlModule@ATL@@UAEJXZ 10014400 f i DeviceMonitor.obj
 0001:00013420       ?GetMiscStatus@?$IOleObjectImpl@VCOPOSDeviceMonitor@@@ATL@@UAGJKPAK@Z 10014420 f i DeviceMonitor.obj
 0001:00013490       ?GetMoniker@?$IOleObjectImpl@VCOPOSDeviceMonitor@@@ATL@@UAGJKKPAPAUIMoniker@@@Z 10014490 f i DeviceMonitor.obj
 0001:00013500       ?GetNaturalExtent@?$IViewObjectExImpl@VCOPOSDeviceMonitor@@@ATL@@UAGJKJPAUtagDVTARGETDEVICE@@PAUHDC__@@PAUtagExtentInfo@@PAUtagSIZE@@@Z 10014500 f i DeviceMonitor.obj
 0001:00013620       ?GetObjectCLSID@?$CComCoClass@VCOPOSDeviceMonitor@@$1?CLSID_OPOSDeviceMonitor@@3U_GUID@@B@ATL@@SGABU_GUID@@XZ 10014620 f i DeviceMonitor.obj
 0001:00013630       ?GetPages@?$ISpecifyPropertyPagesImpl@VCOPOSDeviceMonitor@@@ATL@@UAGJPAUtagCAUUID@@@Z 10014630 f i DeviceMonitor.obj
 0001:000136a0       ?GetPagesHelper@?$ISpecifyPropertyPagesImpl@VCOPOSDeviceMonitor@@@ATL@@IAEJPAUtagCAUUID@@PBUATL_PROPMAP_ENTRY@2@@Z 100146a0 f i DeviceMonitor.obj
 0001:000138a0       ?GetProperty@?$CComPtr@UIDispatch@@@ATL@@QAEJJPAUtagVARIANT@@@Z 100148a0 f i DeviceMonitor.obj
 0001:000138e0       ?GetProperty@?$CComPtr@UIDispatch@@@ATL@@SAJPAUIDispatch@@JPAUtagVARIANT@@@Z 100148e0 f i DeviceMonitor.obj
 0001:00013a40       ?GetPropertyMap@COPOSDeviceMonitor@@SAPBUATL_PROPMAP_ENTRY@ATL@@XZ 10014a40 f i DeviceMonitor.obj
 0001:00013a50       ?GetRect@?$IViewObjectExImpl@VCOPOSDeviceMonitor@@@ATL@@UAGJKPAU_RECTL@@@Z 10014a50 f i DeviceMonitor.obj
 0001:00013ac0       ?GetSize@?$CSimpleMap@PA_WPA_WVCExpansionVectorEqualHelper@ATL@@@ATL@@QBEHXZ 10014ac0 f i DeviceMonitor.obj
 0001:00013ae0       ?GetSize@CComDynamicUnkArray@ATL@@QBEHXZ 10014ae0 f i DeviceMonitor.obj
 0001:00013b00       ?GetSizeMax@?$IPersistStreamInitImpl@VCOPOSDeviceMonitor@@@ATL@@UAGJPAT_ULARGE_INTEGER@@@Z 10014b00 f i DeviceMonitor.obj
 0001:00014070       ?GetSizeMax@CComVariant@ATL@@QBEJPAT_ULARGE_INTEGER@@@Z 10015070 f i DeviceMonitor.obj
 0001:000143f0       ?GetStreamSize@CComBSTR@ATL@@SAKPA_W@Z 100153f0 f i DeviceMonitor.obj
 0001:00014440       ?GetTI@CComTypeInfoHolder@ATL@@QAEJK@Z 10015440 f i DeviceMonitor.obj
 0001:00014c50       ?GetTI@CComTypeInfoHolder@ATL@@QAEJKPAPAUITypeInfo@@@Z 10015c50 f i DeviceMonitor.obj
 0001:00014d10       ?GetTypeInfo@?$IDispatchImpl@UIOPOSDeviceMonitor@@$1?IID_IOPOSDeviceMonitor@@3U_GUID@@B$1?LIBID_OposDeviceMonitor_CCO@@3U3@B$00$0A@VCComTypeInfoHolder@ATL@@@ATL@@UAGJIKPAPAUITypeInfo@@@Z 10015d10 f i DeviceMonitor.obj
 0001:00014d40       ?GetTypeInfo@CComTypeInfoHolder@ATL@@QAEJIKPAPAUITypeInfo@@@Z 10015d40 f i DeviceMonitor.obj
 0001:00014d80       ?GetTypeInfoCount@?$IDispatchImpl@UIOPOSDeviceMonitor@@$1?IID_IOPOSDeviceMonitor@@3U_GUID@@B$1?LIBID_OposDeviceMonitor_CCO@@3U3@B$00$0A@VCComTypeInfoHolder@ATL@@@ATL@@UAGJPAI@Z 10015d80 f i DeviceMonitor.obj
 0001:00014da0       ?GetUnknown@CComDynamicUnkArray@ATL@@QAGPAUIUnknown@@K@Z 10015da0 f i DeviceMonitor.obj
 0001:00014e10       ?GetUnknown@COPOSDeviceMonitor@@QAEPAUIUnknown@@XZ 10015e10 f i DeviceMonitor.obj
 0001:00014e40       ?GetUserClassID@?$IOleObjectImpl@VCOPOSDeviceMonitor@@@ATL@@UAGJPAU_GUID@@@Z 10015e40 f i DeviceMonitor.obj
 0001:00014ef0       ?GetUserType@?$IOleObjectImpl@VCOPOSDeviceMonitor@@@ATL@@UAGJKPAPA_W@Z 10015ef0 f i DeviceMonitor.obj
 0001:00014f60       ?GetValueAt@?$CSimpleMap@PA_WPA_WVCExpansionVectorEqualHelper@ATL@@@ATL@@QBEAAPA_WH@Z 10015f60 f i DeviceMonitor.obj
 0001:00014fe0       ?GetViewStatus@?$IViewObjectExImpl@VCOPOSDeviceMonitor@@@ATL@@UAGJPAK@Z 10015fe0 f i DeviceMonitor.obj
 0001:000150a0       ?GetWNDPROC@CWndProcThunk@ATL@@QAEP6GJPAUHWND__@@IIJ@ZXZ 100160a0 f i DeviceMonitor.obj
 0001:000150d0       ?GetWindow@?$IOleInPlaceActiveObjectImpl@VCOPOSDeviceMonitor@@@ATL@@UAGJPAPAUHWND__@@@Z 100160d0 f i DeviceMonitor.obj
 0001:000151a0       ?GetWindow@?$IOleInPlaceObjectWindowlessImpl@VCOPOSDeviceMonitor@@@ATL@@UAGJPAPAUHWND__@@@Z 100161a0 f i DeviceMonitor.obj
 0001:00015270       ?GetWindowLongPtrW@@YAJPAUHWND__@@H@Z 10016270 f i DeviceMonitor.obj
 0001:000152a0       ?GetWindowProc@?$CWindowImplBaseT@VCWindow@ATL@@V?$CWinTraits@$0FGAAAAAA@$0A@@2@@ATL@@UAEP6GJPAUHWND__@@IIJ@ZXZ 100162a0 f i DeviceMonitor.obj
 0001:000152b0       ?GetWndCaption@?$CWindowImpl@VCOPOSDeviceMonitor@@VCWindow@ATL@@V?$CWinTraits@$0FGAAAAAA@$0A@@3@@ATL@@SAPB_WXZ 100162b0 f i DeviceMonitor.obj
 0001:000152c0       ?GetWndClassInfo@?$CWindowImpl@VCOPOSDeviceMonitor@@VCWindow@ATL@@V?$CWinTraits@$0FGAAAAAA@$0A@@3@@ATL@@SAAAU_ATL_WNDCLASSINFOW@2@XZ 100162c0 f i DeviceMonitor.obj
 0001:000152d0       ?GetWndClassName@CWindow@ATL@@SAPB_WXZ 100162d0 f i DeviceMonitor.obj
 0001:000152e0       ?GetWndExStyle@?$CWinTraits@$0FGAAAAAA@$0A@@ATL@@SAKK@Z 100162e0 f i DeviceMonitor.obj
 0001:00015300       ?GetWndExStyle@?$CWindowImplBaseT@VCWindow@ATL@@V?$CWinTraits@$0FGAAAAAA@$0A@@2@@ATL@@SAKK@Z 10016300 f i DeviceMonitor.obj
 0001:00015320       ?GetWndStyle@?$CWinTraits@$0FGAAAAAA@$0A@@ATL@@SAKK@Z 10016320 f i DeviceMonitor.obj
 0001:00015340       ?GetWndStyle@?$CWindowImplBaseT@VCWindow@ATL@@V?$CWinTraits@$0FGAAAAAA@$0A@@2@@ATL@@SAKK@Z 10016340 f i DeviceMonitor.obj
 0001:00015360       ?GetZoomInfo@CComControlBase@ATL@@QAEXAAUATL_DRAWINFO@@@Z 10016360 f i DeviceMonitor.obj
 0001:000154d0       ?HKeyFromString@CRegParser@ATL@@KAPAUHKEY__@@PA_W@Z 100164d0 f i DeviceMonitor.obj
 0001:00015540       ?HandsOffStorage@?$IPersistStorageImpl@VCOPOSDeviceMonitor@@@ATL@@UAGJXZ 10016540 f i DeviceMonitor.obj
 0001:000155a0       ?HasSubKeys@CRegParser@ATL@@IAEHPAUHKEY__@@@Z 100165a0 f i DeviceMonitor.obj
 0001:000156b0       ?IDataObject_GetData@CComControlBase@ATL@@QAEJPAUtagFORMATETC@@PAUtagSTGMEDIUM@@@Z 100166b0 f i DeviceMonitor.obj
 0001:00015ad0       ?IOleInPlaceObject_InPlaceDeactivate@CComControlBase@ATL@@QAEJXZ 10016ad0 f i DeviceMonitor.obj
 0001:00015cd0       ?IOleInPlaceObject_SetObjectRects@CComControlBase@ATL@@QAEJPBUtagRECT@@0@Z 10016cd0 f i DeviceMonitor.obj
 0001:00015e90       ?IOleInPlaceObject_UIDeactivate@CComControlBase@ATL@@QAEJXZ 10016e90 f i DeviceMonitor.obj
 0001:00016100       ?IOleObject_Advise@CComControlBase@ATL@@QAEJPAUIAdviseSink@@PAK@Z 10017100 f i DeviceMonitor.obj
 0001:000161b0       ?IOleObject_Close@CComControlBase@ATL@@QAEJK@Z 100171b0 f i DeviceMonitor.obj
 0001:00016460       ?IOleObject_GetClientSite@CComControlBase@ATL@@QAEJPAPAUIOleClientSite@@@Z 10017460 f i DeviceMonitor.obj
 0001:00016500       ?IOleObject_SetClientSite@CComControlBase@ATL@@QAEJPAUIOleClientSite@@@Z 10017500 f i DeviceMonitor.obj
 0001:000165d0       ?IOleObject_SetExtent@CComControlBase@ATL@@QAEJKPAUtagSIZE@@@Z 100175d0 f i DeviceMonitor.obj
 0001:00016710       ?IPSI_GetIPersistStreamInit@?$IPersistStorageImpl@VCOPOSDeviceMonitor@@@ATL@@AAEPAUIPersistStreamInit@@XZ 10017710 f i DeviceMonitor.obj
 0001:000167e0       ?IPersistStreamInit_Load@?$IPersistStreamInitImpl@VCOPOSDeviceMonitor@@@ATL@@QAEJPAUIStream@@PBUATL_PROPMAP_ENTRY@2@@Z 100177e0 f i DeviceMonitor.obj
 0001:00016860       ?IPersistStreamInit_Save@?$IPersistStreamInitImpl@VCOPOSDeviceMonitor@@@ATL@@QAEJPAUIStream@@HPBUATL_PROPMAP_ENTRY@2@@Z 10017860 f i DeviceMonitor.obj
 0001:000168f0       ?IQuickActivate_QuickActivate@CComControlBase@ATL@@QAEJPAUtagQACONTAINER@@PAUtagQACONTROL@@@Z 100178f0 f i DeviceMonitor.obj
 0001:00016f40       ?IViewObject_Draw@CComControlBase@ATL@@QAEJKJPAXPAUtagDVTARGETDEVICE@@PAUHDC__@@2PBU_RECTL@@3@Z 10017f40 f i DeviceMonitor.obj
 0001:000171e0       ?InPlaceActivate@CComControlBase@ATL@@QAEJJPBUtagRECT@@@Z 100181e0 f i DeviceMonitor.obj
 0001:00017b70       ?InPlaceDeactivate@?$IOleInPlaceObjectWindowlessImpl@VCOPOSDeviceMonitor@@@ATL@@UAGJXZ 10018b70 f i DeviceMonitor.obj
 0001:00017bf0       ?Increment@CComMultiThreadModel@ATL@@SGKPAJ@Z 10018bf0 f i DeviceMonitor.obj
 0001:00017c10       ?Increment@CComSingleThreadModel@ATL@@SGKPAJ@Z 10018c10 f i DeviceMonitor.obj
 0001:00017c30       ?Init@?$CComEnumImpl@UIEnumConnectionPoints@@$1?_GUID_b196b285_bab4_101a_b69c_00aa00341d07@@3U__s_GUID@@BPAUIConnectionPoint@@V?$_CopyInterface@UIConnectionPoint@@@ATL@@@ATL@@QAEJPAPAUIConnectionPoint@@0PAUIUnknown@@W4CComEnumFlags@2@@Z 10018c30 f i DeviceMonitor.obj
 0001:00017e10       ?Init@?$CComEnumImpl@UIEnumConnections@@$1?_GUID_b196b287_bab4_101a_b69c_00aa00341d07@@3U__s_GUID@@BUtagCONNECTDATA@@V?$_Copy@UtagCONNECTDATA@@@ATL@@@ATL@@QAEJPAUtagCONNECTDATA@@0PAUIUnknown@@W4CComEnumFlags@2@@Z 10018e10 f i DeviceMonitor.obj
 0001:00017ff0       ?Init@CComFakeCriticalSection@ATL@@QAEJXZ 10018ff0 f i DeviceMonitor.obj
 0001:00018000       ?Init@CComModule@ATL@@QAEJPAU_ATL_OBJMAP_ENTRY30@2@PAUHINSTANCE__@@PBU_GUID@@@Z 10019000 f i DeviceMonitor.obj
 0001:000180f0       ?Init@CComSafeDeleteCriticalSection@ATL@@QAEJXZ 100190f0 f i DeviceMonitor.obj
 0001:00018170       ?Init@CDynamicStdCallThunk2@ATL@@QAEHKPAX@Z 10019170 f i DeviceMonitor.obj
 0001:000181d0       ?Init@CWndProcThunk@ATL@@QAEHP6GJPAUHWND__@@IIJ@ZPAX@Z 100191d0 f i DeviceMonitor.obj
 0001:00018210       ?InitFromData@?$IOleObjectImpl@VCOPOSDeviceMonitor@@@ATL@@UAGJPAUIDataObject@@HK@Z 10019210 f i DeviceMonitor.obj
 0001:00018280       ?InitLibId@?$CAtlModuleT@VCComModule@ATL@@@ATL@@SAXXZ 10019280 f i DeviceMonitor.obj
 0001:00018290       ?InitNew@?$IPersistStorageImpl@VCOPOSDeviceMonitor@@@ATL@@UAGJPAUIStorage@@@Z 10019290 f i DeviceMonitor.obj
 0001:00018380       ?InitNew@?$IPersistStreamInitImpl@VCOPOSDeviceMonitor@@@ATL@@UAGJXZ 10019380 f i DeviceMonitor.obj
 0001:00018410       ?InlineIsEqualUnknown@ATL@@YGHABU_GUID@@@Z 10019410 f i DeviceMonitor.obj
 0001:00018480       ?InternalAddRef@?$CComObjectRootEx@VCComMultiThreadModel@ATL@@@ATL@@QAEKXZ 10019480 f i DeviceMonitor.obj
 0001:000184e0       ?InternalAddRef@?$CComObjectRootEx@VCComSingleThreadModel@ATL@@@ATL@@QAEKXZ 100194e0 f i DeviceMonitor.obj
 0001:00018540       ?InternalFinalConstructAddRef@CComObjectRootBase@ATL@@QAEXXZ 10019540 f i DeviceMonitor.obj
 0001:00018550       ?InternalFinalConstructAddRef@COPOSDeviceMonitor@@QAEXXZ 10019550 f i DeviceMonitor.obj
 0001:00018580       ?InternalFinalConstructRelease@CComObjectRootBase@ATL@@QAEXXZ 10019580 f i DeviceMonitor.obj
 0001:000185d0       ?InternalFinalConstructRelease@COPOSDeviceMonitor@@QAEXXZ 100195d0 f i DeviceMonitor.obj
 0001:00018600       ?InternalGetSite@CComControlBase@ATL@@QAEJABU_GUID@@PAPAX@Z 10019600 f i DeviceMonitor.obj
 0001:000186c0       ?InternalQueryInterface@CComObjectRootBase@ATL@@SGJPAXPBU_ATL_INTMAP_ENTRY@2@ABU_GUID@@PAPAX@Z 100196c0 f i DeviceMonitor.obj
 0001:00018780       ?InternalRelease@?$CComObjectRootEx@VCComMultiThreadModel@ATL@@@ATL@@QAEKXZ 10019780 f i DeviceMonitor.obj
 0001:000187f0       ?InternalRelease@?$CComObjectRootEx@VCComSingleThreadModel@ATL@@@ATL@@QAEKXZ 100197f0 f i DeviceMonitor.obj
 0001:00018860       ?InternalSetAtIndex@?$CSimpleArray@GV?$CSimpleArrayEqualHelper@G@ATL@@@ATL@@QAEXHABG@Z 10019860 f i DeviceMonitor.obj
 0001:000188d0       ?InternalSetAtIndex@?$CSimpleMap@PA_WPA_WVCExpansionVectorEqualHelper@ATL@@@ATL@@QAEXHABQA_W0@Z 100198d0 f i DeviceMonitor.obj
 0001:00018970       ?Invoke@?$IDispatchImpl@UIOPOSDeviceMonitor@@$1?IID_IOPOSDeviceMonitor@@3U_GUID@@B$1?LIBID_OposDeviceMonitor_CCO@@3U3@B$00$0A@VCComTypeInfoHolder@ATL@@@ATL@@UAGJJABU_GUID@@KGPAUtagDISPPARAMS@@PAUtagVARIANT@@PAUtagEXCEPINFO@@PAI@Z 10019970 f i DeviceMonitor.obj
 0001:000189b0       ?Invoke@CComTypeInfoHolder@ATL@@QAEJPAUIDispatch@@JABU_GUID@@KGPAUtagDISPPARAMS@@PAUtagVARIANT@@PAUtagEXCEPINFO@@PAI@Z 100199b0 f i DeviceMonitor.obj
 0001:00018a40       ?IsDirty@?$IPersistStorageImpl@VCOPOSDeviceMonitor@@@ATL@@UAGJXZ 10019a40 f i DeviceMonitor.obj
 0001:00018b30       ?IsDirty@?$IPersistStreamInitImpl@VCOPOSDeviceMonitor@@@ATL@@UAGJXZ 10019b30 f i DeviceMonitor.obj
 0001:00018bd0       ?IsEqualKey@CExpansionVectorEqualHelper@ATL@@SA_NQA_W0@Z 10019bd0 f i DeviceMonitor.obj
 0001:00018c00       ?IsEqualObject@?$CComPtrBase@UIOleClientSite@@@ATL@@QAE_NPAUIUnknown@@@Z 10019c00 f i DeviceMonitor.obj
 0001:00018d30       ?IsEqualObject@?$CComPtrBase@UITypeInfo@@@ATL@@QAE_NPAUIUnknown@@@Z 10019d30 f i DeviceMonitor.obj
 0001:00018e60       ?IsSpace@CRegParser@ATL@@IAEH_W@Z 10019e60 f i DeviceMonitor.obj
 0001:00018ec0       ?IsUpToDate@?$IOleObjectImpl@VCOPOSDeviceMonitor@@@ATL@@UAGJXZ 10019ec0 f i DeviceMonitor.obj
 0001:00018f20       ?Length@CComBSTR@ATL@@QBEIXZ 10019f20 f i DeviceMonitor.obj
 0001:00018f60       ?Load@?$IPersistStorageImpl@VCOPOSDeviceMonitor@@@ATL@@UAGJPAUIStorage@@@Z 10019f60 f i DeviceMonitor.obj
 0001:000190c0       ?Load@?$IPersistStreamInitImpl@VCOPOSDeviceMonitor@@@ATL@@UAGJPAUIStream@@@Z 1001a0c0 f i DeviceMonitor.obj
 0001:00019150       ?LoadCursorW@AtlModuleRegisterWndClassInfoParamW@ATL@@SAPAUHICON__@@PAUHINSTANCE__@@PB_W@Z 1001a150 f i DeviceMonitor.obj
 0001:00019180       ?LoadNameCache@CComTypeInfoHolder@ATL@@QAEJPAUITypeInfo@@@Z 1001a180 f i DeviceMonitor.obj
 0001:00019410       ?Lock@?$CComCritSecLock@VCComCriticalSection@ATL@@@ATL@@QAEJXZ 1001a410 f i DeviceMonitor.obj
 0001:000194c0       ?Lock@?$CComObjectRootEx@VCComSingleThreadModel@ATL@@@ATL@@QAEXXZ 1001a4c0 f i DeviceMonitor.obj
 0001:000194d0       ?Lock@CAtlModule@ATL@@UAEJXZ 1001a4d0 f i DeviceMonitor.obj
 0001:00019500       ?Lock@CComCriticalSection@ATL@@QAEJXZ 1001a500 f i DeviceMonitor.obj
 0001:00019540       ?Lock@CComFakeCriticalSection@ATL@@QAEJXZ 1001a540 f i DeviceMonitor.obj
 0001:00019550       ?LockServer@CComClassFactory@ATL@@UAGJH@Z 1001a550 f i DeviceMonitor.obj
 0001:000195b0       ?Lookup@?$CSimpleMap@PA_WPA_WVCExpansionVectorEqualHelper@ATL@@@ATL@@QBEPA_WABQA_W@Z 1001a5b0 f i DeviceMonitor.obj
 0001:00019600       ?Next@?$CComEnumImpl@UIEnumConnectionPoints@@$1?_GUID_b196b285_bab4_101a_b69c_00aa00341d07@@3U__s_GUID@@BPAUIConnectionPoint@@V?$_CopyInterface@UIConnectionPoint@@@ATL@@@ATL@@UAGJKPAPAUIConnectionPoint@@PAK@Z 1001a600 f i DeviceMonitor.obj
 0001:00019770       ?Next@?$CComEnumImpl@UIEnumConnections@@$1?_GUID_b196b287_bab4_101a_b69c_00aa00341d07@@3U__s_GUID@@BUtagCONNECTDATA@@V?$_Copy@UtagCONNECTDATA@@@ATL@@@ATL@@UAGJKPAUtagCONNECTDATA@@PAK@Z 1001a770 f i DeviceMonitor.obj
 0001:000198e0       ?NextToken@CRegParser@ATL@@IAEJPA_W@Z 1001a8e0 f i DeviceMonitor.obj
 0001:00019b80       ?OLE2CT_EX@@YAPB_WPB_WI@Z  1001ab80 f i DeviceMonitor.obj
 0001:00019b90       ?OLE2CT_EX_DEF@@YAPB_WPB_W@Z 1001ab90 f i DeviceMonitor.obj
 0001:00019ba0       ?OLE2T_EX@@YAPA_WPA_WI@Z   1001aba0 f i DeviceMonitor.obj
 0001:00019bb0       ?OnAmbientPropertyChange@?$IOleControlImpl@VCOPOSDeviceMonitor@@@ATL@@UAGJJ@Z 1001abb0 f i DeviceMonitor.obj
 0001:00019c40       ?OnDocWindowActivate@?$IOleInPlaceActiveObjectImpl@VCOPOSDeviceMonitor@@@ATL@@UAGJH@Z 1001ac40 f i DeviceMonitor.obj
 0001:00019cd0       ?OnDrawAdvanced@CComControlBase@ATL@@UAEJAAUATL_DRAWINFO@@@Z 1001acd0 f i DeviceMonitor.obj
 0001:00019ef0       ?OnFinalMessage@?$CWindowImplBaseT@VCWindow@ATL@@V?$CWinTraits@$0FGAAAAAA@$0A@@2@@ATL@@UAEXPAUHWND__@@@Z 1001aef0 f i DeviceMonitor.obj
 0001:00019f00       ?OnFrameWindowActivate@?$IOleInPlaceActiveObjectImpl@VCOPOSDeviceMonitor@@@ATL@@UAGJH@Z 1001af00 f i DeviceMonitor.obj
 0001:00019f60       ?OnKillFocus@CComControlBase@ATL@@QAEJIIJAAH@Z 1001af60 f i DeviceMonitor.obj
 0001:0001a060       ?OnMnemonic@?$IOleControlImpl@VCOPOSDeviceMonitor@@@ATL@@UAGJPAUtagMSG@@@Z 1001b060 f i DeviceMonitor.obj
 0001:0001a0d0       ?OnMouseActivate@CComControlBase@ATL@@QAEJIIJAAH@Z 1001b0d0 f i DeviceMonitor.obj
 0001:0001a220       ?OnPaint@CComControlBase@ATL@@QAEJIIJAAH@Z 1001b220 f i DeviceMonitor.obj
 0001:0001a3a0       ?OnPostVerbDiscardUndo@?$IOleObjectImpl@VCOPOSDeviceMonitor@@@ATL@@QAEJXZ 1001b3a0 f i DeviceMonitor.obj
 0001:0001a3b0       ?OnPostVerbHide@?$IOleObjectImpl@VCOPOSDeviceMonitor@@@ATL@@QAEJXZ 1001b3b0 f i DeviceMonitor.obj
 0001:0001a3c0       ?OnPostVerbInPlaceActivate@?$IOleObjectImpl@VCOPOSDeviceMonitor@@@ATL@@QAEJXZ 1001b3c0 f i DeviceMonitor.obj
 0001:0001a3d0       ?OnPostVerbOpen@?$IOleObjectImpl@VCOPOSDeviceMonitor@@@ATL@@QAEJXZ 1001b3d0 f i DeviceMonitor.obj
 0001:0001a3e0       ?OnPostVerbShow@?$IOleObjectImpl@VCOPOSDeviceMonitor@@@ATL@@QAEJXZ 1001b3e0 f i DeviceMonitor.obj
 0001:0001a3f0       ?OnPostVerbUIActivate@?$IOleObjectImpl@VCOPOSDeviceMonitor@@@ATL@@QAEJXZ 1001b3f0 f i DeviceMonitor.obj
 0001:0001a400       ?OnPreVerbDiscardUndo@?$IOleObjectImpl@VCOPOSDeviceMonitor@@@ATL@@QAEJXZ 1001b400 f i DeviceMonitor.obj
 0001:0001a410       ?OnPreVerbHide@?$IOleObjectImpl@VCOPOSDeviceMonitor@@@ATL@@QAEJXZ 1001b410 f i DeviceMonitor.obj
 0001:0001a420       ?OnPreVerbInPlaceActivate@?$IOleObjectImpl@VCOPOSDeviceMonitor@@@ATL@@QAEJXZ 1001b420 f i DeviceMonitor.obj
 0001:0001a430       ?OnPreVerbOpen@?$IOleObjectImpl@VCOPOSDeviceMonitor@@@ATL@@QAEJXZ 1001b430 f i DeviceMonitor.obj
 0001:0001a440       ?OnPreVerbShow@?$IOleObjectImpl@VCOPOSDeviceMonitor@@@ATL@@QAEJXZ 1001b440 f i DeviceMonitor.obj
 0001:0001a450       ?OnPreVerbUIActivate@?$IOleObjectImpl@VCOPOSDeviceMonitor@@@ATL@@QAEJXZ 1001b450 f i DeviceMonitor.obj
 0001:0001a460       ?OnSetFocus@CComControlBase@ATL@@QAEJIIJAAH@Z 1001b460 f i DeviceMonitor.obj
 0001:0001a5f0       ?OnWindowMessage@?$IOleInPlaceObjectWindowlessImpl@VCOPOSDeviceMonitor@@@ATL@@UAGJIIJPAJ@Z 1001b5f0 f i DeviceMonitor.obj
 0001:0001a750       ?Open@CRegKey@ATL@@QAEJPAUHKEY__@@PB_WK@Z 1001b750 f i DeviceMonitor.obj
 0001:0001a8a0       ?OuterAddRef@CComObjectRootBase@ATL@@QAEKXZ 1001b8a0 f i DeviceMonitor.obj
 0001:0001a8e0       ?OuterQueryInterface@CComObjectRootBase@ATL@@QAEJABU_GUID@@PAPAX@Z 1001b8e0 f i DeviceMonitor.obj
 0001:0001a930       ?OuterRelease@CComObjectRootBase@ATL@@QAEKXZ 1001b930 f i DeviceMonitor.obj
 0001:0001a970       ?PreProcessBuffer@CRegParser@ATL@@QAEJPA_WPAPA_W@Z 1001b970 f i DeviceMonitor.obj
 0001:0001aeb0       ?PreTranslateAccelerator@CComControlBase@ATL@@QAEHPAUtagMSG@@AAJ@Z 1001beb0 f i DeviceMonitor.obj
 0001:0001aec0       ?ProcessWindowMessage@?$CComControl@VCOPOSDeviceMonitor@@V?$CWindowImpl@VCOPOSDeviceMonitor@@VCWindow@ATL@@V?$CWinTraits@$0FGAAAAAA@$0A@@3@@ATL@@@ATL@@UAEHPAUHWND__@@IIJAAJK@Z 1001bec0 f i DeviceMonitor.obj
 0001:0001b090       ?ProcessWindowMessage@COPOSDeviceMonitor@@UAEHPAUHWND__@@IIJAAJK@Z 1001c090 f i DeviceMonitor.obj
 0001:0001b190       ?PutProperty@?$CComPtr@UIDispatch@@@ATL@@QAEJJPAUtagVARIANT@@@Z 1001c190 f i DeviceMonitor.obj
 0001:0001b1d0       ?PutProperty@?$CComPtr@UIDispatch@@@ATL@@SAJPAUIDispatch@@JPAUtagVARIANT@@@Z 1001c1d0 f i DeviceMonitor.obj
 0001:0001b3c0       ?QueryGetData@?$IDataObjectImpl@VCOPOSDeviceMonitor@@@ATL@@UAGJPAUtagFORMATETC@@@Z 1001c3c0 f i DeviceMonitor.obj
 0001:0001b430       ?QueryHitPoint@?$IViewObjectExImpl@VCOPOSDeviceMonitor@@@ATL@@UAGJKPBUtagRECT@@UtagPOINT@@JPAK@Z 1001c430 f i DeviceMonitor.obj
 0001:0001b540       ?QueryHitRect@?$IViewObjectExImpl@VCOPOSDeviceMonitor@@@ATL@@UAGJKPBUtagRECT@@0JPAK@Z 1001c540 f i DeviceMonitor.obj
 0001:0001b690       ?QueryInterface@?$CComAggObject@VCOPOSDeviceMonitor@@@ATL@@UAGJABU_GUID@@PAPAX@Z 1001c690 f i DeviceMonitor.obj
 0001:0001b740       ?QueryInterface@?$CComContainedObject@VCOPOSDeviceMonitor@@@ATL@@UAGJABU_GUID@@PAPAX@Z 1001c740 f i DeviceMonitor.obj
 0001:0001b764       ?QueryInterface@?$CComContainedObject@VCOPOSDeviceMonitor@@@ATL@@WHA@AGJABU_GUID@@PAPAX@Z 1001c764 f i DeviceMonitor.obj
 0001:0001b76e       ?QueryInterface@?$CComContainedObject@VCOPOSDeviceMonitor@@@ATL@@WHE@AGJABU_GUID@@PAPAX@Z 1001c76e f i DeviceMonitor.obj
 0001:0001b778       ?QueryInterface@?$CComContainedObject@VCOPOSDeviceMonitor@@@ATL@@WHI@AGJABU_GUID@@PAPAX@Z 1001c778 f i DeviceMonitor.obj
 0001:0001b782       ?QueryInterface@?$CComContainedObject@VCOPOSDeviceMonitor@@@ATL@@WHM@AGJABU_GUID@@PAPAX@Z 1001c782 f i DeviceMonitor.obj
 0001:0001b78c       ?QueryInterface@?$CComContainedObject@VCOPOSDeviceMonitor@@@ATL@@WIA@AGJABU_GUID@@PAPAX@Z 1001c78c f i DeviceMonitor.obj
 0001:0001b799       ?QueryInterface@?$CComContainedObject@VCOPOSDeviceMonitor@@@ATL@@WIE@AGJABU_GUID@@PAPAX@Z 1001c799 f i DeviceMonitor.obj
 0001:0001b7a6       ?QueryInterface@?$CComContainedObject@VCOPOSDeviceMonitor@@@ATL@@WII@AGJABU_GUID@@PAPAX@Z 1001c7a6 f i DeviceMonitor.obj
 0001:0001b7b3       ?QueryInterface@?$CComContainedObject@VCOPOSDeviceMonitor@@@ATL@@WIM@AGJABU_GUID@@PAPAX@Z 1001c7b3 f i DeviceMonitor.obj
 0001:0001b7c0       ?QueryInterface@?$CComContainedObject@VCOPOSDeviceMonitor@@@ATL@@WJA@AGJABU_GUID@@PAPAX@Z 1001c7c0 f i DeviceMonitor.obj
 0001:0001b7cd       ?QueryInterface@?$CComContainedObject@VCOPOSDeviceMonitor@@@ATL@@WJE@AGJABU_GUID@@PAPAX@Z 1001c7cd f i DeviceMonitor.obj
 0001:0001b7da       ?QueryInterface@?$CComContainedObject@VCOPOSDeviceMonitor@@@ATL@@WJI@AGJABU_GUID@@PAPAX@Z 1001c7da f i DeviceMonitor.obj
 0001:0001b7e7       ?QueryInterface@?$CComContainedObject@VCOPOSDeviceMonitor@@@ATL@@WJM@AGJABU_GUID@@PAPAX@Z 1001c7e7 f i DeviceMonitor.obj
 0001:0001b7f4       ?QueryInterface@?$CComContainedObject@VCOPOSDeviceMonitor@@@ATL@@WKA@AGJABU_GUID@@PAPAX@Z 1001c7f4 f i DeviceMonitor.obj
 0001:0001b810       ?QueryInterface@?$CComObject@V?$CComEnum@UIEnumConnectionPoints@@$1?_GUID_b196b285_bab4_101a_b69c_00aa00341d07@@3U__s_GUID@@BPAUIConnectionPoint@@V?$_CopyInterface@UIConnectionPoint@@@ATL@@VCComSingleThreadModel@6@@ATL@@@ATL@@UAGJABU_GUID@@PAPAX@Z 1001c810 f i DeviceMonitor.obj
 0001:0001b830       ?QueryInterface@?$CComObject@V?$CComEnum@UIEnumConnections@@$1?_GUID_b196b287_bab4_101a_b69c_00aa00341d07@@3U__s_GUID@@BUtagCONNECTDATA@@V?$_Copy@UtagCONNECTDATA@@@ATL@@VCComSingleThreadModel@6@@ATL@@@ATL@@UAGJABU_GUID@@PAPAX@Z 1001c830 f i DeviceMonitor.obj
 0001:0001b850       ?QueryInterface@?$CComObject@VCOPOSDeviceMonitor@@@ATL@@UAGJABU_GUID@@PAPAX@Z 1001c850 f i DeviceMonitor.obj
 0001:0001b86e       ?QueryInterface@?$CComObject@VCOPOSDeviceMonitor@@@ATL@@WHA@AGJABU_GUID@@PAPAX@Z 1001c86e f i DeviceMonitor.obj
 0001:0001b878       ?QueryInterface@?$CComObject@VCOPOSDeviceMonitor@@@ATL@@WHE@AGJABU_GUID@@PAPAX@Z 1001c878 f i DeviceMonitor.obj
 0001:0001b882       ?QueryInterface@?$CComObject@VCOPOSDeviceMonitor@@@ATL@@WHI@AGJABU_GUID@@PAPAX@Z 1001c882 f i DeviceMonitor.obj
 0001:0001b88c       ?QueryInterface@?$CComObject@VCOPOSDeviceMonitor@@@ATL@@WHM@AGJABU_GUID@@PAPAX@Z 1001c88c f i DeviceMonitor.obj
 0001:0001b896       ?QueryInterface@?$CComObject@VCOPOSDeviceMonitor@@@ATL@@WIA@AGJABU_GUID@@PAPAX@Z 1001c896 f i DeviceMonitor.obj
 0001:0001b8a3       ?QueryInterface@?$CComObject@VCOPOSDeviceMonitor@@@ATL@@WIE@AGJABU_GUID@@PAPAX@Z 1001c8a3 f i DeviceMonitor.obj
 0001:0001b8b0       ?QueryInterface@?$CComObject@VCOPOSDeviceMonitor@@@ATL@@WII@AGJABU_GUID@@PAPAX@Z 1001c8b0 f i DeviceMonitor.obj
 0001:0001b8bd       ?QueryInterface@?$CComObject@VCOPOSDeviceMonitor@@@ATL@@WIM@AGJABU_GUID@@PAPAX@Z 1001c8bd f i DeviceMonitor.obj
 0001:0001b8ca       ?QueryInterface@?$CComObject@VCOPOSDeviceMonitor@@@ATL@@WJA@AGJABU_GUID@@PAPAX@Z 1001c8ca f i DeviceMonitor.obj
 0001:0001b8d7       ?QueryInterface@?$CComObject@VCOPOSDeviceMonitor@@@ATL@@WJE@AGJABU_GUID@@PAPAX@Z 1001c8d7 f i DeviceMonitor.obj
 0001:0001b8e4       ?QueryInterface@?$CComObject@VCOPOSDeviceMonitor@@@ATL@@WJI@AGJABU_GUID@@PAPAX@Z 1001c8e4 f i DeviceMonitor.obj
 0001:0001b8f1       ?QueryInterface@?$CComObject@VCOPOSDeviceMonitor@@@ATL@@WJM@AGJABU_GUID@@PAPAX@Z 1001c8f1 f i DeviceMonitor.obj
 0001:0001b8fe       ?QueryInterface@?$CComObject@VCOPOSDeviceMonitor@@@ATL@@WKA@AGJABU_GUID@@PAPAX@Z 1001c8fe f i DeviceMonitor.obj
 0001:0001b910       ?QueryInterface@?$CComObjectCached@VCComClassFactory@ATL@@@ATL@@UAGJABU_GUID@@PAPAX@Z 1001c910 f i DeviceMonitor.obj
 0001:0001b930       ?QueryInterface@CRegObject@ATL@@UAGJABU_GUID@@PAPAX@Z 1001c930 f i DeviceMonitor.obj
 0001:0001b980       ?QuickActivate@?$IQuickActivateImpl@VCOPOSDeviceMonitor@@@ATL@@UAGJPAUtagQACONTAINER@@PAUtagQACONTROL@@@Z 1001c980 f i DeviceMonitor.obj
 0001:0001ba10       ?ReactivateAndUndo@?$IOleInPlaceObjectWindowlessImpl@VCOPOSDeviceMonitor@@@ATL@@UAGJXZ 1001ca10 f i DeviceMonitor.obj
 0001:0001ba80       ?ReadFromStream@CComBSTR@ATL@@QAEJPAUIStream@@@Z 1001ca80 f i DeviceMonitor.obj
 0001:0001be80       ?ReadFromStream@CComVariant@ATL@@QAEJPAUIStream@@GTClassesAllowedInStream@2@K@Z 1001ce80 f i DeviceMonitor.obj
 0001:0001c200       ?RecurseDeleteKey@CRegKey@ATL@@QAEJPB_W@Z 1001d200 f i DeviceMonitor.obj
 0001:0001c3e0       ?RegCreateKeyExW@CAtlTransactionManager@ATL@@QAEJPAUHKEY__@@PB_WKPA_WKKQAU_SECURITY_ATTRIBUTES@@PAPAU3@PAK@Z 1001d3e0 f i DeviceMonitor.obj
 0001:0001c510       ?RegDeleteKeyW@CAtlTransactionManager@ATL@@QAEJPAUHKEY__@@PB_W@Z 1001d510 f i DeviceMonitor.obj
 0001:0001c610       ?RegOpenKeyExW@CAtlTransactionManager@ATL@@QAEJPAUHKEY__@@PB_WKKPAPAU3@@Z 1001d610 f i DeviceMonitor.obj
 0001:0001c720       ?Register@_ATL_WNDCLASSINFOW@ATL@@QAEGPAP6GJPAUHWND__@@IIJ@Z@Z 1001d720 f i DeviceMonitor.obj
 0001:0001c760       ?RegisterBuffer@CRegParser@ATL@@QAEJPA_WH@Z 1001d760 f i DeviceMonitor.obj
 0001:0001ca90       ?RegisterClassExW@AtlModuleRegisterWndClassInfoParamW@ATL@@SAGPAU_ATL_WIN_MODULE70@2@PBUtagWNDCLASSEXW@@@Z 1001da90 f i DeviceMonitor.obj
 0001:0001cab0       ?RegisterFromResource@CRegObject@ATL@@IAEJPB_W00H@Z 1001dab0 f i DeviceMonitor.obj
 0001:0001ce40       ?RegisterServer@?$CAtlModuleT@VCComModule@ATL@@@ATL@@QAEJHPBU_GUID@@@Z 1001de40 f i DeviceMonitor.obj
 0001:0001cec0       ?RegisterServer@CAtlComModule@ATL@@QAEJHPBU_GUID@@@Z 1001dec0 f i DeviceMonitor.obj
 0001:0001cef0       ?RegisterServer@CComModule@ATL@@QAEJHPBU_GUID@@@Z 1001def0 f i DeviceMonitor.obj
 0001:0001cfd0       ?RegisterSubkeys@CRegParser@ATL@@IAEJPA_WPAUHKEY__@@HH@Z 1001dfd0 f i DeviceMonitor.obj
 0001:0001daf0       ?Release@?$CComAggObject@VCOPOSDeviceMonitor@@@ATL@@UAGKXZ 1001eaf0 f i DeviceMonitor.obj
 0001:0001dbb0       ?Release@?$CComContainedObject@VCOPOSDeviceMonitor@@@ATL@@UAGKXZ 1001ebb0 f i DeviceMonitor.obj
 0001:0001dbcc       ?Release@?$CComContainedObject@VCOPOSDeviceMonitor@@@ATL@@WHA@AGKXZ 1001ebcc f i DeviceMonitor.obj
 0001:0001dbd6       ?Release@?$CComContainedObject@VCOPOSDeviceMonitor@@@ATL@@WHE@AGKXZ 1001ebd6 f i DeviceMonitor.obj
 0001:0001dbe0       ?Release@?$CComContainedObject@VCOPOSDeviceMonitor@@@ATL@@WHI@AGKXZ 1001ebe0 f i DeviceMonitor.obj
 0001:0001dbea       ?Release@?$CComContainedObject@VCOPOSDeviceMonitor@@@ATL@@WHM@AGKXZ 1001ebea f i DeviceMonitor.obj
 0001:0001dbf4       ?Release@?$CComContainedObject@VCOPOSDeviceMonitor@@@ATL@@WIA@AGKXZ 1001ebf4 f i DeviceMonitor.obj
 0001:0001dc01       ?Release@?$CComContainedObject@VCOPOSDeviceMonitor@@@ATL@@WIE@AGKXZ 1001ec01 f i DeviceMonitor.obj
 0001:0001dc0e       ?Release@?$CComContainedObject@VCOPOSDeviceMonitor@@@ATL@@WII@AGKXZ 1001ec0e f i DeviceMonitor.obj
 0001:0001dc1b       ?Release@?$CComContainedObject@VCOPOSDeviceMonitor@@@ATL@@WIM@AGKXZ 1001ec1b f i DeviceMonitor.obj
 0001:0001dc28       ?Release@?$CComContainedObject@VCOPOSDeviceMonitor@@@ATL@@WJA@AGKXZ 1001ec28 f i DeviceMonitor.obj
 0001:0001dc35       ?Release@?$CComContainedObject@VCOPOSDeviceMonitor@@@ATL@@WJE@AGKXZ 1001ec35 f i DeviceMonitor.obj
 0001:0001dc42       ?Release@?$CComContainedObject@VCOPOSDeviceMonitor@@@ATL@@WJI@AGKXZ 1001ec42 f i DeviceMonitor.obj
 0001:0001dc4f       ?Release@?$CComContainedObject@VCOPOSDeviceMonitor@@@ATL@@WJM@AGKXZ 1001ec4f f i DeviceMonitor.obj
 0001:0001dc5c       ?Release@?$CComContainedObject@VCOPOSDeviceMonitor@@@ATL@@WKA@AGKXZ 1001ec5c f i DeviceMonitor.obj
 0001:0001dc69       ?Release@?$CComContainedObject@VCOPOSDeviceMonitor@@@ATL@@WKI@AGKXZ 1001ec69 f i DeviceMonitor.obj
 0001:0001dc76       ?Release@?$CComContainedObject@VCOPOSDeviceMonitor@@@ATL@@WLE@AGKXZ 1001ec76 f i DeviceMonitor.obj
 0001:0001dc90       ?Release@?$CComObject@V?$CComEnum@UIEnumConnectionPoints@@$1?_GUID_b196b285_bab4_101a_b69c_00aa00341d07@@3U__s_GUID@@BPAUIConnectionPoint@@V?$_CopyInterface@UIConnectionPoint@@@ATL@@VCComSingleThreadModel@6@@ATL@@@ATL@@UAGKXZ 1001ec90 f i DeviceMonitor.obj
 0001:0001dd50       ?Release@?$CComObject@V?$CComEnum@UIEnumConnections@@$1?_GUID_b196b287_bab4_101a_b69c_00aa00341d07@@3U__s_GUID@@BUtagCONNECTDATA@@V?$_Copy@UtagCONNECTDATA@@@ATL@@VCComSingleThreadModel@6@@ATL@@@ATL@@UAGKXZ 1001ed50 f i DeviceMonitor.obj
 0001:0001de10       ?Release@?$CComObject@VCOPOSDeviceMonitor@@@ATL@@UAGKXZ 1001ee10 f i DeviceMonitor.obj
 0001:0001dec9       ?Release@?$CComObject@VCOPOSDeviceMonitor@@@ATL@@WHA@AGKXZ 1001eec9 f i DeviceMonitor.obj
 0001:0001ded3       ?Release@?$CComObject@VCOPOSDeviceMonitor@@@ATL@@WHE@AGKXZ 1001eed3 f i DeviceMonitor.obj
 0001:0001dedd       ?Release@?$CComObject@VCOPOSDeviceMonitor@@@ATL@@WHI@AGKXZ 1001eedd f i DeviceMonitor.obj
 0001:0001dee7       ?Release@?$CComObject@VCOPOSDeviceMonitor@@@ATL@@WHM@AGKXZ 1001eee7 f i DeviceMonitor.obj
 0001:0001def1       ?Release@?$CComObject@VCOPOSDeviceMonitor@@@ATL@@WIA@AGKXZ 1001eef1 f i DeviceMonitor.obj
 0001:0001defe       ?Release@?$CComObject@VCOPOSDeviceMonitor@@@ATL@@WIE@AGKXZ 1001eefe f i DeviceMonitor.obj
 0001:0001df0b       ?Release@?$CComObject@VCOPOSDeviceMonitor@@@ATL@@WII@AGKXZ 1001ef0b f i DeviceMonitor.obj
 0001:0001df18       ?Release@?$CComObject@VCOPOSDeviceMonitor@@@ATL@@WIM@AGKXZ 1001ef18 f i DeviceMonitor.obj
 0001:0001df25       ?Release@?$CComObject@VCOPOSDeviceMonitor@@@ATL@@WJA@AGKXZ 1001ef25 f i DeviceMonitor.obj
 0001:0001df32       ?Release@?$CComObject@VCOPOSDeviceMonitor@@@ATL@@WJE@AGKXZ 1001ef32 f i DeviceMonitor.obj
 0001:0001df3f       ?Release@?$CComObject@VCOPOSDeviceMonitor@@@ATL@@WJI@AGKXZ 1001ef3f f i DeviceMonitor.obj
 0001:0001df4c       ?Release@?$CComObject@VCOPOSDeviceMonitor@@@ATL@@WJM@AGKXZ 1001ef4c f i DeviceMonitor.obj
 0001:0001df59       ?Release@?$CComObject@VCOPOSDeviceMonitor@@@ATL@@WKA@AGKXZ 1001ef59 f i DeviceMonitor.obj
 0001:0001df66       ?Release@?$CComObject@VCOPOSDeviceMonitor@@@ATL@@WKI@AGKXZ 1001ef66 f i DeviceMonitor.obj
 0001:0001df73       ?Release@?$CComObject@VCOPOSDeviceMonitor@@@ATL@@WLE@AGKXZ 1001ef73 f i DeviceMonitor.obj
 0001:0001df80       ?Release@?$CComObjectCached@VCComClassFactory@ATL@@@ATL@@UAGKXZ 1001ef80 f i DeviceMonitor.obj
 0001:0001e020       ?Release@?$CComPtrBase@UIAdviseSink@@@ATL@@QAEXXZ 1001f020 f i DeviceMonitor.obj
 0001:0001e080       ?Release@?$CComPtrBase@UIDispatch@@@ATL@@QAEXXZ 1001f080 f i DeviceMonitor.obj
 0001:0001e0e0       ?Release@?$CComPtrBase@UIOleInPlaceSiteWindowless@@@ATL@@QAEXXZ 1001f0e0 f i DeviceMonitor.obj
 0001:0001e140       ?Release@CRegObject@ATL@@UAGKXZ 1001f140 f i DeviceMonitor.obj
 0001:0001e180       ?Remove@CComDynamicUnkArray@ATL@@QAEHK@Z 1001f180 f i DeviceMonitor.obj
 0001:0001e230       ?RemoveAll@?$CSimpleMap@PA_WPA_WVCExpansionVectorEqualHelper@ATL@@@ATL@@QAEXXZ 1001f230 f i DeviceMonitor.obj
 0001:0001e2c0       ?Reset@?$CComEnumImpl@UIEnumConnectionPoints@@$1?_GUID_b196b285_bab4_101a_b69c_00aa00341d07@@3U__s_GUID@@BPAUIConnectionPoint@@V?$_CopyInterface@UIConnectionPoint@@@ATL@@@ATL@@UAGJXZ 1001f2c0 f i DeviceMonitor.obj
 0001:0001e2e0       ?Reset@?$CComEnumImpl@UIEnumConnections@@$1?_GUID_b196b287_bab4_101a_b69c_00aa00341d07@@3U__s_GUID@@BUtagCONNECTDATA@@V?$_Copy@UtagCONNECTDATA@@@ATL@@@ATL@@UAGJXZ 1001f2e0 f i DeviceMonitor.obj
 0001:0001e300       ?ResizeBorder@?$IOleInPlaceActiveObjectImpl@VCOPOSDeviceMonitor@@@ATL@@UAGJPBUtagRECT@@PAUIOleInPlaceUIWindow@@H@Z 1001f300 f i DeviceMonitor.obj
 0001:0001e360       ?ResourceRegister@CRegObject@ATL@@QAGJPB_WI0@Z 1001f360 f i DeviceMonitor.obj
 0001:0001e440       ?ResourceRegisterSz@CRegObject@ATL@@QAGJPB_W00@Z 1001f440 f i DeviceMonitor.obj
 0001:0001e540       ?ResourceUnregister@CRegObject@ATL@@QAGJPB_WI0@Z 1001f540 f i DeviceMonitor.obj
 0001:0001e620       ?ResourceUnregisterSz@CRegObject@ATL@@QAGJPB_W00@Z 1001f620 f i DeviceMonitor.obj
 0001:0001e720       ?SOData@COPOSDeviceMonitor@@MAGJJ@Z 1001f720 f i DeviceMonitor.obj
 0001:0001e7a0       ?SODirectIO@COPOSDeviceMonitor@@MAGJJPAJPAPA_W@Z 1001f7a0 f i DeviceMonitor.obj
 0001:0001e960       ?SOError@COPOSDeviceMonitor@@MAGJJJJPAJ@Z 1001f960 f i DeviceMonitor.obj
 0001:0001ea20       ?SOOutputCompleteDummy@COPOSDeviceMonitor@@MAGJJ@Z 1001fa20 f i DeviceMonitor.obj
 0001:0001ea30       ?SOStatusUpdate@COPOSDeviceMonitor@@MAGJJ@Z 1001fa30 f i DeviceMonitor.obj
 0001:0001eab0       ?Save@?$IPersistStorageImpl@VCOPOSDeviceMonitor@@@ATL@@UAGJPAUIStorage@@H@Z 1001fab0 f i DeviceMonitor.obj
 0001:0001ec10       ?Save@?$IPersistStreamInitImpl@VCOPOSDeviceMonitor@@@ATL@@UAGJPAUIStream@@H@Z 1001fc10 f i DeviceMonitor.obj
 0001:0001eca0       ?SaveCompleted@?$IPersistStorageImpl@VCOPOSDeviceMonitor@@@ATL@@UAGJPAUIStorage@@@Z 1001fca0 f i DeviceMonitor.obj
 0001:0001ed00       ?SendOnDataChange@CComControlBase@ATL@@QAEJK@Z 1001fd00 f i DeviceMonitor.obj
 0001:0001edf0       ?SendOnSave@CComControlBase@ATL@@QAEJXZ 1001fdf0 f i DeviceMonitor.obj
 0001:0001ee60       ?SendOnViewChange@CComControlBase@ATL@@QAEJKJ@Z 1001fe60 f i DeviceMonitor.obj
 0001:0001eed0       ?SetAdvise@?$IViewObjectExImpl@VCOPOSDeviceMonitor@@@ATL@@UAGJKKPAUIAdviseSink@@@Z 1001fed0 f i DeviceMonitor.obj
 0001:0001ef60       ?SetClientSite@?$IOleObjectImpl@VCOPOSDeviceMonitor@@@ATL@@UAGJPAUIOleClientSite@@@Z 1001ff60 f i DeviceMonitor.obj
 0001:0001eff0       ?SetColorScheme@?$IOleObjectImpl@VCOPOSDeviceMonitor@@@ATL@@UAGJPAUtagLOGPALETTE@@@Z 1001fff0 f i DeviceMonitor.obj
 0001:0001f060       ?SetContentExtent@?$IQuickActivateImpl@VCOPOSDeviceMonitor@@@ATL@@UAGJPAUtagSIZE@@@Z 10020060 f i DeviceMonitor.obj
 0001:0001f0f0       ?SetControlFocus@CComControlBase@ATL@@QAEHH@Z 100200f0 f i DeviceMonitor.obj
 0001:0001f270       ?SetDWORDValue@CRegKey@ATL@@QAEJPB_WK@Z 10020270 f i DeviceMonitor.obj
 0001:0001f2f0       ?SetData@?$IDataObjectImpl@VCOPOSDeviceMonitor@@@ATL@@UAGJPAUtagFORMATETC@@PAUtagSTGMEDIUM@@H@Z 100202f0 f i DeviceMonitor.obj
 0001:0001f360       ?SetExtent@?$IOleObjectImpl@VCOPOSDeviceMonitor@@@ATL@@UAGJKPAUtagSIZE@@@Z 10020360 f i DeviceMonitor.obj
 0001:0001f3f0       ?SetHostNames@?$IOleObjectImpl@VCOPOSDeviceMonitor@@@ATL@@UAGJPB_W0@Z 100203f0 f i DeviceMonitor.obj
 0001:0001f450       ?SetInterfaceSafetyOptions@?$IObjectSafetyImpl@VCOPOSDeviceMonitor@@$02@ATL@@UAGJABU_GUID@@KK@Z 10020450 f i DeviceMonitor.obj
 0001:0001f5c0       ?SetMoniker@?$IOleObjectImpl@VCOPOSDeviceMonitor@@@ATL@@UAGJKPAUIMoniker@@@Z 100205c0 f i DeviceMonitor.obj
 0001:0001f630       ?SetMultiStringValue@CRegKey@ATL@@QAEJPB_W0@Z 10020630 f i DeviceMonitor.obj
 0001:0001f750       ?SetObjectRects@?$IOleInPlaceObjectWindowlessImpl@VCOPOSDeviceMonitor@@@ATL@@UAGJPBUtagRECT@@0@Z 10020750 f i DeviceMonitor.obj
 0001:0001f7e0       ?SetStringValue@CRegKey@ATL@@QAEJPB_W0K@Z 100207e0 f i DeviceMonitor.obj
 0001:0001f910       ?SetVoid@CComClassFactory@ATL@@QAEXPAX@Z 10020910 f i DeviceMonitor.obj
 0001:0001f930       ?SetVoid@CComObjectRootBase@ATL@@QAEXPAX@Z 10020930 f i DeviceMonitor.obj
 0001:0001f940       ?SetWindowLongPtrW@@YAJPAUHWND__@@HJ@Z 10020940 f i DeviceMonitor.obj
 0001:0001f970       ?ShowWindow@CWindow@ATL@@QAEHH@Z 10020970 f i DeviceMonitor.obj
 0001:0001f9f0       ?Skip@?$CComEnumImpl@UIEnumConnectionPoints@@$1?_GUID_b196b285_bab4_101a_b69c_00aa00341d07@@3U__s_GUID@@BPAUIConnectionPoint@@V?$_CopyInterface@UIConnectionPoint@@@ATL@@@ATL@@UAGJK@Z 100209f0 f i DeviceMonitor.obj
 0001:0001fa60       ?Skip@?$CComEnumImpl@UIEnumConnections@@$1?_GUID_b196b287_bab4_101a_b69c_00aa00341d07@@3U__s_GUID@@BUtagCONNECTDATA@@V?$_Copy@UtagCONNECTDATA@@@ATL@@@ATL@@UAGJK@Z 10020a60 f i DeviceMonitor.obj
 0001:0001fad0       ?SkipAssignment@CRegParser@ATL@@IAEJPA_W@Z 10020ad0 f i DeviceMonitor.obj
 0001:0001fbb0       ?SkipWhiteSpace@CRegParser@ATL@@IAEXXZ 10020bb0 f i DeviceMonitor.obj
 0001:0001fc00       ?StartWindowProc@?$CWindowImplBaseT@VCWindow@ATL@@V?$CWinTraits@$0FGAAAAAA@$0A@@2@@ATL@@SGJPAUHWND__@@IIJ@Z 10020c00 f i DeviceMonitor.obj
 0001:0001fd20       ?StrChrW@CRegParser@ATL@@KAPA_WPA_W_W@Z 10020d20 f i DeviceMonitor.obj
 0001:0001fd90       ?StrFromMap@CRegObject@ATL@@QAEPB_WPA_W@Z 10020d90 f i DeviceMonitor.obj
 0001:0001fe20       ?Swap@?$CComPtrBase@UIAdviseSink@@@ATL@@IAEXAAV12@@Z 10020e20 f i DeviceMonitor.obj
 0001:0001fe50       ?Swap@?$CComPtrBase@UIOleClientSite@@@ATL@@IAEXAAV12@@Z 10020e50 f i DeviceMonitor.obj
 0001:0001fe80       ?Swap@?$CComPtrBase@UIUnknown@@@ATL@@IAEXAAV12@@Z 10020e80 f i DeviceMonitor.obj
 0001:0001feb0       ?T2COLE_EX@@YAPB_WPB_WI@Z  10020eb0 f i DeviceMonitor.obj
 0001:0001fec0       ?T2OLE_EX@@YAPA_WPA_WI@Z   10020ec0 f i DeviceMonitor.obj
 0001:0001fed0       ?Term@CAtlModule@ATL@@QAEXXZ 10020ed0 f i DeviceMonitor.obj
 0001:0001ff80       ?Term@CComModule@ATL@@QAEXXZ 10020f80 f i DeviceMonitor.obj
 0001:00020070       ?TranslateAcceleratorW@?$IOleInPlaceActiveObjectImpl@VCOPOSDeviceMonitor@@@ATL@@UAGJPAUtagMSG@@@Z 10021070 f i DeviceMonitor.obj
 0001:00020270       ?UIDeactivate@?$IOleInPlaceObjectWindowlessImpl@VCOPOSDeviceMonitor@@@ATL@@UAGJXZ 10021270 f i DeviceMonitor.obj
 0001:000202f0       ?Unadvise@?$CProxy_IOPOSEvents@VCOPOSDeviceMonitor@@@@UAGJK@Z 100212f0 f i DeviceMonitor.obj
 0001:00020330       ?Unadvise@?$IConnectionPointImpl@VCOPOSDeviceMonitor@@$1?DIID__IOPOSDeviceMonitorEvents@@3U_GUID@@BVCComDynamicUnkArray@ATL@@@ATL@@UAGJK@Z 10021330 f i DeviceMonitor.obj
 0001:00020400       ?Unadvise@?$IConnectionPointImpl@VCOPOSDeviceMonitor@@$1?IID_IPropertyNotifySink@@3U_GUID@@BVCComDynamicUnkArray@ATL@@@ATL@@UAGJK@Z 10021400 f i DeviceMonitor.obj
 0001:000204d0       ?Unadvise@?$IOleObjectImpl@VCOPOSDeviceMonitor@@@ATL@@UAGJK@Z 100214d0 f i DeviceMonitor.obj
 0001:000205a0       ?Unfreeze@?$IViewObjectExImpl@VCOPOSDeviceMonitor@@@ATL@@UAGJK@Z 100215a0 f i DeviceMonitor.obj
 0001:00020610       ?Unlock@?$CComCritSecLock@VCComCriticalSection@ATL@@@ATL@@QAEXXZ 10021610 f i DeviceMonitor.obj
 0001:00020680       ?Unlock@?$CComObjectRootEx@VCComSingleThreadModel@ATL@@@ATL@@QAEXXZ 10021680 f i DeviceMonitor.obj
 0001:00020690       ?Unlock@CAtlModule@ATL@@UAEJXZ 10021690 f i DeviceMonitor.obj
 0001:000206c0       ?Unlock@CComCriticalSection@ATL@@QAEJXZ 100216c0 f i DeviceMonitor.obj
 0001:00020700       ?Unlock@CComFakeCriticalSection@ATL@@QAEJXZ 10021700 f i DeviceMonitor.obj
 0001:00020710       ?UnregisterServer@?$CAtlModuleT@VCComModule@ATL@@@ATL@@QAEJHPBU_GUID@@@Z 10021710 f i DeviceMonitor.obj
 0001:00020780       ?UnregisterServer@CAtlComModule@ATL@@QAEJHPBU_GUID@@@Z 10021780 f i DeviceMonitor.obj
 0001:000207b0       ?UnregisterServer@CComModule@ATL@@QAEJHPBU_GUID@@@Z 100217b0 f i DeviceMonitor.obj
 0001:00020890       ?Update@?$IOleObjectImpl@VCOPOSDeviceMonitor@@@ATL@@UAGJXZ 10021890 f i DeviceMonitor.obj
 0001:000208f0       ?UpdateRegistryFromResource@CAtlModule@ATL@@QAGJIHPAU_ATL_REGMAP_ENTRY@2@@Z 100218f0 f i DeviceMonitor.obj
 0001:00020dc0       ?UpdateRegistryFromResource@CAtlModule@ATL@@QAGJPB_WHPAU_ATL_REGMAP_ENTRY@2@@Z 10021dc0 f i DeviceMonitor.obj
 0001:000212b0       ?UpdateRegistryFromResource@CComModule@ATL@@UAGJIHPAU_ATL_REGMAP_ENTRY@2@@Z 100222b0 f i DeviceMonitor.obj
 0001:000212e0       ?UpdateRegistryFromResource@CComModule@ATL@@UAGJPB_WHPAU_ATL_REGMAP_ENTRY@2@@Z 100222e0 f i DeviceMonitor.obj
 0001:00021310       ?UpdateRegistryFromResourceD@CComModule@ATL@@UAGJIHPAU_ATL_REGMAP_ENTRY@2@@Z 10022310 f i DeviceMonitor.obj
 0001:00021320       ?UpdateRegistryFromResourceD@CComModule@ATL@@UAGJPB_WHPAU_ATL_REGMAP_ENTRY@2@@Z 10022320 f i DeviceMonitor.obj
 0001:00021330       ?VTFromRegType@CRegParser@ATL@@KAHPB_WAAG@Z 10022330 f i DeviceMonitor.obj
 0001:00021410       ?WindowProc@?$CWindowImplBaseT@VCWindow@ATL@@V?$CWinTraits@$0FGAAAAAA@$0A@@2@@ATL@@SGJPAUHWND__@@IIJ@Z 10022410 f i DeviceMonitor.obj
 0001:00021620       ?WriteToStream@CComBSTR@ATL@@QAEJPAUIStream@@@Z 10022620 f i DeviceMonitor.obj
 0001:00021780       ?WriteToStream@CComVariant@ATL@@QAEJPAUIStream@@@Z 10022780 f i DeviceMonitor.obj
 0001:00021ae0       ?WriteToStream@CComVariant@ATL@@QAEJPAUIStream@@G@Z 10022ae0 f i DeviceMonitor.obj
 0001:00021bb0       ?_AtlFinalConstruct@CComObjectRootBase@ATL@@QAEJXZ 10022bb0 f i DeviceMonitor.obj
 0001:00021bc0       ?_AtlGetConversionACP@ATL@@YGIXZ 10022bc0 f i DeviceMonitor.obj
 0001:00021bd0       ?_AtlInitialConstruct@?$CComAggObject@VCOPOSDeviceMonitor@@@ATL@@QAEJXZ 10022bd0 f i DeviceMonitor.obj
 0001:00021c20       ?_AtlInitialConstruct@?$CComObjectRootEx@VCComMultiThreadModel@ATL@@@ATL@@QAEJXZ 10022c20 f i DeviceMonitor.obj
 0001:00021c50       ?_AtlInitialConstruct@?$CComObjectRootEx@VCComSingleThreadModel@ATL@@@ATL@@QAEJXZ 10022c50 f i DeviceMonitor.obj
 0001:00021c60       ?_AtlVerifyStackAvailable@_ATL_SAFE_ALLOCA_IMPL@ATL@@YA_NK@Z 10022c60 f i DeviceMonitor.obj
 0001:00021e10       ?_GetEntries@?$CComEnum@UIEnumConnectionPoints@@$1?_GUID_b196b285_bab4_101a_b69c_00aa00341d07@@3U__s_GUID@@BPAUIConnectionPoint@@V?$_CopyInterface@UIConnectionPoint@@@ATL@@VCComSingleThreadModel@6@@ATL@@SGPBU_ATL_INTMAP_ENTRY@2@XZ 10022e10 f i DeviceMonitor.obj
 0001:00021e30       ?_GetEntries@?$CComEnum@UIEnumConnections@@$1?_GUID_b196b287_bab4_101a_b69c_00aa00341d07@@3U__s_GUID@@BUtagCONNECTDATA@@V?$_Copy@UtagCONNECTDATA@@@ATL@@VCComSingleThreadModel@6@@ATL@@SGPBU_ATL_INTMAP_ENTRY@2@XZ 10022e30 f i DeviceMonitor.obj
 0001:00021e50       ?_GetEntries@CComClassFactory@ATL@@SGPBU_ATL_INTMAP_ENTRY@2@XZ 10022e50 f i DeviceMonitor.obj
 0001:00021e70       ?_GetEntries@COPOSDeviceMonitor@@SGPBU_ATL_INTMAP_ENTRY@ATL@@XZ 10022e70 f i DeviceMonitor.obj
 0001:00021e90       ?_GetRawUnknown@COPOSDeviceMonitor@@QAEPAUIUnknown@@XZ 10022e90 f i DeviceMonitor.obj
 0001:00021f00       ?_GetViewStatus@COPOSDeviceMonitor@@QAEKXZ 10022f00 f i DeviceMonitor.obj
 0001:00021f10       ?_InternalQueryInterface@?$CComEnum@UIEnumConnectionPoints@@$1?_GUID_b196b285_bab4_101a_b69c_00aa00341d07@@3U__s_GUID@@BPAUIConnectionPoint@@V?$_CopyInterface@UIConnectionPoint@@@ATL@@VCComSingleThreadModel@6@@ATL@@QAEJABU_GUID@@PAPAX@Z 10022f10 f i DeviceMonitor.obj
 0001:00021f50       ?_InternalQueryInterface@?$CComEnum@UIEnumConnections@@$1?_GUID_b196b287_bab4_101a_b69c_00aa00341d07@@3U__s_GUID@@BUtagCONNECTDATA@@V?$_Copy@UtagCONNECTDATA@@@ATL@@VCComSingleThreadModel@6@@ATL@@QAEJABU_GUID@@PAPAX@Z 10022f50 f i DeviceMonitor.obj
 0001:00021f90       ?_InternalQueryInterface@CComClassFactory@ATL@@QAEJABU_GUID@@PAPAX@Z 10022f90 f i DeviceMonitor.obj
 0001:00021fd0       ?_InternalQueryInterface@COPOSDeviceMonitor@@QAEJABU_GUID@@PAPAX@Z 10022fd0 f i DeviceMonitor.obj
 0001:00022010       ?_LocCPQueryInterface@?$IConnectionPointImpl@VCOPOSDeviceMonitor@@$1?DIID__IOPOSDeviceMonitorEvents@@3U_GUID@@BVCComDynamicUnkArray@ATL@@@ATL@@UAGJABU_GUID@@PAPAX@Z 10023010 f i DeviceMonitor.obj
 0001:000220b0       ?_LocCPQueryInterface@?$IConnectionPointImpl@VCOPOSDeviceMonitor@@$1?IID_IPropertyNotifySink@@3U_GUID@@BVCComDynamicUnkArray@ATL@@@ATL@@UAGJABU_GUID@@PAPAX@Z 100230b0 f i DeviceMonitor.obj
 0001:00022150       ?atlCreate@?$CWindowImpl@VCOPOSDeviceMonitor@@VCWindow@ATL@@V?$CWinTraits@$0FGAAAAAA@$0A@@3@@ATL@@QAEPAUHWND__@@PAU3@V_U_RECT@2@PB_WKKV_U_MENUorID@2@PAX@Z 10023150 f i DeviceMonitor.obj
 0001:00022200       ?atlCreate@?$CWindowImplBaseT@VCWindow@ATL@@V?$CWinTraits@$0FGAAAAAA@$0A@@2@@ATL@@QAEPAUHWND__@@PAU3@V_U_RECT@2@PB_WKKV_U_MENUorID@2@GPAX@Z 10023200 f i DeviceMonitor.obj
 0001:00022380       ?atlCreate@CRegKey@ATL@@QAEJPAUHKEY__@@PB_WPA_WKKPAU_SECURITY_ATTRIBUTES@@PAK@Z 10023380 f i DeviceMonitor.obj
 0001:000224e0       ?begin@CComDynamicUnkArray@ATL@@QAEPAPAUIUnknown@@XZ 100234e0 f i DeviceMonitor.obj
 0001:000224f0       ?copy@?$_Copy@UtagCONNECTDATA@@@ATL@@SAJPAUtagCONNECTDATA@@PBU3@@Z 100234f0 f i DeviceMonitor.obj
 0001:000225b0       ?copy@?$_CopyInterface@UIConnectionPoint@@@ATL@@SAJPAPAUIConnectionPoint@@PBQAU3@@Z 100235b0 f i DeviceMonitor.obj
 0001:00022670       ?destroy@?$_Copy@UtagCONNECTDATA@@@ATL@@SAXPAUtagCONNECTDATA@@@Z 10023670 f i DeviceMonitor.obj
 0001:000226b0       ?destroy@?$_CopyInterface@UIConnectionPoint@@@ATL@@SAXPAPAUIConnectionPoint@@@Z 100236b0 f i DeviceMonitor.obj
 0001:000226f0       ?end@CComDynamicUnkArray@ATL@@QAEPAPAUIUnknown@@XZ 100236f0 f i DeviceMonitor.obj
 0001:00022710       ?init@?$_Copy@UtagCONNECTDATA@@@ATL@@SAXPAUtagCONNECTDATA@@@Z 10023710 f i DeviceMonitor.obj
 0001:00022720       ?init@?$_CopyInterface@UIConnectionPoint@@@ATL@@SAXPAPAUIConnectionPoint@@@Z 10023720 f i DeviceMonitor.obj
 0001:00022730       ?memcpy_s@Checked@ATL@@YAXPAXIPBXI@Z 10023730 f i DeviceMonitor.obj
 0001:00022760       ?ocscpy_s@@YA_NPA_WIPB_W@Z 10023760 f i DeviceMonitor.obj
 0001:000227c0       ?ocslen@@YAHPB_W@Z         100237c0 f i DeviceMonitor.obj
 0001:000227f0       ?tcsncpy_s@Checked@ATL@@YAHPA_WIPB_WI@Z 100237f0 f i DeviceMonitor.obj
 0001:00022820       ?wcscat_s@Checked@ATL@@YAXPA_WIPB_W@Z 10023820 f i DeviceMonitor.obj
 0001:00022850       ?wcscpy_s@Checked@ATL@@YAXPA_WIPB_W@Z 10023850 f i DeviceMonitor.obj
 0001:00022880       ?wcsncpy_s@Checked@ATL@@YAHPA_WIPB_WI@Z 10023880 f i DeviceMonitor.obj
 0001:000228b0       ?wcsstr@@YAPA_WPA_WPB_W@Z  100238b0 f i DeviceMonitor.obj
 0001:000228d0       _InlineIsEqualGUID         100238d0 f i DeviceMonitor.obj
 0001:00022970       _IsEqualGUID               10023970 f i DeviceMonitor.obj
 0001:000229c0       ??0COPOSDeviceMonitor@@QAE@XZ 100239c0 f   DeviceMonitorImpl.obj
 0001:00022ad0       ?FinalConstruct@COPOSDeviceMonitor@@QAEJXZ 10023ad0 f   DeviceMonitorImpl.obj
 0001:00022ba0       ??1COPOSDeviceMonitor@@UAE@XZ 10023ba0 f   DeviceMonitorImpl.obj
 0001:00022c80       ?WriteTrace@COPOSDeviceMonitor@@QAAXPB_WZZ 10023c80 f   DeviceMonitorImpl.obj
 0001:00022d30       ?WriteTraceString@COPOSDeviceMonitor@@QAEXPB_WPA_W@Z 10023d30 f   DeviceMonitorImpl.obj
 0001:000230a0       ?WriteTraceString@COPOSDeviceMonitor@@QAAXPAXHHHPB_WZZ 100240a0 f   DeviceMonitorImpl.obj
 0001:000232d0       ?WriteTraceError@COPOSDeviceMonitor@@QAEXPB_WK@Z 100242d0 f   DeviceMonitorImpl.obj
 0001:000233c0       ?WriteTraceMethods@COPOSDeviceMonitor@@QAEXPAJH@Z 100243c0 f   DeviceMonitorImpl.obj
 0001:00023430       ?GetOposProp@COPOSDeviceMonitor@@IAEJPBDJPAJJ@Z 10024430 f   DeviceMonitorImpl.obj
 0001:000236a0       ?SetOposProp@COPOSDeviceMonitor@@IAEJPBDJJJ@Z 100246a0 f   DeviceMonitorImpl.obj
 0001:00023930       ?GetOposProp@COPOSDeviceMonitor@@IAEJPBDJPAFJ@Z 10024930 f   DeviceMonitorImpl.obj
 0001:000239d0       ?SetOposProp@COPOSDeviceMonitor@@IAEJPBDJFJ@Z 100249d0 f   DeviceMonitorImpl.obj
 0001:00023a30       ?GetOposProp@COPOSDeviceMonitor@@IAEJPBDJPAPA_WJ@Z 10024a30 f   DeviceMonitorImpl.obj
 0001:00023cb0       ?SetOposProp@COPOSDeviceMonitor@@IAEJPBDJPA_WJ@Z 10024cb0 f   DeviceMonitorImpl.obj
 0001:00023ff0       ?DoInvoke@COPOSDeviceMonitor@@IAEJPBDJPAVOposVariant@@IHPAJ_N@Z 10024ff0 f   DeviceMonitorImpl.obj
 0001:00024920       ?SetCOFreezeEvents@COPOSDeviceMonitor@@IAEXF@Z 10025920 f   DeviceMonitorImpl.obj
 0001:00024a60       ?FreezeEvents@COPOSDeviceMonitor@@MAGJH@Z 10025a60 f   DeviceMonitorImpl.obj
 0001:00024b40       ?OnDraw@COPOSDeviceMonitor@@MAEJAAUATL_DRAWINFO@@@Z 10025b40 f   DeviceMonitorImpl.obj
 0001:00024ce0       ?SOProcessID@COPOSDeviceMonitor@@UAGJPAJ@Z 10025ce0 f   DeviceMonitorImpl.obj
 0001:00024d20       ?get_OpenResult@COPOSDeviceMonitor@@UAGJPAJ@Z 10025d20 f   DeviceMonitorImpl.obj
 0001:00024d60       ?get_AutoDisable@COPOSDeviceMonitor@@UAGJPAF@Z 10025d60 f   DeviceMonitorImpl.obj
 0001:00024d90       ?put_AutoDisable@COPOSDeviceMonitor@@UAGJF@Z 10025d90 f   DeviceMonitorImpl.obj
 0001:00024dc0       ?get_BinaryConversion@COPOSDeviceMonitor@@UAGJPAJ@Z 10025dc0 f   DeviceMonitorImpl.obj
 0001:00024df0       ?put_BinaryConversion@COPOSDeviceMonitor@@UAGJJ@Z 10025df0 f   DeviceMonitorImpl.obj
 0001:00024e20       ?get_CapPowerReporting@COPOSDeviceMonitor@@UAGJPAJ@Z 10025e20 f   DeviceMonitorImpl.obj
 0001:00024e50       ?get_CheckHealthText@COPOSDeviceMonitor@@UAGJPAPA_W@Z 10025e50 f   DeviceMonitorImpl.obj
 0001:00024e80       ?get_Claimed@COPOSDeviceMonitor@@UAGJPAF@Z 10025e80 f   DeviceMonitorImpl.obj
 0001:00024eb0       ?get_DataCount@COPOSDeviceMonitor@@UAGJPAJ@Z 10025eb0 f   DeviceMonitorImpl.obj
 0001:00024ee0       ?get_DataEventEnabled@COPOSDeviceMonitor@@UAGJPAF@Z 10025ee0 f   DeviceMonitorImpl.obj
 0001:00024f10       ?put_DataEventEnabled@COPOSDeviceMonitor@@UAGJF@Z 10025f10 f   DeviceMonitorImpl.obj
 0001:00024f40       ?get_DeviceEnabled@COPOSDeviceMonitor@@UAGJPAF@Z 10025f40 f   DeviceMonitorImpl.obj
 0001:00024f70       ?put_DeviceEnabled@COPOSDeviceMonitor@@UAGJF@Z 10025f70 f   DeviceMonitorImpl.obj
 0001:00024fa0       ?get_FreezeEvents@COPOSDeviceMonitor@@UAGJPAF@Z 10025fa0 f   DeviceMonitorImpl.obj
 0001:00024fd0       ?put_FreezeEvents@COPOSDeviceMonitor@@UAGJF@Z 10025fd0 f   DeviceMonitorImpl.obj
 0001:00025060       ?get_PowerNotify@COPOSDeviceMonitor@@UAGJPAJ@Z 10026060 f   DeviceMonitorImpl.obj
 0001:00025090       ?put_PowerNotify@COPOSDeviceMonitor@@UAGJJ@Z 10026090 f   DeviceMonitorImpl.obj
 0001:000250c0       ?get_PowerState@COPOSDeviceMonitor@@UAGJPAJ@Z 100260c0 f   DeviceMonitorImpl.obj
 0001:000250f0       ?get_ResultCode@COPOSDeviceMonitor@@UAGJPAJ@Z 100260f0 f   DeviceMonitorImpl.obj
 0001:00025180       ?get_ResultCodeExtended@COPOSDeviceMonitor@@UAGJPAJ@Z 10026180 f   DeviceMonitorImpl.obj
 0001:000251b0       ?get_State@COPOSDeviceMonitor@@UAGJPAJ@Z 100261b0 f   DeviceMonitorImpl.obj
 0001:00025200       ?get_ControlObjectDescription@COPOSDeviceMonitor@@UAGJPAPA_W@Z 10026200 f   DeviceMonitorImpl.obj
 0001:00025280       ?get_ControlObjectVersion@COPOSDeviceMonitor@@UAGJPAJ@Z 10026280 f   DeviceMonitorImpl.obj
 0001:000252c0       ?get_ServiceObjectDescription@COPOSDeviceMonitor@@UAGJPAPA_W@Z 100262c0 f   DeviceMonitorImpl.obj
 0001:000252f0       ?get_ServiceObjectVersion@COPOSDeviceMonitor@@UAGJPAJ@Z 100262f0 f   DeviceMonitorImpl.obj
 0001:00025320       ?get_DeviceDescription@COPOSDeviceMonitor@@UAGJPAPA_W@Z 10026320 f   DeviceMonitorImpl.obj
 0001:00025350       ?get_DeviceName@COPOSDeviceMonitor@@UAGJPAPA_W@Z 10026350 f   DeviceMonitorImpl.obj
 0001:00025380       ?get_CapStatisticsReporting@COPOSDeviceMonitor@@UAGJPAF@Z 10026380 f   DeviceMonitorImpl.obj
 0001:000253b0       ?get_CapUpdateStatistics@COPOSDeviceMonitor@@UAGJPAF@Z 100263b0 f   DeviceMonitorImpl.obj
 0001:000253e0       ?get_CapCompareFirmwareVersion@COPOSDeviceMonitor@@UAGJPAF@Z 100263e0 f   DeviceMonitorImpl.obj
 0001:00025410       ?get_CapUpdateFirmware@COPOSDeviceMonitor@@UAGJPAF@Z 10026410 f   DeviceMonitorImpl.obj
 0001:00025440       ?CheckHealth@COPOSDeviceMonitor@@UAGJJPAJ@Z 10026440 f   DeviceMonitorImpl.obj
 0001:000254e0       ?ClaimDevice@COPOSDeviceMonitor@@UAGJJPAJ@Z 100264e0 f   DeviceMonitorImpl.obj
 0001:000255c0       ?ClearInput@COPOSDeviceMonitor@@UAGJPAJ@Z 100265c0 f   DeviceMonitorImpl.obj
 0001:000255f0       ?Close@COPOSDeviceMonitor@@UAGJPAJ@Z 100265f0 f   DeviceMonitorImpl.obj
 0001:000256c0       ?DirectIO@COPOSDeviceMonitor@@UAGJJPAJPAPA_W0@Z 100266c0 f   DeviceMonitorImpl.obj
 0001:000257d0       ?Open@COPOSDeviceMonitor@@UAGJPA_WPAJ@Z 100267d0 f   DeviceMonitorImpl.obj
 0001:000269c0       ?ReleaseDevice@COPOSDeviceMonitor@@UAGJPAJ@Z 100279c0 f   DeviceMonitorImpl.obj
 0001:00026a30       ?ResetStatistics@COPOSDeviceMonitor@@UAGJPA_WPAJ@Z 10027a30 f   DeviceMonitorImpl.obj
 0001:00026ae0       ?RetrieveStatistics@COPOSDeviceMonitor@@UAGJPAPA_WPAJ@Z 10027ae0 f   DeviceMonitorImpl.obj
 0001:00026b90       ?UpdateStatistics@COPOSDeviceMonitor@@UAGJPA_WPAJ@Z 10027b90 f   DeviceMonitorImpl.obj
 0001:00026c40       ?CompareFirmwareVersion@COPOSDeviceMonitor@@UAGJPA_WPAJ1@Z 10027c40 f   DeviceMonitorImpl.obj
 0001:00026d30       ?UpdateFirmware@COPOSDeviceMonitor@@UAGJPA_WPAJ@Z 10027d30 f   DeviceMonitorImpl.obj
 0001:00026de0       ?ClearInputProperties@COPOSDeviceMonitor@@UAGJPAJ@Z 10027de0 f   DeviceMonitorImpl.obj
 0001:00026e10       ?get_DeviceData@COPOSDeviceMonitor@@UAGJPAPA_W@Z 10027e10 f   DeviceMonitorImpl.obj
 0001:00026e40       ?get_DeviceList@COPOSDeviceMonitor@@UAGJPAPA_W@Z 10027e40 f   DeviceMonitorImpl.obj
 0001:00026e70       ?get_MonitoringDeviceList@COPOSDeviceMonitor@@UAGJPAPA_W@Z 10027e70 f   DeviceMonitorImpl.obj
 0001:00026ea0       ?AddMonitoringDevice@COPOSDeviceMonitor@@UAGJPA_WJJJJPAJ@Z 10027ea0 f   DeviceMonitorImpl.obj
 0001:00026ff0       ?ClearMonitoringDevice@COPOSDeviceMonitor@@UAGJPAJ@Z 10027ff0 f   DeviceMonitorImpl.obj
 0001:00027020       ?DeleteMonitoringDevice@COPOSDeviceMonitor@@UAGJPA_WPAJ@Z 10028020 f   DeviceMonitorImpl.obj
 0001:000270d0       ?GetDeviceValue@COPOSDeviceMonitor@@UAGJPA_WPAJ1@Z 100280d0 f   DeviceMonitorImpl.obj
 0001:000271c0       ??0?$CComControl@VCOPOSDeviceMonitor@@V?$CWindowImpl@VCOPOSDeviceMonitor@@VCWindow@ATL@@V?$CWinTraits@$0FGAAAAAA@$0A@@3@@ATL@@@ATL@@QAE@XZ 100281c0 f i DeviceMonitorImpl.obj
 0001:00027200       ??0?$CComPtr@UIAdviseSink@@@ATL@@QAE@XZ 10028200 f i DeviceMonitorImpl.obj
 0001:00027230       ??0?$CComPtr@UIDataAdviseHolder@@@ATL@@QAE@XZ 10028230 f i DeviceMonitorImpl.obj
 0001:00027260       ??0?$CComPtr@UIOleAdviseHolder@@@ATL@@QAE@XZ 10028260 f i DeviceMonitorImpl.obj
 0001:00027290       ??0?$CComPtr@UIOleClientSite@@@ATL@@QAE@XZ 10028290 f i DeviceMonitorImpl.obj
 0001:000272c0       ??0?$CComPtr@UIOleInPlaceSiteWindowless@@@ATL@@QAE@XZ 100282c0 f i DeviceMonitorImpl.obj
 0001:000272f0       ??0?$CComPtrBase@UIAdviseSink@@@ATL@@IAE@XZ 100282f0 f i DeviceMonitorImpl.obj
 0001:00027310       ??0?$CComPtrBase@UIDataAdviseHolder@@@ATL@@IAE@XZ 10028310 f i DeviceMonitorImpl.obj
 0001:00027330       ??0?$CComPtrBase@UIOleAdviseHolder@@@ATL@@IAE@XZ 10028330 f i DeviceMonitorImpl.obj
 0001:00027350       ??0?$CComPtrBase@UIOleClientSite@@@ATL@@IAE@XZ 10028350 f i DeviceMonitorImpl.obj
 0001:00027370       ??0?$CComPtrBase@UIOleInPlaceSiteWindowless@@@ATL@@IAE@XZ 10028370 f i DeviceMonitorImpl.obj
 0001:00027390       ??0?$CComQIPtr@UIDispatch@@$1?_GUID_00020400_0000_0000_c000_000000000046@@3U__s_GUID@@B@ATL@@QAE@XZ 10028390 f i DeviceMonitorImpl.obj
 0001:000273c0       ??0?$CProxy_IOPOSEvents@VCOPOSDeviceMonitor@@@@QAE@PAVCOPOSDeviceMonitor@@@Z 100283c0 f i DeviceMonitorImpl.obj
 0001:00027430       ??0?$CWindowImpl@VCOPOSDeviceMonitor@@VCWindow@ATL@@V?$CWinTraits@$0FGAAAAAA@$0A@@3@@ATL@@QAE@XZ 10028430 f i DeviceMonitorImpl.obj
 0001:00027460       ??0?$CWindowImplBaseT@VCWindow@ATL@@V?$CWinTraits@$0FGAAAAAA@$0A@@2@@ATL@@QAE@XZ 10028460 f i DeviceMonitorImpl.obj
 0001:000274a0       ??0?$CWindowImplRoot@VCWindow@ATL@@@ATL@@QAE@XZ 100284a0 f i DeviceMonitorImpl.obj
 0001:00027500       ??0?$IConnectionPointContainerImpl@VCOPOSDeviceMonitor@@@ATL@@QAE@XZ 10028500 f i DeviceMonitorImpl.obj
 0001:00027530       ??0?$IConnectionPointImpl@VCOPOSDeviceMonitor@@$1?DIID__IOPOSDeviceMonitorEvents@@3U_GUID@@BVCComDynamicUnkArray@ATL@@@ATL@@QAE@XZ 10028530 f i DeviceMonitorImpl.obj
 0001:00027570       ??0?$IConnectionPointImpl@VCOPOSDeviceMonitor@@$1?IID_IPropertyNotifySink@@3U_GUID@@BVCComDynamicUnkArray@ATL@@@ATL@@QAE@XZ 10028570 f i DeviceMonitorImpl.obj
 0001:000275b0       ??0?$IDataObjectImpl@VCOPOSDeviceMonitor@@@ATL@@QAE@XZ 100285b0 f i DeviceMonitorImpl.obj
 0001:000275e0       ??0?$IDispatchImpl@UIOPOSDeviceMonitor@@$1?IID_IOPOSDeviceMonitor@@3U_GUID@@B$1?LIBID_OposDeviceMonitor_CCO@@3U3@B$00$0A@VCComTypeInfoHolder@ATL@@@ATL@@QAE@XZ 100285e0 f i DeviceMonitorImpl.obj
 0001:00027610       ??0?$IObjectSafetyImpl@VCOPOSDeviceMonitor@@$02@ATL@@QAE@XZ 10028610 f i DeviceMonitorImpl.obj
 0001:00027650       ??0?$IOleControlImpl@VCOPOSDeviceMonitor@@@ATL@@QAE@XZ 10028650 f i DeviceMonitorImpl.obj
 0001:00027680       ??0?$IOleInPlaceActiveObjectImpl@VCOPOSDeviceMonitor@@@ATL@@QAE@XZ 10028680 f i DeviceMonitorImpl.obj
 0001:000276b0       ??0?$IOleInPlaceObjectWindowlessImpl@VCOPOSDeviceMonitor@@@ATL@@QAE@XZ 100286b0 f i DeviceMonitorImpl.obj
 0001:000276e0       ??0?$IOleObjectImpl@VCOPOSDeviceMonitor@@@ATL@@QAE@XZ 100286e0 f i DeviceMonitorImpl.obj
 0001:00027710       ??0?$IPersistStorageImpl@VCOPOSDeviceMonitor@@@ATL@@QAE@XZ 10028710 f i DeviceMonitorImpl.obj
 0001:00027740       ??0?$IPersistStreamInitImpl@VCOPOSDeviceMonitor@@@ATL@@QAE@XZ 10028740 f i DeviceMonitorImpl.obj
 0001:00027770       ??0?$IPropertyNotifySinkCP@VCOPOSDeviceMonitor@@VCComDynamicUnkArray@ATL@@@ATL@@QAE@XZ 10028770 f i DeviceMonitorImpl.obj
 0001:000277a0       ??0?$IProvideClassInfo2Impl@$1?CLSID_OPOSDeviceMonitor@@3U_GUID@@B$1?DIID__IOPOSDeviceMonitorEvents@@3U2@B$1?LIBID_OposDeviceMonitor_CCO@@3U2@B$00$0A@VCComTypeInfoHolder@ATL@@@ATL@@QAE@XZ 100287a0 f i DeviceMonitorImpl.obj
 0001:000277d0       ??0?$IQuickActivateImpl@VCOPOSDeviceMonitor@@@ATL@@QAE@XZ 100287d0 f i DeviceMonitorImpl.obj
 0001:00027800       ??0?$ISpecifyPropertyPagesImpl@VCOPOSDeviceMonitor@@@ATL@@QAE@XZ 10028800 f i DeviceMonitorImpl.obj
 0001:00027830       ??0?$IViewObjectExImpl@VCOPOSDeviceMonitor@@@ATL@@QAE@XZ 10028830 f i DeviceMonitorImpl.obj
 0001:00027860       ??0?$_ICPLocator@$1?DIID__IOPOSDeviceMonitorEvents@@3U_GUID@@B@ATL@@QAE@XZ 10028860 f i DeviceMonitorImpl.obj
 0001:00027870       ??0?$_ICPLocator@$1?IID_IPropertyNotifySink@@3U_GUID@@B@ATL@@QAE@XZ 10028870 f i DeviceMonitorImpl.obj
 0001:00027880       ??0CComControlBase@ATL@@QAE@AAPAUHWND__@@@Z 10028880 f i DeviceMonitorImpl.obj
 0001:00027a30       ??0CComDynamicUnkArray@ATL@@QAE@XZ 10028a30 f i DeviceMonitorImpl.obj
 0001:00027a60       ??0CDynamicStdCallThunk2@ATL@@QAE@XZ 10028a60 f i DeviceMonitorImpl.obj
 0001:00027a80       ??0CMessageMap@ATL@@QAE@XZ 10028a80 f i DeviceMonitorImpl.obj
 0001:00027a90       ??0CWindow@ATL@@QAE@PAUHWND__@@@Z 10028a90 f i DeviceMonitorImpl.obj
 0001:00027ab0       ??0CWndProcThunk@ATL@@QAE@XZ 10028ab0 f i DeviceMonitorImpl.obj
 0001:00027ae0       ??0IConnectionPointContainer@@QAE@XZ 10028ae0 f i DeviceMonitorImpl.obj
 0001:00027b10       ??0IDataObject@@QAE@XZ     10028b10 f i DeviceMonitorImpl.obj
 0001:00027b40       ??0IDispatch@@QAE@XZ       10028b40 f i DeviceMonitorImpl.obj
 0001:00027b70       ??0IOPOSDeviceMonitor@@QAE@XZ 10028b70 f i DeviceMonitorImpl.obj
 0001:00027ba0       ??0IOPOSDeviceMonitor_1_16@@QAE@XZ 10028ba0 f i DeviceMonitorImpl.obj
 0001:00027bd0       ??0IObjectSafety@@QAE@XZ   10028bd0 f i DeviceMonitorImpl.obj
 0001:00027c00       ??0IOleControl@@QAE@XZ     10028c00 f i DeviceMonitorImpl.obj
 0001:00027c30       ??0IOleInPlaceActiveObject@@QAE@XZ 10028c30 f i DeviceMonitorImpl.obj
 0001:00027c60       ??0IOleInPlaceObject@@QAE@XZ 10028c60 f i DeviceMonitorImpl.obj
 0001:00027c90       ??0IOleInPlaceObjectWindowless@@QAE@XZ 10028c90 f i DeviceMonitorImpl.obj
 0001:00027cc0       ??0IOleObject@@QAE@XZ      10028cc0 f i DeviceMonitorImpl.obj
 0001:00027cf0       ??0IOleWindow@@QAE@XZ      10028cf0 f i DeviceMonitorImpl.obj
 0001:00027d20       ??0IPersist@@QAE@XZ        10028d20 f i DeviceMonitorImpl.obj
 0001:00027d50       ??0IPersistStorage@@QAE@XZ 10028d50 f i DeviceMonitorImpl.obj
 0001:00027d80       ??0IPersistStreamInit@@QAE@XZ 10028d80 f i DeviceMonitorImpl.obj
 0001:00027db0       ??0IProvideClassInfo2@@QAE@XZ 10028db0 f i DeviceMonitorImpl.obj
 0001:00027de0       ??0IProvideClassInfo@@QAE@XZ 10028de0 f i DeviceMonitorImpl.obj
 0001:00027e10       ??0IQuickActivate@@QAE@XZ  10028e10 f i DeviceMonitorImpl.obj
 0001:00027e40       ??0ISpecifyPropertyPages@@QAE@XZ 10028e40 f i DeviceMonitorImpl.obj
 0001:00027e70       ??0IViewObject2@@QAE@XZ    10028e70 f i DeviceMonitorImpl.obj
 0001:00027ea0       ??0IViewObject@@QAE@XZ     10028ea0 f i DeviceMonitorImpl.obj
 0001:00027ed0       ??0IViewObjectEx@@QAE@XZ   10028ed0 f i DeviceMonitorImpl.obj
 0001:00027f00       ??0OposVariantResult@@QAE@XZ 10028f00 f i DeviceMonitorImpl.obj
 0001:00027f30       ??0_CW@@QAE@PBD@Z          10028f30 f i DeviceMonitorImpl.obj
 0001:00027f70       ??0_CW@@QAE@PB_W@Z         10028f70 f i DeviceMonitorImpl.obj
 0001:00027fb0       ??0_CWNCC@@QAE@PBD@Z       10028fb0 f i DeviceMonitorImpl.obj
 0001:00027fe0       ??1?$CComControl@VCOPOSDeviceMonitor@@V?$CWindowImpl@VCOPOSDeviceMonitor@@VCWindow@ATL@@V?$CWinTraits@$0FGAAAAAA@$0A@@3@@ATL@@@ATL@@UAE@XZ 10028fe0 f i DeviceMonitorImpl.obj
 0001:00028010       ??1?$CComPtr@UIDataAdviseHolder@@@ATL@@QAE@XZ 10029010 f i DeviceMonitorImpl.obj
 0001:00028040       ??1?$CComPtr@UIOleAdviseHolder@@@ATL@@QAE@XZ 10029040 f i DeviceMonitorImpl.obj
 0001:00028070       ??1?$CComPtr@UIOleInPlaceSiteWindowless@@@ATL@@QAE@XZ 10029070 f i DeviceMonitorImpl.obj
 0001:000280a0       ??1?$CComPtrBase@UIDataAdviseHolder@@@ATL@@QAE@XZ 100290a0 f i DeviceMonitorImpl.obj
 0001:000280f0       ??1?$CComPtrBase@UIOleAdviseHolder@@@ATL@@QAE@XZ 100290f0 f i DeviceMonitorImpl.obj
 0001:00028140       ??1?$CComPtrBase@UIOleInPlaceSiteWindowless@@@ATL@@QAE@XZ 10029140 f i DeviceMonitorImpl.obj
 0001:00028190       ??1?$CComQIPtr@UIDispatch@@$1?_GUID_00020400_0000_0000_c000_000000000046@@3U__s_GUID@@B@ATL@@QAE@XZ 10029190 f i DeviceMonitorImpl.obj
 0001:000281c0       ??1?$CProxy_IOPOSEvents@VCOPOSDeviceMonitor@@@@QAE@XZ 100291c0 f i DeviceMonitorImpl.obj
 0001:000281f0       ??1?$CWindowImpl@VCOPOSDeviceMonitor@@VCWindow@ATL@@V?$CWinTraits@$0FGAAAAAA@$0A@@3@@ATL@@UAE@XZ 100291f0 f i DeviceMonitorImpl.obj
 0001:00028220       ??1?$CWindowImplBaseT@VCWindow@ATL@@V?$CWinTraits@$0FGAAAAAA@$0A@@2@@ATL@@UAE@XZ 10029220 f i DeviceMonitorImpl.obj
 0001:00028250       ??1?$CWindowImplRoot@VCWindow@ATL@@@ATL@@UAE@XZ 10029250 f i DeviceMonitorImpl.obj
 0001:000282f0       ??1?$IConnectionPointImpl@VCOPOSDeviceMonitor@@$1?DIID__IOPOSDeviceMonitorEvents@@3U_GUID@@BVCComDynamicUnkArray@ATL@@@ATL@@QAE@XZ 100292f0 f i DeviceMonitorImpl.obj
 0001:00028370       ??1?$IConnectionPointImpl@VCOPOSDeviceMonitor@@$1?IID_IPropertyNotifySink@@3U_GUID@@BVCComDynamicUnkArray@ATL@@@ATL@@QAE@XZ 10029370 f i DeviceMonitorImpl.obj
 0001:000283f0       ??1?$IPropertyNotifySinkCP@VCOPOSDeviceMonitor@@VCComDynamicUnkArray@ATL@@@ATL@@QAE@XZ 100293f0 f i DeviceMonitorImpl.obj
 0001:00028420       ??1CComControlBase@ATL@@UAE@XZ 10029420 f i DeviceMonitorImpl.obj
 0001:000284e0       ??1CComDynamicUnkArray@ATL@@QAE@XZ 100294e0 f i DeviceMonitorImpl.obj
 0001:00028520       ??1CDynamicStdCallThunk2@ATL@@QAE@XZ 10029520 f i DeviceMonitorImpl.obj
 0001:00028550       ??1CWndProcThunk@ATL@@QAE@XZ 10029550 f i DeviceMonitorImpl.obj
 0001:00028580       ??1OposVariantResult@@QAE@XZ 10029580 f i DeviceMonitorImpl.obj
 0001:000285b0       ??1_CW@@QAE@XZ             100295b0 f i DeviceMonitorImpl.obj
 0001:00028620       ??1_CWNCC@@QAE@XZ          10029620 f i DeviceMonitorImpl.obj
 0001:00028650       ??B_CW@@QAEPB_WXZ          10029650 f i DeviceMonitorImpl.obj
 0001:00028690       ??B_CWNCC@@QAEPA_WXZ       10029690 f i DeviceMonitorImpl.obj
 0001:000286c0       ??_EOposVariant@@QAEPAXI@Z 100296c0 f i DeviceMonitorImpl.obj
 0001:00028750       ?EventClaim@COPOSDeviceMonitor@@IAEXXZ 10029750 f i DeviceMonitorImpl.obj
 0001:00028790       ?EventClose@COPOSDeviceMonitor@@IAEXXZ 10029790 f i DeviceMonitorImpl.obj
 0001:00028830       ?EventInit@COPOSDeviceMonitor@@IAEJXZ 10029830 f i DeviceMonitorImpl.obj
 0001:00028a60       ?EventOpen@COPOSDeviceMonitor@@IAEXXZ 10029a60 f i DeviceMonitorImpl.obj
 0001:00028aa0       ?EventPreCloseRelease@COPOSDeviceMonitor@@IAEXXZ 10029aa0 f i DeviceMonitorImpl.obj
 0001:00028b20       ?EventUninit@COPOSDeviceMonitor@@IAEXXZ 10029b20 f i DeviceMonitorImpl.obj
 0001:00028c50       ?EventWindowProc@COPOSDeviceMonitor@@IAGJIIJ@Z 10029c50 f i DeviceMonitorImpl.obj
 0001:00028de0       ?FireEventCleanup@COPOSDeviceMonitor@@IAEXXZ 10029de0 f i DeviceMonitorImpl.obj
 0001:00028e30       ?FireEventSetup@COPOSDeviceMonitor@@IAE_NXZ 10029e30 f i DeviceMonitorImpl.obj
 0001:00028ea0       ?GetModuleInstance@CComModule@ATL@@QAEPAUHINSTANCE__@@XZ 10029ea0 f i DeviceMonitorImpl.obj
 0001:00028eb0       ?SetRC@COPOSDeviceMonitor@@IAEJJ@Z 10029eb0 f i DeviceMonitorImpl.obj
 0001:00028ed0       ?s_EventWindowProc@COPOSDeviceMonitor@@KGJPAUHWND__@@IIJ@Z 10029ed0 f i DeviceMonitorImpl.obj
 0001:00028f70       __snwprintf                10029f70 f i DeviceMonitorImpl.obj
 0001:00028fd0       __vfwprintf_l              10029fd0 f i DeviceMonitorImpl.obj
 0001:00029000       __vsnwprintf               1002a000 f i DeviceMonitorImpl.obj
 0001:00029030       __vsnwprintf_l             1002a030 f i DeviceMonitorImpl.obj
 0001:000290a0       _vfwprintf                 1002a0a0 f i DeviceMonitorImpl.obj
 0001:000290c2       _DebugBreak@0              1002a0c2 f   kernel32:KERNEL32.dll
 0001:000290c8       _Sleep@4                   1002a0c8 f   kernel32:KERNEL32.dll
 0001:000290ce       _GetCurrentProcess@0       1002a0ce f   kernel32:KERNEL32.dll
 0001:000290d4       _TerminateProcess@8        1002a0d4 f   kernel32:KERNEL32.dll
 0001:000290da       _MultiByteToWideChar@24    1002a0da f   kernel32:KERNEL32.dll
 0001:000290e0       _WideCharToMultiByte@32    1002a0e0 f   kernel32:KERNEL32.dll
 0001:000290e6       _DecodePointer@4           1002a0e6 f   kernel32:KERNEL32.dll
 0001:000290ec       _RaiseException@16         1002a0ec f   kernel32:KERNEL32.dll
 0001:000290f2       _GetLastError@0            1002a0f2 f   kernel32:KERNEL32.dll
 0001:000290f8       _SetLastError@4            1002a0f8 f   kernel32:KERNEL32.dll
 0001:000290fe       _InitializeCriticalSectionEx@12 1002a0fe f   kernel32:KERNEL32.dll
 0001:00029104       _DeleteCriticalSection@4   1002a104 f   kernel32:KERNEL32.dll
 0001:0002910a       _EncodePointer@4           1002a10a f   kernel32:KERNEL32.dll
 0001:00029110       _EnterCriticalSection@4    1002a110 f   kernel32:KERNEL32.dll
 0001:00029116       _LeaveCriticalSection@4    1002a116 f   kernel32:KERNEL32.dll
 0001:0002911c       _ResetEvent@4              1002a11c f   kernel32:KERNEL32.dll
 0001:00029122       _ReleaseMutex@4            1002a122 f   kernel32:KERNEL32.dll
 0001:00029128       _WaitForSingleObject@8     1002a128 f   kernel32:KERNEL32.dll
 0001:0002912e       _GetCurrentThreadId@0      1002a12e f   kernel32:KERNEL32.dll
 0001:00029134       _DisableThreadLibraryCalls@4 1002a134 f   kernel32:KERNEL32.dll
 0001:0002913a       _FreeLibrary@4             1002a13a f   kernel32:KERNEL32.dll
 0001:00029140       _GetModuleFileNameW@12     1002a140 f   kernel32:KERNEL32.dll
 0001:00029146       _GetModuleHandleW@4        1002a146 f   kernel32:KERNEL32.dll
 0001:0002914c       _GetProcAddress@8          1002a14c f   kernel32:KERNEL32.dll
 0001:00029152       _LoadLibraryExW@12         1002a152 f   kernel32:KERNEL32.dll
 0001:00029158       _LoadResource@8            1002a158 f   kernel32:KERNEL32.dll
 0001:0002915e       _SizeofResource@8          1002a15e f   kernel32:KERNEL32.dll
 0001:00029164       _FindResourceW@12          1002a164 f   kernel32:KERNEL32.dll
 0001:0002916a       _GlobalAlloc@8             1002a16a f   kernel32:KERNEL32.dll
 0001:00029170       _GlobalUnlock@4            1002a170 f   kernel32:KERNEL32.dll
 0001:00029176       _GlobalLock@4              1002a176 f   kernel32:KERNEL32.dll
 0001:0002917c       _MulDiv@12                 1002a17c f   kernel32:KERNEL32.dll
 0001:00029182       _lstrcmpiW@8               1002a182 f   kernel32:KERNEL32.dll
 0001:00029188       _DeleteFileW@4             1002a188 f   kernel32:KERNEL32.dll
 0001:0002918e       _CloseHandle@4             1002a18e f   kernel32:KERNEL32.dll
 0001:00029194       _SetEvent@4                1002a194 f   kernel32:KERNEL32.dll
 0001:0002919a       _CreateMutexW@12           1002a19a f   kernel32:KERNEL32.dll
 0001:000291a0       _CreateEventW@16           1002a1a0 f   kernel32:KERNEL32.dll
 0001:000291a6       _GetCurrentProcessId@0     1002a1a6 f   kernel32:KERNEL32.dll
 0001:000291ac       _LocalFree@4               1002a1ac f   kernel32:KERNEL32.dll
 0001:000291b2       _FormatMessageW@28         1002a1b2 f   kernel32:KERNEL32.dll
 0001:000291b8       _GetActiveWindow@0         1002a1b8 f   user32:USER32.dll
 0001:000291be       _MessageBoxW@16            1002a1be f   user32:USER32.dll
 0001:000291c4       _UnregisterClassW@8        1002a1c4 f   user32:USER32.dll
 0001:000291ca       _PostMessageW@16           1002a1ca f   user32:USER32.dll
 0001:000291d0       _DefWindowProcW@16         1002a1d0 f   user32:USER32.dll
 0001:000291d6       _CallWindowProcW@20        1002a1d6 f   user32:USER32.dll
 0001:000291dc       _RegisterClassExW@4        1002a1dc f   user32:USER32.dll
 0001:000291e2       _GetClassInfoExW@12        1002a1e2 f   user32:USER32.dll
 0001:000291e8       _CreateWindowExW@48        1002a1e8 f   user32:USER32.dll
 0001:000291ee       _IsWindow@4                1002a1ee f   user32:USER32.dll
 0001:000291f4       _IsChild@8                 1002a1f4 f   user32:USER32.dll
 0001:000291fa       _DestroyWindow@4           1002a1fa f   user32:USER32.dll
 0001:00029200       _ShowWindow@8              1002a200 f   user32:USER32.dll
 0001:00029206       _SetWindowPos@28           1002a206 f   user32:USER32.dll
 0001:0002920c       _CharNextW@4               1002a20c f   user32:USER32.dll
 0001:00029212       _SetFocus@4                1002a212 f   user32:USER32.dll
 0001:00029218       _GetFocus@0                1002a218 f   user32:USER32.dll
 0001:0002921e       _GetKeyState@4             1002a21e f   user32:USER32.dll
 0001:00029224       _GetDC@4                   1002a224 f   user32:USER32.dll
 0001:0002922a       _ReleaseDC@8               1002a22a f   user32:USER32.dll
 0001:00029230       _BeginPaint@8              1002a230 f   user32:USER32.dll
 0001:00029236       _EndPaint@8                1002a236 f   user32:USER32.dll
 0001:0002923c       _SetWindowRgn@12           1002a23c f   user32:USER32.dll
 0001:00029242       _InvalidateRect@12         1002a242 f   user32:USER32.dll
 0001:00029248       _GetClientRect@8           1002a248 f   user32:USER32.dll
 0001:0002924e       _IntersectRect@12          1002a24e f   user32:USER32.dll
 0001:00029254       _UnionRect@12              1002a254 f   user32:USER32.dll
 0001:0002925a       _OffsetRect@12             1002a25a f   user32:USER32.dll
 0001:00029260       _EqualRect@8               1002a260 f   user32:USER32.dll
 0001:00029266       _PtInRect@12               1002a266 f   user32:USER32.dll
 0001:0002926c       _GetWindowLongW@8          1002a26c f   user32:USER32.dll
 0001:00029272       _SetWindowLongW@12         1002a272 f   user32:USER32.dll
 0001:00029278       _GetParent@4               1002a278 f   user32:USER32.dll
 0001:0002927e       _LoadCursorW@8             1002a27e f   user32:USER32.dll
 0001:00029284       _PeekMessageW@20           1002a284 f   user32:USER32.dll
 0001:0002928a       _RegisterClassW@4          1002a28a f   user32:USER32.dll
 0001:00029290       _LoadBitmapW@8             1002a290 f   user32:USER32.dll
 0001:00029296       _CloseMetaFile@4           1002a296 f   gdi32:GDI32.dll
 0001:0002929c       _CreateDCW@16              1002a29c f   gdi32:GDI32.dll
 0001:000292a2       _CreateMetaFileW@4         1002a2a2 f   gdi32:GDI32.dll
 0001:000292a8       _CreateRectRgnIndirect@4   1002a2a8 f   gdi32:GDI32.dll
 0001:000292ae       _DeleteDC@4                1002a2ae f   gdi32:GDI32.dll
 0001:000292b4       _DeleteMetaFile@4          1002a2b4 f   gdi32:GDI32.dll
 0001:000292ba       _GetDeviceCaps@8           1002a2ba f   gdi32:GDI32.dll
 0001:000292c0       _RestoreDC@8               1002a2c0 f   gdi32:GDI32.dll
 0001:000292c6       _SaveDC@4                  1002a2c6 f   gdi32:GDI32.dll
 0001:000292cc       _SetMapMode@8              1002a2cc f   gdi32:GDI32.dll
 0001:000292d2       _LPtoDP@12                 1002a2d2 f   gdi32:GDI32.dll
 0001:000292d8       _SetViewportOrgEx@16       1002a2d8 f   gdi32:GDI32.dll
 0001:000292de       _SetWindowExtEx@16         1002a2de f   gdi32:GDI32.dll
 0001:000292e4       _SetWindowOrgEx@16         1002a2e4 f   gdi32:GDI32.dll
 0001:000292ea       _BitBlt@36                 1002a2ea f   gdi32:GDI32.dll
 0001:000292f0       _CreateCompatibleDC@4      1002a2f0 f   gdi32:GDI32.dll
 0001:000292f6       _DeleteObject@4            1002a2f6 f   gdi32:GDI32.dll
 0001:000292fc       _SelectObject@8            1002a2fc f   gdi32:GDI32.dll
 0001:00029302       _GetObjectW@12             1002a302 f   gdi32:GDI32.dll
 0001:00029308       _RegCloseKey@4             1002a308 f   advapi32:ADVAPI32.dll
 0001:0002930e       _RegCreateKeyExW@36        1002a30e f   advapi32:ADVAPI32.dll
 0001:00029314       _RegDeleteKeyW@8           1002a314 f   advapi32:ADVAPI32.dll
 0001:0002931a       _RegDeleteValueW@8         1002a31a f   advapi32:ADVAPI32.dll
 0001:00029320       _RegEnumKeyExW@32          1002a320 f   advapi32:ADVAPI32.dll
 0001:00029326       _RegOpenKeyExW@20          1002a326 f   advapi32:ADVAPI32.dll
 0001:0002932c       _RegQueryInfoKeyW@48       1002a32c f   advapi32:ADVAPI32.dll
 0001:00029332       _RegSetValueExW@24         1002a332 f   advapi32:ADVAPI32.dll
 0001:00029338       _RegQueryValueExW@24       1002a338 f   advapi32:ADVAPI32.dll
 0001:0002933e       _CoCreateInstance@20       1002a33e f   ole32:ole32.dll
 0001:00029344       _StringFromGUID2@12        1002a344 f   ole32:ole32.dll
 0001:0002934a       _CoTaskMemAlloc@4          1002a34a f   ole32:ole32.dll
 0001:00029350       _CoTaskMemRealloc@8        1002a350 f   ole32:ole32.dll
 0001:00029356       _CoTaskMemFree@4           1002a356 f   ole32:ole32.dll
 0001:0002935c       _ReadClassStm@8            1002a35c f   ole32:ole32.dll
 0001:00029362       _WriteClassStm@8           1002a362 f   ole32:ole32.dll
 0001:00029368       _CreateDataAdviseHolder@4  1002a368 f   ole32:ole32.dll
 0001:0002936e       _OleSaveToStream@8         1002a36e f   ole32:ole32.dll
 0001:00029374       _CreateOleAdviseHolder@4   1002a374 f   ole32:ole32.dll
 0001:0002937a       _OleRegGetUserType@12      1002a37a f   ole32:ole32.dll
 0001:00029380       _OleRegGetMiscStatus@12    1002a380 f   ole32:ole32.dll
 0001:00029386       _OleRegEnumVerbs@8         1002a386 f   ole32:ole32.dll
 0001:0002938c       _CLSIDFromProgID@8         1002a38c f   ole32:ole32.dll
 0001:00029392       _SysAllocString@4          1002a392 f   oleaut32:OLEAUT32.dll
 0001:00029398       _SysAllocStringLen@8       1002a398 f   oleaut32:OLEAUT32.dll
 0001:0002939e       _SysFreeString@4           1002a39e f   oleaut32:OLEAUT32.dll
 0001:000293a4       _SysStringLen@4            1002a3a4 f   oleaut32:OLEAUT32.dll
 0001:000293aa       _VariantClear@4            1002a3aa f   oleaut32:OLEAUT32.dll
 0001:000293b0       _VariantCopyInd@8          1002a3b0 f   oleaut32:OLEAUT32.dll
 0001:000293b6       _VariantChangeType@16      1002a3b6 f   oleaut32:OLEAUT32.dll
 0001:000293bc       _SysStringByteLen@4        1002a3bc f   oleaut32:OLEAUT32.dll
 0001:000293c2       _SysAllocStringByteLen@8   1002a3c2 f   oleaut32:OLEAUT32.dll
 0001:000293c8       _VariantInit@4             1002a3c8 f   oleaut32:OLEAUT32.dll
 0001:000293ce       _VarUI4FromStr@16          1002a3ce f   oleaut32:OLEAUT32.dll
 0001:000293d4       _LoadTypeLib@8             1002a3d4 f   oleaut32:OLEAUT32.dll
 0001:000293da       _LoadRegTypeLib@20         1002a3da f   oleaut32:OLEAUT32.dll
 0001:000293e0       _RegisterTypeLib@12        1002a3e0 f   oleaut32:OLEAUT32.dll
 0001:000293e6       _UnRegisterTypeLib@20      1002a3e6 f   oleaut32:OLEAUT32.dll
 0001:000293ec       _OleCreatePropertyFrame@44 1002a3ec f   oleaut32:OLEAUT32.dll
 0001:00029400       @_RTC_AllocaHelper@12      1002a400 f   LIBCMTD:stack.obj
 0001:00029440       @_RTC_CheckStackVars2@12   1002a440 f   LIBCMTD:stack.obj
 0001:00029520       @_RTC_CheckStackVars@8     1002a520 f   LIBCMTD:stack.obj
 0001:00029580       __RTC_CheckEsp             1002a580 f   LIBCMTD:stack.obj
 0001:000295b0       @__security_check_cookie@4 1002a5b0 f   LIBCMTD:secchk.obj
 0001:000295c0       __CRT_RTC_INIT             1002a5c0 f   LIBCMTD:init.obj
 0001:000295d0       __CRT_RTC_INITW            1002a5d0 f   LIBCMTD:init.obj
 0001:000295e0       __RTC_InitBase             1002a5e0 f   LIBCMTD:init.obj
 0001:00029610       __RTC_Shutdown             1002a610 f   LIBCMTD:init.obj
 0001:00029630       ??_U@YAPAXI@Z              1002a630 f   LIBCMTD:new_array.obj
 0001:00029650       ??3@YAXPAXI@Z              1002a650 f   LIBCMTD:delete_scalar_size.obj
 0001:00029670       ??_V@YAXPAX@Z              1002a670 f   LIBCMTD:delete_array.obj
 0001:00029690       ??_V@YAXPAXI@Z             1002a690 f   LIBCMTD:delete_array_size.obj
 0001:000296b0       ?configure_argv@__scrt_narrow_argv_policy@@SAHXZ 1002a6b0 f i LIBCMTD:utility.obj
 0001:00029760       ?initialize_environment@__scrt_narrow_environment_policy@@SAHXZ 1002a760 f i LIBCMTD:utility.obj
 0001:000297e0       _NtCurrentTeb              1002a7e0 f i LIBCMTD:utility.obj
 0001:000297f0       ___scrt_acquire_startup_lock 1002a7f0 f   LIBCMTD:utility.obj
 0001:00029840       ___scrt_dllmain_after_initialize_c 1002a840 f   LIBCMTD:utility.obj
 0001:00029870       ___scrt_dllmain_before_initialize_c 1002a870 f   LIBCMTD:utility.obj
 0001:00029890       ___scrt_dllmain_crt_thread_attach 1002a890 f   LIBCMTD:utility.obj
 0001:000298c0       ___scrt_dllmain_crt_thread_detach 1002a8c0 f   LIBCMTD:utility.obj
 0001:000298e0       ___scrt_dllmain_exception_filter 1002a8e0 f   LIBCMTD:utility.obj
 0001:00029930       ___scrt_dllmain_uninitialize_c 1002a930 f   LIBCMTD:utility.obj
 0001:00029960       ___scrt_dllmain_uninitialize_critical 1002a960 f   LIBCMTD:utility.obj
 0001:00029980       ___scrt_initialize_crt     1002a980 f   LIBCMTD:utility.obj
 0001:000299d0       ___scrt_initialize_onexit_tables 1002a9d0 f   LIBCMTD:utility.obj
 0001:00029ab0       ___scrt_is_nonwritable_in_current_image 1002aab0 f   LIBCMTD:utility.obj
 0001:00029be0       ___scrt_release_startup_lock 1002abe0 f   LIBCMTD:utility.obj
 0001:00029c10       ___scrt_uninitialize_crt   1002ac10 f   LIBCMTD:utility.obj
 0001:00029c50       __onexit                   1002ac50 f   LIBCMTD:utility.obj
 0001:00029cc0       _at_quick_exit             1002acc0 f   LIBCMTD:utility.obj
 0001:00029d00       _atexit                    1002ad00 f   LIBCMTD:utility.obj
 0001:00029d30       ??3@YAXPAX@Z               1002ad30 f   LIBCMTD:delete_scalar.obj
 0001:00029d50       ___raise_securityfailure   1002ad50 f   LIBCMTD:gs_report.obj
 0001:00029d80       ___report_gsfailure        1002ad80 f   LIBCMTD:gs_report.obj
 0001:00029e90       ___report_rangecheckfailure 1002ae90 f   LIBCMTD:gs_report.obj
 0001:00029ea0       ___report_securityfailure  1002aea0 f   LIBCMTD:gs_report.obj
 0001:00029f80       ___report_securityfailureEx 1002af80 f   LIBCMTD:gs_report.obj
 0001:0002a1d0       __Init_thread_abort        1002b1d0 f   LIBCMTD:thread_safe_statics.obj
 0001:0002a1f0       __Init_thread_footer       1002b1f0 f   LIBCMTD:thread_safe_statics.obj
 0001:0002a240       __Init_thread_header       1002b240 f   LIBCMTD:thread_safe_statics.obj
 0001:0002a2b0       __Init_thread_lock         1002b2b0 f   LIBCMTD:thread_safe_statics.obj
 0001:0002a2c0       __Init_thread_notify       1002b2c0 f   LIBCMTD:thread_safe_statics.obj
 0001:0002a310       __Init_thread_unlock       1002b310 f   LIBCMTD:thread_safe_statics.obj
 0001:0002a320       __Init_thread_wait         1002b320 f   LIBCMTD:thread_safe_statics.obj
 0001:0002a3b0       ??2@YAPAXIABUnothrow_t@std@@@Z 1002b3b0 f   LIBCMTD:new_scalar_nothrow.obj
 0001:0002a440       ??_U@YAPAXIABUnothrow_t@std@@@Z 1002b440 f   LIBCMTD:new_array_nothrow.obj
 0001:0002a460       __allmul                   1002b460 f   LIBCMTD:llmul.obj
 0001:0002a4a0       __alloca_probe_16          1002b4a0 f   LIBCMTD:alloca16.obj
 0001:0002a4b6       __alloca_probe_8           1002b4b6     LIBCMTD:alloca16.obj
 0001:0002a4d0       __chkstk                   1002b4d0 f   LIBCMTD:chkstk.obj
 0001:0002a4d0       __alloca_probe             1002b4d0 f   LIBCMTD:chkstk.obj
 0001:0002a9d0       __CRT_INIT@12              1002b9d0 f   LIBCMTD:dll_dllmain.obj
 0001:0002a9f0       __DllMainCRTStartup@12     1002b9f0 f   LIBCMTD:dll_dllmain.obj
 0001:0002aab0       ?_RTC_AllocaFailure@@YAXPAXPAU_RTC_ALLOCA_NODE@@H@Z 1002bab0 f   LIBCMTD:error.obj
 0001:0002aba0       ?_RTC_Failure@@YAXPAXH@Z   1002bba0 f   LIBCMTD:error.obj
 0001:0002abf0       ?_RTC_StackFailure@@YAXPAXPBD@Z 1002bbf0 f   LIBCMTD:error.obj
 0001:0002afb0       __RTC_UninitUse            1002bfb0 f   LIBCMTD:error.obj
 0001:0002b060       __vsprintf_s_l             1002c060 f i LIBCMTD:error.obj
 0001:0002b090       _sprintf_s                 1002c090 f i LIBCMTD:error.obj
 0001:0002b0b0       ?_RTC_GetErrorFunc@@YAP6AHHPBDH00ZZPBX@Z 1002c0b0 f   LIBCMTD:userapi.obj
 0001:0002b0c0       ?_RTC_GetErrorFuncW@@YAP6AHHPB_WH00ZZPBX@Z 1002c0c0 f   LIBCMTD:userapi.obj
 0001:0002b0d0       __RTC_GetErrDesc           1002c0d0 f   LIBCMTD:userapi.obj
 0001:0002b0f0       __RTC_NumErrors            1002c0f0 f   LIBCMTD:userapi.obj
 0001:0002b100       __RTC_SetErrorFunc         1002c100 f   LIBCMTD:userapi.obj
 0001:0002b120       __RTC_SetErrorFuncW        1002c120 f   LIBCMTD:userapi.obj
 0001:0002b140       __RTC_SetErrorType         1002c140 f   LIBCMTD:userapi.obj
 0001:0002b170       ??2@YAPAXI@Z               1002c170 f   LIBCMTD:new_scalar.obj
 0001:0002b1c0       ___isa_available_init      1002c1c0 f   LIBCMTD:cpu_disp.obj
 0001:0002b500       __get_startup_argv_mode    1002c500 f   LIBCMTD:argv_mode.obj
 0001:0002b510       ___scrt_is_ucrt_dll_in_use 1002c510 f   LIBCMTD:ucrt_detection.obj
 0001:0002b540       ___scrt_fastfail           1002c540 f   LIBCMTD:utility_desktop.obj
 0001:0002b680       ___scrt_get_show_window_mode 1002c680 f   LIBCMTD:utility_desktop.obj
 0001:0002b6c0       ___scrt_initialize_mta     1002c6c0 f   LIBCMTD:utility_desktop.obj
 0001:0002b6d0       ___scrt_initialize_winrt   1002c6d0 f   LIBCMTD:utility_desktop.obj
 0001:0002b6e0       ___scrt_is_managed_app     1002c6e0 f   LIBCMTD:utility_desktop.obj
 0001:0002b770       ___scrt_set_unhandled_exception_filter 1002c770 f   LIBCMTD:utility_desktop.obj
 0001:0002b780       ___scrt_exe_initialize_mta 1002c780 f   LIBCMTD:utility_desktop.obj
 0001:0002b780       ___scrt_stub_for_initialize_mta 1002c780 f   LIBCMTD:utility_desktop.obj
 0001:0002b790       ___scrt_unhandled_exception_filter@4 1002c790 f   LIBCMTD:utility_desktop.obj
 0001:0002b810       __crt_debugger_hook        1002c810 f   LIBCMTD:utility_desktop.obj
 0001:0002b820       @_guard_check_icall_nop@4  1002c820 f i LIBCMTD:guard_support.obj
 0001:0002b830       _ReadNoFence               1002c830 f i LIBCMTD:guard_support.obj
 0001:0002b850       _ReadPointerNoFence        1002c850 f i LIBCMTD:guard_support.obj
 0001:0002b870       ___castguard_check_failure_debugbreak 1002c870 f i LIBCMTD:guard_support.obj
 0001:0002b890       ___castguard_check_failure_fastfail 1002c890 f i LIBCMTD:guard_support.obj
 0001:0002b8b0       ___castguard_check_failure_nop 1002c8b0 f i LIBCMTD:guard_support.obj
 0001:0002b8c0       ___castguard_check_failure_os_handled 1002c8c0 f i LIBCMTD:guard_support.obj
 0001:0002b950       ___castguard_slow_path_check_debugbreak 1002c950 f i LIBCMTD:guard_support.obj
 0001:0002b980       ___castguard_slow_path_check_fastfail 1002c980 f i LIBCMTD:guard_support.obj
 0001:0002b9c0       ___castguard_slow_path_check_nop 1002c9c0 f i LIBCMTD:guard_support.obj
 0001:0002b9d0       ___castguard_slow_path_check_os_handled 1002c9d0 f i LIBCMTD:guard_support.obj
 0001:0002ba50       __guard_icall_checks_enforced 1002ca50 f i LIBCMTD:guard_support.obj
 0001:0002baf0       ___security_init_cookie    1002caf0 f   LIBCMTD:gs_support.obj
 0001:0002bb70       ?__scrt_initialize_type_info@@YAXXZ 1002cb70 f   LIBCMTD:tncleanup.obj
 0001:0002bb80       ?__scrt_uninitialize_type_info@@YAXXZ 1002cb80 f   LIBCMTD:tncleanup.obj
 0001:0002bba0       ___local_stdio_scanf_options 1002cba0 f i LIBCMTD:default_local_stdio_options.obj
 0001:0002bbb0       ___scrt_initialize_default_local_stdio_options 1002cbb0 f   LIBCMTD:default_local_stdio_options.obj
 0001:0002bbf0       ___scrt_get_dyn_tls_init_callback 1002cbf0 f   LIBCMTD:dyn_tls_init.obj
 0001:0002bc00       __RTC_Initialize           1002cc00 f   LIBCMTD:initsect.obj
 0001:0002bc30       __RTC_Terminate            1002cc30 f   LIBCMTD:initsect.obj
 0001:0002c0e0       ?_RTC_GetSrcLine@@YAHPAEPA_WKPAH1K@Z 1002d0e0 f   LIBCMTD:pdblkup.obj
 0001:0002c460       __except_handler4_noexcept 1002d460 f   LIBCMTD:chandler4_noexcept.obj
 0001:0002c4c0       ??0bad_alloc@std@@AAE@QBD@Z 1002d4c0 f i LIBCMTD:throw_bad_alloc.obj
 0001:0002c4f0       ??0bad_alloc@std@@QAE@ABV01@@Z 1002d4f0 f i LIBCMTD:throw_bad_alloc.obj
 0001:0002c520       ??0bad_alloc@std@@QAE@XZ   1002d520 f i LIBCMTD:throw_bad_alloc.obj
 0001:0002c550       ??0bad_array_new_length@std@@QAE@ABV01@@Z 1002d550 f i LIBCMTD:throw_bad_alloc.obj
 0001:0002c580       ??0bad_array_new_length@std@@QAE@XZ 1002d580 f i LIBCMTD:throw_bad_alloc.obj
 0001:0002c5b0       ??0exception@std@@QAE@ABV01@@Z 1002d5b0 f i LIBCMTD:throw_bad_alloc.obj
 0001:0002c5f0       ??0exception@std@@QAE@QBDH@Z 1002d5f0 f i LIBCMTD:throw_bad_alloc.obj
 0001:0002c620       ??1bad_alloc@std@@UAE@XZ   1002d620 f i LIBCMTD:throw_bad_alloc.obj
 0001:0002c640       ??1bad_array_new_length@std@@UAE@XZ 1002d640 f i LIBCMTD:throw_bad_alloc.obj
 0001:0002c660       ??1exception@std@@UAE@XZ   1002d660 f i LIBCMTD:throw_bad_alloc.obj
 0001:0002c690       ??_Gbad_alloc@std@@UAEPAXI@Z 1002d690 f i LIBCMTD:throw_bad_alloc.obj
 0001:0002c690       ??_Ebad_alloc@std@@UAEPAXI@Z 1002d690 f i LIBCMTD:throw_bad_alloc.obj
 0001:0002c6c0       ??_Ebad_array_new_length@std@@UAEPAXI@Z 1002d6c0 f i LIBCMTD:throw_bad_alloc.obj
 0001:0002c6c0       ??_Gbad_array_new_length@std@@UAEPAXI@Z 1002d6c0 f i LIBCMTD:throw_bad_alloc.obj
 0001:0002c6f0       ??_Eexception@std@@UAEPAXI@Z 1002d6f0 f i LIBCMTD:throw_bad_alloc.obj
 0001:0002c6f0       ??_Gexception@std@@UAEPAXI@Z 1002d6f0 f i LIBCMTD:throw_bad_alloc.obj
 0001:0002c720       ?__scrt_throw_std_bad_alloc@@YAXXZ 1002d720 f   LIBCMTD:throw_bad_alloc.obj
 0001:0002c740       ?__scrt_throw_std_bad_array_new_length@@YAXXZ 1002d740 f   LIBCMTD:throw_bad_alloc.obj
 0001:0002c760       ?what@exception@std@@UBEPBDXZ 1002d760 f i LIBCMTD:throw_bad_alloc.obj
 0001:0002c790       ??1type_info@@UAE@XZ       1002d790 f   LIBCMTD:std_type_info_static.obj
 0001:0002c7b0       ??_Gtype_info@@UAEPAXI@Z   1002d7b0 f i LIBCMTD:std_type_info_static.obj
 0001:0002c7b0       ??_Etype_info@@UAEPAXI@Z   1002d7b0 f i LIBCMTD:std_type_info_static.obj
 0001:0002c7de       ??$?2PAUHINSTANCE__@@@Wrapper@?$CSimpleArray@PAUHINSTANCE__@@V?$CSimpleArrayEqualHelper@PAUHINSTANCE__@@@ATL@@@ATL@@SAPAXIPAPAUHINSTANCE__@@@Z 1002d7de f i atls:atlbase.obj
 0001:0002c7e6       ??0?$CSimpleArray@PAUHINSTANCE__@@V?$CSimpleArrayEqualHelper@PAUHINSTANCE__@@@ATL@@@ATL@@QAE@XZ 1002d7e6 f i atls:atlbase.obj
 0001:0002c7f3       ??0CAtlBaseModule@ATL@@QAE@XZ 1002d7f3 f   atls:atlbase.obj
 0001:0002c846       ??0Wrapper@?$CSimpleArray@PAUHINSTANCE__@@V?$CSimpleArrayEqualHelper@PAUHINSTANCE__@@@ATL@@@ATL@@QAE@ABQAUHINSTANCE__@@@Z 1002d846 f i atls:atlbase.obj
 0001:0002c856       ??0_ATL_BASE_MODULE70@ATL@@QAE@XZ 1002d856 f i atls:atlbase.obj
 0001:0002c879       ??1?$CSimpleArray@PAUHINSTANCE__@@V?$CSimpleArrayEqualHelper@PAUHINSTANCE__@@@ATL@@@ATL@@QAE@XZ 1002d879 f i atls:atlbase.obj
 0001:0002c87e       ??1CAtlBaseModule@ATL@@QAE@XZ 1002d87e f   atls:atlbase.obj
 0001:0002c894       ??1_ATL_BASE_MODULE70@ATL@@QAE@XZ 1002d894 f i atls:atlbase.obj
 0001:0002c89c       ??A?$CSimpleArray@PAUHINSTANCE__@@V?$CSimpleArrayEqualHelper@PAUHINSTANCE__@@@ATL@@@ATL@@QAEAAPAUHINSTANCE__@@H@Z 1002d89c f i atls:atlbase.obj
 0001:0002c8c1       ?Add@?$CSimpleArray@PAUHINSTANCE__@@V?$CSimpleArrayEqualHelper@PAUHINSTANCE__@@@ATL@@@ATL@@QAEHABQAUHINSTANCE__@@@Z 1002d8c1 f i atls:atlbase.obj
 0001:0002c939       ?AddResourceInstance@CAtlBaseModule@ATL@@QAE_NPAUHINSTANCE__@@@Z 1002d939 f   atls:atlbase.obj
 0001:0002c96c       ?GetHInstanceAt@CAtlBaseModule@ATL@@QAEPAUHINSTANCE__@@H@Z 1002d96c f   atls:atlbase.obj
 0001:0002c9b1       ?GetSize@?$CSimpleArray@PAUHINSTANCE__@@V?$CSimpleArrayEqualHelper@PAUHINSTANCE__@@@ATL@@@ATL@@QBEHXZ 1002d9b1 f i atls:atlbase.obj
 0001:0002c9b5       ?InternalSetAtIndex@?$CSimpleArray@PAUHINSTANCE__@@V?$CSimpleArrayEqualHelper@PAUHINSTANCE__@@@ATL@@@ATL@@QAEXHABQAUHINSTANCE__@@@Z 1002d9b5 f i atls:atlbase.obj
 0001:0002c9cf       ?RemoveAll@?$CSimpleArray@PAUHINSTANCE__@@V?$CSimpleArrayEqualHelper@PAUHINSTANCE__@@@ATL@@@ATL@@QAEXXZ 1002d9cf f i atls:atlbase.obj
 0001:0002c9ec       ?RemoveAt@?$CSimpleArray@PAUHINSTANCE__@@V?$CSimpleArrayEqualHelper@PAUHINSTANCE__@@@ATL@@@ATL@@QAEHH@Z 1002d9ec f i atls:atlbase.obj
 0001:0002ca34       ?RemoveResourceInstance@CAtlBaseModule@ATL@@QAE_NPAUHINSTANCE__@@@Z 1002da34 f   atls:atlbase.obj
 0001:0002ca91       ?memmove_s@Checked@ATL@@YAXPAXIPBXI@Z 1002da91 f i atls:atlbase.obj
 0001:0002cdee       ?GetCodeAddress@_stdcallthunk@ATL@@QAEPAXXZ 1002ddee f i atls:atlthunk.obj
 0001:0002ce18       ?Init@_stdcallthunk@ATL@@QAEHKPAX@Z 1002de18 f i atls:atlthunk.obj
 0001:0002ce4d       ?__AllocStdCallThunk@@YGPAXXZ 1002de4d f   atls:atlthunk.obj
 0001:0002ce52       ?__AllocStdCallThunk@ATL@@YGPAXXZ 1002de52 f   atls:atlthunk.obj
 0001:0002ce57       ?__AllocStdCallThunk_cmn@@YAPAXXZ 1002de57 f   atls:atlthunk.obj
 0001:0002cf1d       ?__FreeStdCallThunk@@YGXPAX@Z 1002df1d f   atls:atlthunk.obj
 0001:0002cf2d       ?__FreeStdCallThunk@ATL@@YGXPAX@Z 1002df2d f   atls:atlthunk.obj
 0001:0002cf3d       ?__FreeStdCallThunk_cmn@@YAXPAX@Z 1002df3d f   atls:atlthunk.obj
 0001:0002cfd9       _AtlThunk_AllocateData@0   1002dfd9 f   atls:atlthunk.obj
 0001:0002d03e       _AtlThunk_DataToCode@4     1002e03e f   atls:atlthunk.obj
 0001:0002d085       _AtlThunk_FreeData@4       1002e085 f   atls:atlthunk.obj
 0001:0002d0db       _AtlThunk_InitData@12      1002e0db f   atls:atlthunk.obj
 0001:0002d12a       _MemoryBarrier             1002e12a f i atls:atlthunk.obj
 0001:0002d138       __InlineInterlockedCompareExchangePointer 1002e138 f i atls:atlthunk.obj
 0001:0002d150       _memset                    1002e150 f   libvcruntimed:memset.obj
 0001:0002d2b0       ??$__crt_interlocked_exchange_pointer@$$A6AXXZP6AXXZ@@YAP6AXXZPDS6AXXZQ6AXXZ@Z 1002e2b0 f i libvcruntimed:purevirt.obj
 0001:0002d2c0       ??$__crt_interlocked_read_pointer@$$A6AXXZ@@YAP6AXXZPDS6AXXZ@Z 1002e2c0 f i libvcruntimed:purevirt.obj
 0001:0002d2e0       ?__crt_interlocked_read_32@@YAHPDH@Z 1002e2e0 f i libvcruntimed:purevirt.obj
 0001:0002d300       __get_purecall_handler     1002e300 f   libvcruntimed:purevirt.obj
 0001:0002d320       __purecall                 1002e320 f   libvcruntimed:purevirt.obj
 0001:0002d350       __set_purecall_handler     1002e350 f   libvcruntimed:purevirt.obj
 0001:0002d520       _memcmp                    1002e520 f   libvcruntimed:memcmp.obj
 0001:0002ddf0       _memcpy                    1002edf0 f   libvcruntimed:memcpy.obj
 0001:0002e370       _wcsstr                    1002f370 f   libvcruntimed:wcsstr.obj
 0001:0002e8a0       __except_handler4          1002f8a0 f   libvcruntimed:chandler4.obj
 0001:0002ea90       ___vcrt_initialize         1002fa90 f   libvcruntimed:initialization.obj
 0001:0002ead0       ___vcrt_thread_attach      1002fad0 f   libvcruntimed:initialization.obj
 0001:0002eaf0       ___vcrt_thread_detach      1002faf0 f   libvcruntimed:initialization.obj
 0001:0002eb10       ___vcrt_uninitialize       1002fb10 f   libvcruntimed:initialization.obj
 0001:0002eb30       ___vcrt_uninitialize_critical 1002fb30 f   libvcruntimed:initialization.obj
 0001:0002eb50       ??$?0AAViterator@TryBlockMap@__FrameHandler3@@AAV012@$0A@@?$pair@Viterator@TryBlockMap@__FrameHandler3@@V123@@std@@QAE@AAViterator@TryBlockMap@__FrameHandler3@@0@Z 1002fb50 f i libvcruntimed:trnsctrl.obj
 0001:0002eba0       ??$forward@AAViterator@TryBlockMap@__FrameHandler3@@@std@@YAAAViterator@TryBlockMap@__FrameHandler3@@AAV123@@Z 1002fba0 f i libvcruntimed:trnsctrl.obj
 0001:0002ebb0       ??0iterator@TryBlockMap@__FrameHandler3@@QAE@AAV12@I@Z 1002fbb0 f i libvcruntimed:trnsctrl.obj
 0001:0002ebe0       ?GetRangeOfTrysToCheck@__FrameHandler3@@SA?AU?$pair@Viterator@TryBlockMap@__FrameHandler3@@V123@@std@@AAVTryBlockMap@1@HPAXPBU_s_FuncInfo@@H@Z 1002fbe0 f   libvcruntimed:trnsctrl.obj
 0001:0002ecc0       ?_CallCatchBlock2@@YAPAXPAUEHRegistrationNode@@PBU_s_FuncInfo@@PAXHK@Z 1002fcc0 f   libvcruntimed:trnsctrl.obj
 0001:0002ed30       ?_CallSETranslator@@YAHPAUEHExceptionRecord@@PAUEHRegistrationNode@@PAX2PBU_s_FuncInfo@@H1@Z 1002fd30 f   libvcruntimed:trnsctrl.obj
 0001:0002ee40       ?_JumpToContinuation@@YGXPAXPAUEHRegistrationNode@@@Z 1002fe40 f   libvcruntimed:trnsctrl.obj
 0001:0002ee80       ?_UnwindNestedFrames@@YGXPAUEHRegistrationNode@@PAUEHExceptionRecord@@@Z 1002fe80 f   libvcruntimed:trnsctrl.obj
 0001:0002eee0       __CatchGuardHandler        1002fee0 f   libvcruntimed:trnsctrl.obj
 0001:0002ef30       __CreateFrameInfo          1002ff30 f   libvcruntimed:trnsctrl.obj
 0001:0002ef60       __FindAndUnlinkFrame       1002ff60 f   libvcruntimed:trnsctrl.obj
 0001:0002efd0       __TranslatorGuardHandler   1002ffd0 f   libvcruntimed:trnsctrl.obj
 0001:0002f080       ___CxxFrameHandler         10030080 f   libvcruntimed:trnsctrl.obj
 0001:0002f0c0       ___CxxFrameHandler2        100300c0 f   libvcruntimed:trnsctrl.obj
 0001:0002f100       ___CxxFrameHandler3        10030100 f   libvcruntimed:trnsctrl.obj
 0001:0002f140       ___CxxLongjmpUnwind@4      10030140 f   libvcruntimed:trnsctrl.obj
 0001:0002f180       ___DestructExceptionObject 10030180 f   libvcruntimed:ehhelpers.obj
 0001:0002f2a0       ?_CallMemberFunction0@@YGXQAX0@Z 100302a0 f i libvcruntimed:ehhelpers.obj
 0001:0002f340       ?raw_name@type_info@@QBEPBDXZ 10030340 f i libvcruntimed:ehhelpers.obj
 0001:0002f360       __IsExceptionObjectToBeDestroyed 10030360 f   libvcruntimed:ehhelpers.obj
 0001:0002f3a0       __SetWinRTOutOfMemoryExceptionCallback 100303a0 f   libvcruntimed:ehhelpers.obj
 0001:0002f3b0       ___AdjustPointer           100303b0 f   libvcruntimed:ehhelpers.obj
 0001:0002f400       ___FrameUnwindFilter       10030400 f   libvcruntimed:ehhelpers.obj
 0001:0002f490       ___GetPlatformExceptionInfo 10030490 f   libvcruntimed:ehhelpers.obj
 0001:0002f510       ___current_exception       10030510 f   libvcruntimed:ehhelpers.obj
 0001:0002f520       ___current_exception_context 10030520 f   libvcruntimed:ehhelpers.obj
 0001:0002f530       ___processing_throw        10030530 f   libvcruntimed:ehhelpers.obj
 0001:0002f540       ___std_terminate           10030540 f   libvcruntimed:ehhelpers.obj
 0001:0002f550       __is_exception_typeof      10030550 f   libvcruntimed:ehhelpers.obj
 0001:0002f650       ??$?RD@__crt_internal_free_policy@@QBEXQBD@Z 10030650 f i libvcruntimed:std_type_info.obj
 0001:0002f670       ??$?RX@__crt_internal_free_policy@@QBEXQBX@Z 10030670 f i libvcruntimed:std_type_info.obj
 0001:0002f690       ??$__crt_interlocked_compare_exchange_pointer@$$CBDPAD$$T@@YAPBDPDSBDQAD$$T@Z 10030690 f i libvcruntimed:std_type_info.obj
 0001:0002f6b0       ??$__crt_interlocked_read_pointer@$$CBD@@YAPBDPDSBD@Z 100306b0 f i libvcruntimed:std_type_info.obj
 0001:0002f6d0       ??0?$__crt_unique_heap_ptr@DU__crt_internal_free_policy@@@@QAE@QAD@Z 100306d0 f i libvcruntimed:std_type_info.obj
 0001:0002f6f0       ??0?$__crt_unique_heap_ptr@XU__crt_internal_free_policy@@@@QAE@QAX@Z 100306f0 f i libvcruntimed:std_type_info.obj
 0001:0002f710       ??1?$__crt_unique_heap_ptr@DU__crt_internal_free_policy@@@@QAE@XZ 10030710 f i libvcruntimed:std_type_info.obj
 0001:0002f730       ??1?$__crt_unique_heap_ptr@XU__crt_internal_free_policy@@@@QAE@XZ 10030730 f i libvcruntimed:std_type_info.obj
 0001:0002f750       ??B?$__crt_unique_heap_ptr@DU__crt_internal_free_policy@@@@QBE_NXZ 10030750 f i libvcruntimed:std_type_info.obj
 0001:0002f770       ??B?$__crt_unique_heap_ptr@XU__crt_internal_free_policy@@@@QBE_NXZ 10030770 f i libvcruntimed:std_type_info.obj
 0001:0002f800       ?detach@?$__crt_unique_heap_ptr@XU__crt_internal_free_policy@@@@QAEPAXXZ 10030800 f i libvcruntimed:std_type_info.obj
 0001:0002f830       ?get@?$__crt_unique_heap_ptr@DU__crt_internal_free_policy@@@@QBEPADXZ 10030830 f i libvcruntimed:std_type_info.obj
 0001:0002f840       ?get@?$__crt_unique_heap_ptr@XU__crt_internal_free_policy@@@@QBEPAXXZ 10030840 f i libvcruntimed:std_type_info.obj
 0001:0002f850       ?is_valid@?$__crt_unique_heap_ptr@DU__crt_internal_free_policy@@@@QBE_NXZ 10030850 f i libvcruntimed:std_type_info.obj
 0001:0002f880       ?is_valid@?$__crt_unique_heap_ptr@XU__crt_internal_free_policy@@@@QBE_NXZ 10030880 f i libvcruntimed:std_type_info.obj
 0001:0002f8b0       ?release@?$__crt_unique_heap_ptr@DU__crt_internal_free_policy@@@@QAEXXZ 100308b0 f i libvcruntimed:std_type_info.obj
 0001:0002f8e0       ?release@?$__crt_unique_heap_ptr@XU__crt_internal_free_policy@@@@QAEXXZ 100308e0 f i libvcruntimed:std_type_info.obj
 0001:0002f910       ___std_type_info_compare   10030910 f   libvcruntimed:std_type_info.obj
 0001:0002f940       ___std_type_info_destroy_list 10030940 f   libvcruntimed:std_type_info.obj
 0001:0002f980       ___std_type_info_hash      10030980 f   libvcruntimed:std_type_info.obj
 0001:0002f9e0       ___std_type_info_name      100309e0 f   libvcruntimed:std_type_info.obj
 0001:0002fbc0       ___vcrt_GetModuleFileNameW 10030bc0 f   libvcruntimed:winapi_thunks.obj
 0001:0002fbe0       ___vcrt_GetModuleHandleW   10030be0 f   libvcruntimed:winapi_thunks.obj
 0001:0002fbf0       ___vcrt_LoadLibraryExW     10030bf0 f   libvcruntimed:winapi_thunks.obj
 0001:0002fc10       ??$?RD@__crt_public_free_policy@@QBEXQBD@Z 10030c10 f i libvcruntimed:std_exception.obj
 0001:0002fc30       ??0?$__crt_unique_heap_ptr@DU__crt_public_free_policy@@@@QAE@QAD@Z 10030c30 f i libvcruntimed:std_exception.obj
 0001:0002fc50       ??1?$__crt_unique_heap_ptr@DU__crt_public_free_policy@@@@QAE@XZ 10030c50 f i libvcruntimed:std_exception.obj
 0001:0002fc70       ??B?$__crt_unique_heap_ptr@DU__crt_public_free_policy@@@@QBE_NXZ 10030c70 f i libvcruntimed:std_exception.obj
 0001:0002fc90       ?detach@?$__crt_unique_heap_ptr@DU__crt_public_free_policy@@@@QAEPADXZ 10030c90 f i libvcruntimed:std_exception.obj
 0001:0002fcc0       ?get@?$__crt_unique_heap_ptr@DU__crt_public_free_policy@@@@QBEPADXZ 10030cc0 f i libvcruntimed:std_exception.obj
 0001:0002fcd0       ?is_valid@?$__crt_unique_heap_ptr@DU__crt_public_free_policy@@@@QBE_NXZ 10030cd0 f i libvcruntimed:std_exception.obj
 0001:0002fd00       ?release@?$__crt_unique_heap_ptr@DU__crt_public_free_policy@@@@QAEXXZ 10030d00 f i libvcruntimed:std_exception.obj
 0001:0002fd30       ___std_exception_copy      10030d30 f   libvcruntimed:std_exception.obj
 0001:0002fe20       ___std_exception_destroy   10030e20 f   libvcruntimed:std_exception.obj
 0001:0002fe50       __CxxThrowException@8      10030e50 f   libvcruntimed:throw.obj
 0001:0002ff00       _memmove                   10030f00 f   libvcruntimed:memmove.obj
 0001:00030480       __local_unwind4            10031480 f   libvcruntimed:exsup4.obj
 0001:00030570       __seh_longjmp_unwind4@4    10031570 f   libvcruntimed:exsup4.obj
 0001:000305a0       @_EH4_CallFilterFunc@8     100315a0 f   libvcruntimed:exsup4.obj
 0001:000305c0       @_EH4_TransferToHandler@8  100315c0 f   libvcruntimed:exsup4.obj
 0001:000305e0       @_EH4_GlobalUnwind2@8      100315e0 f   libvcruntimed:exsup4.obj
 0001:00030600       @_EH4_LocalUnwind@16       10031600 f   libvcruntimed:exsup4.obj
 0001:00030630       ___except_validate_context_record 10031630 f   libvcruntimed:jbcxrval.obj
 0001:00030680       ___except_validate_jump_buffer 10031680 f   libvcruntimed:jbcxrval.obj
 0001:000306a0       ___except_validate_jump_buffer_common 100316a0 f i libvcruntimed:jbcxrval.obj
 0001:00030700       ??$?RU__vcrt_ptd@@@__crt_internal_free_policy@@QBEXQBU__vcrt_ptd@@@Z 10031700 f i libvcruntimed:per_thread_data.obj
 0001:00030720       ??0?$__crt_unique_heap_ptr@U__vcrt_ptd@@U__crt_internal_free_policy@@@@QAE@QAU__vcrt_ptd@@@Z 10031720 f i libvcruntimed:per_thread_data.obj
 0001:00030760       ??1?$__crt_unique_heap_ptr@U__vcrt_ptd@@U__crt_internal_free_policy@@@@QAE@XZ 10031760 f i libvcruntimed:per_thread_data.obj
 0001:000307a0       ??B?$__crt_unique_heap_ptr@U__vcrt_ptd@@U__crt_internal_free_policy@@@@QBE_NXZ 100317a0 f i libvcruntimed:per_thread_data.obj
 0001:000307c0       ?detach@?$__crt_unique_heap_ptr@U__vcrt_ptd@@U__crt_internal_free_policy@@@@QAEPAU__vcrt_ptd@@XZ 100317c0 f i libvcruntimed:per_thread_data.obj
 0001:000307f0       ?get@?$__crt_unique_heap_ptr@U__vcrt_ptd@@U__crt_internal_free_policy@@@@QBEPAU__vcrt_ptd@@XZ 100317f0 f i libvcruntimed:per_thread_data.obj
 0001:00030800       ?is_valid@?$__crt_unique_heap_ptr@U__vcrt_ptd@@U__crt_internal_free_policy@@@@QBE_NXZ 10031800 f i libvcruntimed:per_thread_data.obj
 0001:00030830       ?release@?$__crt_unique_heap_ptr@U__vcrt_ptd@@U__crt_internal_free_policy@@@@QAEXXZ 10031830 f i libvcruntimed:per_thread_data.obj
 0001:00030890       ___vcrt_freefls@4          10031890 f   libvcruntimed:per_thread_data.obj
 0001:000308c0       ___vcrt_freeptd            100318c0 f   libvcruntimed:per_thread_data.obj
 0001:00030920       ___vcrt_getptd             10031920 f   libvcruntimed:per_thread_data.obj
 0001:00030940       ___vcrt_getptd_noexit      10031940 f   libvcruntimed:per_thread_data.obj
 0001:00030aa0       ___vcrt_getptd_noinit      10031aa0 f   libvcruntimed:per_thread_data.obj
 0001:00030b00       ___vcrt_initialize_ptd     10031b00 f   libvcruntimed:per_thread_data.obj
 0001:00030b50       ___vcrt_uninitialize_ptd   10031b50 f   libvcruntimed:per_thread_data.obj
 0001:00030b80       ___vcrt_initialize_locks   10031b80 f   libvcruntimed:locks.obj
 0001:00030be0       ___vcrt_lock               10031be0 f   libvcruntimed:locks.obj
 0001:00030c00       ___vcrt_uninitialize_locks 10031c00 f   libvcruntimed:locks.obj
 0001:00030c50       ___vcrt_unlock             10031c50 f   libvcruntimed:locks.obj
 0001:000317c0       ??$TypeMatchHelper@V__FrameHandler3@@@@YAHPBU_s_HandlerType@@PBU_s_CatchableType@@PBU_s_ThrowInfo@@@Z 100327c0 f i libvcruntimed:frame.obj
 0001:000318a0       ??$__InternalCxxFrameHandler@V__FrameHandler3@@@@YA?AW4_EXCEPTION_DISPOSITION@@PAUEHExceptionRecord@@PAUEHRegistrationNode@@PAU_CONTEXT@@PAXPBU_s_FuncInfo@@H1E@Z 100328a0 f i libvcruntimed:frame.obj
 0001:00031a60       ??0HandlerMap@__FrameHandler3@@QAE@PBU_s_TryBlockMapEntry@@II@Z 10032a60 f i libvcruntimed:frame.obj
 0001:00031a90       ??0TryBlockMap@__FrameHandler3@@QAE@PBU_s_FuncInfo@@I@Z 10032a90 f i libvcruntimed:frame.obj
 0001:00031ac0       ??0bad_exception@std@@QAE@ABV01@@Z 10032ac0 f i libvcruntimed:frame.obj
 0001:00031af0       ??0bad_exception@std@@QAE@XZ 10032af0 f i libvcruntimed:frame.obj
 0001:00031b20       ??0iterator@HandlerMap@__FrameHandler3@@QAE@AAV12@I@Z 10032b20 f i libvcruntimed:frame.obj
 0001:00031b50       ??1bad_exception@std@@UAE@XZ 10032b50 f i libvcruntimed:frame.obj
 0001:00031b70       ??8iterator@HandlerMap@__FrameHandler3@@QBE_NABV012@@Z 10032b70 f i libvcruntimed:frame.obj
 0001:00031ba0       ??8type_info@@QBE_NABV0@@Z 10032ba0 f i libvcruntimed:frame.obj
 0001:00031be0       ??9iterator@HandlerMap@__FrameHandler3@@QBE_NABV012@@Z 10032be0 f i libvcruntimed:frame.obj
 0001:00031c20       ??Diterator@HandlerMap@__FrameHandler3@@QAE?BU_s_HandlerType@@XZ 10032c20 f i libvcruntimed:frame.obj
 0001:00031c60       ??Diterator@TryBlockMap@__FrameHandler3@@QAE?BU_s_TryBlockMapEntry@@XZ 10032c60 f i libvcruntimed:frame.obj
 0001:00031cb0       ??Eiterator@HandlerMap@__FrameHandler3@@QAEAAV012@XZ 10032cb0 f i libvcruntimed:frame.obj
 0001:00031cd0       ??Eiterator@TryBlockMap@__FrameHandler3@@QAEAAV012@XZ 10032cd0 f i libvcruntimed:frame.obj
 0001:00031cf0       ??Miterator@TryBlockMap@__FrameHandler3@@QBE_NABV012@@Z 10032cf0 f i libvcruntimed:frame.obj
 0001:00031d20       ??_Gbad_exception@std@@UAEPAXI@Z 10032d20 f i libvcruntimed:frame.obj
 0001:00031d20       ??_Ebad_exception@std@@UAEPAXI@Z 10032d20 f i libvcruntimed:frame.obj
 0001:00031d50       ?BuildCatchObject@__FrameHandler3@@SAXPAUEHExceptionRecord@@PAXPBU_s_HandlerType@@PBU_s_CatchableType@@@Z 10032d50 f   libvcruntimed:frame.obj
 0001:00031d70       ?BuildCatchObjectHelper@__FrameHandler3@@SAHPAUEHExceptionRecord@@PAXPBU_s_HandlerType@@PBU_s_CatchableType@@@Z 10032d70 f   libvcruntimed:frame.obj
 0001:00032110       ?FrameUnwindToEmptyState@__FrameHandler3@@SAXPAUEHRegistrationNode@@PAXPBU_s_FuncInfo@@@Z 10033110 f   libvcruntimed:frame.obj
 0001:00032130       ?FrameUnwindToState@__FrameHandler3@@SAXPAUEHRegistrationNode@@PAXPBU_s_FuncInfo@@H@Z 10033130 f   libvcruntimed:frame.obj
 0001:000322b0       ?GetMaxState@__FrameHandler3@@SAHPAXPBU_s_FuncInfo@@@Z 100332b0 f i libvcruntimed:frame.obj
 0001:000323d0       ?TypeMatch@__FrameHandler3@@SAHPBU_s_HandlerType@@PBU_s_CatchableType@@PBU_s_ThrowInfo@@@Z 100333d0 f   libvcruntimed:frame.obj
 0001:000323f0       ?_CallMemberFunction1@@YGXQAX00@Z 100333f0 f i libvcruntimed:frame.obj
 0001:00032420       ?_CallMemberFunction2@@YGXQAX00H@Z 10033420 f i libvcruntimed:frame.obj
 0001:00032450       ?begin@HandlerMap@__FrameHandler3@@QAE?AViterator@12@XZ 10033450 f i libvcruntimed:frame.obj
 0001:00032470       ?end@HandlerMap@__FrameHandler3@@QAE?AViterator@12@XZ 10033470 f i libvcruntimed:frame.obj
 0001:000324a0       ?getESTypes@__FrameHandler3@@SAPBU_s_ESTypeList@@PBU_s_FuncInfo@@@Z 100334a0 f i libvcruntimed:frame.obj
 0001:000324b0       ?getLastEntry@HandlerMap@__FrameHandler3@@QAEPBU_s_HandlerType@@XZ 100334b0 f i libvcruntimed:frame.obj
 0001:000324d0       ?getMagicNum@__FrameHandler3@@SAIPBU_s_FuncInfo@@@Z 100334d0 f i libvcruntimed:frame.obj
 0001:000324e0       ?getNumTryBlocks@TryBlockMap@__FrameHandler3@@QAEIXZ 100334e0 f i libvcruntimed:frame.obj
 0001:00032500       ?isEHs@__FrameHandler3@@SA_NPBU_s_FuncInfo@@@Z 10033500 f i libvcruntimed:frame.obj
 0001:00032530       ?isNoExcept@__FrameHandler3@@SA_NPBU_s_FuncInfo@@@Z 10033530 f i libvcruntimed:frame.obj
 0001:00032560       ___BuildCatchObject        10033560 f   libvcruntimed:frame.obj
 0001:00032580       ___BuildCatchObjectHelper  10033580 f   libvcruntimed:frame.obj
 0001:000325a0       ___TypeMatch               100335a0 f   libvcruntimed:frame.obj
 0001:000325c0       ___vcrt_EncodePointer      100335c0 f i libvcruntimed:frame.obj
 0001:000325d0       __CallSettingFrame@12      100335d0 f   libvcruntimed:lowhelpr.obj
 0001:000325f7       __NLG_Return               100335f7     libvcruntimed:lowhelpr.obj
 0001:00032620       ??$?0$00@DName@@QAE@PBDU?$StringLifeSelector@$00@@@Z 10033620 f i libvcruntimed:undname.obj
 0001:00032670       ??$?0$00@pcharNode@@QAE@PBDHU?$StringLifeSelector@$00@@@Z 10033670 f i libvcruntimed:undname.obj
 0001:000326b0       ??$?0$01@DName@@QAE@PBDU?$StringLifeSelector@$01@@@Z 100336b0 f i libvcruntimed:undname.obj
 0001:00032700       ??$?0$01@pcharNode@@QAE@PBDHU?$StringLifeSelector@$01@@@Z 10033700 f i libvcruntimed:undname.obj
 0001:00032780       ??$?0$0A@@DName@@QAE@PBDU?$StringLifeSelector@$0A@@@@Z 10033780 f i libvcruntimed:undname.obj
 0001:000327d0       ??$?0$0A@@pcharNode@@QAE@PBDHU?$StringLifeSelector@$0A@@@@Z 100337d0 f i libvcruntimed:undname.obj
 0001:00032850       ??$?0_K$0A@@?$optional@_K@std@@QAE@$$QA_K@Z 10033850 f i libvcruntimed:undname.obj
 0001:00032890       ??$?0_K@?$_Optional_construct_base@_K@std@@QAE@Uin_place_t@1@$$QA_K@Z 10033890 f i libvcruntimed:undname.obj
 0001:000328c0       ??$?0_K@?$_Optional_destruct_base@_K$00@std@@QAE@Uin_place_t@1@$$QA_K@Z 100338c0 f i libvcruntimed:undname.obj
 0001:000328f0       ??$append@VDNameNode@@@DName@@AAEXPBVDNameNode@@@Z 100338f0 f i libvcruntimed:undname.obj
 0001:00032980       ??$append@VDNameStatusNode@@@DName@@AAEXPBVDNameStatusNode@@@Z 10033980 f i libvcruntimed:undname.obj
 0001:00032a10       ??$append@VcharNode@@@DName@@AAEXPBVcharNode@@@Z 10033a10 f i libvcruntimed:undname.obj
 0001:00032aa0       ??$append@VpDNameNode@@@DName@@AAEXPBVpDNameNode@@@Z 10033aa0 f i libvcruntimed:undname.obj
 0001:00032b30       ??$append@VpcharNode@@@DName@@AAEXPBVpcharNode@@@Z 10033b30 f i libvcruntimed:undname.obj
 0001:00032bc0       ??$doPchar@$00@DName@@AAEXPBDH@Z 10033bc0 f i libvcruntimed:undname.obj
 0001:00032cd0       ??$doPchar@$01@DName@@AAEXPBDH@Z 10033cd0 f i libvcruntimed:undname.obj
 0001:00032de0       ??$doPchar@$0A@@DName@@AAEXPBDH@Z 10033de0 f i libvcruntimed:undname.obj
 0001:00032ef0       ??$forward@_K@std@@YA$$QA_KAA_K@Z 10033ef0 f i libvcruntimed:undname.obj
 0001:00032f00       ??$size@D$04@std@@YAIAAY04$$CBD@Z 10033f00 f i libvcruntimed:undname.obj
 0001:00032f10       ??$size@D$0EB@@std@@YAIAAY0EB@$$CBD@Z 10033f10 f i libvcruntimed:undname.obj
 0001:00032f20       ??0?$_Optional_construct_base@_K@std@@QAE@XZ 10033f20 f i libvcruntimed:undname.obj
 0001:00032f40       ??0?$_Optional_destruct_base@_K$00@std@@QAE@XZ 10033f40 f i libvcruntimed:undname.obj
 0001:00032f60       ??0?$optional@_K@std@@QAE@XZ 10033f60 f i libvcruntimed:undname.obj
 0001:00032f80       ??0Block@_HeapManager@@QAE@XZ 10033f80 f i libvcruntimed:undname.obj
 0001:00032fa0       ??0DName@@QAE@AAPBDD@Z     10033fa0 f   libvcruntimed:undname.obj
 0001:00033110       ??0DName@@QAE@ABUStringLiteral@@@Z 10034110 f   libvcruntimed:undname.obj
 0001:00033160       ??0DName@@QAE@ABV0@@Z      10034160 f i libvcruntimed:undname.obj
 0001:00033190       ??0DName@@QAE@D@Z          10034190 f   libvcruntimed:undname.obj
 0001:000331c0       ??0DName@@QAE@PAV0@@Z      100341c0 f   libvcruntimed:undname.obj
 0001:00033270       ??0DName@@QAE@W4DNameStatus@@@Z 10034270 f   libvcruntimed:undname.obj
 0001:00033310       ??0DName@@QAE@XZ           10034310 f i libvcruntimed:undname.obj
 0001:00033340       ??0DName@@QAE@_J@Z         10034340 f   libvcruntimed:undname.obj
 0001:00033430       ??0DName@@QAE@_K@Z         10034430 f   libvcruntimed:undname.obj
 0001:000334e0       ??0DNameNode@@IAE@XZ       100344e0 f i libvcruntimed:undname.obj
 0001:00033500       ??0Replicator@@QAE@XZ      10034500 f i libvcruntimed:undname.obj
 0001:00033540       ??0UnDecorator@@QAE@PBDP6APADJ@ZK@Z 10034540 f i libvcruntimed:undname.obj
 0001:000335c0       ??0_Nontrivial_dummy_type@std@@QAE@XZ 100345c0 f i libvcruntimed:undname.obj
 0001:000335d0       ??0charNode@@QAE@D@Z       100345d0 f i libvcruntimed:undname.obj
 0001:00033600       ??0pDNameNode@@QAE@PAVDName@@@Z 10034600 f   libvcruntimed:undname.obj
 0001:00033660       ??0pairNode@@QAE@PBVDNameNode@@0@Z 10034660 f i libvcruntimed:undname.obj
 0001:000336c0       ??2@YAPAXIAAV_HeapManager@@H@Z 100346c0 f   libvcruntimed:undname.obj
 0001:00033700       ??4DName@@QAEAAV0@ABUStringLiteral@@@Z 10034700 f   libvcruntimed:undname.obj
 0001:00033740       ??4DName@@QAEAAV0@ABV0@@Z  10034740 f   libvcruntimed:undname.obj
 0001:00033770       ??4DName@@QAEAAV0@D@Z      10034770 f i libvcruntimed:undname.obj
 0001:000337a0       ??4DName@@QAEAAV0@PAV0@@Z  100347a0 f   libvcruntimed:undname.obj
 0001:00033840       ??4DName@@QAEAAV0@W4DNameStatus@@@Z 10034840 f   libvcruntimed:undname.obj
 0001:000338c0       ??AReplicator@@QBE?AVDName@@H@Z 100348c0 f   libvcruntimed:undname.obj
 0001:00033930       ??B?$optional@_K@std@@QBE_NXZ 10034930 f i libvcruntimed:undname.obj
 0001:00033950       ??D?$optional@_K@std@@QGAEAA_KXZ 10034950 f i libvcruntimed:undname.obj
 0001:000339c0       ??H@YA?AVDName@@ABUStringLiteral@@ABV0@@Z 100349c0 f i libvcruntimed:undname.obj
 0001:000339f0       ??H@YA?AVDName@@DABV0@@Z   100349f0 f i libvcruntimed:undname.obj
 0001:00033a20       ??H@YA?AVDName@@W4DNameStatus@@ABV0@@Z 10034a20 f i libvcruntimed:undname.obj
 0001:00033a50       ??HDName@@QBE?AV0@ABUStringLiteral@@@Z 10034a50 f   libvcruntimed:undname.obj
 0001:00033a90       ??HDName@@QBE?AV0@ABV0@@Z  10034a90 f   libvcruntimed:undname.obj
 0001:00033ad0       ??HDName@@QBE?AV0@D@Z      10034ad0 f   libvcruntimed:undname.obj
 0001:00033b10       ??HDName@@QBE?AV0@PAV0@@Z  10034b10 f   libvcruntimed:undname.obj
 0001:00033b50       ??HDName@@QBE?AV0@W4DNameStatus@@@Z 10034b50 f   libvcruntimed:undname.obj
 0001:00033b90       ??HStringLiteral@@QBE?AU0@H@Z 10034b90 f i libvcruntimed:undname.obj
 0001:00033bc0       ??YDName@@QAEAAV0@ABUStringLiteral@@@Z 10034bc0 f   libvcruntimed:undname.obj
 0001:00033c60       ??YDName@@QAEAAV0@ABV0@@Z  10034c60 f   libvcruntimed:undname.obj
 0001:00033d00       ??YDName@@QAEAAV0@D@Z      10034d00 f   libvcruntimed:undname.obj
 0001:00033d80       ??YDName@@QAEAAV0@PAV0@@Z  10034d80 f   libvcruntimed:undname.obj
 0001:00033e30       ??YDName@@QAEAAV0@W4DNameStatus@@@Z 10034e30 f   libvcruntimed:undname.obj
 0001:00033e90       ??YReplicator@@QAEAAV0@ABVDName@@@Z 10034e90 f   libvcruntimed:undname.obj
 0001:00033f20       ??_5DName@@QAEAAV0@ABV0@@Z 10034f20 f   libvcruntimed:undname.obj
 0001:00033f80       ??__K_l@@YA?AUStringLiteral@@PBDI@Z 10034f80 f i libvcruntimed:undname.obj
 0001:00033fa0       ?Constructor@_HeapManager@@QAEXP6APAXI@ZP6AXPAX@Z@Z 10034fa0 f i libvcruntimed:undname.obj
 0001:00033fe0       ?Destructor@_HeapManager@@QAEXXZ 10034fe0 f i libvcruntimed:undname.obj
 0001:00034050       ?UScore@UnDecorator@@SA?AUStringLiteral@@W4Tokens@@@Z 10035050 f   libvcruntimed:undname.obj
 0001:000340a0       ?composeDeclaration@UnDecorator@@CA?AVDName@@ABV2@@Z 100350a0 f i libvcruntimed:undname.obj
 0001:00036010       ?dbGetString@DName@@QBEPADXZ 10037010 f   libvcruntimed:undname.obj
 0001:00036030       ?doAccessSpecifiers@UnDecorator@@SAHXZ 10037030 f i libvcruntimed:undname.obj
 0001:00036060       ?doAllocationLanguage@UnDecorator@@SAHXZ 10037060 f i libvcruntimed:undname.obj
 0001:00036090       ?doAllocationModel@UnDecorator@@SAHXZ 10037090 f i libvcruntimed:undname.obj
 0001:000360c0       ?doEcsu@UnDecorator@@SAHXZ 100370c0 f i libvcruntimed:undname.obj
 0001:000360f0       ?doEllipsis@UnDecorator@@SAHXZ 100370f0 f i libvcruntimed:undname.obj
 0001:00036120       ?doFunctionReturns@UnDecorator@@SAHXZ 10037120 f i libvcruntimed:undname.obj
 0001:00036150       ?doMSKeywords@UnDecorator@@SAHXZ 10037150 f i libvcruntimed:undname.obj
 0001:00036180       ?doMemberTypes@UnDecorator@@SAHXZ 10037180 f i libvcruntimed:undname.obj
 0001:000361b0       ?doNameOnly@UnDecorator@@SAHXZ 100371b0 f i libvcruntimed:undname.obj
 0001:000361c0       ?doNoIdentCharCheck@UnDecorator@@SAHXZ 100371c0 f i libvcruntimed:undname.obj
 0001:000361d0       ?doPchar@DName@@AAEXD@Z    100371d0 f   libvcruntimed:undname.obj
 0001:00036240       ?doPtr64@UnDecorator@@SAHXZ 10037240 f i libvcruntimed:undname.obj
 0001:00036270       ?doRestrictionSpec@UnDecorator@@SAHXZ 10037270 f i libvcruntimed:undname.obj
 0001:000362a0       ?doThisTypes@UnDecorator@@SAHXZ 100372a0 f i libvcruntimed:undname.obj
 0001:000362d0       ?doThrowTypes@UnDecorator@@SAHXZ 100372d0 f i libvcruntimed:undname.obj
 0001:00036300       ?doTypeOnly@UnDecorator@@SAHXZ 10037300 f i libvcruntimed:undname.obj
 0001:00036310       ?doUnderScore@UnDecorator@@SAHXZ 10037310 f i libvcruntimed:undname.obj
 0001:00036340       ?getAddressOf@UnDecorator@@CA?AVDName@@XZ 10037340 f   libvcruntimed:undname.obj
 0001:000363c0       ?getArgumentList@UnDecorator@@CA?AVDName@@XZ 100373c0 f   libvcruntimed:undname.obj
 0001:00036510       ?getArgumentTypes@UnDecorator@@CA?AVDName@@XZ 10037510 f   libvcruntimed:undname.obj
 0001:000366e0       ?getArrayAccess@UnDecorator@@CA?AVDName@@XZ 100376e0 f   libvcruntimed:undname.obj
 0001:00036780       ?getArrayObject@UnDecorator@@CA?AVDName@@XZ 10037780 f   libvcruntimed:undname.obj
 0001:00036860       ?getArrayType@UnDecorator@@CA?AVDName@@ABV2@@Z 10037860 f i libvcruntimed:undname.obj
 0001:00036b00       ?getBasedType@UnDecorator@@CA?AVDName@@XZ 10037b00 f   libvcruntimed:undname.obj
 0001:00036bf0       ?getBasicDataType@UnDecorator@@CA?AVDName@@ABV2@@Z 10037bf0 f   libvcruntimed:undname.obj
 0001:00037560       ?getCHPEName@UnDecorator@@QAEPADPADH@Z 10038560 f i libvcruntimed:undname.obj
 0001:000376c0       ?getCallIndex@UnDecorator@@CA?AVDName@@XZ 100386c0 f i libvcruntimed:undname.obj
 0001:000376e0       ?getCallingConvention@UnDecorator@@CA?AVDName@@XZ 100386e0 f   libvcruntimed:undname.obj
 0001:00037940       ?getDataIndirectType@UnDecorator@@CA?AVDName@@ABV2@W4IndirectionKind@@0H@Z 10038940 f   libvcruntimed:undname.obj
 0001:00038260       ?getDataIndirectType@UnDecorator@@CA?AVDName@@XZ 10039260 f i libvcruntimed:undname.obj
 0001:000382a0       ?getDataType@UnDecorator@@CA?AVDName@@PAV2@@Z 100392a0 f   libvcruntimed:undname.obj
 0001:000383e0       ?getDecoratedName@UnDecorator@@CA?AVDName@@XZ 100393e0 f   libvcruntimed:undname.obj
 0001:00038820       ?getDimension@UnDecorator@@CA?AVDName@@_N@Z 10039820 f   libvcruntimed:undname.obj
 0001:00038a80       ?getDispatchTarget@UnDecorator@@CA?AVDName@@XZ 10039a80 f   libvcruntimed:undname.obj
 0001:00038b20       ?getDisplacement@UnDecorator@@CA?AVDName@@XZ 10039b20 f i libvcruntimed:undname.obj
 0001:00038b40       ?getECSUDataType@UnDecorator@@CA?AVDName@@XZ 10039b40 f   libvcruntimed:undname.obj
 0001:00038da0       ?getECSUName@UnDecorator@@CA?AVDName@@XZ 10039da0 f i libvcruntimed:undname.obj
 0001:00038dc0       ?getEnumType@UnDecorator@@CA?AVDName@@XZ 10039dc0 f i libvcruntimed:undname.obj
 0001:00038f80       ?getExtendedDataIndirectType@UnDecorator@@CA?AVDName@@AAW4IndirectionKind@@AA_NH@Z 10039f80 f   libvcruntimed:undname.obj
 0001:000391d0       ?getExternalDataType@UnDecorator@@CA?AVDName@@ABV2@@Z 1003a1d0 f i libvcruntimed:undname.obj
 0001:00039270       ?getFloatingPoint@UnDecorator@@CA?AVDName@@H@Z 1003a270 f   libvcruntimed:undname.obj
 0001:00039430       ?getFunctionIndirectType@UnDecorator@@CA?AVDName@@ABV2@@Z 1003a430 f   libvcruntimed:undname.obj
 0001:00039910       ?getGuardNumber@UnDecorator@@CA?AVDName@@XZ 1003a910 f i libvcruntimed:undname.obj
 0001:00039930       ?getLastChar@DName@@QBEDXZ 1003a930 f i libvcruntimed:undname.obj
 0001:00039970       ?getLastChar@DNameStatusNode@@UBEDXZ 1003a970 f i libvcruntimed:undname.obj
 0001:000399a0       ?getLastChar@charNode@@UBEDXZ 1003a9a0 f i libvcruntimed:undname.obj
 0001:000399c0       ?getLastChar@pDNameNode@@UBEDXZ 1003a9c0 f i libvcruntimed:undname.obj
 0001:000399f0       ?getLastChar@pairNode@@UBEDXZ 1003a9f0 f i libvcruntimed:undname.obj
 0001:00039a60       ?getLastChar@pcharNode@@UBEDXZ 1003aa60 f i libvcruntimed:undname.obj
 0001:00039aa0       ?getLexicalFrame@UnDecorator@@CA?AVDName@@XZ 1003aaa0 f i libvcruntimed:undname.obj
 0001:00039ae0       ?getMemberAccess@UnDecorator@@CA?AVDName@@XZ 1003aae0 f   libvcruntimed:undname.obj
 0001:00039b70       ?getMemoryWithBuffer@_HeapManager@@QAEPAXI@Z 1003ab70 f   libvcruntimed:undname.obj
 0001:00039c60       ?getMemoryWithoutBuffer@_HeapManager@@QAEPAXI@Z 1003ac60 f   libvcruntimed:undname.obj
 0001:00039ca0       ?getNoexcept@UnDecorator@@CA?AVDName@@XZ 1003aca0 f   libvcruntimed:undname.obj
 0001:00039d20       ?getNumberOfDimensions@UnDecorator@@CAHXZ 1003ad20 f   libvcruntimed:undname.obj
 0001:00039e20       ?getOperatorName@UnDecorator@@CA?AVDName@@_NPA_N@Z 1003ae20 f i libvcruntimed:undname.obj
 0001:0003a920       ?getPointerToMember@UnDecorator@@CA?AVDName@@XZ 1003b920 f   libvcruntimed:undname.obj
 0001:0003aa10       ?getPointerType@UnDecorator@@CA?AVDName@@ABV2@0@Z 1003ba10 f i libvcruntimed:undname.obj
 0001:0003aa30       ?getPointerTypeArray@UnDecorator@@CA?AVDName@@ABV2@0@Z 1003ba30 f i libvcruntimed:undname.obj
 0001:0003aa50       ?getPrimaryDataType@UnDecorator@@CA?AVDName@@ABV2@@Z 1003ba50 f   libvcruntimed:undname.obj
 0001:0003aee0       ?getPtrRefDataType@UnDecorator@@CA?AVDName@@ABV2@H@Z 1003bee0 f   libvcruntimed:undname.obj
 0001:0003b190       ?getPtrRefType@UnDecorator@@CA?AVDName@@ABV2@0W4IndirectionKind@@@Z 1003c190 f   libvcruntimed:undname.obj
 0001:0003b310       ?getReferenceType@UnDecorator@@CA?AVDName@@ABV2@0W4IndirectionKind@@@Z 1003c310 f i libvcruntimed:undname.obj
 0001:0003b330       ?getRestrictionSpec@UnDecorator@@CA?AVDName@@XZ 1003c330 f   libvcruntimed:undname.obj
 0001:0003b4f0       ?getReturnType@UnDecorator@@CA?AVDName@@PAV2@@Z 1003c4f0 f   libvcruntimed:undname.obj
 0001:0003b540       ?getScope@UnDecorator@@CA?AVDName@@XZ 1003c540 f   libvcruntimed:undname.obj
 0001:0003bad0       ?getScopedName@UnDecorator@@CA?AVDName@@XZ 1003cad0 f   libvcruntimed:undname.obj
 0001:0003bc20       ?getSignedDimension@UnDecorator@@CA?AVDName@@XZ 1003cc20 f   libvcruntimed:undname.obj
 0001:0003bca0       ?getStorageConvention@UnDecorator@@CA?AVDName@@XZ 1003cca0 f i libvcruntimed:undname.obj
 0001:0003bcc0       ?getString@DName@@QBEPADPAD0@Z 1003ccc0 f i libvcruntimed:undname.obj
 0001:0003bd20       ?getString@DName@@QBEPADPADH@Z 1003cd20 f i libvcruntimed:undname.obj
 0001:0003bdb0       ?getString@DNameStatusNode@@UBEPADPAD0@Z 1003cdb0 f i libvcruntimed:undname.obj
 0001:0003bdf0       ?getString@charNode@@UBEPADPAD0@Z 1003cdf0 f i libvcruntimed:undname.obj
 0001:0003be20       ?getString@pDNameNode@@UBEPADPAD0@Z 1003ce20 f i libvcruntimed:undname.obj
 0001:0003be60       ?getString@pairNode@@UBEPADPAD0@Z 1003ce60 f i libvcruntimed:undname.obj
 0001:0003bef0       ?getString@pcharNode@@UBEPADPAD0@Z 1003cef0 f i libvcruntimed:undname.obj
 0001:0003bf20       ?getStringEncoding@UnDecorator@@CA?AVDName@@W4PrefixKind@@H@Z 1003cf20 f   libvcruntimed:undname.obj
 0001:0003c030       ?getStringHelper@@YAPADPADPBD1H@Z 1003d030 f i libvcruntimed:undname.obj
 0001:0003c070       ?getStringObject@UnDecorator@@CA?AVDName@@XZ 1003d070 f   libvcruntimed:undname.obj
 0001:0003c120       ?getSymbolName@UnDecorator@@CA?AVDName@@XZ 1003d120 f i libvcruntimed:undname.obj
 0001:0003c1b0       ?getTemplateArgumentList@UnDecorator@@CA?AVDName@@XZ 1003d1b0 f   libvcruntimed:undname.obj
 0001:0003c4a0       ?getTemplateName@UnDecorator@@CA?AVDName@@_N@Z 1003d4a0 f   libvcruntimed:undname.obj
 0001:0003c660       ?getTemplateNonTypeArgument@UnDecorator@@CA?AVDName@@XZ 1003d660 f   libvcruntimed:undname.obj
 0001:0003cca0       ?getTemplateTypeArgument@UnDecorator@@CA?AVDName@@XZ 1003dca0 f   libvcruntimed:undname.obj
 0001:0003ce40       ?getThisType@UnDecorator@@CA?AVDName@@XZ 1003de40 f i libvcruntimed:undname.obj
 0001:0003ce80       ?getThrowTypes@UnDecorator@@CA?AVDName@@XZ 1003de80 f   libvcruntimed:undname.obj
 0001:0003cec0       ?getTypeEncoding@UnDecorator@@CAHXZ 1003dec0 f i libvcruntimed:undname.obj
 0001:0003d980       ?getUndecoratedName@UnDecorator@@QAEPADPADH@Z 1003e980 f i libvcruntimed:undname.obj
 0001:0003dae0       ?getUnionObject@UnDecorator@@CA?AVDName@@XZ 1003eae0 f   libvcruntimed:undname.obj
 0001:0003dbb0       ?getVCallThunkType@UnDecorator@@CA?AVDName@@XZ 1003ebb0 f i libvcruntimed:undname.obj
 0001:0003dc30       ?getValue@UnDecorator@@CA?AV?$optional@_K@std@@XZ 1003ec30 f   libvcruntimed:undname.obj
 0001:0003dcf0       ?getValueObject@UnDecorator@@CA?AVDName@@XZ 1003ecf0 f   libvcruntimed:undname.obj
 0001:0003ded0       ?getVbTableType@UnDecorator@@CA?AVDName@@ABV2@@Z 1003eed0 f i libvcruntimed:undname.obj
 0001:0003def0       ?getVdispMapType@UnDecorator@@CA?AVDName@@ABV2@@Z 1003eef0 f i libvcruntimed:undname.obj
 0001:0003df80       ?getVfTableType@UnDecorator@@CA?AVDName@@ABV2@@Z 1003ef80 f i libvcruntimed:undname.obj
 0001:0003e180       ?getZName@UnDecorator@@CA?AVDName@@_N0@Z 1003f180 f   libvcruntimed:undname.obj
 0001:0003e4b0       ?haveTemplateParameters@UnDecorator@@SAHXZ 1003f4b0 f i libvcruntimed:undname.obj
 0001:0003e4c0       ?isArray@DName@@QBEHXZ     1003f4c0 f i libvcruntimed:undname.obj
 0001:0003e4e0       ?isComArray@DName@@QBEHXZ  1003f4e0 f i libvcruntimed:undname.obj
 0001:0003e500       ?isEmpty@DName@@QBEHXZ     1003f500 f i libvcruntimed:undname.obj
 0001:0003e530       ?isFull@Replicator@@QBEHXZ 1003f530 f i libvcruntimed:undname.obj
 0001:0003e560       ?isNoTE@DName@@QBEHXZ      1003f560 f i libvcruntimed:undname.obj
 0001:0003e580       ?isPinPtr@DName@@QBEHXZ    1003f580 f i libvcruntimed:undname.obj
 0001:0003e5a0       ?isPtrRef@DName@@QBEHXZ    1003f5a0 f i libvcruntimed:undname.obj
 0001:0003e5c0       ?isUDC@DName@@QBEHXZ       1003f5c0 f i libvcruntimed:undname.obj
 0001:0003e600       ?isUDTThunk@DName@@QBEHXZ  1003f600 f i libvcruntimed:undname.obj
 0001:0003e640       ?isVCallThunk@DName@@QBEHXZ 1003f640 f i libvcruntimed:undname.obj
 0001:0003e660       ?isValid@DName@@QBEHXZ     1003f660 f i libvcruntimed:undname.obj
 0001:0003e6a0       ?length@DName@@QBEHXZ      1003f6a0 f i libvcruntimed:undname.obj
 0001:0003e6e0       ?length@DNameStatusNode@@UBEHXZ 1003f6e0 f i libvcruntimed:undname.obj
 0001:0003e700       ?length@charNode@@UBEHXZ   1003f700 f i libvcruntimed:undname.obj
 0001:0003e710       ?length@pDNameNode@@UBEHXZ 1003f710 f i libvcruntimed:undname.obj
 0001:0003e740       ?length@pairNode@@UBEHXZ   1003f740 f i libvcruntimed:undname.obj
 0001:0003e7b0       ?length@pcharNode@@UBEHXZ  1003f7b0 f i libvcruntimed:undname.obj
 0001:0003e7d0       ?make@DNameStatusNode@@SAPBV1@W4DNameStatus@@@Z 1003f7d0 f i libvcruntimed:undname.obj
 0001:0003e800       ?parseDecoratedName@UnDecorator@@CA?AVDName@@XZ 1003f800 f   libvcruntimed:undname.obj
 0001:0003e990       ?raw_length@DNameStatusNode@@UBEHXZ 1003f990 f i libvcruntimed:undname.obj
 0001:0003e9b0       ?raw_length@charNode@@UBEHXZ 1003f9b0 f i libvcruntimed:undname.obj
 0001:0003e9d0       ?raw_length@pDNameNode@@UBEHXZ 1003f9d0 f i libvcruntimed:undname.obj
 0001:0003e9e0       ?raw_length@pairNode@@UBEHXZ 1003f9e0 f i libvcruntimed:undname.obj
 0001:0003ea00       ?raw_length@pcharNode@@UBEHXZ 1003fa00 f i libvcruntimed:undname.obj
 0001:0003ea20       ?setIsArray@DName@@QAEXXZ  1003fa20 f i libvcruntimed:undname.obj
 0001:0003ea40       ?setIsComArray@DName@@QAEXXZ 1003fa40 f i libvcruntimed:undname.obj
 0001:0003ea60       ?setIsNoTE@DName@@QAEXXZ   1003fa60 f i libvcruntimed:undname.obj
 0001:0003ea80       ?setIsPinPtr@DName@@QAEXXZ 1003fa80 f i libvcruntimed:undname.obj
 0001:0003eaa0       ?setIsUDC@DName@@QAEXXZ    1003faa0 f i libvcruntimed:undname.obj
 0001:0003ead0       ?setIsVCallThunk@DName@@QAEXXZ 1003fad0 f i libvcruntimed:undname.obj
 0001:0003eaf0       ?setPtrRef@DName@@QAEAAV1@XZ 1003faf0 f i libvcruntimed:undname.obj
 0001:0003eb10       ?status@DName@@QBE?AW4DNameStatus@@XZ 1003fb10 f i libvcruntimed:undname.obj
 0001:0003ec10       ___unDName                 1003fc10 f   libvcruntimed:undname.obj
 0001:0003ec40       ___unDNameEx               1003fc40 f   libvcruntimed:undname.obj
 0001:0003ed10       _unDNameGenerateCHPE       1003fd10 f   libvcruntimed:undname.obj
 0001:0003ed70       __global_unwind2           1003fd70 f   libvcruntimed:exsup.obj
 0001:0003edf0       __local_unwind2            1003fdf0 f   libvcruntimed:exsup.obj
 0001:0003ee90       __abnormal_termination     1003fe90 f   libvcruntimed:exsup.obj
 0001:0003eec0       __NLG_Notify1              1003fec0 f   libvcruntimed:exsup.obj
 0001:0003eed0       __NLG_Notify               1003fed0 f   libvcruntimed:exsup.obj
 0001:0003eee7       __NLG_Dispatch2            1003fee7     libvcruntimed:exsup.obj
 0001:0003eee7       __NLG_Dispatch             1003fee7     libvcruntimed:exsup.obj
 0001:0003eef0       __NLG_Call                 1003fef0 f   libvcruntimed:exsup.obj
 0001:0003eef2       __NLG_Return2              1003fef2     libvcruntimed:exsup.obj
 0001:0003ef00       ??$__crt_interlocked_exchange_pointer@UHINSTANCE__@@PAU1@@@YAPAUHINSTANCE__@@PDSAU0@QAU0@@Z 1003ff00 f i libvcruntimed:winapi_downlevel.obj
 0001:0003ef10       ??$__crt_interlocked_exchange_pointer@UHINSTANCE__@@PAX@@YAPAUHINSTANCE__@@PDSAU0@QAX@Z 1003ff10 f i libvcruntimed:winapi_downlevel.obj
 0001:0003ef20       ??$__crt_interlocked_exchange_pointer@XPAX@@YAPAXPDSAXQAX@Z 1003ff20 f i libvcruntimed:winapi_downlevel.obj
 0001:0003ef30       ??$__crt_interlocked_read_pointer@UHINSTANCE__@@@@YAPAUHINSTANCE__@@PDSAU0@@Z 1003ff30 f i libvcruntimed:winapi_downlevel.obj
 0001:0003ef50       ??$__crt_interlocked_read_pointer@X@@YAPAXPDSAX@Z 1003ff50 f i libvcruntimed:winapi_downlevel.obj
 0001:0003f320       ___vcrt_FlsAlloc           10040320 f   libvcruntimed:winapi_downlevel.obj
 0001:0003f360       ___vcrt_FlsFree            10040360 f   libvcruntimed:winapi_downlevel.obj
 0001:0003f3a0       ___vcrt_FlsGetValue        100403a0 f   libvcruntimed:winapi_downlevel.obj
 0001:0003f3e0       ___vcrt_FlsSetValue        100403e0 f   libvcruntimed:winapi_downlevel.obj
 0001:0003f430       ___vcrt_InitializeCriticalSectionEx 10040430 f   libvcruntimed:winapi_downlevel.obj
 0001:0003f4b0       __get_unexpected           100404b0 f   libvcruntimed:unexpected.obj
 0001:0003f4d0       _set_unexpected            100404d0 f   libvcruntimed:unexpected.obj
 0001:0003f500       _unexpected                10040500 f   libvcruntimed:unexpected.obj
 0001:0003f540       ?GetCurrentState@__FrameHandler3@@SAHPAUEHRegistrationNode@@PAXPBU_s_FuncInfo@@@Z 10040540 f   libvcruntimed:ehstate.obj
 0001:0003f570       ?SetState@__FrameHandler3@@SAXPAUEHRegistrationNode@@PBU_s_FuncInfo@@H@Z 10040570 f   libvcruntimed:ehstate.obj
 0001:0003f580       ??$?0ABV?$stream_output_adapter@D@__crt_stdio_output@@AB_KABQBDAAV__crt_cached_ptd_host@@ABQAD@?$format_validation_base@DV?$stream_output_adapter@D@__crt_stdio_output@@@__crt_stdio_output@@IAE@ABV?$stream_output_adapter@D@1@AB_KABQBDAAV__crt_cached_ptd_host@@ABQAD@Z 10040580 f i libucrtd:output.obj
 0001:0003f5b0       ??$?0ABV?$stream_output_adapter@D@__crt_stdio_output@@AB_KABQBDAAV__crt_cached_ptd_host@@ABQAD@?$positional_parameter_base@DV?$stream_output_adapter@D@__crt_stdio_output@@@__crt_stdio_output@@IAE@ABV?$stream_output_adapter@D@1@AB_KABQBDAAV__crt_cached_ptd_host@@ABQAD@Z 100405b0 f i libucrtd:output.obj
 0001:0003f630       ??$?0ABV?$stream_output_adapter@D@__crt_stdio_output@@AB_KABQBDAAV__crt_cached_ptd_host@@ABQAD@?$standard_base@DV?$stream_output_adapter@D@__crt_stdio_output@@@__crt_stdio_output@@IAE@ABV?$stream_output_adapter@D@1@AB_KABQBDAAV__crt_cached_ptd_host@@ABQAD@Z 10040630 f i libucrtd:output.obj
 0001:0003f680       ??$?0ABV?$stream_output_adapter@_W@__crt_stdio_output@@AB_KABQB_WAAV__crt_cached_ptd_host@@ABQAD@?$format_validation_base@_WV?$stream_output_adapter@_W@__crt_stdio_output@@@__crt_stdio_output@@IAE@ABV?$stream_output_adapter@_W@1@AB_KABQB_WAAV__crt_cached_ptd_host@@ABQAD@Z 10040680 f i libucrtd:output.obj
 0001:0003f6b0       ??$?0ABV?$stream_output_adapter@_W@__crt_stdio_output@@AB_KABQB_WAAV__crt_cached_ptd_host@@ABQAD@?$positional_parameter_base@_WV?$stream_output_adapter@_W@__crt_stdio_output@@@__crt_stdio_output@@IAE@ABV?$stream_output_adapter@_W@1@AB_KABQB_WAAV__crt_cached_ptd_host@@ABQAD@Z 100406b0 f i libucrtd:output.obj
 0001:0003f730       ??$?0ABV?$stream_output_adapter@_W@__crt_stdio_output@@AB_KABQB_WAAV__crt_cached_ptd_host@@ABQAD@?$standard_base@_WV?$stream_output_adapter@_W@__crt_stdio_output@@@__crt_stdio_output@@IAE@ABV?$stream_output_adapter@_W@1@AB_KABQB_WAAV__crt_cached_ptd_host@@ABQAD@Z 10040730 f i libucrtd:output.obj
 0001:0003f780       ??$?0ABV?$string_output_adapter@D@__crt_stdio_output@@AB_KABQBDAAV__crt_cached_ptd_host@@ABQAD@?$format_validation_base@DV?$string_output_adapter@D@__crt_stdio_output@@@__crt_stdio_output@@IAE@ABV?$string_output_adapter@D@1@AB_KABQBDAAV__crt_cached_ptd_host@@ABQAD@Z 10040780 f i libucrtd:output.obj
 0001:0003f7b0       ??$?0ABV?$string_output_adapter@D@__crt_stdio_output@@AB_KABQBDAAV__crt_cached_ptd_host@@ABQAD@?$positional_parameter_base@DV?$string_output_adapter@D@__crt_stdio_output@@@__crt_stdio_output@@IAE@ABV?$string_output_adapter@D@1@AB_KABQBDAAV__crt_cached_ptd_host@@ABQAD@Z 100407b0 f i libucrtd:output.obj
 0001:0003f830       ??$?0ABV?$string_output_adapter@D@__crt_stdio_output@@AB_KABQBDAAV__crt_cached_ptd_host@@ABQAD@?$standard_base@DV?$string_output_adapter@D@__crt_stdio_output@@@__crt_stdio_output@@IAE@ABV?$string_output_adapter@D@1@AB_KABQBDAAV__crt_cached_ptd_host@@ABQAD@Z 10040830 f i libucrtd:output.obj
 0001:0003f880       ??$?0ABV?$string_output_adapter@_W@__crt_stdio_output@@AB_KABQB_WAAV__crt_cached_ptd_host@@ABQAD@?$format_validation_base@_WV?$string_output_adapter@_W@__crt_stdio_output@@@__crt_stdio_output@@IAE@ABV?$string_output_adapter@_W@1@AB_KABQB_WAAV__crt_cached_ptd_host@@ABQAD@Z 10040880 f i libucrtd:output.obj
 0001:0003f8b0       ??$?0ABV?$string_output_adapter@_W@__crt_stdio_output@@AB_KABQB_WAAV__crt_cached_ptd_host@@ABQAD@?$positional_parameter_base@_WV?$string_output_adapter@_W@__crt_stdio_output@@@__crt_stdio_output@@IAE@ABV?$string_output_adapter@_W@1@AB_KABQB_WAAV__crt_cached_ptd_host@@ABQAD@Z 100408b0 f i libucrtd:output.obj
 0001:0003f930       ??$?0ABV?$string_output_adapter@_W@__crt_stdio_output@@AB_KABQB_WAAV__crt_cached_ptd_host@@ABQAD@?$standard_base@_WV?$string_output_adapter@_W@__crt_stdio_output@@@__crt_stdio_output@@IAE@ABV?$string_output_adapter@_W@1@AB_KABQB_WAAV__crt_cached_ptd_host@@ABQAD@Z 10040930 f i libucrtd:output.obj
 0001:0003ff80       ??$__crt_interlocked_read@J@@YAJPDJ@Z 10040f80 f i libucrtd:output.obj
 0001:0003ffa0       ??$_tcstol_internal@DPAPAD$0A@@@YAJAAV__crt_cached_ptd_host@@QBDQAPADH@Z 10040fa0 f i libucrtd:output.obj
 0001:0003ffe0       ??$_tcstol_internal@_WPAPA_W$0A@@@YAJAAV__crt_cached_ptd_host@@QB_WQAPA_WH@Z 10040fe0 f i libucrtd:output.obj
 0001:00042f80       ??$count@D@formatting_buffer@__crt_stdio_output@@QBEIXZ 10043f80 f i libucrtd:output.obj
 0001:00042fc0       ??$count@_W@formatting_buffer@__crt_stdio_output@@QBEIXZ 10043fc0 f i libucrtd:output.obj
 0001:00043000       ??$data@D@formatting_buffer@__crt_stdio_output@@QAEPADXZ 10044000 f i libucrtd:output.obj
 0001:00043040       ??$data@_W@formatting_buffer@__crt_stdio_output@@QAEPA_WXZ 10044040 f i libucrtd:output.obj
 0001:00043080       ??$ensure_buffer_is_big_enough@D@formatting_buffer@__crt_stdio_output@@QAE_NIAAV__crt_cached_ptd_host@@@Z 10044080 f i libucrtd:output.obj
 0001:00043170       ??$ensure_buffer_is_big_enough@_W@formatting_buffer@__crt_stdio_output@@QAE_NIAAV__crt_cached_ptd_host@@@Z 10044170 f i libucrtd:output.obj
 0001:00043260       ??$extract_argument_from_va_list@C_J@?$positional_parameter_base@DV?$stream_output_adapter@D@__crt_stdio_output@@@__crt_stdio_output@@IAE_NAA_J@Z 10044260 f i libucrtd:output.obj
 0001:000433c0       ??$extract_argument_from_va_list@C_J@?$positional_parameter_base@DV?$string_output_adapter@D@__crt_stdio_output@@@__crt_stdio_output@@IAE_NAA_J@Z 100443c0 f i libucrtd:output.obj
 0001:00043520       ??$extract_argument_from_va_list@C_J@?$positional_parameter_base@_WV?$stream_output_adapter@_W@__crt_stdio_output@@@__crt_stdio_output@@IAE_NAA_J@Z 10044520 f i libucrtd:output.obj
 0001:00043690       ??$extract_argument_from_va_list@C_J@?$positional_parameter_base@_WV?$string_output_adapter@_W@__crt_stdio_output@@@__crt_stdio_output@@IAE_NAA_J@Z 10044690 f i libucrtd:output.obj
 0001:00043800       ??$extract_argument_from_va_list@C_J@?$standard_base@DV?$stream_output_adapter@D@__crt_stdio_output@@@__crt_stdio_output@@IAE_NAA_J@Z 10044800 f i libucrtd:output.obj
 0001:00043830       ??$extract_argument_from_va_list@C_J@?$standard_base@DV?$string_output_adapter@D@__crt_stdio_output@@@__crt_stdio_output@@IAE_NAA_J@Z 10044830 f i libucrtd:output.obj
 0001:00043860       ??$extract_argument_from_va_list@C_J@?$standard_base@_WV?$stream_output_adapter@_W@__crt_stdio_output@@@__crt_stdio_output@@IAE_NAA_J@Z 10044860 f i libucrtd:output.obj
 0001:00043890       ??$extract_argument_from_va_list@C_J@?$standard_base@_WV?$string_output_adapter@_W@__crt_stdio_output@@@__crt_stdio_output@@IAE_NAA_J@Z 10044890 f i libucrtd:output.obj
 0001:000438c0       ??$extract_argument_from_va_list@E_J@?$positional_parameter_base@DV?$stream_output_adapter@D@__crt_stdio_output@@@__crt_stdio_output@@IAE_NAA_J@Z 100448c0 f i libucrtd:output.obj
 0001:00043a20       ??$extract_argument_from_va_list@E_J@?$positional_parameter_base@DV?$string_output_adapter@D@__crt_stdio_output@@@__crt_stdio_output@@IAE_NAA_J@Z 10044a20 f i libucrtd:output.obj
 0001:00043b80       ??$extract_argument_from_va_list@E_J@?$positional_parameter_base@_WV?$stream_output_adapter@_W@__crt_stdio_output@@@__crt_stdio_output@@IAE_NAA_J@Z 10044b80 f i libucrtd:output.obj
 0001:00043cf0       ??$extract_argument_from_va_list@E_J@?$positional_parameter_base@_WV?$string_output_adapter@_W@__crt_stdio_output@@@__crt_stdio_output@@IAE_NAA_J@Z 10044cf0 f i libucrtd:output.obj
 0001:00043e60       ??$extract_argument_from_va_list@E_J@?$standard_base@DV?$stream_output_adapter@D@__crt_stdio_output@@@__crt_stdio_output@@IAE_NAA_J@Z 10044e60 f i libucrtd:output.obj
 0001:00043e90       ??$extract_argument_from_va_list@E_J@?$standard_base@DV?$string_output_adapter@D@__crt_stdio_output@@@__crt_stdio_output@@IAE_NAA_J@Z 10044e90 f i libucrtd:output.obj
 0001:00043ec0       ??$extract_argument_from_va_list@E_J@?$standard_base@_WV?$stream_output_adapter@_W@__crt_stdio_output@@@__crt_stdio_output@@IAE_NAA_J@Z 10044ec0 f i libucrtd:output.obj
 0001:00043ef0       ??$extract_argument_from_va_list@E_J@?$standard_base@_WV?$string_output_adapter@_W@__crt_stdio_output@@@__crt_stdio_output@@IAE_NAA_J@Z 10044ef0 f i libucrtd:output.obj
 0001:00043f20       ??$extract_argument_from_va_list@F_J@?$positional_parameter_base@DV?$stream_output_adapter@D@__crt_stdio_output@@@__crt_stdio_output@@IAE_NAA_J@Z 10044f20 f i libucrtd:output.obj
 0001:00044080       ??$extract_argument_from_va_list@F_J@?$positional_parameter_base@DV?$string_output_adapter@D@__crt_stdio_output@@@__crt_stdio_output@@IAE_NAA_J@Z 10045080 f i libucrtd:output.obj
 0001:000441e0       ??$extract_argument_from_va_list@F_J@?$positional_parameter_base@_WV?$stream_output_adapter@_W@__crt_stdio_output@@@__crt_stdio_output@@IAE_NAA_J@Z 100451e0 f i libucrtd:output.obj
 0001:00044340       ??$extract_argument_from_va_list@F_J@?$positional_parameter_base@_WV?$string_output_adapter@_W@__crt_stdio_output@@@__crt_stdio_output@@IAE_NAA_J@Z 10045340 f i libucrtd:output.obj
 0001:000444a0       ??$extract_argument_from_va_list@F_J@?$standard_base@DV?$stream_output_adapter@D@__crt_stdio_output@@@__crt_stdio_output@@IAE_NAA_J@Z 100454a0 f i libucrtd:output.obj
 0001:000444d0       ??$extract_argument_from_va_list@F_J@?$standard_base@DV?$string_output_adapter@D@__crt_stdio_output@@@__crt_stdio_output@@IAE_NAA_J@Z 100454d0 f i libucrtd:output.obj
 0001:00044500       ??$extract_argument_from_va_list@F_J@?$standard_base@_WV?$stream_output_adapter@_W@__crt_stdio_output@@@__crt_stdio_output@@IAE_NAA_J@Z 10045500 f i libucrtd:output.obj
 0001:00044530       ??$extract_argument_from_va_list@F_J@?$standard_base@_WV?$string_output_adapter@_W@__crt_stdio_output@@@__crt_stdio_output@@IAE_NAA_J@Z 10045530 f i libucrtd:output.obj
 0001:00044560       ??$extract_argument_from_va_list@GD@?$positional_parameter_base@DV?$stream_output_adapter@D@__crt_stdio_output@@@__crt_stdio_output@@IAE_NAAD@Z 10045560 f i libucrtd:output.obj
 0001:000446c0       ??$extract_argument_from_va_list@GD@?$positional_parameter_base@DV?$string_output_adapter@D@__crt_stdio_output@@@__crt_stdio_output@@IAE_NAAD@Z 100456c0 f i libucrtd:output.obj
 0001:00044820       ??$extract_argument_from_va_list@GD@?$standard_base@DV?$stream_output_adapter@D@__crt_stdio_output@@@__crt_stdio_output@@IAE_NAAD@Z 10045820 f i libucrtd:output.obj
 0001:00044850       ??$extract_argument_from_va_list@GD@?$standard_base@DV?$string_output_adapter@D@__crt_stdio_output@@@__crt_stdio_output@@IAE_NAAD@Z 10045850 f i libucrtd:output.obj
 0001:00044880       ??$extract_argument_from_va_list@G_J@?$positional_parameter_base@DV?$stream_output_adapter@D@__crt_stdio_output@@@__crt_stdio_output@@IAE_NAA_J@Z 10045880 f i libucrtd:output.obj
 0001:000449e0       ??$extract_argument_from_va_list@G_J@?$positional_parameter_base@DV?$string_output_adapter@D@__crt_stdio_output@@@__crt_stdio_output@@IAE_NAA_J@Z 100459e0 f i libucrtd:output.obj
 0001:00044b40       ??$extract_argument_from_va_list@G_J@?$positional_parameter_base@_WV?$stream_output_adapter@_W@__crt_stdio_output@@@__crt_stdio_output@@IAE_NAA_J@Z 10045b40 f i libucrtd:output.obj
 0001:00044cb0       ??$extract_argument_from_va_list@G_J@?$positional_parameter_base@_WV?$string_output_adapter@_W@__crt_stdio_output@@@__crt_stdio_output@@IAE_NAA_J@Z 10045cb0 f i libucrtd:output.obj
 0001:00044e20       ??$extract_argument_from_va_list@G_J@?$standard_base@DV?$stream_output_adapter@D@__crt_stdio_output@@@__crt_stdio_output@@IAE_NAA_J@Z 10045e20 f i libucrtd:output.obj
 0001:00044e50       ??$extract_argument_from_va_list@G_J@?$standard_base@DV?$string_output_adapter@D@__crt_stdio_output@@@__crt_stdio_output@@IAE_NAA_J@Z 10045e50 f i libucrtd:output.obj
 0001:00044e80       ??$extract_argument_from_va_list@G_J@?$standard_base@_WV?$stream_output_adapter@_W@__crt_stdio_output@@@__crt_stdio_output@@IAE_NAA_J@Z 10045e80 f i libucrtd:output.obj
 0001:00044eb0       ??$extract_argument_from_va_list@G_J@?$standard_base@_WV?$string_output_adapter@_W@__crt_stdio_output@@@__crt_stdio_output@@IAE_NAA_J@Z 10045eb0 f i libucrtd:output.obj
 0001:00044ee0       ??$extract_argument_from_va_list@H_J@?$positional_parameter_base@DV?$stream_output_adapter@D@__crt_stdio_output@@@__crt_stdio_output@@IAE_NAA_J@Z 10045ee0 f i libucrtd:output.obj
 0001:00045040       ??$extract_argument_from_va_list@H_J@?$positional_parameter_base@DV?$string_output_adapter@D@__crt_stdio_output@@@__crt_stdio_output@@IAE_NAA_J@Z 10046040 f i libucrtd:output.obj
 0001:000451a0       ??$extract_argument_from_va_list@H_J@?$positional_parameter_base@_WV?$stream_output_adapter@_W@__crt_stdio_output@@@__crt_stdio_output@@IAE_NAA_J@Z 100461a0 f i libucrtd:output.obj
 0001:00045300       ??$extract_argument_from_va_list@H_J@?$positional_parameter_base@_WV?$string_output_adapter@_W@__crt_stdio_output@@@__crt_stdio_output@@IAE_NAA_J@Z 10046300 f i libucrtd:output.obj
 0001:00045460       ??$extract_argument_from_va_list@H_J@?$standard_base@DV?$stream_output_adapter@D@__crt_stdio_output@@@__crt_stdio_output@@IAE_NAA_J@Z 10046460 f i libucrtd:output.obj
 0001:00045490       ??$extract_argument_from_va_list@H_J@?$standard_base@DV?$string_output_adapter@D@__crt_stdio_output@@@__crt_stdio_output@@IAE_NAA_J@Z 10046490 f i libucrtd:output.obj
 0001:000454c0       ??$extract_argument_from_va_list@H_J@?$standard_base@_WV?$stream_output_adapter@_W@__crt_stdio_output@@@__crt_stdio_output@@IAE_NAA_J@Z 100464c0 f i libucrtd:output.obj
 0001:000454f0       ??$extract_argument_from_va_list@H_J@?$standard_base@_WV?$string_output_adapter@_W@__crt_stdio_output@@@__crt_stdio_output@@IAE_NAA_J@Z 100464f0 f i libucrtd:output.obj
 0001:00045520       ??$extract_argument_from_va_list@I_J@?$positional_parameter_base@DV?$stream_output_adapter@D@__crt_stdio_output@@@__crt_stdio_output@@IAE_NAA_J@Z 10046520 f i libucrtd:output.obj
 0001:00045680       ??$extract_argument_from_va_list@I_J@?$positional_parameter_base@DV?$string_output_adapter@D@__crt_stdio_output@@@__crt_stdio_output@@IAE_NAA_J@Z 10046680 f i libucrtd:output.obj
 0001:000457e0       ??$extract_argument_from_va_list@I_J@?$positional_parameter_base@_WV?$stream_output_adapter@_W@__crt_stdio_output@@@__crt_stdio_output@@IAE_NAA_J@Z 100467e0 f i libucrtd:output.obj
 0001:00045940       ??$extract_argument_from_va_list@I_J@?$positional_parameter_base@_WV?$string_output_adapter@_W@__crt_stdio_output@@@__crt_stdio_output@@IAE_NAA_J@Z 10046940 f i libucrtd:output.obj
 0001:00045aa0       ??$extract_argument_from_va_list@I_J@?$standard_base@DV?$stream_output_adapter@D@__crt_stdio_output@@@__crt_stdio_output@@IAE_NAA_J@Z 10046aa0 f i libucrtd:output.obj
 0001:00045ad0       ??$extract_argument_from_va_list@I_J@?$standard_base@DV?$string_output_adapter@D@__crt_stdio_output@@@__crt_stdio_output@@IAE_NAA_J@Z 10046ad0 f i libucrtd:output.obj
 0001:00045b00       ??$extract_argument_from_va_list@I_J@?$standard_base@_WV?$stream_output_adapter@_W@__crt_stdio_output@@@__crt_stdio_output@@IAE_NAA_J@Z 10046b00 f i libucrtd:output.obj
 0001:00045b30       ??$extract_argument_from_va_list@I_J@?$standard_base@_WV?$string_output_adapter@_W@__crt_stdio_output@@@__crt_stdio_output@@IAE_NAA_J@Z 10046b30 f i libucrtd:output.obj
 0001:00045b60       ??$extract_argument_from_va_list@PADPAD@?$positional_parameter_base@DV?$stream_output_adapter@D@__crt_stdio_output@@@__crt_stdio_output@@IAE_NAAPAD@Z 10046b60 f i libucrtd:output.obj
 0001:00045cc0       ??$extract_argument_from_va_list@PADPAD@?$positional_parameter_base@DV?$string_output_adapter@D@__crt_stdio_output@@@__crt_stdio_output@@IAE_NAAPAD@Z 10046cc0 f i libucrtd:output.obj
 0001:00045e20       ??$extract_argument_from_va_list@PADPAD@?$positional_parameter_base@_WV?$stream_output_adapter@_W@__crt_stdio_output@@@__crt_stdio_output@@IAE_NAAPAD@Z 10046e20 f i libucrtd:output.obj
 0001:00045f80       ??$extract_argument_from_va_list@PADPAD@?$positional_parameter_base@_WV?$string_output_adapter@_W@__crt_stdio_output@@@__crt_stdio_output@@IAE_NAAPAD@Z 10046f80 f i libucrtd:output.obj
 0001:000460e0       ??$extract_argument_from_va_list@PADPAD@?$standard_base@DV?$stream_output_adapter@D@__crt_stdio_output@@@__crt_stdio_output@@IAE_NAAPAD@Z 100470e0 f i libucrtd:output.obj
 0001:00046110       ??$extract_argument_from_va_list@PADPAD@?$standard_base@DV?$string_output_adapter@D@__crt_stdio_output@@@__crt_stdio_output@@IAE_NAAPAD@Z 10047110 f i libucrtd:output.obj
 0001:00046140       ??$extract_argument_from_va_list@PADPAD@?$standard_base@_WV?$stream_output_adapter@_W@__crt_stdio_output@@@__crt_stdio_output@@IAE_NAAPAD@Z 10047140 f i libucrtd:output.obj
 0001:00046170       ??$extract_argument_from_va_list@PADPAD@?$standard_base@_WV?$string_output_adapter@_W@__crt_stdio_output@@@__crt_stdio_output@@IAE_NAAPAD@Z 10047170 f i libucrtd:output.obj
 0001:000461a0       ??$extract_argument_from_va_list@PAUansi_string@?1??type_case_Z@?$output_processor@DV?$stream_output_adapter@D@__crt_stdio_output@@V?$format_validation_base@DV?$stream_output_adapter@D@__crt_stdio_output@@@2@@__crt_stdio_output@@AAE_NXZ@PAU1?1??234@AAE_NXZ@@?$standard_base@DV?$stream_output_adapter@D@__crt_stdio_output@@@__crt_stdio_output@@IAE_NAAPAUansi_string@?1??type_case_Z@?$output_processor@DV?$stream_output_adapter@D@__crt_stdio_output@@V?$format_validation_base@DV?$stream_output_adapter@D@__crt_stdio_output@@@2@@1@AAE_NXZ@@Z 100471a0 f i libucrtd:output.obj
 0001:000461d0       ??$extract_argument_from_va_list@PAUansi_string@?1??type_case_Z@?$output_processor@DV?$stream_output_adapter@D@__crt_stdio_output@@V?$positional_parameter_base@DV?$stream_output_adapter@D@__crt_stdio_output@@@2@@__crt_stdio_output@@AAE_NXZ@PAU1?1??234@AAE_NXZ@@?$positional_parameter_base@DV?$stream_output_adapter@D@__crt_stdio_output@@@__crt_stdio_output@@IAE_NAAPAUansi_string@?1??type_case_Z@?$output_processor@DV?$stream_output_adapter@D@__crt_stdio_output@@V?$positional_parameter_base@DV?$stream_output_adapter@D@__crt_stdio_output@@@2@@1@AAE_NXZ@@Z 100471d0 f i libucrtd:output.obj
 0001:00046330       ??$extract_argument_from_va_list@PAUansi_string@?1??type_case_Z@?$output_processor@DV?$stream_output_adapter@D@__crt_stdio_output@@V?$positional_parameter_base@DV?$stream_output_adapter@D@__crt_stdio_output@@@2@@__crt_stdio_output@@AAE_NXZ@PAU1?1??234@AAE_NXZ@@?$standard_base@DV?$stream_output_adapter@D@__crt_stdio_output@@@__crt_stdio_output@@IAE_NAAPAUansi_string@?1??type_case_Z@?$output_processor@DV?$stream_output_adapter@D@__crt_stdio_output@@V?$positional_parameter_base@DV?$stream_output_adapter@D@__crt_stdio_output@@@2@@1@AAE_NXZ@@Z 10047330 f i libucrtd:output.obj
 0001:00046360       ??$extract_argument_from_va_list@PAUansi_string@?1??type_case_Z@?$output_processor@DV?$stream_output_adapter@D@__crt_stdio_output@@V?$standard_base@DV?$stream_output_adapter@D@__crt_stdio_output@@@2@@__crt_stdio_output@@AAE_NXZ@PAU1?1??234@AAE_NXZ@@?$standard_base@DV?$stream_output_adapter@D@__crt_stdio_output@@@__crt_stdio_output@@IAE_NAAPAUansi_string@?1??type_case_Z@?$output_processor@DV?$stream_output_adapter@D@__crt_stdio_output@@V?$standard_base@DV?$stream_output_adapter@D@__crt_stdio_output@@@2@@1@AAE_NXZ@@Z 10047360 f i libucrtd:output.obj
 0001:00046390       ??$extract_argument_from_va_list@PAUansi_string@?1??type_case_Z@?$output_processor@DV?$string_output_adapter@D@__crt_stdio_output@@V?$format_validation_base@DV?$string_output_adapter@D@__crt_stdio_output@@@2@@__crt_stdio_output@@AAE_NXZ@PAU1?1??234@AAE_NXZ@@?$standard_base@DV?$string_output_adapter@D@__crt_stdio_output@@@__crt_stdio_output@@IAE_NAAPAUansi_string@?1??type_case_Z@?$output_processor@DV?$string_output_adapter@D@__crt_stdio_output@@V?$format_validation_base@DV?$string_output_adapter@D@__crt_stdio_output@@@2@@1@AAE_NXZ@@Z 10047390 f i libucrtd:output.obj
 0001:000463c0       ??$extract_argument_from_va_list@PAUansi_string@?1??type_case_Z@?$output_processor@DV?$string_output_adapter@D@__crt_stdio_output@@V?$positional_parameter_base@DV?$string_output_adapter@D@__crt_stdio_output@@@2@@__crt_stdio_output@@AAE_NXZ@PAU1?1??234@AAE_NXZ@@?$positional_parameter_base@DV?$string_output_adapter@D@__crt_stdio_output@@@__crt_stdio_output@@IAE_NAAPAUansi_string@?1??type_case_Z@?$output_processor@DV?$string_output_adapter@D@__crt_stdio_output@@V?$positional_parameter_base@DV?$string_output_adapter@D@__crt_stdio_output@@@2@@1@AAE_NXZ@@Z 100473c0 f i libucrtd:output.obj
 0001:00046520       ??$extract_argument_from_va_list@PAUansi_string@?1??type_case_Z@?$output_processor@DV?$string_output_adapter@D@__crt_stdio_output@@V?$positional_parameter_base@DV?$string_output_adapter@D@__crt_stdio_output@@@2@@__crt_stdio_output@@AAE_NXZ@PAU1?1??234@AAE_NXZ@@?$standard_base@DV?$string_output_adapter@D@__crt_stdio_output@@@__crt_stdio_output@@IAE_NAAPAUansi_string@?1??type_case_Z@?$output_processor@DV?$string_output_adapter@D@__crt_stdio_output@@V?$positional_parameter_base@DV?$string_output_adapter@D@__crt_stdio_output@@@2@@1@AAE_NXZ@@Z 10047520 f i libucrtd:output.obj
 0001:00046550       ??$extract_argument_from_va_list@PAUansi_string@?1??type_case_Z@?$output_processor@DV?$string_output_adapter@D@__crt_stdio_output@@V?$standard_base@DV?$string_output_adapter@D@__crt_stdio_output@@@2@@__crt_stdio_output@@AAE_NXZ@PAU1?1??234@AAE_NXZ@@?$standard_base@DV?$string_output_adapter@D@__crt_stdio_output@@@__crt_stdio_output@@IAE_NAAPAUansi_string@?1??type_case_Z@?$output_processor@DV?$string_output_adapter@D@__crt_stdio_output@@V?$standard_base@DV?$string_output_adapter@D@__crt_stdio_output@@@2@@1@AAE_NXZ@@Z 10047550 f i libucrtd:output.obj
 0001:00046580       ??$extract_argument_from_va_list@PAUansi_string@?1??type_case_Z@?$output_processor@_WV?$stream_output_adapter@_W@__crt_stdio_output@@V?$format_validation_base@_WV?$stream_output_adapter@_W@__crt_stdio_output@@@2@@__crt_stdio_output@@AAE_NXZ@PAU1?1??234@AAE_NXZ@@?$standard_base@_WV?$stream_output_adapter@_W@__crt_stdio_output@@@__crt_stdio_output@@IAE_NAAPAUansi_string@?1??type_case_Z@?$output_processor@_WV?$stream_output_adapter@_W@__crt_stdio_output@@V?$format_validation_base@_WV?$stream_output_adapter@_W@__crt_stdio_output@@@2@@1@AAE_NXZ@@Z 10047580 f i libucrtd:output.obj
 0001:000465b0       ??$extract_argument_from_va_list@PAUansi_string@?1??type_case_Z@?$output_processor@_WV?$stream_output_adapter@_W@__crt_stdio_output@@V?$positional_parameter_base@_WV?$stream_output_adapter@_W@__crt_stdio_output@@@2@@__crt_stdio_output@@AAE_NXZ@PAU1?1??234@AAE_NXZ@@?$positional_parameter_base@_WV?$stream_output_adapter@_W@__crt_stdio_output@@@__crt_stdio_output@@IAE_NAAPAUansi_string@?1??type_case_Z@?$output_processor@_WV?$stream_output_adapter@_W@__crt_stdio_output@@V?$positional_parameter_base@_WV?$stream_output_adapter@_W@__crt_stdio_output@@@2@@1@AAE_NXZ@@Z 100475b0 f i libucrtd:output.obj
 0001:00046710       ??$extract_argument_from_va_list@PAUansi_string@?1??type_case_Z@?$output_processor@_WV?$stream_output_adapter@_W@__crt_stdio_output@@V?$positional_parameter_base@_WV?$stream_output_adapter@_W@__crt_stdio_output@@@2@@__crt_stdio_output@@AAE_NXZ@PAU1?1??234@AAE_NXZ@@?$standard_base@_WV?$stream_output_adapter@_W@__crt_stdio_output@@@__crt_stdio_output@@IAE_NAAPAUansi_string@?1??type_case_Z@?$output_processor@_WV?$stream_output_adapter@_W@__crt_stdio_output@@V?$positional_parameter_base@_WV?$stream_output_adapter@_W@__crt_stdio_output@@@2@@1@AAE_NXZ@@Z 10047710 f i libucrtd:output.obj
 0001:00046740       ??$extract_argument_from_va_list@PAUansi_string@?1??type_case_Z@?$output_processor@_WV?$stream_output_adapter@_W@__crt_stdio_output@@V?$standard_base@_WV?$stream_output_adapter@_W@__crt_stdio_output@@@2@@__crt_stdio_output@@AAE_NXZ@PAU1?1??234@AAE_NXZ@@?$standard_base@_WV?$stream_output_adapter@_W@__crt_stdio_output@@@__crt_stdio_output@@IAE_NAAPAUansi_string@?1??type_case_Z@?$output_processor@_WV?$stream_output_adapter@_W@__crt_stdio_output@@V?$standard_base@_WV?$stream_output_adapter@_W@__crt_stdio_output@@@2@@1@AAE_NXZ@@Z 10047740 f i libucrtd:output.obj
 0001:00046770       ??$extract_argument_from_va_list@PAUansi_string@?1??type_case_Z@?$output_processor@_WV?$string_output_adapter@_W@__crt_stdio_output@@V?$format_validation_base@_WV?$string_output_adapter@_W@__crt_stdio_output@@@2@@__crt_stdio_output@@AAE_NXZ@PAU1?1??234@AAE_NXZ@@?$standard_base@_WV?$string_output_adapter@_W@__crt_stdio_output@@@__crt_stdio_output@@IAE_NAAPAUansi_string@?1??type_case_Z@?$output_processor@_WV?$string_output_adapter@_W@__crt_stdio_output@@V?$format_validation_base@_WV?$string_output_adapter@_W@__crt_stdio_output@@@2@@1@AAE_NXZ@@Z 10047770 f i libucrtd:output.obj
 0001:000467a0       ??$extract_argument_from_va_list@PAUansi_string@?1??type_case_Z@?$output_processor@_WV?$string_output_adapter@_W@__crt_stdio_output@@V?$positional_parameter_base@_WV?$string_output_adapter@_W@__crt_stdio_output@@@2@@__crt_stdio_output@@AAE_NXZ@PAU1?1??234@AAE_NXZ@@?$positional_parameter_base@_WV?$string_output_adapter@_W@__crt_stdio_output@@@__crt_stdio_output@@IAE_NAAPAUansi_string@?1??type_case_Z@?$output_processor@_WV?$string_output_adapter@_W@__crt_stdio_output@@V?$positional_parameter_base@_WV?$string_output_adapter@_W@__crt_stdio_output@@@2@@1@AAE_NXZ@@Z 100477a0 f i libucrtd:output.obj
 0001:00046900       ??$extract_argument_from_va_list@PAUansi_string@?1??type_case_Z@?$output_processor@_WV?$string_output_adapter@_W@__crt_stdio_output@@V?$positional_parameter_base@_WV?$string_output_adapter@_W@__crt_stdio_output@@@2@@__crt_stdio_output@@AAE_NXZ@PAU1?1??234@AAE_NXZ@@?$standard_base@_WV?$string_output_adapter@_W@__crt_stdio_output@@@__crt_stdio_output@@IAE_NAAPAUansi_string@?1??type_case_Z@?$output_processor@_WV?$string_output_adapter@_W@__crt_stdio_output@@V?$positional_parameter_base@_WV?$string_output_adapter@_W@__crt_stdio_output@@@2@@1@AAE_NXZ@@Z 10047900 f i libucrtd:output.obj
 0001:00046930       ??$extract_argument_from_va_list@PAUansi_string@?1??type_case_Z@?$output_processor@_WV?$string_output_adapter@_W@__crt_stdio_output@@V?$standard_base@_WV?$string_output_adapter@_W@__crt_stdio_output@@@2@@__crt_stdio_output@@AAE_NXZ@PAU1?1??234@AAE_NXZ@@?$standard_base@_WV?$string_output_adapter@_W@__crt_stdio_output@@@__crt_stdio_output@@IAE_NAAPAUansi_string@?1??type_case_Z@?$output_processor@_WV?$string_output_adapter@_W@__crt_stdio_output@@V?$standard_base@_WV?$string_output_adapter@_W@__crt_stdio_output@@@2@@1@AAE_NXZ@@Z 10047930 f i libucrtd:output.obj
 0001:00046960       ??$extract_argument_from_va_list@PAXPAX@?$positional_parameter_base@DV?$stream_output_adapter@D@__crt_stdio_output@@@__crt_stdio_output@@IAE_NAAPAX@Z 10047960 f i libucrtd:output.obj
 0001:00046ac0       ??$extract_argument_from_va_list@PAXPAX@?$positional_parameter_base@DV?$string_output_adapter@D@__crt_stdio_output@@@__crt_stdio_output@@IAE_NAAPAX@Z 10047ac0 f i libucrtd:output.obj
 0001:00046c20       ??$extract_argument_from_va_list@PAXPAX@?$positional_parameter_base@_WV?$stream_output_adapter@_W@__crt_stdio_output@@@__crt_stdio_output@@IAE_NAAPAX@Z 10047c20 f i libucrtd:output.obj
 0001:00046d80       ??$extract_argument_from_va_list@PAXPAX@?$positional_parameter_base@_WV?$string_output_adapter@_W@__crt_stdio_output@@@__crt_stdio_output@@IAE_NAAPAX@Z 10047d80 f i libucrtd:output.obj
 0001:00046ee0       ??$extract_argument_from_va_list@PAXPAX@?$standard_base@DV?$stream_output_adapter@D@__crt_stdio_output@@@__crt_stdio_output@@IAE_NAAPAX@Z 10047ee0 f i libucrtd:output.obj
 0001:00046f10       ??$extract_argument_from_va_list@PAXPAX@?$standard_base@DV?$string_output_adapter@D@__crt_stdio_output@@@__crt_stdio_output@@IAE_NAAPAX@Z 10047f10 f i libucrtd:output.obj
 0001:00046f40       ??$extract_argument_from_va_list@PAXPAX@?$standard_base@_WV?$stream_output_adapter@_W@__crt_stdio_output@@@__crt_stdio_output@@IAE_NAAPAX@Z 10047f40 f i libucrtd:output.obj
 0001:00046f70       ??$extract_argument_from_va_list@PAXPAX@?$standard_base@_WV?$string_output_adapter@_W@__crt_stdio_output@@@__crt_stdio_output@@IAE_NAAPAX@Z 10047f70 f i libucrtd:output.obj
 0001:00046fa0       ??$extract_argument_from_va_list@U_CRT_DOUBLE@@U1@@?$positional_parameter_base@DV?$stream_output_adapter@D@__crt_stdio_output@@@__crt_stdio_output@@IAE_NAAU_CRT_DOUBLE@@@Z 10047fa0 f i libucrtd:output.obj
 0001:00047130       ??$extract_argument_from_va_list@U_CRT_DOUBLE@@U1@@?$positional_parameter_base@DV?$string_output_adapter@D@__crt_stdio_output@@@__crt_stdio_output@@IAE_NAAU_CRT_DOUBLE@@@Z 10048130 f i libucrtd:output.obj
 0001:000472c0       ??$extract_argument_from_va_list@U_CRT_DOUBLE@@U1@@?$positional_parameter_base@_WV?$stream_output_adapter@_W@__crt_stdio_output@@@__crt_stdio_output@@IAE_NAAU_CRT_DOUBLE@@@Z 100482c0 f i libucrtd:output.obj
 0001:00047450       ??$extract_argument_from_va_list@U_CRT_DOUBLE@@U1@@?$positional_parameter_base@_WV?$string_output_adapter@_W@__crt_stdio_output@@@__crt_stdio_output@@IAE_NAAU_CRT_DOUBLE@@@Z 10048450 f i libucrtd:output.obj
 0001:000475e0       ??$extract_argument_from_va_list@U_CRT_DOUBLE@@U1@@?$standard_base@DV?$stream_output_adapter@D@__crt_stdio_output@@@__crt_stdio_output@@IAE_NAAU_CRT_DOUBLE@@@Z 100485e0 f i libucrtd:output.obj
 0001:00047630       ??$extract_argument_from_va_list@U_CRT_DOUBLE@@U1@@?$standard_base@DV?$string_output_adapter@D@__crt_stdio_output@@@__crt_stdio_output@@IAE_NAAU_CRT_DOUBLE@@@Z 10048630 f i libucrtd:output.obj
 0001:00047680       ??$extract_argument_from_va_list@U_CRT_DOUBLE@@U1@@?$standard_base@_WV?$stream_output_adapter@_W@__crt_stdio_output@@@__crt_stdio_output@@IAE_NAAU_CRT_DOUBLE@@@Z 10048680 f i libucrtd:output.obj
 0001:000476d0       ??$extract_argument_from_va_list@U_CRT_DOUBLE@@U1@@?$standard_base@_WV?$string_output_adapter@_W@__crt_stdio_output@@@__crt_stdio_output@@IAE_NAAU_CRT_DOUBLE@@@Z 100486d0 f i libucrtd:output.obj
 0001:00047720       ??$extract_argument_from_va_list@_J_J@?$positional_parameter_base@DV?$stream_output_adapter@D@__crt_stdio_output@@@__crt_stdio_output@@IAE_NAA_J@Z 10048720 f i libucrtd:output.obj
 0001:00047880       ??$extract_argument_from_va_list@_J_J@?$positional_parameter_base@DV?$string_output_adapter@D@__crt_stdio_output@@@__crt_stdio_output@@IAE_NAA_J@Z 10048880 f i libucrtd:output.obj
 0001:000479e0       ??$extract_argument_from_va_list@_J_J@?$positional_parameter_base@_WV?$stream_output_adapter@_W@__crt_stdio_output@@@__crt_stdio_output@@IAE_NAA_J@Z 100489e0 f i libucrtd:output.obj
 0001:00047b40       ??$extract_argument_from_va_list@_J_J@?$positional_parameter_base@_WV?$string_output_adapter@_W@__crt_stdio_output@@@__crt_stdio_output@@IAE_NAA_J@Z 10048b40 f i libucrtd:output.obj
 0001:00047ca0       ??$extract_argument_from_va_list@_J_J@?$standard_base@DV?$stream_output_adapter@D@__crt_stdio_output@@@__crt_stdio_output@@IAE_NAA_J@Z 10048ca0 f i libucrtd:output.obj
 0001:00047cd0       ??$extract_argument_from_va_list@_J_J@?$standard_base@DV?$string_output_adapter@D@__crt_stdio_output@@@__crt_stdio_output@@IAE_NAA_J@Z 10048cd0 f i libucrtd:output.obj
 0001:00047d00       ??$extract_argument_from_va_list@_J_J@?$standard_base@_WV?$stream_output_adapter@_W@__crt_stdio_output@@@__crt_stdio_output@@IAE_NAA_J@Z 10048d00 f i libucrtd:output.obj
 0001:00047d30       ??$extract_argument_from_va_list@_J_J@?$standard_base@_WV?$string_output_adapter@_W@__crt_stdio_output@@@__crt_stdio_output@@IAE_NAA_J@Z 10048d30 f i libucrtd:output.obj
 0001:00047d60       ??$extract_argument_from_va_list@_K_J@?$positional_parameter_base@DV?$stream_output_adapter@D@__crt_stdio_output@@@__crt_stdio_output@@IAE_NAA_J@Z 10048d60 f i libucrtd:output.obj
 0001:00047ec0       ??$extract_argument_from_va_list@_K_J@?$positional_parameter_base@DV?$string_output_adapter@D@__crt_stdio_output@@@__crt_stdio_output@@IAE_NAA_J@Z 10048ec0 f i libucrtd:output.obj
 0001:00048020       ??$extract_argument_from_va_list@_K_J@?$positional_parameter_base@_WV?$stream_output_adapter@_W@__crt_stdio_output@@@__crt_stdio_output@@IAE_NAA_J@Z 10049020 f i libucrtd:output.obj
 0001:00048180       ??$extract_argument_from_va_list@_K_J@?$positional_parameter_base@_WV?$string_output_adapter@_W@__crt_stdio_output@@@__crt_stdio_output@@IAE_NAA_J@Z 10049180 f i libucrtd:output.obj
 0001:000482e0       ??$extract_argument_from_va_list@_K_J@?$standard_base@DV?$stream_output_adapter@D@__crt_stdio_output@@@__crt_stdio_output@@IAE_NAA_J@Z 100492e0 f i libucrtd:output.obj
 0001:00048310       ??$extract_argument_from_va_list@_K_J@?$standard_base@DV?$string_output_adapter@D@__crt_stdio_output@@@__crt_stdio_output@@IAE_NAA_J@Z 10049310 f i libucrtd:output.obj
 0001:00048340       ??$extract_argument_from_va_list@_K_J@?$standard_base@_WV?$stream_output_adapter@_W@__crt_stdio_output@@@__crt_stdio_output@@IAE_NAA_J@Z 10049340 f i libucrtd:output.obj
 0001:00048370       ??$extract_argument_from_va_list@_K_J@?$standard_base@_WV?$string_output_adapter@_W@__crt_stdio_output@@@__crt_stdio_output@@IAE_NAA_J@Z 10049370 f i libucrtd:output.obj
 0001:000483a0       ??$extract_argument_from_va_list@_W_W@?$positional_parameter_base@DV?$stream_output_adapter@D@__crt_stdio_output@@@__crt_stdio_output@@IAE_NAA_W@Z 100493a0 f i libucrtd:output.obj
 0001:00048500       ??$extract_argument_from_va_list@_W_W@?$positional_parameter_base@DV?$string_output_adapter@D@__crt_stdio_output@@@__crt_stdio_output@@IAE_NAA_W@Z 10049500 f i libucrtd:output.obj
 0001:00048660       ??$extract_argument_from_va_list@_W_W@?$positional_parameter_base@_WV?$stream_output_adapter@_W@__crt_stdio_output@@@__crt_stdio_output@@IAE_NAA_W@Z 10049660 f i libucrtd:output.obj
 0001:000487c0       ??$extract_argument_from_va_list@_W_W@?$positional_parameter_base@_WV?$string_output_adapter@_W@__crt_stdio_output@@@__crt_stdio_output@@IAE_NAA_W@Z 100497c0 f i libucrtd:output.obj
 0001:00048920       ??$extract_argument_from_va_list@_W_W@?$standard_base@DV?$stream_output_adapter@D@__crt_stdio_output@@@__crt_stdio_output@@IAE_NAA_W@Z 10049920 f i libucrtd:output.obj
 0001:00048950       ??$extract_argument_from_va_list@_W_W@?$standard_base@DV?$string_output_adapter@D@__crt_stdio_output@@@__crt_stdio_output@@IAE_NAA_W@Z 10049950 f i libucrtd:output.obj
 0001:00048980       ??$extract_argument_from_va_list@_W_W@?$standard_base@_WV?$stream_output_adapter@_W@__crt_stdio_output@@@__crt_stdio_output@@IAE_NAA_W@Z 10049980 f i libucrtd:output.obj
 0001:000489b0       ??$extract_argument_from_va_list@_W_W@?$standard_base@_WV?$string_output_adapter@_W@__crt_stdio_output@@@__crt_stdio_output@@IAE_NAA_W@Z 100499b0 f i libucrtd:output.obj
 0001:000489e0       ??$get_parameter_type@D@?$positional_parameter_base@DV?$stream_output_adapter@D@__crt_stdio_output@@@__crt_stdio_output@@CA?AW4parameter_type@01@PAD@Z 100499e0 f i libucrtd:output.obj
 0001:000489f0       ??$get_parameter_type@D@?$positional_parameter_base@DV?$string_output_adapter@D@__crt_stdio_output@@@__crt_stdio_output@@CA?AW4parameter_type@01@PAD@Z 100499f0 f i libucrtd:output.obj
 0001:00048a00       ??$get_parameter_type@D@?$positional_parameter_base@_WV?$stream_output_adapter@_W@__crt_stdio_output@@@__crt_stdio_output@@CA?AW4parameter_type@01@PAD@Z 10049a00 f i libucrtd:output.obj
 0001:00048a10       ??$get_parameter_type@D@?$positional_parameter_base@_WV?$string_output_adapter@_W@__crt_stdio_output@@@__crt_stdio_output@@CA?AW4parameter_type@01@PAD@Z 10049a10 f i libucrtd:output.obj
 0001:00048a20       ??$get_parameter_type@Uansi_string@?1??type_case_Z@?$output_processor@DV?$stream_output_adapter@D@__crt_stdio_output@@V?$positional_parameter_base@DV?$stream_output_adapter@D@__crt_stdio_output@@@2@@__crt_stdio_output@@AAE_NXZ@@?$positional_parameter_base@DV?$stream_output_adapter@D@__crt_stdio_output@@@__crt_stdio_output@@CA?AW4parameter_type@01@PAUansi_string@?1??type_case_Z@?$output_processor@DV?$stream_output_adapter@D@__crt_stdio_output@@V?$positional_parameter_base@DV?$stream_output_adapter@D@__crt_stdio_output@@@2@@1@AAE_NXZ@@Z 10049a20 f i libucrtd:output.obj
 0001:00048a30       ??$get_parameter_type@Uansi_string@?1??type_case_Z@?$output_processor@DV?$string_output_adapter@D@__crt_stdio_output@@V?$positional_parameter_base@DV?$string_output_adapter@D@__crt_stdio_output@@@2@@__crt_stdio_output@@AAE_NXZ@@?$positional_parameter_base@DV?$string_output_adapter@D@__crt_stdio_output@@@__crt_stdio_output@@CA?AW4parameter_type@01@PAUansi_string@?1??type_case_Z@?$output_processor@DV?$string_output_adapter@D@__crt_stdio_output@@V?$positional_parameter_base@DV?$string_output_adapter@D@__crt_stdio_output@@@2@@1@AAE_NXZ@@Z 10049a30 f i libucrtd:output.obj
 0001:00048a40       ??$get_parameter_type@Uansi_string@?1??type_case_Z@?$output_processor@_WV?$stream_output_adapter@_W@__crt_stdio_output@@V?$positional_parameter_base@_WV?$stream_output_adapter@_W@__crt_stdio_output@@@2@@__crt_stdio_output@@AAE_NXZ@@?$positional_parameter_base@_WV?$stream_output_adapter@_W@__crt_stdio_output@@@__crt_stdio_output@@CA?AW4parameter_type@01@PAUansi_string@?1??type_case_Z@?$output_processor@_WV?$stream_output_adapter@_W@__crt_stdio_output@@V?$positional_parameter_base@_WV?$stream_output_adapter@_W@__crt_stdio_output@@@2@@1@AAE_NXZ@@Z 10049a40 f i libucrtd:output.obj
 0001:00048a50       ??$get_parameter_type@Uansi_string@?1??type_case_Z@?$output_processor@_WV?$string_output_adapter@_W@__crt_stdio_output@@V?$positional_parameter_base@_WV?$string_output_adapter@_W@__crt_stdio_output@@@2@@__crt_stdio_output@@AAE_NXZ@@?$positional_parameter_base@_WV?$string_output_adapter@_W@__crt_stdio_output@@@__crt_stdio_output@@CA?AW4parameter_type@01@PAUansi_string@?1??type_case_Z@?$output_processor@_WV?$string_output_adapter@_W@__crt_stdio_output@@V?$positional_parameter_base@_WV?$string_output_adapter@_W@__crt_stdio_output@@@2@@1@AAE_NXZ@@Z 10049a50 f i libucrtd:output.obj
 0001:00048a60       ??$get_parameter_type@X@?$positional_parameter_base@DV?$stream_output_adapter@D@__crt_stdio_output@@@__crt_stdio_output@@CA?AW4parameter_type@01@PAX@Z 10049a60 f i libucrtd:output.obj
 0001:00048a70       ??$get_parameter_type@X@?$positional_parameter_base@DV?$string_output_adapter@D@__crt_stdio_output@@@__crt_stdio_output@@CA?AW4parameter_type@01@PAX@Z 10049a70 f i libucrtd:output.obj
 0001:00048a80       ??$get_parameter_type@X@?$positional_parameter_base@_WV?$stream_output_adapter@_W@__crt_stdio_output@@@__crt_stdio_output@@CA?AW4parameter_type@01@PAX@Z 10049a80 f i libucrtd:output.obj
 0001:00048a90       ??$get_parameter_type@X@?$positional_parameter_base@_WV?$string_output_adapter@_W@__crt_stdio_output@@@__crt_stdio_output@@CA?AW4parameter_type@01@PAX@Z 10049a90 f i libucrtd:output.obj
 0001:00048aa0       ??$is_character_specifier@D@?$positional_parameter_base@DV?$stream_output_adapter@D@__crt_stdio_output@@@__crt_stdio_output@@CA_ND@Z 10049aa0 f i libucrtd:output.obj
 0001:00048ad0       ??$is_character_specifier@D@?$positional_parameter_base@DV?$string_output_adapter@D@__crt_stdio_output@@@__crt_stdio_output@@CA_ND@Z 10049ad0 f i libucrtd:output.obj
 0001:00048b00       ??$is_character_specifier@_W@?$positional_parameter_base@_WV?$stream_output_adapter@_W@__crt_stdio_output@@@__crt_stdio_output@@CA_N_W@Z 10049b00 f i libucrtd:output.obj
 0001:00048b30       ??$is_character_specifier@_W@?$positional_parameter_base@_WV?$string_output_adapter@_W@__crt_stdio_output@@@__crt_stdio_output@@CA_N_W@Z 10049b30 f i libucrtd:output.obj
 0001:00048b60       ??$is_integral_specifier@D@?$positional_parameter_base@DV?$stream_output_adapter@D@__crt_stdio_output@@@__crt_stdio_output@@CA_ND@Z 10049b60 f i libucrtd:output.obj
 0001:00048bc0       ??$is_integral_specifier@D@?$positional_parameter_base@DV?$string_output_adapter@D@__crt_stdio_output@@@__crt_stdio_output@@CA_ND@Z 10049bc0 f i libucrtd:output.obj
 0001:00048c20       ??$is_integral_specifier@_W@?$positional_parameter_base@_WV?$stream_output_adapter@_W@__crt_stdio_output@@@__crt_stdio_output@@CA_N_W@Z 10049c20 f i libucrtd:output.obj
 0001:00048c80       ??$is_integral_specifier@_W@?$positional_parameter_base@_WV?$string_output_adapter@_W@__crt_stdio_output@@@__crt_stdio_output@@CA_N_W@Z 10049c80 f i libucrtd:output.obj
 0001:00048ce0       ??$is_overflow_condition@K@__crt_strtox@@YA_NIK@Z 10049ce0 f i libucrtd:output.obj
 0001:00048d40       ??$is_pointer_specifier@D@?$positional_parameter_base@DV?$stream_output_adapter@D@__crt_stdio_output@@@__crt_stdio_output@@CA_ND@Z 10049d40 f i libucrtd:output.obj
 0001:00048d70       ??$is_pointer_specifier@D@?$positional_parameter_base@DV?$string_output_adapter@D@__crt_stdio_output@@@__crt_stdio_output@@CA_ND@Z 10049d70 f i libucrtd:output.obj
 0001:00048da0       ??$is_pointer_specifier@_W@?$positional_parameter_base@_WV?$stream_output_adapter@_W@__crt_stdio_output@@@__crt_stdio_output@@CA_N_W@Z 10049da0 f i libucrtd:output.obj
 0001:00048dd0       ??$is_pointer_specifier@_W@?$positional_parameter_base@_WV?$string_output_adapter@_W@__crt_stdio_output@@@__crt_stdio_output@@CA_N_W@Z 10049dd0 f i libucrtd:output.obj
 0001:00048e00       ??$is_string_specifier@D@?$positional_parameter_base@DV?$stream_output_adapter@D@__crt_stdio_output@@@__crt_stdio_output@@CA_ND@Z 10049e00 f i libucrtd:output.obj
 0001:00048e30       ??$is_string_specifier@D@?$positional_parameter_base@DV?$string_output_adapter@D@__crt_stdio_output@@@__crt_stdio_output@@CA_ND@Z 10049e30 f i libucrtd:output.obj
 0001:00048e60       ??$is_string_specifier@_W@?$positional_parameter_base@_WV?$stream_output_adapter@_W@__crt_stdio_output@@@__crt_stdio_output@@CA_N_W@Z 10049e60 f i libucrtd:output.obj
 0001:00048e90       ??$is_string_specifier@_W@?$positional_parameter_base@_WV?$string_output_adapter@_W@__crt_stdio_output@@@__crt_stdio_output@@CA_N_W@Z 10049e90 f i libucrtd:output.obj
 0001:00048ec0       ??$is_wide_character_specifier@D@__crt_stdio_output@@YA_N_KDW4length_modifier@0@@Z 10049ec0 f i libucrtd:output.obj
 0001:00048f40       ??$is_wide_character_specifier@_W@__crt_stdio_output@@YA_N_K_WW4length_modifier@0@@Z 10049f40 f i libucrtd:output.obj
 0001:00049000       ??$make_c_string_character_source@DPAPAD@__crt_strtox@@YA?AV?$c_string_character_source@D@0@QBDQAPAD@Z 1004a000 f i libucrtd:output.obj
 0001:00049020       ??$make_c_string_character_source@_WPAPA_W@__crt_strtox@@YA?AV?$c_string_character_source@_W@0@QB_WQAPA_W@Z 1004a020 f i libucrtd:output.obj
 0001:00049040       ??$parse_integer@KV?$c_string_character_source@D@__crt_strtox@@$0A@@__crt_strtox@@YAKAAV__crt_cached_ptd_host@@V?$c_string_character_source@D@0@H_N@Z 1004a040 f i libucrtd:output.obj
 0001:00049370       ??$parse_integer@KV?$c_string_character_source@_W@__crt_strtox@@$0A@@__crt_strtox@@YAKAAV__crt_cached_ptd_host@@V?$c_string_character_source@_W@0@H_N@Z 1004a370 f i libucrtd:output.obj
 0001:000496b0       ??$peek_va_arg@C@__crt_stdio_output@@YACPAD@Z 1004a6b0 f i libucrtd:output.obj
 0001:000496d0       ??$peek_va_arg@E@__crt_stdio_output@@YAEPAD@Z 1004a6d0 f i libucrtd:output.obj
 0001:000496f0       ??$peek_va_arg@F@__crt_stdio_output@@YAFPAD@Z 1004a6f0 f i libucrtd:output.obj
 0001:00049710       ??$peek_va_arg@G@__crt_stdio_output@@YAGPAD@Z 1004a710 f i libucrtd:output.obj
 0001:00049730       ??$peek_va_arg@H@__crt_stdio_output@@YAHPAD@Z 1004a730 f i libucrtd:output.obj
 0001:00049750       ??$peek_va_arg@I@__crt_stdio_output@@YAIPAD@Z 1004a750 f i libucrtd:output.obj
 0001:00049770       ??$peek_va_arg@PAD@__crt_stdio_output@@YAPADPAD@Z 1004a770 f i libucrtd:output.obj
 0001:00049790       ??$peek_va_arg@PAUansi_string@?1??type_case_Z@?$output_processor@DV?$stream_output_adapter@D@__crt_stdio_output@@V?$positional_parameter_base@DV?$stream_output_adapter@D@__crt_stdio_output@@@2@@__crt_stdio_output@@AAE_NXZ@@__crt_stdio_output@@YAPAUansi_string@?1??type_case_Z@?$output_processor@DV?$stream_output_adapter@D@__crt_stdio_output@@V?$positional_parameter_base@DV?$stream_output_adapter@D@__crt_stdio_output@@@2@@0@AAE_NXZ@PAD@Z 1004a790 f i libucrtd:output.obj
 0001:000497b0       ??$peek_va_arg@PAUansi_string@?1??type_case_Z@?$output_processor@DV?$string_output_adapter@D@__crt_stdio_output@@V?$positional_parameter_base@DV?$string_output_adapter@D@__crt_stdio_output@@@2@@__crt_stdio_output@@AAE_NXZ@@__crt_stdio_output@@YAPAUansi_string@?1??type_case_Z@?$output_processor@DV?$string_output_adapter@D@__crt_stdio_output@@V?$positional_parameter_base@DV?$string_output_adapter@D@__crt_stdio_output@@@2@@0@AAE_NXZ@PAD@Z 1004a7b0 f i libucrtd:output.obj
 0001:000497d0       ??$peek_va_arg@PAUansi_string@?1??type_case_Z@?$output_processor@_WV?$stream_output_adapter@_W@__crt_stdio_output@@V?$positional_parameter_base@_WV?$stream_output_adapter@_W@__crt_stdio_output@@@2@@__crt_stdio_output@@AAE_NXZ@@__crt_stdio_output@@YAPAUansi_string@?1??type_case_Z@?$output_processor@_WV?$stream_output_adapter@_W@__crt_stdio_output@@V?$positional_parameter_base@_WV?$stream_output_adapter@_W@__crt_stdio_output@@@2@@0@AAE_NXZ@PAD@Z 1004a7d0 f i libucrtd:output.obj
 0001:000497f0       ??$peek_va_arg@PAUansi_string@?1??type_case_Z@?$output_processor@_WV?$string_output_adapter@_W@__crt_stdio_output@@V?$positional_parameter_base@_WV?$string_output_adapter@_W@__crt_stdio_output@@@2@@__crt_stdio_output@@AAE_NXZ@@__crt_stdio_output@@YAPAUansi_string@?1??type_case_Z@?$output_processor@_WV?$string_output_adapter@_W@__crt_stdio_output@@V?$positional_parameter_base@_WV?$string_output_adapter@_W@__crt_stdio_output@@@2@@0@AAE_NXZ@PAD@Z 1004a7f0 f i libucrtd:output.obj
 0001:00049810       ??$peek_va_arg@PAX@__crt_stdio_output@@YAPAXPAD@Z 1004a810 f i libucrtd:output.obj
 0001:00049830       ??$peek_va_arg@U_CRT_DOUBLE@@@__crt_stdio_output@@YA?AU_CRT_DOUBLE@@PAD@Z 1004a830 f i libucrtd:output.obj
 0001:00049850       ??$peek_va_arg@_J@__crt_stdio_output@@YA_JPAD@Z 1004a850 f i libucrtd:output.obj
 0001:00049870       ??$peek_va_arg@_K@__crt_stdio_output@@YA_KPAD@Z 1004a870 f i libucrtd:output.obj
 0001:00049890       ??$peek_va_arg@_W@__crt_stdio_output@@YA_WPAD@Z 1004a890 f i libucrtd:output.obj
 0001:000498b0       ??$puttc_nolock_internal@ABDPAU_iobuf@@AAV__crt_cached_ptd_host@@@?$__crt_char_traits@D@@SAHABD$$QAPAU_iobuf@@AAV__crt_cached_ptd_host@@@Z 1004a8b0 f i libucrtd:output.obj
 0001:000498d0       ??$puttc_nolock_internal@AB_WPAU_iobuf@@AAV__crt_cached_ptd_host@@@?$__crt_char_traits@_W@@SAGAB_W$$QAPAU_iobuf@@AAV__crt_cached_ptd_host@@@Z 1004a8d0 f i libucrtd:output.obj
 0001:000498f0       ??$read_va_arg@C@__crt_stdio_output@@YACAAPAD@Z 1004a8f0 f i libucrtd:output.obj
 0001:00049910       ??$read_va_arg@E@__crt_stdio_output@@YAEAAPAD@Z 1004a910 f i libucrtd:output.obj
 0001:00049930       ??$read_va_arg@F@__crt_stdio_output@@YAFAAPAD@Z 1004a930 f i libucrtd:output.obj
 0001:00049950       ??$read_va_arg@G@__crt_stdio_output@@YAGAAPAD@Z 1004a950 f i libucrtd:output.obj
 0001:00049970       ??$read_va_arg@H@__crt_stdio_output@@YAHAAPAD@Z 1004a970 f i libucrtd:output.obj
 0001:00049990       ??$read_va_arg@I@__crt_stdio_output@@YAIAAPAD@Z 1004a990 f i libucrtd:output.obj
 0001:000499b0       ??$read_va_arg@PAD@__crt_stdio_output@@YAPADAAPAD@Z 1004a9b0 f i libucrtd:output.obj
 0001:000499d0       ??$read_va_arg@PAUansi_string@?1??type_case_Z@?$output_processor@DV?$stream_output_adapter@D@__crt_stdio_output@@V?$format_validation_base@DV?$stream_output_adapter@D@__crt_stdio_output@@@2@@__crt_stdio_output@@AAE_NXZ@@__crt_stdio_output@@YAPAUansi_string@?1??type_case_Z@?$output_processor@DV?$stream_output_adapter@D@__crt_stdio_output@@V?$format_validation_base@DV?$stream_output_adapter@D@__crt_stdio_output@@@2@@0@AAE_NXZ@AAPAD@Z 1004a9d0 f i libucrtd:output.obj
 0001:000499f0       ??$read_va_arg@PAUansi_string@?1??type_case_Z@?$output_processor@DV?$stream_output_adapter@D@__crt_stdio_output@@V?$positional_parameter_base@DV?$stream_output_adapter@D@__crt_stdio_output@@@2@@__crt_stdio_output@@AAE_NXZ@@__crt_stdio_output@@YAPAUansi_string@?1??type_case_Z@?$output_processor@DV?$stream_output_adapter@D@__crt_stdio_output@@V?$positional_parameter_base@DV?$stream_output_adapter@D@__crt_stdio_output@@@2@@0@AAE_NXZ@AAPAD@Z 1004a9f0 f i libucrtd:output.obj
 0001:00049a10       ??$read_va_arg@PAUansi_string@?1??type_case_Z@?$output_processor@DV?$stream_output_adapter@D@__crt_stdio_output@@V?$standard_base@DV?$stream_output_adapter@D@__crt_stdio_output@@@2@@__crt_stdio_output@@AAE_NXZ@@__crt_stdio_output@@YAPAUansi_string@?1??type_case_Z@?$output_processor@DV?$stream_output_adapter@D@__crt_stdio_output@@V?$standard_base@DV?$stream_output_adapter@D@__crt_stdio_output@@@2@@0@AAE_NXZ@AAPAD@Z 1004aa10 f i libucrtd:output.obj
 0001:00049a30       ??$read_va_arg@PAUansi_string@?1??type_case_Z@?$output_processor@DV?$string_output_adapter@D@__crt_stdio_output@@V?$format_validation_base@DV?$string_output_adapter@D@__crt_stdio_output@@@2@@__crt_stdio_output@@AAE_NXZ@@__crt_stdio_output@@YAPAUansi_string@?1??type_case_Z@?$output_processor@DV?$string_output_adapter@D@__crt_stdio_output@@V?$format_validation_base@DV?$string_output_adapter@D@__crt_stdio_output@@@2@@0@AAE_NXZ@AAPAD@Z 1004aa30 f i libucrtd:output.obj
 0001:00049a50       ??$read_va_arg@PAUansi_string@?1??type_case_Z@?$output_processor@DV?$string_output_adapter@D@__crt_stdio_output@@V?$positional_parameter_base@DV?$string_output_adapter@D@__crt_stdio_output@@@2@@__crt_stdio_output@@AAE_NXZ@@__crt_stdio_output@@YAPAUansi_string@?1??type_case_Z@?$output_processor@DV?$string_output_adapter@D@__crt_stdio_output@@V?$positional_parameter_base@DV?$string_output_adapter@D@__crt_stdio_output@@@2@@0@AAE_NXZ@AAPAD@Z 1004aa50 f i libucrtd:output.obj
 0001:00049a70       ??$read_va_arg@PAUansi_string@?1??type_case_Z@?$output_processor@DV?$string_output_adapter@D@__crt_stdio_output@@V?$standard_base@DV?$string_output_adapter@D@__crt_stdio_output@@@2@@__crt_stdio_output@@AAE_NXZ@@__crt_stdio_output@@YAPAUansi_string@?1??type_case_Z@?$output_processor@DV?$string_output_adapter@D@__crt_stdio_output@@V?$standard_base@DV?$string_output_adapter@D@__crt_stdio_output@@@2@@0@AAE_NXZ@AAPAD@Z 1004aa70 f i libucrtd:output.obj
 0001:00049a90       ??$read_va_arg@PAUansi_string@?1??type_case_Z@?$output_processor@_WV?$stream_output_adapter@_W@__crt_stdio_output@@V?$format_validation_base@_WV?$stream_output_adapter@_W@__crt_stdio_output@@@2@@__crt_stdio_output@@AAE_NXZ@@__crt_stdio_output@@YAPAUansi_string@?1??type_case_Z@?$output_processor@_WV?$stream_output_adapter@_W@__crt_stdio_output@@V?$format_validation_base@_WV?$stream_output_adapter@_W@__crt_stdio_output@@@2@@0@AAE_NXZ@AAPAD@Z 1004aa90 f i libucrtd:output.obj
 0001:00049ab0       ??$read_va_arg@PAUansi_string@?1??type_case_Z@?$output_processor@_WV?$stream_output_adapter@_W@__crt_stdio_output@@V?$positional_parameter_base@_WV?$stream_output_adapter@_W@__crt_stdio_output@@@2@@__crt_stdio_output@@AAE_NXZ@@__crt_stdio_output@@YAPAUansi_string@?1??type_case_Z@?$output_processor@_WV?$stream_output_adapter@_W@__crt_stdio_output@@V?$positional_parameter_base@_WV?$stream_output_adapter@_W@__crt_stdio_output@@@2@@0@AAE_NXZ@AAPAD@Z 1004aab0 f i libucrtd:output.obj
 0001:00049ad0       ??$read_va_arg@PAUansi_string@?1??type_case_Z@?$output_processor@_WV?$stream_output_adapter@_W@__crt_stdio_output@@V?$standard_base@_WV?$stream_output_adapter@_W@__crt_stdio_output@@@2@@__crt_stdio_output@@AAE_NXZ@@__crt_stdio_output@@YAPAUansi_string@?1??type_case_Z@?$output_processor@_WV?$stream_output_adapter@_W@__crt_stdio_output@@V?$standard_base@_WV?$stream_output_adapter@_W@__crt_stdio_output@@@2@@0@AAE_NXZ@AAPAD@Z 1004aad0 f i libucrtd:output.obj
 0001:00049af0       ??$read_va_arg@PAUansi_string@?1??type_case_Z@?$output_processor@_WV?$string_output_adapter@_W@__crt_stdio_output@@V?$format_validation_base@_WV?$string_output_adapter@_W@__crt_stdio_output@@@2@@__crt_stdio_output@@AAE_NXZ@@__crt_stdio_output@@YAPAUansi_string@?1??type_case_Z@?$output_processor@_WV?$string_output_adapter@_W@__crt_stdio_output@@V?$format_validation_base@_WV?$string_output_adapter@_W@__crt_stdio_output@@@2@@0@AAE_NXZ@AAPAD@Z 1004aaf0 f i libucrtd:output.obj
 0001:00049b10       ??$read_va_arg@PAUansi_string@?1??type_case_Z@?$output_processor@_WV?$string_output_adapter@_W@__crt_stdio_output@@V?$positional_parameter_base@_WV?$string_output_adapter@_W@__crt_stdio_output@@@2@@__crt_stdio_output@@AAE_NXZ@@__crt_stdio_output@@YAPAUansi_string@?1??type_case_Z@?$output_processor@_WV?$string_output_adapter@_W@__crt_stdio_output@@V?$positional_parameter_base@_WV?$string_output_adapter@_W@__crt_stdio_output@@@2@@0@AAE_NXZ@AAPAD@Z 1004ab10 f i libucrtd:output.obj
 0001:00049b30       ??$read_va_arg@PAUansi_string@?1??type_case_Z@?$output_processor@_WV?$string_output_adapter@_W@__crt_stdio_output@@V?$standard_base@_WV?$string_output_adapter@_W@__crt_stdio_output@@@2@@__crt_stdio_output@@AAE_NXZ@@__crt_stdio_output@@YAPAUansi_string@?1??type_case_Z@?$output_processor@_WV?$string_output_adapter@_W@__crt_stdio_output@@V?$standard_base@_WV?$string_output_adapter@_W@__crt_stdio_output@@@2@@0@AAE_NXZ@AAPAD@Z 1004ab30 f i libucrtd:output.obj
 0001:00049b50       ??$read_va_arg@PAX@__crt_stdio_output@@YAPAXAAPAD@Z 1004ab50 f i libucrtd:output.obj
 0001:00049b70       ??$read_va_arg@U_CRT_DOUBLE@@@__crt_stdio_output@@YA?AU_CRT_DOUBLE@@AAPAD@Z 1004ab70 f i libucrtd:output.obj
 0001:00049b90       ??$read_va_arg@_J@__crt_stdio_output@@YA_JAAPAD@Z 1004ab90 f i libucrtd:output.obj
 0001:00049bb0       ??$read_va_arg@_K@__crt_stdio_output@@YA_KAAPAD@Z 1004abb0 f i libucrtd:output.obj
 0001:00049bd0       ??$read_va_arg@_W@__crt_stdio_output@@YA_WAAPAD@Z 1004abd0 f i libucrtd:output.obj
 0001:00049bf0       ??$scratch_count@D@formatting_buffer@__crt_stdio_output@@QBEIXZ 1004abf0 f i libucrtd:output.obj
 0001:00049c10       ??$scratch_data@D@formatting_buffer@__crt_stdio_output@@QAEPADXZ 1004ac10 f i libucrtd:output.obj
 0001:00049c60       ??$type_case_integer@$07@?$output_processor@DV?$stream_output_adapter@D@__crt_stdio_output@@V?$format_validation_base@DV?$stream_output_adapter@D@__crt_stdio_output@@@2@@__crt_stdio_output@@AAE_N_N@Z 1004ac60 f i libucrtd:output.obj
 0001:00049fc0       ??$type_case_integer@$07@?$output_processor@DV?$stream_output_adapter@D@__crt_stdio_output@@V?$positional_parameter_base@DV?$stream_output_adapter@D@__crt_stdio_output@@@2@@__crt_stdio_output@@AAE_N_N@Z 1004afc0 f i libucrtd:output.obj
 0001:0004a320       ??$type_case_integer@$07@?$output_processor@DV?$stream_output_adapter@D@__crt_stdio_output@@V?$standard_base@DV?$stream_output_adapter@D@__crt_stdio_output@@@2@@__crt_stdio_output@@AAE_N_N@Z 1004b320 f i libucrtd:output.obj
 0001:0004a680       ??$type_case_integer@$07@?$output_processor@DV?$string_output_adapter@D@__crt_stdio_output@@V?$format_validation_base@DV?$string_output_adapter@D@__crt_stdio_output@@@2@@__crt_stdio_output@@AAE_N_N@Z 1004b680 f i libucrtd:output.obj
 0001:0004a9e0       ??$type_case_integer@$07@?$output_processor@DV?$string_output_adapter@D@__crt_stdio_output@@V?$positional_parameter_base@DV?$string_output_adapter@D@__crt_stdio_output@@@2@@__crt_stdio_output@@AAE_N_N@Z 1004b9e0 f i libucrtd:output.obj
 0001:0004ad40       ??$type_case_integer@$07@?$output_processor@DV?$string_output_adapter@D@__crt_stdio_output@@V?$standard_base@DV?$string_output_adapter@D@__crt_stdio_output@@@2@@__crt_stdio_output@@AAE_N_N@Z 1004bd40 f i libucrtd:output.obj
 0001:0004b0a0       ??$type_case_integer@$07@?$output_processor@_WV?$stream_output_adapter@_W@__crt_stdio_output@@V?$format_validation_base@_WV?$stream_output_adapter@_W@__crt_stdio_output@@@2@@__crt_stdio_output@@AAE_N_N@Z 1004c0a0 f i libucrtd:output.obj
 0001:0004b400       ??$type_case_integer@$07@?$output_processor@_WV?$stream_output_adapter@_W@__crt_stdio_output@@V?$positional_parameter_base@_WV?$stream_output_adapter@_W@__crt_stdio_output@@@2@@__crt_stdio_output@@AAE_N_N@Z 1004c400 f i libucrtd:output.obj
 0001:0004b760       ??$type_case_integer@$07@?$output_processor@_WV?$stream_output_adapter@_W@__crt_stdio_output@@V?$standard_base@_WV?$stream_output_adapter@_W@__crt_stdio_output@@@2@@__crt_stdio_output@@AAE_N_N@Z 1004c760 f i libucrtd:output.obj
 0001:0004bac0       ??$type_case_integer@$07@?$output_processor@_WV?$string_output_adapter@_W@__crt_stdio_output@@V?$format_validation_base@_WV?$string_output_adapter@_W@__crt_stdio_output@@@2@@__crt_stdio_output@@AAE_N_N@Z 1004cac0 f i libucrtd:output.obj
 0001:0004be20       ??$type_case_integer@$07@?$output_processor@_WV?$string_output_adapter@_W@__crt_stdio_output@@V?$positional_parameter_base@_WV?$string_output_adapter@_W@__crt_stdio_output@@@2@@__crt_stdio_output@@AAE_N_N@Z 1004ce20 f i libucrtd:output.obj
 0001:0004c180       ??$type_case_integer@$07@?$output_processor@_WV?$string_output_adapter@_W@__crt_stdio_output@@V?$standard_base@_WV?$string_output_adapter@_W@__crt_stdio_output@@@2@@__crt_stdio_output@@AAE_N_N@Z 1004d180 f i libucrtd:output.obj
 0001:0004c4e0       ??$type_case_integer@$09@?$output_processor@DV?$stream_output_adapter@D@__crt_stdio_output@@V?$format_validation_base@DV?$stream_output_adapter@D@__crt_stdio_output@@@2@@__crt_stdio_output@@AAE_N_N@Z 1004d4e0 f i libucrtd:output.obj
 0001:0004c840       ??$type_case_integer@$09@?$output_processor@DV?$stream_output_adapter@D@__crt_stdio_output@@V?$positional_parameter_base@DV?$stream_output_adapter@D@__crt_stdio_output@@@2@@__crt_stdio_output@@AAE_N_N@Z 1004d840 f i libucrtd:output.obj
 0001:0004cba0       ??$type_case_integer@$09@?$output_processor@DV?$stream_output_adapter@D@__crt_stdio_output@@V?$standard_base@DV?$stream_output_adapter@D@__crt_stdio_output@@@2@@__crt_stdio_output@@AAE_N_N@Z 1004dba0 f i libucrtd:output.obj
 0001:0004cf00       ??$type_case_integer@$09@?$output_processor@DV?$string_output_adapter@D@__crt_stdio_output@@V?$format_validation_base@DV?$string_output_adapter@D@__crt_stdio_output@@@2@@__crt_stdio_output@@AAE_N_N@Z 1004df00 f i libucrtd:output.obj
 0001:0004d260       ??$type_case_integer@$09@?$output_processor@DV?$string_output_adapter@D@__crt_stdio_output@@V?$positional_parameter_base@DV?$string_output_adapter@D@__crt_stdio_output@@@2@@__crt_stdio_output@@AAE_N_N@Z 1004e260 f i libucrtd:output.obj
 0001:0004d5c0       ??$type_case_integer@$09@?$output_processor@DV?$string_output_adapter@D@__crt_stdio_output@@V?$standard_base@DV?$string_output_adapter@D@__crt_stdio_output@@@2@@__crt_stdio_output@@AAE_N_N@Z 1004e5c0 f i libucrtd:output.obj
 0001:0004d920       ??$type_case_integer@$09@?$output_processor@_WV?$stream_output_adapter@_W@__crt_stdio_output@@V?$format_validation_base@_WV?$stream_output_adapter@_W@__crt_stdio_output@@@2@@__crt_stdio_output@@AAE_N_N@Z 1004e920 f i libucrtd:output.obj
 0001:0004dc80       ??$type_case_integer@$09@?$output_processor@_WV?$stream_output_adapter@_W@__crt_stdio_output@@V?$positional_parameter_base@_WV?$stream_output_adapter@_W@__crt_stdio_output@@@2@@__crt_stdio_output@@AAE_N_N@Z 1004ec80 f i libucrtd:output.obj
 0001:0004dfe0       ??$type_case_integer@$09@?$output_processor@_WV?$stream_output_adapter@_W@__crt_stdio_output@@V?$standard_base@_WV?$stream_output_adapter@_W@__crt_stdio_output@@@2@@__crt_stdio_output@@AAE_N_N@Z 1004efe0 f i libucrtd:output.obj
 0001:0004e340       ??$type_case_integer@$09@?$output_processor@_WV?$string_output_adapter@_W@__crt_stdio_output@@V?$format_validation_base@_WV?$string_output_adapter@_W@__crt_stdio_output@@@2@@__crt_stdio_output@@AAE_N_N@Z 1004f340 f i libucrtd:output.obj
 0001:0004e6a0       ??$type_case_integer@$09@?$output_processor@_WV?$string_output_adapter@_W@__crt_stdio_output@@V?$positional_parameter_base@_WV?$string_output_adapter@_W@__crt_stdio_output@@@2@@__crt_stdio_output@@AAE_N_N@Z 1004f6a0 f i libucrtd:output.obj
 0001:0004ea00       ??$type_case_integer@$09@?$output_processor@_WV?$string_output_adapter@_W@__crt_stdio_output@@V?$standard_base@_WV?$string_output_adapter@_W@__crt_stdio_output@@@2@@__crt_stdio_output@@AAE_N_N@Z 1004fa00 f i libucrtd:output.obj
 0001:0004ed60       ??$type_case_integer@$0BA@@?$output_processor@DV?$stream_output_adapter@D@__crt_stdio_output@@V?$format_validation_base@DV?$stream_output_adapter@D@__crt_stdio_output@@@2@@__crt_stdio_output@@AAE_N_N@Z 1004fd60 f i libucrtd:output.obj
 0001:0004f0c0       ??$type_case_integer@$0BA@@?$output_processor@DV?$stream_output_adapter@D@__crt_stdio_output@@V?$positional_parameter_base@DV?$stream_output_adapter@D@__crt_stdio_output@@@2@@__crt_stdio_output@@AAE_N_N@Z 100500c0 f i libucrtd:output.obj
 0001:0004f420       ??$type_case_integer@$0BA@@?$output_processor@DV?$stream_output_adapter@D@__crt_stdio_output@@V?$standard_base@DV?$stream_output_adapter@D@__crt_stdio_output@@@2@@__crt_stdio_output@@AAE_N_N@Z 10050420 f i libucrtd:output.obj
 0001:0004f780       ??$type_case_integer@$0BA@@?$output_processor@DV?$string_output_adapter@D@__crt_stdio_output@@V?$format_validation_base@DV?$string_output_adapter@D@__crt_stdio_output@@@2@@__crt_stdio_output@@AAE_N_N@Z 10050780 f i libucrtd:output.obj
 0001:0004fae0       ??$type_case_integer@$0BA@@?$output_processor@DV?$string_output_adapter@D@__crt_stdio_output@@V?$positional_parameter_base@DV?$string_output_adapter@D@__crt_stdio_output@@@2@@__crt_stdio_output@@AAE_N_N@Z 10050ae0 f i libucrtd:output.obj
 0001:0004fe40       ??$type_case_integer@$0BA@@?$output_processor@DV?$string_output_adapter@D@__crt_stdio_output@@V?$standard_base@DV?$string_output_adapter@D@__crt_stdio_output@@@2@@__crt_stdio_output@@AAE_N_N@Z 10050e40 f i libucrtd:output.obj
 0001:000501a0       ??$type_case_integer@$0BA@@?$output_processor@_WV?$stream_output_adapter@_W@__crt_stdio_output@@V?$format_validation_base@_WV?$stream_output_adapter@_W@__crt_stdio_output@@@2@@__crt_stdio_output@@AAE_N_N@Z 100511a0 f i libucrtd:output.obj
 0001:00050500       ??$type_case_integer@$0BA@@?$output_processor@_WV?$stream_output_adapter@_W@__crt_stdio_output@@V?$positional_parameter_base@_WV?$stream_output_adapter@_W@__crt_stdio_output@@@2@@__crt_stdio_output@@AAE_N_N@Z 10051500 f i libucrtd:output.obj
 0001:00050860       ??$type_case_integer@$0BA@@?$output_processor@_WV?$stream_output_adapter@_W@__crt_stdio_output@@V?$standard_base@_WV?$stream_output_adapter@_W@__crt_stdio_output@@@2@@__crt_stdio_output@@AAE_N_N@Z 10051860 f i libucrtd:output.obj
 0001:00050bc0       ??$type_case_integer@$0BA@@?$output_processor@_WV?$string_output_adapter@_W@__crt_stdio_output@@V?$format_validation_base@_WV?$string_output_adapter@_W@__crt_stdio_output@@@2@@__crt_stdio_output@@AAE_N_N@Z 10051bc0 f i libucrtd:output.obj
 0001:00050f20       ??$type_case_integer@$0BA@@?$output_processor@_WV?$string_output_adapter@_W@__crt_stdio_output@@V?$positional_parameter_base@_WV?$string_output_adapter@_W@__crt_stdio_output@@@2@@__crt_stdio_output@@AAE_N_N@Z 10051f20 f i libucrtd:output.obj
 0001:00051280       ??$type_case_integer@$0BA@@?$output_processor@_WV?$string_output_adapter@_W@__crt_stdio_output@@V?$standard_base@_WV?$string_output_adapter@_W@__crt_stdio_output@@@2@@__crt_stdio_output@@AAE_N_N@Z 10052280 f i libucrtd:output.obj
 0001:000515e0       ??$type_case_integer_parse_into_buffer@I$07@?$output_processor@DV?$stream_output_adapter@D@__crt_stdio_output@@V?$format_validation_base@DV?$stream_output_adapter@D@__crt_stdio_output@@@2@@__crt_stdio_output@@AAEXI_N@Z 100525e0 f i libucrtd:output.obj
 0001:000516b0       ??$type_case_integer_parse_into_buffer@I$07@?$output_processor@DV?$stream_output_adapter@D@__crt_stdio_output@@V?$positional_parameter_base@DV?$stream_output_adapter@D@__crt_stdio_output@@@2@@__crt_stdio_output@@AAEXI_N@Z 100526b0 f i libucrtd:output.obj
 0001:00051780       ??$type_case_integer_parse_into_buffer@I$07@?$output_processor@DV?$stream_output_adapter@D@__crt_stdio_output@@V?$standard_base@DV?$stream_output_adapter@D@__crt_stdio_output@@@2@@__crt_stdio_output@@AAEXI_N@Z 10052780 f i libucrtd:output.obj
 0001:00051850       ??$type_case_integer_parse_into_buffer@I$07@?$output_processor@DV?$string_output_adapter@D@__crt_stdio_output@@V?$format_validation_base@DV?$string_output_adapter@D@__crt_stdio_output@@@2@@__crt_stdio_output@@AAEXI_N@Z 10052850 f i libucrtd:output.obj
 0001:00051920       ??$type_case_integer_parse_into_buffer@I$07@?$output_processor@DV?$string_output_adapter@D@__crt_stdio_output@@V?$positional_parameter_base@DV?$string_output_adapter@D@__crt_stdio_output@@@2@@__crt_stdio_output@@AAEXI_N@Z 10052920 f i libucrtd:output.obj
 0001:000519f0       ??$type_case_integer_parse_into_buffer@I$07@?$output_processor@DV?$string_output_adapter@D@__crt_stdio_output@@V?$standard_base@DV?$string_output_adapter@D@__crt_stdio_output@@@2@@__crt_stdio_output@@AAEXI_N@Z 100529f0 f i libucrtd:output.obj
 0001:00051ac0       ??$type_case_integer_parse_into_buffer@I$07@?$output_processor@_WV?$stream_output_adapter@_W@__crt_stdio_output@@V?$format_validation_base@_WV?$stream_output_adapter@_W@__crt_stdio_output@@@2@@__crt_stdio_output@@AAEXI_N@Z 10052ac0 f i libucrtd:output.obj
 0001:00051ba0       ??$type_case_integer_parse_into_buffer@I$07@?$output_processor@_WV?$stream_output_adapter@_W@__crt_stdio_output@@V?$positional_parameter_base@_WV?$stream_output_adapter@_W@__crt_stdio_output@@@2@@__crt_stdio_output@@AAEXI_N@Z 10052ba0 f i libucrtd:output.obj
 0001:00051c80       ??$type_case_integer_parse_into_buffer@I$07@?$output_processor@_WV?$stream_output_adapter@_W@__crt_stdio_output@@V?$standard_base@_WV?$stream_output_adapter@_W@__crt_stdio_output@@@2@@__crt_stdio_output@@AAEXI_N@Z 10052c80 f i libucrtd:output.obj
 0001:00051d60       ??$type_case_integer_parse_into_buffer@I$07@?$output_processor@_WV?$string_output_adapter@_W@__crt_stdio_output@@V?$format_validation_base@_WV?$string_output_adapter@_W@__crt_stdio_output@@@2@@__crt_stdio_output@@AAEXI_N@Z 10052d60 f i libucrtd:output.obj
 0001:00051e40       ??$type_case_integer_parse_into_buffer@I$07@?$output_processor@_WV?$string_output_adapter@_W@__crt_stdio_output@@V?$positional_parameter_base@_WV?$string_output_adapter@_W@__crt_stdio_output@@@2@@__crt_stdio_output@@AAEXI_N@Z 10052e40 f i libucrtd:output.obj
 0001:00051f20       ??$type_case_integer_parse_into_buffer@I$07@?$output_processor@_WV?$string_output_adapter@_W@__crt_stdio_output@@V?$standard_base@_WV?$string_output_adapter@_W@__crt_stdio_output@@@2@@__crt_stdio_output@@AAEXI_N@Z 10052f20 f i libucrtd:output.obj
 0001:00052000       ??$type_case_integer_parse_into_buffer@I$09@?$output_processor@DV?$stream_output_adapter@D@__crt_stdio_output@@V?$format_validation_base@DV?$stream_output_adapter@D@__crt_stdio_output@@@2@@__crt_stdio_output@@AAEXI_N@Z 10053000 f i libucrtd:output.obj
 0001:000520e0       ??$type_case_integer_parse_into_buffer@I$09@?$output_processor@DV?$stream_output_adapter@D@__crt_stdio_output@@V?$positional_parameter_base@DV?$stream_output_adapter@D@__crt_stdio_output@@@2@@__crt_stdio_output@@AAEXI_N@Z 100530e0 f i libucrtd:output.obj
 0001:000521c0       ??$type_case_integer_parse_into_buffer@I$09@?$output_processor@DV?$stream_output_adapter@D@__crt_stdio_output@@V?$standard_base@DV?$stream_output_adapter@D@__crt_stdio_output@@@2@@__crt_stdio_output@@AAEXI_N@Z 100531c0 f i libucrtd:output.obj
 0001:000522a0       ??$type_case_integer_parse_into_buffer@I$09@?$output_processor@DV?$string_output_adapter@D@__crt_stdio_output@@V?$format_validation_base@DV?$string_output_adapter@D@__crt_stdio_output@@@2@@__crt_stdio_output@@AAEXI_N@Z 100532a0 f i libucrtd:output.obj
 0001:00052380       ??$type_case_integer_parse_into_buffer@I$09@?$output_processor@DV?$string_output_adapter@D@__crt_stdio_output@@V?$positional_parameter_base@DV?$string_output_adapter@D@__crt_stdio_output@@@2@@__crt_stdio_output@@AAEXI_N@Z 10053380 f i libucrtd:output.obj
 0001:00052460       ??$type_case_integer_parse_into_buffer@I$09@?$output_processor@DV?$string_output_adapter@D@__crt_stdio_output@@V?$standard_base@DV?$string_output_adapter@D@__crt_stdio_output@@@2@@__crt_stdio_output@@AAEXI_N@Z 10053460 f i libucrtd:output.obj
 0001:00052540       ??$type_case_integer_parse_into_buffer@I$09@?$output_processor@_WV?$stream_output_adapter@_W@__crt_stdio_output@@V?$format_validation_base@_WV?$stream_output_adapter@_W@__crt_stdio_output@@@2@@__crt_stdio_output@@AAEXI_N@Z 10053540 f i libucrtd:output.obj
 0001:00052630       ??$type_case_integer_parse_into_buffer@I$09@?$output_processor@_WV?$stream_output_adapter@_W@__crt_stdio_output@@V?$positional_parameter_base@_WV?$stream_output_adapter@_W@__crt_stdio_output@@@2@@__crt_stdio_output@@AAEXI_N@Z 10053630 f i libucrtd:output.obj
 0001:00052720       ??$type_case_integer_parse_into_buffer@I$09@?$output_processor@_WV?$stream_output_adapter@_W@__crt_stdio_output@@V?$standard_base@_WV?$stream_output_adapter@_W@__crt_stdio_output@@@2@@__crt_stdio_output@@AAEXI_N@Z 10053720 f i libucrtd:output.obj
 0001:00052810       ??$type_case_integer_parse_into_buffer@I$09@?$output_processor@_WV?$string_output_adapter@_W@__crt_stdio_output@@V?$format_validation_base@_WV?$string_output_adapter@_W@__crt_stdio_output@@@2@@__crt_stdio_output@@AAEXI_N@Z 10053810 f i libucrtd:output.obj
 0001:00052900       ??$type_case_integer_parse_into_buffer@I$09@?$output_processor@_WV?$string_output_adapter@_W@__crt_stdio_output@@V?$positional_parameter_base@_WV?$string_output_adapter@_W@__crt_stdio_output@@@2@@__crt_stdio_output@@AAEXI_N@Z 10053900 f i libucrtd:output.obj
 0001:000529f0       ??$type_case_integer_parse_into_buffer@I$09@?$output_processor@_WV?$string_output_adapter@_W@__crt_stdio_output@@V?$standard_base@_WV?$string_output_adapter@_W@__crt_stdio_output@@@2@@__crt_stdio_output@@AAEXI_N@Z 100539f0 f i libucrtd:output.obj
 0001:00052ae0       ??$type_case_integer_parse_into_buffer@I$0BA@@?$output_processor@DV?$stream_output_adapter@D@__crt_stdio_output@@V?$format_validation_base@DV?$stream_output_adapter@D@__crt_stdio_output@@@2@@__crt_stdio_output@@AAEXI_N@Z 10053ae0 f i libucrtd:output.obj
 0001:00052bb0       ??$type_case_integer_parse_into_buffer@I$0BA@@?$output_processor@DV?$stream_output_adapter@D@__crt_stdio_output@@V?$positional_parameter_base@DV?$stream_output_adapter@D@__crt_stdio_output@@@2@@__crt_stdio_output@@AAEXI_N@Z 10053bb0 f i libucrtd:output.obj
 0001:00052c80       ??$type_case_integer_parse_into_buffer@I$0BA@@?$output_processor@DV?$stream_output_adapter@D@__crt_stdio_output@@V?$standard_base@DV?$stream_output_adapter@D@__crt_stdio_output@@@2@@__crt_stdio_output@@AAEXI_N@Z 10053c80 f i libucrtd:output.obj
 0001:00052d50       ??$type_case_integer_parse_into_buffer@I$0BA@@?$output_processor@DV?$string_output_adapter@D@__crt_stdio_output@@V?$format_validation_base@DV?$string_output_adapter@D@__crt_stdio_output@@@2@@__crt_stdio_output@@AAEXI_N@Z 10053d50 f i libucrtd:output.obj
 0001:00052e20       ??$type_case_integer_parse_into_buffer@I$0BA@@?$output_processor@DV?$string_output_adapter@D@__crt_stdio_output@@V?$positional_parameter_base@DV?$string_output_adapter@D@__crt_stdio_output@@@2@@__crt_stdio_output@@AAEXI_N@Z 10053e20 f i libucrtd:output.obj
 0001:00052ef0       ??$type_case_integer_parse_into_buffer@I$0BA@@?$output_processor@DV?$string_output_adapter@D@__crt_stdio_output@@V?$standard_base@DV?$string_output_adapter@D@__crt_stdio_output@@@2@@__crt_stdio_output@@AAEXI_N@Z 10053ef0 f i libucrtd:output.obj
 0001:00052fc0       ??$type_case_integer_parse_into_buffer@I$0BA@@?$output_processor@_WV?$stream_output_adapter@_W@__crt_stdio_output@@V?$format_validation_base@_WV?$stream_output_adapter@_W@__crt_stdio_output@@@2@@__crt_stdio_output@@AAEXI_N@Z 10053fc0 f i libucrtd:output.obj
 0001:000530a0       ??$type_case_integer_parse_into_buffer@I$0BA@@?$output_processor@_WV?$stream_output_adapter@_W@__crt_stdio_output@@V?$positional_parameter_base@_WV?$stream_output_adapter@_W@__crt_stdio_output@@@2@@__crt_stdio_output@@AAEXI_N@Z 100540a0 f i libucrtd:output.obj
 0001:00053180       ??$type_case_integer_parse_into_buffer@I$0BA@@?$output_processor@_WV?$stream_output_adapter@_W@__crt_stdio_output@@V?$standard_base@_WV?$stream_output_adapter@_W@__crt_stdio_output@@@2@@__crt_stdio_output@@AAEXI_N@Z 10054180 f i libucrtd:output.obj
 0001:00053260       ??$type_case_integer_parse_into_buffer@I$0BA@@?$output_processor@_WV?$string_output_adapter@_W@__crt_stdio_output@@V?$format_validation_base@_WV?$string_output_adapter@_W@__crt_stdio_output@@@2@@__crt_stdio_output@@AAEXI_N@Z 10054260 f i libucrtd:output.obj
 0001:00053340       ??$type_case_integer_parse_into_buffer@I$0BA@@?$output_processor@_WV?$string_output_adapter@_W@__crt_stdio_output@@V?$positional_parameter_base@_WV?$string_output_adapter@_W@__crt_stdio_output@@@2@@__crt_stdio_output@@AAEXI_N@Z 10054340 f i libucrtd:output.obj
 0001:00053420       ??$type_case_integer_parse_into_buffer@I$0BA@@?$output_processor@_WV?$string_output_adapter@_W@__crt_stdio_output@@V?$standard_base@_WV?$string_output_adapter@_W@__crt_stdio_output@@@2@@__crt_stdio_output@@AAEXI_N@Z 10054420 f i libucrtd:output.obj
 0001:00053500       ??$type_case_integer_parse_into_buffer@_K$07@?$output_processor@DV?$stream_output_adapter@D@__crt_stdio_output@@V?$format_validation_base@DV?$stream_output_adapter@D@__crt_stdio_output@@@2@@__crt_stdio_output@@AAEX_K_N@Z 10054500 f i libucrtd:output.obj
 0001:000535f0       ??$type_case_integer_parse_into_buffer@_K$07@?$output_processor@DV?$stream_output_adapter@D@__crt_stdio_output@@V?$positional_parameter_base@DV?$stream_output_adapter@D@__crt_stdio_output@@@2@@__crt_stdio_output@@AAEX_K_N@Z 100545f0 f i libucrtd:output.obj
 0001:000536e0       ??$type_case_integer_parse_into_buffer@_K$07@?$output_processor@DV?$stream_output_adapter@D@__crt_stdio_output@@V?$standard_base@DV?$stream_output_adapter@D@__crt_stdio_output@@@2@@__crt_stdio_output@@AAEX_K_N@Z 100546e0 f i libucrtd:output.obj
 0001:000537d0       ??$type_case_integer_parse_into_buffer@_K$07@?$output_processor@DV?$string_output_adapter@D@__crt_stdio_output@@V?$format_validation_base@DV?$string_output_adapter@D@__crt_stdio_output@@@2@@__crt_stdio_output@@AAEX_K_N@Z 100547d0 f i libucrtd:output.obj
 0001:000538c0       ??$type_case_integer_parse_into_buffer@_K$07@?$output_processor@DV?$string_output_adapter@D@__crt_stdio_output@@V?$positional_parameter_base@DV?$string_output_adapter@D@__crt_stdio_output@@@2@@__crt_stdio_output@@AAEX_K_N@Z 100548c0 f i libucrtd:output.obj
 0001:000539b0       ??$type_case_integer_parse_into_buffer@_K$07@?$output_processor@DV?$string_output_adapter@D@__crt_stdio_output@@V?$standard_base@DV?$string_output_adapter@D@__crt_stdio_output@@@2@@__crt_stdio_output@@AAEX_K_N@Z 100549b0 f i libucrtd:output.obj
 0001:00053aa0       ??$type_case_integer_parse_into_buffer@_K$07@?$output_processor@_WV?$stream_output_adapter@_W@__crt_stdio_output@@V?$format_validation_base@_WV?$stream_output_adapter@_W@__crt_stdio_output@@@2@@__crt_stdio_output@@AAEX_K_N@Z 10054aa0 f i libucrtd:output.obj
 0001:00053ba0       ??$type_case_integer_parse_into_buffer@_K$07@?$output_processor@_WV?$stream_output_adapter@_W@__crt_stdio_output@@V?$positional_parameter_base@_WV?$stream_output_adapter@_W@__crt_stdio_output@@@2@@__crt_stdio_output@@AAEX_K_N@Z 10054ba0 f i libucrtd:output.obj
 0001:00053ca0       ??$type_case_integer_parse_into_buffer@_K$07@?$output_processor@_WV?$stream_output_adapter@_W@__crt_stdio_output@@V?$standard_base@_WV?$stream_output_adapter@_W@__crt_stdio_output@@@2@@__crt_stdio_output@@AAEX_K_N@Z 10054ca0 f i libucrtd:output.obj
 0001:00053da0       ??$type_case_integer_parse_into_buffer@_K$07@?$output_processor@_WV?$string_output_adapter@_W@__crt_stdio_output@@V?$format_validation_base@_WV?$string_output_adapter@_W@__crt_stdio_output@@@2@@__crt_stdio_output@@AAEX_K_N@Z 10054da0 f i libucrtd:output.obj
 0001:00053ea0       ??$type_case_integer_parse_into_buffer@_K$07@?$output_processor@_WV?$string_output_adapter@_W@__crt_stdio_output@@V?$positional_parameter_base@_WV?$string_output_adapter@_W@__crt_stdio_output@@@2@@__crt_stdio_output@@AAEX_K_N@Z 10054ea0 f i libucrtd:output.obj
 0001:00053fa0       ??$type_case_integer_parse_into_buffer@_K$07@?$output_processor@_WV?$string_output_adapter@_W@__crt_stdio_output@@V?$standard_base@_WV?$string_output_adapter@_W@__crt_stdio_output@@@2@@__crt_stdio_output@@AAEX_K_N@Z 10054fa0 f i libucrtd:output.obj
 0001:000540a0       ??$type_case_integer_parse_into_buffer@_K$09@?$output_processor@DV?$stream_output_adapter@D@__crt_stdio_output@@V?$format_validation_base@DV?$stream_output_adapter@D@__crt_stdio_output@@@2@@__crt_stdio_output@@AAEX_K_N@Z 100550a0 f i libucrtd:output.obj
 0001:00054190       ??$type_case_integer_parse_into_buffer@_K$09@?$output_processor@DV?$stream_output_adapter@D@__crt_stdio_output@@V?$positional_parameter_base@DV?$stream_output_adapter@D@__crt_stdio_output@@@2@@__crt_stdio_output@@AAEX_K_N@Z 10055190 f i libucrtd:output.obj
 0001:00054280       ??$type_case_integer_parse_into_buffer@_K$09@?$output_processor@DV?$stream_output_adapter@D@__crt_stdio_output@@V?$standard_base@DV?$stream_output_adapter@D@__crt_stdio_output@@@2@@__crt_stdio_output@@AAEX_K_N@Z 10055280 f i libucrtd:output.obj
 0001:00054370       ??$type_case_integer_parse_into_buffer@_K$09@?$output_processor@DV?$string_output_adapter@D@__crt_stdio_output@@V?$format_validation_base@DV?$string_output_adapter@D@__crt_stdio_output@@@2@@__crt_stdio_output@@AAEX_K_N@Z 10055370 f i libucrtd:output.obj
 0001:00054460       ??$type_case_integer_parse_into_buffer@_K$09@?$output_processor@DV?$string_output_adapter@D@__crt_stdio_output@@V?$positional_parameter_base@DV?$string_output_adapter@D@__crt_stdio_output@@@2@@__crt_stdio_output@@AAEX_K_N@Z 10055460 f i libucrtd:output.obj
 0001:00054550       ??$type_case_integer_parse_into_buffer@_K$09@?$output_processor@DV?$string_output_adapter@D@__crt_stdio_output@@V?$standard_base@DV?$string_output_adapter@D@__crt_stdio_output@@@2@@__crt_stdio_output@@AAEX_K_N@Z 10055550 f i libucrtd:output.obj
 0001:00054640       ??$type_case_integer_parse_into_buffer@_K$09@?$output_processor@_WV?$stream_output_adapter@_W@__crt_stdio_output@@V?$format_validation_base@_WV?$stream_output_adapter@_W@__crt_stdio_output@@@2@@__crt_stdio_output@@AAEX_K_N@Z 10055640 f i libucrtd:output.obj
 0001:00054740       ??$type_case_integer_parse_into_buffer@_K$09@?$output_processor@_WV?$stream_output_adapter@_W@__crt_stdio_output@@V?$positional_parameter_base@_WV?$stream_output_adapter@_W@__crt_stdio_output@@@2@@__crt_stdio_output@@AAEX_K_N@Z 10055740 f i libucrtd:output.obj
 0001:00054840       ??$type_case_integer_parse_into_buffer@_K$09@?$output_processor@_WV?$stream_output_adapter@_W@__crt_stdio_output@@V?$standard_base@_WV?$stream_output_adapter@_W@__crt_stdio_output@@@2@@__crt_stdio_output@@AAEX_K_N@Z 10055840 f i libucrtd:output.obj
 0001:00054940       ??$type_case_integer_parse_into_buffer@_K$09@?$output_processor@_WV?$string_output_adapter@_W@__crt_stdio_output@@V?$format_validation_base@_WV?$string_output_adapter@_W@__crt_stdio_output@@@2@@__crt_stdio_output@@AAEX_K_N@Z 10055940 f i libucrtd:output.obj
 0001:00054a40       ??$type_case_integer_parse_into_buffer@_K$09@?$output_processor@_WV?$string_output_adapter@_W@__crt_stdio_output@@V?$positional_parameter_base@_WV?$string_output_adapter@_W@__crt_stdio_output@@@2@@__crt_stdio_output@@AAEX_K_N@Z 10055a40 f i libucrtd:output.obj
 0001:00054b40       ??$type_case_integer_parse_into_buffer@_K$09@?$output_processor@_WV?$string_output_adapter@_W@__crt_stdio_output@@V?$standard_base@_WV?$string_output_adapter@_W@__crt_stdio_output@@@2@@__crt_stdio_output@@AAEX_K_N@Z 10055b40 f i libucrtd:output.obj
 0001:00054c40       ??$type_case_integer_parse_into_buffer@_K$0BA@@?$output_processor@DV?$stream_output_adapter@D@__crt_stdio_output@@V?$format_validation_base@DV?$stream_output_adapter@D@__crt_stdio_output@@@2@@__crt_stdio_output@@AAEX_K_N@Z 10055c40 f i libucrtd:output.obj
 0001:00054d30       ??$type_case_integer_parse_into_buffer@_K$0BA@@?$output_processor@DV?$stream_output_adapter@D@__crt_stdio_output@@V?$positional_parameter_base@DV?$stream_output_adapter@D@__crt_stdio_output@@@2@@__crt_stdio_output@@AAEX_K_N@Z 10055d30 f i libucrtd:output.obj
 0001:00054e20       ??$type_case_integer_parse_into_buffer@_K$0BA@@?$output_processor@DV?$stream_output_adapter@D@__crt_stdio_output@@V?$standard_base@DV?$stream_output_adapter@D@__crt_stdio_output@@@2@@__crt_stdio_output@@AAEX_K_N@Z 10055e20 f i libucrtd:output.obj
 0001:00054f10       ??$type_case_integer_parse_into_buffer@_K$0BA@@?$output_processor@DV?$string_output_adapter@D@__crt_stdio_output@@V?$format_validation_base@DV?$string_output_adapter@D@__crt_stdio_output@@@2@@__crt_stdio_output@@AAEX_K_N@Z 10055f10 f i libucrtd:output.obj
 0001:00055000       ??$type_case_integer_parse_into_buffer@_K$0BA@@?$output_processor@DV?$string_output_adapter@D@__crt_stdio_output@@V?$positional_parameter_base@DV?$string_output_adapter@D@__crt_stdio_output@@@2@@__crt_stdio_output@@AAEX_K_N@Z 10056000 f i libucrtd:output.obj
 0001:000550f0       ??$type_case_integer_parse_into_buffer@_K$0BA@@?$output_processor@DV?$string_output_adapter@D@__crt_stdio_output@@V?$standard_base@DV?$string_output_adapter@D@__crt_stdio_output@@@2@@__crt_stdio_output@@AAEX_K_N@Z 100560f0 f i libucrtd:output.obj
 0001:000551e0       ??$type_case_integer_parse_into_buffer@_K$0BA@@?$output_processor@_WV?$stream_output_adapter@_W@__crt_stdio_output@@V?$format_validation_base@_WV?$stream_output_adapter@_W@__crt_stdio_output@@@2@@__crt_stdio_output@@AAEX_K_N@Z 100561e0 f i libucrtd:output.obj
 0001:000552e0       ??$type_case_integer_parse_into_buffer@_K$0BA@@?$output_processor@_WV?$stream_output_adapter@_W@__crt_stdio_output@@V?$positional_parameter_base@_WV?$stream_output_adapter@_W@__crt_stdio_output@@@2@@__crt_stdio_output@@AAEX_K_N@Z 100562e0 f i libucrtd:output.obj
 0001:000553e0       ??$type_case_integer_parse_into_buffer@_K$0BA@@?$output_processor@_WV?$stream_output_adapter@_W@__crt_stdio_output@@V?$standard_base@_WV?$stream_output_adapter@_W@__crt_stdio_output@@@2@@__crt_stdio_output@@AAEX_K_N@Z 100563e0 f i libucrtd:output.obj
 0001:000554e0       ??$type_case_integer_parse_into_buffer@_K$0BA@@?$output_processor@_WV?$string_output_adapter@_W@__crt_stdio_output@@V?$format_validation_base@_WV?$string_output_adapter@_W@__crt_stdio_output@@@2@@__crt_stdio_output@@AAEX_K_N@Z 100564e0 f i libucrtd:output.obj
 0001:000555e0       ??$type_case_integer_parse_into_buffer@_K$0BA@@?$output_processor@_WV?$string_output_adapter@_W@__crt_stdio_output@@V?$positional_parameter_base@_WV?$string_output_adapter@_W@__crt_stdio_output@@@2@@__crt_stdio_output@@AAEX_K_N@Z 100565e0 f i libucrtd:output.obj
 0001:000556e0       ??$type_case_integer_parse_into_buffer@_K$0BA@@?$output_processor@_WV?$string_output_adapter@_W@__crt_stdio_output@@V?$standard_base@_WV?$string_output_adapter@_W@__crt_stdio_output@@@2@@__crt_stdio_output@@AAEX_K_N@Z 100566e0 f i libucrtd:output.obj
 0001:000557e0       ??$write_multiple_characters@V?$stream_output_adapter@D@__crt_stdio_output@@D@__crt_stdio_output@@YAXABV?$stream_output_adapter@D@0@DHQAHAAV__crt_cached_ptd_host@@@Z 100567e0 f i libucrtd:output.obj
 0001:00055830       ??$write_multiple_characters@V?$stream_output_adapter@_W@__crt_stdio_output@@D@__crt_stdio_output@@YAXABV?$stream_output_adapter@_W@0@DHQAHAAV__crt_cached_ptd_host@@@Z 10056830 f i libucrtd:output.obj
 0001:00055880       ??$write_multiple_characters@V?$string_output_adapter@D@__crt_stdio_output@@D@__crt_stdio_output@@YAXABV?$string_output_adapter@D@0@DHQAHAAV__crt_cached_ptd_host@@@Z 10056880 f i libucrtd:output.obj
 0001:000558d0       ??$write_multiple_characters@V?$string_output_adapter@_W@__crt_stdio_output@@D@__crt_stdio_output@@YAXABV?$string_output_adapter@_W@0@DHQAHAAV__crt_cached_ptd_host@@@Z 100568d0 f i libucrtd:output.obj
 0001:00055c20       ??0?$c_string_character_source@D@__crt_strtox@@QAE@QBDQAPBD@Z 10056c20 f i libucrtd:output.obj
 0001:00055c60       ??0?$c_string_character_source@_W@__crt_strtox@@QAE@QB_WQAPB_W@Z 10056c60 f i libucrtd:output.obj
 0001:00055ca0       ??0?$cached@H@__crt_cached_ptd_host@@QAE@XZ 10056ca0 f i libucrtd:output.obj
 0001:00055cc0       ??0?$cached@K@__crt_cached_ptd_host@@QAE@XZ 10056cc0 f i libucrtd:output.obj
 0001:00055ce0       ??0?$common_data@D@__crt_stdio_output@@IAE@AAV__crt_cached_ptd_host@@@Z 10056ce0 f i libucrtd:output.obj
 0001:00055d80       ??0?$common_data@_W@__crt_stdio_output@@IAE@AAV__crt_cached_ptd_host@@@Z 10056d80 f i libucrtd:output.obj
 0001:00055e20       ??0?$output_adapter_data@DV?$stream_output_adapter@D@__crt_stdio_output@@@__crt_stdio_output@@IAE@ABV?$stream_output_adapter@D@1@_KQBDAAV__crt_cached_ptd_host@@QAD@Z 10056e20 f i libucrtd:output.obj
 0001:00055ea0       ??0?$output_adapter_data@DV?$string_output_adapter@D@__crt_stdio_output@@@__crt_stdio_output@@IAE@ABV?$string_output_adapter@D@1@_KQBDAAV__crt_cached_ptd_host@@QAD@Z 10056ea0 f i libucrtd:output.obj
 0001:00055f20       ??0?$output_adapter_data@_WV?$stream_output_adapter@_W@__crt_stdio_output@@@__crt_stdio_output@@IAE@ABV?$stream_output_adapter@_W@1@_KQB_WAAV__crt_cached_ptd_host@@QAD@Z 10056f20 f i libucrtd:output.obj
 0001:00055fa0       ??0?$output_adapter_data@_WV?$string_output_adapter@_W@__crt_stdio_output@@@__crt_stdio_output@@IAE@ABV?$string_output_adapter@_W@1@_KQB_WAAV__crt_cached_ptd_host@@QAD@Z 10056fa0 f i libucrtd:output.obj
 0001:00056020       ??0?$output_processor@DV?$stream_output_adapter@D@__crt_stdio_output@@V?$format_validation_base@DV?$stream_output_adapter@D@__crt_stdio_output@@@2@@__crt_stdio_output@@QAE@ABV?$stream_output_adapter@D@1@_KQBDAAV__crt_cached_ptd_host@@QAD@Z 10057020 f i libucrtd:output.obj
 0001:00056050       ??0?$output_processor@DV?$stream_output_adapter@D@__crt_stdio_output@@V?$positional_parameter_base@DV?$stream_output_adapter@D@__crt_stdio_output@@@2@@__crt_stdio_output@@QAE@ABV?$stream_output_adapter@D@1@_KQBDAAV__crt_cached_ptd_host@@QAD@Z 10057050 f i libucrtd:output.obj
 0001:00056080       ??0?$output_processor@DV?$stream_output_adapter@D@__crt_stdio_output@@V?$standard_base@DV?$stream_output_adapter@D@__crt_stdio_output@@@2@@__crt_stdio_output@@QAE@ABV?$stream_output_adapter@D@1@_KQBDAAV__crt_cached_ptd_host@@QAD@Z 10057080 f i libucrtd:output.obj
 0001:000560b0       ??0?$output_processor@DV?$string_output_adapter@D@__crt_stdio_output@@V?$format_validation_base@DV?$string_output_adapter@D@__crt_stdio_output@@@2@@__crt_stdio_output@@QAE@ABV?$string_output_adapter@D@1@_KQBDAAV__crt_cached_ptd_host@@QAD@Z 100570b0 f i libucrtd:output.obj
 0001:000560e0       ??0?$output_processor@DV?$string_output_adapter@D@__crt_stdio_output@@V?$positional_parameter_base@DV?$string_output_adapter@D@__crt_stdio_output@@@2@@__crt_stdio_output@@QAE@ABV?$string_output_adapter@D@1@_KQBDAAV__crt_cached_ptd_host@@QAD@Z 100570e0 f i libucrtd:output.obj
 0001:00056110       ??0?$output_processor@DV?$string_output_adapter@D@__crt_stdio_output@@V?$standard_base@DV?$string_output_adapter@D@__crt_stdio_output@@@2@@__crt_stdio_output@@QAE@ABV?$string_output_adapter@D@1@_KQBDAAV__crt_cached_ptd_host@@QAD@Z 10057110 f i libucrtd:output.obj
 0001:00056140       ??0?$output_processor@_WV?$stream_output_adapter@_W@__crt_stdio_output@@V?$format_validation_base@_WV?$stream_output_adapter@_W@__crt_stdio_output@@@2@@__crt_stdio_output@@QAE@ABV?$stream_output_adapter@_W@1@_KQB_WAAV__crt_cached_ptd_host@@QAD@Z 10057140 f i libucrtd:output.obj
 0001:00056170       ??0?$output_processor@_WV?$stream_output_adapter@_W@__crt_stdio_output@@V?$positional_parameter_base@_WV?$stream_output_adapter@_W@__crt_stdio_output@@@2@@__crt_stdio_output@@QAE@ABV?$stream_output_adapter@_W@1@_KQB_WAAV__crt_cached_ptd_host@@QAD@Z 10057170 f i libucrtd:output.obj
 0001:000561a0       ??0?$output_processor@_WV?$stream_output_adapter@_W@__crt_stdio_output@@V?$standard_base@_WV?$stream_output_adapter@_W@__crt_stdio_output@@@2@@__crt_stdio_output@@QAE@ABV?$stream_output_adapter@_W@1@_KQB_WAAV__crt_cached_ptd_host@@QAD@Z 100571a0 f i libucrtd:output.obj
 0001:000561d0       ??0?$output_processor@_WV?$string_output_adapter@_W@__crt_stdio_output@@V?$format_validation_base@_WV?$string_output_adapter@_W@__crt_stdio_output@@@2@@__crt_stdio_output@@QAE@ABV?$string_output_adapter@_W@1@_KQB_WAAV__crt_cached_ptd_host@@QAD@Z 100571d0 f i libucrtd:output.obj
 0001:00056200       ??0?$output_processor@_WV?$string_output_adapter@_W@__crt_stdio_output@@V?$positional_parameter_base@_WV?$string_output_adapter@_W@__crt_stdio_output@@@2@@__crt_stdio_output@@QAE@ABV?$string_output_adapter@_W@1@_KQB_WAAV__crt_cached_ptd_host@@QAD@Z 10057200 f i libucrtd:output.obj
 0001:00056230       ??0?$output_processor@_WV?$string_output_adapter@_W@__crt_stdio_output@@V?$standard_base@_WV?$string_output_adapter@_W@__crt_stdio_output@@@2@@__crt_stdio_output@@QAE@ABV?$string_output_adapter@_W@1@_KQB_WAAV__crt_cached_ptd_host@@QAD@Z 10057230 f i libucrtd:output.obj
 0001:00056260       ??0?$stream_output_adapter@D@__crt_stdio_output@@QAE@QAU_iobuf@@@Z 10057260 f i libucrtd:output.obj
 0001:00056290       ??0?$stream_output_adapter@_W@__crt_stdio_output@@QAE@QAU_iobuf@@@Z 10057290 f i libucrtd:output.obj
 0001:000562c0       ??0?$string_output_adapter@D@__crt_stdio_output@@QAE@QAU?$string_output_adapter_context@D@1@@Z 100572c0 f i libucrtd:output.obj
 0001:000562e0       ??0?$string_output_adapter@_W@__crt_stdio_output@@QAE@QAU?$string_output_adapter_context@_W@1@@Z 100572e0 f i libucrtd:output.obj
 0001:00056300       ??0__acrt_stdio_temporary_buffering_guard@@QAE@QAU_iobuf@@AAV__crt_cached_ptd_host@@@Z 10057300 f i libucrtd:output.obj
 0001:00056340       ??0__crt_cached_ptd_host@@QAE@QAU__crt_locale_pointers@@@Z 10057340 f i libucrtd:output.obj
 0001:000563d0       ??0__crt_scoped_get_last_error_reset@@QAE@XZ 100573d0 f i libucrtd:output.obj
 0001:000563f0       ??0__crt_stdio_stream@@QAE@QAU_iobuf@@@Z 100573f0 f i libucrtd:output.obj
 0001:00056410       ??0formatting_buffer@__crt_stdio_output@@QAE@XZ 10057410 f i libucrtd:output.obj
 0001:00056450       ??0guard@?$cached@H@__crt_cached_ptd_host@@QAE@AAU12@@Z 10057450 f i libucrtd:output.obj
 0001:00056490       ??1?$c_string_character_source@D@__crt_strtox@@QAE@XZ 10057490 f i libucrtd:output.obj
 0001:000564c0       ??1?$c_string_character_source@_W@__crt_strtox@@QAE@XZ 100574c0 f i libucrtd:output.obj
 0001:000564f0       ??1?$common_data@D@__crt_stdio_output@@QAE@XZ 100574f0 f i libucrtd:output.obj
 0001:00056510       ??1?$common_data@_W@__crt_stdio_output@@QAE@XZ 10057510 f i libucrtd:output.obj
 0001:00056530       ??1?$format_validation_base@DV?$stream_output_adapter@D@__crt_stdio_output@@@__crt_stdio_output@@QAE@XZ 10057530 f i libucrtd:output.obj
 0001:00056550       ??1?$format_validation_base@DV?$string_output_adapter@D@__crt_stdio_output@@@__crt_stdio_output@@QAE@XZ 10057550 f i libucrtd:output.obj
 0001:00056570       ??1?$format_validation_base@_WV?$stream_output_adapter@_W@__crt_stdio_output@@@__crt_stdio_output@@QAE@XZ 10057570 f i libucrtd:output.obj
 0001:00056590       ??1?$format_validation_base@_WV?$string_output_adapter@_W@__crt_stdio_output@@@__crt_stdio_output@@QAE@XZ 10057590 f i libucrtd:output.obj
 0001:000565b0       ??1?$output_adapter_data@DV?$stream_output_adapter@D@__crt_stdio_output@@@__crt_stdio_output@@QAE@XZ 100575b0 f i libucrtd:output.obj
 0001:000565d0       ??1?$output_adapter_data@DV?$string_output_adapter@D@__crt_stdio_output@@@__crt_stdio_output@@QAE@XZ 100575d0 f i libucrtd:output.obj
 0001:000565f0       ??1?$output_adapter_data@_WV?$stream_output_adapter@_W@__crt_stdio_output@@@__crt_stdio_output@@QAE@XZ 100575f0 f i libucrtd:output.obj
 0001:00056610       ??1?$output_adapter_data@_WV?$string_output_adapter@_W@__crt_stdio_output@@@__crt_stdio_output@@QAE@XZ 10057610 f i libucrtd:output.obj
 0001:00056630       ??1?$output_processor@DV?$stream_output_adapter@D@__crt_stdio_output@@V?$format_validation_base@DV?$stream_output_adapter@D@__crt_stdio_output@@@2@@__crt_stdio_output@@QAE@XZ 10057630 f i libucrtd:output.obj
 0001:00056650       ??1?$output_processor@DV?$stream_output_adapter@D@__crt_stdio_output@@V?$positional_parameter_base@DV?$stream_output_adapter@D@__crt_stdio_output@@@2@@__crt_stdio_output@@QAE@XZ 10057650 f i libucrtd:output.obj
 0001:00056670       ??1?$output_processor@DV?$stream_output_adapter@D@__crt_stdio_output@@V?$standard_base@DV?$stream_output_adapter@D@__crt_stdio_output@@@2@@__crt_stdio_output@@QAE@XZ 10057670 f i libucrtd:output.obj
 0001:00056690       ??1?$output_processor@DV?$string_output_adapter@D@__crt_stdio_output@@V?$format_validation_base@DV?$string_output_adapter@D@__crt_stdio_output@@@2@@__crt_stdio_output@@QAE@XZ 10057690 f i libucrtd:output.obj
 0001:000566b0       ??1?$output_processor@DV?$string_output_adapter@D@__crt_stdio_output@@V?$positional_parameter_base@DV?$string_output_adapter@D@__crt_stdio_output@@@2@@__crt_stdio_output@@QAE@XZ 100576b0 f i libucrtd:output.obj
 0001:000566d0       ??1?$output_processor@DV?$string_output_adapter@D@__crt_stdio_output@@V?$standard_base@DV?$string_output_adapter@D@__crt_stdio_output@@@2@@__crt_stdio_output@@QAE@XZ 100576d0 f i libucrtd:output.obj
 0001:000566f0       ??1?$output_processor@_WV?$stream_output_adapter@_W@__crt_stdio_output@@V?$format_validation_base@_WV?$stream_output_adapter@_W@__crt_stdio_output@@@2@@__crt_stdio_output@@QAE@XZ 100576f0 f i libucrtd:output.obj
 0001:00056710       ??1?$output_processor@_WV?$stream_output_adapter@_W@__crt_stdio_output@@V?$positional_parameter_base@_WV?$stream_output_adapter@_W@__crt_stdio_output@@@2@@__crt_stdio_output@@QAE@XZ 10057710 f i libucrtd:output.obj
 0001:00056730       ??1?$output_processor@_WV?$stream_output_adapter@_W@__crt_stdio_output@@V?$standard_base@_WV?$stream_output_adapter@_W@__crt_stdio_output@@@2@@__crt_stdio_output@@QAE@XZ 10057730 f i libucrtd:output.obj
 0001:00056750       ??1?$output_processor@_WV?$string_output_adapter@_W@__crt_stdio_output@@V?$format_validation_base@_WV?$string_output_adapter@_W@__crt_stdio_output@@@2@@__crt_stdio_output@@QAE@XZ 10057750 f i libucrtd:output.obj
 0001:00056770       ??1?$output_processor@_WV?$string_output_adapter@_W@__crt_stdio_output@@V?$positional_parameter_base@_WV?$string_output_adapter@_W@__crt_stdio_output@@@2@@__crt_stdio_output@@QAE@XZ 10057770 f i libucrtd:output.obj
 0001:00056790       ??1?$output_processor@_WV?$string_output_adapter@_W@__crt_stdio_output@@V?$standard_base@_WV?$string_output_adapter@_W@__crt_stdio_output@@@2@@__crt_stdio_output@@QAE@XZ 10057790 f i libucrtd:output.obj
 0001:000567b0       ??1?$positional_parameter_base@DV?$stream_output_adapter@D@__crt_stdio_output@@@__crt_stdio_output@@QAE@XZ 100577b0 f i libucrtd:output.obj
 0001:000567d0       ??1?$positional_parameter_base@DV?$string_output_adapter@D@__crt_stdio_output@@@__crt_stdio_output@@QAE@XZ 100577d0 f i libucrtd:output.obj
 0001:000567f0       ??1?$positional_parameter_base@_WV?$stream_output_adapter@_W@__crt_stdio_output@@@__crt_stdio_output@@QAE@XZ 100577f0 f i libucrtd:output.obj
 0001:00056810       ??1?$positional_parameter_base@_WV?$string_output_adapter@_W@__crt_stdio_output@@@__crt_stdio_output@@QAE@XZ 10057810 f i libucrtd:output.obj
 0001:00056830       ??1?$standard_base@DV?$stream_output_adapter@D@__crt_stdio_output@@@__crt_stdio_output@@QAE@XZ 10057830 f i libucrtd:output.obj
 0001:00056850       ??1?$standard_base@DV?$string_output_adapter@D@__crt_stdio_output@@@__crt_stdio_output@@QAE@XZ 10057850 f i libucrtd:output.obj
 0001:00056870       ??1?$standard_base@_WV?$stream_output_adapter@_W@__crt_stdio_output@@@__crt_stdio_output@@QAE@XZ 10057870 f i libucrtd:output.obj
 0001:00056890       ??1?$standard_base@_WV?$string_output_adapter@_W@__crt_stdio_output@@@__crt_stdio_output@@QAE@XZ 10057890 f i libucrtd:output.obj
 0001:000568b0       ??1__acrt_stdio_temporary_buffering_guard@@QAE@XZ 100578b0 f i libucrtd:output.obj
 0001:000568e0       ??1__crt_cached_ptd_host@@QAE@XZ 100578e0 f i libucrtd:output.obj
 0001:00056970       ??1__crt_scoped_get_last_error_reset@@QAE@XZ 10057970 f i libucrtd:output.obj
 0001:00056990       ??1formatting_buffer@__crt_stdio_output@@QAE@XZ 10057990 f i libucrtd:output.obj
 0001:000569b0       ??1guard@?$cached@H@__crt_cached_ptd_host@@QAE@XZ 100579b0 f i libucrtd:output.obj
 0001:000569e0       ??4?$__crt_unique_heap_ptr@DU__crt_internal_free_policy@@@@QAEAAV0@$$QAV0@@Z 100579e0 f i libucrtd:output.obj
 0001:00056a10       ??A?$spectre_mitigated_lookup_table@Ustate_transition_pair@__crt_stdio_output@@$0IA@@__crt_stdio_output@@QBEABUstate_transition_pair@1@I@Z 10057a10 f i libucrtd:output.obj
 0001:00056a30       ??C__crt_stdio_stream@@QBEPAU__crt_stdio_stream_data@@XZ 10057a30 f i libucrtd:output.obj
 0001:00057290       ?adjust_hexit@?$output_processor@DV?$stream_output_adapter@D@__crt_stdio_output@@V?$format_validation_base@DV?$stream_output_adapter@D@__crt_stdio_output@@@2@@__crt_stdio_output@@CADH_N@Z 10058290 f i libucrtd:output.obj
 0001:000572d0       ?adjust_hexit@?$output_processor@DV?$stream_output_adapter@D@__crt_stdio_output@@V?$positional_parameter_base@DV?$stream_output_adapter@D@__crt_stdio_output@@@2@@__crt_stdio_output@@CADH_N@Z 100582d0 f i libucrtd:output.obj
 0001:00057310       ?adjust_hexit@?$output_processor@DV?$stream_output_adapter@D@__crt_stdio_output@@V?$standard_base@DV?$stream_output_adapter@D@__crt_stdio_output@@@2@@__crt_stdio_output@@CADH_N@Z 10058310 f i libucrtd:output.obj
 0001:00057350       ?adjust_hexit@?$output_processor@DV?$string_output_adapter@D@__crt_stdio_output@@V?$format_validation_base@DV?$string_output_adapter@D@__crt_stdio_output@@@2@@__crt_stdio_output@@CADH_N@Z 10058350 f i libucrtd:output.obj
 0001:00057390       ?adjust_hexit@?$output_processor@DV?$string_output_adapter@D@__crt_stdio_output@@V?$positional_parameter_base@DV?$string_output_adapter@D@__crt_stdio_output@@@2@@__crt_stdio_output@@CADH_N@Z 10058390 f i libucrtd:output.obj
 0001:000573d0       ?adjust_hexit@?$output_processor@DV?$string_output_adapter@D@__crt_stdio_output@@V?$standard_base@DV?$string_output_adapter@D@__crt_stdio_output@@@2@@__crt_stdio_output@@CADH_N@Z 100583d0 f i libucrtd:output.obj
 0001:00057410       ?adjust_hexit@?$output_processor@_WV?$stream_output_adapter@_W@__crt_stdio_output@@V?$format_validation_base@_WV?$stream_output_adapter@_W@__crt_stdio_output@@@2@@__crt_stdio_output@@CADH_N@Z 10058410 f i libucrtd:output.obj
 0001:00057450       ?adjust_hexit@?$output_processor@_WV?$stream_output_adapter@_W@__crt_stdio_output@@V?$positional_parameter_base@_WV?$stream_output_adapter@_W@__crt_stdio_output@@@2@@__crt_stdio_output@@CADH_N@Z 10058450 f i libucrtd:output.obj
 0001:00057490       ?adjust_hexit@?$output_processor@_WV?$stream_output_adapter@_W@__crt_stdio_output@@V?$standard_base@_WV?$stream_output_adapter@_W@__crt_stdio_output@@@2@@__crt_stdio_output@@CADH_N@Z 10058490 f i libucrtd:output.obj
 0001:000574d0       ?adjust_hexit@?$output_processor@_WV?$string_output_adapter@_W@__crt_stdio_output@@V?$format_validation_base@_WV?$string_output_adapter@_W@__crt_stdio_output@@@2@@__crt_stdio_output@@CADH_N@Z 100584d0 f i libucrtd:output.obj
 0001:00057510       ?adjust_hexit@?$output_processor@_WV?$string_output_adapter@_W@__crt_stdio_output@@V?$positional_parameter_base@_WV?$string_output_adapter@_W@__crt_stdio_output@@@2@@__crt_stdio_output@@CADH_N@Z 10058510 f i libucrtd:output.obj
 0001:00057550       ?adjust_hexit@?$output_processor@_WV?$string_output_adapter@_W@__crt_stdio_output@@V?$standard_base@_WV?$string_output_adapter@_W@__crt_stdio_output@@@2@@__crt_stdio_output@@CADH_N@Z 10058550 f i libucrtd:output.obj
 0001:00057590       ?advance_to_next_pass@?$positional_parameter_base@DV?$stream_output_adapter@D@__crt_stdio_output@@@__crt_stdio_output@@IAE_NXZ 10058590 f i libucrtd:output.obj
 0001:00057630       ?advance_to_next_pass@?$positional_parameter_base@DV?$string_output_adapter@D@__crt_stdio_output@@@__crt_stdio_output@@IAE_NXZ 10058630 f i libucrtd:output.obj
 0001:000576d0       ?advance_to_next_pass@?$positional_parameter_base@_WV?$stream_output_adapter@_W@__crt_stdio_output@@@__crt_stdio_output@@IAE_NXZ 100586d0 f i libucrtd:output.obj
 0001:00057770       ?advance_to_next_pass@?$positional_parameter_base@_WV?$string_output_adapter@_W@__crt_stdio_output@@@__crt_stdio_output@@IAE_NXZ 10058770 f i libucrtd:output.obj
 0001:00057810       ?advance_to_next_pass@?$standard_base@DV?$stream_output_adapter@D@__crt_stdio_output@@@__crt_stdio_output@@IAE_NXZ 10058810 f i libucrtd:output.obj
 0001:00057860       ?advance_to_next_pass@?$standard_base@DV?$string_output_adapter@D@__crt_stdio_output@@@__crt_stdio_output@@IAE_NXZ 10058860 f i libucrtd:output.obj
 0001:000578b0       ?advance_to_next_pass@?$standard_base@_WV?$stream_output_adapter@_W@__crt_stdio_output@@@__crt_stdio_output@@IAE_NXZ 100588b0 f i libucrtd:output.obj
 0001:00057900       ?advance_to_next_pass@?$standard_base@_WV?$string_output_adapter@_W@__crt_stdio_output@@@__crt_stdio_output@@IAE_NXZ 10058900 f i libucrtd:output.obj
 0001:00057950       ?check@?$cached@H@__crt_cached_ptd_host@@QBE_NH@Z 10058950 f i libucrtd:output.obj
 0001:00057990       ?check_synchronize_global_state_index@__crt_cached_ptd_host@@AAEIABV__crt_scoped_get_last_error_reset@@@Z 10058990 f i libucrtd:output.obj
 0001:000579c0       ?check_synchronize_per_thread_data@__crt_cached_ptd_host@@AAEPAU__acrt_ptd@@XZ 100589c0 f i libucrtd:output.obj
 0001:000579f0       ?create_guard@?$cached@H@__crt_cached_ptd_host@@QAE?AVguard@12@XZ 100589f0 f i libucrtd:output.obj
 0001:00057a10       ?crop_zeroes@__crt_stdio_output@@YAXPADQAU__crt_locale_pointers@@@Z 10058a10 f i libucrtd:output.obj
 0001:00057b10       ?disable@guard@?$cached@H@__crt_cached_ptd_host@@QAEXXZ 10058b10 f i libucrtd:output.obj
 0001:00057b30       ?enable@guard@?$cached@H@__crt_cached_ptd_host@@QAEXXZ 10058b30 f i libucrtd:output.obj
 0001:00057b50       ?find_next_state@?$output_processor@DV?$stream_output_adapter@D@__crt_stdio_output@@V?$format_validation_base@DV?$stream_output_adapter@D@__crt_stdio_output@@@2@@__crt_stdio_output@@ABE?AW4state@2@DW432@@Z 10058b50 f i libucrtd:output.obj
 0001:00057bf0       ?find_next_state@?$output_processor@DV?$stream_output_adapter@D@__crt_stdio_output@@V?$positional_parameter_base@DV?$stream_output_adapter@D@__crt_stdio_output@@@2@@__crt_stdio_output@@ABE?AW4state@2@DW432@@Z 10058bf0 f i libucrtd:output.obj
 0001:00057c90       ?find_next_state@?$output_processor@DV?$stream_output_adapter@D@__crt_stdio_output@@V?$standard_base@DV?$stream_output_adapter@D@__crt_stdio_output@@@2@@__crt_stdio_output@@ABE?AW4state@2@DW432@@Z 10058c90 f i libucrtd:output.obj
 0001:00057d30       ?find_next_state@?$output_processor@DV?$string_output_adapter@D@__crt_stdio_output@@V?$format_validation_base@DV?$string_output_adapter@D@__crt_stdio_output@@@2@@__crt_stdio_output@@ABE?AW4state@2@DW432@@Z 10058d30 f i libucrtd:output.obj
 0001:00057dd0       ?find_next_state@?$output_processor@DV?$string_output_adapter@D@__crt_stdio_output@@V?$positional_parameter_base@DV?$string_output_adapter@D@__crt_stdio_output@@@2@@__crt_stdio_output@@ABE?AW4state@2@DW432@@Z 10058dd0 f i libucrtd:output.obj
 0001:00057e70       ?find_next_state@?$output_processor@DV?$string_output_adapter@D@__crt_stdio_output@@V?$standard_base@DV?$string_output_adapter@D@__crt_stdio_output@@@2@@__crt_stdio_output@@ABE?AW4state@2@DW432@@Z 10058e70 f i libucrtd:output.obj
 0001:00057f10       ?find_next_state@?$output_processor@_WV?$stream_output_adapter@_W@__crt_stdio_output@@V?$format_validation_base@_WV?$stream_output_adapter@_W@__crt_stdio_output@@@2@@__crt_stdio_output@@ABE?AW4state@2@_WW432@@Z 10058f10 f i libucrtd:output.obj
 0001:00057fb0       ?find_next_state@?$output_processor@_WV?$stream_output_adapter@_W@__crt_stdio_output@@V?$positional_parameter_base@_WV?$stream_output_adapter@_W@__crt_stdio_output@@@2@@__crt_stdio_output@@ABE?AW4state@2@_WW432@@Z 10058fb0 f i libucrtd:output.obj
 0001:00058050       ?find_next_state@?$output_processor@_WV?$stream_output_adapter@_W@__crt_stdio_output@@V?$standard_base@_WV?$stream_output_adapter@_W@__crt_stdio_output@@@2@@__crt_stdio_output@@ABE?AW4state@2@_WW432@@Z 10059050 f i libucrtd:output.obj
 0001:000580f0       ?find_next_state@?$output_processor@_WV?$string_output_adapter@_W@__crt_stdio_output@@V?$format_validation_base@_WV?$string_output_adapter@_W@__crt_stdio_output@@@2@@__crt_stdio_output@@ABE?AW4state@2@_WW432@@Z 100590f0 f i libucrtd:output.obj
 0001:00058190       ?find_next_state@?$output_processor@_WV?$string_output_adapter@_W@__crt_stdio_output@@V?$positional_parameter_base@_WV?$string_output_adapter@_W@__crt_stdio_output@@@2@@__crt_stdio_output@@ABE?AW4state@2@_WW432@@Z 10059190 f i libucrtd:output.obj
 0001:00058230       ?find_next_state@?$output_processor@_WV?$string_output_adapter@_W@__crt_stdio_output@@V?$standard_base@_WV?$string_output_adapter@_W@__crt_stdio_output@@@2@@__crt_stdio_output@@ABE?AW4state@2@_WW432@@Z 10059230 f i libucrtd:output.obj
 0001:000582d0       ?force_decimal_point@__crt_stdio_output@@YAXPADQAU__crt_locale_pointers@@@Z 100592d0 f i libucrtd:output.obj
 0001:000583a0       ?force_synchronize_global_state_index@__crt_cached_ptd_host@@AAEIABV__crt_scoped_get_last_error_reset@@@Z 100593a0 f i libucrtd:output.obj
 0001:000583d0       ?force_synchronize_per_thread_data@__crt_cached_ptd_host@@AAEPAU__acrt_ptd@@XZ 100593d0 f i libucrtd:output.obj
 0001:00058420       ?get@?$c_string_character_source@D@__crt_strtox@@QAEDXZ 10059420 f i libucrtd:output.obj
 0001:00058450       ?get@?$c_string_character_source@_W@__crt_strtox@@QAE_WXZ 10059450 f i libucrtd:output.obj
 0001:00058480       ?get_current_state_index@__crt_state_management@@YAIABV__crt_scoped_get_last_error_reset@@@Z 10059480 f i libucrtd:output.obj
 0001:00058490       ?get_errno@__crt_cached_ptd_host@@QAEAAU?$cached@H@1@XZ 10059490 f i libucrtd:output.obj
 0001:000584b0       ?get_flags@__crt_stdio_stream@@QBEJXZ 100594b0 f i libucrtd:output.obj
 0001:000584d0       ?get_locale@__crt_cached_ptd_host@@QAEPAU__crt_locale_pointers@@XZ 100594d0 f i libucrtd:output.obj
 0001:000584f0       ?get_parameter_type@?$positional_parameter_base@DV?$stream_output_adapter@D@__crt_stdio_output@@@__crt_stdio_output@@CA?AW4parameter_type@12@F@Z 100594f0 f i libucrtd:output.obj
 0001:00058500       ?get_parameter_type@?$positional_parameter_base@DV?$stream_output_adapter@D@__crt_stdio_output@@@__crt_stdio_output@@CA?AW4parameter_type@12@G@Z 10059500 f i libucrtd:output.obj
 0001:00058510       ?get_parameter_type@?$positional_parameter_base@DV?$stream_output_adapter@D@__crt_stdio_output@@@__crt_stdio_output@@CA?AW4parameter_type@12@H@Z 10059510 f i libucrtd:output.obj
 0001:00058520       ?get_parameter_type@?$positional_parameter_base@DV?$stream_output_adapter@D@__crt_stdio_output@@@__crt_stdio_output@@CA?AW4parameter_type@12@I@Z 10059520 f i libucrtd:output.obj
 0001:00058530       ?get_parameter_type@?$positional_parameter_base@DV?$stream_output_adapter@D@__crt_stdio_output@@@__crt_stdio_output@@CA?AW4parameter_type@12@U_CRT_DOUBLE@@@Z 10059530 f i libucrtd:output.obj
 0001:00058540       ?get_parameter_type@?$positional_parameter_base@DV?$stream_output_adapter@D@__crt_stdio_output@@@__crt_stdio_output@@CA?AW4parameter_type@12@_J@Z 10059540 f i libucrtd:output.obj
 0001:00058550       ?get_parameter_type@?$positional_parameter_base@DV?$stream_output_adapter@D@__crt_stdio_output@@@__crt_stdio_output@@CA?AW4parameter_type@12@_K@Z 10059550 f i libucrtd:output.obj
 0001:00058560       ?get_parameter_type@?$positional_parameter_base@DV?$stream_output_adapter@D@__crt_stdio_output@@@__crt_stdio_output@@CA?AW4parameter_type@12@_W@Z 10059560 f i libucrtd:output.obj
 0001:00058570       ?get_parameter_type@?$positional_parameter_base@DV?$string_output_adapter@D@__crt_stdio_output@@@__crt_stdio_output@@CA?AW4parameter_type@12@F@Z 10059570 f i libucrtd:output.obj
 0001:00058580       ?get_parameter_type@?$positional_parameter_base@DV?$string_output_adapter@D@__crt_stdio_output@@@__crt_stdio_output@@CA?AW4parameter_type@12@G@Z 10059580 f i libucrtd:output.obj
 0001:00058590       ?get_parameter_type@?$positional_parameter_base@DV?$string_output_adapter@D@__crt_stdio_output@@@__crt_stdio_output@@CA?AW4parameter_type@12@H@Z 10059590 f i libucrtd:output.obj
 0001:000585a0       ?get_parameter_type@?$positional_parameter_base@DV?$string_output_adapter@D@__crt_stdio_output@@@__crt_stdio_output@@CA?AW4parameter_type@12@I@Z 100595a0 f i libucrtd:output.obj
 0001:000585b0       ?get_parameter_type@?$positional_parameter_base@DV?$string_output_adapter@D@__crt_stdio_output@@@__crt_stdio_output@@CA?AW4parameter_type@12@U_CRT_DOUBLE@@@Z 100595b0 f i libucrtd:output.obj
 0001:000585c0       ?get_parameter_type@?$positional_parameter_base@DV?$string_output_adapter@D@__crt_stdio_output@@@__crt_stdio_output@@CA?AW4parameter_type@12@_J@Z 100595c0 f i libucrtd:output.obj
 0001:000585d0       ?get_parameter_type@?$positional_parameter_base@DV?$string_output_adapter@D@__crt_stdio_output@@@__crt_stdio_output@@CA?AW4parameter_type@12@_K@Z 100595d0 f i libucrtd:output.obj
 0001:000585e0       ?get_parameter_type@?$positional_parameter_base@DV?$string_output_adapter@D@__crt_stdio_output@@@__crt_stdio_output@@CA?AW4parameter_type@12@_W@Z 100595e0 f i libucrtd:output.obj
 0001:000585f0       ?get_parameter_type@?$positional_parameter_base@_WV?$stream_output_adapter@_W@__crt_stdio_output@@@__crt_stdio_output@@CA?AW4parameter_type@12@F@Z 100595f0 f i libucrtd:output.obj
 0001:00058600       ?get_parameter_type@?$positional_parameter_base@_WV?$stream_output_adapter@_W@__crt_stdio_output@@@__crt_stdio_output@@CA?AW4parameter_type@12@G@Z 10059600 f i libucrtd:output.obj
 0001:00058610       ?get_parameter_type@?$positional_parameter_base@_WV?$stream_output_adapter@_W@__crt_stdio_output@@@__crt_stdio_output@@CA?AW4parameter_type@12@H@Z 10059610 f i libucrtd:output.obj
 0001:00058620       ?get_parameter_type@?$positional_parameter_base@_WV?$stream_output_adapter@_W@__crt_stdio_output@@@__crt_stdio_output@@CA?AW4parameter_type@12@I@Z 10059620 f i libucrtd:output.obj
 0001:00058630       ?get_parameter_type@?$positional_parameter_base@_WV?$stream_output_adapter@_W@__crt_stdio_output@@@__crt_stdio_output@@CA?AW4parameter_type@12@U_CRT_DOUBLE@@@Z 10059630 f i libucrtd:output.obj
 0001:00058640       ?get_parameter_type@?$positional_parameter_base@_WV?$stream_output_adapter@_W@__crt_stdio_output@@@__crt_stdio_output@@CA?AW4parameter_type@12@_J@Z 10059640 f i libucrtd:output.obj
 0001:00058650       ?get_parameter_type@?$positional_parameter_base@_WV?$stream_output_adapter@_W@__crt_stdio_output@@@__crt_stdio_output@@CA?AW4parameter_type@12@_K@Z 10059650 f i libucrtd:output.obj
 0001:00058660       ?get_parameter_type@?$positional_parameter_base@_WV?$stream_output_adapter@_W@__crt_stdio_output@@@__crt_stdio_output@@CA?AW4parameter_type@12@_W@Z 10059660 f i libucrtd:output.obj
 0001:00058670       ?get_parameter_type@?$positional_parameter_base@_WV?$string_output_adapter@_W@__crt_stdio_output@@@__crt_stdio_output@@CA?AW4parameter_type@12@F@Z 10059670 f i libucrtd:output.obj
 0001:00058680       ?get_parameter_type@?$positional_parameter_base@_WV?$string_output_adapter@_W@__crt_stdio_output@@@__crt_stdio_output@@CA?AW4parameter_type@12@G@Z 10059680 f i libucrtd:output.obj
 0001:00058690       ?get_parameter_type@?$positional_parameter_base@_WV?$string_output_adapter@_W@__crt_stdio_output@@@__crt_stdio_output@@CA?AW4parameter_type@12@H@Z 10059690 f i libucrtd:output.obj
 0001:000586a0       ?get_parameter_type@?$positional_parameter_base@_WV?$string_output_adapter@_W@__crt_stdio_output@@@__crt_stdio_output@@CA?AW4parameter_type@12@I@Z 100596a0 f i libucrtd:output.obj
 0001:000586b0       ?get_parameter_type@?$positional_parameter_base@_WV?$string_output_adapter@_W@__crt_stdio_output@@@__crt_stdio_output@@CA?AW4parameter_type@12@U_CRT_DOUBLE@@@Z 100596b0 f i libucrtd:output.obj
 0001:000586c0       ?get_parameter_type@?$positional_parameter_base@_WV?$string_output_adapter@_W@__crt_stdio_output@@@__crt_stdio_output@@CA?AW4parameter_type@12@_J@Z 100596c0 f i libucrtd:output.obj
 0001:000586d0       ?get_parameter_type@?$positional_parameter_base@_WV?$string_output_adapter@_W@__crt_stdio_output@@@__crt_stdio_output@@CA?AW4parameter_type@12@_K@Z 100596d0 f i libucrtd:output.obj
 0001:000586e0       ?get_parameter_type@?$positional_parameter_base@_WV?$string_output_adapter@_W@__crt_stdio_output@@@__crt_stdio_output@@CA?AW4parameter_type@12@_W@Z 100596e0 f i libucrtd:output.obj
 0001:000586f0       ?get_raw_ptd@__crt_cached_ptd_host@@QAEPAU__acrt_ptd@@XZ 100596f0 f i libucrtd:output.obj
 0001:00058710       ?has_flag@?$output_processor@DV?$stream_output_adapter@D@__crt_stdio_output@@V?$format_validation_base@DV?$stream_output_adapter@D@__crt_stdio_output@@@2@@__crt_stdio_output@@ABE_NI@Z 10059710 f i libucrtd:output.obj
 0001:00058740       ?has_flag@?$output_processor@DV?$stream_output_adapter@D@__crt_stdio_output@@V?$positional_parameter_base@DV?$stream_output_adapter@D@__crt_stdio_output@@@2@@__crt_stdio_output@@ABE_NI@Z 10059740 f i libucrtd:output.obj
 0001:00058770       ?has_flag@?$output_processor@DV?$stream_output_adapter@D@__crt_stdio_output@@V?$standard_base@DV?$stream_output_adapter@D@__crt_stdio_output@@@2@@__crt_stdio_output@@ABE_NI@Z 10059770 f i libucrtd:output.obj
 0001:000587a0       ?has_flag@?$output_processor@DV?$string_output_adapter@D@__crt_stdio_output@@V?$format_validation_base@DV?$string_output_adapter@D@__crt_stdio_output@@@2@@__crt_stdio_output@@ABE_NI@Z 100597a0 f i libucrtd:output.obj
 0001:000587d0       ?has_flag@?$output_processor@DV?$string_output_adapter@D@__crt_stdio_output@@V?$positional_parameter_base@DV?$string_output_adapter@D@__crt_stdio_output@@@2@@__crt_stdio_output@@ABE_NI@Z 100597d0 f i libucrtd:output.obj
 0001:00058800       ?has_flag@?$output_processor@DV?$string_output_adapter@D@__crt_stdio_output@@V?$standard_base@DV?$string_output_adapter@D@__crt_stdio_output@@@2@@__crt_stdio_output@@ABE_NI@Z 10059800 f i libucrtd:output.obj
 0001:00058830       ?has_flag@?$output_processor@_WV?$stream_output_adapter@_W@__crt_stdio_output@@V?$format_validation_base@_WV?$stream_output_adapter@_W@__crt_stdio_output@@@2@@__crt_stdio_output@@ABE_NI@Z 10059830 f i libucrtd:output.obj
 0001:00058860       ?has_flag@?$output_processor@_WV?$stream_output_adapter@_W@__crt_stdio_output@@V?$positional_parameter_base@_WV?$stream_output_adapter@_W@__crt_stdio_output@@@2@@__crt_stdio_output@@ABE_NI@Z 10059860 f i libucrtd:output.obj
 0001:00058890       ?has_flag@?$output_processor@_WV?$stream_output_adapter@_W@__crt_stdio_output@@V?$standard_base@_WV?$stream_output_adapter@_W@__crt_stdio_output@@@2@@__crt_stdio_output@@ABE_NI@Z 10059890 f i libucrtd:output.obj
 0001:000588c0       ?has_flag@?$output_processor@_WV?$string_output_adapter@_W@__crt_stdio_output@@V?$format_validation_base@_WV?$string_output_adapter@_W@__crt_stdio_output@@@2@@__crt_stdio_output@@ABE_NI@Z 100598c0 f i libucrtd:output.obj
 0001:000588f0       ?has_flag@?$output_processor@_WV?$string_output_adapter@_W@__crt_stdio_output@@V?$positional_parameter_base@_WV?$string_output_adapter@_W@__crt_stdio_output@@@2@@__crt_stdio_output@@ABE_NI@Z 100598f0 f i libucrtd:output.obj
 0001:00058920       ?has_flag@?$output_processor@_WV?$string_output_adapter@_W@__crt_stdio_output@@V?$standard_base@_WV?$string_output_adapter@_W@__crt_stdio_output@@@2@@__crt_stdio_output@@ABE_NI@Z 10059920 f i libucrtd:output.obj
 0001:00058950       ?is_positional_parameter_reappearance_consistent@?$positional_parameter_base@DV?$stream_output_adapter@D@__crt_stdio_output@@@__crt_stdio_output@@AAE_NABUparameter_data@12@W4parameter_type@12@DW4length_modifier@2@@Z 10059950 f i libucrtd:output.obj
 0001:00058b80       ?is_positional_parameter_reappearance_consistent@?$positional_parameter_base@DV?$string_output_adapter@D@__crt_stdio_output@@@__crt_stdio_output@@AAE_NABUparameter_data@12@W4parameter_type@12@DW4length_modifier@2@@Z 10059b80 f i libucrtd:output.obj
 0001:00058db0       ?is_positional_parameter_reappearance_consistent@?$positional_parameter_base@_WV?$stream_output_adapter@_W@__crt_stdio_output@@@__crt_stdio_output@@AAE_NABUparameter_data@12@W4parameter_type@12@_WW4length_modifier@2@@Z 10059db0 f i libucrtd:output.obj
 0001:00058fe0       ?is_positional_parameter_reappearance_consistent@?$positional_parameter_base@_WV?$string_output_adapter@_W@__crt_stdio_output@@@__crt_stdio_output@@AAE_NABUparameter_data@12@W4parameter_type@12@_WW4length_modifier@2@@Z 10059fe0 f i libucrtd:output.obj
 0001:00059210       ?is_string_backed@__crt_stdio_stream@@QBE_NXZ 1005a210 f i libucrtd:output.obj
 0001:00059250       ?maximum_signed_value@__crt_strtox@@YAJK@Z 1005a250 f i libucrtd:output.obj
 0001:00059260       ?minimum_signed_value@__crt_strtox@@YAJK@Z 1005a260 f i libucrtd:output.obj
 0001:00059270       ?narrow_null_string@?$output_processor@DV?$stream_output_adapter@D@__crt_stdio_output@@V?$format_validation_base@DV?$stream_output_adapter@D@__crt_stdio_output@@@2@@__crt_stdio_output@@CAPADXZ 1005a270 f i libucrtd:output.obj
 0001:00059280       ?narrow_null_string@?$output_processor@DV?$stream_output_adapter@D@__crt_stdio_output@@V?$positional_parameter_base@DV?$stream_output_adapter@D@__crt_stdio_output@@@2@@__crt_stdio_output@@CAPADXZ 1005a280 f i libucrtd:output.obj
 0001:00059290       ?narrow_null_string@?$output_processor@DV?$stream_output_adapter@D@__crt_stdio_output@@V?$standard_base@DV?$stream_output_adapter@D@__crt_stdio_output@@@2@@__crt_stdio_output@@CAPADXZ 1005a290 f i libucrtd:output.obj
 0001:000592a0       ?narrow_null_string@?$output_processor@DV?$string_output_adapter@D@__crt_stdio_output@@V?$format_validation_base@DV?$string_output_adapter@D@__crt_stdio_output@@@2@@__crt_stdio_output@@CAPADXZ 1005a2a0 f i libucrtd:output.obj
 0001:000592b0       ?narrow_null_string@?$output_processor@DV?$string_output_adapter@D@__crt_stdio_output@@V?$positional_parameter_base@DV?$string_output_adapter@D@__crt_stdio_output@@@2@@__crt_stdio_output@@CAPADXZ 1005a2b0 f i libucrtd:output.obj
 0001:000592c0       ?narrow_null_string@?$output_processor@DV?$string_output_adapter@D@__crt_stdio_output@@V?$standard_base@DV?$string_output_adapter@D@__crt_stdio_output@@@2@@__crt_stdio_output@@CAPADXZ 1005a2c0 f i libucrtd:output.obj
 0001:000592d0       ?narrow_null_string@?$output_processor@_WV?$stream_output_adapter@_W@__crt_stdio_output@@V?$format_validation_base@_WV?$stream_output_adapter@_W@__crt_stdio_output@@@2@@__crt_stdio_output@@CAPADXZ 1005a2d0 f i libucrtd:output.obj
 0001:000592e0       ?narrow_null_string@?$output_processor@_WV?$stream_output_adapter@_W@__crt_stdio_output@@V?$positional_parameter_base@_WV?$stream_output_adapter@_W@__crt_stdio_output@@@2@@__crt_stdio_output@@CAPADXZ 1005a2e0 f i libucrtd:output.obj
 0001:000592f0       ?narrow_null_string@?$output_processor@_WV?$stream_output_adapter@_W@__crt_stdio_output@@V?$standard_base@_WV?$stream_output_adapter@_W@__crt_stdio_output@@@2@@__crt_stdio_output@@CAPADXZ 1005a2f0 f i libucrtd:output.obj
 0001:00059300       ?narrow_null_string@?$output_processor@_WV?$string_output_adapter@_W@__crt_stdio_output@@V?$format_validation_base@_WV?$string_output_adapter@_W@__crt_stdio_output@@@2@@__crt_stdio_output@@CAPADXZ 1005a300 f i libucrtd:output.obj
 0001:00059310       ?narrow_null_string@?$output_processor@_WV?$string_output_adapter@_W@__crt_stdio_output@@V?$positional_parameter_base@_WV?$string_output_adapter@_W@__crt_stdio_output@@@2@@__crt_stdio_output@@CAPADXZ 1005a310 f i libucrtd:output.obj
 0001:00059320       ?narrow_null_string@?$output_processor@_WV?$string_output_adapter@_W@__crt_stdio_output@@V?$standard_base@_WV?$string_output_adapter@_W@__crt_stdio_output@@@2@@__crt_stdio_output@@CAPADXZ 1005a320 f i libucrtd:output.obj
 0001:00059330       ?parse_digit@__crt_strtox@@YAID@Z 1005a330 f i libucrtd:output.obj
 0001:00059390       ?parse_digit@__crt_strtox@@YAI_W@Z 1005a390 f i libucrtd:output.obj
 0001:000593e0       ?parse_int_from_format_string@?$output_processor@DV?$stream_output_adapter@D@__crt_stdio_output@@V?$format_validation_base@DV?$stream_output_adapter@D@__crt_stdio_output@@@2@@__crt_stdio_output@@AAE_NQAH@Z 1005a3e0 f i libucrtd:output.obj
 0001:000594a0       ?parse_int_from_format_string@?$output_processor@DV?$stream_output_adapter@D@__crt_stdio_output@@V?$positional_parameter_base@DV?$stream_output_adapter@D@__crt_stdio_output@@@2@@__crt_stdio_output@@AAE_NQAH@Z 1005a4a0 f i libucrtd:output.obj
 0001:00059560       ?parse_int_from_format_string@?$output_processor@DV?$stream_output_adapter@D@__crt_stdio_output@@V?$standard_base@DV?$stream_output_adapter@D@__crt_stdio_output@@@2@@__crt_stdio_output@@AAE_NQAH@Z 1005a560 f i libucrtd:output.obj
 0001:00059620       ?parse_int_from_format_string@?$output_processor@DV?$string_output_adapter@D@__crt_stdio_output@@V?$format_validation_base@DV?$string_output_adapter@D@__crt_stdio_output@@@2@@__crt_stdio_output@@AAE_NQAH@Z 1005a620 f i libucrtd:output.obj
 0001:000596e0       ?parse_int_from_format_string@?$output_processor@DV?$string_output_adapter@D@__crt_stdio_output@@V?$positional_parameter_base@DV?$string_output_adapter@D@__crt_stdio_output@@@2@@__crt_stdio_output@@AAE_NQAH@Z 1005a6e0 f i libucrtd:output.obj
 0001:000597a0       ?parse_int_from_format_string@?$output_processor@DV?$string_output_adapter@D@__crt_stdio_output@@V?$standard_base@DV?$string_output_adapter@D@__crt_stdio_output@@@2@@__crt_stdio_output@@AAE_NQAH@Z 1005a7a0 f i libucrtd:output.obj
 0001:00059860       ?parse_int_from_format_string@?$output_processor@_WV?$stream_output_adapter@_W@__crt_stdio_output@@V?$format_validation_base@_WV?$stream_output_adapter@_W@__crt_stdio_output@@@2@@__crt_stdio_output@@AAE_NQAH@Z 1005a860 f i libucrtd:output.obj
 0001:00059920       ?parse_int_from_format_string@?$output_processor@_WV?$stream_output_adapter@_W@__crt_stdio_output@@V?$positional_parameter_base@_WV?$stream_output_adapter@_W@__crt_stdio_output@@@2@@__crt_stdio_output@@AAE_NQAH@Z 1005a920 f i libucrtd:output.obj
 0001:000599e0       ?parse_int_from_format_string@?$output_processor@_WV?$stream_output_adapter@_W@__crt_stdio_output@@V?$standard_base@_WV?$stream_output_adapter@_W@__crt_stdio_output@@@2@@__crt_stdio_output@@AAE_NQAH@Z 1005a9e0 f i libucrtd:output.obj
 0001:00059aa0       ?parse_int_from_format_string@?$output_processor@_WV?$string_output_adapter@_W@__crt_stdio_output@@V?$format_validation_base@_WV?$string_output_adapter@_W@__crt_stdio_output@@@2@@__crt_stdio_output@@AAE_NQAH@Z 1005aaa0 f i libucrtd:output.obj
 0001:00059b60       ?parse_int_from_format_string@?$output_processor@_WV?$string_output_adapter@_W@__crt_stdio_output@@V?$positional_parameter_base@_WV?$string_output_adapter@_W@__crt_stdio_output@@@2@@__crt_stdio_output@@AAE_NQAH@Z 1005ab60 f i libucrtd:output.obj
 0001:00059c20       ?parse_int_from_format_string@?$output_processor@_WV?$string_output_adapter@_W@__crt_stdio_output@@V?$standard_base@_WV?$string_output_adapter@_W@__crt_stdio_output@@@2@@__crt_stdio_output@@AAE_NQAH@Z 1005ac20 f i libucrtd:output.obj
 0001:00059ce0       ?process@?$output_processor@DV?$stream_output_adapter@D@__crt_stdio_output@@V?$format_validation_base@DV?$stream_output_adapter@D@__crt_stdio_output@@@2@@__crt_stdio_output@@QAEHXZ 1005ace0 f i libucrtd:output.obj
 0001:00059fc0       ?process@?$output_processor@DV?$stream_output_adapter@D@__crt_stdio_output@@V?$positional_parameter_base@DV?$stream_output_adapter@D@__crt_stdio_output@@@2@@__crt_stdio_output@@QAEHXZ 1005afc0 f i libucrtd:output.obj
 0001:0005a2a0       ?process@?$output_processor@DV?$stream_output_adapter@D@__crt_stdio_output@@V?$standard_base@DV?$stream_output_adapter@D@__crt_stdio_output@@@2@@__crt_stdio_output@@QAEHXZ 1005b2a0 f i libucrtd:output.obj
 0001:0005a580       ?process@?$output_processor@DV?$string_output_adapter@D@__crt_stdio_output@@V?$format_validation_base@DV?$string_output_adapter@D@__crt_stdio_output@@@2@@__crt_stdio_output@@QAEHXZ 1005b580 f i libucrtd:output.obj
 0001:0005a860       ?process@?$output_processor@DV?$string_output_adapter@D@__crt_stdio_output@@V?$positional_parameter_base@DV?$string_output_adapter@D@__crt_stdio_output@@@2@@__crt_stdio_output@@QAEHXZ 1005b860 f i libucrtd:output.obj
 0001:0005ab40       ?process@?$output_processor@DV?$string_output_adapter@D@__crt_stdio_output@@V?$standard_base@DV?$string_output_adapter@D@__crt_stdio_output@@@2@@__crt_stdio_output@@QAEHXZ 1005bb40 f i libucrtd:output.obj
 0001:0005ae20       ?process@?$output_processor@_WV?$stream_output_adapter@_W@__crt_stdio_output@@V?$format_validation_base@_WV?$stream_output_adapter@_W@__crt_stdio_output@@@2@@__crt_stdio_output@@QAEHXZ 1005be20 f i libucrtd:output.obj
 0001:0005b100       ?process@?$output_processor@_WV?$stream_output_adapter@_W@__crt_stdio_output@@V?$positional_parameter_base@_WV?$stream_output_adapter@_W@__crt_stdio_output@@@2@@__crt_stdio_output@@QAEHXZ 1005c100 f i libucrtd:output.obj
 0001:0005b3e0       ?process@?$output_processor@_WV?$stream_output_adapter@_W@__crt_stdio_output@@V?$standard_base@_WV?$stream_output_adapter@_W@__crt_stdio_output@@@2@@__crt_stdio_output@@QAEHXZ 1005c3e0 f i libucrtd:output.obj
 0001:0005b6c0       ?process@?$output_processor@_WV?$string_output_adapter@_W@__crt_stdio_output@@V?$format_validation_base@_WV?$string_output_adapter@_W@__crt_stdio_output@@@2@@__crt_stdio_output@@QAEHXZ 1005c6c0 f i libucrtd:output.obj
 0001:0005b9a0       ?process@?$output_processor@_WV?$string_output_adapter@_W@__crt_stdio_output@@V?$positional_parameter_base@_WV?$string_output_adapter@_W@__crt_stdio_output@@@2@@__crt_stdio_output@@QAEHXZ 1005c9a0 f i libucrtd:output.obj
 0001:0005bc80       ?process@?$output_processor@_WV?$string_output_adapter@_W@__crt_stdio_output@@V?$standard_base@_WV?$string_output_adapter@_W@__crt_stdio_output@@@2@@__crt_stdio_output@@QAEHXZ 1005cc80 f i libucrtd:output.obj
 0001:0005bf60       ?public_stream@__crt_stdio_stream@@QBEPAU_iobuf@@XZ 1005cf60 f i libucrtd:output.obj
 0001:0005bf80       ?restore_state@?$c_string_character_source@D@__crt_strtox@@QAE_NQBD@Z 1005cf80 f i libucrtd:output.obj
 0001:0005bfa0       ?restore_state@?$c_string_character_source@_W@__crt_strtox@@QAE_NQB_W@Z 1005cfa0 f i libucrtd:output.obj
 0001:0005bfc0       ?save_state@?$c_string_character_source@D@__crt_strtox@@QBEPBDXZ 1005cfc0 f i libucrtd:output.obj
 0001:0005bfe0       ?save_state@?$c_string_character_source@_W@__crt_strtox@@QBEPB_WXZ 1005cfe0 f i libucrtd:output.obj
 0001:0005c000       ?set@?$cached@H@__crt_cached_ptd_host@@QAEHH@Z 1005d000 f i libucrtd:output.obj
 0001:0005c030       ?set_flag@?$output_processor@DV?$stream_output_adapter@D@__crt_stdio_output@@V?$format_validation_base@DV?$stream_output_adapter@D@__crt_stdio_output@@@2@@__crt_stdio_output@@AAEXI@Z 1005d030 f i libucrtd:output.obj
 0001:0005c050       ?set_flag@?$output_processor@DV?$stream_output_adapter@D@__crt_stdio_output@@V?$positional_parameter_base@DV?$stream_output_adapter@D@__crt_stdio_output@@@2@@__crt_stdio_output@@AAEXI@Z 1005d050 f i libucrtd:output.obj
 0001:0005c070       ?set_flag@?$output_processor@DV?$stream_output_adapter@D@__crt_stdio_output@@V?$standard_base@DV?$stream_output_adapter@D@__crt_stdio_output@@@2@@__crt_stdio_output@@AAEXI@Z 1005d070 f i libucrtd:output.obj
 0001:0005c090       ?set_flag@?$output_processor@DV?$string_output_adapter@D@__crt_stdio_output@@V?$format_validation_base@DV?$string_output_adapter@D@__crt_stdio_output@@@2@@__crt_stdio_output@@AAEXI@Z 1005d090 f i libucrtd:output.obj
 0001:0005c0b0       ?set_flag@?$output_processor@DV?$string_output_adapter@D@__crt_stdio_output@@V?$positional_parameter_base@DV?$string_output_adapter@D@__crt_stdio_output@@@2@@__crt_stdio_output@@AAEXI@Z 1005d0b0 f i libucrtd:output.obj
 0001:0005c0d0       ?set_flag@?$output_processor@DV?$string_output_adapter@D@__crt_stdio_output@@V?$standard_base@DV?$string_output_adapter@D@__crt_stdio_output@@@2@@__crt_stdio_output@@AAEXI@Z 1005d0d0 f i libucrtd:output.obj
 0001:0005c0f0       ?set_flag@?$output_processor@_WV?$stream_output_adapter@_W@__crt_stdio_output@@V?$format_validation_base@_WV?$stream_output_adapter@_W@__crt_stdio_output@@@2@@__crt_stdio_output@@AAEXI@Z 1005d0f0 f i libucrtd:output.obj
 0001:0005c110       ?set_flag@?$output_processor@_WV?$stream_output_adapter@_W@__crt_stdio_output@@V?$positional_parameter_base@_WV?$stream_output_adapter@_W@__crt_stdio_output@@@2@@__crt_stdio_output@@AAEXI@Z 1005d110 f i libucrtd:output.obj
 0001:0005c130       ?set_flag@?$output_processor@_WV?$stream_output_adapter@_W@__crt_stdio_output@@V?$standard_base@_WV?$stream_output_adapter@_W@__crt_stdio_output@@@2@@__crt_stdio_output@@AAEXI@Z 1005d130 f i libucrtd:output.obj
 0001:0005c150       ?set_flag@?$output_processor@_WV?$string_output_adapter@_W@__crt_stdio_output@@V?$format_validation_base@_WV?$string_output_adapter@_W@__crt_stdio_output@@@2@@__crt_stdio_output@@AAEXI@Z 1005d150 f i libucrtd:output.obj
 0001:0005c170       ?set_flag@?$output_processor@_WV?$string_output_adapter@_W@__crt_stdio_output@@V?$positional_parameter_base@_WV?$string_output_adapter@_W@__crt_stdio_output@@@2@@__crt_stdio_output@@AAEXI@Z 1005d170 f i libucrtd:output.obj
 0001:0005c190       ?set_flag@?$output_processor@_WV?$string_output_adapter@_W@__crt_stdio_output@@V?$standard_base@_WV?$string_output_adapter@_W@__crt_stdio_output@@@2@@__crt_stdio_output@@AAEXI@Z 1005d190 f i libucrtd:output.obj
 0001:0005c1b0       ?should_format@?$positional_parameter_base@DV?$stream_output_adapter@D@__crt_stdio_output@@@__crt_stdio_output@@IAE_NXZ 1005d1b0 f i libucrtd:output.obj
 0001:0005c1f0       ?should_format@?$positional_parameter_base@DV?$string_output_adapter@D@__crt_stdio_output@@@__crt_stdio_output@@IAE_NXZ 1005d1f0 f i libucrtd:output.obj
 0001:0005c230       ?should_format@?$positional_parameter_base@_WV?$stream_output_adapter@_W@__crt_stdio_output@@@__crt_stdio_output@@IAE_NXZ 1005d230 f i libucrtd:output.obj
 0001:0005c270       ?should_format@?$positional_parameter_base@_WV?$string_output_adapter@_W@__crt_stdio_output@@@__crt_stdio_output@@IAE_NXZ 1005d270 f i libucrtd:output.obj
 0001:0005c2b0       ?should_format@?$standard_base@DV?$stream_output_adapter@D@__crt_stdio_output@@@__crt_stdio_output@@IAE_NXZ 1005d2b0 f i libucrtd:output.obj
 0001:0005c2c0       ?should_format@?$standard_base@DV?$string_output_adapter@D@__crt_stdio_output@@@__crt_stdio_output@@IAE_NXZ 1005d2c0 f i libucrtd:output.obj
 0001:0005c2d0       ?should_format@?$standard_base@_WV?$stream_output_adapter@_W@__crt_stdio_output@@@__crt_stdio_output@@IAE_NXZ 1005d2d0 f i libucrtd:output.obj
 0001:0005c2e0       ?should_format@?$standard_base@_WV?$string_output_adapter@_W@__crt_stdio_output@@@__crt_stdio_output@@IAE_NXZ 1005d2e0 f i libucrtd:output.obj
 0001:0005c2f0       ?should_skip_normal_state_processing@?$positional_parameter_base@DV?$stream_output_adapter@D@__crt_stdio_output@@@__crt_stdio_output@@IAE_NXZ 1005d2f0 f i libucrtd:output.obj
 0001:0005c340       ?should_skip_normal_state_processing@?$positional_parameter_base@DV?$string_output_adapter@D@__crt_stdio_output@@@__crt_stdio_output@@IAE_NXZ 1005d340 f i libucrtd:output.obj
 0001:0005c390       ?should_skip_normal_state_processing@?$positional_parameter_base@_WV?$stream_output_adapter@_W@__crt_stdio_output@@@__crt_stdio_output@@IAE_NXZ 1005d390 f i libucrtd:output.obj
 0001:0005c3e0       ?should_skip_normal_state_processing@?$positional_parameter_base@_WV?$string_output_adapter@_W@__crt_stdio_output@@@__crt_stdio_output@@IAE_NXZ 1005d3e0 f i libucrtd:output.obj
 0001:0005c430       ?should_skip_normal_state_processing@?$standard_base@DV?$stream_output_adapter@D@__crt_stdio_output@@@__crt_stdio_output@@IAE_NXZ 1005d430 f i libucrtd:output.obj
 0001:0005c440       ?should_skip_normal_state_processing@?$standard_base@DV?$string_output_adapter@D@__crt_stdio_output@@@__crt_stdio_output@@IAE_NXZ 1005d440 f i libucrtd:output.obj
 0001:0005c450       ?should_skip_normal_state_processing@?$standard_base@_WV?$stream_output_adapter@_W@__crt_stdio_output@@@__crt_stdio_output@@IAE_NXZ 1005d450 f i libucrtd:output.obj
 0001:0005c460       ?should_skip_normal_state_processing@?$standard_base@_WV?$string_output_adapter@_W@__crt_stdio_output@@@__crt_stdio_output@@IAE_NXZ 1005d460 f i libucrtd:output.obj
 0001:0005c470       ?should_skip_type_state_output@?$positional_parameter_base@DV?$stream_output_adapter@D@__crt_stdio_output@@@__crt_stdio_output@@IBE_NXZ 1005d470 f i libucrtd:output.obj
 0001:0005c4b0       ?should_skip_type_state_output@?$positional_parameter_base@DV?$string_output_adapter@D@__crt_stdio_output@@@__crt_stdio_output@@IBE_NXZ 1005d4b0 f i libucrtd:output.obj
 0001:0005c4f0       ?should_skip_type_state_output@?$positional_parameter_base@_WV?$stream_output_adapter@_W@__crt_stdio_output@@@__crt_stdio_output@@IBE_NXZ 1005d4f0 f i libucrtd:output.obj
 0001:0005c530       ?should_skip_type_state_output@?$positional_parameter_base@_WV?$string_output_adapter@_W@__crt_stdio_output@@@__crt_stdio_output@@IBE_NXZ 1005d530 f i libucrtd:output.obj
 0001:0005c570       ?should_skip_type_state_output@?$standard_base@DV?$stream_output_adapter@D@__crt_stdio_output@@@__crt_stdio_output@@IBE_NXZ 1005d570 f i libucrtd:output.obj
 0001:0005c580       ?should_skip_type_state_output@?$standard_base@DV?$string_output_adapter@D@__crt_stdio_output@@@__crt_stdio_output@@IBE_NXZ 1005d580 f i libucrtd:output.obj
 0001:0005c590       ?should_skip_type_state_output@?$standard_base@_WV?$stream_output_adapter@_W@__crt_stdio_output@@@__crt_stdio_output@@IBE_NXZ 1005d590 f i libucrtd:output.obj
 0001:0005c5a0       ?should_skip_type_state_output@?$standard_base@_WV?$string_output_adapter@_W@__crt_stdio_output@@@__crt_stdio_output@@IBE_NXZ 1005d5a0 f i libucrtd:output.obj
 0001:0005c5b0       ?state_case_dot@?$output_processor@DV?$stream_output_adapter@D@__crt_stdio_output@@V?$format_validation_base@DV?$stream_output_adapter@D@__crt_stdio_output@@@2@@__crt_stdio_output@@AAE_NXZ 1005d5b0 f i libucrtd:output.obj
 0001:0005c5d0       ?state_case_dot@?$output_processor@DV?$stream_output_adapter@D@__crt_stdio_output@@V?$positional_parameter_base@DV?$stream_output_adapter@D@__crt_stdio_output@@@2@@__crt_stdio_output@@AAE_NXZ 1005d5d0 f i libucrtd:output.obj
 0001:0005c5f0       ?state_case_dot@?$output_processor@DV?$stream_output_adapter@D@__crt_stdio_output@@V?$standard_base@DV?$stream_output_adapter@D@__crt_stdio_output@@@2@@__crt_stdio_output@@AAE_NXZ 1005d5f0 f i libucrtd:output.obj
 0001:0005c610       ?state_case_dot@?$output_processor@DV?$string_output_adapter@D@__crt_stdio_output@@V?$format_validation_base@DV?$string_output_adapter@D@__crt_stdio_output@@@2@@__crt_stdio_output@@AAE_NXZ 1005d610 f i libucrtd:output.obj
 0001:0005c630       ?state_case_dot@?$output_processor@DV?$string_output_adapter@D@__crt_stdio_output@@V?$positional_parameter_base@DV?$string_output_adapter@D@__crt_stdio_output@@@2@@__crt_stdio_output@@AAE_NXZ 1005d630 f i libucrtd:output.obj
 0001:0005c650       ?state_case_dot@?$output_processor@DV?$string_output_adapter@D@__crt_stdio_output@@V?$standard_base@DV?$string_output_adapter@D@__crt_stdio_output@@@2@@__crt_stdio_output@@AAE_NXZ 1005d650 f i libucrtd:output.obj
 0001:0005c670       ?state_case_dot@?$output_processor@_WV?$stream_output_adapter@_W@__crt_stdio_output@@V?$format_validation_base@_WV?$stream_output_adapter@_W@__crt_stdio_output@@@2@@__crt_stdio_output@@AAE_NXZ 1005d670 f i libucrtd:output.obj
 0001:0005c690       ?state_case_dot@?$output_processor@_WV?$stream_output_adapter@_W@__crt_stdio_output@@V?$positional_parameter_base@_WV?$stream_output_adapter@_W@__crt_stdio_output@@@2@@__crt_stdio_output@@AAE_NXZ 1005d690 f i libucrtd:output.obj
 0001:0005c6b0       ?state_case_dot@?$output_processor@_WV?$stream_output_adapter@_W@__crt_stdio_output@@V?$standard_base@_WV?$stream_output_adapter@_W@__crt_stdio_output@@@2@@__crt_stdio_output@@AAE_NXZ 1005d6b0 f i libucrtd:output.obj
 0001:0005c6d0       ?state_case_dot@?$output_processor@_WV?$string_output_adapter@_W@__crt_stdio_output@@V?$format_validation_base@_WV?$string_output_adapter@_W@__crt_stdio_output@@@2@@__crt_stdio_output@@AAE_NXZ 1005d6d0 f i libucrtd:output.obj
 0001:0005c6f0       ?state_case_dot@?$output_processor@_WV?$string_output_adapter@_W@__crt_stdio_output@@V?$positional_parameter_base@_WV?$string_output_adapter@_W@__crt_stdio_output@@@2@@__crt_stdio_output@@AAE_NXZ 1005d6f0 f i libucrtd:output.obj
 0001:0005c710       ?state_case_dot@?$output_processor@_WV?$string_output_adapter@_W@__crt_stdio_output@@V?$standard_base@_WV?$string_output_adapter@_W@__crt_stdio_output@@@2@@__crt_stdio_output@@AAE_NXZ 1005d710 f i libucrtd:output.obj
 0001:0005c730       ?state_case_flag@?$output_processor@DV?$stream_output_adapter@D@__crt_stdio_output@@V?$format_validation_base@DV?$stream_output_adapter@D@__crt_stdio_output@@@2@@__crt_stdio_output@@AAE_NXZ 1005d730 f i libucrtd:output.obj
 0001:0005c7e0       ?state_case_flag@?$output_processor@DV?$stream_output_adapter@D@__crt_stdio_output@@V?$positional_parameter_base@DV?$stream_output_adapter@D@__crt_stdio_output@@@2@@__crt_stdio_output@@AAE_NXZ 1005d7e0 f i libucrtd:output.obj
 0001:0005c890       ?state_case_flag@?$output_processor@DV?$stream_output_adapter@D@__crt_stdio_output@@V?$standard_base@DV?$stream_output_adapter@D@__crt_stdio_output@@@2@@__crt_stdio_output@@AAE_NXZ 1005d890 f i libucrtd:output.obj
 0001:0005c940       ?state_case_flag@?$output_processor@DV?$string_output_adapter@D@__crt_stdio_output@@V?$format_validation_base@DV?$string_output_adapter@D@__crt_stdio_output@@@2@@__crt_stdio_output@@AAE_NXZ 1005d940 f i libucrtd:output.obj
 0001:0005c9f0       ?state_case_flag@?$output_processor@DV?$string_output_adapter@D@__crt_stdio_output@@V?$positional_parameter_base@DV?$string_output_adapter@D@__crt_stdio_output@@@2@@__crt_stdio_output@@AAE_NXZ 1005d9f0 f i libucrtd:output.obj
 0001:0005caa0       ?state_case_flag@?$output_processor@DV?$string_output_adapter@D@__crt_stdio_output@@V?$standard_base@DV?$string_output_adapter@D@__crt_stdio_output@@@2@@__crt_stdio_output@@AAE_NXZ 1005daa0 f i libucrtd:output.obj
 0001:0005cb50       ?state_case_flag@?$output_processor@_WV?$stream_output_adapter@_W@__crt_stdio_output@@V?$format_validation_base@_WV?$stream_output_adapter@_W@__crt_stdio_output@@@2@@__crt_stdio_output@@AAE_NXZ 1005db50 f i libucrtd:output.obj
 0001:0005cc00       ?state_case_flag@?$output_processor@_WV?$stream_output_adapter@_W@__crt_stdio_output@@V?$positional_parameter_base@_WV?$stream_output_adapter@_W@__crt_stdio_output@@@2@@__crt_stdio_output@@AAE_NXZ 1005dc00 f i libucrtd:output.obj
 0001:0005ccb0       ?state_case_flag@?$output_processor@_WV?$stream_output_adapter@_W@__crt_stdio_output@@V?$standard_base@_WV?$stream_output_adapter@_W@__crt_stdio_output@@@2@@__crt_stdio_output@@AAE_NXZ 1005dcb0 f i libucrtd:output.obj
 0001:0005cd60       ?state_case_flag@?$output_processor@_WV?$string_output_adapter@_W@__crt_stdio_output@@V?$format_validation_base@_WV?$string_output_adapter@_W@__crt_stdio_output@@@2@@__crt_stdio_output@@AAE_NXZ 1005dd60 f i libucrtd:output.obj
 0001:0005ce10       ?state_case_flag@?$output_processor@_WV?$string_output_adapter@_W@__crt_stdio_output@@V?$positional_parameter_base@_WV?$string_output_adapter@_W@__crt_stdio_output@@@2@@__crt_stdio_output@@AAE_NXZ 1005de10 f i libucrtd:output.obj
 0001:0005cec0       ?state_case_flag@?$output_processor@_WV?$string_output_adapter@_W@__crt_stdio_output@@V?$standard_base@_WV?$string_output_adapter@_W@__crt_stdio_output@@@2@@__crt_stdio_output@@AAE_NXZ 1005dec0 f i libucrtd:output.obj
 0001:0005cf70       ?state_case_normal@?$output_processor@DV?$stream_output_adapter@D@__crt_stdio_output@@V?$format_validation_base@DV?$stream_output_adapter@D@__crt_stdio_output@@@2@@__crt_stdio_output@@AAE_NXZ 1005df70 f i libucrtd:output.obj
 0001:0005d030       ?state_case_normal@?$output_processor@DV?$stream_output_adapter@D@__crt_stdio_output@@V?$positional_parameter_base@DV?$stream_output_adapter@D@__crt_stdio_output@@@2@@__crt_stdio_output@@AAE_NXZ 1005e030 f i libucrtd:output.obj
 0001:0005d0f0       ?state_case_normal@?$output_processor@DV?$stream_output_adapter@D@__crt_stdio_output@@V?$standard_base@DV?$stream_output_adapter@D@__crt_stdio_output@@@2@@__crt_stdio_output@@AAE_NXZ 1005e0f0 f i libucrtd:output.obj
 0001:0005d1b0       ?state_case_normal@?$output_processor@DV?$string_output_adapter@D@__crt_stdio_output@@V?$format_validation_base@DV?$string_output_adapter@D@__crt_stdio_output@@@2@@__crt_stdio_output@@AAE_NXZ 1005e1b0 f i libucrtd:output.obj
 0001:0005d270       ?state_case_normal@?$output_processor@DV?$string_output_adapter@D@__crt_stdio_output@@V?$positional_parameter_base@DV?$string_output_adapter@D@__crt_stdio_output@@@2@@__crt_stdio_output@@AAE_NXZ 1005e270 f i libucrtd:output.obj
 0001:0005d330       ?state_case_normal@?$output_processor@DV?$string_output_adapter@D@__crt_stdio_output@@V?$standard_base@DV?$string_output_adapter@D@__crt_stdio_output@@@2@@__crt_stdio_output@@AAE_NXZ 1005e330 f i libucrtd:output.obj
 0001:0005d3f0       ?state_case_normal@?$output_processor@_WV?$stream_output_adapter@_W@__crt_stdio_output@@V?$format_validation_base@_WV?$stream_output_adapter@_W@__crt_stdio_output@@@2@@__crt_stdio_output@@AAE_NXZ 1005e3f0 f i libucrtd:output.obj
 0001:0005d4b0       ?state_case_normal@?$output_processor@_WV?$stream_output_adapter@_W@__crt_stdio_output@@V?$positional_parameter_base@_WV?$stream_output_adapter@_W@__crt_stdio_output@@@2@@__crt_stdio_output@@AAE_NXZ 1005e4b0 f i libucrtd:output.obj
 0001:0005d570       ?state_case_normal@?$output_processor@_WV?$stream_output_adapter@_W@__crt_stdio_output@@V?$standard_base@_WV?$stream_output_adapter@_W@__crt_stdio_output@@@2@@__crt_stdio_output@@AAE_NXZ 1005e570 f i libucrtd:output.obj
 0001:0005d630       ?state_case_normal@?$output_processor@_WV?$string_output_adapter@_W@__crt_stdio_output@@V?$format_validation_base@_WV?$string_output_adapter@_W@__crt_stdio_output@@@2@@__crt_stdio_output@@AAE_NXZ 1005e630 f i libucrtd:output.obj
 0001:0005d6f0       ?state_case_normal@?$output_processor@_WV?$string_output_adapter@_W@__crt_stdio_output@@V?$positional_parameter_base@_WV?$string_output_adapter@_W@__crt_stdio_output@@@2@@__crt_stdio_output@@AAE_NXZ 1005e6f0 f i libucrtd:output.obj
 0001:0005d7b0       ?state_case_normal@?$output_processor@_WV?$string_output_adapter@_W@__crt_stdio_output@@V?$standard_base@_WV?$string_output_adapter@_W@__crt_stdio_output@@@2@@__crt_stdio_output@@AAE_NXZ 1005e7b0 f i libucrtd:output.obj
 0001:0005d870       ?state_case_normal_common@?$output_processor@DV?$stream_output_adapter@D@__crt_stdio_output@@V?$format_validation_base@DV?$stream_output_adapter@D@__crt_stdio_output@@@2@@__crt_stdio_output@@AAE_NXZ 1005e870 f i libucrtd:output.obj
 0001:0005d8c0       ?state_case_normal_common@?$output_processor@DV?$stream_output_adapter@D@__crt_stdio_output@@V?$positional_parameter_base@DV?$stream_output_adapter@D@__crt_stdio_output@@@2@@__crt_stdio_output@@AAE_NXZ 1005e8c0 f i libucrtd:output.obj
 0001:0005d910       ?state_case_normal_common@?$output_processor@DV?$stream_output_adapter@D@__crt_stdio_output@@V?$standard_base@DV?$stream_output_adapter@D@__crt_stdio_output@@@2@@__crt_stdio_output@@AAE_NXZ 1005e910 f i libucrtd:output.obj
 0001:0005d960       ?state_case_normal_common@?$output_processor@DV?$string_output_adapter@D@__crt_stdio_output@@V?$format_validation_base@DV?$string_output_adapter@D@__crt_stdio_output@@@2@@__crt_stdio_output@@AAE_NXZ 1005e960 f i libucrtd:output.obj
 0001:0005d9b0       ?state_case_normal_common@?$output_processor@DV?$string_output_adapter@D@__crt_stdio_output@@V?$positional_parameter_base@DV?$string_output_adapter@D@__crt_stdio_output@@@2@@__crt_stdio_output@@AAE_NXZ 1005e9b0 f i libucrtd:output.obj
 0001:0005da00       ?state_case_normal_common@?$output_processor@DV?$string_output_adapter@D@__crt_stdio_output@@V?$standard_base@DV?$string_output_adapter@D@__crt_stdio_output@@@2@@__crt_stdio_output@@AAE_NXZ 1005ea00 f i libucrtd:output.obj
 0001:0005da50       ?state_case_normal_common@?$output_processor@_WV?$stream_output_adapter@_W@__crt_stdio_output@@V?$format_validation_base@_WV?$stream_output_adapter@_W@__crt_stdio_output@@@2@@__crt_stdio_output@@AAE_NXZ 1005ea50 f i libucrtd:output.obj
 0001:0005daa0       ?state_case_normal_common@?$output_processor@_WV?$stream_output_adapter@_W@__crt_stdio_output@@V?$positional_parameter_base@_WV?$stream_output_adapter@_W@__crt_stdio_output@@@2@@__crt_stdio_output@@AAE_NXZ 1005eaa0 f i libucrtd:output.obj
 0001:0005daf0       ?state_case_normal_common@?$output_processor@_WV?$stream_output_adapter@_W@__crt_stdio_output@@V?$standard_base@_WV?$stream_output_adapter@_W@__crt_stdio_output@@@2@@__crt_stdio_output@@AAE_NXZ 1005eaf0 f i libucrtd:output.obj
 0001:0005db40       ?state_case_normal_common@?$output_processor@_WV?$string_output_adapter@_W@__crt_stdio_output@@V?$format_validation_base@_WV?$string_output_adapter@_W@__crt_stdio_output@@@2@@__crt_stdio_output@@AAE_NXZ 1005eb40 f i libucrtd:output.obj
 0001:0005db90       ?state_case_normal_common@?$output_processor@_WV?$string_output_adapter@_W@__crt_stdio_output@@V?$positional_parameter_base@_WV?$string_output_adapter@_W@__crt_stdio_output@@@2@@__crt_stdio_output@@AAE_NXZ 1005eb90 f i libucrtd:output.obj
 0001:0005dbe0       ?state_case_normal_common@?$output_processor@_WV?$string_output_adapter@_W@__crt_stdio_output@@V?$standard_base@_WV?$string_output_adapter@_W@__crt_stdio_output@@@2@@__crt_stdio_output@@AAE_NXZ 1005ebe0 f i libucrtd:output.obj
 0001:0005dc30       ?state_case_normal_tchar@?$output_processor@DV?$stream_output_adapter@D@__crt_stdio_output@@V?$format_validation_base@DV?$stream_output_adapter@D@__crt_stdio_output@@@2@@__crt_stdio_output@@AAE_ND@Z 1005ec30 f i libucrtd:output.obj
 0001:0005dd60       ?state_case_normal_tchar@?$output_processor@DV?$stream_output_adapter@D@__crt_stdio_output@@V?$positional_parameter_base@DV?$stream_output_adapter@D@__crt_stdio_output@@@2@@__crt_stdio_output@@AAE_ND@Z 1005ed60 f i libucrtd:output.obj
 0001:0005de90       ?state_case_normal_tchar@?$output_processor@DV?$stream_output_adapter@D@__crt_stdio_output@@V?$standard_base@DV?$stream_output_adapter@D@__crt_stdio_output@@@2@@__crt_stdio_output@@AAE_ND@Z 1005ee90 f i libucrtd:output.obj
 0001:0005dfc0       ?state_case_normal_tchar@?$output_processor@DV?$string_output_adapter@D@__crt_stdio_output@@V?$format_validation_base@DV?$string_output_adapter@D@__crt_stdio_output@@@2@@__crt_stdio_output@@AAE_ND@Z 1005efc0 f i libucrtd:output.obj
 0001:0005e0f0       ?state_case_normal_tchar@?$output_processor@DV?$string_output_adapter@D@__crt_stdio_output@@V?$positional_parameter_base@DV?$string_output_adapter@D@__crt_stdio_output@@@2@@__crt_stdio_output@@AAE_ND@Z 1005f0f0 f i libucrtd:output.obj
 0001:0005e220       ?state_case_normal_tchar@?$output_processor@DV?$string_output_adapter@D@__crt_stdio_output@@V?$standard_base@DV?$string_output_adapter@D@__crt_stdio_output@@@2@@__crt_stdio_output@@AAE_ND@Z 1005f220 f i libucrtd:output.obj
 0001:0005e350       ?state_case_normal_tchar@?$output_processor@_WV?$stream_output_adapter@_W@__crt_stdio_output@@V?$format_validation_base@_WV?$stream_output_adapter@_W@__crt_stdio_output@@@2@@__crt_stdio_output@@AAE_N_W@Z 1005f350 f i libucrtd:output.obj
 0001:0005e370       ?state_case_normal_tchar@?$output_processor@_WV?$stream_output_adapter@_W@__crt_stdio_output@@V?$positional_parameter_base@_WV?$stream_output_adapter@_W@__crt_stdio_output@@@2@@__crt_stdio_output@@AAE_N_W@Z 1005f370 f i libucrtd:output.obj
 0001:0005e390       ?state_case_normal_tchar@?$output_processor@_WV?$stream_output_adapter@_W@__crt_stdio_output@@V?$standard_base@_WV?$stream_output_adapter@_W@__crt_stdio_output@@@2@@__crt_stdio_output@@AAE_N_W@Z 1005f390 f i libucrtd:output.obj
 0001:0005e3b0       ?state_case_normal_tchar@?$output_processor@_WV?$string_output_adapter@_W@__crt_stdio_output@@V?$format_validation_base@_WV?$string_output_adapter@_W@__crt_stdio_output@@@2@@__crt_stdio_output@@AAE_N_W@Z 1005f3b0 f i libucrtd:output.obj
 0001:0005e3d0       ?state_case_normal_tchar@?$output_processor@_WV?$string_output_adapter@_W@__crt_stdio_output@@V?$positional_parameter_base@_WV?$string_output_adapter@_W@__crt_stdio_output@@@2@@__crt_stdio_output@@AAE_N_W@Z 1005f3d0 f i libucrtd:output.obj
 0001:0005e3f0       ?state_case_normal_tchar@?$output_processor@_WV?$string_output_adapter@_W@__crt_stdio_output@@V?$standard_base@_WV?$string_output_adapter@_W@__crt_stdio_output@@@2@@__crt_stdio_output@@AAE_N_W@Z 1005f3f0 f i libucrtd:output.obj
 0001:0005e410       ?state_case_percent@?$output_processor@DV?$stream_output_adapter@D@__crt_stdio_output@@V?$format_validation_base@DV?$stream_output_adapter@D@__crt_stdio_output@@@2@@__crt_stdio_output@@AAE_NXZ 1005f410 f i libucrtd:output.obj
 0001:0005e460       ?state_case_percent@?$output_processor@DV?$stream_output_adapter@D@__crt_stdio_output@@V?$positional_parameter_base@DV?$stream_output_adapter@D@__crt_stdio_output@@@2@@__crt_stdio_output@@AAE_NXZ 1005f460 f i libucrtd:output.obj
 0001:0005e4b0       ?state_case_percent@?$output_processor@DV?$stream_output_adapter@D@__crt_stdio_output@@V?$standard_base@DV?$stream_output_adapter@D@__crt_stdio_output@@@2@@__crt_stdio_output@@AAE_NXZ 1005f4b0 f i libucrtd:output.obj
 0001:0005e500       ?state_case_percent@?$output_processor@DV?$string_output_adapter@D@__crt_stdio_output@@V?$format_validation_base@DV?$string_output_adapter@D@__crt_stdio_output@@@2@@__crt_stdio_output@@AAE_NXZ 1005f500 f i libucrtd:output.obj
 0001:0005e550       ?state_case_percent@?$output_processor@DV?$string_output_adapter@D@__crt_stdio_output@@V?$positional_parameter_base@DV?$string_output_adapter@D@__crt_stdio_output@@@2@@__crt_stdio_output@@AAE_NXZ 1005f550 f i libucrtd:output.obj
 0001:0005e5a0       ?state_case_percent@?$output_processor@DV?$string_output_adapter@D@__crt_stdio_output@@V?$standard_base@DV?$string_output_adapter@D@__crt_stdio_output@@@2@@__crt_stdio_output@@AAE_NXZ 1005f5a0 f i libucrtd:output.obj
 0001:0005e5f0       ?state_case_percent@?$output_processor@_WV?$stream_output_adapter@_W@__crt_stdio_output@@V?$format_validation_base@_WV?$stream_output_adapter@_W@__crt_stdio_output@@@2@@__crt_stdio_output@@AAE_NXZ 1005f5f0 f i libucrtd:output.obj
 0001:0005e640       ?state_case_percent@?$output_processor@_WV?$stream_output_adapter@_W@__crt_stdio_output@@V?$positional_parameter_base@_WV?$stream_output_adapter@_W@__crt_stdio_output@@@2@@__crt_stdio_output@@AAE_NXZ 1005f640 f i libucrtd:output.obj
 0001:0005e690       ?state_case_percent@?$output_processor@_WV?$stream_output_adapter@_W@__crt_stdio_output@@V?$standard_base@_WV?$stream_output_adapter@_W@__crt_stdio_output@@@2@@__crt_stdio_output@@AAE_NXZ 1005f690 f i libucrtd:output.obj
 0001:0005e6e0       ?state_case_percent@?$output_processor@_WV?$string_output_adapter@_W@__crt_stdio_output@@V?$format_validation_base@_WV?$string_output_adapter@_W@__crt_stdio_output@@@2@@__crt_stdio_output@@AAE_NXZ 1005f6e0 f i libucrtd:output.obj
 0001:0005e730       ?state_case_percent@?$output_processor@_WV?$string_output_adapter@_W@__crt_stdio_output@@V?$positional_parameter_base@_WV?$string_output_adapter@_W@__crt_stdio_output@@@2@@__crt_stdio_output@@AAE_NXZ 1005f730 f i libucrtd:output.obj
 0001:0005e780       ?state_case_percent@?$output_processor@_WV?$string_output_adapter@_W@__crt_stdio_output@@V?$standard_base@_WV?$string_output_adapter@_W@__crt_stdio_output@@@2@@__crt_stdio_output@@AAE_NXZ 1005f780 f i libucrtd:output.obj
 0001:0005e7d0       ?state_case_precision@?$output_processor@DV?$stream_output_adapter@D@__crt_stdio_output@@V?$format_validation_base@DV?$stream_output_adapter@D@__crt_stdio_output@@@2@@__crt_stdio_output@@AAE_NXZ 1005f7d0 f i libucrtd:output.obj
 0001:0005e840       ?state_case_precision@?$output_processor@DV?$stream_output_adapter@D@__crt_stdio_output@@V?$positional_parameter_base@DV?$stream_output_adapter@D@__crt_stdio_output@@@2@@__crt_stdio_output@@AAE_NXZ 1005f840 f i libucrtd:output.obj
 0001:0005e8b0       ?state_case_precision@?$output_processor@DV?$stream_output_adapter@D@__crt_stdio_output@@V?$standard_base@DV?$stream_output_adapter@D@__crt_stdio_output@@@2@@__crt_stdio_output@@AAE_NXZ 1005f8b0 f i libucrtd:output.obj
 0001:0005e920       ?state_case_precision@?$output_processor@DV?$string_output_adapter@D@__crt_stdio_output@@V?$format_validation_base@DV?$string_output_adapter@D@__crt_stdio_output@@@2@@__crt_stdio_output@@AAE_NXZ 1005f920 f i libucrtd:output.obj
 0001:0005e990       ?state_case_precision@?$output_processor@DV?$string_output_adapter@D@__crt_stdio_output@@V?$positional_parameter_base@DV?$string_output_adapter@D@__crt_stdio_output@@@2@@__crt_stdio_output@@AAE_NXZ 1005f990 f i libucrtd:output.obj
 0001:0005ea00       ?state_case_precision@?$output_processor@DV?$string_output_adapter@D@__crt_stdio_output@@V?$standard_base@DV?$string_output_adapter@D@__crt_stdio_output@@@2@@__crt_stdio_output@@AAE_NXZ 1005fa00 f i libucrtd:output.obj
 0001:0005ea70       ?state_case_precision@?$output_processor@_WV?$stream_output_adapter@_W@__crt_stdio_output@@V?$format_validation_base@_WV?$stream_output_adapter@_W@__crt_stdio_output@@@2@@__crt_stdio_output@@AAE_NXZ 1005fa70 f i libucrtd:output.obj
 0001:0005eae0       ?state_case_precision@?$output_processor@_WV?$stream_output_adapter@_W@__crt_stdio_output@@V?$positional_parameter_base@_WV?$stream_output_adapter@_W@__crt_stdio_output@@@2@@__crt_stdio_output@@AAE_NXZ 1005fae0 f i libucrtd:output.obj
 0001:0005eb50       ?state_case_precision@?$output_processor@_WV?$stream_output_adapter@_W@__crt_stdio_output@@V?$standard_base@_WV?$stream_output_adapter@_W@__crt_stdio_output@@@2@@__crt_stdio_output@@AAE_NXZ 1005fb50 f i libucrtd:output.obj
 0001:0005ebc0       ?state_case_precision@?$output_processor@_WV?$string_output_adapter@_W@__crt_stdio_output@@V?$format_validation_base@_WV?$string_output_adapter@_W@__crt_stdio_output@@@2@@__crt_stdio_output@@AAE_NXZ 1005fbc0 f i libucrtd:output.obj
 0001:0005ec30       ?state_case_precision@?$output_processor@_WV?$string_output_adapter@_W@__crt_stdio_output@@V?$positional_parameter_base@_WV?$string_output_adapter@_W@__crt_stdio_output@@@2@@__crt_stdio_output@@AAE_NXZ 1005fc30 f i libucrtd:output.obj
 0001:0005eca0       ?state_case_precision@?$output_processor@_WV?$string_output_adapter@_W@__crt_stdio_output@@V?$standard_base@_WV?$string_output_adapter@_W@__crt_stdio_output@@@2@@__crt_stdio_output@@AAE_NXZ 1005fca0 f i libucrtd:output.obj
 0001:0005ed10       ?state_case_size@?$output_processor@DV?$stream_output_adapter@D@__crt_stdio_output@@V?$format_validation_base@DV?$stream_output_adapter@D@__crt_stdio_output@@@2@@__crt_stdio_output@@AAE_NXZ 1005fd10 f i libucrtd:output.obj
 0001:0005f100       ?state_case_size@?$output_processor@DV?$stream_output_adapter@D@__crt_stdio_output@@V?$positional_parameter_base@DV?$stream_output_adapter@D@__crt_stdio_output@@@2@@__crt_stdio_output@@AAE_NXZ 10060100 f i libucrtd:output.obj
 0001:0005f4f0       ?state_case_size@?$output_processor@DV?$stream_output_adapter@D@__crt_stdio_output@@V?$standard_base@DV?$stream_output_adapter@D@__crt_stdio_output@@@2@@__crt_stdio_output@@AAE_NXZ 100604f0 f i libucrtd:output.obj
 0001:0005f8e0       ?state_case_size@?$output_processor@DV?$string_output_adapter@D@__crt_stdio_output@@V?$format_validation_base@DV?$string_output_adapter@D@__crt_stdio_output@@@2@@__crt_stdio_output@@AAE_NXZ 100608e0 f i libucrtd:output.obj
 0001:0005fcd0       ?state_case_size@?$output_processor@DV?$string_output_adapter@D@__crt_stdio_output@@V?$positional_parameter_base@DV?$string_output_adapter@D@__crt_stdio_output@@@2@@__crt_stdio_output@@AAE_NXZ 10060cd0 f i libucrtd:output.obj
 0001:000600c0       ?state_case_size@?$output_processor@DV?$string_output_adapter@D@__crt_stdio_output@@V?$standard_base@DV?$string_output_adapter@D@__crt_stdio_output@@@2@@__crt_stdio_output@@AAE_NXZ 100610c0 f i libucrtd:output.obj
 0001:000604b0       ?state_case_size@?$output_processor@_WV?$stream_output_adapter@_W@__crt_stdio_output@@V?$format_validation_base@_WV?$stream_output_adapter@_W@__crt_stdio_output@@@2@@__crt_stdio_output@@AAE_NXZ 100614b0 f i libucrtd:output.obj
 0001:000608a0       ?state_case_size@?$output_processor@_WV?$stream_output_adapter@_W@__crt_stdio_output@@V?$positional_parameter_base@_WV?$stream_output_adapter@_W@__crt_stdio_output@@@2@@__crt_stdio_output@@AAE_NXZ 100618a0 f i libucrtd:output.obj
 0001:00060c90       ?state_case_size@?$output_processor@_WV?$stream_output_adapter@_W@__crt_stdio_output@@V?$standard_base@_WV?$stream_output_adapter@_W@__crt_stdio_output@@@2@@__crt_stdio_output@@AAE_NXZ 10061c90 f i libucrtd:output.obj
 0001:00061080       ?state_case_size@?$output_processor@_WV?$string_output_adapter@_W@__crt_stdio_output@@V?$format_validation_base@_WV?$string_output_adapter@_W@__crt_stdio_output@@@2@@__crt_stdio_output@@AAE_NXZ 10062080 f i libucrtd:output.obj
 0001:00061470       ?state_case_size@?$output_processor@_WV?$string_output_adapter@_W@__crt_stdio_output@@V?$positional_parameter_base@_WV?$string_output_adapter@_W@__crt_stdio_output@@@2@@__crt_stdio_output@@AAE_NXZ 10062470 f i libucrtd:output.obj
 0001:00061860       ?state_case_size@?$output_processor@_WV?$string_output_adapter@_W@__crt_stdio_output@@V?$standard_base@_WV?$string_output_adapter@_W@__crt_stdio_output@@@2@@__crt_stdio_output@@AAE_NXZ 10062860 f i libucrtd:output.obj
 0001:00061c50       ?state_case_type@?$output_processor@DV?$stream_output_adapter@D@__crt_stdio_output@@V?$format_validation_base@DV?$stream_output_adapter@D@__crt_stdio_output@@@2@@__crt_stdio_output@@AAE_NXZ 10062c50 f i libucrtd:output.obj
 0001:00062020       ?state_case_type@?$output_processor@DV?$stream_output_adapter@D@__crt_stdio_output@@V?$positional_parameter_base@DV?$stream_output_adapter@D@__crt_stdio_output@@@2@@__crt_stdio_output@@AAE_NXZ 10063020 f i libucrtd:output.obj
 0001:000623f0       ?state_case_type@?$output_processor@DV?$stream_output_adapter@D@__crt_stdio_output@@V?$standard_base@DV?$stream_output_adapter@D@__crt_stdio_output@@@2@@__crt_stdio_output@@AAE_NXZ 100633f0 f i libucrtd:output.obj
 0001:000627c0       ?state_case_type@?$output_processor@DV?$string_output_adapter@D@__crt_stdio_output@@V?$format_validation_base@DV?$string_output_adapter@D@__crt_stdio_output@@@2@@__crt_stdio_output@@AAE_NXZ 100637c0 f i libucrtd:output.obj
 0001:00062b90       ?state_case_type@?$output_processor@DV?$string_output_adapter@D@__crt_stdio_output@@V?$positional_parameter_base@DV?$string_output_adapter@D@__crt_stdio_output@@@2@@__crt_stdio_output@@AAE_NXZ 10063b90 f i libucrtd:output.obj
 0001:00062f60       ?state_case_type@?$output_processor@DV?$string_output_adapter@D@__crt_stdio_output@@V?$standard_base@DV?$string_output_adapter@D@__crt_stdio_output@@@2@@__crt_stdio_output@@AAE_NXZ 10063f60 f i libucrtd:output.obj
 0001:00063330       ?state_case_type@?$output_processor@_WV?$stream_output_adapter@_W@__crt_stdio_output@@V?$format_validation_base@_WV?$stream_output_adapter@_W@__crt_stdio_output@@@2@@__crt_stdio_output@@AAE_NXZ 10064330 f i libucrtd:output.obj
 0001:00063730       ?state_case_type@?$output_processor@_WV?$stream_output_adapter@_W@__crt_stdio_output@@V?$positional_parameter_base@_WV?$stream_output_adapter@_W@__crt_stdio_output@@@2@@__crt_stdio_output@@AAE_NXZ 10064730 f i libucrtd:output.obj
 0001:00063b30       ?state_case_type@?$output_processor@_WV?$stream_output_adapter@_W@__crt_stdio_output@@V?$standard_base@_WV?$stream_output_adapter@_W@__crt_stdio_output@@@2@@__crt_stdio_output@@AAE_NXZ 10064b30 f i libucrtd:output.obj
 0001:00063f30       ?state_case_type@?$output_processor@_WV?$string_output_adapter@_W@__crt_stdio_output@@V?$format_validation_base@_WV?$string_output_adapter@_W@__crt_stdio_output@@@2@@__crt_stdio_output@@AAE_NXZ 10064f30 f i libucrtd:output.obj
 0001:00064330       ?state_case_type@?$output_processor@_WV?$string_output_adapter@_W@__crt_stdio_output@@V?$positional_parameter_base@_WV?$string_output_adapter@_W@__crt_stdio_output@@@2@@__crt_stdio_output@@AAE_NXZ 10065330 f i libucrtd:output.obj
 0001:00064730       ?state_case_type@?$output_processor@_WV?$string_output_adapter@_W@__crt_stdio_output@@V?$standard_base@_WV?$string_output_adapter@_W@__crt_stdio_output@@@2@@__crt_stdio_output@@AAE_NXZ 10065730 f i libucrtd:output.obj
 0001:00064b30       ?state_case_width@?$output_processor@DV?$stream_output_adapter@D@__crt_stdio_output@@V?$format_validation_base@DV?$stream_output_adapter@D@__crt_stdio_output@@@2@@__crt_stdio_output@@AAE_NXZ 10065b30 f i libucrtd:output.obj
 0001:00064bb0       ?state_case_width@?$output_processor@DV?$stream_output_adapter@D@__crt_stdio_output@@V?$positional_parameter_base@DV?$stream_output_adapter@D@__crt_stdio_output@@@2@@__crt_stdio_output@@AAE_NXZ 10065bb0 f i libucrtd:output.obj
 0001:00064c30       ?state_case_width@?$output_processor@DV?$stream_output_adapter@D@__crt_stdio_output@@V?$standard_base@DV?$stream_output_adapter@D@__crt_stdio_output@@@2@@__crt_stdio_output@@AAE_NXZ 10065c30 f i libucrtd:output.obj
 0001:00064cb0       ?state_case_width@?$output_processor@DV?$string_output_adapter@D@__crt_stdio_output@@V?$format_validation_base@DV?$string_output_adapter@D@__crt_stdio_output@@@2@@__crt_stdio_output@@AAE_NXZ 10065cb0 f i libucrtd:output.obj
 0001:00064d30       ?state_case_width@?$output_processor@DV?$string_output_adapter@D@__crt_stdio_output@@V?$positional_parameter_base@DV?$string_output_adapter@D@__crt_stdio_output@@@2@@__crt_stdio_output@@AAE_NXZ 10065d30 f i libucrtd:output.obj
 0001:00064db0       ?state_case_width@?$output_processor@DV?$string_output_adapter@D@__crt_stdio_output@@V?$standard_base@DV?$string_output_adapter@D@__crt_stdio_output@@@2@@__crt_stdio_output@@AAE_NXZ 10065db0 f i libucrtd:output.obj
 0001:00064e30       ?state_case_width@?$output_processor@_WV?$stream_output_adapter@_W@__crt_stdio_output@@V?$format_validation_base@_WV?$stream_output_adapter@_W@__crt_stdio_output@@@2@@__crt_stdio_output@@AAE_NXZ 10065e30 f i libucrtd:output.obj
 0001:00064eb0       ?state_case_width@?$output_processor@_WV?$stream_output_adapter@_W@__crt_stdio_output@@V?$positional_parameter_base@_WV?$stream_output_adapter@_W@__crt_stdio_output@@@2@@__crt_stdio_output@@AAE_NXZ 10065eb0 f i libucrtd:output.obj
 0001:00064f30       ?state_case_width@?$output_processor@_WV?$stream_output_adapter@_W@__crt_stdio_output@@V?$standard_base@_WV?$stream_output_adapter@_W@__crt_stdio_output@@@2@@__crt_stdio_output@@AAE_NXZ 10065f30 f i libucrtd:output.obj
 0001:00064fb0       ?state_case_width@?$output_processor@_WV?$string_output_adapter@_W@__crt_stdio_output@@V?$format_validation_base@_WV?$string_output_adapter@_W@__crt_stdio_output@@@2@@__crt_stdio_output@@AAE_NXZ 10065fb0 f i libucrtd:output.obj
 0001:00065030       ?state_case_width@?$output_processor@_WV?$string_output_adapter@_W@__crt_stdio_output@@V?$positional_parameter_base@_WV?$string_output_adapter@_W@__crt_stdio_output@@@2@@__crt_stdio_output@@AAE_NXZ 10066030 f i libucrtd:output.obj
 0001:000650b0       ?state_case_width@?$output_processor@_WV?$string_output_adapter@_W@__crt_stdio_output@@V?$standard_base@_WV?$string_output_adapter@_W@__crt_stdio_output@@@2@@__crt_stdio_output@@AAE_NXZ 100660b0 f i libucrtd:output.obj
 0001:00065130       ?state_count@?$format_validation_base@DV?$stream_output_adapter@D@__crt_stdio_output@@@__crt_stdio_output@@KAIXZ 10066130 f i libucrtd:output.obj
 0001:00065140       ?state_count@?$format_validation_base@DV?$string_output_adapter@D@__crt_stdio_output@@@__crt_stdio_output@@KAIXZ 10066140 f i libucrtd:output.obj
 0001:00065150       ?state_count@?$format_validation_base@_WV?$stream_output_adapter@_W@__crt_stdio_output@@@__crt_stdio_output@@KAIXZ 10066150 f i libucrtd:output.obj
 0001:00065160       ?state_count@?$format_validation_base@_WV?$string_output_adapter@_W@__crt_stdio_output@@@__crt_stdio_output@@KAIXZ 10066160 f i libucrtd:output.obj
 0001:00065170       ?state_count@?$standard_base@DV?$stream_output_adapter@D@__crt_stdio_output@@@__crt_stdio_output@@KAIXZ 10066170 f i libucrtd:output.obj
 0001:00065180       ?state_count@?$standard_base@DV?$string_output_adapter@D@__crt_stdio_output@@@__crt_stdio_output@@KAIXZ 10066180 f i libucrtd:output.obj
 0001:00065190       ?state_count@?$standard_base@_WV?$stream_output_adapter@_W@__crt_stdio_output@@@__crt_stdio_output@@KAIXZ 10066190 f i libucrtd:output.obj
 0001:000651a0       ?state_count@?$standard_base@_WV?$string_output_adapter@_W@__crt_stdio_output@@@__crt_stdio_output@@KAIXZ 100661a0 f i libucrtd:output.obj
 0001:000651b0       ?state_transition_table@?$format_validation_base@DV?$stream_output_adapter@D@__crt_stdio_output@@@__crt_stdio_output@@KAABV?$spectre_mitigated_lookup_table@Ustate_transition_pair@__crt_stdio_output@@$0IA@@2@XZ 100661b0 f i libucrtd:output.obj
 0001:000651c0       ?state_transition_table@?$format_validation_base@DV?$string_output_adapter@D@__crt_stdio_output@@@__crt_stdio_output@@KAABV?$spectre_mitigated_lookup_table@Ustate_transition_pair@__crt_stdio_output@@$0IA@@2@XZ 100661c0 f i libucrtd:output.obj
 0001:000651d0       ?state_transition_table@?$format_validation_base@_WV?$stream_output_adapter@_W@__crt_stdio_output@@@__crt_stdio_output@@KAABV?$spectre_mitigated_lookup_table@Ustate_transition_pair@__crt_stdio_output@@$0IA@@2@XZ 100661d0 f i libucrtd:output.obj
 0001:000651e0       ?state_transition_table@?$format_validation_base@_WV?$string_output_adapter@_W@__crt_stdio_output@@@__crt_stdio_output@@KAABV?$spectre_mitigated_lookup_table@Ustate_transition_pair@__crt_stdio_output@@$0IA@@2@XZ 100661e0 f i libucrtd:output.obj
 0001:000651f0       ?state_transition_table@?$standard_base@DV?$stream_output_adapter@D@__crt_stdio_output@@@__crt_stdio_output@@KAABV?$spectre_mitigated_lookup_table@Ustate_transition_pair@__crt_stdio_output@@$0IA@@2@XZ 100661f0 f i libucrtd:output.obj
 0001:00065200       ?state_transition_table@?$standard_base@DV?$string_output_adapter@D@__crt_stdio_output@@@__crt_stdio_output@@KAABV?$spectre_mitigated_lookup_table@Ustate_transition_pair@__crt_stdio_output@@$0IA@@2@XZ 10066200 f i libucrtd:output.obj
 0001:00065210       ?state_transition_table@?$standard_base@_WV?$stream_output_adapter@_W@__crt_stdio_output@@@__crt_stdio_output@@KAABV?$spectre_mitigated_lookup_table@Ustate_transition_pair@__crt_stdio_output@@$0IA@@2@XZ 10066210 f i libucrtd:output.obj
 0001:00065220       ?state_transition_table@?$standard_base@_WV?$string_output_adapter@_W@__crt_stdio_output@@@__crt_stdio_output@@KAABV?$spectre_mitigated_lookup_table@Ustate_transition_pair@__crt_stdio_output@@$0IA@@2@XZ 10066220 f i libucrtd:output.obj
 0001:00065230       ?tchar_string@?$common_data@D@__crt_stdio_output@@IAEAAPADD@Z 10066230 f i libucrtd:output.obj
 0001:00065250       ?tchar_string@?$common_data@D@__crt_stdio_output@@IAEAAPADXZ 10066250 f i libucrtd:output.obj
 0001:00065270       ?tchar_string@?$common_data@_W@__crt_stdio_output@@IAEAAPA_WXZ 10066270 f i libucrtd:output.obj
 0001:00065290       ?tchar_string@?$common_data@_W@__crt_stdio_output@@IAEAAPA_W_W@Z 10066290 f i libucrtd:output.obj
 0001:000652b0       ?to_integer_size@__crt_stdio_output@@YAIW4length_modifier@1@@Z 100662b0 f i libucrtd:output.obj
 0001:00065350       ?type_case_X@?$output_processor@DV?$stream_output_adapter@D@__crt_stdio_output@@V?$format_validation_base@DV?$stream_output_adapter@D@__crt_stdio_output@@@2@@__crt_stdio_output@@AAE_NXZ 10066350 f i libucrtd:output.obj
 0001:00065370       ?type_case_X@?$output_processor@DV?$stream_output_adapter@D@__crt_stdio_output@@V?$positional_parameter_base@DV?$stream_output_adapter@D@__crt_stdio_output@@@2@@__crt_stdio_output@@AAE_NXZ 10066370 f i libucrtd:output.obj
 0001:00065390       ?type_case_X@?$output_processor@DV?$stream_output_adapter@D@__crt_stdio_output@@V?$standard_base@DV?$stream_output_adapter@D@__crt_stdio_output@@@2@@__crt_stdio_output@@AAE_NXZ 10066390 f i libucrtd:output.obj
 0001:000653b0       ?type_case_X@?$output_processor@DV?$string_output_adapter@D@__crt_stdio_output@@V?$format_validation_base@DV?$string_output_adapter@D@__crt_stdio_output@@@2@@__crt_stdio_output@@AAE_NXZ 100663b0 f i libucrtd:output.obj
 0001:000653d0       ?type_case_X@?$output_processor@DV?$string_output_adapter@D@__crt_stdio_output@@V?$positional_parameter_base@DV?$string_output_adapter@D@__crt_stdio_output@@@2@@__crt_stdio_output@@AAE_NXZ 100663d0 f i libucrtd:output.obj
 0001:000653f0       ?type_case_X@?$output_processor@DV?$string_output_adapter@D@__crt_stdio_output@@V?$standard_base@DV?$string_output_adapter@D@__crt_stdio_output@@@2@@__crt_stdio_output@@AAE_NXZ 100663f0 f i libucrtd:output.obj
 0001:00065410       ?type_case_X@?$output_processor@_WV?$stream_output_adapter@_W@__crt_stdio_output@@V?$format_validation_base@_WV?$stream_output_adapter@_W@__crt_stdio_output@@@2@@__crt_stdio_output@@AAE_NXZ 10066410 f i libucrtd:output.obj
 0001:00065430       ?type_case_X@?$output_processor@_WV?$stream_output_adapter@_W@__crt_stdio_output@@V?$positional_parameter_base@_WV?$stream_output_adapter@_W@__crt_stdio_output@@@2@@__crt_stdio_output@@AAE_NXZ 10066430 f i libucrtd:output.obj
 0001:00065450       ?type_case_X@?$output_processor@_WV?$stream_output_adapter@_W@__crt_stdio_output@@V?$standard_base@_WV?$stream_output_adapter@_W@__crt_stdio_output@@@2@@__crt_stdio_output@@AAE_NXZ 10066450 f i libucrtd:output.obj
 0001:00065470       ?type_case_X@?$output_processor@_WV?$string_output_adapter@_W@__crt_stdio_output@@V?$format_validation_base@_WV?$string_output_adapter@_W@__crt_stdio_output@@@2@@__crt_stdio_output@@AAE_NXZ 10066470 f i libucrtd:output.obj
 0001:00065490       ?type_case_X@?$output_processor@_WV?$string_output_adapter@_W@__crt_stdio_output@@V?$positional_parameter_base@_WV?$string_output_adapter@_W@__crt_stdio_output@@@2@@__crt_stdio_output@@AAE_NXZ 10066490 f i libucrtd:output.obj
 0001:000654b0       ?type_case_X@?$output_processor@_WV?$string_output_adapter@_W@__crt_stdio_output@@V?$standard_base@_WV?$string_output_adapter@_W@__crt_stdio_output@@@2@@__crt_stdio_output@@AAE_NXZ 100664b0 f i libucrtd:output.obj
 0001:000654d0       ?type_case_Z@?$output_processor@DV?$stream_output_adapter@D@__crt_stdio_output@@V?$format_validation_base@DV?$stream_output_adapter@D@__crt_stdio_output@@@2@@__crt_stdio_output@@AAE_NXZ 100664d0 f i libucrtd:output.obj
 0001:000655c0       ?type_case_Z@?$output_processor@DV?$stream_output_adapter@D@__crt_stdio_output@@V?$positional_parameter_base@DV?$stream_output_adapter@D@__crt_stdio_output@@@2@@__crt_stdio_output@@AAE_NXZ 100665c0 f i libucrtd:output.obj
 0001:000656b0       ?type_case_Z@?$output_processor@DV?$stream_output_adapter@D@__crt_stdio_output@@V?$standard_base@DV?$stream_output_adapter@D@__crt_stdio_output@@@2@@__crt_stdio_output@@AAE_NXZ 100666b0 f i libucrtd:output.obj
 0001:000657a0       ?type_case_Z@?$output_processor@DV?$string_output_adapter@D@__crt_stdio_output@@V?$format_validation_base@DV?$string_output_adapter@D@__crt_stdio_output@@@2@@__crt_stdio_output@@AAE_NXZ 100667a0 f i libucrtd:output.obj
 0001:00065890       ?type_case_Z@?$output_processor@DV?$string_output_adapter@D@__crt_stdio_output@@V?$positional_parameter_base@DV?$string_output_adapter@D@__crt_stdio_output@@@2@@__crt_stdio_output@@AAE_NXZ 10066890 f i libucrtd:output.obj
 0001:00065980       ?type_case_Z@?$output_processor@DV?$string_output_adapter@D@__crt_stdio_output@@V?$standard_base@DV?$string_output_adapter@D@__crt_stdio_output@@@2@@__crt_stdio_output@@AAE_NXZ 10066980 f i libucrtd:output.obj
 0001:00065a70       ?type_case_Z@?$output_processor@_WV?$stream_output_adapter@_W@__crt_stdio_output@@V?$format_validation_base@_WV?$stream_output_adapter@_W@__crt_stdio_output@@@2@@__crt_stdio_output@@AAE_NXZ 10066a70 f i libucrtd:output.obj
 0001:00065b60       ?type_case_Z@?$output_processor@_WV?$stream_output_adapter@_W@__crt_stdio_output@@V?$positional_parameter_base@_WV?$stream_output_adapter@_W@__crt_stdio_output@@@2@@__crt_stdio_output@@AAE_NXZ 10066b60 f i libucrtd:output.obj
 0001:00065c50       ?type_case_Z@?$output_processor@_WV?$stream_output_adapter@_W@__crt_stdio_output@@V?$standard_base@_WV?$stream_output_adapter@_W@__crt_stdio_output@@@2@@__crt_stdio_output@@AAE_NXZ 10066c50 f i libucrtd:output.obj
 0001:00065d40       ?type_case_Z@?$output_processor@_WV?$string_output_adapter@_W@__crt_stdio_output@@V?$format_validation_base@_WV?$string_output_adapter@_W@__crt_stdio_output@@@2@@__crt_stdio_output@@AAE_NXZ 10066d40 f i libucrtd:output.obj
 0001:00065e30       ?type_case_Z@?$output_processor@_WV?$string_output_adapter@_W@__crt_stdio_output@@V?$positional_parameter_base@_WV?$string_output_adapter@_W@__crt_stdio_output@@@2@@__crt_stdio_output@@AAE_NXZ 10066e30 f i libucrtd:output.obj
 0001:00065f20       ?type_case_Z@?$output_processor@_WV?$string_output_adapter@_W@__crt_stdio_output@@V?$standard_base@_WV?$string_output_adapter@_W@__crt_stdio_output@@@2@@__crt_stdio_output@@AAE_NXZ 10066f20 f i libucrtd:output.obj
 0001:00066010       ?type_case_a@?$output_processor@DV?$stream_output_adapter@D@__crt_stdio_output@@V?$format_validation_base@DV?$stream_output_adapter@D@__crt_stdio_output@@@2@@__crt_stdio_output@@AAE_NXZ 10067010 f i libucrtd:output.obj
 0001:000662e0       ?type_case_a@?$output_processor@DV?$stream_output_adapter@D@__crt_stdio_output@@V?$positional_parameter_base@DV?$stream_output_adapter@D@__crt_stdio_output@@@2@@__crt_stdio_output@@AAE_NXZ 100672e0 f i libucrtd:output.obj
 0001:000665b0       ?type_case_a@?$output_processor@DV?$stream_output_adapter@D@__crt_stdio_output@@V?$standard_base@DV?$stream_output_adapter@D@__crt_stdio_output@@@2@@__crt_stdio_output@@AAE_NXZ 100675b0 f i libucrtd:output.obj
 0001:00066880       ?type_case_a@?$output_processor@DV?$string_output_adapter@D@__crt_stdio_output@@V?$format_validation_base@DV?$string_output_adapter@D@__crt_stdio_output@@@2@@__crt_stdio_output@@AAE_NXZ 10067880 f i libucrtd:output.obj
 0001:00066b50       ?type_case_a@?$output_processor@DV?$string_output_adapter@D@__crt_stdio_output@@V?$positional_parameter_base@DV?$string_output_adapter@D@__crt_stdio_output@@@2@@__crt_stdio_output@@AAE_NXZ 10067b50 f i libucrtd:output.obj
 0001:00066e20       ?type_case_a@?$output_processor@DV?$string_output_adapter@D@__crt_stdio_output@@V?$standard_base@DV?$string_output_adapter@D@__crt_stdio_output@@@2@@__crt_stdio_output@@AAE_NXZ 10067e20 f i libucrtd:output.obj
 0001:000670f0       ?type_case_a@?$output_processor@_WV?$stream_output_adapter@_W@__crt_stdio_output@@V?$format_validation_base@_WV?$stream_output_adapter@_W@__crt_stdio_output@@@2@@__crt_stdio_output@@AAE_NXZ 100680f0 f i libucrtd:output.obj
 0001:000673c0       ?type_case_a@?$output_processor@_WV?$stream_output_adapter@_W@__crt_stdio_output@@V?$positional_parameter_base@_WV?$stream_output_adapter@_W@__crt_stdio_output@@@2@@__crt_stdio_output@@AAE_NXZ 100683c0 f i libucrtd:output.obj
 0001:00067690       ?type_case_a@?$output_processor@_WV?$stream_output_adapter@_W@__crt_stdio_output@@V?$standard_base@_WV?$stream_output_adapter@_W@__crt_stdio_output@@@2@@__crt_stdio_output@@AAE_NXZ 10068690 f i libucrtd:output.obj
 0001:00067960       ?type_case_a@?$output_processor@_WV?$string_output_adapter@_W@__crt_stdio_output@@V?$format_validation_base@_WV?$string_output_adapter@_W@__crt_stdio_output@@@2@@__crt_stdio_output@@AAE_NXZ 10068960 f i libucrtd:output.obj
 0001:00067c30       ?type_case_a@?$output_processor@_WV?$string_output_adapter@_W@__crt_stdio_output@@V?$positional_parameter_base@_WV?$string_output_adapter@_W@__crt_stdio_output@@@2@@__crt_stdio_output@@AAE_NXZ 10068c30 f i libucrtd:output.obj
 0001:00067f00       ?type_case_a@?$output_processor@_WV?$string_output_adapter@_W@__crt_stdio_output@@V?$standard_base@_WV?$string_output_adapter@_W@__crt_stdio_output@@@2@@__crt_stdio_output@@AAE_NXZ 10068f00 f i libucrtd:output.obj
 0001:000681d0       ?type_case_c@?$output_processor@DV?$stream_output_adapter@D@__crt_stdio_output@@V?$format_validation_base@DV?$stream_output_adapter@D@__crt_stdio_output@@@2@@__crt_stdio_output@@AAE_NXZ 100691d0 f i libucrtd:output.obj
 0001:000681f0       ?type_case_c@?$output_processor@DV?$stream_output_adapter@D@__crt_stdio_output@@V?$positional_parameter_base@DV?$stream_output_adapter@D@__crt_stdio_output@@@2@@__crt_stdio_output@@AAE_NXZ 100691f0 f i libucrtd:output.obj
 0001:00068210       ?type_case_c@?$output_processor@DV?$stream_output_adapter@D@__crt_stdio_output@@V?$standard_base@DV?$stream_output_adapter@D@__crt_stdio_output@@@2@@__crt_stdio_output@@AAE_NXZ 10069210 f i libucrtd:output.obj
 0001:00068230       ?type_case_c@?$output_processor@DV?$string_output_adapter@D@__crt_stdio_output@@V?$format_validation_base@DV?$string_output_adapter@D@__crt_stdio_output@@@2@@__crt_stdio_output@@AAE_NXZ 10069230 f i libucrtd:output.obj
 0001:00068250       ?type_case_c@?$output_processor@DV?$string_output_adapter@D@__crt_stdio_output@@V?$positional_parameter_base@DV?$string_output_adapter@D@__crt_stdio_output@@@2@@__crt_stdio_output@@AAE_NXZ 10069250 f i libucrtd:output.obj
 0001:00068270       ?type_case_c@?$output_processor@DV?$string_output_adapter@D@__crt_stdio_output@@V?$standard_base@DV?$string_output_adapter@D@__crt_stdio_output@@@2@@__crt_stdio_output@@AAE_NXZ 10069270 f i libucrtd:output.obj
 0001:00068290       ?type_case_c@?$output_processor@_WV?$stream_output_adapter@_W@__crt_stdio_output@@V?$format_validation_base@_WV?$stream_output_adapter@_W@__crt_stdio_output@@@2@@__crt_stdio_output@@AAE_NXZ 10069290 f i libucrtd:output.obj
 0001:000682b0       ?type_case_c@?$output_processor@_WV?$stream_output_adapter@_W@__crt_stdio_output@@V?$positional_parameter_base@_WV?$stream_output_adapter@_W@__crt_stdio_output@@@2@@__crt_stdio_output@@AAE_NXZ 100692b0 f i libucrtd:output.obj
 0001:000682d0       ?type_case_c@?$output_processor@_WV?$stream_output_adapter@_W@__crt_stdio_output@@V?$standard_base@_WV?$stream_output_adapter@_W@__crt_stdio_output@@@2@@__crt_stdio_output@@AAE_NXZ 100692d0 f i libucrtd:output.obj
 0001:000682f0       ?type_case_c@?$output_processor@_WV?$string_output_adapter@_W@__crt_stdio_output@@V?$format_validation_base@_WV?$string_output_adapter@_W@__crt_stdio_output@@@2@@__crt_stdio_output@@AAE_NXZ 100692f0 f i libucrtd:output.obj
 0001:00068310       ?type_case_c@?$output_processor@_WV?$string_output_adapter@_W@__crt_stdio_output@@V?$positional_parameter_base@_WV?$string_output_adapter@_W@__crt_stdio_output@@@2@@__crt_stdio_output@@AAE_NXZ 10069310 f i libucrtd:output.obj
 0001:00068330       ?type_case_c@?$output_processor@_WV?$string_output_adapter@_W@__crt_stdio_output@@V?$standard_base@_WV?$string_output_adapter@_W@__crt_stdio_output@@@2@@__crt_stdio_output@@AAE_NXZ 10069330 f i libucrtd:output.obj
 0001:00068350       ?type_case_c_tchar@?$output_processor@DV?$stream_output_adapter@D@__crt_stdio_output@@V?$format_validation_base@DV?$stream_output_adapter@D@__crt_stdio_output@@@2@@__crt_stdio_output@@AAE_ND@Z 10069350 f i libucrtd:output.obj
 0001:00068480       ?type_case_c_tchar@?$output_processor@DV?$stream_output_adapter@D@__crt_stdio_output@@V?$positional_parameter_base@DV?$stream_output_adapter@D@__crt_stdio_output@@@2@@__crt_stdio_output@@AAE_ND@Z 10069480 f i libucrtd:output.obj
 0001:000685b0       ?type_case_c_tchar@?$output_processor@DV?$stream_output_adapter@D@__crt_stdio_output@@V?$standard_base@DV?$stream_output_adapter@D@__crt_stdio_output@@@2@@__crt_stdio_output@@AAE_ND@Z 100695b0 f i libucrtd:output.obj
 0001:000686e0       ?type_case_c_tchar@?$output_processor@DV?$string_output_adapter@D@__crt_stdio_output@@V?$format_validation_base@DV?$string_output_adapter@D@__crt_stdio_output@@@2@@__crt_stdio_output@@AAE_ND@Z 100696e0 f i libucrtd:output.obj
 0001:00068810       ?type_case_c_tchar@?$output_processor@DV?$string_output_adapter@D@__crt_stdio_output@@V?$positional_parameter_base@DV?$string_output_adapter@D@__crt_stdio_output@@@2@@__crt_stdio_output@@AAE_ND@Z 10069810 f i libucrtd:output.obj
 0001:00068940       ?type_case_c_tchar@?$output_processor@DV?$string_output_adapter@D@__crt_stdio_output@@V?$standard_base@DV?$string_output_adapter@D@__crt_stdio_output@@@2@@__crt_stdio_output@@AAE_ND@Z 10069940 f i libucrtd:output.obj
 0001:00068a70       ?type_case_c_tchar@?$output_processor@_WV?$stream_output_adapter@_W@__crt_stdio_output@@V?$format_validation_base@_WV?$stream_output_adapter@_W@__crt_stdio_output@@@2@@__crt_stdio_output@@AAE_N_W@Z 10069a70 f i libucrtd:output.obj
 0001:00068b90       ?type_case_c_tchar@?$output_processor@_WV?$stream_output_adapter@_W@__crt_stdio_output@@V?$positional_parameter_base@_WV?$stream_output_adapter@_W@__crt_stdio_output@@@2@@__crt_stdio_output@@AAE_N_W@Z 10069b90 f i libucrtd:output.obj
 0001:00068cb0       ?type_case_c_tchar@?$output_processor@_WV?$stream_output_adapter@_W@__crt_stdio_output@@V?$standard_base@_WV?$stream_output_adapter@_W@__crt_stdio_output@@@2@@__crt_stdio_output@@AAE_N_W@Z 10069cb0 f i libucrtd:output.obj
 0001:00068dd0       ?type_case_c_tchar@?$output_processor@_WV?$string_output_adapter@_W@__crt_stdio_output@@V?$format_validation_base@_WV?$string_output_adapter@_W@__crt_stdio_output@@@2@@__crt_stdio_output@@AAE_N_W@Z 10069dd0 f i libucrtd:output.obj
 0001:00068ef0       ?type_case_c_tchar@?$output_processor@_WV?$string_output_adapter@_W@__crt_stdio_output@@V?$positional_parameter_base@_WV?$string_output_adapter@_W@__crt_stdio_output@@@2@@__crt_stdio_output@@AAE_N_W@Z 10069ef0 f i libucrtd:output.obj
 0001:00069010       ?type_case_c_tchar@?$output_processor@_WV?$string_output_adapter@_W@__crt_stdio_output@@V?$standard_base@_WV?$string_output_adapter@_W@__crt_stdio_output@@@2@@__crt_stdio_output@@AAE_N_W@Z 1006a010 f i libucrtd:output.obj
 0001:00069130       ?type_case_d@?$output_processor@DV?$stream_output_adapter@D@__crt_stdio_output@@V?$format_validation_base@DV?$stream_output_adapter@D@__crt_stdio_output@@@2@@__crt_stdio_output@@AAE_NXZ 1006a130 f i libucrtd:output.obj
 0001:00069160       ?type_case_d@?$output_processor@DV?$stream_output_adapter@D@__crt_stdio_output@@V?$positional_parameter_base@DV?$stream_output_adapter@D@__crt_stdio_output@@@2@@__crt_stdio_output@@AAE_NXZ 1006a160 f i libucrtd:output.obj
 0001:00069190       ?type_case_d@?$output_processor@DV?$stream_output_adapter@D@__crt_stdio_output@@V?$standard_base@DV?$stream_output_adapter@D@__crt_stdio_output@@@2@@__crt_stdio_output@@AAE_NXZ 1006a190 f i libucrtd:output.obj
 0001:000691c0       ?type_case_d@?$output_processor@DV?$string_output_adapter@D@__crt_stdio_output@@V?$format_validation_base@DV?$string_output_adapter@D@__crt_stdio_output@@@2@@__crt_stdio_output@@AAE_NXZ 1006a1c0 f i libucrtd:output.obj
 0001:000691f0       ?type_case_d@?$output_processor@DV?$string_output_adapter@D@__crt_stdio_output@@V?$positional_parameter_base@DV?$string_output_adapter@D@__crt_stdio_output@@@2@@__crt_stdio_output@@AAE_NXZ 1006a1f0 f i libucrtd:output.obj
 0001:00069220       ?type_case_d@?$output_processor@DV?$string_output_adapter@D@__crt_stdio_output@@V?$standard_base@DV?$string_output_adapter@D@__crt_stdio_output@@@2@@__crt_stdio_output@@AAE_NXZ 1006a220 f i libucrtd:output.obj
 0001:00069250       ?type_case_d@?$output_processor@_WV?$stream_output_adapter@_W@__crt_stdio_output@@V?$format_validation_base@_WV?$stream_output_adapter@_W@__crt_stdio_output@@@2@@__crt_stdio_output@@AAE_NXZ 1006a250 f i libucrtd:output.obj
 0001:00069280       ?type_case_d@?$output_processor@_WV?$stream_output_adapter@_W@__crt_stdio_output@@V?$positional_parameter_base@_WV?$stream_output_adapter@_W@__crt_stdio_output@@@2@@__crt_stdio_output@@AAE_NXZ 1006a280 f i libucrtd:output.obj
 0001:000692b0       ?type_case_d@?$output_processor@_WV?$stream_output_adapter@_W@__crt_stdio_output@@V?$standard_base@_WV?$stream_output_adapter@_W@__crt_stdio_output@@@2@@__crt_stdio_output@@AAE_NXZ 1006a2b0 f i libucrtd:output.obj
 0001:000692e0       ?type_case_d@?$output_processor@_WV?$string_output_adapter@_W@__crt_stdio_output@@V?$format_validation_base@_WV?$string_output_adapter@_W@__crt_stdio_output@@@2@@__crt_stdio_output@@AAE_NXZ 1006a2e0 f i libucrtd:output.obj
 0001:00069310       ?type_case_d@?$output_processor@_WV?$string_output_adapter@_W@__crt_stdio_output@@V?$positional_parameter_base@_WV?$string_output_adapter@_W@__crt_stdio_output@@@2@@__crt_stdio_output@@AAE_NXZ 1006a310 f i libucrtd:output.obj
 0001:00069340       ?type_case_d@?$output_processor@_WV?$string_output_adapter@_W@__crt_stdio_output@@V?$standard_base@_WV?$string_output_adapter@_W@__crt_stdio_output@@@2@@__crt_stdio_output@@AAE_NXZ 1006a340 f i libucrtd:output.obj
 0001:00069370       ?type_case_n@?$output_processor@DV?$stream_output_adapter@D@__crt_stdio_output@@V?$format_validation_base@DV?$stream_output_adapter@D@__crt_stdio_output@@@2@@__crt_stdio_output@@AAE_NXZ 1006a370 f i libucrtd:output.obj
 0001:00069590       ?type_case_n@?$output_processor@DV?$stream_output_adapter@D@__crt_stdio_output@@V?$positional_parameter_base@DV?$stream_output_adapter@D@__crt_stdio_output@@@2@@__crt_stdio_output@@AAE_NXZ 1006a590 f i libucrtd:output.obj
 0001:000697b0       ?type_case_n@?$output_processor@DV?$stream_output_adapter@D@__crt_stdio_output@@V?$standard_base@DV?$stream_output_adapter@D@__crt_stdio_output@@@2@@__crt_stdio_output@@AAE_NXZ 1006a7b0 f i libucrtd:output.obj
 0001:000699d0       ?type_case_n@?$output_processor@DV?$string_output_adapter@D@__crt_stdio_output@@V?$format_validation_base@DV?$string_output_adapter@D@__crt_stdio_output@@@2@@__crt_stdio_output@@AAE_NXZ 1006a9d0 f i libucrtd:output.obj
 0001:00069bf0       ?type_case_n@?$output_processor@DV?$string_output_adapter@D@__crt_stdio_output@@V?$positional_parameter_base@DV?$string_output_adapter@D@__crt_stdio_output@@@2@@__crt_stdio_output@@AAE_NXZ 1006abf0 f i libucrtd:output.obj
 0001:00069e10       ?type_case_n@?$output_processor@DV?$string_output_adapter@D@__crt_stdio_output@@V?$standard_base@DV?$string_output_adapter@D@__crt_stdio_output@@@2@@__crt_stdio_output@@AAE_NXZ 1006ae10 f i libucrtd:output.obj
 0001:0006a030       ?type_case_n@?$output_processor@_WV?$stream_output_adapter@_W@__crt_stdio_output@@V?$format_validation_base@_WV?$stream_output_adapter@_W@__crt_stdio_output@@@2@@__crt_stdio_output@@AAE_NXZ 1006b030 f i libucrtd:output.obj
 0001:0006a250       ?type_case_n@?$output_processor@_WV?$stream_output_adapter@_W@__crt_stdio_output@@V?$positional_parameter_base@_WV?$stream_output_adapter@_W@__crt_stdio_output@@@2@@__crt_stdio_output@@AAE_NXZ 1006b250 f i libucrtd:output.obj
 0001:0006a470       ?type_case_n@?$output_processor@_WV?$stream_output_adapter@_W@__crt_stdio_output@@V?$standard_base@_WV?$stream_output_adapter@_W@__crt_stdio_output@@@2@@__crt_stdio_output@@AAE_NXZ 1006b470 f i libucrtd:output.obj
 0001:0006a690       ?type_case_n@?$output_processor@_WV?$string_output_adapter@_W@__crt_stdio_output@@V?$format_validation_base@_WV?$string_output_adapter@_W@__crt_stdio_output@@@2@@__crt_stdio_output@@AAE_NXZ 1006b690 f i libucrtd:output.obj
 0001:0006a8b0       ?type_case_n@?$output_processor@_WV?$string_output_adapter@_W@__crt_stdio_output@@V?$positional_parameter_base@_WV?$string_output_adapter@_W@__crt_stdio_output@@@2@@__crt_stdio_output@@AAE_NXZ 1006b8b0 f i libucrtd:output.obj
 0001:0006aad0       ?type_case_n@?$output_processor@_WV?$string_output_adapter@_W@__crt_stdio_output@@V?$standard_base@_WV?$string_output_adapter@_W@__crt_stdio_output@@@2@@__crt_stdio_output@@AAE_NXZ 1006bad0 f i libucrtd:output.obj
 0001:0006acf0       ?type_case_o@?$output_processor@DV?$stream_output_adapter@D@__crt_stdio_output@@V?$format_validation_base@DV?$stream_output_adapter@D@__crt_stdio_output@@@2@@__crt_stdio_output@@AAE_NXZ 1006bcf0 f i libucrtd:output.obj
 0001:0006ad30       ?type_case_o@?$output_processor@DV?$stream_output_adapter@D@__crt_stdio_output@@V?$positional_parameter_base@DV?$stream_output_adapter@D@__crt_stdio_output@@@2@@__crt_stdio_output@@AAE_NXZ 1006bd30 f i libucrtd:output.obj
 0001:0006ad70       ?type_case_o@?$output_processor@DV?$stream_output_adapter@D@__crt_stdio_output@@V?$standard_base@DV?$stream_output_adapter@D@__crt_stdio_output@@@2@@__crt_stdio_output@@AAE_NXZ 1006bd70 f i libucrtd:output.obj
 0001:0006adb0       ?type_case_o@?$output_processor@DV?$string_output_adapter@D@__crt_stdio_output@@V?$format_validation_base@DV?$string_output_adapter@D@__crt_stdio_output@@@2@@__crt_stdio_output@@AAE_NXZ 1006bdb0 f i libucrtd:output.obj
 0001:0006adf0       ?type_case_o@?$output_processor@DV?$string_output_adapter@D@__crt_stdio_output@@V?$positional_parameter_base@DV?$string_output_adapter@D@__crt_stdio_output@@@2@@__crt_stdio_output@@AAE_NXZ 1006bdf0 f i libucrtd:output.obj
 0001:0006ae30       ?type_case_o@?$output_processor@DV?$string_output_adapter@D@__crt_stdio_output@@V?$standard_base@DV?$string_output_adapter@D@__crt_stdio_output@@@2@@__crt_stdio_output@@AAE_NXZ 1006be30 f i libucrtd:output.obj
 0001:0006ae70       ?type_case_o@?$output_processor@_WV?$stream_output_adapter@_W@__crt_stdio_output@@V?$format_validation_base@_WV?$stream_output_adapter@_W@__crt_stdio_output@@@2@@__crt_stdio_output@@AAE_NXZ 1006be70 f i libucrtd:output.obj
 0001:0006aeb0       ?type_case_o@?$output_processor@_WV?$stream_output_adapter@_W@__crt_stdio_output@@V?$positional_parameter_base@_WV?$stream_output_adapter@_W@__crt_stdio_output@@@2@@__crt_stdio_output@@AAE_NXZ 1006beb0 f i libucrtd:output.obj
 0001:0006aef0       ?type_case_o@?$output_processor@_WV?$stream_output_adapter@_W@__crt_stdio_output@@V?$standard_base@_WV?$stream_output_adapter@_W@__crt_stdio_output@@@2@@__crt_stdio_output@@AAE_NXZ 1006bef0 f i libucrtd:output.obj
 0001:0006af30       ?type_case_o@?$output_processor@_WV?$string_output_adapter@_W@__crt_stdio_output@@V?$format_validation_base@_WV?$string_output_adapter@_W@__crt_stdio_output@@@2@@__crt_stdio_output@@AAE_NXZ 1006bf30 f i libucrtd:output.obj
 0001:0006af70       ?type_case_o@?$output_processor@_WV?$string_output_adapter@_W@__crt_stdio_output@@V?$positional_parameter_base@_WV?$string_output_adapter@_W@__crt_stdio_output@@@2@@__crt_stdio_output@@AAE_NXZ 1006bf70 f i libucrtd:output.obj
 0001:0006afb0       ?type_case_o@?$output_processor@_WV?$string_output_adapter@_W@__crt_stdio_output@@V?$standard_base@_WV?$string_output_adapter@_W@__crt_stdio_output@@@2@@__crt_stdio_output@@AAE_NXZ 1006bfb0 f i libucrtd:output.obj
 0001:0006aff0       ?type_case_p@?$output_processor@DV?$stream_output_adapter@D@__crt_stdio_output@@V?$format_validation_base@DV?$stream_output_adapter@D@__crt_stdio_output@@@2@@__crt_stdio_output@@AAE_NXZ 1006bff0 f i libucrtd:output.obj
 0001:0006b020       ?type_case_p@?$output_processor@DV?$stream_output_adapter@D@__crt_stdio_output@@V?$positional_parameter_base@DV?$stream_output_adapter@D@__crt_stdio_output@@@2@@__crt_stdio_output@@AAE_NXZ 1006c020 f i libucrtd:output.obj
 0001:0006b050       ?type_case_p@?$output_processor@DV?$stream_output_adapter@D@__crt_stdio_output@@V?$standard_base@DV?$stream_output_adapter@D@__crt_stdio_output@@@2@@__crt_stdio_output@@AAE_NXZ 1006c050 f i libucrtd:output.obj
 0001:0006b080       ?type_case_p@?$output_processor@DV?$string_output_adapter@D@__crt_stdio_output@@V?$format_validation_base@DV?$string_output_adapter@D@__crt_stdio_output@@@2@@__crt_stdio_output@@AAE_NXZ 1006c080 f i libucrtd:output.obj
 0001:0006b0b0       ?type_case_p@?$output_processor@DV?$string_output_adapter@D@__crt_stdio_output@@V?$positional_parameter_base@DV?$string_output_adapter@D@__crt_stdio_output@@@2@@__crt_stdio_output@@AAE_NXZ 1006c0b0 f i libucrtd:output.obj
 0001:0006b0e0       ?type_case_p@?$output_processor@DV?$string_output_adapter@D@__crt_stdio_output@@V?$standard_base@DV?$string_output_adapter@D@__crt_stdio_output@@@2@@__crt_stdio_output@@AAE_NXZ 1006c0e0 f i libucrtd:output.obj
 0001:0006b110       ?type_case_p@?$output_processor@_WV?$stream_output_adapter@_W@__crt_stdio_output@@V?$format_validation_base@_WV?$stream_output_adapter@_W@__crt_stdio_output@@@2@@__crt_stdio_output@@AAE_NXZ 1006c110 f i libucrtd:output.obj
 0001:0006b140       ?type_case_p@?$output_processor@_WV?$stream_output_adapter@_W@__crt_stdio_output@@V?$positional_parameter_base@_WV?$stream_output_adapter@_W@__crt_stdio_output@@@2@@__crt_stdio_output@@AAE_NXZ 1006c140 f i libucrtd:output.obj
 0001:0006b170       ?type_case_p@?$output_processor@_WV?$stream_output_adapter@_W@__crt_stdio_output@@V?$standard_base@_WV?$stream_output_adapter@_W@__crt_stdio_output@@@2@@__crt_stdio_output@@AAE_NXZ 1006c170 f i libucrtd:output.obj
 0001:0006b1a0       ?type_case_p@?$output_processor@_WV?$string_output_adapter@_W@__crt_stdio_output@@V?$format_validation_base@_WV?$string_output_adapter@_W@__crt_stdio_output@@@2@@__crt_stdio_output@@AAE_NXZ 1006c1a0 f i libucrtd:output.obj
 0001:0006b1d0       ?type_case_p@?$output_processor@_WV?$string_output_adapter@_W@__crt_stdio_output@@V?$positional_parameter_base@_WV?$string_output_adapter@_W@__crt_stdio_output@@@2@@__crt_stdio_output@@AAE_NXZ 1006c1d0 f i libucrtd:output.obj
 0001:0006b200       ?type_case_p@?$output_processor@_WV?$string_output_adapter@_W@__crt_stdio_output@@V?$standard_base@_WV?$string_output_adapter@_W@__crt_stdio_output@@@2@@__crt_stdio_output@@AAE_NXZ 1006c200 f i libucrtd:output.obj
 0001:0006b230       ?type_case_s@?$output_processor@DV?$stream_output_adapter@D@__crt_stdio_output@@V?$format_validation_base@DV?$stream_output_adapter@D@__crt_stdio_output@@@2@@__crt_stdio_output@@AAE_NXZ 1006c230 f i libucrtd:output.obj
 0001:0006b320       ?type_case_s@?$output_processor@DV?$stream_output_adapter@D@__crt_stdio_output@@V?$positional_parameter_base@DV?$stream_output_adapter@D@__crt_stdio_output@@@2@@__crt_stdio_output@@AAE_NXZ 1006c320 f i libucrtd:output.obj
 0001:0006b410       ?type_case_s@?$output_processor@DV?$stream_output_adapter@D@__crt_stdio_output@@V?$standard_base@DV?$stream_output_adapter@D@__crt_stdio_output@@@2@@__crt_stdio_output@@AAE_NXZ 1006c410 f i libucrtd:output.obj
 0001:0006b500       ?type_case_s@?$output_processor@DV?$string_output_adapter@D@__crt_stdio_output@@V?$format_validation_base@DV?$string_output_adapter@D@__crt_stdio_output@@@2@@__crt_stdio_output@@AAE_NXZ 1006c500 f i libucrtd:output.obj
 0001:0006b5f0       ?type_case_s@?$output_processor@DV?$string_output_adapter@D@__crt_stdio_output@@V?$positional_parameter_base@DV?$string_output_adapter@D@__crt_stdio_output@@@2@@__crt_stdio_output@@AAE_NXZ 1006c5f0 f i libucrtd:output.obj
 0001:0006b6e0       ?type_case_s@?$output_processor@DV?$string_output_adapter@D@__crt_stdio_output@@V?$standard_base@DV?$string_output_adapter@D@__crt_stdio_output@@@2@@__crt_stdio_output@@AAE_NXZ 1006c6e0 f i libucrtd:output.obj
 0001:0006b7d0       ?type_case_s@?$output_processor@_WV?$stream_output_adapter@_W@__crt_stdio_output@@V?$format_validation_base@_WV?$stream_output_adapter@_W@__crt_stdio_output@@@2@@__crt_stdio_output@@AAE_NXZ 1006c7d0 f i libucrtd:output.obj
 0001:0006b8c0       ?type_case_s@?$output_processor@_WV?$stream_output_adapter@_W@__crt_stdio_output@@V?$positional_parameter_base@_WV?$stream_output_adapter@_W@__crt_stdio_output@@@2@@__crt_stdio_output@@AAE_NXZ 1006c8c0 f i libucrtd:output.obj
 0001:0006b9b0       ?type_case_s@?$output_processor@_WV?$stream_output_adapter@_W@__crt_stdio_output@@V?$standard_base@_WV?$stream_output_adapter@_W@__crt_stdio_output@@@2@@__crt_stdio_output@@AAE_NXZ 1006c9b0 f i libucrtd:output.obj
 0001:0006baa0       ?type_case_s@?$output_processor@_WV?$string_output_adapter@_W@__crt_stdio_output@@V?$format_validation_base@_WV?$string_output_adapter@_W@__crt_stdio_output@@@2@@__crt_stdio_output@@AAE_NXZ 1006caa0 f i libucrtd:output.obj
 0001:0006bb90       ?type_case_s@?$output_processor@_WV?$string_output_adapter@_W@__crt_stdio_output@@V?$positional_parameter_base@_WV?$string_output_adapter@_W@__crt_stdio_output@@@2@@__crt_stdio_output@@AAE_NXZ 1006cb90 f i libucrtd:output.obj
 0001:0006bc80       ?type_case_s@?$output_processor@_WV?$string_output_adapter@_W@__crt_stdio_output@@V?$standard_base@_WV?$string_output_adapter@_W@__crt_stdio_output@@@2@@__crt_stdio_output@@AAE_NXZ 1006cc80 f i libucrtd:output.obj
 0001:0006bd70       ?type_case_s_compute_narrow_string_length@?$output_processor@DV?$stream_output_adapter@D@__crt_stdio_output@@V?$format_validation_base@DV?$stream_output_adapter@D@__crt_stdio_output@@@2@@__crt_stdio_output@@AAEHHD@Z 1006cd70 f i libucrtd:output.obj
 0001:0006bda0       ?type_case_s_compute_narrow_string_length@?$output_processor@DV?$stream_output_adapter@D@__crt_stdio_output@@V?$positional_parameter_base@DV?$stream_output_adapter@D@__crt_stdio_output@@@2@@__crt_stdio_output@@AAEHHD@Z 1006cda0 f i libucrtd:output.obj
 0001:0006bdd0       ?type_case_s_compute_narrow_string_length@?$output_processor@DV?$stream_output_adapter@D@__crt_stdio_output@@V?$standard_base@DV?$stream_output_adapter@D@__crt_stdio_output@@@2@@__crt_stdio_output@@AAEHHD@Z 1006cdd0 f i libucrtd:output.obj
 0001:0006be00       ?type_case_s_compute_narrow_string_length@?$output_processor@DV?$string_output_adapter@D@__crt_stdio_output@@V?$format_validation_base@DV?$string_output_adapter@D@__crt_stdio_output@@@2@@__crt_stdio_output@@AAEHHD@Z 1006ce00 f i libucrtd:output.obj
 0001:0006be30       ?type_case_s_compute_narrow_string_length@?$output_processor@DV?$string_output_adapter@D@__crt_stdio_output@@V?$positional_parameter_base@DV?$string_output_adapter@D@__crt_stdio_output@@@2@@__crt_stdio_output@@AAEHHD@Z 1006ce30 f i libucrtd:output.obj
 0001:0006be60       ?type_case_s_compute_narrow_string_length@?$output_processor@DV?$string_output_adapter@D@__crt_stdio_output@@V?$standard_base@DV?$string_output_adapter@D@__crt_stdio_output@@@2@@__crt_stdio_output@@AAEHHD@Z 1006ce60 f i libucrtd:output.obj
 0001:0006be90       ?type_case_s_compute_narrow_string_length@?$output_processor@_WV?$stream_output_adapter@_W@__crt_stdio_output@@V?$format_validation_base@_WV?$stream_output_adapter@_W@__crt_stdio_output@@@2@@__crt_stdio_output@@AAEHH_W@Z 1006ce90 f i libucrtd:output.obj
 0001:0006bf10       ?type_case_s_compute_narrow_string_length@?$output_processor@_WV?$stream_output_adapter@_W@__crt_stdio_output@@V?$positional_parameter_base@_WV?$stream_output_adapter@_W@__crt_stdio_output@@@2@@__crt_stdio_output@@AAEHH_W@Z 1006cf10 f i libucrtd:output.obj
 0001:0006bf90       ?type_case_s_compute_narrow_string_length@?$output_processor@_WV?$stream_output_adapter@_W@__crt_stdio_output@@V?$standard_base@_WV?$stream_output_adapter@_W@__crt_stdio_output@@@2@@__crt_stdio_output@@AAEHH_W@Z 1006cf90 f i libucrtd:output.obj
 0001:0006c010       ?type_case_s_compute_narrow_string_length@?$output_processor@_WV?$string_output_adapter@_W@__crt_stdio_output@@V?$format_validation_base@_WV?$string_output_adapter@_W@__crt_stdio_output@@@2@@__crt_stdio_output@@AAEHH_W@Z 1006d010 f i libucrtd:output.obj
 0001:0006c090       ?type_case_s_compute_narrow_string_length@?$output_processor@_WV?$string_output_adapter@_W@__crt_stdio_output@@V?$positional_parameter_base@_WV?$string_output_adapter@_W@__crt_stdio_output@@@2@@__crt_stdio_output@@AAEHH_W@Z 1006d090 f i libucrtd:output.obj
 0001:0006c110       ?type_case_s_compute_narrow_string_length@?$output_processor@_WV?$string_output_adapter@_W@__crt_stdio_output@@V?$standard_base@_WV?$string_output_adapter@_W@__crt_stdio_output@@@2@@__crt_stdio_output@@AAEHH_W@Z 1006d110 f i libucrtd:output.obj
 0001:0006c190       ?type_case_u@?$output_processor@DV?$stream_output_adapter@D@__crt_stdio_output@@V?$format_validation_base@DV?$stream_output_adapter@D@__crt_stdio_output@@@2@@__crt_stdio_output@@AAE_NXZ 1006d190 f i libucrtd:output.obj
 0001:0006c1b0       ?type_case_u@?$output_processor@DV?$stream_output_adapter@D@__crt_stdio_output@@V?$positional_parameter_base@DV?$stream_output_adapter@D@__crt_stdio_output@@@2@@__crt_stdio_output@@AAE_NXZ 1006d1b0 f i libucrtd:output.obj
 0001:0006c1d0       ?type_case_u@?$output_processor@DV?$stream_output_adapter@D@__crt_stdio_output@@V?$standard_base@DV?$stream_output_adapter@D@__crt_stdio_output@@@2@@__crt_stdio_output@@AAE_NXZ 1006d1d0 f i libucrtd:output.obj
 0001:0006c1f0       ?type_case_u@?$output_processor@DV?$string_output_adapter@D@__crt_stdio_output@@V?$format_validation_base@DV?$string_output_adapter@D@__crt_stdio_output@@@2@@__crt_stdio_output@@AAE_NXZ 1006d1f0 f i libucrtd:output.obj
 0001:0006c210       ?type_case_u@?$output_processor@DV?$string_output_adapter@D@__crt_stdio_output@@V?$positional_parameter_base@DV?$string_output_adapter@D@__crt_stdio_output@@@2@@__crt_stdio_output@@AAE_NXZ 1006d210 f i libucrtd:output.obj
 0001:0006c230       ?type_case_u@?$output_processor@DV?$string_output_adapter@D@__crt_stdio_output@@V?$standard_base@DV?$string_output_adapter@D@__crt_stdio_output@@@2@@__crt_stdio_output@@AAE_NXZ 1006d230 f i libucrtd:output.obj
 0001:0006c250       ?type_case_u@?$output_processor@_WV?$stream_output_adapter@_W@__crt_stdio_output@@V?$format_validation_base@_WV?$stream_output_adapter@_W@__crt_stdio_output@@@2@@__crt_stdio_output@@AAE_NXZ 1006d250 f i libucrtd:output.obj
 0001:0006c270       ?type_case_u@?$output_processor@_WV?$stream_output_adapter@_W@__crt_stdio_output@@V?$positional_parameter_base@_WV?$stream_output_adapter@_W@__crt_stdio_output@@@2@@__crt_stdio_output@@AAE_NXZ 1006d270 f i libucrtd:output.obj
 0001:0006c290       ?type_case_u@?$output_processor@_WV?$stream_output_adapter@_W@__crt_stdio_output@@V?$standard_base@_WV?$stream_output_adapter@_W@__crt_stdio_output@@@2@@__crt_stdio_output@@AAE_NXZ 1006d290 f i libucrtd:output.obj
 0001:0006c2b0       ?type_case_u@?$output_processor@_WV?$string_output_adapter@_W@__crt_stdio_output@@V?$format_validation_base@_WV?$string_output_adapter@_W@__crt_stdio_output@@@2@@__crt_stdio_output@@AAE_NXZ 1006d2b0 f i libucrtd:output.obj
 0001:0006c2d0       ?type_case_u@?$output_processor@_WV?$string_output_adapter@_W@__crt_stdio_output@@V?$positional_parameter_base@_WV?$string_output_adapter@_W@__crt_stdio_output@@@2@@__crt_stdio_output@@AAE_NXZ 1006d2d0 f i libucrtd:output.obj
 0001:0006c2f0       ?type_case_u@?$output_processor@_WV?$string_output_adapter@_W@__crt_stdio_output@@V?$standard_base@_WV?$string_output_adapter@_W@__crt_stdio_output@@@2@@__crt_stdio_output@@AAE_NXZ 1006d2f0 f i libucrtd:output.obj
 0001:0006c310       ?type_case_x@?$output_processor@DV?$stream_output_adapter@D@__crt_stdio_output@@V?$format_validation_base@DV?$stream_output_adapter@D@__crt_stdio_output@@@2@@__crt_stdio_output@@AAE_NXZ 1006d310 f i libucrtd:output.obj
 0001:0006c330       ?type_case_x@?$output_processor@DV?$stream_output_adapter@D@__crt_stdio_output@@V?$positional_parameter_base@DV?$stream_output_adapter@D@__crt_stdio_output@@@2@@__crt_stdio_output@@AAE_NXZ 1006d330 f i libucrtd:output.obj
 0001:0006c350       ?type_case_x@?$output_processor@DV?$stream_output_adapter@D@__crt_stdio_output@@V?$standard_base@DV?$stream_output_adapter@D@__crt_stdio_output@@@2@@__crt_stdio_output@@AAE_NXZ 1006d350 f i libucrtd:output.obj
 0001:0006c370       ?type_case_x@?$output_processor@DV?$string_output_adapter@D@__crt_stdio_output@@V?$format_validation_base@DV?$string_output_adapter@D@__crt_stdio_output@@@2@@__crt_stdio_output@@AAE_NXZ 1006d370 f i libucrtd:output.obj
 0001:0006c390       ?type_case_x@?$output_processor@DV?$string_output_adapter@D@__crt_stdio_output@@V?$positional_parameter_base@DV?$string_output_adapter@D@__crt_stdio_output@@@2@@__crt_stdio_output@@AAE_NXZ 1006d390 f i libucrtd:output.obj
 0001:0006c3b0       ?type_case_x@?$output_processor@DV?$string_output_adapter@D@__crt_stdio_output@@V?$standard_base@DV?$string_output_adapter@D@__crt_stdio_output@@@2@@__crt_stdio_output@@AAE_NXZ 1006d3b0 f i libucrtd:output.obj
 0001:0006c3d0       ?type_case_x@?$output_processor@_WV?$stream_output_adapter@_W@__crt_stdio_output@@V?$format_validation_base@_WV?$stream_output_adapter@_W@__crt_stdio_output@@@2@@__crt_stdio_output@@AAE_NXZ 1006d3d0 f i libucrtd:output.obj
 0001:0006c3f0       ?type_case_x@?$output_processor@_WV?$stream_output_adapter@_W@__crt_stdio_output@@V?$positional_parameter_base@_WV?$stream_output_adapter@_W@__crt_stdio_output@@@2@@__crt_stdio_output@@AAE_NXZ 1006d3f0 f i libucrtd:output.obj
 0001:0006c410       ?type_case_x@?$output_processor@_WV?$stream_output_adapter@_W@__crt_stdio_output@@V?$standard_base@_WV?$stream_output_adapter@_W@__crt_stdio_output@@@2@@__crt_stdio_output@@AAE_NXZ 1006d410 f i libucrtd:output.obj
 0001:0006c430       ?type_case_x@?$output_processor@_WV?$string_output_adapter@_W@__crt_stdio_output@@V?$format_validation_base@_WV?$string_output_adapter@_W@__crt_stdio_output@@@2@@__crt_stdio_output@@AAE_NXZ 1006d430 f i libucrtd:output.obj
 0001:0006c450       ?type_case_x@?$output_processor@_WV?$string_output_adapter@_W@__crt_stdio_output@@V?$positional_parameter_base@_WV?$string_output_adapter@_W@__crt_stdio_output@@@2@@__crt_stdio_output@@AAE_NXZ 1006d450 f i libucrtd:output.obj
 0001:0006c470       ?type_case_x@?$output_processor@_WV?$string_output_adapter@_W@__crt_stdio_output@@V?$standard_base@_WV?$string_output_adapter@_W@__crt_stdio_output@@@2@@__crt_stdio_output@@AAE_NXZ 1006d470 f i libucrtd:output.obj
 0001:0006c490       ?unget@?$c_string_character_source@D@__crt_strtox@@QAEXD@Z 1006d490 f i libucrtd:output.obj
 0001:0006c540       ?unget@?$c_string_character_source@_W@__crt_strtox@@QAEX_W@Z 1006d540 f i libucrtd:output.obj
 0001:0006c5f0       ?unsafe_value@?$cached@H@__crt_cached_ptd_host@@QAEHXZ 1006d5f0 f i libucrtd:output.obj
 0001:0006c610       ?unsafe_value@?$cached@K@__crt_cached_ptd_host@@QAEKXZ 1006d610 f i libucrtd:output.obj
 0001:0006c630       ?unset_flag@?$output_processor@DV?$stream_output_adapter@D@__crt_stdio_output@@V?$format_validation_base@DV?$stream_output_adapter@D@__crt_stdio_output@@@2@@__crt_stdio_output@@AAEXI@Z 1006d630 f i libucrtd:output.obj
 0001:0006c650       ?unset_flag@?$output_processor@DV?$stream_output_adapter@D@__crt_stdio_output@@V?$positional_parameter_base@DV?$stream_output_adapter@D@__crt_stdio_output@@@2@@__crt_stdio_output@@AAEXI@Z 1006d650 f i libucrtd:output.obj
 0001:0006c670       ?unset_flag@?$output_processor@DV?$stream_output_adapter@D@__crt_stdio_output@@V?$standard_base@DV?$stream_output_adapter@D@__crt_stdio_output@@@2@@__crt_stdio_output@@AAEXI@Z 1006d670 f i libucrtd:output.obj
 0001:0006c690       ?unset_flag@?$output_processor@DV?$string_output_adapter@D@__crt_stdio_output@@V?$format_validation_base@DV?$string_output_adapter@D@__crt_stdio_output@@@2@@__crt_stdio_output@@AAEXI@Z 1006d690 f i libucrtd:output.obj
 0001:0006c6b0       ?unset_flag@?$output_processor@DV?$string_output_adapter@D@__crt_stdio_output@@V?$positional_parameter_base@DV?$string_output_adapter@D@__crt_stdio_output@@@2@@__crt_stdio_output@@AAEXI@Z 1006d6b0 f i libucrtd:output.obj
 0001:0006c6d0       ?unset_flag@?$output_processor@DV?$string_output_adapter@D@__crt_stdio_output@@V?$standard_base@DV?$string_output_adapter@D@__crt_stdio_output@@@2@@__crt_stdio_output@@AAEXI@Z 1006d6d0 f i libucrtd:output.obj
 0001:0006c6f0       ?unset_flag@?$output_processor@_WV?$stream_output_adapter@_W@__crt_stdio_output@@V?$format_validation_base@_WV?$stream_output_adapter@_W@__crt_stdio_output@@@2@@__crt_stdio_output@@AAEXI@Z 1006d6f0 f i libucrtd:output.obj
 0001:0006c710       ?unset_flag@?$output_processor@_WV?$stream_output_adapter@_W@__crt_stdio_output@@V?$positional_parameter_base@_WV?$stream_output_adapter@_W@__crt_stdio_output@@@2@@__crt_stdio_output@@AAEXI@Z 1006d710 f i libucrtd:output.obj
 0001:0006c730       ?unset_flag@?$output_processor@_WV?$stream_output_adapter@_W@__crt_stdio_output@@V?$standard_base@_WV?$stream_output_adapter@_W@__crt_stdio_output@@@2@@__crt_stdio_output@@AAEXI@Z 1006d730 f i libucrtd:output.obj
 0001:0006c750       ?unset_flag@?$output_processor@_WV?$string_output_adapter@_W@__crt_stdio_output@@V?$format_validation_base@_WV?$string_output_adapter@_W@__crt_stdio_output@@@2@@__crt_stdio_output@@AAEXI@Z 1006d750 f i libucrtd:output.obj
 0001:0006c770       ?unset_flag@?$output_processor@_WV?$string_output_adapter@_W@__crt_stdio_output@@V?$positional_parameter_base@_WV?$string_output_adapter@_W@__crt_stdio_output@@@2@@__crt_stdio_output@@AAEXI@Z 1006d770 f i libucrtd:output.obj
 0001:0006c790       ?unset_flag@?$output_processor@_WV?$string_output_adapter@_W@__crt_stdio_output@@V?$standard_base@_WV?$string_output_adapter@_W@__crt_stdio_output@@@2@@__crt_stdio_output@@AAEXI@Z 1006d790 f i libucrtd:output.obj
 0001:0006c7b0       ?update_field_width@?$positional_parameter_base@DV?$stream_output_adapter@D@__crt_stdio_output@@@__crt_stdio_output@@IAE_NXZ 1006d7b0 f i libucrtd:output.obj
 0001:0006c940       ?update_field_width@?$positional_parameter_base@DV?$string_output_adapter@D@__crt_stdio_output@@@__crt_stdio_output@@IAE_NXZ 1006d940 f i libucrtd:output.obj
 0001:0006cad0       ?update_field_width@?$positional_parameter_base@_WV?$stream_output_adapter@_W@__crt_stdio_output@@@__crt_stdio_output@@IAE_NXZ 1006dad0 f i libucrtd:output.obj
 0001:0006cc60       ?update_field_width@?$positional_parameter_base@_WV?$string_output_adapter@_W@__crt_stdio_output@@@__crt_stdio_output@@IAE_NXZ 1006dc60 f i libucrtd:output.obj
 0001:0006cdf0       ?update_field_width@?$standard_base@DV?$stream_output_adapter@D@__crt_stdio_output@@@__crt_stdio_output@@IAE_NXZ 1006ddf0 f i libucrtd:output.obj
 0001:0006ce20       ?update_field_width@?$standard_base@DV?$string_output_adapter@D@__crt_stdio_output@@@__crt_stdio_output@@IAE_NXZ 1006de20 f i libucrtd:output.obj
 0001:0006ce50       ?update_field_width@?$standard_base@_WV?$stream_output_adapter@_W@__crt_stdio_output@@@__crt_stdio_output@@IAE_NXZ 1006de50 f i libucrtd:output.obj
 0001:0006ce80       ?update_field_width@?$standard_base@_WV?$string_output_adapter@_W@__crt_stdio_output@@@__crt_stdio_output@@IAE_NXZ 1006de80 f i libucrtd:output.obj
 0001:0006ceb0       ?update_locale@__crt_cached_ptd_host@@AAEXXZ 1006deb0 f i libucrtd:output.obj
 0001:0006ced0       ?update_locale_slow@__crt_cached_ptd_host@@AAEXXZ 1006ded0 f i libucrtd:output.obj
 0001:0006cf60       ?update_precision@?$positional_parameter_base@DV?$stream_output_adapter@D@__crt_stdio_output@@@__crt_stdio_output@@IAE_NXZ 1006df60 f i libucrtd:output.obj
 0001:0006d0f0       ?update_precision@?$positional_parameter_base@DV?$string_output_adapter@D@__crt_stdio_output@@@__crt_stdio_output@@IAE_NXZ 1006e0f0 f i libucrtd:output.obj
 0001:0006d280       ?update_precision@?$positional_parameter_base@_WV?$stream_output_adapter@_W@__crt_stdio_output@@@__crt_stdio_output@@IAE_NXZ 1006e280 f i libucrtd:output.obj
 0001:0006d410       ?update_precision@?$positional_parameter_base@_WV?$string_output_adapter@_W@__crt_stdio_output@@@__crt_stdio_output@@IAE_NXZ 1006e410 f i libucrtd:output.obj
 0001:0006d5a0       ?update_precision@?$standard_base@DV?$stream_output_adapter@D@__crt_stdio_output@@@__crt_stdio_output@@IAE_NXZ 1006e5a0 f i libucrtd:output.obj
 0001:0006d5d0       ?update_precision@?$standard_base@DV?$string_output_adapter@D@__crt_stdio_output@@@__crt_stdio_output@@IAE_NXZ 1006e5d0 f i libucrtd:output.obj
 0001:0006d600       ?update_precision@?$standard_base@_WV?$stream_output_adapter@_W@__crt_stdio_output@@@__crt_stdio_output@@IAE_NXZ 1006e600 f i libucrtd:output.obj
 0001:0006d630       ?update_precision@?$standard_base@_WV?$string_output_adapter@_W@__crt_stdio_output@@@__crt_stdio_output@@IAE_NXZ 1006e630 f i libucrtd:output.obj
 0001:0006d660       ?valid@?$cached@H@__crt_cached_ptd_host@@QBE_NXZ 1006e660 f i libucrtd:output.obj
 0001:0006d680       ?valid@?$cached@K@__crt_cached_ptd_host@@QBE_NXZ 1006e680 f i libucrtd:output.obj
 0001:0006d6a0       ?valid@__crt_stdio_stream@@QBE_NXZ 1006e6a0 f i libucrtd:output.obj
 0001:0006d6d0       ?validate@?$c_string_character_source@D@__crt_strtox@@QBE_NXZ 1006e6d0 f i libucrtd:output.obj
 0001:0006d760       ?validate@?$c_string_character_source@_W@__crt_strtox@@QBE_NXZ 1006e760 f i libucrtd:output.obj
 0001:0006d7f0       ?validate@?$stream_output_adapter@D@__crt_stdio_output@@QBE_NAAV__crt_cached_ptd_host@@@Z 1006e7f0 f i libucrtd:output.obj
 0001:0006d8b0       ?validate@?$stream_output_adapter@_W@__crt_stdio_output@@QBE_NAAV__crt_cached_ptd_host@@@Z 1006e8b0 f i libucrtd:output.obj
 0001:0006d970       ?validate@?$string_output_adapter@D@__crt_stdio_output@@QBE_NAAV__crt_cached_ptd_host@@@Z 1006e970 f i libucrtd:output.obj
 0001:0006da10       ?validate@?$string_output_adapter@_W@__crt_stdio_output@@QBE_NAAV__crt_cached_ptd_host@@@Z 1006ea10 f i libucrtd:output.obj
 0001:0006dab0       ?validate_and_store_parameter_data@?$positional_parameter_base@DV?$stream_output_adapter@D@__crt_stdio_output@@@__crt_stdio_output@@AAE_NAAUparameter_data@12@W4parameter_type@12@DW4length_modifier@2@@Z 1006eab0 f i libucrtd:output.obj
 0001:0006dba0       ?validate_and_store_parameter_data@?$positional_parameter_base@DV?$string_output_adapter@D@__crt_stdio_output@@@__crt_stdio_output@@AAE_NAAUparameter_data@12@W4parameter_type@12@DW4length_modifier@2@@Z 1006eba0 f i libucrtd:output.obj
 0001:0006dc90       ?validate_and_store_parameter_data@?$positional_parameter_base@_WV?$stream_output_adapter@_W@__crt_stdio_output@@@__crt_stdio_output@@AAE_NAAUparameter_data@12@W4parameter_type@12@_WW4length_modifier@2@@Z 1006ec90 f i libucrtd:output.obj
 0001:0006dd80       ?validate_and_store_parameter_data@?$positional_parameter_base@_WV?$string_output_adapter@_W@__crt_stdio_output@@@__crt_stdio_output@@AAE_NAAUparameter_data@12@W4parameter_type@12@_WW4length_modifier@2@@Z 1006ed80 f i libucrtd:output.obj
 0001:0006de70       ?validate_and_update_state_at_beginning_of_format_character@?$positional_parameter_base@DV?$stream_output_adapter@D@__crt_stdio_output@@@__crt_stdio_output@@IAE_NXZ 1006ee70 f i libucrtd:output.obj
 0001:0006e0a0       ?validate_and_update_state_at_beginning_of_format_character@?$positional_parameter_base@DV?$string_output_adapter@D@__crt_stdio_output@@@__crt_stdio_output@@IAE_NXZ 1006f0a0 f i libucrtd:output.obj
 0001:0006e2d0       ?validate_and_update_state_at_beginning_of_format_character@?$positional_parameter_base@_WV?$stream_output_adapter@_W@__crt_stdio_output@@@__crt_stdio_output@@IAE_NXZ 1006f2d0 f i libucrtd:output.obj
 0001:0006e500       ?validate_and_update_state_at_beginning_of_format_character@?$positional_parameter_base@_WV?$string_output_adapter@_W@__crt_stdio_output@@@__crt_stdio_output@@IAE_NXZ 1006f500 f i libucrtd:output.obj
 0001:0006e730       ?validate_and_update_state_at_beginning_of_format_character@?$standard_base@DV?$stream_output_adapter@D@__crt_stdio_output@@@__crt_stdio_output@@IAE_NXZ 1006f730 f i libucrtd:output.obj
 0001:0006e740       ?validate_and_update_state_at_beginning_of_format_character@?$standard_base@DV?$string_output_adapter@D@__crt_stdio_output@@@__crt_stdio_output@@IAE_NXZ 1006f740 f i libucrtd:output.obj
 0001:0006e750       ?validate_and_update_state_at_beginning_of_format_character@?$standard_base@_WV?$stream_output_adapter@_W@__crt_stdio_output@@@__crt_stdio_output@@IAE_NXZ 1006f750 f i libucrtd:output.obj
 0001:0006e760       ?validate_and_update_state_at_beginning_of_format_character@?$standard_base@_WV?$string_output_adapter@_W@__crt_stdio_output@@@__crt_stdio_output@@IAE_NXZ 1006f760 f i libucrtd:output.obj
 0001:0006e770       ?validate_and_update_state_at_end_of_format_string@?$format_validation_base@DV?$stream_output_adapter@D@__crt_stdio_output@@@__crt_stdio_output@@IAE_NXZ 1006f770 f i libucrtd:output.obj
 0001:0006e820       ?validate_and_update_state_at_end_of_format_string@?$format_validation_base@DV?$string_output_adapter@D@__crt_stdio_output@@@__crt_stdio_output@@IAE_NXZ 1006f820 f i libucrtd:output.obj
 0001:0006e8d0       ?validate_and_update_state_at_end_of_format_string@?$format_validation_base@_WV?$stream_output_adapter@_W@__crt_stdio_output@@@__crt_stdio_output@@IAE_NXZ 1006f8d0 f i libucrtd:output.obj
 0001:0006e980       ?validate_and_update_state_at_end_of_format_string@?$format_validation_base@_WV?$string_output_adapter@_W@__crt_stdio_output@@@__crt_stdio_output@@IAE_NXZ 1006f980 f i libucrtd:output.obj
 0001:0006ea30       ?validate_and_update_state_at_end_of_format_string@?$positional_parameter_base@DV?$stream_output_adapter@D@__crt_stdio_output@@@__crt_stdio_output@@IAE_NXZ 1006fa30 f i libucrtd:output.obj
 0001:0006ebe0       ?validate_and_update_state_at_end_of_format_string@?$positional_parameter_base@DV?$string_output_adapter@D@__crt_stdio_output@@@__crt_stdio_output@@IAE_NXZ 1006fbe0 f i libucrtd:output.obj
 0001:0006ed90       ?validate_and_update_state_at_end_of_format_string@?$positional_parameter_base@_WV?$stream_output_adapter@_W@__crt_stdio_output@@@__crt_stdio_output@@IAE_NXZ 1006fd90 f i libucrtd:output.obj
 0001:0006ef40       ?validate_and_update_state_at_end_of_format_string@?$positional_parameter_base@_WV?$string_output_adapter@_W@__crt_stdio_output@@@__crt_stdio_output@@IAE_NXZ 1006ff40 f i libucrtd:output.obj
 0001:0006f0f0       ?validate_and_update_state_at_end_of_format_string@?$standard_base@DV?$stream_output_adapter@D@__crt_stdio_output@@@__crt_stdio_output@@IBE_NXZ 100700f0 f i libucrtd:output.obj
 0001:0006f100       ?validate_and_update_state_at_end_of_format_string@?$standard_base@DV?$string_output_adapter@D@__crt_stdio_output@@@__crt_stdio_output@@IBE_NXZ 10070100 f i libucrtd:output.obj
 0001:0006f110       ?validate_and_update_state_at_end_of_format_string@?$standard_base@_WV?$stream_output_adapter@_W@__crt_stdio_output@@@__crt_stdio_output@@IBE_NXZ 10070110 f i libucrtd:output.obj
 0001:0006f120       ?validate_and_update_state_at_end_of_format_string@?$standard_base@_WV?$string_output_adapter@_W@__crt_stdio_output@@@__crt_stdio_output@@IBE_NXZ 10070120 f i libucrtd:output.obj
 0001:0006f130       ?validate_state_for_type_case_a@?$positional_parameter_base@DV?$stream_output_adapter@D@__crt_stdio_output@@@__crt_stdio_output@@IAE_NXZ 10070130 f i libucrtd:output.obj
 0001:0006f240       ?validate_state_for_type_case_a@?$positional_parameter_base@DV?$string_output_adapter@D@__crt_stdio_output@@@__crt_stdio_output@@IAE_NXZ 10070240 f i libucrtd:output.obj
 0001:0006f350       ?validate_state_for_type_case_a@?$positional_parameter_base@_WV?$stream_output_adapter@_W@__crt_stdio_output@@@__crt_stdio_output@@IAE_NXZ 10070350 f i libucrtd:output.obj
 0001:0006f460       ?validate_state_for_type_case_a@?$positional_parameter_base@_WV?$string_output_adapter@_W@__crt_stdio_output@@@__crt_stdio_output@@IAE_NXZ 10070460 f i libucrtd:output.obj
 0001:0006f570       ?validate_state_for_type_case_a@?$standard_base@DV?$stream_output_adapter@D@__crt_stdio_output@@@__crt_stdio_output@@IBE_NXZ 10070570 f i libucrtd:output.obj
 0001:0006f580       ?validate_state_for_type_case_a@?$standard_base@DV?$string_output_adapter@D@__crt_stdio_output@@@__crt_stdio_output@@IBE_NXZ 10070580 f i libucrtd:output.obj
 0001:0006f590       ?validate_state_for_type_case_a@?$standard_base@_WV?$stream_output_adapter@_W@__crt_stdio_output@@@__crt_stdio_output@@IBE_NXZ 10070590 f i libucrtd:output.obj
 0001:0006f5a0       ?validate_state_for_type_case_a@?$standard_base@_WV?$string_output_adapter@_W@__crt_stdio_output@@@__crt_stdio_output@@IBE_NXZ 100705a0 f i libucrtd:output.obj
 0001:0006f5b0       ?validate_stream_is_ansi_if_required@?$__acrt_stdio_char_traits@D@@SA_NQAU_iobuf@@@Z 100705b0 f i libucrtd:output.obj
 0001:0006f6e0       ?validate_stream_is_ansi_if_required@?$__acrt_stdio_char_traits@_W@@SA_NQAU_iobuf@@@Z 100706e0 f i libucrtd:output.obj
 0001:0006f6f0       ?wide_character_to_digit@__crt_strtox@@YAH_W@Z 100706f0 f i libucrtd:output.obj
 0001:0006fa20       ?wide_null_string@?$output_processor@DV?$stream_output_adapter@D@__crt_stdio_output@@V?$format_validation_base@DV?$stream_output_adapter@D@__crt_stdio_output@@@2@@__crt_stdio_output@@CAPA_WXZ 10070a20 f i libucrtd:output.obj
 0001:0006fa30       ?wide_null_string@?$output_processor@DV?$stream_output_adapter@D@__crt_stdio_output@@V?$positional_parameter_base@DV?$stream_output_adapter@D@__crt_stdio_output@@@2@@__crt_stdio_output@@CAPA_WXZ 10070a30 f i libucrtd:output.obj
 0001:0006fa40       ?wide_null_string@?$output_processor@DV?$stream_output_adapter@D@__crt_stdio_output@@V?$standard_base@DV?$stream_output_adapter@D@__crt_stdio_output@@@2@@__crt_stdio_output@@CAPA_WXZ 10070a40 f i libucrtd:output.obj
 0001:0006fa50       ?wide_null_string@?$output_processor@DV?$string_output_adapter@D@__crt_stdio_output@@V?$format_validation_base@DV?$string_output_adapter@D@__crt_stdio_output@@@2@@__crt_stdio_output@@CAPA_WXZ 10070a50 f i libucrtd:output.obj
 0001:0006fa60       ?wide_null_string@?$output_processor@DV?$string_output_adapter@D@__crt_stdio_output@@V?$positional_parameter_base@DV?$string_output_adapter@D@__crt_stdio_output@@@2@@__crt_stdio_output@@CAPA_WXZ 10070a60 f i libucrtd:output.obj
 0001:0006fa70       ?wide_null_string@?$output_processor@DV?$string_output_adapter@D@__crt_stdio_output@@V?$standard_base@DV?$string_output_adapter@D@__crt_stdio_output@@@2@@__crt_stdio_output@@CAPA_WXZ 10070a70 f i libucrtd:output.obj
 0001:0006fa80       ?wide_null_string@?$output_processor@_WV?$stream_output_adapter@_W@__crt_stdio_output@@V?$format_validation_base@_WV?$stream_output_adapter@_W@__crt_stdio_output@@@2@@__crt_stdio_output@@CAPA_WXZ 10070a80 f i libucrtd:output.obj
 0001:0006fa90       ?wide_null_string@?$output_processor@_WV?$stream_output_adapter@_W@__crt_stdio_output@@V?$positional_parameter_base@_WV?$stream_output_adapter@_W@__crt_stdio_output@@@2@@__crt_stdio_output@@CAPA_WXZ 10070a90 f i libucrtd:output.obj
 0001:0006faa0       ?wide_null_string@?$output_processor@_WV?$stream_output_adapter@_W@__crt_stdio_output@@V?$standard_base@_WV?$stream_output_adapter@_W@__crt_stdio_output@@@2@@__crt_stdio_output@@CAPA_WXZ 10070aa0 f i libucrtd:output.obj
 0001:0006fab0       ?wide_null_string@?$output_processor@_WV?$string_output_adapter@_W@__crt_stdio_output@@V?$format_validation_base@_WV?$string_output_adapter@_W@__crt_stdio_output@@@2@@__crt_stdio_output@@CAPA_WXZ 10070ab0 f i libucrtd:output.obj
 0001:0006fac0       ?wide_null_string@?$output_processor@_WV?$string_output_adapter@_W@__crt_stdio_output@@V?$positional_parameter_base@_WV?$string_output_adapter@_W@__crt_stdio_output@@@2@@__crt_stdio_output@@CAPA_WXZ 10070ac0 f i libucrtd:output.obj
 0001:0006fad0       ?wide_null_string@?$output_processor@_WV?$string_output_adapter@_W@__crt_stdio_output@@V?$standard_base@_WV?$string_output_adapter@_W@__crt_stdio_output@@@2@@__crt_stdio_output@@CAPA_WXZ 10070ad0 f i libucrtd:output.obj
 0001:0006fae0       ?write_character@?$output_adapter_common@DV?$stream_output_adapter@D@__crt_stdio_output@@@__crt_stdio_output@@QBEXDQAHAAV__crt_cached_ptd_host@@@Z 10070ae0 f i libucrtd:output.obj
 0001:0006fb20       ?write_character@?$output_adapter_common@_WV?$stream_output_adapter@_W@__crt_stdio_output@@@__crt_stdio_output@@QBEX_WQAHAAV__crt_cached_ptd_host@@@Z 10070b20 f i libucrtd:output.obj
 0001:0006fb60       ?write_character@?$string_output_adapter@D@__crt_stdio_output@@QBE_NDQAHAAV__crt_cached_ptd_host@@@Z 10070b60 f i libucrtd:output.obj
 0001:0006fbf0       ?write_character@?$string_output_adapter@_W@__crt_stdio_output@@QBE_N_WQAHAAV__crt_cached_ptd_host@@@Z 10070bf0 f i libucrtd:output.obj
 0001:0006fc90       ?write_character_without_count_update@?$stream_output_adapter@D@__crt_stdio_output@@QBE_NDAAV__crt_cached_ptd_host@@@Z 10070c90 f i libucrtd:output.obj
 0001:0006fd00       ?write_character_without_count_update@?$stream_output_adapter@_W@__crt_stdio_output@@QBE_N_WAAV__crt_cached_ptd_host@@@Z 10070d00 f i libucrtd:output.obj
 0001:0006fd70       ?write_stored_string_tchar@?$output_processor@DV?$stream_output_adapter@D@__crt_stdio_output@@V?$format_validation_base@DV?$stream_output_adapter@D@__crt_stdio_output@@@2@@__crt_stdio_output@@AAE_ND@Z 10070d70 f i libucrtd:output.obj
 0001:0006fe90       ?write_stored_string_tchar@?$output_processor@DV?$stream_output_adapter@D@__crt_stdio_output@@V?$positional_parameter_base@DV?$stream_output_adapter@D@__crt_stdio_output@@@2@@__crt_stdio_output@@AAE_ND@Z 10070e90 f i libucrtd:output.obj
 0001:0006ffb0       ?write_stored_string_tchar@?$output_processor@DV?$stream_output_adapter@D@__crt_stdio_output@@V?$standard_base@DV?$stream_output_adapter@D@__crt_stdio_output@@@2@@__crt_stdio_output@@AAE_ND@Z 10070fb0 f i libucrtd:output.obj
 0001:000700d0       ?write_stored_string_tchar@?$output_processor@DV?$string_output_adapter@D@__crt_stdio_output@@V?$format_validation_base@DV?$string_output_adapter@D@__crt_stdio_output@@@2@@__crt_stdio_output@@AAE_ND@Z 100710d0 f i libucrtd:output.obj
 0001:000701f0       ?write_stored_string_tchar@?$output_processor@DV?$string_output_adapter@D@__crt_stdio_output@@V?$positional_parameter_base@DV?$string_output_adapter@D@__crt_stdio_output@@@2@@__crt_stdio_output@@AAE_ND@Z 100711f0 f i libucrtd:output.obj
 0001:00070310       ?write_stored_string_tchar@?$output_processor@DV?$string_output_adapter@D@__crt_stdio_output@@V?$standard_base@DV?$string_output_adapter@D@__crt_stdio_output@@@2@@__crt_stdio_output@@AAE_ND@Z 10071310 f i libucrtd:output.obj
 0001:00070430       ?write_stored_string_tchar@?$output_processor@_WV?$stream_output_adapter@_W@__crt_stdio_output@@V?$format_validation_base@_WV?$stream_output_adapter@_W@__crt_stdio_output@@@2@@__crt_stdio_output@@AAE_N_W@Z 10071430 f i libucrtd:output.obj
 0001:00070540       ?write_stored_string_tchar@?$output_processor@_WV?$stream_output_adapter@_W@__crt_stdio_output@@V?$positional_parameter_base@_WV?$stream_output_adapter@_W@__crt_stdio_output@@@2@@__crt_stdio_output@@AAE_N_W@Z 10071540 f i libucrtd:output.obj
 0001:00070650       ?write_stored_string_tchar@?$output_processor@_WV?$stream_output_adapter@_W@__crt_stdio_output@@V?$standard_base@_WV?$stream_output_adapter@_W@__crt_stdio_output@@@2@@__crt_stdio_output@@AAE_N_W@Z 10071650 f i libucrtd:output.obj
 0001:00070760       ?write_stored_string_tchar@?$output_processor@_WV?$string_output_adapter@_W@__crt_stdio_output@@V?$format_validation_base@_WV?$string_output_adapter@_W@__crt_stdio_output@@@2@@__crt_stdio_output@@AAE_N_W@Z 10071760 f i libucrtd:output.obj
 0001:00070870       ?write_stored_string_tchar@?$output_processor@_WV?$string_output_adapter@_W@__crt_stdio_output@@V?$positional_parameter_base@_WV?$string_output_adapter@_W@__crt_stdio_output@@@2@@__crt_stdio_output@@AAE_N_W@Z 10071870 f i libucrtd:output.obj
 0001:00070980       ?write_stored_string_tchar@?$output_processor@_WV?$string_output_adapter@_W@__crt_stdio_output@@V?$standard_base@_WV?$string_output_adapter@_W@__crt_stdio_output@@@2@@__crt_stdio_output@@AAE_N_W@Z 10071980 f i libucrtd:output.obj
 0001:00070a90       ?write_string@?$stream_output_adapter@D@__crt_stdio_output@@QBEXQBDHQAHAAV__crt_cached_ptd_host@@@Z 10071a90 f i libucrtd:output.obj
 0001:00070af0       ?write_string@?$stream_output_adapter@_W@__crt_stdio_output@@QBEXQB_WHQAHAAV__crt_cached_ptd_host@@@Z 10071af0 f i libucrtd:output.obj
 0001:00070b50       ?write_string@?$string_output_adapter@D@__crt_stdio_output@@QBEXQBDHQAHAAV__crt_cached_ptd_host@@@Z 10071b50 f i libucrtd:output.obj
 0001:00070c50       ?write_string@?$string_output_adapter@_W@__crt_stdio_output@@QBEXQB_WHQAHAAV__crt_cached_ptd_host@@@Z 10071c50 f i libucrtd:output.obj
 0001:00070d60       ?write_string_impl@?$output_adapter_common@DV?$stream_output_adapter@D@__crt_stdio_output@@@__crt_stdio_output@@IBEXQBDHQAHAAV__crt_cached_ptd_host@@@Z 10071d60 f i libucrtd:output.obj
 0001:00070e20       ?write_string_impl@?$output_adapter_common@_WV?$stream_output_adapter@_W@__crt_stdio_output@@@__crt_stdio_output@@IBEXQB_WHQAHAAV__crt_cached_ptd_host@@@Z 10071e20 f i libucrtd:output.obj
 0001:00070ee0       ___acrt_disable_global_locale_sync 10071ee0 f i libucrtd:output.obj
 0001:00070f00       ___acrt_enable_global_locale_sync 10071f00 f i libucrtd:output.obj
 0001:00070f20       ___acrt_isleadbyte_l_noupdate 10071f20 f i libucrtd:output.obj
 0001:00070f40       ___acrt_locale_changed     10071f40 f i libucrtd:output.obj
 0001:00070f70       ___acrt_locale_get_ctype_array_value 10071f70 f i libucrtd:output.obj
 0001:00070fa0       ___ascii_iswalpha          10071fa0 f i libucrtd:output.obj
 0001:00070fe0       ___ascii_toupper           10071fe0 f i libucrtd:output.obj
 0001:00071000       ___ascii_towupper          10072000 f i libucrtd:output.obj
 0001:00071020       ___stdio_common_vfprintf   10072020 f   libucrtd:output.obj
 0001:00071070       ___stdio_common_vfprintf_p 10072070 f   libucrtd:output.obj
 0001:000710c0       ___stdio_common_vfprintf_s 100720c0 f   libucrtd:output.obj
 0001:00071110       ___stdio_common_vfwprintf  10072110 f   libucrtd:output.obj
 0001:00071160       ___stdio_common_vfwprintf_p 10072160 f   libucrtd:output.obj
 0001:000711b0       ___stdio_common_vfwprintf_s 100721b0 f   libucrtd:output.obj
 0001:00071200       ___stdio_common_vsnprintf_s 10072200 f   libucrtd:output.obj
 0001:00071250       ___stdio_common_vsnwprintf_s 10072250 f   libucrtd:output.obj
 0001:000712a0       ___stdio_common_vsprintf   100722a0 f   libucrtd:output.obj
 0001:000712f0       ___stdio_common_vsprintf_p 100722f0 f   libucrtd:output.obj
 0001:00071340       ___stdio_common_vsprintf_s 10072340 f   libucrtd:output.obj
 0001:00071390       ___stdio_common_vswprintf  10072390 f   libucrtd:output.obj
 0001:000713e0       ___stdio_common_vswprintf_p 100723e0 f   libucrtd:output.obj
 0001:00071430       ___stdio_common_vswprintf_s 10072430 f   libucrtd:output.obj
 0001:00071480       __ctype_fast_check_internal 10072480 f i libucrtd:output.obj
 0001:000714a0       __isdigit_fast_internal    100724a0 f i libucrtd:output.obj
 0001:000714c0       __tolower_fast_internal    100724c0 f i libucrtd:output.obj
 0001:000714e0       _free                      100724e0 f   libucrtd:free.obj
 0001:00071510       _malloc                    10072510 f   libucrtd:malloc.obj
 0001:00071530       ??$?RU?$__crt_report_hook_node@D@@@__crt_internal_free_policy@@QBEXQBU?$__crt_report_hook_node@D@@@Z 10072530 f i libucrtd:dbgrpt.obj
 0001:00071550       ??$?RU?$__crt_report_hook_node@_W@@@__crt_internal_free_policy@@QBEXQBU?$__crt_report_hook_node@_W@@@Z 10072550 f i libucrtd:dbgrpt.obj
 0001:00072420       ??$get_module_file_name@AAPAUHINSTANCE__@@AAY0BAF@DK@?$__crt_char_traits@D@@SAKAAPAUHINSTANCE__@@AAY0BAF@D$$QAK@Z 10073420 f i libucrtd:dbgrpt.obj
 0001:00072440       ??$get_module_file_name@AAPAUHINSTANCE__@@AAY0BAF@_WK@?$__crt_char_traits@_W@@SAKAAPAUHINSTANCE__@@AAY0BAF@_W$$QAK@Z 10073440 f i libucrtd:dbgrpt.obj
 0001:00072460       ??$tcscpy_s@AAY0BAF@DIPBD@?$__crt_char_traits@D@@SAHAAY0BAF@D$$QAI$$QAPBD@Z 10073460 f i libucrtd:dbgrpt.obj
 0001:00072480       ??$tcscpy_s@AAY0BAF@_WIPB_W@?$__crt_char_traits@_W@@SAHAAY0BAF@_W$$QAI$$QAPB_W@Z 10073480 f i libucrtd:dbgrpt.obj
 0001:000724a0       ??$tcslen@AAY0BAF@D@?$__crt_char_traits@D@@SAIAAY0BAF@D@Z 100734a0 f i libucrtd:dbgrpt.obj
 0001:000724c0       ??$tcslen@AAY0BAF@_W@?$__crt_char_traits@_W@@SAIAAY0BAF@_W@Z 100734c0 f i libucrtd:dbgrpt.obj
 0001:000724e0       ??$tcslen@ABQBD@?$__crt_char_traits@D@@SAIABQBD@Z 100734e0 f i libucrtd:dbgrpt.obj
 0001:00072500       ??$tcslen@ABQB_W@?$__crt_char_traits@_W@@SAIABQB_W@Z 10073500 f i libucrtd:dbgrpt.obj
 0001:00072600       ??0?$__crt_unique_heap_ptr@U?$__crt_report_hook_node@D@@U__crt_internal_free_policy@@@@QAE@QAU?$__crt_report_hook_node@D@@@Z 10073600 f i libucrtd:dbgrpt.obj
 0001:00072620       ??0?$__crt_unique_heap_ptr@U?$__crt_report_hook_node@_W@@U__crt_internal_free_policy@@@@QAE@QAU?$__crt_report_hook_node@_W@@@Z 10073620 f i libucrtd:dbgrpt.obj
 0001:00072640       ??1?$__crt_unique_heap_ptr@U?$__crt_report_hook_node@D@@U__crt_internal_free_policy@@@@QAE@XZ 10073640 f i libucrtd:dbgrpt.obj
 0001:00072660       ??1?$__crt_unique_heap_ptr@U?$__crt_report_hook_node@_W@@U__crt_internal_free_policy@@@@QAE@XZ 10073660 f i libucrtd:dbgrpt.obj
 0001:00072680       ??B?$__crt_unique_heap_ptr@U?$__crt_report_hook_node@D@@U__crt_internal_free_policy@@@@QBE_NXZ 10073680 f i libucrtd:dbgrpt.obj
 0001:000726a0       ??B?$__crt_unique_heap_ptr@U?$__crt_report_hook_node@_W@@U__crt_internal_free_policy@@@@QBE_NXZ 100736a0 f i libucrtd:dbgrpt.obj
 0001:00072c00       ?detach@?$__crt_unique_heap_ptr@U?$__crt_report_hook_node@D@@U__crt_internal_free_policy@@@@QAEPAU?$__crt_report_hook_node@D@@XZ 10073c00 f i libucrtd:dbgrpt.obj
 0001:00072c30       ?detach@?$__crt_unique_heap_ptr@U?$__crt_report_hook_node@_W@@U__crt_internal_free_policy@@@@QAEPAU?$__crt_report_hook_node@_W@@XZ 10073c30 f i libucrtd:dbgrpt.obj
 0001:00072c60       ?get@?$__crt_unique_heap_ptr@U?$__crt_report_hook_node@D@@U__crt_internal_free_policy@@@@QBEPAU?$__crt_report_hook_node@D@@XZ 10073c60 f i libucrtd:dbgrpt.obj
 0001:00072c80       ?get@?$__crt_unique_heap_ptr@U?$__crt_report_hook_node@_W@@U__crt_internal_free_policy@@@@QBEPAU?$__crt_report_hook_node@_W@@XZ 10073c80 f i libucrtd:dbgrpt.obj
 0001:00072d00       ?is_valid@?$__crt_unique_heap_ptr@U?$__crt_report_hook_node@D@@U__crt_internal_free_policy@@@@QBE_NXZ 10073d00 f i libucrtd:dbgrpt.obj
 0001:00072d30       ?is_valid@?$__crt_unique_heap_ptr@U?$__crt_report_hook_node@_W@@U__crt_internal_free_policy@@@@QBE_NXZ 10073d30 f i libucrtd:dbgrpt.obj
 0001:00072d60       ?release@?$__crt_unique_heap_ptr@U?$__crt_report_hook_node@D@@U__crt_internal_free_policy@@@@QAEXXZ 10073d60 f i libucrtd:dbgrpt.obj
 0001:00072d90       ?release@?$__crt_unique_heap_ptr@U?$__crt_report_hook_node@_W@@U__crt_internal_free_policy@@@@QAEXXZ 10073d90 f i libucrtd:dbgrpt.obj
 0001:00072dc0       __CrtDbgReport             10073dc0 f   libucrtd:dbgrpt.obj
 0001:00072e10       __CrtDbgReportW            10073e10 f   libucrtd:dbgrpt.obj
 0001:00072e60       __CrtSetReportHook2        10073e60 f   libucrtd:dbgrpt.obj
 0001:00072e80       __CrtSetReportHookW2       10073e80 f   libucrtd:dbgrpt.obj
 0001:00072ea0       ___acrt_MessageWindowA     10073ea0 f   libucrtd:dbgrpt.obj
 0001:00072ed0       ___acrt_MessageWindowW     10073ed0 f   libucrtd:dbgrpt.obj
 0001:00072f00       __invoke_watson_if_error   10073f00 f i libucrtd:dbgrpt.obj
 0001:00072f30       __invoke_watson_if_oneof   10073f30 f i libucrtd:dbgrpt.obj
 0001:00072f70       __snwprintf_s              10073f70 f i libucrtd:dbgrpt.obj
 0001:00072fb0       __vsnwprintf_s_l           10073fb0 f i libucrtd:dbgrpt.obj
 0001:00073330       _wcscpy_s                  10074330 f   libucrtd:wcscpy_s.obj
 0001:00074050       ??1?$__crt_simd_cleanup_guard@$00@@QAE@XZ 10075050 f i libucrtd:strnlen.obj
 0001:00074060       ??1?$__crt_simd_cleanup_guard@$0A@@@QAE@XZ 10075060 f i libucrtd:strnlen.obj
 0001:00074070       ?compare_equals@?$__crt_simd_traits@$00E@@SA?AT__m256i@@T2@0@Z 10075070 f i libucrtd:strnlen.obj
 0001:000740b0       ?compare_equals@?$__crt_simd_traits@$00G@@SA?AT__m256i@@T2@0@Z 100750b0 f i libucrtd:strnlen.obj
 0001:000740f0       ?compare_equals@?$__crt_simd_traits@$0A@E@@SA?AT__m128i@@T2@0@Z 100750f0 f i libucrtd:strnlen.obj
 0001:00074130       ?compare_equals@?$__crt_simd_traits@$0A@G@@SA?AT__m128i@@T2@0@Z 10075130 f i libucrtd:strnlen.obj
 0001:00074170       ?compute_byte_mask@?$__crt_simd_pack_traits@$00@@SAHT__m256i@@@Z 10075170 f i libucrtd:strnlen.obj
 0001:000741a0       ?compute_byte_mask@?$__crt_simd_pack_traits@$0A@@@SAHT__m128i@@@Z 100751a0 f i libucrtd:strnlen.obj
 0001:000741d0       ?get_zero_pack@?$__crt_simd_pack_traits@$00@@SA?AT__m256i@@XZ 100751d0 f i libucrtd:strnlen.obj
 0001:00074200       ?get_zero_pack@?$__crt_simd_pack_traits@$0A@@@SA?AT__m128i@@XZ 10075200 f i libucrtd:strnlen.obj
 0001:00074230       _strnlen                   10075230 f   libucrtd:strnlen.obj
 0001:00074250       _wcslen                    10075250 f   libucrtd:strnlen.obj
 0001:00074270       _wcsnlen                   10075270 f   libucrtd:strnlen.obj
 0001:00074290       ??$__crt_fast_decode_pointer@P6AXPB_W00II@Z@@YAP6AXPB_W00II@ZQ6AX000II@Z@Z 10075290 f i libucrtd:invalid_parameter.obj
 0001:000742c0       ??$__crt_fast_encode_pointer@P6AXPB_W00II@Z@@YAP6AXPB_W00II@ZQ6AX000II@Z@Z 100752c0 f i libucrtd:invalid_parameter.obj
 0001:000742f0       ??$initialize_from_array@$$BY00Q6AXPB_W00II@Z@?$dual_state_global@P6AXPB_W00II@Z@__crt_state_management@@QAAXAAY00Q6AXPB_W00II@Z@Z 100752f0 f i libucrtd:invalid_parameter.obj
 0001:00074340       ?__crt_rotate_pointer_value@@YAIIH@Z 10075340 f i libucrtd:invalid_parameter.obj
 0001:00074350       ?check_synchronize_global_state_index@__crt_cached_ptd_host@@AAEIXZ 10075350 f i libucrtd:invalid_parameter.obj
 0001:000743a0       ?dangerous_get_state_array@?$dual_state_global@P6AXPB_W00II@Z@__crt_state_management@@QAEPAP6AXPB_W00II@ZXZ 100753a0 f i libucrtd:invalid_parameter.obj
 0001:000743b0       ?get_current_global_state_index@__crt_cached_ptd_host@@QAEIXZ 100753b0 f i libucrtd:invalid_parameter.obj
 0001:000743d0       ?get_current_state_index@__crt_state_management@@YAIXZ 100753d0 f i libucrtd:invalid_parameter.obj
 0001:000743e0       ?get_raw_ptd_noexit@__crt_cached_ptd_host@@QAEPAU__acrt_ptd@@XZ 100753e0 f i libucrtd:invalid_parameter.obj
 0001:00074400       ?try_synchronize_per_thread_data@__crt_cached_ptd_host@@AAEPAU__acrt_ptd@@XZ 10075400 f i libucrtd:invalid_parameter.obj
 0001:00074430       ?value@?$dual_state_global@P6AXPB_W00II@Z@__crt_state_management@@QAEAAP6AXPB_W00II@ZAAV__crt_cached_ptd_host@@@Z 10075430 f i libucrtd:invalid_parameter.obj
 0001:00074450       ?value@?$dual_state_global@P6AXPB_W00II@Z@__crt_state_management@@QAEAAP6AXPB_W00II@ZXZ 10075450 f i libucrtd:invalid_parameter.obj
 0001:00074470       ___acrt_call_reportfault   10075470 f   libucrtd:invalid_parameter.obj
 0001:000745d0       ___acrt_initialize_invalid_parameter_handler 100755d0 f   libucrtd:invalid_parameter.obj
 0001:00074600       __get_invalid_parameter_handler 10075600 f   libucrtd:invalid_parameter.obj
 0001:00074620       __get_thread_local_invalid_parameter_handler 10075620 f   libucrtd:invalid_parameter.obj
 0001:00074650       __invalid_parameter        10075650 f   libucrtd:invalid_parameter.obj
 0001:00074690       __invalid_parameter_internal 10075690 f   libucrtd:invalid_parameter.obj
 0001:00074760       __invalid_parameter_noinfo 10075760 f   libucrtd:invalid_parameter.obj
 0001:00074780       __invalid_parameter_noinfo_noreturn 10075780 f   libucrtd:invalid_parameter.obj
 0001:000747b0       __invoke_watson            100757b0 f   libucrtd:invalid_parameter.obj
 0001:000747f0       __set_invalid_parameter_handler 100757f0 f   libucrtd:invalid_parameter.obj
 0001:00074840       __set_thread_local_invalid_parameter_handler 10075840 f   libucrtd:invalid_parameter.obj
 0001:00074870       ?get_doserrno@__crt_cached_ptd_host@@QAEAAU?$cached@K@1@XZ 10075870 f i libucrtd:errno.obj
 0001:00074890       ?set@?$cached@K@__crt_cached_ptd_host@@QAEKK@Z 10075890 f i libucrtd:errno.obj
 0001:000748c0       ___acrt_errno_from_os_error 100758c0 f   libucrtd:errno.obj
 0001:00074940       ___acrt_errno_map_os_error 10075940 f   libucrtd:errno.obj
 0001:00074970       ___acrt_errno_map_os_error_ptd 10075970 f   libucrtd:errno.obj
 0001:000749c0       ___doserrno                100759c0 f   libucrtd:errno.obj
 0001:000749f0       __errno                    100759f0 f   libucrtd:errno.obj
 0001:00074a20       __get_doserrno             10075a20 f   libucrtd:errno.obj
 0001:00074ab0       __get_errno                10075ab0 f   libucrtd:errno.obj
 0001:00074b40       __set_doserrno             10075b40 f   libucrtd:errno.obj
 0001:00074b70       __set_errno                10075b70 f   libucrtd:errno.obj
 0001:00074ba0       _calloc                    10075ba0 f   libucrtd:calloc.obj
 0001:00074bc0       __recalloc                 10075bc0 f   libucrtd:recalloc.obj
 0001:00074bf0       __recalloc_base            10075bf0 f   libucrtd:recalloc.obj
 0001:00074c90       __resetstkoflw             10075c90 f   libucrtd:resetstk.obj
 0001:000751f0       _wcscat_s                  100761f0 f   libucrtd:wcscat_s.obj
 0001:00075640       _wcsncpy_s                 10076640 f   libucrtd:wcsncpy_s.obj
 0001:00075780       ___isascii                 10076780 f   libucrtd:_ctype.obj
 0001:000757b0       ___iscsym                  100767b0 f   libucrtd:_ctype.obj
 0001:000757f0       ___iscsymf                 100767f0 f   libucrtd:_ctype.obj
 0001:00075830       ___toascii                 10076830 f   libucrtd:_ctype.obj
 0001:00075840       __isalnum_l                10076840 f   libucrtd:_ctype.obj
 0001:00075860       __isalpha_l                10076860 f   libucrtd:_ctype.obj
 0001:00075880       __isblank_l                10076880 f   libucrtd:_ctype.obj
 0001:000758a0       __iscntrl_l                100768a0 f   libucrtd:_ctype.obj
 0001:000758c0       __iscsym_l                 100768c0 f   libucrtd:_ctype.obj
 0001:00075900       __iscsymf_l                10076900 f   libucrtd:_ctype.obj
 0001:00075940       __isdigit_l                10076940 f   libucrtd:_ctype.obj
 0001:00075960       __isgraph_l                10076960 f   libucrtd:_ctype.obj
 0001:00075980       __islower_l                10076980 f   libucrtd:_ctype.obj
 0001:000759a0       __isprint_l                100769a0 f   libucrtd:_ctype.obj
 0001:000759c0       __ispunct_l                100769c0 f   libucrtd:_ctype.obj
 0001:000759e0       __isspace_l                100769e0 f   libucrtd:_ctype.obj
 0001:00075a00       __isupper_l                10076a00 f   libucrtd:_ctype.obj
 0001:00075a20       __isxdigit_l               10076a20 f   libucrtd:_ctype.obj
 0001:00075a40       _isalnum                   10076a40 f   libucrtd:_ctype.obj
 0001:00075a60       _isalpha                   10076a60 f   libucrtd:_ctype.obj
 0001:00075a80       _isblank                   10076a80 f   libucrtd:_ctype.obj
 0001:00075ab0       _iscntrl                   10076ab0 f   libucrtd:_ctype.obj
 0001:00075ad0       _isdigit                   10076ad0 f   libucrtd:_ctype.obj
 0001:00075af0       _isgraph                   10076af0 f   libucrtd:_ctype.obj
 0001:00075b10       _islower                   10076b10 f   libucrtd:_ctype.obj
 0001:00075b30       _isprint                   10076b30 f   libucrtd:_ctype.obj
 0001:00075b50       _ispunct                   10076b50 f   libucrtd:_ctype.obj
 0001:00075b70       _isspace                   10076b70 f   libucrtd:_ctype.obj
 0001:00075b90       _isupper                   10076b90 f   libucrtd:_ctype.obj
 0001:00075bb0       _isxdigit                  10076bb0 f   libucrtd:_ctype.obj
 0001:00075bd0       _wcscat                    10076bd0 f   libucrtd:wcscat.obj
 0001:00075c30       _wcscpy                    10076c30 f   libucrtd:wcscpy.obj
 0001:000762c0       ??$open_file@ABQBDABQBDABHPAU_iobuf@@@?$__crt_char_traits@D@@SAPAU_iobuf@@ABQBD0ABH$$QAPAU1@@Z 100772c0 f i libucrtd:fopen.obj
 0001:000762f0       ??$open_file@ABQB_WABQB_WABHPAU_iobuf@@@?$__crt_char_traits@_W@@SAPAU_iobuf@@ABQB_W0ABH$$QAPAU1@@Z 100772f0 f i libucrtd:fopen.obj
 0001:00076320       ?unlock@__crt_stdio_stream@@QBEXXZ 10077320 f i libucrtd:fopen.obj
 0001:00076340       __fsopen                   10077340 f   libucrtd:fopen.obj
 0001:00076360       __wfopen                   10077360 f   libucrtd:fopen.obj
 0001:00076380       __wfopen_s                 10077380 f   libucrtd:fopen.obj
 0001:000763a0       __wfsopen                  100773a0 f   libucrtd:fopen.obj
 0001:000763c0       _fopen                     100773c0 f   libucrtd:fopen.obj
 0001:000763e0       _fopen_s                   100773e0 f   libucrtd:fopen.obj
 0001:000766c0       ?is_in_use@__crt_stdio_stream@@QBE_NXZ 100776c0 f i libucrtd:fclose.obj
 0001:00076700       __fclose_nolock            10077700 f   libucrtd:fclose.obj
 0001:00076740       _fclose                    10077740 f   libucrtd:fclose.obj
 0001:000769e0       __fputc_nolock             100779e0 f   libucrtd:fputc.obj
 0001:00076a20       __fputc_nolock_internal    10077a20 f   libucrtd:fputc.obj
 0001:00076ab0       __fputchar                 10077ab0 f   libucrtd:fputc.obj
 0001:00076ad0       __putc_nolock              10077ad0 f   libucrtd:fputc.obj
 0001:00076af0       _fputc                     10077af0 f   libucrtd:fputc.obj
 0001:00076b30       _putc                      10077b30 f   libucrtd:fputc.obj
 0001:00076b50       _putchar                   10077b50 f   libucrtd:fputc.obj
 0001:00076bc0       __seh_filter_dll           10077bc0 f   libucrtd:exception_filter.obj
 0001:00076bf0       __seh_filter_exe           10077bf0 f   libucrtd:exception_filter.obj
 0001:00076e10       ??$?B$$A6GXPAXK0@Z@__crt_fast_encoded_nullptr_t@@QBEP6GXPAXK0@ZXZ 10077e10 f i libucrtd:exit.obj
 0001:00076f20       ??$__crt_fast_decode_pointer@P6GXPAXK0@Z@@YAP6GXPAXK0@ZQ6GX0K0@Z@Z 10077f20 f i libucrtd:exit.obj
 0001:00076f50       ??$__crt_fast_encode_pointer@P6GXPAXK0@Z@@YAP6GXPAXK0@ZQ6GX0K0@Z@Z 10077f50 f i libucrtd:exit.obj
 0001:00076f80       ??$__crt_get_proc_address@P6GXI@Z@@YAP6GXI@ZQAUHINSTANCE__@@QBD@Z 10077f80 f i libucrtd:exit.obj
 0001:00077010       ??0?$__crt_unique_handle_t@U__crt_hmodule_traits@@@@QAE@QAUHINSTANCE__@@@Z 10078010 f i libucrtd:exit.obj
 0001:00077030       ??1?$__crt_unique_handle_t@U__crt_hmodule_traits@@@@QAE@XZ 10078030 f i libucrtd:exit.obj
 0001:000771f0       ?__acrt_select_exit_lock@@YA?AW4__acrt_lock_id@@XZ 100781f0 f i libucrtd:exit.obj
 0001:00077200       ?__crt_fast_encode_pointer@@YA?AU__crt_fast_encoded_nullptr_t@@$$T@Z 10078200 f i libucrtd:exit.obj
 0001:00077230       ?close@?$__crt_unique_handle_t@U__crt_hmodule_traits@@@@QAEXXZ 10078230 f i libucrtd:exit.obj
 0001:00077270       ?close@__crt_hmodule_traits@@SA_NPAUHINSTANCE__@@@Z 10078270 f i libucrtd:exit.obj
 0001:000773a0       ?get@?$__crt_unique_handle_t@U__crt_hmodule_traits@@@@QBEPAUHINSTANCE__@@XZ 100783a0 f i libucrtd:exit.obj
 0001:000773c0       ?get_address_of@?$__crt_unique_handle_t@U__crt_hmodule_traits@@@@QAEPAPAUHINSTANCE__@@XZ 100783c0 f i libucrtd:exit.obj
 0001:000773d0       ?get_invalid_value@__crt_hmodule_traits@@SAPAUHINSTANCE__@@XZ 100783d0 f i libucrtd:exit.obj
 0001:00077580       __Exit                     10078580 f   libucrtd:exit.obj
 0001:000775a0       ___acrt_initialize_thread_local_exit_callback 100785a0 f   libucrtd:exit.obj
 0001:000775b0       __c_exit                   100785b0 f   libucrtd:exit.obj
 0001:000775d0       __cexit                    100785d0 f   libucrtd:exit.obj
 0001:000775f0       __exit                     100785f0 f   libucrtd:exit.obj
 0001:00077610       __is_c_termination_complete 10078610 f   libucrtd:exit.obj
 0001:00077630       __register_thread_local_exe_atexit_callback 10078630 f   libucrtd:exit.obj
 0001:00077670       _exit                      10078670 f   libucrtd:exit.obj
 0001:00077690       _quick_exit                10078690 f   libucrtd:exit.obj
 0001:000776b0       ??$?RE@__crt_internal_free_policy@@QBEXQBE@Z 100786b0 f i libucrtd:argv_parsing.obj
 0001:000776d0       ??$?RPAD@__crt_internal_free_policy@@QBEXQBQAD@Z 100786d0 f i libucrtd:argv_parsing.obj
 0001:000776f0       ??$?RPA_W@__crt_internal_free_policy@@QBEXQBQA_W@Z 100786f0 f i libucrtd:argv_parsing.obj
 0001:00077cb0       ??$get_module_file_name@$$TAAY0BAF@DH@?$__crt_char_traits@D@@SAK$$QA$$TAAY0BAF@D$$QAH@Z 10078cb0 f i libucrtd:argv_parsing.obj
 0001:00077cd0       ??$get_module_file_name@$$TAAY0BAF@_WH@?$__crt_char_traits@_W@@SAK$$QA$$TAAY0BAF@_W$$QAH@Z 10078cd0 f i libucrtd:argv_parsing.obj
 0001:00078410       ??$set_program_name@PAD@?$__crt_char_traits@D@@SAX$$QAPAD@Z 10079410 f i libucrtd:argv_parsing.obj
 0001:00078430       ??$set_program_name@PA_W@?$__crt_char_traits@_W@@SAX$$QAPA_W@Z 10079430 f i libucrtd:argv_parsing.obj
 0001:00078490       ??0?$__crt_unique_heap_ptr@EU__crt_internal_free_policy@@@@QAE@QAE@Z 10079490 f i libucrtd:argv_parsing.obj
 0001:000784b0       ??0?$__crt_unique_heap_ptr@PADU__crt_internal_free_policy@@@@QAE@QAPAD@Z 100794b0 f i libucrtd:argv_parsing.obj
 0001:000784d0       ??0?$__crt_unique_heap_ptr@PA_WU__crt_internal_free_policy@@@@QAE@QAPA_W@Z 100794d0 f i libucrtd:argv_parsing.obj
 0001:000784f0       ??1?$__crt_unique_heap_ptr@EU__crt_internal_free_policy@@@@QAE@XZ 100794f0 f i libucrtd:argv_parsing.obj
 0001:00078510       ??1?$__crt_unique_heap_ptr@PADU__crt_internal_free_policy@@@@QAE@XZ 10079510 f i libucrtd:argv_parsing.obj
 0001:00078530       ??1?$__crt_unique_heap_ptr@PA_WU__crt_internal_free_policy@@@@QAE@XZ 10079530 f i libucrtd:argv_parsing.obj
 0001:00078550       ??B?$__crt_unique_heap_ptr@EU__crt_internal_free_policy@@@@QBE_NXZ 10079550 f i libucrtd:argv_parsing.obj
 0001:00078610       ?detach@?$__crt_unique_heap_ptr@EU__crt_internal_free_policy@@@@QAEPAEXZ 10079610 f i libucrtd:argv_parsing.obj
 0001:00078640       ?detach@?$__crt_unique_heap_ptr@PADU__crt_internal_free_policy@@@@QAEPAPADXZ 10079640 f i libucrtd:argv_parsing.obj
 0001:00078670       ?detach@?$__crt_unique_heap_ptr@PA_WU__crt_internal_free_policy@@@@QAEPAPA_WXZ 10079670 f i libucrtd:argv_parsing.obj
 0001:00078700       ?get@?$__crt_unique_heap_ptr@EU__crt_internal_free_policy@@@@QBEPAEXZ 10079700 f i libucrtd:argv_parsing.obj
 0001:00078720       ?get@?$__crt_unique_heap_ptr@PADU__crt_internal_free_policy@@@@QBEPAPADXZ 10079720 f i libucrtd:argv_parsing.obj
 0001:00078740       ?get@?$__crt_unique_heap_ptr@PA_WU__crt_internal_free_policy@@@@QBEPAPA_WXZ 10079740 f i libucrtd:argv_parsing.obj
 0001:00078760       ?get_address_of@?$__crt_unique_heap_ptr@PADU__crt_internal_free_policy@@@@QAEPAPAPADXZ 10079760 f i libucrtd:argv_parsing.obj
 0001:00078770       ?get_address_of@?$__crt_unique_heap_ptr@PA_WU__crt_internal_free_policy@@@@QAEPAPAPA_WXZ 10079770 f i libucrtd:argv_parsing.obj
 0001:000787c0       ?is_valid@?$__crt_unique_heap_ptr@EU__crt_internal_free_policy@@@@QBE_NXZ 100797c0 f i libucrtd:argv_parsing.obj
 0001:000787f0       ?release@?$__crt_unique_heap_ptr@EU__crt_internal_free_policy@@@@QAEXXZ 100797f0 f i libucrtd:argv_parsing.obj
 0001:00078820       ?release@?$__crt_unique_heap_ptr@PADU__crt_internal_free_policy@@@@QAEXXZ 10079820 f i libucrtd:argv_parsing.obj
 0001:00078850       ?release@?$__crt_unique_heap_ptr@PA_WU__crt_internal_free_policy@@@@QAEXXZ 10079850 f i libucrtd:argv_parsing.obj
 0001:000788c0       ___acrt_allocate_buffer_for_argv 100798c0 f   libucrtd:argv_parsing.obj
 0001:00078980       __configure_narrow_argv    10079980 f   libucrtd:argv_parsing.obj
 0001:000789a0       __configure_wide_argv      100799a0 f   libucrtd:argv_parsing.obj
 0001:000789c0       __set_pgmptr               100799c0 f i libucrtd:argv_parsing.obj
 0001:000789d0       __set_wpgmptr              100799d0 f i libucrtd:argv_parsing.obj
 0001:000789e0       ??$?R_W@__crt_internal_free_policy@@QBEXQB_W@Z 100799e0 f i libucrtd:environment_initialization.obj
 0001:000791c0       ??$get_environment_from_os@$$V@?$__crt_char_traits@D@@SAPADXZ 1007a1c0 f i libucrtd:environment_initialization.obj
 0001:000791d0       ??$get_environment_from_os@$$V@?$__crt_char_traits@_W@@SAPA_WXZ 1007a1d0 f i libucrtd:environment_initialization.obj
 0001:000794a0       ??$set_variable_in_environment_nolock@PADH@?$__crt_char_traits@D@@SAH$$QAPAD$$QAH@Z 1007a4a0 f i libucrtd:environment_initialization.obj
 0001:000794c0       ??$set_variable_in_environment_nolock@PA_WH@?$__crt_char_traits@_W@@SAH$$QAPA_W$$QAH@Z 1007a4c0 f i libucrtd:environment_initialization.obj
 0001:000794e0       ??$tcscpy_s@PADABIAAPAD@?$__crt_char_traits@D@@SAH$$QAPADABIAAPAD@Z 1007a4e0 f i libucrtd:environment_initialization.obj
 0001:00079510       ??$tcscpy_s@PA_WABIAAPA_W@?$__crt_char_traits@_W@@SAH$$QAPA_WABIAAPA_W@Z 1007a510 f i libucrtd:environment_initialization.obj
 0001:00079540       ??$tcslen@AAPAD@?$__crt_char_traits@D@@SAIAAPAD@Z 1007a540 f i libucrtd:environment_initialization.obj
 0001:00079560       ??$tcslen@AAPA_W@?$__crt_char_traits@_W@@SAIAAPA_W@Z 1007a560 f i libucrtd:environment_initialization.obj
 0001:00079580       ??$uninitialize@A6AXAAPAPAD@_E@?$dual_state_global@PAPAD@__crt_state_management@@QAEXA6AXAAPAPAD@_E@Z 1007a580 f i libucrtd:environment_initialization.obj
 0001:00079600       ??$uninitialize@A6AXAAPAPA_W@_E@?$dual_state_global@PAPA_W@__crt_state_management@@QAEXA6AXAAPAPA_W@_E@Z 1007a600 f i libucrtd:environment_initialization.obj
 0001:000796e0       ??0?$__crt_unique_heap_ptr@_WU__crt_internal_free_policy@@@@QAE@QA_W@Z 1007a6e0 f i libucrtd:environment_initialization.obj
 0001:00079700       ??1?$__crt_unique_heap_ptr@_WU__crt_internal_free_policy@@@@QAE@XZ 1007a700 f i libucrtd:environment_initialization.obj
 0001:00079720       ??B?$__crt_unique_heap_ptr@PADU__crt_internal_free_policy@@@@QBE_NXZ 1007a720 f i libucrtd:environment_initialization.obj
 0001:00079740       ??B?$__crt_unique_heap_ptr@PA_WU__crt_internal_free_policy@@@@QBE_NXZ 1007a740 f i libucrtd:environment_initialization.obj
 0001:00079760       ??B?$__crt_unique_heap_ptr@_WU__crt_internal_free_policy@@@@QBE_NXZ 1007a760 f i libucrtd:environment_initialization.obj
 0001:00079780       ?__crt_compute_required_transform_buffer_count@@YAIIQBD@Z 1007a780 f i libucrtd:environment_initialization.obj
 0001:000797a0       ?__crt_compute_required_transform_buffer_count@@YAIIQB_W@Z 1007a7a0 f i libucrtd:environment_initialization.obj
 0001:000797d0       ?__crt_transform_string@@YAIIQBDQA_WI@Z 1007a7d0 f i libucrtd:environment_initialization.obj
 0001:00079800       ?__crt_transform_string@@YAIIQB_WQADI@Z 1007a800 f i libucrtd:environment_initialization.obj
 0001:00079830       ?detach@?$__crt_unique_heap_ptr@DU__crt_internal_free_policy@@@@QAEPADXZ 1007a830 f i libucrtd:environment_initialization.obj
 0001:00079860       ?detach@?$__crt_unique_heap_ptr@_WU__crt_internal_free_policy@@@@QAEPA_WXZ 1007a860 f i libucrtd:environment_initialization.obj
 0001:00079890       ?get@?$__crt_unique_heap_ptr@_WU__crt_internal_free_policy@@@@QBEPA_WXZ 1007a890 f i libucrtd:environment_initialization.obj
 0001:00079930       ?initialize@?$dual_state_global@PAPAD@__crt_state_management@@QAEXQAPAD@Z 1007a930 f i libucrtd:environment_initialization.obj
 0001:00079970       ?initialize@?$dual_state_global@PAPA_W@__crt_state_management@@QAEXQAPA_W@Z 1007a970 f i libucrtd:environment_initialization.obj
 0001:000799b0       ?is_valid@?$__crt_unique_heap_ptr@PADU__crt_internal_free_policy@@@@QBE_NXZ 1007a9b0 f i libucrtd:environment_initialization.obj
 0001:000799e0       ?is_valid@?$__crt_unique_heap_ptr@PA_WU__crt_internal_free_policy@@@@QBE_NXZ 1007a9e0 f i libucrtd:environment_initialization.obj
 0001:00079a10       ?is_valid@?$__crt_unique_heap_ptr@_WU__crt_internal_free_policy@@@@QBE_NXZ 1007aa10 f i libucrtd:environment_initialization.obj
 0001:00079a60       ?release@?$__crt_unique_heap_ptr@_WU__crt_internal_free_policy@@@@QAEXXZ 1007aa60 f i libucrtd:environment_initialization.obj
 0001:00079a90       ?value@?$dual_state_global@PAPAD@__crt_state_management@@QAEAAPAPADXZ 1007aa90 f i libucrtd:environment_initialization.obj
 0001:00079ab0       ?value@?$dual_state_global@PAPA_W@__crt_state_management@@QAEAAPAPA_WXZ 1007aab0 f i libucrtd:environment_initialization.obj
 0001:00079ad0       ___dcrt_get_or_create_narrow_environment_nolock 1007aad0 f   libucrtd:environment_initialization.obj
 0001:00079ae0       ___dcrt_get_or_create_wide_environment_nolock 1007aae0 f   libucrtd:environment_initialization.obj
 0001:00079af0       ___dcrt_uninitialize_environments_nolock 1007aaf0 f   libucrtd:environment_initialization.obj
 0001:00079b40       ___p__environ              1007ab40 f   libucrtd:environment_initialization.obj
 0001:00079b60       ___p__wenviron             1007ab60 f   libucrtd:environment_initialization.obj
 0001:00079b80       __get_initial_narrow_environment 1007ab80 f   libucrtd:environment_initialization.obj
 0001:00079b90       __get_initial_wide_environment 1007ab90 f   libucrtd:environment_initialization.obj
 0001:00079ba0       __initialize_narrow_environment 1007aba0 f   libucrtd:environment_initialization.obj
 0001:00079bb0       __initialize_wide_environment 1007abb0 f   libucrtd:environment_initialization.obj
 0001:00079bc0       ??$?B$$A6AXXZ@__crt_fast_encoded_nullptr_t@@QBEP6AXXZXZ 1007abc0 f i libucrtd:onexit.obj
 0001:00079be0       ??$?BP6AXXZ@__crt_fast_encoded_nullptr_t@@QBEPAP6AXXZXZ 1007abe0 f i libucrtd:onexit.obj
 0001:00079c00       ??$?RP6AXXZ@__crt_internal_free_policy@@QBEXQBQ6AXXZ@Z 1007ac00 f i libucrtd:onexit.obj
 0001:00079e20       ??$__crt_fast_decode_pointer@P6AXXZ@@YAP6AXXZQ6AXXZ@Z 1007ae20 f i libucrtd:onexit.obj
 0001:00079e50       ??$__crt_fast_decode_pointer@PAP6AXXZ@@YAPAP6AXXZQAP6AXXZ@Z 1007ae50 f i libucrtd:onexit.obj
 0001:00079e80       ??$__crt_fast_encode_pointer@P6AHXZ@@YAP6AHXZQ6AHXZ@Z 1007ae80 f i libucrtd:onexit.obj
 0001:00079eb0       ??$__crt_fast_encode_pointer@P6AXXZ@@YAP6AXXZQ6AXXZ@Z 1007aeb0 f i libucrtd:onexit.obj
 0001:00079ee0       ??$__crt_fast_encode_pointer@PAP6AXXZ@@YAPAP6AXXZQAP6AXXZ@Z 1007aee0 f i libucrtd:onexit.obj
 0001:00079fe0       ??0?$__crt_unique_heap_ptr@P6AXXZU__crt_internal_free_policy@@@@QAE@QAP6AXXZ@Z 1007afe0 f i libucrtd:onexit.obj
 0001:0007a000       ??1?$__crt_unique_heap_ptr@P6AXXZU__crt_internal_free_policy@@@@QAE@XZ 1007b000 f i libucrtd:onexit.obj
 0001:0007a020       ??1scoped_global_state_reset@__crt_state_management@@QAE@XZ 1007b020 f i libucrtd:onexit.obj
 0001:0007a4a0       ?detach@?$__crt_unique_heap_ptr@P6AXXZU__crt_internal_free_policy@@@@QAEPAP6AXXZXZ 1007b4a0 f i libucrtd:onexit.obj
 0001:0007a4d0       ?release@?$__crt_unique_heap_ptr@P6AXXZU__crt_internal_free_policy@@@@QAEXXZ 1007b4d0 f i libucrtd:onexit.obj
 0001:0007a500       __crt_at_quick_exit        1007b500 f   libucrtd:onexit.obj
 0001:0007a520       __crt_atexit               1007b520 f   libucrtd:onexit.obj
 0001:0007a540       __execute_onexit_table     1007b540 f   libucrtd:onexit.obj
 0001:0007a580       __initialize_onexit_table  1007b580 f   libucrtd:onexit.obj
 0001:0007a5e0       __register_onexit_function 1007b5e0 f   libucrtd:onexit.obj
 0001:0007a830       ??$?BX@__crt_fast_encoded_nullptr_t@@QBEPAXXZ 1007b830 f i libucrtd:initialization.obj
 0001:0007a850       ??$__crt_fast_encode_pointer@PAX@@YAPAXQAX@Z 1007b850 f i libucrtd:initialization.obj
 0001:0007a940       ?initialize@?$dual_state_global@PAU__crt_locale_data@@@__crt_state_management@@QAEXQAU__crt_locale_data@@@Z 1007b940 f i libucrtd:initialization.obj
 0001:0007a980       ___acrt_initialize         1007b980 f   libucrtd:initialization.obj
 0001:0007a9a0       ___acrt_thread_attach      1007b9a0 f   libucrtd:initialization.obj
 0001:0007a9c0       ___acrt_thread_detach      1007b9c0 f   libucrtd:initialization.obj
 0001:0007a9d0       ___acrt_uninitialize       1007b9d0 f   libucrtd:initialization.obj
 0001:0007a9f0       ___acrt_uninitialize_critical 1007b9f0 f   libucrtd:initialization.obj
 0001:0007aa10       ??0_LocaleUpdate@@QAE@QAU__crt_locale_pointers@@@Z 1007ba10 f i libucrtd:debug_heap.obj
 0001:0007aae0       ??1_LocaleUpdate@@QAE@XZ   1007bae0 f i libucrtd:debug_heap.obj
 0001:0007ab10       ?GetLocaleT@_LocaleUpdate@@QAEPAU__crt_locale_pointers@@XZ 1007bb10 f i libucrtd:debug_heap.obj
 0001:0007c560       __CrtCheckMemory           1007d560 f   libucrtd:debug_heap.obj
 0001:0007c6f0       __CrtDoForAllClientObjects 1007d6f0 f   libucrtd:debug_heap.obj
 0001:0007c850       __CrtDumpMemoryLeaks       1007d850 f   libucrtd:debug_heap.obj
 0001:0007c8f0       __CrtGetAllocHook          1007d8f0 f   libucrtd:debug_heap.obj
 0001:0007c900       __CrtGetDumpClient         1007d900 f   libucrtd:debug_heap.obj
 0001:0007c910       __CrtIsMemoryBlock         1007d910 f   libucrtd:debug_heap.obj
 0001:0007ca60       __CrtIsValidHeapPointer    1007da60 f   libucrtd:debug_heap.obj
 0001:0007caa0       __CrtIsValidPointer        1007daa0 f   libucrtd:debug_heap.obj
 0001:0007cad0       __CrtMemCheckpoint         1007dad0 f   libucrtd:debug_heap.obj
 0001:0007cd00       __CrtMemDifference         1007dd00 f   libucrtd:debug_heap.obj
 0001:0007cf70       __CrtMemDumpAllObjectsSince 1007df70 f   libucrtd:debug_heap.obj
 0001:0007d010       __CrtMemDumpStatistics     1007e010 f   libucrtd:debug_heap.obj
 0001:0007d140       __CrtReportBlockType       1007e140 f   libucrtd:debug_heap.obj
 0001:0007d170       __CrtSetAllocHook          1007e170 f   libucrtd:debug_heap.obj
 0001:0007d190       __CrtSetBreakAlloc         1007e190 f   libucrtd:debug_heap.obj
 0001:0007d1b0       __CrtSetDbgBlockType       1007e1b0 f   libucrtd:debug_heap.obj
 0001:0007d290       __CrtSetDbgFlag            1007e290 f   libucrtd:debug_heap.obj
 0001:0007d400       __CrtSetDumpClient         1007e400 f   libucrtd:debug_heap.obj
 0001:0007d420       ___acrt_get_locale_data_prefix 1007e420 f i libucrtd:debug_heap.obj
 0001:0007d440       ___p__crtBreakAlloc        1007e440 f   libucrtd:debug_heap.obj
 0001:0007d450       ___p__crtDbgFlag           1007e450 f   libucrtd:debug_heap.obj
 0001:0007d460       __aligned_free_dbg         1007e460 f   libucrtd:debug_heap.obj
 0001:0007d510       __aligned_malloc_dbg       1007e510 f   libucrtd:debug_heap.obj
 0001:0007d540       __aligned_msize_dbg        1007e540 f   libucrtd:debug_heap.obj
 0001:0007d670       __aligned_offset_malloc_dbg 1007e670 f   libucrtd:debug_heap.obj
 0001:0007d850       __aligned_offset_realloc_dbg 1007e850 f   libucrtd:debug_heap.obj
 0001:0007db60       __aligned_offset_recalloc_dbg 1007eb60 f   libucrtd:debug_heap.obj
 0001:0007dc20       __aligned_realloc_dbg      1007ec20 f   libucrtd:debug_heap.obj
 0001:0007dc50       __aligned_recalloc_dbg     1007ec50 f   libucrtd:debug_heap.obj
 0001:0007dc80       __calloc_dbg               1007ec80 f   libucrtd:debug_heap.obj
 0001:0007dcf0       __chvalidchk_l             1007ecf0 f i libucrtd:debug_heap.obj
 0001:0007dd10       __expand_dbg               1007ed10 f   libucrtd:debug_heap.obj
 0001:0007de40       __free_dbg                 1007ee40 f   libucrtd:debug_heap.obj
 0001:0007def0       __ischartype_l             1007eef0 f i libucrtd:debug_heap.obj
 0001:0007df70       __malloc_dbg               1007ef70 f   libucrtd:debug_heap.obj
 0001:0007df90       __msize_dbg                1007ef90 f   libucrtd:debug_heap.obj
 0001:0007e120       __realloc_dbg              1007f120 f   libucrtd:debug_heap.obj
 0001:0007e1c0       __recalloc_dbg             1007f1c0 f   libucrtd:debug_heap.obj
 0001:0007e270       __initterm                 1007f270 f   libucrtd:initterm.obj
 0001:0007e2c0       __initterm_e               1007f2c0 f   libucrtd:initterm.obj
 0001:0007e630       _strcpy_s                  1007f630 f   libucrtd:strcpy_s.obj
 0001:0007ea60       _strcat_s                  1007fa60 f   libucrtd:strcat_s.obj
 0001:0007ea80       ??$?B$$A6AHI@Z@__crt_fast_encoded_nullptr_t@@QBEP6AHI@ZXZ 1007fa80 f i libucrtd:new_handler.obj
 0001:0007eaa0       ??$__crt_fast_decode_pointer@P6AHI@Z@@YAP6AHI@ZQ6AHI@Z@Z 1007faa0 f i libucrtd:new_handler.obj
 0001:0007ead0       ??$__crt_fast_encode_pointer@P6AHI@Z@@YAP6AHI@ZQ6AHI@Z@Z 1007fad0 f i libucrtd:new_handler.obj
 0001:0007eb00       ?_set_new_handler@@YAP6AHI@ZH@Z 1007fb00 f   libucrtd:new_handler.obj
 0001:0007eb60       ?initialize@?$dual_state_global@P6AHI@Z@__crt_state_management@@QAEXQ6AHI@Z@Z 1007fb60 f i libucrtd:new_handler.obj
 0001:0007eba0       ?value@?$dual_state_global@P6AHI@Z@__crt_state_management@@QAEAAP6AHI@ZXZ 1007fba0 f i libucrtd:new_handler.obj
 0001:0007ebc0       ___acrt_initialize_new_handler 1007fbc0 f   libucrtd:new_handler.obj
 0001:0007ebe0       __callnewh                 1007fbe0 f   libucrtd:new_handler.obj
 0001:0007ec30       __query_new_handler        1007fc30 f   libucrtd:new_handler.obj
 0001:0007ecc0       __set_new_handler          1007fcc0 f   libucrtd:new_handler.obj
 0001:0007eda0       __get_terminate            1007fda0 f   libucrtd:terminate.obj
 0001:0007edc0       _set_terminate             1007fdc0 f   libucrtd:terminate.obj
 0001:0007edf0       _terminate                 1007fdf0 f   libucrtd:terminate.obj
 0001:0007f7f0       __makepath                 100807f0 f   libucrtd:makepath.obj
 0001:0007f820       __makepath_s               10080820 f   libucrtd:makepath.obj
 0001:0007f850       __wmakepath                10080850 f   libucrtd:makepath.obj
 0001:0007f880       __wmakepath_s              10080880 f   libucrtd:makepath.obj
 0001:00081350       ??$tcsncpy_s@AAPADIAAPBDABI@?$__crt_char_traits@D@@SAHAAPAD$$QAIAAPBDABI@Z 10082350 f i libucrtd:splitpath.obj
 0001:00081380       ??$tcsncpy_s@AAPADIAAPBDH@?$__crt_char_traits@D@@SAHAAPAD$$QAIAAPBD$$QAH@Z 10082380 f i libucrtd:splitpath.obj
 0001:000813b0       ??$tcsncpy_s@AAPA_WIAAPB_WABI@?$__crt_char_traits@_W@@SAHAAPA_W$$QAIAAPB_WABI@Z 100823b0 f i libucrtd:splitpath.obj
 0001:000813e0       ??$tcsncpy_s@AAPA_WIAAPB_WH@?$__crt_char_traits@_W@@SAHAAPA_W$$QAIAAPB_W$$QAH@Z 100823e0 f i libucrtd:splitpath.obj
 0001:00081620       __splitpath                10082620 f   libucrtd:splitpath.obj
 0001:00081650       __splitpath_s              10082650 f   libucrtd:splitpath.obj
 0001:000816a0       __wsplitpath               100826a0 f   libucrtd:splitpath.obj
 0001:000816d0       __wsplitpath_s             100826d0 f   libucrtd:splitpath.obj
 0001:00081720       __set_abort_behavior       10082720 f   libucrtd:abort.obj
 0001:00081750       _abort                     10082750 f   libucrtd:abort.obj
 0001:000817c0       _strcmp                    100827c0 f   libucrtd:strcmp.obj
 0001:00081850       _strlen                    10082850 f   libucrtd:strlen.obj
 0001:000818e0       ??$is_overflow_condition@_K@__crt_strtox@@YA_NI_K@Z 100828e0 f i libucrtd:atox.obj
 0001:00081970       ??$make_c_string_character_source@D$$T@__crt_strtox@@YA?AV?$c_string_character_source@D@0@QBD$$T@Z 10082970 f i libucrtd:atox.obj
 0001:00081990       ??$make_c_string_character_source@_W$$T@__crt_strtox@@YA?AV?$c_string_character_source@_W@0@QB_W$$T@Z 10082990 f i libucrtd:atox.obj
 0001:000819b0       ??$parse_integer@KV?$c_string_character_source@D@__crt_strtox@@$00@__crt_strtox@@YAKAAV__crt_cached_ptd_host@@V?$c_string_character_source@D@0@H_N@Z 100829b0 f i libucrtd:atox.obj
 0001:00081d10       ??$parse_integer@KV?$c_string_character_source@_W@__crt_strtox@@$00@__crt_strtox@@YAKAAV__crt_cached_ptd_host@@V?$c_string_character_source@_W@0@H_N@Z 10082d10 f i libucrtd:atox.obj
 0001:00082080       ??$parse_integer@_KV?$c_string_character_source@D@__crt_strtox@@$00@__crt_strtox@@YA_KAAV__crt_cached_ptd_host@@V?$c_string_character_source@D@0@H_N@Z 10083080 f i libucrtd:atox.obj
 0001:00082470       ??$parse_integer@_KV?$c_string_character_source@_W@__crt_strtox@@$00@__crt_strtox@@YA_KAAV__crt_cached_ptd_host@@V?$c_string_character_source@_W@0@H_N@Z 10083470 f i libucrtd:atox.obj
 0001:00082860       ??$parse_integer_from_string@JD$$T@__crt_strtox@@YAJQBD$$THQAU__crt_locale_pointers@@@Z 10083860 f i libucrtd:atox.obj
 0001:000828c0       ??$parse_integer_from_string@J_W$$T@__crt_strtox@@YAJQB_W$$THQAU__crt_locale_pointers@@@Z 100838c0 f i libucrtd:atox.obj
 0001:00082920       ??$parse_integer_from_string@_JD$$T@__crt_strtox@@YA_JQBD$$THQAU__crt_locale_pointers@@@Z 10083920 f i libucrtd:atox.obj
 0001:00082980       ??$parse_integer_from_string@_J_W$$T@__crt_strtox@@YA_JQB_W$$THQAU__crt_locale_pointers@@@Z 10083980 f i libucrtd:atox.obj
 0001:000829e0       ?is_space@__crt_strtox@@YA_NDQAU__crt_locale_pointers@@@Z 100839e0 f i libucrtd:atox.obj
 0001:00082a20       ?is_space@__crt_strtox@@YA_N_WPAU__crt_locale_pointers@@@Z 10083a20 f i libucrtd:atox.obj
 0001:00082a50       ?maximum_signed_value@__crt_strtox@@YA_J_K@Z 10083a50 f i libucrtd:atox.obj
 0001:00082a60       ?minimum_signed_value@__crt_strtox@@YA_J_K@Z 10083a60 f i libucrtd:atox.obj
 0001:00082a70       __atoi64                   10083a70 f   libucrtd:atox.obj
 0001:00082a90       __atoi64_l                 10083a90 f   libucrtd:atox.obj
 0001:00082ab0       __atoi_l                   10083ab0 f   libucrtd:atox.obj
 0001:00082ad0       __atol_l                   10083ad0 f   libucrtd:atox.obj
 0001:00082af0       __atoll_l                  10083af0 f   libucrtd:atox.obj
 0001:00082b10       __wtoi                     10083b10 f   libucrtd:atox.obj
 0001:00082b30       __wtoi64                   10083b30 f   libucrtd:atox.obj
 0001:00082b50       __wtoi64_l                 10083b50 f   libucrtd:atox.obj
 0001:00082b70       __wtoi_l                   10083b70 f   libucrtd:atox.obj
 0001:00082b90       __wtol                     10083b90 f   libucrtd:atox.obj
 0001:00082bb0       __wtol_l                   10083bb0 f   libucrtd:atox.obj
 0001:00082bd0       __wtoll                    10083bd0 f   libucrtd:atox.obj
 0001:00082bf0       __wtoll_l                  10083bf0 f   libucrtd:atox.obj
 0001:00082c10       _atoi                      10083c10 f   libucrtd:atox.obj
 0001:00082c30       _atol                      10083c30 f   libucrtd:atox.obj
 0001:00082c50       _atoll                     10083c50 f   libucrtd:atox.obj
 0001:00082c70       _strncmp                   10083c70 f   libucrtd:strncmp.obj
 0001:00082cf0       _wcsncmp                   10083cf0 f   libucrtd:wcsncmp.obj
 0001:00082d50       __CrtGetDebugFillThreshold 10083d50 f   libucrtd:debug_fill_threshold.obj
 0001:00082d60       __CrtSetDebugFillThreshold 10083d60 f   libucrtd:debug_fill_threshold.obj
 0001:00082d80       ?value@?$dual_state_global@PAU__crt_locale_data@@@__crt_state_management@@QAEAAPAU__crt_locale_data@@XZ 10083d80 f i libucrtd:locale_update.obj
 0001:00082da0       ?value@?$dual_state_global@PAU__crt_multibyte_data@@@__crt_state_management@@QAEAAPAU__crt_multibyte_data@@XZ 10083da0 f i libucrtd:locale_update.obj
 0001:00082dc0       ?value_explicit@?$dual_state_global@PAU__crt_locale_data@@@__crt_state_management@@QAEAAPAU__crt_locale_data@@I@Z 10083dc0 f i libucrtd:locale_update.obj
 0001:00082de0       ?value_explicit@?$dual_state_global@PAU__crt_multibyte_data@@@__crt_state_management@@QAEAAPAU__crt_multibyte_data@@I@Z 10083de0 f i libucrtd:locale_update.obj
 0001:00082e00       ___acrt_should_sync_with_global_locale 10083e00 f i libucrtd:locale_update.obj
 0001:00082e30       ___acrt_update_locale_info 10083e30 f   libucrtd:locale_update.obj
 0001:00082e70       ___acrt_update_locale_info_explicit 10083e70 f   libucrtd:locale_update.obj
 0001:00082eb0       ___acrt_update_multibyte_info 10083eb0 f   libucrtd:locale_update.obj
 0001:00082ef0       ___acrt_update_multibyte_info_explicit 10083ef0 f   libucrtd:locale_update.obj
 0001:00082f30       ?__acrt_fp_classify@@YA?AW4__acrt_fp_class@@ABN@Z 10083f30 f i libucrtd:cvt.obj
 0001:00083050       ?__acrt_fp_is_negative@@YA_NABN@Z 10084050 f i libucrtd:cvt.obj
 0001:00084260       ?strrchr@@YAPADQADH@Z      10085260 f i libucrtd:cvt.obj
 0001:00084280       ___acrt_fp_format          10085280 f   libucrtd:cvt.obj
 0001:00084700       ?value_or@?$cached@H@__crt_cached_ptd_host@@QBEHH@Z 10085700 f i libucrtd:wctomb.obj
 0001:00084730       __wctomb_internal          10085730 f   libucrtd:wctomb.obj
 0001:00084ab0       __wctomb_l                 10085ab0 f   libucrtd:wctomb.obj
 0001:00084b30       __wctomb_s_l               10085b30 f   libucrtd:wctomb.obj
 0001:00084b80       _wctomb                    10085b80 f   libucrtd:wctomb.obj
 0001:00084bf0       _wctomb_s                  10085bf0 f   libucrtd:wctomb.obj
 0001:00084c40       __isleadbyte_fast_internal 10085c40 f i libucrtd:mbtowc.obj
 0001:00084c60       __mbtowc_internal          10085c60 f   libucrtd:mbtowc.obj
 0001:00084ef0       __mbtowc_l                 10085ef0 f   libucrtd:mbtowc.obj
 0001:00084f30       _mbtowc                    10085f30 f   libucrtd:mbtowc.obj
 0001:00084f70       ?lowio_handle@__crt_stdio_stream@@QBEHXZ 10085f70 f i libucrtd:fileno.obj
 0001:00084f90       __fileno                   10085f90 f   libucrtd:fileno.obj
 0001:00085030       ??$?RPAU__crt_stdio_stream_data@@@__crt_internal_free_policy@@QBEXQBQAU__crt_stdio_stream_data@@@Z 10086030 f i libucrtd:_file.obj
 0001:00085050       ??0?$__crt_unique_heap_ptr@PAU__crt_stdio_stream_data@@U__crt_internal_free_policy@@@@QAE@QAPAU__crt_stdio_stream_data@@@Z 10086050 f i libucrtd:_file.obj
 0001:00085070       ??1?$__crt_unique_heap_ptr@PAU__crt_stdio_stream_data@@U__crt_internal_free_policy@@@@QAE@XZ 10086070 f i libucrtd:_file.obj
 0001:00085090       ?detach@?$__crt_unique_heap_ptr@PAU__crt_stdio_stream_data@@U__crt_internal_free_policy@@@@QAEPAPAU__crt_stdio_stream_data@@XZ 10086090 f i libucrtd:_file.obj
 0001:000850c0       ?release@?$__crt_unique_heap_ptr@PAU__crt_stdio_stream_data@@U__crt_internal_free_policy@@@@QAEXXZ 100860c0 f i libucrtd:_file.obj
 0001:000850f0       ___acrt_initialize_stdio   100860f0 f   libucrtd:_file.obj
 0001:00085260       ___acrt_iob_func           10086260 f   libucrtd:_file.obj
 0001:00085270       ___acrt_uninitialize_stdio 10086270 f   libucrtd:_file.obj
 0001:000852f0       __get_stream_buffer_pointers 100862f0 f   libucrtd:_file.obj
 0001:000853d0       __lock_file                100863d0 f   libucrtd:_file.obj
 0001:00085400       __unlock_file              10086400 f   libucrtd:_file.obj
 0001:00085430       __get_printf_count_output  10086430 f   libucrtd:printf_count_output.obj
 0001:00085460       __set_printf_count_output  10086460 f   libucrtd:printf_count_output.obj
 0001:00085660       __fputwc_nolock            10086660 f   libucrtd:fputwc.obj
 0001:000856a0       __fputwc_nolock_internal   100866a0 f   libucrtd:fputwc.obj
 0001:000858b0       __fputwchar                100868b0 f   libucrtd:fputwc.obj
 0001:000858d0       __putwc_nolock             100868d0 f   libucrtd:fputwc.obj
 0001:000858f0       _fputwc                    100868f0 f   libucrtd:fputwc.obj
 0001:00085930       _putwc                     10086930 f   libucrtd:fputwc.obj
 0001:00085950       _putwchar                  10086950 f   libucrtd:fputwc.obj
 0001:00085970       ?has_any_buffer@__crt_stdio_stream@@QBE_NXZ 10086970 f i libucrtd:_sftbuf.obj
 0001:00085990       ?has_any_of@__crt_stdio_stream@@QBE_NJ@Z 10086990 f i libucrtd:_sftbuf.obj
 0001:000859d0       ?has_temporary_buffer@__crt_stdio_stream@@QBE_NXZ 100869d0 f i libucrtd:_sftbuf.obj
 0001:000859f0       ?set_flags@__crt_stdio_stream@@QBE_NJ@Z 100869f0 f i libucrtd:_sftbuf.obj
 0001:00085a40       ?unset_flags@__crt_stdio_stream@@QBE_NJ@Z 10086a40 f i libucrtd:_sftbuf.obj
 0001:00085a90       ___acrt_should_use_temporary_buffer 10086a90 f   libucrtd:_sftbuf.obj
 0001:00085ae0       ___acrt_stdio_begin_temporary_buffering_nolock 10086ae0 f   libucrtd:_sftbuf.obj
 0001:00085cb0       ___acrt_stdio_end_temporary_buffering_nolock 10086cb0 f   libucrtd:_sftbuf.obj
 0001:00085d30       ??$?RU__acrt_ptd@@@__crt_internal_free_policy@@QBEXQBU__acrt_ptd@@@Z 10086d30 f i libucrtd:per_thread_data.obj
 0001:000862a0       ??0?$__crt_unique_heap_ptr@U__acrt_ptd@@U__crt_internal_free_policy@@@@QAE@QAU__acrt_ptd@@@Z 100872a0 f i libucrtd:per_thread_data.obj
 0001:000862c0       ??1?$__crt_unique_heap_ptr@U__acrt_ptd@@U__crt_internal_free_policy@@@@QAE@XZ 100872c0 f i libucrtd:per_thread_data.obj
 0001:000862e0       ??B?$__crt_unique_heap_ptr@U__acrt_ptd@@U__crt_internal_free_policy@@@@QBE_NXZ 100872e0 f i libucrtd:per_thread_data.obj
 0001:000865f0       ?dangerous_get_state_array@?$dual_state_global@PAU__crt_locale_data@@@__crt_state_management@@QAEPAPAU__crt_locale_data@@XZ 100875f0 f i libucrtd:per_thread_data.obj
 0001:00086790       ?detach@?$__crt_unique_heap_ptr@U__acrt_ptd@@U__crt_internal_free_policy@@@@QAEPAU__acrt_ptd@@XZ 10087790 f i libucrtd:per_thread_data.obj
 0001:000867c0       ?get@?$__crt_unique_heap_ptr@U__acrt_ptd@@U__crt_internal_free_policy@@@@QBEPAU__acrt_ptd@@XZ 100877c0 f i libucrtd:per_thread_data.obj
 0001:00086960       ?is_valid@?$__crt_unique_heap_ptr@U__acrt_ptd@@U__crt_internal_free_policy@@@@QBE_NXZ 10087960 f i libucrtd:per_thread_data.obj
 0001:00086990       ?release@?$__crt_unique_heap_ptr@U__acrt_ptd@@U__crt_internal_free_policy@@@@QAEXXZ 10087990 f i libucrtd:per_thread_data.obj
 0001:00086a80       ___acrt_freeptd            10087a80 f   libucrtd:per_thread_data.obj
 0001:00086ab0       ___acrt_getptd             10087ab0 f   libucrtd:per_thread_data.obj
 0001:00086ad0       ___acrt_getptd_head        10087ad0 f   libucrtd:per_thread_data.obj
 0001:00086af0       ___acrt_getptd_noexit      10087af0 f   libucrtd:per_thread_data.obj
 0001:00086b00       ___acrt_getptd_noexit_explicit 10087b00 f   libucrtd:per_thread_data.obj
 0001:00086b20       ___acrt_initialize_ptd     10087b20 f   libucrtd:per_thread_data.obj
 0001:00086b60       ___acrt_uninitialize_ptd   10087b60 f   libucrtd:per_thread_data.obj
 0001:00086b90       ___threadhandle            10087b90 f   libucrtd:per_thread_data.obj
 0001:00086ba0       ___threadid                10087ba0 f   libucrtd:per_thread_data.obj
 0001:00086bc0       ??$?RU__crt_locale_data@@@__crt_internal_free_policy@@QBEXQBU__crt_locale_data@@@Z 10087bc0 f i libucrtd:wsetlocale.obj
 0001:00086be0       ??$?RU__crt_locale_pointers@@@__crt_internal_free_policy@@QBEXQBU__crt_locale_pointers@@@Z 10087be0 f i libucrtd:wsetlocale.obj
 0001:00086c00       ??$?RU__crt_multibyte_data@@@__crt_internal_free_policy@@QBEXQBU__crt_multibyte_data@@@Z 10087c00 f i libucrtd:wsetlocale.obj
 0001:000872e0       ??0?$__crt_unique_heap_ptr@U__crt_locale_data@@U__crt_internal_free_policy@@@@QAE@QAU__crt_locale_data@@@Z 100882e0 f i libucrtd:wsetlocale.obj
 0001:00087300       ??0?$__crt_unique_heap_ptr@U__crt_locale_pointers@@U__crt_internal_free_policy@@@@QAE@QAU__crt_locale_pointers@@@Z 10088300 f i libucrtd:wsetlocale.obj
 0001:00087320       ??0?$__crt_unique_heap_ptr@U__crt_multibyte_data@@U__crt_internal_free_policy@@@@QAE@QAU__crt_multibyte_data@@@Z 10088320 f i libucrtd:wsetlocale.obj
 0001:00087340       ??0_expandlocale_locale_name_cache@@QAE@QA_WIQAU__crt_qualified_locale_data@@@Z 10088340 f i libucrtd:wsetlocale.obj
 0001:000873b0       ??1?$__crt_unique_heap_ptr@U__crt_locale_data@@U__crt_internal_free_policy@@@@QAE@XZ 100883b0 f i libucrtd:wsetlocale.obj
 0001:000873d0       ??1?$__crt_unique_heap_ptr@U__crt_locale_pointers@@U__crt_internal_free_policy@@@@QAE@XZ 100883d0 f i libucrtd:wsetlocale.obj
 0001:000873f0       ??1?$__crt_unique_heap_ptr@U__crt_multibyte_data@@U__crt_internal_free_policy@@@@QAE@XZ 100883f0 f i libucrtd:wsetlocale.obj
 0001:00087410       ??1_expandlocale_locale_name_cache@@QAE@XZ 10088410 f i libucrtd:wsetlocale.obj
 0001:00087470       ??B?$__crt_unique_heap_ptr@U__crt_locale_data@@U__crt_internal_free_policy@@@@QBE_NXZ 10088470 f i libucrtd:wsetlocale.obj
 0001:00087490       ??B?$__crt_unique_heap_ptr@U__crt_locale_pointers@@U__crt_internal_free_policy@@@@QBE_NXZ 10088490 f i libucrtd:wsetlocale.obj
 0001:000874b0       ??B?$__crt_unique_heap_ptr@U__crt_multibyte_data@@U__crt_internal_free_policy@@@@QBE_NXZ 100884b0 f i libucrtd:wsetlocale.obj
 0001:000878a0       ?commit_locale_name@_expandlocale_locale_name_cache@@QAEXQB_WI@Z 100888a0 f i libucrtd:wsetlocale.obj
 0001:00087900       ?commit_locale_name_cache_already_updated@_expandlocale_locale_name_cache@@QAEXQB_WI@Z 10088900 f i libucrtd:wsetlocale.obj
 0001:00087960       ?detach@?$__crt_unique_heap_ptr@U__crt_locale_data@@U__crt_internal_free_policy@@@@QAEPAU__crt_locale_data@@XZ 10088960 f i libucrtd:wsetlocale.obj
 0001:00087990       ?detach@?$__crt_unique_heap_ptr@U__crt_locale_pointers@@U__crt_internal_free_policy@@@@QAEPAU__crt_locale_pointers@@XZ 10088990 f i libucrtd:wsetlocale.obj
 0001:000879c0       ?detach@?$__crt_unique_heap_ptr@U__crt_multibyte_data@@U__crt_internal_free_policy@@@@QAEPAU__crt_multibyte_data@@XZ 100889c0 f i libucrtd:wsetlocale.obj
 0001:000879f0       ?get@?$__crt_unique_heap_ptr@U__crt_locale_data@@U__crt_internal_free_policy@@@@QBEPAU__crt_locale_data@@XZ 100889f0 f i libucrtd:wsetlocale.obj
 0001:00087a10       ?get@?$__crt_unique_heap_ptr@U__crt_locale_pointers@@U__crt_internal_free_policy@@@@QBEPAU__crt_locale_pointers@@XZ 10088a10 f i libucrtd:wsetlocale.obj
 0001:00087a30       ?get@?$__crt_unique_heap_ptr@U__crt_multibyte_data@@U__crt_internal_free_policy@@@@QBEPAU__crt_multibyte_data@@XZ 10088a30 f i libucrtd:wsetlocale.obj
 0001:00087a50       ?is_valid@?$__crt_unique_heap_ptr@U__crt_locale_data@@U__crt_internal_free_policy@@@@QBE_NXZ 10088a50 f i libucrtd:wsetlocale.obj
 0001:00087a80       ?is_valid@?$__crt_unique_heap_ptr@U__crt_locale_pointers@@U__crt_internal_free_policy@@@@QBE_NXZ 10088a80 f i libucrtd:wsetlocale.obj
 0001:00087ab0       ?is_valid@?$__crt_unique_heap_ptr@U__crt_multibyte_data@@U__crt_internal_free_policy@@@@QBE_NXZ 10088ab0 f i libucrtd:wsetlocale.obj
 0001:00087ae0       ?release@?$__crt_unique_heap_ptr@U__crt_locale_data@@U__crt_internal_free_policy@@@@QAEXXZ 10088ae0 f i libucrtd:wsetlocale.obj
 0001:00087b10       ?release@?$__crt_unique_heap_ptr@U__crt_locale_pointers@@U__crt_internal_free_policy@@@@QAEXXZ 10088b10 f i libucrtd:wsetlocale.obj
 0001:00087b40       ?release@?$__crt_unique_heap_ptr@U__crt_multibyte_data@@U__crt_internal_free_policy@@@@QAEXXZ 10088b40 f i libucrtd:wsetlocale.obj
 0001:00087b70       ___acrt_copy_locale_name   10088b70 f   libucrtd:wsetlocale.obj
 0001:00087c10       ___acrt_set_locale_changed 10088c10 f   libucrtd:wsetlocale.obj
 0001:00087c30       ___acrt_uninitialize_locale 10088c30 f   libucrtd:wsetlocale.obj
 0001:00087c50       ___ascii_tolower           10088c50 f i libucrtd:wsetlocale.obj
 0001:00087c70       ___ascii_towlower          10088c70 f i libucrtd:wsetlocale.obj
 0001:00087c90       ___lc_lctowcs              10088c90 f   libucrtd:wsetlocale.obj
 0001:00087d40       ___lc_wcstolc              10088d40 f   libucrtd:wsetlocale.obj
 0001:00087f70       __configthreadlocale       10088f70 f   libucrtd:wsetlocale.obj
 0001:000880f0       __create_locale            100890f0 f   libucrtd:wsetlocale.obj
 0001:00088730       __free_locale              10089730 f   libucrtd:wsetlocale.obj
 0001:00088860       __get_current_locale       10089860 f   libucrtd:wsetlocale.obj
 0001:00088940       __wcreate_locale           10089940 f   libucrtd:wsetlocale.obj
 0001:00088b90       __wcscats                  10089b90 f   libucrtd:wsetlocale.obj
 0001:00088c10       __wsetlocale               10089c10 f   libucrtd:wsetlocale.obj
 0001:0008a320       ___p___mb_cur_max          1008b320 f   libucrtd:nlsdata.obj
 0001:0008a620       ___acrt_initialize_lowio   1008b620 f   libucrtd:ioinit.obj
 0001:0008a6c0       ___acrt_uninitialize_lowio 1008b6c0 f   libucrtd:ioinit.obj
 0001:0008a720       __CrtGetReportHook         1008b720 f   libucrtd:dbgrptt.obj
 0001:0008a730       __CrtSetReportFile         1008b730 f   libucrtd:dbgrptt.obj
 0001:0008a830       __CrtSetReportHook         1008b830 f   libucrtd:dbgrptt.obj
 0001:0008a850       __CrtSetReportMode         1008b850 f   libucrtd:dbgrptt.obj
 0001:0008a990       __VCrtDbgReportA           1008b990 f   libucrtd:dbgrptt.obj
 0001:0008b260       __VCrtDbgReportW           1008c260 f   libucrtd:dbgrptt.obj
 0001:0008bc80       __snprintf_s               1008cc80 f i libucrtd:dbgrptt.obj
 0001:0008bcc0       __vsnprintf_s              1008ccc0 f i libucrtd:dbgrptt.obj
 0001:0008bcf0       __vsnprintf_s_l            1008ccf0 f i libucrtd:dbgrptt.obj
 0001:0008bd50       ??$__acrt_convert_wcs_mbs_cp@_WDV<lambda_0fec1a7b3f42a53036604e18c2d5e07e>@@U__crt_win32_buffer_no_resizing@@@@YAHQB_WAAV?$__crt_win32_buffer@DU__crt_win32_buffer_no_resizing@@@@ABV<lambda_0fec1a7b3f42a53036604e18c2d5e07e>@@I@Z 1008cd50 f i libucrtd:getmodulefilenamea.obj
 0001:0008be90       ??$__acrt_wcs_to_mbs_cp@U__crt_win32_buffer_no_resizing@@@@YAHQB_WAAV?$__crt_win32_buffer@DU__crt_win32_buffer_no_resizing@@@@I@Z 1008ce90 f i libucrtd:getmodulefilenamea.obj
 0001:0008bec0       ??0?$__crt_win32_buffer@DU__crt_win32_buffer_no_resizing@@@@QAE@QADI@Z 1008cec0 f i libucrtd:getmodulefilenamea.obj
 0001:0008bf10       ??1?$__crt_win32_buffer@DU__crt_win32_buffer_no_resizing@@@@QAE@XZ 1008cf10 f i libucrtd:getmodulefilenamea.obj
 0001:0008bf60       ??R<lambda_0fec1a7b3f42a53036604e18c2d5e07e>@@QBEHIQB_WQADI@Z 1008cf60 f i libucrtd:getmodulefilenamea.obj
 0001:0008bf90       ?__acrt_get_utf8_acp_compatibility_codepage@@YAIXZ 1008cf90 f i libucrtd:getmodulefilenamea.obj
 0001:0008c020       ?_deallocate@?$__crt_win32_buffer@DU__crt_win32_buffer_no_resizing@@@@AAEXXZ 1008d020 f i libucrtd:getmodulefilenamea.obj
 0001:0008c070       ?allocate@?$__crt_win32_buffer@DU__crt_win32_buffer_no_resizing@@@@QAEHI@Z 1008d070 f i libucrtd:getmodulefilenamea.obj
 0001:0008c0e0       ?allocate@__crt_win32_buffer_no_resizing@@SAHQAPAXIABV__crt_win32_buffer_empty_debug_info@@@Z 1008d0e0 f i libucrtd:getmodulefilenamea.obj
 0001:0008c100       ?capacity@?$__crt_win32_buffer@DU__crt_win32_buffer_no_resizing@@@@QBEIXZ 1008d100 f i libucrtd:getmodulefilenamea.obj
 0001:0008c120       ?data@?$__crt_win32_buffer@DU__crt_win32_buffer_no_resizing@@@@QAEPADXZ 1008d120 f i libucrtd:getmodulefilenamea.obj
 0001:0008c140       ?deallocate@__crt_win32_buffer_no_resizing@@SAXQAXABV__crt_win32_buffer_empty_debug_info@@@Z 1008d140 f i libucrtd:getmodulefilenamea.obj
 0001:0008c150       ?debug_info@?$__crt_win32_buffer@DU__crt_win32_buffer_no_resizing@@@@QBEABV__crt_win32_buffer_empty_debug_info@@XZ 1008d150 f i libucrtd:getmodulefilenamea.obj
 0001:0008c160       ?set_to_nullptr@?$__crt_win32_buffer@DU__crt_win32_buffer_no_resizing@@@@QAEXXZ 1008d160 f i libucrtd:getmodulefilenamea.obj
 0001:0008c1a0       ?size@?$__crt_win32_buffer@DU__crt_win32_buffer_no_resizing@@@@QAEXI@Z 1008d1a0 f i libucrtd:getmodulefilenamea.obj
 0001:0008c1c0       ?size@?$__crt_win32_buffer@DU__crt_win32_buffer_no_resizing@@@@QBEIXZ 1008d1c0 f i libucrtd:getmodulefilenamea.obj
 0001:0008c1e0       ___acrt_GetModuleFileNameA 1008d1e0 f   libucrtd:getmodulefilenamea.obj
 0001:0008c4c0       ??$message_box@$$TABQBDABQBDK@?$__crt_char_traits@D@@SAH$$QA$$TABQBD1$$QAK@Z 1008d4c0 f i libucrtd:crtmbox.obj
 0001:0008c4f0       ??$message_box@$$TABQB_WABQB_WK@?$__crt_char_traits@_W@@SAH$$QA$$TABQB_W1$$QAK@Z 1008d4f0 f i libucrtd:crtmbox.obj
 0001:0008c520       ??$message_box@PAUHWND__@@ABQBDABQBDABI@?$__crt_char_traits@D@@SAH$$QAPAUHWND__@@ABQBD1ABI@Z 1008d520 f i libucrtd:crtmbox.obj
 0001:0008c550       ??$message_box@PAUHWND__@@ABQB_WABQB_WABI@?$__crt_char_traits@_W@@SAH$$QAPAUHWND__@@ABQB_W1ABI@Z 1008d550 f i libucrtd:crtmbox.obj
 0001:0008c580       ??$output_debug_string@ABQBD@?$__crt_char_traits@D@@SAXABQBD@Z 1008d580 f i libucrtd:crtmbox.obj
 0001:0008c5a0       ??$output_debug_string@ABQB_W@?$__crt_char_traits@_W@@SAXABQB_W@Z 1008d5a0 f i libucrtd:crtmbox.obj
 0001:0008c5c0       ___acrt_show_narrow_message_box 1008d5c0 f   libucrtd:crtmbox.obj
 0001:0008c5e0       ___acrt_show_wide_message_box 1008d5e0 f   libucrtd:crtmbox.obj
 0001:0008c600       ___acrt_initialize_locks   1008d600 f   libucrtd:locks.obj
