 OPOSCashDrawer

 Timestamp is 5d429d58 (Thu Aug  1 17:05:44 2019)

 Preferred load address is 10000000

 Start         Length     Name                   Class
 0001:00000000 00000d90H .text$di                CODE
 0001:00000d90 000a6f80H .text$mn                CODE
 0001:000a7d10 000001c0H .text$x                 CODE
 0001:000a7ed0 00000120H .text$yd                CODE
 0002:00000000 00000358H .idata$5                DATA
 0002:00000358 00000004H .00cfg                  DATA
 0002:0000035c 00000004H .CRT$XCA                DATA
 0002:00000360 00000004H .CRT$XCL                DATA
 0002:00000364 0000006cH .CRT$XCU                DATA
 0002:000003d0 00000004H .CRT$XCZ                DATA
 0002:000003d4 00000004H .CRT$XIA                DATA
 0002:000003d8 00000010H .CRT$XIC                DATA
 0002:000003e8 00000004H .CRT$XIZ                DATA
 0002:000003ec 00000004H .CRT$XLA                DATA
 0002:000003f0 00000004H .CRT$XLZ                DATA
 0002:000003f4 00000004H .CRT$XPA                DATA
 0002:000003f8 00000008H .CRT$XPX                DATA
 0002:00000400 00000004H .CRT$XPXA               DATA
 0002:00000404 00000004H .CRT$XPZ                DATA
 0002:00000408 00000004H .CRT$XTA                DATA
 0002:0000040c 00000004H .CRT$XTZ                DATA
 0002:00000410 00000000H .gfids$y                DATA
 0002:00000410 0002f02cH .rdata                  DATA
 0002:0002f43c 00000018H .rdata$T                DATA
 0002:0002f454 0000033cH .rdata$r                DATA
 0002:0002f790 00000044H .rdata$sxdata           DATA
 0002:0002f7d4 00000404H .rdata$zzzdbg           DATA
 0002:0002fbd8 00000004H .rtc$IAA                DATA
 0002:0002fbdc 00000018H .rtc$IMZ                DATA
 0002:0002fbf4 00000004H .rtc$IZZ                DATA
 0002:0002fbf8 00000004H .rtc$TAA                DATA
 0002:0002fbfc 00000018H .rtc$TMZ                DATA
 0002:0002fc14 00000004H .rtc$TZZ                DATA
 0002:0002fc18 00000004H .tls                    DATA
 0002:0002fc1c 00000004H .tls$                   DATA
 0002:0002fc20 00000008H .tls$ZZZ                DATA
 0002:0002fc28 00000e44H .xdata$x                DATA
 0002:00030a6c 00000004H ATL$__a                 DATA
 0002:00030a70 00000010H ATL$__z                 DATA
 0002:00030a80 000000acH .edata                  DATA
 0002:00030b2c 00000078H .idata$2                DATA
 0002:00030ba4 00000014H .idata$3                DATA
 0002:00030bb8 00000358H .idata$4                DATA
 0002:00030f10 00000d50H .idata$6                DATA
 0003:00000000 00000b90H .data                   DATA
 0003:00000b90 00000138H .data$r                 DATA
 0003:00000cc8 00003580H .bss                    DATA
 0004:00000000 00000220H .rsrc$01                DATA
 0004:00000220 00003860H .rsrc$02                DATA

  Address         Publics by Value              Rva+Base       Lib:Object

 0000:00000000       ___guard_fids_table        00000000     <absolute>
 0000:00000000       ___guard_fids_count        00000000     <absolute>
 0000:00000000       ___guard_longjmp_table     00000000     <absolute>
 0000:00000000       ___AbsoluteZero            00000000     <absolute>
 0000:00000000       ___guard_iat_count         00000000     <absolute>
 0000:00000000       ___hybrid_code_map_count   00000000     <absolute>
 0000:00000000       ___guard_iat_table         00000000     <absolute>
 0000:00000000       __except_list              00000000     <absolute>
 0000:00000000       ___hybrid_auxiliary_iat    00000000     <absolute>
 0000:00000000       ___guard_longjmp_count     00000000     <absolute>
 0000:00000000       ___hybrid_code_map         00000000     <absolute>
 0000:00000000       ___enclave_config          00000000     <absolute>
 0000:00000000       ___dynamic_value_reloc_table 00000000     <absolute>
 0000:00000000       ___volatile_metadata       00000000     <absolute>
 0000:00000011       ___safe_se_handler_count   00000011     <absolute>
 0000:0000002c       __tls_array                0000002c     <absolute>
 0000:00000100       ___guard_flags             00000100     <absolute>
 0000:00000000       ___ImageBase               10000000     <linker-defined>
 0001:00000d90       ?_assert@@YAXPB_W0I@Z      10001d90 f   Assert.obj
 0001:00000ec0       ___local_stdio_printf_options 10001ec0 f i Assert.obj
 0001:00000ed0       ___vswprintf_l             10001ed0 f i Assert.obj
 0001:00000f00       __swprintf                 10001f00 f i Assert.obj
 0001:00000f60       __vswprintf_c_l            10001f60 f i Assert.obj
 0001:00000fd0       __vswprintf_l              10001fd0 f i Assert.obj
 0001:00001000       ?cw_memcpy@@YGHPADPB_WH@Z  10002000 f   CWString.obj
 0001:00001060       ?cw_memcpy@@YGHPA_WPBDH@Z  10002060 f   CWString.obj
 0001:000010c0       ?cw_memcpy@@YGHPADPBDH@Z   100020c0 f   CWString.obj
 0001:00001110       ?cw_memcpy@@YGHPA_WPB_WH@Z 10002110 f   CWString.obj
 0001:00001150       ?cw_memset@@YAXPADDH@Z     10002150 f   CWString.obj
 0001:00001170       ?cw_memset@@YAXPA_W_WH@Z   10002170 f   CWString.obj
 0001:00001190       ?cw_strlen@@YAHPBD@Z       10002190 f   CWString.obj
 0001:000011e0       ?cw_strlen@@YAHPB_W@Z      100021e0 f   CWString.obj
 0001:00001230       ?cw_strcpy@@YAHPADPB_W@Z   10002230 f   CWString.obj
 0001:00001250       ?cw_strcpy@@YAHPA_WPBD@Z   10002250 f   CWString.obj
 0001:00001270       ?cw_strcpy@@YAHPADPBD@Z    10002270 f   CWString.obj
 0001:00001290       ?cw_strcpy@@YAHPA_WPB_W@Z  10002290 f   CWString.obj
 0001:000012b0       ?cw_strcat@@YAHPADPB_W@Z   100022b0 f   CWString.obj
 0001:000012e0       ?cw_strcat@@YAHPA_WPBD@Z   100022e0 f   CWString.obj
 0001:00001310       ?cw_strcat@@YAHPADPBD@Z    10002310 f   CWString.obj
 0001:00001340       ?cw_strcat@@YAHPA_WPB_W@Z  10002340 f   CWString.obj
 0001:00001370       ?cw_dup@@YGXPBDAAHAAPA_W1@Z 10002370 f   CWString.obj
 0001:00001430       ?cw_dup@@YGXPB_WAAHAAPAD1@Z 10002430 f   CWString.obj
 0001:000014e0       ?DupChar@_CW@@AAEXXZ       100024e0 f   CWString.obj
 0001:00001530       ?DupWide@_CW@@AAEXXZ       10002530 f   CWString.obj
 0001:00001580       ?GetCharsMbcs@_CW@@QAEHXZ  10002580 f   CWString.obj
 0001:000015e0       ?GetCharsWide@_CW@@QAEHXZ  100025e0 f   CWString.obj
 0001:00001640       ?SetVARIANT_BOOL@OposVariant@@QAEXF@Z 10002640 f   OposVariant.obj
 0001:000016a0       ?SetVARIANT_BOOL_Ptr@OposVariant@@QAEXPAFAAJ@Z 100026a0 f   OposVariant.obj
 0001:000016f0       ?GetLONG@OposVariant@@QAEJXZ 100026f0 f   OposVariant.obj
 0001:00001780       ?ChangeLONG@OposVariant@@QAEXPAJAAJ@Z 10002780 f   OposVariant.obj
 0001:00001840       ?SetLONG@OposVariant@@QAEXJ@Z 10002840 f   OposVariant.obj
 0001:00001880       ?SetLONG_Ptr@OposVariant@@QAEXPAJAAJ@Z 10002880 f   OposVariant.obj
 0001:000018d0       ?ChangeCURRENCY@OposVariant@@QAEXPATtagCY@@AAJ@Z 100028d0 f   OposVariant.obj
 0001:00001990       ?SetCURRENCY@OposVariant@@QAEXTtagCY@@@Z 10002990 f   OposVariant.obj
 0001:000019d0       ?SetCURRENCY_Ptr@OposVariant@@QAEXPATtagCY@@AAJ@Z 100029d0 f   OposVariant.obj
 0001:00001a20       ?ChangeBSTR@OposVariant@@QAEXPAPA_WAAJ@Z 10002a20 f   OposVariant.obj
 0001:00001ae0       ?SetBSTR@OposVariant@@QAEXPA_WAAJ@Z 10002ae0 f   OposVariant.obj
 0001:00001b30       ?SetBSTR_Copy@OposVariant@@QAEXPA_WAAJ@Z 10002b30 f   OposVariant.obj
 0001:00001bd0       ?SetBSTR_OutPtr@OposVariant@@QAE_NPAPA_WAAJ@Z 10002bd0 f   OposVariant.obj
 0001:00001c20       ?SetBSTR_InOutPtr@OposVariant@@QAE_NPAPA_WAAJ@Z 10002c20 f   OposVariant.obj
 0001:00001c70       ?SetVARIANT@OposVariant@@QAEXAAUtagVARIANT@@GAAJ@Z 10002c70 f   OposVariant.obj
 0001:00001cf0       ?SetVARIANT_Ptr@OposVariant@@QAEXAAPAUtagVARIANT@@GAAJ@Z 10002cf0 f   OposVariant.obj
 0001:00001d90       ?SetString@OposVariant@@QAEXPB_WAAJ@Z 10002d90 f   OposVariant.obj
 0001:00001e20       ?SetDispatch_Ptr@OposVariant@@QAEXPAUIDispatch@@AAJ@Z 10002e20 f   OposVariant.obj
 0001:00001e90       ??0OposDispParms@@QAE@PAVOposVariant@@H@Z 10002e90 f   OposVariant.obj
 0001:00001f60       ??1OposDispParms@@QAE@XZ   10002f60 f   OposVariant.obj
 0001:00001fb0       ??$AtlMultiply@I@ATL@@YAJPAIII@Z 10002fb0 f i OposVariant.obj
 0001:00002010       ??0?$CHeapPtr@_WVCCRTAllocator@ATL@@@ATL@@QAE@XZ 10003010 f i OposVariant.obj
 0001:00002040       ??0?$CHeapPtrBase@_WVCCRTAllocator@ATL@@@ATL@@IAE@XZ 10003040 f i OposVariant.obj
 0001:00002060       ??0?$CSimpleArray@GV?$CSimpleArrayEqualHelper@G@ATL@@@ATL@@QAE@XZ 10003060 f i OposVariant.obj
 0001:000020a0       ??0?$CTraceCategoryEx@$00$0A@@ATL@@QAE@PB_W@Z 100030a0 f i OposVariant.obj
 0001:000020d0       ??0?$CTraceCategoryEx@$01$0A@@ATL@@QAE@PB_W@Z 100030d0 f i OposVariant.obj
 0001:00002100       ??0?$CTraceCategoryEx@$03$0A@@ATL@@QAE@PB_W@Z 10003100 f i OposVariant.obj
 0001:00002130       ??0?$CTraceCategoryEx@$07$0A@@ATL@@QAE@PB_W@Z 10003130 f i OposVariant.obj
 0001:00002160       ??0?$CTraceCategoryEx@$0BA@$0A@@ATL@@QAE@PB_W@Z 10003160 f i OposVariant.obj
 0001:00002190       ??0?$CTraceCategoryEx@$0BAA@$0A@@ATL@@QAE@PB_W@Z 10003190 f i OposVariant.obj
 0001:000021d0       ??0?$CTraceCategoryEx@$0BAAA@$0A@@ATL@@QAE@PB_W@Z 100031d0 f i OposVariant.obj
 0001:00002210       ??0?$CTraceCategoryEx@$0BAAAA@$0A@@ATL@@QAE@PB_W@Z 10003210 f i OposVariant.obj
 0001:00002250       ??0?$CTraceCategoryEx@$0BAAAAA@$0A@@ATL@@QAE@PB_W@Z 10003250 f i OposVariant.obj
 0001:00002290       ??0?$CTraceCategoryEx@$0CA@$0A@@ATL@@QAE@PB_W@Z 10003290 f i OposVariant.obj
 0001:000022c0       ??0?$CTraceCategoryEx@$0CAA@$0A@@ATL@@QAE@PB_W@Z 100032c0 f i OposVariant.obj
 0001:00002300       ??0?$CTraceCategoryEx@$0CAAA@$0A@@ATL@@QAE@PB_W@Z 10003300 f i OposVariant.obj
 0001:00002340       ??0?$CTraceCategoryEx@$0CAAAA@$0A@@ATL@@QAE@PB_W@Z 10003340 f i OposVariant.obj
 0001:00002380       ??0?$CTraceCategoryEx@$0CAAAAA@$0A@@ATL@@QAE@PB_W@Z 10003380 f i OposVariant.obj
 0001:000023c0       ??0?$CTraceCategoryEx@$0EA@$0A@@ATL@@QAE@PB_W@Z 100033c0 f i OposVariant.obj
 0001:000023f0       ??0?$CTraceCategoryEx@$0EAA@$0A@@ATL@@QAE@PB_W@Z 100033f0 f i OposVariant.obj
 0001:00002430       ??0?$CTraceCategoryEx@$0EAAA@$0A@@ATL@@QAE@PB_W@Z 10003430 f i OposVariant.obj
 0001:00002470       ??0?$CTraceCategoryEx@$0EAAAA@$0A@@ATL@@QAE@PB_W@Z 10003470 f i OposVariant.obj
 0001:000024b0       ??0?$CTraceCategoryEx@$0EAAAAA@$0A@@ATL@@QAE@PB_W@Z 100034b0 f i OposVariant.obj
 0001:000024f0       ??0?$CTraceCategoryEx@$0IA@$0A@@ATL@@QAE@PB_W@Z 100034f0 f i OposVariant.obj
 0001:00002530       ??0?$CTraceCategoryEx@$0IAA@$0A@@ATL@@QAE@PB_W@Z 10003530 f i OposVariant.obj
 0001:00002570       ??0?$CTraceCategoryEx@$0IAAA@$0A@@ATL@@QAE@PB_W@Z 10003570 f i OposVariant.obj
 0001:000025b0       ??0?$CTraceCategoryEx@$0IAAAA@$0A@@ATL@@QAE@PB_W@Z 100035b0 f i OposVariant.obj
 0001:000025f0       ??0CAtlComModule@ATL@@QAE@XZ 100035f0 f i OposVariant.obj
 0001:000026d0       ??0CAtlWinModule@ATL@@QAE@XZ 100036d0 f i OposVariant.obj
 0001:00002760       ??0CComCriticalSection@ATL@@QAE@XZ 10003760 f i OposVariant.obj
 0001:00002790       ??0CPreserveLastError@ATL@@QAE@XZ 10003790 f i OposVariant.obj
 0001:000027d0       ??0CTraceFileAndLineInfo@ATL@@QAE@PBDH@Z 100037d0 f i OposVariant.obj
 0001:00002800       ??0_ATL_COM_MODULE70@ATL@@QAE@XZ 10003800 f i OposVariant.obj
 0001:00002830       ??0_ATL_WIN_MODULE70@ATL@@QAE@XZ 10003830 f i OposVariant.obj
 0001:00002870       ??1?$CHeapPtr@_WVCCRTAllocator@ATL@@@ATL@@QAE@XZ 10003870 f i OposVariant.obj
 0001:000028a0       ??1?$CHeapPtrBase@_WVCCRTAllocator@ATL@@@ATL@@QAE@XZ 100038a0 f i OposVariant.obj
 0001:000028d0       ??1?$CSimpleArray@GV?$CSimpleArrayEqualHelper@G@ATL@@@ATL@@QAE@XZ 100038d0 f i OposVariant.obj
 0001:00002900       ??1CAtlComModule@ATL@@QAE@XZ 10003900 f i OposVariant.obj
 0001:00002930       ??1CAtlWinModule@ATL@@QAE@XZ 10003930 f i OposVariant.obj
 0001:00002960       ??1CComBSTR@ATL@@QAE@XZ    10003960 f i OposVariant.obj
 0001:000029a0       ??1CComCriticalSection@ATL@@QAE@XZ 100039a0 f i OposVariant.obj
 0001:000029c0       ??1CPreserveLastError@ATL@@QAE@XZ 100039c0 f i OposVariant.obj
 0001:00002a00       ??1_ATL_COM_MODULE70@ATL@@QAE@XZ 10003a00 f i OposVariant.obj
 0001:00002a30       ??1_ATL_WIN_MODULE70@ATL@@QAE@XZ 10003a30 f i OposVariant.obj
 0001:00002a70       ??1stringdispid@CComTypeInfoHolder@ATL@@QAE@XZ 10003a70 f i OposVariant.obj
 0001:00002aa0       ??A?$CSimpleArray@GV?$CSimpleArrayEqualHelper@G@ATL@@@ATL@@QAEAAGH@Z 10003aa0 f i OposVariant.obj
 0001:00002b20       ??B?$CHeapPtrBase@_WVCCRTAllocator@ATL@@@ATL@@QBEPA_WXZ 10003b20 f i OposVariant.obj
 0001:00002b40       ??B?$CTraceCategoryEx@$01$0A@@ATL@@QAEIXZ 10003b40 f i OposVariant.obj
 0001:00002b60       ??B?$CTraceCategoryEx@$0CA@$0A@@ATL@@QAEIXZ 10003b60 f i OposVariant.obj
 0001:00002b80       ??RCTraceFileAndLineInfo@ATL@@QBAXHIPB_WZZ 10003b80 f i OposVariant.obj
 0001:00002c20       ??_Estringdispid@CComTypeInfoHolder@ATL@@QAEPAXI@Z 10003c20 f i OposVariant.obj
 0001:00002cb0       ??_H@YGXPAXIIP6EPAX0@Z@Z   10003cb0 f i OposVariant.obj
 0001:00002d20       ??_I@YGXPAXIIP6EX0@Z@Z     10003d20 f i OposVariant.obj
 0001:00002da0       ?Allocate@?$CHeapPtr@_WVCCRTAllocator@ATL@@@ATL@@QAE_NI@Z 10003da0 f i OposVariant.obj
 0001:00002e30       ?Allocate@CCRTAllocator@ATL@@SAPAXI@Z 10003e30 f i OposVariant.obj
 0001:00002e50       ?AllocateBytes@?$CHeapPtrBase@_WVCCRTAllocator@ATL@@@ATL@@QAE_NI@Z 10003e50 f i OposVariant.obj
 0001:00002ec0       ?AtlWinModuleInit@ATL@@YGJPAU_ATL_WIN_MODULE70@1@@Z 10003ec0 f i OposVariant.obj
 0001:00002f90       ?AtlWinModuleTerm@ATL@@YGJPAU_ATL_WIN_MODULE70@1@PAUHINSTANCE__@@@Z 10003f90 f i OposVariant.obj
 0001:00003050       ?Clear@OposVariant@@QAEJXZ 10004050 f i OposVariant.obj
 0001:00003090       ?Free@?$CHeapPtrBase@_WVCCRTAllocator@ATL@@@ATL@@QAEXXZ 10004090 f i OposVariant.obj
 0001:000030d0       ?Free@CCRTAllocator@ATL@@SAXPAX@Z 100040d0 f i OposVariant.obj
 0001:000030f0       ?GetCategoryName@CTrace@ATL@@CAPA_WI@Z 100040f0 f i OposVariant.obj
 0001:00003140       ?GetModuleInstance@CAtlBaseModule@ATL@@QAEPAUHINSTANCE__@@XZ 10004140 f i OposVariant.obj
 0001:00003160       ?GetSize@?$CSimpleArray@GV?$CSimpleArrayEqualHelper@G@ATL@@@ATL@@QBEHXZ 10004160 f i OposVariant.obj
 0001:00003180       ?Init@CComCriticalSection@ATL@@QAEJXZ 10004180 f i OposVariant.obj
 0001:000031e0       ?RegisterCategory@CTrace@ATL@@SAXPB_WI@Z 100041e0 f i OposVariant.obj
 0001:00003270       ?RemoveAll@?$CSimpleArray@GV?$CSimpleArrayEqualHelper@G@ATL@@@ATL@@QAEXXZ 10004270 f i OposVariant.obj
 0001:000032f0       ?Term@CAtlComModule@ATL@@QAEXXZ 100042f0 f i OposVariant.obj
 0001:000033b0       ?Term@CAtlWinModule@ATL@@QAEXXZ 100043b0 f i OposVariant.obj
 0001:000033e0       ?Term@CComCriticalSection@ATL@@QAEJXZ 100043e0 f i OposVariant.obj
 0001:00003420       ?TraceV@CTrace@ATL@@CAXPBDHIIPB_W@Z 10004420 f i OposVariant.obj
 0001:000036a0       ?TraceV@CTrace@ATL@@SAXPBDHIIPB_WPAD@Z 100046a0 f i OposVariant.obj
 0001:000037e0       ?_AtlInitializeCriticalSectionEx@ATL@@YAHPAU_RTL_CRITICAL_SECTION@@KK@Z 100047e0 f i OposVariant.obj
 0001:00003810       ?_AtlRaiseException@ATL@@YAXKK@Z 10004810 f i OposVariant.obj
 0001:00003840       _HRESULT_FROM_WIN32        10004840 f i OposVariant.obj
 0001:00003880       __vswprintf_s_l            10004880 f i OposVariant.obj
 0001:000038f0       _swprintf_s                100048f0 f i OposVariant.obj
 0001:00003950       ?ObjectMain@CComObjectRootBase@ATL@@SGX_N@Z 10004950 f i CashDrawer.obj
 0001:00003960       ?GetCategoryMap@CComObjectRootBase@ATL@@SAPBU_ATL_CATMAP_ENTRY@2@XZ 10004960 f i CashDrawer.obj
 0001:00003970       ?CreateInstance@?$CComCreator@V?$CComObjectCached@VCComClassFactory@ATL@@@ATL@@@ATL@@SGJPAXABU_GUID@@PAPAX@Z 10004970 f i CashDrawer.obj
 0001:00003af0       ?CreateInstance@?$CComCreator2@V?$CComCreator@V?$CComObject@VCOPOSCashDrawer@@@ATL@@@ATL@@V?$CComCreator@V?$CComAggObject@VCOPOSCashDrawer@@@ATL@@@2@@ATL@@SGJPAXABU_GUID@@PAPAX@Z 10004af0 f i CashDrawer.obj
 0001:00003b70       ?GetObjectDescription@?$CComCoClass@VCOPOSCashDrawer@@$1?CLSID_OPOSCashDrawer@@3U_GUID@@B@ATL@@SGPB_WXZ 10004b70 f i CashDrawer.obj
 0001:00003b80       ?UpdateRegistry@COPOSCashDrawer@@SGJH@Z 10004b80 f i CashDrawer.obj
 0001:00003cd0       _DllGetClassObject@12      10004cd0 f   CashDrawer.obj
 0001:00003d00       _DllCanUnloadNow@0         10004d00 f   CashDrawer.obj
 0001:00003d40       _DllRegisterServer@0       10004d40 f   CashDrawer.obj
 0001:00003d60       _DllUnregisterServer@0     10004d60 f   CashDrawer.obj
 0001:00003ef0       _DllMain@12                10004ef0 f   CashDrawer.obj
 0001:00003f50       ??$?2G@Wrapper@?$CSimpleArray@GV?$CSimpleArrayEqualHelper@G@ATL@@@ATL@@SAPAXIPAG@Z 10004f50 f i CashDrawer.obj
 0001:00003f60       ??$?2PA_W@?$Wrapper@PA_W@?$CSimpleMap@PA_WPA_WVCExpansionVectorEqualHelper@ATL@@@ATL@@SAPAXIPAPA_W@Z 10004f60 f i CashDrawer.obj
 0001:00003f70       ??$?4UITypeInfo2@@@?$CComPtr@UITypeInfo@@@ATL@@QAEPAUITypeInfo@@ABV?$CComPtr@UITypeInfo2@@@1@@Z 10004f70 f i CashDrawer.obj
 0001:00003fd0       ??$AtlAdd@K@ATL@@YAJPAKKK@Z 10004fd0 f i CashDrawer.obj
 0001:00004010       ??$AtlAdd@_K@ATL@@YAJPA_K_K1@Z 10005010 f i CashDrawer.obj
 0001:00004080       ??$AtlAddThrow@K@ATL@@YAKKK@Z 10005080 f i CashDrawer.obj
 0001:00004100       ??$AtlModuleRegisterWndClassInfoT@VAtlModuleRegisterWndClassInfoParamW@ATL@@@ATL@@YAGPAU_ATL_BASE_MODULE70@0@PAU_ATL_WIN_MODULE70@0@PAU_ATL_WNDCLASSINFOW@0@PAP6GJPAUHWND__@@IIJ@ZVAtlModuleRegisterWndClassInfoParamW@0@@Z 10005100 f i CashDrawer.obj
 0001:00004510       ??$AtlMultiply@H@ATL@@YAJPAHHH@Z 10005510 f i CashDrawer.obj
 0001:00004590       ??$AtlMultiply@K@ATL@@YAJPAKKK@Z 10005590 f i CashDrawer.obj
 0001:000045f0       ??$AtlMultiplyThrow@I@ATL@@YAIII@Z 100055f0 f i CashDrawer.obj
 0001:00004670       ??$QueryInterface@UIPersistStream@@@IUnknown@@QAGJPAPAUIPersistStream@@@Z 10005670 f i CashDrawer.obj
 0001:000046a0       ??$QueryInterface@UITypeInfo2@@@IUnknown@@QAGJPAPAUITypeInfo2@@@Z 100056a0 f i CashDrawer.obj
 0001:000046d0       ??0?$CAtlModuleT@VCComModule@ATL@@@ATL@@QAE@XZ 100056d0 f i CashDrawer.obj
 0001:00004700       ??0?$CAtlSafeAllocBufferManager@VCCRTAllocator@ATL@@@_ATL_SAFE_ALLOCA_IMPL@ATL@@QAE@XZ 10005700 f i CashDrawer.obj
 0001:00004720       ??0?$CAutoVectorPtr@_W@ATL@@QAE@XZ 10005720 f i CashDrawer.obj
 0001:00004740       ??0?$CComAggObject@VCOPOSCashDrawer@@@ATL@@QAE@PAX@Z 10005740 f i CashDrawer.obj
 0001:000047b0       ??0?$CComContainedObject@VCOPOSCashDrawer@@@ATL@@QAE@PAX@Z 100057b0 f i CashDrawer.obj
 0001:000048c0       ??0?$CComCritSecLock@VCComCriticalSection@ATL@@@ATL@@QAE@AAVCComCriticalSection@1@_N@Z 100058c0 f i CashDrawer.obj
 0001:00004920       ??0?$CComEnum@UIEnumConnectionPoints@@$1?_GUID_b196b285_bab4_101a_b69c_00aa00341d07@@3U__s_GUID@@BPAUIConnectionPoint@@V?$_CopyInterface@UIConnectionPoint@@@ATL@@VCComSingleThreadModel@6@@ATL@@QAE@XZ 10005920 f i CashDrawer.obj
 0001:00004960       ??0?$CComEnum@UIEnumConnections@@$1?_GUID_b196b287_bab4_101a_b69c_00aa00341d07@@3U__s_GUID@@BUtagCONNECTDATA@@V?$_Copy@UtagCONNECTDATA@@@ATL@@VCComSingleThreadModel@6@@ATL@@QAE@XZ 10005960 f i CashDrawer.obj
 0001:000049a0       ??0?$CComEnumImpl@UIEnumConnectionPoints@@$1?_GUID_b196b285_bab4_101a_b69c_00aa00341d07@@3U__s_GUID@@BPAUIConnectionPoint@@V?$_CopyInterface@UIConnectionPoint@@@ATL@@@ATL@@QAE@XZ 100059a0 f i CashDrawer.obj
 0001:00004a00       ??0?$CComEnumImpl@UIEnumConnections@@$1?_GUID_b196b287_bab4_101a_b69c_00aa00341d07@@3U__s_GUID@@BUtagCONNECTDATA@@V?$_Copy@UtagCONNECTDATA@@@ATL@@@ATL@@QAE@XZ 10005a00 f i CashDrawer.obj
 0001:00004a60       ??0?$CComObject@V?$CComEnum@UIEnumConnectionPoints@@$1?_GUID_b196b285_bab4_101a_b69c_00aa00341d07@@3U__s_GUID@@BPAUIConnectionPoint@@V?$_CopyInterface@UIConnectionPoint@@@ATL@@VCComSingleThreadModel@6@@ATL@@@ATL@@QAE@PAX@Z 10005a60 f i CashDrawer.obj
 0001:00004ab0       ??0?$CComObject@V?$CComEnum@UIEnumConnections@@$1?_GUID_b196b287_bab4_101a_b69c_00aa00341d07@@3U__s_GUID@@BUtagCONNECTDATA@@V?$_Copy@UtagCONNECTDATA@@@ATL@@VCComSingleThreadModel@6@@ATL@@@ATL@@QAE@PAX@Z 10005ab0 f i CashDrawer.obj
 0001:00004b00       ??0?$CComObject@VCOPOSCashDrawer@@@ATL@@QAE@PAX@Z 10005b00 f i CashDrawer.obj
 0001:00004c20       ??0?$CComObjectCached@VCComClassFactory@ATL@@@ATL@@QAE@PAX@Z 10005c20 f i CashDrawer.obj
 0001:00004c60       ??0?$CComObjectRootEx@VCComMultiThreadModel@ATL@@@ATL@@QAE@XZ 10005c60 f i CashDrawer.obj
 0001:00004ca0       ??0?$CComObjectRootEx@VCComSingleThreadModel@ATL@@@ATL@@QAE@XZ 10005ca0 f i CashDrawer.obj
 0001:00004cd0       ??0?$CComPtr@UIAdviseSink@@@ATL@@QAE@PAUIAdviseSink@@@Z 10005cd0 f i CashDrawer.obj
 0001:00004d00       ??0?$CComPtr@UICatRegister@@@ATL@@QAE@XZ 10005d00 f i CashDrawer.obj
 0001:00004d30       ??0?$CComPtr@UIConnectionPoint@@@ATL@@QAE@XZ 10005d30 f i CashDrawer.obj
 0001:00004d60       ??0?$CComPtr@UIConnectionPointContainer@@@ATL@@QAE@XZ 10005d60 f i CashDrawer.obj
 0001:00004d90       ??0?$CComPtr@UIDataObject@@@ATL@@QAE@XZ 10005d90 f i CashDrawer.obj
 0001:00004dc0       ??0?$CComPtr@UIDispatch@@@ATL@@QAE@XZ 10005dc0 f i CashDrawer.obj
 0001:00004df0       ??0?$CComPtr@UIOleClientSite@@@ATL@@QAE@PAUIOleClientSite@@@Z 10005df0 f i CashDrawer.obj
 0001:00004e20       ??0?$CComPtr@UIOleControlSite@@@ATL@@QAE@XZ 10005e20 f i CashDrawer.obj
 0001:00004e50       ??0?$CComPtr@UIOleInPlaceActiveObject@@@ATL@@QAE@XZ 10005e50 f i CashDrawer.obj
 0001:00004e80       ??0?$CComPtr@UIOleInPlaceFrame@@@ATL@@QAE@XZ 10005e80 f i CashDrawer.obj
 0001:00004eb0       ??0?$CComPtr@UIOleInPlaceObject@@@ATL@@QAE@XZ 10005eb0 f i CashDrawer.obj
 0001:00004ee0       ??0?$CComPtr@UIOleInPlaceUIWindow@@@ATL@@QAE@XZ 10005ee0 f i CashDrawer.obj
 0001:00004f10       ??0?$CComPtr@UIOleObject@@@ATL@@QAE@XZ 10005f10 f i CashDrawer.obj
 0001:00004f40       ??0?$CComPtr@UIPersistStream@@@ATL@@QAE@XZ 10005f40 f i CashDrawer.obj
 0001:00004f70       ??0?$CComPtr@UIPersistStreamInit@@@ATL@@QAE@XZ 10005f70 f i CashDrawer.obj
 0001:00004fa0       ??0?$CComPtr@UIPointerInactive@@@ATL@@QAE@XZ 10005fa0 f i CashDrawer.obj
 0001:00004fd0       ??0?$CComPtr@UIProvideClassInfo2@@@ATL@@QAE@XZ 10005fd0 f i CashDrawer.obj
 0001:00005000       ??0?$CComPtr@UISpecifyPropertyPages@@@ATL@@QAE@XZ 10006000 f i CashDrawer.obj
 0001:00005030       ??0?$CComPtr@UIStream@@@ATL@@QAE@XZ 10006030 f i CashDrawer.obj
 0001:00005060       ??0?$CComPtr@UITypeInfo2@@@ATL@@QAE@XZ 10006060 f i CashDrawer.obj
 0001:00005090       ??0?$CComPtr@UITypeInfo@@@ATL@@QAE@ABV01@@Z 10006090 f i CashDrawer.obj
 0001:000050c0       ??0?$CComPtr@UITypeInfo@@@ATL@@QAE@XZ 100060c0 f i CashDrawer.obj
 0001:000050f0       ??0?$CComPtr@UITypeLib@@@ATL@@QAE@XZ 100060f0 f i CashDrawer.obj
 0001:00005120       ??0?$CComPtr@UIUnknown@@@ATL@@QAE@ABV01@@Z 10006120 f i CashDrawer.obj
 0001:00005150       ??0?$CComPtr@UIUnknown@@@ATL@@QAE@PAUIUnknown@@@Z 10006150 f i CashDrawer.obj
 0001:00005180       ??0?$CComPtr@UIUnknown@@@ATL@@QAE@XZ 10006180 f i CashDrawer.obj
 0001:000051b0       ??0?$CComPtr@UIViewObjectEx@@@ATL@@QAE@XZ 100061b0 f i CashDrawer.obj
 0001:000051e0       ??0?$CComPtrBase@UIAdviseSink@@@ATL@@IAE@PAUIAdviseSink@@@Z 100061e0 f i CashDrawer.obj
 0001:00005230       ??0?$CComPtrBase@UICatRegister@@@ATL@@IAE@XZ 10006230 f i CashDrawer.obj
 0001:00005250       ??0?$CComPtrBase@UIConnectionPoint@@@ATL@@IAE@XZ 10006250 f i CashDrawer.obj
 0001:00005270       ??0?$CComPtrBase@UIConnectionPointContainer@@@ATL@@IAE@XZ 10006270 f i CashDrawer.obj
 0001:00005290       ??0?$CComPtrBase@UIDataObject@@@ATL@@IAE@XZ 10006290 f i CashDrawer.obj
 0001:000052b0       ??0?$CComPtrBase@UIDispatch@@@ATL@@IAE@XZ 100062b0 f i CashDrawer.obj
 0001:000052d0       ??0?$CComPtrBase@UIOleClientSite@@@ATL@@IAE@PAUIOleClientSite@@@Z 100062d0 f i CashDrawer.obj
 0001:00005320       ??0?$CComPtrBase@UIOleControlSite@@@ATL@@IAE@XZ 10006320 f i CashDrawer.obj
 0001:00005340       ??0?$CComPtrBase@UIOleInPlaceActiveObject@@@ATL@@IAE@XZ 10006340 f i CashDrawer.obj
 0001:00005360       ??0?$CComPtrBase@UIOleInPlaceFrame@@@ATL@@IAE@XZ 10006360 f i CashDrawer.obj
 0001:00005380       ??0?$CComPtrBase@UIOleInPlaceObject@@@ATL@@IAE@XZ 10006380 f i CashDrawer.obj
 0001:000053a0       ??0?$CComPtrBase@UIOleInPlaceUIWindow@@@ATL@@IAE@XZ 100063a0 f i CashDrawer.obj
 0001:000053c0       ??0?$CComPtrBase@UIOleObject@@@ATL@@IAE@XZ 100063c0 f i CashDrawer.obj
 0001:000053e0       ??0?$CComPtrBase@UIPersistStream@@@ATL@@IAE@XZ 100063e0 f i CashDrawer.obj
 0001:00005400       ??0?$CComPtrBase@UIPersistStreamInit@@@ATL@@IAE@XZ 10006400 f i CashDrawer.obj
 0001:00005420       ??0?$CComPtrBase@UIPointerInactive@@@ATL@@IAE@XZ 10006420 f i CashDrawer.obj
 0001:00005440       ??0?$CComPtrBase@UIProvideClassInfo2@@@ATL@@IAE@XZ 10006440 f i CashDrawer.obj
 0001:00005460       ??0?$CComPtrBase@UISpecifyPropertyPages@@@ATL@@IAE@XZ 10006460 f i CashDrawer.obj
 0001:00005480       ??0?$CComPtrBase@UIStream@@@ATL@@IAE@XZ 10006480 f i CashDrawer.obj
 0001:000054a0       ??0?$CComPtrBase@UITypeInfo2@@@ATL@@IAE@XZ 100064a0 f i CashDrawer.obj
 0001:000054c0       ??0?$CComPtrBase@UITypeInfo@@@ATL@@IAE@PAUITypeInfo@@@Z 100064c0 f i CashDrawer.obj
 0001:00005510       ??0?$CComPtrBase@UITypeInfo@@@ATL@@IAE@XZ 10006510 f i CashDrawer.obj
 0001:00005530       ??0?$CComPtrBase@UITypeLib@@@ATL@@IAE@XZ 10006530 f i CashDrawer.obj
 0001:00005550       ??0?$CComPtrBase@UIUnknown@@@ATL@@IAE@PAUIUnknown@@@Z 10006550 f i CashDrawer.obj
 0001:000055a0       ??0?$CComPtrBase@UIUnknown@@@ATL@@IAE@XZ 100065a0 f i CashDrawer.obj
 0001:000055c0       ??0?$CComPtrBase@UIViewObjectEx@@@ATL@@IAE@XZ 100065c0 f i CashDrawer.obj
 0001:000055e0       ??0?$CComQIPtr@UIOleControlSite@@$1?_GUID_b196b289_bab4_101a_b69c_00aa00341d07@@3U__s_GUID@@B@ATL@@QAE@PAUIUnknown@@@Z 100065e0 f i CashDrawer.obj
 0001:00005640       ??0?$CComQIPtr@UIOleObject@@$1?_GUID_00000112_0000_0000_c000_000000000046@@3U__s_GUID@@B@ATL@@QAE@XZ 10006640 f i CashDrawer.obj
 0001:00005670       ??0?$CComQIPtr@UISpecifyPropertyPages@@$1?_GUID_b196b28b_bab4_101a_b69c_00aa00341d07@@3U__s_GUID@@B@ATL@@QAE@XZ 10006670 f i CashDrawer.obj
 0001:000056a0       ??0?$CSimpleMap@PA_WPA_WVCExpansionVectorEqualHelper@ATL@@@ATL@@QAE@XZ 100066a0 f i CashDrawer.obj
 0001:000056e0       ??0?$CTempBuffer@E$0BAA@VCCRTAllocator@ATL@@@ATL@@QAE@XZ 100066e0 f i CashDrawer.obj
 0001:00005700       ??0?$CTempBuffer@_W$0BAA@VCCRTAllocator@ATL@@@ATL@@QAE@XZ 10006700 f i CashDrawer.obj
 0001:00005720       ??0?$CTempBuffer@_W$0EAA@VCCRTAllocator@ATL@@@ATL@@QAE@XZ 10006720 f i CashDrawer.obj
 0001:00005740       ??0?$Wrapper@PA_W@?$CSimpleMap@PA_WPA_WVCExpansionVectorEqualHelper@ATL@@@ATL@@QAE@ABQA_W@Z 10006740 f i CashDrawer.obj
 0001:00005770       ??0CAtlModule@ATL@@QAE@XZ  10006770 f i CashDrawer.obj
 0001:00005890       ??0CComAutoDeleteCriticalSection@ATL@@QAE@XZ 10006890 f i CashDrawer.obj
 0001:000058c0       ??0CComBSTR@ATL@@QAE@XZ    100068c0 f i CashDrawer.obj
 0001:000058e0       ??0CComClassFactory@ATL@@QAE@XZ 100068e0 f i CashDrawer.obj
 0001:00005920       ??0CComModule@ATL@@QAE@XZ  10006920 f i CashDrawer.obj
 0001:00005990       ??0CComObjectRootBase@ATL@@QAE@XZ 10006990 f i CashDrawer.obj
 0001:000059b0       ??0CComSafeDeleteCriticalSection@ATL@@QAE@XZ 100069b0 f i CashDrawer.obj
 0001:000059e0       ??0CComVariant@ATL@@QAE@XZ 100069e0 f i CashDrawer.obj
 0001:00005a30       ??0CExpansionVector@ATL@@QAE@XZ 10006a30 f i CashDrawer.obj
 0001:00005a60       ??0CParseBuffer@CRegParser@ATL@@QAE@H@Z 10006a60 f i CashDrawer.obj
 0001:00005ad0       ??0CRegKey@ATL@@QAE@PAUHKEY__@@@Z 10006ad0 f i CashDrawer.obj
 0001:00005b10       ??0CRegKey@ATL@@QAE@PAVCAtlTransactionManager@1@@Z 10006b10 f i CashDrawer.obj
 0001:00005b50       ??0CRegObject@ATL@@QAE@XZ  10006b50 f i CashDrawer.obj
 0001:00005b90       ??0CRegParser@ATL@@QAE@PAVCRegObject@1@@Z 10006b90 f i CashDrawer.obj
 0001:00005bc0       ??0IClassFactory@@QAE@XZ   10006bc0 f i CashDrawer.obj
 0001:00005bf0       ??0IEnumConnectionPoints@@QAE@XZ 10006bf0 f i CashDrawer.obj
 0001:00005c20       ??0IEnumConnections@@QAE@XZ 10006c20 f i CashDrawer.obj
 0001:00005c50       ??0IRegistrarBase@@QAE@XZ  10006c50 f i CashDrawer.obj
 0001:00005c80       ??0IUnknown@@QAE@XZ        10006c80 f i CashDrawer.obj
 0001:00005ca0       ??0ModuleLockHelper@ATL@@QAE@XZ 10006ca0 f i CashDrawer.obj
 0001:00005ce0       ??0OposVariant@@QAE@XZ     10006ce0 f i CashDrawer.obj
 0001:00005d10       ??0Wrapper@?$CSimpleArray@GV?$CSimpleArrayEqualHelper@G@ATL@@@ATL@@QAE@ABG@Z 10006d10 f i CashDrawer.obj
 0001:00005d40       ??0_ATL_MODULE70@ATL@@QAE@XZ 10006d40 f i CashDrawer.obj
 0001:00005d70       ??0_ATL_MSG@ATL@@QAE@PAUHWND__@@IIJH@Z 10006d70 f i CashDrawer.obj
 0001:00005de0       ??0_U_MENUorID@ATL@@QAE@I@Z 10006de0 f i CashDrawer.obj
 0001:00005e00       ??0_U_RECT@ATL@@QAE@AAUtagRECT@@@Z 10006e00 f i CashDrawer.obj
 0001:00005e20       ??0stringdispid@CComTypeInfoHolder@ATL@@QAE@XZ 10006e20 f i CashDrawer.obj
 0001:00005e60       ??1?$CAtlModuleT@VCComModule@ATL@@@ATL@@UAE@XZ 10006e60 f i CashDrawer.obj
 0001:00005e90       ??1?$CAtlSafeAllocBufferManager@VCCRTAllocator@ATL@@@_ATL_SAFE_ALLOCA_IMPL@ATL@@QAE@XZ 10006e90 f i CashDrawer.obj
 0001:00005ee0       ??1?$CAutoVectorPtr@_W@ATL@@QAE@XZ 10006ee0 f i CashDrawer.obj
 0001:00005f10       ??1?$CComAggObject@VCOPOSCashDrawer@@@ATL@@UAE@XZ 10006f10 f i CashDrawer.obj
 0001:00005f80       ??1?$CComContainedObject@VCOPOSCashDrawer@@@ATL@@UAE@XZ 10006f80 f i CashDrawer.obj
 0001:00005fb0       ??1?$CComCritSecLock@VCComCriticalSection@ATL@@@ATL@@QAE@XZ 10006fb0 f i CashDrawer.obj
 0001:00005fe0       ??1?$CComEnum@UIEnumConnectionPoints@@$1?_GUID_b196b285_bab4_101a_b69c_00aa00341d07@@3U__s_GUID@@BPAUIConnectionPoint@@V?$_CopyInterface@UIConnectionPoint@@@ATL@@VCComSingleThreadModel@6@@ATL@@UAE@XZ 10006fe0 f i CashDrawer.obj
 0001:00006010       ??1?$CComEnum@UIEnumConnections@@$1?_GUID_b196b287_bab4_101a_b69c_00aa00341d07@@3U__s_GUID@@BUtagCONNECTDATA@@V?$_Copy@UtagCONNECTDATA@@@ATL@@VCComSingleThreadModel@6@@ATL@@UAE@XZ 10007010 f i CashDrawer.obj
 0001:00006040       ??1?$CComEnumImpl@UIEnumConnectionPoints@@$1?_GUID_b196b285_bab4_101a_b69c_00aa00341d07@@3U__s_GUID@@BPAUIConnectionPoint@@V?$_CopyInterface@UIConnectionPoint@@@ATL@@@ATL@@UAE@XZ 10007040 f i CashDrawer.obj
 0001:000060d0       ??1?$CComEnumImpl@UIEnumConnections@@$1?_GUID_b196b287_bab4_101a_b69c_00aa00341d07@@3U__s_GUID@@BUtagCONNECTDATA@@V?$_Copy@UtagCONNECTDATA@@@ATL@@@ATL@@UAE@XZ 100070d0 f i CashDrawer.obj
 0001:00006160       ??1?$CComObject@V?$CComEnum@UIEnumConnectionPoints@@$1?_GUID_b196b285_bab4_101a_b69c_00aa00341d07@@3U__s_GUID@@BPAUIConnectionPoint@@V?$_CopyInterface@UIConnectionPoint@@@ATL@@VCComSingleThreadModel@6@@ATL@@@ATL@@UAE@XZ 10007160 f i CashDrawer.obj
 0001:000061c0       ??1?$CComObject@V?$CComEnum@UIEnumConnections@@$1?_GUID_b196b287_bab4_101a_b69c_00aa00341d07@@3U__s_GUID@@BUtagCONNECTDATA@@V?$_Copy@UtagCONNECTDATA@@@ATL@@VCComSingleThreadModel@6@@ATL@@@ATL@@UAE@XZ 100071c0 f i CashDrawer.obj
 0001:00006220       ??1?$CComObject@VCOPOSCashDrawer@@@ATL@@UAE@XZ 10007220 f i CashDrawer.obj
 0001:00006360       ??1?$CComObjectCached@VCComClassFactory@ATL@@@ATL@@UAE@XZ 10007360 f i CashDrawer.obj
 0001:000063b0       ??1?$CComObjectRootEx@VCComMultiThreadModel@ATL@@@ATL@@QAE@XZ 100073b0 f i CashDrawer.obj
 0001:000063e0       ??1?$CComObjectRootEx@VCComSingleThreadModel@ATL@@@ATL@@QAE@XZ 100073e0 f i CashDrawer.obj
 0001:00006410       ??1?$CComPtr@UIAdviseSink@@@ATL@@QAE@XZ 10007410 f i CashDrawer.obj
 0001:00006440       ??1?$CComPtr@UICatRegister@@@ATL@@QAE@XZ 10007440 f i CashDrawer.obj
 0001:00006470       ??1?$CComPtr@UIConnectionPoint@@@ATL@@QAE@XZ 10007470 f i CashDrawer.obj
 0001:000064a0       ??1?$CComPtr@UIConnectionPointContainer@@@ATL@@QAE@XZ 100074a0 f i CashDrawer.obj
 0001:000064d0       ??1?$CComPtr@UIDataObject@@@ATL@@QAE@XZ 100074d0 f i CashDrawer.obj
 0001:00006500       ??1?$CComPtr@UIDispatch@@@ATL@@QAE@XZ 10007500 f i CashDrawer.obj
 0001:00006530       ??1?$CComPtr@UIOleClientSite@@@ATL@@QAE@XZ 10007530 f i CashDrawer.obj
 0001:00006560       ??1?$CComPtr@UIOleControlSite@@@ATL@@QAE@XZ 10007560 f i CashDrawer.obj
 0001:00006590       ??1?$CComPtr@UIOleInPlaceActiveObject@@@ATL@@QAE@XZ 10007590 f i CashDrawer.obj
 0001:000065c0       ??1?$CComPtr@UIOleInPlaceFrame@@@ATL@@QAE@XZ 100075c0 f i CashDrawer.obj
 0001:000065f0       ??1?$CComPtr@UIOleInPlaceObject@@@ATL@@QAE@XZ 100075f0 f i CashDrawer.obj
 0001:00006620       ??1?$CComPtr@UIOleInPlaceUIWindow@@@ATL@@QAE@XZ 10007620 f i CashDrawer.obj
 0001:00006650       ??1?$CComPtr@UIOleObject@@@ATL@@QAE@XZ 10007650 f i CashDrawer.obj
 0001:00006680       ??1?$CComPtr@UIPersistStream@@@ATL@@QAE@XZ 10007680 f i CashDrawer.obj
 0001:000066b0       ??1?$CComPtr@UIPersistStreamInit@@@ATL@@QAE@XZ 100076b0 f i CashDrawer.obj
 0001:000066e0       ??1?$CComPtr@UIPointerInactive@@@ATL@@QAE@XZ 100076e0 f i CashDrawer.obj
 0001:00006710       ??1?$CComPtr@UIProvideClassInfo2@@@ATL@@QAE@XZ 10007710 f i CashDrawer.obj
 0001:00006740       ??1?$CComPtr@UISpecifyPropertyPages@@@ATL@@QAE@XZ 10007740 f i CashDrawer.obj
 0001:00006770       ??1?$CComPtr@UIStream@@@ATL@@QAE@XZ 10007770 f i CashDrawer.obj
 0001:000067a0       ??1?$CComPtr@UITypeInfo2@@@ATL@@QAE@XZ 100077a0 f i CashDrawer.obj
 0001:000067d0       ??1?$CComPtr@UITypeInfo@@@ATL@@QAE@XZ 100077d0 f i CashDrawer.obj
 0001:00006800       ??1?$CComPtr@UITypeLib@@@ATL@@QAE@XZ 10007800 f i CashDrawer.obj
 0001:00006830       ??1?$CComPtr@UIUnknown@@@ATL@@QAE@XZ 10007830 f i CashDrawer.obj
 0001:00006860       ??1?$CComPtr@UIViewObjectEx@@@ATL@@QAE@XZ 10007860 f i CashDrawer.obj
 0001:00006890       ??1?$CComPtrBase@UIAdviseSink@@@ATL@@QAE@XZ 10007890 f i CashDrawer.obj
 0001:000068e0       ??1?$CComPtrBase@UICatRegister@@@ATL@@QAE@XZ 100078e0 f i CashDrawer.obj
 0001:00006930       ??1?$CComPtrBase@UIConnectionPoint@@@ATL@@QAE@XZ 10007930 f i CashDrawer.obj
 0001:00006980       ??1?$CComPtrBase@UIConnectionPointContainer@@@ATL@@QAE@XZ 10007980 f i CashDrawer.obj
 0001:000069d0       ??1?$CComPtrBase@UIDataObject@@@ATL@@QAE@XZ 100079d0 f i CashDrawer.obj
 0001:00006a20       ??1?$CComPtrBase@UIDispatch@@@ATL@@QAE@XZ 10007a20 f i CashDrawer.obj
 0001:00006a70       ??1?$CComPtrBase@UIOleClientSite@@@ATL@@QAE@XZ 10007a70 f i CashDrawer.obj
 0001:00006ac0       ??1?$CComPtrBase@UIOleControlSite@@@ATL@@QAE@XZ 10007ac0 f i CashDrawer.obj
 0001:00006b10       ??1?$CComPtrBase@UIOleInPlaceActiveObject@@@ATL@@QAE@XZ 10007b10 f i CashDrawer.obj
 0001:00006b60       ??1?$CComPtrBase@UIOleInPlaceFrame@@@ATL@@QAE@XZ 10007b60 f i CashDrawer.obj
 0001:00006bb0       ??1?$CComPtrBase@UIOleInPlaceObject@@@ATL@@QAE@XZ 10007bb0 f i CashDrawer.obj
 0001:00006c00       ??1?$CComPtrBase@UIOleInPlaceUIWindow@@@ATL@@QAE@XZ 10007c00 f i CashDrawer.obj
 0001:00006c50       ??1?$CComPtrBase@UIOleObject@@@ATL@@QAE@XZ 10007c50 f i CashDrawer.obj
 0001:00006ca0       ??1?$CComPtrBase@UIPersistStream@@@ATL@@QAE@XZ 10007ca0 f i CashDrawer.obj
 0001:00006cf0       ??1?$CComPtrBase@UIPersistStreamInit@@@ATL@@QAE@XZ 10007cf0 f i CashDrawer.obj
 0001:00006d40       ??1?$CComPtrBase@UIPointerInactive@@@ATL@@QAE@XZ 10007d40 f i CashDrawer.obj
 0001:00006d90       ??1?$CComPtrBase@UIProvideClassInfo2@@@ATL@@QAE@XZ 10007d90 f i CashDrawer.obj
 0001:00006de0       ??1?$CComPtrBase@UISpecifyPropertyPages@@@ATL@@QAE@XZ 10007de0 f i CashDrawer.obj
 0001:00006e30       ??1?$CComPtrBase@UIStream@@@ATL@@QAE@XZ 10007e30 f i CashDrawer.obj
 0001:00006e80       ??1?$CComPtrBase@UITypeInfo2@@@ATL@@QAE@XZ 10007e80 f i CashDrawer.obj
 0001:00006ed0       ??1?$CComPtrBase@UITypeInfo@@@ATL@@QAE@XZ 10007ed0 f i CashDrawer.obj
 0001:00006f20       ??1?$CComPtrBase@UITypeLib@@@ATL@@QAE@XZ 10007f20 f i CashDrawer.obj
 0001:00006f70       ??1?$CComPtrBase@UIUnknown@@@ATL@@QAE@XZ 10007f70 f i CashDrawer.obj
 0001:00006fc0       ??1?$CComPtrBase@UIViewObjectEx@@@ATL@@QAE@XZ 10007fc0 f i CashDrawer.obj
 0001:00007010       ??1?$CComQIPtr@UIOleControlSite@@$1?_GUID_b196b289_bab4_101a_b69c_00aa00341d07@@3U__s_GUID@@B@ATL@@QAE@XZ 10008010 f i CashDrawer.obj
 0001:00007040       ??1?$CComQIPtr@UIOleObject@@$1?_GUID_00000112_0000_0000_c000_000000000046@@3U__s_GUID@@B@ATL@@QAE@XZ 10008040 f i CashDrawer.obj
 0001:00007070       ??1?$CComQIPtr@UISpecifyPropertyPages@@$1?_GUID_b196b28b_bab4_101a_b69c_00aa00341d07@@3U__s_GUID@@B@ATL@@QAE@XZ 10008070 f i CashDrawer.obj
 0001:000070a0       ??1?$CSimpleMap@PA_WPA_WVCExpansionVectorEqualHelper@ATL@@@ATL@@QAE@XZ 100080a0 f i CashDrawer.obj
 0001:000070d0       ??1?$CTempBuffer@E$0BAA@VCCRTAllocator@ATL@@@ATL@@QAE@XZ 100080d0 f i CashDrawer.obj
 0001:00007110       ??1?$CTempBuffer@_W$0BAA@VCCRTAllocator@ATL@@@ATL@@QAE@XZ 10008110 f i CashDrawer.obj
 0001:00007150       ??1?$CTempBuffer@_W$0EAA@VCCRTAllocator@ATL@@@ATL@@QAE@XZ 10008150 f i CashDrawer.obj
 0001:00007190       ??1CAtlModule@ATL@@UAE@XZ  10008190 f i CashDrawer.obj
 0001:000071c0       ??1CComAutoDeleteCriticalSection@ATL@@QAE@XZ 100081c0 f i CashDrawer.obj
 0001:000071f0       ??1CComClassFactory@ATL@@UAE@XZ 100081f0 f i CashDrawer.obj
 0001:00007220       ??1CComModule@ATL@@UAE@XZ  10008220 f i CashDrawer.obj
 0001:00007250       ??1CComObjectRootBase@ATL@@QAE@XZ 10008250 f i CashDrawer.obj
 0001:00007270       ??1CComSafeDeleteCriticalSection@ATL@@QAE@XZ 10008270 f i CashDrawer.obj
 0001:000072b0       ??1CComVariant@ATL@@QAE@XZ 100082b0 f i CashDrawer.obj
 0001:00007310       ??1CExpansionVector@ATL@@QAE@XZ 10008310 f i CashDrawer.obj
 0001:00007340       ??1CParseBuffer@CRegParser@ATL@@QAE@XZ 10008340 f i CashDrawer.obj
 0001:00007380       ??1CRegKey@ATL@@QAE@XZ     10008380 f i CashDrawer.obj
 0001:000073b0       ??1CRegObject@ATL@@UAE@XZ  100083b0 f i CashDrawer.obj
 0001:000073f0       ??1ModuleLockHelper@ATL@@QAE@XZ 100083f0 f i CashDrawer.obj
 0001:00007430       ??1OposVariant@@QAE@XZ     10008430 f i CashDrawer.obj
 0001:00007460       ??1_ATL_MODULE70@ATL@@QAE@XZ 10008460 f i CashDrawer.obj
 0001:00007490       ??4?$CComPtr@UIAdviseSink@@@ATL@@QAEPAUIAdviseSink@@PAU2@@Z 10008490 f i CashDrawer.obj
 0001:00007500       ??4?$CComPtr@UIOleClientSite@@@ATL@@QAEPAUIOleClientSite@@PAU2@@Z 10008500 f i CashDrawer.obj
 0001:00007570       ??4?$CComPtr@UIUnknown@@@ATL@@QAEPAUIUnknown@@PAU2@@Z 10008570 f i CashDrawer.obj
 0001:000075e0       ??4?$CComQIPtr@UIOleObject@@$1?_GUID_00000112_0000_0000_c000_000000000046@@3U__s_GUID@@B@ATL@@QAEPAUIOleObject@@PAUIUnknown@@@Z 100085e0 f i CashDrawer.obj
 0001:00007630       ??4?$CComQIPtr@UISpecifyPropertyPages@@$1?_GUID_b196b28b_bab4_101a_b69c_00aa00341d07@@3U__s_GUID@@B@ATL@@QAEPAUISpecifyPropertyPages@@PAUIUnknown@@@Z 10008630 f i CashDrawer.obj
 0001:00007680       ??7?$CComPtrBase@UIOleClientSite@@@ATL@@QBE_NXZ 10008680 f i CashDrawer.obj
 0001:000076c0       ??7?$CComPtrBase@UIOleInPlaceSiteWindowless@@@ATL@@QBE_NXZ 100086c0 f i CashDrawer.obj
 0001:00007700       ??7CComBSTR@ATL@@QBE_NXZ   10008700 f i CashDrawer.obj
 0001:00007740       ??8?$CComPtrBase@UIAdviseSink@@@ATL@@QBE_NPAUIAdviseSink@@@Z 10008740 f i CashDrawer.obj
 0001:00007780       ??8?$CComPtrBase@UIConnectionPointContainer@@@ATL@@QBE_NPAUIConnectionPointContainer@@@Z 10008780 f i CashDrawer.obj
 0001:000077c0       ??8?$CComPtrBase@UIDataAdviseHolder@@@ATL@@QBE_NPAUIDataAdviseHolder@@@Z 100087c0 f i CashDrawer.obj
 0001:00007800       ??8?$CComPtrBase@UIOleAdviseHolder@@@ATL@@QBE_NPAUIOleAdviseHolder@@@Z 10008800 f i CashDrawer.obj
 0001:00007840       ??8?$CComPtrBase@UIOleClientSite@@@ATL@@QBE_NPAUIOleClientSite@@@Z 10008840 f i CashDrawer.obj
 0001:00007880       ??8?$CComPtrBase@UIOleControlSite@@@ATL@@QBE_NPAUIOleControlSite@@@Z 10008880 f i CashDrawer.obj
 0001:000078c0       ??8?$CComPtrBase@UIOleInPlaceObject@@@ATL@@QBE_NPAUIOleInPlaceObject@@@Z 100088c0 f i CashDrawer.obj
 0001:00007900       ??8?$CComPtrBase@UIOleInPlaceSiteWindowless@@@ATL@@QBE_NPAUIOleInPlaceSiteWindowless@@@Z 10008900 f i CashDrawer.obj
 0001:00007940       ??8?$CComPtrBase@UIOleObject@@@ATL@@QBE_NPAUIOleObject@@@Z 10008940 f i CashDrawer.obj
 0001:00007980       ??8?$CComPtrBase@UIPersistStream@@@ATL@@QBE_NPAUIPersistStream@@@Z 10008980 f i CashDrawer.obj
 0001:000079c0       ??8?$CComPtrBase@UIPersistStreamInit@@@ATL@@QBE_NPAUIPersistStreamInit@@@Z 100089c0 f i CashDrawer.obj
 0001:00007a00       ??8?$CComPtrBase@UIPointerInactive@@@ATL@@QBE_NPAUIPointerInactive@@@Z 10008a00 f i CashDrawer.obj
 0001:00007a40       ??8?$CComPtrBase@UIUnknown@@@ATL@@QBE_NPAUIUnknown@@@Z 10008a40 f i CashDrawer.obj
 0001:00007a80       ??8?$CComPtrBase@UIViewObjectEx@@@ATL@@QBE_NPAUIViewObjectEx@@@Z 10008a80 f i CashDrawer.obj
 0001:00007ac0       ??8CComBSTR@ATL@@QBE_NH@Z  10008ac0 f i CashDrawer.obj
 0001:00007b20       ??9?$CComPtrBase@UIAdviseSink@@@ATL@@QBE_NPAUIAdviseSink@@@Z 10008b20 f i CashDrawer.obj
 0001:00007b70       ??9?$CComPtrBase@UIConnectionPointContainer@@@ATL@@QBE_NPAUIConnectionPointContainer@@@Z 10008b70 f i CashDrawer.obj
 0001:00007bc0       ??9?$CComPtrBase@UIDataAdviseHolder@@@ATL@@QBE_NPAUIDataAdviseHolder@@@Z 10008bc0 f i CashDrawer.obj
 0001:00007c10       ??9?$CComPtrBase@UIOleAdviseHolder@@@ATL@@QBE_NPAUIOleAdviseHolder@@@Z 10008c10 f i CashDrawer.obj
 0001:00007c60       ??9?$CComPtrBase@UIOleClientSite@@@ATL@@QBE_NPAUIOleClientSite@@@Z 10008c60 f i CashDrawer.obj
 0001:00007cb0       ??9?$CComPtrBase@UIOleControlSite@@@ATL@@QBE_NPAUIOleControlSite@@@Z 10008cb0 f i CashDrawer.obj
 0001:00007d00       ??9?$CComPtrBase@UIOleInPlaceObject@@@ATL@@QBE_NPAUIOleInPlaceObject@@@Z 10008d00 f i CashDrawer.obj
 0001:00007d50       ??9?$CComPtrBase@UIOleInPlaceSiteWindowless@@@ATL@@QBE_NPAUIOleInPlaceSiteWindowless@@@Z 10008d50 f i CashDrawer.obj
 0001:00007da0       ??9?$CComPtrBase@UIOleObject@@@ATL@@QBE_NPAUIOleObject@@@Z 10008da0 f i CashDrawer.obj
 0001:00007df0       ??9?$CComPtrBase@UIPersistStream@@@ATL@@QBE_NPAUIPersistStream@@@Z 10008df0 f i CashDrawer.obj
 0001:00007e40       ??9?$CComPtrBase@UIPersistStreamInit@@@ATL@@QBE_NPAUIPersistStreamInit@@@Z 10008e40 f i CashDrawer.obj
 0001:00007e90       ??9?$CComPtrBase@UIPointerInactive@@@ATL@@QBE_NPAUIPointerInactive@@@Z 10008e90 f i CashDrawer.obj
 0001:00007ee0       ??9?$CComPtrBase@UIUnknown@@@ATL@@QBE_NPAUIUnknown@@@Z 10008ee0 f i CashDrawer.obj
 0001:00007f30       ??9?$CComPtrBase@UIViewObjectEx@@@ATL@@QBE_NPAUIViewObjectEx@@@Z 10008f30 f i CashDrawer.obj
 0001:00007f80       ??9CComBSTR@ATL@@QBE_NH@Z  10008f80 f i CashDrawer.obj
 0001:00007fd0       ??B?$CComPtrBase@UIAdviseSink@@@ATL@@QBEPAUIAdviseSink@@XZ 10008fd0 f i CashDrawer.obj
 0001:00007ff0       ??B?$CComPtrBase@UIDataAdviseHolder@@@ATL@@QBEPAUIDataAdviseHolder@@XZ 10008ff0 f i CashDrawer.obj
 0001:00008010       ??B?$CComPtrBase@UIDataObject@@@ATL@@QBEPAUIDataObject@@XZ 10009010 f i CashDrawer.obj
 0001:00008030       ??B?$CComPtrBase@UIOleAdviseHolder@@@ATL@@QBEPAUIOleAdviseHolder@@XZ 10009030 f i CashDrawer.obj
 0001:00008050       ??B?$CComPtrBase@UIOleClientSite@@@ATL@@QBEPAUIOleClientSite@@XZ 10009050 f i CashDrawer.obj
 0001:00008070       ??B?$CComPtrBase@UIOleControlSite@@@ATL@@QBEPAUIOleControlSite@@XZ 10009070 f i CashDrawer.obj
 0001:00008090       ??B?$CComPtrBase@UIOleInPlaceActiveObject@@@ATL@@QBEPAUIOleInPlaceActiveObject@@XZ 10009090 f i CashDrawer.obj
 0001:000080b0       ??B?$CComPtrBase@UIOleInPlaceFrame@@@ATL@@QBEPAUIOleInPlaceFrame@@XZ 100090b0 f i CashDrawer.obj
 0001:000080d0       ??B?$CComPtrBase@UIOleInPlaceSiteWindowless@@@ATL@@QBEPAUIOleInPlaceSiteWindowless@@XZ 100090d0 f i CashDrawer.obj
 0001:000080f0       ??B?$CComPtrBase@UIOleInPlaceUIWindow@@@ATL@@QBEPAUIOleInPlaceUIWindow@@XZ 100090f0 f i CashDrawer.obj
 0001:00008110       ??B?$CComPtrBase@UIOleObject@@@ATL@@QBEPAUIOleObject@@XZ 10009110 f i CashDrawer.obj
 0001:00008130       ??B?$CComPtrBase@UIPersistStream@@@ATL@@QBEPAUIPersistStream@@XZ 10009130 f i CashDrawer.obj
 0001:00008150       ??B?$CComPtrBase@UIProvideClassInfo2@@@ATL@@QBEPAUIProvideClassInfo2@@XZ 10009150 f i CashDrawer.obj
 0001:00008170       ??B?$CComPtrBase@UISpecifyPropertyPages@@@ATL@@QBEPAUISpecifyPropertyPages@@XZ 10009170 f i CashDrawer.obj
 0001:00008190       ??B?$CComPtrBase@UIStream@@@ATL@@QBEPAUIStream@@XZ 10009190 f i CashDrawer.obj
 0001:000081b0       ??B?$CComPtrBase@UITypeInfo2@@@ATL@@QBEPAUITypeInfo2@@XZ 100091b0 f i CashDrawer.obj
 0001:000081d0       ??B?$CComPtrBase@UITypeInfo@@@ATL@@QBEPAUITypeInfo@@XZ 100091d0 f i CashDrawer.obj
 0001:000081f0       ??B?$CComPtrBase@UITypeLib@@@ATL@@QBEPAUITypeLib@@XZ 100091f0 f i CashDrawer.obj
 0001:00008210       ??B?$CComPtrBase@UIUnknown@@@ATL@@QBEPAUIUnknown@@XZ 10009210 f i CashDrawer.obj
 0001:00008230       ??B?$CTempBuffer@E$0BAA@VCCRTAllocator@ATL@@@ATL@@QBEPAEXZ 10009230 f i CashDrawer.obj
 0001:00008250       ??B?$CTempBuffer@_W$0BAA@VCCRTAllocator@ATL@@@ATL@@QBEPA_WXZ 10009250 f i CashDrawer.obj
 0001:00008270       ??B?$CTempBuffer@_W$0EAA@VCCRTAllocator@ATL@@@ATL@@QBEPA_WXZ 10009270 f i CashDrawer.obj
 0001:00008290       ??B?$CTraceCategoryEx@$00$0A@@ATL@@QAEIXZ 10009290 f i CashDrawer.obj
 0001:000082b0       ??B?$CTraceCategoryEx@$07$0A@@ATL@@QAEIXZ 100092b0 f i CashDrawer.obj
 0001:000082d0       ??B?$CTraceCategoryEx@$0CAAA@$0A@@ATL@@QAEIXZ 100092d0 f i CashDrawer.obj
 0001:000082f0       ??B?$CTraceCategoryEx@$0EA@$0A@@ATL@@QAEIXZ 100092f0 f i CashDrawer.obj
 0001:00008310       ??B?$CTraceCategoryEx@$0IAA@$0A@@ATL@@QAEIXZ 10009310 f i CashDrawer.obj
 0001:00008330       ??BCComBSTR@ATL@@QBEPA_WXZ 10009330 f i CashDrawer.obj
 0001:00008350       ??BCRegKey@ATL@@QBEPAUHKEY__@@XZ 10009350 f i CashDrawer.obj
 0001:00008370       ??C?$CComPtrBase@UIAdviseSink@@@ATL@@QBEPAV?$_NoAddRefReleaseOnCComPtr@UIAdviseSink@@@1@XZ 10009370 f i CashDrawer.obj
 0001:000083c0       ??C?$CComPtrBase@UICatRegister@@@ATL@@QBEPAV?$_NoAddRefReleaseOnCComPtr@UICatRegister@@@1@XZ 100093c0 f i CashDrawer.obj
 0001:00008410       ??C?$CComPtrBase@UIConnectionPoint@@@ATL@@QBEPAV?$_NoAddRefReleaseOnCComPtr@UIConnectionPoint@@@1@XZ 10009410 f i CashDrawer.obj
 0001:00008460       ??C?$CComPtrBase@UIConnectionPointContainer@@@ATL@@QBEPAV?$_NoAddRefReleaseOnCComPtr@UIConnectionPointContainer@@@1@XZ 10009460 f i CashDrawer.obj
 0001:000084b0       ??C?$CComPtrBase@UIDataAdviseHolder@@@ATL@@QBEPAV?$_NoAddRefReleaseOnCComPtr@UIDataAdviseHolder@@@1@XZ 100094b0 f i CashDrawer.obj
 0001:00008500       ??C?$CComPtrBase@UIOleAdviseHolder@@@ATL@@QBEPAV?$_NoAddRefReleaseOnCComPtr@UIOleAdviseHolder@@@1@XZ 10009500 f i CashDrawer.obj
 0001:00008550       ??C?$CComPtrBase@UIOleClientSite@@@ATL@@QBEPAV?$_NoAddRefReleaseOnCComPtr@UIOleClientSite@@@1@XZ 10009550 f i CashDrawer.obj
 0001:000085a0       ??C?$CComPtrBase@UIOleControlSite@@@ATL@@QBEPAV?$_NoAddRefReleaseOnCComPtr@UIOleControlSite@@@1@XZ 100095a0 f i CashDrawer.obj
 0001:000085f0       ??C?$CComPtrBase@UIOleInPlaceFrame@@@ATL@@QBEPAV?$_NoAddRefReleaseOnCComPtr@UIOleInPlaceFrame@@@1@XZ 100095f0 f i CashDrawer.obj
 0001:00008640       ??C?$CComPtrBase@UIOleInPlaceObject@@@ATL@@QBEPAV?$_NoAddRefReleaseOnCComPtr@UIOleInPlaceObject@@@1@XZ 10009640 f i CashDrawer.obj
 0001:00008690       ??C?$CComPtrBase@UIOleInPlaceSiteWindowless@@@ATL@@QBEPAV?$_NoAddRefReleaseOnCComPtr@UIOleInPlaceSiteWindowless@@@1@XZ 10009690 f i CashDrawer.obj
 0001:000086e0       ??C?$CComPtrBase@UIOleInPlaceUIWindow@@@ATL@@QBEPAV?$_NoAddRefReleaseOnCComPtr@UIOleInPlaceUIWindow@@@1@XZ 100096e0 f i CashDrawer.obj
 0001:00008730       ??C?$CComPtrBase@UIOleObject@@@ATL@@QBEPAV?$_NoAddRefReleaseOnCComPtr@UIOleObject@@@1@XZ 10009730 f i CashDrawer.obj
 0001:00008780       ??C?$CComPtrBase@UIPersistStream@@@ATL@@QBEPAV?$_NoAddRefReleaseOnCComPtr@UIPersistStream@@@1@XZ 10009780 f i CashDrawer.obj
 0001:000087d0       ??C?$CComPtrBase@UIPersistStreamInit@@@ATL@@QBEPAV?$_NoAddRefReleaseOnCComPtr@UIPersistStreamInit@@@1@XZ 100097d0 f i CashDrawer.obj
 0001:00008820       ??C?$CComPtrBase@UIPointerInactive@@@ATL@@QBEPAV?$_NoAddRefReleaseOnCComPtr@UIPointerInactive@@@1@XZ 10009820 f i CashDrawer.obj
 0001:00008870       ??C?$CComPtrBase@UIProvideClassInfo2@@@ATL@@QBEPAV?$_NoAddRefReleaseOnCComPtr@UIProvideClassInfo2@@@1@XZ 10009870 f i CashDrawer.obj
 0001:000088c0       ??C?$CComPtrBase@UISpecifyPropertyPages@@@ATL@@QBEPAV?$_NoAddRefReleaseOnCComPtr@UISpecifyPropertyPages@@@1@XZ 100098c0 f i CashDrawer.obj
 0001:00008910       ??C?$CComPtrBase@UITypeInfo@@@ATL@@QBEPAV?$_NoAddRefReleaseOnCComPtr@UITypeInfo@@@1@XZ 10009910 f i CashDrawer.obj
 0001:00008960       ??C?$CComPtrBase@UITypeLib@@@ATL@@QBEPAV?$_NoAddRefReleaseOnCComPtr@UITypeLib@@@1@XZ 10009960 f i CashDrawer.obj
 0001:000089b0       ??C?$CComPtrBase@UIUnknown@@@ATL@@QBEPAV?$_NoAddRefReleaseOnCComPtr@UIUnknown@@@1@XZ 100099b0 f i CashDrawer.obj
 0001:00008a00       ??C?$CComPtrBase@UIViewObjectEx@@@ATL@@QBEPAV?$_NoAddRefReleaseOnCComPtr@UIViewObjectEx@@@1@XZ 10009a00 f i CashDrawer.obj
 0001:00008a50       ??I?$CComPtrBase@UICatRegister@@@ATL@@QAEPAPAUICatRegister@@XZ 10009a50 f i CashDrawer.obj
 0001:00008aa0       ??I?$CComPtrBase@UIConnectionPoint@@@ATL@@QAEPAPAUIConnectionPoint@@XZ 10009aa0 f i CashDrawer.obj
 0001:00008af0       ??I?$CComPtrBase@UIConnectionPointContainer@@@ATL@@QAEPAPAUIConnectionPointContainer@@XZ 10009af0 f i CashDrawer.obj
 0001:00008b40       ??I?$CComPtrBase@UIDataAdviseHolder@@@ATL@@QAEPAPAUIDataAdviseHolder@@XZ 10009b40 f i CashDrawer.obj
 0001:00008b90       ??I?$CComPtrBase@UIDataObject@@@ATL@@QAEPAPAUIDataObject@@XZ 10009b90 f i CashDrawer.obj
 0001:00008be0       ??I?$CComPtrBase@UIDispatch@@@ATL@@QAEPAPAUIDispatch@@XZ 10009be0 f i CashDrawer.obj
 0001:00008c30       ??I?$CComPtrBase@UIOleAdviseHolder@@@ATL@@QAEPAPAUIOleAdviseHolder@@XZ 10009c30 f i CashDrawer.obj
 0001:00008c80       ??I?$CComPtrBase@UIOleControlSite@@@ATL@@QAEPAPAUIOleControlSite@@XZ 10009c80 f i CashDrawer.obj
 0001:00008cd0       ??I?$CComPtrBase@UIOleInPlaceActiveObject@@@ATL@@QAEPAPAUIOleInPlaceActiveObject@@XZ 10009cd0 f i CashDrawer.obj
 0001:00008d20       ??I?$CComPtrBase@UIOleInPlaceFrame@@@ATL@@QAEPAPAUIOleInPlaceFrame@@XZ 10009d20 f i CashDrawer.obj
 0001:00008d70       ??I?$CComPtrBase@UIOleInPlaceObject@@@ATL@@QAEPAPAUIOleInPlaceObject@@XZ 10009d70 f i CashDrawer.obj
 0001:00008dc0       ??I?$CComPtrBase@UIOleInPlaceSiteWindowless@@@ATL@@QAEPAPAUIOleInPlaceSiteWindowless@@XZ 10009dc0 f i CashDrawer.obj
 0001:00008e10       ??I?$CComPtrBase@UIOleInPlaceUIWindow@@@ATL@@QAEPAPAUIOleInPlaceUIWindow@@XZ 10009e10 f i CashDrawer.obj
 0001:00008e60       ??I?$CComPtrBase@UIOleObject@@@ATL@@QAEPAPAUIOleObject@@XZ 10009e60 f i CashDrawer.obj
 0001:00008eb0       ??I?$CComPtrBase@UIPersistStream@@@ATL@@QAEPAPAUIPersistStream@@XZ 10009eb0 f i CashDrawer.obj
 0001:00008f00       ??I?$CComPtrBase@UIPointerInactive@@@ATL@@QAEPAPAUIPointerInactive@@XZ 10009f00 f i CashDrawer.obj
 0001:00008f50       ??I?$CComPtrBase@UIProvideClassInfo2@@@ATL@@QAEPAPAUIProvideClassInfo2@@XZ 10009f50 f i CashDrawer.obj
 0001:00008fa0       ??I?$CComPtrBase@UIStream@@@ATL@@QAEPAPAUIStream@@XZ 10009fa0 f i CashDrawer.obj
 0001:00008ff0       ??I?$CComPtrBase@UITypeInfo2@@@ATL@@QAEPAPAUITypeInfo2@@XZ 10009ff0 f i CashDrawer.obj
 0001:00009040       ??I?$CComPtrBase@UITypeInfo@@@ATL@@QAEPAPAUITypeInfo@@XZ 1000a040 f i CashDrawer.obj
 0001:00009090       ??I?$CComPtrBase@UITypeLib@@@ATL@@QAEPAPAUITypeLib@@XZ 1000a090 f i CashDrawer.obj
 0001:000090e0       ??I?$CComPtrBase@UIUnknown@@@ATL@@QAEPAPAUIUnknown@@XZ 1000a0e0 f i CashDrawer.obj
 0001:00009130       ??I?$CComPtrBase@UIViewObjectEx@@@ATL@@QAEPAPAUIViewObjectEx@@XZ 1000a130 f i CashDrawer.obj
 0001:00009180       ??ICComBSTR@ATL@@QAEPAPA_WXZ 1000a180 f i CashDrawer.obj
 0001:00009195       ??_E?$CComContainedObject@VCOPOSCashDrawer@@@ATL@@W3AEPAXI@Z 1000a195 f i CashDrawer.obj
 0001:0000919d       ??_E?$CComContainedObject@VCOPOSCashDrawer@@@ATL@@WEM@AEPAXI@Z 1000a19d f i CashDrawer.obj
 0001:000091a5       ??_E?$CComObject@VCOPOSCashDrawer@@@ATL@@W3AEPAXI@Z 1000a1a5 f i CashDrawer.obj
 0001:000091ad       ??_E?$CComObject@VCOPOSCashDrawer@@@ATL@@WEM@AEPAXI@Z 1000a1ad f i CashDrawer.obj
 0001:000091c0       ??_E?$CComAggObject@VCOPOSCashDrawer@@@ATL@@UAEPAXI@Z 1000a1c0 f i CashDrawer.obj
 0001:000091c0       ??_G?$CComAggObject@VCOPOSCashDrawer@@@ATL@@UAEPAXI@Z 1000a1c0 f i CashDrawer.obj
 0001:00009210       ??_E?$CComContainedObject@VCOPOSCashDrawer@@@ATL@@UAEPAXI@Z 1000a210 f i CashDrawer.obj
 0001:00009210       ??_G?$CComContainedObject@VCOPOSCashDrawer@@@ATL@@UAEPAXI@Z 1000a210 f i CashDrawer.obj
 0001:00009260       ??_E?$CComObject@V?$CComEnum@UIEnumConnectionPoints@@$1?_GUID_b196b285_bab4_101a_b69c_00aa00341d07@@3U__s_GUID@@BPAUIConnectionPoint@@V?$_CopyInterface@UIConnectionPoint@@@ATL@@VCComSingleThreadModel@6@@ATL@@@ATL@@UAEPAXI@Z 1000a260 f i CashDrawer.obj
 0001:00009260       ??_G?$CComObject@V?$CComEnum@UIEnumConnectionPoints@@$1?_GUID_b196b285_bab4_101a_b69c_00aa00341d07@@3U__s_GUID@@BPAUIConnectionPoint@@V?$_CopyInterface@UIConnectionPoint@@@ATL@@VCComSingleThreadModel@6@@ATL@@@ATL@@UAEPAXI@Z 1000a260 f i CashDrawer.obj
 0001:000092a0       ??_E?$CComObject@V?$CComEnum@UIEnumConnections@@$1?_GUID_b196b287_bab4_101a_b69c_00aa00341d07@@3U__s_GUID@@BUtagCONNECTDATA@@V?$_Copy@UtagCONNECTDATA@@@ATL@@VCComSingleThreadModel@6@@ATL@@@ATL@@UAEPAXI@Z 1000a2a0 f i CashDrawer.obj
 0001:000092a0       ??_G?$CComObject@V?$CComEnum@UIEnumConnections@@$1?_GUID_b196b287_bab4_101a_b69c_00aa00341d07@@3U__s_GUID@@BUtagCONNECTDATA@@V?$_Copy@UtagCONNECTDATA@@@ATL@@VCComSingleThreadModel@6@@ATL@@@ATL@@UAEPAXI@Z 1000a2a0 f i CashDrawer.obj
 0001:000092e0       ??_E?$CComObject@VCOPOSCashDrawer@@@ATL@@UAEPAXI@Z 1000a2e0 f i CashDrawer.obj
 0001:000092e0       ??_G?$CComObject@VCOPOSCashDrawer@@@ATL@@UAEPAXI@Z 1000a2e0 f i CashDrawer.obj
 0001:00009330       ??_E?$CComObjectCached@VCComClassFactory@ATL@@@ATL@@UAEPAXI@Z 1000a330 f i CashDrawer.obj
 0001:00009330       ??_G?$CComObjectCached@VCComClassFactory@ATL@@@ATL@@UAEPAXI@Z 1000a330 f i CashDrawer.obj
 0001:00009370       ??_ECComClassFactory@ATL@@UAEPAXI@Z 1000a370 f i CashDrawer.obj
 0001:00009370       ??_GCComClassFactory@ATL@@UAEPAXI@Z 1000a370 f i CashDrawer.obj
 0001:000093b0       ??_GCComModule@ATL@@UAEPAXI@Z 1000a3b0 f i CashDrawer.obj
 0001:000093b0       ??_ECComModule@ATL@@UAEPAXI@Z 1000a3b0 f i CashDrawer.obj
 0001:000093f0       ??_ECRegObject@ATL@@UAEPAXI@Z 1000a3f0 f i CashDrawer.obj
 0001:000093f0       ??_GCRegObject@ATL@@UAEPAXI@Z 1000a3f0 f i CashDrawer.obj
 0001:00009430       ?Add@?$CSimpleArray@GV?$CSimpleArrayEqualHelper@G@ATL@@@ATL@@QAEHABG@Z 1000a430 f i CashDrawer.obj
 0001:00009580       ?Add@?$CSimpleMap@PA_WPA_WVCExpansionVectorEqualHelper@ATL@@@ATL@@QAEHABQA_W0@Z 1000a580 f i CashDrawer.obj
 0001:00009640       ?Add@CComDynamicUnkArray@ATL@@QAEKPAUIUnknown@@@Z 1000a640 f i CashDrawer.obj
 0001:000097e0       ?Add@CExpansionVector@ATL@@QAEHPB_W0@Z 1000a7e0 f i CashDrawer.obj
 0001:00009a70       ?AddChar@CParseBuffer@CRegParser@ATL@@QAEHPB_W@Z 1000aa70 f i CashDrawer.obj
 0001:00009ab0       ?AddCommonRGSReplacements@?$CAtlModuleT@VCComModule@ATL@@@ATL@@UAEJPAUIRegistrarBase@@@Z 1000aab0 f i CashDrawer.obj
 0001:00009b00       ?AddCreateWndData@CAtlWinModule@ATL@@QAEXPAU_AtlCreateWndData@2@PAX@Z 1000ab00 f i CashDrawer.obj
 0001:00009b30       ?AddRef@?$CComAggObject@VCOPOSCashDrawer@@@ATL@@UAGKXZ 1000ab30 f i CashDrawer.obj
 0001:00009b50       ?AddRef@?$CComContainedObject@VCOPOSCashDrawer@@@ATL@@UAGKXZ 1000ab50 f i CashDrawer.obj
 0001:00009b6c       ?AddRef@?$CComContainedObject@VCOPOSCashDrawer@@@ATL@@WHA@AGKXZ 1000ab6c f i CashDrawer.obj
 0001:00009b76       ?AddRef@?$CComContainedObject@VCOPOSCashDrawer@@@ATL@@WHE@AGKXZ 1000ab76 f i CashDrawer.obj
 0001:00009b80       ?AddRef@?$CComContainedObject@VCOPOSCashDrawer@@@ATL@@WHI@AGKXZ 1000ab80 f i CashDrawer.obj
 0001:00009b8a       ?AddRef@?$CComContainedObject@VCOPOSCashDrawer@@@ATL@@WHM@AGKXZ 1000ab8a f i CashDrawer.obj
 0001:00009b94       ?AddRef@?$CComContainedObject@VCOPOSCashDrawer@@@ATL@@WIA@AGKXZ 1000ab94 f i CashDrawer.obj
 0001:00009ba1       ?AddRef@?$CComContainedObject@VCOPOSCashDrawer@@@ATL@@WIE@AGKXZ 1000aba1 f i CashDrawer.obj
 0001:00009bae       ?AddRef@?$CComContainedObject@VCOPOSCashDrawer@@@ATL@@WII@AGKXZ 1000abae f i CashDrawer.obj
 0001:00009bbb       ?AddRef@?$CComContainedObject@VCOPOSCashDrawer@@@ATL@@WIM@AGKXZ 1000abbb f i CashDrawer.obj
 0001:00009bc8       ?AddRef@?$CComContainedObject@VCOPOSCashDrawer@@@ATL@@WJA@AGKXZ 1000abc8 f i CashDrawer.obj
 0001:00009bd5       ?AddRef@?$CComContainedObject@VCOPOSCashDrawer@@@ATL@@WJE@AGKXZ 1000abd5 f i CashDrawer.obj
 0001:00009be2       ?AddRef@?$CComContainedObject@VCOPOSCashDrawer@@@ATL@@WJI@AGKXZ 1000abe2 f i CashDrawer.obj
 0001:00009bef       ?AddRef@?$CComContainedObject@VCOPOSCashDrawer@@@ATL@@WJM@AGKXZ 1000abef f i CashDrawer.obj
 0001:00009bfc       ?AddRef@?$CComContainedObject@VCOPOSCashDrawer@@@ATL@@WKA@AGKXZ 1000abfc f i CashDrawer.obj
 0001:00009c09       ?AddRef@?$CComContainedObject@VCOPOSCashDrawer@@@ATL@@WKI@AGKXZ 1000ac09 f i CashDrawer.obj
 0001:00009c16       ?AddRef@?$CComContainedObject@VCOPOSCashDrawer@@@ATL@@WLE@AGKXZ 1000ac16 f i CashDrawer.obj
 0001:00009c30       ?AddRef@?$CComObject@V?$CComEnum@UIEnumConnectionPoints@@$1?_GUID_b196b285_bab4_101a_b69c_00aa00341d07@@3U__s_GUID@@BPAUIConnectionPoint@@V?$_CopyInterface@UIConnectionPoint@@@ATL@@VCComSingleThreadModel@6@@ATL@@@ATL@@UAGKXZ 1000ac30 f i CashDrawer.obj
 0001:00009c50       ?AddRef@?$CComObject@V?$CComEnum@UIEnumConnections@@$1?_GUID_b196b287_bab4_101a_b69c_00aa00341d07@@3U__s_GUID@@BUtagCONNECTDATA@@V?$_Copy@UtagCONNECTDATA@@@ATL@@VCComSingleThreadModel@6@@ATL@@@ATL@@UAGKXZ 1000ac50 f i CashDrawer.obj
 0001:00009c70       ?AddRef@?$CComObject@VCOPOSCashDrawer@@@ATL@@UAGKXZ 1000ac70 f i CashDrawer.obj
 0001:00009c8c       ?AddRef@?$CComObject@VCOPOSCashDrawer@@@ATL@@WHA@AGKXZ 1000ac8c f i CashDrawer.obj
 0001:00009c96       ?AddRef@?$CComObject@VCOPOSCashDrawer@@@ATL@@WHE@AGKXZ 1000ac96 f i CashDrawer.obj
 0001:00009ca0       ?AddRef@?$CComObject@VCOPOSCashDrawer@@@ATL@@WHI@AGKXZ 1000aca0 f i CashDrawer.obj
 0001:00009caa       ?AddRef@?$CComObject@VCOPOSCashDrawer@@@ATL@@WHM@AGKXZ 1000acaa f i CashDrawer.obj
 0001:00009cb4       ?AddRef@?$CComObject@VCOPOSCashDrawer@@@ATL@@WIA@AGKXZ 1000acb4 f i CashDrawer.obj
 0001:00009cc1       ?AddRef@?$CComObject@VCOPOSCashDrawer@@@ATL@@WIE@AGKXZ 1000acc1 f i CashDrawer.obj
 0001:00009cce       ?AddRef@?$CComObject@VCOPOSCashDrawer@@@ATL@@WII@AGKXZ 1000acce f i CashDrawer.obj
 0001:00009cdb       ?AddRef@?$CComObject@VCOPOSCashDrawer@@@ATL@@WIM@AGKXZ 1000acdb f i CashDrawer.obj
 0001:00009ce8       ?AddRef@?$CComObject@VCOPOSCashDrawer@@@ATL@@WJA@AGKXZ 1000ace8 f i CashDrawer.obj
 0001:00009cf5       ?AddRef@?$CComObject@VCOPOSCashDrawer@@@ATL@@WJE@AGKXZ 1000acf5 f i CashDrawer.obj
 0001:00009d02       ?AddRef@?$CComObject@VCOPOSCashDrawer@@@ATL@@WJI@AGKXZ 1000ad02 f i CashDrawer.obj
 0001:00009d0f       ?AddRef@?$CComObject@VCOPOSCashDrawer@@@ATL@@WJM@AGKXZ 1000ad0f f i CashDrawer.obj
 0001:00009d1c       ?AddRef@?$CComObject@VCOPOSCashDrawer@@@ATL@@WKA@AGKXZ 1000ad1c f i CashDrawer.obj
 0001:00009d29       ?AddRef@?$CComObject@VCOPOSCashDrawer@@@ATL@@WKI@AGKXZ 1000ad29 f i CashDrawer.obj
 0001:00009d36       ?AddRef@?$CComObject@VCOPOSCashDrawer@@@ATL@@WLE@AGKXZ 1000ad36 f i CashDrawer.obj
 0001:00009d50       ?AddRef@?$CComObjectCached@VCComClassFactory@ATL@@@ATL@@UAGKXZ 1000ad50 f i CashDrawer.obj
 0001:00009da0       ?AddRef@CRegObject@ATL@@UAGKXZ 1000ada0 f i CashDrawer.obj
 0001:00009df0       ?AddReplacement@CRegObject@ATL@@UAGJPB_W0@Z 1000adf0 f i CashDrawer.obj
 0001:00009f00       ?AddString@CParseBuffer@CRegParser@ATL@@QAEHPB_W@Z 1000af00 f i CashDrawer.obj
 0001:00009ff0       ?AddTermFunc@CAtlModule@ATL@@QAEJP6GXK@ZK@Z 1000aff0 f i CashDrawer.obj
 0001:0000a040       ?AddValue@CRegParser@ATL@@IAEJAAVCRegKey@2@PB_WPA_W@Z 1000b040 f i CashDrawer.obj
 0001:0000a7d0       ?Advise@?$CProxy_IOPOSEvents@VCOPOSCashDrawer@@@@UAGJPAUIUnknown@@PAK@Z 1000b7d0 f i CashDrawer.obj
 0001:0000a820       ?Advise@?$IConnectionPointImpl@VCOPOSCashDrawer@@$1?DIID__IOPOSCashDrawerEvents@@3U_GUID@@BVCComDynamicUnkArray@ATL@@@ATL@@UAGJPAUIUnknown@@PAK@Z 1000b820 f i CashDrawer.obj
 0001:0000a9c0       ?Advise@?$IConnectionPointImpl@VCOPOSCashDrawer@@$1?IID_IPropertyNotifySink@@3U_GUID@@BVCComDynamicUnkArray@ATL@@@ATL@@UAGJPAUIUnknown@@PAK@Z 1000b9c0 f i CashDrawer.obj
 0001:0000ab60       ?Advise@?$IOleObjectImpl@VCOPOSCashDrawer@@@ATL@@UAGJPAUIAdviseSink@@PAK@Z 1000bb60 f i CashDrawer.obj
 0001:0000abf0       ?Allocate@?$CAtlSafeAllocBufferManager@VCCRTAllocator@ATL@@@_ATL_SAFE_ALLOCA_IMPL@ATL@@QAEPAXK@Z 1000bbf0 f i CashDrawer.obj
 0001:0000ac60       ?Allocate@?$CTempBuffer@E$0BAA@VCCRTAllocator@ATL@@@ATL@@QAEPAEI@Z 1000bc60 f i CashDrawer.obj
 0001:0000aca0       ?Allocate@?$CTempBuffer@_W$0BAA@VCCRTAllocator@ATL@@@ATL@@QAEPA_WI@Z 1000bca0 f i CashDrawer.obj
 0001:0000ace0       ?Allocate@?$CTempBuffer@_W$0EAA@VCCRTAllocator@ATL@@@ATL@@QAEPA_WI@Z 1000bce0 f i CashDrawer.obj
 0001:0000ad20       ?AllocateBytes@?$CTempBuffer@E$0BAA@VCCRTAllocator@ATL@@@ATL@@QAEPAEI@Z 1000bd20 f i CashDrawer.obj
 0001:0000ada0       ?AllocateBytes@?$CTempBuffer@_W$0BAA@VCCRTAllocator@ATL@@@ATL@@QAEPA_WI@Z 1000bda0 f i CashDrawer.obj
 0001:0000ae20       ?AllocateBytes@?$CTempBuffer@_W$0EAA@VCCRTAllocator@ATL@@@ATL@@QAEPA_WI@Z 1000be20 f i CashDrawer.obj
 0001:0000aea0       ?AllocateHeap@?$CTempBuffer@E$0BAA@VCCRTAllocator@ATL@@@ATL@@AAEXI@Z 1000bea0 f i CashDrawer.obj
 0001:0000aef0       ?AllocateHeap@?$CTempBuffer@_W$0BAA@VCCRTAllocator@ATL@@@ATL@@AAEXI@Z 1000bef0 f i CashDrawer.obj
 0001:0000af40       ?AllocateHeap@?$CTempBuffer@_W$0EAA@VCCRTAllocator@ATL@@@ATL@@AAEXI@Z 1000bf40 f i CashDrawer.obj
 0001:0000af90       ?Append@CParseBuffer@CRegParser@ATL@@QAEHPB_WH@Z 1000bf90 f i CashDrawer.obj
 0001:0000b130       ?AtlCallTermFunc@ATL@@YGXPAU_ATL_MODULE70@1@@Z 1000c130 f i CashDrawer.obj
 0001:0000b1d0       ?AtlCoTaskMemCAlloc@ATL@@YAPAXKK@Z 1000c1d0 f i CashDrawer.obj
 0001:0000b260       ?AtlCoTaskMemRecalloc@ATL@@YAPAXPAXKK@Z 1000c260 f i CashDrawer.obj
 0001:0000b300       ?AtlComModuleGetClassObject@ATL@@YGJPAU_ATL_COM_MODULE70@1@ABU_GUID@@1PAPAX@Z 1000c300 f i CashDrawer.obj
 0001:0000b590       ?AtlComModuleRegisterServer@ATL@@YGJPAU_ATL_COM_MODULE70@1@HPBU_GUID@@@Z 1000c590 f i CashDrawer.obj
 0001:0000b720       ?AtlComModuleUnregisterServer@ATL@@YGJPAU_ATL_COM_MODULE70@1@HPBU_GUID@@@Z 1000c720 f i CashDrawer.obj
 0001:0000b850       ?AtlComQIPtrAssign2@ATL@@YAXPAPAUIUnknown@@PAU2@ABU_GUID@@@Z 1000c850 f i CashDrawer.obj
 0001:0000b8d0       ?AtlCreateTargetDC@ATL@@YGPAUHDC__@@PAU2@PAUtagDVTARGETDEVICE@@@Z 1000c8d0 f i CashDrawer.obj
 0001:0000ba70       ?AtlCrtErrorCheck@ATL@@YAHH@Z 1000ca70 f i CashDrawer.obj
 0001:0000bb40       ?AtlGetPerUserRegistration@ATL@@YGJPA_N@Z 1000cb40 f i CashDrawer.obj
 0001:0000bb70       ?AtlHiMetricToPixel@ATL@@YGXPBUtagSIZE@@PAU2@@Z 1000cb70 f i CashDrawer.obj
 0001:0000bd40       ?AtlHresultFromLastError@ATL@@YAJXZ 1000cd40 f i CashDrawer.obj
 0001:0000bd80       ?AtlHresultFromWin32@ATL@@YAJK@Z 1000cd80 f i CashDrawer.obj
 0001:0000bda0       ?AtlIPersistStreamInit_Load@ATL@@YGJPAUIStream@@PBUATL_PROPMAP_ENTRY@1@PAXPAUIUnknown@@@Z 1000cda0 f i CashDrawer.obj
 0001:0000c200       ?AtlIPersistStreamInit_Save@ATL@@YGJPAUIStream@@HPBUATL_PROPMAP_ENTRY@1@PAXPAUIUnknown@@@Z 1000d200 f i CashDrawer.obj
 0001:0000c5e0       ?AtlInternalOleLoadFromStream@ATL@@YAJPAUIStream@@ABU_GUID@@PAPAXTClassesAllowedInStream@1@K@Z 1000d5e0 f i CashDrawer.obj
 0001:0000c880       ?AtlInternalQueryInterface@ATL@@YGJPAXPBU_ATL_INTMAP_ENTRY@1@ABU_GUID@@PAPAX@Z 1000d880 f i CashDrawer.obj
 0001:0000cab0       ?AtlLoadTypeLib@ATL@@YGJPAUHINSTANCE__@@PB_WPAPA_WPAPAUITypeLib@@@Z 1000dab0 f i CashDrawer.obj
 0001:0000cf10       ?AtlModuleAddTermFunc@ATL@@YGJPAU_ATL_MODULE70@1@P6GXK@ZK@Z 1000df10 f i CashDrawer.obj
 0001:0000d070       ?AtlRegisterClassCategoriesHelper@ATL@@YGJABU_GUID@@PBU_ATL_CATMAP_ENTRY@1@H@Z 1000e070 f i CashDrawer.obj
 0001:0000d750       ?AtlRegisterTypeLib@ATL@@YGJPAUHINSTANCE__@@PB_W@Z 1000e750 f i CashDrawer.obj
 0001:0000da90       ?AtlThrowImpl@ATL@@YGXJ@Z  1000ea90 f i CashDrawer.obj
 0001:0000db40       ?AtlUnRegisterTypeLib@ATL@@YGJPAUHINSTANCE__@@PB_W@Z 1000eb40 f i CashDrawer.obj
 0001:0000dd50       ?AtlWinModuleAddCreateWndData@ATL@@YGXPAU_ATL_WIN_MODULE70@1@PAU_AtlCreateWndData@1@PAX@Z 1000ed50 f i CashDrawer.obj
 0001:0000dec0       ?AtlWinModuleExtractCreateWndData@ATL@@YGPAXPAU_ATL_WIN_MODULE70@1@@Z 1000eec0 f i CashDrawer.obj
 0001:0000e040       ?AtlWinModuleRegisterClassExW@ATL@@YGGPAU_ATL_WIN_MODULE70@1@PBUtagWNDCLASSEXW@@@Z 1000f040 f i CashDrawer.obj
 0001:0000e110       ?AtlWinModuleRegisterWndClassInfoW@ATL@@YGGPAU_ATL_WIN_MODULE70@1@PAU_ATL_BASE_MODULE70@1@PAU_ATL_WNDCLASSINFOW@1@PAP6GJPAUHWND__@@IIJ@Z@Z 1000f110 f i CashDrawer.obj
 0001:0000e1a0       ?Attach@?$CAutoVectorPtr@_W@ATL@@QAEXPA_W@Z 1000f1a0 f i CashDrawer.obj
 0001:0000e200       ?Attach@CComBSTR@ATL@@QAEXPA_W@Z 1000f200 f i CashDrawer.obj
 0001:0000e250       ?Attach@CRegKey@ATL@@QAEXPAUHKEY__@@@Z 1000f250 f i CashDrawer.obj
 0001:0000e2c0       ?CanForceRemoveKey@CRegParser@ATL@@IAEHPB_W@Z 1000f2c0 f i CashDrawer.obj
 0001:0000e330       ?ChToByte@CRegParser@ATL@@KAE_W@Z 1000f330 f i CashDrawer.obj
 0001:0000e450       ?ChangeType@CComVariant@ATL@@QAEJGPBUtagVARIANT@@@Z 1000f450 f i CashDrawer.obj
 0001:0000e4b0       ?Cleanup@CComTypeInfoHolder@ATL@@SGXK@Z 1000f4b0 f i CashDrawer.obj
 0001:0000e580       ?Clear@CComVariant@ATL@@QAEJXZ 1000f580 f i CashDrawer.obj
 0001:0000e5c0       ?ClearReplacements@CExpansionVector@ATL@@QAEJXZ 1000f5c0 f i CashDrawer.obj
 0001:0000e650       ?ClearReplacements@CRegObject@ATL@@UAGJXZ 1000f650 f i CashDrawer.obj
 0001:0000e6a0       ?Clone@?$CComEnumImpl@UIEnumConnectionPoints@@$1?_GUID_b196b285_bab4_101a_b69c_00aa00341d07@@3U__s_GUID@@BPAUIConnectionPoint@@V?$_CopyInterface@UIConnectionPoint@@@ATL@@@ATL@@UAGJPAPAUIEnumConnectionPoints@@@Z 1000f6a0 f i CashDrawer.obj
 0001:0000e810       ?Clone@?$CComEnumImpl@UIEnumConnections@@$1?_GUID_b196b287_bab4_101a_b69c_00aa00341d07@@3U__s_GUID@@BUtagCONNECTDATA@@V?$_Copy@UtagCONNECTDATA@@@ATL@@@ATL@@UAGJPAPAUIEnumConnections@@@Z 1000f810 f i CashDrawer.obj
 0001:0000e980       ?Close@?$IOleObjectImpl@VCOPOSCashDrawer@@@ATL@@UAGJK@Z 1000f980 f i CashDrawer.obj
 0001:0000ea10       ?Close@CRegKey@ATL@@QAEJXZ 1000fa10 f i CashDrawer.obj
 0001:0000ea80       ?ContextSensitiveHelp@?$IOleInPlaceActiveObjectImpl@VCOPOSCashDrawer@@@ATL@@UAGJH@Z 1000fa80 f i CashDrawer.obj
 0001:0000eaf0       ?ContextSensitiveHelp@?$IOleInPlaceObjectWindowlessImpl@VCOPOSCashDrawer@@@ATL@@UAGJH@Z 1000faf0 f i CashDrawer.obj
 0001:0000eb60       ?ControlQueryInterface@?$CComControl@VCOPOSCashDrawer@@V?$CWindowImpl@VCOPOSCashDrawer@@VCWindow@ATL@@V?$CWinTraits@$0FGAAAAAA@$0A@@3@@ATL@@@ATL@@UAEJABU_GUID@@PAPAX@Z 1000fb60 f i CashDrawer.obj
 0001:0000ebe0       ?CreateControlWindow@?$CComControl@VCOPOSCashDrawer@@V?$CWindowImpl@VCOPOSCashDrawer@@VCWindow@ATL@@V?$CWinTraits@$0FGAAAAAA@$0A@@3@@ATL@@@ATL@@UAEPAUHWND__@@PAU3@AAUtagRECT@@@Z 1000fbe0 f i CashDrawer.obj
 0001:0000ec60       ?CreateInstance@?$CComCreator@V?$CComAggObject@VCOPOSCashDrawer@@@ATL@@@ATL@@SGJPAXABU_GUID@@PAPAX@Z 1000fc60 f i CashDrawer.obj
 0001:0000ede0       ?CreateInstance@?$CComCreator@V?$CComObject@VCOPOSCashDrawer@@@ATL@@@ATL@@SGJPAXABU_GUID@@PAPAX@Z 1000fde0 f i CashDrawer.obj
 0001:0000ef70       ?CreateInstance@?$CComObject@V?$CComEnum@UIEnumConnectionPoints@@$1?_GUID_b196b285_bab4_101a_b69c_00aa00341d07@@3U__s_GUID@@BPAUIConnectionPoint@@V?$_CopyInterface@UIConnectionPoint@@@ATL@@VCComSingleThreadModel@6@@ATL@@@ATL@@SGJPAPAV12@@Z 1000ff70 f i CashDrawer.obj
 0001:0000f0e0       ?CreateInstance@?$CComObject@V?$CComEnum@UIEnumConnections@@$1?_GUID_b196b287_bab4_101a_b69c_00aa00341d07@@3U__s_GUID@@BUtagCONNECTDATA@@V?$_Copy@UtagCONNECTDATA@@@ATL@@VCComSingleThreadModel@6@@ATL@@@ATL@@SGJPAPAV12@@Z 100100e0 f i CashDrawer.obj
 0001:0000f250       ?CreateInstance@CComClassFactory@ATL@@UAGJPAUIUnknown@@ABU_GUID@@PAPAX@Z 10010250 f i CashDrawer.obj
 0001:0000f340       ?DAdvise@?$IDataObjectImpl@VCOPOSCashDrawer@@@ATL@@UAGJPAUtagFORMATETC@@KPAUIAdviseSink@@PAK@Z 10010340 f i CashDrawer.obj
 0001:0000f440       ?DEVMODEOLE2T_EX@@YAPAU_devicemodeW@@PAU1@@Z 10010440 f i CashDrawer.obj
 0001:0000f450       ?DUnadvise@?$IDataObjectImpl@VCOPOSCashDrawer@@@ATL@@UAGJK@Z 10010450 f i CashDrawer.obj
 0001:0000f520       ?Decrement@CComMultiThreadModel@ATL@@SGKPAJ@Z 10010520 f i CashDrawer.obj
 0001:0000f540       ?Decrement@CComSingleThreadModel@ATL@@SGKPAJ@Z 10010540 f i CashDrawer.obj
 0001:0000f560       ?DefWindowProcW@?$CWindowImplBaseT@VCWindow@ATL@@V?$CWinTraits@$0FGAAAAAA@$0A@@2@@ATL@@QAEJIIJ@Z 10010560 f i CashDrawer.obj
 0001:0000f5b0       ?DefaultReflectionHandler@?$CWindowImplRoot@VCWindow@ATL@@@ATL@@SAHPAUHWND__@@IIJAAJ@Z 100105b0 f i CashDrawer.obj
 0001:0000f7a0       ?DeleteSubKey@CRegKey@ATL@@QAEJPB_W@Z 100107a0 f i CashDrawer.obj
 0001:0000f8b0       ?DeleteValue@CRegKey@ATL@@QAEJPB_W@Z 100108b0 f i CashDrawer.obj
 0001:0000f920       ?Detach@?$CAutoVectorPtr@_W@ATL@@QAEPA_WXZ 10010920 f i CashDrawer.obj
 0001:0000f950       ?Detach@?$CComPtrBase@UIPersistStream@@@ATL@@QAEPAUIPersistStream@@XZ 10010950 f i CashDrawer.obj
 0001:0000f980       ?Detach@?$CComPtrBase@UITypeInfo@@@ATL@@QAEPAUITypeInfo@@XZ 10010980 f i CashDrawer.obj
 0001:0000f9b0       ?Detach@?$CComPtrBase@UIUnknown@@@ATL@@QAEPAUIUnknown@@XZ 100109b0 f i CashDrawer.obj
 0001:0000f9e0       ?Detach@CComBSTR@ATL@@QAEPA_WXZ 100109e0 f i CashDrawer.obj
 0001:0000fa10       ?Detach@CParseBuffer@CRegParser@ATL@@QAEPA_WXZ 10010a10 f i CashDrawer.obj
 0001:0000fa60       ?Detach@CRegKey@ATL@@QAEPAUHKEY__@@XZ 10010a60 f i CashDrawer.obj
 0001:0000fab0       ?DoEvent@COPOSCashDrawer@@IAEXIIJ@Z 10010ab0 f i CashDrawer.obj
 0001:0000fbf0       ?DoVerb@?$IOleObjectImpl@VCOPOSCashDrawer@@@ATL@@UAGJJPAUtagMSG@@PAUIOleClientSite@@JPAUHWND__@@PBUtagRECT@@@Z 10010bf0 f i CashDrawer.obj
 0001:0000fe00       ?DoVerbDiscardUndo@?$IOleObjectImpl@VCOPOSCashDrawer@@@ATL@@QAEJPBUtagRECT@@PAUHWND__@@@Z 10010e00 f i CashDrawer.obj
 0001:0000fe70       ?DoVerbHide@?$IOleObjectImpl@VCOPOSCashDrawer@@@ATL@@QAEJPBUtagRECT@@PAUHWND__@@@Z 10010e70 f i CashDrawer.obj
 0001:0000ff20       ?DoVerbInPlaceActivate@?$IOleObjectImpl@VCOPOSCashDrawer@@@ATL@@QAEJPBUtagRECT@@PAUHWND__@@@Z 10010f20 f i CashDrawer.obj
 0001:0000ffc0       ?DoVerbOpen@?$IOleObjectImpl@VCOPOSCashDrawer@@@ATL@@QAEJPBUtagRECT@@PAUHWND__@@@Z 10010fc0 f i CashDrawer.obj
 0001:00010030       ?DoVerbPrimary@?$IOleObjectImpl@VCOPOSCashDrawer@@@ATL@@QAEJPBUtagRECT@@PAUHWND__@@@Z 10011030 f i CashDrawer.obj
 0001:00010140       ?DoVerbProperties@CComControlBase@ATL@@QAEJPBUtagRECT@@PAUHWND__@@@Z 10011140 f i CashDrawer.obj
 0001:00010460       ?DoVerbShow@?$IOleObjectImpl@VCOPOSCashDrawer@@@ATL@@QAEJPBUtagRECT@@PAUHWND__@@@Z 10011460 f i CashDrawer.obj
 0001:000104f0       ?DoVerbUIActivate@?$IOleObjectImpl@VCOPOSCashDrawer@@@ATL@@QAEJPBUtagRECT@@PAUHWND__@@@Z 100114f0 f i CashDrawer.obj
 0001:00010590       ?DoesVerbActivate@CComControlBase@ATL@@QAEHJ@Z 10011590 f i CashDrawer.obj
 0001:00010600       ?DoesVerbUIActivate@CComControlBase@ATL@@QAEHJ@Z 10011600 f i CashDrawer.obj
 0001:00010680       ?Draw@?$IViewObjectExImpl@VCOPOSCashDrawer@@@ATL@@UAGJKJPAXPAUtagDVTARGETDEVICE@@PAUHDC__@@2PBU_RECTL@@3P6GHK@ZK@Z 10011680 f i CashDrawer.obj
 0001:00010720       ?Empty@CComBSTR@ATL@@QAEXXZ 10011720 f i CashDrawer.obj
 0001:00010760       ?EnableModeless@?$IOleInPlaceActiveObjectImpl@VCOPOSCashDrawer@@@ATL@@UAGJH@Z 10011760 f i CashDrawer.obj
 0001:000107c0       ?EndOfVar@CRegParser@ATL@@IAEHXZ 100117c0 f i CashDrawer.obj
 0001:00010830       ?EnsureTI@CComTypeInfoHolder@ATL@@QAEJK@Z 10011830 f i CashDrawer.obj
 0001:00010890       ?EnumAdvise@?$IOleObjectImpl@VCOPOSCashDrawer@@@ATL@@UAGJPAPAUIEnumSTATDATA@@@Z 10011890 f i CashDrawer.obj
 0001:000109a0       ?EnumConnectionPoints@?$IConnectionPointContainerImpl@VCOPOSCashDrawer@@@ATL@@UAGJPAPAUIEnumConnectionPoints@@@Z 100119a0 f i CashDrawer.obj
 0001:00010dd0       ?EnumConnections@?$IConnectionPointImpl@VCOPOSCashDrawer@@$1?DIID__IOPOSCashDrawerEvents@@3U_GUID@@BVCComDynamicUnkArray@ATL@@@ATL@@UAGJPAPAUIEnumConnections@@@Z 10011dd0 f i CashDrawer.obj
 0001:00011020       ?EnumConnections@?$IConnectionPointImpl@VCOPOSCashDrawer@@$1?IID_IPropertyNotifySink@@3U_GUID@@BVCComDynamicUnkArray@ATL@@@ATL@@UAGJPAPAUIEnumConnections@@@Z 10012020 f i CashDrawer.obj
 0001:00011270       ?EnumDAdvise@?$IDataObjectImpl@VCOPOSCashDrawer@@@ATL@@UAGJPAPAUIEnumSTATDATA@@@Z 10012270 f i CashDrawer.obj
 0001:00011370       ?EnumFormatEtc@?$IDataObjectImpl@VCOPOSCashDrawer@@@ATL@@UAGJKPAPAUIEnumFORMATETC@@@Z 10012370 f i CashDrawer.obj
 0001:000113e0       ?EnumVerbs@?$IOleObjectImpl@VCOPOSCashDrawer@@@ATL@@UAGJPAPAUIEnumOLEVERB@@@Z 100123e0 f i CashDrawer.obj
 0001:00011490       ?EscapeSingleQuote@CAtlModule@ATL@@SAXPA_WIPB_W@Z 10012490 f i CashDrawer.obj
 0001:00011540       ?ExtractCreateWndData@CAtlWinModule@ATL@@QAEPAXXZ 10012540 f i CashDrawer.obj
 0001:00011570       ?FAccessAllowed@?$IObjectSafetyImpl@VCOPOSCashDrawer@@$02@ATL@@MAEHXZ 10012570 f i CashDrawer.obj
 0001:00011590       ?FinalConstruct@?$CComAggObject@VCOPOSCashDrawer@@@ATL@@QAEJXZ 10012590 f i CashDrawer.obj
 0001:000115d0       ?FinalConstruct@CComObjectRootBase@ATL@@QAEJXZ 100125d0 f i CashDrawer.obj
 0001:000115f0       ?FinalConstruct@CRegObject@ATL@@QAEJXZ 100125f0 f i CashDrawer.obj
 0001:00011620       ?FinalRelease@?$CComAggObject@VCOPOSCashDrawer@@@ATL@@QAEXXZ 10012620 f i CashDrawer.obj
 0001:00011660       ?FinalRelease@CComObjectRootBase@ATL@@QAEXXZ 10012660 f i CashDrawer.obj
 0001:00011680       ?FindConnectionPoint@?$IConnectionPointContainerImpl@VCOPOSCashDrawer@@@ATL@@UAGJABU_GUID@@PAPAUIConnectionPoint@@@Z 10012680 f i CashDrawer.obj
 0001:000117d0       ?FindKey@?$CSimpleMap@PA_WPA_WVCExpansionVectorEqualHelper@ATL@@@ATL@@QBEHABQA_W@Z 100127d0 f i CashDrawer.obj
 0001:00011840       ?FireTheEvent@?$CProxy_IOPOSEvents@VCOPOSCashDrawer@@@@IAEXPAUIUnknown@@PAVOposVariant@@IAAJPB_WJ@Z 10012840 f i CashDrawer.obj
 0001:000119b0       ?FireViewChange@CComControlBase@ATL@@QAEJXZ 100129b0 f i CashDrawer.obj
 0001:00011a70       ?Fire_DirectIOEvent@?$CProxy_IOPOSEvents@VCOPOSCashDrawer@@@@QAEXJPAJPAPA_W@Z 10012a70 f i CashDrawer.obj
 0001:00011c40       ?Fire_StatusUpdateEvent@?$CProxy_IOPOSEvents@VCOPOSCashDrawer@@@@QAEXJ@Z 10012c40 f i CashDrawer.obj
 0001:00011da0       ?FormatWindowClassName@AtlModuleRegisterWndClassInfoParamW@ATL@@SAXPA_WKPAX@Z 10012da0 f i CashDrawer.obj
 0001:00011dd0       ?Free@?$CAutoVectorPtr@_W@ATL@@QAEXXZ 10012dd0 f i CashDrawer.obj
 0001:00011e20       ?FreeHeap@?$CTempBuffer@E$0BAA@VCCRTAllocator@ATL@@@ATL@@AAEXXZ 10012e20 f i CashDrawer.obj
 0001:00011e50       ?FreeHeap@?$CTempBuffer@_W$0BAA@VCCRTAllocator@ATL@@@ATL@@AAEXXZ 10012e50 f i CashDrawer.obj
 0001:00011e80       ?FreeHeap@?$CTempBuffer@_W$0EAA@VCCRTAllocator@ATL@@@ATL@@AAEXXZ 10012e80 f i CashDrawer.obj
 0001:00011eb0       ?Freeze@?$IViewObjectExImpl@VCOPOSCashDrawer@@@ATL@@UAGJKJPAXPAK@Z 10012eb0 f i CashDrawer.obj
 0001:00011f20       ?GenerateError@CRegParser@ATL@@IAEJI@Z 10012f20 f i CashDrawer.obj
 0001:00011f40       ?GetAdvise@?$IViewObjectExImpl@VCOPOSCashDrawer@@@ATL@@UAGJPAK0PAPAUIAdviseSink@@@Z 10012f40 f i CashDrawer.obj
 0001:00012040       ?GetAmbientLocaleID@CComControlBase@ATL@@QAEJAAK@Z 10013040 f i CashDrawer.obj
 0001:00012120       ?GetAmbientProperty@CComControlBase@ATL@@QAEJJAAUtagVARIANT@@@Z 10013120 f i CashDrawer.obj
 0001:00012170       ?GetAmbientUserMode@CComControlBase@ATL@@QAEJAAH@Z 10013170 f i CashDrawer.obj
 0001:00012270       ?GetAppId@?$CAtlModuleT@VCComModule@ATL@@@ATL@@SAPB_WXZ 10013270 f i CashDrawer.obj
 0001:00012280       ?GetAt@CComDynamicUnkArray@ATL@@QAEPAUIUnknown@@H@Z 10013280 f i CashDrawer.obj
 0001:00012300       ?GetCanonicalFormatEtc@?$IDataObjectImpl@VCOPOSCashDrawer@@@ATL@@UAGJPAUtagFORMATETC@@0@Z 10013300 f i CashDrawer.obj
 0001:00012370       ?GetClassID@?$IPersistStorageImpl@VCOPOSCashDrawer@@@ATL@@UAGJPAU_GUID@@@Z 10013370 f i CashDrawer.obj
 0001:000123f0       ?GetClassID@?$IPersistStreamInitImpl@VCOPOSCashDrawer@@@ATL@@UAGJPAU_GUID@@@Z 100133f0 f i CashDrawer.obj
 0001:00012470       ?GetClassInfoExW@AtlModuleRegisterWndClassInfoParamW@ATL@@SAHPAUHINSTANCE__@@PB_WPAUtagWNDCLASSEXW@@@Z 10013470 f i CashDrawer.obj
 0001:000124a0       ?GetClassInfoW@?$IProvideClassInfo2Impl@$1?CLSID_OPOSCashDrawer@@3U_GUID@@B$1?DIID__IOPOSCashDrawerEvents@@3U2@B$1?LIBID_OposCashDrawer_CCO@@3U2@B$00$0A@VCComTypeInfoHolder@ATL@@@ATL@@UAGJPAPAUITypeInfo@@@Z 100134a0 f i CashDrawer.obj
 0001:000124c0       ?GetClassObject@CComModule@ATL@@QAEJABU_GUID@@0PAPAX@Z 100134c0 f i CashDrawer.obj
 0001:000126c0       ?GetClientSite@?$IOleObjectImpl@VCOPOSCashDrawer@@@ATL@@UAGJPAPAUIOleClientSite@@@Z 100136c0 f i CashDrawer.obj
 0001:00012750       ?GetClipboardData@?$IOleObjectImpl@VCOPOSCashDrawer@@@ATL@@UAGJKPAPAUIDataObject@@@Z 10013750 f i CashDrawer.obj
 0001:000127c0       ?GetCodeAddress@CDynamicStdCallThunk2@ATL@@QAEPAXXZ 100137c0 f i CashDrawer.obj
 0001:000127f0       ?GetColorSet@?$IViewObjectExImpl@VCOPOSCashDrawer@@@ATL@@UAGJKJPAXPAUtagDVTARGETDEVICE@@PAUHDC__@@PAPAUtagLOGPALETTE@@@Z 100137f0 f i CashDrawer.obj
 0001:00012860       ?GetConnMap@COPOSCashDrawer@@SAPBU_ATL_CONNMAP_ENTRY@ATL@@PAH@Z 10013860 f i CashDrawer.obj
 0001:000129a0       ?GetConnectionInterface@?$IConnectionPointImpl@VCOPOSCashDrawer@@$1?DIID__IOPOSCashDrawerEvents@@3U_GUID@@BVCComDynamicUnkArray@ATL@@@ATL@@UAGJPAU_GUID@@@Z 100139a0 f i CashDrawer.obj
 0001:000129e0       ?GetConnectionInterface@?$IConnectionPointImpl@VCOPOSCashDrawer@@$1?IID_IPropertyNotifySink@@3U_GUID@@BVCComDynamicUnkArray@ATL@@@ATL@@UAGJPAU_GUID@@@Z 100139e0 f i CashDrawer.obj
 0001:00012a20       ?GetConnectionPointContainer@?$IConnectionPointImpl@VCOPOSCashDrawer@@$1?DIID__IOPOSCashDrawerEvents@@3U_GUID@@BVCComDynamicUnkArray@ATL@@@ATL@@UAGJPAPAUIConnectionPointContainer@@@Z 10013a20 f i CashDrawer.obj
 0001:00012a90       ?GetConnectionPointContainer@?$IConnectionPointImpl@VCOPOSCashDrawer@@$1?IID_IPropertyNotifySink@@3U_GUID@@BVCComDynamicUnkArray@ATL@@@ATL@@UAGJPAPAUIConnectionPointContainer@@@Z 10013a90 f i CashDrawer.obj
 0001:00012b00       ?GetContentExtent@?$IQuickActivateImpl@VCOPOSCashDrawer@@@ATL@@UAGJPAUtagSIZE@@@Z 10013b00 f i CashDrawer.obj
 0001:00012b90       ?GetControlInfo@?$IOleControlImpl@VCOPOSCashDrawer@@@ATL@@UAGJPAUtagCONTROLINFO@@@Z 10013b90 f i CashDrawer.obj
 0001:00012c00       ?GetCookie@CComDynamicUnkArray@ATL@@QAGKPAPAUIUnknown@@@Z 10013c00 f i CashDrawer.obj
 0001:00012cc0       ?GetData@?$IDataObjectImpl@VCOPOSCashDrawer@@@ATL@@UAGJPAUtagFORMATETC@@PAUtagSTGMEDIUM@@@Z 10013cc0 f i CashDrawer.obj
 0001:00012d50       ?GetData@CAtlSafeAllocBufferNode@?$CAtlSafeAllocBufferManager@VCCRTAllocator@ATL@@@_ATL_SAFE_ALLOCA_IMPL@ATL@@QAEPAXXZ 10013d50 f i CashDrawer.obj
 0001:00012d70       ?GetDataHere@?$IDataObjectImpl@VCOPOSCashDrawer@@@ATL@@UAGJPAUtagFORMATETC@@PAUtagSTGMEDIUM@@@Z 10013d70 f i CashDrawer.obj
 0001:00012de0       ?GetDropTarget@?$IOleInPlaceObjectWindowlessImpl@VCOPOSCashDrawer@@@ATL@@UAGJPAPAUIDropTarget@@@Z 10013de0 f i CashDrawer.obj
 0001:00012e50       ?GetExtent@?$IOleObjectImpl@VCOPOSCashDrawer@@@ATL@@UAGJKPAUtagSIZE@@@Z 10013e50 f i CashDrawer.obj
 0001:00012ef0       ?GetExtent@?$IViewObjectExImpl@VCOPOSCashDrawer@@@ATL@@UAGJKJPAUtagDVTARGETDEVICE@@PAUtagSIZE@@@Z 10013ef0 f i CashDrawer.obj
 0001:00012fc0       ?GetGITPtr@CAtlModule@ATL@@UAEJPAPAUIGlobalInterfaceTable@@@Z 10013fc0 f i CashDrawer.obj
 0001:000130c0       ?GetGUID@?$IProvideClassInfo2Impl@$1?CLSID_OPOSCashDrawer@@3U_GUID@@B$1?DIID__IOPOSCashDrawerEvents@@3U2@B$1?LIBID_OposCashDrawer_CCO@@3U2@B$00$0A@VCComTypeInfoHolder@ATL@@@ATL@@UAGJKPAU_GUID@@@Z 100140c0 f i CashDrawer.obj
 0001:00013140       ?GetIDsOfNames@?$IDispatchImpl@UIOPOSCashDrawer@@$1?IID_IOPOSCashDrawer@@3U_GUID@@B$1?LIBID_OposCashDrawer_CCO@@3U3@B$00$0A@VCComTypeInfoHolder@ATL@@@ATL@@UAGJABU_GUID@@PAPA_WIKPAJ@Z 10014140 f i CashDrawer.obj
 0001:00013170       ?GetIDsOfNames@CComTypeInfoHolder@ATL@@QAEJABU_GUID@@PAPA_WIKPAJ@Z 10014170 f i CashDrawer.obj
 0001:00013320       ?GetInterfaceSafetyOptions@?$IObjectSafetyImpl@VCOPOSCashDrawer@@$02@ATL@@UAGJABU_GUID@@PAK1@Z 10014320 f i CashDrawer.obj
 0001:00013490       ?GetKeyAt@?$CSimpleMap@PA_WPA_WVCExpansionVectorEqualHelper@ATL@@@ATL@@QBEAAPA_WH@Z 10014490 f i CashDrawer.obj
 0001:00013510       ?GetLockCount@CAtlModule@ATL@@UAEJXZ 10014510 f i CashDrawer.obj
 0001:00013530       ?GetMiscStatus@?$IOleObjectImpl@VCOPOSCashDrawer@@@ATL@@UAGJKPAK@Z 10014530 f i CashDrawer.obj
 0001:000135a0       ?GetMoniker@?$IOleObjectImpl@VCOPOSCashDrawer@@@ATL@@UAGJKKPAPAUIMoniker@@@Z 100145a0 f i CashDrawer.obj
 0001:00013610       ?GetNaturalExtent@?$IViewObjectExImpl@VCOPOSCashDrawer@@@ATL@@UAGJKJPAUtagDVTARGETDEVICE@@PAUHDC__@@PAUtagExtentInfo@@PAUtagSIZE@@@Z 10014610 f i CashDrawer.obj
 0001:00013730       ?GetObjectCLSID@?$CComCoClass@VCOPOSCashDrawer@@$1?CLSID_OPOSCashDrawer@@3U_GUID@@B@ATL@@SGABU_GUID@@XZ 10014730 f i CashDrawer.obj
 0001:00013740       ?GetPages@?$ISpecifyPropertyPagesImpl@VCOPOSCashDrawer@@@ATL@@UAGJPAUtagCAUUID@@@Z 10014740 f i CashDrawer.obj
 0001:000137b0       ?GetPagesHelper@?$ISpecifyPropertyPagesImpl@VCOPOSCashDrawer@@@ATL@@IAEJPAUtagCAUUID@@PBUATL_PROPMAP_ENTRY@2@@Z 100147b0 f i CashDrawer.obj
 0001:000139b0       ?GetProperty@?$CComPtr@UIDispatch@@@ATL@@QAEJJPAUtagVARIANT@@@Z 100149b0 f i CashDrawer.obj
 0001:000139f0       ?GetProperty@?$CComPtr@UIDispatch@@@ATL@@SAJPAUIDispatch@@JPAUtagVARIANT@@@Z 100149f0 f i CashDrawer.obj
 0001:00013b50       ?GetPropertyMap@COPOSCashDrawer@@SAPBUATL_PROPMAP_ENTRY@ATL@@XZ 10014b50 f i CashDrawer.obj
 0001:00013b60       ?GetRect@?$IViewObjectExImpl@VCOPOSCashDrawer@@@ATL@@UAGJKPAU_RECTL@@@Z 10014b60 f i CashDrawer.obj
 0001:00013bd0       ?GetSize@?$CSimpleMap@PA_WPA_WVCExpansionVectorEqualHelper@ATL@@@ATL@@QBEHXZ 10014bd0 f i CashDrawer.obj
 0001:00013bf0       ?GetSize@CComDynamicUnkArray@ATL@@QBEHXZ 10014bf0 f i CashDrawer.obj
 0001:00013c10       ?GetSizeMax@?$IPersistStreamInitImpl@VCOPOSCashDrawer@@@ATL@@UAGJPAT_ULARGE_INTEGER@@@Z 10014c10 f i CashDrawer.obj
 0001:00014180       ?GetSizeMax@CComVariant@ATL@@QBEJPAT_ULARGE_INTEGER@@@Z 10015180 f i CashDrawer.obj
 0001:000144e0       ?GetStreamSize@CComBSTR@ATL@@SAKPA_W@Z 100154e0 f i CashDrawer.obj
 0001:00014530       ?GetTI@CComTypeInfoHolder@ATL@@QAEJK@Z 10015530 f i CashDrawer.obj
 0001:00014d40       ?GetTI@CComTypeInfoHolder@ATL@@QAEJKPAPAUITypeInfo@@@Z 10015d40 f i CashDrawer.obj
 0001:00014e00       ?GetTypeInfo@?$IDispatchImpl@UIOPOSCashDrawer@@$1?IID_IOPOSCashDrawer@@3U_GUID@@B$1?LIBID_OposCashDrawer_CCO@@3U3@B$00$0A@VCComTypeInfoHolder@ATL@@@ATL@@UAGJIKPAPAUITypeInfo@@@Z 10015e00 f i CashDrawer.obj
 0001:00014e30       ?GetTypeInfo@CComTypeInfoHolder@ATL@@QAEJIKPAPAUITypeInfo@@@Z 10015e30 f i CashDrawer.obj
 0001:00014e70       ?GetTypeInfoCount@?$IDispatchImpl@UIOPOSCashDrawer@@$1?IID_IOPOSCashDrawer@@3U_GUID@@B$1?LIBID_OposCashDrawer_CCO@@3U3@B$00$0A@VCComTypeInfoHolder@ATL@@@ATL@@UAGJPAI@Z 10015e70 f i CashDrawer.obj
 0001:00014e90       ?GetUnknown@CComDynamicUnkArray@ATL@@QAGPAUIUnknown@@K@Z 10015e90 f i CashDrawer.obj
 0001:00014f00       ?GetUnknown@COPOSCashDrawer@@QAEPAUIUnknown@@XZ 10015f00 f i CashDrawer.obj
 0001:00014f30       ?GetUserClassID@?$IOleObjectImpl@VCOPOSCashDrawer@@@ATL@@UAGJPAU_GUID@@@Z 10015f30 f i CashDrawer.obj
 0001:00014fe0       ?GetUserType@?$IOleObjectImpl@VCOPOSCashDrawer@@@ATL@@UAGJKPAPA_W@Z 10015fe0 f i CashDrawer.obj
 0001:00015050       ?GetValueAt@?$CSimpleMap@PA_WPA_WVCExpansionVectorEqualHelper@ATL@@@ATL@@QBEAAPA_WH@Z 10016050 f i CashDrawer.obj
 0001:000150d0       ?GetViewStatus@?$IViewObjectExImpl@VCOPOSCashDrawer@@@ATL@@UAGJPAK@Z 100160d0 f i CashDrawer.obj
 0001:00015190       ?GetWNDPROC@CWndProcThunk@ATL@@QAEP6GJPAUHWND__@@IIJ@ZXZ 10016190 f i CashDrawer.obj
 0001:000151c0       ?GetWindow@?$IOleInPlaceActiveObjectImpl@VCOPOSCashDrawer@@@ATL@@UAGJPAPAUHWND__@@@Z 100161c0 f i CashDrawer.obj
 0001:00015290       ?GetWindow@?$IOleInPlaceObjectWindowlessImpl@VCOPOSCashDrawer@@@ATL@@UAGJPAPAUHWND__@@@Z 10016290 f i CashDrawer.obj
 0001:00015360       ?GetWindowLongPtrW@@YAJPAUHWND__@@H@Z 10016360 f i CashDrawer.obj
 0001:00015390       ?GetWindowProc@?$CWindowImplBaseT@VCWindow@ATL@@V?$CWinTraits@$0FGAAAAAA@$0A@@2@@ATL@@UAEP6GJPAUHWND__@@IIJ@ZXZ 10016390 f i CashDrawer.obj
 0001:000153b0       ?GetWndCaption@?$CWindowImpl@VCOPOSCashDrawer@@VCWindow@ATL@@V?$CWinTraits@$0FGAAAAAA@$0A@@3@@ATL@@SAPB_WXZ 100163b0 f i CashDrawer.obj
 0001:000153c0       ?GetWndClassInfo@?$CWindowImpl@VCOPOSCashDrawer@@VCWindow@ATL@@V?$CWinTraits@$0FGAAAAAA@$0A@@3@@ATL@@SAAAU_ATL_WNDCLASSINFOW@2@XZ 100163c0 f i CashDrawer.obj
 0001:000153d0       ?GetWndClassName@CWindow@ATL@@SAPB_WXZ 100163d0 f i CashDrawer.obj
 0001:000153e0       ?GetWndExStyle@?$CWinTraits@$0FGAAAAAA@$0A@@ATL@@SAKK@Z 100163e0 f i CashDrawer.obj
 0001:00015410       ?GetWndExStyle@?$CWindowImplBaseT@VCWindow@ATL@@V?$CWinTraits@$0FGAAAAAA@$0A@@2@@ATL@@SAKK@Z 10016410 f i CashDrawer.obj
 0001:00015430       ?GetWndStyle@?$CWinTraits@$0FGAAAAAA@$0A@@ATL@@SAKK@Z 10016430 f i CashDrawer.obj
 0001:00015460       ?GetWndStyle@?$CWindowImplBaseT@VCWindow@ATL@@V?$CWinTraits@$0FGAAAAAA@$0A@@2@@ATL@@SAKK@Z 10016460 f i CashDrawer.obj
 0001:00015480       ?GetZoomInfo@CComControlBase@ATL@@QAEXAAUATL_DRAWINFO@@@Z 10016480 f i CashDrawer.obj
 0001:000155f0       ?HKeyFromString@CRegParser@ATL@@KAPAUHKEY__@@PA_W@Z 100165f0 f i CashDrawer.obj
 0001:00015660       ?HandsOffStorage@?$IPersistStorageImpl@VCOPOSCashDrawer@@@ATL@@UAGJXZ 10016660 f i CashDrawer.obj
 0001:000156c0       ?HasSubKeys@CRegParser@ATL@@IAEHPAUHKEY__@@@Z 100166c0 f i CashDrawer.obj
 0001:000157d0       ?IDataObject_GetData@CComControlBase@ATL@@QAEJPAUtagFORMATETC@@PAUtagSTGMEDIUM@@@Z 100167d0 f i CashDrawer.obj
 0001:00015bf0       ?IOleInPlaceObject_InPlaceDeactivate@CComControlBase@ATL@@QAEJXZ 10016bf0 f i CashDrawer.obj
 0001:00015df0       ?IOleInPlaceObject_SetObjectRects@CComControlBase@ATL@@QAEJPBUtagRECT@@0@Z 10016df0 f i CashDrawer.obj
 0001:00015fb0       ?IOleInPlaceObject_UIDeactivate@CComControlBase@ATL@@QAEJXZ 10016fb0 f i CashDrawer.obj
 0001:00016220       ?IOleObject_Advise@CComControlBase@ATL@@QAEJPAUIAdviseSink@@PAK@Z 10017220 f i CashDrawer.obj
 0001:000162d0       ?IOleObject_Close@CComControlBase@ATL@@QAEJK@Z 100172d0 f i CashDrawer.obj
 0001:00016580       ?IOleObject_GetClientSite@CComControlBase@ATL@@QAEJPAPAUIOleClientSite@@@Z 10017580 f i CashDrawer.obj
 0001:00016620       ?IOleObject_SetClientSite@CComControlBase@ATL@@QAEJPAUIOleClientSite@@@Z 10017620 f i CashDrawer.obj
 0001:000166f0       ?IOleObject_SetExtent@CComControlBase@ATL@@QAEJKPAUtagSIZE@@@Z 100176f0 f i CashDrawer.obj
 0001:00016830       ?IPSI_GetIPersistStreamInit@?$IPersistStorageImpl@VCOPOSCashDrawer@@@ATL@@AAEPAUIPersistStreamInit@@XZ 10017830 f i CashDrawer.obj
 0001:00016900       ?IPersistStreamInit_Load@?$IPersistStreamInitImpl@VCOPOSCashDrawer@@@ATL@@QAEJPAUIStream@@PBUATL_PROPMAP_ENTRY@2@@Z 10017900 f i CashDrawer.obj
 0001:00016980       ?IPersistStreamInit_Save@?$IPersistStreamInitImpl@VCOPOSCashDrawer@@@ATL@@QAEJPAUIStream@@HPBUATL_PROPMAP_ENTRY@2@@Z 10017980 f i CashDrawer.obj
 0001:00016a10       ?IQuickActivate_QuickActivate@CComControlBase@ATL@@QAEJPAUtagQACONTAINER@@PAUtagQACONTROL@@@Z 10017a10 f i CashDrawer.obj
 0001:00017060       ?IViewObject_Draw@CComControlBase@ATL@@QAEJKJPAXPAUtagDVTARGETDEVICE@@PAUHDC__@@2PBU_RECTL@@3@Z 10018060 f i CashDrawer.obj
 0001:00017300       ?InPlaceActivate@CComControlBase@ATL@@QAEJJPBUtagRECT@@@Z 10018300 f i CashDrawer.obj
 0001:00017c90       ?InPlaceDeactivate@?$IOleInPlaceObjectWindowlessImpl@VCOPOSCashDrawer@@@ATL@@UAGJXZ 10018c90 f i CashDrawer.obj
 0001:00017d10       ?Increment@CComMultiThreadModel@ATL@@SGKPAJ@Z 10018d10 f i CashDrawer.obj
 0001:00017d30       ?Increment@CComSingleThreadModel@ATL@@SGKPAJ@Z 10018d30 f i CashDrawer.obj
 0001:00017d50       ?Init@?$CComEnumImpl@UIEnumConnectionPoints@@$1?_GUID_b196b285_bab4_101a_b69c_00aa00341d07@@3U__s_GUID@@BPAUIConnectionPoint@@V?$_CopyInterface@UIConnectionPoint@@@ATL@@@ATL@@QAEJPAPAUIConnectionPoint@@0PAUIUnknown@@W4CComEnumFlags@2@@Z 10018d50 f i CashDrawer.obj
 0001:00017f30       ?Init@?$CComEnumImpl@UIEnumConnections@@$1?_GUID_b196b287_bab4_101a_b69c_00aa00341d07@@3U__s_GUID@@BUtagCONNECTDATA@@V?$_Copy@UtagCONNECTDATA@@@ATL@@@ATL@@QAEJPAUtagCONNECTDATA@@0PAUIUnknown@@W4CComEnumFlags@2@@Z 10018f30 f i CashDrawer.obj
 0001:00018110       ?Init@CComFakeCriticalSection@ATL@@QAEJXZ 10019110 f i CashDrawer.obj
 0001:00018130       ?Init@CComModule@ATL@@QAEJPAU_ATL_OBJMAP_ENTRY30@2@PAUHINSTANCE__@@PBU_GUID@@@Z 10019130 f i CashDrawer.obj
 0001:00018220       ?Init@CComSafeDeleteCriticalSection@ATL@@QAEJXZ 10019220 f i CashDrawer.obj
 0001:000182a0       ?Init@CDynamicStdCallThunk2@ATL@@QAEHKPAX@Z 100192a0 f i CashDrawer.obj
 0001:00018300       ?Init@CWndProcThunk@ATL@@QAEHP6GJPAUHWND__@@IIJ@ZPAX@Z 10019300 f i CashDrawer.obj
 0001:00018340       ?InitFromData@?$IOleObjectImpl@VCOPOSCashDrawer@@@ATL@@UAGJPAUIDataObject@@HK@Z 10019340 f i CashDrawer.obj
 0001:000183b0       ?InitLibId@?$CAtlModuleT@VCComModule@ATL@@@ATL@@SAXXZ 100193b0 f i CashDrawer.obj
 0001:000183c0       ?InitNew@?$IPersistStorageImpl@VCOPOSCashDrawer@@@ATL@@UAGJPAUIStorage@@@Z 100193c0 f i CashDrawer.obj
 0001:000184b0       ?InitNew@?$IPersistStreamInitImpl@VCOPOSCashDrawer@@@ATL@@UAGJXZ 100194b0 f i CashDrawer.obj
 0001:00018540       ?InlineIsEqualUnknown@ATL@@YGHABU_GUID@@@Z 10019540 f i CashDrawer.obj
 0001:000185b0       ?InternalAddRef@?$CComObjectRootEx@VCComMultiThreadModel@ATL@@@ATL@@QAEKXZ 100195b0 f i CashDrawer.obj
 0001:00018610       ?InternalAddRef@?$CComObjectRootEx@VCComSingleThreadModel@ATL@@@ATL@@QAEKXZ 10019610 f i CashDrawer.obj
 0001:00018670       ?InternalFinalConstructAddRef@CComObjectRootBase@ATL@@QAEXXZ 10019670 f i CashDrawer.obj
 0001:00018690       ?InternalFinalConstructAddRef@COPOSCashDrawer@@QAEXXZ 10019690 f i CashDrawer.obj
 0001:000186c0       ?InternalFinalConstructRelease@CComObjectRootBase@ATL@@QAEXXZ 100196c0 f i CashDrawer.obj
 0001:00018710       ?InternalFinalConstructRelease@COPOSCashDrawer@@QAEXXZ 10019710 f i CashDrawer.obj
 0001:00018740       ?InternalGetSite@CComControlBase@ATL@@QAEJABU_GUID@@PAPAX@Z 10019740 f i CashDrawer.obj
 0001:00018800       ?InternalQueryInterface@CComObjectRootBase@ATL@@SGJPAXPBU_ATL_INTMAP_ENTRY@2@ABU_GUID@@PAPAX@Z 10019800 f i CashDrawer.obj
 0001:000188c0       ?InternalRelease@?$CComObjectRootEx@VCComMultiThreadModel@ATL@@@ATL@@QAEKXZ 100198c0 f i CashDrawer.obj
 0001:00018930       ?InternalRelease@?$CComObjectRootEx@VCComSingleThreadModel@ATL@@@ATL@@QAEKXZ 10019930 f i CashDrawer.obj
 0001:000189a0       ?InternalSetAtIndex@?$CSimpleArray@GV?$CSimpleArrayEqualHelper@G@ATL@@@ATL@@QAEXHABG@Z 100199a0 f i CashDrawer.obj
 0001:00018a10       ?InternalSetAtIndex@?$CSimpleMap@PA_WPA_WVCExpansionVectorEqualHelper@ATL@@@ATL@@QAEXHABQA_W0@Z 10019a10 f i CashDrawer.obj
 0001:00018ab0       ?Invoke@?$IDispatchImpl@UIOPOSCashDrawer@@$1?IID_IOPOSCashDrawer@@3U_GUID@@B$1?LIBID_OposCashDrawer_CCO@@3U3@B$00$0A@VCComTypeInfoHolder@ATL@@@ATL@@UAGJJABU_GUID@@KGPAUtagDISPPARAMS@@PAUtagVARIANT@@PAUtagEXCEPINFO@@PAI@Z 10019ab0 f i CashDrawer.obj
 0001:00018af0       ?Invoke@CComTypeInfoHolder@ATL@@QAEJPAUIDispatch@@JABU_GUID@@KGPAUtagDISPPARAMS@@PAUtagVARIANT@@PAUtagEXCEPINFO@@PAI@Z 10019af0 f i CashDrawer.obj
 0001:00018b80       ?IsDirty@?$IPersistStorageImpl@VCOPOSCashDrawer@@@ATL@@UAGJXZ 10019b80 f i CashDrawer.obj
 0001:00018c70       ?IsDirty@?$IPersistStreamInitImpl@VCOPOSCashDrawer@@@ATL@@UAGJXZ 10019c70 f i CashDrawer.obj
 0001:00018d10       ?IsEqualKey@CExpansionVectorEqualHelper@ATL@@SA_NQA_W0@Z 10019d10 f i CashDrawer.obj
 0001:00018d40       ?IsEqualObject@?$CComPtrBase@UIOleClientSite@@@ATL@@QAE_NPAUIUnknown@@@Z 10019d40 f i CashDrawer.obj
 0001:00018e70       ?IsEqualObject@?$CComPtrBase@UITypeInfo@@@ATL@@QAE_NPAUIUnknown@@@Z 10019e70 f i CashDrawer.obj
 0001:00018fa0       ?IsSpace@CRegParser@ATL@@IAEH_W@Z 10019fa0 f i CashDrawer.obj
 0001:00019010       ?IsUpToDate@?$IOleObjectImpl@VCOPOSCashDrawer@@@ATL@@UAGJXZ 1001a010 f i CashDrawer.obj
 0001:00019070       ?Length@CComBSTR@ATL@@QBEIXZ 1001a070 f i CashDrawer.obj
 0001:000190b0       ?Load@?$IPersistStorageImpl@VCOPOSCashDrawer@@@ATL@@UAGJPAUIStorage@@@Z 1001a0b0 f i CashDrawer.obj
 0001:00019210       ?Load@?$IPersistStreamInitImpl@VCOPOSCashDrawer@@@ATL@@UAGJPAUIStream@@@Z 1001a210 f i CashDrawer.obj
 0001:000192a0       ?LoadCursorW@AtlModuleRegisterWndClassInfoParamW@ATL@@SAPAUHICON__@@PAUHINSTANCE__@@PB_W@Z 1001a2a0 f i CashDrawer.obj
 0001:000192d0       ?LoadNameCache@CComTypeInfoHolder@ATL@@QAEJPAUITypeInfo@@@Z 1001a2d0 f i CashDrawer.obj
 0001:00019560       ?Lock@?$CComCritSecLock@VCComCriticalSection@ATL@@@ATL@@QAEJXZ 1001a560 f i CashDrawer.obj
 0001:00019610       ?Lock@?$CComObjectRootEx@VCComSingleThreadModel@ATL@@@ATL@@QAEXXZ 1001a610 f i CashDrawer.obj
 0001:00019630       ?Lock@CAtlModule@ATL@@UAEJXZ 1001a630 f i CashDrawer.obj
 0001:00019660       ?Lock@CComCriticalSection@ATL@@QAEJXZ 1001a660 f i CashDrawer.obj
 0001:000196a0       ?Lock@CComFakeCriticalSection@ATL@@QAEJXZ 1001a6a0 f i CashDrawer.obj
 0001:000196c0       ?LockServer@CComClassFactory@ATL@@UAGJH@Z 1001a6c0 f i CashDrawer.obj
 0001:00019720       ?Lookup@?$CSimpleMap@PA_WPA_WVCExpansionVectorEqualHelper@ATL@@@ATL@@QBEPA_WABQA_W@Z 1001a720 f i CashDrawer.obj
 0001:00019770       ?Next@?$CComEnumImpl@UIEnumConnectionPoints@@$1?_GUID_b196b285_bab4_101a_b69c_00aa00341d07@@3U__s_GUID@@BPAUIConnectionPoint@@V?$_CopyInterface@UIConnectionPoint@@@ATL@@@ATL@@UAGJKPAPAUIConnectionPoint@@PAK@Z 1001a770 f i CashDrawer.obj
 0001:000198e0       ?Next@?$CComEnumImpl@UIEnumConnections@@$1?_GUID_b196b287_bab4_101a_b69c_00aa00341d07@@3U__s_GUID@@BUtagCONNECTDATA@@V?$_Copy@UtagCONNECTDATA@@@ATL@@@ATL@@UAGJKPAUtagCONNECTDATA@@PAK@Z 1001a8e0 f i CashDrawer.obj
 0001:00019a50       ?NextToken@CRegParser@ATL@@IAEJPA_W@Z 1001aa50 f i CashDrawer.obj
 0001:00019cf0       ?OLE2CT_EX@@YAPB_WPB_WI@Z  1001acf0 f i CashDrawer.obj
 0001:00019d00       ?OLE2CT_EX_DEF@@YAPB_WPB_W@Z 1001ad00 f i CashDrawer.obj
 0001:00019d10       ?OLE2T_EX@@YAPA_WPA_WI@Z   1001ad10 f i CashDrawer.obj
 0001:00019d20       ?OnAmbientPropertyChange@?$IOleControlImpl@VCOPOSCashDrawer@@@ATL@@UAGJJ@Z 1001ad20 f i CashDrawer.obj
 0001:00019db0       ?OnDocWindowActivate@?$IOleInPlaceActiveObjectImpl@VCOPOSCashDrawer@@@ATL@@UAGJH@Z 1001adb0 f i CashDrawer.obj
 0001:00019e40       ?OnDrawAdvanced@CComControlBase@ATL@@UAEJAAUATL_DRAWINFO@@@Z 1001ae40 f i CashDrawer.obj
 0001:0001a060       ?OnFinalMessage@?$CWindowImplBaseT@VCWindow@ATL@@V?$CWinTraits@$0FGAAAAAA@$0A@@2@@ATL@@UAEXPAUHWND__@@@Z 1001b060 f i CashDrawer.obj
 0001:0001a080       ?OnFrameWindowActivate@?$IOleInPlaceActiveObjectImpl@VCOPOSCashDrawer@@@ATL@@UAGJH@Z 1001b080 f i CashDrawer.obj
 0001:0001a0e0       ?OnKillFocus@CComControlBase@ATL@@QAEJIIJAAH@Z 1001b0e0 f i CashDrawer.obj
 0001:0001a1e0       ?OnMnemonic@?$IOleControlImpl@VCOPOSCashDrawer@@@ATL@@UAGJPAUtagMSG@@@Z 1001b1e0 f i CashDrawer.obj
 0001:0001a250       ?OnMouseActivate@CComControlBase@ATL@@QAEJIIJAAH@Z 1001b250 f i CashDrawer.obj
 0001:0001a3a0       ?OnPaint@CComControlBase@ATL@@QAEJIIJAAH@Z 1001b3a0 f i CashDrawer.obj
 0001:0001a520       ?OnPostVerbDiscardUndo@?$IOleObjectImpl@VCOPOSCashDrawer@@@ATL@@QAEJXZ 1001b520 f i CashDrawer.obj
 0001:0001a540       ?OnPostVerbHide@?$IOleObjectImpl@VCOPOSCashDrawer@@@ATL@@QAEJXZ 1001b540 f i CashDrawer.obj
 0001:0001a560       ?OnPostVerbInPlaceActivate@?$IOleObjectImpl@VCOPOSCashDrawer@@@ATL@@QAEJXZ 1001b560 f i CashDrawer.obj
 0001:0001a580       ?OnPostVerbOpen@?$IOleObjectImpl@VCOPOSCashDrawer@@@ATL@@QAEJXZ 1001b580 f i CashDrawer.obj
 0001:0001a5a0       ?OnPostVerbShow@?$IOleObjectImpl@VCOPOSCashDrawer@@@ATL@@QAEJXZ 1001b5a0 f i CashDrawer.obj
 0001:0001a5c0       ?OnPostVerbUIActivate@?$IOleObjectImpl@VCOPOSCashDrawer@@@ATL@@QAEJXZ 1001b5c0 f i CashDrawer.obj
 0001:0001a5e0       ?OnPreVerbDiscardUndo@?$IOleObjectImpl@VCOPOSCashDrawer@@@ATL@@QAEJXZ 1001b5e0 f i CashDrawer.obj
 0001:0001a600       ?OnPreVerbHide@?$IOleObjectImpl@VCOPOSCashDrawer@@@ATL@@QAEJXZ 1001b600 f i CashDrawer.obj
 0001:0001a620       ?OnPreVerbInPlaceActivate@?$IOleObjectImpl@VCOPOSCashDrawer@@@ATL@@QAEJXZ 1001b620 f i CashDrawer.obj
 0001:0001a640       ?OnPreVerbOpen@?$IOleObjectImpl@VCOPOSCashDrawer@@@ATL@@QAEJXZ 1001b640 f i CashDrawer.obj
 0001:0001a660       ?OnPreVerbShow@?$IOleObjectImpl@VCOPOSCashDrawer@@@ATL@@QAEJXZ 1001b660 f i CashDrawer.obj
 0001:0001a680       ?OnPreVerbUIActivate@?$IOleObjectImpl@VCOPOSCashDrawer@@@ATL@@QAEJXZ 1001b680 f i CashDrawer.obj
 0001:0001a6a0       ?OnSetFocus@CComControlBase@ATL@@QAEJIIJAAH@Z 1001b6a0 f i CashDrawer.obj
 0001:0001a830       ?OnWindowMessage@?$IOleInPlaceObjectWindowlessImpl@VCOPOSCashDrawer@@@ATL@@UAGJIIJPAJ@Z 1001b830 f i CashDrawer.obj
 0001:0001a990       ?Open@CRegKey@ATL@@QAEJPAUHKEY__@@PB_WK@Z 1001b990 f i CashDrawer.obj
 0001:0001aae0       ?OuterAddRef@CComObjectRootBase@ATL@@QAEKXZ 1001bae0 f i CashDrawer.obj
 0001:0001ab20       ?OuterQueryInterface@CComObjectRootBase@ATL@@QAEJABU_GUID@@PAPAX@Z 1001bb20 f i CashDrawer.obj
 0001:0001ab70       ?OuterRelease@CComObjectRootBase@ATL@@QAEKXZ 1001bb70 f i CashDrawer.obj
 0001:0001abb0       ?PreProcessBuffer@CRegParser@ATL@@QAEJPA_WPAPA_W@Z 1001bbb0 f i CashDrawer.obj
 0001:0001b0f0       ?PreTranslateAccelerator@CComControlBase@ATL@@QAEHPAUtagMSG@@AAJ@Z 1001c0f0 f i CashDrawer.obj
 0001:0001b110       ?ProcessWindowMessage@?$CComControl@VCOPOSCashDrawer@@V?$CWindowImpl@VCOPOSCashDrawer@@VCWindow@ATL@@V?$CWinTraits@$0FGAAAAAA@$0A@@3@@ATL@@@ATL@@UAEHPAUHWND__@@IIJAAJK@Z 1001c110 f i CashDrawer.obj
 0001:0001b2e0       ?ProcessWindowMessage@COPOSCashDrawer@@UAEHPAUHWND__@@IIJAAJK@Z 1001c2e0 f i CashDrawer.obj
 0001:0001b3e0       ?PutProperty@?$CComPtr@UIDispatch@@@ATL@@QAEJJPAUtagVARIANT@@@Z 1001c3e0 f i CashDrawer.obj
 0001:0001b420       ?PutProperty@?$CComPtr@UIDispatch@@@ATL@@SAJPAUIDispatch@@JPAUtagVARIANT@@@Z 1001c420 f i CashDrawer.obj
 0001:0001b610       ?QueryGetData@?$IDataObjectImpl@VCOPOSCashDrawer@@@ATL@@UAGJPAUtagFORMATETC@@@Z 1001c610 f i CashDrawer.obj
 0001:0001b680       ?QueryHitPoint@?$IViewObjectExImpl@VCOPOSCashDrawer@@@ATL@@UAGJKPBUtagRECT@@UtagPOINT@@JPAK@Z 1001c680 f i CashDrawer.obj
 0001:0001b790       ?QueryHitRect@?$IViewObjectExImpl@VCOPOSCashDrawer@@@ATL@@UAGJKPBUtagRECT@@0JPAK@Z 1001c790 f i CashDrawer.obj
 0001:0001b8e0       ?QueryInterface@?$CComAggObject@VCOPOSCashDrawer@@@ATL@@UAGJABU_GUID@@PAPAX@Z 1001c8e0 f i CashDrawer.obj
 0001:0001b990       ?QueryInterface@?$CComContainedObject@VCOPOSCashDrawer@@@ATL@@UAGJABU_GUID@@PAPAX@Z 1001c990 f i CashDrawer.obj
 0001:0001b9b4       ?QueryInterface@?$CComContainedObject@VCOPOSCashDrawer@@@ATL@@WHA@AGJABU_GUID@@PAPAX@Z 1001c9b4 f i CashDrawer.obj
 0001:0001b9be       ?QueryInterface@?$CComContainedObject@VCOPOSCashDrawer@@@ATL@@WHE@AGJABU_GUID@@PAPAX@Z 1001c9be f i CashDrawer.obj
 0001:0001b9c8       ?QueryInterface@?$CComContainedObject@VCOPOSCashDrawer@@@ATL@@WHI@AGJABU_GUID@@PAPAX@Z 1001c9c8 f i CashDrawer.obj
 0001:0001b9d2       ?QueryInterface@?$CComContainedObject@VCOPOSCashDrawer@@@ATL@@WHM@AGJABU_GUID@@PAPAX@Z 1001c9d2 f i CashDrawer.obj
 0001:0001b9dc       ?QueryInterface@?$CComContainedObject@VCOPOSCashDrawer@@@ATL@@WIA@AGJABU_GUID@@PAPAX@Z 1001c9dc f i CashDrawer.obj
 0001:0001b9e9       ?QueryInterface@?$CComContainedObject@VCOPOSCashDrawer@@@ATL@@WIE@AGJABU_GUID@@PAPAX@Z 1001c9e9 f i CashDrawer.obj
 0001:0001b9f6       ?QueryInterface@?$CComContainedObject@VCOPOSCashDrawer@@@ATL@@WII@AGJABU_GUID@@PAPAX@Z 1001c9f6 f i CashDrawer.obj
 0001:0001ba03       ?QueryInterface@?$CComContainedObject@VCOPOSCashDrawer@@@ATL@@WIM@AGJABU_GUID@@PAPAX@Z 1001ca03 f i CashDrawer.obj
 0001:0001ba10       ?QueryInterface@?$CComContainedObject@VCOPOSCashDrawer@@@ATL@@WJA@AGJABU_GUID@@PAPAX@Z 1001ca10 f i CashDrawer.obj
 0001:0001ba1d       ?QueryInterface@?$CComContainedObject@VCOPOSCashDrawer@@@ATL@@WJE@AGJABU_GUID@@PAPAX@Z 1001ca1d f i CashDrawer.obj
 0001:0001ba2a       ?QueryInterface@?$CComContainedObject@VCOPOSCashDrawer@@@ATL@@WJI@AGJABU_GUID@@PAPAX@Z 1001ca2a f i CashDrawer.obj
 0001:0001ba37       ?QueryInterface@?$CComContainedObject@VCOPOSCashDrawer@@@ATL@@WJM@AGJABU_GUID@@PAPAX@Z 1001ca37 f i CashDrawer.obj
 0001:0001ba44       ?QueryInterface@?$CComContainedObject@VCOPOSCashDrawer@@@ATL@@WKA@AGJABU_GUID@@PAPAX@Z 1001ca44 f i CashDrawer.obj
 0001:0001ba60       ?QueryInterface@?$CComObject@V?$CComEnum@UIEnumConnectionPoints@@$1?_GUID_b196b285_bab4_101a_b69c_00aa00341d07@@3U__s_GUID@@BPAUIConnectionPoint@@V?$_CopyInterface@UIConnectionPoint@@@ATL@@VCComSingleThreadModel@6@@ATL@@@ATL@@UAGJABU_GUID@@PAPAX@Z 1001ca60 f i CashDrawer.obj
 0001:0001ba80       ?QueryInterface@?$CComObject@V?$CComEnum@UIEnumConnections@@$1?_GUID_b196b287_bab4_101a_b69c_00aa00341d07@@3U__s_GUID@@BUtagCONNECTDATA@@V?$_Copy@UtagCONNECTDATA@@@ATL@@VCComSingleThreadModel@6@@ATL@@@ATL@@UAGJABU_GUID@@PAPAX@Z 1001ca80 f i CashDrawer.obj
 0001:0001baa0       ?QueryInterface@?$CComObject@VCOPOSCashDrawer@@@ATL@@UAGJABU_GUID@@PAPAX@Z 1001caa0 f i CashDrawer.obj
 0001:0001babe       ?QueryInterface@?$CComObject@VCOPOSCashDrawer@@@ATL@@WHA@AGJABU_GUID@@PAPAX@Z 1001cabe f i CashDrawer.obj
 0001:0001bac8       ?QueryInterface@?$CComObject@VCOPOSCashDrawer@@@ATL@@WHE@AGJABU_GUID@@PAPAX@Z 1001cac8 f i CashDrawer.obj
 0001:0001bad2       ?QueryInterface@?$CComObject@VCOPOSCashDrawer@@@ATL@@WHI@AGJABU_GUID@@PAPAX@Z 1001cad2 f i CashDrawer.obj
 0001:0001badc       ?QueryInterface@?$CComObject@VCOPOSCashDrawer@@@ATL@@WHM@AGJABU_GUID@@PAPAX@Z 1001cadc f i CashDrawer.obj
 0001:0001bae6       ?QueryInterface@?$CComObject@VCOPOSCashDrawer@@@ATL@@WIA@AGJABU_GUID@@PAPAX@Z 1001cae6 f i CashDrawer.obj
 0001:0001baf3       ?QueryInterface@?$CComObject@VCOPOSCashDrawer@@@ATL@@WIE@AGJABU_GUID@@PAPAX@Z 1001caf3 f i CashDrawer.obj
 0001:0001bb00       ?QueryInterface@?$CComObject@VCOPOSCashDrawer@@@ATL@@WII@AGJABU_GUID@@PAPAX@Z 1001cb00 f i CashDrawer.obj
 0001:0001bb0d       ?QueryInterface@?$CComObject@VCOPOSCashDrawer@@@ATL@@WIM@AGJABU_GUID@@PAPAX@Z 1001cb0d f i CashDrawer.obj
 0001:0001bb1a       ?QueryInterface@?$CComObject@VCOPOSCashDrawer@@@ATL@@WJA@AGJABU_GUID@@PAPAX@Z 1001cb1a f i CashDrawer.obj
 0001:0001bb27       ?QueryInterface@?$CComObject@VCOPOSCashDrawer@@@ATL@@WJE@AGJABU_GUID@@PAPAX@Z 1001cb27 f i CashDrawer.obj
 0001:0001bb34       ?QueryInterface@?$CComObject@VCOPOSCashDrawer@@@ATL@@WJI@AGJABU_GUID@@PAPAX@Z 1001cb34 f i CashDrawer.obj
 0001:0001bb41       ?QueryInterface@?$CComObject@VCOPOSCashDrawer@@@ATL@@WJM@AGJABU_GUID@@PAPAX@Z 1001cb41 f i CashDrawer.obj
 0001:0001bb4e       ?QueryInterface@?$CComObject@VCOPOSCashDrawer@@@ATL@@WKA@AGJABU_GUID@@PAPAX@Z 1001cb4e f i CashDrawer.obj
 0001:0001bb60       ?QueryInterface@?$CComObjectCached@VCComClassFactory@ATL@@@ATL@@UAGJABU_GUID@@PAPAX@Z 1001cb60 f i CashDrawer.obj
 0001:0001bb80       ?QueryInterface@CRegObject@ATL@@UAGJABU_GUID@@PAPAX@Z 1001cb80 f i CashDrawer.obj
 0001:0001bbd0       ?QuickActivate@?$IQuickActivateImpl@VCOPOSCashDrawer@@@ATL@@UAGJPAUtagQACONTAINER@@PAUtagQACONTROL@@@Z 1001cbd0 f i CashDrawer.obj
 0001:0001bc60       ?ReactivateAndUndo@?$IOleInPlaceObjectWindowlessImpl@VCOPOSCashDrawer@@@ATL@@UAGJXZ 1001cc60 f i CashDrawer.obj
 0001:0001bcd0       ?ReadFromStream@CComBSTR@ATL@@QAEJPAUIStream@@@Z 1001ccd0 f i CashDrawer.obj
 0001:0001c0d0       ?ReadFromStream@CComVariant@ATL@@QAEJPAUIStream@@GTClassesAllowedInStream@2@K@Z 1001d0d0 f i CashDrawer.obj
 0001:0001c430       ?RecurseDeleteKey@CRegKey@ATL@@QAEJPB_W@Z 1001d430 f i CashDrawer.obj
 0001:0001c610       ?RegCreateKeyExW@CAtlTransactionManager@ATL@@QAEJPAUHKEY__@@PB_WKPA_WKKQAU_SECURITY_ATTRIBUTES@@PAPAU3@PAK@Z 1001d610 f i CashDrawer.obj
 0001:0001c740       ?RegDeleteKeyW@CAtlTransactionManager@ATL@@QAEJPAUHKEY__@@PB_W@Z 1001d740 f i CashDrawer.obj
 0001:0001c840       ?RegOpenKeyExW@CAtlTransactionManager@ATL@@QAEJPAUHKEY__@@PB_WKKPAPAU3@@Z 1001d840 f i CashDrawer.obj
 0001:0001c950       ?Register@_ATL_WNDCLASSINFOW@ATL@@QAEGPAP6GJPAUHWND__@@IIJ@Z@Z 1001d950 f i CashDrawer.obj
 0001:0001c990       ?RegisterBuffer@CRegParser@ATL@@QAEJPA_WH@Z 1001d990 f i CashDrawer.obj
 0001:0001ccc0       ?RegisterClassExW@AtlModuleRegisterWndClassInfoParamW@ATL@@SAGPAU_ATL_WIN_MODULE70@2@PBUtagWNDCLASSEXW@@@Z 1001dcc0 f i CashDrawer.obj
 0001:0001cce0       ?RegisterFromResource@CRegObject@ATL@@IAEJPB_W00H@Z 1001dce0 f i CashDrawer.obj
 0001:0001d070       ?RegisterServer@?$CAtlModuleT@VCComModule@ATL@@@ATL@@QAEJHPBU_GUID@@@Z 1001e070 f i CashDrawer.obj
 0001:0001d0f0       ?RegisterServer@CAtlComModule@ATL@@QAEJHPBU_GUID@@@Z 1001e0f0 f i CashDrawer.obj
 0001:0001d120       ?RegisterServer@CComModule@ATL@@QAEJHPBU_GUID@@@Z 1001e120 f i CashDrawer.obj
 0001:0001d200       ?RegisterSubkeys@CRegParser@ATL@@IAEJPA_WPAUHKEY__@@HH@Z 1001e200 f i CashDrawer.obj
 0001:0001dd20       ?Release@?$CComAggObject@VCOPOSCashDrawer@@@ATL@@UAGKXZ 1001ed20 f i CashDrawer.obj
 0001:0001dde0       ?Release@?$CComContainedObject@VCOPOSCashDrawer@@@ATL@@UAGKXZ 1001ede0 f i CashDrawer.obj
 0001:0001ddfc       ?Release@?$CComContainedObject@VCOPOSCashDrawer@@@ATL@@WHA@AGKXZ 1001edfc f i CashDrawer.obj
 0001:0001de06       ?Release@?$CComContainedObject@VCOPOSCashDrawer@@@ATL@@WHE@AGKXZ 1001ee06 f i CashDrawer.obj
 0001:0001de10       ?Release@?$CComContainedObject@VCOPOSCashDrawer@@@ATL@@WHI@AGKXZ 1001ee10 f i CashDrawer.obj
 0001:0001de1a       ?Release@?$CComContainedObject@VCOPOSCashDrawer@@@ATL@@WHM@AGKXZ 1001ee1a f i CashDrawer.obj
 0001:0001de24       ?Release@?$CComContainedObject@VCOPOSCashDrawer@@@ATL@@WIA@AGKXZ 1001ee24 f i CashDrawer.obj
 0001:0001de31       ?Release@?$CComContainedObject@VCOPOSCashDrawer@@@ATL@@WIE@AGKXZ 1001ee31 f i CashDrawer.obj
 0001:0001de3e       ?Release@?$CComContainedObject@VCOPOSCashDrawer@@@ATL@@WII@AGKXZ 1001ee3e f i CashDrawer.obj
 0001:0001de4b       ?Release@?$CComContainedObject@VCOPOSCashDrawer@@@ATL@@WIM@AGKXZ 1001ee4b f i CashDrawer.obj
 0001:0001de58       ?Release@?$CComContainedObject@VCOPOSCashDrawer@@@ATL@@WJA@AGKXZ 1001ee58 f i CashDrawer.obj
 0001:0001de65       ?Release@?$CComContainedObject@VCOPOSCashDrawer@@@ATL@@WJE@AGKXZ 1001ee65 f i CashDrawer.obj
 0001:0001de72       ?Release@?$CComContainedObject@VCOPOSCashDrawer@@@ATL@@WJI@AGKXZ 1001ee72 f i CashDrawer.obj
 0001:0001de7f       ?Release@?$CComContainedObject@VCOPOSCashDrawer@@@ATL@@WJM@AGKXZ 1001ee7f f i CashDrawer.obj
 0001:0001de8c       ?Release@?$CComContainedObject@VCOPOSCashDrawer@@@ATL@@WKA@AGKXZ 1001ee8c f i CashDrawer.obj
 0001:0001de99       ?Release@?$CComContainedObject@VCOPOSCashDrawer@@@ATL@@WKI@AGKXZ 1001ee99 f i CashDrawer.obj
 0001:0001dea6       ?Release@?$CComContainedObject@VCOPOSCashDrawer@@@ATL@@WLE@AGKXZ 1001eea6 f i CashDrawer.obj
 0001:0001dec0       ?Release@?$CComObject@V?$CComEnum@UIEnumConnectionPoints@@$1?_GUID_b196b285_bab4_101a_b69c_00aa00341d07@@3U__s_GUID@@BPAUIConnectionPoint@@V?$_CopyInterface@UIConnectionPoint@@@ATL@@VCComSingleThreadModel@6@@ATL@@@ATL@@UAGKXZ 1001eec0 f i CashDrawer.obj
 0001:0001df80       ?Release@?$CComObject@V?$CComEnum@UIEnumConnections@@$1?_GUID_b196b287_bab4_101a_b69c_00aa00341d07@@3U__s_GUID@@BUtagCONNECTDATA@@V?$_Copy@UtagCONNECTDATA@@@ATL@@VCComSingleThreadModel@6@@ATL@@@ATL@@UAGKXZ 1001ef80 f i CashDrawer.obj
 0001:0001e040       ?Release@?$CComObject@VCOPOSCashDrawer@@@ATL@@UAGKXZ 1001f040 f i CashDrawer.obj
 0001:0001e0f9       ?Release@?$CComObject@VCOPOSCashDrawer@@@ATL@@WHA@AGKXZ 1001f0f9 f i CashDrawer.obj
 0001:0001e103       ?Release@?$CComObject@VCOPOSCashDrawer@@@ATL@@WHE@AGKXZ 1001f103 f i CashDrawer.obj
 0001:0001e10d       ?Release@?$CComObject@VCOPOSCashDrawer@@@ATL@@WHI@AGKXZ 1001f10d f i CashDrawer.obj
 0001:0001e117       ?Release@?$CComObject@VCOPOSCashDrawer@@@ATL@@WHM@AGKXZ 1001f117 f i CashDrawer.obj
 0001:0001e121       ?Release@?$CComObject@VCOPOSCashDrawer@@@ATL@@WIA@AGKXZ 1001f121 f i CashDrawer.obj
 0001:0001e12e       ?Release@?$CComObject@VCOPOSCashDrawer@@@ATL@@WIE@AGKXZ 1001f12e f i CashDrawer.obj
 0001:0001e13b       ?Release@?$CComObject@VCOPOSCashDrawer@@@ATL@@WII@AGKXZ 1001f13b f i CashDrawer.obj
 0001:0001e148       ?Release@?$CComObject@VCOPOSCashDrawer@@@ATL@@WIM@AGKXZ 1001f148 f i CashDrawer.obj
 0001:0001e155       ?Release@?$CComObject@VCOPOSCashDrawer@@@ATL@@WJA@AGKXZ 1001f155 f i CashDrawer.obj
 0001:0001e162       ?Release@?$CComObject@VCOPOSCashDrawer@@@ATL@@WJE@AGKXZ 1001f162 f i CashDrawer.obj
 0001:0001e16f       ?Release@?$CComObject@VCOPOSCashDrawer@@@ATL@@WJI@AGKXZ 1001f16f f i CashDrawer.obj
 0001:0001e17c       ?Release@?$CComObject@VCOPOSCashDrawer@@@ATL@@WJM@AGKXZ 1001f17c f i CashDrawer.obj
 0001:0001e189       ?Release@?$CComObject@VCOPOSCashDrawer@@@ATL@@WKA@AGKXZ 1001f189 f i CashDrawer.obj
 0001:0001e196       ?Release@?$CComObject@VCOPOSCashDrawer@@@ATL@@WKI@AGKXZ 1001f196 f i CashDrawer.obj
 0001:0001e1a3       ?Release@?$CComObject@VCOPOSCashDrawer@@@ATL@@WLE@AGKXZ 1001f1a3 f i CashDrawer.obj
 0001:0001e1b0       ?Release@?$CComObjectCached@VCComClassFactory@ATL@@@ATL@@UAGKXZ 1001f1b0 f i CashDrawer.obj
 0001:0001e250       ?Release@?$CComPtrBase@UIAdviseSink@@@ATL@@QAEXXZ 1001f250 f i CashDrawer.obj
 0001:0001e2b0       ?Release@?$CComPtrBase@UIDispatch@@@ATL@@QAEXXZ 1001f2b0 f i CashDrawer.obj
 0001:0001e310       ?Release@?$CComPtrBase@UIOleInPlaceSiteWindowless@@@ATL@@QAEXXZ 1001f310 f i CashDrawer.obj
 0001:0001e370       ?Release@CRegObject@ATL@@UAGKXZ 1001f370 f i CashDrawer.obj
 0001:0001e3b0       ?Remove@CComDynamicUnkArray@ATL@@QAEHK@Z 1001f3b0 f i CashDrawer.obj
 0001:0001e460       ?RemoveAll@?$CSimpleMap@PA_WPA_WVCExpansionVectorEqualHelper@ATL@@@ATL@@QAEXXZ 1001f460 f i CashDrawer.obj
 0001:0001e4f0       ?Reset@?$CComEnumImpl@UIEnumConnectionPoints@@$1?_GUID_b196b285_bab4_101a_b69c_00aa00341d07@@3U__s_GUID@@BPAUIConnectionPoint@@V?$_CopyInterface@UIConnectionPoint@@@ATL@@@ATL@@UAGJXZ 1001f4f0 f i CashDrawer.obj
 0001:0001e510       ?Reset@?$CComEnumImpl@UIEnumConnections@@$1?_GUID_b196b287_bab4_101a_b69c_00aa00341d07@@3U__s_GUID@@BUtagCONNECTDATA@@V?$_Copy@UtagCONNECTDATA@@@ATL@@@ATL@@UAGJXZ 1001f510 f i CashDrawer.obj
 0001:0001e530       ?ResizeBorder@?$IOleInPlaceActiveObjectImpl@VCOPOSCashDrawer@@@ATL@@UAGJPBUtagRECT@@PAUIOleInPlaceUIWindow@@H@Z 1001f530 f i CashDrawer.obj
 0001:0001e590       ?ResourceRegister@CRegObject@ATL@@QAGJPB_WI0@Z 1001f590 f i CashDrawer.obj
 0001:0001e670       ?ResourceRegisterSz@CRegObject@ATL@@QAGJPB_W00@Z 1001f670 f i CashDrawer.obj
 0001:0001e770       ?ResourceUnregister@CRegObject@ATL@@QAGJPB_WI0@Z 1001f770 f i CashDrawer.obj
 0001:0001e850       ?ResourceUnregisterSz@CRegObject@ATL@@QAGJPB_W00@Z 1001f850 f i CashDrawer.obj
 0001:0001e950       ?SODataDummy@COPOSCashDrawer@@MAGJJ@Z 1001f950 f i CashDrawer.obj
 0001:0001e960       ?SODirectIO@COPOSCashDrawer@@MAGJJPAJPAPA_W@Z 1001f960 f i CashDrawer.obj
 0001:0001eb20       ?SOErrorDummy@COPOSCashDrawer@@MAGJJJJPAJ@Z 1001fb20 f i CashDrawer.obj
 0001:0001eb30       ?SOOutputCompleteDummy@COPOSCashDrawer@@MAGJJ@Z 1001fb30 f i CashDrawer.obj
 0001:0001eb40       ?SOStatusUpdate@COPOSCashDrawer@@MAGJJ@Z 1001fb40 f i CashDrawer.obj
 0001:0001ebc0       ?Save@?$IPersistStorageImpl@VCOPOSCashDrawer@@@ATL@@UAGJPAUIStorage@@H@Z 1001fbc0 f i CashDrawer.obj
 0001:0001ed20       ?Save@?$IPersistStreamInitImpl@VCOPOSCashDrawer@@@ATL@@UAGJPAUIStream@@H@Z 1001fd20 f i CashDrawer.obj
 0001:0001edb0       ?SaveCompleted@?$IPersistStorageImpl@VCOPOSCashDrawer@@@ATL@@UAGJPAUIStorage@@@Z 1001fdb0 f i CashDrawer.obj
 0001:0001ee10       ?SendOnDataChange@CComControlBase@ATL@@QAEJK@Z 1001fe10 f i CashDrawer.obj
 0001:0001ef00       ?SendOnSave@CComControlBase@ATL@@QAEJXZ 1001ff00 f i CashDrawer.obj
 0001:0001ef70       ?SendOnViewChange@CComControlBase@ATL@@QAEJKJ@Z 1001ff70 f i CashDrawer.obj
 0001:0001efe0       ?SetAdvise@?$IViewObjectExImpl@VCOPOSCashDrawer@@@ATL@@UAGJKKPAUIAdviseSink@@@Z 1001ffe0 f i CashDrawer.obj
 0001:0001f070       ?SetClientSite@?$IOleObjectImpl@VCOPOSCashDrawer@@@ATL@@UAGJPAUIOleClientSite@@@Z 10020070 f i CashDrawer.obj
 0001:0001f100       ?SetColorScheme@?$IOleObjectImpl@VCOPOSCashDrawer@@@ATL@@UAGJPAUtagLOGPALETTE@@@Z 10020100 f i CashDrawer.obj
 0001:0001f170       ?SetContentExtent@?$IQuickActivateImpl@VCOPOSCashDrawer@@@ATL@@UAGJPAUtagSIZE@@@Z 10020170 f i CashDrawer.obj
 0001:0001f200       ?SetControlFocus@CComControlBase@ATL@@QAEHH@Z 10020200 f i CashDrawer.obj
 0001:0001f380       ?SetDWORDValue@CRegKey@ATL@@QAEJPB_WK@Z 10020380 f i CashDrawer.obj
 0001:0001f400       ?SetData@?$IDataObjectImpl@VCOPOSCashDrawer@@@ATL@@UAGJPAUtagFORMATETC@@PAUtagSTGMEDIUM@@H@Z 10020400 f i CashDrawer.obj
 0001:0001f470       ?SetExtent@?$IOleObjectImpl@VCOPOSCashDrawer@@@ATL@@UAGJKPAUtagSIZE@@@Z 10020470 f i CashDrawer.obj
 0001:0001f500       ?SetHostNames@?$IOleObjectImpl@VCOPOSCashDrawer@@@ATL@@UAGJPB_W0@Z 10020500 f i CashDrawer.obj
 0001:0001f560       ?SetInterfaceSafetyOptions@?$IObjectSafetyImpl@VCOPOSCashDrawer@@$02@ATL@@UAGJABU_GUID@@KK@Z 10020560 f i CashDrawer.obj
 0001:0001f6d0       ?SetMoniker@?$IOleObjectImpl@VCOPOSCashDrawer@@@ATL@@UAGJKPAUIMoniker@@@Z 100206d0 f i CashDrawer.obj
 0001:0001f740       ?SetMultiStringValue@CRegKey@ATL@@QAEJPB_W0@Z 10020740 f i CashDrawer.obj
 0001:0001f860       ?SetObjectRects@?$IOleInPlaceObjectWindowlessImpl@VCOPOSCashDrawer@@@ATL@@UAGJPBUtagRECT@@0@Z 10020860 f i CashDrawer.obj
 0001:0001f8f0       ?SetStringValue@CRegKey@ATL@@QAEJPB_W0K@Z 100208f0 f i CashDrawer.obj
 0001:0001fa20       ?SetVoid@CComClassFactory@ATL@@QAEXPAX@Z 10020a20 f i CashDrawer.obj
 0001:0001fa40       ?SetVoid@CComObjectRootBase@ATL@@QAEXPAX@Z 10020a40 f i CashDrawer.obj
 0001:0001fa60       ?SetWindowLongPtrW@@YAJPAUHWND__@@HJ@Z 10020a60 f i CashDrawer.obj
 0001:0001fa90       ?ShowWindow@CWindow@ATL@@QAEHH@Z 10020a90 f i CashDrawer.obj
 0001:0001fb10       ?Skip@?$CComEnumImpl@UIEnumConnectionPoints@@$1?_GUID_b196b285_bab4_101a_b69c_00aa00341d07@@3U__s_GUID@@BPAUIConnectionPoint@@V?$_CopyInterface@UIConnectionPoint@@@ATL@@@ATL@@UAGJK@Z 10020b10 f i CashDrawer.obj
 0001:0001fb90       ?Skip@?$CComEnumImpl@UIEnumConnections@@$1?_GUID_b196b287_bab4_101a_b69c_00aa00341d07@@3U__s_GUID@@BUtagCONNECTDATA@@V?$_Copy@UtagCONNECTDATA@@@ATL@@@ATL@@UAGJK@Z 10020b90 f i CashDrawer.obj
 0001:0001fc10       ?SkipAssignment@CRegParser@ATL@@IAEJPA_W@Z 10020c10 f i CashDrawer.obj
 0001:0001fcf0       ?SkipWhiteSpace@CRegParser@ATL@@IAEXXZ 10020cf0 f i CashDrawer.obj
 0001:0001fd40       ?StartWindowProc@?$CWindowImplBaseT@VCWindow@ATL@@V?$CWinTraits@$0FGAAAAAA@$0A@@2@@ATL@@SGJPAUHWND__@@IIJ@Z 10020d40 f i CashDrawer.obj
 0001:0001fe60       ?StrChrW@CRegParser@ATL@@KAPA_WPA_W_W@Z 10020e60 f i CashDrawer.obj
 0001:0001fed0       ?StrFromMap@CRegObject@ATL@@QAEPB_WPA_W@Z 10020ed0 f i CashDrawer.obj
 0001:0001ff60       ?Swap@?$CComPtrBase@UIAdviseSink@@@ATL@@IAEXAAV12@@Z 10020f60 f i CashDrawer.obj
 0001:0001ffa0       ?Swap@?$CComPtrBase@UIOleClientSite@@@ATL@@IAEXAAV12@@Z 10020fa0 f i CashDrawer.obj
 0001:0001ffe0       ?Swap@?$CComPtrBase@UIUnknown@@@ATL@@IAEXAAV12@@Z 10020fe0 f i CashDrawer.obj
 0001:00020020       ?T2COLE_EX@@YAPB_WPB_WI@Z  10021020 f i CashDrawer.obj
 0001:00020030       ?T2OLE_EX@@YAPA_WPA_WI@Z   10021030 f i CashDrawer.obj
 0001:00020040       ?Term@CAtlModule@ATL@@QAEXXZ 10021040 f i CashDrawer.obj
 0001:000200f0       ?Term@CComModule@ATL@@QAEXXZ 100210f0 f i CashDrawer.obj
 0001:000201e0       ?TranslateAcceleratorW@?$IOleInPlaceActiveObjectImpl@VCOPOSCashDrawer@@@ATL@@UAGJPAUtagMSG@@@Z 100211e0 f i CashDrawer.obj
 0001:000203e0       ?UIDeactivate@?$IOleInPlaceObjectWindowlessImpl@VCOPOSCashDrawer@@@ATL@@UAGJXZ 100213e0 f i CashDrawer.obj
 0001:00020460       ?Unadvise@?$CProxy_IOPOSEvents@VCOPOSCashDrawer@@@@UAGJK@Z 10021460 f i CashDrawer.obj
 0001:000204a0       ?Unadvise@?$IConnectionPointImpl@VCOPOSCashDrawer@@$1?DIID__IOPOSCashDrawerEvents@@3U_GUID@@BVCComDynamicUnkArray@ATL@@@ATL@@UAGJK@Z 100214a0 f i CashDrawer.obj
 0001:00020570       ?Unadvise@?$IConnectionPointImpl@VCOPOSCashDrawer@@$1?IID_IPropertyNotifySink@@3U_GUID@@BVCComDynamicUnkArray@ATL@@@ATL@@UAGJK@Z 10021570 f i CashDrawer.obj
 0001:00020640       ?Unadvise@?$IOleObjectImpl@VCOPOSCashDrawer@@@ATL@@UAGJK@Z 10021640 f i CashDrawer.obj
 0001:00020710       ?Unfreeze@?$IViewObjectExImpl@VCOPOSCashDrawer@@@ATL@@UAGJK@Z 10021710 f i CashDrawer.obj
 0001:00020780       ?Unlock@?$CComCritSecLock@VCComCriticalSection@ATL@@@ATL@@QAEXXZ 10021780 f i CashDrawer.obj
 0001:000207f0       ?Unlock@?$CComObjectRootEx@VCComSingleThreadModel@ATL@@@ATL@@QAEXXZ 100217f0 f i CashDrawer.obj
 0001:00020810       ?Unlock@CAtlModule@ATL@@UAEJXZ 10021810 f i CashDrawer.obj
 0001:00020840       ?Unlock@CComCriticalSection@ATL@@QAEJXZ 10021840 f i CashDrawer.obj
 0001:00020880       ?Unlock@CComFakeCriticalSection@ATL@@QAEJXZ 10021880 f i CashDrawer.obj
 0001:000208a0       ?UnregisterServer@?$CAtlModuleT@VCComModule@ATL@@@ATL@@QAEJHPBU_GUID@@@Z 100218a0 f i CashDrawer.obj
 0001:00020910       ?UnregisterServer@CAtlComModule@ATL@@QAEJHPBU_GUID@@@Z 10021910 f i CashDrawer.obj
 0001:00020940       ?UnregisterServer@CComModule@ATL@@QAEJHPBU_GUID@@@Z 10021940 f i CashDrawer.obj
 0001:00020a20       ?Update@?$IOleObjectImpl@VCOPOSCashDrawer@@@ATL@@UAGJXZ 10021a20 f i CashDrawer.obj
 0001:00020a80       ?UpdateRegistryFromResource@CAtlModule@ATL@@QAGJIHPAU_ATL_REGMAP_ENTRY@2@@Z 10021a80 f i CashDrawer.obj
 0001:00020f50       ?UpdateRegistryFromResource@CAtlModule@ATL@@QAGJPB_WHPAU_ATL_REGMAP_ENTRY@2@@Z 10021f50 f i CashDrawer.obj
 0001:00021440       ?UpdateRegistryFromResource@CComModule@ATL@@UAGJIHPAU_ATL_REGMAP_ENTRY@2@@Z 10022440 f i CashDrawer.obj
 0001:00021470       ?UpdateRegistryFromResource@CComModule@ATL@@UAGJPB_WHPAU_ATL_REGMAP_ENTRY@2@@Z 10022470 f i CashDrawer.obj
 0001:000214a0       ?UpdateRegistryFromResourceD@CComModule@ATL@@UAGJIHPAU_ATL_REGMAP_ENTRY@2@@Z 100224a0 f i CashDrawer.obj
 0001:000214b0       ?UpdateRegistryFromResourceD@CComModule@ATL@@UAGJPB_WHPAU_ATL_REGMAP_ENTRY@2@@Z 100224b0 f i CashDrawer.obj
 0001:000214c0       ?VTFromRegType@CRegParser@ATL@@KAHPB_WAAG@Z 100224c0 f i CashDrawer.obj
 0001:000215a0       ?WindowProc@?$CWindowImplBaseT@VCWindow@ATL@@V?$CWinTraits@$0FGAAAAAA@$0A@@2@@ATL@@SGJPAUHWND__@@IIJ@Z 100225a0 f i CashDrawer.obj
 0001:000217b0       ?WriteToStream@CComBSTR@ATL@@QAEJPAUIStream@@@Z 100227b0 f i CashDrawer.obj
 0001:00021910       ?WriteToStream@CComVariant@ATL@@QAEJPAUIStream@@@Z 10022910 f i CashDrawer.obj
 0001:00021c50       ?WriteToStream@CComVariant@ATL@@QAEJPAUIStream@@G@Z 10022c50 f i CashDrawer.obj
 0001:00021d20       ?_AtlFinalConstruct@CComObjectRootBase@ATL@@QAEJXZ 10022d20 f i CashDrawer.obj
 0001:00021d40       ?_AtlGetConversionACP@ATL@@YGIXZ 10022d40 f i CashDrawer.obj
 0001:00021d50       ?_AtlInitialConstruct@?$CComAggObject@VCOPOSCashDrawer@@@ATL@@QAEJXZ 10022d50 f i CashDrawer.obj
 0001:00021da0       ?_AtlInitialConstruct@?$CComObjectRootEx@VCComMultiThreadModel@ATL@@@ATL@@QAEJXZ 10022da0 f i CashDrawer.obj
 0001:00021dd0       ?_AtlInitialConstruct@?$CComObjectRootEx@VCComSingleThreadModel@ATL@@@ATL@@QAEJXZ 10022dd0 f i CashDrawer.obj
 0001:00021df0       ?_AtlVerifyStackAvailable@_ATL_SAFE_ALLOCA_IMPL@ATL@@YA_NK@Z 10022df0 f i CashDrawer.obj
 0001:00021fa0       ?_GetEntries@?$CComEnum@UIEnumConnectionPoints@@$1?_GUID_b196b285_bab4_101a_b69c_00aa00341d07@@3U__s_GUID@@BPAUIConnectionPoint@@V?$_CopyInterface@UIConnectionPoint@@@ATL@@VCComSingleThreadModel@6@@ATL@@SGPBU_ATL_INTMAP_ENTRY@2@XZ 10022fa0 f i CashDrawer.obj
 0001:00021fc0       ?_GetEntries@?$CComEnum@UIEnumConnections@@$1?_GUID_b196b287_bab4_101a_b69c_00aa00341d07@@3U__s_GUID@@BUtagCONNECTDATA@@V?$_Copy@UtagCONNECTDATA@@@ATL@@VCComSingleThreadModel@6@@ATL@@SGPBU_ATL_INTMAP_ENTRY@2@XZ 10022fc0 f i CashDrawer.obj
 0001:00021fe0       ?_GetEntries@CComClassFactory@ATL@@SGPBU_ATL_INTMAP_ENTRY@2@XZ 10022fe0 f i CashDrawer.obj
 0001:00022000       ?_GetEntries@COPOSCashDrawer@@SGPBU_ATL_INTMAP_ENTRY@ATL@@XZ 10023000 f i CashDrawer.obj
 0001:00022020       ?_GetRawUnknown@COPOSCashDrawer@@QAEPAUIUnknown@@XZ 10023020 f i CashDrawer.obj
 0001:00022090       ?_GetViewStatus@COPOSCashDrawer@@QAEKXZ 10023090 f i CashDrawer.obj
 0001:000220b0       ?_InternalQueryInterface@?$CComEnum@UIEnumConnectionPoints@@$1?_GUID_b196b285_bab4_101a_b69c_00aa00341d07@@3U__s_GUID@@BPAUIConnectionPoint@@V?$_CopyInterface@UIConnectionPoint@@@ATL@@VCComSingleThreadModel@6@@ATL@@QAEJABU_GUID@@PAPAX@Z 100230b0 f i CashDrawer.obj
 0001:000220f0       ?_InternalQueryInterface@?$CComEnum@UIEnumConnections@@$1?_GUID_b196b287_bab4_101a_b69c_00aa00341d07@@3U__s_GUID@@BUtagCONNECTDATA@@V?$_Copy@UtagCONNECTDATA@@@ATL@@VCComSingleThreadModel@6@@ATL@@QAEJABU_GUID@@PAPAX@Z 100230f0 f i CashDrawer.obj
 0001:00022130       ?_InternalQueryInterface@CComClassFactory@ATL@@QAEJABU_GUID@@PAPAX@Z 10023130 f i CashDrawer.obj
 0001:00022170       ?_InternalQueryInterface@COPOSCashDrawer@@QAEJABU_GUID@@PAPAX@Z 10023170 f i CashDrawer.obj
 0001:000221b0       ?_LocCPQueryInterface@?$IConnectionPointImpl@VCOPOSCashDrawer@@$1?DIID__IOPOSCashDrawerEvents@@3U_GUID@@BVCComDynamicUnkArray@ATL@@@ATL@@UAGJABU_GUID@@PAPAX@Z 100231b0 f i CashDrawer.obj
 0001:00022250       ?_LocCPQueryInterface@?$IConnectionPointImpl@VCOPOSCashDrawer@@$1?IID_IPropertyNotifySink@@3U_GUID@@BVCComDynamicUnkArray@ATL@@@ATL@@UAGJABU_GUID@@PAPAX@Z 10023250 f i CashDrawer.obj
 0001:000222f0       ?atlCreate@?$CWindowImpl@VCOPOSCashDrawer@@VCWindow@ATL@@V?$CWinTraits@$0FGAAAAAA@$0A@@3@@ATL@@QAEPAUHWND__@@PAU3@V_U_RECT@2@PB_WKKV_U_MENUorID@2@PAX@Z 100232f0 f i CashDrawer.obj
 0001:000223a0       ?atlCreate@?$CWindowImplBaseT@VCWindow@ATL@@V?$CWinTraits@$0FGAAAAAA@$0A@@2@@ATL@@QAEPAUHWND__@@PAU3@V_U_RECT@2@PB_WKKV_U_MENUorID@2@GPAX@Z 100233a0 f i CashDrawer.obj
 0001:00022520       ?atlCreate@CRegKey@ATL@@QAEJPAUHKEY__@@PB_WPA_WKKPAU_SECURITY_ATTRIBUTES@@PAK@Z 10023520 f i CashDrawer.obj
 0001:00022680       ?begin@CComDynamicUnkArray@ATL@@QAEPAPAUIUnknown@@XZ 10023680 f i CashDrawer.obj
 0001:000226a0       ?copy@?$_Copy@UtagCONNECTDATA@@@ATL@@SAJPAUtagCONNECTDATA@@PBU3@@Z 100236a0 f i CashDrawer.obj
 0001:00022760       ?copy@?$_CopyInterface@UIConnectionPoint@@@ATL@@SAJPAPAUIConnectionPoint@@PBQAU3@@Z 10023760 f i CashDrawer.obj
 0001:00022820       ?destroy@?$_Copy@UtagCONNECTDATA@@@ATL@@SAXPAUtagCONNECTDATA@@@Z 10023820 f i CashDrawer.obj
 0001:00022860       ?destroy@?$_CopyInterface@UIConnectionPoint@@@ATL@@SAXPAPAUIConnectionPoint@@@Z 10023860 f i CashDrawer.obj
 0001:000228a0       ?end@CComDynamicUnkArray@ATL@@QAEPAPAUIUnknown@@XZ 100238a0 f i CashDrawer.obj
 0001:000228c0       ?init@?$_Copy@UtagCONNECTDATA@@@ATL@@SAXPAUtagCONNECTDATA@@@Z 100238c0 f i CashDrawer.obj
 0001:000228d0       ?init@?$_CopyInterface@UIConnectionPoint@@@ATL@@SAXPAPAUIConnectionPoint@@@Z 100238d0 f i CashDrawer.obj
 0001:000228e0       ?memcpy_s@Checked@ATL@@YAXPAXIPBXI@Z 100238e0 f i CashDrawer.obj
 0001:00022910       ?ocscpy_s@@YA_NPA_WIPB_W@Z 10023910 f i CashDrawer.obj
 0001:00022970       ?ocslen@@YAHPB_W@Z         10023970 f i CashDrawer.obj
 0001:000229a0       ?tcsncpy_s@Checked@ATL@@YAHPA_WIPB_WI@Z 100239a0 f i CashDrawer.obj
 0001:000229d0       ?wcscat_s@Checked@ATL@@YAXPA_WIPB_W@Z 100239d0 f i CashDrawer.obj
 0001:00022a00       ?wcscpy_s@Checked@ATL@@YAXPA_WIPB_W@Z 10023a00 f i CashDrawer.obj
 0001:00022a30       ?wcsncpy_s@Checked@ATL@@YAHPA_WIPB_WI@Z 10023a30 f i CashDrawer.obj
 0001:00022a60       ?wcsstr@@YAPA_WPA_WPB_W@Z  10023a60 f i CashDrawer.obj
 0001:00022a80       _InlineIsEqualGUID         10023a80 f i CashDrawer.obj
 0001:00022b20       _IsEqualGUID               10023b20 f i CashDrawer.obj
 0001:00022b70       ??0COPOSCashDrawer@@QAE@XZ 10023b70 f   CashDrawerImpl.obj
 0001:00022c80       ?FinalConstruct@COPOSCashDrawer@@QAEJXZ 10023c80 f   CashDrawerImpl.obj
 0001:00022d50       ??1COPOSCashDrawer@@UAE@XZ 10023d50 f   CashDrawerImpl.obj
 0001:00022e30       ?WriteTrace@COPOSCashDrawer@@QAAXPB_WZZ 10023e30 f   CashDrawerImpl.obj
 0001:00022ee0       ?WriteTraceString@COPOSCashDrawer@@QAEXPB_WPA_W@Z 10023ee0 f   CashDrawerImpl.obj
 0001:00023250       ?WriteTraceString@COPOSCashDrawer@@QAAXPAXHHHPB_WZZ 10024250 f   CashDrawerImpl.obj
 0001:00023480       ?WriteTraceError@COPOSCashDrawer@@QAEXPB_WK@Z 10024480 f   CashDrawerImpl.obj
 0001:00023570       ?WriteTraceMethods@COPOSCashDrawer@@QAEXPAJH@Z 10024570 f   CashDrawerImpl.obj
 0001:000235e0       ?GetOposProp@COPOSCashDrawer@@IAEJPBDJPAJJ@Z 100245e0 f   CashDrawerImpl.obj
 0001:00023850       ?SetOposProp@COPOSCashDrawer@@IAEJPBDJJJ@Z 10024850 f   CashDrawerImpl.obj
 0001:00023ae0       ?GetOposProp@COPOSCashDrawer@@IAEJPBDJPAFJ@Z 10024ae0 f   CashDrawerImpl.obj
 0001:00023b80       ?SetOposProp@COPOSCashDrawer@@IAEJPBDJFJ@Z 10024b80 f   CashDrawerImpl.obj
 0001:00023be0       ?GetOposProp@COPOSCashDrawer@@IAEJPBDJPAPA_WJ@Z 10024be0 f   CashDrawerImpl.obj
 0001:00023e60       ?SetOposProp@COPOSCashDrawer@@IAEJPBDJPA_WJ@Z 10024e60 f   CashDrawerImpl.obj
 0001:000241a0       ?DoInvoke@COPOSCashDrawer@@IAEJPBDJPAVOposVariant@@IHPAJ_N@Z 100251a0 f   CashDrawerImpl.obj
 0001:00024ad0       ?SetCOFreezeEvents@COPOSCashDrawer@@IAEXF@Z 10025ad0 f   CashDrawerImpl.obj
 0001:00024c10       ?FreezeEvents@COPOSCashDrawer@@MAGJH@Z 10025c10 f   CashDrawerImpl.obj
 0001:00024cd0       ?OnDraw@COPOSCashDrawer@@MAEJAAUATL_DRAWINFO@@@Z 10025cd0 f   CashDrawerImpl.obj
 0001:00024e70       ?SOProcessID@COPOSCashDrawer@@UAGJPAJ@Z 10025e70 f   CashDrawerImpl.obj
 0001:00024eb0       ?get_OpenResult@COPOSCashDrawer@@UAGJPAJ@Z 10025eb0 f   CashDrawerImpl.obj
 0001:00024ef0       ?get_CheckHealthText@COPOSCashDrawer@@UAGJPAPA_W@Z 10025ef0 f   CashDrawerImpl.obj
 0001:00024f20       ?get_Claimed@COPOSCashDrawer@@UAGJPAF@Z 10025f20 f   CashDrawerImpl.obj
 0001:00024f50       ?get_DeviceEnabled@COPOSCashDrawer@@UAGJPAF@Z 10025f50 f   CashDrawerImpl.obj
 0001:00024f80       ?put_DeviceEnabled@COPOSCashDrawer@@UAGJF@Z 10025f80 f   CashDrawerImpl.obj
 0001:00024fb0       ?get_FreezeEvents@COPOSCashDrawer@@UAGJPAF@Z 10025fb0 f   CashDrawerImpl.obj
 0001:00024fe0       ?put_FreezeEvents@COPOSCashDrawer@@UAGJF@Z 10025fe0 f   CashDrawerImpl.obj
 0001:00025070       ?get_ResultCode@COPOSCashDrawer@@UAGJPAJ@Z 10026070 f   CashDrawerImpl.obj
 0001:00025100       ?get_ResultCodeExtended@COPOSCashDrawer@@UAGJPAJ@Z 10026100 f   CashDrawerImpl.obj
 0001:00025130       ?get_State@COPOSCashDrawer@@UAGJPAJ@Z 10026130 f   CashDrawerImpl.obj
 0001:00025180       ?get_ControlObjectDescription@COPOSCashDrawer@@UAGJPAPA_W@Z 10026180 f   CashDrawerImpl.obj
 0001:00025200       ?get_ControlObjectVersion@COPOSCashDrawer@@UAGJPAJ@Z 10026200 f   CashDrawerImpl.obj
 0001:00025240       ?get_ServiceObjectDescription@COPOSCashDrawer@@UAGJPAPA_W@Z 10026240 f   CashDrawerImpl.obj
 0001:00025270       ?get_ServiceObjectVersion@COPOSCashDrawer@@UAGJPAJ@Z 10026270 f   CashDrawerImpl.obj
 0001:000252a0       ?get_DeviceDescription@COPOSCashDrawer@@UAGJPAPA_W@Z 100262a0 f   CashDrawerImpl.obj
 0001:000252d0       ?get_DeviceName@COPOSCashDrawer@@UAGJPAPA_W@Z 100262d0 f   CashDrawerImpl.obj
 0001:00025300       ?CheckHealth@COPOSCashDrawer@@UAGJJPAJ@Z 10026300 f   CashDrawerImpl.obj
 0001:000253a0       ?ClaimDevice@COPOSCashDrawer@@UAGJJPAJ@Z 100263a0 f   CashDrawerImpl.obj
 0001:00025480       ?Close@COPOSCashDrawer@@UAGJPAJ@Z 10026480 f   CashDrawerImpl.obj
 0001:00025550       ?DirectIO@COPOSCashDrawer@@UAGJJPAJPAPA_W0@Z 10026550 f   CashDrawerImpl.obj
 0001:00025660       ?Open@COPOSCashDrawer@@UAGJPA_WPAJ@Z 10026660 f   CashDrawerImpl.obj
 0001:00026840       ?ReleaseDevice@COPOSCashDrawer@@UAGJPAJ@Z 10027840 f   CashDrawerImpl.obj
 0001:000268a0       ?get_CapStatus@COPOSCashDrawer@@UAGJPAF@Z 100278a0 f   CashDrawerImpl.obj
 0001:000268d0       ?get_DrawerOpened@COPOSCashDrawer@@UAGJPAF@Z 100278d0 f   CashDrawerImpl.obj
 0001:00026900       ?OpenDrawer@COPOSCashDrawer@@UAGJPAJ@Z 10027900 f   CashDrawerImpl.obj
 0001:00026930       ?WaitForDrawerClose@COPOSCashDrawer@@UAGJJJJJPAJ@Z 10027930 f   CashDrawerImpl.obj
 0001:00026a40       ?get_BinaryConversion@COPOSCashDrawer@@UAGJPAJ@Z 10027a40 f   CashDrawerImpl.obj
 0001:00026a70       ?put_BinaryConversion@COPOSCashDrawer@@UAGJJ@Z 10027a70 f   CashDrawerImpl.obj
 0001:00026aa0       ?get_CapPowerReporting@COPOSCashDrawer@@UAGJPAJ@Z 10027aa0 f   CashDrawerImpl.obj
 0001:00026ad0       ?get_PowerNotify@COPOSCashDrawer@@UAGJPAJ@Z 10027ad0 f   CashDrawerImpl.obj
 0001:00026b00       ?put_PowerNotify@COPOSCashDrawer@@UAGJJ@Z 10027b00 f   CashDrawerImpl.obj
 0001:00026b30       ?get_PowerState@COPOSCashDrawer@@UAGJPAJ@Z 10027b30 f   CashDrawerImpl.obj
 0001:00026b60       ?get_CapStatusMultiDrawerDetect@COPOSCashDrawer@@UAGJPAF@Z 10027b60 f   CashDrawerImpl.obj
 0001:00026b90       ?get_CapStatisticsReporting@COPOSCashDrawer@@UAGJPAF@Z 10027b90 f   CashDrawerImpl.obj
 0001:00026bc0       ?get_CapUpdateStatistics@COPOSCashDrawer@@UAGJPAF@Z 10027bc0 f   CashDrawerImpl.obj
 0001:00026bf0       ?ResetStatistics@COPOSCashDrawer@@UAGJPA_WPAJ@Z 10027bf0 f   CashDrawerImpl.obj
 0001:00026ca0       ?RetrieveStatistics@COPOSCashDrawer@@UAGJPAPA_WPAJ@Z 10027ca0 f   CashDrawerImpl.obj
 0001:00026d50       ?UpdateStatistics@COPOSCashDrawer@@UAGJPA_WPAJ@Z 10027d50 f   CashDrawerImpl.obj
 0001:00026e00       ?get_CapCompareFirmwareVersion@COPOSCashDrawer@@UAGJPAF@Z 10027e00 f   CashDrawerImpl.obj
 0001:00026e30       ?get_CapUpdateFirmware@COPOSCashDrawer@@UAGJPAF@Z 10027e30 f   CashDrawerImpl.obj
 0001:00026e60       ?CompareFirmwareVersion@COPOSCashDrawer@@UAGJPA_WPAJ1@Z 10027e60 f   CashDrawerImpl.obj
 0001:00026f50       ?UpdateFirmware@COPOSCashDrawer@@UAGJPA_WPAJ@Z 10027f50 f   CashDrawerImpl.obj
 0001:00027000       ??0?$CComControl@VCOPOSCashDrawer@@V?$CWindowImpl@VCOPOSCashDrawer@@VCWindow@ATL@@V?$CWinTraits@$0FGAAAAAA@$0A@@3@@ATL@@@ATL@@QAE@XZ 10028000 f i CashDrawerImpl.obj
 0001:00027040       ??0?$CComPtr@UIAdviseSink@@@ATL@@QAE@XZ 10028040 f i CashDrawerImpl.obj
 0001:00027070       ??0?$CComPtr@UIDataAdviseHolder@@@ATL@@QAE@XZ 10028070 f i CashDrawerImpl.obj
 0001:000270a0       ??0?$CComPtr@UIOleAdviseHolder@@@ATL@@QAE@XZ 100280a0 f i CashDrawerImpl.obj
 0001:000270d0       ??0?$CComPtr@UIOleClientSite@@@ATL@@QAE@XZ 100280d0 f i CashDrawerImpl.obj
 0001:00027100       ??0?$CComPtr@UIOleInPlaceSiteWindowless@@@ATL@@QAE@XZ 10028100 f i CashDrawerImpl.obj
 0001:00027130       ??0?$CComPtrBase@UIAdviseSink@@@ATL@@IAE@XZ 10028130 f i CashDrawerImpl.obj
 0001:00027150       ??0?$CComPtrBase@UIDataAdviseHolder@@@ATL@@IAE@XZ 10028150 f i CashDrawerImpl.obj
 0001:00027170       ??0?$CComPtrBase@UIOleAdviseHolder@@@ATL@@IAE@XZ 10028170 f i CashDrawerImpl.obj
 0001:00027190       ??0?$CComPtrBase@UIOleClientSite@@@ATL@@IAE@XZ 10028190 f i CashDrawerImpl.obj
 0001:000271b0       ??0?$CComPtrBase@UIOleInPlaceSiteWindowless@@@ATL@@IAE@XZ 100281b0 f i CashDrawerImpl.obj
 0001:000271d0       ??0?$CComQIPtr@UIDispatch@@$1?_GUID_00020400_0000_0000_c000_000000000046@@3U__s_GUID@@B@ATL@@QAE@XZ 100281d0 f i CashDrawerImpl.obj
 0001:00027200       ??0?$CProxy_IOPOSEvents@VCOPOSCashDrawer@@@@QAE@PAVCOPOSCashDrawer@@@Z 10028200 f i CashDrawerImpl.obj
 0001:00027250       ??0?$CWindowImpl@VCOPOSCashDrawer@@VCWindow@ATL@@V?$CWinTraits@$0FGAAAAAA@$0A@@3@@ATL@@QAE@XZ 10028250 f i CashDrawerImpl.obj
 0001:00027280       ??0?$CWindowImplBaseT@VCWindow@ATL@@V?$CWinTraits@$0FGAAAAAA@$0A@@2@@ATL@@QAE@XZ 10028280 f i CashDrawerImpl.obj
 0001:000272c0       ??0?$CWindowImplRoot@VCWindow@ATL@@@ATL@@QAE@XZ 100282c0 f i CashDrawerImpl.obj
 0001:00027320       ??0?$IConnectionPointContainerImpl@VCOPOSCashDrawer@@@ATL@@QAE@XZ 10028320 f i CashDrawerImpl.obj
 0001:00027350       ??0?$IConnectionPointImpl@VCOPOSCashDrawer@@$1?DIID__IOPOSCashDrawerEvents@@3U_GUID@@BVCComDynamicUnkArray@ATL@@@ATL@@QAE@XZ 10028350 f i CashDrawerImpl.obj
 0001:00027390       ??0?$IConnectionPointImpl@VCOPOSCashDrawer@@$1?IID_IPropertyNotifySink@@3U_GUID@@BVCComDynamicUnkArray@ATL@@@ATL@@QAE@XZ 10028390 f i CashDrawerImpl.obj
 0001:000273d0       ??0?$IDataObjectImpl@VCOPOSCashDrawer@@@ATL@@QAE@XZ 100283d0 f i CashDrawerImpl.obj
 0001:00027400       ??0?$IDispatchImpl@UIOPOSCashDrawer@@$1?IID_IOPOSCashDrawer@@3U_GUID@@B$1?LIBID_OposCashDrawer_CCO@@3U3@B$00$0A@VCComTypeInfoHolder@ATL@@@ATL@@QAE@XZ 10028400 f i CashDrawerImpl.obj
 0001:00027430       ??0?$IObjectSafetyImpl@VCOPOSCashDrawer@@$02@ATL@@QAE@XZ 10028430 f i CashDrawerImpl.obj
 0001:00027470       ??0?$IOleControlImpl@VCOPOSCashDrawer@@@ATL@@QAE@XZ 10028470 f i CashDrawerImpl.obj
 0001:000274a0       ??0?$IOleInPlaceActiveObjectImpl@VCOPOSCashDrawer@@@ATL@@QAE@XZ 100284a0 f i CashDrawerImpl.obj
 0001:000274d0       ??0?$IOleInPlaceObjectWindowlessImpl@VCOPOSCashDrawer@@@ATL@@QAE@XZ 100284d0 f i CashDrawerImpl.obj
 0001:00027500       ??0?$IOleObjectImpl@VCOPOSCashDrawer@@@ATL@@QAE@XZ 10028500 f i CashDrawerImpl.obj
 0001:00027530       ??0?$IPersistStorageImpl@VCOPOSCashDrawer@@@ATL@@QAE@XZ 10028530 f i CashDrawerImpl.obj
 0001:00027560       ??0?$IPersistStreamInitImpl@VCOPOSCashDrawer@@@ATL@@QAE@XZ 10028560 f i CashDrawerImpl.obj
 0001:00027590       ??0?$IPropertyNotifySinkCP@VCOPOSCashDrawer@@VCComDynamicUnkArray@ATL@@@ATL@@QAE@XZ 10028590 f i CashDrawerImpl.obj
 0001:000275c0       ??0?$IProvideClassInfo2Impl@$1?CLSID_OPOSCashDrawer@@3U_GUID@@B$1?DIID__IOPOSCashDrawerEvents@@3U2@B$1?LIBID_OposCashDrawer_CCO@@3U2@B$00$0A@VCComTypeInfoHolder@ATL@@@ATL@@QAE@XZ 100285c0 f i CashDrawerImpl.obj
 0001:000275f0       ??0?$IQuickActivateImpl@VCOPOSCashDrawer@@@ATL@@QAE@XZ 100285f0 f i CashDrawerImpl.obj
 0001:00027620       ??0?$ISpecifyPropertyPagesImpl@VCOPOSCashDrawer@@@ATL@@QAE@XZ 10028620 f i CashDrawerImpl.obj
 0001:00027650       ??0?$IViewObjectExImpl@VCOPOSCashDrawer@@@ATL@@QAE@XZ 10028650 f i CashDrawerImpl.obj
 0001:00027680       ??0?$_ICPLocator@$1?DIID__IOPOSCashDrawerEvents@@3U_GUID@@B@ATL@@QAE@XZ 10028680 f i CashDrawerImpl.obj
 0001:000276a0       ??0?$_ICPLocator@$1?IID_IPropertyNotifySink@@3U_GUID@@B@ATL@@QAE@XZ 100286a0 f i CashDrawerImpl.obj
 0001:000276c0       ??0CComControlBase@ATL@@QAE@AAPAUHWND__@@@Z 100286c0 f i CashDrawerImpl.obj
 0001:00027870       ??0CComDynamicUnkArray@ATL@@QAE@XZ 10028870 f i CashDrawerImpl.obj
 0001:000278a0       ??0CDynamicStdCallThunk2@ATL@@QAE@XZ 100288a0 f i CashDrawerImpl.obj
 0001:000278c0       ??0CMessageMap@ATL@@QAE@XZ 100288c0 f i CashDrawerImpl.obj
 0001:000278e0       ??0CWindow@ATL@@QAE@PAUHWND__@@@Z 100288e0 f i CashDrawerImpl.obj
 0001:00027900       ??0CWndProcThunk@ATL@@QAE@XZ 10028900 f i CashDrawerImpl.obj
 0001:00027930       ??0IConnectionPointContainer@@QAE@XZ 10028930 f i CashDrawerImpl.obj
 0001:00027960       ??0IDataObject@@QAE@XZ     10028960 f i CashDrawerImpl.obj
 0001:00027990       ??0IDispatch@@QAE@XZ       10028990 f i CashDrawerImpl.obj
 0001:000279c0       ??0IOPOSCashDrawer@@QAE@XZ 100289c0 f i CashDrawerImpl.obj
 0001:000279f0       ??0IOPOSCashDrawer_1_5@@QAE@XZ 100289f0 f i CashDrawerImpl.obj
 0001:00027a20       ??0IOPOSCashDrawer_1_8@@QAE@XZ 10028a20 f i CashDrawerImpl.obj
 0001:00027a50       ??0IOPOSCashDrawer_1_9@@QAE@XZ 10028a50 f i CashDrawerImpl.obj
 0001:00027a80       ??0IObjectSafety@@QAE@XZ   10028a80 f i CashDrawerImpl.obj
 0001:00027ab0       ??0IOleControl@@QAE@XZ     10028ab0 f i CashDrawerImpl.obj
 0001:00027ae0       ??0IOleInPlaceActiveObject@@QAE@XZ 10028ae0 f i CashDrawerImpl.obj
 0001:00027b10       ??0IOleInPlaceObject@@QAE@XZ 10028b10 f i CashDrawerImpl.obj
 0001:00027b40       ??0IOleInPlaceObjectWindowless@@QAE@XZ 10028b40 f i CashDrawerImpl.obj
 0001:00027b70       ??0IOleObject@@QAE@XZ      10028b70 f i CashDrawerImpl.obj
 0001:00027ba0       ??0IOleWindow@@QAE@XZ      10028ba0 f i CashDrawerImpl.obj
 0001:00027bd0       ??0IPersist@@QAE@XZ        10028bd0 f i CashDrawerImpl.obj
 0001:00027c00       ??0IPersistStorage@@QAE@XZ 10028c00 f i CashDrawerImpl.obj
 0001:00027c30       ??0IPersistStreamInit@@QAE@XZ 10028c30 f i CashDrawerImpl.obj
 0001:00027c60       ??0IProvideClassInfo2@@QAE@XZ 10028c60 f i CashDrawerImpl.obj
 0001:00027c90       ??0IProvideClassInfo@@QAE@XZ 10028c90 f i CashDrawerImpl.obj
 0001:00027cc0       ??0IQuickActivate@@QAE@XZ  10028cc0 f i CashDrawerImpl.obj
 0001:00027cf0       ??0ISpecifyPropertyPages@@QAE@XZ 10028cf0 f i CashDrawerImpl.obj
 0001:00027d20       ??0IViewObject2@@QAE@XZ    10028d20 f i CashDrawerImpl.obj
 0001:00027d50       ??0IViewObject@@QAE@XZ     10028d50 f i CashDrawerImpl.obj
 0001:00027d80       ??0IViewObjectEx@@QAE@XZ   10028d80 f i CashDrawerImpl.obj
 0001:00027db0       ??0OposVariantResult@@QAE@XZ 10028db0 f i CashDrawerImpl.obj
 0001:00027de0       ??0_CW@@QAE@PBD@Z          10028de0 f i CashDrawerImpl.obj
 0001:00027e20       ??0_CW@@QAE@PB_W@Z         10028e20 f i CashDrawerImpl.obj
 0001:00027e60       ??0_CWNCC@@QAE@PBD@Z       10028e60 f i CashDrawerImpl.obj
 0001:00027e90       ??1?$CComControl@VCOPOSCashDrawer@@V?$CWindowImpl@VCOPOSCashDrawer@@VCWindow@ATL@@V?$CWinTraits@$0FGAAAAAA@$0A@@3@@ATL@@@ATL@@UAE@XZ 10028e90 f i CashDrawerImpl.obj
 0001:00027ec0       ??1?$CComPtr@UIDataAdviseHolder@@@ATL@@QAE@XZ 10028ec0 f i CashDrawerImpl.obj
 0001:00027ef0       ??1?$CComPtr@UIOleAdviseHolder@@@ATL@@QAE@XZ 10028ef0 f i CashDrawerImpl.obj
 0001:00027f20       ??1?$CComPtr@UIOleInPlaceSiteWindowless@@@ATL@@QAE@XZ 10028f20 f i CashDrawerImpl.obj
 0001:00027f50       ??1?$CComPtrBase@UIDataAdviseHolder@@@ATL@@QAE@XZ 10028f50 f i CashDrawerImpl.obj
 0001:00027fa0       ??1?$CComPtrBase@UIOleAdviseHolder@@@ATL@@QAE@XZ 10028fa0 f i CashDrawerImpl.obj
 0001:00027ff0       ??1?$CComPtrBase@UIOleInPlaceSiteWindowless@@@ATL@@QAE@XZ 10028ff0 f i CashDrawerImpl.obj
 0001:00028040       ??1?$CComQIPtr@UIDispatch@@$1?_GUID_00020400_0000_0000_c000_000000000046@@3U__s_GUID@@B@ATL@@QAE@XZ 10029040 f i CashDrawerImpl.obj
 0001:00028070       ??1?$CProxy_IOPOSEvents@VCOPOSCashDrawer@@@@QAE@XZ 10029070 f i CashDrawerImpl.obj
 0001:000280a0       ??1?$CWindowImpl@VCOPOSCashDrawer@@VCWindow@ATL@@V?$CWinTraits@$0FGAAAAAA@$0A@@3@@ATL@@UAE@XZ 100290a0 f i CashDrawerImpl.obj
 0001:000280d0       ??1?$CWindowImplBaseT@VCWindow@ATL@@V?$CWinTraits@$0FGAAAAAA@$0A@@2@@ATL@@UAE@XZ 100290d0 f i CashDrawerImpl.obj
 0001:00028100       ??1?$CWindowImplRoot@VCWindow@ATL@@@ATL@@UAE@XZ 10029100 f i CashDrawerImpl.obj
 0001:000281a0       ??1?$IConnectionPointImpl@VCOPOSCashDrawer@@$1?DIID__IOPOSCashDrawerEvents@@3U_GUID@@BVCComDynamicUnkArray@ATL@@@ATL@@QAE@XZ 100291a0 f i CashDrawerImpl.obj
 0001:00028220       ??1?$IConnectionPointImpl@VCOPOSCashDrawer@@$1?IID_IPropertyNotifySink@@3U_GUID@@BVCComDynamicUnkArray@ATL@@@ATL@@QAE@XZ 10029220 f i CashDrawerImpl.obj
 0001:000282a0       ??1?$IPropertyNotifySinkCP@VCOPOSCashDrawer@@VCComDynamicUnkArray@ATL@@@ATL@@QAE@XZ 100292a0 f i CashDrawerImpl.obj
 0001:000282d0       ??1CComControlBase@ATL@@UAE@XZ 100292d0 f i CashDrawerImpl.obj
 0001:00028390       ??1CComDynamicUnkArray@ATL@@QAE@XZ 10029390 f i CashDrawerImpl.obj
 0001:000283d0       ??1CDynamicStdCallThunk2@ATL@@QAE@XZ 100293d0 f i CashDrawerImpl.obj
 0001:00028400       ??1CWndProcThunk@ATL@@QAE@XZ 10029400 f i CashDrawerImpl.obj
 0001:00028430       ??1OposVariantResult@@QAE@XZ 10029430 f i CashDrawerImpl.obj
 0001:00028460       ??1_CW@@QAE@XZ             10029460 f i CashDrawerImpl.obj
 0001:000284d0       ??1_CWNCC@@QAE@XZ          100294d0 f i CashDrawerImpl.obj
 0001:00028500       ??B_CW@@QAEPB_WXZ          10029500 f i CashDrawerImpl.obj
 0001:00028540       ??B_CWNCC@@QAEPA_WXZ       10029540 f i CashDrawerImpl.obj
 0001:00028570       ??_EOposVariant@@QAEPAXI@Z 10029570 f i CashDrawerImpl.obj
 0001:00028600       ?EventClose@COPOSCashDrawer@@IAEXXZ 10029600 f i CashDrawerImpl.obj
 0001:000286a0       ?EventInit@COPOSCashDrawer@@IAEJXZ 100296a0 f i CashDrawerImpl.obj
 0001:000288d0       ?EventOpen@COPOSCashDrawer@@IAEXXZ 100298d0 f i CashDrawerImpl.obj
 0001:00028910       ?EventPreClose@COPOSCashDrawer@@IAEXXZ 10029910 f i CashDrawerImpl.obj
 0001:00028990       ?EventUninit@COPOSCashDrawer@@IAEXXZ 10029990 f i CashDrawerImpl.obj
 0001:00028ac0       ?EventWindowProc@COPOSCashDrawer@@IAGJIIJ@Z 10029ac0 f i CashDrawerImpl.obj
 0001:00028ba0       ?FireEventCleanup@COPOSCashDrawer@@IAEXXZ 10029ba0 f i CashDrawerImpl.obj
 0001:00028bf0       ?FireEventSetup@COPOSCashDrawer@@IAE_NXZ 10029bf0 f i CashDrawerImpl.obj
 0001:00028c60       ?GetModuleInstance@CComModule@ATL@@QAEPAUHINSTANCE__@@XZ 10029c60 f i CashDrawerImpl.obj
 0001:00028c80       ?SetRC@COPOSCashDrawer@@IAEJJ@Z 10029c80 f i CashDrawerImpl.obj
 0001:00028cb0       ?s_EventWindowProc@COPOSCashDrawer@@KGJPAUHWND__@@IIJ@Z 10029cb0 f i CashDrawerImpl.obj
 0001:00028d50       __snwprintf                10029d50 f i CashDrawerImpl.obj
 0001:00028db0       __vfwprintf_l              10029db0 f i CashDrawerImpl.obj
 0001:00028de0       __vsnwprintf               10029de0 f i CashDrawerImpl.obj
 0001:00028e10       __vsnwprintf_l             10029e10 f i CashDrawerImpl.obj
 0001:00028e80       _vfwprintf                 10029e80 f i CashDrawerImpl.obj
 0001:00028ea2       _DebugBreak@0              10029ea2 f   kernel32:KERNEL32.dll
 0001:00028ea8       _Sleep@4                   10029ea8 f   kernel32:KERNEL32.dll
 0001:00028eae       _GetCurrentProcess@0       10029eae f   kernel32:KERNEL32.dll
 0001:00028eb4       _TerminateProcess@8        10029eb4 f   kernel32:KERNEL32.dll
 0001:00028eba       _MultiByteToWideChar@24    10029eba f   kernel32:KERNEL32.dll
 0001:00028ec0       _WideCharToMultiByte@32    10029ec0 f   kernel32:KERNEL32.dll
 0001:00028ec6       _DecodePointer@4           10029ec6 f   kernel32:KERNEL32.dll
 0001:00028ecc       _RaiseException@16         10029ecc f   kernel32:KERNEL32.dll
 0001:00028ed2       _GetLastError@0            10029ed2 f   kernel32:KERNEL32.dll
 0001:00028ed8       _SetLastError@4            10029ed8 f   kernel32:KERNEL32.dll
 0001:00028ede       _InitializeCriticalSectionEx@12 10029ede f   kernel32:KERNEL32.dll
 0001:00028ee4       _DeleteCriticalSection@4   10029ee4 f   kernel32:KERNEL32.dll
 0001:00028eea       _EncodePointer@4           10029eea f   kernel32:KERNEL32.dll
 0001:00028ef0       _EnterCriticalSection@4    10029ef0 f   kernel32:KERNEL32.dll
 0001:00028ef6       _LeaveCriticalSection@4    10029ef6 f   kernel32:KERNEL32.dll
 0001:00028efc       _ResetEvent@4              10029efc f   kernel32:KERNEL32.dll
 0001:00028f02       _ReleaseMutex@4            10029f02 f   kernel32:KERNEL32.dll
 0001:00028f08       _WaitForSingleObject@8     10029f08 f   kernel32:KERNEL32.dll
 0001:00028f0e       _GetCurrentThreadId@0      10029f0e f   kernel32:KERNEL32.dll
 0001:00028f14       _DisableThreadLibraryCalls@4 10029f14 f   kernel32:KERNEL32.dll
 0001:00028f1a       _FreeLibrary@4             10029f1a f   kernel32:KERNEL32.dll
 0001:00028f20       _GetModuleFileNameW@12     10029f20 f   kernel32:KERNEL32.dll
 0001:00028f26       _GetModuleHandleW@4        10029f26 f   kernel32:KERNEL32.dll
 0001:00028f2c       _GetProcAddress@8          10029f2c f   kernel32:KERNEL32.dll
 0001:00028f32       _LoadLibraryExW@12         10029f32 f   kernel32:KERNEL32.dll
 0001:00028f38       _LoadResource@8            10029f38 f   kernel32:KERNEL32.dll
 0001:00028f3e       _SizeofResource@8          10029f3e f   kernel32:KERNEL32.dll
 0001:00028f44       _FindResourceW@12          10029f44 f   kernel32:KERNEL32.dll
 0001:00028f4a       _GlobalAlloc@8             10029f4a f   kernel32:KERNEL32.dll
 0001:00028f50       _GlobalUnlock@4            10029f50 f   kernel32:KERNEL32.dll
 0001:00028f56       _GlobalLock@4              10029f56 f   kernel32:KERNEL32.dll
 0001:00028f5c       _MulDiv@12                 10029f5c f   kernel32:KERNEL32.dll
 0001:00028f62       _lstrcmpiW@8               10029f62 f   kernel32:KERNEL32.dll
 0001:00028f68       _DeleteFileW@4             10029f68 f   kernel32:KERNEL32.dll
 0001:00028f6e       _CloseHandle@4             10029f6e f   kernel32:KERNEL32.dll
 0001:00028f74       _SetEvent@4                10029f74 f   kernel32:KERNEL32.dll
 0001:00028f7a       _CreateMutexW@12           10029f7a f   kernel32:KERNEL32.dll
 0001:00028f80       _CreateEventW@16           10029f80 f   kernel32:KERNEL32.dll
 0001:00028f86       _GetCurrentProcessId@0     10029f86 f   kernel32:KERNEL32.dll
 0001:00028f8c       _LocalFree@4               10029f8c f   kernel32:KERNEL32.dll
 0001:00028f92       _FormatMessageW@28         10029f92 f   kernel32:KERNEL32.dll
 0001:00028f98       _GetActiveWindow@0         10029f98 f   user32:USER32.dll
 0001:00028f9e       _MessageBoxW@16            10029f9e f   user32:USER32.dll
 0001:00028fa4       _UnregisterClassW@8        10029fa4 f   user32:USER32.dll
 0001:00028faa       _PostMessageW@16           10029faa f   user32:USER32.dll
 0001:00028fb0       _DefWindowProcW@16         10029fb0 f   user32:USER32.dll
 0001:00028fb6       _CallWindowProcW@20        10029fb6 f   user32:USER32.dll
 0001:00028fbc       _RegisterClassExW@4        10029fbc f   user32:USER32.dll
 0001:00028fc2       _GetClassInfoExW@12        10029fc2 f   user32:USER32.dll
 0001:00028fc8       _CreateWindowExW@48        10029fc8 f   user32:USER32.dll
 0001:00028fce       _IsWindow@4                10029fce f   user32:USER32.dll
 0001:00028fd4       _IsChild@8                 10029fd4 f   user32:USER32.dll
 0001:00028fda       _DestroyWindow@4           10029fda f   user32:USER32.dll
 0001:00028fe0       _ShowWindow@8              10029fe0 f   user32:USER32.dll
 0001:00028fe6       _SetWindowPos@28           10029fe6 f   user32:USER32.dll
 0001:00028fec       _CharNextW@4               10029fec f   user32:USER32.dll
 0001:00028ff2       _SetFocus@4                10029ff2 f   user32:USER32.dll
 0001:00028ff8       _GetFocus@0                10029ff8 f   user32:USER32.dll
 0001:00028ffe       _GetKeyState@4             10029ffe f   user32:USER32.dll
 0001:00029004       _GetDC@4                   1002a004 f   user32:USER32.dll
 0001:0002900a       _ReleaseDC@8               1002a00a f   user32:USER32.dll
 0001:00029010       _BeginPaint@8              1002a010 f   user32:USER32.dll
 0001:00029016       _EndPaint@8                1002a016 f   user32:USER32.dll
 0001:0002901c       _SetWindowRgn@12           1002a01c f   user32:USER32.dll
 0001:00029022       _InvalidateRect@12         1002a022 f   user32:USER32.dll
 0001:00029028       _GetClientRect@8           1002a028 f   user32:USER32.dll
 0001:0002902e       _IntersectRect@12          1002a02e f   user32:USER32.dll
 0001:00029034       _UnionRect@12              1002a034 f   user32:USER32.dll
 0001:0002903a       _OffsetRect@12             1002a03a f   user32:USER32.dll
 0001:00029040       _EqualRect@8               1002a040 f   user32:USER32.dll
 0001:00029046       _PtInRect@12               1002a046 f   user32:USER32.dll
 0001:0002904c       _GetWindowLongW@8          1002a04c f   user32:USER32.dll
 0001:00029052       _SetWindowLongW@12         1002a052 f   user32:USER32.dll
 0001:00029058       _GetParent@4               1002a058 f   user32:USER32.dll
 0001:0002905e       _LoadCursorW@8             1002a05e f   user32:USER32.dll
 0001:00029064       _PeekMessageW@20           1002a064 f   user32:USER32.dll
 0001:0002906a       _RegisterClassW@4          1002a06a f   user32:USER32.dll
 0001:00029070       _LoadBitmapW@8             1002a070 f   user32:USER32.dll
 0001:00029076       _CloseMetaFile@4           1002a076 f   gdi32:GDI32.dll
 0001:0002907c       _CreateDCW@16              1002a07c f   gdi32:GDI32.dll
 0001:00029082       _CreateMetaFileW@4         1002a082 f   gdi32:GDI32.dll
 0001:00029088       _CreateRectRgnIndirect@4   1002a088 f   gdi32:GDI32.dll
 0001:0002908e       _DeleteDC@4                1002a08e f   gdi32:GDI32.dll
 0001:00029094       _DeleteMetaFile@4          1002a094 f   gdi32:GDI32.dll
 0001:0002909a       _GetDeviceCaps@8           1002a09a f   gdi32:GDI32.dll
 0001:000290a0       _RestoreDC@8               1002a0a0 f   gdi32:GDI32.dll
 0001:000290a6       _SaveDC@4                  1002a0a6 f   gdi32:GDI32.dll
 0001:000290ac       _SetMapMode@8              1002a0ac f   gdi32:GDI32.dll
 0001:000290b2       _LPtoDP@12                 1002a0b2 f   gdi32:GDI32.dll
 0001:000290b8       _SetViewportOrgEx@16       1002a0b8 f   gdi32:GDI32.dll
 0001:000290be       _SetWindowExtEx@16         1002a0be f   gdi32:GDI32.dll
 0001:000290c4       _SetWindowOrgEx@16         1002a0c4 f   gdi32:GDI32.dll
 0001:000290ca       _BitBlt@36                 1002a0ca f   gdi32:GDI32.dll
 0001:000290d0       _CreateCompatibleDC@4      1002a0d0 f   gdi32:GDI32.dll
 0001:000290d6       _DeleteObject@4            1002a0d6 f   gdi32:GDI32.dll
 0001:000290dc       _SelectObject@8            1002a0dc f   gdi32:GDI32.dll
 0001:000290e2       _GetObjectW@12             1002a0e2 f   gdi32:GDI32.dll
 0001:000290e8       _RegCloseKey@4             1002a0e8 f   advapi32:ADVAPI32.dll
 0001:000290ee       _RegCreateKeyExW@36        1002a0ee f   advapi32:ADVAPI32.dll
 0001:000290f4       _RegDeleteKeyW@8           1002a0f4 f   advapi32:ADVAPI32.dll
 0001:000290fa       _RegDeleteValueW@8         1002a0fa f   advapi32:ADVAPI32.dll
 0001:00029100       _RegEnumKeyExW@32          1002a100 f   advapi32:ADVAPI32.dll
 0001:00029106       _RegOpenKeyExW@20          1002a106 f   advapi32:ADVAPI32.dll
 0001:0002910c       _RegQueryInfoKeyW@48       1002a10c f   advapi32:ADVAPI32.dll
 0001:00029112       _RegSetValueExW@24         1002a112 f   advapi32:ADVAPI32.dll
 0001:00029118       _RegQueryValueExW@24       1002a118 f   advapi32:ADVAPI32.dll
 0001:0002911e       _CoCreateInstance@20       1002a11e f   ole32:ole32.dll
 0001:00029124       _StringFromGUID2@12        1002a124 f   ole32:ole32.dll
 0001:0002912a       _CoTaskMemAlloc@4          1002a12a f   ole32:ole32.dll
 0001:00029130       _CoTaskMemRealloc@8        1002a130 f   ole32:ole32.dll
 0001:00029136       _CoTaskMemFree@4           1002a136 f   ole32:ole32.dll
 0001:0002913c       _ReadClassStm@8            1002a13c f   ole32:ole32.dll
 0001:00029142       _WriteClassStm@8           1002a142 f   ole32:ole32.dll
 0001:00029148       _CreateDataAdviseHolder@4  1002a148 f   ole32:ole32.dll
 0001:0002914e       _OleSaveToStream@8         1002a14e f   ole32:ole32.dll
 0001:00029154       _CreateOleAdviseHolder@4   1002a154 f   ole32:ole32.dll
 0001:0002915a       _OleRegGetUserType@12      1002a15a f   ole32:ole32.dll
 0001:00029160       _OleRegGetMiscStatus@12    1002a160 f   ole32:ole32.dll
 0001:00029166       _OleRegEnumVerbs@8         1002a166 f   ole32:ole32.dll
 0001:0002916c       _CLSIDFromProgID@8         1002a16c f   ole32:ole32.dll
 0001:00029172       _SysAllocString@4          1002a172 f   oleaut32:OLEAUT32.dll
 0001:00029178       _SysAllocStringLen@8       1002a178 f   oleaut32:OLEAUT32.dll
 0001:0002917e       _SysFreeString@4           1002a17e f   oleaut32:OLEAUT32.dll
 0001:00029184       _SysStringLen@4            1002a184 f   oleaut32:OLEAUT32.dll
 0001:0002918a       _VariantClear@4            1002a18a f   oleaut32:OLEAUT32.dll
 0001:00029190       _VariantCopyInd@8          1002a190 f   oleaut32:OLEAUT32.dll
 0001:00029196       _VariantChangeType@16      1002a196 f   oleaut32:OLEAUT32.dll
 0001:0002919c       _SysStringByteLen@4        1002a19c f   oleaut32:OLEAUT32.dll
 0001:000291a2       _SysAllocStringByteLen@8   1002a1a2 f   oleaut32:OLEAUT32.dll
 0001:000291a8       _VariantInit@4             1002a1a8 f   oleaut32:OLEAUT32.dll
 0001:000291ae       _VarUI4FromStr@16          1002a1ae f   oleaut32:OLEAUT32.dll
 0001:000291b4       _LoadTypeLib@8             1002a1b4 f   oleaut32:OLEAUT32.dll
 0001:000291ba       _LoadRegTypeLib@20         1002a1ba f   oleaut32:OLEAUT32.dll
 0001:000291c0       _RegisterTypeLib@12        1002a1c0 f   oleaut32:OLEAUT32.dll
 0001:000291c6       _UnRegisterTypeLib@20      1002a1c6 f   oleaut32:OLEAUT32.dll
 0001:000291cc       _OleCreatePropertyFrame@44 1002a1cc f   oleaut32:OLEAUT32.dll
 0001:000291e0       @_RTC_AllocaHelper@12      1002a1e0 f   LIBCMTD:stack.obj
 0001:00029220       @_RTC_CheckStackVars2@12   1002a220 f   LIBCMTD:stack.obj
 0001:00029300       @_RTC_CheckStackVars@8     1002a300 f   LIBCMTD:stack.obj
 0001:00029370       __RTC_CheckEsp             1002a370 f   LIBCMTD:stack.obj
 0001:000293b0       @__security_check_cookie@4 1002a3b0 f   LIBCMTD:secchk.obj
 0001:000293d0       __CRT_RTC_INIT             1002a3d0 f   LIBCMTD:init.obj
 0001:000293e0       __CRT_RTC_INITW            1002a3e0 f   LIBCMTD:init.obj
 0001:000293f0       __RTC_InitBase             1002a3f0 f   LIBCMTD:init.obj
 0001:00029420       __RTC_Shutdown             1002a420 f   LIBCMTD:init.obj
 0001:00029440       ??_U@YAPAXI@Z              1002a440 f   LIBCMTD:new_array.obj
 0001:00029460       ??3@YAXPAXI@Z              1002a460 f   LIBCMTD:delete_scalar_size.obj
 0001:00029480       ??_V@YAXPAX@Z              1002a480 f   LIBCMTD:delete_array.obj
 0001:000294a0       ??_V@YAXPAXI@Z             1002a4a0 f   LIBCMTD:delete_array_size.obj
 0001:000294c0       ?configure_argv@__scrt_narrow_argv_policy@@SAHXZ 1002a4c0 f i LIBCMTD:utility.obj
 0001:00029570       ?initialize_environment@__scrt_narrow_environment_policy@@SAHXZ 1002a570 f i LIBCMTD:utility.obj
 0001:000295f0       _NtCurrentTeb              1002a5f0 f i LIBCMTD:utility.obj
 0001:00029600       ___scrt_acquire_startup_lock 1002a600 f   LIBCMTD:utility.obj
 0001:00029650       ___scrt_dllmain_after_initialize_c 1002a650 f   LIBCMTD:utility.obj
 0001:00029680       ___scrt_dllmain_before_initialize_c 1002a680 f   LIBCMTD:utility.obj
 0001:000296a0       ___scrt_dllmain_crt_thread_attach 1002a6a0 f   LIBCMTD:utility.obj
 0001:000296d0       ___scrt_dllmain_crt_thread_detach 1002a6d0 f   LIBCMTD:utility.obj
 0001:000296f0       ___scrt_dllmain_exception_filter 1002a6f0 f   LIBCMTD:utility.obj
 0001:00029740       ___scrt_dllmain_uninitialize_c 1002a740 f   LIBCMTD:utility.obj
 0001:00029770       ___scrt_dllmain_uninitialize_critical 1002a770 f   LIBCMTD:utility.obj
 0001:00029790       ___scrt_initialize_crt     1002a790 f   LIBCMTD:utility.obj
 0001:000297e0       ___scrt_initialize_onexit_tables 1002a7e0 f   LIBCMTD:utility.obj
 0001:000298c0       ___scrt_is_nonwritable_in_current_image 1002a8c0 f   LIBCMTD:utility.obj
 0001:000299f0       ___scrt_release_startup_lock 1002a9f0 f   LIBCMTD:utility.obj
 0001:00029a20       ___scrt_uninitialize_crt   1002aa20 f   LIBCMTD:utility.obj
 0001:00029a60       __onexit                   1002aa60 f   LIBCMTD:utility.obj
 0001:00029ad0       _at_quick_exit             1002aad0 f   LIBCMTD:utility.obj
 0001:00029b10       _atexit                    1002ab10 f   LIBCMTD:utility.obj
 0001:00029b40       ??3@YAXPAX@Z               1002ab40 f   LIBCMTD:delete_scalar.obj
 0001:00029b60       ___raise_securityfailure   1002ab60 f   LIBCMTD:gs_report.obj
 0001:00029b90       ___report_gsfailure        1002ab90 f   LIBCMTD:gs_report.obj
 0001:00029ca0       ___report_rangecheckfailure 1002aca0 f   LIBCMTD:gs_report.obj
 0001:00029cb0       ___report_securityfailure  1002acb0 f   LIBCMTD:gs_report.obj
 0001:00029d90       ___report_securityfailureEx 1002ad90 f   LIBCMTD:gs_report.obj
 0001:00029fe0       __Init_thread_abort        1002afe0 f   LIBCMTD:thread_safe_statics.obj
 0001:0002a000       __Init_thread_footer       1002b000 f   LIBCMTD:thread_safe_statics.obj
 0001:0002a050       __Init_thread_header       1002b050 f   LIBCMTD:thread_safe_statics.obj
 0001:0002a0c0       __Init_thread_lock         1002b0c0 f   LIBCMTD:thread_safe_statics.obj
 0001:0002a0d0       __Init_thread_notify       1002b0d0 f   LIBCMTD:thread_safe_statics.obj
 0001:0002a120       __Init_thread_unlock       1002b120 f   LIBCMTD:thread_safe_statics.obj
 0001:0002a130       __Init_thread_wait         1002b130 f   LIBCMTD:thread_safe_statics.obj
 0001:0002a1c0       ??2@YAPAXIABUnothrow_t@std@@@Z 1002b1c0 f   LIBCMTD:new_scalar_nothrow.obj
 0001:0002a240       ??_U@YAPAXIABUnothrow_t@std@@@Z 1002b240 f   LIBCMTD:new_array_nothrow.obj
 0001:0002a260       __allmul                   1002b260 f   LIBCMTD:llmul.obj
 0001:0002a2a0       __alloca_probe_16          1002b2a0 f   LIBCMTD:alloca16.obj
 0001:0002a2b6       __alloca_probe_8           1002b2b6     LIBCMTD:alloca16.obj
 0001:0002a2d0       __alloca_probe             1002b2d0 f   LIBCMTD:chkstk.obj
 0001:0002a2d0       __chkstk                   1002b2d0 f   LIBCMTD:chkstk.obj
 0001:0002a7b0       __CRT_INIT@12              1002b7b0 f   LIBCMTD:dll_dllmain.obj
 0001:0002a7d0       __DllMainCRTStartup@12     1002b7d0 f   LIBCMTD:dll_dllmain.obj
 0001:0002a890       ?_RTC_AllocaFailure@@YAXPAXPAU_RTC_ALLOCA_NODE@@H@Z 1002b890 f   LIBCMTD:error.obj
 0001:0002a980       ?_RTC_Failure@@YAXPAXH@Z   1002b980 f   LIBCMTD:error.obj
 0001:0002a9d0       ?_RTC_StackFailure@@YAXPAXPBD@Z 1002b9d0 f   LIBCMTD:error.obj
 0001:0002ad90       __RTC_UninitUse            1002bd90 f   LIBCMTD:error.obj
 0001:0002ae40       __vsprintf_s_l             1002be40 f i LIBCMTD:error.obj
 0001:0002ae70       _sprintf_s                 1002be70 f i LIBCMTD:error.obj
 0001:0002ae90       ?_RTC_GetErrorFunc@@YAP6AHHPBDH00ZZPBX@Z 1002be90 f   LIBCMTD:userapi.obj
 0001:0002aea0       ?_RTC_GetErrorFuncW@@YAP6AHHPB_WH00ZZPBX@Z 1002bea0 f   LIBCMTD:userapi.obj
 0001:0002aeb0       __RTC_GetErrDesc           1002beb0 f   LIBCMTD:userapi.obj
 0001:0002aed0       __RTC_NumErrors            1002bed0 f   LIBCMTD:userapi.obj
 0001:0002aee0       __RTC_SetErrorFunc         1002bee0 f   LIBCMTD:userapi.obj
 0001:0002af00       __RTC_SetErrorFuncW        1002bf00 f   LIBCMTD:userapi.obj
 0001:0002af20       __RTC_SetErrorType         1002bf20 f   LIBCMTD:userapi.obj
 0001:0002af50       ??2@YAPAXI@Z               1002bf50 f   LIBCMTD:new_scalar.obj
 0001:0002afa0       ___isa_available_init      1002bfa0 f   LIBCMTD:cpu_disp.obj
 0001:0002b280       __get_startup_argv_mode    1002c280 f   LIBCMTD:argv_mode.obj
 0001:0002b290       ___scrt_is_ucrt_dll_in_use 1002c290 f   LIBCMTD:ucrt_detection.obj
 0001:0002b2c0       ___scrt_fastfail           1002c2c0 f   LIBCMTD:utility_desktop.obj
 0001:0002b400       ___scrt_get_show_window_mode 1002c400 f   LIBCMTD:utility_desktop.obj
 0001:0002b440       ___scrt_initialize_mta     1002c440 f   LIBCMTD:utility_desktop.obj
 0001:0002b450       ___scrt_initialize_winrt   1002c450 f   LIBCMTD:utility_desktop.obj
 0001:0002b460       ___scrt_is_managed_app     1002c460 f   LIBCMTD:utility_desktop.obj
 0001:0002b4f0       ___scrt_set_unhandled_exception_filter 1002c4f0 f   LIBCMTD:utility_desktop.obj
 0001:0002b500       ___scrt_stub_for_initialize_mta 1002c500 f   LIBCMTD:utility_desktop.obj
 0001:0002b500       ___scrt_exe_initialize_mta 1002c500 f   LIBCMTD:utility_desktop.obj
 0001:0002b510       ___scrt_unhandled_exception_filter@4 1002c510 f   LIBCMTD:utility_desktop.obj
 0001:0002b570       __crt_debugger_hook        1002c570 f   LIBCMTD:utility_desktop.obj
 0001:0002b580       @_guard_check_icall_nop@4  1002c580 f i LIBCMTD:guard_support.obj
 0001:0002b590       _ReadNoFence               1002c590 f i LIBCMTD:guard_support.obj
 0001:0002b5b0       _ReadPointerNoFence        1002c5b0 f i LIBCMTD:guard_support.obj
 0001:0002b5d0       __guard_icall_checks_enforced 1002c5d0 f i LIBCMTD:guard_support.obj
 0001:0002b670       ___security_init_cookie    1002c670 f   LIBCMTD:gs_support.obj
 0001:0002b6f0       ?__scrt_initialize_type_info@@YAXXZ 1002c6f0 f   LIBCMTD:tncleanup.obj
 0001:0002b700       ?__scrt_uninitialize_type_info@@YAXXZ 1002c700 f   LIBCMTD:tncleanup.obj
 0001:0002b720       ___local_stdio_scanf_options 1002c720 f i LIBCMTD:default_local_stdio_options.obj
 0001:0002b730       ___scrt_initialize_default_local_stdio_options 1002c730 f   LIBCMTD:default_local_stdio_options.obj
 0001:0002b770       ___scrt_get_dyn_tls_init_callback 1002c770 f   LIBCMTD:dyn_tls_init.obj
 0001:0002b780       __RTC_Initialize           1002c780 f   LIBCMTD:initsect.obj
 0001:0002b7b0       __RTC_Terminate            1002c7b0 f   LIBCMTD:initsect.obj
 0001:0002bc60       ?_RTC_GetSrcLine@@YAHPAEPA_WKPAH1K@Z 1002cc60 f   LIBCMTD:pdblkup.obj
 0001:0002bff0       __except_handler4_noexcept 1002cff0 f   LIBCMTD:chandler4_noexcept.obj
 0001:0002c040       ??0bad_alloc@std@@AAE@QBD@Z 1002d040 f i LIBCMTD:throw_bad_alloc.obj
 0001:0002c070       ??0bad_alloc@std@@QAE@ABV01@@Z 1002d070 f i LIBCMTD:throw_bad_alloc.obj
 0001:0002c0a0       ??0bad_alloc@std@@QAE@XZ   1002d0a0 f i LIBCMTD:throw_bad_alloc.obj
 0001:0002c0d0       ??0bad_array_new_length@std@@QAE@ABV01@@Z 1002d0d0 f i LIBCMTD:throw_bad_alloc.obj
 0001:0002c100       ??0bad_array_new_length@std@@QAE@XZ 1002d100 f i LIBCMTD:throw_bad_alloc.obj
 0001:0002c130       ??0exception@std@@QAE@ABV01@@Z 1002d130 f i LIBCMTD:throw_bad_alloc.obj
 0001:0002c170       ??0exception@std@@QAE@QBDH@Z 1002d170 f i LIBCMTD:throw_bad_alloc.obj
 0001:0002c1a0       ??1bad_alloc@std@@UAE@XZ   1002d1a0 f i LIBCMTD:throw_bad_alloc.obj
 0001:0002c1c0       ??1bad_array_new_length@std@@UAE@XZ 1002d1c0 f i LIBCMTD:throw_bad_alloc.obj
 0001:0002c1e0       ??1exception@std@@UAE@XZ   1002d1e0 f i LIBCMTD:throw_bad_alloc.obj
 0001:0002c210       ??_Ebad_alloc@std@@UAEPAXI@Z 1002d210 f i LIBCMTD:throw_bad_alloc.obj
 0001:0002c210       ??_Gbad_alloc@std@@UAEPAXI@Z 1002d210 f i LIBCMTD:throw_bad_alloc.obj
 0001:0002c240       ??_Gbad_array_new_length@std@@UAEPAXI@Z 1002d240 f i LIBCMTD:throw_bad_alloc.obj
 0001:0002c240       ??_Ebad_array_new_length@std@@UAEPAXI@Z 1002d240 f i LIBCMTD:throw_bad_alloc.obj
 0001:0002c270       ??_Gexception@std@@UAEPAXI@Z 1002d270 f i LIBCMTD:throw_bad_alloc.obj
 0001:0002c270       ??_Eexception@std@@UAEPAXI@Z 1002d270 f i LIBCMTD:throw_bad_alloc.obj
 0001:0002c2a0       ?__scrt_throw_std_bad_alloc@@YAXXZ 1002d2a0 f   LIBCMTD:throw_bad_alloc.obj
 0001:0002c2c0       ?__scrt_throw_std_bad_array_new_length@@YAXXZ 1002d2c0 f   LIBCMTD:throw_bad_alloc.obj
 0001:0002c2e0       ?what@exception@std@@UBEPBDXZ 1002d2e0 f i LIBCMTD:throw_bad_alloc.obj
 0001:0002c310       ??1type_info@@UAE@XZ       1002d310 f   LIBCMTD:std_type_info_static.obj
 0001:0002c330       ??_Etype_info@@UAEPAXI@Z   1002d330 f i LIBCMTD:std_type_info_static.obj
 0001:0002c330       ??_Gtype_info@@UAEPAXI@Z   1002d330 f i LIBCMTD:std_type_info_static.obj
 0001:0002c35e       ??$?2PAUHINSTANCE__@@@Wrapper@?$CSimpleArray@PAUHINSTANCE__@@V?$CSimpleArrayEqualHelper@PAUHINSTANCE__@@@ATL@@@ATL@@SAPAXIPAPAUHINSTANCE__@@@Z 1002d35e f i atls:atlbase.obj
 0001:0002c366       ??0?$CSimpleArray@PAUHINSTANCE__@@V?$CSimpleArrayEqualHelper@PAUHINSTANCE__@@@ATL@@@ATL@@QAE@XZ 1002d366 f i atls:atlbase.obj
 0001:0002c373       ??0CAtlBaseModule@ATL@@QAE@XZ 1002d373 f   atls:atlbase.obj
 0001:0002c3c6       ??0Wrapper@?$CSimpleArray@PAUHINSTANCE__@@V?$CSimpleArrayEqualHelper@PAUHINSTANCE__@@@ATL@@@ATL@@QAE@ABQAUHINSTANCE__@@@Z 1002d3c6 f i atls:atlbase.obj
 0001:0002c3d6       ??0_ATL_BASE_MODULE70@ATL@@QAE@XZ 1002d3d6 f i atls:atlbase.obj
 0001:0002c3f9       ??1?$CSimpleArray@PAUHINSTANCE__@@V?$CSimpleArrayEqualHelper@PAUHINSTANCE__@@@ATL@@@ATL@@QAE@XZ 1002d3f9 f i atls:atlbase.obj
 0001:0002c3fe       ??1CAtlBaseModule@ATL@@QAE@XZ 1002d3fe f   atls:atlbase.obj
 0001:0002c414       ??1_ATL_BASE_MODULE70@ATL@@QAE@XZ 1002d414 f i atls:atlbase.obj
 0001:0002c41c       ??A?$CSimpleArray@PAUHINSTANCE__@@V?$CSimpleArrayEqualHelper@PAUHINSTANCE__@@@ATL@@@ATL@@QAEAAPAUHINSTANCE__@@H@Z 1002d41c f i atls:atlbase.obj
 0001:0002c441       ?Add@?$CSimpleArray@PAUHINSTANCE__@@V?$CSimpleArrayEqualHelper@PAUHINSTANCE__@@@ATL@@@ATL@@QAEHABQAUHINSTANCE__@@@Z 1002d441 f i atls:atlbase.obj
 0001:0002c4c3       ?AddResourceInstance@CAtlBaseModule@ATL@@QAE_NPAUHINSTANCE__@@@Z 1002d4c3 f   atls:atlbase.obj
 0001:0002c4f6       ?GetHInstanceAt@CAtlBaseModule@ATL@@QAEPAUHINSTANCE__@@H@Z 1002d4f6 f   atls:atlbase.obj
 0001:0002c53b       ?GetSize@?$CSimpleArray@PAUHINSTANCE__@@V?$CSimpleArrayEqualHelper@PAUHINSTANCE__@@@ATL@@@ATL@@QBEHXZ 1002d53b f i atls:atlbase.obj
 0001:0002c53f       ?InternalSetAtIndex@?$CSimpleArray@PAUHINSTANCE__@@V?$CSimpleArrayEqualHelper@PAUHINSTANCE__@@@ATL@@@ATL@@QAEXHABQAUHINSTANCE__@@@Z 1002d53f f i atls:atlbase.obj
 0001:0002c559       ?RemoveAll@?$CSimpleArray@PAUHINSTANCE__@@V?$CSimpleArrayEqualHelper@PAUHINSTANCE__@@@ATL@@@ATL@@QAEXXZ 1002d559 f i atls:atlbase.obj
 0001:0002c576       ?RemoveAt@?$CSimpleArray@PAUHINSTANCE__@@V?$CSimpleArrayEqualHelper@PAUHINSTANCE__@@@ATL@@@ATL@@QAEHH@Z 1002d576 f i atls:atlbase.obj
 0001:0002c5c4       ?RemoveResourceInstance@CAtlBaseModule@ATL@@QAE_NPAUHINSTANCE__@@@Z 1002d5c4 f   atls:atlbase.obj
 0001:0002c621       ?memmove_s@Checked@ATL@@YAXPAXIPBXI@Z 1002d621 f i atls:atlbase.obj
 0001:0002c97e       ?GetCodeAddress@_stdcallthunk@ATL@@QAEPAXXZ 1002d97e f i atls:atlthunk.obj
 0001:0002c9a8       ?Init@_stdcallthunk@ATL@@QAEHKPAX@Z 1002d9a8 f i atls:atlthunk.obj
 0001:0002c9dd       ?__AllocStdCallThunk@@YGPAXXZ 1002d9dd f   atls:atlthunk.obj
 0001:0002c9e2       ?__AllocStdCallThunk@ATL@@YGPAXXZ 1002d9e2 f   atls:atlthunk.obj
 0001:0002c9e7       ?__AllocStdCallThunk_cmn@@YAPAXXZ 1002d9e7 f   atls:atlthunk.obj
 0001:0002caad       ?__FreeStdCallThunk@@YGXPAX@Z 1002daad f   atls:atlthunk.obj
 0001:0002cabd       ?__FreeStdCallThunk@ATL@@YGXPAX@Z 1002dabd f   atls:atlthunk.obj
 0001:0002cacd       ?__FreeStdCallThunk_cmn@@YAXPAX@Z 1002dacd f   atls:atlthunk.obj
 0001:0002cb68       _AtlThunk_AllocateData@0   1002db68 f   atls:atlthunk.obj
 0001:0002cbcd       _AtlThunk_DataToCode@4     1002dbcd f   atls:atlthunk.obj
 0001:0002cc14       _AtlThunk_FreeData@4       1002dc14 f   atls:atlthunk.obj
 0001:0002cc6a       _AtlThunk_InitData@12      1002dc6a f   atls:atlthunk.obj
 0001:0002ccb9       _MemoryBarrier             1002dcb9 f i atls:atlthunk.obj
 0001:0002ccc7       __InlineInterlockedCompareExchangePointer 1002dcc7 f i atls:atlthunk.obj
 0001:0002cce0       _memset                    1002dce0 f   libvcruntimed:memset.obj
 0001:0002ce40       ??$__crt_interlocked_exchange_pointer@$$A6AXXZP6AXXZ@@YAP6AXXZPDS6AXXZQ6AXXZ@Z 1002de40 f i libvcruntimed:purevirt.obj
 0001:0002ce50       ??$__crt_interlocked_read_pointer@$$A6AXXZ@@YAP6AXXZPDS6AXXZ@Z 1002de50 f i libvcruntimed:purevirt.obj
 0001:0002ce70       ?__crt_interlocked_read_32@@YAHPDH@Z 1002de70 f i libvcruntimed:purevirt.obj
 0001:0002ce90       __get_purecall_handler     1002de90 f   libvcruntimed:purevirt.obj
 0001:0002ceb0       __purecall                 1002deb0 f   libvcruntimed:purevirt.obj
 0001:0002cee0       __set_purecall_handler     1002dee0 f   libvcruntimed:purevirt.obj
 0001:0002d0b0       _memcmp                    1002e0b0 f   libvcruntimed:memcmp.obj
 0001:0002d980       _memcpy                    1002e980 f   libvcruntimed:memcpy.obj
 0001:0002df00       _wcsstr                    1002ef00 f   libvcruntimed:wcsstr.obj
 0001:0002e430       __except_handler4          1002f430 f   libvcruntimed:chandler4.obj
 0001:0002e620       ___vcrt_initialize         1002f620 f   libvcruntimed:initialization.obj
 0001:0002e660       ___vcrt_thread_attach      1002f660 f   libvcruntimed:initialization.obj
 0001:0002e680       ___vcrt_thread_detach      1002f680 f   libvcruntimed:initialization.obj
 0001:0002e6a0       ___vcrt_uninitialize       1002f6a0 f   libvcruntimed:initialization.obj
 0001:0002e6c0       ___vcrt_uninitialize_critical 1002f6c0 f   libvcruntimed:initialization.obj
 0001:0002e6e0       ??$?0AAViterator@TryBlockMap@__FrameHandler3@@AAV012@$0A@@?$pair@Viterator@TryBlockMap@__FrameHandler3@@V123@@std@@QAE@AAViterator@TryBlockMap@__FrameHandler3@@0@Z 1002f6e0 f i libvcruntimed:trnsctrl.obj
 0001:0002e730       ??$forward@AAViterator@TryBlockMap@__FrameHandler3@@@std@@YAAAViterator@TryBlockMap@__FrameHandler3@@AAV123@@Z 1002f730 f i libvcruntimed:trnsctrl.obj
 0001:0002e740       ??0iterator@TryBlockMap@__FrameHandler3@@QAE@AAV12@I@Z 1002f740 f i libvcruntimed:trnsctrl.obj
 0001:0002e770       ?GetRangeOfTrysToCheck@__FrameHandler3@@SA?AU?$pair@Viterator@TryBlockMap@__FrameHandler3@@V123@@std@@AAVTryBlockMap@1@HPAXPBU_s_FuncInfo@@H@Z 1002f770 f   libvcruntimed:trnsctrl.obj
 0001:0002e850       ?_CallCatchBlock2@@YAPAXPAUEHRegistrationNode@@PBU_s_FuncInfo@@PAXHK@Z 1002f850 f   libvcruntimed:trnsctrl.obj
 0001:0002e8c0       ?_CallSETranslator@@YAHPAUEHExceptionRecord@@PAUEHRegistrationNode@@PAX2PBU_s_FuncInfo@@H1@Z 1002f8c0 f   libvcruntimed:trnsctrl.obj
 0001:0002e9c0       ?_JumpToContinuation@@YGXPAXPAUEHRegistrationNode@@@Z 1002f9c0 f   libvcruntimed:trnsctrl.obj
 0001:0002ea00       ?_UnwindNestedFrames@@YGXPAUEHRegistrationNode@@PAUEHExceptionRecord@@@Z 1002fa00 f   libvcruntimed:trnsctrl.obj
 0001:0002ea60       __CatchGuardHandler        1002fa60 f   libvcruntimed:trnsctrl.obj
 0001:0002eab0       __CreateFrameInfo          1002fab0 f   libvcruntimed:trnsctrl.obj
 0001:0002eae0       __FindAndUnlinkFrame       1002fae0 f   libvcruntimed:trnsctrl.obj
 0001:0002eb60       __TranslatorGuardHandler   1002fb60 f   libvcruntimed:trnsctrl.obj
 0001:0002ec10       ___CxxFrameHandler         1002fc10 f   libvcruntimed:trnsctrl.obj
 0001:0002ec50       ___CxxFrameHandler2        1002fc50 f   libvcruntimed:trnsctrl.obj
 0001:0002ec90       ___CxxFrameHandler3        1002fc90 f   libvcruntimed:trnsctrl.obj
 0001:0002ecd0       ___CxxLongjmpUnwind@4      1002fcd0 f   libvcruntimed:trnsctrl.obj
 0001:0002ed10       ?<lambda_invoker_cdecl>@_Closure_wrapper_b3626920_1@@CAPAXI@Z 1002fd10 f i libvcruntimed:std_type_info.obj
 0001:0002ed20       ?<lambda_invoker_cdecl>@_Closure_wrapper_b3626920_2@@CAXQAX@Z 1002fd20 f i libvcruntimed:std_type_info.obj
 0001:0002ed30       ??$?RD@__crt_internal_free_policy@@QBEXQBD@Z 1002fd30 f i libvcruntimed:std_type_info.obj
 0001:0002ed50       ??$?RX@__crt_internal_free_policy@@QBEXQBX@Z 1002fd50 f i libvcruntimed:std_type_info.obj
 0001:0002ed70       ??$__crt_interlocked_compare_exchange_pointer@$$CBDPAD$$T@@YAPBDPDSBDQAD$$T@Z 1002fd70 f i libvcruntimed:std_type_info.obj
 0001:0002ed90       ??$__crt_interlocked_read_pointer@$$CBD@@YAPBDPDSBD@Z 1002fd90 f i libvcruntimed:std_type_info.obj
 0001:0002edb0       ??0?$__crt_unique_heap_ptr@DU__crt_internal_free_policy@@@@QAE@QAD@Z 1002fdb0 f i libvcruntimed:std_type_info.obj
 0001:0002edd0       ??0?$__crt_unique_heap_ptr@XU__crt_internal_free_policy@@@@QAE@QAX@Z 1002fdd0 f i libvcruntimed:std_type_info.obj
 0001:0002edf0       ??1?$__crt_unique_heap_ptr@DU__crt_internal_free_policy@@@@QAE@XZ 1002fdf0 f i libvcruntimed:std_type_info.obj
 0001:0002ee10       ??1?$__crt_unique_heap_ptr@XU__crt_internal_free_policy@@@@QAE@XZ 1002fe10 f i libvcruntimed:std_type_info.obj
 0001:0002ee30       ??B?$__crt_unique_heap_ptr@DU__crt_internal_free_policy@@@@QBE_NXZ 1002fe30 f i libvcruntimed:std_type_info.obj
 0001:0002ee50       ??B?$__crt_unique_heap_ptr@XU__crt_internal_free_policy@@@@QBE_NXZ 1002fe50 f i libvcruntimed:std_type_info.obj
 0001:0002ee70       ??B_Closure_wrapper_b3626920_1@@QBEP6APAXI@ZXZ 1002fe70 f i libvcruntimed:std_type_info.obj
 0001:0002ee80       ??B_Closure_wrapper_b3626920_2@@QBEP6AXQAX@ZXZ 1002fe80 f i libvcruntimed:std_type_info.obj
 0001:0002eee0       ?detach@?$__crt_unique_heap_ptr@XU__crt_internal_free_policy@@@@QAEPAXXZ 1002fee0 f i libvcruntimed:std_type_info.obj
 0001:0002ef10       ?get@?$__crt_unique_heap_ptr@DU__crt_internal_free_policy@@@@QBEPADXZ 1002ff10 f i libvcruntimed:std_type_info.obj
 0001:0002ef20       ?get@?$__crt_unique_heap_ptr@XU__crt_internal_free_policy@@@@QBEPAXXZ 1002ff20 f i libvcruntimed:std_type_info.obj
 0001:0002ef30       ?is_valid@?$__crt_unique_heap_ptr@DU__crt_internal_free_policy@@@@QBE_NXZ 1002ff30 f i libvcruntimed:std_type_info.obj
 0001:0002ef60       ?is_valid@?$__crt_unique_heap_ptr@XU__crt_internal_free_policy@@@@QBE_NXZ 1002ff60 f i libvcruntimed:std_type_info.obj
 0001:0002ef90       ?release@?$__crt_unique_heap_ptr@DU__crt_internal_free_policy@@@@QAEXXZ 1002ff90 f i libvcruntimed:std_type_info.obj
 0001:0002efc0       ?release@?$__crt_unique_heap_ptr@XU__crt_internal_free_policy@@@@QAEXXZ 1002ffc0 f i libvcruntimed:std_type_info.obj
 0001:0002eff0       ___std_type_info_compare   1002fff0 f   libvcruntimed:std_type_info.obj
 0001:0002f020       ___std_type_info_destroy_list 10030020 f   libvcruntimed:std_type_info.obj
 0001:0002f060       ___std_type_info_hash      10030060 f   libvcruntimed:std_type_info.obj
 0001:0002f0c0       ___std_type_info_name      100300c0 f   libvcruntimed:std_type_info.obj
 0001:0002f2a0       ___vcrt_GetModuleFileNameW 100302a0 f   libvcruntimed:winapi_thunks.obj
 0001:0002f2c0       ___vcrt_GetModuleHandleW   100302c0 f   libvcruntimed:winapi_thunks.obj
 0001:0002f2d0       ___vcrt_LoadLibraryExW     100302d0 f   libvcruntimed:winapi_thunks.obj
 0001:0002f2f0       ??$?RD@__crt_public_free_policy@@QBEXQBD@Z 100302f0 f i libvcruntimed:std_exception.obj
 0001:0002f310       ??0?$__crt_unique_heap_ptr@DU__crt_public_free_policy@@@@QAE@QAD@Z 10030310 f i libvcruntimed:std_exception.obj
 0001:0002f330       ??1?$__crt_unique_heap_ptr@DU__crt_public_free_policy@@@@QAE@XZ 10030330 f i libvcruntimed:std_exception.obj
 0001:0002f350       ??B?$__crt_unique_heap_ptr@DU__crt_public_free_policy@@@@QBE_NXZ 10030350 f i libvcruntimed:std_exception.obj
 0001:0002f370       ?detach@?$__crt_unique_heap_ptr@DU__crt_public_free_policy@@@@QAEPADXZ 10030370 f i libvcruntimed:std_exception.obj
 0001:0002f3a0       ?get@?$__crt_unique_heap_ptr@DU__crt_public_free_policy@@@@QBEPADXZ 100303a0 f i libvcruntimed:std_exception.obj
 0001:0002f3b0       ?is_valid@?$__crt_unique_heap_ptr@DU__crt_public_free_policy@@@@QBE_NXZ 100303b0 f i libvcruntimed:std_exception.obj
 0001:0002f3e0       ?release@?$__crt_unique_heap_ptr@DU__crt_public_free_policy@@@@QAEXXZ 100303e0 f i libvcruntimed:std_exception.obj
 0001:0002f410       ___std_exception_copy      10030410 f   libvcruntimed:std_exception.obj
 0001:0002f500       ___std_exception_destroy   10030500 f   libvcruntimed:std_exception.obj
 0001:0002f530       __CxxThrowException@8      10030530 f   libvcruntimed:throw.obj
 0001:0002f5f0       _memmove                   100305f0 f   libvcruntimed:memmove.obj
 0001:0002fb70       __local_unwind4            10030b70 f   libvcruntimed:exsup4.obj
 0001:0002fc48       __seh_longjmp_unwind4@4    10030c48 f   libvcruntimed:exsup4.obj
 0001:0002fc70       @_EH4_CallFilterFunc@8     10030c70 f   libvcruntimed:exsup4.obj
 0001:0002fc88       @_EH4_TransferToHandler@8  10030c88 f   libvcruntimed:exsup4.obj
 0001:0002fca4       @_EH4_GlobalUnwind2@8      10030ca4 f   libvcruntimed:exsup4.obj
 0001:0002fcc0       @_EH4_LocalUnwind@16       10030cc0 f   libvcruntimed:exsup4.obj
 0001:0002fcf0       ___except_validate_context_record 10030cf0 f   libvcruntimed:jbcxrval.obj
 0001:0002fd40       ___except_validate_jump_buffer 10030d40 f   libvcruntimed:jbcxrval.obj
 0001:0002fd60       ___except_validate_jump_buffer_common 10030d60 f i libvcruntimed:jbcxrval.obj
 0001:0002fdc0       ??$?RU__vcrt_ptd@@@__crt_internal_free_policy@@QBEXQBU__vcrt_ptd@@@Z 10030dc0 f i libvcruntimed:per_thread_data.obj
 0001:0002fde0       ??0?$__crt_unique_heap_ptr@U__vcrt_ptd@@U__crt_internal_free_policy@@@@QAE@QAU__vcrt_ptd@@@Z 10030de0 f i libvcruntimed:per_thread_data.obj
 0001:0002fe20       ??1?$__crt_unique_heap_ptr@U__vcrt_ptd@@U__crt_internal_free_policy@@@@QAE@XZ 10030e20 f i libvcruntimed:per_thread_data.obj
 0001:0002fe60       ??B?$__crt_unique_heap_ptr@U__vcrt_ptd@@U__crt_internal_free_policy@@@@QBE_NXZ 10030e60 f i libvcruntimed:per_thread_data.obj
 0001:0002fe80       ?detach@?$__crt_unique_heap_ptr@U__vcrt_ptd@@U__crt_internal_free_policy@@@@QAEPAU__vcrt_ptd@@XZ 10030e80 f i libvcruntimed:per_thread_data.obj
 0001:0002feb0       ?get@?$__crt_unique_heap_ptr@U__vcrt_ptd@@U__crt_internal_free_policy@@@@QBEPAU__vcrt_ptd@@XZ 10030eb0 f i libvcruntimed:per_thread_data.obj
 0001:0002fec0       ?is_valid@?$__crt_unique_heap_ptr@U__vcrt_ptd@@U__crt_internal_free_policy@@@@QBE_NXZ 10030ec0 f i libvcruntimed:per_thread_data.obj
 0001:0002fef0       ?release@?$__crt_unique_heap_ptr@U__vcrt_ptd@@U__crt_internal_free_policy@@@@QAEXXZ 10030ef0 f i libvcruntimed:per_thread_data.obj
 0001:0002ff50       ___vcrt_freefls@4          10030f50 f   libvcruntimed:per_thread_data.obj
 0001:0002ff80       ___vcrt_freeptd            10030f80 f   libvcruntimed:per_thread_data.obj
 0001:0002ffe0       ___vcrt_getptd             10030fe0 f   libvcruntimed:per_thread_data.obj
 0001:00030000       ___vcrt_getptd_noexit      10031000 f   libvcruntimed:per_thread_data.obj
 0001:00030160       ___vcrt_getptd_noinit      10031160 f   libvcruntimed:per_thread_data.obj
 0001:000301c0       ___vcrt_initialize_ptd     100311c0 f   libvcruntimed:per_thread_data.obj
 0001:00030210       ___vcrt_uninitialize_ptd   10031210 f   libvcruntimed:per_thread_data.obj
 0001:00030240       ___vcrt_initialize_locks   10031240 f   libvcruntimed:locks.obj
 0001:000302a0       ___vcrt_lock               100312a0 f   libvcruntimed:locks.obj
 0001:000302c0       ___vcrt_uninitialize_locks 100312c0 f   libvcruntimed:locks.obj
 0001:00030310       ___vcrt_unlock             10031310 f   libvcruntimed:locks.obj
 0001:00030f40       ??$TypeMatchHelper@V__FrameHandler3@@@@YAHPBU_s_HandlerType@@PBU_s_CatchableType@@PBU_s_ThrowInfo@@@Z 10031f40 f i libvcruntimed:frame.obj
 0001:00031020       ??$__InternalCxxFrameHandler@V__FrameHandler3@@@@YA?AW4_EXCEPTION_DISPOSITION@@PAUEHExceptionRecord@@PAUEHRegistrationNode@@PAU_CONTEXT@@PAXPBU_s_FuncInfo@@H1E@Z 10032020 f i libvcruntimed:frame.obj
 0001:00031200       ??0HandlerMap@__FrameHandler3@@QAE@PBU_s_TryBlockMapEntry@@II@Z 10032200 f i libvcruntimed:frame.obj
 0001:00031230       ??0TryBlockMap@__FrameHandler3@@QAE@PBU_s_FuncInfo@@I@Z 10032230 f i libvcruntimed:frame.obj
 0001:00031260       ??0bad_exception@std@@QAE@ABV01@@Z 10032260 f i libvcruntimed:frame.obj
 0001:00031290       ??0bad_exception@std@@QAE@XZ 10032290 f i libvcruntimed:frame.obj
 0001:000312c0       ??0iterator@HandlerMap@__FrameHandler3@@QAE@AAV12@I@Z 100322c0 f i libvcruntimed:frame.obj
 0001:000312f0       ??1bad_exception@std@@UAE@XZ 100322f0 f i libvcruntimed:frame.obj
 0001:00031310       ??8iterator@HandlerMap@__FrameHandler3@@QBE_NABV012@@Z 10032310 f i libvcruntimed:frame.obj
 0001:00031340       ??8type_info@@QBE_NABV0@@Z 10032340 f i libvcruntimed:frame.obj
 0001:00031380       ??9iterator@HandlerMap@__FrameHandler3@@QBE_NABV012@@Z 10032380 f i libvcruntimed:frame.obj
 0001:000313c0       ??Diterator@HandlerMap@__FrameHandler3@@QAE?BU_s_HandlerType@@XZ 100323c0 f i libvcruntimed:frame.obj
 0001:00031400       ??Diterator@TryBlockMap@__FrameHandler3@@QAE?BU_s_TryBlockMapEntry@@XZ 10032400 f i libvcruntimed:frame.obj
 0001:00031450       ??Eiterator@HandlerMap@__FrameHandler3@@QAEAAV012@XZ 10032450 f i libvcruntimed:frame.obj
 0001:00031470       ??Eiterator@TryBlockMap@__FrameHandler3@@QAEAAV012@XZ 10032470 f i libvcruntimed:frame.obj
 0001:00031490       ??Miterator@TryBlockMap@__FrameHandler3@@QBE_NABV012@@Z 10032490 f i libvcruntimed:frame.obj
 0001:000314c0       ??_Gbad_exception@std@@UAEPAXI@Z 100324c0 f i libvcruntimed:frame.obj
 0001:000314c0       ??_Ebad_exception@std@@UAEPAXI@Z 100324c0 f i libvcruntimed:frame.obj
 0001:000314f0       ?BuildCatchObject@__FrameHandler3@@SAXPAUEHExceptionRecord@@PAXPBU_s_HandlerType@@PBU_s_CatchableType@@@Z 100324f0 f   libvcruntimed:frame.obj
 0001:00031510       ?BuildCatchObjectHelper@__FrameHandler3@@SAHPAUEHExceptionRecord@@PAXPBU_s_HandlerType@@PBU_s_CatchableType@@@Z 10032510 f   libvcruntimed:frame.obj
 0001:000318b0       ?FrameUnwindToEmptyState@__FrameHandler3@@SAXPAUEHRegistrationNode@@PAXPBU_s_FuncInfo@@@Z 100328b0 f   libvcruntimed:frame.obj
 0001:000318d0       ?FrameUnwindToState@__FrameHandler3@@SAXPAUEHRegistrationNode@@PAXPBU_s_FuncInfo@@H@Z 100328d0 f   libvcruntimed:frame.obj
 0001:00031a50       ?GetMaxState@__FrameHandler3@@SAHPAXPBU_s_FuncInfo@@@Z 10032a50 f i libvcruntimed:frame.obj
 0001:00031b80       ?TypeMatch@__FrameHandler3@@SAHPBU_s_HandlerType@@PBU_s_CatchableType@@PBU_s_ThrowInfo@@@Z 10032b80 f   libvcruntimed:frame.obj
 0001:00031ba0       ?_CallMemberFunction1@@YGXQAX00@Z 10032ba0 f i libvcruntimed:frame.obj
 0001:00031bd0       ?_CallMemberFunction2@@YGXQAX00H@Z 10032bd0 f i libvcruntimed:frame.obj
 0001:00031c00       ?_ValidateExecute@@YA_NP6GHXZ@Z 10032c00 f i libvcruntimed:frame.obj
 0001:00031c20       ?_ValidateRead@@YA_NPBXI@Z 10032c20 f i libvcruntimed:frame.obj
 0001:00031c40       ?_ValidateWrite@@YA_NPAXI@Z 10032c40 f i libvcruntimed:frame.obj
 0001:00031c60       ?begin@HandlerMap@__FrameHandler3@@QAE?AViterator@12@XZ 10032c60 f i libvcruntimed:frame.obj
 0001:00031c80       ?end@HandlerMap@__FrameHandler3@@QAE?AViterator@12@XZ 10032c80 f i libvcruntimed:frame.obj
 0001:00031cb0       ?getESTypes@__FrameHandler3@@SAPBU_s_ESTypeList@@PBU_s_FuncInfo@@@Z 10032cb0 f i libvcruntimed:frame.obj
 0001:00031cc0       ?getLastEntry@HandlerMap@__FrameHandler3@@QAEPBU_s_HandlerType@@XZ 10032cc0 f i libvcruntimed:frame.obj
 0001:00031ce0       ?getMagicNum@__FrameHandler3@@SAIPBU_s_FuncInfo@@@Z 10032ce0 f i libvcruntimed:frame.obj
 0001:00031cf0       ?getNumTryBlocks@TryBlockMap@__FrameHandler3@@QAEIXZ 10032cf0 f i libvcruntimed:frame.obj
 0001:00031d10       ?isEHs@__FrameHandler3@@SA_NPBU_s_FuncInfo@@@Z 10032d10 f i libvcruntimed:frame.obj
 0001:00031d40       ?isNoExcept@__FrameHandler3@@SA_NPBU_s_FuncInfo@@@Z 10032d40 f i libvcruntimed:frame.obj
 0001:00031d70       ___BuildCatchObject        10032d70 f   libvcruntimed:frame.obj
 0001:00031d90       ___BuildCatchObjectHelper  10032d90 f   libvcruntimed:frame.obj
 0001:00031db0       ___TypeMatch               10032db0 f   libvcruntimed:frame.obj
 0001:00031dd0       ___vcrt_EncodePointer      10032dd0 f i libvcruntimed:frame.obj
 0001:00031de0       __CallSettingFrame@12      10032de0 f   libvcruntimed:lowhelpr.obj
 0001:00031e07       __NLG_Return               10032e07     libvcruntimed:lowhelpr.obj
 0001:00031e30       ??0Block@_HeapManager@@QAE@XZ 10032e30 f i libvcruntimed:undname.obj
 0001:00031e50       ??0DName@@QAE@AAPBDD@Z     10032e50 f   libvcruntimed:undname.obj
 0001:00032080       ??0DName@@QAE@ABV0@@Z      10033080 f i libvcruntimed:undname.obj
 0001:000320b0       ??0DName@@QAE@D@Z          100330b0 f   libvcruntimed:undname.obj
 0001:000320f0       ??0DName@@QAE@PAV0@@Z      100330f0 f   libvcruntimed:undname.obj
 0001:000321a0       ??0DName@@QAE@PBD@Z        100331a0 f   libvcruntimed:undname.obj
 0001:000321f0       ??0DName@@QAE@W4DNameStatus@@@Z 100331f0 f   libvcruntimed:undname.obj
 0001:00032290       ??0DName@@QAE@XZ           10033290 f i libvcruntimed:undname.obj
 0001:000322c0       ??0DName@@QAE@_J@Z         100332c0 f   libvcruntimed:undname.obj
 0001:000323b0       ??0DName@@QAE@_K@Z         100333b0 f   libvcruntimed:undname.obj
 0001:00032460       ??0DNameNode@@IAE@XZ       10033460 f i libvcruntimed:undname.obj
 0001:00032480       ??0Replicator@@QAE@XZ      10033480 f i libvcruntimed:undname.obj
 0001:000324c0       ??0UnDecorator@@QAE@PBDP6APADJ@ZK@Z 100334c0 f i libvcruntimed:undname.obj
 0001:00032540       ??0charNode@@QAE@D@Z       10033540 f i libvcruntimed:undname.obj
 0001:00032570       ??0pDNameNode@@QAE@PAVDName@@@Z 10033570 f   libvcruntimed:undname.obj
 0001:000325d0       ??0pairNode@@QAE@PBVDNameNode@@0@Z 100335d0 f i libvcruntimed:undname.obj
 0001:00032610       ??0pcharNode@@QAE@PBDH@Z   10033610 f   libvcruntimed:undname.obj
 0001:000326d0       ??2@YAPAXIAAV_HeapManager@@H@Z 100336d0 f i libvcruntimed:undname.obj
 0001:000326f0       ??4DName@@QAEAAV0@ABV0@@Z  100336f0 f   libvcruntimed:undname.obj
 0001:00032720       ??4DName@@QAEAAV0@D@Z      10033720 f i libvcruntimed:undname.obj
 0001:00032760       ??4DName@@QAEAAV0@PAV0@@Z  10033760 f   libvcruntimed:undname.obj
 0001:00032800       ??4DName@@QAEAAV0@PBD@Z    10033800 f   libvcruntimed:undname.obj
 0001:00032840       ??4DName@@QAEAAV0@W4DNameStatus@@@Z 10033840 f   libvcruntimed:undname.obj
 0001:000328c0       ??AReplicator@@QBE?AVDName@@H@Z 100338c0 f   libvcruntimed:undname.obj
 0001:00032930       ??H@YA?AVDName@@DABV0@@Z   10033930 f i libvcruntimed:undname.obj
 0001:00032960       ??H@YA?AVDName@@PBDABV0@@Z 10033960 f i libvcruntimed:undname.obj
 0001:00032990       ??H@YA?AVDName@@W4DNameStatus@@ABV0@@Z 10033990 f i libvcruntimed:undname.obj
 0001:000329c0       ??HDName@@QBE?AV0@ABV0@@Z  100339c0 f   libvcruntimed:undname.obj
 0001:00032a00       ??HDName@@QBE?AV0@D@Z      10033a00 f   libvcruntimed:undname.obj
 0001:00032a40       ??HDName@@QBE?AV0@PAV0@@Z  10033a40 f   libvcruntimed:undname.obj
 0001:00032a80       ??HDName@@QBE?AV0@PBD@Z    10033a80 f   libvcruntimed:undname.obj
 0001:00032ac0       ??HDName@@QBE?AV0@W4DNameStatus@@@Z 10033ac0 f   libvcruntimed:undname.obj
 0001:00032b00       ??YDName@@QAEAAV0@ABV0@@Z  10033b00 f   libvcruntimed:undname.obj
 0001:00032b70       ??YDName@@QAEAAV0@D@Z      10033b70 f   libvcruntimed:undname.obj
 0001:00032bf0       ??YDName@@QAEAAV0@PAV0@@Z  10033bf0 f   libvcruntimed:undname.obj
 0001:00032ca0       ??YDName@@QAEAAV0@PBD@Z    10033ca0 f   libvcruntimed:undname.obj
 0001:00032d40       ??YDName@@QAEAAV0@W4DNameStatus@@@Z 10033d40 f   libvcruntimed:undname.obj
 0001:00032da0       ??YReplicator@@QAEAAV0@ABVDName@@@Z 10033da0 f   libvcruntimed:undname.obj
 0001:00032e30       ??_5DName@@QAEAAV0@ABV0@@Z 10033e30 f   libvcruntimed:undname.obj
 0001:00032e90       ?Constructor@_HeapManager@@QAEXP6APAXI@ZP6AXPAX@Z@Z 10033e90 f i libvcruntimed:undname.obj
 0001:00032ed0       ?Destructor@_HeapManager@@QAEXXZ 10033ed0 f i libvcruntimed:undname.obj
 0001:00032f30       ?UScore@UnDecorator@@SAPBDW4Tokens@@@Z 10033f30 f   libvcruntimed:undname.obj
 0001:00032f60       ?append@DName@@AAEXPBVDNameNode@@@Z 10033f60 f   libvcruntimed:undname.obj
 0001:00032ff0       ?composeDeclaration@UnDecorator@@CA?AVDName@@ABV2@@Z 10033ff0 f i libvcruntimed:undname.obj
 0001:00034d70       ?dbGetString@DName@@QBEPADXZ 10035d70 f   libvcruntimed:undname.obj
 0001:00034d90       ?doAccessSpecifiers@UnDecorator@@SAHXZ 10035d90 f i libvcruntimed:undname.obj
 0001:00034dc0       ?doAllocationLanguage@UnDecorator@@SAHXZ 10035dc0 f i libvcruntimed:undname.obj
 0001:00034df0       ?doAllocationModel@UnDecorator@@SAHXZ 10035df0 f i libvcruntimed:undname.obj
 0001:00034e20       ?doEcsu@UnDecorator@@SAHXZ 10035e20 f i libvcruntimed:undname.obj
 0001:00034e50       ?doEllipsis@UnDecorator@@SAHXZ 10035e50 f i libvcruntimed:undname.obj
 0001:00034e80       ?doFunctionReturns@UnDecorator@@SAHXZ 10035e80 f i libvcruntimed:undname.obj
 0001:00034eb0       ?doMSKeywords@UnDecorator@@SAHXZ 10035eb0 f i libvcruntimed:undname.obj
 0001:00034ee0       ?doMemberTypes@UnDecorator@@SAHXZ 10035ee0 f i libvcruntimed:undname.obj
 0001:00034f10       ?doNameOnly@UnDecorator@@SAHXZ 10035f10 f i libvcruntimed:undname.obj
 0001:00034f20       ?doNoIdentCharCheck@UnDecorator@@SAHXZ 10035f20 f i libvcruntimed:undname.obj
 0001:00034f30       ?doPchar@DName@@AAEXPBDH@Z 10035f30 f   libvcruntimed:undname.obj
 0001:00035070       ?doPtr64@UnDecorator@@SAHXZ 10036070 f i libvcruntimed:undname.obj
 0001:000350a0       ?doRestrictionSpec@UnDecorator@@SAHXZ 100360a0 f i libvcruntimed:undname.obj
 0001:000350d0       ?doThisTypes@UnDecorator@@SAHXZ 100360d0 f i libvcruntimed:undname.obj
 0001:00035100       ?doThrowTypes@UnDecorator@@SAHXZ 10036100 f i libvcruntimed:undname.obj
 0001:00035130       ?doTypeOnly@UnDecorator@@SAHXZ 10036130 f i libvcruntimed:undname.obj
 0001:00035140       ?doUnderScore@UnDecorator@@SAHXZ 10036140 f i libvcruntimed:undname.obj
 0001:00035170       ?getArgumentList@UnDecorator@@CA?AVDName@@XZ 10036170 f   libvcruntimed:undname.obj
 0001:000352c0       ?getArgumentTypes@UnDecorator@@CA?AVDName@@XZ 100362c0 f   libvcruntimed:undname.obj
 0001:00035410       ?getArrayType@UnDecorator@@CA?AVDName@@ABV2@@Z 10036410 f i libvcruntimed:undname.obj
 0001:00035680       ?getBasedType@UnDecorator@@CA?AVDName@@XZ 10036680 f   libvcruntimed:undname.obj
 0001:00035740       ?getBasicDataType@UnDecorator@@CA?AVDName@@ABV2@@Z 10036740 f   libvcruntimed:undname.obj
 0001:00035d40       ?getCHPEName@UnDecorator@@QAEPADPADH@Z 10036d40 f i libvcruntimed:undname.obj
 0001:00035ea0       ?getCallIndex@UnDecorator@@CA?AVDName@@XZ 10036ea0 f i libvcruntimed:undname.obj
 0001:00035ec0       ?getCallingConvention@UnDecorator@@CA?AVDName@@XZ 10036ec0 f   libvcruntimed:undname.obj
 0001:000360a0       ?getDataIndirectType@UnDecorator@@CA?AVDName@@ABV2@PBD0H@Z 100370a0 f   libvcruntimed:undname.obj
 0001:000368c0       ?getDataIndirectType@UnDecorator@@CA?AVDName@@XZ 100378c0 f i libvcruntimed:undname.obj
 0001:00036910       ?getDataType@UnDecorator@@CA?AVDName@@PAV2@@Z 10037910 f   libvcruntimed:undname.obj
 0001:00036a30       ?getDecoratedName@UnDecorator@@CA?AVDName@@XZ 10037a30 f   libvcruntimed:undname.obj
 0001:00036e30       ?getDimension@UnDecorator@@CA?AVDName@@_N@Z 10037e30 f   libvcruntimed:undname.obj
 0001:000370e0       ?getDispatchTarget@UnDecorator@@CA?AVDName@@XZ 100380e0 f   libvcruntimed:undname.obj
 0001:00037180       ?getDisplacement@UnDecorator@@CA?AVDName@@XZ 10038180 f i libvcruntimed:undname.obj
 0001:000371a0       ?getECSUDataType@UnDecorator@@CA?AVDName@@XZ 100381a0 f   libvcruntimed:undname.obj
 0001:00037370       ?getECSUName@UnDecorator@@CA?AVDName@@XZ 10038370 f i libvcruntimed:undname.obj
 0001:00037390       ?getEnumType@UnDecorator@@CA?AVDName@@XZ 10038390 f i libvcruntimed:undname.obj
 0001:000374e0       ?getExtendedDataIndirectType@UnDecorator@@CA?AVDName@@AAPBDAA_NH@Z 100384e0 f   libvcruntimed:undname.obj
 0001:00037730       ?getExternalDataType@UnDecorator@@CA?AVDName@@ABV2@@Z 10038730 f i libvcruntimed:undname.obj
 0001:000377d0       ?getFunctionIndirectType@UnDecorator@@CA?AVDName@@ABV2@@Z 100387d0 f   libvcruntimed:undname.obj
 0001:00037ca0       ?getGuardNumber@UnDecorator@@CA?AVDName@@XZ 10038ca0 f i libvcruntimed:undname.obj
 0001:00037cc0       ?getLastChar@DName@@QBEDXZ 10038cc0 f i libvcruntimed:undname.obj
 0001:00037d00       ?getLastChar@DNameStatusNode@@UBEDXZ 10038d00 f i libvcruntimed:undname.obj
 0001:00037d30       ?getLastChar@charNode@@UBEDXZ 10038d30 f i libvcruntimed:undname.obj
 0001:00037d50       ?getLastChar@pDNameNode@@UBEDXZ 10038d50 f i libvcruntimed:undname.obj
 0001:00037d80       ?getLastChar@pairNode@@UBEDXZ 10038d80 f i libvcruntimed:undname.obj
 0001:00037df0       ?getLastChar@pcharNode@@UBEDXZ 10038df0 f i libvcruntimed:undname.obj
 0001:00037e30       ?getLexicalFrame@UnDecorator@@CA?AVDName@@XZ 10038e30 f i libvcruntimed:undname.obj
 0001:00037e70       ?getMemory@_HeapManager@@QAEPAXIH@Z 10038e70 f   libvcruntimed:undname.obj
 0001:00037f90       ?getNoexcept@UnDecorator@@CA?AVDName@@XZ 10038f90 f   libvcruntimed:undname.obj
 0001:00038000       ?getNumberOfDimensions@UnDecorator@@CAHXZ 10039000 f   libvcruntimed:undname.obj
 0001:00038100       ?getOperatorName@UnDecorator@@CA?AVDName@@_NPA_N@Z 10039100 f i libvcruntimed:undname.obj
 0001:00038b70       ?getPointerType@UnDecorator@@CA?AVDName@@ABV2@0@Z 10039b70 f i libvcruntimed:undname.obj
 0001:00038ba0       ?getPointerTypeArray@UnDecorator@@CA?AVDName@@ABV2@0@Z 10039ba0 f i libvcruntimed:undname.obj
 0001:00038bd0       ?getPrimaryDataType@UnDecorator@@CA?AVDName@@ABV2@@Z 10039bd0 f   libvcruntimed:undname.obj
 0001:00038fd0       ?getPtrRefDataType@UnDecorator@@CA?AVDName@@ABV2@H@Z 10039fd0 f   libvcruntimed:undname.obj
 0001:00039200       ?getPtrRefType@UnDecorator@@CA?AVDName@@ABV2@0PBD@Z 1003a200 f   libvcruntimed:undname.obj
 0001:00039370       ?getReferenceType@UnDecorator@@CA?AVDName@@ABV2@0PBD@Z 1003a370 f i libvcruntimed:undname.obj
 0001:00039390       ?getRestrictionSpec@UnDecorator@@CA?AVDName@@XZ 1003a390 f   libvcruntimed:undname.obj
 0001:00039500       ?getReturnType@UnDecorator@@CA?AVDName@@PAV2@@Z 1003a500 f   libvcruntimed:undname.obj
 0001:00039550       ?getScope@UnDecorator@@CA?AVDName@@XZ 1003a550 f   libvcruntimed:undname.obj
 0001:00039a80       ?getScopedName@UnDecorator@@CA?AVDName@@XZ 1003aa80 f   libvcruntimed:undname.obj
 0001:00039bb0       ?getSignedDimension@UnDecorator@@CA?AVDName@@XZ 1003abb0 f   libvcruntimed:undname.obj
 0001:00039c30       ?getStorageConvention@UnDecorator@@CA?AVDName@@XZ 1003ac30 f i libvcruntimed:undname.obj
 0001:00039c50       ?getString@DName@@QBEPADPAD0@Z 1003ac50 f i libvcruntimed:undname.obj
 0001:00039cb0       ?getString@DName@@QBEPADPADH@Z 1003acb0 f i libvcruntimed:undname.obj
 0001:00039d40       ?getString@DNameStatusNode@@UBEPADPAD0@Z 1003ad40 f i libvcruntimed:undname.obj
 0001:00039d80       ?getString@charNode@@UBEPADPAD0@Z 1003ad80 f i libvcruntimed:undname.obj
 0001:00039db0       ?getString@pDNameNode@@UBEPADPAD0@Z 1003adb0 f i libvcruntimed:undname.obj
 0001:00039df0       ?getString@pairNode@@UBEPADPAD0@Z 1003adf0 f i libvcruntimed:undname.obj
 0001:00039e80       ?getString@pcharNode@@UBEPADPAD0@Z 1003ae80 f i libvcruntimed:undname.obj
 0001:00039eb0       ?getStringEncoding@UnDecorator@@CA?AVDName@@PBDH@Z 1003aeb0 f   libvcruntimed:undname.obj
 0001:00039fc0       ?getStringHelper@@YAPADPADPBD1H@Z 1003afc0 f i libvcruntimed:undname.obj
 0001:0003a000       ?getSymbolName@UnDecorator@@CA?AVDName@@XZ 1003b000 f i libvcruntimed:undname.obj
 0001:0003a090       ?getTemplateArgumentList@UnDecorator@@CA?AVDName@@XZ 1003b090 f   libvcruntimed:undname.obj
 0001:0003a350       ?getTemplateName@UnDecorator@@CA?AVDName@@_N@Z 1003b350 f   libvcruntimed:undname.obj
 0001:0003a520       ?getTemplateNonTypeArgument@UnDecorator@@CA?AVDName@@XZ 1003b520 f   libvcruntimed:undname.obj
 0001:0003ab50       ?getTemplateTypeArgument@UnDecorator@@CA?AVDName@@XZ 1003bb50 f   libvcruntimed:undname.obj
 0001:0003acb0       ?getThisType@UnDecorator@@CA?AVDName@@XZ 1003bcb0 f i libvcruntimed:undname.obj
 0001:0003ad00       ?getThrowTypes@UnDecorator@@CA?AVDName@@XZ 1003bd00 f   libvcruntimed:undname.obj
 0001:0003ad40       ?getTypeEncoding@UnDecorator@@CAHXZ 1003bd40 f i libvcruntimed:undname.obj
 0001:0003b7d0       ?getUndecoratedName@UnDecorator@@QAEPADPADH@Z 1003c7d0 f i libvcruntimed:undname.obj
 0001:0003b920       ?getVCallThunkType@UnDecorator@@CA?AVDName@@XZ 1003c920 f i libvcruntimed:undname.obj
 0001:0003b980       ?getVbTableType@UnDecorator@@CA?AVDName@@ABV2@@Z 1003c980 f i libvcruntimed:undname.obj
 0001:0003b9a0       ?getVdispMapType@UnDecorator@@CA?AVDName@@ABV2@@Z 1003c9a0 f i libvcruntimed:undname.obj
 0001:0003ba10       ?getVfTableType@UnDecorator@@CA?AVDName@@ABV2@@Z 1003ca10 f i libvcruntimed:undname.obj
 0001:0003bbe0       ?getZName@UnDecorator@@CA?AVDName@@_N0@Z 1003cbe0 f   libvcruntimed:undname.obj
 0001:0003bec0       ?haveTemplateParameters@UnDecorator@@SAHXZ 1003cec0 f i libvcruntimed:undname.obj
 0001:0003bed0       ?isArray@DName@@QBEHXZ     1003ced0 f i libvcruntimed:undname.obj
 0001:0003bef0       ?isComArray@DName@@QBEHXZ  1003cef0 f i libvcruntimed:undname.obj
 0001:0003bf10       ?isEmpty@DName@@QBEHXZ     1003cf10 f i libvcruntimed:undname.obj
 0001:0003bf40       ?isFull@Replicator@@QBEHXZ 1003cf40 f i libvcruntimed:undname.obj
 0001:0003bf70       ?isNoTE@DName@@QBEHXZ      1003cf70 f i libvcruntimed:undname.obj
 0001:0003bf90       ?isPinPtr@DName@@QBEHXZ    1003cf90 f i libvcruntimed:undname.obj
 0001:0003bfb0       ?isPtrRef@DName@@QBEHXZ    1003cfb0 f i libvcruntimed:undname.obj
 0001:0003bfd0       ?isUDC@DName@@QBEHXZ       1003cfd0 f i libvcruntimed:undname.obj
 0001:0003c010       ?isUDTThunk@DName@@QBEHXZ  1003d010 f i libvcruntimed:undname.obj
 0001:0003c050       ?isVCallThunk@DName@@QBEHXZ 1003d050 f i libvcruntimed:undname.obj
 0001:0003c070       ?isValid@DName@@QBEHXZ     1003d070 f i libvcruntimed:undname.obj
 0001:0003c0b0       ?length@DName@@QBEHXZ      1003d0b0 f i libvcruntimed:undname.obj
 0001:0003c0f0       ?length@DNameStatusNode@@UBEHXZ 1003d0f0 f i libvcruntimed:undname.obj
 0001:0003c110       ?length@charNode@@UBEHXZ   1003d110 f i libvcruntimed:undname.obj
 0001:0003c120       ?length@pDNameNode@@UBEHXZ 1003d120 f i libvcruntimed:undname.obj
 0001:0003c150       ?length@pairNode@@UBEHXZ   1003d150 f i libvcruntimed:undname.obj
 0001:0003c1c0       ?length@pcharNode@@UBEHXZ  1003d1c0 f i libvcruntimed:undname.obj
 0001:0003c1e0       ?make@DNameStatusNode@@SAPBV1@W4DNameStatus@@@Z 1003d1e0 f i libvcruntimed:undname.obj
 0001:0003c210       ?parseDecoratedName@UnDecorator@@CA?AVDName@@XZ 1003d210 f   libvcruntimed:undname.obj
 0001:0003c390       ?setIsArray@DName@@QAEXXZ  1003d390 f i libvcruntimed:undname.obj
 0001:0003c3b0       ?setIsComArray@DName@@QAEXXZ 1003d3b0 f i libvcruntimed:undname.obj
 0001:0003c3d0       ?setIsNoTE@DName@@QAEXXZ   1003d3d0 f i libvcruntimed:undname.obj
 0001:0003c3f0       ?setIsPinPtr@DName@@QAEXXZ 1003d3f0 f i libvcruntimed:undname.obj
 0001:0003c410       ?setIsUDC@DName@@QAEXXZ    1003d410 f i libvcruntimed:undname.obj
 0001:0003c440       ?setIsVCallThunk@DName@@QAEXXZ 1003d440 f i libvcruntimed:undname.obj
 0001:0003c460       ?setPtrRef@DName@@QAEAAV1@XZ 1003d460 f i libvcruntimed:undname.obj
 0001:0003c480       ?status@DName@@QBE?AW4DNameStatus@@XZ 1003d480 f i libvcruntimed:undname.obj
 0001:0003c580       ___unDName                 1003d580 f   libvcruntimed:undname.obj
 0001:0003c5b0       ___unDNameEx               1003d5b0 f   libvcruntimed:undname.obj
 0001:0003c680       _unDNameGenerateCHPE       1003d680 f   libvcruntimed:undname.obj
 0001:0003c6e0       __global_unwind2           1003d6e0 f   libvcruntimed:exsup.obj
 0001:0003c746       __local_unwind2            1003d746 f   libvcruntimed:exsup.obj
 0001:0003c7ca       __abnormal_termination     1003d7ca f   libvcruntimed:exsup.obj
 0001:0003c7f0       __NLG_Notify1              1003d7f0 f   libvcruntimed:exsup.obj
 0001:0003c7fc       __NLG_Notify               1003d7fc f   libvcruntimed:exsup.obj
 0001:0003c813       __NLG_Dispatch             1003d813     libvcruntimed:exsup.obj
 0001:0003c813       __NLG_Dispatch2            1003d813     libvcruntimed:exsup.obj
 0001:0003c81b       __NLG_Call                 1003d81b f   libvcruntimed:exsup.obj
 0001:0003c81d       __NLG_Return2              1003d81d     libvcruntimed:exsup.obj
 0001:0003c820       ??$__crt_interlocked_exchange_pointer@UHINSTANCE__@@PAU1@@@YAPAUHINSTANCE__@@PDSAU0@QAU0@@Z 1003d820 f i libvcruntimed:winapi_downlevel.obj
 0001:0003c830       ??$__crt_interlocked_exchange_pointer@UHINSTANCE__@@PAX@@YAPAUHINSTANCE__@@PDSAU0@QAX@Z 1003d830 f i libvcruntimed:winapi_downlevel.obj
 0001:0003c840       ??$__crt_interlocked_exchange_pointer@XPAX@@YAPAXPDSAXQAX@Z 1003d840 f i libvcruntimed:winapi_downlevel.obj
 0001:0003c850       ??$__crt_interlocked_read_pointer@UHINSTANCE__@@@@YAPAUHINSTANCE__@@PDSAU0@@Z 1003d850 f i libvcruntimed:winapi_downlevel.obj
 0001:0003c870       ??$__crt_interlocked_read_pointer@X@@YAPAXPDSAX@Z 1003d870 f i libvcruntimed:winapi_downlevel.obj
 0001:0003cc40       ___vcrt_FlsAlloc           1003dc40 f   libvcruntimed:winapi_downlevel.obj
 0001:0003cc80       ___vcrt_FlsFree            1003dc80 f   libvcruntimed:winapi_downlevel.obj
 0001:0003ccc0       ___vcrt_FlsGetValue        1003dcc0 f   libvcruntimed:winapi_downlevel.obj
 0001:0003cd00       ___vcrt_FlsSetValue        1003dd00 f   libvcruntimed:winapi_downlevel.obj
 0001:0003cd50       ___vcrt_InitializeCriticalSectionEx 1003dd50 f   libvcruntimed:winapi_downlevel.obj
 0001:0003cdd0       __get_unexpected           1003ddd0 f   libvcruntimed:unexpected.obj
 0001:0003cdf0       _set_unexpected            1003ddf0 f   libvcruntimed:unexpected.obj
 0001:0003ce20       _unexpected                1003de20 f   libvcruntimed:unexpected.obj
 0001:0003ce60       ?GetCurrentState@__FrameHandler3@@SAHPAUEHRegistrationNode@@PAXPBU_s_FuncInfo@@@Z 1003de60 f   libvcruntimed:ehstate.obj
 0001:0003ce90       ?SetState@__FrameHandler3@@SAXPAUEHRegistrationNode@@PBU_s_FuncInfo@@H@Z 1003de90 f   libvcruntimed:ehstate.obj
 0001:0003cea0       ___DestructExceptionObject 1003dea0 f   libvcruntimed:ehhelpers.obj
 0001:0003cfd0       ?_CallMemberFunction0@@YGXQAX0@Z 1003dfd0 f i libvcruntimed:ehhelpers.obj
 0001:0003cff0       ?raw_name@type_info@@QBEPBDXZ 1003dff0 f i libvcruntimed:ehhelpers.obj
 0001:0003d010       __IsExceptionObjectToBeDestroyed 1003e010 f   libvcruntimed:ehhelpers.obj
 0001:0003d050       __SetWinRTOutOfMemoryExceptionCallback 1003e050 f   libvcruntimed:ehhelpers.obj
 0001:0003d060       ___AdjustPointer           1003e060 f   libvcruntimed:ehhelpers.obj
 0001:0003d0b0       ___FrameUnwindFilter       1003e0b0 f   libvcruntimed:ehhelpers.obj
 0001:0003d130       ___GetPlatformExceptionInfo 1003e130 f   libvcruntimed:ehhelpers.obj
 0001:0003d1b0       ___current_exception       1003e1b0 f   libvcruntimed:ehhelpers.obj
 0001:0003d1c0       ___current_exception_context 1003e1c0 f   libvcruntimed:ehhelpers.obj
 0001:0003d1d0       ___processing_throw        1003e1d0 f   libvcruntimed:ehhelpers.obj
 0001:0003d1e0       ___std_terminate           1003e1e0 f   libvcruntimed:ehhelpers.obj
 0001:0003d1f0       __is_exception_typeof      1003e1f0 f   libvcruntimed:ehhelpers.obj
 0001:0003d2d0       ??$?0ABV?$stream_output_adapter@D@__crt_stdio_output@@AB_KABQBDABQAU__crt_locale_pointers@@ABQAD@?$format_validation_base@DV?$stream_output_adapter@D@__crt_stdio_output@@@__crt_stdio_output@@IAE@ABV?$stream_output_adapter@D@1@AB_KABQBDABQAU__crt_locale_pointers@@ABQAD@Z 1003e2d0 f i libucrtd:output.obj
 0001:0003d300       ??$?0ABV?$stream_output_adapter@D@__crt_stdio_output@@AB_KABQBDABQAU__crt_locale_pointers@@ABQAD@?$positional_parameter_base@DV?$stream_output_adapter@D@__crt_stdio_output@@@__crt_stdio_output@@IAE@ABV?$stream_output_adapter@D@1@AB_KABQBDABQAU__crt_locale_pointers@@ABQAD@Z 1003e300 f i libucrtd:output.obj
 0001:0003d380       ??$?0ABV?$stream_output_adapter@D@__crt_stdio_output@@AB_KABQBDABQAU__crt_locale_pointers@@ABQAD@?$standard_base@DV?$stream_output_adapter@D@__crt_stdio_output@@@__crt_stdio_output@@IAE@ABV?$stream_output_adapter@D@1@AB_KABQBDABQAU__crt_locale_pointers@@ABQAD@Z 1003e380 f i libucrtd:output.obj
 0001:0003d3d0       ??$?0ABV?$stream_output_adapter@_W@__crt_stdio_output@@AB_KABQB_WABQAU__crt_locale_pointers@@ABQAD@?$format_validation_base@_WV?$stream_output_adapter@_W@__crt_stdio_output@@@__crt_stdio_output@@IAE@ABV?$stream_output_adapter@_W@1@AB_KABQB_WABQAU__crt_locale_pointers@@ABQAD@Z 1003e3d0 f i libucrtd:output.obj
 0001:0003d400       ??$?0ABV?$stream_output_adapter@_W@__crt_stdio_output@@AB_KABQB_WABQAU__crt_locale_pointers@@ABQAD@?$positional_parameter_base@_WV?$stream_output_adapter@_W@__crt_stdio_output@@@__crt_stdio_output@@IAE@ABV?$stream_output_adapter@_W@1@AB_KABQB_WABQAU__crt_locale_pointers@@ABQAD@Z 1003e400 f i libucrtd:output.obj
 0001:0003d480       ??$?0ABV?$stream_output_adapter@_W@__crt_stdio_output@@AB_KABQB_WABQAU__crt_locale_pointers@@ABQAD@?$standard_base@_WV?$stream_output_adapter@_W@__crt_stdio_output@@@__crt_stdio_output@@IAE@ABV?$stream_output_adapter@_W@1@AB_KABQB_WABQAU__crt_locale_pointers@@ABQAD@Z 1003e480 f i libucrtd:output.obj
 0001:0003d4d0       ??$?0ABV?$string_output_adapter@D@__crt_stdio_output@@AB_KABQBDABQAU__crt_locale_pointers@@ABQAD@?$format_validation_base@DV?$string_output_adapter@D@__crt_stdio_output@@@__crt_stdio_output@@IAE@ABV?$string_output_adapter@D@1@AB_KABQBDABQAU__crt_locale_pointers@@ABQAD@Z 1003e4d0 f i libucrtd:output.obj
 0001:0003d500       ??$?0ABV?$string_output_adapter@D@__crt_stdio_output@@AB_KABQBDABQAU__crt_locale_pointers@@ABQAD@?$positional_parameter_base@DV?$string_output_adapter@D@__crt_stdio_output@@@__crt_stdio_output@@IAE@ABV?$string_output_adapter@D@1@AB_KABQBDABQAU__crt_locale_pointers@@ABQAD@Z 1003e500 f i libucrtd:output.obj
 0001:0003d580       ??$?0ABV?$string_output_adapter@D@__crt_stdio_output@@AB_KABQBDABQAU__crt_locale_pointers@@ABQAD@?$standard_base@DV?$string_output_adapter@D@__crt_stdio_output@@@__crt_stdio_output@@IAE@ABV?$string_output_adapter@D@1@AB_KABQBDABQAU__crt_locale_pointers@@ABQAD@Z 1003e580 f i libucrtd:output.obj
 0001:0003d5d0       ??$?0ABV?$string_output_adapter@_W@__crt_stdio_output@@AB_KABQB_WABQAU__crt_locale_pointers@@ABQAD@?$format_validation_base@_WV?$string_output_adapter@_W@__crt_stdio_output@@@__crt_stdio_output@@IAE@ABV?$string_output_adapter@_W@1@AB_KABQB_WABQAU__crt_locale_pointers@@ABQAD@Z 1003e5d0 f i libucrtd:output.obj
 0001:0003d600       ??$?0ABV?$string_output_adapter@_W@__crt_stdio_output@@AB_KABQB_WABQAU__crt_locale_pointers@@ABQAD@?$positional_parameter_base@_WV?$string_output_adapter@_W@__crt_stdio_output@@@__crt_stdio_output@@IAE@ABV?$string_output_adapter@_W@1@AB_KABQB_WABQAU__crt_locale_pointers@@ABQAD@Z 1003e600 f i libucrtd:output.obj
 0001:0003d680       ??$?0ABV?$string_output_adapter@_W@__crt_stdio_output@@AB_KABQB_WABQAU__crt_locale_pointers@@ABQAD@?$standard_base@_WV?$string_output_adapter@_W@__crt_stdio_output@@@__crt_stdio_output@@IAE@ABV?$string_output_adapter@_W@1@AB_KABQB_WABQAU__crt_locale_pointers@@ABQAD@Z 1003e680 f i libucrtd:output.obj
 0001:0003dbb0       ??$__crt_interlocked_read@J@@YAJPDJ@Z 1003ebb0 f i libucrtd:output.obj
 0001:00040950       ??$count@D@formatting_buffer@__crt_stdio_output@@QBEIXZ 10041950 f i libucrtd:output.obj
 0001:00040990       ??$count@_W@formatting_buffer@__crt_stdio_output@@QBEIXZ 10041990 f i libucrtd:output.obj
 0001:000409d0       ??$data@D@formatting_buffer@__crt_stdio_output@@QAEPADXZ 100419d0 f i libucrtd:output.obj
 0001:00040a10       ??$data@_W@formatting_buffer@__crt_stdio_output@@QAEPA_WXZ 10041a10 f i libucrtd:output.obj
 0001:00040a50       ??$ensure_buffer_is_big_enough@D@formatting_buffer@__crt_stdio_output@@QAE_NI@Z 10041a50 f i libucrtd:output.obj
 0001:00040b30       ??$ensure_buffer_is_big_enough@_W@formatting_buffer@__crt_stdio_output@@QAE_NI@Z 10041b30 f i libucrtd:output.obj
 0001:00040c20       ??$extract_argument_from_va_list@C_J@?$positional_parameter_base@DV?$stream_output_adapter@D@__crt_stdio_output@@@__crt_stdio_output@@IAE_NAA_J@Z 10041c20 f i libucrtd:output.obj
 0001:00040d60       ??$extract_argument_from_va_list@C_J@?$positional_parameter_base@DV?$string_output_adapter@D@__crt_stdio_output@@@__crt_stdio_output@@IAE_NAA_J@Z 10041d60 f i libucrtd:output.obj
 0001:00040ea0       ??$extract_argument_from_va_list@C_J@?$positional_parameter_base@_WV?$stream_output_adapter@_W@__crt_stdio_output@@@__crt_stdio_output@@IAE_NAA_J@Z 10041ea0 f i libucrtd:output.obj
 0001:00040fe0       ??$extract_argument_from_va_list@C_J@?$positional_parameter_base@_WV?$string_output_adapter@_W@__crt_stdio_output@@@__crt_stdio_output@@IAE_NAA_J@Z 10041fe0 f i libucrtd:output.obj
 0001:00041120       ??$extract_argument_from_va_list@C_J@?$standard_base@DV?$stream_output_adapter@D@__crt_stdio_output@@@__crt_stdio_output@@IAE_NAA_J@Z 10042120 f i libucrtd:output.obj
 0001:00041150       ??$extract_argument_from_va_list@C_J@?$standard_base@DV?$string_output_adapter@D@__crt_stdio_output@@@__crt_stdio_output@@IAE_NAA_J@Z 10042150 f i libucrtd:output.obj
 0001:00041180       ??$extract_argument_from_va_list@C_J@?$standard_base@_WV?$stream_output_adapter@_W@__crt_stdio_output@@@__crt_stdio_output@@IAE_NAA_J@Z 10042180 f i libucrtd:output.obj
 0001:000411b0       ??$extract_argument_from_va_list@C_J@?$standard_base@_WV?$string_output_adapter@_W@__crt_stdio_output@@@__crt_stdio_output@@IAE_NAA_J@Z 100421b0 f i libucrtd:output.obj
 0001:000411e0       ??$extract_argument_from_va_list@E_J@?$positional_parameter_base@DV?$stream_output_adapter@D@__crt_stdio_output@@@__crt_stdio_output@@IAE_NAA_J@Z 100421e0 f i libucrtd:output.obj
 0001:00041320       ??$extract_argument_from_va_list@E_J@?$positional_parameter_base@DV?$string_output_adapter@D@__crt_stdio_output@@@__crt_stdio_output@@IAE_NAA_J@Z 10042320 f i libucrtd:output.obj
 0001:00041460       ??$extract_argument_from_va_list@E_J@?$positional_parameter_base@_WV?$stream_output_adapter@_W@__crt_stdio_output@@@__crt_stdio_output@@IAE_NAA_J@Z 10042460 f i libucrtd:output.obj
 0001:000415a0       ??$extract_argument_from_va_list@E_J@?$positional_parameter_base@_WV?$string_output_adapter@_W@__crt_stdio_output@@@__crt_stdio_output@@IAE_NAA_J@Z 100425a0 f i libucrtd:output.obj
 0001:000416e0       ??$extract_argument_from_va_list@E_J@?$standard_base@DV?$stream_output_adapter@D@__crt_stdio_output@@@__crt_stdio_output@@IAE_NAA_J@Z 100426e0 f i libucrtd:output.obj
 0001:00041710       ??$extract_argument_from_va_list@E_J@?$standard_base@DV?$string_output_adapter@D@__crt_stdio_output@@@__crt_stdio_output@@IAE_NAA_J@Z 10042710 f i libucrtd:output.obj
 0001:00041740       ??$extract_argument_from_va_list@E_J@?$standard_base@_WV?$stream_output_adapter@_W@__crt_stdio_output@@@__crt_stdio_output@@IAE_NAA_J@Z 10042740 f i libucrtd:output.obj
 0001:00041770       ??$extract_argument_from_va_list@E_J@?$standard_base@_WV?$string_output_adapter@_W@__crt_stdio_output@@@__crt_stdio_output@@IAE_NAA_J@Z 10042770 f i libucrtd:output.obj
 0001:000417a0       ??$extract_argument_from_va_list@F_J@?$positional_parameter_base@DV?$stream_output_adapter@D@__crt_stdio_output@@@__crt_stdio_output@@IAE_NAA_J@Z 100427a0 f i libucrtd:output.obj
 0001:000418d0       ??$extract_argument_from_va_list@F_J@?$positional_parameter_base@DV?$string_output_adapter@D@__crt_stdio_output@@@__crt_stdio_output@@IAE_NAA_J@Z 100428d0 f i libucrtd:output.obj
 0001:00041a00       ??$extract_argument_from_va_list@F_J@?$positional_parameter_base@_WV?$stream_output_adapter@_W@__crt_stdio_output@@@__crt_stdio_output@@IAE_NAA_J@Z 10042a00 f i libucrtd:output.obj
 0001:00041b30       ??$extract_argument_from_va_list@F_J@?$positional_parameter_base@_WV?$string_output_adapter@_W@__crt_stdio_output@@@__crt_stdio_output@@IAE_NAA_J@Z 10042b30 f i libucrtd:output.obj
 0001:00041c60       ??$extract_argument_from_va_list@F_J@?$standard_base@DV?$stream_output_adapter@D@__crt_stdio_output@@@__crt_stdio_output@@IAE_NAA_J@Z 10042c60 f i libucrtd:output.obj
 0001:00041c90       ??$extract_argument_from_va_list@F_J@?$standard_base@DV?$string_output_adapter@D@__crt_stdio_output@@@__crt_stdio_output@@IAE_NAA_J@Z 10042c90 f i libucrtd:output.obj
 0001:00041cc0       ??$extract_argument_from_va_list@F_J@?$standard_base@_WV?$stream_output_adapter@_W@__crt_stdio_output@@@__crt_stdio_output@@IAE_NAA_J@Z 10042cc0 f i libucrtd:output.obj
 0001:00041cf0       ??$extract_argument_from_va_list@F_J@?$standard_base@_WV?$string_output_adapter@_W@__crt_stdio_output@@@__crt_stdio_output@@IAE_NAA_J@Z 10042cf0 f i libucrtd:output.obj
 0001:00041d20       ??$extract_argument_from_va_list@GD@?$positional_parameter_base@DV?$stream_output_adapter@D@__crt_stdio_output@@@__crt_stdio_output@@IAE_NAAD@Z 10042d20 f i libucrtd:output.obj
 0001:00041e50       ??$extract_argument_from_va_list@GD@?$positional_parameter_base@DV?$string_output_adapter@D@__crt_stdio_output@@@__crt_stdio_output@@IAE_NAAD@Z 10042e50 f i libucrtd:output.obj
 0001:00041f80       ??$extract_argument_from_va_list@GD@?$standard_base@DV?$stream_output_adapter@D@__crt_stdio_output@@@__crt_stdio_output@@IAE_NAAD@Z 10042f80 f i libucrtd:output.obj
 0001:00041fb0       ??$extract_argument_from_va_list@GD@?$standard_base@DV?$string_output_adapter@D@__crt_stdio_output@@@__crt_stdio_output@@IAE_NAAD@Z 10042fb0 f i libucrtd:output.obj
 0001:00041fe0       ??$extract_argument_from_va_list@G_J@?$positional_parameter_base@DV?$stream_output_adapter@D@__crt_stdio_output@@@__crt_stdio_output@@IAE_NAA_J@Z 10042fe0 f i libucrtd:output.obj
 0001:00042120       ??$extract_argument_from_va_list@G_J@?$positional_parameter_base@DV?$string_output_adapter@D@__crt_stdio_output@@@__crt_stdio_output@@IAE_NAA_J@Z 10043120 f i libucrtd:output.obj
 0001:00042260       ??$extract_argument_from_va_list@G_J@?$positional_parameter_base@_WV?$stream_output_adapter@_W@__crt_stdio_output@@@__crt_stdio_output@@IAE_NAA_J@Z 10043260 f i libucrtd:output.obj
 0001:000423a0       ??$extract_argument_from_va_list@G_J@?$positional_parameter_base@_WV?$string_output_adapter@_W@__crt_stdio_output@@@__crt_stdio_output@@IAE_NAA_J@Z 100433a0 f i libucrtd:output.obj
 0001:000424e0       ??$extract_argument_from_va_list@G_J@?$standard_base@DV?$stream_output_adapter@D@__crt_stdio_output@@@__crt_stdio_output@@IAE_NAA_J@Z 100434e0 f i libucrtd:output.obj
 0001:00042510       ??$extract_argument_from_va_list@G_J@?$standard_base@DV?$string_output_adapter@D@__crt_stdio_output@@@__crt_stdio_output@@IAE_NAA_J@Z 10043510 f i libucrtd:output.obj
 0001:00042540       ??$extract_argument_from_va_list@G_J@?$standard_base@_WV?$stream_output_adapter@_W@__crt_stdio_output@@@__crt_stdio_output@@IAE_NAA_J@Z 10043540 f i libucrtd:output.obj
 0001:00042570       ??$extract_argument_from_va_list@G_J@?$standard_base@_WV?$string_output_adapter@_W@__crt_stdio_output@@@__crt_stdio_output@@IAE_NAA_J@Z 10043570 f i libucrtd:output.obj
 0001:000425a0       ??$extract_argument_from_va_list@H_J@?$positional_parameter_base@DV?$stream_output_adapter@D@__crt_stdio_output@@@__crt_stdio_output@@IAE_NAA_J@Z 100435a0 f i libucrtd:output.obj
 0001:000426d0       ??$extract_argument_from_va_list@H_J@?$positional_parameter_base@DV?$string_output_adapter@D@__crt_stdio_output@@@__crt_stdio_output@@IAE_NAA_J@Z 100436d0 f i libucrtd:output.obj
 0001:00042800       ??$extract_argument_from_va_list@H_J@?$positional_parameter_base@_WV?$stream_output_adapter@_W@__crt_stdio_output@@@__crt_stdio_output@@IAE_NAA_J@Z 10043800 f i libucrtd:output.obj
 0001:00042930       ??$extract_argument_from_va_list@H_J@?$positional_parameter_base@_WV?$string_output_adapter@_W@__crt_stdio_output@@@__crt_stdio_output@@IAE_NAA_J@Z 10043930 f i libucrtd:output.obj
 0001:00042a60       ??$extract_argument_from_va_list@H_J@?$standard_base@DV?$stream_output_adapter@D@__crt_stdio_output@@@__crt_stdio_output@@IAE_NAA_J@Z 10043a60 f i libucrtd:output.obj
 0001:00042a90       ??$extract_argument_from_va_list@H_J@?$standard_base@DV?$string_output_adapter@D@__crt_stdio_output@@@__crt_stdio_output@@IAE_NAA_J@Z 10043a90 f i libucrtd:output.obj
 0001:00042ac0       ??$extract_argument_from_va_list@H_J@?$standard_base@_WV?$stream_output_adapter@_W@__crt_stdio_output@@@__crt_stdio_output@@IAE_NAA_J@Z 10043ac0 f i libucrtd:output.obj
 0001:00042af0       ??$extract_argument_from_va_list@H_J@?$standard_base@_WV?$string_output_adapter@_W@__crt_stdio_output@@@__crt_stdio_output@@IAE_NAA_J@Z 10043af0 f i libucrtd:output.obj
 0001:00042b20       ??$extract_argument_from_va_list@I_J@?$positional_parameter_base@DV?$stream_output_adapter@D@__crt_stdio_output@@@__crt_stdio_output@@IAE_NAA_J@Z 10043b20 f i libucrtd:output.obj
 0001:00042c50       ??$extract_argument_from_va_list@I_J@?$positional_parameter_base@DV?$string_output_adapter@D@__crt_stdio_output@@@__crt_stdio_output@@IAE_NAA_J@Z 10043c50 f i libucrtd:output.obj
 0001:00042d80       ??$extract_argument_from_va_list@I_J@?$positional_parameter_base@_WV?$stream_output_adapter@_W@__crt_stdio_output@@@__crt_stdio_output@@IAE_NAA_J@Z 10043d80 f i libucrtd:output.obj
 0001:00042eb0       ??$extract_argument_from_va_list@I_J@?$positional_parameter_base@_WV?$string_output_adapter@_W@__crt_stdio_output@@@__crt_stdio_output@@IAE_NAA_J@Z 10043eb0 f i libucrtd:output.obj
 0001:00042fe0       ??$extract_argument_from_va_list@I_J@?$standard_base@DV?$stream_output_adapter@D@__crt_stdio_output@@@__crt_stdio_output@@IAE_NAA_J@Z 10043fe0 f i libucrtd:output.obj
 0001:00043010       ??$extract_argument_from_va_list@I_J@?$standard_base@DV?$string_output_adapter@D@__crt_stdio_output@@@__crt_stdio_output@@IAE_NAA_J@Z 10044010 f i libucrtd:output.obj
 0001:00043040       ??$extract_argument_from_va_list@I_J@?$standard_base@_WV?$stream_output_adapter@_W@__crt_stdio_output@@@__crt_stdio_output@@IAE_NAA_J@Z 10044040 f i libucrtd:output.obj
 0001:00043070       ??$extract_argument_from_va_list@I_J@?$standard_base@_WV?$string_output_adapter@_W@__crt_stdio_output@@@__crt_stdio_output@@IAE_NAA_J@Z 10044070 f i libucrtd:output.obj
 0001:000430a0       ??$extract_argument_from_va_list@PADPAD@?$positional_parameter_base@DV?$stream_output_adapter@D@__crt_stdio_output@@@__crt_stdio_output@@IAE_NAAPAD@Z 100440a0 f i libucrtd:output.obj
 0001:000431d0       ??$extract_argument_from_va_list@PADPAD@?$positional_parameter_base@DV?$string_output_adapter@D@__crt_stdio_output@@@__crt_stdio_output@@IAE_NAAPAD@Z 100441d0 f i libucrtd:output.obj
 0001:00043300       ??$extract_argument_from_va_list@PADPAD@?$positional_parameter_base@_WV?$stream_output_adapter@_W@__crt_stdio_output@@@__crt_stdio_output@@IAE_NAAPAD@Z 10044300 f i libucrtd:output.obj
 0001:00043430       ??$extract_argument_from_va_list@PADPAD@?$positional_parameter_base@_WV?$string_output_adapter@_W@__crt_stdio_output@@@__crt_stdio_output@@IAE_NAAPAD@Z 10044430 f i libucrtd:output.obj
 0001:00043560       ??$extract_argument_from_va_list@PADPAD@?$standard_base@DV?$stream_output_adapter@D@__crt_stdio_output@@@__crt_stdio_output@@IAE_NAAPAD@Z 10044560 f i libucrtd:output.obj
 0001:00043590       ??$extract_argument_from_va_list@PADPAD@?$standard_base@DV?$string_output_adapter@D@__crt_stdio_output@@@__crt_stdio_output@@IAE_NAAPAD@Z 10044590 f i libucrtd:output.obj
 0001:000435c0       ??$extract_argument_from_va_list@PADPAD@?$standard_base@_WV?$stream_output_adapter@_W@__crt_stdio_output@@@__crt_stdio_output@@IAE_NAAPAD@Z 100445c0 f i libucrtd:output.obj
 0001:000435f0       ??$extract_argument_from_va_list@PADPAD@?$standard_base@_WV?$string_output_adapter@_W@__crt_stdio_output@@@__crt_stdio_output@@IAE_NAAPAD@Z 100445f0 f i libucrtd:output.obj
 0001:00043d20       ??$extract_argument_from_va_list@PAXPAX@?$positional_parameter_base@DV?$stream_output_adapter@D@__crt_stdio_output@@@__crt_stdio_output@@IAE_NAAPAX@Z 10044d20 f i libucrtd:output.obj
 0001:00043e50       ??$extract_argument_from_va_list@PAXPAX@?$positional_parameter_base@DV?$string_output_adapter@D@__crt_stdio_output@@@__crt_stdio_output@@IAE_NAAPAX@Z 10044e50 f i libucrtd:output.obj
 0001:00043f80       ??$extract_argument_from_va_list@PAXPAX@?$positional_parameter_base@_WV?$stream_output_adapter@_W@__crt_stdio_output@@@__crt_stdio_output@@IAE_NAAPAX@Z 10044f80 f i libucrtd:output.obj
 0001:000440b0       ??$extract_argument_from_va_list@PAXPAX@?$positional_parameter_base@_WV?$string_output_adapter@_W@__crt_stdio_output@@@__crt_stdio_output@@IAE_NAAPAX@Z 100450b0 f i libucrtd:output.obj
 0001:000441e0       ??$extract_argument_from_va_list@PAXPAX@?$standard_base@DV?$stream_output_adapter@D@__crt_stdio_output@@@__crt_stdio_output@@IAE_NAAPAX@Z 100451e0 f i libucrtd:output.obj
 0001:00044210       ??$extract_argument_from_va_list@PAXPAX@?$standard_base@DV?$string_output_adapter@D@__crt_stdio_output@@@__crt_stdio_output@@IAE_NAAPAX@Z 10045210 f i libucrtd:output.obj
 0001:00044240       ??$extract_argument_from_va_list@PAXPAX@?$standard_base@_WV?$stream_output_adapter@_W@__crt_stdio_output@@@__crt_stdio_output@@IAE_NAAPAX@Z 10045240 f i libucrtd:output.obj
 0001:00044270       ??$extract_argument_from_va_list@PAXPAX@?$standard_base@_WV?$string_output_adapter@_W@__crt_stdio_output@@@__crt_stdio_output@@IAE_NAAPAX@Z 10045270 f i libucrtd:output.obj
 0001:000442a0       ??$extract_argument_from_va_list@U_CRT_DOUBLE@@U1@@?$positional_parameter_base@DV?$stream_output_adapter@D@__crt_stdio_output@@@__crt_stdio_output@@IAE_NAAU_CRT_DOUBLE@@@Z 100452a0 f i libucrtd:output.obj
 0001:00044400       ??$extract_argument_from_va_list@U_CRT_DOUBLE@@U1@@?$positional_parameter_base@DV?$string_output_adapter@D@__crt_stdio_output@@@__crt_stdio_output@@IAE_NAAU_CRT_DOUBLE@@@Z 10045400 f i libucrtd:output.obj
 0001:00044560       ??$extract_argument_from_va_list@U_CRT_DOUBLE@@U1@@?$positional_parameter_base@_WV?$stream_output_adapter@_W@__crt_stdio_output@@@__crt_stdio_output@@IAE_NAAU_CRT_DOUBLE@@@Z 10045560 f i libucrtd:output.obj
 0001:000446c0       ??$extract_argument_from_va_list@U_CRT_DOUBLE@@U1@@?$positional_parameter_base@_WV?$string_output_adapter@_W@__crt_stdio_output@@@__crt_stdio_output@@IAE_NAAU_CRT_DOUBLE@@@Z 100456c0 f i libucrtd:output.obj
 0001:00044820       ??$extract_argument_from_va_list@U_CRT_DOUBLE@@U1@@?$standard_base@DV?$stream_output_adapter@D@__crt_stdio_output@@@__crt_stdio_output@@IAE_NAAU_CRT_DOUBLE@@@Z 10045820 f i libucrtd:output.obj
 0001:00044870       ??$extract_argument_from_va_list@U_CRT_DOUBLE@@U1@@?$standard_base@DV?$string_output_adapter@D@__crt_stdio_output@@@__crt_stdio_output@@IAE_NAAU_CRT_DOUBLE@@@Z 10045870 f i libucrtd:output.obj
 0001:000448c0       ??$extract_argument_from_va_list@U_CRT_DOUBLE@@U1@@?$standard_base@_WV?$stream_output_adapter@_W@__crt_stdio_output@@@__crt_stdio_output@@IAE_NAAU_CRT_DOUBLE@@@Z 100458c0 f i libucrtd:output.obj
 0001:00044910       ??$extract_argument_from_va_list@U_CRT_DOUBLE@@U1@@?$standard_base@_WV?$string_output_adapter@_W@__crt_stdio_output@@@__crt_stdio_output@@IAE_NAAU_CRT_DOUBLE@@@Z 10045910 f i libucrtd:output.obj
 0001:00044960       ??$extract_argument_from_va_list@_J_J@?$positional_parameter_base@DV?$stream_output_adapter@D@__crt_stdio_output@@@__crt_stdio_output@@IAE_NAA_J@Z 10045960 f i libucrtd:output.obj
 0001:00044a90       ??$extract_argument_from_va_list@_J_J@?$positional_parameter_base@DV?$string_output_adapter@D@__crt_stdio_output@@@__crt_stdio_output@@IAE_NAA_J@Z 10045a90 f i libucrtd:output.obj
 0001:00044bc0       ??$extract_argument_from_va_list@_J_J@?$positional_parameter_base@_WV?$stream_output_adapter@_W@__crt_stdio_output@@@__crt_stdio_output@@IAE_NAA_J@Z 10045bc0 f i libucrtd:output.obj
 0001:00044cf0       ??$extract_argument_from_va_list@_J_J@?$positional_parameter_base@_WV?$string_output_adapter@_W@__crt_stdio_output@@@__crt_stdio_output@@IAE_NAA_J@Z 10045cf0 f i libucrtd:output.obj
 0001:00044e20       ??$extract_argument_from_va_list@_J_J@?$standard_base@DV?$stream_output_adapter@D@__crt_stdio_output@@@__crt_stdio_output@@IAE_NAA_J@Z 10045e20 f i libucrtd:output.obj
 0001:00044e50       ??$extract_argument_from_va_list@_J_J@?$standard_base@DV?$string_output_adapter@D@__crt_stdio_output@@@__crt_stdio_output@@IAE_NAA_J@Z 10045e50 f i libucrtd:output.obj
 0001:00044e80       ??$extract_argument_from_va_list@_J_J@?$standard_base@_WV?$stream_output_adapter@_W@__crt_stdio_output@@@__crt_stdio_output@@IAE_NAA_J@Z 10045e80 f i libucrtd:output.obj
 0001:00044eb0       ??$extract_argument_from_va_list@_J_J@?$standard_base@_WV?$string_output_adapter@_W@__crt_stdio_output@@@__crt_stdio_output@@IAE_NAA_J@Z 10045eb0 f i libucrtd:output.obj
 0001:00044ee0       ??$extract_argument_from_va_list@_K_J@?$positional_parameter_base@DV?$stream_output_adapter@D@__crt_stdio_output@@@__crt_stdio_output@@IAE_NAA_J@Z 10045ee0 f i libucrtd:output.obj
 0001:00045010       ??$extract_argument_from_va_list@_K_J@?$positional_parameter_base@DV?$string_output_adapter@D@__crt_stdio_output@@@__crt_stdio_output@@IAE_NAA_J@Z 10046010 f i libucrtd:output.obj
 0001:00045140       ??$extract_argument_from_va_list@_K_J@?$positional_parameter_base@_WV?$stream_output_adapter@_W@__crt_stdio_output@@@__crt_stdio_output@@IAE_NAA_J@Z 10046140 f i libucrtd:output.obj
 0001:00045270       ??$extract_argument_from_va_list@_K_J@?$positional_parameter_base@_WV?$string_output_adapter@_W@__crt_stdio_output@@@__crt_stdio_output@@IAE_NAA_J@Z 10046270 f i libucrtd:output.obj
 0001:000453a0       ??$extract_argument_from_va_list@_K_J@?$standard_base@DV?$stream_output_adapter@D@__crt_stdio_output@@@__crt_stdio_output@@IAE_NAA_J@Z 100463a0 f i libucrtd:output.obj
 0001:000453d0       ??$extract_argument_from_va_list@_K_J@?$standard_base@DV?$string_output_adapter@D@__crt_stdio_output@@@__crt_stdio_output@@IAE_NAA_J@Z 100463d0 f i libucrtd:output.obj
 0001:00045400       ??$extract_argument_from_va_list@_K_J@?$standard_base@_WV?$stream_output_adapter@_W@__crt_stdio_output@@@__crt_stdio_output@@IAE_NAA_J@Z 10046400 f i libucrtd:output.obj
 0001:00045430       ??$extract_argument_from_va_list@_K_J@?$standard_base@_WV?$string_output_adapter@_W@__crt_stdio_output@@@__crt_stdio_output@@IAE_NAA_J@Z 10046430 f i libucrtd:output.obj
 0001:00045460       ??$extract_argument_from_va_list@_W_W@?$positional_parameter_base@DV?$stream_output_adapter@D@__crt_stdio_output@@@__crt_stdio_output@@IAE_NAA_W@Z 10046460 f i libucrtd:output.obj
 0001:00045590       ??$extract_argument_from_va_list@_W_W@?$positional_parameter_base@DV?$string_output_adapter@D@__crt_stdio_output@@@__crt_stdio_output@@IAE_NAA_W@Z 10046590 f i libucrtd:output.obj
 0001:000456c0       ??$extract_argument_from_va_list@_W_W@?$positional_parameter_base@_WV?$stream_output_adapter@_W@__crt_stdio_output@@@__crt_stdio_output@@IAE_NAA_W@Z 100466c0 f i libucrtd:output.obj
 0001:000457f0       ??$extract_argument_from_va_list@_W_W@?$positional_parameter_base@_WV?$string_output_adapter@_W@__crt_stdio_output@@@__crt_stdio_output@@IAE_NAA_W@Z 100467f0 f i libucrtd:output.obj
 0001:00045920       ??$extract_argument_from_va_list@_W_W@?$standard_base@DV?$stream_output_adapter@D@__crt_stdio_output@@@__crt_stdio_output@@IAE_NAA_W@Z 10046920 f i libucrtd:output.obj
 0001:00045950       ??$extract_argument_from_va_list@_W_W@?$standard_base@DV?$string_output_adapter@D@__crt_stdio_output@@@__crt_stdio_output@@IAE_NAA_W@Z 10046950 f i libucrtd:output.obj
 0001:00045980       ??$extract_argument_from_va_list@_W_W@?$standard_base@_WV?$stream_output_adapter@_W@__crt_stdio_output@@@__crt_stdio_output@@IAE_NAA_W@Z 10046980 f i libucrtd:output.obj
 0001:000459b0       ??$extract_argument_from_va_list@_W_W@?$standard_base@_WV?$string_output_adapter@_W@__crt_stdio_output@@@__crt_stdio_output@@IAE_NAA_W@Z 100469b0 f i libucrtd:output.obj
 0001:000459e0       ??$get_parameter_type@D@?$positional_parameter_base@DV?$stream_output_adapter@D@__crt_stdio_output@@@__crt_stdio_output@@CA?AW4parameter_type@01@PAD@Z 100469e0 f i libucrtd:output.obj
 0001:000459f0       ??$get_parameter_type@D@?$positional_parameter_base@DV?$string_output_adapter@D@__crt_stdio_output@@@__crt_stdio_output@@CA?AW4parameter_type@01@PAD@Z 100469f0 f i libucrtd:output.obj
 0001:00045a00       ??$get_parameter_type@D@?$positional_parameter_base@_WV?$stream_output_adapter@_W@__crt_stdio_output@@@__crt_stdio_output@@CA?AW4parameter_type@01@PAD@Z 10046a00 f i libucrtd:output.obj
 0001:00045a10       ??$get_parameter_type@D@?$positional_parameter_base@_WV?$string_output_adapter@_W@__crt_stdio_output@@@__crt_stdio_output@@CA?AW4parameter_type@01@PAD@Z 10046a10 f i libucrtd:output.obj
 0001:00045a60       ??$get_parameter_type@X@?$positional_parameter_base@DV?$stream_output_adapter@D@__crt_stdio_output@@@__crt_stdio_output@@CA?AW4parameter_type@01@PAX@Z 10046a60 f i libucrtd:output.obj
 0001:00045a70       ??$get_parameter_type@X@?$positional_parameter_base@DV?$string_output_adapter@D@__crt_stdio_output@@@__crt_stdio_output@@CA?AW4parameter_type@01@PAX@Z 10046a70 f i libucrtd:output.obj
 0001:00045a80       ??$get_parameter_type@X@?$positional_parameter_base@_WV?$stream_output_adapter@_W@__crt_stdio_output@@@__crt_stdio_output@@CA?AW4parameter_type@01@PAX@Z 10046a80 f i libucrtd:output.obj
 0001:00045a90       ??$get_parameter_type@X@?$positional_parameter_base@_WV?$string_output_adapter@_W@__crt_stdio_output@@@__crt_stdio_output@@CA?AW4parameter_type@01@PAX@Z 10046a90 f i libucrtd:output.obj
 0001:00045aa0       ??$is_character_specifier@D@?$positional_parameter_base@DV?$stream_output_adapter@D@__crt_stdio_output@@@__crt_stdio_output@@CA_ND@Z 10046aa0 f i libucrtd:output.obj
 0001:00045ad0       ??$is_character_specifier@D@?$positional_parameter_base@DV?$string_output_adapter@D@__crt_stdio_output@@@__crt_stdio_output@@CA_ND@Z 10046ad0 f i libucrtd:output.obj
 0001:00045b00       ??$is_character_specifier@_W@?$positional_parameter_base@_WV?$stream_output_adapter@_W@__crt_stdio_output@@@__crt_stdio_output@@CA_N_W@Z 10046b00 f i libucrtd:output.obj
 0001:00045b30       ??$is_character_specifier@_W@?$positional_parameter_base@_WV?$string_output_adapter@_W@__crt_stdio_output@@@__crt_stdio_output@@CA_N_W@Z 10046b30 f i libucrtd:output.obj
 0001:00045b60       ??$is_integral_specifier@D@?$positional_parameter_base@DV?$stream_output_adapter@D@__crt_stdio_output@@@__crt_stdio_output@@CA_ND@Z 10046b60 f i libucrtd:output.obj
 0001:00045bc0       ??$is_integral_specifier@D@?$positional_parameter_base@DV?$string_output_adapter@D@__crt_stdio_output@@@__crt_stdio_output@@CA_ND@Z 10046bc0 f i libucrtd:output.obj
 0001:00045c20       ??$is_integral_specifier@_W@?$positional_parameter_base@_WV?$stream_output_adapter@_W@__crt_stdio_output@@@__crt_stdio_output@@CA_N_W@Z 10046c20 f i libucrtd:output.obj
 0001:00045c80       ??$is_integral_specifier@_W@?$positional_parameter_base@_WV?$string_output_adapter@_W@__crt_stdio_output@@@__crt_stdio_output@@CA_N_W@Z 10046c80 f i libucrtd:output.obj
 0001:00045ce0       ??$is_pointer_specifier@D@?$positional_parameter_base@DV?$stream_output_adapter@D@__crt_stdio_output@@@__crt_stdio_output@@CA_ND@Z 10046ce0 f i libucrtd:output.obj
 0001:00045d10       ??$is_pointer_specifier@D@?$positional_parameter_base@DV?$string_output_adapter@D@__crt_stdio_output@@@__crt_stdio_output@@CA_ND@Z 10046d10 f i libucrtd:output.obj
 0001:00045d40       ??$is_pointer_specifier@_W@?$positional_parameter_base@_WV?$stream_output_adapter@_W@__crt_stdio_output@@@__crt_stdio_output@@CA_N_W@Z 10046d40 f i libucrtd:output.obj
 0001:00045d70       ??$is_pointer_specifier@_W@?$positional_parameter_base@_WV?$string_output_adapter@_W@__crt_stdio_output@@@__crt_stdio_output@@CA_N_W@Z 10046d70 f i libucrtd:output.obj
 0001:00045da0       ??$is_string_specifier@D@?$positional_parameter_base@DV?$stream_output_adapter@D@__crt_stdio_output@@@__crt_stdio_output@@CA_ND@Z 10046da0 f i libucrtd:output.obj
 0001:00045dd0       ??$is_string_specifier@D@?$positional_parameter_base@DV?$string_output_adapter@D@__crt_stdio_output@@@__crt_stdio_output@@CA_ND@Z 10046dd0 f i libucrtd:output.obj
 0001:00045e00       ??$is_string_specifier@_W@?$positional_parameter_base@_WV?$stream_output_adapter@_W@__crt_stdio_output@@@__crt_stdio_output@@CA_N_W@Z 10046e00 f i libucrtd:output.obj
 0001:00045e30       ??$is_string_specifier@_W@?$positional_parameter_base@_WV?$string_output_adapter@_W@__crt_stdio_output@@@__crt_stdio_output@@CA_N_W@Z 10046e30 f i libucrtd:output.obj
 0001:00045e60       ??$is_wide_character_specifier@D@__crt_stdio_output@@YA_N_KDW4length_modifier@0@@Z 10046e60 f i libucrtd:output.obj
 0001:00045ee0       ??$is_wide_character_specifier@_W@__crt_stdio_output@@YA_N_K_WW4length_modifier@0@@Z 10046ee0 f i libucrtd:output.obj
 0001:00045fa0       ??$peek_va_arg@C@__crt_stdio_output@@YACPAD@Z 10046fa0 f i libucrtd:output.obj
 0001:00045fc0       ??$peek_va_arg@E@__crt_stdio_output@@YAEPAD@Z 10046fc0 f i libucrtd:output.obj
 0001:00045fe0       ??$peek_va_arg@F@__crt_stdio_output@@YAFPAD@Z 10046fe0 f i libucrtd:output.obj
 0001:00046000       ??$peek_va_arg@G@__crt_stdio_output@@YAGPAD@Z 10047000 f i libucrtd:output.obj
 0001:00046020       ??$peek_va_arg@H@__crt_stdio_output@@YAHPAD@Z 10047020 f i libucrtd:output.obj
 0001:00046040       ??$peek_va_arg@I@__crt_stdio_output@@YAIPAD@Z 10047040 f i libucrtd:output.obj
 0001:00046060       ??$peek_va_arg@PAD@__crt_stdio_output@@YAPADPAD@Z 10047060 f i libucrtd:output.obj
 0001:00046100       ??$peek_va_arg@PAX@__crt_stdio_output@@YAPAXPAD@Z 10047100 f i libucrtd:output.obj
 0001:00046120       ??$peek_va_arg@U_CRT_DOUBLE@@@__crt_stdio_output@@YA?AU_CRT_DOUBLE@@PAD@Z 10047120 f i libucrtd:output.obj
 0001:00046140       ??$peek_va_arg@_J@__crt_stdio_output@@YA_JPAD@Z 10047140 f i libucrtd:output.obj
 0001:00046160       ??$peek_va_arg@_K@__crt_stdio_output@@YA_KPAD@Z 10047160 f i libucrtd:output.obj
 0001:00046180       ??$peek_va_arg@_W@__crt_stdio_output@@YA_WPAD@Z 10047180 f i libucrtd:output.obj
 0001:000461a0       ??$puttc_nolock@ABDPAU_iobuf@@@?$__crt_char_traits@D@@SAHABD$$QAPAU_iobuf@@@Z 100471a0 f i libucrtd:output.obj
 0001:000461c0       ??$puttc_nolock@AB_WPAU_iobuf@@@?$__crt_char_traits@_W@@SAGAB_W$$QAPAU_iobuf@@@Z 100471c0 f i libucrtd:output.obj
 0001:000461e0       ??$read_va_arg@C@__crt_stdio_output@@YACAAPAD@Z 100471e0 f i libucrtd:output.obj
 0001:00046200       ??$read_va_arg@E@__crt_stdio_output@@YAEAAPAD@Z 10047200 f i libucrtd:output.obj
 0001:00046220       ??$read_va_arg@F@__crt_stdio_output@@YAFAAPAD@Z 10047220 f i libucrtd:output.obj
 0001:00046240       ??$read_va_arg@G@__crt_stdio_output@@YAGAAPAD@Z 10047240 f i libucrtd:output.obj
 0001:00046260       ??$read_va_arg@H@__crt_stdio_output@@YAHAAPAD@Z 10047260 f i libucrtd:output.obj
 0001:00046280       ??$read_va_arg@I@__crt_stdio_output@@YAIAAPAD@Z 10047280 f i libucrtd:output.obj
 0001:000462a0       ??$read_va_arg@PAD@__crt_stdio_output@@YAPADAAPAD@Z 100472a0 f i libucrtd:output.obj
 0001:00046440       ??$read_va_arg@PAX@__crt_stdio_output@@YAPAXAAPAD@Z 10047440 f i libucrtd:output.obj
 0001:00046460       ??$read_va_arg@U_CRT_DOUBLE@@@__crt_stdio_output@@YA?AU_CRT_DOUBLE@@AAPAD@Z 10047460 f i libucrtd:output.obj
 0001:00046480       ??$read_va_arg@_J@__crt_stdio_output@@YA_JAAPAD@Z 10047480 f i libucrtd:output.obj
 0001:000464a0       ??$read_va_arg@_K@__crt_stdio_output@@YA_KAAPAD@Z 100474a0 f i libucrtd:output.obj
 0001:000464c0       ??$read_va_arg@_W@__crt_stdio_output@@YA_WAAPAD@Z 100474c0 f i libucrtd:output.obj
 0001:000464e0       ??$scratch_count@D@formatting_buffer@__crt_stdio_output@@QBEIXZ 100474e0 f i libucrtd:output.obj
 0001:00046500       ??$scratch_data@D@formatting_buffer@__crt_stdio_output@@QAEPADXZ 10047500 f i libucrtd:output.obj
 0001:00046550       ??$tcstol@AAPBDPAPADH@?$__crt_char_traits@D@@SAJAAPBD$$QAPAPAD$$QAH@Z 10047550 f i libucrtd:output.obj
 0001:00046580       ??$tcstol@AAPB_WPAPA_WH@?$__crt_char_traits@_W@@SAJAAPB_W$$QAPAPA_W$$QAH@Z 10047580 f i libucrtd:output.obj
 0001:000465b0       ??$tcstol@PBDPAPADH@?$__crt_char_traits@D@@SAJ$$QAPBD$$QAPAPAD$$QAH@Z 100475b0 f i libucrtd:output.obj
 0001:000465e0       ??$tcstol@PB_WPAPA_WH@?$__crt_char_traits@_W@@SAJ$$QAPB_W$$QAPAPA_W$$QAH@Z 100475e0 f i libucrtd:output.obj
 0001:00046610       ??$type_case_integer_parse_into_buffer@I@?$output_processor@DV?$stream_output_adapter@D@__crt_stdio_output@@V?$format_validation_base@DV?$stream_output_adapter@D@__crt_stdio_output@@@2@@__crt_stdio_output@@AAEXII_N@Z 10047610 f i libucrtd:output.obj
 0001:000466e0       ??$type_case_integer_parse_into_buffer@I@?$output_processor@DV?$stream_output_adapter@D@__crt_stdio_output@@V?$positional_parameter_base@DV?$stream_output_adapter@D@__crt_stdio_output@@@2@@__crt_stdio_output@@AAEXII_N@Z 100476e0 f i libucrtd:output.obj
 0001:000467b0       ??$type_case_integer_parse_into_buffer@I@?$output_processor@DV?$stream_output_adapter@D@__crt_stdio_output@@V?$standard_base@DV?$stream_output_adapter@D@__crt_stdio_output@@@2@@__crt_stdio_output@@AAEXII_N@Z 100477b0 f i libucrtd:output.obj
 0001:00046880       ??$type_case_integer_parse_into_buffer@I@?$output_processor@DV?$string_output_adapter@D@__crt_stdio_output@@V?$format_validation_base@DV?$string_output_adapter@D@__crt_stdio_output@@@2@@__crt_stdio_output@@AAEXII_N@Z 10047880 f i libucrtd:output.obj
 0001:00046950       ??$type_case_integer_parse_into_buffer@I@?$output_processor@DV?$string_output_adapter@D@__crt_stdio_output@@V?$positional_parameter_base@DV?$string_output_adapter@D@__crt_stdio_output@@@2@@__crt_stdio_output@@AAEXII_N@Z 10047950 f i libucrtd:output.obj
 0001:00046a20       ??$type_case_integer_parse_into_buffer@I@?$output_processor@DV?$string_output_adapter@D@__crt_stdio_output@@V?$standard_base@DV?$string_output_adapter@D@__crt_stdio_output@@@2@@__crt_stdio_output@@AAEXII_N@Z 10047a20 f i libucrtd:output.obj
 0001:00046af0       ??$type_case_integer_parse_into_buffer@I@?$output_processor@_WV?$stream_output_adapter@_W@__crt_stdio_output@@V?$format_validation_base@_WV?$stream_output_adapter@_W@__crt_stdio_output@@@2@@__crt_stdio_output@@AAEXII_N@Z 10047af0 f i libucrtd:output.obj
 0001:00046bd0       ??$type_case_integer_parse_into_buffer@I@?$output_processor@_WV?$stream_output_adapter@_W@__crt_stdio_output@@V?$positional_parameter_base@_WV?$stream_output_adapter@_W@__crt_stdio_output@@@2@@__crt_stdio_output@@AAEXII_N@Z 10047bd0 f i libucrtd:output.obj
 0001:00046cb0       ??$type_case_integer_parse_into_buffer@I@?$output_processor@_WV?$stream_output_adapter@_W@__crt_stdio_output@@V?$standard_base@_WV?$stream_output_adapter@_W@__crt_stdio_output@@@2@@__crt_stdio_output@@AAEXII_N@Z 10047cb0 f i libucrtd:output.obj
 0001:00046d90       ??$type_case_integer_parse_into_buffer@I@?$output_processor@_WV?$string_output_adapter@_W@__crt_stdio_output@@V?$format_validation_base@_WV?$string_output_adapter@_W@__crt_stdio_output@@@2@@__crt_stdio_output@@AAEXII_N@Z 10047d90 f i libucrtd:output.obj
 0001:00046e70       ??$type_case_integer_parse_into_buffer@I@?$output_processor@_WV?$string_output_adapter@_W@__crt_stdio_output@@V?$positional_parameter_base@_WV?$string_output_adapter@_W@__crt_stdio_output@@@2@@__crt_stdio_output@@AAEXII_N@Z 10047e70 f i libucrtd:output.obj
 0001:00046f50       ??$type_case_integer_parse_into_buffer@I@?$output_processor@_WV?$string_output_adapter@_W@__crt_stdio_output@@V?$standard_base@_WV?$string_output_adapter@_W@__crt_stdio_output@@@2@@__crt_stdio_output@@AAEXII_N@Z 10047f50 f i libucrtd:output.obj
 0001:00047030       ??$type_case_integer_parse_into_buffer@_K@?$output_processor@DV?$stream_output_adapter@D@__crt_stdio_output@@V?$format_validation_base@DV?$stream_output_adapter@D@__crt_stdio_output@@@2@@__crt_stdio_output@@AAEX_KI_N@Z 10048030 f i libucrtd:output.obj
 0001:00047120       ??$type_case_integer_parse_into_buffer@_K@?$output_processor@DV?$stream_output_adapter@D@__crt_stdio_output@@V?$positional_parameter_base@DV?$stream_output_adapter@D@__crt_stdio_output@@@2@@__crt_stdio_output@@AAEX_KI_N@Z 10048120 f i libucrtd:output.obj
 0001:00047210       ??$type_case_integer_parse_into_buffer@_K@?$output_processor@DV?$stream_output_adapter@D@__crt_stdio_output@@V?$standard_base@DV?$stream_output_adapter@D@__crt_stdio_output@@@2@@__crt_stdio_output@@AAEX_KI_N@Z 10048210 f i libucrtd:output.obj
 0001:00047300       ??$type_case_integer_parse_into_buffer@_K@?$output_processor@DV?$string_output_adapter@D@__crt_stdio_output@@V?$format_validation_base@DV?$string_output_adapter@D@__crt_stdio_output@@@2@@__crt_stdio_output@@AAEX_KI_N@Z 10048300 f i libucrtd:output.obj
 0001:000473f0       ??$type_case_integer_parse_into_buffer@_K@?$output_processor@DV?$string_output_adapter@D@__crt_stdio_output@@V?$positional_parameter_base@DV?$string_output_adapter@D@__crt_stdio_output@@@2@@__crt_stdio_output@@AAEX_KI_N@Z 100483f0 f i libucrtd:output.obj
 0001:000474e0       ??$type_case_integer_parse_into_buffer@_K@?$output_processor@DV?$string_output_adapter@D@__crt_stdio_output@@V?$standard_base@DV?$string_output_adapter@D@__crt_stdio_output@@@2@@__crt_stdio_output@@AAEX_KI_N@Z 100484e0 f i libucrtd:output.obj
 0001:000475d0       ??$type_case_integer_parse_into_buffer@_K@?$output_processor@_WV?$stream_output_adapter@_W@__crt_stdio_output@@V?$format_validation_base@_WV?$stream_output_adapter@_W@__crt_stdio_output@@@2@@__crt_stdio_output@@AAEX_KI_N@Z 100485d0 f i libucrtd:output.obj
 0001:000476d0       ??$type_case_integer_parse_into_buffer@_K@?$output_processor@_WV?$stream_output_adapter@_W@__crt_stdio_output@@V?$positional_parameter_base@_WV?$stream_output_adapter@_W@__crt_stdio_output@@@2@@__crt_stdio_output@@AAEX_KI_N@Z 100486d0 f i libucrtd:output.obj
 0001:000477d0       ??$type_case_integer_parse_into_buffer@_K@?$output_processor@_WV?$stream_output_adapter@_W@__crt_stdio_output@@V?$standard_base@_WV?$stream_output_adapter@_W@__crt_stdio_output@@@2@@__crt_stdio_output@@AAEX_KI_N@Z 100487d0 f i libucrtd:output.obj
 0001:000478d0       ??$type_case_integer_parse_into_buffer@_K@?$output_processor@_WV?$string_output_adapter@_W@__crt_stdio_output@@V?$format_validation_base@_WV?$string_output_adapter@_W@__crt_stdio_output@@@2@@__crt_stdio_output@@AAEX_KI_N@Z 100488d0 f i libucrtd:output.obj
 0001:000479d0       ??$type_case_integer_parse_into_buffer@_K@?$output_processor@_WV?$string_output_adapter@_W@__crt_stdio_output@@V?$positional_parameter_base@_WV?$string_output_adapter@_W@__crt_stdio_output@@@2@@__crt_stdio_output@@AAEX_KI_N@Z 100489d0 f i libucrtd:output.obj
 0001:00047ad0       ??$type_case_integer_parse_into_buffer@_K@?$output_processor@_WV?$string_output_adapter@_W@__crt_stdio_output@@V?$standard_base@_WV?$string_output_adapter@_W@__crt_stdio_output@@@2@@__crt_stdio_output@@AAEX_KI_N@Z 10048ad0 f i libucrtd:output.obj
 0001:00047bd0       ??$write_multiple_characters@V?$stream_output_adapter@D@__crt_stdio_output@@D@__crt_stdio_output@@YAXABV?$stream_output_adapter@D@0@DHQAH@Z 10048bd0 f i libucrtd:output.obj
 0001:00047c20       ??$write_multiple_characters@V?$stream_output_adapter@_W@__crt_stdio_output@@D@__crt_stdio_output@@YAXABV?$stream_output_adapter@_W@0@DHQAH@Z 10048c20 f i libucrtd:output.obj
 0001:00047c70       ??$write_multiple_characters@V?$string_output_adapter@D@__crt_stdio_output@@D@__crt_stdio_output@@YAXABV?$string_output_adapter@D@0@DHQAH@Z 10048c70 f i libucrtd:output.obj
 0001:00047cc0       ??$write_multiple_characters@V?$string_output_adapter@_W@__crt_stdio_output@@D@__crt_stdio_output@@YAXABV?$string_output_adapter@_W@0@DHQAH@Z 10048cc0 f i libucrtd:output.obj
 0001:00048010       ??0?$common_data@D@__crt_stdio_output@@IAE@XZ 10049010 f i libucrtd:output.obj
 0001:000480c0       ??0?$common_data@_W@__crt_stdio_output@@IAE@XZ 100490c0 f i libucrtd:output.obj
 0001:00048170       ??0?$output_adapter_data@DV?$stream_output_adapter@D@__crt_stdio_output@@@__crt_stdio_output@@IAE@ABV?$stream_output_adapter@D@1@_KQBDQAU__crt_locale_pointers@@QAD@Z 10049170 f i libucrtd:output.obj
 0001:000481d0       ??0?$output_adapter_data@DV?$string_output_adapter@D@__crt_stdio_output@@@__crt_stdio_output@@IAE@ABV?$string_output_adapter@D@1@_KQBDQAU__crt_locale_pointers@@QAD@Z 100491d0 f i libucrtd:output.obj
 0001:00048230       ??0?$output_adapter_data@_WV?$stream_output_adapter@_W@__crt_stdio_output@@@__crt_stdio_output@@IAE@ABV?$stream_output_adapter@_W@1@_KQB_WQAU__crt_locale_pointers@@QAD@Z 10049230 f i libucrtd:output.obj
 0001:00048290       ??0?$output_adapter_data@_WV?$string_output_adapter@_W@__crt_stdio_output@@@__crt_stdio_output@@IAE@ABV?$string_output_adapter@_W@1@_KQB_WQAU__crt_locale_pointers@@QAD@Z 10049290 f i libucrtd:output.obj
 0001:000482f0       ??0?$output_processor@DV?$stream_output_adapter@D@__crt_stdio_output@@V?$format_validation_base@DV?$stream_output_adapter@D@__crt_stdio_output@@@2@@__crt_stdio_output@@QAE@ABV?$stream_output_adapter@D@1@_KQBDQAU__crt_locale_pointers@@QAD@Z 100492f0 f i libucrtd:output.obj
 0001:00048320       ??0?$output_processor@DV?$stream_output_adapter@D@__crt_stdio_output@@V?$positional_parameter_base@DV?$stream_output_adapter@D@__crt_stdio_output@@@2@@__crt_stdio_output@@QAE@ABV?$stream_output_adapter@D@1@_KQBDQAU__crt_locale_pointers@@QAD@Z 10049320 f i libucrtd:output.obj
 0001:00048350       ??0?$output_processor@DV?$stream_output_adapter@D@__crt_stdio_output@@V?$standard_base@DV?$stream_output_adapter@D@__crt_stdio_output@@@2@@__crt_stdio_output@@QAE@ABV?$stream_output_adapter@D@1@_KQBDQAU__crt_locale_pointers@@QAD@Z 10049350 f i libucrtd:output.obj
 0001:00048380       ??0?$output_processor@DV?$string_output_adapter@D@__crt_stdio_output@@V?$format_validation_base@DV?$string_output_adapter@D@__crt_stdio_output@@@2@@__crt_stdio_output@@QAE@ABV?$string_output_adapter@D@1@_KQBDQAU__crt_locale_pointers@@QAD@Z 10049380 f i libucrtd:output.obj
 0001:000483b0       ??0?$output_processor@DV?$string_output_adapter@D@__crt_stdio_output@@V?$positional_parameter_base@DV?$string_output_adapter@D@__crt_stdio_output@@@2@@__crt_stdio_output@@QAE@ABV?$string_output_adapter@D@1@_KQBDQAU__crt_locale_pointers@@QAD@Z 100493b0 f i libucrtd:output.obj
 0001:000483e0       ??0?$output_processor@DV?$string_output_adapter@D@__crt_stdio_output@@V?$standard_base@DV?$string_output_adapter@D@__crt_stdio_output@@@2@@__crt_stdio_output@@QAE@ABV?$string_output_adapter@D@1@_KQBDQAU__crt_locale_pointers@@QAD@Z 100493e0 f i libucrtd:output.obj
 0001:00048410       ??0?$output_processor@_WV?$stream_output_adapter@_W@__crt_stdio_output@@V?$format_validation_base@_WV?$stream_output_adapter@_W@__crt_stdio_output@@@2@@__crt_stdio_output@@QAE@ABV?$stream_output_adapter@_W@1@_KQB_WQAU__crt_locale_pointers@@QAD@Z 10049410 f i libucrtd:output.obj
 0001:00048440       ??0?$output_processor@_WV?$stream_output_adapter@_W@__crt_stdio_output@@V?$positional_parameter_base@_WV?$stream_output_adapter@_W@__crt_stdio_output@@@2@@__crt_stdio_output@@QAE@ABV?$stream_output_adapter@_W@1@_KQB_WQAU__crt_locale_pointers@@QAD@Z 10049440 f i libucrtd:output.obj
 0001:00048470       ??0?$output_processor@_WV?$stream_output_adapter@_W@__crt_stdio_output@@V?$standard_base@_WV?$stream_output_adapter@_W@__crt_stdio_output@@@2@@__crt_stdio_output@@QAE@ABV?$stream_output_adapter@_W@1@_KQB_WQAU__crt_locale_pointers@@QAD@Z 10049470 f i libucrtd:output.obj
 0001:000484a0       ??0?$output_processor@_WV?$string_output_adapter@_W@__crt_stdio_output@@V?$format_validation_base@_WV?$string_output_adapter@_W@__crt_stdio_output@@@2@@__crt_stdio_output@@QAE@ABV?$string_output_adapter@_W@1@_KQB_WQAU__crt_locale_pointers@@QAD@Z 100494a0 f i libucrtd:output.obj
 0001:000484d0       ??0?$output_processor@_WV?$string_output_adapter@_W@__crt_stdio_output@@V?$positional_parameter_base@_WV?$string_output_adapter@_W@__crt_stdio_output@@@2@@__crt_stdio_output@@QAE@ABV?$string_output_adapter@_W@1@_KQB_WQAU__crt_locale_pointers@@QAD@Z 100494d0 f i libucrtd:output.obj
 0001:00048500       ??0?$output_processor@_WV?$string_output_adapter@_W@__crt_stdio_output@@V?$standard_base@_WV?$string_output_adapter@_W@__crt_stdio_output@@@2@@__crt_stdio_output@@QAE@ABV?$string_output_adapter@_W@1@_KQB_WQAU__crt_locale_pointers@@QAD@Z 10049500 f i libucrtd:output.obj
 0001:00048530       ??0?$stream_output_adapter@D@__crt_stdio_output@@QAE@QAU_iobuf@@@Z 10049530 f i libucrtd:output.obj
 0001:00048550       ??0?$stream_output_adapter@_W@__crt_stdio_output@@QAE@QAU_iobuf@@@Z 10049550 f i libucrtd:output.obj
 0001:00048570       ??0?$string_output_adapter@D@__crt_stdio_output@@QAE@QAU?$string_output_adapter_context@D@1@@Z 10049570 f i libucrtd:output.obj
 0001:00048590       ??0?$string_output_adapter@_W@__crt_stdio_output@@QAE@QAU?$string_output_adapter_context@_W@1@@Z 10049590 f i libucrtd:output.obj
 0001:000485b0       ??0_LocaleUpdate@@QAE@QAU__crt_locale_pointers@@@Z 100495b0 f i libucrtd:output.obj
 0001:00048690       ??0__acrt_stdio_temporary_buffering_guard@@QAE@QAU_iobuf@@@Z 10049690 f i libucrtd:output.obj
 0001:000486c0       ??0__crt_deferred_errno_cache@@QAE@XZ 100496c0 f i libucrtd:output.obj
 0001:000486e0       ??0__crt_errno_guard@@QAE@QAH@Z 100496e0 f i libucrtd:output.obj
 0001:00048710       ??0__crt_stdio_stream@@QAE@QAU_iobuf@@@Z 10049710 f i libucrtd:output.obj
 0001:00048730       ??0formatting_buffer@__crt_stdio_output@@QAE@XZ 10049730 f i libucrtd:output.obj
 0001:00048760       ??1?$common_data@D@__crt_stdio_output@@QAE@XZ 10049760 f i libucrtd:output.obj
 0001:00048780       ??1?$common_data@_W@__crt_stdio_output@@QAE@XZ 10049780 f i libucrtd:output.obj
 0001:000487a0       ??1?$format_validation_base@DV?$stream_output_adapter@D@__crt_stdio_output@@@__crt_stdio_output@@QAE@XZ 100497a0 f i libucrtd:output.obj
 0001:000487c0       ??1?$format_validation_base@DV?$string_output_adapter@D@__crt_stdio_output@@@__crt_stdio_output@@QAE@XZ 100497c0 f i libucrtd:output.obj
 0001:000487e0       ??1?$format_validation_base@_WV?$stream_output_adapter@_W@__crt_stdio_output@@@__crt_stdio_output@@QAE@XZ 100497e0 f i libucrtd:output.obj
 0001:00048800       ??1?$format_validation_base@_WV?$string_output_adapter@_W@__crt_stdio_output@@@__crt_stdio_output@@QAE@XZ 10049800 f i libucrtd:output.obj
 0001:00048820       ??1?$output_adapter_data@DV?$stream_output_adapter@D@__crt_stdio_output@@@__crt_stdio_output@@QAE@XZ 10049820 f i libucrtd:output.obj
 0001:00048840       ??1?$output_adapter_data@DV?$string_output_adapter@D@__crt_stdio_output@@@__crt_stdio_output@@QAE@XZ 10049840 f i libucrtd:output.obj
 0001:00048860       ??1?$output_adapter_data@_WV?$stream_output_adapter@_W@__crt_stdio_output@@@__crt_stdio_output@@QAE@XZ 10049860 f i libucrtd:output.obj
 0001:00048880       ??1?$output_adapter_data@_WV?$string_output_adapter@_W@__crt_stdio_output@@@__crt_stdio_output@@QAE@XZ 10049880 f i libucrtd:output.obj
 0001:000488a0       ??1?$output_processor@DV?$stream_output_adapter@D@__crt_stdio_output@@V?$format_validation_base@DV?$stream_output_adapter@D@__crt_stdio_output@@@2@@__crt_stdio_output@@QAE@XZ 100498a0 f i libucrtd:output.obj
 0001:000488c0       ??1?$output_processor@DV?$stream_output_adapter@D@__crt_stdio_output@@V?$positional_parameter_base@DV?$stream_output_adapter@D@__crt_stdio_output@@@2@@__crt_stdio_output@@QAE@XZ 100498c0 f i libucrtd:output.obj
 0001:000488e0       ??1?$output_processor@DV?$stream_output_adapter@D@__crt_stdio_output@@V?$standard_base@DV?$stream_output_adapter@D@__crt_stdio_output@@@2@@__crt_stdio_output@@QAE@XZ 100498e0 f i libucrtd:output.obj
 0001:00048900       ??1?$output_processor@DV?$string_output_adapter@D@__crt_stdio_output@@V?$format_validation_base@DV?$string_output_adapter@D@__crt_stdio_output@@@2@@__crt_stdio_output@@QAE@XZ 10049900 f i libucrtd:output.obj
 0001:00048920       ??1?$output_processor@DV?$string_output_adapter@D@__crt_stdio_output@@V?$positional_parameter_base@DV?$string_output_adapter@D@__crt_stdio_output@@@2@@__crt_stdio_output@@QAE@XZ 10049920 f i libucrtd:output.obj
 0001:00048940       ??1?$output_processor@DV?$string_output_adapter@D@__crt_stdio_output@@V?$standard_base@DV?$string_output_adapter@D@__crt_stdio_output@@@2@@__crt_stdio_output@@QAE@XZ 10049940 f i libucrtd:output.obj
 0001:00048960       ??1?$output_processor@_WV?$stream_output_adapter@_W@__crt_stdio_output@@V?$format_validation_base@_WV?$stream_output_adapter@_W@__crt_stdio_output@@@2@@__crt_stdio_output@@QAE@XZ 10049960 f i libucrtd:output.obj
 0001:00048980       ??1?$output_processor@_WV?$stream_output_adapter@_W@__crt_stdio_output@@V?$positional_parameter_base@_WV?$stream_output_adapter@_W@__crt_stdio_output@@@2@@__crt_stdio_output@@QAE@XZ 10049980 f i libucrtd:output.obj
 0001:000489a0       ??1?$output_processor@_WV?$stream_output_adapter@_W@__crt_stdio_output@@V?$standard_base@_WV?$stream_output_adapter@_W@__crt_stdio_output@@@2@@__crt_stdio_output@@QAE@XZ 100499a0 f i libucrtd:output.obj
 0001:000489c0       ??1?$output_processor@_WV?$string_output_adapter@_W@__crt_stdio_output@@V?$format_validation_base@_WV?$string_output_adapter@_W@__crt_stdio_output@@@2@@__crt_stdio_output@@QAE@XZ 100499c0 f i libucrtd:output.obj
 0001:000489e0       ??1?$output_processor@_WV?$string_output_adapter@_W@__crt_stdio_output@@V?$positional_parameter_base@_WV?$string_output_adapter@_W@__crt_stdio_output@@@2@@__crt_stdio_output@@QAE@XZ 100499e0 f i libucrtd:output.obj
 0001:00048a00       ??1?$output_processor@_WV?$string_output_adapter@_W@__crt_stdio_output@@V?$standard_base@_WV?$string_output_adapter@_W@__crt_stdio_output@@@2@@__crt_stdio_output@@QAE@XZ 10049a00 f i libucrtd:output.obj
 0001:00048a20       ??1?$positional_parameter_base@DV?$stream_output_adapter@D@__crt_stdio_output@@@__crt_stdio_output@@QAE@XZ 10049a20 f i libucrtd:output.obj
 0001:00048a40       ??1?$positional_parameter_base@DV?$string_output_adapter@D@__crt_stdio_output@@@__crt_stdio_output@@QAE@XZ 10049a40 f i libucrtd:output.obj
 0001:00048a60       ??1?$positional_parameter_base@_WV?$stream_output_adapter@_W@__crt_stdio_output@@@__crt_stdio_output@@QAE@XZ 10049a60 f i libucrtd:output.obj
 0001:00048a80       ??1?$positional_parameter_base@_WV?$string_output_adapter@_W@__crt_stdio_output@@@__crt_stdio_output@@QAE@XZ 10049a80 f i libucrtd:output.obj
 0001:00048aa0       ??1?$standard_base@DV?$stream_output_adapter@D@__crt_stdio_output@@@__crt_stdio_output@@QAE@XZ 10049aa0 f i libucrtd:output.obj
 0001:00048ac0       ??1?$standard_base@DV?$string_output_adapter@D@__crt_stdio_output@@@__crt_stdio_output@@QAE@XZ 10049ac0 f i libucrtd:output.obj
 0001:00048ae0       ??1?$standard_base@_WV?$stream_output_adapter@_W@__crt_stdio_output@@@__crt_stdio_output@@QAE@XZ 10049ae0 f i libucrtd:output.obj
 0001:00048b00       ??1?$standard_base@_WV?$string_output_adapter@_W@__crt_stdio_output@@@__crt_stdio_output@@QAE@XZ 10049b00 f i libucrtd:output.obj
 0001:00048b20       ??1_LocaleUpdate@@QAE@XZ   10049b20 f i libucrtd:output.obj
 0001:00048b60       ??1__acrt_stdio_temporary_buffering_guard@@QAE@XZ 10049b60 f i libucrtd:output.obj
 0001:00048b90       ??1__crt_errno_guard@@QAE@XZ 10049b90 f i libucrtd:output.obj
 0001:00048bc0       ??1formatting_buffer@__crt_stdio_output@@QAE@XZ 10049bc0 f i libucrtd:output.obj
 0001:00048be0       ??4?$__crt_unique_heap_ptr@DU__crt_internal_free_policy@@@@QAEAAV0@$$QAV0@@Z 10049be0 f i libucrtd:output.obj
 0001:00048c10       ??C__crt_stdio_stream@@QBEPAU__crt_stdio_stream_data@@XZ 10049c10 f i libucrtd:output.obj
 0001:00049350       ?GetLocaleT@_LocaleUpdate@@QAEPAU__crt_locale_pointers@@XZ 1004a350 f i libucrtd:output.obj
 0001:00049370       ?adjust_hexit@?$output_processor@DV?$stream_output_adapter@D@__crt_stdio_output@@V?$format_validation_base@DV?$stream_output_adapter@D@__crt_stdio_output@@@2@@__crt_stdio_output@@CADH_N@Z 1004a370 f i libucrtd:output.obj
 0001:000493b0       ?adjust_hexit@?$output_processor@DV?$stream_output_adapter@D@__crt_stdio_output@@V?$positional_parameter_base@DV?$stream_output_adapter@D@__crt_stdio_output@@@2@@__crt_stdio_output@@CADH_N@Z 1004a3b0 f i libucrtd:output.obj
 0001:000493f0       ?adjust_hexit@?$output_processor@DV?$stream_output_adapter@D@__crt_stdio_output@@V?$standard_base@DV?$stream_output_adapter@D@__crt_stdio_output@@@2@@__crt_stdio_output@@CADH_N@Z 1004a3f0 f i libucrtd:output.obj
 0001:00049430       ?adjust_hexit@?$output_processor@DV?$string_output_adapter@D@__crt_stdio_output@@V?$format_validation_base@DV?$string_output_adapter@D@__crt_stdio_output@@@2@@__crt_stdio_output@@CADH_N@Z 1004a430 f i libucrtd:output.obj
 0001:00049470       ?adjust_hexit@?$output_processor@DV?$string_output_adapter@D@__crt_stdio_output@@V?$positional_parameter_base@DV?$string_output_adapter@D@__crt_stdio_output@@@2@@__crt_stdio_output@@CADH_N@Z 1004a470 f i libucrtd:output.obj
 0001:000494b0       ?adjust_hexit@?$output_processor@DV?$string_output_adapter@D@__crt_stdio_output@@V?$standard_base@DV?$string_output_adapter@D@__crt_stdio_output@@@2@@__crt_stdio_output@@CADH_N@Z 1004a4b0 f i libucrtd:output.obj
 0001:000494f0       ?adjust_hexit@?$output_processor@_WV?$stream_output_adapter@_W@__crt_stdio_output@@V?$format_validation_base@_WV?$stream_output_adapter@_W@__crt_stdio_output@@@2@@__crt_stdio_output@@CADH_N@Z 1004a4f0 f i libucrtd:output.obj
 0001:00049530       ?adjust_hexit@?$output_processor@_WV?$stream_output_adapter@_W@__crt_stdio_output@@V?$positional_parameter_base@_WV?$stream_output_adapter@_W@__crt_stdio_output@@@2@@__crt_stdio_output@@CADH_N@Z 1004a530 f i libucrtd:output.obj
 0001:00049570       ?adjust_hexit@?$output_processor@_WV?$stream_output_adapter@_W@__crt_stdio_output@@V?$standard_base@_WV?$stream_output_adapter@_W@__crt_stdio_output@@@2@@__crt_stdio_output@@CADH_N@Z 1004a570 f i libucrtd:output.obj
 0001:000495b0       ?adjust_hexit@?$output_processor@_WV?$string_output_adapter@_W@__crt_stdio_output@@V?$format_validation_base@_WV?$string_output_adapter@_W@__crt_stdio_output@@@2@@__crt_stdio_output@@CADH_N@Z 1004a5b0 f i libucrtd:output.obj
 0001:000495f0       ?adjust_hexit@?$output_processor@_WV?$string_output_adapter@_W@__crt_stdio_output@@V?$positional_parameter_base@_WV?$string_output_adapter@_W@__crt_stdio_output@@@2@@__crt_stdio_output@@CADH_N@Z 1004a5f0 f i libucrtd:output.obj
 0001:00049630       ?adjust_hexit@?$output_processor@_WV?$string_output_adapter@_W@__crt_stdio_output@@V?$standard_base@_WV?$string_output_adapter@_W@__crt_stdio_output@@@2@@__crt_stdio_output@@CADH_N@Z 1004a630 f i libucrtd:output.obj
 0001:00049670       ?advance_to_next_pass@?$positional_parameter_base@DV?$stream_output_adapter@D@__crt_stdio_output@@@__crt_stdio_output@@IAE_NXZ 1004a670 f i libucrtd:output.obj
 0001:00049710       ?advance_to_next_pass@?$positional_parameter_base@DV?$string_output_adapter@D@__crt_stdio_output@@@__crt_stdio_output@@IAE_NXZ 1004a710 f i libucrtd:output.obj
 0001:000497b0       ?advance_to_next_pass@?$positional_parameter_base@_WV?$stream_output_adapter@_W@__crt_stdio_output@@@__crt_stdio_output@@IAE_NXZ 1004a7b0 f i libucrtd:output.obj
 0001:00049850       ?advance_to_next_pass@?$positional_parameter_base@_WV?$string_output_adapter@_W@__crt_stdio_output@@@__crt_stdio_output@@IAE_NXZ 1004a850 f i libucrtd:output.obj
 0001:000498f0       ?advance_to_next_pass@?$standard_base@DV?$stream_output_adapter@D@__crt_stdio_output@@@__crt_stdio_output@@IAE_NXZ 1004a8f0 f i libucrtd:output.obj
 0001:00049940       ?advance_to_next_pass@?$standard_base@DV?$string_output_adapter@D@__crt_stdio_output@@@__crt_stdio_output@@IAE_NXZ 1004a940 f i libucrtd:output.obj
 0001:00049990       ?advance_to_next_pass@?$standard_base@_WV?$stream_output_adapter@_W@__crt_stdio_output@@@__crt_stdio_output@@IAE_NXZ 1004a990 f i libucrtd:output.obj
 0001:000499e0       ?advance_to_next_pass@?$standard_base@_WV?$string_output_adapter@_W@__crt_stdio_output@@@__crt_stdio_output@@IAE_NXZ 1004a9e0 f i libucrtd:output.obj
 0001:00049a30       ?crop_zeroes@__crt_stdio_output@@YAXPADQAU__crt_locale_pointers@@@Z 1004aa30 f i libucrtd:output.obj
 0001:00049b30       ?find_next_state@?$output_processor@DV?$stream_output_adapter@D@__crt_stdio_output@@V?$format_validation_base@DV?$stream_output_adapter@D@__crt_stdio_output@@@2@@__crt_stdio_output@@ABE?AW4state@2@DW432@@Z 1004ab30 f i libucrtd:output.obj
 0001:00049bb0       ?find_next_state@?$output_processor@DV?$stream_output_adapter@D@__crt_stdio_output@@V?$positional_parameter_base@DV?$stream_output_adapter@D@__crt_stdio_output@@@2@@__crt_stdio_output@@ABE?AW4state@2@DW432@@Z 1004abb0 f i libucrtd:output.obj
 0001:00049c30       ?find_next_state@?$output_processor@DV?$stream_output_adapter@D@__crt_stdio_output@@V?$standard_base@DV?$stream_output_adapter@D@__crt_stdio_output@@@2@@__crt_stdio_output@@ABE?AW4state@2@DW432@@Z 1004ac30 f i libucrtd:output.obj
 0001:00049cb0       ?find_next_state@?$output_processor@DV?$string_output_adapter@D@__crt_stdio_output@@V?$format_validation_base@DV?$string_output_adapter@D@__crt_stdio_output@@@2@@__crt_stdio_output@@ABE?AW4state@2@DW432@@Z 1004acb0 f i libucrtd:output.obj
 0001:00049d30       ?find_next_state@?$output_processor@DV?$string_output_adapter@D@__crt_stdio_output@@V?$positional_parameter_base@DV?$string_output_adapter@D@__crt_stdio_output@@@2@@__crt_stdio_output@@ABE?AW4state@2@DW432@@Z 1004ad30 f i libucrtd:output.obj
 0001:00049db0       ?find_next_state@?$output_processor@DV?$string_output_adapter@D@__crt_stdio_output@@V?$standard_base@DV?$string_output_adapter@D@__crt_stdio_output@@@2@@__crt_stdio_output@@ABE?AW4state@2@DW432@@Z 1004adb0 f i libucrtd:output.obj
 0001:00049e30       ?find_next_state@?$output_processor@_WV?$stream_output_adapter@_W@__crt_stdio_output@@V?$format_validation_base@_WV?$stream_output_adapter@_W@__crt_stdio_output@@@2@@__crt_stdio_output@@ABE?AW4state@2@_WW432@@Z 1004ae30 f i libucrtd:output.obj
 0001:00049eb0       ?find_next_state@?$output_processor@_WV?$stream_output_adapter@_W@__crt_stdio_output@@V?$positional_parameter_base@_WV?$stream_output_adapter@_W@__crt_stdio_output@@@2@@__crt_stdio_output@@ABE?AW4state@2@_WW432@@Z 1004aeb0 f i libucrtd:output.obj
 0001:00049f30       ?find_next_state@?$output_processor@_WV?$stream_output_adapter@_W@__crt_stdio_output@@V?$standard_base@_WV?$stream_output_adapter@_W@__crt_stdio_output@@@2@@__crt_stdio_output@@ABE?AW4state@2@_WW432@@Z 1004af30 f i libucrtd:output.obj
 0001:00049fb0       ?find_next_state@?$output_processor@_WV?$string_output_adapter@_W@__crt_stdio_output@@V?$format_validation_base@_WV?$string_output_adapter@_W@__crt_stdio_output@@@2@@__crt_stdio_output@@ABE?AW4state@2@_WW432@@Z 1004afb0 f i libucrtd:output.obj
 0001:0004a030       ?find_next_state@?$output_processor@_WV?$string_output_adapter@_W@__crt_stdio_output@@V?$positional_parameter_base@_WV?$string_output_adapter@_W@__crt_stdio_output@@@2@@__crt_stdio_output@@ABE?AW4state@2@_WW432@@Z 1004b030 f i libucrtd:output.obj
 0001:0004a0b0       ?find_next_state@?$output_processor@_WV?$string_output_adapter@_W@__crt_stdio_output@@V?$standard_base@_WV?$string_output_adapter@_W@__crt_stdio_output@@@2@@__crt_stdio_output@@ABE?AW4state@2@_WW432@@Z 1004b0b0 f i libucrtd:output.obj
 0001:0004a130       ?force_decimal_point@__crt_stdio_output@@YAXPADQAU__crt_locale_pointers@@@Z 1004b130 f i libucrtd:output.obj
 0001:0004a200       ?get@__crt_deferred_errno_cache@@QAEAAHXZ 1004b200 f i libucrtd:output.obj
 0001:0004a230       ?get_flags@__crt_stdio_stream@@QBEJXZ 1004b230 f i libucrtd:output.obj
 0001:0004a250       ?get_parameter_type@?$positional_parameter_base@DV?$stream_output_adapter@D@__crt_stdio_output@@@__crt_stdio_output@@CA?AW4parameter_type@12@F@Z 1004b250 f i libucrtd:output.obj
 0001:0004a260       ?get_parameter_type@?$positional_parameter_base@DV?$stream_output_adapter@D@__crt_stdio_output@@@__crt_stdio_output@@CA?AW4parameter_type@12@G@Z 1004b260 f i libucrtd:output.obj
 0001:0004a270       ?get_parameter_type@?$positional_parameter_base@DV?$stream_output_adapter@D@__crt_stdio_output@@@__crt_stdio_output@@CA?AW4parameter_type@12@H@Z 1004b270 f i libucrtd:output.obj
 0001:0004a280       ?get_parameter_type@?$positional_parameter_base@DV?$stream_output_adapter@D@__crt_stdio_output@@@__crt_stdio_output@@CA?AW4parameter_type@12@I@Z 1004b280 f i libucrtd:output.obj
 0001:0004a290       ?get_parameter_type@?$positional_parameter_base@DV?$stream_output_adapter@D@__crt_stdio_output@@@__crt_stdio_output@@CA?AW4parameter_type@12@U_CRT_DOUBLE@@@Z 1004b290 f i libucrtd:output.obj
 0001:0004a2a0       ?get_parameter_type@?$positional_parameter_base@DV?$stream_output_adapter@D@__crt_stdio_output@@@__crt_stdio_output@@CA?AW4parameter_type@12@_J@Z 1004b2a0 f i libucrtd:output.obj
 0001:0004a2b0       ?get_parameter_type@?$positional_parameter_base@DV?$stream_output_adapter@D@__crt_stdio_output@@@__crt_stdio_output@@CA?AW4parameter_type@12@_K@Z 1004b2b0 f i libucrtd:output.obj
 0001:0004a2c0       ?get_parameter_type@?$positional_parameter_base@DV?$stream_output_adapter@D@__crt_stdio_output@@@__crt_stdio_output@@CA?AW4parameter_type@12@_W@Z 1004b2c0 f i libucrtd:output.obj
 0001:0004a2d0       ?get_parameter_type@?$positional_parameter_base@DV?$string_output_adapter@D@__crt_stdio_output@@@__crt_stdio_output@@CA?AW4parameter_type@12@F@Z 1004b2d0 f i libucrtd:output.obj
 0001:0004a2e0       ?get_parameter_type@?$positional_parameter_base@DV?$string_output_adapter@D@__crt_stdio_output@@@__crt_stdio_output@@CA?AW4parameter_type@12@G@Z 1004b2e0 f i libucrtd:output.obj
 0001:0004a2f0       ?get_parameter_type@?$positional_parameter_base@DV?$string_output_adapter@D@__crt_stdio_output@@@__crt_stdio_output@@CA?AW4parameter_type@12@H@Z 1004b2f0 f i libucrtd:output.obj
 0001:0004a300       ?get_parameter_type@?$positional_parameter_base@DV?$string_output_adapter@D@__crt_stdio_output@@@__crt_stdio_output@@CA?AW4parameter_type@12@I@Z 1004b300 f i libucrtd:output.obj
 0001:0004a310       ?get_parameter_type@?$positional_parameter_base@DV?$string_output_adapter@D@__crt_stdio_output@@@__crt_stdio_output@@CA?AW4parameter_type@12@U_CRT_DOUBLE@@@Z 1004b310 f i libucrtd:output.obj
 0001:0004a320       ?get_parameter_type@?$positional_parameter_base@DV?$string_output_adapter@D@__crt_stdio_output@@@__crt_stdio_output@@CA?AW4parameter_type@12@_J@Z 1004b320 f i libucrtd:output.obj
 0001:0004a330       ?get_parameter_type@?$positional_parameter_base@DV?$string_output_adapter@D@__crt_stdio_output@@@__crt_stdio_output@@CA?AW4parameter_type@12@_K@Z 1004b330 f i libucrtd:output.obj
 0001:0004a340       ?get_parameter_type@?$positional_parameter_base@DV?$string_output_adapter@D@__crt_stdio_output@@@__crt_stdio_output@@CA?AW4parameter_type@12@_W@Z 1004b340 f i libucrtd:output.obj
 0001:0004a350       ?get_parameter_type@?$positional_parameter_base@_WV?$stream_output_adapter@_W@__crt_stdio_output@@@__crt_stdio_output@@CA?AW4parameter_type@12@F@Z 1004b350 f i libucrtd:output.obj
 0001:0004a360       ?get_parameter_type@?$positional_parameter_base@_WV?$stream_output_adapter@_W@__crt_stdio_output@@@__crt_stdio_output@@CA?AW4parameter_type@12@G@Z 1004b360 f i libucrtd:output.obj
 0001:0004a370       ?get_parameter_type@?$positional_parameter_base@_WV?$stream_output_adapter@_W@__crt_stdio_output@@@__crt_stdio_output@@CA?AW4parameter_type@12@H@Z 1004b370 f i libucrtd:output.obj
 0001:0004a380       ?get_parameter_type@?$positional_parameter_base@_WV?$stream_output_adapter@_W@__crt_stdio_output@@@__crt_stdio_output@@CA?AW4parameter_type@12@I@Z 1004b380 f i libucrtd:output.obj
 0001:0004a390       ?get_parameter_type@?$positional_parameter_base@_WV?$stream_output_adapter@_W@__crt_stdio_output@@@__crt_stdio_output@@CA?AW4parameter_type@12@U_CRT_DOUBLE@@@Z 1004b390 f i libucrtd:output.obj
 0001:0004a3a0       ?get_parameter_type@?$positional_parameter_base@_WV?$stream_output_adapter@_W@__crt_stdio_output@@@__crt_stdio_output@@CA?AW4parameter_type@12@_J@Z 1004b3a0 f i libucrtd:output.obj
 0001:0004a3b0       ?get_parameter_type@?$positional_parameter_base@_WV?$stream_output_adapter@_W@__crt_stdio_output@@@__crt_stdio_output@@CA?AW4parameter_type@12@_K@Z 1004b3b0 f i libucrtd:output.obj
 0001:0004a3c0       ?get_parameter_type@?$positional_parameter_base@_WV?$stream_output_adapter@_W@__crt_stdio_output@@@__crt_stdio_output@@CA?AW4parameter_type@12@_W@Z 1004b3c0 f i libucrtd:output.obj
 0001:0004a3d0       ?get_parameter_type@?$positional_parameter_base@_WV?$string_output_adapter@_W@__crt_stdio_output@@@__crt_stdio_output@@CA?AW4parameter_type@12@F@Z 1004b3d0 f i libucrtd:output.obj
 0001:0004a3e0       ?get_parameter_type@?$positional_parameter_base@_WV?$string_output_adapter@_W@__crt_stdio_output@@@__crt_stdio_output@@CA?AW4parameter_type@12@G@Z 1004b3e0 f i libucrtd:output.obj
 0001:0004a3f0       ?get_parameter_type@?$positional_parameter_base@_WV?$string_output_adapter@_W@__crt_stdio_output@@@__crt_stdio_output@@CA?AW4parameter_type@12@H@Z 1004b3f0 f i libucrtd:output.obj
 0001:0004a400       ?get_parameter_type@?$positional_parameter_base@_WV?$string_output_adapter@_W@__crt_stdio_output@@@__crt_stdio_output@@CA?AW4parameter_type@12@I@Z 1004b400 f i libucrtd:output.obj
 0001:0004a410       ?get_parameter_type@?$positional_parameter_base@_WV?$string_output_adapter@_W@__crt_stdio_output@@@__crt_stdio_output@@CA?AW4parameter_type@12@U_CRT_DOUBLE@@@Z 1004b410 f i libucrtd:output.obj
 0001:0004a420       ?get_parameter_type@?$positional_parameter_base@_WV?$string_output_adapter@_W@__crt_stdio_output@@@__crt_stdio_output@@CA?AW4parameter_type@12@_J@Z 1004b420 f i libucrtd:output.obj
 0001:0004a430       ?get_parameter_type@?$positional_parameter_base@_WV?$string_output_adapter@_W@__crt_stdio_output@@@__crt_stdio_output@@CA?AW4parameter_type@12@_K@Z 1004b430 f i libucrtd:output.obj
 0001:0004a440       ?get_parameter_type@?$positional_parameter_base@_WV?$string_output_adapter@_W@__crt_stdio_output@@@__crt_stdio_output@@CA?AW4parameter_type@12@_W@Z 1004b440 f i libucrtd:output.obj
 0001:0004a450       ?has_flag@?$output_processor@DV?$stream_output_adapter@D@__crt_stdio_output@@V?$format_validation_base@DV?$stream_output_adapter@D@__crt_stdio_output@@@2@@__crt_stdio_output@@ABE_NI@Z 1004b450 f i libucrtd:output.obj
 0001:0004a480       ?has_flag@?$output_processor@DV?$stream_output_adapter@D@__crt_stdio_output@@V?$positional_parameter_base@DV?$stream_output_adapter@D@__crt_stdio_output@@@2@@__crt_stdio_output@@ABE_NI@Z 1004b480 f i libucrtd:output.obj
 0001:0004a4b0       ?has_flag@?$output_processor@DV?$stream_output_adapter@D@__crt_stdio_output@@V?$standard_base@DV?$stream_output_adapter@D@__crt_stdio_output@@@2@@__crt_stdio_output@@ABE_NI@Z 1004b4b0 f i libucrtd:output.obj
 0001:0004a4e0       ?has_flag@?$output_processor@DV?$string_output_adapter@D@__crt_stdio_output@@V?$format_validation_base@DV?$string_output_adapter@D@__crt_stdio_output@@@2@@__crt_stdio_output@@ABE_NI@Z 1004b4e0 f i libucrtd:output.obj
 0001:0004a510       ?has_flag@?$output_processor@DV?$string_output_adapter@D@__crt_stdio_output@@V?$positional_parameter_base@DV?$string_output_adapter@D@__crt_stdio_output@@@2@@__crt_stdio_output@@ABE_NI@Z 1004b510 f i libucrtd:output.obj
 0001:0004a540       ?has_flag@?$output_processor@DV?$string_output_adapter@D@__crt_stdio_output@@V?$standard_base@DV?$string_output_adapter@D@__crt_stdio_output@@@2@@__crt_stdio_output@@ABE_NI@Z 1004b540 f i libucrtd:output.obj
 0001:0004a570       ?has_flag@?$output_processor@_WV?$stream_output_adapter@_W@__crt_stdio_output@@V?$format_validation_base@_WV?$stream_output_adapter@_W@__crt_stdio_output@@@2@@__crt_stdio_output@@ABE_NI@Z 1004b570 f i libucrtd:output.obj
 0001:0004a5a0       ?has_flag@?$output_processor@_WV?$stream_output_adapter@_W@__crt_stdio_output@@V?$positional_parameter_base@_WV?$stream_output_adapter@_W@__crt_stdio_output@@@2@@__crt_stdio_output@@ABE_NI@Z 1004b5a0 f i libucrtd:output.obj
 0001:0004a5d0       ?has_flag@?$output_processor@_WV?$stream_output_adapter@_W@__crt_stdio_output@@V?$standard_base@_WV?$stream_output_adapter@_W@__crt_stdio_output@@@2@@__crt_stdio_output@@ABE_NI@Z 1004b5d0 f i libucrtd:output.obj
 0001:0004a600       ?has_flag@?$output_processor@_WV?$string_output_adapter@_W@__crt_stdio_output@@V?$format_validation_base@_WV?$string_output_adapter@_W@__crt_stdio_output@@@2@@__crt_stdio_output@@ABE_NI@Z 1004b600 f i libucrtd:output.obj
 0001:0004a630       ?has_flag@?$output_processor@_WV?$string_output_adapter@_W@__crt_stdio_output@@V?$positional_parameter_base@_WV?$string_output_adapter@_W@__crt_stdio_output@@@2@@__crt_stdio_output@@ABE_NI@Z 1004b630 f i libucrtd:output.obj
 0001:0004a660       ?has_flag@?$output_processor@_WV?$string_output_adapter@_W@__crt_stdio_output@@V?$standard_base@_WV?$string_output_adapter@_W@__crt_stdio_output@@@2@@__crt_stdio_output@@ABE_NI@Z 1004b660 f i libucrtd:output.obj
 0001:0004a690       ?is_positional_parameter_reappearance_consistent@?$positional_parameter_base@DV?$stream_output_adapter@D@__crt_stdio_output@@@__crt_stdio_output@@AAE_NABUparameter_data@12@W4parameter_type@12@DW4length_modifier@2@@Z 1004b690 f i libucrtd:output.obj
 0001:0004a8c0       ?is_positional_parameter_reappearance_consistent@?$positional_parameter_base@DV?$string_output_adapter@D@__crt_stdio_output@@@__crt_stdio_output@@AAE_NABUparameter_data@12@W4parameter_type@12@DW4length_modifier@2@@Z 1004b8c0 f i libucrtd:output.obj
 0001:0004aaf0       ?is_positional_parameter_reappearance_consistent@?$positional_parameter_base@_WV?$stream_output_adapter@_W@__crt_stdio_output@@@__crt_stdio_output@@AAE_NABUparameter_data@12@W4parameter_type@12@_WW4length_modifier@2@@Z 1004baf0 f i libucrtd:output.obj
 0001:0004ad20       ?is_positional_parameter_reappearance_consistent@?$positional_parameter_base@_WV?$string_output_adapter@_W@__crt_stdio_output@@@__crt_stdio_output@@AAE_NABUparameter_data@12@W4parameter_type@12@_WW4length_modifier@2@@Z 1004bd20 f i libucrtd:output.obj
 0001:0004af50       ?is_string_backed@__crt_stdio_stream@@QBE_NXZ 1004bf50 f i libucrtd:output.obj
 0001:0004af90       ?narrow_null_string@?$output_processor@DV?$stream_output_adapter@D@__crt_stdio_output@@V?$format_validation_base@DV?$stream_output_adapter@D@__crt_stdio_output@@@2@@__crt_stdio_output@@CAPADXZ 1004bf90 f i libucrtd:output.obj
 0001:0004afa0       ?narrow_null_string@?$output_processor@DV?$stream_output_adapter@D@__crt_stdio_output@@V?$positional_parameter_base@DV?$stream_output_adapter@D@__crt_stdio_output@@@2@@__crt_stdio_output@@CAPADXZ 1004bfa0 f i libucrtd:output.obj
 0001:0004afb0       ?narrow_null_string@?$output_processor@DV?$stream_output_adapter@D@__crt_stdio_output@@V?$standard_base@DV?$stream_output_adapter@D@__crt_stdio_output@@@2@@__crt_stdio_output@@CAPADXZ 1004bfb0 f i libucrtd:output.obj
 0001:0004afc0       ?narrow_null_string@?$output_processor@DV?$string_output_adapter@D@__crt_stdio_output@@V?$format_validation_base@DV?$string_output_adapter@D@__crt_stdio_output@@@2@@__crt_stdio_output@@CAPADXZ 1004bfc0 f i libucrtd:output.obj
 0001:0004afd0       ?narrow_null_string@?$output_processor@DV?$string_output_adapter@D@__crt_stdio_output@@V?$positional_parameter_base@DV?$string_output_adapter@D@__crt_stdio_output@@@2@@__crt_stdio_output@@CAPADXZ 1004bfd0 f i libucrtd:output.obj
 0001:0004afe0       ?narrow_null_string@?$output_processor@DV?$string_output_adapter@D@__crt_stdio_output@@V?$standard_base@DV?$string_output_adapter@D@__crt_stdio_output@@@2@@__crt_stdio_output@@CAPADXZ 1004bfe0 f i libucrtd:output.obj
 0001:0004aff0       ?narrow_null_string@?$output_processor@_WV?$stream_output_adapter@_W@__crt_stdio_output@@V?$format_validation_base@_WV?$stream_output_adapter@_W@__crt_stdio_output@@@2@@__crt_stdio_output@@CAPADXZ 1004bff0 f i libucrtd:output.obj
 0001:0004b000       ?narrow_null_string@?$output_processor@_WV?$stream_output_adapter@_W@__crt_stdio_output@@V?$positional_parameter_base@_WV?$stream_output_adapter@_W@__crt_stdio_output@@@2@@__crt_stdio_output@@CAPADXZ 1004c000 f i libucrtd:output.obj
 0001:0004b010       ?narrow_null_string@?$output_processor@_WV?$stream_output_adapter@_W@__crt_stdio_output@@V?$standard_base@_WV?$stream_output_adapter@_W@__crt_stdio_output@@@2@@__crt_stdio_output@@CAPADXZ 1004c010 f i libucrtd:output.obj
 0001:0004b020       ?narrow_null_string@?$output_processor@_WV?$string_output_adapter@_W@__crt_stdio_output@@V?$format_validation_base@_WV?$string_output_adapter@_W@__crt_stdio_output@@@2@@__crt_stdio_output@@CAPADXZ 1004c020 f i libucrtd:output.obj
 0001:0004b030       ?narrow_null_string@?$output_processor@_WV?$string_output_adapter@_W@__crt_stdio_output@@V?$positional_parameter_base@_WV?$string_output_adapter@_W@__crt_stdio_output@@@2@@__crt_stdio_output@@CAPADXZ 1004c030 f i libucrtd:output.obj
 0001:0004b040       ?narrow_null_string@?$output_processor@_WV?$string_output_adapter@_W@__crt_stdio_output@@V?$standard_base@_WV?$string_output_adapter@_W@__crt_stdio_output@@@2@@__crt_stdio_output@@CAPADXZ 1004c040 f i libucrtd:output.obj
 0001:0004b050       ?parse_int_from_format_string@?$output_processor@DV?$stream_output_adapter@D@__crt_stdio_output@@V?$format_validation_base@DV?$stream_output_adapter@D@__crt_stdio_output@@@2@@__crt_stdio_output@@AAE_NQAH@Z 1004c050 f i libucrtd:output.obj
 0001:0004b110       ?parse_int_from_format_string@?$output_processor@DV?$stream_output_adapter@D@__crt_stdio_output@@V?$positional_parameter_base@DV?$stream_output_adapter@D@__crt_stdio_output@@@2@@__crt_stdio_output@@AAE_NQAH@Z 1004c110 f i libucrtd:output.obj
 0001:0004b1d0       ?parse_int_from_format_string@?$output_processor@DV?$stream_output_adapter@D@__crt_stdio_output@@V?$standard_base@DV?$stream_output_adapter@D@__crt_stdio_output@@@2@@__crt_stdio_output@@AAE_NQAH@Z 1004c1d0 f i libucrtd:output.obj
 0001:0004b290       ?parse_int_from_format_string@?$output_processor@DV?$string_output_adapter@D@__crt_stdio_output@@V?$format_validation_base@DV?$string_output_adapter@D@__crt_stdio_output@@@2@@__crt_stdio_output@@AAE_NQAH@Z 1004c290 f i libucrtd:output.obj
 0001:0004b350       ?parse_int_from_format_string@?$output_processor@DV?$string_output_adapter@D@__crt_stdio_output@@V?$positional_parameter_base@DV?$string_output_adapter@D@__crt_stdio_output@@@2@@__crt_stdio_output@@AAE_NQAH@Z 1004c350 f i libucrtd:output.obj
 0001:0004b410       ?parse_int_from_format_string@?$output_processor@DV?$string_output_adapter@D@__crt_stdio_output@@V?$standard_base@DV?$string_output_adapter@D@__crt_stdio_output@@@2@@__crt_stdio_output@@AAE_NQAH@Z 1004c410 f i libucrtd:output.obj
 0001:0004b4d0       ?parse_int_from_format_string@?$output_processor@_WV?$stream_output_adapter@_W@__crt_stdio_output@@V?$format_validation_base@_WV?$stream_output_adapter@_W@__crt_stdio_output@@@2@@__crt_stdio_output@@AAE_NQAH@Z 1004c4d0 f i libucrtd:output.obj
 0001:0004b590       ?parse_int_from_format_string@?$output_processor@_WV?$stream_output_adapter@_W@__crt_stdio_output@@V?$positional_parameter_base@_WV?$stream_output_adapter@_W@__crt_stdio_output@@@2@@__crt_stdio_output@@AAE_NQAH@Z 1004c590 f i libucrtd:output.obj
 0001:0004b650       ?parse_int_from_format_string@?$output_processor@_WV?$stream_output_adapter@_W@__crt_stdio_output@@V?$standard_base@_WV?$stream_output_adapter@_W@__crt_stdio_output@@@2@@__crt_stdio_output@@AAE_NQAH@Z 1004c650 f i libucrtd:output.obj
 0001:0004b710       ?parse_int_from_format_string@?$output_processor@_WV?$string_output_adapter@_W@__crt_stdio_output@@V?$format_validation_base@_WV?$string_output_adapter@_W@__crt_stdio_output@@@2@@__crt_stdio_output@@AAE_NQAH@Z 1004c710 f i libucrtd:output.obj
 0001:0004b7d0       ?parse_int_from_format_string@?$output_processor@_WV?$string_output_adapter@_W@__crt_stdio_output@@V?$positional_parameter_base@_WV?$string_output_adapter@_W@__crt_stdio_output@@@2@@__crt_stdio_output@@AAE_NQAH@Z 1004c7d0 f i libucrtd:output.obj
 0001:0004b890       ?parse_int_from_format_string@?$output_processor@_WV?$string_output_adapter@_W@__crt_stdio_output@@V?$standard_base@_WV?$string_output_adapter@_W@__crt_stdio_output@@@2@@__crt_stdio_output@@AAE_NQAH@Z 1004c890 f i libucrtd:output.obj
 0001:0004b950       ?process@?$output_processor@DV?$stream_output_adapter@D@__crt_stdio_output@@V?$format_validation_base@DV?$stream_output_adapter@D@__crt_stdio_output@@@2@@__crt_stdio_output@@QAEHXZ 1004c950 f i libucrtd:output.obj
 0001:0004bc00       ?process@?$output_processor@DV?$stream_output_adapter@D@__crt_stdio_output@@V?$positional_parameter_base@DV?$stream_output_adapter@D@__crt_stdio_output@@@2@@__crt_stdio_output@@QAEHXZ 1004cc00 f i libucrtd:output.obj
 0001:0004beb0       ?process@?$output_processor@DV?$stream_output_adapter@D@__crt_stdio_output@@V?$standard_base@DV?$stream_output_adapter@D@__crt_stdio_output@@@2@@__crt_stdio_output@@QAEHXZ 1004ceb0 f i libucrtd:output.obj
 0001:0004c160       ?process@?$output_processor@DV?$string_output_adapter@D@__crt_stdio_output@@V?$format_validation_base@DV?$string_output_adapter@D@__crt_stdio_output@@@2@@__crt_stdio_output@@QAEHXZ 1004d160 f i libucrtd:output.obj
 0001:0004c410       ?process@?$output_processor@DV?$string_output_adapter@D@__crt_stdio_output@@V?$positional_parameter_base@DV?$string_output_adapter@D@__crt_stdio_output@@@2@@__crt_stdio_output@@QAEHXZ 1004d410 f i libucrtd:output.obj
 0001:0004c6c0       ?process@?$output_processor@DV?$string_output_adapter@D@__crt_stdio_output@@V?$standard_base@DV?$string_output_adapter@D@__crt_stdio_output@@@2@@__crt_stdio_output@@QAEHXZ 1004d6c0 f i libucrtd:output.obj
 0001:0004c970       ?process@?$output_processor@_WV?$stream_output_adapter@_W@__crt_stdio_output@@V?$format_validation_base@_WV?$stream_output_adapter@_W@__crt_stdio_output@@@2@@__crt_stdio_output@@QAEHXZ 1004d970 f i libucrtd:output.obj
 0001:0004cc20       ?process@?$output_processor@_WV?$stream_output_adapter@_W@__crt_stdio_output@@V?$positional_parameter_base@_WV?$stream_output_adapter@_W@__crt_stdio_output@@@2@@__crt_stdio_output@@QAEHXZ 1004dc20 f i libucrtd:output.obj
 0001:0004ced0       ?process@?$output_processor@_WV?$stream_output_adapter@_W@__crt_stdio_output@@V?$standard_base@_WV?$stream_output_adapter@_W@__crt_stdio_output@@@2@@__crt_stdio_output@@QAEHXZ 1004ded0 f i libucrtd:output.obj
 0001:0004d180       ?process@?$output_processor@_WV?$string_output_adapter@_W@__crt_stdio_output@@V?$format_validation_base@_WV?$string_output_adapter@_W@__crt_stdio_output@@@2@@__crt_stdio_output@@QAEHXZ 1004e180 f i libucrtd:output.obj
 0001:0004d430       ?process@?$output_processor@_WV?$string_output_adapter@_W@__crt_stdio_output@@V?$positional_parameter_base@_WV?$string_output_adapter@_W@__crt_stdio_output@@@2@@__crt_stdio_output@@QAEHXZ 1004e430 f i libucrtd:output.obj
 0001:0004d6e0       ?process@?$output_processor@_WV?$string_output_adapter@_W@__crt_stdio_output@@V?$standard_base@_WV?$string_output_adapter@_W@__crt_stdio_output@@@2@@__crt_stdio_output@@QAEHXZ 1004e6e0 f i libucrtd:output.obj
 0001:0004d990       ?public_stream@__crt_stdio_stream@@QBEPAU_iobuf@@XZ 1004e990 f i libucrtd:output.obj
 0001:0004d9b0       ?set_flag@?$output_processor@DV?$stream_output_adapter@D@__crt_stdio_output@@V?$format_validation_base@DV?$stream_output_adapter@D@__crt_stdio_output@@@2@@__crt_stdio_output@@AAEXI@Z 1004e9b0 f i libucrtd:output.obj
 0001:0004d9d0       ?set_flag@?$output_processor@DV?$stream_output_adapter@D@__crt_stdio_output@@V?$positional_parameter_base@DV?$stream_output_adapter@D@__crt_stdio_output@@@2@@__crt_stdio_output@@AAEXI@Z 1004e9d0 f i libucrtd:output.obj
 0001:0004d9f0       ?set_flag@?$output_processor@DV?$stream_output_adapter@D@__crt_stdio_output@@V?$standard_base@DV?$stream_output_adapter@D@__crt_stdio_output@@@2@@__crt_stdio_output@@AAEXI@Z 1004e9f0 f i libucrtd:output.obj
 0001:0004da10       ?set_flag@?$output_processor@DV?$string_output_adapter@D@__crt_stdio_output@@V?$format_validation_base@DV?$string_output_adapter@D@__crt_stdio_output@@@2@@__crt_stdio_output@@AAEXI@Z 1004ea10 f i libucrtd:output.obj
 0001:0004da30       ?set_flag@?$output_processor@DV?$string_output_adapter@D@__crt_stdio_output@@V?$positional_parameter_base@DV?$string_output_adapter@D@__crt_stdio_output@@@2@@__crt_stdio_output@@AAEXI@Z 1004ea30 f i libucrtd:output.obj
 0001:0004da50       ?set_flag@?$output_processor@DV?$string_output_adapter@D@__crt_stdio_output@@V?$standard_base@DV?$string_output_adapter@D@__crt_stdio_output@@@2@@__crt_stdio_output@@AAEXI@Z 1004ea50 f i libucrtd:output.obj
 0001:0004da70       ?set_flag@?$output_processor@_WV?$stream_output_adapter@_W@__crt_stdio_output@@V?$format_validation_base@_WV?$stream_output_adapter@_W@__crt_stdio_output@@@2@@__crt_stdio_output@@AAEXI@Z 1004ea70 f i libucrtd:output.obj
 0001:0004da90       ?set_flag@?$output_processor@_WV?$stream_output_adapter@_W@__crt_stdio_output@@V?$positional_parameter_base@_WV?$stream_output_adapter@_W@__crt_stdio_output@@@2@@__crt_stdio_output@@AAEXI@Z 1004ea90 f i libucrtd:output.obj
 0001:0004dab0       ?set_flag@?$output_processor@_WV?$stream_output_adapter@_W@__crt_stdio_output@@V?$standard_base@_WV?$stream_output_adapter@_W@__crt_stdio_output@@@2@@__crt_stdio_output@@AAEXI@Z 1004eab0 f i libucrtd:output.obj
 0001:0004dad0       ?set_flag@?$output_processor@_WV?$string_output_adapter@_W@__crt_stdio_output@@V?$format_validation_base@_WV?$string_output_adapter@_W@__crt_stdio_output@@@2@@__crt_stdio_output@@AAEXI@Z 1004ead0 f i libucrtd:output.obj
 0001:0004daf0       ?set_flag@?$output_processor@_WV?$string_output_adapter@_W@__crt_stdio_output@@V?$positional_parameter_base@_WV?$string_output_adapter@_W@__crt_stdio_output@@@2@@__crt_stdio_output@@AAEXI@Z 1004eaf0 f i libucrtd:output.obj
 0001:0004db10       ?set_flag@?$output_processor@_WV?$string_output_adapter@_W@__crt_stdio_output@@V?$standard_base@_WV?$string_output_adapter@_W@__crt_stdio_output@@@2@@__crt_stdio_output@@AAEXI@Z 1004eb10 f i libucrtd:output.obj
 0001:0004db30       ?should_format@?$positional_parameter_base@DV?$stream_output_adapter@D@__crt_stdio_output@@@__crt_stdio_output@@IAE_NXZ 1004eb30 f i libucrtd:output.obj
 0001:0004db70       ?should_format@?$positional_parameter_base@DV?$string_output_adapter@D@__crt_stdio_output@@@__crt_stdio_output@@IAE_NXZ 1004eb70 f i libucrtd:output.obj
 0001:0004dbb0       ?should_format@?$positional_parameter_base@_WV?$stream_output_adapter@_W@__crt_stdio_output@@@__crt_stdio_output@@IAE_NXZ 1004ebb0 f i libucrtd:output.obj
 0001:0004dbf0       ?should_format@?$positional_parameter_base@_WV?$string_output_adapter@_W@__crt_stdio_output@@@__crt_stdio_output@@IAE_NXZ 1004ebf0 f i libucrtd:output.obj
 0001:0004dc30       ?should_format@?$standard_base@DV?$stream_output_adapter@D@__crt_stdio_output@@@__crt_stdio_output@@IAE_NXZ 1004ec30 f i libucrtd:output.obj
 0001:0004dc40       ?should_format@?$standard_base@DV?$string_output_adapter@D@__crt_stdio_output@@@__crt_stdio_output@@IAE_NXZ 1004ec40 f i libucrtd:output.obj
 0001:0004dc50       ?should_format@?$standard_base@_WV?$stream_output_adapter@_W@__crt_stdio_output@@@__crt_stdio_output@@IAE_NXZ 1004ec50 f i libucrtd:output.obj
 0001:0004dc60       ?should_format@?$standard_base@_WV?$string_output_adapter@_W@__crt_stdio_output@@@__crt_stdio_output@@IAE_NXZ 1004ec60 f i libucrtd:output.obj
 0001:0004dc70       ?should_skip_normal_state_processing@?$positional_parameter_base@DV?$stream_output_adapter@D@__crt_stdio_output@@@__crt_stdio_output@@IAE_NXZ 1004ec70 f i libucrtd:output.obj
 0001:0004dcc0       ?should_skip_normal_state_processing@?$positional_parameter_base@DV?$string_output_adapter@D@__crt_stdio_output@@@__crt_stdio_output@@IAE_NXZ 1004ecc0 f i libucrtd:output.obj
 0001:0004dd10       ?should_skip_normal_state_processing@?$positional_parameter_base@_WV?$stream_output_adapter@_W@__crt_stdio_output@@@__crt_stdio_output@@IAE_NXZ 1004ed10 f i libucrtd:output.obj
 0001:0004dd60       ?should_skip_normal_state_processing@?$positional_parameter_base@_WV?$string_output_adapter@_W@__crt_stdio_output@@@__crt_stdio_output@@IAE_NXZ 1004ed60 f i libucrtd:output.obj
 0001:0004ddb0       ?should_skip_normal_state_processing@?$standard_base@DV?$stream_output_adapter@D@__crt_stdio_output@@@__crt_stdio_output@@IAE_NXZ 1004edb0 f i libucrtd:output.obj
 0001:0004ddc0       ?should_skip_normal_state_processing@?$standard_base@DV?$string_output_adapter@D@__crt_stdio_output@@@__crt_stdio_output@@IAE_NXZ 1004edc0 f i libucrtd:output.obj
 0001:0004ddd0       ?should_skip_normal_state_processing@?$standard_base@_WV?$stream_output_adapter@_W@__crt_stdio_output@@@__crt_stdio_output@@IAE_NXZ 1004edd0 f i libucrtd:output.obj
 0001:0004dde0       ?should_skip_normal_state_processing@?$standard_base@_WV?$string_output_adapter@_W@__crt_stdio_output@@@__crt_stdio_output@@IAE_NXZ 1004ede0 f i libucrtd:output.obj
 0001:0004ddf0       ?should_skip_type_state_output@?$positional_parameter_base@DV?$stream_output_adapter@D@__crt_stdio_output@@@__crt_stdio_output@@IBE_NXZ 1004edf0 f i libucrtd:output.obj
 0001:0004de30       ?should_skip_type_state_output@?$positional_parameter_base@DV?$string_output_adapter@D@__crt_stdio_output@@@__crt_stdio_output@@IBE_NXZ 1004ee30 f i libucrtd:output.obj
 0001:0004de70       ?should_skip_type_state_output@?$positional_parameter_base@_WV?$stream_output_adapter@_W@__crt_stdio_output@@@__crt_stdio_output@@IBE_NXZ 1004ee70 f i libucrtd:output.obj
 0001:0004deb0       ?should_skip_type_state_output@?$positional_parameter_base@_WV?$string_output_adapter@_W@__crt_stdio_output@@@__crt_stdio_output@@IBE_NXZ 1004eeb0 f i libucrtd:output.obj
 0001:0004def0       ?should_skip_type_state_output@?$standard_base@DV?$stream_output_adapter@D@__crt_stdio_output@@@__crt_stdio_output@@IBE_NXZ 1004eef0 f i libucrtd:output.obj
 0001:0004df00       ?should_skip_type_state_output@?$standard_base@DV?$string_output_adapter@D@__crt_stdio_output@@@__crt_stdio_output@@IBE_NXZ 1004ef00 f i libucrtd:output.obj
 0001:0004df10       ?should_skip_type_state_output@?$standard_base@_WV?$stream_output_adapter@_W@__crt_stdio_output@@@__crt_stdio_output@@IBE_NXZ 1004ef10 f i libucrtd:output.obj
 0001:0004df20       ?should_skip_type_state_output@?$standard_base@_WV?$string_output_adapter@_W@__crt_stdio_output@@@__crt_stdio_output@@IBE_NXZ 1004ef20 f i libucrtd:output.obj
 0001:0004df30       ?state_case_dot@?$output_processor@DV?$stream_output_adapter@D@__crt_stdio_output@@V?$format_validation_base@DV?$stream_output_adapter@D@__crt_stdio_output@@@2@@__crt_stdio_output@@AAE_NXZ 1004ef30 f i libucrtd:output.obj
 0001:0004df50       ?state_case_dot@?$output_processor@DV?$stream_output_adapter@D@__crt_stdio_output@@V?$positional_parameter_base@DV?$stream_output_adapter@D@__crt_stdio_output@@@2@@__crt_stdio_output@@AAE_NXZ 1004ef50 f i libucrtd:output.obj
 0001:0004df70       ?state_case_dot@?$output_processor@DV?$stream_output_adapter@D@__crt_stdio_output@@V?$standard_base@DV?$stream_output_adapter@D@__crt_stdio_output@@@2@@__crt_stdio_output@@AAE_NXZ 1004ef70 f i libucrtd:output.obj
 0001:0004df90       ?state_case_dot@?$output_processor@DV?$string_output_adapter@D@__crt_stdio_output@@V?$format_validation_base@DV?$string_output_adapter@D@__crt_stdio_output@@@2@@__crt_stdio_output@@AAE_NXZ 1004ef90 f i libucrtd:output.obj
 0001:0004dfb0       ?state_case_dot@?$output_processor@DV?$string_output_adapter@D@__crt_stdio_output@@V?$positional_parameter_base@DV?$string_output_adapter@D@__crt_stdio_output@@@2@@__crt_stdio_output@@AAE_NXZ 1004efb0 f i libucrtd:output.obj
 0001:0004dfd0       ?state_case_dot@?$output_processor@DV?$string_output_adapter@D@__crt_stdio_output@@V?$standard_base@DV?$string_output_adapter@D@__crt_stdio_output@@@2@@__crt_stdio_output@@AAE_NXZ 1004efd0 f i libucrtd:output.obj
 0001:0004dff0       ?state_case_dot@?$output_processor@_WV?$stream_output_adapter@_W@__crt_stdio_output@@V?$format_validation_base@_WV?$stream_output_adapter@_W@__crt_stdio_output@@@2@@__crt_stdio_output@@AAE_NXZ 1004eff0 f i libucrtd:output.obj
 0001:0004e010       ?state_case_dot@?$output_processor@_WV?$stream_output_adapter@_W@__crt_stdio_output@@V?$positional_parameter_base@_WV?$stream_output_adapter@_W@__crt_stdio_output@@@2@@__crt_stdio_output@@AAE_NXZ 1004f010 f i libucrtd:output.obj
 0001:0004e030       ?state_case_dot@?$output_processor@_WV?$stream_output_adapter@_W@__crt_stdio_output@@V?$standard_base@_WV?$stream_output_adapter@_W@__crt_stdio_output@@@2@@__crt_stdio_output@@AAE_NXZ 1004f030 f i libucrtd:output.obj
 0001:0004e050       ?state_case_dot@?$output_processor@_WV?$string_output_adapter@_W@__crt_stdio_output@@V?$format_validation_base@_WV?$string_output_adapter@_W@__crt_stdio_output@@@2@@__crt_stdio_output@@AAE_NXZ 1004f050 f i libucrtd:output.obj
 0001:0004e070       ?state_case_dot@?$output_processor@_WV?$string_output_adapter@_W@__crt_stdio_output@@V?$positional_parameter_base@_WV?$string_output_adapter@_W@__crt_stdio_output@@@2@@__crt_stdio_output@@AAE_NXZ 1004f070 f i libucrtd:output.obj
 0001:0004e090       ?state_case_dot@?$output_processor@_WV?$string_output_adapter@_W@__crt_stdio_output@@V?$standard_base@_WV?$string_output_adapter@_W@__crt_stdio_output@@@2@@__crt_stdio_output@@AAE_NXZ 1004f090 f i libucrtd:output.obj
 0001:0004e0b0       ?state_case_flag@?$output_processor@DV?$stream_output_adapter@D@__crt_stdio_output@@V?$format_validation_base@DV?$stream_output_adapter@D@__crt_stdio_output@@@2@@__crt_stdio_output@@AAE_NXZ 1004f0b0 f i libucrtd:output.obj
 0001:0004e160       ?state_case_flag@?$output_processor@DV?$stream_output_adapter@D@__crt_stdio_output@@V?$positional_parameter_base@DV?$stream_output_adapter@D@__crt_stdio_output@@@2@@__crt_stdio_output@@AAE_NXZ 1004f160 f i libucrtd:output.obj
 0001:0004e210       ?state_case_flag@?$output_processor@DV?$stream_output_adapter@D@__crt_stdio_output@@V?$standard_base@DV?$stream_output_adapter@D@__crt_stdio_output@@@2@@__crt_stdio_output@@AAE_NXZ 1004f210 f i libucrtd:output.obj
 0001:0004e2c0       ?state_case_flag@?$output_processor@DV?$string_output_adapter@D@__crt_stdio_output@@V?$format_validation_base@DV?$string_output_adapter@D@__crt_stdio_output@@@2@@__crt_stdio_output@@AAE_NXZ 1004f2c0 f i libucrtd:output.obj
 0001:0004e370       ?state_case_flag@?$output_processor@DV?$string_output_adapter@D@__crt_stdio_output@@V?$positional_parameter_base@DV?$string_output_adapter@D@__crt_stdio_output@@@2@@__crt_stdio_output@@AAE_NXZ 1004f370 f i libucrtd:output.obj
 0001:0004e420       ?state_case_flag@?$output_processor@DV?$string_output_adapter@D@__crt_stdio_output@@V?$standard_base@DV?$string_output_adapter@D@__crt_stdio_output@@@2@@__crt_stdio_output@@AAE_NXZ 1004f420 f i libucrtd:output.obj
 0001:0004e4d0       ?state_case_flag@?$output_processor@_WV?$stream_output_adapter@_W@__crt_stdio_output@@V?$format_validation_base@_WV?$stream_output_adapter@_W@__crt_stdio_output@@@2@@__crt_stdio_output@@AAE_NXZ 1004f4d0 f i libucrtd:output.obj
 0001:0004e580       ?state_case_flag@?$output_processor@_WV?$stream_output_adapter@_W@__crt_stdio_output@@V?$positional_parameter_base@_WV?$stream_output_adapter@_W@__crt_stdio_output@@@2@@__crt_stdio_output@@AAE_NXZ 1004f580 f i libucrtd:output.obj
 0001:0004e630       ?state_case_flag@?$output_processor@_WV?$stream_output_adapter@_W@__crt_stdio_output@@V?$standard_base@_WV?$stream_output_adapter@_W@__crt_stdio_output@@@2@@__crt_stdio_output@@AAE_NXZ 1004f630 f i libucrtd:output.obj
 0001:0004e6e0       ?state_case_flag@?$output_processor@_WV?$string_output_adapter@_W@__crt_stdio_output@@V?$format_validation_base@_WV?$string_output_adapter@_W@__crt_stdio_output@@@2@@__crt_stdio_output@@AAE_NXZ 1004f6e0 f i libucrtd:output.obj
 0001:0004e790       ?state_case_flag@?$output_processor@_WV?$string_output_adapter@_W@__crt_stdio_output@@V?$positional_parameter_base@_WV?$string_output_adapter@_W@__crt_stdio_output@@@2@@__crt_stdio_output@@AAE_NXZ 1004f790 f i libucrtd:output.obj
 0001:0004e840       ?state_case_flag@?$output_processor@_WV?$string_output_adapter@_W@__crt_stdio_output@@V?$standard_base@_WV?$string_output_adapter@_W@__crt_stdio_output@@@2@@__crt_stdio_output@@AAE_NXZ 1004f840 f i libucrtd:output.obj
 0001:0004e8f0       ?state_case_normal@?$output_processor@DV?$stream_output_adapter@D@__crt_stdio_output@@V?$format_validation_base@DV?$stream_output_adapter@D@__crt_stdio_output@@@2@@__crt_stdio_output@@AAE_NXZ 1004f8f0 f i libucrtd:output.obj
 0001:0004e9a0       ?state_case_normal@?$output_processor@DV?$stream_output_adapter@D@__crt_stdio_output@@V?$positional_parameter_base@DV?$stream_output_adapter@D@__crt_stdio_output@@@2@@__crt_stdio_output@@AAE_NXZ 1004f9a0 f i libucrtd:output.obj
 0001:0004ea50       ?state_case_normal@?$output_processor@DV?$stream_output_adapter@D@__crt_stdio_output@@V?$standard_base@DV?$stream_output_adapter@D@__crt_stdio_output@@@2@@__crt_stdio_output@@AAE_NXZ 1004fa50 f i libucrtd:output.obj
 0001:0004eb00       ?state_case_normal@?$output_processor@DV?$string_output_adapter@D@__crt_stdio_output@@V?$format_validation_base@DV?$string_output_adapter@D@__crt_stdio_output@@@2@@__crt_stdio_output@@AAE_NXZ 1004fb00 f i libucrtd:output.obj
 0001:0004ebb0       ?state_case_normal@?$output_processor@DV?$string_output_adapter@D@__crt_stdio_output@@V?$positional_parameter_base@DV?$string_output_adapter@D@__crt_stdio_output@@@2@@__crt_stdio_output@@AAE_NXZ 1004fbb0 f i libucrtd:output.obj
 0001:0004ec60       ?state_case_normal@?$output_processor@DV?$string_output_adapter@D@__crt_stdio_output@@V?$standard_base@DV?$string_output_adapter@D@__crt_stdio_output@@@2@@__crt_stdio_output@@AAE_NXZ 1004fc60 f i libucrtd:output.obj
 0001:0004ed10       ?state_case_normal@?$output_processor@_WV?$stream_output_adapter@_W@__crt_stdio_output@@V?$format_validation_base@_WV?$stream_output_adapter@_W@__crt_stdio_output@@@2@@__crt_stdio_output@@AAE_NXZ 1004fd10 f i libucrtd:output.obj
 0001:0004edc0       ?state_case_normal@?$output_processor@_WV?$stream_output_adapter@_W@__crt_stdio_output@@V?$positional_parameter_base@_WV?$stream_output_adapter@_W@__crt_stdio_output@@@2@@__crt_stdio_output@@AAE_NXZ 1004fdc0 f i libucrtd:output.obj
 0001:0004ee70       ?state_case_normal@?$output_processor@_WV?$stream_output_adapter@_W@__crt_stdio_output@@V?$standard_base@_WV?$stream_output_adapter@_W@__crt_stdio_output@@@2@@__crt_stdio_output@@AAE_NXZ 1004fe70 f i libucrtd:output.obj
 0001:0004ef20       ?state_case_normal@?$output_processor@_WV?$string_output_adapter@_W@__crt_stdio_output@@V?$format_validation_base@_WV?$string_output_adapter@_W@__crt_stdio_output@@@2@@__crt_stdio_output@@AAE_NXZ 1004ff20 f i libucrtd:output.obj
 0001:0004efd0       ?state_case_normal@?$output_processor@_WV?$string_output_adapter@_W@__crt_stdio_output@@V?$positional_parameter_base@_WV?$string_output_adapter@_W@__crt_stdio_output@@@2@@__crt_stdio_output@@AAE_NXZ 1004ffd0 f i libucrtd:output.obj
 0001:0004f080       ?state_case_normal@?$output_processor@_WV?$string_output_adapter@_W@__crt_stdio_output@@V?$standard_base@_WV?$string_output_adapter@_W@__crt_stdio_output@@@2@@__crt_stdio_output@@AAE_NXZ 10050080 f i libucrtd:output.obj
 0001:0004f130       ?state_case_normal_common@?$output_processor@DV?$stream_output_adapter@D@__crt_stdio_output@@V?$format_validation_base@DV?$stream_output_adapter@D@__crt_stdio_output@@@2@@__crt_stdio_output@@AAE_NXZ 10050130 f i libucrtd:output.obj
 0001:0004f180       ?state_case_normal_common@?$output_processor@DV?$stream_output_adapter@D@__crt_stdio_output@@V?$positional_parameter_base@DV?$stream_output_adapter@D@__crt_stdio_output@@@2@@__crt_stdio_output@@AAE_NXZ 10050180 f i libucrtd:output.obj
 0001:0004f1d0       ?state_case_normal_common@?$output_processor@DV?$stream_output_adapter@D@__crt_stdio_output@@V?$standard_base@DV?$stream_output_adapter@D@__crt_stdio_output@@@2@@__crt_stdio_output@@AAE_NXZ 100501d0 f i libucrtd:output.obj
 0001:0004f220       ?state_case_normal_common@?$output_processor@DV?$string_output_adapter@D@__crt_stdio_output@@V?$format_validation_base@DV?$string_output_adapter@D@__crt_stdio_output@@@2@@__crt_stdio_output@@AAE_NXZ 10050220 f i libucrtd:output.obj
 0001:0004f270       ?state_case_normal_common@?$output_processor@DV?$string_output_adapter@D@__crt_stdio_output@@V?$positional_parameter_base@DV?$string_output_adapter@D@__crt_stdio_output@@@2@@__crt_stdio_output@@AAE_NXZ 10050270 f i libucrtd:output.obj
 0001:0004f2c0       ?state_case_normal_common@?$output_processor@DV?$string_output_adapter@D@__crt_stdio_output@@V?$standard_base@DV?$string_output_adapter@D@__crt_stdio_output@@@2@@__crt_stdio_output@@AAE_NXZ 100502c0 f i libucrtd:output.obj
 0001:0004f310       ?state_case_normal_common@?$output_processor@_WV?$stream_output_adapter@_W@__crt_stdio_output@@V?$format_validation_base@_WV?$stream_output_adapter@_W@__crt_stdio_output@@@2@@__crt_stdio_output@@AAE_NXZ 10050310 f i libucrtd:output.obj
 0001:0004f360       ?state_case_normal_common@?$output_processor@_WV?$stream_output_adapter@_W@__crt_stdio_output@@V?$positional_parameter_base@_WV?$stream_output_adapter@_W@__crt_stdio_output@@@2@@__crt_stdio_output@@AAE_NXZ 10050360 f i libucrtd:output.obj
 0001:0004f3b0       ?state_case_normal_common@?$output_processor@_WV?$stream_output_adapter@_W@__crt_stdio_output@@V?$standard_base@_WV?$stream_output_adapter@_W@__crt_stdio_output@@@2@@__crt_stdio_output@@AAE_NXZ 100503b0 f i libucrtd:output.obj
 0001:0004f400       ?state_case_normal_common@?$output_processor@_WV?$string_output_adapter@_W@__crt_stdio_output@@V?$format_validation_base@_WV?$string_output_adapter@_W@__crt_stdio_output@@@2@@__crt_stdio_output@@AAE_NXZ 10050400 f i libucrtd:output.obj
 0001:0004f450       ?state_case_normal_common@?$output_processor@_WV?$string_output_adapter@_W@__crt_stdio_output@@V?$positional_parameter_base@_WV?$string_output_adapter@_W@__crt_stdio_output@@@2@@__crt_stdio_output@@AAE_NXZ 10050450 f i libucrtd:output.obj
 0001:0004f4a0       ?state_case_normal_common@?$output_processor@_WV?$string_output_adapter@_W@__crt_stdio_output@@V?$standard_base@_WV?$string_output_adapter@_W@__crt_stdio_output@@@2@@__crt_stdio_output@@AAE_NXZ 100504a0 f i libucrtd:output.obj
 0001:0004f4f0       ?state_case_normal_tchar@?$output_processor@DV?$stream_output_adapter@D@__crt_stdio_output@@V?$format_validation_base@DV?$stream_output_adapter@D@__crt_stdio_output@@@2@@__crt_stdio_output@@AAE_ND@Z 100504f0 f i libucrtd:output.obj
 0001:0004f5f0       ?state_case_normal_tchar@?$output_processor@DV?$stream_output_adapter@D@__crt_stdio_output@@V?$positional_parameter_base@DV?$stream_output_adapter@D@__crt_stdio_output@@@2@@__crt_stdio_output@@AAE_ND@Z 100505f0 f i libucrtd:output.obj
 0001:0004f6f0       ?state_case_normal_tchar@?$output_processor@DV?$stream_output_adapter@D@__crt_stdio_output@@V?$standard_base@DV?$stream_output_adapter@D@__crt_stdio_output@@@2@@__crt_stdio_output@@AAE_ND@Z 100506f0 f i libucrtd:output.obj
 0001:0004f7f0       ?state_case_normal_tchar@?$output_processor@DV?$string_output_adapter@D@__crt_stdio_output@@V?$format_validation_base@DV?$string_output_adapter@D@__crt_stdio_output@@@2@@__crt_stdio_output@@AAE_ND@Z 100507f0 f i libucrtd:output.obj
 0001:0004f8f0       ?state_case_normal_tchar@?$output_processor@DV?$string_output_adapter@D@__crt_stdio_output@@V?$positional_parameter_base@DV?$string_output_adapter@D@__crt_stdio_output@@@2@@__crt_stdio_output@@AAE_ND@Z 100508f0 f i libucrtd:output.obj
 0001:0004f9f0       ?state_case_normal_tchar@?$output_processor@DV?$string_output_adapter@D@__crt_stdio_output@@V?$standard_base@DV?$string_output_adapter@D@__crt_stdio_output@@@2@@__crt_stdio_output@@AAE_ND@Z 100509f0 f i libucrtd:output.obj
 0001:0004faf0       ?state_case_normal_tchar@?$output_processor@_WV?$stream_output_adapter@_W@__crt_stdio_output@@V?$format_validation_base@_WV?$stream_output_adapter@_W@__crt_stdio_output@@@2@@__crt_stdio_output@@AAE_N_W@Z 10050af0 f i libucrtd:output.obj
 0001:0004fb10       ?state_case_normal_tchar@?$output_processor@_WV?$stream_output_adapter@_W@__crt_stdio_output@@V?$positional_parameter_base@_WV?$stream_output_adapter@_W@__crt_stdio_output@@@2@@__crt_stdio_output@@AAE_N_W@Z 10050b10 f i libucrtd:output.obj
 0001:0004fb30       ?state_case_normal_tchar@?$output_processor@_WV?$stream_output_adapter@_W@__crt_stdio_output@@V?$standard_base@_WV?$stream_output_adapter@_W@__crt_stdio_output@@@2@@__crt_stdio_output@@AAE_N_W@Z 10050b30 f i libucrtd:output.obj
 0001:0004fb50       ?state_case_normal_tchar@?$output_processor@_WV?$string_output_adapter@_W@__crt_stdio_output@@V?$format_validation_base@_WV?$string_output_adapter@_W@__crt_stdio_output@@@2@@__crt_stdio_output@@AAE_N_W@Z 10050b50 f i libucrtd:output.obj
 0001:0004fb70       ?state_case_normal_tchar@?$output_processor@_WV?$string_output_adapter@_W@__crt_stdio_output@@V?$positional_parameter_base@_WV?$string_output_adapter@_W@__crt_stdio_output@@@2@@__crt_stdio_output@@AAE_N_W@Z 10050b70 f i libucrtd:output.obj
 0001:0004fb90       ?state_case_normal_tchar@?$output_processor@_WV?$string_output_adapter@_W@__crt_stdio_output@@V?$standard_base@_WV?$string_output_adapter@_W@__crt_stdio_output@@@2@@__crt_stdio_output@@AAE_N_W@Z 10050b90 f i libucrtd:output.obj
 0001:0004fbb0       ?state_case_percent@?$output_processor@DV?$stream_output_adapter@D@__crt_stdio_output@@V?$format_validation_base@DV?$stream_output_adapter@D@__crt_stdio_output@@@2@@__crt_stdio_output@@AAE_NXZ 10050bb0 f i libucrtd:output.obj
 0001:0004fc00       ?state_case_percent@?$output_processor@DV?$stream_output_adapter@D@__crt_stdio_output@@V?$positional_parameter_base@DV?$stream_output_adapter@D@__crt_stdio_output@@@2@@__crt_stdio_output@@AAE_NXZ 10050c00 f i libucrtd:output.obj
 0001:0004fc50       ?state_case_percent@?$output_processor@DV?$stream_output_adapter@D@__crt_stdio_output@@V?$standard_base@DV?$stream_output_adapter@D@__crt_stdio_output@@@2@@__crt_stdio_output@@AAE_NXZ 10050c50 f i libucrtd:output.obj
 0001:0004fca0       ?state_case_percent@?$output_processor@DV?$string_output_adapter@D@__crt_stdio_output@@V?$format_validation_base@DV?$string_output_adapter@D@__crt_stdio_output@@@2@@__crt_stdio_output@@AAE_NXZ 10050ca0 f i libucrtd:output.obj
 0001:0004fcf0       ?state_case_percent@?$output_processor@DV?$string_output_adapter@D@__crt_stdio_output@@V?$positional_parameter_base@DV?$string_output_adapter@D@__crt_stdio_output@@@2@@__crt_stdio_output@@AAE_NXZ 10050cf0 f i libucrtd:output.obj
 0001:0004fd40       ?state_case_percent@?$output_processor@DV?$string_output_adapter@D@__crt_stdio_output@@V?$standard_base@DV?$string_output_adapter@D@__crt_stdio_output@@@2@@__crt_stdio_output@@AAE_NXZ 10050d40 f i libucrtd:output.obj
 0001:0004fd90       ?state_case_percent@?$output_processor@_WV?$stream_output_adapter@_W@__crt_stdio_output@@V?$format_validation_base@_WV?$stream_output_adapter@_W@__crt_stdio_output@@@2@@__crt_stdio_output@@AAE_NXZ 10050d90 f i libucrtd:output.obj
 0001:0004fde0       ?state_case_percent@?$output_processor@_WV?$stream_output_adapter@_W@__crt_stdio_output@@V?$positional_parameter_base@_WV?$stream_output_adapter@_W@__crt_stdio_output@@@2@@__crt_stdio_output@@AAE_NXZ 10050de0 f i libucrtd:output.obj
 0001:0004fe30       ?state_case_percent@?$output_processor@_WV?$stream_output_adapter@_W@__crt_stdio_output@@V?$standard_base@_WV?$stream_output_adapter@_W@__crt_stdio_output@@@2@@__crt_stdio_output@@AAE_NXZ 10050e30 f i libucrtd:output.obj
 0001:0004fe80       ?state_case_percent@?$output_processor@_WV?$string_output_adapter@_W@__crt_stdio_output@@V?$format_validation_base@_WV?$string_output_adapter@_W@__crt_stdio_output@@@2@@__crt_stdio_output@@AAE_NXZ 10050e80 f i libucrtd:output.obj
 0001:0004fed0       ?state_case_percent@?$output_processor@_WV?$string_output_adapter@_W@__crt_stdio_output@@V?$positional_parameter_base@_WV?$string_output_adapter@_W@__crt_stdio_output@@@2@@__crt_stdio_output@@AAE_NXZ 10050ed0 f i libucrtd:output.obj
 0001:0004ff20       ?state_case_percent@?$output_processor@_WV?$string_output_adapter@_W@__crt_stdio_output@@V?$standard_base@_WV?$string_output_adapter@_W@__crt_stdio_output@@@2@@__crt_stdio_output@@AAE_NXZ 10050f20 f i libucrtd:output.obj
 0001:0004ff70       ?state_case_precision@?$output_processor@DV?$stream_output_adapter@D@__crt_stdio_output@@V?$format_validation_base@DV?$stream_output_adapter@D@__crt_stdio_output@@@2@@__crt_stdio_output@@AAE_NXZ 10050f70 f i libucrtd:output.obj
 0001:0004ffe0       ?state_case_precision@?$output_processor@DV?$stream_output_adapter@D@__crt_stdio_output@@V?$positional_parameter_base@DV?$stream_output_adapter@D@__crt_stdio_output@@@2@@__crt_stdio_output@@AAE_NXZ 10050fe0 f i libucrtd:output.obj
 0001:00050050       ?state_case_precision@?$output_processor@DV?$stream_output_adapter@D@__crt_stdio_output@@V?$standard_base@DV?$stream_output_adapter@D@__crt_stdio_output@@@2@@__crt_stdio_output@@AAE_NXZ 10051050 f i libucrtd:output.obj
 0001:000500c0       ?state_case_precision@?$output_processor@DV?$string_output_adapter@D@__crt_stdio_output@@V?$format_validation_base@DV?$string_output_adapter@D@__crt_stdio_output@@@2@@__crt_stdio_output@@AAE_NXZ 100510c0 f i libucrtd:output.obj
 0001:00050130       ?state_case_precision@?$output_processor@DV?$string_output_adapter@D@__crt_stdio_output@@V?$positional_parameter_base@DV?$string_output_adapter@D@__crt_stdio_output@@@2@@__crt_stdio_output@@AAE_NXZ 10051130 f i libucrtd:output.obj
 0001:000501a0       ?state_case_precision@?$output_processor@DV?$string_output_adapter@D@__crt_stdio_output@@V?$standard_base@DV?$string_output_adapter@D@__crt_stdio_output@@@2@@__crt_stdio_output@@AAE_NXZ 100511a0 f i libucrtd:output.obj
 0001:00050210       ?state_case_precision@?$output_processor@_WV?$stream_output_adapter@_W@__crt_stdio_output@@V?$format_validation_base@_WV?$stream_output_adapter@_W@__crt_stdio_output@@@2@@__crt_stdio_output@@AAE_NXZ 10051210 f i libucrtd:output.obj
 0001:00050280       ?state_case_precision@?$output_processor@_WV?$stream_output_adapter@_W@__crt_stdio_output@@V?$positional_parameter_base@_WV?$stream_output_adapter@_W@__crt_stdio_output@@@2@@__crt_stdio_output@@AAE_NXZ 10051280 f i libucrtd:output.obj
 0001:000502f0       ?state_case_precision@?$output_processor@_WV?$stream_output_adapter@_W@__crt_stdio_output@@V?$standard_base@_WV?$stream_output_adapter@_W@__crt_stdio_output@@@2@@__crt_stdio_output@@AAE_NXZ 100512f0 f i libucrtd:output.obj
 0001:00050360       ?state_case_precision@?$output_processor@_WV?$string_output_adapter@_W@__crt_stdio_output@@V?$format_validation_base@_WV?$string_output_adapter@_W@__crt_stdio_output@@@2@@__crt_stdio_output@@AAE_NXZ 10051360 f i libucrtd:output.obj
 0001:000503d0       ?state_case_precision@?$output_processor@_WV?$string_output_adapter@_W@__crt_stdio_output@@V?$positional_parameter_base@_WV?$string_output_adapter@_W@__crt_stdio_output@@@2@@__crt_stdio_output@@AAE_NXZ 100513d0 f i libucrtd:output.obj
 0001:00050440       ?state_case_precision@?$output_processor@_WV?$string_output_adapter@_W@__crt_stdio_output@@V?$standard_base@_WV?$string_output_adapter@_W@__crt_stdio_output@@@2@@__crt_stdio_output@@AAE_NXZ 10051440 f i libucrtd:output.obj
 0001:000504b0       ?state_case_size@?$output_processor@DV?$stream_output_adapter@D@__crt_stdio_output@@V?$format_validation_base@DV?$stream_output_adapter@D@__crt_stdio_output@@@2@@__crt_stdio_output@@AAE_NXZ 100514b0 f i libucrtd:output.obj
 0001:00050880       ?state_case_size@?$output_processor@DV?$stream_output_adapter@D@__crt_stdio_output@@V?$positional_parameter_base@DV?$stream_output_adapter@D@__crt_stdio_output@@@2@@__crt_stdio_output@@AAE_NXZ 10051880 f i libucrtd:output.obj
 0001:00050c50       ?state_case_size@?$output_processor@DV?$stream_output_adapter@D@__crt_stdio_output@@V?$standard_base@DV?$stream_output_adapter@D@__crt_stdio_output@@@2@@__crt_stdio_output@@AAE_NXZ 10051c50 f i libucrtd:output.obj
 0001:00051020       ?state_case_size@?$output_processor@DV?$string_output_adapter@D@__crt_stdio_output@@V?$format_validation_base@DV?$string_output_adapter@D@__crt_stdio_output@@@2@@__crt_stdio_output@@AAE_NXZ 10052020 f i libucrtd:output.obj
 0001:000513f0       ?state_case_size@?$output_processor@DV?$string_output_adapter@D@__crt_stdio_output@@V?$positional_parameter_base@DV?$string_output_adapter@D@__crt_stdio_output@@@2@@__crt_stdio_output@@AAE_NXZ 100523f0 f i libucrtd:output.obj
 0001:000517c0       ?state_case_size@?$output_processor@DV?$string_output_adapter@D@__crt_stdio_output@@V?$standard_base@DV?$string_output_adapter@D@__crt_stdio_output@@@2@@__crt_stdio_output@@AAE_NXZ 100527c0 f i libucrtd:output.obj
 0001:00051b90       ?state_case_size@?$output_processor@_WV?$stream_output_adapter@_W@__crt_stdio_output@@V?$format_validation_base@_WV?$stream_output_adapter@_W@__crt_stdio_output@@@2@@__crt_stdio_output@@AAE_NXZ 10052b90 f i libucrtd:output.obj
 0001:00051f60       ?state_case_size@?$output_processor@_WV?$stream_output_adapter@_W@__crt_stdio_output@@V?$positional_parameter_base@_WV?$stream_output_adapter@_W@__crt_stdio_output@@@2@@__crt_stdio_output@@AAE_NXZ 10052f60 f i libucrtd:output.obj
 0001:00052330       ?state_case_size@?$output_processor@_WV?$stream_output_adapter@_W@__crt_stdio_output@@V?$standard_base@_WV?$stream_output_adapter@_W@__crt_stdio_output@@@2@@__crt_stdio_output@@AAE_NXZ 10053330 f i libucrtd:output.obj
 0001:00052700       ?state_case_size@?$output_processor@_WV?$string_output_adapter@_W@__crt_stdio_output@@V?$format_validation_base@_WV?$string_output_adapter@_W@__crt_stdio_output@@@2@@__crt_stdio_output@@AAE_NXZ 10053700 f i libucrtd:output.obj
 0001:00052ad0       ?state_case_size@?$output_processor@_WV?$string_output_adapter@_W@__crt_stdio_output@@V?$positional_parameter_base@_WV?$string_output_adapter@_W@__crt_stdio_output@@@2@@__crt_stdio_output@@AAE_NXZ 10053ad0 f i libucrtd:output.obj
 0001:00052ea0       ?state_case_size@?$output_processor@_WV?$string_output_adapter@_W@__crt_stdio_output@@V?$standard_base@_WV?$string_output_adapter@_W@__crt_stdio_output@@@2@@__crt_stdio_output@@AAE_NXZ 10053ea0 f i libucrtd:output.obj
 0001:00053270       ?state_case_type@?$output_processor@DV?$stream_output_adapter@D@__crt_stdio_output@@V?$format_validation_base@DV?$stream_output_adapter@D@__crt_stdio_output@@@2@@__crt_stdio_output@@AAE_NXZ 10054270 f i libucrtd:output.obj
 0001:00053620       ?state_case_type@?$output_processor@DV?$stream_output_adapter@D@__crt_stdio_output@@V?$positional_parameter_base@DV?$stream_output_adapter@D@__crt_stdio_output@@@2@@__crt_stdio_output@@AAE_NXZ 10054620 f i libucrtd:output.obj
 0001:000539d0       ?state_case_type@?$output_processor@DV?$stream_output_adapter@D@__crt_stdio_output@@V?$standard_base@DV?$stream_output_adapter@D@__crt_stdio_output@@@2@@__crt_stdio_output@@AAE_NXZ 100549d0 f i libucrtd:output.obj
 0001:00053d80       ?state_case_type@?$output_processor@DV?$string_output_adapter@D@__crt_stdio_output@@V?$format_validation_base@DV?$string_output_adapter@D@__crt_stdio_output@@@2@@__crt_stdio_output@@AAE_NXZ 10054d80 f i libucrtd:output.obj
 0001:00054130       ?state_case_type@?$output_processor@DV?$string_output_adapter@D@__crt_stdio_output@@V?$positional_parameter_base@DV?$string_output_adapter@D@__crt_stdio_output@@@2@@__crt_stdio_output@@AAE_NXZ 10055130 f i libucrtd:output.obj
 0001:000544e0       ?state_case_type@?$output_processor@DV?$string_output_adapter@D@__crt_stdio_output@@V?$standard_base@DV?$string_output_adapter@D@__crt_stdio_output@@@2@@__crt_stdio_output@@AAE_NXZ 100554e0 f i libucrtd:output.obj
 0001:00054890       ?state_case_type@?$output_processor@_WV?$stream_output_adapter@_W@__crt_stdio_output@@V?$format_validation_base@_WV?$stream_output_adapter@_W@__crt_stdio_output@@@2@@__crt_stdio_output@@AAE_NXZ 10055890 f i libucrtd:output.obj
 0001:00054c70       ?state_case_type@?$output_processor@_WV?$stream_output_adapter@_W@__crt_stdio_output@@V?$positional_parameter_base@_WV?$stream_output_adapter@_W@__crt_stdio_output@@@2@@__crt_stdio_output@@AAE_NXZ 10055c70 f i libucrtd:output.obj
 0001:00055050       ?state_case_type@?$output_processor@_WV?$stream_output_adapter@_W@__crt_stdio_output@@V?$standard_base@_WV?$stream_output_adapter@_W@__crt_stdio_output@@@2@@__crt_stdio_output@@AAE_NXZ 10056050 f i libucrtd:output.obj
 0001:00055430       ?state_case_type@?$output_processor@_WV?$string_output_adapter@_W@__crt_stdio_output@@V?$format_validation_base@_WV?$string_output_adapter@_W@__crt_stdio_output@@@2@@__crt_stdio_output@@AAE_NXZ 10056430 f i libucrtd:output.obj
 0001:00055810       ?state_case_type@?$output_processor@_WV?$string_output_adapter@_W@__crt_stdio_output@@V?$positional_parameter_base@_WV?$string_output_adapter@_W@__crt_stdio_output@@@2@@__crt_stdio_output@@AAE_NXZ 10056810 f i libucrtd:output.obj
 0001:00055bf0       ?state_case_type@?$output_processor@_WV?$string_output_adapter@_W@__crt_stdio_output@@V?$standard_base@_WV?$string_output_adapter@_W@__crt_stdio_output@@@2@@__crt_stdio_output@@AAE_NXZ 10056bf0 f i libucrtd:output.obj
 0001:00055fd0       ?state_case_width@?$output_processor@DV?$stream_output_adapter@D@__crt_stdio_output@@V?$format_validation_base@DV?$stream_output_adapter@D@__crt_stdio_output@@@2@@__crt_stdio_output@@AAE_NXZ 10056fd0 f i libucrtd:output.obj
 0001:00056050       ?state_case_width@?$output_processor@DV?$stream_output_adapter@D@__crt_stdio_output@@V?$positional_parameter_base@DV?$stream_output_adapter@D@__crt_stdio_output@@@2@@__crt_stdio_output@@AAE_NXZ 10057050 f i libucrtd:output.obj
 0001:000560d0       ?state_case_width@?$output_processor@DV?$stream_output_adapter@D@__crt_stdio_output@@V?$standard_base@DV?$stream_output_adapter@D@__crt_stdio_output@@@2@@__crt_stdio_output@@AAE_NXZ 100570d0 f i libucrtd:output.obj
 0001:00056150       ?state_case_width@?$output_processor@DV?$string_output_adapter@D@__crt_stdio_output@@V?$format_validation_base@DV?$string_output_adapter@D@__crt_stdio_output@@@2@@__crt_stdio_output@@AAE_NXZ 10057150 f i libucrtd:output.obj
 0001:000561d0       ?state_case_width@?$output_processor@DV?$string_output_adapter@D@__crt_stdio_output@@V?$positional_parameter_base@DV?$string_output_adapter@D@__crt_stdio_output@@@2@@__crt_stdio_output@@AAE_NXZ 100571d0 f i libucrtd:output.obj
 0001:00056250       ?state_case_width@?$output_processor@DV?$string_output_adapter@D@__crt_stdio_output@@V?$standard_base@DV?$string_output_adapter@D@__crt_stdio_output@@@2@@__crt_stdio_output@@AAE_NXZ 10057250 f i libucrtd:output.obj
 0001:000562d0       ?state_case_width@?$output_processor@_WV?$stream_output_adapter@_W@__crt_stdio_output@@V?$format_validation_base@_WV?$stream_output_adapter@_W@__crt_stdio_output@@@2@@__crt_stdio_output@@AAE_NXZ 100572d0 f i libucrtd:output.obj
 0001:00056350       ?state_case_width@?$output_processor@_WV?$stream_output_adapter@_W@__crt_stdio_output@@V?$positional_parameter_base@_WV?$stream_output_adapter@_W@__crt_stdio_output@@@2@@__crt_stdio_output@@AAE_NXZ 10057350 f i libucrtd:output.obj
 0001:000563d0       ?state_case_width@?$output_processor@_WV?$stream_output_adapter@_W@__crt_stdio_output@@V?$standard_base@_WV?$stream_output_adapter@_W@__crt_stdio_output@@@2@@__crt_stdio_output@@AAE_NXZ 100573d0 f i libucrtd:output.obj
 0001:00056450       ?state_case_width@?$output_processor@_WV?$string_output_adapter@_W@__crt_stdio_output@@V?$format_validation_base@_WV?$string_output_adapter@_W@__crt_stdio_output@@@2@@__crt_stdio_output@@AAE_NXZ 10057450 f i libucrtd:output.obj
 0001:000564d0       ?state_case_width@?$output_processor@_WV?$string_output_adapter@_W@__crt_stdio_output@@V?$positional_parameter_base@_WV?$string_output_adapter@_W@__crt_stdio_output@@@2@@__crt_stdio_output@@AAE_NXZ 100574d0 f i libucrtd:output.obj
 0001:00056550       ?state_case_width@?$output_processor@_WV?$string_output_adapter@_W@__crt_stdio_output@@V?$standard_base@_WV?$string_output_adapter@_W@__crt_stdio_output@@@2@@__crt_stdio_output@@AAE_NXZ 10057550 f i libucrtd:output.obj
 0001:000565d0       ?state_count@?$format_validation_base@DV?$stream_output_adapter@D@__crt_stdio_output@@@__crt_stdio_output@@KAIXZ 100575d0 f i libucrtd:output.obj
 0001:000565e0       ?state_count@?$format_validation_base@DV?$string_output_adapter@D@__crt_stdio_output@@@__crt_stdio_output@@KAIXZ 100575e0 f i libucrtd:output.obj
 0001:000565f0       ?state_count@?$format_validation_base@_WV?$stream_output_adapter@_W@__crt_stdio_output@@@__crt_stdio_output@@KAIXZ 100575f0 f i libucrtd:output.obj
 0001:00056600       ?state_count@?$format_validation_base@_WV?$string_output_adapter@_W@__crt_stdio_output@@@__crt_stdio_output@@KAIXZ 10057600 f i libucrtd:output.obj
 0001:00056610       ?state_count@?$standard_base@DV?$stream_output_adapter@D@__crt_stdio_output@@@__crt_stdio_output@@KAIXZ 10057610 f i libucrtd:output.obj
 0001:00056620       ?state_count@?$standard_base@DV?$string_output_adapter@D@__crt_stdio_output@@@__crt_stdio_output@@KAIXZ 10057620 f i libucrtd:output.obj
 0001:00056630       ?state_count@?$standard_base@_WV?$stream_output_adapter@_W@__crt_stdio_output@@@__crt_stdio_output@@KAIXZ 10057630 f i libucrtd:output.obj
 0001:00056640       ?state_count@?$standard_base@_WV?$string_output_adapter@_W@__crt_stdio_output@@@__crt_stdio_output@@KAIXZ 10057640 f i libucrtd:output.obj
 0001:00056650       ?state_transition_table@?$format_validation_base@DV?$stream_output_adapter@D@__crt_stdio_output@@@__crt_stdio_output@@KAPBEXZ 10057650 f i libucrtd:output.obj
 0001:00056660       ?state_transition_table@?$format_validation_base@DV?$string_output_adapter@D@__crt_stdio_output@@@__crt_stdio_output@@KAPBEXZ 10057660 f i libucrtd:output.obj
 0001:00056670       ?state_transition_table@?$format_validation_base@_WV?$stream_output_adapter@_W@__crt_stdio_output@@@__crt_stdio_output@@KAPBEXZ 10057670 f i libucrtd:output.obj
 0001:00056680       ?state_transition_table@?$format_validation_base@_WV?$string_output_adapter@_W@__crt_stdio_output@@@__crt_stdio_output@@KAPBEXZ 10057680 f i libucrtd:output.obj
 0001:00056690       ?state_transition_table@?$standard_base@DV?$stream_output_adapter@D@__crt_stdio_output@@@__crt_stdio_output@@KAPBEXZ 10057690 f i libucrtd:output.obj
 0001:000566a0       ?state_transition_table@?$standard_base@DV?$string_output_adapter@D@__crt_stdio_output@@@__crt_stdio_output@@KAPBEXZ 100576a0 f i libucrtd:output.obj
 0001:000566b0       ?state_transition_table@?$standard_base@_WV?$stream_output_adapter@_W@__crt_stdio_output@@@__crt_stdio_output@@KAPBEXZ 100576b0 f i libucrtd:output.obj
 0001:000566c0       ?state_transition_table@?$standard_base@_WV?$string_output_adapter@_W@__crt_stdio_output@@@__crt_stdio_output@@KAPBEXZ 100576c0 f i libucrtd:output.obj
 0001:000566d0       ?tchar_string@?$common_data@D@__crt_stdio_output@@IAEAAPADD@Z 100576d0 f i libucrtd:output.obj
 0001:000566f0       ?tchar_string@?$common_data@D@__crt_stdio_output@@IAEAAPADXZ 100576f0 f i libucrtd:output.obj
 0001:00056710       ?tchar_string@?$common_data@_W@__crt_stdio_output@@IAEAAPA_WXZ 10057710 f i libucrtd:output.obj
 0001:00056730       ?tchar_string@?$common_data@_W@__crt_stdio_output@@IAEAAPA_W_W@Z 10057730 f i libucrtd:output.obj
 0001:00056750       ?to_integer_size@__crt_stdio_output@@YAIW4length_modifier@1@@Z 10057750 f i libucrtd:output.obj
 0001:000567f0       ?type_case_X@?$output_processor@DV?$stream_output_adapter@D@__crt_stdio_output@@V?$format_validation_base@DV?$stream_output_adapter@D@__crt_stdio_output@@@2@@__crt_stdio_output@@AAE_NXZ 100577f0 f i libucrtd:output.obj
 0001:00056810       ?type_case_X@?$output_processor@DV?$stream_output_adapter@D@__crt_stdio_output@@V?$positional_parameter_base@DV?$stream_output_adapter@D@__crt_stdio_output@@@2@@__crt_stdio_output@@AAE_NXZ 10057810 f i libucrtd:output.obj
 0001:00056830       ?type_case_X@?$output_processor@DV?$stream_output_adapter@D@__crt_stdio_output@@V?$standard_base@DV?$stream_output_adapter@D@__crt_stdio_output@@@2@@__crt_stdio_output@@AAE_NXZ 10057830 f i libucrtd:output.obj
 0001:00056850       ?type_case_X@?$output_processor@DV?$string_output_adapter@D@__crt_stdio_output@@V?$format_validation_base@DV?$string_output_adapter@D@__crt_stdio_output@@@2@@__crt_stdio_output@@AAE_NXZ 10057850 f i libucrtd:output.obj
 0001:00056870       ?type_case_X@?$output_processor@DV?$string_output_adapter@D@__crt_stdio_output@@V?$positional_parameter_base@DV?$string_output_adapter@D@__crt_stdio_output@@@2@@__crt_stdio_output@@AAE_NXZ 10057870 f i libucrtd:output.obj
 0001:00056890       ?type_case_X@?$output_processor@DV?$string_output_adapter@D@__crt_stdio_output@@V?$standard_base@DV?$string_output_adapter@D@__crt_stdio_output@@@2@@__crt_stdio_output@@AAE_NXZ 10057890 f i libucrtd:output.obj
 0001:000568b0       ?type_case_X@?$output_processor@_WV?$stream_output_adapter@_W@__crt_stdio_output@@V?$format_validation_base@_WV?$stream_output_adapter@_W@__crt_stdio_output@@@2@@__crt_stdio_output@@AAE_NXZ 100578b0 f i libucrtd:output.obj
 0001:000568d0       ?type_case_X@?$output_processor@_WV?$stream_output_adapter@_W@__crt_stdio_output@@V?$positional_parameter_base@_WV?$stream_output_adapter@_W@__crt_stdio_output@@@2@@__crt_stdio_output@@AAE_NXZ 100578d0 f i libucrtd:output.obj
 0001:000568f0       ?type_case_X@?$output_processor@_WV?$stream_output_adapter@_W@__crt_stdio_output@@V?$standard_base@_WV?$stream_output_adapter@_W@__crt_stdio_output@@@2@@__crt_stdio_output@@AAE_NXZ 100578f0 f i libucrtd:output.obj
 0001:00056910       ?type_case_X@?$output_processor@_WV?$string_output_adapter@_W@__crt_stdio_output@@V?$format_validation_base@_WV?$string_output_adapter@_W@__crt_stdio_output@@@2@@__crt_stdio_output@@AAE_NXZ 10057910 f i libucrtd:output.obj
 0001:00056930       ?type_case_X@?$output_processor@_WV?$string_output_adapter@_W@__crt_stdio_output@@V?$positional_parameter_base@_WV?$string_output_adapter@_W@__crt_stdio_output@@@2@@__crt_stdio_output@@AAE_NXZ 10057930 f i libucrtd:output.obj
 0001:00056950       ?type_case_X@?$output_processor@_WV?$string_output_adapter@_W@__crt_stdio_output@@V?$standard_base@_WV?$string_output_adapter@_W@__crt_stdio_output@@@2@@__crt_stdio_output@@AAE_NXZ 10057950 f i libucrtd:output.obj
 0001:00056970       ?type_case_Z@?$output_processor@DV?$stream_output_adapter@D@__crt_stdio_output@@V?$format_validation_base@DV?$stream_output_adapter@D@__crt_stdio_output@@@2@@__crt_stdio_output@@AAE_NXZ 10057970 f i libucrtd:output.obj
 0001:00056a60       ?type_case_Z@?$output_processor@DV?$stream_output_adapter@D@__crt_stdio_output@@V?$positional_parameter_base@DV?$stream_output_adapter@D@__crt_stdio_output@@@2@@__crt_stdio_output@@AAE_NXZ 10057a60 f i libucrtd:output.obj
 0001:00056b50       ?type_case_Z@?$output_processor@DV?$stream_output_adapter@D@__crt_stdio_output@@V?$standard_base@DV?$stream_output_adapter@D@__crt_stdio_output@@@2@@__crt_stdio_output@@AAE_NXZ 10057b50 f i libucrtd:output.obj
 0001:00056c40       ?type_case_Z@?$output_processor@DV?$string_output_adapter@D@__crt_stdio_output@@V?$format_validation_base@DV?$string_output_adapter@D@__crt_stdio_output@@@2@@__crt_stdio_output@@AAE_NXZ 10057c40 f i libucrtd:output.obj
 0001:00056d30       ?type_case_Z@?$output_processor@DV?$string_output_adapter@D@__crt_stdio_output@@V?$positional_parameter_base@DV?$string_output_adapter@D@__crt_stdio_output@@@2@@__crt_stdio_output@@AAE_NXZ 10057d30 f i libucrtd:output.obj
 0001:00056e20       ?type_case_Z@?$output_processor@DV?$string_output_adapter@D@__crt_stdio_output@@V?$standard_base@DV?$string_output_adapter@D@__crt_stdio_output@@@2@@__crt_stdio_output@@AAE_NXZ 10057e20 f i libucrtd:output.obj
 0001:00056f10       ?type_case_Z@?$output_processor@_WV?$stream_output_adapter@_W@__crt_stdio_output@@V?$format_validation_base@_WV?$stream_output_adapter@_W@__crt_stdio_output@@@2@@__crt_stdio_output@@AAE_NXZ 10057f10 f i libucrtd:output.obj
 0001:00057000       ?type_case_Z@?$output_processor@_WV?$stream_output_adapter@_W@__crt_stdio_output@@V?$positional_parameter_base@_WV?$stream_output_adapter@_W@__crt_stdio_output@@@2@@__crt_stdio_output@@AAE_NXZ 10058000 f i libucrtd:output.obj
 0001:000570f0       ?type_case_Z@?$output_processor@_WV?$stream_output_adapter@_W@__crt_stdio_output@@V?$standard_base@_WV?$stream_output_adapter@_W@__crt_stdio_output@@@2@@__crt_stdio_output@@AAE_NXZ 100580f0 f i libucrtd:output.obj
 0001:000571e0       ?type_case_Z@?$output_processor@_WV?$string_output_adapter@_W@__crt_stdio_output@@V?$format_validation_base@_WV?$string_output_adapter@_W@__crt_stdio_output@@@2@@__crt_stdio_output@@AAE_NXZ 100581e0 f i libucrtd:output.obj
 0001:000572d0       ?type_case_Z@?$output_processor@_WV?$string_output_adapter@_W@__crt_stdio_output@@V?$positional_parameter_base@_WV?$string_output_adapter@_W@__crt_stdio_output@@@2@@__crt_stdio_output@@AAE_NXZ 100582d0 f i libucrtd:output.obj
 0001:000573c0       ?type_case_Z@?$output_processor@_WV?$string_output_adapter@_W@__crt_stdio_output@@V?$standard_base@_WV?$string_output_adapter@_W@__crt_stdio_output@@@2@@__crt_stdio_output@@AAE_NXZ 100583c0 f i libucrtd:output.obj
 0001:000574b0       ?type_case_a@?$output_processor@DV?$stream_output_adapter@D@__crt_stdio_output@@V?$format_validation_base@DV?$stream_output_adapter@D@__crt_stdio_output@@@2@@__crt_stdio_output@@AAE_NXZ 100584b0 f i libucrtd:output.obj
 0001:00057720       ?type_case_a@?$output_processor@DV?$stream_output_adapter@D@__crt_stdio_output@@V?$positional_parameter_base@DV?$stream_output_adapter@D@__crt_stdio_output@@@2@@__crt_stdio_output@@AAE_NXZ 10058720 f i libucrtd:output.obj
 0001:00057990       ?type_case_a@?$output_processor@DV?$stream_output_adapter@D@__crt_stdio_output@@V?$standard_base@DV?$stream_output_adapter@D@__crt_stdio_output@@@2@@__crt_stdio_output@@AAE_NXZ 10058990 f i libucrtd:output.obj
 0001:00057c00       ?type_case_a@?$output_processor@DV?$string_output_adapter@D@__crt_stdio_output@@V?$format_validation_base@DV?$string_output_adapter@D@__crt_stdio_output@@@2@@__crt_stdio_output@@AAE_NXZ 10058c00 f i libucrtd:output.obj
 0001:00057e70       ?type_case_a@?$output_processor@DV?$string_output_adapter@D@__crt_stdio_output@@V?$positional_parameter_base@DV?$string_output_adapter@D@__crt_stdio_output@@@2@@__crt_stdio_output@@AAE_NXZ 10058e70 f i libucrtd:output.obj
 0001:000580e0       ?type_case_a@?$output_processor@DV?$string_output_adapter@D@__crt_stdio_output@@V?$standard_base@DV?$string_output_adapter@D@__crt_stdio_output@@@2@@__crt_stdio_output@@AAE_NXZ 100590e0 f i libucrtd:output.obj
 0001:00058350       ?type_case_a@?$output_processor@_WV?$stream_output_adapter@_W@__crt_stdio_output@@V?$format_validation_base@_WV?$stream_output_adapter@_W@__crt_stdio_output@@@2@@__crt_stdio_output@@AAE_NXZ 10059350 f i libucrtd:output.obj
 0001:000585c0       ?type_case_a@?$output_processor@_WV?$stream_output_adapter@_W@__crt_stdio_output@@V?$positional_parameter_base@_WV?$stream_output_adapter@_W@__crt_stdio_output@@@2@@__crt_stdio_output@@AAE_NXZ 100595c0 f i libucrtd:output.obj
 0001:00058830       ?type_case_a@?$output_processor@_WV?$stream_output_adapter@_W@__crt_stdio_output@@V?$standard_base@_WV?$stream_output_adapter@_W@__crt_stdio_output@@@2@@__crt_stdio_output@@AAE_NXZ 10059830 f i libucrtd:output.obj
 0001:00058aa0       ?type_case_a@?$output_processor@_WV?$string_output_adapter@_W@__crt_stdio_output@@V?$format_validation_base@_WV?$string_output_adapter@_W@__crt_stdio_output@@@2@@__crt_stdio_output@@AAE_NXZ 10059aa0 f i libucrtd:output.obj
 0001:00058d10       ?type_case_a@?$output_processor@_WV?$string_output_adapter@_W@__crt_stdio_output@@V?$positional_parameter_base@_WV?$string_output_adapter@_W@__crt_stdio_output@@@2@@__crt_stdio_output@@AAE_NXZ 10059d10 f i libucrtd:output.obj
 0001:00058f80       ?type_case_a@?$output_processor@_WV?$string_output_adapter@_W@__crt_stdio_output@@V?$standard_base@_WV?$string_output_adapter@_W@__crt_stdio_output@@@2@@__crt_stdio_output@@AAE_NXZ 10059f80 f i libucrtd:output.obj
 0001:000591f0       ?type_case_c@?$output_processor@DV?$stream_output_adapter@D@__crt_stdio_output@@V?$format_validation_base@DV?$stream_output_adapter@D@__crt_stdio_output@@@2@@__crt_stdio_output@@AAE_NXZ 1005a1f0 f i libucrtd:output.obj
 0001:00059210       ?type_case_c@?$output_processor@DV?$stream_output_adapter@D@__crt_stdio_output@@V?$positional_parameter_base@DV?$stream_output_adapter@D@__crt_stdio_output@@@2@@__crt_stdio_output@@AAE_NXZ 1005a210 f i libucrtd:output.obj
 0001:00059230       ?type_case_c@?$output_processor@DV?$stream_output_adapter@D@__crt_stdio_output@@V?$standard_base@DV?$stream_output_adapter@D@__crt_stdio_output@@@2@@__crt_stdio_output@@AAE_NXZ 1005a230 f i libucrtd:output.obj
 0001:00059250       ?type_case_c@?$output_processor@DV?$string_output_adapter@D@__crt_stdio_output@@V?$format_validation_base@DV?$string_output_adapter@D@__crt_stdio_output@@@2@@__crt_stdio_output@@AAE_NXZ 1005a250 f i libucrtd:output.obj
 0001:00059270       ?type_case_c@?$output_processor@DV?$string_output_adapter@D@__crt_stdio_output@@V?$positional_parameter_base@DV?$string_output_adapter@D@__crt_stdio_output@@@2@@__crt_stdio_output@@AAE_NXZ 1005a270 f i libucrtd:output.obj
 0001:00059290       ?type_case_c@?$output_processor@DV?$string_output_adapter@D@__crt_stdio_output@@V?$standard_base@DV?$string_output_adapter@D@__crt_stdio_output@@@2@@__crt_stdio_output@@AAE_NXZ 1005a290 f i libucrtd:output.obj
 0001:000592b0       ?type_case_c@?$output_processor@_WV?$stream_output_adapter@_W@__crt_stdio_output@@V?$format_validation_base@_WV?$stream_output_adapter@_W@__crt_stdio_output@@@2@@__crt_stdio_output@@AAE_NXZ 1005a2b0 f i libucrtd:output.obj
 0001:000592d0       ?type_case_c@?$output_processor@_WV?$stream_output_adapter@_W@__crt_stdio_output@@V?$positional_parameter_base@_WV?$stream_output_adapter@_W@__crt_stdio_output@@@2@@__crt_stdio_output@@AAE_NXZ 1005a2d0 f i libucrtd:output.obj
 0001:000592f0       ?type_case_c@?$output_processor@_WV?$stream_output_adapter@_W@__crt_stdio_output@@V?$standard_base@_WV?$stream_output_adapter@_W@__crt_stdio_output@@@2@@__crt_stdio_output@@AAE_NXZ 1005a2f0 f i libucrtd:output.obj
 0001:00059310       ?type_case_c@?$output_processor@_WV?$string_output_adapter@_W@__crt_stdio_output@@V?$format_validation_base@_WV?$string_output_adapter@_W@__crt_stdio_output@@@2@@__crt_stdio_output@@AAE_NXZ 1005a310 f i libucrtd:output.obj
 0001:00059330       ?type_case_c@?$output_processor@_WV?$string_output_adapter@_W@__crt_stdio_output@@V?$positional_parameter_base@_WV?$string_output_adapter@_W@__crt_stdio_output@@@2@@__crt_stdio_output@@AAE_NXZ 1005a330 f i libucrtd:output.obj
 0001:00059350       ?type_case_c@?$output_processor@_WV?$string_output_adapter@_W@__crt_stdio_output@@V?$standard_base@_WV?$string_output_adapter@_W@__crt_stdio_output@@@2@@__crt_stdio_output@@AAE_NXZ 1005a350 f i libucrtd:output.obj
 0001:00059370       ?type_case_c_tchar@?$output_processor@DV?$stream_output_adapter@D@__crt_stdio_output@@V?$format_validation_base@DV?$stream_output_adapter@D@__crt_stdio_output@@@2@@__crt_stdio_output@@AAE_ND@Z 1005a370 f i libucrtd:output.obj
 0001:00059480       ?type_case_c_tchar@?$output_processor@DV?$stream_output_adapter@D@__crt_stdio_output@@V?$positional_parameter_base@DV?$stream_output_adapter@D@__crt_stdio_output@@@2@@__crt_stdio_output@@AAE_ND@Z 1005a480 f i libucrtd:output.obj
 0001:00059590       ?type_case_c_tchar@?$output_processor@DV?$stream_output_adapter@D@__crt_stdio_output@@V?$standard_base@DV?$stream_output_adapter@D@__crt_stdio_output@@@2@@__crt_stdio_output@@AAE_ND@Z 1005a590 f i libucrtd:output.obj
 0001:000596a0       ?type_case_c_tchar@?$output_processor@DV?$string_output_adapter@D@__crt_stdio_output@@V?$format_validation_base@DV?$string_output_adapter@D@__crt_stdio_output@@@2@@__crt_stdio_output@@AAE_ND@Z 1005a6a0 f i libucrtd:output.obj
 0001:000597b0       ?type_case_c_tchar@?$output_processor@DV?$string_output_adapter@D@__crt_stdio_output@@V?$positional_parameter_base@DV?$string_output_adapter@D@__crt_stdio_output@@@2@@__crt_stdio_output@@AAE_ND@Z 1005a7b0 f i libucrtd:output.obj
 0001:000598c0       ?type_case_c_tchar@?$output_processor@DV?$string_output_adapter@D@__crt_stdio_output@@V?$standard_base@DV?$string_output_adapter@D@__crt_stdio_output@@@2@@__crt_stdio_output@@AAE_ND@Z 1005a8c0 f i libucrtd:output.obj
 0001:000599d0       ?type_case_c_tchar@?$output_processor@_WV?$stream_output_adapter@_W@__crt_stdio_output@@V?$format_validation_base@_WV?$stream_output_adapter@_W@__crt_stdio_output@@@2@@__crt_stdio_output@@AAE_N_W@Z 1005a9d0 f i libucrtd:output.obj
 0001:00059ad0       ?type_case_c_tchar@?$output_processor@_WV?$stream_output_adapter@_W@__crt_stdio_output@@V?$positional_parameter_base@_WV?$stream_output_adapter@_W@__crt_stdio_output@@@2@@__crt_stdio_output@@AAE_N_W@Z 1005aad0 f i libucrtd:output.obj
 0001:00059bd0       ?type_case_c_tchar@?$output_processor@_WV?$stream_output_adapter@_W@__crt_stdio_output@@V?$standard_base@_WV?$stream_output_adapter@_W@__crt_stdio_output@@@2@@__crt_stdio_output@@AAE_N_W@Z 1005abd0 f i libucrtd:output.obj
 0001:00059cd0       ?type_case_c_tchar@?$output_processor@_WV?$string_output_adapter@_W@__crt_stdio_output@@V?$format_validation_base@_WV?$string_output_adapter@_W@__crt_stdio_output@@@2@@__crt_stdio_output@@AAE_N_W@Z 1005acd0 f i libucrtd:output.obj
 0001:00059dd0       ?type_case_c_tchar@?$output_processor@_WV?$string_output_adapter@_W@__crt_stdio_output@@V?$positional_parameter_base@_WV?$string_output_adapter@_W@__crt_stdio_output@@@2@@__crt_stdio_output@@AAE_N_W@Z 1005add0 f i libucrtd:output.obj
 0001:00059ed0       ?type_case_c_tchar@?$output_processor@_WV?$string_output_adapter@_W@__crt_stdio_output@@V?$standard_base@_WV?$string_output_adapter@_W@__crt_stdio_output@@@2@@__crt_stdio_output@@AAE_N_W@Z 1005aed0 f i libucrtd:output.obj
 0001:00059fd0       ?type_case_d@?$output_processor@DV?$stream_output_adapter@D@__crt_stdio_output@@V?$format_validation_base@DV?$stream_output_adapter@D@__crt_stdio_output@@@2@@__crt_stdio_output@@AAE_NXZ 1005afd0 f i libucrtd:output.obj
 0001:0005a000       ?type_case_d@?$output_processor@DV?$stream_output_adapter@D@__crt_stdio_output@@V?$positional_parameter_base@DV?$stream_output_adapter@D@__crt_stdio_output@@@2@@__crt_stdio_output@@AAE_NXZ 1005b000 f i libucrtd:output.obj
 0001:0005a030       ?type_case_d@?$output_processor@DV?$stream_output_adapter@D@__crt_stdio_output@@V?$standard_base@DV?$stream_output_adapter@D@__crt_stdio_output@@@2@@__crt_stdio_output@@AAE_NXZ 1005b030 f i libucrtd:output.obj
 0001:0005a060       ?type_case_d@?$output_processor@DV?$string_output_adapter@D@__crt_stdio_output@@V?$format_validation_base@DV?$string_output_adapter@D@__crt_stdio_output@@@2@@__crt_stdio_output@@AAE_NXZ 1005b060 f i libucrtd:output.obj
 0001:0005a090       ?type_case_d@?$output_processor@DV?$string_output_adapter@D@__crt_stdio_output@@V?$positional_parameter_base@DV?$string_output_adapter@D@__crt_stdio_output@@@2@@__crt_stdio_output@@AAE_NXZ 1005b090 f i libucrtd:output.obj
 0001:0005a0c0       ?type_case_d@?$output_processor@DV?$string_output_adapter@D@__crt_stdio_output@@V?$standard_base@DV?$string_output_adapter@D@__crt_stdio_output@@@2@@__crt_stdio_output@@AAE_NXZ 1005b0c0 f i libucrtd:output.obj
 0001:0005a0f0       ?type_case_d@?$output_processor@_WV?$stream_output_adapter@_W@__crt_stdio_output@@V?$format_validation_base@_WV?$stream_output_adapter@_W@__crt_stdio_output@@@2@@__crt_stdio_output@@AAE_NXZ 1005b0f0 f i libucrtd:output.obj
 0001:0005a120       ?type_case_d@?$output_processor@_WV?$stream_output_adapter@_W@__crt_stdio_output@@V?$positional_parameter_base@_WV?$stream_output_adapter@_W@__crt_stdio_output@@@2@@__crt_stdio_output@@AAE_NXZ 1005b120 f i libucrtd:output.obj
 0001:0005a150       ?type_case_d@?$output_processor@_WV?$stream_output_adapter@_W@__crt_stdio_output@@V?$standard_base@_WV?$stream_output_adapter@_W@__crt_stdio_output@@@2@@__crt_stdio_output@@AAE_NXZ 1005b150 f i libucrtd:output.obj
 0001:0005a180       ?type_case_d@?$output_processor@_WV?$string_output_adapter@_W@__crt_stdio_output@@V?$format_validation_base@_WV?$string_output_adapter@_W@__crt_stdio_output@@@2@@__crt_stdio_output@@AAE_NXZ 1005b180 f i libucrtd:output.obj
 0001:0005a1b0       ?type_case_d@?$output_processor@_WV?$string_output_adapter@_W@__crt_stdio_output@@V?$positional_parameter_base@_WV?$string_output_adapter@_W@__crt_stdio_output@@@2@@__crt_stdio_output@@AAE_NXZ 1005b1b0 f i libucrtd:output.obj
 0001:0005a1e0       ?type_case_d@?$output_processor@_WV?$string_output_adapter@_W@__crt_stdio_output@@V?$standard_base@_WV?$string_output_adapter@_W@__crt_stdio_output@@@2@@__crt_stdio_output@@AAE_NXZ 1005b1e0 f i libucrtd:output.obj
 0001:0005a210       ?type_case_integer@?$output_processor@DV?$stream_output_adapter@D@__crt_stdio_output@@V?$format_validation_base@DV?$stream_output_adapter@D@__crt_stdio_output@@@2@@__crt_stdio_output@@AAE_NI_N@Z 1005b210 f i libucrtd:output.obj
 0001:0005a560       ?type_case_integer@?$output_processor@DV?$stream_output_adapter@D@__crt_stdio_output@@V?$positional_parameter_base@DV?$stream_output_adapter@D@__crt_stdio_output@@@2@@__crt_stdio_output@@AAE_NI_N@Z 1005b560 f i libucrtd:output.obj
 0001:0005a8b0       ?type_case_integer@?$output_processor@DV?$stream_output_adapter@D@__crt_stdio_output@@V?$standard_base@DV?$stream_output_adapter@D@__crt_stdio_output@@@2@@__crt_stdio_output@@AAE_NI_N@Z 1005b8b0 f i libucrtd:output.obj
 0001:0005ac00       ?type_case_integer@?$output_processor@DV?$string_output_adapter@D@__crt_stdio_output@@V?$format_validation_base@DV?$string_output_adapter@D@__crt_stdio_output@@@2@@__crt_stdio_output@@AAE_NI_N@Z 1005bc00 f i libucrtd:output.obj
 0001:0005af50       ?type_case_integer@?$output_processor@DV?$string_output_adapter@D@__crt_stdio_output@@V?$positional_parameter_base@DV?$string_output_adapter@D@__crt_stdio_output@@@2@@__crt_stdio_output@@AAE_NI_N@Z 1005bf50 f i libucrtd:output.obj
 0001:0005b2a0       ?type_case_integer@?$output_processor@DV?$string_output_adapter@D@__crt_stdio_output@@V?$standard_base@DV?$string_output_adapter@D@__crt_stdio_output@@@2@@__crt_stdio_output@@AAE_NI_N@Z 1005c2a0 f i libucrtd:output.obj
 0001:0005b5f0       ?type_case_integer@?$output_processor@_WV?$stream_output_adapter@_W@__crt_stdio_output@@V?$format_validation_base@_WV?$stream_output_adapter@_W@__crt_stdio_output@@@2@@__crt_stdio_output@@AAE_NI_N@Z 1005c5f0 f i libucrtd:output.obj
 0001:0005b940       ?type_case_integer@?$output_processor@_WV?$stream_output_adapter@_W@__crt_stdio_output@@V?$positional_parameter_base@_WV?$stream_output_adapter@_W@__crt_stdio_output@@@2@@__crt_stdio_output@@AAE_NI_N@Z 1005c940 f i libucrtd:output.obj
 0001:0005bc90       ?type_case_integer@?$output_processor@_WV?$stream_output_adapter@_W@__crt_stdio_output@@V?$standard_base@_WV?$stream_output_adapter@_W@__crt_stdio_output@@@2@@__crt_stdio_output@@AAE_NI_N@Z 1005cc90 f i libucrtd:output.obj
 0001:0005bfe0       ?type_case_integer@?$output_processor@_WV?$string_output_adapter@_W@__crt_stdio_output@@V?$format_validation_base@_WV?$string_output_adapter@_W@__crt_stdio_output@@@2@@__crt_stdio_output@@AAE_NI_N@Z 1005cfe0 f i libucrtd:output.obj
 0001:0005c330       ?type_case_integer@?$output_processor@_WV?$string_output_adapter@_W@__crt_stdio_output@@V?$positional_parameter_base@_WV?$string_output_adapter@_W@__crt_stdio_output@@@2@@__crt_stdio_output@@AAE_NI_N@Z 1005d330 f i libucrtd:output.obj
 0001:0005c680       ?type_case_integer@?$output_processor@_WV?$string_output_adapter@_W@__crt_stdio_output@@V?$standard_base@_WV?$string_output_adapter@_W@__crt_stdio_output@@@2@@__crt_stdio_output@@AAE_NI_N@Z 1005d680 f i libucrtd:output.obj
 0001:0005c9d0       ?type_case_n@?$output_processor@DV?$stream_output_adapter@D@__crt_stdio_output@@V?$format_validation_base@DV?$stream_output_adapter@D@__crt_stdio_output@@@2@@__crt_stdio_output@@AAE_NXZ 1005d9d0 f i libucrtd:output.obj
 0001:0005cbc0       ?type_case_n@?$output_processor@DV?$stream_output_adapter@D@__crt_stdio_output@@V?$positional_parameter_base@DV?$stream_output_adapter@D@__crt_stdio_output@@@2@@__crt_stdio_output@@AAE_NXZ 1005dbc0 f i libucrtd:output.obj
 0001:0005cdb0       ?type_case_n@?$output_processor@DV?$stream_output_adapter@D@__crt_stdio_output@@V?$standard_base@DV?$stream_output_adapter@D@__crt_stdio_output@@@2@@__crt_stdio_output@@AAE_NXZ 1005ddb0 f i libucrtd:output.obj
 0001:0005cfa0       ?type_case_n@?$output_processor@DV?$string_output_adapter@D@__crt_stdio_output@@V?$format_validation_base@DV?$string_output_adapter@D@__crt_stdio_output@@@2@@__crt_stdio_output@@AAE_NXZ 1005dfa0 f i libucrtd:output.obj
 0001:0005d190       ?type_case_n@?$output_processor@DV?$string_output_adapter@D@__crt_stdio_output@@V?$positional_parameter_base@DV?$string_output_adapter@D@__crt_stdio_output@@@2@@__crt_stdio_output@@AAE_NXZ 1005e190 f i libucrtd:output.obj
 0001:0005d380       ?type_case_n@?$output_processor@DV?$string_output_adapter@D@__crt_stdio_output@@V?$standard_base@DV?$string_output_adapter@D@__crt_stdio_output@@@2@@__crt_stdio_output@@AAE_NXZ 1005e380 f i libucrtd:output.obj
 0001:0005d570       ?type_case_n@?$output_processor@_WV?$stream_output_adapter@_W@__crt_stdio_output@@V?$format_validation_base@_WV?$stream_output_adapter@_W@__crt_stdio_output@@@2@@__crt_stdio_output@@AAE_NXZ 1005e570 f i libucrtd:output.obj
 0001:0005d760       ?type_case_n@?$output_processor@_WV?$stream_output_adapter@_W@__crt_stdio_output@@V?$positional_parameter_base@_WV?$stream_output_adapter@_W@__crt_stdio_output@@@2@@__crt_stdio_output@@AAE_NXZ 1005e760 f i libucrtd:output.obj
 0001:0005d950       ?type_case_n@?$output_processor@_WV?$stream_output_adapter@_W@__crt_stdio_output@@V?$standard_base@_WV?$stream_output_adapter@_W@__crt_stdio_output@@@2@@__crt_stdio_output@@AAE_NXZ 1005e950 f i libucrtd:output.obj
 0001:0005db40       ?type_case_n@?$output_processor@_WV?$string_output_adapter@_W@__crt_stdio_output@@V?$format_validation_base@_WV?$string_output_adapter@_W@__crt_stdio_output@@@2@@__crt_stdio_output@@AAE_NXZ 1005eb40 f i libucrtd:output.obj
 0001:0005dd30       ?type_case_n@?$output_processor@_WV?$string_output_adapter@_W@__crt_stdio_output@@V?$positional_parameter_base@_WV?$string_output_adapter@_W@__crt_stdio_output@@@2@@__crt_stdio_output@@AAE_NXZ 1005ed30 f i libucrtd:output.obj
 0001:0005df20       ?type_case_n@?$output_processor@_WV?$string_output_adapter@_W@__crt_stdio_output@@V?$standard_base@_WV?$string_output_adapter@_W@__crt_stdio_output@@@2@@__crt_stdio_output@@AAE_NXZ 1005ef20 f i libucrtd:output.obj
 0001:0005e110       ?type_case_o@?$output_processor@DV?$stream_output_adapter@D@__crt_stdio_output@@V?$format_validation_base@DV?$stream_output_adapter@D@__crt_stdio_output@@@2@@__crt_stdio_output@@AAE_NXZ 1005f110 f i libucrtd:output.obj
 0001:0005e150       ?type_case_o@?$output_processor@DV?$stream_output_adapter@D@__crt_stdio_output@@V?$positional_parameter_base@DV?$stream_output_adapter@D@__crt_stdio_output@@@2@@__crt_stdio_output@@AAE_NXZ 1005f150 f i libucrtd:output.obj
 0001:0005e190       ?type_case_o@?$output_processor@DV?$stream_output_adapter@D@__crt_stdio_output@@V?$standard_base@DV?$stream_output_adapter@D@__crt_stdio_output@@@2@@__crt_stdio_output@@AAE_NXZ 1005f190 f i libucrtd:output.obj
 0001:0005e1d0       ?type_case_o@?$output_processor@DV?$string_output_adapter@D@__crt_stdio_output@@V?$format_validation_base@DV?$string_output_adapter@D@__crt_stdio_output@@@2@@__crt_stdio_output@@AAE_NXZ 1005f1d0 f i libucrtd:output.obj
 0001:0005e210       ?type_case_o@?$output_processor@DV?$string_output_adapter@D@__crt_stdio_output@@V?$positional_parameter_base@DV?$string_output_adapter@D@__crt_stdio_output@@@2@@__crt_stdio_output@@AAE_NXZ 1005f210 f i libucrtd:output.obj
 0001:0005e250       ?type_case_o@?$output_processor@DV?$string_output_adapter@D@__crt_stdio_output@@V?$standard_base@DV?$string_output_adapter@D@__crt_stdio_output@@@2@@__crt_stdio_output@@AAE_NXZ 1005f250 f i libucrtd:output.obj
 0001:0005e290       ?type_case_o@?$output_processor@_WV?$stream_output_adapter@_W@__crt_stdio_output@@V?$format_validation_base@_WV?$stream_output_adapter@_W@__crt_stdio_output@@@2@@__crt_stdio_output@@AAE_NXZ 1005f290 f i libucrtd:output.obj
 0001:0005e2d0       ?type_case_o@?$output_processor@_WV?$stream_output_adapter@_W@__crt_stdio_output@@V?$positional_parameter_base@_WV?$stream_output_adapter@_W@__crt_stdio_output@@@2@@__crt_stdio_output@@AAE_NXZ 1005f2d0 f i libucrtd:output.obj
 0001:0005e310       ?type_case_o@?$output_processor@_WV?$stream_output_adapter@_W@__crt_stdio_output@@V?$standard_base@_WV?$stream_output_adapter@_W@__crt_stdio_output@@@2@@__crt_stdio_output@@AAE_NXZ 1005f310 f i libucrtd:output.obj
 0001:0005e350       ?type_case_o@?$output_processor@_WV?$string_output_adapter@_W@__crt_stdio_output@@V?$format_validation_base@_WV?$string_output_adapter@_W@__crt_stdio_output@@@2@@__crt_stdio_output@@AAE_NXZ 1005f350 f i libucrtd:output.obj
 0001:0005e390       ?type_case_o@?$output_processor@_WV?$string_output_adapter@_W@__crt_stdio_output@@V?$positional_parameter_base@_WV?$string_output_adapter@_W@__crt_stdio_output@@@2@@__crt_stdio_output@@AAE_NXZ 1005f390 f i libucrtd:output.obj
 0001:0005e3d0       ?type_case_o@?$output_processor@_WV?$string_output_adapter@_W@__crt_stdio_output@@V?$standard_base@_WV?$string_output_adapter@_W@__crt_stdio_output@@@2@@__crt_stdio_output@@AAE_NXZ 1005f3d0 f i libucrtd:output.obj
 0001:0005e410       ?type_case_p@?$output_processor@DV?$stream_output_adapter@D@__crt_stdio_output@@V?$format_validation_base@DV?$stream_output_adapter@D@__crt_stdio_output@@@2@@__crt_stdio_output@@AAE_NXZ 1005f410 f i libucrtd:output.obj
 0001:0005e440       ?type_case_p@?$output_processor@DV?$stream_output_adapter@D@__crt_stdio_output@@V?$positional_parameter_base@DV?$stream_output_adapter@D@__crt_stdio_output@@@2@@__crt_stdio_output@@AAE_NXZ 1005f440 f i libucrtd:output.obj
 0001:0005e470       ?type_case_p@?$output_processor@DV?$stream_output_adapter@D@__crt_stdio_output@@V?$standard_base@DV?$stream_output_adapter@D@__crt_stdio_output@@@2@@__crt_stdio_output@@AAE_NXZ 1005f470 f i libucrtd:output.obj
 0001:0005e4a0       ?type_case_p@?$output_processor@DV?$string_output_adapter@D@__crt_stdio_output@@V?$format_validation_base@DV?$string_output_adapter@D@__crt_stdio_output@@@2@@__crt_stdio_output@@AAE_NXZ 1005f4a0 f i libucrtd:output.obj
 0001:0005e4d0       ?type_case_p@?$output_processor@DV?$string_output_adapter@D@__crt_stdio_output@@V?$positional_parameter_base@DV?$string_output_adapter@D@__crt_stdio_output@@@2@@__crt_stdio_output@@AAE_NXZ 1005f4d0 f i libucrtd:output.obj
 0001:0005e500       ?type_case_p@?$output_processor@DV?$string_output_adapter@D@__crt_stdio_output@@V?$standard_base@DV?$string_output_adapter@D@__crt_stdio_output@@@2@@__crt_stdio_output@@AAE_NXZ 1005f500 f i libucrtd:output.obj
 0001:0005e530       ?type_case_p@?$output_processor@_WV?$stream_output_adapter@_W@__crt_stdio_output@@V?$format_validation_base@_WV?$stream_output_adapter@_W@__crt_stdio_output@@@2@@__crt_stdio_output@@AAE_NXZ 1005f530 f i libucrtd:output.obj
 0001:0005e560       ?type_case_p@?$output_processor@_WV?$stream_output_adapter@_W@__crt_stdio_output@@V?$positional_parameter_base@_WV?$stream_output_adapter@_W@__crt_stdio_output@@@2@@__crt_stdio_output@@AAE_NXZ 1005f560 f i libucrtd:output.obj
 0001:0005e590       ?type_case_p@?$output_processor@_WV?$stream_output_adapter@_W@__crt_stdio_output@@V?$standard_base@_WV?$stream_output_adapter@_W@__crt_stdio_output@@@2@@__crt_stdio_output@@AAE_NXZ 1005f590 f i libucrtd:output.obj
 0001:0005e5c0       ?type_case_p@?$output_processor@_WV?$string_output_adapter@_W@__crt_stdio_output@@V?$format_validation_base@_WV?$string_output_adapter@_W@__crt_stdio_output@@@2@@__crt_stdio_output@@AAE_NXZ 1005f5c0 f i libucrtd:output.obj
 0001:0005e5f0       ?type_case_p@?$output_processor@_WV?$string_output_adapter@_W@__crt_stdio_output@@V?$positional_parameter_base@_WV?$string_output_adapter@_W@__crt_stdio_output@@@2@@__crt_stdio_output@@AAE_NXZ 1005f5f0 f i libucrtd:output.obj
 0001:0005e620       ?type_case_p@?$output_processor@_WV?$string_output_adapter@_W@__crt_stdio_output@@V?$standard_base@_WV?$string_output_adapter@_W@__crt_stdio_output@@@2@@__crt_stdio_output@@AAE_NXZ 1005f620 f i libucrtd:output.obj
 0001:0005e650       ?type_case_s@?$output_processor@DV?$stream_output_adapter@D@__crt_stdio_output@@V?$format_validation_base@DV?$stream_output_adapter@D@__crt_stdio_output@@@2@@__crt_stdio_output@@AAE_NXZ 1005f650 f i libucrtd:output.obj
 0001:0005e740       ?type_case_s@?$output_processor@DV?$stream_output_adapter@D@__crt_stdio_output@@V?$positional_parameter_base@DV?$stream_output_adapter@D@__crt_stdio_output@@@2@@__crt_stdio_output@@AAE_NXZ 1005f740 f i libucrtd:output.obj
 0001:0005e830       ?type_case_s@?$output_processor@DV?$stream_output_adapter@D@__crt_stdio_output@@V?$standard_base@DV?$stream_output_adapter@D@__crt_stdio_output@@@2@@__crt_stdio_output@@AAE_NXZ 1005f830 f i libucrtd:output.obj
 0001:0005e920       ?type_case_s@?$output_processor@DV?$string_output_adapter@D@__crt_stdio_output@@V?$format_validation_base@DV?$string_output_adapter@D@__crt_stdio_output@@@2@@__crt_stdio_output@@AAE_NXZ 1005f920 f i libucrtd:output.obj
 0001:0005ea10       ?type_case_s@?$output_processor@DV?$string_output_adapter@D@__crt_stdio_output@@V?$positional_parameter_base@DV?$string_output_adapter@D@__crt_stdio_output@@@2@@__crt_stdio_output@@AAE_NXZ 1005fa10 f i libucrtd:output.obj
 0001:0005eb00       ?type_case_s@?$output_processor@DV?$string_output_adapter@D@__crt_stdio_output@@V?$standard_base@DV?$string_output_adapter@D@__crt_stdio_output@@@2@@__crt_stdio_output@@AAE_NXZ 1005fb00 f i libucrtd:output.obj
 0001:0005ebf0       ?type_case_s@?$output_processor@_WV?$stream_output_adapter@_W@__crt_stdio_output@@V?$format_validation_base@_WV?$stream_output_adapter@_W@__crt_stdio_output@@@2@@__crt_stdio_output@@AAE_NXZ 1005fbf0 f i libucrtd:output.obj
 0001:0005ece0       ?type_case_s@?$output_processor@_WV?$stream_output_adapter@_W@__crt_stdio_output@@V?$positional_parameter_base@_WV?$stream_output_adapter@_W@__crt_stdio_output@@@2@@__crt_stdio_output@@AAE_NXZ 1005fce0 f i libucrtd:output.obj
 0001:0005edd0       ?type_case_s@?$output_processor@_WV?$stream_output_adapter@_W@__crt_stdio_output@@V?$standard_base@_WV?$stream_output_adapter@_W@__crt_stdio_output@@@2@@__crt_stdio_output@@AAE_NXZ 1005fdd0 f i libucrtd:output.obj
 0001:0005eec0       ?type_case_s@?$output_processor@_WV?$string_output_adapter@_W@__crt_stdio_output@@V?$format_validation_base@_WV?$string_output_adapter@_W@__crt_stdio_output@@@2@@__crt_stdio_output@@AAE_NXZ 1005fec0 f i libucrtd:output.obj
 0001:0005efb0       ?type_case_s@?$output_processor@_WV?$string_output_adapter@_W@__crt_stdio_output@@V?$positional_parameter_base@_WV?$string_output_adapter@_W@__crt_stdio_output@@@2@@__crt_stdio_output@@AAE_NXZ 1005ffb0 f i libucrtd:output.obj
 0001:0005f0a0       ?type_case_s@?$output_processor@_WV?$string_output_adapter@_W@__crt_stdio_output@@V?$standard_base@_WV?$string_output_adapter@_W@__crt_stdio_output@@@2@@__crt_stdio_output@@AAE_NXZ 100600a0 f i libucrtd:output.obj
 0001:0005f190       ?type_case_s_compute_narrow_string_length@?$output_processor@DV?$stream_output_adapter@D@__crt_stdio_output@@V?$format_validation_base@DV?$stream_output_adapter@D@__crt_stdio_output@@@2@@__crt_stdio_output@@ABEHHD@Z 10060190 f i libucrtd:output.obj
 0001:0005f1c0       ?type_case_s_compute_narrow_string_length@?$output_processor@DV?$stream_output_adapter@D@__crt_stdio_output@@V?$positional_parameter_base@DV?$stream_output_adapter@D@__crt_stdio_output@@@2@@__crt_stdio_output@@ABEHHD@Z 100601c0 f i libucrtd:output.obj
 0001:0005f1f0       ?type_case_s_compute_narrow_string_length@?$output_processor@DV?$stream_output_adapter@D@__crt_stdio_output@@V?$standard_base@DV?$stream_output_adapter@D@__crt_stdio_output@@@2@@__crt_stdio_output@@ABEHHD@Z 100601f0 f i libucrtd:output.obj
 0001:0005f220       ?type_case_s_compute_narrow_string_length@?$output_processor@DV?$string_output_adapter@D@__crt_stdio_output@@V?$format_validation_base@DV?$string_output_adapter@D@__crt_stdio_output@@@2@@__crt_stdio_output@@ABEHHD@Z 10060220 f i libucrtd:output.obj
 0001:0005f250       ?type_case_s_compute_narrow_string_length@?$output_processor@DV?$string_output_adapter@D@__crt_stdio_output@@V?$positional_parameter_base@DV?$string_output_adapter@D@__crt_stdio_output@@@2@@__crt_stdio_output@@ABEHHD@Z 10060250 f i libucrtd:output.obj
 0001:0005f280       ?type_case_s_compute_narrow_string_length@?$output_processor@DV?$string_output_adapter@D@__crt_stdio_output@@V?$standard_base@DV?$string_output_adapter@D@__crt_stdio_output@@@2@@__crt_stdio_output@@ABEHHD@Z 10060280 f i libucrtd:output.obj
 0001:0005f2b0       ?type_case_s_compute_narrow_string_length@?$output_processor@_WV?$stream_output_adapter@_W@__crt_stdio_output@@V?$format_validation_base@_WV?$stream_output_adapter@_W@__crt_stdio_output@@@2@@__crt_stdio_output@@ABEHH_W@Z 100602b0 f i libucrtd:output.obj
 0001:0005f320       ?type_case_s_compute_narrow_string_length@?$output_processor@_WV?$stream_output_adapter@_W@__crt_stdio_output@@V?$positional_parameter_base@_WV?$stream_output_adapter@_W@__crt_stdio_output@@@2@@__crt_stdio_output@@ABEHH_W@Z 10060320 f i libucrtd:output.obj
 0001:0005f390       ?type_case_s_compute_narrow_string_length@?$output_processor@_WV?$stream_output_adapter@_W@__crt_stdio_output@@V?$standard_base@_WV?$stream_output_adapter@_W@__crt_stdio_output@@@2@@__crt_stdio_output@@ABEHH_W@Z 10060390 f i libucrtd:output.obj
 0001:0005f400       ?type_case_s_compute_narrow_string_length@?$output_processor@_WV?$string_output_adapter@_W@__crt_stdio_output@@V?$format_validation_base@_WV?$string_output_adapter@_W@__crt_stdio_output@@@2@@__crt_stdio_output@@ABEHH_W@Z 10060400 f i libucrtd:output.obj
 0001:0005f470       ?type_case_s_compute_narrow_string_length@?$output_processor@_WV?$string_output_adapter@_W@__crt_stdio_output@@V?$positional_parameter_base@_WV?$string_output_adapter@_W@__crt_stdio_output@@@2@@__crt_stdio_output@@ABEHH_W@Z 10060470 f i libucrtd:output.obj
 0001:0005f4e0       ?type_case_s_compute_narrow_string_length@?$output_processor@_WV?$string_output_adapter@_W@__crt_stdio_output@@V?$standard_base@_WV?$string_output_adapter@_W@__crt_stdio_output@@@2@@__crt_stdio_output@@ABEHH_W@Z 100604e0 f i libucrtd:output.obj
 0001:0005f550       ?type_case_u@?$output_processor@DV?$stream_output_adapter@D@__crt_stdio_output@@V?$format_validation_base@DV?$stream_output_adapter@D@__crt_stdio_output@@@2@@__crt_stdio_output@@AAE_NXZ 10060550 f i libucrtd:output.obj
 0001:0005f570       ?type_case_u@?$output_processor@DV?$stream_output_adapter@D@__crt_stdio_output@@V?$positional_parameter_base@DV?$stream_output_adapter@D@__crt_stdio_output@@@2@@__crt_stdio_output@@AAE_NXZ 10060570 f i libucrtd:output.obj
 0001:0005f590       ?type_case_u@?$output_processor@DV?$stream_output_adapter@D@__crt_stdio_output@@V?$standard_base@DV?$stream_output_adapter@D@__crt_stdio_output@@@2@@__crt_stdio_output@@AAE_NXZ 10060590 f i libucrtd:output.obj
 0001:0005f5b0       ?type_case_u@?$output_processor@DV?$string_output_adapter@D@__crt_stdio_output@@V?$format_validation_base@DV?$string_output_adapter@D@__crt_stdio_output@@@2@@__crt_stdio_output@@AAE_NXZ 100605b0 f i libucrtd:output.obj
 0001:0005f5d0       ?type_case_u@?$output_processor@DV?$string_output_adapter@D@__crt_stdio_output@@V?$positional_parameter_base@DV?$string_output_adapter@D@__crt_stdio_output@@@2@@__crt_stdio_output@@AAE_NXZ 100605d0 f i libucrtd:output.obj
 0001:0005f5f0       ?type_case_u@?$output_processor@DV?$string_output_adapter@D@__crt_stdio_output@@V?$standard_base@DV?$string_output_adapter@D@__crt_stdio_output@@@2@@__crt_stdio_output@@AAE_NXZ 100605f0 f i libucrtd:output.obj
 0001:0005f610       ?type_case_u@?$output_processor@_WV?$stream_output_adapter@_W@__crt_stdio_output@@V?$format_validation_base@_WV?$stream_output_adapter@_W@__crt_stdio_output@@@2@@__crt_stdio_output@@AAE_NXZ 10060610 f i libucrtd:output.obj
 0001:0005f630       ?type_case_u@?$output_processor@_WV?$stream_output_adapter@_W@__crt_stdio_output@@V?$positional_parameter_base@_WV?$stream_output_adapter@_W@__crt_stdio_output@@@2@@__crt_stdio_output@@AAE_NXZ 10060630 f i libucrtd:output.obj
 0001:0005f650       ?type_case_u@?$output_processor@_WV?$stream_output_adapter@_W@__crt_stdio_output@@V?$standard_base@_WV?$stream_output_adapter@_W@__crt_stdio_output@@@2@@__crt_stdio_output@@AAE_NXZ 10060650 f i libucrtd:output.obj
 0001:0005f670       ?type_case_u@?$output_processor@_WV?$string_output_adapter@_W@__crt_stdio_output@@V?$format_validation_base@_WV?$string_output_adapter@_W@__crt_stdio_output@@@2@@__crt_stdio_output@@AAE_NXZ 10060670 f i libucrtd:output.obj
 0001:0005f690       ?type_case_u@?$output_processor@_WV?$string_output_adapter@_W@__crt_stdio_output@@V?$positional_parameter_base@_WV?$string_output_adapter@_W@__crt_stdio_output@@@2@@__crt_stdio_output@@AAE_NXZ 10060690 f i libucrtd:output.obj
 0001:0005f6b0       ?type_case_u@?$output_processor@_WV?$string_output_adapter@_W@__crt_stdio_output@@V?$standard_base@_WV?$string_output_adapter@_W@__crt_stdio_output@@@2@@__crt_stdio_output@@AAE_NXZ 100606b0 f i libucrtd:output.obj
 0001:0005f6d0       ?type_case_x@?$output_processor@DV?$stream_output_adapter@D@__crt_stdio_output@@V?$format_validation_base@DV?$stream_output_adapter@D@__crt_stdio_output@@@2@@__crt_stdio_output@@AAE_NXZ 100606d0 f i libucrtd:output.obj
 0001:0005f6f0       ?type_case_x@?$output_processor@DV?$stream_output_adapter@D@__crt_stdio_output@@V?$positional_parameter_base@DV?$stream_output_adapter@D@__crt_stdio_output@@@2@@__crt_stdio_output@@AAE_NXZ 100606f0 f i libucrtd:output.obj
 0001:0005f710       ?type_case_x@?$output_processor@DV?$stream_output_adapter@D@__crt_stdio_output@@V?$standard_base@DV?$stream_output_adapter@D@__crt_stdio_output@@@2@@__crt_stdio_output@@AAE_NXZ 10060710 f i libucrtd:output.obj
 0001:0005f730       ?type_case_x@?$output_processor@DV?$string_output_adapter@D@__crt_stdio_output@@V?$format_validation_base@DV?$string_output_adapter@D@__crt_stdio_output@@@2@@__crt_stdio_output@@AAE_NXZ 10060730 f i libucrtd:output.obj
 0001:0005f750       ?type_case_x@?$output_processor@DV?$string_output_adapter@D@__crt_stdio_output@@V?$positional_parameter_base@DV?$string_output_adapter@D@__crt_stdio_output@@@2@@__crt_stdio_output@@AAE_NXZ 10060750 f i libucrtd:output.obj
 0001:0005f770       ?type_case_x@?$output_processor@DV?$string_output_adapter@D@__crt_stdio_output@@V?$standard_base@DV?$string_output_adapter@D@__crt_stdio_output@@@2@@__crt_stdio_output@@AAE_NXZ 10060770 f i libucrtd:output.obj
 0001:0005f790       ?type_case_x@?$output_processor@_WV?$stream_output_adapter@_W@__crt_stdio_output@@V?$format_validation_base@_WV?$stream_output_adapter@_W@__crt_stdio_output@@@2@@__crt_stdio_output@@AAE_NXZ 10060790 f i libucrtd:output.obj
 0001:0005f7b0       ?type_case_x@?$output_processor@_WV?$stream_output_adapter@_W@__crt_stdio_output@@V?$positional_parameter_base@_WV?$stream_output_adapter@_W@__crt_stdio_output@@@2@@__crt_stdio_output@@AAE_NXZ 100607b0 f i libucrtd:output.obj
 0001:0005f7d0       ?type_case_x@?$output_processor@_WV?$stream_output_adapter@_W@__crt_stdio_output@@V?$standard_base@_WV?$stream_output_adapter@_W@__crt_stdio_output@@@2@@__crt_stdio_output@@AAE_NXZ 100607d0 f i libucrtd:output.obj
 0001:0005f7f0       ?type_case_x@?$output_processor@_WV?$string_output_adapter@_W@__crt_stdio_output@@V?$format_validation_base@_WV?$string_output_adapter@_W@__crt_stdio_output@@@2@@__crt_stdio_output@@AAE_NXZ 100607f0 f i libucrtd:output.obj
 0001:0005f810       ?type_case_x@?$output_processor@_WV?$string_output_adapter@_W@__crt_stdio_output@@V?$positional_parameter_base@_WV?$string_output_adapter@_W@__crt_stdio_output@@@2@@__crt_stdio_output@@AAE_NXZ 10060810 f i libucrtd:output.obj
 0001:0005f830       ?type_case_x@?$output_processor@_WV?$string_output_adapter@_W@__crt_stdio_output@@V?$standard_base@_WV?$string_output_adapter@_W@__crt_stdio_output@@@2@@__crt_stdio_output@@AAE_NXZ 10060830 f i libucrtd:output.obj
 0001:0005f850       ?unset_flag@?$output_processor@DV?$stream_output_adapter@D@__crt_stdio_output@@V?$format_validation_base@DV?$stream_output_adapter@D@__crt_stdio_output@@@2@@__crt_stdio_output@@AAEXI@Z 10060850 f i libucrtd:output.obj
 0001:0005f870       ?unset_flag@?$output_processor@DV?$stream_output_adapter@D@__crt_stdio_output@@V?$positional_parameter_base@DV?$stream_output_adapter@D@__crt_stdio_output@@@2@@__crt_stdio_output@@AAEXI@Z 10060870 f i libucrtd:output.obj
 0001:0005f890       ?unset_flag@?$output_processor@DV?$stream_output_adapter@D@__crt_stdio_output@@V?$standard_base@DV?$stream_output_adapter@D@__crt_stdio_output@@@2@@__crt_stdio_output@@AAEXI@Z 10060890 f i libucrtd:output.obj
 0001:0005f8b0       ?unset_flag@?$output_processor@DV?$string_output_adapter@D@__crt_stdio_output@@V?$format_validation_base@DV?$string_output_adapter@D@__crt_stdio_output@@@2@@__crt_stdio_output@@AAEXI@Z 100608b0 f i libucrtd:output.obj
 0001:0005f8d0       ?unset_flag@?$output_processor@DV?$string_output_adapter@D@__crt_stdio_output@@V?$positional_parameter_base@DV?$string_output_adapter@D@__crt_stdio_output@@@2@@__crt_stdio_output@@AAEXI@Z 100608d0 f i libucrtd:output.obj
 0001:0005f8f0       ?unset_flag@?$output_processor@DV?$string_output_adapter@D@__crt_stdio_output@@V?$standard_base@DV?$string_output_adapter@D@__crt_stdio_output@@@2@@__crt_stdio_output@@AAEXI@Z 100608f0 f i libucrtd:output.obj
 0001:0005f910       ?unset_flag@?$output_processor@_WV?$stream_output_adapter@_W@__crt_stdio_output@@V?$format_validation_base@_WV?$stream_output_adapter@_W@__crt_stdio_output@@@2@@__crt_stdio_output@@AAEXI@Z 10060910 f i libucrtd:output.obj
 0001:0005f930       ?unset_flag@?$output_processor@_WV?$stream_output_adapter@_W@__crt_stdio_output@@V?$positional_parameter_base@_WV?$stream_output_adapter@_W@__crt_stdio_output@@@2@@__crt_stdio_output@@AAEXI@Z 10060930 f i libucrtd:output.obj
 0001:0005f950       ?unset_flag@?$output_processor@_WV?$stream_output_adapter@_W@__crt_stdio_output@@V?$standard_base@_WV?$stream_output_adapter@_W@__crt_stdio_output@@@2@@__crt_stdio_output@@AAEXI@Z 10060950 f i libucrtd:output.obj
 0001:0005f970       ?unset_flag@?$output_processor@_WV?$string_output_adapter@_W@__crt_stdio_output@@V?$format_validation_base@_WV?$string_output_adapter@_W@__crt_stdio_output@@@2@@__crt_stdio_output@@AAEXI@Z 10060970 f i libucrtd:output.obj
 0001:0005f990       ?unset_flag@?$output_processor@_WV?$string_output_adapter@_W@__crt_stdio_output@@V?$positional_parameter_base@_WV?$string_output_adapter@_W@__crt_stdio_output@@@2@@__crt_stdio_output@@AAEXI@Z 10060990 f i libucrtd:output.obj
 0001:0005f9b0       ?unset_flag@?$output_processor@_WV?$string_output_adapter@_W@__crt_stdio_output@@V?$standard_base@_WV?$string_output_adapter@_W@__crt_stdio_output@@@2@@__crt_stdio_output@@AAEXI@Z 100609b0 f i libucrtd:output.obj
 0001:0005f9d0       ?update_field_width@?$positional_parameter_base@DV?$stream_output_adapter@D@__crt_stdio_output@@@__crt_stdio_output@@IAE_NXZ 100609d0 f i libucrtd:output.obj
 0001:0005fb50       ?update_field_width@?$positional_parameter_base@DV?$string_output_adapter@D@__crt_stdio_output@@@__crt_stdio_output@@IAE_NXZ 10060b50 f i libucrtd:output.obj
 0001:0005fcd0       ?update_field_width@?$positional_parameter_base@_WV?$stream_output_adapter@_W@__crt_stdio_output@@@__crt_stdio_output@@IAE_NXZ 10060cd0 f i libucrtd:output.obj
 0001:0005fe50       ?update_field_width@?$positional_parameter_base@_WV?$string_output_adapter@_W@__crt_stdio_output@@@__crt_stdio_output@@IAE_NXZ 10060e50 f i libucrtd:output.obj
 0001:0005ffd0       ?update_field_width@?$standard_base@DV?$stream_output_adapter@D@__crt_stdio_output@@@__crt_stdio_output@@IAE_NXZ 10060fd0 f i libucrtd:output.obj
 0001:00060000       ?update_field_width@?$standard_base@DV?$string_output_adapter@D@__crt_stdio_output@@@__crt_stdio_output@@IAE_NXZ 10061000 f i libucrtd:output.obj
 0001:00060030       ?update_field_width@?$standard_base@_WV?$stream_output_adapter@_W@__crt_stdio_output@@@__crt_stdio_output@@IAE_NXZ 10061030 f i libucrtd:output.obj
 0001:00060060       ?update_field_width@?$standard_base@_WV?$string_output_adapter@_W@__crt_stdio_output@@@__crt_stdio_output@@IAE_NXZ 10061060 f i libucrtd:output.obj
 0001:00060090       ?update_precision@?$positional_parameter_base@DV?$stream_output_adapter@D@__crt_stdio_output@@@__crt_stdio_output@@IAE_NXZ 10061090 f i libucrtd:output.obj
 0001:00060210       ?update_precision@?$positional_parameter_base@DV?$string_output_adapter@D@__crt_stdio_output@@@__crt_stdio_output@@IAE_NXZ 10061210 f i libucrtd:output.obj
 0001:00060390       ?update_precision@?$positional_parameter_base@_WV?$stream_output_adapter@_W@__crt_stdio_output@@@__crt_stdio_output@@IAE_NXZ 10061390 f i libucrtd:output.obj
 0001:00060510       ?update_precision@?$positional_parameter_base@_WV?$string_output_adapter@_W@__crt_stdio_output@@@__crt_stdio_output@@IAE_NXZ 10061510 f i libucrtd:output.obj
 0001:00060690       ?update_precision@?$standard_base@DV?$stream_output_adapter@D@__crt_stdio_output@@@__crt_stdio_output@@IAE_NXZ 10061690 f i libucrtd:output.obj
 0001:000606c0       ?update_precision@?$standard_base@DV?$string_output_adapter@D@__crt_stdio_output@@@__crt_stdio_output@@IAE_NXZ 100616c0 f i libucrtd:output.obj
 0001:000606f0       ?update_precision@?$standard_base@_WV?$stream_output_adapter@_W@__crt_stdio_output@@@__crt_stdio_output@@IAE_NXZ 100616f0 f i libucrtd:output.obj
 0001:00060720       ?update_precision@?$standard_base@_WV?$string_output_adapter@_W@__crt_stdio_output@@@__crt_stdio_output@@IAE_NXZ 10061720 f i libucrtd:output.obj
 0001:00060750       ?valid@__crt_stdio_stream@@QBE_NXZ 10061750 f i libucrtd:output.obj
 0001:00060780       ?validate@?$stream_output_adapter@D@__crt_stdio_output@@QBE_NXZ 10061780 f i libucrtd:output.obj
 0001:00060830       ?validate@?$stream_output_adapter@_W@__crt_stdio_output@@QBE_NXZ 10061830 f i libucrtd:output.obj
 0001:000608e0       ?validate@?$string_output_adapter@D@__crt_stdio_output@@QBE_NXZ 100618e0 f i libucrtd:output.obj
 0001:00060970       ?validate@?$string_output_adapter@_W@__crt_stdio_output@@QBE_NXZ 10061970 f i libucrtd:output.obj
 0001:00060a00       ?validate_and_store_parameter_data@?$positional_parameter_base@DV?$stream_output_adapter@D@__crt_stdio_output@@@__crt_stdio_output@@AAE_NAAUparameter_data@12@W4parameter_type@12@DW4length_modifier@2@@Z 10061a00 f i libucrtd:output.obj
 0001:00060ad0       ?validate_and_store_parameter_data@?$positional_parameter_base@DV?$string_output_adapter@D@__crt_stdio_output@@@__crt_stdio_output@@AAE_NAAUparameter_data@12@W4parameter_type@12@DW4length_modifier@2@@Z 10061ad0 f i libucrtd:output.obj
 0001:00060ba0       ?validate_and_store_parameter_data@?$positional_parameter_base@_WV?$stream_output_adapter@_W@__crt_stdio_output@@@__crt_stdio_output@@AAE_NAAUparameter_data@12@W4parameter_type@12@_WW4length_modifier@2@@Z 10061ba0 f i libucrtd:output.obj
 0001:00060c80       ?validate_and_store_parameter_data@?$positional_parameter_base@_WV?$string_output_adapter@_W@__crt_stdio_output@@@__crt_stdio_output@@AAE_NAAUparameter_data@12@W4parameter_type@12@_WW4length_modifier@2@@Z 10061c80 f i libucrtd:output.obj
 0001:00060d60       ?validate_and_update_state_at_beginning_of_format_character@?$positional_parameter_base@DV?$stream_output_adapter@D@__crt_stdio_output@@@__crt_stdio_output@@IAE_NXZ 10061d60 f i libucrtd:output.obj
 0001:00060f80       ?validate_and_update_state_at_beginning_of_format_character@?$positional_parameter_base@DV?$string_output_adapter@D@__crt_stdio_output@@@__crt_stdio_output@@IAE_NXZ 10061f80 f i libucrtd:output.obj
 0001:000611a0       ?validate_and_update_state_at_beginning_of_format_character@?$positional_parameter_base@_WV?$stream_output_adapter@_W@__crt_stdio_output@@@__crt_stdio_output@@IAE_NXZ 100621a0 f i libucrtd:output.obj
 0001:000613c0       ?validate_and_update_state_at_beginning_of_format_character@?$positional_parameter_base@_WV?$string_output_adapter@_W@__crt_stdio_output@@@__crt_stdio_output@@IAE_NXZ 100623c0 f i libucrtd:output.obj
 0001:000615e0       ?validate_and_update_state_at_beginning_of_format_character@?$standard_base@DV?$stream_output_adapter@D@__crt_stdio_output@@@__crt_stdio_output@@IAE_NXZ 100625e0 f i libucrtd:output.obj
 0001:000615f0       ?validate_and_update_state_at_beginning_of_format_character@?$standard_base@DV?$string_output_adapter@D@__crt_stdio_output@@@__crt_stdio_output@@IAE_NXZ 100625f0 f i libucrtd:output.obj
 0001:00061600       ?validate_and_update_state_at_beginning_of_format_character@?$standard_base@_WV?$stream_output_adapter@_W@__crt_stdio_output@@@__crt_stdio_output@@IAE_NXZ 10062600 f i libucrtd:output.obj
 0001:00061610       ?validate_and_update_state_at_beginning_of_format_character@?$standard_base@_WV?$string_output_adapter@_W@__crt_stdio_output@@@__crt_stdio_output@@IAE_NXZ 10062610 f i libucrtd:output.obj
 0001:00061620       ?validate_and_update_state_at_end_of_format_string@?$format_validation_base@DV?$stream_output_adapter@D@__crt_stdio_output@@@__crt_stdio_output@@IBE_NXZ 10062620 f i libucrtd:output.obj
 0001:000616c0       ?validate_and_update_state_at_end_of_format_string@?$format_validation_base@DV?$string_output_adapter@D@__crt_stdio_output@@@__crt_stdio_output@@IBE_NXZ 100626c0 f i libucrtd:output.obj
 0001:00061760       ?validate_and_update_state_at_end_of_format_string@?$format_validation_base@_WV?$stream_output_adapter@_W@__crt_stdio_output@@@__crt_stdio_output@@IBE_NXZ 10062760 f i libucrtd:output.obj
 0001:00061800       ?validate_and_update_state_at_end_of_format_string@?$format_validation_base@_WV?$string_output_adapter@_W@__crt_stdio_output@@@__crt_stdio_output@@IBE_NXZ 10062800 f i libucrtd:output.obj
 0001:000618a0       ?validate_and_update_state_at_end_of_format_string@?$positional_parameter_base@DV?$stream_output_adapter@D@__crt_stdio_output@@@__crt_stdio_output@@IAE_NXZ 100628a0 f i libucrtd:output.obj
 0001:00061a40       ?validate_and_update_state_at_end_of_format_string@?$positional_parameter_base@DV?$string_output_adapter@D@__crt_stdio_output@@@__crt_stdio_output@@IAE_NXZ 10062a40 f i libucrtd:output.obj
 0001:00061be0       ?validate_and_update_state_at_end_of_format_string@?$positional_parameter_base@_WV?$stream_output_adapter@_W@__crt_stdio_output@@@__crt_stdio_output@@IAE_NXZ 10062be0 f i libucrtd:output.obj
 0001:00061d80       ?validate_and_update_state_at_end_of_format_string@?$positional_parameter_base@_WV?$string_output_adapter@_W@__crt_stdio_output@@@__crt_stdio_output@@IAE_NXZ 10062d80 f i libucrtd:output.obj
 0001:00061f20       ?validate_and_update_state_at_end_of_format_string@?$standard_base@DV?$stream_output_adapter@D@__crt_stdio_output@@@__crt_stdio_output@@IBE_NXZ 10062f20 f i libucrtd:output.obj
 0001:00061f30       ?validate_and_update_state_at_end_of_format_string@?$standard_base@DV?$string_output_adapter@D@__crt_stdio_output@@@__crt_stdio_output@@IBE_NXZ 10062f30 f i libucrtd:output.obj
 0001:00061f40       ?validate_and_update_state_at_end_of_format_string@?$standard_base@_WV?$stream_output_adapter@_W@__crt_stdio_output@@@__crt_stdio_output@@IBE_NXZ 10062f40 f i libucrtd:output.obj
 0001:00061f50       ?validate_and_update_state_at_end_of_format_string@?$standard_base@_WV?$string_output_adapter@_W@__crt_stdio_output@@@__crt_stdio_output@@IBE_NXZ 10062f50 f i libucrtd:output.obj
 0001:00061f60       ?validate_state_for_type_case_a@?$positional_parameter_base@DV?$stream_output_adapter@D@__crt_stdio_output@@@__crt_stdio_output@@IAE_NXZ 10062f60 f i libucrtd:output.obj
 0001:00062050       ?validate_state_for_type_case_a@?$positional_parameter_base@DV?$string_output_adapter@D@__crt_stdio_output@@@__crt_stdio_output@@IAE_NXZ 10063050 f i libucrtd:output.obj
 0001:00062140       ?validate_state_for_type_case_a@?$positional_parameter_base@_WV?$stream_output_adapter@_W@__crt_stdio_output@@@__crt_stdio_output@@IAE_NXZ 10063140 f i libucrtd:output.obj
 0001:00062230       ?validate_state_for_type_case_a@?$positional_parameter_base@_WV?$string_output_adapter@_W@__crt_stdio_output@@@__crt_stdio_output@@IAE_NXZ 10063230 f i libucrtd:output.obj
 0001:00062320       ?validate_state_for_type_case_a@?$standard_base@DV?$stream_output_adapter@D@__crt_stdio_output@@@__crt_stdio_output@@IBE_NXZ 10063320 f i libucrtd:output.obj
 0001:00062330       ?validate_state_for_type_case_a@?$standard_base@DV?$string_output_adapter@D@__crt_stdio_output@@@__crt_stdio_output@@IBE_NXZ 10063330 f i libucrtd:output.obj
 0001:00062340       ?validate_state_for_type_case_a@?$standard_base@_WV?$stream_output_adapter@_W@__crt_stdio_output@@@__crt_stdio_output@@IBE_NXZ 10063340 f i libucrtd:output.obj
 0001:00062350       ?validate_state_for_type_case_a@?$standard_base@_WV?$string_output_adapter@_W@__crt_stdio_output@@@__crt_stdio_output@@IBE_NXZ 10063350 f i libucrtd:output.obj
 0001:00062360       ?validate_stream_is_ansi_if_required@?$__acrt_stdio_char_traits@D@@SA_NQAU_iobuf@@@Z 10063360 f i libucrtd:output.obj
 0001:00062490       ?validate_stream_is_ansi_if_required@?$__acrt_stdio_char_traits@_W@@SA_NQAU_iobuf@@@Z 10063490 f i libucrtd:output.obj
 0001:000624a0       ?wide_null_string@?$output_processor@DV?$stream_output_adapter@D@__crt_stdio_output@@V?$format_validation_base@DV?$stream_output_adapter@D@__crt_stdio_output@@@2@@__crt_stdio_output@@CAPA_WXZ 100634a0 f i libucrtd:output.obj
 0001:000624b0       ?wide_null_string@?$output_processor@DV?$stream_output_adapter@D@__crt_stdio_output@@V?$positional_parameter_base@DV?$stream_output_adapter@D@__crt_stdio_output@@@2@@__crt_stdio_output@@CAPA_WXZ 100634b0 f i libucrtd:output.obj
 0001:000624c0       ?wide_null_string@?$output_processor@DV?$stream_output_adapter@D@__crt_stdio_output@@V?$standard_base@DV?$stream_output_adapter@D@__crt_stdio_output@@@2@@__crt_stdio_output@@CAPA_WXZ 100634c0 f i libucrtd:output.obj
 0001:000624d0       ?wide_null_string@?$output_processor@DV?$string_output_adapter@D@__crt_stdio_output@@V?$format_validation_base@DV?$string_output_adapter@D@__crt_stdio_output@@@2@@__crt_stdio_output@@CAPA_WXZ 100634d0 f i libucrtd:output.obj
 0001:000624e0       ?wide_null_string@?$output_processor@DV?$string_output_adapter@D@__crt_stdio_output@@V?$positional_parameter_base@DV?$string_output_adapter@D@__crt_stdio_output@@@2@@__crt_stdio_output@@CAPA_WXZ 100634e0 f i libucrtd:output.obj
 0001:000624f0       ?wide_null_string@?$output_processor@DV?$string_output_adapter@D@__crt_stdio_output@@V?$standard_base@DV?$string_output_adapter@D@__crt_stdio_output@@@2@@__crt_stdio_output@@CAPA_WXZ 100634f0 f i libucrtd:output.obj
 0001:00062500       ?wide_null_string@?$output_processor@_WV?$stream_output_adapter@_W@__crt_stdio_output@@V?$format_validation_base@_WV?$stream_output_adapter@_W@__crt_stdio_output@@@2@@__crt_stdio_output@@CAPA_WXZ 10063500 f i libucrtd:output.obj
 0001:00062510       ?wide_null_string@?$output_processor@_WV?$stream_output_adapter@_W@__crt_stdio_output@@V?$positional_parameter_base@_WV?$stream_output_adapter@_W@__crt_stdio_output@@@2@@__crt_stdio_output@@CAPA_WXZ 10063510 f i libucrtd:output.obj
 0001:00062520       ?wide_null_string@?$output_processor@_WV?$stream_output_adapter@_W@__crt_stdio_output@@V?$standard_base@_WV?$stream_output_adapter@_W@__crt_stdio_output@@@2@@__crt_stdio_output@@CAPA_WXZ 10063520 f i libucrtd:output.obj
 0001:00062530       ?wide_null_string@?$output_processor@_WV?$string_output_adapter@_W@__crt_stdio_output@@V?$format_validation_base@_WV?$string_output_adapter@_W@__crt_stdio_output@@@2@@__crt_stdio_output@@CAPA_WXZ 10063530 f i libucrtd:output.obj
 0001:00062540       ?wide_null_string@?$output_processor@_WV?$string_output_adapter@_W@__crt_stdio_output@@V?$positional_parameter_base@_WV?$string_output_adapter@_W@__crt_stdio_output@@@2@@__crt_stdio_output@@CAPA_WXZ 10063540 f i libucrtd:output.obj
 0001:00062550       ?wide_null_string@?$output_processor@_WV?$string_output_adapter@_W@__crt_stdio_output@@V?$standard_base@_WV?$string_output_adapter@_W@__crt_stdio_output@@@2@@__crt_stdio_output@@CAPA_WXZ 10063550 f i libucrtd:output.obj
 0001:00062560       ?write_character@?$output_adapter_common@DV?$stream_output_adapter@D@__crt_stdio_output@@@__crt_stdio_output@@QBEXDQAH@Z 10063560 f i libucrtd:output.obj
 0001:000625a0       ?write_character@?$output_adapter_common@_WV?$stream_output_adapter@_W@__crt_stdio_output@@@__crt_stdio_output@@QBEX_WQAH@Z 100635a0 f i libucrtd:output.obj
 0001:000625e0       ?write_character@?$string_output_adapter@D@__crt_stdio_output@@QBE_NDQAH@Z 100635e0 f i libucrtd:output.obj
 0001:00062670       ?write_character@?$string_output_adapter@_W@__crt_stdio_output@@QBE_N_WQAH@Z 10063670 f i libucrtd:output.obj
 0001:00062710       ?write_character_without_count_update@?$stream_output_adapter@D@__crt_stdio_output@@QBE_ND@Z 10063710 f i libucrtd:output.obj
 0001:00062780       ?write_character_without_count_update@?$stream_output_adapter@_W@__crt_stdio_output@@QBE_N_W@Z 10063780 f i libucrtd:output.obj
 0001:000627f0       ?write_stored_string_tchar@?$output_processor@DV?$stream_output_adapter@D@__crt_stdio_output@@V?$format_validation_base@DV?$stream_output_adapter@D@__crt_stdio_output@@@2@@__crt_stdio_output@@AAE_ND@Z 100637f0 f i libucrtd:output.obj
 0001:00062900       ?write_stored_string_tchar@?$output_processor@DV?$stream_output_adapter@D@__crt_stdio_output@@V?$positional_parameter_base@DV?$stream_output_adapter@D@__crt_stdio_output@@@2@@__crt_stdio_output@@AAE_ND@Z 10063900 f i libucrtd:output.obj
 0001:00062a10       ?write_stored_string_tchar@?$output_processor@DV?$stream_output_adapter@D@__crt_stdio_output@@V?$standard_base@DV?$stream_output_adapter@D@__crt_stdio_output@@@2@@__crt_stdio_output@@AAE_ND@Z 10063a10 f i libucrtd:output.obj
 0001:00062b20       ?write_stored_string_tchar@?$output_processor@DV?$string_output_adapter@D@__crt_stdio_output@@V?$format_validation_base@DV?$string_output_adapter@D@__crt_stdio_output@@@2@@__crt_stdio_output@@AAE_ND@Z 10063b20 f i libucrtd:output.obj
 0001:00062c30       ?write_stored_string_tchar@?$output_processor@DV?$string_output_adapter@D@__crt_stdio_output@@V?$positional_parameter_base@DV?$string_output_adapter@D@__crt_stdio_output@@@2@@__crt_stdio_output@@AAE_ND@Z 10063c30 f i libucrtd:output.obj
 0001:00062d40       ?write_stored_string_tchar@?$output_processor@DV?$string_output_adapter@D@__crt_stdio_output@@V?$standard_base@DV?$string_output_adapter@D@__crt_stdio_output@@@2@@__crt_stdio_output@@AAE_ND@Z 10063d40 f i libucrtd:output.obj
 0001:00062e50       ?write_stored_string_tchar@?$output_processor@_WV?$stream_output_adapter@_W@__crt_stdio_output@@V?$format_validation_base@_WV?$stream_output_adapter@_W@__crt_stdio_output@@@2@@__crt_stdio_output@@AAE_N_W@Z 10063e50 f i libucrtd:output.obj
 0001:00062f40       ?write_stored_string_tchar@?$output_processor@_WV?$stream_output_adapter@_W@__crt_stdio_output@@V?$positional_parameter_base@_WV?$stream_output_adapter@_W@__crt_stdio_output@@@2@@__crt_stdio_output@@AAE_N_W@Z 10063f40 f i libucrtd:output.obj
 0001:00063030       ?write_stored_string_tchar@?$output_processor@_WV?$stream_output_adapter@_W@__crt_stdio_output@@V?$standard_base@_WV?$stream_output_adapter@_W@__crt_stdio_output@@@2@@__crt_stdio_output@@AAE_N_W@Z 10064030 f i libucrtd:output.obj
 0001:00063120       ?write_stored_string_tchar@?$output_processor@_WV?$string_output_adapter@_W@__crt_stdio_output@@V?$format_validation_base@_WV?$string_output_adapter@_W@__crt_stdio_output@@@2@@__crt_stdio_output@@AAE_N_W@Z 10064120 f i libucrtd:output.obj
 0001:00063210       ?write_stored_string_tchar@?$output_processor@_WV?$string_output_adapter@_W@__crt_stdio_output@@V?$positional_parameter_base@_WV?$string_output_adapter@_W@__crt_stdio_output@@@2@@__crt_stdio_output@@AAE_N_W@Z 10064210 f i libucrtd:output.obj
 0001:00063300       ?write_stored_string_tchar@?$output_processor@_WV?$string_output_adapter@_W@__crt_stdio_output@@V?$standard_base@_WV?$string_output_adapter@_W@__crt_stdio_output@@@2@@__crt_stdio_output@@AAE_N_W@Z 10064300 f i libucrtd:output.obj
 0001:000633f0       ?write_string@?$stream_output_adapter@D@__crt_stdio_output@@QBEXQBDHQAHAAV__crt_deferred_errno_cache@@@Z 100643f0 f i libucrtd:output.obj
 0001:00063450       ?write_string@?$stream_output_adapter@_W@__crt_stdio_output@@QBEXQB_WHQAHAAV__crt_deferred_errno_cache@@@Z 10064450 f i libucrtd:output.obj
 0001:000634b0       ?write_string@?$string_output_adapter@D@__crt_stdio_output@@QBEXQBDHQAHAAV__crt_deferred_errno_cache@@@Z 100644b0 f i libucrtd:output.obj
 0001:000635b0       ?write_string@?$string_output_adapter@_W@__crt_stdio_output@@QBEXQB_WHQAHAAV__crt_deferred_errno_cache@@@Z 100645b0 f i libucrtd:output.obj
 0001:000636c0       ?write_string_impl@?$output_adapter_common@DV?$stream_output_adapter@D@__crt_stdio_output@@@__crt_stdio_output@@IBEXQBDHQAHAAV__crt_deferred_errno_cache@@@Z 100646c0 f i libucrtd:output.obj
 0001:00063760       ?write_string_impl@?$output_adapter_common@_WV?$stream_output_adapter@_W@__crt_stdio_output@@@__crt_stdio_output@@IBEXQB_WHQAHAAV__crt_deferred_errno_cache@@@Z 10064760 f i libucrtd:output.obj
 0001:00063800       ___acrt_isleadbyte_l_noupdate 10064800 f i libucrtd:output.obj
 0001:00063820       ___acrt_locale_changed     10064820 f i libucrtd:output.obj
 0001:00063850       ___acrt_locale_get_ctype_array_value 10064850 f i libucrtd:output.obj
 0001:00063880       ___stdio_common_vfprintf   10064880 f   libucrtd:output.obj
 0001:000638b0       ___stdio_common_vfprintf_p 100648b0 f   libucrtd:output.obj
 0001:000638e0       ___stdio_common_vfprintf_s 100648e0 f   libucrtd:output.obj
 0001:00063910       ___stdio_common_vfwprintf  10064910 f   libucrtd:output.obj
 0001:00063940       ___stdio_common_vfwprintf_p 10064940 f   libucrtd:output.obj
 0001:00063970       ___stdio_common_vfwprintf_s 10064970 f   libucrtd:output.obj
 0001:000639a0       ___stdio_common_vsnprintf_s 100649a0 f   libucrtd:output.obj
 0001:000639d0       ___stdio_common_vsnwprintf_s 100649d0 f   libucrtd:output.obj
 0001:00063a00       ___stdio_common_vsprintf   10064a00 f   libucrtd:output.obj
 0001:00063a30       ___stdio_common_vsprintf_p 10064a30 f   libucrtd:output.obj
 0001:00063a60       ___stdio_common_vsprintf_s 10064a60 f   libucrtd:output.obj
 0001:00063a90       ___stdio_common_vswprintf  10064a90 f   libucrtd:output.obj
 0001:00063ac0       ___stdio_common_vswprintf_p 10064ac0 f   libucrtd:output.obj
 0001:00063af0       ___stdio_common_vswprintf_s 10064af0 f   libucrtd:output.obj
 0001:00063b20       __ctype_fast_check_internal 10064b20 f i libucrtd:output.obj
 0001:00063b40       __isdigit_fast_internal    10064b40 f i libucrtd:output.obj
 0001:00063b60       __tolower_fast_internal    10064b60 f i libucrtd:output.obj
 0001:00063b80       _free                      10064b80 f   libucrtd:free.obj
 0001:00063bb0       _malloc                    10064bb0 f   libucrtd:malloc.obj
 0001:00063bd0       ??$?RU?$__crt_report_hook_node@D@@@__crt_internal_free_policy@@QBEXQBU?$__crt_report_hook_node@D@@@Z 10064bd0 f i libucrtd:dbgrpt.obj
 0001:00063bf0       ??$?RU?$__crt_report_hook_node@_W@@@__crt_internal_free_policy@@QBEXQBU?$__crt_report_hook_node@_W@@@Z 10064bf0 f i libucrtd:dbgrpt.obj
 0001:000649e0       ??$get_module_file_name@AAPAUHINSTANCE__@@AAY0BAF@DK@?$__crt_char_traits@D@@SAKAAPAUHINSTANCE__@@AAY0BAF@D$$QAK@Z 100659e0 f i libucrtd:dbgrpt.obj
 0001:00064a00       ??$get_module_file_name@AAPAUHINSTANCE__@@AAY0BAF@_WK@?$__crt_char_traits@_W@@SAKAAPAUHINSTANCE__@@AAY0BAF@_W$$QAK@Z 10065a00 f i libucrtd:dbgrpt.obj
 0001:00064a20       ??$tcscpy_s@AAY0BAF@DIPBD@?$__crt_char_traits@D@@SAHAAY0BAF@D$$QAI$$QAPBD@Z 10065a20 f i libucrtd:dbgrpt.obj
 0001:00064a40       ??$tcscpy_s@AAY0BAF@_WIPB_W@?$__crt_char_traits@_W@@SAHAAY0BAF@_W$$QAI$$QAPB_W@Z 10065a40 f i libucrtd:dbgrpt.obj
 0001:00064a60       ??$tcslen@AAY0BAF@D@?$__crt_char_traits@D@@SAIAAY0BAF@D@Z 10065a60 f i libucrtd:dbgrpt.obj
 0001:00064a80       ??$tcslen@AAY0BAF@_W@?$__crt_char_traits@_W@@SAIAAY0BAF@_W@Z 10065a80 f i libucrtd:dbgrpt.obj
 0001:00064aa0       ??$tcslen@ABQBD@?$__crt_char_traits@D@@SAIABQBD@Z 10065aa0 f i libucrtd:dbgrpt.obj
 0001:00064ac0       ??$tcslen@ABQB_W@?$__crt_char_traits@_W@@SAIABQB_W@Z 10065ac0 f i libucrtd:dbgrpt.obj
 0001:00064bc0       ??0?$__crt_unique_heap_ptr@U?$__crt_report_hook_node@D@@U__crt_internal_free_policy@@@@QAE@QAU?$__crt_report_hook_node@D@@@Z 10065bc0 f i libucrtd:dbgrpt.obj
 0001:00064be0       ??0?$__crt_unique_heap_ptr@U?$__crt_report_hook_node@_W@@U__crt_internal_free_policy@@@@QAE@QAU?$__crt_report_hook_node@_W@@@Z 10065be0 f i libucrtd:dbgrpt.obj
 0001:00064c00       ??1?$__crt_unique_heap_ptr@U?$__crt_report_hook_node@D@@U__crt_internal_free_policy@@@@QAE@XZ 10065c00 f i libucrtd:dbgrpt.obj
 0001:00064c20       ??1?$__crt_unique_heap_ptr@U?$__crt_report_hook_node@_W@@U__crt_internal_free_policy@@@@QAE@XZ 10065c20 f i libucrtd:dbgrpt.obj
 0001:00064c40       ??B?$__crt_unique_heap_ptr@U?$__crt_report_hook_node@D@@U__crt_internal_free_policy@@@@QBE_NXZ 10065c40 f i libucrtd:dbgrpt.obj
 0001:00064c60       ??B?$__crt_unique_heap_ptr@U?$__crt_report_hook_node@_W@@U__crt_internal_free_policy@@@@QBE_NXZ 10065c60 f i libucrtd:dbgrpt.obj
 0001:000651a0       ?detach@?$__crt_unique_heap_ptr@U?$__crt_report_hook_node@D@@U__crt_internal_free_policy@@@@QAEPAU?$__crt_report_hook_node@D@@XZ 100661a0 f i libucrtd:dbgrpt.obj
 0001:000651d0       ?detach@?$__crt_unique_heap_ptr@U?$__crt_report_hook_node@_W@@U__crt_internal_free_policy@@@@QAEPAU?$__crt_report_hook_node@_W@@XZ 100661d0 f i libucrtd:dbgrpt.obj
 0001:00065200       ?get@?$__crt_unique_heap_ptr@U?$__crt_report_hook_node@D@@U__crt_internal_free_policy@@@@QBEPAU?$__crt_report_hook_node@D@@XZ 10066200 f i libucrtd:dbgrpt.obj
 0001:00065220       ?get@?$__crt_unique_heap_ptr@U?$__crt_report_hook_node@_W@@U__crt_internal_free_policy@@@@QBEPAU?$__crt_report_hook_node@_W@@XZ 10066220 f i libucrtd:dbgrpt.obj
 0001:000652a0       ?is_valid@?$__crt_unique_heap_ptr@U?$__crt_report_hook_node@D@@U__crt_internal_free_policy@@@@QBE_NXZ 100662a0 f i libucrtd:dbgrpt.obj
 0001:000652d0       ?is_valid@?$__crt_unique_heap_ptr@U?$__crt_report_hook_node@_W@@U__crt_internal_free_policy@@@@QBE_NXZ 100662d0 f i libucrtd:dbgrpt.obj
 0001:00065300       ?release@?$__crt_unique_heap_ptr@U?$__crt_report_hook_node@D@@U__crt_internal_free_policy@@@@QAEXXZ 10066300 f i libucrtd:dbgrpt.obj
 0001:00065330       ?release@?$__crt_unique_heap_ptr@U?$__crt_report_hook_node@_W@@U__crt_internal_free_policy@@@@QAEXXZ 10066330 f i libucrtd:dbgrpt.obj
 0001:00065360       __CrtDbgReport             10066360 f   libucrtd:dbgrpt.obj
 0001:000653b0       __CrtDbgReportW            100663b0 f   libucrtd:dbgrpt.obj
 0001:00065400       __CrtSetReportHook2        10066400 f   libucrtd:dbgrpt.obj
 0001:00065420       __CrtSetReportHookW2       10066420 f   libucrtd:dbgrpt.obj
 0001:00065440       ___acrt_MessageWindowA     10066440 f   libucrtd:dbgrpt.obj
 0001:00065470       ___acrt_MessageWindowW     10066470 f   libucrtd:dbgrpt.obj
 0001:000654a0       __invoke_watson_if_error   100664a0 f i libucrtd:dbgrpt.obj
 0001:000654d0       __invoke_watson_if_oneof   100664d0 f i libucrtd:dbgrpt.obj
 0001:00065510       __snwprintf_s              10066510 f i libucrtd:dbgrpt.obj
 0001:00065550       __vsnwprintf_s_l           10066550 f i libucrtd:dbgrpt.obj
 0001:000658d0       _wcscpy_s                  100668d0 f   libucrtd:wcscpy_s.obj
 0001:000665f0       ??1?$__crt_simd_cleanup_guard@$00@@QAE@XZ 100675f0 f i libucrtd:strnlen.obj
 0001:00066600       ??1?$__crt_simd_cleanup_guard@$0A@@@QAE@XZ 10067600 f i libucrtd:strnlen.obj
 0001:00066610       ?compare_equals@?$__crt_simd_traits@$00E@@SA?AT__m256i@@T2@0@Z 10067610 f i libucrtd:strnlen.obj
 0001:00066650       ?compare_equals@?$__crt_simd_traits@$00G@@SA?AT__m256i@@T2@0@Z 10067650 f i libucrtd:strnlen.obj
 0001:00066690       ?compare_equals@?$__crt_simd_traits@$0A@E@@SA?AT__m128i@@T2@0@Z 10067690 f i libucrtd:strnlen.obj
 0001:000666d0       ?compare_equals@?$__crt_simd_traits@$0A@G@@SA?AT__m128i@@T2@0@Z 100676d0 f i libucrtd:strnlen.obj
 0001:00066710       ?compute_byte_mask@?$__crt_simd_pack_traits@$00@@SAHT__m256i@@@Z 10067710 f i libucrtd:strnlen.obj
 0001:00066740       ?compute_byte_mask@?$__crt_simd_pack_traits@$0A@@@SAHT__m128i@@@Z 10067740 f i libucrtd:strnlen.obj
 0001:00066770       ?get_zero_pack@?$__crt_simd_pack_traits@$00@@SA?AT__m256i@@XZ 10067770 f i libucrtd:strnlen.obj
 0001:000667a0       ?get_zero_pack@?$__crt_simd_pack_traits@$0A@@@SA?AT__m128i@@XZ 100677a0 f i libucrtd:strnlen.obj
 0001:000667d0       _strnlen                   100677d0 f   libucrtd:strnlen.obj
 0001:000667f0       _wcslen                    100677f0 f   libucrtd:strnlen.obj
 0001:00066810       _wcsnlen                   10067810 f   libucrtd:strnlen.obj
 0001:00066830       ??$__crt_fast_decode_pointer@P6AXPB_W00II@Z@@YAP6AXPB_W00II@ZQ6AX000II@Z@Z 10067830 f i libucrtd:invalid_parameter.obj
 0001:00066860       ??$__crt_fast_encode_pointer@P6AXPB_W00II@Z@@YAP6AXPB_W00II@ZQ6AX000II@Z@Z 10067860 f i libucrtd:invalid_parameter.obj
 0001:00066890       ??$initialize_from_array@$$BY00Q6AXPB_W00II@Z@?$dual_state_global@P6AXPB_W00II@Z@__crt_state_management@@QAAXAAY00Q6AXPB_W00II@Z@Z 10067890 f i libucrtd:invalid_parameter.obj
 0001:000668e0       ?__crt_rotate_pointer_value@@YAIIH@Z 100678e0 f i libucrtd:invalid_parameter.obj
 0001:000668f0       ?dangerous_get_state_array@?$dual_state_global@P6AXPB_W00II@Z@__crt_state_management@@QAEPAP6AXPB_W00II@ZXZ 100678f0 f i libucrtd:invalid_parameter.obj
 0001:00066900       ?get_current_state_index@__crt_state_management@@YAIXZ 10067900 f i libucrtd:invalid_parameter.obj
 0001:00066910       ?value@?$dual_state_global@P6AXPB_W00II@Z@__crt_state_management@@QAEAAP6AXPB_W00II@ZXZ 10067910 f i libucrtd:invalid_parameter.obj
 0001:00066930       ___acrt_call_reportfault   10067930 f   libucrtd:invalid_parameter.obj
 0001:00066a90       ___acrt_initialize_invalid_parameter_handler 10067a90 f   libucrtd:invalid_parameter.obj
 0001:00066ac0       __get_invalid_parameter_handler 10067ac0 f   libucrtd:invalid_parameter.obj
 0001:00066ae0       __get_thread_local_invalid_parameter_handler 10067ae0 f   libucrtd:invalid_parameter.obj
 0001:00066b10       __invalid_parameter        10067b10 f   libucrtd:invalid_parameter.obj
 0001:00066bd0       __invalid_parameter_noinfo 10067bd0 f   libucrtd:invalid_parameter.obj
 0001:00066bf0       __invalid_parameter_noinfo_noreturn 10067bf0 f   libucrtd:invalid_parameter.obj
 0001:00066c20       __invoke_watson            10067c20 f   libucrtd:invalid_parameter.obj
 0001:00066c60       __set_invalid_parameter_handler 10067c60 f   libucrtd:invalid_parameter.obj
 0001:00066cb0       __set_thread_local_invalid_parameter_handler 10067cb0 f   libucrtd:invalid_parameter.obj
 0001:00066ce0       ___acrt_errno_from_os_error 10067ce0 f   libucrtd:errno.obj
 0001:00066d60       ___acrt_errno_map_os_error 10067d60 f   libucrtd:errno.obj
 0001:00066d90       ___doserrno                10067d90 f   libucrtd:errno.obj
 0001:00066dc0       __errno                    10067dc0 f   libucrtd:errno.obj
 0001:00066df0       __get_doserrno             10067df0 f   libucrtd:errno.obj
 0001:00066e80       __get_errno                10067e80 f   libucrtd:errno.obj
 0001:00066f10       __set_doserrno             10067f10 f   libucrtd:errno.obj
 0001:00066f40       __set_errno                10067f40 f   libucrtd:errno.obj
 0001:00066f70       _calloc                    10067f70 f   libucrtd:calloc.obj
 0001:00066f90       __recalloc                 10067f90 f   libucrtd:recalloc.obj
 0001:00066fc0       __recalloc_base            10067fc0 f   libucrtd:recalloc.obj
 0001:0006705a       __resetstkoflw             1006805a f   libucrtd:resetstk.obj
 0001:00067540       _wcscat_s                  10068540 f   libucrtd:wcscat_s.obj
 0001:00067990       _wcsncpy_s                 10068990 f   libucrtd:wcsncpy_s.obj
 0001:000679d0       ___acrt_get_locale_data_prefix 100689d0 f i libucrtd:_ctype.obj
 0001:000679f0       ___isascii                 100689f0 f i libucrtd:_ctype.obj
 0001:00067a20       ___iscsym                  10068a20 f i libucrtd:_ctype.obj
 0001:00067a60       ___iscsymf                 10068a60 f i libucrtd:_ctype.obj
 0001:00067aa0       ___toascii                 10068aa0 f i libucrtd:_ctype.obj
 0001:00067ab0       __chvalidchk_l             10068ab0 f i libucrtd:_ctype.obj
 0001:00067ad0       __isalnum_l                10068ad0 f i libucrtd:_ctype.obj
 0001:00067b10       __isalpha_l                10068b10 f i libucrtd:_ctype.obj
 0001:00067b50       __isblank_l                10068b50 f i libucrtd:_ctype.obj
 0001:00067bb0       __ischartype_l             10068bb0 f i libucrtd:_ctype.obj
 0001:00067c30       __iscntrl_l                10068c30 f i libucrtd:_ctype.obj
 0001:00067c70       __iscsym_l                 10068c70 f i libucrtd:_ctype.obj
 0001:00067cb0       __iscsymf_l                10068cb0 f i libucrtd:_ctype.obj
 0001:00067cf0       __isdigit_l                10068cf0 f i libucrtd:_ctype.obj
 0001:00067d30       __isgraph_l                10068d30 f i libucrtd:_ctype.obj
 0001:00067d70       __islower_l                10068d70 f i libucrtd:_ctype.obj
 0001:00067db0       __isprint_l                10068db0 f i libucrtd:_ctype.obj
 0001:00067df0       __ispunct_l                10068df0 f i libucrtd:_ctype.obj
 0001:00067e30       __isspace_l                10068e30 f i libucrtd:_ctype.obj
 0001:00067e70       __isupper_l                10068e70 f i libucrtd:_ctype.obj
 0001:00067eb0       __isxdigit_l               10068eb0 f i libucrtd:_ctype.obj
 0001:00067ef0       _isalnum                   10068ef0 f i libucrtd:_ctype.obj
 0001:00067f30       _isalpha                   10068f30 f i libucrtd:_ctype.obj
 0001:00067f70       _isblank                   10068f70 f i libucrtd:_ctype.obj
 0001:00067fd0       _iscntrl                   10068fd0 f i libucrtd:_ctype.obj
 0001:00068010       _isdigit                   10069010 f i libucrtd:_ctype.obj
 0001:00068050       _isgraph                   10069050 f i libucrtd:_ctype.obj
 0001:00068090       _islower                   10069090 f i libucrtd:_ctype.obj
 0001:000680d0       _isprint                   100690d0 f i libucrtd:_ctype.obj
 0001:00068110       _ispunct                   10069110 f i libucrtd:_ctype.obj
 0001:00068150       _isspace                   10069150 f i libucrtd:_ctype.obj
 0001:00068190       _isupper                   10069190 f i libucrtd:_ctype.obj
 0001:000681d0       _isxdigit                  100691d0 f i libucrtd:_ctype.obj
 0001:00068210       _wcscat                    10069210 f   libucrtd:wcscat.obj
 0001:00068270       _wcscpy                    10069270 f   libucrtd:wcscpy.obj
 0001:00068900       ??$open_file@ABQBDABQBDABHPAU_iobuf@@@?$__crt_char_traits@D@@SAPAU_iobuf@@ABQBD0ABH$$QAPAU1@@Z 10069900 f i libucrtd:fopen.obj
 0001:00068930       ??$open_file@ABQB_WABQB_WABHPAU_iobuf@@@?$__crt_char_traits@_W@@SAPAU_iobuf@@ABQB_W0ABH$$QAPAU1@@Z 10069930 f i libucrtd:fopen.obj
 0001:00068960       ?unlock@__crt_stdio_stream@@QBEXXZ 10069960 f i libucrtd:fopen.obj
 0001:00068980       __fsopen                   10069980 f   libucrtd:fopen.obj
 0001:000689a0       __wfopen                   100699a0 f   libucrtd:fopen.obj
 0001:000689c0       __wfopen_s                 100699c0 f   libucrtd:fopen.obj
 0001:000689e0       __wfsopen                  100699e0 f   libucrtd:fopen.obj
 0001:00068a00       _fopen                     10069a00 f   libucrtd:fopen.obj
 0001:00068a20       _fopen_s                   10069a20 f   libucrtd:fopen.obj
 0001:00068a40       ?is_in_use@__crt_stdio_stream@@QBE_NXZ 10069a40 f i libucrtd:fclose.obj
 0001:00068a80       __fclose_nolock            10069a80 f   libucrtd:fclose.obj
 0001:00068bc0       _fclose                    10069bc0 f   libucrtd:fclose.obj
 0001:00068d10       __fputc_nolock             10069d10 f   libucrtd:fputc.obj
 0001:00068da0       __fputchar                 10069da0 f   libucrtd:fputc.obj
 0001:00068dc0       __putc_nolock              10069dc0 f   libucrtd:fputc.obj
 0001:00068de0       _fputc                     10069de0 f   libucrtd:fputc.obj
 0001:00069020       _putc                      1006a020 f   libucrtd:fputc.obj
 0001:00069040       _putchar                   1006a040 f   libucrtd:fputc.obj
 0001:000690b0       __seh_filter_dll           1006a0b0 f   libucrtd:exception_filter.obj
 0001:000690e0       __seh_filter_exe           1006a0e0 f   libucrtd:exception_filter.obj
 0001:000692f0       ??$?B$$A6GXPAXK0@Z@__crt_fast_encoded_nullptr_t@@QBEP6GXPAXK0@ZXZ 1006a2f0 f i libucrtd:exit.obj
 0001:000693d0       ??$__crt_fast_decode_pointer@P6GXPAXK0@Z@@YAP6GXPAXK0@ZQ6GX0K0@Z@Z 1006a3d0 f i libucrtd:exit.obj
 0001:00069400       ??$__crt_fast_encode_pointer@P6GXPAXK0@Z@@YAP6GXPAXK0@ZQ6GX0K0@Z@Z 1006a400 f i libucrtd:exit.obj
 0001:00069430       ??$__crt_get_proc_address@P6GXI@Z@@YAP6GXI@ZQAUHINSTANCE__@@QBD@Z 1006a430 f i libucrtd:exit.obj
 0001:000694c0       ??0?$__crt_unique_handle_t@U__crt_hmodule_traits@@@@QAE@QAUHINSTANCE__@@@Z 1006a4c0 f i libucrtd:exit.obj
 0001:000694e0       ??1?$__crt_unique_handle_t@U__crt_hmodule_traits@@@@QAE@XZ 1006a4e0 f i libucrtd:exit.obj
 0001:000696a0       ?__acrt_select_exit_lock@@YA?AW4__acrt_lock_id@@XZ 1006a6a0 f i libucrtd:exit.obj
 0001:000696b0       ?__crt_fast_encode_pointer@@YA?AU__crt_fast_encoded_nullptr_t@@$$T@Z 1006a6b0 f i libucrtd:exit.obj
 0001:000696e0       ?close@?$__crt_unique_handle_t@U__crt_hmodule_traits@@@@QAEXXZ 1006a6e0 f i libucrtd:exit.obj
 0001:00069720       ?close@__crt_hmodule_traits@@SA_NPAUHINSTANCE__@@@Z 1006a720 f i libucrtd:exit.obj
 0001:00069810       ?get@?$__crt_unique_handle_t@U__crt_hmodule_traits@@@@QBEPAUHINSTANCE__@@XZ 1006a810 f i libucrtd:exit.obj
 0001:00069830       ?get_address_of@?$__crt_unique_handle_t@U__crt_hmodule_traits@@@@QAEPAPAUHINSTANCE__@@XZ 1006a830 f i libucrtd:exit.obj
 0001:00069840       ?get_invalid_value@__crt_hmodule_traits@@SAPAUHINSTANCE__@@XZ 1006a840 f i libucrtd:exit.obj
 0001:000699c0       __Exit                     1006a9c0 f   libucrtd:exit.obj
 0001:000699e0       ___acrt_initialize_thread_local_exit_callback 1006a9e0 f   libucrtd:exit.obj
 0001:000699f0       __c_exit                   1006a9f0 f   libucrtd:exit.obj
 0001:00069a10       __cexit                    1006aa10 f   libucrtd:exit.obj
 0001:00069a30       __exit                     1006aa30 f   libucrtd:exit.obj
 0001:00069a50       __is_c_termination_complete 1006aa50 f   libucrtd:exit.obj
 0001:00069a70       __register_thread_local_exe_atexit_callback 1006aa70 f   libucrtd:exit.obj
 0001:00069ab0       _exit                      1006aab0 f   libucrtd:exit.obj
 0001:00069ad0       _quick_exit                1006aad0 f   libucrtd:exit.obj
 0001:00069af0       ??$?RE@__crt_internal_free_policy@@QBEXQBE@Z 1006aaf0 f i libucrtd:argv_parsing.obj
 0001:00069b10       ??$?RPAD@__crt_internal_free_policy@@QBEXQBQAD@Z 1006ab10 f i libucrtd:argv_parsing.obj
 0001:00069b30       ??$?RPA_W@__crt_internal_free_policy@@QBEXQBQA_W@Z 1006ab30 f i libucrtd:argv_parsing.obj
 0001:0006a090       ??$get_module_file_name@$$TAAY0BAF@DH@?$__crt_char_traits@D@@SAK$$QA$$TAAY0BAF@D$$QAH@Z 1006b090 f i libucrtd:argv_parsing.obj
 0001:0006a0b0       ??$get_module_file_name@$$TAAY0BAF@_WH@?$__crt_char_traits@_W@@SAK$$QA$$TAAY0BAF@_W$$QAH@Z 1006b0b0 f i libucrtd:argv_parsing.obj
 0001:0006a7d0       ??$set_program_name@PAD@?$__crt_char_traits@D@@SAX$$QAPAD@Z 1006b7d0 f i libucrtd:argv_parsing.obj
 0001:0006a7f0       ??$set_program_name@PA_W@?$__crt_char_traits@_W@@SAX$$QAPA_W@Z 1006b7f0 f i libucrtd:argv_parsing.obj
 0001:0006a850       ??0?$__crt_unique_heap_ptr@EU__crt_internal_free_policy@@@@QAE@QAE@Z 1006b850 f i libucrtd:argv_parsing.obj
 0001:0006a870       ??0?$__crt_unique_heap_ptr@PADU__crt_internal_free_policy@@@@QAE@QAPAD@Z 1006b870 f i libucrtd:argv_parsing.obj
 0001:0006a890       ??0?$__crt_unique_heap_ptr@PA_WU__crt_internal_free_policy@@@@QAE@QAPA_W@Z 1006b890 f i libucrtd:argv_parsing.obj
 0001:0006a8b0       ??1?$__crt_unique_heap_ptr@EU__crt_internal_free_policy@@@@QAE@XZ 1006b8b0 f i libucrtd:argv_parsing.obj
 0001:0006a8d0       ??1?$__crt_unique_heap_ptr@PADU__crt_internal_free_policy@@@@QAE@XZ 1006b8d0 f i libucrtd:argv_parsing.obj
 0001:0006a8f0       ??1?$__crt_unique_heap_ptr@PA_WU__crt_internal_free_policy@@@@QAE@XZ 1006b8f0 f i libucrtd:argv_parsing.obj
 0001:0006a910       ??B?$__crt_unique_heap_ptr@EU__crt_internal_free_policy@@@@QBE_NXZ 1006b910 f i libucrtd:argv_parsing.obj
 0001:0006a9d0       ?detach@?$__crt_unique_heap_ptr@EU__crt_internal_free_policy@@@@QAEPAEXZ 1006b9d0 f i libucrtd:argv_parsing.obj
 0001:0006aa00       ?detach@?$__crt_unique_heap_ptr@PADU__crt_internal_free_policy@@@@QAEPAPADXZ 1006ba00 f i libucrtd:argv_parsing.obj
 0001:0006aa30       ?detach@?$__crt_unique_heap_ptr@PA_WU__crt_internal_free_policy@@@@QAEPAPA_WXZ 1006ba30 f i libucrtd:argv_parsing.obj
 0001:0006aac0       ?get@?$__crt_unique_heap_ptr@EU__crt_internal_free_policy@@@@QBEPAEXZ 1006bac0 f i libucrtd:argv_parsing.obj
 0001:0006aae0       ?get@?$__crt_unique_heap_ptr@PADU__crt_internal_free_policy@@@@QBEPAPADXZ 1006bae0 f i libucrtd:argv_parsing.obj
 0001:0006ab00       ?get@?$__crt_unique_heap_ptr@PA_WU__crt_internal_free_policy@@@@QBEPAPA_WXZ 1006bb00 f i libucrtd:argv_parsing.obj
 0001:0006ab20       ?get_address_of@?$__crt_unique_heap_ptr@PADU__crt_internal_free_policy@@@@QAEPAPAPADXZ 1006bb20 f i libucrtd:argv_parsing.obj
 0001:0006ab30       ?get_address_of@?$__crt_unique_heap_ptr@PA_WU__crt_internal_free_policy@@@@QAEPAPAPA_WXZ 1006bb30 f i libucrtd:argv_parsing.obj
 0001:0006ab80       ?is_valid@?$__crt_unique_heap_ptr@EU__crt_internal_free_policy@@@@QBE_NXZ 1006bb80 f i libucrtd:argv_parsing.obj
 0001:0006abb0       ?release@?$__crt_unique_heap_ptr@EU__crt_internal_free_policy@@@@QAEXXZ 1006bbb0 f i libucrtd:argv_parsing.obj
 0001:0006abe0       ?release@?$__crt_unique_heap_ptr@PADU__crt_internal_free_policy@@@@QAEXXZ 1006bbe0 f i libucrtd:argv_parsing.obj
 0001:0006ac10       ?release@?$__crt_unique_heap_ptr@PA_WU__crt_internal_free_policy@@@@QAEXXZ 1006bc10 f i libucrtd:argv_parsing.obj
 0001:0006ac80       ___acrt_allocate_buffer_for_argv 1006bc80 f   libucrtd:argv_parsing.obj
 0001:0006ad40       __configure_narrow_argv    1006bd40 f   libucrtd:argv_parsing.obj
 0001:0006ad60       __configure_wide_argv      1006bd60 f   libucrtd:argv_parsing.obj
 0001:0006ad80       __set_pgmptr               1006bd80 f i libucrtd:argv_parsing.obj
 0001:0006ad90       __set_wpgmptr              1006bd90 f i libucrtd:argv_parsing.obj
 0001:0006ad9f       ??$?R_W@__crt_internal_free_policy@@QBEXQB_W@Z 1006bd9f f i libucrtd:environment_initialization.obj
 0001:0006b208       ??$get_environment_from_os@$$V@?$__crt_char_traits@D@@SAPADXZ 1006c208 f i libucrtd:environment_initialization.obj
 0001:0006b20d       ??$get_environment_from_os@$$V@?$__crt_char_traits@_W@@SAPA_WXZ 1006c20d f i libucrtd:environment_initialization.obj
 0001:0006b336       ??$set_variable_in_environment_nolock@PADH@?$__crt_char_traits@D@@SAH$$QAPAD$$QAH@Z 1006c336 f i libucrtd:environment_initialization.obj
 0001:0006b34e       ??$set_variable_in_environment_nolock@PA_WH@?$__crt_char_traits@_W@@SAH$$QAPA_W$$QAH@Z 1006c34e f i libucrtd:environment_initialization.obj
 0001:0006b366       ??$tcscpy_s@PADABIAAPAD@?$__crt_char_traits@D@@SAH$$QAPADABIAAPAD@Z 1006c366 f i libucrtd:environment_initialization.obj
 0001:0006b384       ??$tcscpy_s@PA_WABIAAPA_W@?$__crt_char_traits@_W@@SAH$$QAPA_WABIAAPA_W@Z 1006c384 f i libucrtd:environment_initialization.obj
 0001:0006b3a2       ??$tcslen@AAPAD@?$__crt_char_traits@D@@SAIAAPAD@Z 1006c3a2 f i libucrtd:environment_initialization.obj
 0001:0006b3ba       ??$tcslen@AAPA_W@?$__crt_char_traits@_W@@SAIAAPA_W@Z 1006c3ba f i libucrtd:environment_initialization.obj
 0001:0006b3d8       ??$uninitialize@A6AXAAPAPAD@Z@?$dual_state_global@PAPAD@__crt_state_management@@QAEXA6AXAAPAPAD@Z@Z 1006c3d8 f i libucrtd:environment_initialization.obj
 0001:0006b401       ??$uninitialize@A6AXAAPAPA_W@Z@?$dual_state_global@PAPA_W@__crt_state_management@@QAEXA6AXAAPAPA_W@Z@Z 1006c401 f i libucrtd:environment_initialization.obj
 0001:0006b460       ??0?$__crt_unique_heap_ptr@_WU__crt_internal_free_policy@@@@QAE@QA_W@Z 1006c460 f i libucrtd:environment_initialization.obj
 0001:0006b470       ??1?$__crt_unique_heap_ptr@_WU__crt_internal_free_policy@@@@QAE@XZ 1006c470 f i libucrtd:environment_initialization.obj
 0001:0006b485       ??B?$__crt_unique_heap_ptr@PADU__crt_internal_free_policy@@@@QBE_NXZ 1006c485 f i libucrtd:environment_initialization.obj
 0001:0006b48c       ??B?$__crt_unique_heap_ptr@PA_WU__crt_internal_free_policy@@@@QBE_NXZ 1006c48c f i libucrtd:environment_initialization.obj
 0001:0006b493       ??B?$__crt_unique_heap_ptr@_WU__crt_internal_free_policy@@@@QBE_NXZ 1006c493 f i libucrtd:environment_initialization.obj
 0001:0006b49a       ?__crt_compute_required_transform_buffer_count@@YAIIQBD@Z 1006c49a f i libucrtd:environment_initialization.obj
 0001:0006b4b6       ?__crt_compute_required_transform_buffer_count@@YAIIQB_W@Z 1006c4b6 f i libucrtd:environment_initialization.obj
 0001:0006b4d4       ?__crt_transform_string@@YAIIQBDQA_WI@Z 1006c4d4 f i libucrtd:environment_initialization.obj
 0001:0006b4f3       ?__crt_transform_string@@YAIIQB_WQADI@Z 1006c4f3 f i libucrtd:environment_initialization.obj
 0001:0006b515       ?detach@?$__crt_unique_heap_ptr@DU__crt_internal_free_policy@@@@QAEPADXZ 1006c515 f i libucrtd:environment_initialization.obj
 0001:0006b51b       ?detach@?$__crt_unique_heap_ptr@_WU__crt_internal_free_policy@@@@QAEPA_WXZ 1006c51b f i libucrtd:environment_initialization.obj
 0001:0006b521       ?get@?$__crt_unique_heap_ptr@_WU__crt_internal_free_policy@@@@QBEPA_WXZ 1006c521 f i libucrtd:environment_initialization.obj
 0001:0006b548       ?initialize@?$dual_state_global@PAPAD@__crt_state_management@@QAEXQAPAD@Z 1006c548 f i libucrtd:environment_initialization.obj
 0001:0006b56e       ?initialize@?$dual_state_global@PAPA_W@__crt_state_management@@QAEXQAPA_W@Z 1006c56e f i libucrtd:environment_initialization.obj
 0001:0006b594       ?is_valid@?$__crt_unique_heap_ptr@PADU__crt_internal_free_policy@@@@QBE_NXZ 1006c594 f i libucrtd:environment_initialization.obj
 0001:0006b59b       ?is_valid@?$__crt_unique_heap_ptr@PA_WU__crt_internal_free_policy@@@@QBE_NXZ 1006c59b f i libucrtd:environment_initialization.obj
 0001:0006b5a2       ?is_valid@?$__crt_unique_heap_ptr@_WU__crt_internal_free_policy@@@@QBE_NXZ 1006c5a2 f i libucrtd:environment_initialization.obj
 0001:0006b5b1       ?release@?$__crt_unique_heap_ptr@_WU__crt_internal_free_policy@@@@QAEXXZ 1006c5b1 f i libucrtd:environment_initialization.obj
 0001:0006b5c6       ?value@?$dual_state_global@PAPAD@__crt_state_management@@QAEAAPAPADXZ 1006c5c6 f i libucrtd:environment_initialization.obj
 0001:0006b5c9       ?value@?$dual_state_global@PAPA_W@__crt_state_management@@QAEAAPAPA_WXZ 1006c5c9 f i libucrtd:environment_initialization.obj
 0001:0006b5cc       ___dcrt_get_or_create_narrow_environment_nolock 1006c5cc f   libucrtd:environment_initialization.obj
 0001:0006b5d1       ___dcrt_get_or_create_wide_environment_nolock 1006c5d1 f   libucrtd:environment_initialization.obj
 0001:0006b5d6       ___dcrt_uninitialize_environments_nolock 1006c5d6 f   libucrtd:environment_initialization.obj
 0001:0006b60d       ___p__environ              1006c60d f   libucrtd:environment_initialization.obj
 0001:0006b613       ___p__wenviron             1006c613 f   libucrtd:environment_initialization.obj
 0001:0006b619       __get_initial_narrow_environment 1006c619 f   libucrtd:environment_initialization.obj
 0001:0006b62d       __get_initial_wide_environment 1006c62d f   libucrtd:environment_initialization.obj
 0001:0006b641       __initialize_narrow_environment 1006c641 f   libucrtd:environment_initialization.obj
 0001:0006b646       __initialize_wide_environment 1006c646 f   libucrtd:environment_initialization.obj
 0001:0006b650       ??$?B$$A6AXXZ@__crt_fast_encoded_nullptr_t@@QBEP6AXXZXZ 1006c650 f i libucrtd:onexit.obj
 0001:0006b670       ??$?BP6AXXZ@__crt_fast_encoded_nullptr_t@@QBEPAP6AXXZXZ 1006c670 f i libucrtd:onexit.obj
 0001:0006b690       ??$?RP6AXXZ@__crt_internal_free_policy@@QBEXQBQ6AXXZ@Z 1006c690 f i libucrtd:onexit.obj
 0001:0006b850       ??$__crt_fast_decode_pointer@P6AXXZ@@YAP6AXXZQ6AXXZ@Z 1006c850 f i libucrtd:onexit.obj
 0001:0006b880       ??$__crt_fast_decode_pointer@PAP6AXXZ@@YAPAP6AXXZQAP6AXXZ@Z 1006c880 f i libucrtd:onexit.obj
 0001:0006b8b0       ??$__crt_fast_encode_pointer@P6AHXZ@@YAP6AHXZQ6AHXZ@Z 1006c8b0 f i libucrtd:onexit.obj
 0001:0006b8e0       ??$__crt_fast_encode_pointer@P6AXXZ@@YAP6AXXZQ6AXXZ@Z 1006c8e0 f i libucrtd:onexit.obj
 0001:0006b910       ??$__crt_fast_encode_pointer@PAP6AXXZ@@YAPAP6AXXZQAP6AXXZ@Z 1006c910 f i libucrtd:onexit.obj
 0001:0006ba10       ??0?$__crt_unique_heap_ptr@P6AXXZU__crt_internal_free_policy@@@@QAE@QAP6AXXZ@Z 1006ca10 f i libucrtd:onexit.obj
 0001:0006ba30       ??1?$__crt_unique_heap_ptr@P6AXXZU__crt_internal_free_policy@@@@QAE@XZ 1006ca30 f i libucrtd:onexit.obj
 0001:0006ba50       ??1scoped_global_state_reset@__crt_state_management@@QAE@XZ 1006ca50 f i libucrtd:onexit.obj
 0001:0006bec0       ?detach@?$__crt_unique_heap_ptr@P6AXXZU__crt_internal_free_policy@@@@QAEPAP6AXXZXZ 1006cec0 f i libucrtd:onexit.obj
 0001:0006bef0       ?release@?$__crt_unique_heap_ptr@P6AXXZU__crt_internal_free_policy@@@@QAEXXZ 1006cef0 f i libucrtd:onexit.obj
 0001:0006bf20       __crt_at_quick_exit        1006cf20 f   libucrtd:onexit.obj
 0001:0006bf40       __crt_atexit               1006cf40 f   libucrtd:onexit.obj
 0001:0006bf60       __execute_onexit_table     1006cf60 f   libucrtd:onexit.obj
 0001:0006bf90       __initialize_onexit_table  1006cf90 f   libucrtd:onexit.obj
 0001:0006bff0       __register_onexit_function 1006cff0 f   libucrtd:onexit.obj
 0001:0006c230       ??$?BX@__crt_fast_encoded_nullptr_t@@QBEPAXXZ 1006d230 f i libucrtd:initialization.obj
 0001:0006c250       ??$__crt_fast_encode_pointer@PAX@@YAPAXQAX@Z 1006d250 f i libucrtd:initialization.obj
 0001:0006c310       ?initialize@?$dual_state_global@PAU__crt_locale_data@@@__crt_state_management@@QAEXQAU__crt_locale_data@@@Z 1006d310 f i libucrtd:initialization.obj
 0001:0006c350       ___acrt_initialize         1006d350 f   libucrtd:initialization.obj
 0001:0006c370       ___acrt_thread_attach      1006d370 f   libucrtd:initialization.obj
 0001:0006c390       ___acrt_thread_detach      1006d390 f   libucrtd:initialization.obj
 0001:0006c3a0       ___acrt_uninitialize       1006d3a0 f   libucrtd:initialization.obj
 0001:0006c3c0       ___acrt_uninitialize_critical 1006d3c0 f   libucrtd:initialization.obj
 0001:0006dc30       __CrtCheckMemory           1006ec30 f   libucrtd:debug_heap.obj
 0001:0006ddc0       __CrtDoForAllClientObjects 1006edc0 f   libucrtd:debug_heap.obj
 0001:0006df10       __CrtDumpMemoryLeaks       1006ef10 f   libucrtd:debug_heap.obj
 0001:0006dfb0       __CrtGetAllocHook          1006efb0 f   libucrtd:debug_heap.obj
 0001:0006dfc0       __CrtGetDumpClient         1006efc0 f   libucrtd:debug_heap.obj
 0001:0006dfd0       __CrtIsMemoryBlock         1006efd0 f   libucrtd:debug_heap.obj
 0001:0006e120       __CrtIsValidHeapPointer    1006f120 f   libucrtd:debug_heap.obj
 0001:0006e150       __CrtIsValidPointer        1006f150 f   libucrtd:debug_heap.obj
 0001:0006e180       __CrtMemCheckpoint         1006f180 f   libucrtd:debug_heap.obj
 0001:0006e3b0       __CrtMemDifference         1006f3b0 f   libucrtd:debug_heap.obj
 0001:0006e620       __CrtMemDumpAllObjectsSince 1006f620 f   libucrtd:debug_heap.obj
 0001:0006e6c0       __CrtMemDumpStatistics     1006f6c0 f   libucrtd:debug_heap.obj
 0001:0006e7f0       __CrtReportBlockType       1006f7f0 f   libucrtd:debug_heap.obj
 0001:0006e820       __CrtSetAllocHook          1006f820 f   libucrtd:debug_heap.obj
 0001:0006e840       __CrtSetBreakAlloc         1006f840 f   libucrtd:debug_heap.obj
 0001:0006e860       __CrtSetDbgBlockType       1006f860 f   libucrtd:debug_heap.obj
 0001:0006e940       __CrtSetDbgFlag            1006f940 f   libucrtd:debug_heap.obj
 0001:0006eab0       __CrtSetDumpClient         1006fab0 f   libucrtd:debug_heap.obj
 0001:0006ead0       ___p__crtBreakAlloc        1006fad0 f   libucrtd:debug_heap.obj
 0001:0006eae0       ___p__crtDbgFlag           1006fae0 f   libucrtd:debug_heap.obj
 0001:0006eaf0       __aligned_free_dbg         1006faf0 f   libucrtd:debug_heap.obj
 0001:0006eba0       __aligned_malloc_dbg       1006fba0 f   libucrtd:debug_heap.obj
 0001:0006ebd0       __aligned_msize_dbg        1006fbd0 f   libucrtd:debug_heap.obj
 0001:0006ed00       __aligned_offset_malloc_dbg 1006fd00 f   libucrtd:debug_heap.obj
 0001:0006eee0       __aligned_offset_realloc_dbg 1006fee0 f   libucrtd:debug_heap.obj
 0001:0006f1f0       __aligned_offset_recalloc_dbg 100701f0 f   libucrtd:debug_heap.obj
 0001:0006f2b0       __aligned_realloc_dbg      100702b0 f   libucrtd:debug_heap.obj
 0001:0006f2e0       __aligned_recalloc_dbg     100702e0 f   libucrtd:debug_heap.obj
 0001:0006f310       __calloc_dbg               10070310 f   libucrtd:debug_heap.obj
 0001:0006f380       __expand_dbg               10070380 f   libucrtd:debug_heap.obj
 0001:0006f4b0       __free_dbg                 100704b0 f   libucrtd:debug_heap.obj
 0001:0006f560       __malloc_dbg               10070560 f   libucrtd:debug_heap.obj
 0001:0006f580       __msize_dbg                10070580 f   libucrtd:debug_heap.obj
 0001:0006f710       __realloc_dbg              10070710 f   libucrtd:debug_heap.obj
 0001:0006f7b0       __recalloc_dbg             100707b0 f   libucrtd:debug_heap.obj
 0001:0006f860       __initterm                 10070860 f   libucrtd:initterm.obj
 0001:0006f8b0       __initterm_e               100708b0 f   libucrtd:initterm.obj
 0001:0006fc20       _strcpy_s                  10070c20 f   libucrtd:strcpy_s.obj
 0001:00070050       _strcat_s                  10071050 f   libucrtd:strcat_s.obj
 0001:00070070       ??$?B$$A6AHI@Z@__crt_fast_encoded_nullptr_t@@QBEP6AHI@ZXZ 10071070 f i libucrtd:new_handler.obj
 0001:00070090       ??$__crt_fast_decode_pointer@P6AHI@Z@@YAP6AHI@ZQ6AHI@Z@Z 10071090 f i libucrtd:new_handler.obj
 0001:000700c0       ??$__crt_fast_encode_pointer@P6AHI@Z@@YAP6AHI@ZQ6AHI@Z@Z 100710c0 f i libucrtd:new_handler.obj
 0001:000700f0       ?_set_new_handler@@YAP6AHI@ZH@Z 100710f0 f   libucrtd:new_handler.obj
 0001:00070150       ?initialize@?$dual_state_global@P6AHI@Z@__crt_state_management@@QAEXQ6AHI@Z@Z 10071150 f i libucrtd:new_handler.obj
 0001:00070190       ?value@?$dual_state_global@P6AHI@Z@__crt_state_management@@QAEAAP6AHI@ZXZ 10071190 f i libucrtd:new_handler.obj
 0001:000701b0       ___acrt_initialize_new_handler 100711b0 f   libucrtd:new_handler.obj
 0001:000701d0       __callnewh                 100711d0 f   libucrtd:new_handler.obj
 0001:00070210       __query_new_handler        10071210 f   libucrtd:new_handler.obj
 0001:000702a0       __set_new_handler          100712a0 f   libucrtd:new_handler.obj
 0001:00070380       __get_terminate            10071380 f   libucrtd:terminate.obj
 0001:000703a0       _set_terminate             100713a0 f   libucrtd:terminate.obj
 0001:000703d0       _terminate                 100713d0 f   libucrtd:terminate.obj
 0001:00070da0       __makepath                 10071da0 f   libucrtd:makepath.obj
 0001:00070dd0       __makepath_s               10071dd0 f   libucrtd:makepath.obj
 0001:00070e00       __wmakepath                10071e00 f   libucrtd:makepath.obj
 0001:00070e30       __wmakepath_s              10071e30 f   libucrtd:makepath.obj
 0001:00072780       ??$tcsncpy_s@AAPADIAAPBDABI@?$__crt_char_traits@D@@SAHAAPAD$$QAIAAPBDABI@Z 10073780 f i libucrtd:splitpath.obj
 0001:000727b0       ??$tcsncpy_s@AAPADIAAPBDH@?$__crt_char_traits@D@@SAHAAPAD$$QAIAAPBD$$QAH@Z 100737b0 f i libucrtd:splitpath.obj
 0001:000727e0       ??$tcsncpy_s@AAPA_WIAAPB_WABI@?$__crt_char_traits@_W@@SAHAAPA_W$$QAIAAPB_WABI@Z 100737e0 f i libucrtd:splitpath.obj
 0001:00072810       ??$tcsncpy_s@AAPA_WIAAPB_WH@?$__crt_char_traits@_W@@SAHAAPA_W$$QAIAAPB_W$$QAH@Z 10073810 f i libucrtd:splitpath.obj
 0001:00072a50       __splitpath                10073a50 f   libucrtd:splitpath.obj
 0001:00072a80       __splitpath_s              10073a80 f   libucrtd:splitpath.obj
 0001:00072ad0       __wsplitpath               10073ad0 f   libucrtd:splitpath.obj
 0001:00072b00       __wsplitpath_s             10073b00 f   libucrtd:splitpath.obj
 0001:00072b50       __set_abort_behavior       10073b50 f   libucrtd:abort.obj
 0001:00072b80       _abort                     10073b80 f   libucrtd:abort.obj
 0001:00072bf0       _strcmp                    10073bf0 f   libucrtd:strcmp.obj
 0001:00072c80       _strlen                    10073c80 f   libucrtd:strlen.obj
 0001:00072d10       ??$is_overflow_condition@K@__crt_strtox@@YA_NIK@Z 10073d10 f i libucrtd:atox.obj
 0001:00072d70       ??$is_overflow_condition@_K@__crt_strtox@@YA_NI_K@Z 10073d70 f i libucrtd:atox.obj
 0001:00072e00       ??$make_c_string_character_source@D$$T@__crt_strtox@@YA?AV?$c_string_character_source@D@0@QBD$$T@Z 10073e00 f i libucrtd:atox.obj
 0001:00072e20       ??$make_c_string_character_source@_W$$T@__crt_strtox@@YA?AV?$c_string_character_source@_W@0@QB_W$$T@Z 10073e20 f i libucrtd:atox.obj
 0001:00072e40       ??$parse_integer@KV?$c_string_character_source@D@__crt_strtox@@@__crt_strtox@@YAKQAU__crt_locale_pointers@@V?$c_string_character_source@D@0@H_N@Z 10073e40 f i libucrtd:atox.obj
 0001:000731b0       ??$parse_integer@KV?$c_string_character_source@_W@__crt_strtox@@@__crt_strtox@@YAKQAU__crt_locale_pointers@@V?$c_string_character_source@_W@0@H_N@Z 100741b0 f i libucrtd:atox.obj
 0001:00073520       ??$parse_integer@_KV?$c_string_character_source@D@__crt_strtox@@@__crt_strtox@@YA_KQAU__crt_locale_pointers@@V?$c_string_character_source@D@0@H_N@Z 10074520 f i libucrtd:atox.obj
 0001:00073940       ??$parse_integer@_KV?$c_string_character_source@_W@__crt_strtox@@@__crt_strtox@@YA_KQAU__crt_locale_pointers@@V?$c_string_character_source@_W@0@H_N@Z 10074940 f i libucrtd:atox.obj
 0001:00073d70       ??$parse_integer_from_string@JD$$T@__crt_strtox@@YAJQBD$$THQAU__crt_locale_pointers@@@Z 10074d70 f i libucrtd:atox.obj
 0001:00073db0       ??$parse_integer_from_string@J_W$$T@__crt_strtox@@YAJQB_W$$THQAU__crt_locale_pointers@@@Z 10074db0 f i libucrtd:atox.obj
 0001:00073df0       ??$parse_integer_from_string@_JD$$T@__crt_strtox@@YA_JQBD$$THQAU__crt_locale_pointers@@@Z 10074df0 f i libucrtd:atox.obj
 0001:00073e30       ??$parse_integer_from_string@_J_W$$T@__crt_strtox@@YA_JQB_W$$THQAU__crt_locale_pointers@@@Z 10074e30 f i libucrtd:atox.obj
 0001:00073e70       ??0?$c_string_character_source@D@__crt_strtox@@QAE@QBDQAPBD@Z 10074e70 f i libucrtd:atox.obj
 0001:00073eb0       ??0?$c_string_character_source@_W@__crt_strtox@@QAE@QB_WQAPB_W@Z 10074eb0 f i libucrtd:atox.obj
 0001:00073ef0       ??1?$c_string_character_source@D@__crt_strtox@@QAE@XZ 10074ef0 f i libucrtd:atox.obj
 0001:00073f20       ??1?$c_string_character_source@_W@__crt_strtox@@QAE@XZ 10074f20 f i libucrtd:atox.obj
 0001:00073f50       ?get@?$c_string_character_source@D@__crt_strtox@@QAEDXZ 10074f50 f i libucrtd:atox.obj
 0001:00073f80       ?get@?$c_string_character_source@_W@__crt_strtox@@QAE_WXZ 10074f80 f i libucrtd:atox.obj
 0001:00073fb0       ?is_space@__crt_strtox@@YA_NDQAU__crt_locale_pointers@@@Z 10074fb0 f i libucrtd:atox.obj
 0001:00073ff0       ?is_space@__crt_strtox@@YA_N_WPAU__crt_locale_pointers@@@Z 10074ff0 f i libucrtd:atox.obj
 0001:00074020       ?maximum_signed_value@__crt_strtox@@YAJK@Z 10075020 f i libucrtd:atox.obj
 0001:00074030       ?maximum_signed_value@__crt_strtox@@YA_J_K@Z 10075030 f i libucrtd:atox.obj
 0001:00074040       ?minimum_signed_value@__crt_strtox@@YAJK@Z 10075040 f i libucrtd:atox.obj
 0001:00074050       ?minimum_signed_value@__crt_strtox@@YA_J_K@Z 10075050 f i libucrtd:atox.obj
 0001:00074060       ?parse_digit@__crt_strtox@@YAID@Z 10075060 f i libucrtd:atox.obj
 0001:000740c0       ?parse_digit@__crt_strtox@@YAI_W@Z 100750c0 f i libucrtd:atox.obj
 0001:00074110       ?restore_state@?$c_string_character_source@D@__crt_strtox@@QAE_NQBD@Z 10075110 f i libucrtd:atox.obj
 0001:00074130       ?restore_state@?$c_string_character_source@_W@__crt_strtox@@QAE_NQB_W@Z 10075130 f i libucrtd:atox.obj
 0001:00074150       ?save_state@?$c_string_character_source@D@__crt_strtox@@QBEPBDXZ 10075150 f i libucrtd:atox.obj
 0001:00074170       ?save_state@?$c_string_character_source@_W@__crt_strtox@@QBEPB_WXZ 10075170 f i libucrtd:atox.obj
 0001:00074190       ?unget@?$c_string_character_source@D@__crt_strtox@@QAEXD@Z 10075190 f i libucrtd:atox.obj
 0001:00074240       ?unget@?$c_string_character_source@_W@__crt_strtox@@QAEX_W@Z 10075240 f i libucrtd:atox.obj
 0001:000742f0       ?validate@?$c_string_character_source@D@__crt_strtox@@QBE_NXZ 100752f0 f i libucrtd:atox.obj
 0001:00074380       ?validate@?$c_string_character_source@_W@__crt_strtox@@QBE_NXZ 10075380 f i libucrtd:atox.obj
 0001:00074410       ?wide_character_to_digit@__crt_strtox@@YAH_W@Z 10075410 f i libucrtd:atox.obj
 0001:00074740       ___ascii_iswalpha          10075740 f i libucrtd:atox.obj
 0001:00074780       ___ascii_toupper           10075780 f i libucrtd:atox.obj
 0001:000747a0       ___ascii_towupper          100757a0 f i libucrtd:atox.obj
 0001:000747c0       __atoi64                   100757c0 f   libucrtd:atox.obj
 0001:000747e0       __atoi64_l                 100757e0 f   libucrtd:atox.obj
 0001:00074800       __atoi_l                   10075800 f   libucrtd:atox.obj
 0001:00074820       __atol_l                   10075820 f   libucrtd:atox.obj
 0001:00074840       __atoll_l                  10075840 f   libucrtd:atox.obj
 0001:00074860       __wtoi                     10075860 f   libucrtd:atox.obj
 0001:00074880       __wtoi64                   10075880 f   libucrtd:atox.obj
 0001:000748a0       __wtoi64_l                 100758a0 f   libucrtd:atox.obj
 0001:000748c0       __wtoi_l                   100758c0 f   libucrtd:atox.obj
 0001:000748e0       __wtol                     100758e0 f   libucrtd:atox.obj
 0001:00074900       __wtol_l                   10075900 f   libucrtd:atox.obj
 0001:00074920       __wtoll                    10075920 f   libucrtd:atox.obj
 0001:00074940       __wtoll_l                  10075940 f   libucrtd:atox.obj
 0001:00074960       _atoi                      10075960 f   libucrtd:atox.obj
 0001:00074980       _atol                      10075980 f   libucrtd:atox.obj
 0001:000749a0       _atoll                     100759a0 f   libucrtd:atox.obj
 0001:000749c0       _strncmp                   100759c0 f   libucrtd:strncmp.obj
 0001:00074a40       _wcsncmp                   10075a40 f   libucrtd:wcsncmp.obj
 0001:00074aa0       __CrtGetDebugFillThreshold 10075aa0 f   libucrtd:debug_fill_threshold.obj
 0001:00074ab0       __CrtSetDebugFillThreshold 10075ab0 f   libucrtd:debug_fill_threshold.obj
 0001:00074ad0       ??$make_c_string_character_source@DPAPAD@__crt_strtox@@YA?AV?$c_string_character_source@D@0@QBDQAPAD@Z 10075ad0 f i libucrtd:strtox.obj
 0001:00074af0       ??$make_c_string_character_source@_WPAPA_W@__crt_strtox@@YA?AV?$c_string_character_source@_W@0@QB_WQAPA_W@Z 10075af0 f i libucrtd:strtox.obj
 0001:00074b10       ??$parse_integer_from_string@JDPAPAD@__crt_strtox@@YAJQBDQAPADHQAU__crt_locale_pointers@@@Z 10075b10 f i libucrtd:strtox.obj
 0001:00074b50       ??$parse_integer_from_string@J_WPAPA_W@__crt_strtox@@YAJQB_WQAPA_WHQAU__crt_locale_pointers@@@Z 10075b50 f i libucrtd:strtox.obj
 0001:00074b90       ??$parse_integer_from_string@KDPAPAD@__crt_strtox@@YAKQBDQAPADHQAU__crt_locale_pointers@@@Z 10075b90 f i libucrtd:strtox.obj
 0001:00074bd0       ??$parse_integer_from_string@K_WPAPA_W@__crt_strtox@@YAKQB_WQAPA_WHQAU__crt_locale_pointers@@@Z 10075bd0 f i libucrtd:strtox.obj
 0001:00074c10       ??$parse_integer_from_string@_JDPAPAD@__crt_strtox@@YA_JQBDQAPADHQAU__crt_locale_pointers@@@Z 10075c10 f i libucrtd:strtox.obj
 0001:00074c50       ??$parse_integer_from_string@_J_WPAPA_W@__crt_strtox@@YA_JQB_WQAPA_WHQAU__crt_locale_pointers@@@Z 10075c50 f i libucrtd:strtox.obj
 0001:00074c90       ??$parse_integer_from_string@_KDPAPAD@__crt_strtox@@YA_KQBDQAPADHQAU__crt_locale_pointers@@@Z 10075c90 f i libucrtd:strtox.obj
 0001:00074cd0       ??$parse_integer_from_string@_K_WPAPA_W@__crt_strtox@@YA_KQB_WQAPA_WHQAU__crt_locale_pointers@@@Z 10075cd0 f i libucrtd:strtox.obj
 0001:00074d10       __strtoi64                 10075d10 f   libucrtd:strtox.obj
 0001:00074d30       __strtoi64_l               10075d30 f   libucrtd:strtox.obj
 0001:00074d50       __strtoimax_l              10075d50 f   libucrtd:strtox.obj
 0001:00074d70       __strtol_l                 10075d70 f   libucrtd:strtox.obj
 0001:00074d90       __strtoll_l                10075d90 f   libucrtd:strtox.obj
 0001:00074db0       __strtoui64                10075db0 f   libucrtd:strtox.obj
 0001:00074dd0       __strtoui64_l              10075dd0 f   libucrtd:strtox.obj
 0001:00074df0       __strtoul_l                10075df0 f   libucrtd:strtox.obj
 0001:00074e10       __strtoull_l               10075e10 f   libucrtd:strtox.obj
 0001:00074e30       __strtoumax_l              10075e30 f   libucrtd:strtox.obj
 0001:00074e50       __wcstoi64                 10075e50 f   libucrtd:strtox.obj
 0001:00074e70       __wcstoi64_l               10075e70 f   libucrtd:strtox.obj
 0001:00074e90       __wcstoimax_l              10075e90 f   libucrtd:strtox.obj
 0001:00074eb0       __wcstol_l                 10075eb0 f   libucrtd:strtox.obj
 0001:00074ed0       __wcstoll_l                10075ed0 f   libucrtd:strtox.obj
 0001:00074ef0       __wcstoui64                10075ef0 f   libucrtd:strtox.obj
 0001:00074f10       __wcstoui64_l              10075f10 f   libucrtd:strtox.obj
 0001:00074f30       __wcstoul_l                10075f30 f   libucrtd:strtox.obj
 0001:00074f50       __wcstoull_l               10075f50 f   libucrtd:strtox.obj
 0001:00074f70       __wcstoumax_l              10075f70 f   libucrtd:strtox.obj
 0001:00074f90       _strtoimax                 10075f90 f   libucrtd:strtox.obj
 0001:00074fb0       _strtol                    10075fb0 f   libucrtd:strtox.obj
 0001:00074fd0       _strtoll                   10075fd0 f   libucrtd:strtox.obj
 0001:00074ff0       _strtoul                   10075ff0 f   libucrtd:strtox.obj
 0001:00075010       _strtoull                  10076010 f   libucrtd:strtox.obj
 0001:00075030       _strtoumax                 10076030 f   libucrtd:strtox.obj
 0001:00075050       _wcstoimax                 10076050 f   libucrtd:strtox.obj
 0001:00075070       _wcstol                    10076070 f   libucrtd:strtox.obj
 0001:00075090       _wcstoll                   10076090 f   libucrtd:strtox.obj
 0001:000750b0       _wcstoul                   100760b0 f   libucrtd:strtox.obj
 0001:000750d0       _wcstoull                  100760d0 f   libucrtd:strtox.obj
 0001:000750f0       _wcstoumax                 100760f0 f   libucrtd:strtox.obj
 0001:00075110       __mbtowc_l                 10076110 f   libucrtd:mbtowc.obj
 0001:00075430       _mbtowc                    10076430 f   libucrtd:mbtowc.obj
 0001:00075450       __wctomb_l                 10076450 f   libucrtd:wctomb.obj
 0001:000754d0       __wctomb_s_l               100764d0 f   libucrtd:wctomb.obj
 0001:00075890       _wctomb                    10076890 f   libucrtd:wctomb.obj
 0001:000758e0       _wctomb_s                  100768e0 f   libucrtd:wctomb.obj
 0001:00075910       ??$?RU__acrt_ptd@@@__crt_internal_free_policy@@QBEXQBU__acrt_ptd@@@Z 10076910 f i libucrtd:per_thread_data.obj
 0001:00075dc0       ??0?$__crt_unique_heap_ptr@U__acrt_ptd@@U__crt_internal_free_policy@@@@QAE@QAU__acrt_ptd@@@Z 10076dc0 f i libucrtd:per_thread_data.obj
 0001:00075de0       ??0__crt_scoped_get_last_error_reset@@QAE@XZ 10076de0 f i libucrtd:per_thread_data.obj
 0001:00075e00       ??1?$__crt_unique_heap_ptr@U__acrt_ptd@@U__crt_internal_free_policy@@@@QAE@XZ 10076e00 f i libucrtd:per_thread_data.obj
 0001:00075e20       ??1__crt_scoped_get_last_error_reset@@QAE@XZ 10076e20 f i libucrtd:per_thread_data.obj
 0001:00075e40       ??B?$__crt_unique_heap_ptr@U__acrt_ptd@@U__crt_internal_free_policy@@@@QBE_NXZ 10076e40 f i libucrtd:per_thread_data.obj
 0001:00076120       ?dangerous_get_state_array@?$dual_state_global@PAU__crt_locale_data@@@__crt_state_management@@QAEPAPAU__crt_locale_data@@XZ 10077120 f i libucrtd:per_thread_data.obj
 0001:000762a0       ?detach@?$__crt_unique_heap_ptr@U__acrt_ptd@@U__crt_internal_free_policy@@@@QAEPAU__acrt_ptd@@XZ 100772a0 f i libucrtd:per_thread_data.obj
 0001:000762d0       ?get@?$__crt_unique_heap_ptr@U__acrt_ptd@@U__crt_internal_free_policy@@@@QBEPAU__acrt_ptd@@XZ 100772d0 f i libucrtd:per_thread_data.obj
 0001:000762f0       ?get_current_state_index@__crt_state_management@@YAIABV__crt_scoped_get_last_error_reset@@@Z 100772f0 f i libucrtd:per_thread_data.obj
 0001:00076460       ?is_valid@?$__crt_unique_heap_ptr@U__acrt_ptd@@U__crt_internal_free_policy@@@@QBE_NXZ 10077460 f i libucrtd:per_thread_data.obj
 0001:00076490       ?release@?$__crt_unique_heap_ptr@U__acrt_ptd@@U__crt_internal_free_policy@@@@QAEXXZ 10077490 f i libucrtd:per_thread_data.obj
 0001:00076580       ?value@?$dual_state_global@PAU__crt_locale_data@@@__crt_state_management@@QAEAAPAU__crt_locale_data@@XZ 10077580 f i libucrtd:per_thread_data.obj
 0001:000765a0       ___acrt_freeptd            100775a0 f   libucrtd:per_thread_data.obj
 0001:000765d0       ___acrt_getptd             100775d0 f   libucrtd:per_thread_data.obj
 0001:000765f0       ___acrt_getptd_head        100775f0 f   libucrtd:per_thread_data.obj
 0001:00076610       ___acrt_getptd_noexit      10077610 f   libucrtd:per_thread_data.obj
 0001:00076620       ___acrt_initialize_ptd     10077620 f   libucrtd:per_thread_data.obj
 0001:00076660       ___acrt_uninitialize_ptd   10077660 f   libucrtd:per_thread_data.obj
 0001:00076690       ___threadhandle            10077690 f   libucrtd:per_thread_data.obj
 0001:000766a0       ___threadid                100776a0 f   libucrtd:per_thread_data.obj
 0001:000766b0       ?value@?$dual_state_global@PAU__crt_multibyte_data@@@__crt_state_management@@QAEAAPAU__crt_multibyte_data@@XZ 100776b0 f i libucrtd:locale_update.obj
 0001:000766d0       ___acrt_update_locale_info 100776d0 f   libucrtd:locale_update.obj
 0001:00076710       ___acrt_update_multibyte_info 10077710 f   libucrtd:locale_update.obj
 0001:00076750       ?__acrt_fp_classify@@YA?AW4__acrt_fp_class@@ABN@Z 10077750 f i libucrtd:cvt.obj
 0001:00076870       ?__acrt_fp_is_negative@@YA_NABN@Z 10077870 f i libucrtd:cvt.obj
 0001:000778c0       ?strrchr@@YAPADQADH@Z      100788c0 f i libucrtd:cvt.obj
 0001:000778e0       ___acrt_fp_format          100788e0 f   libucrtd:cvt.obj
 0001:00077d70       __fputwc_nolock            10078d70 f   libucrtd:fputwc.obj
 0001:00077f60       __fputwchar                10078f60 f   libucrtd:fputwc.obj
 0001:00077f80       __putwc_nolock             10078f80 f   libucrtd:fputwc.obj
 0001:00077fa0       _fputwc                    10078fa0 f   libucrtd:fputwc.obj
 0001:000780b0       _putwc                     100790b0 f   libucrtd:fputwc.obj
 0001:000780d0       _putwchar                  100790d0 f   libucrtd:fputwc.obj
 0001:000780f0       ?lowio_handle@__crt_stdio_stream@@QBEHXZ 100790f0 f i libucrtd:fileno.obj
 0001:00078110       __fileno                   10079110 f   libucrtd:fileno.obj
 0001:000781b0       ??$?RPAU__crt_stdio_stream_data@@@__crt_internal_free_policy@@QBEXQBQAU__crt_stdio_stream_data@@@Z 100791b0 f i libucrtd:_file.obj
 0001:000781d0       ??0?$__crt_unique_heap_ptr@PAU__crt_stdio_stream_data@@U__crt_internal_free_policy@@@@QAE@QAPAU__crt_stdio_stream_data@@@Z 100791d0 f i libucrtd:_file.obj
 0001:000781f0       ??1?$__crt_unique_heap_ptr@PAU__crt_stdio_stream_data@@U__crt_internal_free_policy@@@@QAE@XZ 100791f0 f i libucrtd:_file.obj
 0001:00078210       ?detach@?$__crt_unique_heap_ptr@PAU__crt_stdio_stream_data@@U__crt_internal_free_policy@@@@QAEPAPAU__crt_stdio_stream_data@@XZ 10079210 f i libucrtd:_file.obj
 0001:00078240       ?release@?$__crt_unique_heap_ptr@PAU__crt_stdio_stream_data@@U__crt_internal_free_policy@@@@QAEXXZ 10079240 f i libucrtd:_file.obj
 0001:00078270       ___acrt_initialize_stdio   10079270 f   libucrtd:_file.obj
 0001:000783e0       ___acrt_iob_func           100793e0 f   libucrtd:_file.obj
 0001:000783f0       ___acrt_uninitialize_stdio 100793f0 f   libucrtd:_file.obj
 0001:00078470       __get_stream_buffer_pointers 10079470 f   libucrtd:_file.obj
 0001:00078550       __lock_file                10079550 f   libucrtd:_file.obj
 0001:00078580       __unlock_file              10079580 f   libucrtd:_file.obj
 0001:000785b0       __get_printf_count_output  100795b0 f   libucrtd:printf_count_output.obj
 0001:000785e0       __set_printf_count_output  100795e0 f   libucrtd:printf_count_output.obj
 0001:00078640       ?has_any_buffer@__crt_stdio_stream@@QBE_NXZ 10079640 f i libucrtd:_sftbuf.obj
 0001:00078660       ?has_any_of@__crt_stdio_stream@@QBE_NJ@Z 10079660 f i libucrtd:_sftbuf.obj
 0001:000786a0       ?has_temporary_buffer@__crt_stdio_stream@@QBE_NXZ 100796a0 f i libucrtd:_sftbuf.obj
 0001:000786c0       ?set_flags@__crt_stdio_stream@@QBE_NJ@Z 100796c0 f i libucrtd:_sftbuf.obj
 0001:00078710       ?unset_flags@__crt_stdio_stream@@QBE_NJ@Z 10079710 f i libucrtd:_sftbuf.obj
 0001:00078760       ___acrt_stdio_begin_temporary_buffering_nolock 10079760 f   libucrtd:_sftbuf.obj
 0001:00078920       ___acrt_stdio_end_temporary_buffering_nolock 10079920 f   libucrtd:_sftbuf.obj
 0001:000789b0       ??$?RU__crt_locale_data@@@__crt_internal_free_policy@@QBEXQBU__crt_locale_data@@@Z 100799b0 f i libucrtd:wsetlocale.obj
 0001:000789d0       ??$?RU__crt_locale_pointers@@@__crt_internal_free_policy@@QBEXQBU__crt_locale_pointers@@@Z 100799d0 f i libucrtd:wsetlocale.obj
 0001:000789f0       ??$?RU__crt_multibyte_data@@@__crt_internal_free_policy@@QBEXQBU__crt_multibyte_data@@@Z 100799f0 f i libucrtd:wsetlocale.obj
 0001:00078fe0       ??0?$__crt_unique_heap_ptr@U__crt_locale_data@@U__crt_internal_free_policy@@@@QAE@QAU__crt_locale_data@@@Z 10079fe0 f i libucrtd:wsetlocale.obj
 0001:00079000       ??0?$__crt_unique_heap_ptr@U__crt_locale_pointers@@U__crt_internal_free_policy@@@@QAE@QAU__crt_locale_pointers@@@Z 1007a000 f i libucrtd:wsetlocale.obj
 0001:00079020       ??0?$__crt_unique_heap_ptr@U__crt_multibyte_data@@U__crt_internal_free_policy@@@@QAE@QAU__crt_multibyte_data@@@Z 1007a020 f i libucrtd:wsetlocale.obj
 0001:00079040       ??0_expandlocale_locale_name_cache@@QAE@QA_WIQAU__crt_qualified_locale_data@@@Z 1007a040 f i libucrtd:wsetlocale.obj
 0001:000790b0       ??1?$__crt_unique_heap_ptr@U__crt_locale_data@@U__crt_internal_free_policy@@@@QAE@XZ 1007a0b0 f i libucrtd:wsetlocale.obj
 0001:000790d0       ??1?$__crt_unique_heap_ptr@U__crt_locale_pointers@@U__crt_internal_free_policy@@@@QAE@XZ 1007a0d0 f i libucrtd:wsetlocale.obj
 0001:000790f0       ??1?$__crt_unique_heap_ptr@U__crt_multibyte_data@@U__crt_internal_free_policy@@@@QAE@XZ 1007a0f0 f i libucrtd:wsetlocale.obj
 0001:00079110       ??1_expandlocale_locale_name_cache@@QAE@XZ 1007a110 f i libucrtd:wsetlocale.obj
 0001:00079170       ??B?$__crt_unique_heap_ptr@U__crt_locale_data@@U__crt_internal_free_policy@@@@QBE_NXZ 1007a170 f i libucrtd:wsetlocale.obj
 0001:00079190       ??B?$__crt_unique_heap_ptr@U__crt_locale_pointers@@U__crt_internal_free_policy@@@@QBE_NXZ 1007a190 f i libucrtd:wsetlocale.obj
 0001:000791b0       ??B?$__crt_unique_heap_ptr@U__crt_multibyte_data@@U__crt_internal_free_policy@@@@QBE_NXZ 1007a1b0 f i libucrtd:wsetlocale.obj
 0001:000795a0       ?commit_locale_name@_expandlocale_locale_name_cache@@QAEXQB_WI@Z 1007a5a0 f i libucrtd:wsetlocale.obj
 0001:00079600       ?commit_locale_name_cache_already_updated@_expandlocale_locale_name_cache@@QAEXQB_WI@Z 1007a600 f i libucrtd:wsetlocale.obj
 0001:00079660       ?detach@?$__crt_unique_heap_ptr@U__crt_locale_data@@U__crt_internal_free_policy@@@@QAEPAU__crt_locale_data@@XZ 1007a660 f i libucrtd:wsetlocale.obj
 0001:00079690       ?detach@?$__crt_unique_heap_ptr@U__crt_locale_pointers@@U__crt_internal_free_policy@@@@QAEPAU__crt_locale_pointers@@XZ 1007a690 f i libucrtd:wsetlocale.obj
 0001:000796c0       ?detach@?$__crt_unique_heap_ptr@U__crt_multibyte_data@@U__crt_internal_free_policy@@@@QAEPAU__crt_multibyte_data@@XZ 1007a6c0 f i libucrtd:wsetlocale.obj
 0001:000796f0       ?get@?$__crt_unique_heap_ptr@U__crt_locale_data@@U__crt_internal_free_policy@@@@QBEPAU__crt_locale_data@@XZ 1007a6f0 f i libucrtd:wsetlocale.obj
 0001:00079710       ?get@?$__crt_unique_heap_ptr@U__crt_locale_pointers@@U__crt_internal_free_policy@@@@QBEPAU__crt_locale_pointers@@XZ 1007a710 f i libucrtd:wsetlocale.obj
 0001:00079730       ?get@?$__crt_unique_heap_ptr@U__crt_multibyte_data@@U__crt_internal_free_policy@@@@QBEPAU__crt_multibyte_data@@XZ 1007a730 f i libucrtd:wsetlocale.obj
 0001:00079750       ?is_valid@?$__crt_unique_heap_ptr@U__crt_locale_data@@U__crt_internal_free_policy@@@@QBE_NXZ 1007a750 f i libucrtd:wsetlocale.obj
 0001:00079780       ?is_valid@?$__crt_unique_heap_ptr@U__crt_locale_pointers@@U__crt_internal_free_policy@@@@QBE_NXZ 1007a780 f i libucrtd:wsetlocale.obj
 0001:000797b0       ?is_valid@?$__crt_unique_heap_ptr@U__crt_multibyte_data@@U__crt_internal_free_policy@@@@QBE_NXZ 1007a7b0 f i libucrtd:wsetlocale.obj
 0001:000797e0       ?release@?$__crt_unique_heap_ptr@U__crt_locale_data@@U__crt_internal_free_policy@@@@QAEXXZ 1007a7e0 f i libucrtd:wsetlocale.obj
 0001:00079810       ?release@?$__crt_unique_heap_ptr@U__crt_locale_pointers@@U__crt_internal_free_policy@@@@QAEXXZ 1007a810 f i libucrtd:wsetlocale.obj
 0001:00079840       ?release@?$__crt_unique_heap_ptr@U__crt_multibyte_data@@U__crt_internal_free_policy@@@@QAEXXZ 1007a840 f i libucrtd:wsetlocale.obj
 0001:00079870       ___acrt_copy_locale_name   1007a870 f   libucrtd:wsetlocale.obj
 0001:00079910       ___acrt_set_locale_changed 1007a910 f   libucrtd:wsetlocale.obj
 0001:00079930       ___acrt_uninitialize_locale 1007a930 f   libucrtd:wsetlocale.obj
 0001:00079950       ___ascii_tolower           1007a950 f i libucrtd:wsetlocale.obj
 0001:00079970       ___ascii_towlower          1007a970 f i libucrtd:wsetlocale.obj
 0001:00079990       ___lc_lctowcs              1007a990 f   libucrtd:wsetlocale.obj
 0001:00079a40       ___lc_wcstolc              1007aa40 f   libucrtd:wsetlocale.obj
 0001:00079c70       __configthreadlocale       1007ac70 f   libucrtd:wsetlocale.obj
 0001:00079df0       __create_locale            1007adf0 f   libucrtd:wsetlocale.obj
 0001:0007a430       __free_locale              1007b430 f   libucrtd:wsetlocale.obj
 0001:0007a560       __get_current_locale       1007b560 f   libucrtd:wsetlocale.obj
 0001:0007a630       __wcreate_locale           1007b630 f   libucrtd:wsetlocale.obj
 0001:0007a870       __wcscats                  1007b870 f   libucrtd:wsetlocale.obj
 0001:0007a8f0       __wsetlocale               1007b8f0 f   libucrtd:wsetlocale.obj
 0001:0007bff0       ___p___mb_cur_max          1007cff0 f   libucrtd:nlsdata.obj
 0001:0007c2f0       ___acrt_initialize_lowio   1007d2f0 f   libucrtd:ioinit.obj
 0001:0007c390       ___acrt_uninitialize_lowio 1007d390 f   libucrtd:ioinit.obj
 0001:0007c3f0       __CrtGetReportHook         1007d3f0 f   libucrtd:dbgrptt.obj
 0001:0007c400       __CrtSetReportFile         1007d400 f   libucrtd:dbgrptt.obj
 0001:0007c500       __CrtSetReportHook         1007d500 f   libucrtd:dbgrptt.obj
 0001:0007c520       __CrtSetReportMode         1007d520 f   libucrtd:dbgrptt.obj
 0001:0007c660       __VCrtDbgReportA           1007d660 f   libucrtd:dbgrptt.obj
 0001:0007cee0       __VCrtDbgReportW           1007dee0 f   libucrtd:dbgrptt.obj
 0001:0007d890       __snprintf_s               1007e890 f i libucrtd:dbgrptt.obj
 0001:0007d8d0       __vsnprintf_s              1007e8d0 f i libucrtd:dbgrptt.obj
 0001:0007d900       __vsnprintf_s_l            1007e900 f i libucrtd:dbgrptt.obj
 0001:0007da90       ??$__acrt_wcs_to_mbs_cp@U__crt_win32_buffer_no_resizing@@@@YAHQB_WAAV?$__crt_win32_buffer@DU__crt_win32_buffer_no_resizing@@@@I@Z 1007ea90 f i libucrtd:getmodulefilenamea.obj
 0001:0007dac0       ??0?$__crt_win32_buffer@DU__crt_win32_buffer_no_resizing@@@@QAE@QADI@Z 1007eac0 f i libucrtd:getmodulefilenamea.obj
 0001:0007db10       ??1?$__crt_win32_buffer@DU__crt_win32_buffer_no_resizing@@@@QAE@XZ 1007eb10 f i libucrtd:getmodulefilenamea.obj
 0001:0007db80       ?__acrt_get_utf8_acp_compatibility_codepage@@YAIXZ 1007eb80 f i libucrtd:getmodulefilenamea.obj
 0001:0007dc10       ?_deallocate@?$__crt_win32_buffer@DU__crt_win32_buffer_no_resizing@@@@AAEXXZ 1007ec10 f i libucrtd:getmodulefilenamea.obj
 0001:0007dc50       ?allocate@?$__crt_win32_buffer@DU__crt_win32_buffer_no_resizing@@@@QAEHI@Z 1007ec50 f i libucrtd:getmodulefilenamea.obj
 0001:0007dcc0       ?allocate@__crt_win32_buffer_no_resizing@@SAHQAPAXIABV__crt_win32_buffer_empty_debug_info@@@Z 1007ecc0 f i libucrtd:getmodulefilenamea.obj
 0001:0007dce0       ?capacity@?$__crt_win32_buffer@DU__crt_win32_buffer_no_resizing@@@@QBEIXZ 1007ece0 f i libucrtd:getmodulefilenamea.obj
 0001:0007dd00       ?data@?$__crt_win32_buffer@DU__crt_win32_buffer_no_resizing@@@@QAEPADXZ 1007ed00 f i libucrtd:getmodulefilenamea.obj
 0001:0007dd20       ?deallocate@__crt_win32_buffer_no_resizing@@SAXQAXABV__crt_win32_buffer_empty_debug_info@@@Z 1007ed20 f i libucrtd:getmodulefilenamea.obj
 0001:0007dd30       ?debug_info@?$__crt_win32_buffer@DU__crt_win32_buffer_no_resizing@@@@QBEABV__crt_win32_buffer_empty_debug_info@@XZ 1007ed30 f i libucrtd:getmodulefilenamea.obj
 0001:0007dd40       ?set_to_nullptr@?$__crt_win32_buffer@DU__crt_win32_buffer_no_resizing@@@@QAEXXZ 1007ed40 f i libucrtd:getmodulefilenamea.obj
 0001:0007dd80       ?size@?$__crt_win32_buffer@DU__crt_win32_buffer_no_resizing@@@@QAEXI@Z 1007ed80 f i libucrtd:getmodulefilenamea.obj
 0001:0007dda0       ?size@?$__crt_win32_buffer@DU__crt_win32_buffer_no_resizing@@@@QBEIXZ 1007eda0 f i libucrtd:getmodulefilenamea.obj
 0001:0007ddc0       ___acrt_GetModuleFileNameA 1007edc0 f   libucrtd:getmodulefilenamea.obj
 0001:0007e0a0       ??$message_box@$$TABQBDABQBDK@?$__crt_char_traits@D@@SAH$$QA$$TABQBD1$$QAK@Z 1007f0a0 f i libucrtd:crtmbox.obj
 0001:0007e0d0       ??$message_box@$$TABQB_WABQB_WK@?$__crt_char_traits@_W@@SAH$$QA$$TABQB_W1$$QAK@Z 1007f0d0 f i libucrtd:crtmbox.obj
 0001:0007e100       ??$message_box@PAUHWND__@@ABQBDABQBDABI@?$__crt_char_traits@D@@SAH$$QAPAUHWND__@@ABQBD1ABI@Z 1007f100 f i libucrtd:crtmbox.obj
 0001:0007e130       ??$message_box@PAUHWND__@@ABQB_WABQB_WABI@?$__crt_char_traits@_W@@SAH$$QAPAUHWND__@@ABQB_W1ABI@Z 1007f130 f i libucrtd:crtmbox.obj
 0001:0007e160       ??$output_debug_string@ABQBD@?$__crt_char_traits@D@@SAXABQBD@Z 1007f160 f i libucrtd:crtmbox.obj
 0001:0007e180       ??$output_debug_string@ABQB_W@?$__crt_char_traits@_W@@SAXABQB_W@Z 1007f180 f i libucrtd:crtmbox.obj
 0001:0007e1a0       ___acrt_show_narrow_message_box 1007f1a0 f   libucrtd:crtmbox.obj
 0001:0007e1c0       ___acrt_show_wide_message_box 1007f1c0 f   libucrtd:crtmbox.obj
 0001:0007e1e0       ___acrt_initialize_locks   1007f1e0 f   libucrtd:locks.obj
 0001:0007e240       ___acrt_lock               1007f240 f   libucrtd:locks.obj
 0001:0007e260       ___acrt_uninitialize_locks 1007f260 f   libucrtd:locks.obj
 0001:0007e2b0       ___acrt_unlock             1007f2b0 f   libucrtd:locks.obj
 0001:0007e2d0       __lock_locales             1007f2d0 f   libucrtd:locks.obj
 0001:0007e2f0       __unlock_locales           1007f2f0 f   libucrtd:locks.obj
 0001:0007e310       ??$?B$$A6AXH@Z@__crt_fast_encoded_nullptr_t@@QBEP6AXH@ZXZ 1007f310 f i libucrtd:signal.obj
 0001:0007e400       ??$__crt_fast_decode_pointer@P6AXH@Z@@YAP6AXH@ZQ6AXH@Z@Z 1007f400 f i libucrtd:signal.obj
 0001:0007e430       ??$__crt_fast_encode_pointer@P6AXH@Z@@YAP6AXH@ZQ6AXH@Z@Z 1007f430 f i libucrtd:signal.obj
 0001:0007e6e0       ?initialize@?$dual_state_global@P6AXH@Z@__crt_state_management@@QAEXQ6AXH@Z@Z 1007f6e0 f i libucrtd:signal.obj
 0001:0007e820       ?value@?$dual_state_global@P6AXH@Z@__crt_state_management@@QAEAAP6AXH@ZXZ 1007f820 f i libucrtd:signal.obj
 0001:0007e840       ___acrt_get_sigabrt_handler 1007f840 f   libucrtd:signal.obj
 0001:0007e860       ___acrt_initialize_signal_handlers 1007f860 f   libucrtd:signal.obj
 0001:0007e8a0       ___fpecode                 1007f8a0 f   libucrtd:signal.obj
 0001:0007e8b0       ___pxcptinfoptrs           1007f8b0 f   libucrtd:signal.obj
 0001:0007e8c0       _raise                     1007f8c0 f   libucrtd:signal.obj
 0001:0007ec90       _signal                    1007fc90 f   libucrtd:signal.obj
 0001:0007ef10       __msize                    1007ff10 f   libucrtd:msize.obj
 0001:0007ef30       __msize_base               1007ff30 f   libucrtd:msize.obj
 0001:0007efd0       __realloc_base             1007ffd0 f   libucrtd:realloc_base.obj
 0001:0007f090       ??$?B$$A6GHPA_WKJ@Z@__crt_fast_encoded_nullptr_t@@QBEP6GHPA_WKJ@ZXZ 10080090 f i libucrtd:winapi_thunks.obj
 0001:0007f180       ??$__crt_fast_decode_pointer@P6GHPA_WKJ@Z@@YAP6GHPA_WKJ@ZQ6GH0KJ@Z@Z 10080180 f i libucrtd:winapi_thunks.obj
 0001:0007f1b0       ??$__crt_fast_decode_pointer@PAX@@YAPAXQAX@Z 100801b0 f i libucrtd:winapi_thunks.obj
 0001:0007f1e0       ??$__crt_fast_encode_pointer@P6GHPA_WKJ@Z@@YAP6GHPA_WKJ@ZQ6GH0KJ@Z@Z 100801e0 f i libucrtd:winapi_thunks.obj
 0001:0007fb40       _GetCurrentThreadEffectiveToken 10080b40 f i libucrtd:winapi_thunks.obj
 0001:0007fb50       ___acrt_AppPolicyGetProcessTerminationMethodInternal@4 10080b50 f   libucrtd:winapi_thunks.obj
 0001:0007fb90       ___acrt_AppPolicyGetShowDeveloperDiagnosticInternal@4 10080b90 f   libucrtd:winapi_thunks.obj
 0001:0007fbd0       ___acrt_AppPolicyGetThreadInitializationTypeInternal@4 10080bd0 f   libucrtd:winapi_thunks.obj
 0001:0007fc10       ___acrt_AppPolicyGetWindowingModelInternal@4 10080c10 f   libucrtd:winapi_thunks.obj
 0001:0007fc50       ___acrt_AreFileApisANSI@0  10080c50 f   libucrtd:winapi_thunks.obj
 0001:0007fc90       ___acrt_CompareStringEx@36 10080c90 f   libucrtd:winapi_thunks.obj
 0001:0007fd10       ___acrt_EnumSystemLocalesEx@16 10080d10 f   libucrtd:winapi_thunks.obj
 0001:0007fd70       ___acrt_FlsAlloc@4         10080d70 f   libucrtd:winapi_thunks.obj
 0001:0007fdb0       ___acrt_FlsFree@4          10080db0 f   libucrtd:winapi_thunks.obj
 0001:0007fdf0       ___acrt_FlsGetValue@4      10080df0 f   libucrtd:winapi_thunks.obj
 0001:0007fe30       ___acrt_FlsSetValue@8      10080e30 f   libucrtd:winapi_thunks.obj
 0001:0007fe80       ___acrt_GetDateFormatEx@28 10080e80 f   libucrtd:winapi_thunks.obj
 0001:0007ff00       ___acrt_GetEnabledXStateFeatures@0 10080f00 f   libucrtd:winapi_thunks.obj
 0001:0007ff40       ___acrt_GetLocaleInfoEx@16 10080f40 f   libucrtd:winapi_thunks.obj
 0001:0007ffa0       ___acrt_GetSystemTimePreciseAsFileTime@4 10080fa0 f   libucrtd:winapi_thunks.obj
 0001:0007ffe0       ___acrt_GetTimeFormatEx@24 10080fe0 f   libucrtd:winapi_thunks.obj
 0001:00080050       ___acrt_GetUserDefaultLocaleName@8 10081050 f   libucrtd:winapi_thunks.obj
 0001:000800a0       ___acrt_GetXStateFeaturesMask@8 100810a0 f   libucrtd:winapi_thunks.obj
 0001:000800e0       ___acrt_InitializeCriticalSectionEx@12 100810e0 f   libucrtd:winapi_thunks.obj
 0001:00080130       ___acrt_IsValidLocaleName@4 10081130 f   libucrtd:winapi_thunks.obj
 0001:00080180       ___acrt_LCIDToLocaleName@16 10081180 f   libucrtd:winapi_thunks.obj
 0001:000801e0       ___acrt_LCMapStringEx@36   100811e0 f   libucrtd:winapi_thunks.obj
 0001:00080260       ___acrt_LocaleNameToLCID@8 10081260 f   libucrtd:winapi_thunks.obj
 0001:000802b0       ___acrt_LocateXStateFeature@12 100812b0 f   libucrtd:winapi_thunks.obj
 0001:00080300       ___acrt_MessageBoxA@16     10081300 f   libucrtd:winapi_thunks.obj
 0001:00080350       ___acrt_MessageBoxW@16     10081350 f   libucrtd:winapi_thunks.obj
 0001:000803a0       ___acrt_RoInitialize@4     100813a0 f   libucrtd:winapi_thunks.obj
 0001:000803e0       ___acrt_RoUninitialize@0   100813e0 f   libucrtd:winapi_thunks.obj
 0001:00080410       ___acrt_RtlGenRandom@8     10081410 f   libucrtd:winapi_thunks.obj
 0001:00080450       ___acrt_SetThreadStackGuarantee@4 10081450 f   libucrtd:winapi_thunks.obj
 0001:00080490       ___acrt_can_show_message_box 10081490 f   libucrtd:winapi_thunks.obj
 0001:000804d0       ___acrt_can_use_vista_locale_apis 100814d0 f   libucrtd:winapi_thunks.obj
 0001:00080500       ___acrt_can_use_xstate_apis 10081500 f   libucrtd:winapi_thunks.obj
 0001:00080530       ___acrt_eagerly_load_locale_apis 10081530 f   libucrtd:winapi_thunks.obj
 0001:00080570       ___acrt_get_parent_window  10081570 f   libucrtd:winapi_thunks.obj
 0001:000805e0       ___acrt_initialize_winapi_thunks 100815e0 f   libucrtd:winapi_thunks.obj
 0001:00080650       ___acrt_is_interactive     10081650 f   libucrtd:winapi_thunks.obj
 0001:00080700       ___acrt_uninitialize_winapi_thunks 10081700 f   libucrtd:winapi_thunks.obj
 0001:00080770       __chvalidator              10081770 f   libucrtd:isctype.obj
 0001:000807c0       __chvalidator_l            100817c0 f   libucrtd:isctype.obj
 0001:00080840       __isctype                  10081840 f   libucrtd:isctype.obj
 0001:00080880       __isctype_l                10081880 f   libucrtd:isctype.obj
 0001:00080a00       __isleadbyte_fast_internal 10081a00 f i libucrtd:isctype.obj
 0001:00080a20       ??$?RU__crt_stdio_stream_data@@@__crt_internal_free_policy@@QBEXQBU__crt_stdio_stream_data@@@Z 10081a20 f i libucrtd:stream.obj
 0001:00080a40       ??0?$__crt_unique_heap_ptr@U__crt_stdio_stream_data@@U__crt_internal_free_policy@@@@QAE@QAU__crt_stdio_stream_data@@@Z 10081a40 f i libucrtd:stream.obj
 0001:00080a60       ??0__crt_stdio_stream@@QAE@QAU__crt_stdio_stream_data@@@Z 10081a60 f i libucrtd:stream.obj
 0001:00080a80       ??0__crt_stdio_stream@@QAE@XZ 10081a80 f i libucrtd:stream.obj
 0001:00080aa0       ??1?$__crt_unique_heap_ptr@U__crt_stdio_stream_data@@U__crt_internal_free_policy@@@@QAE@XZ 10081aa0 f i libucrtd:stream.obj
 0001:00080ac0       ?__acrt_stdio_allocate_stream@@YA?AV__crt_stdio_stream@@XZ 10081ac0 f   libucrtd:stream.obj
 0001:00080bb0       ?__acrt_stdio_free_stream@@YAXV__crt_stdio_stream@@@Z 10081bb0 f   libucrtd:stream.obj
 0001:00080c30       ?deallocate@__crt_stdio_stream@@QAEXXZ 10081c30 f i libucrtd:stream.obj
 0001:00080c50       ?detach@?$__crt_unique_heap_ptr@U__crt_stdio_stream_data@@U__crt_internal_free_policy@@@@QAEPAU__crt_stdio_stream_data@@XZ 10081c50 f i libucrtd:stream.obj
 0001:00080dc0       ?lock@__crt_stdio_stream@@QBEXXZ 10081dc0 f i libucrtd:stream.obj
 0001:00080de0       ?release@?$__crt_unique_heap_ptr@U__crt_stdio_stream_data@@U__crt_internal_free_policy@@@@QAEXXZ 10081de0 f i libucrtd:stream.obj
 0001:00080e10       ?try_allocate@__crt_stdio_stream@@QAE_NXZ 10081e10 f i libucrtd:stream.obj
 0001:00080e60       ??$__acrt_stdio_parse_mode@D@@YA?AU__acrt_stdio_stream_mode@@QBD@Z 10081e60 f i libucrtd:openfile.obj
 0001:000816d0       ??$__acrt_stdio_parse_mode@_W@@YA?AU__acrt_stdio_stream_mode@@QB_W@Z 100826d0 f i libucrtd:openfile.obj
 0001:00082260       ??$tcsncmp@AAPBDAAY02$$CBDI@?$__crt_char_traits@D@@SAHAAPBDAAY02$$CBD$$QAI@Z 10083260 f i libucrtd:openfile.obj
 0001:00082280       ??$tcsncmp@AAPB_WAAY02$$CB_WI@?$__crt_char_traits@_W@@SAHAAPB_WAAY02$$CB_W$$QAI@Z 10083280 f i libucrtd:openfile.obj
 0001:000822a0       ??$tcsnicmp@AAPBDAAY04$$CBDI@?$__crt_char_traits@D@@SAHAAPBDAAY04$$CBD$$QAI@Z 100832a0 f i libucrtd:openfile.obj
 0001:000822c0       ??$tcsnicmp@AAPBDAAY06$$CBDI@?$__crt_char_traits@D@@SAHAAPBDAAY06$$CBD$$QAI@Z 100832c0 f i libucrtd:openfile.obj
 0001:000822e0       ??$tcsnicmp@AAPBDAAY07$$CBDI@?$__crt_char_traits@D@@SAHAAPBDAAY07$$CBD$$QAI@Z 100832e0 f i libucrtd:openfile.obj
 0001:00082300       ??$tcsnicmp@AAPB_WAAY04$$CB_WI@?$__crt_char_traits@_W@@SAHAAPB_WAAY04$$CB_W$$QAI@Z 10083300 f i libucrtd:openfile.obj
 0001:00082320       ??$tcsnicmp@AAPB_WAAY06$$CB_WI@?$__crt_char_traits@_W@@SAHAAPB_WAAY06$$CB_W$$QAI@Z 10083320 f i libucrtd:openfile.obj
 0001:00082340       ??$tcsnicmp@AAPB_WAAY07$$CB_WI@?$__crt_char_traits@_W@@SAHAAPB_WAAY07$$CB_W$$QAI@Z 10083340 f i libucrtd:openfile.obj
 0001:00082360       ??$tsopen_s@PAHABQBDABHABHH@?$__crt_char_traits@D@@SAH$$QAPAHABQBDABH2$$QAH@Z 10083360 f i libucrtd:openfile.obj
 0001:00082390       ??$tsopen_s@PAHABQB_WABHABHH@?$__crt_char_traits@_W@@SAH$$QAPAHABQB_WABH2$$QAH@Z 10083390 f i libucrtd:openfile.obj
 0001:000823c0       ?__acrt_stdio_parse_mode_D@@YA_NAAU__acrt_stdio_stream_mode@@@Z 100833c0 f i libucrtd:openfile.obj
 0001:000823f0       ?__acrt_stdio_parse_mode_N@@YA_NAAU__acrt_stdio_stream_mode@@@Z 100833f0 f i libucrtd:openfile.obj
 0001:00082410       ?__acrt_stdio_parse_mode_R@@YA_NAAU__acrt_stdio_stream_mode@@AA_N@Z 10083410 f i libucrtd:openfile.obj
 0001:00082440       ?__acrt_stdio_parse_mode_S@@YA_NAAU__acrt_stdio_stream_mode@@AA_N@Z 10083440 f i libucrtd:openfile.obj
 0001:00082470       ?__acrt_stdio_parse_mode_T@@YA_NAAU__acrt_stdio_stream_mode@@@Z 10083470 f i libucrtd:openfile.obj
 0001:000824a0       ?__acrt_stdio_parse_mode_b@@YA_NAAU__acrt_stdio_stream_mode@@@Z 100834a0 f i libucrtd:openfile.obj
 0001:000824d0       ?__acrt_stdio_parse_mode_c@@YA_NAAU__acrt_stdio_stream_mode@@AA_N@Z 100834d0 f i libucrtd:openfile.obj
 0001:00082500       ?__acrt_stdio_parse_mode_n@@YA_NAAU__acrt_stdio_stream_mode@@AA_N@Z 10083500 f i libucrtd:openfile.obj
 0001:00082530       ?__acrt_stdio_parse_mode_plus@@YA_NAAU__acrt_stdio_stream_mode@@AA_N@Z 10083530 f i libucrtd:openfile.obj
 0001:000825a0       ?__acrt_stdio_parse_mode_t@@YA_NAAU__acrt_stdio_stream_mode@@@Z 100835a0 f i libucrtd:openfile.obj
 0001:000825d0       ?__acrt_stdio_parse_mode_x@@YA_NAAU__acrt_stdio_stream_mode@@@Z 100835d0 f i libucrtd:openfile.obj
 0001:00082600       __openfile                 10083600 f   libucrtd:openfile.obj
 0001:00082630       __wopenfile                10083630 f   libucrtd:openfile.obj
 0001:00082910       __close                    10083910 f   libucrtd:close.obj
 0001:00082a90       __close_nolock             10083a90 f   libucrtd:close.obj
 0001:00082af0       ?has_crt_buffer@__crt_stdio_stream@@QBE_NXZ 10083af0 f i libucrtd:_freebuf.obj
 0001:00082b10       ___acrt_stdio_free_buffer_nolock 10083b10 f   libucrtd:_freebuf.obj
 0001:00083170       ?__acrt_stdio_reset_buffer@@YAXV__crt_stdio_stream@@@Z 10084170 f i libucrtd:fflush.obj
 0001:00083270       ?has_all_of@__crt_stdio_stream@@QBE_NJ@Z 10084270 f i libucrtd:fflush.obj
 0001:00083340       ___acrt_stdio_flush_nolock 10084340 f   libucrtd:fflush.obj
 0001:00083410       __fflush_nolock            10084410 f   libucrtd:fflush.obj
 0001:00083490       __flushall                 10084490 f   libucrtd:fflush.obj
 0001:000834b0       _fflush                    100844b0 f   libucrtd:fflush.obj
 0001:00083c60       ?has_big_buffer@__crt_stdio_stream@@QBE_NXZ 10084c60 f i libucrtd:_flsbuf.obj
 0001:00083d60       ___acrt_stdio_flush_and_write_narrow_nolock 10084d60 f   libucrtd:_flsbuf.obj
 0001:00083d90       ___acrt_stdio_flush_and_write_wide_nolock 10084d90 f   libucrtd:_flsbuf.obj
 0001:000840c0       ___acrt_get_begin_thread_init_policy 100850c0 f   libucrtd:win_policies.obj
 0001:000840e0       ___acrt_get_developer_information_policy 100850e0 f   libucrtd:win_policies.obj
 0001:00084100       ___acrt_get_process_end_policy 10085100 f   libucrtd:win_policies.obj
 0001:00084120       ___acrt_get_windowing_model_policy 10085120 f   libucrtd:win_policies.obj
 0001:000843f0       ??$__acrt_mbs_to_wcs_cp@U__crt_win32_buffer_internal_dynamic_resizing@@@@YAHQBDAAV?$__crt_win32_buffer@_WU__crt_win32_buffer_internal_dynamic_resizing@@@@I@Z 100853f0 f i libucrtd:argv_wildcards.obj
 0001:00084420       ??$__acrt_wcs_to_mbs_cp@U__crt_win32_buffer_internal_dynamic_resizing@@@@YAHQB_WAAV?$__crt_win32_buffer@DU__crt_win32_buffer_internal_dynamic_resizing@@@@I@Z 10085420 f i libucrtd:argv_wildcards.obj
 0001:00085370       ??$tcsncpy_s@AAPADIAAPADABI@?$__crt_char_traits@D@@SAHAAPAD$$QAI0ABI@Z 10086370 f i libucrtd:argv_wildcards.obj
 0001:000853a0       ??$tcsncpy_s@AAPA_WIAAPA_WABI@?$__crt_char_traits@_W@@SAHAAPA_W$$QAI0ABI@Z 100863a0 f i libucrtd:argv_wildcards.obj
 0001:000853d0       ??$tcsncpy_s@PADABIABQBDABI@?$__crt_char_traits@D@@SAH$$QAPADABIABQBD1@Z 100863d0 f i libucrtd:argv_wildcards.obj
 0001:00085400       ??$tcsncpy_s@PADIABQBDABI@?$__crt_char_traits@D@@SAH$$QAPAD$$QAIABQBDABI@Z 10086400 f i libucrtd:argv_wildcards.obj
 0001:00085430       ??$tcsncpy_s@PA_WABIABQB_WABI@?$__crt_char_traits@_W@@SAH$$QAPA_WABIABQB_W1@Z 10086430 f i libucrtd:argv_wildcards.obj
 0001:00085460       ??$tcsncpy_s@PA_WIABQB_WABI@?$__crt_char_traits@_W@@SAH$$QAPA_W$$QAIABQB_WABI@Z 10086460 f i libucrtd:argv_wildcards.obj
 0001:00085490       ??$tcspbrk@AAPADAAY02$$CBD@?$__crt_char_traits@D@@SAPADAAPADAAY02$$CBD@Z 10086490 f i libucrtd:argv_wildcards.obj
 0001:000854b0       ??$tcspbrk@AAPA_WAAY02$$CB_W@?$__crt_char_traits@_W@@SAPA_WAAPA_WAAY02$$CB_W@Z 100864b0 f i libucrtd:argv_wildcards.obj
 0001:000854d0       ??0?$__crt_unique_handle_t@U__crt_findfile_traits@@@@QAE@QAX@Z 100864d0 f i libucrtd:argv_wildcards.obj
 0001:000854f0       ??0?$__crt_win32_buffer@DU__crt_win32_buffer_internal_dynamic_resizing@@@@QAE@XZ 100864f0 f i libucrtd:argv_wildcards.obj
 0001:00085540       ??0?$__crt_win32_buffer@_WU__crt_win32_buffer_internal_dynamic_resizing@@@@QAE@XZ 10086540 f i libucrtd:argv_wildcards.obj
 0001:000855f0       ??1?$__crt_unique_handle_t@U__crt_findfile_traits@@@@QAE@XZ 100865f0 f i libucrtd:argv_wildcards.obj
 0001:00085610       ??1?$__crt_win32_buffer@DU__crt_win32_buffer_internal_dynamic_resizing@@@@QAE@XZ 10086610 f i libucrtd:argv_wildcards.obj
 0001:00085650       ??1?$__crt_win32_buffer@_WU__crt_win32_buffer_internal_dynamic_resizing@@@@QAE@XZ 10086650 f i libucrtd:argv_wildcards.obj
 0001:000858b0       ?_deallocate@?$__crt_win32_buffer@DU__crt_win32_buffer_internal_dynamic_resizing@@@@AAEXXZ 100868b0 f i libucrtd:argv_wildcards.obj
 0001:000858f0       ?_deallocate@?$__crt_win32_buffer@_WU__crt_win32_buffer_internal_dynamic_resizing@@@@AAEXXZ 100868f0 f i libucrtd:argv_wildcards.obj
 0001:00085930       ?allocate@?$__crt_win32_buffer@DU__crt_win32_buffer_internal_dynamic_resizing@@@@QAEHI@Z 10086930 f i libucrtd:argv_wildcards.obj
 0001:000859a0       ?allocate@?$__crt_win32_buffer@_WU__crt_win32_buffer_internal_dynamic_resizing@@@@QAEHI@Z 100869a0 f i libucrtd:argv_wildcards.obj
 0001:00085a10       ?allocate@__crt_win32_buffer_internal_dynamic_resizing@@SAHQAPAXIABV__crt_win32_buffer_empty_debug_info@@@Z 10086a10 f i libucrtd:argv_wildcards.obj
 0001:00085b50       ?capacity@?$__crt_win32_buffer@DU__crt_win32_buffer_internal_dynamic_resizing@@@@QBEIXZ 10086b50 f i libucrtd:argv_wildcards.obj
 0001:00085b70       ?capacity@?$__crt_win32_buffer@_WU__crt_win32_buffer_internal_dynamic_resizing@@@@QBEIXZ 10086b70 f i libucrtd:argv_wildcards.obj
 0001:00085b90       ?close@?$__crt_unique_handle_t@U__crt_findfile_traits@@@@QAEXXZ 10086b90 f i libucrtd:argv_wildcards.obj
 0001:00085bd0       ?close@__crt_findfile_traits@@SA_NPAX@Z 10086bd0 f i libucrtd:argv_wildcards.obj
 0001:00085c00       ?data@?$__crt_win32_buffer@DU__crt_win32_buffer_internal_dynamic_resizing@@@@QAEPADXZ 10086c00 f i libucrtd:argv_wildcards.obj
 0001:00085c20       ?data@?$__crt_win32_buffer@_WU__crt_win32_buffer_internal_dynamic_resizing@@@@QAEPA_WXZ 10086c20 f i libucrtd:argv_wildcards.obj
 0001:00085c40       ?deallocate@__crt_win32_buffer_internal_dynamic_resizing@@SAXQAXABV__crt_win32_buffer_empty_debug_info@@@Z 10086c40 f i libucrtd:argv_wildcards.obj
 0001:00085c60       ?debug_info@?$__crt_win32_buffer@DU__crt_win32_buffer_internal_dynamic_resizing@@@@QBEABV__crt_win32_buffer_empty_debug_info@@XZ 10086c60 f i libucrtd:argv_wildcards.obj
 0001:00085c70       ?debug_info@?$__crt_win32_buffer@_WU__crt_win32_buffer_internal_dynamic_resizing@@@@QBEABV__crt_win32_buffer_empty_debug_info@@XZ 10086c70 f i libucrtd:argv_wildcards.obj
 0001:00085f80       ?get@?$__crt_unique_handle_t@U__crt_findfile_traits@@@@QBEPAXXZ 10086f80 f i libucrtd:argv_wildcards.obj
 0001:00085ff0       ?get_invalid_value@__crt_findfile_traits@@SAPAXXZ 10086ff0 f i libucrtd:argv_wildcards.obj
 0001:00086080       ?set_to_nullptr@?$__crt_win32_buffer@DU__crt_win32_buffer_internal_dynamic_resizing@@@@QAEXXZ 10087080 f i libucrtd:argv_wildcards.obj
 0001:000860c0       ?set_to_nullptr@?$__crt_win32_buffer@_WU__crt_win32_buffer_internal_dynamic_resizing@@@@QAEXXZ 100870c0 f i libucrtd:argv_wildcards.obj
 0001:00086100       ?size@?$__crt_win32_buffer@DU__crt_win32_buffer_internal_dynamic_resizing@@@@QAEXI@Z 10087100 f i libucrtd:argv_wildcards.obj
 0001:00086120       ?size@?$__crt_win32_buffer@_WU__crt_win32_buffer_internal_dynamic_resizing@@@@QAEXI@Z 10087120 f i libucrtd:argv_wildcards.obj
 0001:00086180       ?strpbrk@@YAPADQADQBD@Z    10087180 f i libucrtd:argv_wildcards.obj
 0001:000861a0       ?wcspbrk@@YAPA_WPA_WPB_W@Z 100871a0 f i libucrtd:argv_wildcards.obj
 0001:000861c0       ___acrt_expand_narrow_argv_wildcards 100871c0 f   libucrtd:argv_wildcards.obj
 0001:000861e0       ___acrt_expand_wide_argv_wildcards 100871e0 f   libucrtd:argv_wildcards.obj
 0001:000862c0       ??$initialize_from_array@$$BY10BAA@E@?$dual_state_global@PAE@__crt_state_management@@QAAXAAY10BAA@E@Z 100872c0 f i libucrtd:mbctype.obj
 0001:00086310       ??$initialize_from_array@$$BY10BAB@E@?$dual_state_global@PAE@__crt_state_management@@QAAXAAY10BAB@E@Z 10087310 f i libucrtd:mbctype.obj
 0001:00086580       ?dangerous_get_state_array@?$dual_state_global@PAE@__crt_state_management@@QAEPAPAEXZ 10087580 f i libucrtd:mbctype.obj
 0001:00086590       ?dangerous_get_state_array@?$dual_state_global@PAU__crt_multibyte_data@@@__crt_state_management@@QAEPAPAU__crt_multibyte_data@@XZ 10087590 f i libucrtd:mbctype.obj
 0001:00086660       ?initialize@?$dual_state_global@PAU__crt_multibyte_data@@@__crt_state_management@@QAEXQAU__crt_multibyte_data@@@Z 10087660 f i libucrtd:mbctype.obj
 0001:00086dc0       ?value@?$dual_state_global@PAE@__crt_state_management@@QAEAAPAEXZ 10087dc0 f i libucrtd:mbctype.obj
 0001:00086de0       ___acrt_initialize_multibyte 10087de0 f   libucrtd:mbctype.obj
 0001:00086e90       ___acrt_update_thread_multibyte_data 10087e90 f   libucrtd:mbctype.obj
 0001:00086eb0       ___p__mbcasemap            10087eb0 f   libucrtd:mbctype.obj
 0001:00086ed0       ___p__mbctype              10087ed0 f   libucrtd:mbctype.obj
 0001:00086ef0       __getmbcp                  10087ef0 f   libucrtd:mbctype.obj
 0001:00086f60       __setmbcp                  10087f60 f   libucrtd:mbctype.obj
 0001:00086f90       __setmbcp_nolock           10087f90 f   libucrtd:mbctype.obj
 0001:00087501       __ismbbalnum               10088501 f   libucrtd:ismbbyte.obj
 0001:0008751c       __ismbbalnum_l             1008851c f   libucrtd:ismbbyte.obj
 0001:00087538       __ismbbalpha               10088538 f   libucrtd:ismbbyte.obj
 0001:00087553       __ismbbalpha_l             10088553 f   libucrtd:ismbbyte.obj
 0001:0008756f       __ismbbblank               1008856f f   libucrtd:ismbbyte.obj
 0001:00087592       __ismbbblank_l             10088592 f   libucrtd:ismbbyte.obj
 0001:000875b6       __ismbbgraph               100885b6 f   libucrtd:ismbbyte.obj
 0001:000875d1       __ismbbgraph_l             100885d1 f   libucrtd:ismbbyte.obj
 0001:000875ed       __ismbbkalnum              100885ed f   libucrtd:ismbbyte.obj
 0001:00087605       __ismbbkalnum_l            10088605 f   libucrtd:ismbbyte.obj
 0001:0008761e       __ismbbkana                1008861e f   libucrtd:ismbbyte.obj
 0001:00087631       __ismbbkana_l              10088631 f   libucrtd:ismbbyte.obj
 0001:00087680       __ismbbkprint              10088680 f   libucrtd:ismbbyte.obj
 0001:00087698       __ismbbkprint_l            10088698 f   libucrtd:ismbbyte.obj
 0001:000876b1       __ismbbkpunct              100886b1 f   libucrtd:ismbbyte.obj
 0001:000876c9       __ismbbkpunct_l            100886c9 f   libucrtd:ismbbyte.obj
 0001:000876e2       __ismbblead                100886e2 f   libucrtd:ismbbyte.obj
 0001:000876fa       __ismbblead_l              100886fa f   libucrtd:ismbbyte.obj
 0001:00087713       __ismbbprint               10088713 f   libucrtd:ismbbyte.obj
 0001:0008772e       __ismbbprint_l             1008872e f   libucrtd:ismbbyte.obj
 0001:0008774a       __ismbbpunct               1008874a f   libucrtd:ismbbyte.obj
 0001:00087762       __ismbbpunct_l             10088762 f   libucrtd:ismbbyte.obj
 0001:0008777b       __ismbbtrail               1008877b f   libucrtd:ismbbyte.obj
 0001:00087793       __ismbbtrail_l             10088793 f   libucrtd:ismbbyte.obj
 0001:000877b0       ___acrt_initialize_command_line 100887b0 f   libucrtd:argv_data.obj
 0001:000877d0       ___acrt_uninitialize_command_line 100887d0 f   libucrtd:argv_data.obj
 0001:000877e0       ___p___argc                100887e0 f   libucrtd:argv_data.obj
 0001:000877f0       ___p___argv                100887f0 f   libucrtd:argv_data.obj
 0001:00087800       ___p___wargv               10088800 f   libucrtd:argv_data.obj
 0001:00087810       ___p__acmdln               10088810 f   libucrtd:argv_data.obj
 0001:00087820       ___p__pgmptr               10088820 f   libucrtd:argv_data.obj
 0001:00087830       ___p__wcmdln               10088830 f   libucrtd:argv_data.obj
 0001:00087840       ___p__wpgmptr              10088840 f   libucrtd:argv_data.obj
 0001:00087850       __get_pgmptr               10088850 f   libucrtd:argv_data.obj
 0001:00087960       __get_wpgmptr              10088960 f   libucrtd:argv_data.obj
 0001:00087b20       ___acrt_MultiByteToWideChar 10088b20 f   libucrtd:multibytetowidechar.obj
 0001:00087c20       ___acrt_WideCharToMultiByte 10088c20 f   libucrtd:widechartomultibyte.obj
 0001:00087d62       ___dcrt_get_narrow_environment_from_os 10088d62 f   libucrtd:get_environment_from_os.obj
 0001:00087df4       ___dcrt_get_wide_environment_from_os 10088df4 f   libucrtd:get_environment_from_os.obj
 0001:00088789       ??$get_or_create_environment_nolock@$$V@?$__crt_char_traits@D@@SAPAPADXZ 10089789 f i libucrtd:setenv.obj
 0001:0008878e       ??$get_or_create_environment_nolock@$$V@?$__crt_char_traits@_W@@SAPAPA_WXZ 1008978e f i libucrtd:setenv.obj
 0001:00088793       ??$set_environment_variable@ABQADQAD@?$__crt_char_traits@D@@SAHABQAD$$QBQAD@Z 10089793 f i libucrtd:setenv.obj
 0001:000887ab       ??$set_environment_variable@ABQA_WQA_W@?$__crt_char_traits@_W@@SAHABQA_W$$QBQA_W@Z 100897ab f i libucrtd:setenv.obj
 0001:000887c2       ??$tcschr@ABQADD@?$__crt_char_traits@D@@SAPADABQAD$$QAD@Z 100897c2 f i libucrtd:setenv.obj
 0001:000887dc       ??$tcschr@ABQA_WD@?$__crt_char_traits@_W@@SAPA_WABQA_W$$QAD@Z 100897dc f i libucrtd:setenv.obj
 0001:000887fa       ??$tcscpy_s@AAPADABIAAPAD@?$__crt_char_traits@D@@SAHAAPADABI0@Z 100897fa f i libucrtd:setenv.obj
 0001:00088818       ??$tcscpy_s@AAPA_WABIAAPA_W@?$__crt_char_traits@_W@@SAHAAPA_WABI0@Z 10089818 f i libucrtd:setenv.obj
 0001:00088836       ??$tcscpy_s@ABQADABIABQAD@?$__crt_char_traits@D@@SAHABQADABI0@Z 10089836 f i libucrtd:setenv.obj
 0001:00088854       ??$tcscpy_s@ABQA_WABIABQA_W@?$__crt_char_traits@_W@@SAHABQA_WABI0@Z 10089854 f i libucrtd:setenv.obj
 0001:00088872       ??$tcslen@ABQAD@?$__crt_char_traits@D@@SAIABQAD@Z 10089872 f i libucrtd:setenv.obj
 0001:0008888a       ??$tcslen@ABQA_W@?$__crt_char_traits@_W@@SAIABQA_W@Z 1008988a f i libucrtd:setenv.obj
 0001:000888a8       ??$tcsnicoll@ABQBDAAPADABI@?$__crt_char_traits@D@@SAHABQBDAAPADABI@Z 100898a8 f i libucrtd:setenv.obj
 0001:000888c6       ??$tcsnicoll@ABQB_WAAPA_WABI@?$__crt_char_traits@_W@@SAHABQB_WAAPA_WABI@Z 100898c6 f i libucrtd:setenv.obj
 0001:000888e4       ??$tcsnlen@PADH@?$__crt_char_traits@D@@SAI$$QAPAD$$QAH@Z 100898e4 f i libucrtd:setenv.obj
 0001:000888fc       ??$tcsnlen@PA_WH@?$__crt_char_traits@_W@@SAI$$QAPA_W$$QAH@Z 100898fc f i libucrtd:setenv.obj
 0001:00088938       ?strchr@@YAPADQADH@Z       10089938 f i libucrtd:setenv.obj
 0001:00088943       ?wcschr@@YAPA_WPA_W_W@Z    10089943 f i libucrtd:setenv.obj
 0001:0008894e       ___dcrt_set_variable_in_narrow_environment_nolock 1008994e f   libucrtd:setenv.obj
 0001:00088959       ___dcrt_set_variable_in_wide_environment_nolock 10089959 f   libucrtd:setenv.obj
 0001:00088970       ___acrt_getheap            10089970 f   libucrtd:heap_handle.obj
 0001:000889b0       ___acrt_initialize_heap    100899b0 f   libucrtd:heap_handle.obj
 0001:000889e0       ___acrt_uninitialize_heap  100899e0 f   libucrtd:heap_handle.obj
 0001:00088a00       __get_heap_handle          10089a00 f   libucrtd:heap_handle.obj
 0001:00088a40       ___acrt_execute_initializers 10089a40 f   libucrtd:shared_initialization.obj
 0001:00088af0       ___acrt_execute_uninitializers 10089af0 f   libucrtd:shared_initialization.obj
 0001:00088b50       ??$__crt_fast_decode_pointer@P6AHPAU_exception@@@Z@@YAP6AHPAU_exception@@@ZQ6AH0@Z@Z 10089b50 f i libucrtd:matherr.obj
 0001:00088b80       ??$__crt_fast_encode_pointer@P6AHPAU_exception@@@Z@@YAP6AHPAU_exception@@@ZQ6AH0@Z@Z 10089b80 f i libucrtd:matherr.obj
 0001:00088bb0       ?initialize@?$dual_state_global@P6AHPAU_exception@@@Z@__crt_state_management@@QAEXQ6AHPAU_exception@@@Z@Z 10089bb0 f i libucrtd:matherr.obj
 0001:00088bf0       ?value@?$dual_state_global@P6AHPAU_exception@@@Z@__crt_state_management@@QAEAAP6AHPAU_exception@@@ZXZ 10089bf0 f i libucrtd:matherr.obj
 0001:00088c10       ___acrt_has_user_matherr   10089c10 f   libucrtd:matherr.obj
 0001:00088c50       ___acrt_initialize_user_matherr 10089c50 f   libucrtd:matherr.obj
 0001:00088c70       ___acrt_invoke_user_matherr 10089c70 f   libucrtd:matherr.obj
 0001:00088cc0       ___setusermatherr          10089cc0 f   libucrtd:matherr.obj
 0001:00088d00       __free_base                10089d00 f   libucrtd:free_base.obj
 0001:00088db0       __expand                   10089db0 f   libucrtd:expand.obj
 0001:00088dd0       __expand_base              10089dd0 f   libucrtd:expand.obj
 0001:00088f00       ?value@?$dual_state_global@J@__crt_state_management@@QAEAAJXZ 10089f00 f i libucrtd:new_mode.obj
 0001:00088f20       __query_new_mode           10089f20 f   libucrtd:new_mode.obj
 0001:00088f40       __set_new_mode             10089f40 f   libucrtd:new_mode.obj
 0001:00088fe0       __CrtDefaultAllocHook      10089fe0 f   libucrtd:debug_heap_hook.obj
 0001:00088fec       __mbsdec                   10089fec f   libucrtd:mbsdec.obj
 0001:00089003       __mbsdec_l                 1008a003 f   libucrtd:mbsdec.obj
 0001:000894f0       _strncpy_s                 1008a4f0 f   libucrtd:strncpy_s.obj
 0001:000896c0       ___acrt_report_runtime_error 1008a6c0 f   libucrtd:report_runtime_error.obj
 0001:000898b0       __query_app_type           1008a8b0 f   libucrtd:report_runtime_error.obj
 0001:000898c0       __set_app_type             1008a8c0 f   libucrtd:report_runtime_error.obj
 0001:000898d0       __iswctype_l               1008a8d0 f   libucrtd:iswctype.obj
 0001:000898f0       _iswctype                  1008a8f0 f   libucrtd:iswctype.obj
 0001:00089960       ___iswcsym                 1008a960 f i libucrtd:_wctype.obj
 0001:000899a0       ___iswcsymf                1008a9a0 f i libucrtd:_wctype.obj
 0001:000899e0       __isleadbyte_l             1008a9e0 f i libucrtd:_wctype.obj
 0001:00089a30       __iswalnum_l               1008aa30 f i libucrtd:_wctype.obj
 0001:00089a50       __iswalpha_l               1008aa50 f i libucrtd:_wctype.obj
 0001:00089a70       __iswblank_l               1008aa70 f i libucrtd:_wctype.obj
 0001:00089ab0       __iswcntrl_l               1008aab0 f i libucrtd:_wctype.obj
 0001:00089ad0       __iswcsym_l                1008aad0 f i libucrtd:_wctype.obj
 0001:00089b10       __iswcsymf_l               1008ab10 f i libucrtd:_wctype.obj
 0001:00089b50       __iswdigit_l               1008ab50 f i libucrtd:_wctype.obj
 0001:00089b70       __iswgraph_l               1008ab70 f i libucrtd:_wctype.obj
 0001:00089b90       __iswlower_l               1008ab90 f i libucrtd:_wctype.obj
 0001:00089bb0       __iswprint_l               1008abb0 f i libucrtd:_wctype.obj
 0001:00089bd0       __iswpunct_l               1008abd0 f i libucrtd:_wctype.obj
 0001:00089bf0       __iswspace_l               1008abf0 f i libucrtd:_wctype.obj
 0001:00089c10       __iswupper_l               1008ac10 f i libucrtd:_wctype.obj
 0001:00089c30       __iswxdigit_l              1008ac30 f i libucrtd:_wctype.obj
 0001:00089c50       _isleadbyte                1008ac50 f i libucrtd:_wctype.obj
 0001:00089c70       _iswalnum                  1008ac70 f i libucrtd:_wctype.obj
 0001:00089c90       _iswalpha                  1008ac90 f i libucrtd:_wctype.obj
 0001:00089cb0       _iswascii                  1008acb0 f i libucrtd:_wctype.obj
 0001:00089ce0       _iswblank                  1008ace0 f i libucrtd:_wctype.obj
 0001:00089d20       _iswcntrl                  1008ad20 f i libucrtd:_wctype.obj
 0001:00089d40       _iswdigit                  1008ad40 f i libucrtd:_wctype.obj
 0001:00089d60       _iswgraph                  1008ad60 f i libucrtd:_wctype.obj
 0001:00089d80       _iswlower                  1008ad80 f i libucrtd:_wctype.obj
 0001:00089da0       _iswprint                  1008ada0 f i libucrtd:_wctype.obj
 0001:00089dc0       _iswpunct                  1008adc0 f i libucrtd:_wctype.obj
 0001:00089de0       _iswspace                  1008ade0 f i libucrtd:_wctype.obj
 0001:00089e00       _iswupper                  1008ae00 f i libucrtd:_wctype.obj
 0001:00089e20       _iswxdigit                 1008ae20 f i libucrtd:_wctype.obj
 0001:00089eb0       ?__mbrtowc_utf8@__crt_mbstring@@YAIPA_WPBDIPAU_Mbstatet@@@Z 1008aeb0 f   libucrtd:mbrtowc.obj
 0001:00089f00       ?__mbsrtowcs_utf8@__crt_mbstring@@YAIPA_WPAPBDIPAU_Mbstatet@@@Z 1008af00 f   libucrtd:mbrtowc.obj
 0001:0008a770       _btowc                     1008b770 f   libucrtd:mbrtowc.obj
 0001:0008a7e0       _mbrlen                    1008b7e0 f   libucrtd:mbrtowc.obj
 0001:0008a830       _mbrtowc                   1008b830 f   libucrtd:mbrtowc.obj
 0001:0008a8c0       _mbsrtowcs                 1008b8c0 f   libucrtd:mbrtowc.obj
 0001:0008a8e0       _mbsrtowcs_s               1008b8e0 f   libucrtd:mbrtowc.obj
 0001:0008ac30       ??$?RG@__crt_internal_free_policy@@QBEXQBG@Z 1008bc30 f i libucrtd:initctype.obj
 0001:0008ac50       ??$?RJ@__crt_internal_free_policy@@QBEXQBJ@Z 1008bc50 f i libucrtd:initctype.obj
 0001:0008ac70       ??0?$__crt_unique_heap_ptr@GU__crt_internal_free_policy@@@@QAE@QAG@Z 1008bc70 f i libucrtd:initctype.obj
 0001:0008ac90       ??0?$__crt_unique_heap_ptr@JU__crt_internal_free_policy@@@@QAE@QAJ@Z 1008bc90 f i libucrtd:initctype.obj
 0001:0008acb0       ??1?$__crt_unique_heap_ptr@GU__crt_internal_free_policy@@@@QAE@XZ 1008bcb0 f i libucrtd:initctype.obj
 0001:0008acd0       ??1?$__crt_unique_heap_ptr@JU__crt_internal_free_policy@@@@QAE@XZ 1008bcd0 f i libucrtd:initctype.obj
 0001:0008acf0       ?detach@?$__crt_unique_heap_ptr@GU__crt_internal_free_policy@@@@QAEPAGXZ 1008bcf0 f i libucrtd:initctype.obj
 0001:0008ad20       ?detach@?$__crt_unique_heap_ptr@JU__crt_internal_free_policy@@@@QAEPAJXZ 1008bd20 f i libucrtd:initctype.obj
 0001:0008ad50       ?release@?$__crt_unique_heap_ptr@GU__crt_internal_free_policy@@@@QAEXXZ 1008bd50 f i libucrtd:initctype.obj
 0001:0008ad80       ?release@?$__crt_unique_heap_ptr@JU__crt_internal_free_policy@@@@QAEXXZ 1008bd80 f i libucrtd:initctype.obj
 0001:0008adb0       ____lc_codepage_func       1008bdb0 f   libucrtd:initctype.obj
 0001:0008adf0       ____lc_collate_cp_func     1008bdf0 f   libucrtd:initctype.obj
 0001:0008ae30       ____lc_locale_name_func    1008be30 f   libucrtd:initctype.obj
 0001:0008ae70       ____mb_cur_max_func        1008be70 f   libucrtd:initctype.obj
 0001:0008aeb0       ____mb_cur_max_l_func      1008beb0 f   libucrtd:initctype.obj
 0001:0008aee0       ___acrt_locale_initialize_ctype 1008bee0 f   libucrtd:initctype.obj
 0001:0008b660       ?__c32rtomb_utf8@__crt_mbstring@@YAIPAD_UPAU_Mbstatet@@@Z 1008c660 f   libucrtd:c32rtomb.obj
 0001:0008b840       ?reset_and_return@__crt_mbstring@@YAIIPAU_Mbstatet@@@Z 1008c840 f i libucrtd:c32rtomb.obj
 0001:0008b870       ?return_illegal_sequence@__crt_mbstring@@YAIPAU_Mbstatet@@@Z 1008c870 f i libucrtd:c32rtomb.obj
 0001:0008b8a0       _c32rtomb                  1008c8a0 f   libucrtd:c32rtomb.obj
 0001:0008b8c0       ___acrt_add_locale_ref     1008c8c0 f   libucrtd:locale_refcounting.obj
 0001:0008b9d0       ___acrt_free_locale        1008c9d0 f   libucrtd:locale_refcounting.obj
 0001:0008bca0       ___acrt_locale_add_lc_time_reference 1008cca0 f   libucrtd:locale_refcounting.obj
 0001:0008bce0       ___acrt_locale_free_lc_time_if_unreferenced 1008cce0 f   libucrtd:locale_refcounting.obj
 0001:0008bd30       ___acrt_locale_release_lc_time_reference 1008cd30 f   libucrtd:locale_refcounting.obj
 0001:0008bd60       ___acrt_release_locale_ref 1008cd60 f   libucrtd:locale_refcounting.obj
 0001:0008be70       ___acrt_update_thread_locale_data 1008ce70 f   libucrtd:locale_refcounting.obj
 0001:0008bf40       __updatetlocinfoEx_nolock  1008cf40 f   libucrtd:locale_refcounting.obj
 0001:0008bfc0       ___acrt_fp_strflt_to_string 1008cfc0 f   libucrtd:_fptostr.obj
 0001:0008c900       ??0big_integer@__crt_strtox@@QAE@ABU01@@Z 1008d900 f i libucrtd:cfout.obj
 0001:0008c940       ??0big_integer@__crt_strtox@@QAE@XZ 1008d940 f i libucrtd:cfout.obj
 0001:0008ca00       ??4big_integer@__crt_strtox@@QAEAAU01@ABU01@@Z 1008da00 f i libucrtd:cfout.obj
 0001:0008ca40       ??8__crt_strtox@@YA_NABUbig_integer@0@0@Z 1008da40 f i libucrtd:cfout.obj
 0001:0008caa0       ??9__crt_strtox@@YA_NABUbig_integer@0@0@Z 1008daa0 f i libucrtd:cfout.obj
 0001:0008cae0       ?add_carry@__crt_strtox@@YAIAAIII@Z 1008dae0 f i libucrtd:cfout.obj
 0001:0008cb20       ?add_multiply_carry@__crt_strtox@@YAIAAIIII@Z 1008db20 f i libucrtd:cfout.obj
 0001:0008cb60       ?bit_scan_reverse@__crt_strtox@@YAII@Z 1008db60 f i libucrtd:cfout.obj
 0001:0008cb90       ?count_sequential_high_zeroes@__crt_strtox@@YAII@Z 1008db90 f i libucrtd:cfout.obj
 0001:0008cbd0       ?divide@__crt_strtox@@YA_KAAUbig_integer@1@ABU21@@Z 1008dbd0 f i libucrtd:cfout.obj
 0001:0008d650       ?is_zero@__crt_strtox@@YA_NABUbig_integer@1@@Z 1008e650 f i libucrtd:cfout.obj
 0001:0008d680       ?make_big_integer@__crt_strtox@@YA?AUbig_integer@1@_K@Z 1008e680 f i libucrtd:cfout.obj
 0001:0008d730       ?make_big_integer_power_of_two@__crt_strtox@@YA?AUbig_integer@1@I@Z 1008e730 f i libucrtd:cfout.obj
 0001:0008d7e0       ?multiply@__crt_strtox@@YA_NAAUbig_integer@1@ABU21@@Z 1008e7e0 f i libucrtd:cfout.obj
 0001:0008db60       ?multiply@__crt_strtox@@YA_NAAUbig_integer@1@I@Z 1008eb60 f i libucrtd:cfout.obj
 0001:0008dc30       ?multiply_64_32@__crt_strtox@@YA_K_KI@Z 1008ec30 f i libucrtd:cfout.obj
 0001:0008dc50       ?multiply_by_power_of_ten@__crt_strtox@@YA_NAAUbig_integer@1@I@Z 1008ec50 f i libucrtd:cfout.obj
 0001:0008ddf0       ?multiply_core@__crt_strtox@@YAIQAIII@Z 1008edf0 f i libucrtd:cfout.obj
 0001:0008de60       ?shift_left@__crt_strtox@@YA_NAAUbig_integer@1@I@Z 1008ee60 f i libucrtd:cfout.obj
 0001:0008e1b0       ___acrt_fltout             1008f1b0 f   libucrtd:cfout.obj
 0001:0008e560       __fcloseall                1008f560 f   libucrtd:closeall.obj
 0001:0008e690       __isatty                   1008f690 f   libucrtd:isatty.obj
 0001:0008e760       ??$?RUlconv@@@__crt_internal_free_policy@@QBEXQBUlconv@@@Z 1008f760 f i libucrtd:initmon.obj
 0001:0008e780       ??0?$__crt_unique_heap_ptr@Ulconv@@U__crt_internal_free_policy@@@@QAE@QAUlconv@@@Z 1008f780 f i libucrtd:initmon.obj
 0001:0008e7a0       ??1?$__crt_unique_heap_ptr@Ulconv@@U__crt_internal_free_policy@@@@QAE@XZ 1008f7a0 f i libucrtd:initmon.obj
 0001:0008e7c0       ?detach@?$__crt_unique_heap_ptr@Ulconv@@U__crt_internal_free_policy@@@@QAEPAUlconv@@XZ 1008f7c0 f i libucrtd:initmon.obj
 0001:0008e7f0       ?release@?$__crt_unique_heap_ptr@Ulconv@@U__crt_internal_free_policy@@@@QAEXXZ 1008f7f0 f i libucrtd:initmon.obj
 0001:0008e820       ___acrt_locale_free_monetary 1008f820 f   libucrtd:initmon.obj
 0001:0008e9d0       ___acrt_locale_initialize_monetary 1008f9d0 f   libucrtd:initmon.obj
 0001:0008f070       ___acrt_locale_free_numeric 10090070 f   libucrtd:initnum.obj
 0001:0008f120       ___acrt_locale_initialize_numeric 10090120 f   libucrtd:initnum.obj
 0001:0008f570       ??$?RU__crt_lc_time_data@@@__crt_internal_free_policy@@QBEXQBU__crt_lc_time_data@@@Z 10090570 f i libucrtd:inittime.obj
 0001:0008f650       ??0?$__crt_unique_heap_ptr@U__crt_lc_time_data@@U__crt_internal_free_policy@@@@QAE@QAU__crt_lc_time_data@@@Z 10090650 f i libucrtd:inittime.obj
 0001:0008f670       ??1?$__crt_unique_heap_ptr@U__crt_lc_time_data@@U__crt_internal_free_policy@@@@QAE@XZ 10090670 f i libucrtd:inittime.obj
 0001:0008f690       ??B?$__crt_unique_heap_ptr@U__crt_lc_time_data@@U__crt_internal_free_policy@@@@QBE_NXZ 10090690 f i libucrtd:inittime.obj
 0001:0008f6b0       ?detach@?$__crt_unique_heap_ptr@U__crt_lc_time_data@@U__crt_internal_free_policy@@@@QAEPAU__crt_lc_time_data@@XZ 100906b0 f i libucrtd:inittime.obj
 0001:0008f720       ?get@?$__crt_unique_heap_ptr@U__crt_lc_time_data@@U__crt_internal_free_policy@@@@QBEPAU__crt_lc_time_data@@XZ 10090720 f i libucrtd:inittime.obj
 0001:0008fbf0       ?is_valid@?$__crt_unique_heap_ptr@U__crt_lc_time_data@@U__crt_internal_free_policy@@@@QBE_NXZ 10090bf0 f i libucrtd:inittime.obj
 0001:0008fc20       ?release@?$__crt_unique_heap_ptr@U__crt_lc_time_data@@U__crt_internal_free_policy@@@@QAEXXZ 10090c20 f i libucrtd:inittime.obj
 0001:0008fc50       ___acrt_locale_free_time   10090c50 f   libucrtd:inittime.obj
 0001:0008fda0       ___acrt_locale_initialize_time 10090da0 f   libucrtd:inittime.obj
 0001:0008fe20       ___pctype_func             10090e20 f   libucrtd:ctype.obj
 0001:0008fe60       ___pwctype_func            10090e60 f   libucrtd:ctype.obj
 0001:00090340       _wcsncat_s                 10091340 f   libucrtd:wcsncat_s.obj
 0001:00090360       _wcscmp                    10091360 f   libucrtd:wcscmp.obj
 0001:000903e0       _wcscspn                   100913e0 f   libucrtd:wcscspn.obj
 0001:00090450       _wcspbrk                   10091450 f   libucrtd:wcspbrk.obj
 0001:000904b0       ??0?$__crt_scoped_stack_ptr@_W@@QAE@U?$__crt_scoped_stack_ptr_tag@_W@@@Z 100914b0 f i libucrtd:getstringtypea.obj
 0001:000904d0       ??0?$__crt_scoped_stack_ptr_tag@_W@@QAE@QA_W@Z 100914d0 f i libucrtd:getstringtypea.obj
 0001:000904f0       ??1?$__crt_scoped_stack_ptr@_W@@QAE@XZ 100914f0 f i libucrtd:getstringtypea.obj
 0001:00090510       ?get@?$__crt_scoped_stack_ptr@_W@@QBEPA_WXZ 10091510 f i libucrtd:getstringtypea.obj
 0001:00090530       __MallocaComputeSize       10091530 f i libucrtd:getstringtypea.obj
 0001:00090560       __MarkAllocaS              10091560 f i libucrtd:getstringtypea.obj
 0001:00090590       ___acrt_GetStringTypeA     10091590 f   libucrtd:getstringtypea.obj
 0001:00090740       __freea_crt                10091740 f i libucrtd:getstringtypea.obj
 0001:00091310       ___acrt_get_qualified_locale 10092310 f   libucrtd:get_qualified_locale.obj
 0001:00092320       ___acrt_get_qualified_locale_downlevel 10093320 f   libucrtd:getqloc_downlevel.obj
 0001:000925c0       _localeconv                100935c0 f   libucrtd:localeconv.obj
 0001:00092600       ??$?RU__crt_lowio_handle_data@@@__crt_internal_free_policy@@QBEXQBU__crt_lowio_handle_data@@@Z 10093600 f i libucrtd:osfinfo.obj
 0001:00092620       ??0?$__crt_unique_heap_ptr@U__crt_lowio_handle_data@@U__crt_internal_free_policy@@@@QAE@QAU__crt_lowio_handle_data@@@Z 10093620 f i libucrtd:osfinfo.obj
 0001:00092640       ??1?$__crt_unique_heap_ptr@U__crt_lowio_handle_data@@U__crt_internal_free_policy@@@@QAE@XZ 10093640 f i libucrtd:osfinfo.obj
 0001:00092660       ??B?$__crt_unique_heap_ptr@U__crt_lowio_handle_data@@U__crt_internal_free_policy@@@@QBE_NXZ 10093660 f i libucrtd:osfinfo.obj
 0001:00092680       ?detach@?$__crt_unique_heap_ptr@U__crt_lowio_handle_data@@U__crt_internal_free_policy@@@@QAEPAU__crt_lowio_handle_data@@XZ 10093680 f i libucrtd:osfinfo.obj
 0001:000926b0       ?get@?$__crt_unique_heap_ptr@U__crt_lowio_handle_data@@U__crt_internal_free_policy@@@@QBEPAU__crt_lowio_handle_data@@XZ 100936b0 f i libucrtd:osfinfo.obj
 0001:000926d0       ?is_valid@?$__crt_unique_heap_ptr@U__crt_lowio_handle_data@@U__crt_internal_free_policy@@@@QBE_NXZ 100936d0 f i libucrtd:osfinfo.obj
 0001:00092700       ?release@?$__crt_unique_heap_ptr@U__crt_lowio_handle_data@@U__crt_internal_free_policy@@@@QAEXXZ 10093700 f i libucrtd:osfinfo.obj
 0001:00092730       ___acrt_lowio_create_handle_array 10093730 f   libucrtd:osfinfo.obj
 0001:00092890       ___acrt_lowio_destroy_handle_array 10093890 f   libucrtd:osfinfo.obj
 0001:000928f0       ___acrt_lowio_ensure_fh_exists 100938f0 f   libucrtd:osfinfo.obj
 0001:00092a50       ___acrt_lowio_lock_fh      10093a50 f   libucrtd:osfinfo.obj
 0001:00092a80       ___acrt_lowio_set_os_handle 10093a80 f   libucrtd:osfinfo.obj
 0001:00092b50       ___acrt_lowio_unlock_fh    10093b50 f   libucrtd:osfinfo.obj
 0001:00092b80       __alloc_osfhnd             10093b80 f   libucrtd:osfinfo.obj
 0001:00092d60       __free_osfhnd              10093d60 f   libucrtd:osfinfo.obj
 0001:00092e50       __get_osfhandle            10093e50 f   libucrtd:osfinfo.obj
 0001:00092fd0       __open_osfhandle           10093fd0 f   libucrtd:osfinfo.obj
 0001:000942e0       __i64toa                   100952e0 f   libucrtd:xtoa.obj
 0001:00094330       __i64toa_s                 10095330 f   libucrtd:xtoa.obj
 0001:00094380       __i64tow                   10095380 f   libucrtd:xtoa.obj
 0001:000943d0       __i64tow_s                 100953d0 f   libucrtd:xtoa.obj
 0001:00094420       __itoa                     10095420 f   libucrtd:xtoa.obj
 0001:00094470       __itoa_s                   10095470 f   libucrtd:xtoa.obj
 0001:000944c0       __itow                     100954c0 f   libucrtd:xtoa.obj
 0001:00094510       __itow_s                   10095510 f   libucrtd:xtoa.obj
 0001:00094560       __ltoa                     10095560 f   libucrtd:xtoa.obj
 0001:000945b0       __ltoa_s                   100955b0 f   libucrtd:xtoa.obj
 0001:00094600       __ltow                     10095600 f   libucrtd:xtoa.obj
 0001:00094650       __ltow_s                   10095650 f   libucrtd:xtoa.obj
 0001:000946a0       __ui64toa                  100956a0 f   libucrtd:xtoa.obj
 0001:000946d0       __ui64toa_s                100956d0 f   libucrtd:xtoa.obj
 0001:00094700       __ui64tow                  10095700 f   libucrtd:xtoa.obj
 0001:00094730       __ui64tow_s                10095730 f   libucrtd:xtoa.obj
 0001:00094760       __ultoa                    10095760 f   libucrtd:xtoa.obj
 0001:00094790       __ultoa_s                  10095790 f   libucrtd:xtoa.obj
 0001:000947c0       __ultow                    100957c0 f   libucrtd:xtoa.obj
 0001:000947f0       __ultow_s                  100957f0 f   libucrtd:xtoa.obj
 0001:00094c00       __mbstowcs_l               10095c00 f   libucrtd:mbstowcs.obj
 0001:00094c20       __mbstowcs_s_l             10095c20 f   libucrtd:mbstowcs.obj
 0001:00094fe0       _mbstowcs                  10095fe0 f   libucrtd:mbstowcs.obj
 0001:00095030       _mbstowcs_s                10096030 f   libucrtd:mbstowcs.obj
 0001:00095720       __wcstombs_l               10096720 f   libucrtd:wcstombs.obj
 0001:00095740       __wcstombs_s_l             10096740 f   libucrtd:wcstombs.obj
 0001:00095ab0       _wcstombs                  10096ab0 f   libucrtd:wcstombs.obj
 0001:00095ad0       _wcstombs_s                10096ad0 f   libucrtd:wcstombs.obj
 0001:00095b00       ___acrt_OutputDebugStringA@4 10096b00 f   libucrtd:outputdebugstringa.obj
 0001:00095b90       __malloc_base              10096b90 f   libucrtd:malloc_base.obj
 0001:00095d20       ___acrt_DownlevelLCIDToLocaleName 10096d20 f   libucrtd:lcidtoname_downlevel.obj
 0001:00095df0       ___acrt_DownlevelLocaleNameToLCID 10096df0 f   libucrtd:lcidtoname_downlevel.obj
 0001:00095e30       ___ascii_wcsnicmp          10096e30 f   libucrtd:wcsnicmp.obj
 0001:00095ec0       __towlower_fast_internal   10096ec0 f i libucrtd:wcsnicmp.obj
 0001:00095f00       __towlower_internal        10096f00 f i libucrtd:wcsnicmp.obj
 0001:00095f40       __wcsnicmp                 10096f40 f   libucrtd:wcsnicmp.obj
 0001:00096080       __wcsnicmp_l               10097080 f   libucrtd:wcsnicmp.obj
 0001:00096280       __strnicmp                 10097280 f   libucrtd:strnicmp.obj
 0001:00096440       __strnicmp_l               10097440 f   libucrtd:strnicmp.obj
 0001:00097040       ??$tsopen_nolock@PAHABQAHABQBDABHABHABHABH@?$__crt_char_traits@D@@SAH$$QAPAHABQAHABQBDABH333@Z 10098040 f i libucrtd:open.obj
 0001:00097080       ??$tsopen_nolock@PAHABQAHABQB_WABHABHABHABH@?$__crt_char_traits@_W@@SAH$$QAPAHABQAHABQB_WABH333@Z 10098080 f i libucrtd:open.obj
 0001:000970c0       ??$tsopen_nolock@PAHPAHABQBDABHHABHH@?$__crt_char_traits@D@@SAH$$QAPAH0ABQBDABH$$QAH23@Z 100980c0 f i libucrtd:open.obj
 0001:00097100       ??$tsopen_nolock@PAHPAHABQB_WABHHABHH@?$__crt_char_traits@_W@@SAH$$QAPAH0ABQB_WABH$$QAH23@Z 10098100 f i libucrtd:open.obj
 0001:00097ca0       __open                     10098ca0 f   libucrtd:open.obj
 0001:00097ce0       __sopen                    10098ce0 f   libucrtd:open.obj
 0001:00097d50       __sopen_dispatch           10098d50 f   libucrtd:open.obj
 0001:00097d80       __sopen_nolock             10098d80 f   libucrtd:open.obj
 0001:00097e00       __sopen_s                  10098e00 f   libucrtd:open.obj
 0001:00097e30       __wopen                    10098e30 f   libucrtd:open.obj
 0001:00097e70       __wsopen                   10098e70 f   libucrtd:open.obj
 0001:00097ee0       __wsopen_dispatch          10098ee0 f   libucrtd:open.obj
 0001:00097f10       __wsopen_nolock            10098f10 f   libucrtd:open.obj
 0001:000984a0       __wsopen_s                 100994a0 f   libucrtd:open.obj
 0001:000984d0       ___p__commode              100994d0 f   libucrtd:ncommode.obj
 0001:000986f0       __commit                   100996f0 f   libucrtd:commit.obj
 0001:00099db0       __utf8_no_of_trailbytes    1009adb0 f i libucrtd:write.obj
 0001:00099dd0       __write                    1009add0 f   libucrtd:write.obj
 0001:0009a020       __write_nolock             1009b020 f   libucrtd:write.obj
 0001:0009abe0       __lseek                    1009bbe0 f   libucrtd:lseek.obj
 0001:0009ac00       __lseek_nolock             1009bc00 f   libucrtd:lseek.obj
 0001:0009ac20       __lseeki64                 1009bc20 f   libucrtd:lseek.obj
 0001:0009ac40       __lseeki64_nolock          1009bc40 f   libucrtd:lseek.obj
 0001:0009ac60       ___acrt_stdio_allocate_buffer_nolock 1009bc60 f   libucrtd:_getbuf.obj
 0001:0009ae90       _qsort                     1009be90 f   libucrtd:qsort.obj
 0001:0009b510       _strpbrk                   1009c510 f   libucrtd:strpbrk.obj
 0001:0009b550       ??B?$__crt_scoped_stack_ptr@_W@@QBE_NXZ 1009c550 f i libucrtd:lcmapstringa.obj
 0001:0009b940       ___acrt_LCMapStringA       1009c940 f   libucrtd:lcmapstringa.obj
 0001:0009b9d0       __wcsnicoll                1009c9d0 f   libucrtd:wcsnicol.obj
 0001:0009bb90       __wcsnicoll_l              1009cb90 f   libucrtd:wcsnicol.obj
 0001:0009bde0       __strnicoll                1009cde0 f   libucrtd:strnicol.obj
 0001:0009be30       __strnicoll_l              1009ce30 f   libucrtd:strnicol.obj
 0001:0009c250       ___acrt_SetEnvironmentVariableA 1009d250 f   libucrtd:setenvironmentvariablea.obj
 0001:0009c310       __set_error_mode           1009d310 f   libucrtd:set_error_mode.obj
 0001:0009c3d0       ___acrt_GetStringTypeW     1009d3d0 f   libucrtd:getstringtypew.obj
 0001:0009c3f0       ?__mbrtoc32_utf8@__crt_mbstring@@YAIPA_UPBDIPAU_Mbstatet@@@Z 1009d3f0 f   libucrtd:mbrtoc32.obj
 0001:0009c6c0       _mbrtoc32                  1009d6c0 f   libucrtd:mbrtoc32.obj
 0001:0009c860       ___acrt_GetLocaleInfoA     1009d860 f   libucrtd:getlocaleinfoa.obj
 0001:0009cc20       _log10                     1009dc20 f   libucrtd:log10.obj
 0001:0009cc70       _ceil                      1009dc70 f   libucrtd:ceil_pentium4.obj
 0001:0009ccb0       __ceil_pentium4            1009dcb0 f   libucrtd:ceil_pentium4.obj
 0001:0009cd90       _fegetenv                  1009dd90 f   libucrtd:fegetenv.obj
 0001:0009cdb0       _fesetenv                  1009ddb0 f   libucrtd:fesetenv.obj
 0001:0009ce20       _feholdexcept              1009de20 f   libucrtd:feholdexcept.obj
 0001:0009ce90       ___ascii_wcsicmp           1009de90 f   libucrtd:wcsicmp.obj
 0001:0009cf00       __wcsicmp                  1009df00 f   libucrtd:wcsicmp.obj
 0001:0009d040       __wcsicmp_l                1009e040 f   libucrtd:wcsicmp.obj
 0001:0009d220       ?__wcsrtombs_utf8@__crt_mbstring@@YAIPADPAPB_WIPAU_Mbstatet@@@Z 1009e220 f   libucrtd:wcrtomb.obj
 0001:0009da00       _wcrtomb                   1009ea00 f   libucrtd:wcrtomb.obj
 0001:0009da50       _wcrtomb_s                 1009ea50 f   libucrtd:wcrtomb.obj
 0001:0009db70       _wcsrtombs                 1009eb70 f   libucrtd:wcrtomb.obj
 0001:0009db90       _wcsrtombs_s               1009eb90 f   libucrtd:wcrtomb.obj
 0001:0009dee0       _wctob                     1009eee0 f   libucrtd:wcrtomb.obj
 0001:0009df60       __towlower_l               1009ef60 f   libucrtd:towlower.obj
 0001:0009e060       _towlower                  1009f060 f   libucrtd:towlower.obj
 0001:0009e080       ___ascii_strnicmp          1009f080 f   libucrtd:_strnicm.obj
 0001:0009e0f0       ??$__crt_interlocked_read@H@@YAHPDH@Z 1009f0f0 f i libucrtd:setmode.obj
 0001:0009e110       ?value@?$dual_state_global@H@__crt_state_management@@QAEAAHXZ 1009f110 f i libucrtd:setmode.obj
 0001:0009e130       __get_fmode                1009f130 f   libucrtd:setmode.obj
 0001:0009e1d0       __set_fmode                1009f1d0 f   libucrtd:setmode.obj
 0001:0009e280       __setmode                  1009f280 f   libucrtd:setmode.obj
 0001:0009e540       __setmode_nolock           1009f540 f   libucrtd:setmode.obj
 0001:0009e8a0       ??0__crt_seek_guard@@QAE@H_J@Z 1009f8a0 f i libucrtd:chsize.obj
 0001:0009e910       ??1__crt_seek_guard@@QAE@XZ 1009f910 f i libucrtd:chsize.obj
 0001:0009ea10       __chsize                   1009fa10 f   libucrtd:chsize.obj
 0001:0009ea50       __chsize_nolock            1009fa50 f   libucrtd:chsize.obj
 0001:0009eca0       __chsize_s                 1009fca0 f   libucrtd:chsize.obj
 0001:0009f8a0       __read                     100a08a0 f   libucrtd:read.obj
 0001:0009fb80       __read_nolock              100a0b80 f   libucrtd:read.obj
 0001:000a0520       __umask                    100a1520 f   libucrtd:umask.obj
 0001:000a0560       __umask_s                  100a1560 f   libucrtd:umask.obj
 0001:000a075a       __putwch                   100a175a f   libucrtd:putwch.obj
 0001:000a0787       __putwch_nolock            100a1787 f   libucrtd:putwch.obj
 0001:000a07c0       ___strncnt                 100a17c0 f   libucrtd:strncnt.obj
 0001:000a0810       ___acrt_CompareStringW     100a1810 f   libucrtd:comparestringw.obj
 0001:000a0d50       ___acrt_CompareStringA     100a1d50 f   libucrtd:comparestringa.obj
 0001:000a0db0       ___acrt_initialize_sse2    100a1db0 f   libucrtd:mathfcns.obj
 0001:000a0dd0       __set_SSE2_enable          100a1dd0 f   libucrtd:mathfcns.obj
 0001:000a0e20       __CIlog10                  100a1e20 f   libucrtd:log10_impl.obj
 0001:000a0e5b       __CIlog10_default          100a1e5b f   libucrtd:log10_impl.obj
 0001:000a0e6f       __log10_default            100a1e6f     libucrtd:log10_impl.obj
 0001:000a0f30       __CIlog10_pentium4         100a1f30 f   libucrtd:log10_pentium4.obj
 0001:000a0f48       __log10_pentium4           100a1f48     libucrtd:log10_pentium4.obj
 0001:000a11c0       ___libm_error_support      100a21c0 f   libucrtd:libm_error.obj
 0001:000a1780       ___libm_setusermatherr     100a2780 f   libucrtd:libm_error.obj
 0001:000a17c0       __ceil_default             100a27c0 f   libucrtd:ceil.obj
 0001:000a18e0       ??$__acrt_fenv_shift_bits@W4__acrt_fenv_abstract_control@@@@YA?AW4__acrt_fenv_abstract_control@@W40@0I@Z 100a28e0 f i libucrtd:_fenvutils.obj
